; ModuleID = 'XalanXMLSerializerBase.cpp'
source_filename = "XalanXMLSerializerBase.cpp"
target datalayout = "e-m:e-p270:32:32-p271:32:32-p272:64:64-i64:64-f80:128-n8:16:32:64-S128"
target triple = "x86_64-unknown-linux-gnu"

%"class.xalanc_1_10::XalanDOMString" = type <{ %"class.xalanc_1_10::XalanVector", i32, [4 x i8] }>
%"class.xalanc_1_10::XalanVector" = type { %"class.xercesc_2_7::MemoryManager"*, i64, i64, i16* }
%"class.xercesc_2_7::MemoryManager" = type { i32 (...)** }
%"class.xalanc_1_10::XalanXMLSerializerBase" = type { %"class.xalanc_1_10::FormatterListener", i8, i8, [6 x i8], %"class.xalanc_1_10::XalanDOMString", %"class.xalanc_1_10::XalanDOMString", %"class.xalanc_1_10::XalanDOMString"*, %"class.xalanc_1_10::XalanDOMString", %"class.xalanc_1_10::XalanDOMString", i8, i8, %"class.xalanc_1_10::XalanVector.0" }
%"class.xalanc_1_10::FormatterListener" = type { %"class.xercesc_2_7::DocumentHandler", %"class.xalanc_1_10::PrefixResolver"*, i32, i32 }
%"class.xercesc_2_7::DocumentHandler" = type { i32 (...)** }
%"class.xalanc_1_10::PrefixResolver" = type opaque
%"class.xalanc_1_10::XalanVector.0" = type { %"class.xercesc_2_7::MemoryManager"*, i64, i64, i8* }
%"class.xercesc_2_7::XMLDeleter" = type { i32 (...)** }
%"class.xercesc_2_7::SAXException" = type { i32 (...)**, i16*, %"class.xercesc_2_7::MemoryManager"* }
%"class.xercesc_2_7::XMemory" = type { i8 }
%"class.xercesc_2_7::Locator" = type { i32 (...)** }
%"class.xalanc_1_10::Writer" = type { i32 (...)** }

$_ZN11xercesc_2_710XMLDeleterD0Ev = comdat any

$_ZN11xercesc_2_710XMLDeleterD2Ev = comdat any

$_ZNK11xalanc_1_1014XalanDOMString6lengthEv = comdat any

$_ZN11xalanc_1_1011XalanVectorIbNS_31MemoryManagedConstructionTraitsIbEEEC2ERN11xercesc_2_713MemoryManagerEm = comdat any

$_ZN11xalanc_1_1017FormatterListener13setXMLVersionENS0_11eXMLVersionE = comdat any

$_ZN11xalanc_1_107isEmptyERKNS_14XalanDOMStringE = comdat any

$_ZN11xalanc_1_1010startsWithERKNS_14XalanDOMStringEPKt = comdat any

$_ZN11xalanc_1_1011XalanVectorIbNS_31MemoryManagedConstructionTraitsIbEEED2Ev = comdat any

$_ZN11xalanc_1_1014XalanDOMStringD2Ev = comdat any

$_ZN11xalanc_1_1022XalanXMLSerializerBase19isUTF16LowSurrogateEt = comdat any

$_ZN11xalanc_1_106c_wstrERKNS_14XalanDOMStringE = comdat any

$_ZN11xercesc_2_712SAXExceptionC2EPKtPNS_13MemoryManagerE = comdat any

$_ZN11xercesc_2_712SAXExceptionD2Ev = comdat any

$_ZNK11xalanc_1_1014XalanDOMString5c_strEv = comdat any

$_ZNK11xalanc_1_1014XalanDOMString5emptyEv = comdat any

$_ZN11xalanc_1_106equalsEPKtjS1_j = comdat any

$_ZN11xalanc_1_106lengthEPKt = comdat any

$_ZN11xalanc_1_1014XalanDOMString4swapERS0_ = comdat any

$_ZNK11xalanc_1_1014XalanDOMString10invariantsEv = comdat any

$_ZNK11xalanc_1_1014XalanDOMString4sizeEv = comdat any

$_ZN11xalanc_1_106lengthERKNS_14XalanDOMStringE = comdat any

$_ZN11xalanc_1_1011XalanVectorItNS_31MemoryManagedConstructionTraitsItEEED2Ev = comdat any

$_ZNK11xalanc_1_1011XalanVectorItNS_31MemoryManagedConstructionTraitsItEEE10invariantsEv = comdat any

$__clang_call_terminate = comdat any

$_ZN11xalanc_1_1011XalanVectorItNS_31MemoryManagedConstructionTraitsItEEE7destroyEPtS4_ = comdat any

$_ZN11xalanc_1_1011XalanVectorItNS_31MemoryManagedConstructionTraitsItEEE5beginEv = comdat any

$_ZN11xalanc_1_1011XalanVectorItNS_31MemoryManagedConstructionTraitsItEEE3endEv = comdat any

$_ZN11xalanc_1_1011XalanVectorItNS_31MemoryManagedConstructionTraitsItEEE10deallocateEPt = comdat any

$_ZN11xalanc_1_1011XalanVectorItNS_31MemoryManagedConstructionTraitsItEEE7destroyERt = comdat any

$_ZN11xalanc_1_1011XalanVectorItNS_31MemoryManagedConstructionTraitsItEEE10endPointerEv = comdat any

$_ZN11xercesc_2_77XMemoryC2Ev = comdat any

$_ZN11xercesc_2_79XMLString9replicateEPKtPNS_13MemoryManagerE = comdat any

$_ZN11xercesc_2_712SAXExceptionD0Ev = comdat any

$_ZNK11xercesc_2_712SAXException10getMessageEv = comdat any

$_ZN11xercesc_2_79XMLString9stringLenEPKt = comdat any

$_ZNK11xalanc_1_1011XalanVectorItNS_31MemoryManagedConstructionTraitsItEEE5emptyEv = comdat any

$_ZNK11xalanc_1_1011XalanVectorItNS_31MemoryManagedConstructionTraitsItEEEixEm = comdat any

$_ZN11xalanc_1_1011XalanVectorItNS_31MemoryManagedConstructionTraitsItEEE4swapERS3_ = comdat any

$_ZSt4swapIjENSt9enable_ifIXsr6__and_ISt6__not_ISt15__is_tuple_likeIT_EESt21is_move_constructibleIS3_ESt18is_move_assignableIS3_EEE5valueEvE4typeERS3_SC_ = comdat any

$_ZSt4moveIRjEONSt16remove_referenceIT_E4typeEOS2_ = comdat any

$_ZN11xalanc_1_1011XalanVectorIbNS_31MemoryManagedConstructionTraitsIbEEE8allocateEm = comdat any

$_ZNK11xalanc_1_1011XalanVectorIbNS_31MemoryManagedConstructionTraitsIbEEE10invariantsEv = comdat any

$_ZN11xalanc_1_1011XalanVectorIbNS_31MemoryManagedConstructionTraitsIbEEE7destroyEPbS4_ = comdat any

$_ZN11xalanc_1_1011XalanVectorIbNS_31MemoryManagedConstructionTraitsIbEEE5beginEv = comdat any

$_ZN11xalanc_1_1011XalanVectorIbNS_31MemoryManagedConstructionTraitsIbEEE3endEv = comdat any

$_ZN11xalanc_1_1011XalanVectorIbNS_31MemoryManagedConstructionTraitsIbEEE10deallocateEPb = comdat any

$_ZN11xalanc_1_1011XalanVectorIbNS_31MemoryManagedConstructionTraitsIbEEE7destroyERb = comdat any

$_ZN11xalanc_1_1011XalanVectorIbNS_31MemoryManagedConstructionTraitsIbEEE10endPointerEv = comdat any

$_ZTSN11xercesc_2_712SAXExceptionE = comdat any

$_ZTSN11xercesc_2_77XMemoryE = comdat any

$_ZTIN11xercesc_2_77XMemoryE = comdat any

$_ZTIN11xercesc_2_712SAXExceptionE = comdat any

$_ZTVN11xercesc_2_710XMLDeleterE = comdat any

$_ZTSN11xercesc_2_710XMLDeleterE = comdat any

$_ZTIN11xercesc_2_710XMLDeleterE = comdat any

$_ZTVN11xercesc_2_712SAXExceptionE = comdat any

@_ZN11xalanc_1_1022XalanXMLSerializerBase14CharFunctor1_013s_lastSpecialE = dso_local constant i64 127, align 8, !dbg !0
@_ZN11xalanc_1_1022XalanXMLSerializerBase14CharFunctor1_014s_specialCharsE = dso_local constant <{ [63 x i8], [65 x i8] }> <{ [63 x i8] c"\04\04\04\04\04\04\04\04\04\01\02\04\04\02\04\04\04\04\04\04\04\04\04\04\04\04\04\04\04\04\04\04\00\00\01\00\00\00\02\00\00\00\00\00\00\00\00\00\00\00\00\00\00\00\00\00\00\00\00\00\02\00\02", [65 x i8] zeroinitializer }>, align 16, !dbg !1117
@_ZN11xalanc_1_1022XalanXMLSerializerBase14CharFunctor1_113s_lastSpecialE = dso_local constant i64 159, align 8, !dbg !1122
@_ZN11xalanc_1_1022XalanXMLSerializerBase14CharFunctor1_114s_specialCharsE = dso_local constant [160 x i8] c"\00\05\05\05\05\05\05\05\05\05\05\05\05\05\05\05\05\05\05\05\05\05\05\05\05\05\05\05\05\05\05\05\00\00\01\00\00\00\02\00\00\00\00\00\00\00\00\00\00\00\00\00\00\00\00\00\00\00\00\00\02\00\02\00\00\00\00\00\00\00\00\00\00\00\00\00\00\00\00\00\00\00\00\00\00\00\00\00\00\00\00\00\00\00\00\00\00\00\00\00\00\00\00\00\00\00\00\00\00\00\00\00\00\00\00\00\00\00\00\00\00\00\00\00\00\00\00\05\05\05\05\05\05\02\05\05\05\05\05\05\05\05\05\05\05\05\05\05\05\05\05\05\05\05\05\05\05\05\05\05", align 16, !dbg !1137
@_ZTVN11xalanc_1_1022XalanXMLSerializerBaseE = dso_local unnamed_addr constant { [30 x i8*] } { [30 x i8*] [i8* null, i8* bitcast ({ i8*, i8*, i8* }* @_ZTIN11xalanc_1_1022XalanXMLSerializerBaseE to i8*), i8* bitcast (void (%"class.xalanc_1_10::XalanXMLSerializerBase"*)* @_ZN11xalanc_1_1022XalanXMLSerializerBaseD1Ev to i8*), i8* bitcast (void (%"class.xalanc_1_10::XalanXMLSerializerBase"*)* @_ZN11xalanc_1_1022XalanXMLSerializerBaseD0Ev to i8*), i8* bitcast (void (%"class.xalanc_1_10::XalanXMLSerializerBase"*, i16*, i32)* @_ZN11xalanc_1_1022XalanXMLSerializerBase10charactersEPKtj to i8*), i8* bitcast (void ()* @__cxa_pure_virtual to i8*), i8* bitcast (void ()* @__cxa_pure_virtual to i8*), i8* bitcast (void (%"class.xalanc_1_10::XalanXMLSerializerBase"*, i16*, i32)* @_ZN11xalanc_1_1022XalanXMLSerializerBase19ignorableWhitespaceEPKtj to i8*), i8* bitcast (void (%"class.xalanc_1_10::XalanXMLSerializerBase"*, i16*, i16*)* @_ZN11xalanc_1_1022XalanXMLSerializerBase21processingInstructionEPKtS2_ to i8*), i8* bitcast (void (%"class.xalanc_1_10::XalanXMLSerializerBase"*)* @_ZN11xalanc_1_1022XalanXMLSerializerBase13resetDocumentEv to i8*), i8* bitcast (void (%"class.xalanc_1_10::XalanXMLSerializerBase"*, %"class.xercesc_2_7::Locator"*)* @_ZN11xalanc_1_1022XalanXMLSerializerBase18setDocumentLocatorEPKN11xercesc_2_77LocatorE to i8*), i8* bitcast (void (%"class.xalanc_1_10::XalanXMLSerializerBase"*)* @_ZN11xalanc_1_1022XalanXMLSerializerBase13startDocumentEv to i8*), i8* bitcast (void ()* @__cxa_pure_virtual to i8*), i8* bitcast (void ()* @__cxa_pure_virtual to i8*), i8* bitcast (void ()* @__cxa_pure_virtual to i8*), i8* bitcast (void (%"class.xalanc_1_10::XalanXMLSerializerBase"*, i16*, i32)* @_ZN11xalanc_1_1022XalanXMLSerializerBase5cdataEPKtj to i8*), i8* bitcast (void ()* @__cxa_pure_virtual to i8*), i8* bitcast (%"class.xalanc_1_10::Writer"* (%"class.xalanc_1_10::FormatterListener"*)* @_ZNK11xalanc_1_1017FormatterListener9getWriterEv to i8*), i8* bitcast (%"class.xalanc_1_10::XalanDOMString"* (%"class.xalanc_1_10::XalanXMLSerializerBase"*)* @_ZNK11xalanc_1_1022XalanXMLSerializerBase16getDoctypeSystemEv to i8*), i8* bitcast (%"class.xalanc_1_10::XalanDOMString"* (%"class.xalanc_1_10::XalanXMLSerializerBase"*)* @_ZNK11xalanc_1_1022XalanXMLSerializerBase16getDoctypePublicEv to i8*), i8* bitcast (void ()* @__cxa_pure_virtual to i8*), i8* bitcast (%"class.xalanc_1_10::XalanDOMString"* (%"class.xalanc_1_10::FormatterListener"*)* @_ZNK11xalanc_1_1017FormatterListener12getMediaTypeEv to i8*), i8* bitcast (i32 (%"class.xalanc_1_10::FormatterListener"*)* @_ZNK11xalanc_1_1017FormatterListener9getIndentEv to i8*), i8* bitcast (void ()* @__cxa_pure_virtual to i8*), i8* bitcast (void ()* @__cxa_pure_virtual to i8*), i8* bitcast (void ()* @__cxa_pure_virtual to i8*), i8* bitcast (void ()* @__cxa_pure_virtual to i8*), i8* bitcast (void ()* @__cxa_pure_virtual to i8*), i8* bitcast (void ()* @__cxa_pure_virtual to i8*), i8* bitcast (void ()* @__cxa_pure_virtual to i8*)] }, align 8
@_ZN11xalanc_1_1022XalanXMLSerializerBase11s_1_0StringE = dso_local constant %"class.xalanc_1_10::XalanDOMString"* @_ZN11xalanc_1_10L16s_local1_0StringE, align 8, !dbg !1142
@_ZN11xalanc_1_1022XalanXMLSerializerBase11s_1_1StringE = dso_local constant %"class.xalanc_1_10::XalanDOMString"* @_ZN11xalanc_1_10L16s_local1_1StringE, align 8, !dbg !1144
@_ZTVN10__cxxabiv120__si_class_type_infoE = external dso_local global i8*
@_ZTSN11xercesc_2_712SAXExceptionE = linkonce_odr dso_local constant [30 x i8] c"N11xercesc_2_712SAXExceptionE\00", comdat, align 1
@_ZTVN10__cxxabiv117__class_type_infoE = external dso_local global i8*
@_ZTSN11xercesc_2_77XMemoryE = linkonce_odr dso_local constant [24 x i8] c"N11xercesc_2_77XMemoryE\00", comdat, align 1
@_ZTIN11xercesc_2_77XMemoryE = linkonce_odr dso_local constant { i8*, i8* } { i8* bitcast (i8** getelementptr inbounds (i8*, i8** @_ZTVN10__cxxabiv117__class_type_infoE, i64 2) to i8*), i8* getelementptr inbounds ([24 x i8], [24 x i8]* @_ZTSN11xercesc_2_77XMemoryE, i32 0, i32 0) }, comdat, align 8
@_ZTIN11xercesc_2_712SAXExceptionE = linkonce_odr dso_local constant { i8*, i8*, i8* } { i8* bitcast (i8** getelementptr inbounds (i8*, i8** @_ZTVN10__cxxabiv120__si_class_type_infoE, i64 2) to i8*), i8* getelementptr inbounds ([30 x i8], [30 x i8]* @_ZTSN11xercesc_2_712SAXExceptionE, i32 0, i32 0), i8* bitcast ({ i8*, i8* }* @_ZTIN11xercesc_2_77XMemoryE to i8*) }, comdat, align 8
@_ZN11xalanc_1_1017FormatterListener10s_piTargetE = external dso_local constant [0 x i16], align 2
@_ZN11xalanc_1_1017FormatterListener8s_piDataE = external dso_local constant [0 x i16], align 2
@_ZN11xalanc_1_1022XalanXMLSerializerBase20s_xhtmlDocTypeStringE = dso_local constant [18 x i16] [i16 45, i16 47, i16 47, i16 87, i16 51, i16 67, i16 47, i16 47, i16 68, i16 84, i16 68, i16 32, i16 88, i16 72, i16 84, i16 77, i16 76, i16 0], align 16, !dbg !1146
@_ZN11xalanc_1_1022XalanXMLSerializerBase26s_xhtmlDocTypeStringLengthE = dso_local constant i32 17, align 4, !dbg !1151
@_ZN11xalanc_1_10L17s_localUTF8StringE = internal global %"class.xalanc_1_10::XalanDOMString" zeroinitializer, align 8, !dbg !1153
@__dso_handle = external hidden global i8
@_ZN11xalanc_1_10L18s_localUTF16StringE = internal global %"class.xalanc_1_10::XalanDOMString" zeroinitializer, align 8, !dbg !1155
@_ZN11xalanc_1_10L16s_local1_0StringE = internal global %"class.xalanc_1_10::XalanDOMString" zeroinitializer, align 8, !dbg !1157
@_ZN11xalanc_1_10L16s_local1_1StringE = internal global %"class.xalanc_1_10::XalanDOMString" zeroinitializer, align 8, !dbg !1159
@_ZN11xalanc_1_1024XalanTranscodingServices12s_utf8StringE = external dso_local constant [0 x i16], align 2
@_ZN11xalanc_1_1024XalanTranscodingServices13s_utf16StringE = external dso_local constant [0 x i16], align 2
@_ZN11xalanc_1_10L18s_1_1VersionStringE = internal constant [4 x i16] [i16 49, i16 46, i16 49, i16 0], align 2, !dbg !1161
@_ZN11xalanc_1_1022XalanXMLSerializerBase4UTF816s_encodingStringE = dso_local constant %"class.xalanc_1_10::XalanDOMString"* @_ZN11xalanc_1_10L17s_localUTF8StringE, align 8, !dbg !1166
@_ZN11xalanc_1_1022XalanXMLSerializerBase5UTF1616s_encodingStringE = dso_local constant %"class.xalanc_1_10::XalanDOMString"* @_ZN11xalanc_1_10L18s_localUTF16StringE, align 8, !dbg !1201
@_ZN11xalanc_1_1022XalanXMLSerializerBase4UTF826s_doctypeHeaderStartStringE = dso_local constant [11 x i8] c"<!DOCTYPE \00", align 1, !dbg !1236
@_ZN11xalanc_1_1022XalanXMLSerializerBase4UTF832s_doctypeHeaderStartStringLengthE = dso_local constant i32 10, align 4, !dbg !1241
@_ZN11xalanc_1_1022XalanXMLSerializerBase4UTF827s_doctypeHeaderPublicStringE = dso_local constant [10 x i8] c" PUBLIC \22\00", align 1, !dbg !1243
@_ZN11xalanc_1_1022XalanXMLSerializerBase4UTF833s_doctypeHeaderPublicStringLengthE = dso_local constant i32 9, align 4, !dbg !1248
@_ZN11xalanc_1_1022XalanXMLSerializerBase4UTF827s_doctypeHeaderSystemStringE = dso_local constant [10 x i8] c" SYSTEM \22\00", align 1, !dbg !1250
@_ZN11xalanc_1_1022XalanXMLSerializerBase4UTF833s_doctypeHeaderSystemStringLengthE = dso_local constant i32 9, align 4, !dbg !1252
@_ZN11xalanc_1_1022XalanXMLSerializerBase4UTF822s_xmlHeaderStartStringE = dso_local constant [16 x i8] c"<?xml version=\22\00", align 16, !dbg !1254
@_ZN11xalanc_1_1022XalanXMLSerializerBase4UTF828s_xmlHeaderStartStringLengthE = dso_local constant i32 15, align 4, !dbg !1259
@_ZN11xalanc_1_1022XalanXMLSerializerBase4UTF825s_xmlHeaderEncodingStringE = dso_local constant [13 x i8] c"\22 encoding=\22\00", align 1, !dbg !1261
@_ZN11xalanc_1_1022XalanXMLSerializerBase4UTF831s_xmlHeaderEncodingStringLengthE = dso_local constant i32 12, align 4, !dbg !1266
@_ZN11xalanc_1_1022XalanXMLSerializerBase4UTF827s_xmlHeaderStandaloneStringE = dso_local constant [15 x i8] c"\22 standalone=\22\00", align 1, !dbg !1268
@_ZN11xalanc_1_1022XalanXMLSerializerBase4UTF833s_xmlHeaderStandaloneStringLengthE = dso_local constant i32 14, align 4, !dbg !1273
@_ZN11xalanc_1_1022XalanXMLSerializerBase4UTF820s_xmlHeaderEndStringE = dso_local constant [4 x i8] c"\22?>\00", align 1, !dbg !1275
@_ZN11xalanc_1_1022XalanXMLSerializerBase4UTF826s_xmlHeaderEndStringLengthE = dso_local constant i32 3, align 4, !dbg !1278
@_ZN11xalanc_1_1022XalanXMLSerializerBase4UTF822s_defaultVersionStringE = dso_local constant [4 x i8] c"1.0\00", align 1, !dbg !1280
@_ZN11xalanc_1_1022XalanXMLSerializerBase4UTF828s_defaultVersionStringLengthE = dso_local constant i32 3, align 4, !dbg !1282
@_ZN11xalanc_1_1022XalanXMLSerializerBase4UTF817s_cdataOpenStringE = dso_local constant [10 x i8] c"<![CDATA[\00", align 1, !dbg !1284
@_ZN11xalanc_1_1022XalanXMLSerializerBase4UTF823s_cdataOpenStringLengthE = dso_local constant i32 9, align 4, !dbg !1286
@_ZN11xalanc_1_1022XalanXMLSerializerBase4UTF818s_cdataCloseStringE = dso_local constant [4 x i8] c"]]>\00", align 1, !dbg !1288
@_ZN11xalanc_1_1022XalanXMLSerializerBase4UTF824s_cdataCloseStringLengthE = dso_local constant i32 3, align 4, !dbg !1290
@_ZN11xalanc_1_1022XalanXMLSerializerBase4UTF820s_xhtmlDocTypeStringE = dso_local constant [18 x i16] [i16 45, i16 47, i16 47, i16 87, i16 51, i16 67, i16 47, i16 47, i16 68, i16 84, i16 68, i16 32, i16 88, i16 72, i16 84, i16 77, i16 76, i16 0], align 16, !dbg !1292
@_ZN11xalanc_1_1022XalanXMLSerializerBase4UTF826s_xhtmlDocTypeStringLengthE = dso_local constant i32 17, align 4, !dbg !1294
@_ZN11xalanc_1_1022XalanXMLSerializerBase4UTF822s_lessThanEntityStringE = dso_local constant [5 x i8] c"&lt;\00", align 1, !dbg !1296
@_ZN11xalanc_1_1022XalanXMLSerializerBase4UTF828s_lessThanEntityStringLengthE = dso_local constant i32 4, align 4, !dbg !1301
@_ZN11xalanc_1_1022XalanXMLSerializerBase4UTF825s_greaterThanEntityStringE = dso_local constant [5 x i8] c"&gt;\00", align 1, !dbg !1303
@_ZN11xalanc_1_1022XalanXMLSerializerBase4UTF831s_greaterThanEntityStringLengthE = dso_local constant i32 4, align 4, !dbg !1305
@_ZN11xalanc_1_1022XalanXMLSerializerBase4UTF823s_ampersandEntityStringE = dso_local constant [6 x i8] c"&amp;\00", align 1, !dbg !1307
@_ZN11xalanc_1_1022XalanXMLSerializerBase4UTF829s_ampersandEntityStringLengthE = dso_local constant i32 5, align 4, !dbg !1312
@_ZN11xalanc_1_1022XalanXMLSerializerBase4UTF819s_quoteEntityStringE = dso_local constant [7 x i8] c"&quot;\00", align 1, !dbg !1314
@_ZN11xalanc_1_1022XalanXMLSerializerBase4UTF825s_quoteEntityStringLengthE = dso_local constant i32 6, align 4, !dbg !1319
@_ZN11xalanc_1_1022XalanXMLSerializerBase5UTF1626s_doctypeHeaderStartStringE = dso_local constant [11 x i16] [i16 60, i16 33, i16 68, i16 79, i16 67, i16 84, i16 89, i16 80, i16 69, i16 32, i16 0], align 16, !dbg !1321
@_ZN11xalanc_1_1022XalanXMLSerializerBase5UTF1632s_doctypeHeaderStartStringLengthE = dso_local constant i32 10, align 4, !dbg !1324
@_ZN11xalanc_1_1022XalanXMLSerializerBase5UTF1627s_doctypeHeaderPublicStringE = dso_local constant [10 x i16] [i16 32, i16 80, i16 85, i16 66, i16 76, i16 73, i16 67, i16 32, i16 34, i16 0], align 16, !dbg !1326
@_ZN11xalanc_1_1022XalanXMLSerializerBase5UTF1633s_doctypeHeaderPublicStringLengthE = dso_local constant i32 9, align 4, !dbg !1329
@_ZN11xalanc_1_1022XalanXMLSerializerBase5UTF1627s_doctypeHeaderSystemStringE = dso_local constant [10 x i16] [i16 32, i16 83, i16 89, i16 83, i16 84, i16 69, i16 77, i16 32, i16 34, i16 0], align 16, !dbg !1331
@_ZN11xalanc_1_1022XalanXMLSerializerBase5UTF1633s_doctypeHeaderSystemStringLengthE = dso_local constant i32 9, align 4, !dbg !1333
@_ZN11xalanc_1_1022XalanXMLSerializerBase5UTF1622s_xmlHeaderStartStringE = dso_local constant [16 x i16] [i16 60, i16 63, i16 120, i16 109, i16 108, i16 32, i16 118, i16 101, i16 114, i16 115, i16 105, i16 111, i16 110, i16 61, i16 34, i16 0], align 16, !dbg !1335
@_ZN11xalanc_1_1022XalanXMLSerializerBase5UTF1628s_xmlHeaderStartStringLengthE = dso_local constant i32 15, align 4, !dbg !1338
@_ZN11xalanc_1_1022XalanXMLSerializerBase5UTF1625s_xmlHeaderEncodingStringE = dso_local constant [13 x i16] [i16 34, i16 32, i16 101, i16 110, i16 99, i16 111, i16 100, i16 105, i16 110, i16 103, i16 61, i16 34, i16 0], align 16, !dbg !1340
@_ZN11xalanc_1_1022XalanXMLSerializerBase5UTF1631s_xmlHeaderEncodingStringLengthE = dso_local constant i32 12, align 4, !dbg !1343
@_ZN11xalanc_1_1022XalanXMLSerializerBase5UTF1627s_xmlHeaderStandaloneStringE = dso_local constant [15 x i16] [i16 34, i16 32, i16 115, i16 116, i16 97, i16 110, i16 100, i16 97, i16 108, i16 111, i16 110, i16 101, i16 61, i16 34, i16 0], align 16, !dbg !1345
@_ZN11xalanc_1_1022XalanXMLSerializerBase5UTF1633s_xmlHeaderStandaloneStringLengthE = dso_local constant i32 14, align 4, !dbg !1348
@_ZN11xalanc_1_1022XalanXMLSerializerBase5UTF1620s_xmlHeaderEndStringE = dso_local constant [4 x i16] [i16 34, i16 63, i16 62, i16 0], align 2, !dbg !1350
@_ZN11xalanc_1_1022XalanXMLSerializerBase5UTF1626s_xmlHeaderEndStringLengthE = dso_local constant i32 3, align 4, !dbg !1352
@_ZN11xalanc_1_1022XalanXMLSerializerBase5UTF1622s_defaultVersionStringE = dso_local constant [4 x i16] [i16 49, i16 46, i16 48, i16 0], align 2, !dbg !1354
@_ZN11xalanc_1_1022XalanXMLSerializerBase5UTF1628s_defaultVersionStringLengthE = dso_local constant i32 3, align 4, !dbg !1356
@_ZN11xalanc_1_1022XalanXMLSerializerBase5UTF1617s_cdataOpenStringE = dso_local constant [10 x i16] [i16 60, i16 33, i16 91, i16 67, i16 68, i16 65, i16 84, i16 65, i16 91, i16 0], align 16, !dbg !1358
@_ZN11xalanc_1_1022XalanXMLSerializerBase5UTF1623s_cdataOpenStringLengthE = dso_local constant i32 9, align 4, !dbg !1360
@_ZN11xalanc_1_1022XalanXMLSerializerBase5UTF1618s_cdataCloseStringE = dso_local constant [4 x i16] [i16 93, i16 93, i16 62, i16 0], align 2, !dbg !1362
@_ZN11xalanc_1_1022XalanXMLSerializerBase5UTF1624s_cdataCloseStringLengthE = dso_local constant i32 3, align 4, !dbg !1364
@_ZN11xalanc_1_1022XalanXMLSerializerBase5UTF1620s_xhtmlDocTypeStringE = dso_local constant [18 x i16] [i16 45, i16 47, i16 47, i16 87, i16 51, i16 67, i16 47, i16 47, i16 68, i16 84, i16 68, i16 32, i16 88, i16 72, i16 84, i16 77, i16 76, i16 0], align 16, !dbg !1366
@_ZN11xalanc_1_1022XalanXMLSerializerBase5UTF1626s_xhtmlDocTypeStringLengthE = dso_local constant i32 17, align 4, !dbg !1368
@_ZN11xalanc_1_1022XalanXMLSerializerBase5UTF1622s_lessThanEntityStringE = dso_local constant [5 x i16] [i16 38, i16 108, i16 116, i16 59, i16 0], align 2, !dbg !1370
@_ZN11xalanc_1_1022XalanXMLSerializerBase5UTF1628s_lessThanEntityStringLengthE = dso_local constant i32 4, align 4, !dbg !1373
@_ZN11xalanc_1_1022XalanXMLSerializerBase5UTF1625s_greaterThanEntityStringE = dso_local constant [5 x i16] [i16 38, i16 103, i16 116, i16 59, i16 0], align 2, !dbg !1375
@_ZN11xalanc_1_1022XalanXMLSerializerBase5UTF1631s_greaterThanEntityStringLengthE = dso_local constant i32 4, align 4, !dbg !1377
@_ZN11xalanc_1_1022XalanXMLSerializerBase5UTF1623s_ampersandEntityStringE = dso_local constant [6 x i16] [i16 38, i16 97, i16 109, i16 112, i16 59, i16 0], align 2, !dbg !1379
@_ZN11xalanc_1_1022XalanXMLSerializerBase5UTF1629s_ampersandEntityStringLengthE = dso_local constant i32 5, align 4, !dbg !1382
@_ZN11xalanc_1_1022XalanXMLSerializerBase5UTF1619s_quoteEntityStringE = dso_local constant [7 x i16] [i16 38, i16 113, i16 117, i16 111, i16 116, i16 59, i16 0], align 2, !dbg !1384
@_ZN11xalanc_1_1022XalanXMLSerializerBase5UTF1625s_quoteEntityStringLengthE = dso_local constant i32 6, align 4, !dbg !1387
@_ZTVN11xercesc_2_710XMLDeleterE = linkonce_odr dso_local unnamed_addr constant { [4 x i8*] } { [4 x i8*] [i8* null, i8* bitcast ({ i8*, i8* }* @_ZTIN11xercesc_2_710XMLDeleterE to i8*), i8* bitcast (void (%"class.xercesc_2_7::XMLDeleter"*)* @_ZN11xercesc_2_710XMLDeleterD2Ev to i8*), i8* bitcast (void (%"class.xercesc_2_7::XMLDeleter"*)* @_ZN11xercesc_2_710XMLDeleterD0Ev to i8*)] }, comdat, align 8
@_ZTSN11xercesc_2_710XMLDeleterE = linkonce_odr dso_local constant [28 x i8] c"N11xercesc_2_710XMLDeleterE\00", comdat, align 1
@_ZTIN11xercesc_2_710XMLDeleterE = linkonce_odr dso_local constant { i8*, i8* } { i8* bitcast (i8** getelementptr inbounds (i8*, i8** @_ZTVN10__cxxabiv117__class_type_infoE, i64 2) to i8*), i8* getelementptr inbounds ([28 x i8], [28 x i8]* @_ZTSN11xercesc_2_710XMLDeleterE, i32 0, i32 0) }, comdat, align 8
@_ZTSN11xalanc_1_1022XalanXMLSerializerBaseE = dso_local constant [40 x i8] c"N11xalanc_1_1022XalanXMLSerializerBaseE\00", align 1
@_ZTIN11xalanc_1_1017FormatterListenerE = external dso_local constant i8*
@_ZTIN11xalanc_1_1022XalanXMLSerializerBaseE = dso_local constant { i8*, i8*, i8* } { i8* bitcast (i8** getelementptr inbounds (i8*, i8** @_ZTVN10__cxxabiv120__si_class_type_infoE, i64 2) to i8*), i8* getelementptr inbounds ([40 x i8], [40 x i8]* @_ZTSN11xalanc_1_1022XalanXMLSerializerBaseE, i32 0, i32 0), i8* bitcast (i8** @_ZTIN11xalanc_1_1017FormatterListenerE to i8*) }, align 8
@_ZTVN11xercesc_2_712SAXExceptionE = linkonce_odr dso_local unnamed_addr constant { [5 x i8*] } { [5 x i8*] [i8* null, i8* bitcast ({ i8*, i8*, i8* }* @_ZTIN11xercesc_2_712SAXExceptionE to i8*), i8* bitcast (void (%"class.xercesc_2_7::SAXException"*)* @_ZN11xercesc_2_712SAXExceptionD2Ev to i8*), i8* bitcast (void (%"class.xercesc_2_7::SAXException"*)* @_ZN11xercesc_2_712SAXExceptionD0Ev to i8*), i8* bitcast (i16* (%"class.xercesc_2_7::SAXException"*)* @_ZNK11xercesc_2_712SAXException10getMessageEv to i8*)] }, comdat, align 8
@_ZN11xalanc_1_1014XalanDOMString7s_emptyE = external dso_local constant i16, align 2
@llvm.global_ctors = appending global [1 x { i32, void ()*, i8* }] [{ i32, void ()*, i8* } { i32 65535, void ()* @_GLOBAL__sub_I_XalanXMLSerializerBase.cpp, i8* null }]

@_ZN11xalanc_1_1022XalanXMLSerializerBaseD1Ev = dso_local unnamed_addr alias void (%"class.xalanc_1_10::XalanXMLSerializerBase"*), void (%"class.xalanc_1_10::XalanXMLSerializerBase"*)* @_ZN11xalanc_1_1022XalanXMLSerializerBaseD2Ev

; Function Attrs: nounwind readnone speculatable willreturn
declare void @llvm.dbg.declare(metadata, metadata, metadata) #0

; Function Attrs: noinline nounwind uwtable
define linkonce_odr dso_local void @_ZN11xercesc_2_710XMLDeleterD0Ev(%"class.xercesc_2_7::XMLDeleter"* %this) unnamed_addr #1 comdat align 2 !dbg !2610 {
entry:
  %this.addr = alloca %"class.xercesc_2_7::XMLDeleter"*, align 8
  store %"class.xercesc_2_7::XMLDeleter"* %this, %"class.xercesc_2_7::XMLDeleter"** %this.addr, align 8
  call void @llvm.dbg.declare(metadata %"class.xercesc_2_7::XMLDeleter"** %this.addr, metadata !2629, metadata !DIExpression()), !dbg !2631
  %this1 = load %"class.xercesc_2_7::XMLDeleter"*, %"class.xercesc_2_7::XMLDeleter"** %this.addr, align 8
  call void @_ZN11xercesc_2_710XMLDeleterD2Ev(%"class.xercesc_2_7::XMLDeleter"* %this1) #7, !dbg !2632
  %0 = bitcast %"class.xercesc_2_7::XMLDeleter"* %this1 to i8*, !dbg !2632
  call void @_ZdlPv(i8* %0) #10, !dbg !2632
  ret void, !dbg !2633
}

; Function Attrs: noinline nounwind uwtable
define linkonce_odr dso_local void @_ZN11xercesc_2_710XMLDeleterD2Ev(%"class.xercesc_2_7::XMLDeleter"* %this) unnamed_addr #1 comdat align 2 !dbg !2634 {
entry:
  %this.addr = alloca %"class.xercesc_2_7::XMLDeleter"*, align 8
  store %"class.xercesc_2_7::XMLDeleter"* %this, %"class.xercesc_2_7::XMLDeleter"** %this.addr, align 8
  call void @llvm.dbg.declare(metadata %"class.xercesc_2_7::XMLDeleter"** %this.addr, metadata !2635, metadata !DIExpression()), !dbg !2636
  %this1 = load %"class.xercesc_2_7::XMLDeleter"*, %"class.xercesc_2_7::XMLDeleter"** %this.addr, align 8
  ret void, !dbg !2637
}

; Function Attrs: nobuiltin nounwind
declare dso_local void @_ZdlPv(i8*) #2

; Function Attrs: noinline uwtable
define dso_local void @_ZN11xalanc_1_1022XalanXMLSerializerBaseC2ERN11xercesc_2_713MemoryManagerENS_17FormatterListener11eXMLVersionERKNS_14XalanDOMStringES8_S8_bS8_(%"class.xalanc_1_10::XalanXMLSerializerBase"* %this, %"class.xercesc_2_7::MemoryManager"* dereferenceable(8) %theManager, i32 %theXMLVersion, %"class.xalanc_1_10::XalanDOMString"* dereferenceable(40) %theEncoding, %"class.xalanc_1_10::XalanDOMString"* dereferenceable(40) %theDoctypeSystem, %"class.xalanc_1_10::XalanDOMString"* dereferenceable(40) %theDoctypePublic, i1 zeroext %xmlDecl, %"class.xalanc_1_10::XalanDOMString"* dereferenceable(40) %theStandalone) unnamed_addr #3 align 2 personality i8* bitcast (i32 (...)* @__gxx_personality_v0 to i8*) !dbg !2638 {
entry:
  %this.addr = alloca %"class.xalanc_1_10::XalanXMLSerializerBase"*, align 8
  %theManager.addr = alloca %"class.xercesc_2_7::MemoryManager"*, align 8
  %theXMLVersion.addr = alloca i32, align 4
  %theEncoding.addr = alloca %"class.xalanc_1_10::XalanDOMString"*, align 8
  %theDoctypeSystem.addr = alloca %"class.xalanc_1_10::XalanDOMString"*, align 8
  %theDoctypePublic.addr = alloca %"class.xalanc_1_10::XalanDOMString"*, align 8
  %xmlDecl.addr = alloca i8, align 1
  %theStandalone.addr = alloca %"class.xalanc_1_10::XalanDOMString"*, align 8
  %exn.slot = alloca i8*
  %ehselector.slot = alloca i32
  store %"class.xalanc_1_10::XalanXMLSerializerBase"* %this, %"class.xalanc_1_10::XalanXMLSerializerBase"** %this.addr, align 8
  call void @llvm.dbg.declare(metadata %"class.xalanc_1_10::XalanXMLSerializerBase"** %this.addr, metadata !2639, metadata !DIExpression()), !dbg !2641
  store %"class.xercesc_2_7::MemoryManager"* %theManager, %"class.xercesc_2_7::MemoryManager"** %theManager.addr, align 8
  call void @llvm.dbg.declare(metadata %"class.xercesc_2_7::MemoryManager"** %theManager.addr, metadata !2642, metadata !DIExpression()), !dbg !2643
  store i32 %theXMLVersion, i32* %theXMLVersion.addr, align 4
  call void @llvm.dbg.declare(metadata i32* %theXMLVersion.addr, metadata !2644, metadata !DIExpression()), !dbg !2645
  store %"class.xalanc_1_10::XalanDOMString"* %theEncoding, %"class.xalanc_1_10::XalanDOMString"** %theEncoding.addr, align 8
  call void @llvm.dbg.declare(metadata %"class.xalanc_1_10::XalanDOMString"** %theEncoding.addr, metadata !2646, metadata !DIExpression()), !dbg !2647
  store %"class.xalanc_1_10::XalanDOMString"* %theDoctypeSystem, %"class.xalanc_1_10::XalanDOMString"** %theDoctypeSystem.addr, align 8
  call void @llvm.dbg.declare(metadata %"class.xalanc_1_10::XalanDOMString"** %theDoctypeSystem.addr, metadata !2648, metadata !DIExpression()), !dbg !2649
  store %"class.xalanc_1_10::XalanDOMString"* %theDoctypePublic, %"class.xalanc_1_10::XalanDOMString"** %theDoctypePublic.addr, align 8
  call void @llvm.dbg.declare(metadata %"class.xalanc_1_10::XalanDOMString"** %theDoctypePublic.addr, metadata !2650, metadata !DIExpression()), !dbg !2651
  %frombool = zext i1 %xmlDecl to i8
  store i8 %frombool, i8* %xmlDecl.addr, align 1
  call void @llvm.dbg.declare(metadata i8* %xmlDecl.addr, metadata !2652, metadata !DIExpression()), !dbg !2653
  store %"class.xalanc_1_10::XalanDOMString"* %theStandalone, %"class.xalanc_1_10::XalanDOMString"** %theStandalone.addr, align 8
  call void @llvm.dbg.declare(metadata %"class.xalanc_1_10::XalanDOMString"** %theStandalone.addr, metadata !2654, metadata !DIExpression()), !dbg !2655
  %this1 = load %"class.xalanc_1_10::XalanXMLSerializerBase"*, %"class.xalanc_1_10::XalanXMLSerializerBase"** %this.addr, align 8
  %0 = bitcast %"class.xalanc_1_10::XalanXMLSerializerBase"* %this1 to %"class.xalanc_1_10::FormatterListener"*, !dbg !2656
  call void @_ZN11xalanc_1_1017FormatterListenerC2ENS0_7eFormatE(%"class.xalanc_1_10::FormatterListener"* %0, i32 1), !dbg !2657
  %1 = bitcast %"class.xalanc_1_10::XalanXMLSerializerBase"* %this1 to i32 (...)***, !dbg !2656
  store i32 (...)** bitcast (i8** getelementptr inbounds ({ [30 x i8*] }, { [30 x i8*] }* @_ZTVN11xalanc_1_1022XalanXMLSerializerBaseE, i32 0, inrange i32 0, i32 2) to i32 (...)**), i32 (...)*** %1, align 8, !dbg !2656
  %m_nextIsRaw = getelementptr inbounds %"class.xalanc_1_10::XalanXMLSerializerBase", %"class.xalanc_1_10::XalanXMLSerializerBase"* %this1, i32 0, i32 1, !dbg !2658
  store i8 0, i8* %m_nextIsRaw, align 8, !dbg !2658
  %m_spaceBeforeClose = getelementptr inbounds %"class.xalanc_1_10::XalanXMLSerializerBase", %"class.xalanc_1_10::XalanXMLSerializerBase"* %this1, i32 0, i32 2, !dbg !2659
  store i8 0, i8* %m_spaceBeforeClose, align 1, !dbg !2659
  %m_doctypeSystem = getelementptr inbounds %"class.xalanc_1_10::XalanXMLSerializerBase", %"class.xalanc_1_10::XalanXMLSerializerBase"* %this1, i32 0, i32 4, !dbg !2660
  %2 = load %"class.xalanc_1_10::XalanDOMString"*, %"class.xalanc_1_10::XalanDOMString"** %theDoctypeSystem.addr, align 8, !dbg !2661
  %3 = load %"class.xercesc_2_7::MemoryManager"*, %"class.xercesc_2_7::MemoryManager"** %theManager.addr, align 8, !dbg !2662
  invoke void @_ZN11xalanc_1_1014XalanDOMStringC1ERKS0_RN11xercesc_2_713MemoryManagerEjj(%"class.xalanc_1_10::XalanDOMString"* %m_doctypeSystem, %"class.xalanc_1_10::XalanDOMString"* dereferenceable(40) %2, %"class.xercesc_2_7::MemoryManager"* dereferenceable(8) %3, i32 0, i32 -1)
          to label %invoke.cont unwind label %lpad, !dbg !2660

invoke.cont:                                      ; preds = %entry
  %m_doctypePublic = getelementptr inbounds %"class.xalanc_1_10::XalanXMLSerializerBase", %"class.xalanc_1_10::XalanXMLSerializerBase"* %this1, i32 0, i32 5, !dbg !2663
  %4 = load %"class.xalanc_1_10::XalanDOMString"*, %"class.xalanc_1_10::XalanDOMString"** %theDoctypePublic.addr, align 8, !dbg !2664
  %5 = load %"class.xercesc_2_7::MemoryManager"*, %"class.xercesc_2_7::MemoryManager"** %theManager.addr, align 8, !dbg !2665
  invoke void @_ZN11xalanc_1_1014XalanDOMStringC1ERKS0_RN11xercesc_2_713MemoryManagerEjj(%"class.xalanc_1_10::XalanDOMString"* %m_doctypePublic, %"class.xalanc_1_10::XalanDOMString"* dereferenceable(40) %4, %"class.xercesc_2_7::MemoryManager"* dereferenceable(8) %5, i32 0, i32 -1)
          to label %invoke.cont3 unwind label %lpad2, !dbg !2663

invoke.cont3:                                     ; preds = %invoke.cont
  %m_version = getelementptr inbounds %"class.xalanc_1_10::XalanXMLSerializerBase", %"class.xalanc_1_10::XalanXMLSerializerBase"* %this1, i32 0, i32 6, !dbg !2666
  %6 = load i32, i32* %theXMLVersion.addr, align 4, !dbg !2667
  %cmp = icmp eq i32 %6, 0, !dbg !2668
  br i1 %cmp, label %cond.true, label %cond.false, !dbg !2667

cond.true:                                        ; preds = %invoke.cont3
  %7 = load %"class.xalanc_1_10::XalanDOMString"*, %"class.xalanc_1_10::XalanDOMString"** @_ZN11xalanc_1_1022XalanXMLSerializerBase11s_1_0StringE, align 8, !dbg !2669
  br label %cond.end, !dbg !2667

cond.false:                                       ; preds = %invoke.cont3
  %8 = load %"class.xalanc_1_10::XalanDOMString"*, %"class.xalanc_1_10::XalanDOMString"** @_ZN11xalanc_1_1022XalanXMLSerializerBase11s_1_1StringE, align 8, !dbg !2670
  br label %cond.end, !dbg !2667

cond.end:                                         ; preds = %cond.false, %cond.true
  %cond-lvalue = phi %"class.xalanc_1_10::XalanDOMString"* [ %7, %cond.true ], [ %8, %cond.false ], !dbg !2667
  store %"class.xalanc_1_10::XalanDOMString"* %cond-lvalue, %"class.xalanc_1_10::XalanDOMString"** %m_version, align 8, !dbg !2666
  %m_standalone = getelementptr inbounds %"class.xalanc_1_10::XalanXMLSerializerBase", %"class.xalanc_1_10::XalanXMLSerializerBase"* %this1, i32 0, i32 7, !dbg !2671
  %9 = load %"class.xalanc_1_10::XalanDOMString"*, %"class.xalanc_1_10::XalanDOMString"** %theStandalone.addr, align 8, !dbg !2672
  %10 = load %"class.xercesc_2_7::MemoryManager"*, %"class.xercesc_2_7::MemoryManager"** %theManager.addr, align 8, !dbg !2673
  invoke void @_ZN11xalanc_1_1014XalanDOMStringC1ERKS0_RN11xercesc_2_713MemoryManagerEjj(%"class.xalanc_1_10::XalanDOMString"* %m_standalone, %"class.xalanc_1_10::XalanDOMString"* dereferenceable(40) %9, %"class.xercesc_2_7::MemoryManager"* dereferenceable(8) %10, i32 0, i32 -1)
          to label %invoke.cont5 unwind label %lpad4, !dbg !2671

invoke.cont5:                                     ; preds = %cond.end
  %m_encoding = getelementptr inbounds %"class.xalanc_1_10::XalanXMLSerializerBase", %"class.xalanc_1_10::XalanXMLSerializerBase"* %this1, i32 0, i32 8, !dbg !2674
  %11 = load %"class.xalanc_1_10::XalanDOMString"*, %"class.xalanc_1_10::XalanDOMString"** %theEncoding.addr, align 8, !dbg !2675
  %12 = load %"class.xercesc_2_7::MemoryManager"*, %"class.xercesc_2_7::MemoryManager"** %theManager.addr, align 8, !dbg !2676
  invoke void @_ZN11xalanc_1_1014XalanDOMStringC1ERKS0_RN11xercesc_2_713MemoryManagerEjj(%"class.xalanc_1_10::XalanDOMString"* %m_encoding, %"class.xalanc_1_10::XalanDOMString"* dereferenceable(40) %11, %"class.xercesc_2_7::MemoryManager"* dereferenceable(8) %12, i32 0, i32 -1)
          to label %invoke.cont7 unwind label %lpad6, !dbg !2674

invoke.cont7:                                     ; preds = %invoke.cont5
  %m_needToOutputDoctypeDecl = getelementptr inbounds %"class.xalanc_1_10::XalanXMLSerializerBase", %"class.xalanc_1_10::XalanXMLSerializerBase"* %this1, i32 0, i32 9, !dbg !2677
  store i8 0, i8* %m_needToOutputDoctypeDecl, align 8, !dbg !2677
  %m_shouldWriteXMLHeader = getelementptr inbounds %"class.xalanc_1_10::XalanXMLSerializerBase", %"class.xalanc_1_10::XalanXMLSerializerBase"* %this1, i32 0, i32 10, !dbg !2678
  %13 = load i8, i8* %xmlDecl.addr, align 1, !dbg !2679
  %tobool = trunc i8 %13 to i1, !dbg !2679
  %conv = zext i1 %tobool to i32, !dbg !2679
  %cmp8 = icmp eq i32 %conv, 1, !dbg !2680
  br i1 %cmp8, label %cond.true9, label %cond.false10, !dbg !2679

cond.true9:                                       ; preds = %invoke.cont7
  br label %cond.end14, !dbg !2679

cond.false10:                                     ; preds = %invoke.cont7
  %14 = load %"class.xalanc_1_10::XalanDOMString"*, %"class.xalanc_1_10::XalanDOMString"** %theStandalone.addr, align 8, !dbg !2681
  %call = invoke i32 @_ZNK11xalanc_1_1014XalanDOMString6lengthEv(%"class.xalanc_1_10::XalanDOMString"* %14)
          to label %invoke.cont12 unwind label %lpad11, !dbg !2682

invoke.cont12:                                    ; preds = %cond.false10
  %cmp13 = icmp ne i32 %call, 0, !dbg !2683
  br label %cond.end14, !dbg !2679

cond.end14:                                       ; preds = %invoke.cont12, %cond.true9
  %cond = phi i1 [ true, %cond.true9 ], [ %cmp13, %invoke.cont12 ], !dbg !2679
  %frombool15 = zext i1 %cond to i8, !dbg !2678
  store i8 %frombool15, i8* %m_shouldWriteXMLHeader, align 1, !dbg !2678
  %m_elemStack = getelementptr inbounds %"class.xalanc_1_10::XalanXMLSerializerBase", %"class.xalanc_1_10::XalanXMLSerializerBase"* %this1, i32 0, i32 11, !dbg !2684
  %15 = load %"class.xercesc_2_7::MemoryManager"*, %"class.xercesc_2_7::MemoryManager"** %theManager.addr, align 8, !dbg !2685
  invoke void @_ZN11xalanc_1_1011XalanVectorIbNS_31MemoryManagedConstructionTraitsIbEEEC2ERN11xercesc_2_713MemoryManagerEm(%"class.xalanc_1_10::XalanVector.0"* %m_elemStack, %"class.xercesc_2_7::MemoryManager"* dereferenceable(8) %15, i64 0)
          to label %invoke.cont16 unwind label %lpad11, !dbg !2684

invoke.cont16:                                    ; preds = %cond.end14
  %16 = bitcast %"class.xalanc_1_10::XalanXMLSerializerBase"* %this1 to %"class.xalanc_1_10::FormatterListener"*, !dbg !2686
  %17 = load i32, i32* %theXMLVersion.addr, align 4, !dbg !2688
  invoke void @_ZN11xalanc_1_1017FormatterListener13setXMLVersionENS0_11eXMLVersionE(%"class.xalanc_1_10::FormatterListener"* %16, i32 %17)
          to label %invoke.cont18 unwind label %lpad17, !dbg !2686

invoke.cont18:                                    ; preds = %invoke.cont16
  %m_doctypePublic19 = getelementptr inbounds %"class.xalanc_1_10::XalanXMLSerializerBase", %"class.xalanc_1_10::XalanXMLSerializerBase"* %this1, i32 0, i32 5, !dbg !2689
  %call21 = invoke zeroext i1 @_ZN11xalanc_1_107isEmptyERKNS_14XalanDOMStringE(%"class.xalanc_1_10::XalanDOMString"* dereferenceable(40) %m_doctypePublic19)
          to label %invoke.cont20 unwind label %lpad17, !dbg !2691

invoke.cont20:                                    ; preds = %invoke.cont18
  %conv22 = zext i1 %call21 to i32, !dbg !2691
  %cmp23 = icmp eq i32 %conv22, 0, !dbg !2692
  br i1 %cmp23, label %if.then, label %if.end31, !dbg !2693

if.then:                                          ; preds = %invoke.cont20
  %m_doctypePublic24 = getelementptr inbounds %"class.xalanc_1_10::XalanXMLSerializerBase", %"class.xalanc_1_10::XalanXMLSerializerBase"* %this1, i32 0, i32 5, !dbg !2694
  %call26 = invoke zeroext i1 @_ZN11xalanc_1_1010startsWithERKNS_14XalanDOMStringEPKt(%"class.xalanc_1_10::XalanDOMString"* dereferenceable(40) %m_doctypePublic24, i16* getelementptr inbounds ([18 x i16], [18 x i16]* @_ZN11xalanc_1_1022XalanXMLSerializerBase20s_xhtmlDocTypeStringE, i64 0, i64 0))
          to label %invoke.cont25 unwind label %lpad17, !dbg !2697

invoke.cont25:                                    ; preds = %if.then
  %conv27 = zext i1 %call26 to i32, !dbg !2697
  %cmp28 = icmp eq i32 %conv27, 1, !dbg !2698
  br i1 %cmp28, label %if.then29, label %if.end, !dbg !2699

if.then29:                                        ; preds = %invoke.cont25
  %m_spaceBeforeClose30 = getelementptr inbounds %"class.xalanc_1_10::XalanXMLSerializerBase", %"class.xalanc_1_10::XalanXMLSerializerBase"* %this1, i32 0, i32 2, !dbg !2700
  store i8 1, i8* %m_spaceBeforeClose30, align 1, !dbg !2702
  br label %if.end, !dbg !2703

lpad:                                             ; preds = %entry
  %18 = landingpad { i8*, i32 }
          cleanup, !dbg !2704
  %19 = extractvalue { i8*, i32 } %18, 0, !dbg !2704
  store i8* %19, i8** %exn.slot, align 8, !dbg !2704
  %20 = extractvalue { i8*, i32 } %18, 1, !dbg !2704
  store i32 %20, i32* %ehselector.slot, align 4, !dbg !2704
  br label %ehcleanup35, !dbg !2704

lpad2:                                            ; preds = %invoke.cont
  %21 = landingpad { i8*, i32 }
          cleanup, !dbg !2704
  %22 = extractvalue { i8*, i32 } %21, 0, !dbg !2704
  store i8* %22, i8** %exn.slot, align 8, !dbg !2704
  %23 = extractvalue { i8*, i32 } %21, 1, !dbg !2704
  store i32 %23, i32* %ehselector.slot, align 4, !dbg !2704
  br label %ehcleanup34, !dbg !2704

lpad4:                                            ; preds = %cond.end
  %24 = landingpad { i8*, i32 }
          cleanup, !dbg !2704
  %25 = extractvalue { i8*, i32 } %24, 0, !dbg !2704
  store i8* %25, i8** %exn.slot, align 8, !dbg !2704
  %26 = extractvalue { i8*, i32 } %24, 1, !dbg !2704
  store i32 %26, i32* %ehselector.slot, align 4, !dbg !2704
  br label %ehcleanup33, !dbg !2704

lpad6:                                            ; preds = %invoke.cont5
  %27 = landingpad { i8*, i32 }
          cleanup, !dbg !2704
  %28 = extractvalue { i8*, i32 } %27, 0, !dbg !2704
  store i8* %28, i8** %exn.slot, align 8, !dbg !2704
  %29 = extractvalue { i8*, i32 } %27, 1, !dbg !2704
  store i32 %29, i32* %ehselector.slot, align 4, !dbg !2704
  br label %ehcleanup32, !dbg !2704

lpad11:                                           ; preds = %cond.end14, %cond.false10
  %30 = landingpad { i8*, i32 }
          cleanup, !dbg !2704
  %31 = extractvalue { i8*, i32 } %30, 0, !dbg !2704
  store i8* %31, i8** %exn.slot, align 8, !dbg !2704
  %32 = extractvalue { i8*, i32 } %30, 1, !dbg !2704
  store i32 %32, i32* %ehselector.slot, align 4, !dbg !2704
  br label %ehcleanup, !dbg !2704

lpad17:                                           ; preds = %if.then, %invoke.cont18, %invoke.cont16
  %33 = landingpad { i8*, i32 }
          cleanup, !dbg !2705
  %34 = extractvalue { i8*, i32 } %33, 0, !dbg !2705
  store i8* %34, i8** %exn.slot, align 8, !dbg !2705
  %35 = extractvalue { i8*, i32 } %33, 1, !dbg !2705
  store i32 %35, i32* %ehselector.slot, align 4, !dbg !2705
  call void @_ZN11xalanc_1_1011XalanVectorIbNS_31MemoryManagedConstructionTraitsIbEEED2Ev(%"class.xalanc_1_10::XalanVector.0"* %m_elemStack) #7, !dbg !2705
  br label %ehcleanup, !dbg !2705

if.end:                                           ; preds = %if.then29, %invoke.cont25
  br label %if.end31, !dbg !2706

if.end31:                                         ; preds = %if.end, %invoke.cont20
  ret void, !dbg !2704

ehcleanup:                                        ; preds = %lpad17, %lpad11
  call void @_ZN11xalanc_1_1014XalanDOMStringD2Ev(%"class.xalanc_1_10::XalanDOMString"* %m_encoding) #7, !dbg !2705
  br label %ehcleanup32, !dbg !2705

ehcleanup32:                                      ; preds = %ehcleanup, %lpad6
  call void @_ZN11xalanc_1_1014XalanDOMStringD2Ev(%"class.xalanc_1_10::XalanDOMString"* %m_standalone) #7, !dbg !2705
  br label %ehcleanup33, !dbg !2705

ehcleanup33:                                      ; preds = %ehcleanup32, %lpad4
  call void @_ZN11xalanc_1_1014XalanDOMStringD2Ev(%"class.xalanc_1_10::XalanDOMString"* %m_doctypePublic) #7, !dbg !2705
  br label %ehcleanup34, !dbg !2705

ehcleanup34:                                      ; preds = %ehcleanup33, %lpad2
  call void @_ZN11xalanc_1_1014XalanDOMStringD2Ev(%"class.xalanc_1_10::XalanDOMString"* %m_doctypeSystem) #7, !dbg !2705
  br label %ehcleanup35, !dbg !2705

ehcleanup35:                                      ; preds = %ehcleanup34, %lpad
  %36 = bitcast %"class.xalanc_1_10::XalanXMLSerializerBase"* %this1 to %"class.xalanc_1_10::FormatterListener"*, !dbg !2705
  call void @_ZN11xalanc_1_1017FormatterListenerD2Ev(%"class.xalanc_1_10::FormatterListener"* %36) #7, !dbg !2705
  br label %eh.resume, !dbg !2705

eh.resume:                                        ; preds = %ehcleanup35
  %exn = load i8*, i8** %exn.slot, align 8, !dbg !2705
  %sel = load i32, i32* %ehselector.slot, align 4, !dbg !2705
  %lpad.val = insertvalue { i8*, i32 } undef, i8* %exn, 0, !dbg !2705
  %lpad.val36 = insertvalue { i8*, i32 } %lpad.val, i32 %sel, 1, !dbg !2705
  resume { i8*, i32 } %lpad.val36, !dbg !2705
}

declare dso_local void @_ZN11xalanc_1_1017FormatterListenerC2ENS0_7eFormatE(%"class.xalanc_1_10::FormatterListener"*, i32) unnamed_addr #4

declare dso_local void @_ZN11xalanc_1_1014XalanDOMStringC1ERKS0_RN11xercesc_2_713MemoryManagerEjj(%"class.xalanc_1_10::XalanDOMString"*, %"class.xalanc_1_10::XalanDOMString"* dereferenceable(40), %"class.xercesc_2_7::MemoryManager"* dereferenceable(8), i32, i32) unnamed_addr #4

declare dso_local i32 @__gxx_personality_v0(...)

; Function Attrs: noinline uwtable
define linkonce_odr dso_local i32 @_ZNK11xalanc_1_1014XalanDOMString6lengthEv(%"class.xalanc_1_10::XalanDOMString"* %this) #3 comdat align 2 !dbg !2707 {
entry:
  %this.addr = alloca %"class.xalanc_1_10::XalanDOMString"*, align 8
  store %"class.xalanc_1_10::XalanDOMString"* %this, %"class.xalanc_1_10::XalanDOMString"** %this.addr, align 8
  call void @llvm.dbg.declare(metadata %"class.xalanc_1_10::XalanDOMString"** %this.addr, metadata !2708, metadata !DIExpression()), !dbg !2710
  %this1 = load %"class.xalanc_1_10::XalanDOMString"*, %"class.xalanc_1_10::XalanDOMString"** %this.addr, align 8
  call void @_ZNK11xalanc_1_1014XalanDOMString10invariantsEv(%"class.xalanc_1_10::XalanDOMString"* %this1), !dbg !2711
  %call = call i32 @_ZNK11xalanc_1_1014XalanDOMString4sizeEv(%"class.xalanc_1_10::XalanDOMString"* %this1), !dbg !2712
  ret i32 %call, !dbg !2713
}

; Function Attrs: noinline uwtable
define linkonce_odr dso_local void @_ZN11xalanc_1_1011XalanVectorIbNS_31MemoryManagedConstructionTraitsIbEEEC2ERN11xercesc_2_713MemoryManagerEm(%"class.xalanc_1_10::XalanVector.0"* %this, %"class.xercesc_2_7::MemoryManager"* dereferenceable(8) %theManager, i64 %initialAllocation) unnamed_addr #3 comdat align 2 !dbg !2714 {
entry:
  %this.addr = alloca %"class.xalanc_1_10::XalanVector.0"*, align 8
  %theManager.addr = alloca %"class.xercesc_2_7::MemoryManager"*, align 8
  %initialAllocation.addr = alloca i64, align 8
  store %"class.xalanc_1_10::XalanVector.0"* %this, %"class.xalanc_1_10::XalanVector.0"** %this.addr, align 8
  call void @llvm.dbg.declare(metadata %"class.xalanc_1_10::XalanVector.0"** %this.addr, metadata !2715, metadata !DIExpression()), !dbg !2716
  store %"class.xercesc_2_7::MemoryManager"* %theManager, %"class.xercesc_2_7::MemoryManager"** %theManager.addr, align 8
  call void @llvm.dbg.declare(metadata %"class.xercesc_2_7::MemoryManager"** %theManager.addr, metadata !2717, metadata !DIExpression()), !dbg !2718
  store i64 %initialAllocation, i64* %initialAllocation.addr, align 8
  call void @llvm.dbg.declare(metadata i64* %initialAllocation.addr, metadata !2719, metadata !DIExpression()), !dbg !2720
  %this1 = load %"class.xalanc_1_10::XalanVector.0"*, %"class.xalanc_1_10::XalanVector.0"** %this.addr, align 8
  %m_memoryManager = getelementptr inbounds %"class.xalanc_1_10::XalanVector.0", %"class.xalanc_1_10::XalanVector.0"* %this1, i32 0, i32 0, !dbg !2721
  %0 = load %"class.xercesc_2_7::MemoryManager"*, %"class.xercesc_2_7::MemoryManager"** %theManager.addr, align 8, !dbg !2722
  store %"class.xercesc_2_7::MemoryManager"* %0, %"class.xercesc_2_7::MemoryManager"** %m_memoryManager, align 8, !dbg !2721
  %m_size = getelementptr inbounds %"class.xalanc_1_10::XalanVector.0", %"class.xalanc_1_10::XalanVector.0"* %this1, i32 0, i32 1, !dbg !2723
  store i64 0, i64* %m_size, align 8, !dbg !2723
  %m_allocation = getelementptr inbounds %"class.xalanc_1_10::XalanVector.0", %"class.xalanc_1_10::XalanVector.0"* %this1, i32 0, i32 2, !dbg !2724
  %1 = load i64, i64* %initialAllocation.addr, align 8, !dbg !2725
  store i64 %1, i64* %m_allocation, align 8, !dbg !2724
  %m_data = getelementptr inbounds %"class.xalanc_1_10::XalanVector.0", %"class.xalanc_1_10::XalanVector.0"* %this1, i32 0, i32 3, !dbg !2726
  %2 = load i64, i64* %initialAllocation.addr, align 8, !dbg !2727
  %cmp = icmp ugt i64 %2, 0, !dbg !2728
  br i1 %cmp, label %cond.true, label %cond.false, !dbg !2727

cond.true:                                        ; preds = %entry
  %3 = load i64, i64* %initialAllocation.addr, align 8, !dbg !2729
  %call = call i8* @_ZN11xalanc_1_1011XalanVectorIbNS_31MemoryManagedConstructionTraitsIbEEE8allocateEm(%"class.xalanc_1_10::XalanVector.0"* %this1, i64 %3), !dbg !2730
  br label %cond.end, !dbg !2727

cond.false:                                       ; preds = %entry
  br label %cond.end, !dbg !2727

cond.end:                                         ; preds = %cond.false, %cond.true
  %cond = phi i8* [ %call, %cond.true ], [ null, %cond.false ], !dbg !2727
  store i8* %cond, i8** %m_data, align 8, !dbg !2726
  call void @_ZNK11xalanc_1_1011XalanVectorIbNS_31MemoryManagedConstructionTraitsIbEEE10invariantsEv(%"class.xalanc_1_10::XalanVector.0"* %this1), !dbg !2731
  ret void, !dbg !2733
}

; Function Attrs: noinline nounwind uwtable
define linkonce_odr dso_local void @_ZN11xalanc_1_1017FormatterListener13setXMLVersionENS0_11eXMLVersionE(%"class.xalanc_1_10::FormatterListener"* %this, i32 %theVersion) #1 comdat align 2 !dbg !2734 {
entry:
  %this.addr = alloca %"class.xalanc_1_10::FormatterListener"*, align 8
  %theVersion.addr = alloca i32, align 4
  store %"class.xalanc_1_10::FormatterListener"* %this, %"class.xalanc_1_10::FormatterListener"** %this.addr, align 8
  call void @llvm.dbg.declare(metadata %"class.xalanc_1_10::FormatterListener"** %this.addr, metadata !2739, metadata !DIExpression()), !dbg !2741
  store i32 %theVersion, i32* %theVersion.addr, align 4
  call void @llvm.dbg.declare(metadata i32* %theVersion.addr, metadata !2742, metadata !DIExpression()), !dbg !2743
  %this1 = load %"class.xalanc_1_10::FormatterListener"*, %"class.xalanc_1_10::FormatterListener"** %this.addr, align 8
  %0 = load i32, i32* %theVersion.addr, align 4, !dbg !2744
  %m_XMLVersion = getelementptr inbounds %"class.xalanc_1_10::FormatterListener", %"class.xalanc_1_10::FormatterListener"* %this1, i32 0, i32 3, !dbg !2745
  store i32 %0, i32* %m_XMLVersion, align 4, !dbg !2746
  ret void, !dbg !2747
}

; Function Attrs: noinline uwtable
define linkonce_odr dso_local zeroext i1 @_ZN11xalanc_1_107isEmptyERKNS_14XalanDOMStringE(%"class.xalanc_1_10::XalanDOMString"* dereferenceable(40) %str) #3 comdat !dbg !2748 {
entry:
  %str.addr = alloca %"class.xalanc_1_10::XalanDOMString"*, align 8
  store %"class.xalanc_1_10::XalanDOMString"* %str, %"class.xalanc_1_10::XalanDOMString"** %str.addr, align 8
  call void @llvm.dbg.declare(metadata %"class.xalanc_1_10::XalanDOMString"** %str.addr, metadata !2751, metadata !DIExpression()), !dbg !2752
  %0 = load %"class.xalanc_1_10::XalanDOMString"*, %"class.xalanc_1_10::XalanDOMString"** %str.addr, align 8, !dbg !2753
  %call = call zeroext i1 @_ZNK11xalanc_1_1014XalanDOMString5emptyEv(%"class.xalanc_1_10::XalanDOMString"* %0), !dbg !2754
  ret i1 %call, !dbg !2755
}

; Function Attrs: noinline uwtable
define linkonce_odr dso_local zeroext i1 @_ZN11xalanc_1_1010startsWithERKNS_14XalanDOMStringEPKt(%"class.xalanc_1_10::XalanDOMString"* dereferenceable(40) %theString, i16* %theSubstring) #3 comdat !dbg !2756 {
entry:
  %theString.addr = alloca %"class.xalanc_1_10::XalanDOMString"*, align 8
  %theSubstring.addr = alloca i16*, align 8
  store %"class.xalanc_1_10::XalanDOMString"* %theString, %"class.xalanc_1_10::XalanDOMString"** %theString.addr, align 8
  call void @llvm.dbg.declare(metadata %"class.xalanc_1_10::XalanDOMString"** %theString.addr, metadata !2757, metadata !DIExpression()), !dbg !2758
  store i16* %theSubstring, i16** %theSubstring.addr, align 8
  call void @llvm.dbg.declare(metadata i16** %theSubstring.addr, metadata !2759, metadata !DIExpression()), !dbg !2760
  %0 = load %"class.xalanc_1_10::XalanDOMString"*, %"class.xalanc_1_10::XalanDOMString"** %theString.addr, align 8, !dbg !2761
  %call = call i16* @_ZN11xalanc_1_106c_wstrERKNS_14XalanDOMStringE(%"class.xalanc_1_10::XalanDOMString"* dereferenceable(40) %0), !dbg !2762
  %1 = load %"class.xalanc_1_10::XalanDOMString"*, %"class.xalanc_1_10::XalanDOMString"** %theString.addr, align 8, !dbg !2763
  %call1 = call i32 @_ZN11xalanc_1_106lengthERKNS_14XalanDOMStringE(%"class.xalanc_1_10::XalanDOMString"* dereferenceable(40) %1), !dbg !2764
  %2 = load i16*, i16** %theSubstring.addr, align 8, !dbg !2765
  %3 = load i16*, i16** %theSubstring.addr, align 8, !dbg !2766
  %call2 = call i32 @_ZN11xalanc_1_106lengthEPKt(i16* %3), !dbg !2767
  %call3 = call zeroext i1 @_ZN11xalanc_1_1010startsWithEPKtjS1_j(i16* %call, i32 %call1, i16* %2, i32 %call2), !dbg !2768
  ret i1 %call3, !dbg !2769
}

; Function Attrs: noinline nounwind uwtable
define linkonce_odr dso_local void @_ZN11xalanc_1_1011XalanVectorIbNS_31MemoryManagedConstructionTraitsIbEEED2Ev(%"class.xalanc_1_10::XalanVector.0"* %this) unnamed_addr #1 comdat align 2 personality i8* bitcast (i32 (...)* @__gxx_personality_v0 to i8*) !dbg !2770 {
entry:
  %this.addr = alloca %"class.xalanc_1_10::XalanVector.0"*, align 8
  store %"class.xalanc_1_10::XalanVector.0"* %this, %"class.xalanc_1_10::XalanVector.0"** %this.addr, align 8
  call void @llvm.dbg.declare(metadata %"class.xalanc_1_10::XalanVector.0"** %this.addr, metadata !2771, metadata !DIExpression()), !dbg !2772
  %this1 = load %"class.xalanc_1_10::XalanVector.0"*, %"class.xalanc_1_10::XalanVector.0"** %this.addr, align 8
  invoke void @_ZNK11xalanc_1_1011XalanVectorIbNS_31MemoryManagedConstructionTraitsIbEEE10invariantsEv(%"class.xalanc_1_10::XalanVector.0"* %this1)
          to label %invoke.cont unwind label %terminate.lpad, !dbg !2773

invoke.cont:                                      ; preds = %entry
  %m_allocation = getelementptr inbounds %"class.xalanc_1_10::XalanVector.0", %"class.xalanc_1_10::XalanVector.0"* %this1, i32 0, i32 2, !dbg !2775
  %0 = load i64, i64* %m_allocation, align 8, !dbg !2775
  %cmp = icmp ne i64 %0, 0, !dbg !2777
  br i1 %cmp, label %if.then, label %if.end, !dbg !2778

if.then:                                          ; preds = %invoke.cont
  %call = invoke i8* @_ZN11xalanc_1_1011XalanVectorIbNS_31MemoryManagedConstructionTraitsIbEEE5beginEv(%"class.xalanc_1_10::XalanVector.0"* %this1)
          to label %invoke.cont2 unwind label %terminate.lpad, !dbg !2779

invoke.cont2:                                     ; preds = %if.then
  %call4 = invoke i8* @_ZN11xalanc_1_1011XalanVectorIbNS_31MemoryManagedConstructionTraitsIbEEE3endEv(%"class.xalanc_1_10::XalanVector.0"* %this1)
          to label %invoke.cont3 unwind label %terminate.lpad, !dbg !2781

invoke.cont3:                                     ; preds = %invoke.cont2
  invoke void @_ZN11xalanc_1_1011XalanVectorIbNS_31MemoryManagedConstructionTraitsIbEEE7destroyEPbS4_(i8* %call, i8* %call4)
          to label %invoke.cont5 unwind label %terminate.lpad, !dbg !2782

invoke.cont5:                                     ; preds = %invoke.cont3
  %m_data = getelementptr inbounds %"class.xalanc_1_10::XalanVector.0", %"class.xalanc_1_10::XalanVector.0"* %this1, i32 0, i32 3, !dbg !2783
  %1 = load i8*, i8** %m_data, align 8, !dbg !2783
  invoke void @_ZN11xalanc_1_1011XalanVectorIbNS_31MemoryManagedConstructionTraitsIbEEE10deallocateEPb(%"class.xalanc_1_10::XalanVector.0"* %this1, i8* %1)
          to label %invoke.cont6 unwind label %terminate.lpad, !dbg !2784

invoke.cont6:                                     ; preds = %invoke.cont5
  br label %if.end, !dbg !2785

if.end:                                           ; preds = %invoke.cont6, %invoke.cont
  ret void, !dbg !2786

terminate.lpad:                                   ; preds = %invoke.cont5, %invoke.cont3, %invoke.cont2, %if.then, %entry
  %2 = landingpad { i8*, i32 }
          catch i8* null, !dbg !2773
  %3 = extractvalue { i8*, i32 } %2, 0, !dbg !2773
  call void @__clang_call_terminate(i8* %3) #11, !dbg !2773
  unreachable, !dbg !2773
}

; Function Attrs: noinline nounwind uwtable
define linkonce_odr dso_local void @_ZN11xalanc_1_1014XalanDOMStringD2Ev(%"class.xalanc_1_10::XalanDOMString"* %this) unnamed_addr #1 comdat align 2 !dbg !2787 {
entry:
  %this.addr = alloca %"class.xalanc_1_10::XalanDOMString"*, align 8
  store %"class.xalanc_1_10::XalanDOMString"* %this, %"class.xalanc_1_10::XalanDOMString"** %this.addr, align 8
  call void @llvm.dbg.declare(metadata %"class.xalanc_1_10::XalanDOMString"** %this.addr, metadata !2788, metadata !DIExpression()), !dbg !2789
  %this1 = load %"class.xalanc_1_10::XalanDOMString"*, %"class.xalanc_1_10::XalanDOMString"** %this.addr, align 8
  %m_data = getelementptr inbounds %"class.xalanc_1_10::XalanDOMString", %"class.xalanc_1_10::XalanDOMString"* %this1, i32 0, i32 0, !dbg !2790
  call void @_ZN11xalanc_1_1011XalanVectorItNS_31MemoryManagedConstructionTraitsItEEED2Ev(%"class.xalanc_1_10::XalanVector"* %m_data) #7, !dbg !2790
  ret void, !dbg !2792
}

; Function Attrs: nounwind
declare dso_local void @_ZN11xalanc_1_1017FormatterListenerD2Ev(%"class.xalanc_1_10::FormatterListener"*) unnamed_addr #5

; Function Attrs: noinline nounwind uwtable
define dso_local void @_ZN11xalanc_1_1022XalanXMLSerializerBaseD2Ev(%"class.xalanc_1_10::XalanXMLSerializerBase"* %this) unnamed_addr #1 align 2 !dbg !2793 {
entry:
  %this.addr = alloca %"class.xalanc_1_10::XalanXMLSerializerBase"*, align 8
  store %"class.xalanc_1_10::XalanXMLSerializerBase"* %this, %"class.xalanc_1_10::XalanXMLSerializerBase"** %this.addr, align 8
  call void @llvm.dbg.declare(metadata %"class.xalanc_1_10::XalanXMLSerializerBase"** %this.addr, metadata !2794, metadata !DIExpression()), !dbg !2795
  %this1 = load %"class.xalanc_1_10::XalanXMLSerializerBase"*, %"class.xalanc_1_10::XalanXMLSerializerBase"** %this.addr, align 8
  %0 = bitcast %"class.xalanc_1_10::XalanXMLSerializerBase"* %this1 to i32 (...)***, !dbg !2796
  store i32 (...)** bitcast (i8** getelementptr inbounds ({ [30 x i8*] }, { [30 x i8*] }* @_ZTVN11xalanc_1_1022XalanXMLSerializerBaseE, i32 0, inrange i32 0, i32 2) to i32 (...)**), i32 (...)*** %0, align 8, !dbg !2796
  %m_elemStack = getelementptr inbounds %"class.xalanc_1_10::XalanXMLSerializerBase", %"class.xalanc_1_10::XalanXMLSerializerBase"* %this1, i32 0, i32 11, !dbg !2797
  call void @_ZN11xalanc_1_1011XalanVectorIbNS_31MemoryManagedConstructionTraitsIbEEED2Ev(%"class.xalanc_1_10::XalanVector.0"* %m_elemStack) #7, !dbg !2797
  %m_encoding = getelementptr inbounds %"class.xalanc_1_10::XalanXMLSerializerBase", %"class.xalanc_1_10::XalanXMLSerializerBase"* %this1, i32 0, i32 8, !dbg !2797
  call void @_ZN11xalanc_1_1014XalanDOMStringD2Ev(%"class.xalanc_1_10::XalanDOMString"* %m_encoding) #7, !dbg !2797
  %m_standalone = getelementptr inbounds %"class.xalanc_1_10::XalanXMLSerializerBase", %"class.xalanc_1_10::XalanXMLSerializerBase"* %this1, i32 0, i32 7, !dbg !2797
  call void @_ZN11xalanc_1_1014XalanDOMStringD2Ev(%"class.xalanc_1_10::XalanDOMString"* %m_standalone) #7, !dbg !2797
  %m_doctypePublic = getelementptr inbounds %"class.xalanc_1_10::XalanXMLSerializerBase", %"class.xalanc_1_10::XalanXMLSerializerBase"* %this1, i32 0, i32 5, !dbg !2797
  call void @_ZN11xalanc_1_1014XalanDOMStringD2Ev(%"class.xalanc_1_10::XalanDOMString"* %m_doctypePublic) #7, !dbg !2797
  %m_doctypeSystem = getelementptr inbounds %"class.xalanc_1_10::XalanXMLSerializerBase", %"class.xalanc_1_10::XalanXMLSerializerBase"* %this1, i32 0, i32 4, !dbg !2797
  call void @_ZN11xalanc_1_1014XalanDOMStringD2Ev(%"class.xalanc_1_10::XalanDOMString"* %m_doctypeSystem) #7, !dbg !2797
  %1 = bitcast %"class.xalanc_1_10::XalanXMLSerializerBase"* %this1 to %"class.xalanc_1_10::FormatterListener"*, !dbg !2797
  call void @_ZN11xalanc_1_1017FormatterListenerD2Ev(%"class.xalanc_1_10::FormatterListener"* %1) #7, !dbg !2797
  ret void, !dbg !2799
}

; Function Attrs: noinline nounwind uwtable
define dso_local void @_ZN11xalanc_1_1022XalanXMLSerializerBaseD0Ev(%"class.xalanc_1_10::XalanXMLSerializerBase"* %this) unnamed_addr #1 align 2 !dbg !2800 {
entry:
  %this.addr = alloca %"class.xalanc_1_10::XalanXMLSerializerBase"*, align 8
  store %"class.xalanc_1_10::XalanXMLSerializerBase"* %this, %"class.xalanc_1_10::XalanXMLSerializerBase"** %this.addr, align 8
  call void @llvm.dbg.declare(metadata %"class.xalanc_1_10::XalanXMLSerializerBase"** %this.addr, metadata !2801, metadata !DIExpression()), !dbg !2802
  %this1 = load %"class.xalanc_1_10::XalanXMLSerializerBase"*, %"class.xalanc_1_10::XalanXMLSerializerBase"** %this.addr, align 8
  call void @llvm.trap() #11, !dbg !2803
  unreachable, !dbg !2803
}

; Function Attrs: cold noreturn nounwind
declare void @llvm.trap() #6

; Function Attrs: noinline uwtable
define dso_local i32 @_ZN11xalanc_1_1022XalanXMLSerializerBase24decodeUTF16SurrogatePairEttRN11xercesc_2_713MemoryManagerE(i16 zeroext %theHighSurrogate, i16 zeroext %theLowSurrogate, %"class.xercesc_2_7::MemoryManager"* dereferenceable(8) %theManager) #3 align 2 !dbg !2804 {
entry:
  %theHighSurrogate.addr = alloca i16, align 2
  %theLowSurrogate.addr = alloca i16, align 2
  %theManager.addr = alloca %"class.xercesc_2_7::MemoryManager"*, align 8
  store i16 %theHighSurrogate, i16* %theHighSurrogate.addr, align 2
  call void @llvm.dbg.declare(metadata i16* %theHighSurrogate.addr, metadata !2805, metadata !DIExpression()), !dbg !2806
  store i16 %theLowSurrogate, i16* %theLowSurrogate.addr, align 2
  call void @llvm.dbg.declare(metadata i16* %theLowSurrogate.addr, metadata !2807, metadata !DIExpression()), !dbg !2808
  store %"class.xercesc_2_7::MemoryManager"* %theManager, %"class.xercesc_2_7::MemoryManager"** %theManager.addr, align 8
  call void @llvm.dbg.declare(metadata %"class.xercesc_2_7::MemoryManager"** %theManager.addr, metadata !2809, metadata !DIExpression()), !dbg !2810
  %0 = load i16, i16* %theLowSurrogate.addr, align 2, !dbg !2811
  %call = call zeroext i1 @_ZN11xalanc_1_1022XalanXMLSerializerBase19isUTF16LowSurrogateEt(i16 zeroext %0), !dbg !2813
  %conv = zext i1 %call to i32, !dbg !2813
  %cmp = icmp eq i32 %conv, 0, !dbg !2814
  br i1 %cmp, label %if.then, label %if.end, !dbg !2815

if.then:                                          ; preds = %entry
  %1 = load i16, i16* %theHighSurrogate.addr, align 2, !dbg !2816
  %2 = load i16, i16* %theLowSurrogate.addr, align 2, !dbg !2818
  %3 = load %"class.xercesc_2_7::MemoryManager"*, %"class.xercesc_2_7::MemoryManager"** %theManager.addr, align 8, !dbg !2819
  call void @_ZN11xalanc_1_1022XalanXMLSerializerBase35throwInvalidUTF16SurrogateExceptionEttRN11xercesc_2_713MemoryManagerE(i16 zeroext %1, i16 zeroext %2, %"class.xercesc_2_7::MemoryManager"* dereferenceable(8) %3), !dbg !2820
  br label %if.end, !dbg !2821

if.end:                                           ; preds = %if.then, %entry
  %4 = load i16, i16* %theHighSurrogate.addr, align 2, !dbg !2822
  %conv1 = zext i16 %4 to i32, !dbg !2822
  %sub = sub i32 %conv1, 55296, !dbg !2823
  %shl = shl i32 %sub, 10, !dbg !2824
  %5 = load i16, i16* %theLowSurrogate.addr, align 2, !dbg !2825
  %conv2 = zext i16 %5 to i32, !dbg !2825
  %add = add i32 %shl, %conv2, !dbg !2826
  %sub3 = sub i32 %add, 56320, !dbg !2827
  %add4 = add i32 %sub3, 65536, !dbg !2828
  ret i32 %add4, !dbg !2829
}

; Function Attrs: noinline nounwind uwtable
define linkonce_odr dso_local zeroext i1 @_ZN11xalanc_1_1022XalanXMLSerializerBase19isUTF16LowSurrogateEt(i16 zeroext %theChar) #1 comdat align 2 !dbg !2830 {
entry:
  %theChar.addr = alloca i16, align 2
  store i16 %theChar, i16* %theChar.addr, align 2
  call void @llvm.dbg.declare(metadata i16* %theChar.addr, metadata !2831, metadata !DIExpression()), !dbg !2832
  %0 = load i16, i16* %theChar.addr, align 2, !dbg !2833
  %conv = zext i16 %0 to i32, !dbg !2833
  %cmp = icmp ule i32 56320, %conv, !dbg !2834
  br i1 %cmp, label %land.rhs, label %land.end, !dbg !2835

land.rhs:                                         ; preds = %entry
  %1 = load i16, i16* %theChar.addr, align 2, !dbg !2836
  %conv1 = zext i16 %1 to i32, !dbg !2836
  %cmp2 = icmp ule i32 %conv1, 57343, !dbg !2837
  br label %land.end

land.end:                                         ; preds = %land.rhs, %entry
  %2 = phi i1 [ false, %entry ], [ %cmp2, %land.rhs ], !dbg !2838
  %3 = zext i1 %2 to i64, !dbg !2839
  %cond = select i1 %2, i1 true, i1 false, !dbg !2839
  ret i1 %cond, !dbg !2840
}

; Function Attrs: noinline uwtable
define dso_local void @_ZN11xalanc_1_1022XalanXMLSerializerBase35throwInvalidUTF16SurrogateExceptionEttRN11xercesc_2_713MemoryManagerE(i16 zeroext %ch, i16 zeroext %next, %"class.xercesc_2_7::MemoryManager"* dereferenceable(8) %theManager) #3 align 2 personality i8* bitcast (i32 (...)* @__gxx_personality_v0 to i8*) !dbg !2841 {
entry:
  %ch.addr = alloca i16, align 2
  %next.addr = alloca i16, align 2
  %theManager.addr = alloca %"class.xercesc_2_7::MemoryManager"*, align 8
  %theMessage = alloca %"class.xalanc_1_10::XalanDOMString", align 8
  %theBuffer1 = alloca %"class.xalanc_1_10::XalanDOMString", align 8
  %exn.slot = alloca i8*
  %ehselector.slot = alloca i32
  %theBuffer2 = alloca %"class.xalanc_1_10::XalanDOMString", align 8
  store i16 %ch, i16* %ch.addr, align 2
  call void @llvm.dbg.declare(metadata i16* %ch.addr, metadata !2842, metadata !DIExpression()), !dbg !2843
  store i16 %next, i16* %next.addr, align 2
  call void @llvm.dbg.declare(metadata i16* %next.addr, metadata !2844, metadata !DIExpression()), !dbg !2845
  store %"class.xercesc_2_7::MemoryManager"* %theManager, %"class.xercesc_2_7::MemoryManager"** %theManager.addr, align 8
  call void @llvm.dbg.declare(metadata %"class.xercesc_2_7::MemoryManager"** %theManager.addr, metadata !2846, metadata !DIExpression()), !dbg !2847
  call void @llvm.dbg.declare(metadata %"class.xalanc_1_10::XalanDOMString"* %theMessage, metadata !2848, metadata !DIExpression()), !dbg !2849
  %0 = load %"class.xercesc_2_7::MemoryManager"*, %"class.xercesc_2_7::MemoryManager"** %theManager.addr, align 8, !dbg !2850
  call void @_ZN11xalanc_1_1014XalanDOMStringC1ERN11xercesc_2_713MemoryManagerE(%"class.xalanc_1_10::XalanDOMString"* %theMessage, %"class.xercesc_2_7::MemoryManager"* dereferenceable(8) %0), !dbg !2849
  call void @llvm.dbg.declare(metadata %"class.xalanc_1_10::XalanDOMString"* %theBuffer1, metadata !2851, metadata !DIExpression()), !dbg !2852
  %1 = load %"class.xercesc_2_7::MemoryManager"*, %"class.xercesc_2_7::MemoryManager"** %theManager.addr, align 8, !dbg !2853
  invoke void @_ZN11xalanc_1_1014XalanDOMStringC1ERN11xercesc_2_713MemoryManagerE(%"class.xalanc_1_10::XalanDOMString"* %theBuffer1, %"class.xercesc_2_7::MemoryManager"* dereferenceable(8) %1)
          to label %invoke.cont unwind label %lpad, !dbg !2852

invoke.cont:                                      ; preds = %entry
  call void @llvm.dbg.declare(metadata %"class.xalanc_1_10::XalanDOMString"* %theBuffer2, metadata !2854, metadata !DIExpression()), !dbg !2855
  %2 = load %"class.xercesc_2_7::MemoryManager"*, %"class.xercesc_2_7::MemoryManager"** %theManager.addr, align 8, !dbg !2856
  invoke void @_ZN11xalanc_1_1014XalanDOMStringC1ERN11xercesc_2_713MemoryManagerE(%"class.xalanc_1_10::XalanDOMString"* %theBuffer2, %"class.xercesc_2_7::MemoryManager"* dereferenceable(8) %2)
          to label %invoke.cont2 unwind label %lpad1, !dbg !2855

invoke.cont2:                                     ; preds = %invoke.cont
  %3 = load i16, i16* %ch.addr, align 2, !dbg !2857
  %conv = zext i16 %3 to i64, !dbg !2857
  %call = invoke dereferenceable(40) %"class.xalanc_1_10::XalanDOMString"* @_ZN11xalanc_1_1026UnsignedLongToHexDOMStringEmRNS_14XalanDOMStringE(i64 %conv, %"class.xalanc_1_10::XalanDOMString"* dereferenceable(40) %theBuffer1)
          to label %invoke.cont4 unwind label %lpad3, !dbg !2858

invoke.cont4:                                     ; preds = %invoke.cont2
  %4 = load i16, i16* %next.addr, align 2, !dbg !2859
  %conv5 = zext i16 %4 to i64, !dbg !2859
  %call7 = invoke dereferenceable(40) %"class.xalanc_1_10::XalanDOMString"* @_ZN11xalanc_1_1026UnsignedLongToHexDOMStringEmRNS_14XalanDOMStringE(i64 %conv5, %"class.xalanc_1_10::XalanDOMString"* dereferenceable(40) %theBuffer2)
          to label %invoke.cont6 unwind label %lpad3, !dbg !2860

invoke.cont6:                                     ; preds = %invoke.cont4
  %call9 = invoke dereferenceable(40) %"class.xalanc_1_10::XalanDOMString"* @_ZN11xalanc_1_1018XalanMessageLoader10getMessageERNS_14XalanDOMStringENS_13XalanMessages5CodesERKS1_S6_(%"class.xalanc_1_10::XalanDOMString"* dereferenceable(40) %theMessage, i32 144, %"class.xalanc_1_10::XalanDOMString"* dereferenceable(40) %call, %"class.xalanc_1_10::XalanDOMString"* dereferenceable(40) %call7)
          to label %invoke.cont8 unwind label %lpad3, !dbg !2861

invoke.cont8:                                     ; preds = %invoke.cont6
  %exception = call i8* @__cxa_allocate_exception(i64 24) #7, !dbg !2862
  %5 = bitcast i8* %exception to %"class.xercesc_2_7::SAXException"*, !dbg !2862
  %call12 = invoke i16* @_ZNK11xalanc_1_1014XalanDOMString5c_strEv(%"class.xalanc_1_10::XalanDOMString"* %theMessage)
          to label %invoke.cont11 unwind label %lpad10, !dbg !2863

invoke.cont11:                                    ; preds = %invoke.cont8
  %6 = load %"class.xercesc_2_7::MemoryManager"*, %"class.xercesc_2_7::MemoryManager"** %theManager.addr, align 8, !dbg !2864
  invoke void @_ZN11xercesc_2_712SAXExceptionC2EPKtPNS_13MemoryManagerE(%"class.xercesc_2_7::SAXException"* %5, i16* %call12, %"class.xercesc_2_7::MemoryManager"* %6)
          to label %invoke.cont13 unwind label %lpad10, !dbg !2865

invoke.cont13:                                    ; preds = %invoke.cont11
  invoke void @__cxa_throw(i8* %exception, i8* bitcast ({ i8*, i8*, i8* }* @_ZTIN11xercesc_2_712SAXExceptionE to i8*), i8* bitcast (void (%"class.xercesc_2_7::SAXException"*)* @_ZN11xercesc_2_712SAXExceptionD2Ev to i8*)) #12
          to label %unreachable unwind label %lpad3, !dbg !2862

lpad:                                             ; preds = %entry
  %7 = landingpad { i8*, i32 }
          cleanup, !dbg !2866
  %8 = extractvalue { i8*, i32 } %7, 0, !dbg !2866
  store i8* %8, i8** %exn.slot, align 8, !dbg !2866
  %9 = extractvalue { i8*, i32 } %7, 1, !dbg !2866
  store i32 %9, i32* %ehselector.slot, align 4, !dbg !2866
  br label %ehcleanup15, !dbg !2866

lpad1:                                            ; preds = %invoke.cont
  %10 = landingpad { i8*, i32 }
          cleanup, !dbg !2866
  %11 = extractvalue { i8*, i32 } %10, 0, !dbg !2866
  store i8* %11, i8** %exn.slot, align 8, !dbg !2866
  %12 = extractvalue { i8*, i32 } %10, 1, !dbg !2866
  store i32 %12, i32* %ehselector.slot, align 4, !dbg !2866
  br label %ehcleanup14, !dbg !2866

lpad3:                                            ; preds = %invoke.cont13, %invoke.cont6, %invoke.cont4, %invoke.cont2
  %13 = landingpad { i8*, i32 }
          cleanup, !dbg !2866
  %14 = extractvalue { i8*, i32 } %13, 0, !dbg !2866
  store i8* %14, i8** %exn.slot, align 8, !dbg !2866
  %15 = extractvalue { i8*, i32 } %13, 1, !dbg !2866
  store i32 %15, i32* %ehselector.slot, align 4, !dbg !2866
  br label %ehcleanup, !dbg !2866

lpad10:                                           ; preds = %invoke.cont11, %invoke.cont8
  %16 = landingpad { i8*, i32 }
          cleanup, !dbg !2866
  %17 = extractvalue { i8*, i32 } %16, 0, !dbg !2866
  store i8* %17, i8** %exn.slot, align 8, !dbg !2866
  %18 = extractvalue { i8*, i32 } %16, 1, !dbg !2866
  store i32 %18, i32* %ehselector.slot, align 4, !dbg !2866
  call void @__cxa_free_exception(i8* %exception) #7, !dbg !2862
  br label %ehcleanup, !dbg !2862

ehcleanup:                                        ; preds = %lpad10, %lpad3
  call void @_ZN11xalanc_1_1014XalanDOMStringD2Ev(%"class.xalanc_1_10::XalanDOMString"* %theBuffer2) #7, !dbg !2866
  br label %ehcleanup14, !dbg !2866

ehcleanup14:                                      ; preds = %ehcleanup, %lpad1
  call void @_ZN11xalanc_1_1014XalanDOMStringD2Ev(%"class.xalanc_1_10::XalanDOMString"* %theBuffer1) #7, !dbg !2866
  br label %ehcleanup15, !dbg !2866

ehcleanup15:                                      ; preds = %ehcleanup14, %lpad
  call void @_ZN11xalanc_1_1014XalanDOMStringD2Ev(%"class.xalanc_1_10::XalanDOMString"* %theMessage) #7, !dbg !2866
  br label %eh.resume, !dbg !2866

eh.resume:                                        ; preds = %ehcleanup15
  %exn = load i8*, i8** %exn.slot, align 8, !dbg !2866
  %sel = load i32, i32* %ehselector.slot, align 4, !dbg !2866
  %lpad.val = insertvalue { i8*, i32 } undef, i8* %exn, 0, !dbg !2866
  %lpad.val16 = insertvalue { i8*, i32 } %lpad.val, i32 %sel, 1, !dbg !2866
  resume { i8*, i32 } %lpad.val16, !dbg !2866

unreachable:                                      ; preds = %invoke.cont13
  unreachable
}

; Function Attrs: noinline uwtable
define dso_local void @_ZN11xalanc_1_1022XalanXMLSerializerBase35throwInvalidUTF16SurrogateExceptionEtRN11xercesc_2_713MemoryManagerE(i16 zeroext %ch, %"class.xercesc_2_7::MemoryManager"* dereferenceable(8) %theManager) #3 align 2 personality i8* bitcast (i32 (...)* @__gxx_personality_v0 to i8*) !dbg !2867 {
entry:
  %ch.addr = alloca i16, align 2
  %theManager.addr = alloca %"class.xercesc_2_7::MemoryManager"*, align 8
  %theMessage = alloca %"class.xalanc_1_10::XalanDOMString", align 8
  %theBuffer = alloca %"class.xalanc_1_10::XalanDOMString", align 8
  %exn.slot = alloca i8*
  %ehselector.slot = alloca i32
  store i16 %ch, i16* %ch.addr, align 2
  call void @llvm.dbg.declare(metadata i16* %ch.addr, metadata !2868, metadata !DIExpression()), !dbg !2869
  store %"class.xercesc_2_7::MemoryManager"* %theManager, %"class.xercesc_2_7::MemoryManager"** %theManager.addr, align 8
  call void @llvm.dbg.declare(metadata %"class.xercesc_2_7::MemoryManager"** %theManager.addr, metadata !2870, metadata !DIExpression()), !dbg !2871
  call void @llvm.dbg.declare(metadata %"class.xalanc_1_10::XalanDOMString"* %theMessage, metadata !2872, metadata !DIExpression()), !dbg !2873
  %0 = load %"class.xercesc_2_7::MemoryManager"*, %"class.xercesc_2_7::MemoryManager"** %theManager.addr, align 8, !dbg !2874
  call void @_ZN11xalanc_1_1014XalanDOMStringC1ERN11xercesc_2_713MemoryManagerE(%"class.xalanc_1_10::XalanDOMString"* %theMessage, %"class.xercesc_2_7::MemoryManager"* dereferenceable(8) %0), !dbg !2873
  call void @llvm.dbg.declare(metadata %"class.xalanc_1_10::XalanDOMString"* %theBuffer, metadata !2875, metadata !DIExpression()), !dbg !2876
  %1 = load %"class.xercesc_2_7::MemoryManager"*, %"class.xercesc_2_7::MemoryManager"** %theManager.addr, align 8, !dbg !2877
  invoke void @_ZN11xalanc_1_1014XalanDOMStringC1ERN11xercesc_2_713MemoryManagerE(%"class.xalanc_1_10::XalanDOMString"* %theBuffer, %"class.xercesc_2_7::MemoryManager"* dereferenceable(8) %1)
          to label %invoke.cont unwind label %lpad, !dbg !2876

invoke.cont:                                      ; preds = %entry
  %2 = load i16, i16* %ch.addr, align 2, !dbg !2878
  %conv = zext i16 %2 to i64, !dbg !2878
  %call = invoke dereferenceable(40) %"class.xalanc_1_10::XalanDOMString"* @_ZN11xalanc_1_1026UnsignedLongToHexDOMStringEmRNS_14XalanDOMStringE(i64 %conv, %"class.xalanc_1_10::XalanDOMString"* dereferenceable(40) %theBuffer)
          to label %invoke.cont2 unwind label %lpad1, !dbg !2879

invoke.cont2:                                     ; preds = %invoke.cont
  %call4 = invoke dereferenceable(40) %"class.xalanc_1_10::XalanDOMString"* @_ZN11xalanc_1_1018XalanMessageLoader10getMessageERNS_14XalanDOMStringENS_13XalanMessages5CodesERKS1_(%"class.xalanc_1_10::XalanDOMString"* dereferenceable(40) %theMessage, i32 143, %"class.xalanc_1_10::XalanDOMString"* dereferenceable(40) %call)
          to label %invoke.cont3 unwind label %lpad1, !dbg !2880

invoke.cont3:                                     ; preds = %invoke.cont2
  %exception = call i8* @__cxa_allocate_exception(i64 24) #7, !dbg !2881
  %3 = bitcast i8* %exception to %"class.xercesc_2_7::SAXException"*, !dbg !2881
  %call7 = invoke i16* @_ZN11xalanc_1_106c_wstrERKNS_14XalanDOMStringE(%"class.xalanc_1_10::XalanDOMString"* dereferenceable(40) %theMessage)
          to label %invoke.cont6 unwind label %lpad5, !dbg !2882

invoke.cont6:                                     ; preds = %invoke.cont3
  %4 = load %"class.xercesc_2_7::MemoryManager"*, %"class.xercesc_2_7::MemoryManager"** %theManager.addr, align 8, !dbg !2883
  invoke void @_ZN11xercesc_2_712SAXExceptionC2EPKtPNS_13MemoryManagerE(%"class.xercesc_2_7::SAXException"* %3, i16* %call7, %"class.xercesc_2_7::MemoryManager"* %4)
          to label %invoke.cont8 unwind label %lpad5, !dbg !2884

invoke.cont8:                                     ; preds = %invoke.cont6
  invoke void @__cxa_throw(i8* %exception, i8* bitcast ({ i8*, i8*, i8* }* @_ZTIN11xercesc_2_712SAXExceptionE to i8*), i8* bitcast (void (%"class.xercesc_2_7::SAXException"*)* @_ZN11xercesc_2_712SAXExceptionD2Ev to i8*)) #12
          to label %unreachable unwind label %lpad1, !dbg !2881

lpad:                                             ; preds = %entry
  %5 = landingpad { i8*, i32 }
          cleanup, !dbg !2885
  %6 = extractvalue { i8*, i32 } %5, 0, !dbg !2885
  store i8* %6, i8** %exn.slot, align 8, !dbg !2885
  %7 = extractvalue { i8*, i32 } %5, 1, !dbg !2885
  store i32 %7, i32* %ehselector.slot, align 4, !dbg !2885
  br label %ehcleanup9, !dbg !2885

lpad1:                                            ; preds = %invoke.cont8, %invoke.cont2, %invoke.cont
  %8 = landingpad { i8*, i32 }
          cleanup, !dbg !2885
  %9 = extractvalue { i8*, i32 } %8, 0, !dbg !2885
  store i8* %9, i8** %exn.slot, align 8, !dbg !2885
  %10 = extractvalue { i8*, i32 } %8, 1, !dbg !2885
  store i32 %10, i32* %ehselector.slot, align 4, !dbg !2885
  br label %ehcleanup, !dbg !2885

lpad5:                                            ; preds = %invoke.cont6, %invoke.cont3
  %11 = landingpad { i8*, i32 }
          cleanup, !dbg !2885
  %12 = extractvalue { i8*, i32 } %11, 0, !dbg !2885
  store i8* %12, i8** %exn.slot, align 8, !dbg !2885
  %13 = extractvalue { i8*, i32 } %11, 1, !dbg !2885
  store i32 %13, i32* %ehselector.slot, align 4, !dbg !2885
  call void @__cxa_free_exception(i8* %exception) #7, !dbg !2881
  br label %ehcleanup, !dbg !2881

ehcleanup:                                        ; preds = %lpad5, %lpad1
  call void @_ZN11xalanc_1_1014XalanDOMStringD2Ev(%"class.xalanc_1_10::XalanDOMString"* %theBuffer) #7, !dbg !2885
  br label %ehcleanup9, !dbg !2885

ehcleanup9:                                       ; preds = %ehcleanup, %lpad
  call void @_ZN11xalanc_1_1014XalanDOMStringD2Ev(%"class.xalanc_1_10::XalanDOMString"* %theMessage) #7, !dbg !2885
  br label %eh.resume, !dbg !2885

eh.resume:                                        ; preds = %ehcleanup9
  %exn = load i8*, i8** %exn.slot, align 8, !dbg !2885
  %sel = load i32, i32* %ehselector.slot, align 4, !dbg !2885
  %lpad.val = insertvalue { i8*, i32 } undef, i8* %exn, 0, !dbg !2885
  %lpad.val10 = insertvalue { i8*, i32 } %lpad.val, i32 %sel, 1, !dbg !2885
  resume { i8*, i32 } %lpad.val10, !dbg !2885

unreachable:                                      ; preds = %invoke.cont8
  unreachable
}

declare dso_local void @_ZN11xalanc_1_1014XalanDOMStringC1ERN11xercesc_2_713MemoryManagerE(%"class.xalanc_1_10::XalanDOMString"*, %"class.xercesc_2_7::MemoryManager"* dereferenceable(8)) unnamed_addr #4

declare dso_local dereferenceable(40) %"class.xalanc_1_10::XalanDOMString"* @_ZN11xalanc_1_1018XalanMessageLoader10getMessageERNS_14XalanDOMStringENS_13XalanMessages5CodesERKS1_(%"class.xalanc_1_10::XalanDOMString"* dereferenceable(40), i32, %"class.xalanc_1_10::XalanDOMString"* dereferenceable(40)) #4

declare dso_local dereferenceable(40) %"class.xalanc_1_10::XalanDOMString"* @_ZN11xalanc_1_1026UnsignedLongToHexDOMStringEmRNS_14XalanDOMStringE(i64, %"class.xalanc_1_10::XalanDOMString"* dereferenceable(40)) #4

declare dso_local i8* @__cxa_allocate_exception(i64)

; Function Attrs: noinline uwtable
define linkonce_odr dso_local i16* @_ZN11xalanc_1_106c_wstrERKNS_14XalanDOMStringE(%"class.xalanc_1_10::XalanDOMString"* dereferenceable(40) %theString) #3 comdat !dbg !2886 {
entry:
  %theString.addr = alloca %"class.xalanc_1_10::XalanDOMString"*, align 8
  store %"class.xalanc_1_10::XalanDOMString"* %theString, %"class.xalanc_1_10::XalanDOMString"** %theString.addr, align 8
  call void @llvm.dbg.declare(metadata %"class.xalanc_1_10::XalanDOMString"** %theString.addr, metadata !2889, metadata !DIExpression()), !dbg !2890
  %0 = load %"class.xalanc_1_10::XalanDOMString"*, %"class.xalanc_1_10::XalanDOMString"** %theString.addr, align 8, !dbg !2891
  %call = call i16* @_ZNK11xalanc_1_1014XalanDOMString5c_strEv(%"class.xalanc_1_10::XalanDOMString"* %0), !dbg !2892
  ret i16* %call, !dbg !2893
}

; Function Attrs: noinline uwtable
define linkonce_odr dso_local void @_ZN11xercesc_2_712SAXExceptionC2EPKtPNS_13MemoryManagerE(%"class.xercesc_2_7::SAXException"* %this, i16* %msg, %"class.xercesc_2_7::MemoryManager"* %manager) unnamed_addr #3 comdat align 2 !dbg !2894 {
entry:
  %this.addr = alloca %"class.xercesc_2_7::SAXException"*, align 8
  %msg.addr = alloca i16*, align 8
  %manager.addr = alloca %"class.xercesc_2_7::MemoryManager"*, align 8
  store %"class.xercesc_2_7::SAXException"* %this, %"class.xercesc_2_7::SAXException"** %this.addr, align 8
  call void @llvm.dbg.declare(metadata %"class.xercesc_2_7::SAXException"** %this.addr, metadata !2895, metadata !DIExpression()), !dbg !2897
  store i16* %msg, i16** %msg.addr, align 8
  call void @llvm.dbg.declare(metadata i16** %msg.addr, metadata !2898, metadata !DIExpression()), !dbg !2899
  store %"class.xercesc_2_7::MemoryManager"* %manager, %"class.xercesc_2_7::MemoryManager"** %manager.addr, align 8
  call void @llvm.dbg.declare(metadata %"class.xercesc_2_7::MemoryManager"** %manager.addr, metadata !2900, metadata !DIExpression()), !dbg !2901
  %this1 = load %"class.xercesc_2_7::SAXException"*, %"class.xercesc_2_7::SAXException"** %this.addr, align 8
  %0 = bitcast %"class.xercesc_2_7::SAXException"* %this1 to %"class.xercesc_2_7::XMemory"*, !dbg !2902
  call void @_ZN11xercesc_2_77XMemoryC2Ev(%"class.xercesc_2_7::XMemory"* %0), !dbg !2903
  %1 = bitcast %"class.xercesc_2_7::SAXException"* %this1 to i32 (...)***, !dbg !2902
  store i32 (...)** bitcast (i8** getelementptr inbounds ({ [5 x i8*] }, { [5 x i8*] }* @_ZTVN11xercesc_2_712SAXExceptionE, i32 0, inrange i32 0, i32 2) to i32 (...)**), i32 (...)*** %1, align 8, !dbg !2902
  %fMsg = getelementptr inbounds %"class.xercesc_2_7::SAXException", %"class.xercesc_2_7::SAXException"* %this1, i32 0, i32 1, !dbg !2904
  %2 = load i16*, i16** %msg.addr, align 8, !dbg !2905
  %3 = load %"class.xercesc_2_7::MemoryManager"*, %"class.xercesc_2_7::MemoryManager"** %manager.addr, align 8, !dbg !2906
  %call = call i16* @_ZN11xercesc_2_79XMLString9replicateEPKtPNS_13MemoryManagerE(i16* %2, %"class.xercesc_2_7::MemoryManager"* %3), !dbg !2907
  store i16* %call, i16** %fMsg, align 8, !dbg !2904
  %fMemoryManager = getelementptr inbounds %"class.xercesc_2_7::SAXException", %"class.xercesc_2_7::SAXException"* %this1, i32 0, i32 2, !dbg !2908
  %4 = load %"class.xercesc_2_7::MemoryManager"*, %"class.xercesc_2_7::MemoryManager"** %manager.addr, align 8, !dbg !2909
  store %"class.xercesc_2_7::MemoryManager"* %4, %"class.xercesc_2_7::MemoryManager"** %fMemoryManager, align 8, !dbg !2908
  ret void, !dbg !2910
}

declare dso_local void @__cxa_free_exception(i8*)

; Function Attrs: noinline nounwind uwtable
define linkonce_odr dso_local void @_ZN11xercesc_2_712SAXExceptionD2Ev(%"class.xercesc_2_7::SAXException"* %this) unnamed_addr #1 comdat align 2 personality i8* bitcast (i32 (...)* @__gxx_personality_v0 to i8*) !dbg !2911 {
entry:
  %this.addr = alloca %"class.xercesc_2_7::SAXException"*, align 8
  store %"class.xercesc_2_7::SAXException"* %this, %"class.xercesc_2_7::SAXException"** %this.addr, align 8
  call void @llvm.dbg.declare(metadata %"class.xercesc_2_7::SAXException"** %this.addr, metadata !2912, metadata !DIExpression()), !dbg !2913
  %this1 = load %"class.xercesc_2_7::SAXException"*, %"class.xercesc_2_7::SAXException"** %this.addr, align 8
  %0 = bitcast %"class.xercesc_2_7::SAXException"* %this1 to i32 (...)***, !dbg !2914
  store i32 (...)** bitcast (i8** getelementptr inbounds ({ [5 x i8*] }, { [5 x i8*] }* @_ZTVN11xercesc_2_712SAXExceptionE, i32 0, inrange i32 0, i32 2) to i32 (...)**), i32 (...)*** %0, align 8, !dbg !2914
  %fMemoryManager = getelementptr inbounds %"class.xercesc_2_7::SAXException", %"class.xercesc_2_7::SAXException"* %this1, i32 0, i32 2, !dbg !2915
  %1 = load %"class.xercesc_2_7::MemoryManager"*, %"class.xercesc_2_7::MemoryManager"** %fMemoryManager, align 8, !dbg !2915
  %fMsg = getelementptr inbounds %"class.xercesc_2_7::SAXException", %"class.xercesc_2_7::SAXException"* %this1, i32 0, i32 1, !dbg !2917
  %2 = load i16*, i16** %fMsg, align 8, !dbg !2917
  %3 = bitcast i16* %2 to i8*, !dbg !2917
  %4 = bitcast %"class.xercesc_2_7::MemoryManager"* %1 to void (%"class.xercesc_2_7::MemoryManager"*, i8*)***, !dbg !2918
  %vtable = load void (%"class.xercesc_2_7::MemoryManager"*, i8*)**, void (%"class.xercesc_2_7::MemoryManager"*, i8*)*** %4, align 8, !dbg !2918
  %vfn = getelementptr inbounds void (%"class.xercesc_2_7::MemoryManager"*, i8*)*, void (%"class.xercesc_2_7::MemoryManager"*, i8*)** %vtable, i64 3, !dbg !2918
  %5 = load void (%"class.xercesc_2_7::MemoryManager"*, i8*)*, void (%"class.xercesc_2_7::MemoryManager"*, i8*)** %vfn, align 8, !dbg !2918
  invoke void %5(%"class.xercesc_2_7::MemoryManager"* %1, i8* %3)
          to label %invoke.cont unwind label %terminate.lpad, !dbg !2918

invoke.cont:                                      ; preds = %entry
  ret void, !dbg !2919

terminate.lpad:                                   ; preds = %entry
  %6 = landingpad { i8*, i32 }
          catch i8* null, !dbg !2918
  %7 = extractvalue { i8*, i32 } %6, 0, !dbg !2918
  call void @__clang_call_terminate(i8* %7) #11, !dbg !2918
  unreachable, !dbg !2918
}

declare dso_local void @__cxa_throw(i8*, i8*, i8*)

declare dso_local dereferenceable(40) %"class.xalanc_1_10::XalanDOMString"* @_ZN11xalanc_1_1018XalanMessageLoader10getMessageERNS_14XalanDOMStringENS_13XalanMessages5CodesERKS1_S6_(%"class.xalanc_1_10::XalanDOMString"* dereferenceable(40), i32, %"class.xalanc_1_10::XalanDOMString"* dereferenceable(40), %"class.xalanc_1_10::XalanDOMString"* dereferenceable(40)) #4

; Function Attrs: noinline uwtable
define linkonce_odr dso_local i16* @_ZNK11xalanc_1_1014XalanDOMString5c_strEv(%"class.xalanc_1_10::XalanDOMString"* %this) #3 comdat align 2 !dbg !2920 {
entry:
  %this.addr = alloca %"class.xalanc_1_10::XalanDOMString"*, align 8
  store %"class.xalanc_1_10::XalanDOMString"* %this, %"class.xalanc_1_10::XalanDOMString"** %this.addr, align 8
  call void @llvm.dbg.declare(metadata %"class.xalanc_1_10::XalanDOMString"** %this.addr, metadata !2921, metadata !DIExpression()), !dbg !2922
  %this1 = load %"class.xalanc_1_10::XalanDOMString"*, %"class.xalanc_1_10::XalanDOMString"** %this.addr, align 8
  call void @_ZNK11xalanc_1_1014XalanDOMString10invariantsEv(%"class.xalanc_1_10::XalanDOMString"* %this1), !dbg !2923
  %m_data = getelementptr inbounds %"class.xalanc_1_10::XalanDOMString", %"class.xalanc_1_10::XalanDOMString"* %this1, i32 0, i32 0, !dbg !2924
  %call = call zeroext i1 @_ZNK11xalanc_1_1011XalanVectorItNS_31MemoryManagedConstructionTraitsItEEE5emptyEv(%"class.xalanc_1_10::XalanVector"* %m_data), !dbg !2925
  %conv = zext i1 %call to i32, !dbg !2924
  %cmp = icmp eq i32 %conv, 1, !dbg !2926
  br i1 %cmp, label %cond.true, label %cond.false, !dbg !2924

cond.true:                                        ; preds = %entry
  br label %cond.end, !dbg !2924

cond.false:                                       ; preds = %entry
  %m_data2 = getelementptr inbounds %"class.xalanc_1_10::XalanDOMString", %"class.xalanc_1_10::XalanDOMString"* %this1, i32 0, i32 0, !dbg !2927
  %call3 = call dereferenceable(2) i16* @_ZNK11xalanc_1_1011XalanVectorItNS_31MemoryManagedConstructionTraitsItEEEixEm(%"class.xalanc_1_10::XalanVector"* %m_data2, i64 0), !dbg !2927
  br label %cond.end, !dbg !2924

cond.end:                                         ; preds = %cond.false, %cond.true
  %cond = phi i16* [ @_ZN11xalanc_1_1014XalanDOMString7s_emptyE, %cond.true ], [ %call3, %cond.false ], !dbg !2924
  ret i16* %cond, !dbg !2928
}

; Function Attrs: noinline uwtable
define dso_local void @_ZN11xalanc_1_1022XalanXMLSerializerBase30throwInvalidCharacterExceptionEjRN11xercesc_2_713MemoryManagerE(i32 %ch, %"class.xercesc_2_7::MemoryManager"* dereferenceable(8) %theManager) #3 align 2 personality i8* bitcast (i32 (...)* @__gxx_personality_v0 to i8*) !dbg !2929 {
entry:
  %ch.addr = alloca i32, align 4
  %theManager.addr = alloca %"class.xercesc_2_7::MemoryManager"*, align 8
  %theMessage = alloca %"class.xalanc_1_10::XalanDOMString", align 8
  %theBuffer = alloca %"class.xalanc_1_10::XalanDOMString", align 8
  %exn.slot = alloca i8*
  %ehselector.slot = alloca i32
  store i32 %ch, i32* %ch.addr, align 4
  call void @llvm.dbg.declare(metadata i32* %ch.addr, metadata !2930, metadata !DIExpression()), !dbg !2931
  store %"class.xercesc_2_7::MemoryManager"* %theManager, %"class.xercesc_2_7::MemoryManager"** %theManager.addr, align 8
  call void @llvm.dbg.declare(metadata %"class.xercesc_2_7::MemoryManager"** %theManager.addr, metadata !2932, metadata !DIExpression()), !dbg !2933
  call void @llvm.dbg.declare(metadata %"class.xalanc_1_10::XalanDOMString"* %theMessage, metadata !2934, metadata !DIExpression()), !dbg !2935
  %0 = load %"class.xercesc_2_7::MemoryManager"*, %"class.xercesc_2_7::MemoryManager"** %theManager.addr, align 8, !dbg !2936
  call void @_ZN11xalanc_1_1014XalanDOMStringC1ERN11xercesc_2_713MemoryManagerE(%"class.xalanc_1_10::XalanDOMString"* %theMessage, %"class.xercesc_2_7::MemoryManager"* dereferenceable(8) %0), !dbg !2935
  call void @llvm.dbg.declare(metadata %"class.xalanc_1_10::XalanDOMString"* %theBuffer, metadata !2937, metadata !DIExpression()), !dbg !2938
  %1 = load %"class.xercesc_2_7::MemoryManager"*, %"class.xercesc_2_7::MemoryManager"** %theManager.addr, align 8, !dbg !2939
  invoke void @_ZN11xalanc_1_1014XalanDOMStringC1ERN11xercesc_2_713MemoryManagerE(%"class.xalanc_1_10::XalanDOMString"* %theBuffer, %"class.xercesc_2_7::MemoryManager"* dereferenceable(8) %1)
          to label %invoke.cont unwind label %lpad, !dbg !2938

invoke.cont:                                      ; preds = %entry
  %2 = load i32, i32* %ch.addr, align 4, !dbg !2940
  %conv = zext i32 %2 to i64, !dbg !2940
  %call = invoke dereferenceable(40) %"class.xalanc_1_10::XalanDOMString"* @_ZN11xalanc_1_1026UnsignedLongToHexDOMStringEmRNS_14XalanDOMStringE(i64 %conv, %"class.xalanc_1_10::XalanDOMString"* dereferenceable(40) %theBuffer)
          to label %invoke.cont2 unwind label %lpad1, !dbg !2941

invoke.cont2:                                     ; preds = %invoke.cont
  %call4 = invoke dereferenceable(40) %"class.xalanc_1_10::XalanDOMString"* @_ZN11xalanc_1_1018XalanMessageLoader10getMessageERNS_14XalanDOMStringENS_13XalanMessages5CodesERKS1_(%"class.xalanc_1_10::XalanDOMString"* dereferenceable(40) %theMessage, i32 177, %"class.xalanc_1_10::XalanDOMString"* dereferenceable(40) %call)
          to label %invoke.cont3 unwind label %lpad1, !dbg !2942

invoke.cont3:                                     ; preds = %invoke.cont2
  %exception = call i8* @__cxa_allocate_exception(i64 24) #7, !dbg !2943
  %3 = bitcast i8* %exception to %"class.xercesc_2_7::SAXException"*, !dbg !2943
  %call7 = invoke i16* @_ZNK11xalanc_1_1014XalanDOMString5c_strEv(%"class.xalanc_1_10::XalanDOMString"* %theMessage)
          to label %invoke.cont6 unwind label %lpad5, !dbg !2944

invoke.cont6:                                     ; preds = %invoke.cont3
  %4 = load %"class.xercesc_2_7::MemoryManager"*, %"class.xercesc_2_7::MemoryManager"** %theManager.addr, align 8, !dbg !2945
  invoke void @_ZN11xercesc_2_712SAXExceptionC2EPKtPNS_13MemoryManagerE(%"class.xercesc_2_7::SAXException"* %3, i16* %call7, %"class.xercesc_2_7::MemoryManager"* %4)
          to label %invoke.cont8 unwind label %lpad5, !dbg !2946

invoke.cont8:                                     ; preds = %invoke.cont6
  invoke void @__cxa_throw(i8* %exception, i8* bitcast ({ i8*, i8*, i8* }* @_ZTIN11xercesc_2_712SAXExceptionE to i8*), i8* bitcast (void (%"class.xercesc_2_7::SAXException"*)* @_ZN11xercesc_2_712SAXExceptionD2Ev to i8*)) #12
          to label %unreachable unwind label %lpad1, !dbg !2943

lpad:                                             ; preds = %entry
  %5 = landingpad { i8*, i32 }
          cleanup, !dbg !2947
  %6 = extractvalue { i8*, i32 } %5, 0, !dbg !2947
  store i8* %6, i8** %exn.slot, align 8, !dbg !2947
  %7 = extractvalue { i8*, i32 } %5, 1, !dbg !2947
  store i32 %7, i32* %ehselector.slot, align 4, !dbg !2947
  br label %ehcleanup9, !dbg !2947

lpad1:                                            ; preds = %invoke.cont8, %invoke.cont2, %invoke.cont
  %8 = landingpad { i8*, i32 }
          cleanup, !dbg !2947
  %9 = extractvalue { i8*, i32 } %8, 0, !dbg !2947
  store i8* %9, i8** %exn.slot, align 8, !dbg !2947
  %10 = extractvalue { i8*, i32 } %8, 1, !dbg !2947
  store i32 %10, i32* %ehselector.slot, align 4, !dbg !2947
  br label %ehcleanup, !dbg !2947

lpad5:                                            ; preds = %invoke.cont6, %invoke.cont3
  %11 = landingpad { i8*, i32 }
          cleanup, !dbg !2947
  %12 = extractvalue { i8*, i32 } %11, 0, !dbg !2947
  store i8* %12, i8** %exn.slot, align 8, !dbg !2947
  %13 = extractvalue { i8*, i32 } %11, 1, !dbg !2947
  store i32 %13, i32* %ehselector.slot, align 4, !dbg !2947
  call void @__cxa_free_exception(i8* %exception) #7, !dbg !2943
  br label %ehcleanup, !dbg !2943

ehcleanup:                                        ; preds = %lpad5, %lpad1
  call void @_ZN11xalanc_1_1014XalanDOMStringD2Ev(%"class.xalanc_1_10::XalanDOMString"* %theBuffer) #7, !dbg !2947
  br label %ehcleanup9, !dbg !2947

ehcleanup9:                                       ; preds = %ehcleanup, %lpad
  call void @_ZN11xalanc_1_1014XalanDOMStringD2Ev(%"class.xalanc_1_10::XalanDOMString"* %theMessage) #7, !dbg !2947
  br label %eh.resume, !dbg !2947

eh.resume:                                        ; preds = %ehcleanup9
  %exn = load i8*, i8** %exn.slot, align 8, !dbg !2947
  %sel = load i32, i32* %ehselector.slot, align 4, !dbg !2947
  %lpad.val = insertvalue { i8*, i32 } undef, i8* %exn, 0, !dbg !2947
  %lpad.val10 = insertvalue { i8*, i32 } %lpad.val, i32 %sel, 1, !dbg !2947
  resume { i8*, i32 } %lpad.val10, !dbg !2947

unreachable:                                      ; preds = %invoke.cont8
  unreachable
}

; Function Attrs: noinline uwtable
define dso_local void @_ZN11xalanc_1_1022XalanXMLSerializerBase33throwInvalidXMLCharacterExceptionEjRKNS_14XalanDOMStringERN11xercesc_2_713MemoryManagerE(i32 %ch, %"class.xalanc_1_10::XalanDOMString"* dereferenceable(40) %theXMLversion, %"class.xercesc_2_7::MemoryManager"* dereferenceable(8) %theManager) #3 align 2 personality i8* bitcast (i32 (...)* @__gxx_personality_v0 to i8*) !dbg !2948 {
entry:
  %ch.addr = alloca i32, align 4
  %theXMLversion.addr = alloca %"class.xalanc_1_10::XalanDOMString"*, align 8
  %theManager.addr = alloca %"class.xercesc_2_7::MemoryManager"*, align 8
  %theMessage = alloca %"class.xalanc_1_10::XalanDOMString", align 8
  %theBuffer = alloca %"class.xalanc_1_10::XalanDOMString", align 8
  %exn.slot = alloca i8*
  %ehselector.slot = alloca i32
  store i32 %ch, i32* %ch.addr, align 4
  call void @llvm.dbg.declare(metadata i32* %ch.addr, metadata !2949, metadata !DIExpression()), !dbg !2950
  store %"class.xalanc_1_10::XalanDOMString"* %theXMLversion, %"class.xalanc_1_10::XalanDOMString"** %theXMLversion.addr, align 8
  call void @llvm.dbg.declare(metadata %"class.xalanc_1_10::XalanDOMString"** %theXMLversion.addr, metadata !2951, metadata !DIExpression()), !dbg !2952
  store %"class.xercesc_2_7::MemoryManager"* %theManager, %"class.xercesc_2_7::MemoryManager"** %theManager.addr, align 8
  call void @llvm.dbg.declare(metadata %"class.xercesc_2_7::MemoryManager"** %theManager.addr, metadata !2953, metadata !DIExpression()), !dbg !2954
  call void @llvm.dbg.declare(metadata %"class.xalanc_1_10::XalanDOMString"* %theMessage, metadata !2955, metadata !DIExpression()), !dbg !2956
  %0 = load %"class.xercesc_2_7::MemoryManager"*, %"class.xercesc_2_7::MemoryManager"** %theManager.addr, align 8, !dbg !2957
  call void @_ZN11xalanc_1_1014XalanDOMStringC1ERN11xercesc_2_713MemoryManagerE(%"class.xalanc_1_10::XalanDOMString"* %theMessage, %"class.xercesc_2_7::MemoryManager"* dereferenceable(8) %0), !dbg !2956
  call void @llvm.dbg.declare(metadata %"class.xalanc_1_10::XalanDOMString"* %theBuffer, metadata !2958, metadata !DIExpression()), !dbg !2959
  %1 = load %"class.xercesc_2_7::MemoryManager"*, %"class.xercesc_2_7::MemoryManager"** %theManager.addr, align 8, !dbg !2960
  invoke void @_ZN11xalanc_1_1014XalanDOMStringC1ERN11xercesc_2_713MemoryManagerE(%"class.xalanc_1_10::XalanDOMString"* %theBuffer, %"class.xercesc_2_7::MemoryManager"* dereferenceable(8) %1)
          to label %invoke.cont unwind label %lpad, !dbg !2959

invoke.cont:                                      ; preds = %entry
  %2 = load i32, i32* %ch.addr, align 4, !dbg !2961
  %conv = zext i32 %2 to i64, !dbg !2961
  %call = invoke dereferenceable(40) %"class.xalanc_1_10::XalanDOMString"* @_ZN11xalanc_1_1026UnsignedLongToHexDOMStringEmRNS_14XalanDOMStringE(i64 %conv, %"class.xalanc_1_10::XalanDOMString"* dereferenceable(40) %theBuffer)
          to label %invoke.cont2 unwind label %lpad1, !dbg !2962

invoke.cont2:                                     ; preds = %invoke.cont
  %3 = load %"class.xalanc_1_10::XalanDOMString"*, %"class.xalanc_1_10::XalanDOMString"** %theXMLversion.addr, align 8, !dbg !2963
  %call4 = invoke dereferenceable(40) %"class.xalanc_1_10::XalanDOMString"* @_ZN11xalanc_1_1018XalanMessageLoader10getMessageERNS_14XalanDOMStringENS_13XalanMessages5CodesERKS1_S6_(%"class.xalanc_1_10::XalanDOMString"* dereferenceable(40) %theMessage, i32 186, %"class.xalanc_1_10::XalanDOMString"* dereferenceable(40) %call, %"class.xalanc_1_10::XalanDOMString"* dereferenceable(40) %3)
          to label %invoke.cont3 unwind label %lpad1, !dbg !2964

invoke.cont3:                                     ; preds = %invoke.cont2
  %exception = call i8* @__cxa_allocate_exception(i64 24) #7, !dbg !2965
  %4 = bitcast i8* %exception to %"class.xercesc_2_7::SAXException"*, !dbg !2965
  %call7 = invoke i16* @_ZNK11xalanc_1_1014XalanDOMString5c_strEv(%"class.xalanc_1_10::XalanDOMString"* %theMessage)
          to label %invoke.cont6 unwind label %lpad5, !dbg !2966

invoke.cont6:                                     ; preds = %invoke.cont3
  %5 = load %"class.xercesc_2_7::MemoryManager"*, %"class.xercesc_2_7::MemoryManager"** %theManager.addr, align 8, !dbg !2967
  invoke void @_ZN11xercesc_2_712SAXExceptionC2EPKtPNS_13MemoryManagerE(%"class.xercesc_2_7::SAXException"* %4, i16* %call7, %"class.xercesc_2_7::MemoryManager"* %5)
          to label %invoke.cont8 unwind label %lpad5, !dbg !2968

invoke.cont8:                                     ; preds = %invoke.cont6
  invoke void @__cxa_throw(i8* %exception, i8* bitcast ({ i8*, i8*, i8* }* @_ZTIN11xercesc_2_712SAXExceptionE to i8*), i8* bitcast (void (%"class.xercesc_2_7::SAXException"*)* @_ZN11xercesc_2_712SAXExceptionD2Ev to i8*)) #12
          to label %unreachable unwind label %lpad1, !dbg !2965

lpad:                                             ; preds = %entry
  %6 = landingpad { i8*, i32 }
          cleanup, !dbg !2969
  %7 = extractvalue { i8*, i32 } %6, 0, !dbg !2969
  store i8* %7, i8** %exn.slot, align 8, !dbg !2969
  %8 = extractvalue { i8*, i32 } %6, 1, !dbg !2969
  store i32 %8, i32* %ehselector.slot, align 4, !dbg !2969
  br label %ehcleanup9, !dbg !2969

lpad1:                                            ; preds = %invoke.cont8, %invoke.cont2, %invoke.cont
  %9 = landingpad { i8*, i32 }
          cleanup, !dbg !2969
  %10 = extractvalue { i8*, i32 } %9, 0, !dbg !2969
  store i8* %10, i8** %exn.slot, align 8, !dbg !2969
  %11 = extractvalue { i8*, i32 } %9, 1, !dbg !2969
  store i32 %11, i32* %ehselector.slot, align 4, !dbg !2969
  br label %ehcleanup, !dbg !2969

lpad5:                                            ; preds = %invoke.cont6, %invoke.cont3
  %12 = landingpad { i8*, i32 }
          cleanup, !dbg !2969
  %13 = extractvalue { i8*, i32 } %12, 0, !dbg !2969
  store i8* %13, i8** %exn.slot, align 8, !dbg !2969
  %14 = extractvalue { i8*, i32 } %12, 1, !dbg !2969
  store i32 %14, i32* %ehselector.slot, align 4, !dbg !2969
  call void @__cxa_free_exception(i8* %exception) #7, !dbg !2965
  br label %ehcleanup, !dbg !2965

ehcleanup:                                        ; preds = %lpad5, %lpad1
  call void @_ZN11xalanc_1_1014XalanDOMStringD2Ev(%"class.xalanc_1_10::XalanDOMString"* %theBuffer) #7, !dbg !2969
  br label %ehcleanup9, !dbg !2969

ehcleanup9:                                       ; preds = %ehcleanup, %lpad
  call void @_ZN11xalanc_1_1014XalanDOMStringD2Ev(%"class.xalanc_1_10::XalanDOMString"* %theMessage) #7, !dbg !2969
  br label %eh.resume, !dbg !2969

eh.resume:                                        ; preds = %ehcleanup9
  %exn = load i8*, i8** %exn.slot, align 8, !dbg !2969
  %sel = load i32, i32* %ehselector.slot, align 4, !dbg !2969
  %lpad.val = insertvalue { i8*, i32 } undef, i8* %exn, 0, !dbg !2969
  %lpad.val10 = insertvalue { i8*, i32 } %lpad.val, i32 %sel, 1, !dbg !2969
  resume { i8*, i32 } %lpad.val10, !dbg !2969

unreachable:                                      ; preds = %invoke.cont8
  unreachable
}

; Function Attrs: noinline nounwind uwtable
define dso_local void @_ZN11xalanc_1_1022XalanXMLSerializerBase18setDocumentLocatorEPKN11xercesc_2_77LocatorE(%"class.xalanc_1_10::XalanXMLSerializerBase"* %this, %"class.xercesc_2_7::Locator"* %0) unnamed_addr #1 align 2 !dbg !2970 {
entry:
  %this.addr = alloca %"class.xalanc_1_10::XalanXMLSerializerBase"*, align 8
  %.addr = alloca %"class.xercesc_2_7::Locator"*, align 8
  store %"class.xalanc_1_10::XalanXMLSerializerBase"* %this, %"class.xalanc_1_10::XalanXMLSerializerBase"** %this.addr, align 8
  call void @llvm.dbg.declare(metadata %"class.xalanc_1_10::XalanXMLSerializerBase"** %this.addr, metadata !2978, metadata !DIExpression()), !dbg !2979
  store %"class.xercesc_2_7::Locator"* %0, %"class.xercesc_2_7::Locator"** %.addr, align 8
  call void @llvm.dbg.declare(metadata %"class.xercesc_2_7::Locator"** %.addr, metadata !2980, metadata !DIExpression()), !dbg !2981
  %this1 = load %"class.xalanc_1_10::XalanXMLSerializerBase"*, %"class.xalanc_1_10::XalanXMLSerializerBase"** %this.addr, align 8
  ret void, !dbg !2982
}

; Function Attrs: noinline uwtable
define dso_local void @_ZN11xalanc_1_1022XalanXMLSerializerBase13startDocumentEv(%"class.xalanc_1_10::XalanXMLSerializerBase"* %this) unnamed_addr #3 align 2 !dbg !2983 {
entry:
  %this.addr = alloca %"class.xalanc_1_10::XalanXMLSerializerBase"*, align 8
  store %"class.xalanc_1_10::XalanXMLSerializerBase"* %this, %"class.xalanc_1_10::XalanXMLSerializerBase"** %this.addr, align 8
  call void @llvm.dbg.declare(metadata %"class.xalanc_1_10::XalanXMLSerializerBase"** %this.addr, metadata !2984, metadata !DIExpression()), !dbg !2985
  %this1 = load %"class.xalanc_1_10::XalanXMLSerializerBase"*, %"class.xalanc_1_10::XalanXMLSerializerBase"** %this.addr, align 8
  %m_doctypeSystem = getelementptr inbounds %"class.xalanc_1_10::XalanXMLSerializerBase", %"class.xalanc_1_10::XalanXMLSerializerBase"* %this1, i32 0, i32 4, !dbg !2986
  %call = call zeroext i1 @_ZNK11xalanc_1_1014XalanDOMString5emptyEv(%"class.xalanc_1_10::XalanDOMString"* %m_doctypeSystem), !dbg !2988
  %conv = zext i1 %call to i32, !dbg !2986
  %cmp = icmp eq i32 %conv, 0, !dbg !2989
  br i1 %cmp, label %if.then, label %if.end, !dbg !2990

if.then:                                          ; preds = %entry
  %m_needToOutputDoctypeDecl = getelementptr inbounds %"class.xalanc_1_10::XalanXMLSerializerBase", %"class.xalanc_1_10::XalanXMLSerializerBase"* %this1, i32 0, i32 9, !dbg !2991
  store i8 1, i8* %m_needToOutputDoctypeDecl, align 8, !dbg !2993
  br label %if.end, !dbg !2994

if.end:                                           ; preds = %if.then, %entry
  %m_shouldWriteXMLHeader = getelementptr inbounds %"class.xalanc_1_10::XalanXMLSerializerBase", %"class.xalanc_1_10::XalanXMLSerializerBase"* %this1, i32 0, i32 10, !dbg !2995
  %0 = load i8, i8* %m_shouldWriteXMLHeader, align 1, !dbg !2995
  %tobool = trunc i8 %0 to i1, !dbg !2995
  %conv2 = zext i1 %tobool to i32, !dbg !2995
  %cmp3 = icmp eq i32 %conv2, 1, !dbg !2997
  br i1 %cmp3, label %if.then4, label %if.end13, !dbg !2998

if.then4:                                         ; preds = %if.end
  %1 = bitcast %"class.xalanc_1_10::XalanXMLSerializerBase"* %this1 to void (%"class.xalanc_1_10::XalanXMLSerializerBase"*)***, !dbg !2999
  %vtable = load void (%"class.xalanc_1_10::XalanXMLSerializerBase"*)**, void (%"class.xalanc_1_10::XalanXMLSerializerBase"*)*** %1, align 8, !dbg !2999
  %vfn = getelementptr inbounds void (%"class.xalanc_1_10::XalanXMLSerializerBase"*)*, void (%"class.xalanc_1_10::XalanXMLSerializerBase"*)** %vtable, i64 21, !dbg !2999
  %2 = load void (%"class.xalanc_1_10::XalanXMLSerializerBase"*)*, void (%"class.xalanc_1_10::XalanXMLSerializerBase"*)** %vfn, align 8, !dbg !2999
  call void %2(%"class.xalanc_1_10::XalanXMLSerializerBase"* %this1), !dbg !2999
  %m_needToOutputDoctypeDecl5 = getelementptr inbounds %"class.xalanc_1_10::XalanXMLSerializerBase", %"class.xalanc_1_10::XalanXMLSerializerBase"* %this1, i32 0, i32 9, !dbg !3001
  %3 = load i8, i8* %m_needToOutputDoctypeDecl5, align 8, !dbg !3001
  %tobool6 = trunc i8 %3 to i1, !dbg !3001
  %conv7 = zext i1 %tobool6 to i32, !dbg !3001
  %cmp8 = icmp eq i32 %conv7, 1, !dbg !3003
  br i1 %cmp8, label %if.then9, label %if.end12, !dbg !3004

if.then9:                                         ; preds = %if.then4
  %4 = bitcast %"class.xalanc_1_10::XalanXMLSerializerBase"* %this1 to void (%"class.xalanc_1_10::XalanXMLSerializerBase"*)***, !dbg !3005
  %vtable10 = load void (%"class.xalanc_1_10::XalanXMLSerializerBase"*)**, void (%"class.xalanc_1_10::XalanXMLSerializerBase"*)*** %4, align 8, !dbg !3005
  %vfn11 = getelementptr inbounds void (%"class.xalanc_1_10::XalanXMLSerializerBase"*)*, void (%"class.xalanc_1_10::XalanXMLSerializerBase"*)** %vtable10, i64 27, !dbg !3005
  %5 = load void (%"class.xalanc_1_10::XalanXMLSerializerBase"*)*, void (%"class.xalanc_1_10::XalanXMLSerializerBase"*)** %vfn11, align 8, !dbg !3005
  call void %5(%"class.xalanc_1_10::XalanXMLSerializerBase"* %this1), !dbg !3005
  br label %if.end12, !dbg !3007

if.end12:                                         ; preds = %if.then9, %if.then4
  br label %if.end13, !dbg !3008

if.end13:                                         ; preds = %if.end12, %if.end
  ret void, !dbg !3009
}

; Function Attrs: noinline nounwind uwtable
define linkonce_odr dso_local zeroext i1 @_ZNK11xalanc_1_1014XalanDOMString5emptyEv(%"class.xalanc_1_10::XalanDOMString"* %this) #1 comdat align 2 !dbg !3010 {
entry:
  %this.addr = alloca %"class.xalanc_1_10::XalanDOMString"*, align 8
  store %"class.xalanc_1_10::XalanDOMString"* %this, %"class.xalanc_1_10::XalanDOMString"** %this.addr, align 8
  call void @llvm.dbg.declare(metadata %"class.xalanc_1_10::XalanDOMString"** %this.addr, metadata !3011, metadata !DIExpression()), !dbg !3012
  %this1 = load %"class.xalanc_1_10::XalanDOMString"*, %"class.xalanc_1_10::XalanDOMString"** %this.addr, align 8
  call void @_ZNK11xalanc_1_1014XalanDOMString10invariantsEv(%"class.xalanc_1_10::XalanDOMString"* %this1), !dbg !3013
  %m_size = getelementptr inbounds %"class.xalanc_1_10::XalanDOMString", %"class.xalanc_1_10::XalanDOMString"* %this1, i32 0, i32 1, !dbg !3014
  %0 = load i32, i32* %m_size, align 8, !dbg !3014
  %cmp = icmp eq i32 %0, 0, !dbg !3015
  %1 = zext i1 %cmp to i64, !dbg !3014
  %cond = select i1 %cmp, i1 true, i1 false, !dbg !3014
  ret i1 %cond, !dbg !3016
}

; Function Attrs: noinline uwtable
define dso_local void @_ZN11xalanc_1_1022XalanXMLSerializerBase10charactersEPKtj(%"class.xalanc_1_10::XalanXMLSerializerBase"* %this, i16* %chars, i32 %length) unnamed_addr #3 align 2 !dbg !3017 {
entry:
  %this.addr = alloca %"class.xalanc_1_10::XalanXMLSerializerBase"*, align 8
  %chars.addr = alloca i16*, align 8
  %length.addr = alloca i32, align 4
  store %"class.xalanc_1_10::XalanXMLSerializerBase"* %this, %"class.xalanc_1_10::XalanXMLSerializerBase"** %this.addr, align 8
  call void @llvm.dbg.declare(metadata %"class.xalanc_1_10::XalanXMLSerializerBase"** %this.addr, metadata !3018, metadata !DIExpression()), !dbg !3019
  store i16* %chars, i16** %chars.addr, align 8
  call void @llvm.dbg.declare(metadata i16** %chars.addr, metadata !3020, metadata !DIExpression()), !dbg !3021
  store i32 %length, i32* %length.addr, align 4
  call void @llvm.dbg.declare(metadata i32* %length.addr, metadata !3022, metadata !DIExpression()), !dbg !3023
  %this1 = load %"class.xalanc_1_10::XalanXMLSerializerBase"*, %"class.xalanc_1_10::XalanXMLSerializerBase"** %this.addr, align 8
  %0 = load i32, i32* %length.addr, align 4, !dbg !3024
  %cmp = icmp ne i32 %0, 0, !dbg !3026
  br i1 %cmp, label %if.then, label %if.end6, !dbg !3027

if.then:                                          ; preds = %entry
  %m_nextIsRaw = getelementptr inbounds %"class.xalanc_1_10::XalanXMLSerializerBase", %"class.xalanc_1_10::XalanXMLSerializerBase"* %this1, i32 0, i32 1, !dbg !3028
  %1 = load i8, i8* %m_nextIsRaw, align 8, !dbg !3028
  %tobool = trunc i8 %1 to i1, !dbg !3028
  br i1 %tobool, label %if.then2, label %if.else, !dbg !3031

if.then2:                                         ; preds = %if.then
  %m_nextIsRaw3 = getelementptr inbounds %"class.xalanc_1_10::XalanXMLSerializerBase", %"class.xalanc_1_10::XalanXMLSerializerBase"* %this1, i32 0, i32 1, !dbg !3032
  store i8 0, i8* %m_nextIsRaw3, align 8, !dbg !3034
  %2 = load i16*, i16** %chars.addr, align 8, !dbg !3035
  %3 = load i32, i32* %length.addr, align 4, !dbg !3036
  %4 = bitcast %"class.xalanc_1_10::XalanXMLSerializerBase"* %this1 to void (%"class.xalanc_1_10::XalanXMLSerializerBase"*, i16*, i32)***, !dbg !3037
  %vtable = load void (%"class.xalanc_1_10::XalanXMLSerializerBase"*, i16*, i32)**, void (%"class.xalanc_1_10::XalanXMLSerializerBase"*, i16*, i32)*** %4, align 8, !dbg !3037
  %vfn = getelementptr inbounds void (%"class.xalanc_1_10::XalanXMLSerializerBase"*, i16*, i32)*, void (%"class.xalanc_1_10::XalanXMLSerializerBase"*, i16*, i32)** %vtable, i64 11, !dbg !3037
  %5 = load void (%"class.xalanc_1_10::XalanXMLSerializerBase"*, i16*, i32)*, void (%"class.xalanc_1_10::XalanXMLSerializerBase"*, i16*, i32)** %vfn, align 8, !dbg !3037
  call void %5(%"class.xalanc_1_10::XalanXMLSerializerBase"* %this1, i16* %2, i32 %3), !dbg !3037
  br label %if.end, !dbg !3038

if.else:                                          ; preds = %if.then
  %6 = load i16*, i16** %chars.addr, align 8, !dbg !3039
  %7 = load i32, i32* %length.addr, align 4, !dbg !3041
  %8 = bitcast %"class.xalanc_1_10::XalanXMLSerializerBase"* %this1 to void (%"class.xalanc_1_10::XalanXMLSerializerBase"*, i16*, i32)***, !dbg !3042
  %vtable4 = load void (%"class.xalanc_1_10::XalanXMLSerializerBase"*, i16*, i32)**, void (%"class.xalanc_1_10::XalanXMLSerializerBase"*, i16*, i32)*** %8, align 8, !dbg !3042
  %vfn5 = getelementptr inbounds void (%"class.xalanc_1_10::XalanXMLSerializerBase"*, i16*, i32)*, void (%"class.xalanc_1_10::XalanXMLSerializerBase"*, i16*, i32)** %vtable4, i64 25, !dbg !3042
  %9 = load void (%"class.xalanc_1_10::XalanXMLSerializerBase"*, i16*, i32)*, void (%"class.xalanc_1_10::XalanXMLSerializerBase"*, i16*, i32)** %vfn5, align 8, !dbg !3042
  call void %9(%"class.xalanc_1_10::XalanXMLSerializerBase"* %this1, i16* %6, i32 %7), !dbg !3042
  br label %if.end

if.end:                                           ; preds = %if.else, %if.then2
  br label %if.end6, !dbg !3043

if.end6:                                          ; preds = %if.end, %entry
  ret void, !dbg !3044
}

; Function Attrs: noinline uwtable
define dso_local void @_ZN11xalanc_1_1022XalanXMLSerializerBase5cdataEPKtj(%"class.xalanc_1_10::XalanXMLSerializerBase"* %this, i16* %ch, i32 %length) unnamed_addr #3 align 2 !dbg !3045 {
entry:
  %this.addr = alloca %"class.xalanc_1_10::XalanXMLSerializerBase"*, align 8
  %ch.addr = alloca i16*, align 8
  %length.addr = alloca i32, align 4
  store %"class.xalanc_1_10::XalanXMLSerializerBase"* %this, %"class.xalanc_1_10::XalanXMLSerializerBase"** %this.addr, align 8
  call void @llvm.dbg.declare(metadata %"class.xalanc_1_10::XalanXMLSerializerBase"** %this.addr, metadata !3046, metadata !DIExpression()), !dbg !3047
  store i16* %ch, i16** %ch.addr, align 8
  call void @llvm.dbg.declare(metadata i16** %ch.addr, metadata !3048, metadata !DIExpression()), !dbg !3049
  store i32 %length, i32* %length.addr, align 4
  call void @llvm.dbg.declare(metadata i32* %length.addr, metadata !3050, metadata !DIExpression()), !dbg !3051
  %this1 = load %"class.xalanc_1_10::XalanXMLSerializerBase"*, %"class.xalanc_1_10::XalanXMLSerializerBase"** %this.addr, align 8
  %0 = load i32, i32* %length.addr, align 4, !dbg !3052
  %cmp = icmp ne i32 %0, 0, !dbg !3054
  br i1 %cmp, label %if.then, label %if.end7, !dbg !3055

if.then:                                          ; preds = %entry
  %m_nextIsRaw = getelementptr inbounds %"class.xalanc_1_10::XalanXMLSerializerBase", %"class.xalanc_1_10::XalanXMLSerializerBase"* %this1, i32 0, i32 1, !dbg !3056
  %1 = load i8, i8* %m_nextIsRaw, align 8, !dbg !3056
  %tobool = trunc i8 %1 to i1, !dbg !3056
  %conv = zext i1 %tobool to i32, !dbg !3056
  %cmp2 = icmp eq i32 %conv, 1, !dbg !3059
  br i1 %cmp2, label %if.then3, label %if.else, !dbg !3060

if.then3:                                         ; preds = %if.then
  %m_nextIsRaw4 = getelementptr inbounds %"class.xalanc_1_10::XalanXMLSerializerBase", %"class.xalanc_1_10::XalanXMLSerializerBase"* %this1, i32 0, i32 1, !dbg !3061
  store i8 0, i8* %m_nextIsRaw4, align 8, !dbg !3063
  %2 = load i16*, i16** %ch.addr, align 8, !dbg !3064
  %3 = load i32, i32* %length.addr, align 4, !dbg !3065
  %4 = bitcast %"class.xalanc_1_10::XalanXMLSerializerBase"* %this1 to void (%"class.xalanc_1_10::XalanXMLSerializerBase"*, i16*, i32)***, !dbg !3066
  %vtable = load void (%"class.xalanc_1_10::XalanXMLSerializerBase"*, i16*, i32)**, void (%"class.xalanc_1_10::XalanXMLSerializerBase"*, i16*, i32)*** %4, align 8, !dbg !3066
  %vfn = getelementptr inbounds void (%"class.xalanc_1_10::XalanXMLSerializerBase"*, i16*, i32)*, void (%"class.xalanc_1_10::XalanXMLSerializerBase"*, i16*, i32)** %vtable, i64 11, !dbg !3066
  %5 = load void (%"class.xalanc_1_10::XalanXMLSerializerBase"*, i16*, i32)*, void (%"class.xalanc_1_10::XalanXMLSerializerBase"*, i16*, i32)** %vfn, align 8, !dbg !3066
  call void %5(%"class.xalanc_1_10::XalanXMLSerializerBase"* %this1, i16* %2, i32 %3), !dbg !3066
  br label %if.end, !dbg !3067

if.else:                                          ; preds = %if.then
  %6 = load i16*, i16** %ch.addr, align 8, !dbg !3068
  %7 = load i32, i32* %length.addr, align 4, !dbg !3070
  %8 = bitcast %"class.xalanc_1_10::XalanXMLSerializerBase"* %this1 to void (%"class.xalanc_1_10::XalanXMLSerializerBase"*, i16*, i32)***, !dbg !3071
  %vtable5 = load void (%"class.xalanc_1_10::XalanXMLSerializerBase"*, i16*, i32)**, void (%"class.xalanc_1_10::XalanXMLSerializerBase"*, i16*, i32)*** %8, align 8, !dbg !3071
  %vfn6 = getelementptr inbounds void (%"class.xalanc_1_10::XalanXMLSerializerBase"*, i16*, i32)*, void (%"class.xalanc_1_10::XalanXMLSerializerBase"*, i16*, i32)** %vtable5, i64 26, !dbg !3071
  %9 = load void (%"class.xalanc_1_10::XalanXMLSerializerBase"*, i16*, i32)*, void (%"class.xalanc_1_10::XalanXMLSerializerBase"*, i16*, i32)** %vfn6, align 8, !dbg !3071
  call void %9(%"class.xalanc_1_10::XalanXMLSerializerBase"* %this1, i16* %6, i32 %7), !dbg !3071
  br label %if.end

if.end:                                           ; preds = %if.else, %if.then3
  br label %if.end7, !dbg !3072

if.end7:                                          ; preds = %if.end, %entry
  ret void, !dbg !3073
}

; Function Attrs: noinline uwtable
define dso_local void @_ZN11xalanc_1_1022XalanXMLSerializerBase21processingInstructionEPKtS2_(%"class.xalanc_1_10::XalanXMLSerializerBase"* %this, i16* %target, i16* %data) unnamed_addr #3 align 2 !dbg !3074 {
entry:
  %this.addr = alloca %"class.xalanc_1_10::XalanXMLSerializerBase"*, align 8
  %target.addr = alloca i16*, align 8
  %data.addr = alloca i16*, align 8
  store %"class.xalanc_1_10::XalanXMLSerializerBase"* %this, %"class.xalanc_1_10::XalanXMLSerializerBase"** %this.addr, align 8
  call void @llvm.dbg.declare(metadata %"class.xalanc_1_10::XalanXMLSerializerBase"** %this.addr, metadata !3075, metadata !DIExpression()), !dbg !3076
  store i16* %target, i16** %target.addr, align 8
  call void @llvm.dbg.declare(metadata i16** %target.addr, metadata !3077, metadata !DIExpression()), !dbg !3078
  store i16* %data, i16** %data.addr, align 8
  call void @llvm.dbg.declare(metadata i16** %data.addr, metadata !3079, metadata !DIExpression()), !dbg !3080
  %this1 = load %"class.xalanc_1_10::XalanXMLSerializerBase"*, %"class.xalanc_1_10::XalanXMLSerializerBase"** %this.addr, align 8
  %0 = load i16*, i16** %target.addr, align 8, !dbg !3081
  %1 = load i16*, i16** %target.addr, align 8, !dbg !3083
  %call = call i32 @_ZN11xalanc_1_106lengthEPKt(i16* %1), !dbg !3084
  %call2 = call zeroext i1 @_ZN11xalanc_1_106equalsEPKtjS1_j(i16* %0, i32 %call, i16* getelementptr inbounds ([0 x i16], [0 x i16]* @_ZN11xalanc_1_1017FormatterListener10s_piTargetE, i64 0, i64 0), i32 5), !dbg !3085
  %conv = zext i1 %call2 to i32, !dbg !3085
  %cmp = icmp eq i32 %conv, 1, !dbg !3086
  br i1 %cmp, label %land.lhs.true, label %if.else, !dbg !3087

land.lhs.true:                                    ; preds = %entry
  %2 = load i16*, i16** %data.addr, align 8, !dbg !3088
  %3 = load i16*, i16** %data.addr, align 8, !dbg !3089
  %call3 = call i32 @_ZN11xalanc_1_106lengthEPKt(i16* %3), !dbg !3090
  %call4 = call zeroext i1 @_ZN11xalanc_1_106equalsEPKtjS1_j(i16* %2, i32 %call3, i16* getelementptr inbounds ([0 x i16], [0 x i16]* @_ZN11xalanc_1_1017FormatterListener8s_piDataE, i64 0, i64 0), i32 3), !dbg !3091
  %conv5 = zext i1 %call4 to i32, !dbg !3091
  %cmp6 = icmp eq i32 %conv5, 1, !dbg !3092
  br i1 %cmp6, label %if.then, label %if.else, !dbg !3093

if.then:                                          ; preds = %land.lhs.true
  %m_nextIsRaw = getelementptr inbounds %"class.xalanc_1_10::XalanXMLSerializerBase", %"class.xalanc_1_10::XalanXMLSerializerBase"* %this1, i32 0, i32 1, !dbg !3094
  store i8 1, i8* %m_nextIsRaw, align 8, !dbg !3096
  br label %if.end, !dbg !3097

if.else:                                          ; preds = %land.lhs.true, %entry
  %4 = load i16*, i16** %target.addr, align 8, !dbg !3098
  %5 = load i16*, i16** %data.addr, align 8, !dbg !3100
  %6 = bitcast %"class.xalanc_1_10::XalanXMLSerializerBase"* %this1 to void (%"class.xalanc_1_10::XalanXMLSerializerBase"*, i16*, i16*)***, !dbg !3101
  %vtable = load void (%"class.xalanc_1_10::XalanXMLSerializerBase"*, i16*, i16*)**, void (%"class.xalanc_1_10::XalanXMLSerializerBase"*, i16*, i16*)*** %6, align 8, !dbg !3101
  %vfn = getelementptr inbounds void (%"class.xalanc_1_10::XalanXMLSerializerBase"*, i16*, i16*)*, void (%"class.xalanc_1_10::XalanXMLSerializerBase"*, i16*, i16*)** %vtable, i64 24, !dbg !3101
  %7 = load void (%"class.xalanc_1_10::XalanXMLSerializerBase"*, i16*, i16*)*, void (%"class.xalanc_1_10::XalanXMLSerializerBase"*, i16*, i16*)** %vfn, align 8, !dbg !3101
  call void %7(%"class.xalanc_1_10::XalanXMLSerializerBase"* %this1, i16* %4, i16* %5), !dbg !3101
  br label %if.end

if.end:                                           ; preds = %if.else, %if.then
  ret void, !dbg !3102
}

; Function Attrs: noinline uwtable
define linkonce_odr dso_local zeroext i1 @_ZN11xalanc_1_106equalsEPKtjS1_j(i16* %theLHS, i32 %theLHSLength, i16* %theRHS, i32 %theRHSLength) #3 comdat !dbg !3103 {
entry:
  %theLHS.addr = alloca i16*, align 8
  %theLHSLength.addr = alloca i32, align 4
  %theRHS.addr = alloca i16*, align 8
  %theRHSLength.addr = alloca i32, align 4
  store i16* %theLHS, i16** %theLHS.addr, align 8
  call void @llvm.dbg.declare(metadata i16** %theLHS.addr, metadata !3104, metadata !DIExpression()), !dbg !3105
  store i32 %theLHSLength, i32* %theLHSLength.addr, align 4
  call void @llvm.dbg.declare(metadata i32* %theLHSLength.addr, metadata !3106, metadata !DIExpression()), !dbg !3107
  store i16* %theRHS, i16** %theRHS.addr, align 8
  call void @llvm.dbg.declare(metadata i16** %theRHS.addr, metadata !3108, metadata !DIExpression()), !dbg !3109
  store i32 %theRHSLength, i32* %theRHSLength.addr, align 4
  call void @llvm.dbg.declare(metadata i32* %theRHSLength.addr, metadata !3110, metadata !DIExpression()), !dbg !3111
  %0 = load i32, i32* %theLHSLength.addr, align 4, !dbg !3112
  %1 = load i32, i32* %theRHSLength.addr, align 4, !dbg !3113
  %cmp = icmp ne i32 %0, %1, !dbg !3114
  br i1 %cmp, label %cond.true, label %cond.false, !dbg !3112

cond.true:                                        ; preds = %entry
  br label %cond.end, !dbg !3112

cond.false:                                       ; preds = %entry
  %2 = load i16*, i16** %theLHS.addr, align 8, !dbg !3115
  %3 = load i16*, i16** %theRHS.addr, align 8, !dbg !3116
  %4 = load i32, i32* %theLHSLength.addr, align 4, !dbg !3117
  %call = call zeroext i1 @_ZN11xalanc_1_106equalsEPKtS1_j(i16* %2, i16* %3, i32 %4), !dbg !3118
  br label %cond.end, !dbg !3112

cond.end:                                         ; preds = %cond.false, %cond.true
  %cond = phi i1 [ false, %cond.true ], [ %call, %cond.false ], !dbg !3112
  ret i1 %cond, !dbg !3119
}

; Function Attrs: noinline nounwind uwtable
define linkonce_odr dso_local i32 @_ZN11xalanc_1_106lengthEPKt(i16* %theString) #1 comdat !dbg !3120 {
entry:
  %theString.addr = alloca i16*, align 8
  %theBufferPointer = alloca i16*, align 8
  store i16* %theString, i16** %theString.addr, align 8
  call void @llvm.dbg.declare(metadata i16** %theString.addr, metadata !3121, metadata !DIExpression()), !dbg !3122
  call void @llvm.dbg.declare(metadata i16** %theBufferPointer, metadata !3123, metadata !DIExpression()), !dbg !3124
  %0 = load i16*, i16** %theString.addr, align 8, !dbg !3125
  store i16* %0, i16** %theBufferPointer, align 8, !dbg !3124
  br label %while.cond, !dbg !3126

while.cond:                                       ; preds = %while.body, %entry
  %1 = load i16*, i16** %theBufferPointer, align 8, !dbg !3127
  %2 = load i16, i16* %1, align 2, !dbg !3128
  %conv = zext i16 %2 to i32, !dbg !3128
  %cmp = icmp ne i32 %conv, 0, !dbg !3129
  br i1 %cmp, label %while.body, label %while.end, !dbg !3126

while.body:                                       ; preds = %while.cond
  %3 = load i16*, i16** %theBufferPointer, align 8, !dbg !3130
  %incdec.ptr = getelementptr inbounds i16, i16* %3, i32 1, !dbg !3130
  store i16* %incdec.ptr, i16** %theBufferPointer, align 8, !dbg !3130
  br label %while.cond, !dbg !3126, !llvm.loop !3132

while.end:                                        ; preds = %while.cond
  %4 = load i16*, i16** %theBufferPointer, align 8, !dbg !3134
  %5 = load i16*, i16** %theString.addr, align 8, !dbg !3135
  %sub.ptr.lhs.cast = ptrtoint i16* %4 to i64, !dbg !3136
  %sub.ptr.rhs.cast = ptrtoint i16* %5 to i64, !dbg !3136
  %sub.ptr.sub = sub i64 %sub.ptr.lhs.cast, %sub.ptr.rhs.cast, !dbg !3136
  %sub.ptr.div = sdiv exact i64 %sub.ptr.sub, 2, !dbg !3136
  %conv1 = trunc i64 %sub.ptr.div to i32, !dbg !3134
  ret i32 %conv1, !dbg !3137
}

; Function Attrs: noinline uwtable
define dso_local void @_ZN11xalanc_1_1022XalanXMLSerializerBase19ignorableWhitespaceEPKtj(%"class.xalanc_1_10::XalanXMLSerializerBase"* %this, i16* %chars, i32 %length) unnamed_addr #3 align 2 !dbg !3138 {
entry:
  %this.addr = alloca %"class.xalanc_1_10::XalanXMLSerializerBase"*, align 8
  %chars.addr = alloca i16*, align 8
  %length.addr = alloca i32, align 4
  store %"class.xalanc_1_10::XalanXMLSerializerBase"* %this, %"class.xalanc_1_10::XalanXMLSerializerBase"** %this.addr, align 8
  call void @llvm.dbg.declare(metadata %"class.xalanc_1_10::XalanXMLSerializerBase"** %this.addr, metadata !3139, metadata !DIExpression()), !dbg !3140
  store i16* %chars, i16** %chars.addr, align 8
  call void @llvm.dbg.declare(metadata i16** %chars.addr, metadata !3141, metadata !DIExpression()), !dbg !3142
  store i32 %length, i32* %length.addr, align 4
  call void @llvm.dbg.declare(metadata i32* %length.addr, metadata !3143, metadata !DIExpression()), !dbg !3144
  %this1 = load %"class.xalanc_1_10::XalanXMLSerializerBase"*, %"class.xalanc_1_10::XalanXMLSerializerBase"** %this.addr, align 8
  %0 = load i32, i32* %length.addr, align 4, !dbg !3145
  %cmp = icmp ugt i32 %0, 0, !dbg !3147
  br i1 %cmp, label %if.then, label %if.end, !dbg !3148

if.then:                                          ; preds = %entry
  %1 = load i16*, i16** %chars.addr, align 8, !dbg !3149
  %2 = load i32, i32* %length.addr, align 4, !dbg !3151
  %3 = bitcast %"class.xalanc_1_10::XalanXMLSerializerBase"* %this1 to void (%"class.xalanc_1_10::XalanXMLSerializerBase"*, i16*, i32)***, !dbg !3152
  %vtable = load void (%"class.xalanc_1_10::XalanXMLSerializerBase"*, i16*, i32)**, void (%"class.xalanc_1_10::XalanXMLSerializerBase"*, i16*, i32)*** %3, align 8, !dbg !3152
  %vfn = getelementptr inbounds void (%"class.xalanc_1_10::XalanXMLSerializerBase"*, i16*, i32)*, void (%"class.xalanc_1_10::XalanXMLSerializerBase"*, i16*, i32)** %vtable, i64 2, !dbg !3152
  %4 = load void (%"class.xalanc_1_10::XalanXMLSerializerBase"*, i16*, i32)*, void (%"class.xalanc_1_10::XalanXMLSerializerBase"*, i16*, i32)** %vfn, align 8, !dbg !3152
  call void %4(%"class.xalanc_1_10::XalanXMLSerializerBase"* %this1, i16* %1, i32 %2), !dbg !3152
  br label %if.end, !dbg !3153

if.end:                                           ; preds = %if.then, %entry
  ret void, !dbg !3154
}

; Function Attrs: noinline nounwind uwtable
define dso_local dereferenceable(40) %"class.xalanc_1_10::XalanDOMString"* @_ZNK11xalanc_1_1022XalanXMLSerializerBase16getDoctypeSystemEv(%"class.xalanc_1_10::XalanXMLSerializerBase"* %this) unnamed_addr #1 align 2 !dbg !3155 {
entry:
  %this.addr = alloca %"class.xalanc_1_10::XalanXMLSerializerBase"*, align 8
  store %"class.xalanc_1_10::XalanXMLSerializerBase"* %this, %"class.xalanc_1_10::XalanXMLSerializerBase"** %this.addr, align 8
  call void @llvm.dbg.declare(metadata %"class.xalanc_1_10::XalanXMLSerializerBase"** %this.addr, metadata !3156, metadata !DIExpression()), !dbg !3158
  %this1 = load %"class.xalanc_1_10::XalanXMLSerializerBase"*, %"class.xalanc_1_10::XalanXMLSerializerBase"** %this.addr, align 8
  %m_doctypeSystem = getelementptr inbounds %"class.xalanc_1_10::XalanXMLSerializerBase", %"class.xalanc_1_10::XalanXMLSerializerBase"* %this1, i32 0, i32 4, !dbg !3159
  ret %"class.xalanc_1_10::XalanDOMString"* %m_doctypeSystem, !dbg !3160
}

; Function Attrs: noinline nounwind uwtable
define dso_local dereferenceable(40) %"class.xalanc_1_10::XalanDOMString"* @_ZNK11xalanc_1_1022XalanXMLSerializerBase16getDoctypePublicEv(%"class.xalanc_1_10::XalanXMLSerializerBase"* %this) unnamed_addr #1 align 2 !dbg !3161 {
entry:
  %this.addr = alloca %"class.xalanc_1_10::XalanXMLSerializerBase"*, align 8
  store %"class.xalanc_1_10::XalanXMLSerializerBase"* %this, %"class.xalanc_1_10::XalanXMLSerializerBase"** %this.addr, align 8
  call void @llvm.dbg.declare(metadata %"class.xalanc_1_10::XalanXMLSerializerBase"** %this.addr, metadata !3162, metadata !DIExpression()), !dbg !3163
  %this1 = load %"class.xalanc_1_10::XalanXMLSerializerBase"*, %"class.xalanc_1_10::XalanXMLSerializerBase"** %this.addr, align 8
  %m_doctypePublic = getelementptr inbounds %"class.xalanc_1_10::XalanXMLSerializerBase", %"class.xalanc_1_10::XalanXMLSerializerBase"* %this1, i32 0, i32 5, !dbg !3164
  ret %"class.xalanc_1_10::XalanDOMString"* %m_doctypePublic, !dbg !3165
}

; Function Attrs: noinline nounwind uwtable
define dso_local void @_ZN11xalanc_1_1022XalanXMLSerializerBase13resetDocumentEv(%"class.xalanc_1_10::XalanXMLSerializerBase"* %this) unnamed_addr #1 align 2 !dbg !3166 {
entry:
  %this.addr = alloca %"class.xalanc_1_10::XalanXMLSerializerBase"*, align 8
  store %"class.xalanc_1_10::XalanXMLSerializerBase"* %this, %"class.xalanc_1_10::XalanXMLSerializerBase"** %this.addr, align 8
  call void @llvm.dbg.declare(metadata %"class.xalanc_1_10::XalanXMLSerializerBase"** %this.addr, metadata !3167, metadata !DIExpression()), !dbg !3168
  %this1 = load %"class.xalanc_1_10::XalanXMLSerializerBase"*, %"class.xalanc_1_10::XalanXMLSerializerBase"** %this.addr, align 8
  ret void, !dbg !3169
}

; Function Attrs: noinline uwtable
define internal void @__cxx_global_var_init() #3 section ".text.startup" !dbg !3170 {
entry:
  %call = call dereferenceable(8) %"class.xercesc_2_7::MemoryManager"* @_ZN11xalanc_1_1012XalanMemMgrs14getDummyMemMgrEv(), !dbg !3171
  call void @_ZN11xalanc_1_1014XalanDOMStringC1ERN11xercesc_2_713MemoryManagerE(%"class.xalanc_1_10::XalanDOMString"* @_ZN11xalanc_1_10L17s_localUTF8StringE, %"class.xercesc_2_7::MemoryManager"* dereferenceable(8) %call), !dbg !3172
  %0 = call i32 @__cxa_atexit(void (i8*)* bitcast (void (%"class.xalanc_1_10::XalanDOMString"*)* @_ZN11xalanc_1_1014XalanDOMStringD2Ev to void (i8*)*), i8* bitcast (%"class.xalanc_1_10::XalanDOMString"* @_ZN11xalanc_1_10L17s_localUTF8StringE to i8*), i8* @__dso_handle) #7, !dbg !3172
  ret void, !dbg !3171
}

declare dso_local dereferenceable(8) %"class.xercesc_2_7::MemoryManager"* @_ZN11xalanc_1_1012XalanMemMgrs14getDummyMemMgrEv() #4

; Function Attrs: nounwind
declare dso_local i32 @__cxa_atexit(void (i8*)*, i8*, i8*) #7

; Function Attrs: noinline uwtable
define internal void @__cxx_global_var_init.2() #3 section ".text.startup" !dbg !3173 {
entry:
  %call = call dereferenceable(8) %"class.xercesc_2_7::MemoryManager"* @_ZN11xalanc_1_1012XalanMemMgrs14getDummyMemMgrEv(), !dbg !3174
  call void @_ZN11xalanc_1_1014XalanDOMStringC1ERN11xercesc_2_713MemoryManagerE(%"class.xalanc_1_10::XalanDOMString"* @_ZN11xalanc_1_10L18s_localUTF16StringE, %"class.xercesc_2_7::MemoryManager"* dereferenceable(8) %call), !dbg !3175
  %0 = call i32 @__cxa_atexit(void (i8*)* bitcast (void (%"class.xalanc_1_10::XalanDOMString"*)* @_ZN11xalanc_1_1014XalanDOMStringD2Ev to void (i8*)*), i8* bitcast (%"class.xalanc_1_10::XalanDOMString"* @_ZN11xalanc_1_10L18s_localUTF16StringE to i8*), i8* @__dso_handle) #7, !dbg !3175
  ret void, !dbg !3174
}

; Function Attrs: noinline uwtable
define internal void @__cxx_global_var_init.3() #3 section ".text.startup" !dbg !3176 {
entry:
  %call = call dereferenceable(8) %"class.xercesc_2_7::MemoryManager"* @_ZN11xalanc_1_1012XalanMemMgrs14getDummyMemMgrEv(), !dbg !3177
  call void @_ZN11xalanc_1_1014XalanDOMStringC1ERN11xercesc_2_713MemoryManagerE(%"class.xalanc_1_10::XalanDOMString"* @_ZN11xalanc_1_10L16s_local1_0StringE, %"class.xercesc_2_7::MemoryManager"* dereferenceable(8) %call), !dbg !3178
  %0 = call i32 @__cxa_atexit(void (i8*)* bitcast (void (%"class.xalanc_1_10::XalanDOMString"*)* @_ZN11xalanc_1_1014XalanDOMStringD2Ev to void (i8*)*), i8* bitcast (%"class.xalanc_1_10::XalanDOMString"* @_ZN11xalanc_1_10L16s_local1_0StringE to i8*), i8* @__dso_handle) #7, !dbg !3178
  ret void, !dbg !3177
}

; Function Attrs: noinline uwtable
define internal void @__cxx_global_var_init.4() #3 section ".text.startup" !dbg !3179 {
entry:
  %call = call dereferenceable(8) %"class.xercesc_2_7::MemoryManager"* @_ZN11xalanc_1_1012XalanMemMgrs14getDummyMemMgrEv(), !dbg !3180
  call void @_ZN11xalanc_1_1014XalanDOMStringC1ERN11xercesc_2_713MemoryManagerE(%"class.xalanc_1_10::XalanDOMString"* @_ZN11xalanc_1_10L16s_local1_1StringE, %"class.xercesc_2_7::MemoryManager"* dereferenceable(8) %call), !dbg !3181
  %0 = call i32 @__cxa_atexit(void (i8*)* bitcast (void (%"class.xalanc_1_10::XalanDOMString"*)* @_ZN11xalanc_1_1014XalanDOMStringD2Ev to void (i8*)*), i8* bitcast (%"class.xalanc_1_10::XalanDOMString"* @_ZN11xalanc_1_10L16s_local1_1StringE to i8*), i8* @__dso_handle) #7, !dbg !3181
  ret void, !dbg !3180
}

; Function Attrs: noinline uwtable
define dso_local void @_ZN11xalanc_1_1022XalanXMLSerializerBase10initializeERN11xercesc_2_713MemoryManagerE(%"class.xercesc_2_7::MemoryManager"* dereferenceable(8) %theManager) #3 align 2 personality i8* bitcast (i32 (...)* @__gxx_personality_v0 to i8*) !dbg !3182 {
entry:
  %theManager.addr = alloca %"class.xercesc_2_7::MemoryManager"*, align 8
  %theTmp = alloca %"class.xalanc_1_10::XalanDOMString", align 8
  %exn.slot = alloca i8*
  %ehselector.slot = alloca i32
  %theTmp1 = alloca %"class.xalanc_1_10::XalanDOMString", align 8
  %theTmp4 = alloca %"class.xalanc_1_10::XalanDOMString", align 8
  %theTmp7 = alloca %"class.xalanc_1_10::XalanDOMString", align 8
  store %"class.xercesc_2_7::MemoryManager"* %theManager, %"class.xercesc_2_7::MemoryManager"** %theManager.addr, align 8
  call void @llvm.dbg.declare(metadata %"class.xercesc_2_7::MemoryManager"** %theManager.addr, metadata !3183, metadata !DIExpression()), !dbg !3184
  call void @llvm.dbg.declare(metadata %"class.xalanc_1_10::XalanDOMString"* %theTmp, metadata !3185, metadata !DIExpression()), !dbg !3187
  %0 = load %"class.xercesc_2_7::MemoryManager"*, %"class.xercesc_2_7::MemoryManager"** %theManager.addr, align 8, !dbg !3188
  call void @_ZN11xalanc_1_1014XalanDOMStringC1EPKtRN11xercesc_2_713MemoryManagerEj(%"class.xalanc_1_10::XalanDOMString"* %theTmp, i16* getelementptr inbounds ([0 x i16], [0 x i16]* @_ZN11xalanc_1_1024XalanTranscodingServices12s_utf8StringE, i64 0, i64 0), %"class.xercesc_2_7::MemoryManager"* dereferenceable(8) %0, i32 -1), !dbg !3187
  invoke void @_ZN11xalanc_1_1014XalanDOMString4swapERS0_(%"class.xalanc_1_10::XalanDOMString"* @_ZN11xalanc_1_10L17s_localUTF8StringE, %"class.xalanc_1_10::XalanDOMString"* dereferenceable(40) %theTmp)
          to label %invoke.cont unwind label %lpad, !dbg !3189

invoke.cont:                                      ; preds = %entry
  call void @_ZN11xalanc_1_1014XalanDOMStringD2Ev(%"class.xalanc_1_10::XalanDOMString"* %theTmp) #7, !dbg !3190
  call void @llvm.dbg.declare(metadata %"class.xalanc_1_10::XalanDOMString"* %theTmp1, metadata !3191, metadata !DIExpression()), !dbg !3193
  %1 = load %"class.xercesc_2_7::MemoryManager"*, %"class.xercesc_2_7::MemoryManager"** %theManager.addr, align 8, !dbg !3194
  call void @_ZN11xalanc_1_1014XalanDOMStringC1EPKtRN11xercesc_2_713MemoryManagerEj(%"class.xalanc_1_10::XalanDOMString"* %theTmp1, i16* getelementptr inbounds ([0 x i16], [0 x i16]* @_ZN11xalanc_1_1024XalanTranscodingServices13s_utf16StringE, i64 0, i64 0), %"class.xercesc_2_7::MemoryManager"* dereferenceable(8) %1, i32 -1), !dbg !3193
  invoke void @_ZN11xalanc_1_1014XalanDOMString4swapERS0_(%"class.xalanc_1_10::XalanDOMString"* @_ZN11xalanc_1_10L18s_localUTF16StringE, %"class.xalanc_1_10::XalanDOMString"* dereferenceable(40) %theTmp1)
          to label %invoke.cont3 unwind label %lpad2, !dbg !3195

invoke.cont3:                                     ; preds = %invoke.cont
  call void @_ZN11xalanc_1_1014XalanDOMStringD2Ev(%"class.xalanc_1_10::XalanDOMString"* %theTmp1) #7, !dbg !3196
  call void @llvm.dbg.declare(metadata %"class.xalanc_1_10::XalanDOMString"* %theTmp4, metadata !3197, metadata !DIExpression()), !dbg !3199
  %2 = load %"class.xercesc_2_7::MemoryManager"*, %"class.xercesc_2_7::MemoryManager"** %theManager.addr, align 8, !dbg !3200
  call void @_ZN11xalanc_1_1014XalanDOMStringC1EPKtRN11xercesc_2_713MemoryManagerEj(%"class.xalanc_1_10::XalanDOMString"* %theTmp4, i16* getelementptr inbounds ([4 x i16], [4 x i16]* @_ZN11xalanc_1_1022XalanXMLSerializerBase5UTF1622s_defaultVersionStringE, i64 0, i64 0), %"class.xercesc_2_7::MemoryManager"* dereferenceable(8) %2, i32 -1), !dbg !3199
  invoke void @_ZN11xalanc_1_1014XalanDOMString4swapERS0_(%"class.xalanc_1_10::XalanDOMString"* @_ZN11xalanc_1_10L16s_local1_0StringE, %"class.xalanc_1_10::XalanDOMString"* dereferenceable(40) %theTmp4)
          to label %invoke.cont6 unwind label %lpad5, !dbg !3201

invoke.cont6:                                     ; preds = %invoke.cont3
  call void @_ZN11xalanc_1_1014XalanDOMStringD2Ev(%"class.xalanc_1_10::XalanDOMString"* %theTmp4) #7, !dbg !3202
  call void @llvm.dbg.declare(metadata %"class.xalanc_1_10::XalanDOMString"* %theTmp7, metadata !3203, metadata !DIExpression()), !dbg !3205
  %3 = load %"class.xercesc_2_7::MemoryManager"*, %"class.xercesc_2_7::MemoryManager"** %theManager.addr, align 8, !dbg !3206
  call void @_ZN11xalanc_1_1014XalanDOMStringC1EPKtRN11xercesc_2_713MemoryManagerEj(%"class.xalanc_1_10::XalanDOMString"* %theTmp7, i16* getelementptr inbounds ([4 x i16], [4 x i16]* @_ZN11xalanc_1_10L18s_1_1VersionStringE, i64 0, i64 0), %"class.xercesc_2_7::MemoryManager"* dereferenceable(8) %3, i32 -1), !dbg !3205
  invoke void @_ZN11xalanc_1_1014XalanDOMString4swapERS0_(%"class.xalanc_1_10::XalanDOMString"* @_ZN11xalanc_1_10L16s_local1_1StringE, %"class.xalanc_1_10::XalanDOMString"* dereferenceable(40) %theTmp7)
          to label %invoke.cont9 unwind label %lpad8, !dbg !3207

invoke.cont9:                                     ; preds = %invoke.cont6
  call void @_ZN11xalanc_1_1014XalanDOMStringD2Ev(%"class.xalanc_1_10::XalanDOMString"* %theTmp7) #7, !dbg !3208
  ret void, !dbg !3209

lpad:                                             ; preds = %entry
  %4 = landingpad { i8*, i32 }
          cleanup, !dbg !3210
  %5 = extractvalue { i8*, i32 } %4, 0, !dbg !3210
  store i8* %5, i8** %exn.slot, align 8, !dbg !3210
  %6 = extractvalue { i8*, i32 } %4, 1, !dbg !3210
  store i32 %6, i32* %ehselector.slot, align 4, !dbg !3210
  call void @_ZN11xalanc_1_1014XalanDOMStringD2Ev(%"class.xalanc_1_10::XalanDOMString"* %theTmp) #7, !dbg !3190
  br label %eh.resume, !dbg !3190

lpad2:                                            ; preds = %invoke.cont
  %7 = landingpad { i8*, i32 }
          cleanup, !dbg !3211
  %8 = extractvalue { i8*, i32 } %7, 0, !dbg !3211
  store i8* %8, i8** %exn.slot, align 8, !dbg !3211
  %9 = extractvalue { i8*, i32 } %7, 1, !dbg !3211
  store i32 %9, i32* %ehselector.slot, align 4, !dbg !3211
  call void @_ZN11xalanc_1_1014XalanDOMStringD2Ev(%"class.xalanc_1_10::XalanDOMString"* %theTmp1) #7, !dbg !3196
  br label %eh.resume, !dbg !3196

lpad5:                                            ; preds = %invoke.cont3
  %10 = landingpad { i8*, i32 }
          cleanup, !dbg !3212
  %11 = extractvalue { i8*, i32 } %10, 0, !dbg !3212
  store i8* %11, i8** %exn.slot, align 8, !dbg !3212
  %12 = extractvalue { i8*, i32 } %10, 1, !dbg !3212
  store i32 %12, i32* %ehselector.slot, align 4, !dbg !3212
  call void @_ZN11xalanc_1_1014XalanDOMStringD2Ev(%"class.xalanc_1_10::XalanDOMString"* %theTmp4) #7, !dbg !3202
  br label %eh.resume, !dbg !3202

lpad8:                                            ; preds = %invoke.cont6
  %13 = landingpad { i8*, i32 }
          cleanup, !dbg !3213
  %14 = extractvalue { i8*, i32 } %13, 0, !dbg !3213
  store i8* %14, i8** %exn.slot, align 8, !dbg !3213
  %15 = extractvalue { i8*, i32 } %13, 1, !dbg !3213
  store i32 %15, i32* %ehselector.slot, align 4, !dbg !3213
  call void @_ZN11xalanc_1_1014XalanDOMStringD2Ev(%"class.xalanc_1_10::XalanDOMString"* %theTmp7) #7, !dbg !3208
  br label %eh.resume, !dbg !3208

eh.resume:                                        ; preds = %lpad8, %lpad5, %lpad2, %lpad
  %exn = load i8*, i8** %exn.slot, align 8, !dbg !3190
  %sel = load i32, i32* %ehselector.slot, align 4, !dbg !3190
  %lpad.val = insertvalue { i8*, i32 } undef, i8* %exn, 0, !dbg !3190
  %lpad.val10 = insertvalue { i8*, i32 } %lpad.val, i32 %sel, 1, !dbg !3190
  resume { i8*, i32 } %lpad.val10, !dbg !3190
}

declare dso_local void @_ZN11xalanc_1_1014XalanDOMStringC1EPKtRN11xercesc_2_713MemoryManagerEj(%"class.xalanc_1_10::XalanDOMString"*, i16*, %"class.xercesc_2_7::MemoryManager"* dereferenceable(8), i32) unnamed_addr #4

; Function Attrs: noinline uwtable
define linkonce_odr dso_local void @_ZN11xalanc_1_1014XalanDOMString4swapERS0_(%"class.xalanc_1_10::XalanDOMString"* %this, %"class.xalanc_1_10::XalanDOMString"* dereferenceable(40) %theOther) #3 comdat align 2 !dbg !3214 {
entry:
  %this.addr = alloca %"class.xalanc_1_10::XalanDOMString"*, align 8
  %theOther.addr = alloca %"class.xalanc_1_10::XalanDOMString"*, align 8
  store %"class.xalanc_1_10::XalanDOMString"* %this, %"class.xalanc_1_10::XalanDOMString"** %this.addr, align 8
  call void @llvm.dbg.declare(metadata %"class.xalanc_1_10::XalanDOMString"** %this.addr, metadata !3215, metadata !DIExpression()), !dbg !3216
  store %"class.xalanc_1_10::XalanDOMString"* %theOther, %"class.xalanc_1_10::XalanDOMString"** %theOther.addr, align 8
  call void @llvm.dbg.declare(metadata %"class.xalanc_1_10::XalanDOMString"** %theOther.addr, metadata !3217, metadata !DIExpression()), !dbg !3218
  %this1 = load %"class.xalanc_1_10::XalanDOMString"*, %"class.xalanc_1_10::XalanDOMString"** %this.addr, align 8
  call void @_ZNK11xalanc_1_1014XalanDOMString10invariantsEv(%"class.xalanc_1_10::XalanDOMString"* %this1), !dbg !3219
  %m_data = getelementptr inbounds %"class.xalanc_1_10::XalanDOMString", %"class.xalanc_1_10::XalanDOMString"* %this1, i32 0, i32 0, !dbg !3220
  %0 = load %"class.xalanc_1_10::XalanDOMString"*, %"class.xalanc_1_10::XalanDOMString"** %theOther.addr, align 8, !dbg !3221
  %m_data2 = getelementptr inbounds %"class.xalanc_1_10::XalanDOMString", %"class.xalanc_1_10::XalanDOMString"* %0, i32 0, i32 0, !dbg !3222
  call void @_ZN11xalanc_1_1011XalanVectorItNS_31MemoryManagedConstructionTraitsItEEE4swapERS3_(%"class.xalanc_1_10::XalanVector"* %m_data, %"class.xalanc_1_10::XalanVector"* dereferenceable(32) %m_data2), !dbg !3223
  %m_size = getelementptr inbounds %"class.xalanc_1_10::XalanDOMString", %"class.xalanc_1_10::XalanDOMString"* %this1, i32 0, i32 1, !dbg !3224
  %1 = load %"class.xalanc_1_10::XalanDOMString"*, %"class.xalanc_1_10::XalanDOMString"** %theOther.addr, align 8, !dbg !3225
  %m_size3 = getelementptr inbounds %"class.xalanc_1_10::XalanDOMString", %"class.xalanc_1_10::XalanDOMString"* %1, i32 0, i32 1, !dbg !3226
  call void @_ZSt4swapIjENSt9enable_ifIXsr6__and_ISt6__not_ISt15__is_tuple_likeIT_EESt21is_move_constructibleIS3_ESt18is_move_assignableIS3_EEE5valueEvE4typeERS3_SC_(i32* dereferenceable(4) %m_size, i32* dereferenceable(4) %m_size3) #7, !dbg !3227
  ret void, !dbg !3228
}

; Function Attrs: noinline uwtable
define dso_local void @_ZN11xalanc_1_1022XalanXMLSerializerBase9terminateEv() #3 align 2 personality i8* bitcast (i32 (...)* @__gxx_personality_v0 to i8*) !dbg !3229 {
entry:
  %temp = alloca %"class.xalanc_1_10::XalanDOMString", align 8
  %exn.slot = alloca i8*
  %ehselector.slot = alloca i32
  %temp1 = alloca %"class.xalanc_1_10::XalanDOMString", align 8
  %temp5 = alloca %"class.xalanc_1_10::XalanDOMString", align 8
  %temp9 = alloca %"class.xalanc_1_10::XalanDOMString", align 8
  call void @llvm.dbg.declare(metadata %"class.xalanc_1_10::XalanDOMString"* %temp, metadata !3230, metadata !DIExpression()), !dbg !3232
  %call = call dereferenceable(8) %"class.xercesc_2_7::MemoryManager"* @_ZN11xalanc_1_1012XalanMemMgrs14getDummyMemMgrEv(), !dbg !3233
  call void @_ZN11xalanc_1_1014XalanDOMStringC1ERN11xercesc_2_713MemoryManagerE(%"class.xalanc_1_10::XalanDOMString"* %temp, %"class.xercesc_2_7::MemoryManager"* dereferenceable(8) %call), !dbg !3232
  invoke void @_ZN11xalanc_1_1014XalanDOMString4swapERS0_(%"class.xalanc_1_10::XalanDOMString"* %temp, %"class.xalanc_1_10::XalanDOMString"* dereferenceable(40) @_ZN11xalanc_1_10L17s_localUTF8StringE)
          to label %invoke.cont unwind label %lpad, !dbg !3234

invoke.cont:                                      ; preds = %entry
  call void @_ZN11xalanc_1_1014XalanDOMStringD2Ev(%"class.xalanc_1_10::XalanDOMString"* %temp) #7, !dbg !3235
  call void @llvm.dbg.declare(metadata %"class.xalanc_1_10::XalanDOMString"* %temp1, metadata !3236, metadata !DIExpression()), !dbg !3238
  %call2 = call dereferenceable(8) %"class.xercesc_2_7::MemoryManager"* @_ZN11xalanc_1_1012XalanMemMgrs14getDummyMemMgrEv(), !dbg !3239
  call void @_ZN11xalanc_1_1014XalanDOMStringC1ERN11xercesc_2_713MemoryManagerE(%"class.xalanc_1_10::XalanDOMString"* %temp1, %"class.xercesc_2_7::MemoryManager"* dereferenceable(8) %call2), !dbg !3238
  invoke void @_ZN11xalanc_1_1014XalanDOMString4swapERS0_(%"class.xalanc_1_10::XalanDOMString"* %temp1, %"class.xalanc_1_10::XalanDOMString"* dereferenceable(40) @_ZN11xalanc_1_10L18s_localUTF16StringE)
          to label %invoke.cont4 unwind label %lpad3, !dbg !3240

invoke.cont4:                                     ; preds = %invoke.cont
  call void @_ZN11xalanc_1_1014XalanDOMStringD2Ev(%"class.xalanc_1_10::XalanDOMString"* %temp1) #7, !dbg !3241
  call void @llvm.dbg.declare(metadata %"class.xalanc_1_10::XalanDOMString"* %temp5, metadata !3242, metadata !DIExpression()), !dbg !3244
  %call6 = call dereferenceable(8) %"class.xercesc_2_7::MemoryManager"* @_ZN11xalanc_1_1012XalanMemMgrs14getDummyMemMgrEv(), !dbg !3245
  call void @_ZN11xalanc_1_1014XalanDOMStringC1ERN11xercesc_2_713MemoryManagerE(%"class.xalanc_1_10::XalanDOMString"* %temp5, %"class.xercesc_2_7::MemoryManager"* dereferenceable(8) %call6), !dbg !3244
  invoke void @_ZN11xalanc_1_1014XalanDOMString4swapERS0_(%"class.xalanc_1_10::XalanDOMString"* %temp5, %"class.xalanc_1_10::XalanDOMString"* dereferenceable(40) @_ZN11xalanc_1_10L16s_local1_0StringE)
          to label %invoke.cont8 unwind label %lpad7, !dbg !3246

invoke.cont8:                                     ; preds = %invoke.cont4
  call void @_ZN11xalanc_1_1014XalanDOMStringD2Ev(%"class.xalanc_1_10::XalanDOMString"* %temp5) #7, !dbg !3247
  call void @llvm.dbg.declare(metadata %"class.xalanc_1_10::XalanDOMString"* %temp9, metadata !3248, metadata !DIExpression()), !dbg !3250
  %call10 = call dereferenceable(8) %"class.xercesc_2_7::MemoryManager"* @_ZN11xalanc_1_1012XalanMemMgrs14getDummyMemMgrEv(), !dbg !3251
  call void @_ZN11xalanc_1_1014XalanDOMStringC1ERN11xercesc_2_713MemoryManagerE(%"class.xalanc_1_10::XalanDOMString"* %temp9, %"class.xercesc_2_7::MemoryManager"* dereferenceable(8) %call10), !dbg !3250
  invoke void @_ZN11xalanc_1_1014XalanDOMString4swapERS0_(%"class.xalanc_1_10::XalanDOMString"* %temp9, %"class.xalanc_1_10::XalanDOMString"* dereferenceable(40) @_ZN11xalanc_1_10L16s_local1_1StringE)
          to label %invoke.cont12 unwind label %lpad11, !dbg !3252

invoke.cont12:                                    ; preds = %invoke.cont8
  call void @_ZN11xalanc_1_1014XalanDOMStringD2Ev(%"class.xalanc_1_10::XalanDOMString"* %temp9) #7, !dbg !3253
  ret void, !dbg !3254

lpad:                                             ; preds = %entry
  %0 = landingpad { i8*, i32 }
          cleanup, !dbg !3255
  %1 = extractvalue { i8*, i32 } %0, 0, !dbg !3255
  store i8* %1, i8** %exn.slot, align 8, !dbg !3255
  %2 = extractvalue { i8*, i32 } %0, 1, !dbg !3255
  store i32 %2, i32* %ehselector.slot, align 4, !dbg !3255
  call void @_ZN11xalanc_1_1014XalanDOMStringD2Ev(%"class.xalanc_1_10::XalanDOMString"* %temp) #7, !dbg !3235
  br label %eh.resume, !dbg !3235

lpad3:                                            ; preds = %invoke.cont
  %3 = landingpad { i8*, i32 }
          cleanup, !dbg !3256
  %4 = extractvalue { i8*, i32 } %3, 0, !dbg !3256
  store i8* %4, i8** %exn.slot, align 8, !dbg !3256
  %5 = extractvalue { i8*, i32 } %3, 1, !dbg !3256
  store i32 %5, i32* %ehselector.slot, align 4, !dbg !3256
  call void @_ZN11xalanc_1_1014XalanDOMStringD2Ev(%"class.xalanc_1_10::XalanDOMString"* %temp1) #7, !dbg !3241
  br label %eh.resume, !dbg !3241

lpad7:                                            ; preds = %invoke.cont4
  %6 = landingpad { i8*, i32 }
          cleanup, !dbg !3257
  %7 = extractvalue { i8*, i32 } %6, 0, !dbg !3257
  store i8* %7, i8** %exn.slot, align 8, !dbg !3257
  %8 = extractvalue { i8*, i32 } %6, 1, !dbg !3257
  store i32 %8, i32* %ehselector.slot, align 4, !dbg !3257
  call void @_ZN11xalanc_1_1014XalanDOMStringD2Ev(%"class.xalanc_1_10::XalanDOMString"* %temp5) #7, !dbg !3247
  br label %eh.resume, !dbg !3247

lpad11:                                           ; preds = %invoke.cont8
  %9 = landingpad { i8*, i32 }
          cleanup, !dbg !3258
  %10 = extractvalue { i8*, i32 } %9, 0, !dbg !3258
  store i8* %10, i8** %exn.slot, align 8, !dbg !3258
  %11 = extractvalue { i8*, i32 } %9, 1, !dbg !3258
  store i32 %11, i32* %ehselector.slot, align 4, !dbg !3258
  call void @_ZN11xalanc_1_1014XalanDOMStringD2Ev(%"class.xalanc_1_10::XalanDOMString"* %temp9) #7, !dbg !3253
  br label %eh.resume, !dbg !3253

eh.resume:                                        ; preds = %lpad11, %lpad7, %lpad3, %lpad
  %exn = load i8*, i8** %exn.slot, align 8, !dbg !3235
  %sel = load i32, i32* %ehselector.slot, align 4, !dbg !3235
  %lpad.val = insertvalue { i8*, i32 } undef, i8* %exn, 0, !dbg !3235
  %lpad.val13 = insertvalue { i8*, i32 } %lpad.val, i32 %sel, 1, !dbg !3235
  resume { i8*, i32 } %lpad.val13, !dbg !3235
}

declare dso_local void @__cxa_pure_virtual() unnamed_addr

declare dso_local %"class.xalanc_1_10::Writer"* @_ZNK11xalanc_1_1017FormatterListener9getWriterEv(%"class.xalanc_1_10::FormatterListener"*) unnamed_addr #4

declare dso_local dereferenceable(40) %"class.xalanc_1_10::XalanDOMString"* @_ZNK11xalanc_1_1017FormatterListener12getMediaTypeEv(%"class.xalanc_1_10::FormatterListener"*) unnamed_addr #4

declare dso_local i32 @_ZNK11xalanc_1_1017FormatterListener9getIndentEv(%"class.xalanc_1_10::FormatterListener"*) unnamed_addr #4

; Function Attrs: noinline nounwind uwtable
define linkonce_odr dso_local void @_ZNK11xalanc_1_1014XalanDOMString10invariantsEv(%"class.xalanc_1_10::XalanDOMString"* %this) #1 comdat align 2 !dbg !3259 {
entry:
  %this.addr = alloca %"class.xalanc_1_10::XalanDOMString"*, align 8
  store %"class.xalanc_1_10::XalanDOMString"* %this, %"class.xalanc_1_10::XalanDOMString"** %this.addr, align 8
  call void @llvm.dbg.declare(metadata %"class.xalanc_1_10::XalanDOMString"** %this.addr, metadata !3260, metadata !DIExpression()), !dbg !3261
  %this1 = load %"class.xalanc_1_10::XalanDOMString"*, %"class.xalanc_1_10::XalanDOMString"** %this.addr, align 8
  ret void, !dbg !3262
}

; Function Attrs: noinline nounwind uwtable
define linkonce_odr dso_local i32 @_ZNK11xalanc_1_1014XalanDOMString4sizeEv(%"class.xalanc_1_10::XalanDOMString"* %this) #1 comdat align 2 !dbg !3263 {
entry:
  %this.addr = alloca %"class.xalanc_1_10::XalanDOMString"*, align 8
  store %"class.xalanc_1_10::XalanDOMString"* %this, %"class.xalanc_1_10::XalanDOMString"** %this.addr, align 8
  call void @llvm.dbg.declare(metadata %"class.xalanc_1_10::XalanDOMString"** %this.addr, metadata !3264, metadata !DIExpression()), !dbg !3265
  %this1 = load %"class.xalanc_1_10::XalanDOMString"*, %"class.xalanc_1_10::XalanDOMString"** %this.addr, align 8
  call void @_ZNK11xalanc_1_1014XalanDOMString10invariantsEv(%"class.xalanc_1_10::XalanDOMString"* %this1), !dbg !3266
  %m_size = getelementptr inbounds %"class.xalanc_1_10::XalanDOMString", %"class.xalanc_1_10::XalanDOMString"* %this1, i32 0, i32 1, !dbg !3267
  %0 = load i32, i32* %m_size, align 8, !dbg !3267
  ret i32 %0, !dbg !3268
}

declare dso_local zeroext i1 @_ZN11xalanc_1_1010startsWithEPKtjS1_j(i16*, i32, i16*, i32) #4

; Function Attrs: noinline uwtable
define linkonce_odr dso_local i32 @_ZN11xalanc_1_106lengthERKNS_14XalanDOMStringE(%"class.xalanc_1_10::XalanDOMString"* dereferenceable(40) %theString) #3 comdat !dbg !3269 {
entry:
  %theString.addr = alloca %"class.xalanc_1_10::XalanDOMString"*, align 8
  store %"class.xalanc_1_10::XalanDOMString"* %theString, %"class.xalanc_1_10::XalanDOMString"** %theString.addr, align 8
  call void @llvm.dbg.declare(metadata %"class.xalanc_1_10::XalanDOMString"** %theString.addr, metadata !3272, metadata !DIExpression()), !dbg !3273
  %0 = load %"class.xalanc_1_10::XalanDOMString"*, %"class.xalanc_1_10::XalanDOMString"** %theString.addr, align 8, !dbg !3274
  %call = call i32 @_ZNK11xalanc_1_1014XalanDOMString6lengthEv(%"class.xalanc_1_10::XalanDOMString"* %0), !dbg !3275
  ret i32 %call, !dbg !3276
}

; Function Attrs: noinline nounwind uwtable
define linkonce_odr dso_local void @_ZN11xalanc_1_1011XalanVectorItNS_31MemoryManagedConstructionTraitsItEEED2Ev(%"class.xalanc_1_10::XalanVector"* %this) unnamed_addr #1 comdat align 2 personality i8* bitcast (i32 (...)* @__gxx_personality_v0 to i8*) !dbg !3277 {
entry:
  %this.addr = alloca %"class.xalanc_1_10::XalanVector"*, align 8
  store %"class.xalanc_1_10::XalanVector"* %this, %"class.xalanc_1_10::XalanVector"** %this.addr, align 8
  call void @llvm.dbg.declare(metadata %"class.xalanc_1_10::XalanVector"** %this.addr, metadata !3278, metadata !DIExpression()), !dbg !3279
  %this1 = load %"class.xalanc_1_10::XalanVector"*, %"class.xalanc_1_10::XalanVector"** %this.addr, align 8
  invoke void @_ZNK11xalanc_1_1011XalanVectorItNS_31MemoryManagedConstructionTraitsItEEE10invariantsEv(%"class.xalanc_1_10::XalanVector"* %this1)
          to label %invoke.cont unwind label %terminate.lpad, !dbg !3280

invoke.cont:                                      ; preds = %entry
  %m_allocation = getelementptr inbounds %"class.xalanc_1_10::XalanVector", %"class.xalanc_1_10::XalanVector"* %this1, i32 0, i32 2, !dbg !3282
  %0 = load i64, i64* %m_allocation, align 8, !dbg !3282
  %cmp = icmp ne i64 %0, 0, !dbg !3284
  br i1 %cmp, label %if.then, label %if.end, !dbg !3285

if.then:                                          ; preds = %invoke.cont
  %call = invoke i16* @_ZN11xalanc_1_1011XalanVectorItNS_31MemoryManagedConstructionTraitsItEEE5beginEv(%"class.xalanc_1_10::XalanVector"* %this1)
          to label %invoke.cont2 unwind label %terminate.lpad, !dbg !3286

invoke.cont2:                                     ; preds = %if.then
  %call4 = invoke i16* @_ZN11xalanc_1_1011XalanVectorItNS_31MemoryManagedConstructionTraitsItEEE3endEv(%"class.xalanc_1_10::XalanVector"* %this1)
          to label %invoke.cont3 unwind label %terminate.lpad, !dbg !3288

invoke.cont3:                                     ; preds = %invoke.cont2
  invoke void @_ZN11xalanc_1_1011XalanVectorItNS_31MemoryManagedConstructionTraitsItEEE7destroyEPtS4_(i16* %call, i16* %call4)
          to label %invoke.cont5 unwind label %terminate.lpad, !dbg !3289

invoke.cont5:                                     ; preds = %invoke.cont3
  %m_data = getelementptr inbounds %"class.xalanc_1_10::XalanVector", %"class.xalanc_1_10::XalanVector"* %this1, i32 0, i32 3, !dbg !3290
  %1 = load i16*, i16** %m_data, align 8, !dbg !3290
  invoke void @_ZN11xalanc_1_1011XalanVectorItNS_31MemoryManagedConstructionTraitsItEEE10deallocateEPt(%"class.xalanc_1_10::XalanVector"* %this1, i16* %1)
          to label %invoke.cont6 unwind label %terminate.lpad, !dbg !3291

invoke.cont6:                                     ; preds = %invoke.cont5
  br label %if.end, !dbg !3292

if.end:                                           ; preds = %invoke.cont6, %invoke.cont
  ret void, !dbg !3293

terminate.lpad:                                   ; preds = %invoke.cont5, %invoke.cont3, %invoke.cont2, %if.then, %entry
  %2 = landingpad { i8*, i32 }
          catch i8* null, !dbg !3280
  %3 = extractvalue { i8*, i32 } %2, 0, !dbg !3280
  call void @__clang_call_terminate(i8* %3) #11, !dbg !3280
  unreachable, !dbg !3280
}

; Function Attrs: noinline nounwind uwtable
define linkonce_odr dso_local void @_ZNK11xalanc_1_1011XalanVectorItNS_31MemoryManagedConstructionTraitsItEEE10invariantsEv(%"class.xalanc_1_10::XalanVector"* %this) #1 comdat align 2 !dbg !3294 {
entry:
  %this.addr = alloca %"class.xalanc_1_10::XalanVector"*, align 8
  store %"class.xalanc_1_10::XalanVector"* %this, %"class.xalanc_1_10::XalanVector"** %this.addr, align 8
  call void @llvm.dbg.declare(metadata %"class.xalanc_1_10::XalanVector"** %this.addr, metadata !3295, metadata !DIExpression()), !dbg !3297
  %this1 = load %"class.xalanc_1_10::XalanVector"*, %"class.xalanc_1_10::XalanVector"** %this.addr, align 8
  ret void, !dbg !3298
}

; Function Attrs: noinline noreturn nounwind
define linkonce_odr hidden void @__clang_call_terminate(i8* %0) #8 comdat {
  %2 = call i8* @__cxa_begin_catch(i8* %0) #7
  call void @_ZSt9terminatev() #11
  unreachable
}

declare dso_local i8* @__cxa_begin_catch(i8*)

declare dso_local void @_ZSt9terminatev()

; Function Attrs: noinline uwtable
define linkonce_odr dso_local void @_ZN11xalanc_1_1011XalanVectorItNS_31MemoryManagedConstructionTraitsItEEE7destroyEPtS4_(i16* %theFirst, i16* %theLast) #3 comdat align 2 !dbg !3299 {
entry:
  %theFirst.addr = alloca i16*, align 8
  %theLast.addr = alloca i16*, align 8
  store i16* %theFirst, i16** %theFirst.addr, align 8
  call void @llvm.dbg.declare(metadata i16** %theFirst.addr, metadata !3300, metadata !DIExpression()), !dbg !3301
  store i16* %theLast, i16** %theLast.addr, align 8
  call void @llvm.dbg.declare(metadata i16** %theLast.addr, metadata !3302, metadata !DIExpression()), !dbg !3303
  br label %for.cond, !dbg !3304

for.cond:                                         ; preds = %for.inc, %entry
  %0 = load i16*, i16** %theFirst.addr, align 8, !dbg !3305
  %1 = load i16*, i16** %theLast.addr, align 8, !dbg !3308
  %cmp = icmp ne i16* %0, %1, !dbg !3309
  br i1 %cmp, label %for.body, label %for.end, !dbg !3310

for.body:                                         ; preds = %for.cond
  %2 = load i16*, i16** %theFirst.addr, align 8, !dbg !3311
  call void @_ZN11xalanc_1_1011XalanVectorItNS_31MemoryManagedConstructionTraitsItEEE7destroyERt(i16* dereferenceable(2) %2), !dbg !3313
  br label %for.inc, !dbg !3314

for.inc:                                          ; preds = %for.body
  %3 = load i16*, i16** %theFirst.addr, align 8, !dbg !3315
  %incdec.ptr = getelementptr inbounds i16, i16* %3, i32 1, !dbg !3315
  store i16* %incdec.ptr, i16** %theFirst.addr, align 8, !dbg !3315
  br label %for.cond, !dbg !3316, !llvm.loop !3317

for.end:                                          ; preds = %for.cond
  ret void, !dbg !3319
}

; Function Attrs: noinline nounwind uwtable
define linkonce_odr dso_local i16* @_ZN11xalanc_1_1011XalanVectorItNS_31MemoryManagedConstructionTraitsItEEE5beginEv(%"class.xalanc_1_10::XalanVector"* %this) #1 comdat align 2 !dbg !3320 {
entry:
  %this.addr = alloca %"class.xalanc_1_10::XalanVector"*, align 8
  store %"class.xalanc_1_10::XalanVector"* %this, %"class.xalanc_1_10::XalanVector"** %this.addr, align 8
  call void @llvm.dbg.declare(metadata %"class.xalanc_1_10::XalanVector"** %this.addr, metadata !3321, metadata !DIExpression()), !dbg !3322
  %this1 = load %"class.xalanc_1_10::XalanVector"*, %"class.xalanc_1_10::XalanVector"** %this.addr, align 8
  call void @_ZNK11xalanc_1_1011XalanVectorItNS_31MemoryManagedConstructionTraitsItEEE10invariantsEv(%"class.xalanc_1_10::XalanVector"* %this1), !dbg !3323
  %m_data = getelementptr inbounds %"class.xalanc_1_10::XalanVector", %"class.xalanc_1_10::XalanVector"* %this1, i32 0, i32 3, !dbg !3324
  %0 = load i16*, i16** %m_data, align 8, !dbg !3324
  ret i16* %0, !dbg !3325
}

; Function Attrs: noinline uwtable
define linkonce_odr dso_local i16* @_ZN11xalanc_1_1011XalanVectorItNS_31MemoryManagedConstructionTraitsItEEE3endEv(%"class.xalanc_1_10::XalanVector"* %this) #3 comdat align 2 !dbg !3326 {
entry:
  %this.addr = alloca %"class.xalanc_1_10::XalanVector"*, align 8
  store %"class.xalanc_1_10::XalanVector"* %this, %"class.xalanc_1_10::XalanVector"** %this.addr, align 8
  call void @llvm.dbg.declare(metadata %"class.xalanc_1_10::XalanVector"** %this.addr, metadata !3327, metadata !DIExpression()), !dbg !3328
  %this1 = load %"class.xalanc_1_10::XalanVector"*, %"class.xalanc_1_10::XalanVector"** %this.addr, align 8
  call void @_ZNK11xalanc_1_1011XalanVectorItNS_31MemoryManagedConstructionTraitsItEEE10invariantsEv(%"class.xalanc_1_10::XalanVector"* %this1), !dbg !3329
  %call = call i16* @_ZN11xalanc_1_1011XalanVectorItNS_31MemoryManagedConstructionTraitsItEEE10endPointerEv(%"class.xalanc_1_10::XalanVector"* %this1), !dbg !3330
  ret i16* %call, !dbg !3331
}

; Function Attrs: noinline uwtable
define linkonce_odr dso_local void @_ZN11xalanc_1_1011XalanVectorItNS_31MemoryManagedConstructionTraitsItEEE10deallocateEPt(%"class.xalanc_1_10::XalanVector"* %this, i16* %pointer) #3 comdat align 2 !dbg !3332 {
entry:
  %this.addr = alloca %"class.xalanc_1_10::XalanVector"*, align 8
  %pointer.addr = alloca i16*, align 8
  store %"class.xalanc_1_10::XalanVector"* %this, %"class.xalanc_1_10::XalanVector"** %this.addr, align 8
  call void @llvm.dbg.declare(metadata %"class.xalanc_1_10::XalanVector"** %this.addr, metadata !3333, metadata !DIExpression()), !dbg !3334
  store i16* %pointer, i16** %pointer.addr, align 8
  call void @llvm.dbg.declare(metadata i16** %pointer.addr, metadata !3335, metadata !DIExpression()), !dbg !3336
  %this1 = load %"class.xalanc_1_10::XalanVector"*, %"class.xalanc_1_10::XalanVector"** %this.addr, align 8
  %m_memoryManager = getelementptr inbounds %"class.xalanc_1_10::XalanVector", %"class.xalanc_1_10::XalanVector"* %this1, i32 0, i32 0, !dbg !3337
  %0 = load %"class.xercesc_2_7::MemoryManager"*, %"class.xercesc_2_7::MemoryManager"** %m_memoryManager, align 8, !dbg !3337
  %1 = load i16*, i16** %pointer.addr, align 8, !dbg !3338
  %2 = bitcast i16* %1 to i8*, !dbg !3338
  %3 = bitcast %"class.xercesc_2_7::MemoryManager"* %0 to void (%"class.xercesc_2_7::MemoryManager"*, i8*)***, !dbg !3339
  %vtable = load void (%"class.xercesc_2_7::MemoryManager"*, i8*)**, void (%"class.xercesc_2_7::MemoryManager"*, i8*)*** %3, align 8, !dbg !3339
  %vfn = getelementptr inbounds void (%"class.xercesc_2_7::MemoryManager"*, i8*)*, void (%"class.xercesc_2_7::MemoryManager"*, i8*)** %vtable, i64 3, !dbg !3339
  %4 = load void (%"class.xercesc_2_7::MemoryManager"*, i8*)*, void (%"class.xercesc_2_7::MemoryManager"*, i8*)** %vfn, align 8, !dbg !3339
  call void %4(%"class.xercesc_2_7::MemoryManager"* %0, i8* %2), !dbg !3339
  ret void, !dbg !3340
}

; Function Attrs: noinline nounwind uwtable
define linkonce_odr dso_local void @_ZN11xalanc_1_1011XalanVectorItNS_31MemoryManagedConstructionTraitsItEEE7destroyERt(i16* dereferenceable(2) %theValue) #1 comdat align 2 !dbg !3341 {
entry:
  %theValue.addr = alloca i16*, align 8
  store i16* %theValue, i16** %theValue.addr, align 8
  call void @llvm.dbg.declare(metadata i16** %theValue.addr, metadata !3342, metadata !DIExpression()), !dbg !3343
  %0 = load i16*, i16** %theValue.addr, align 8, !dbg !3344
  ret void, !dbg !3345
}

; Function Attrs: noinline nounwind uwtable
define linkonce_odr dso_local i16* @_ZN11xalanc_1_1011XalanVectorItNS_31MemoryManagedConstructionTraitsItEEE10endPointerEv(%"class.xalanc_1_10::XalanVector"* %this) #1 comdat align 2 !dbg !3346 {
entry:
  %this.addr = alloca %"class.xalanc_1_10::XalanVector"*, align 8
  store %"class.xalanc_1_10::XalanVector"* %this, %"class.xalanc_1_10::XalanVector"** %this.addr, align 8
  call void @llvm.dbg.declare(metadata %"class.xalanc_1_10::XalanVector"** %this.addr, metadata !3347, metadata !DIExpression()), !dbg !3348
  %this1 = load %"class.xalanc_1_10::XalanVector"*, %"class.xalanc_1_10::XalanVector"** %this.addr, align 8
  %m_data = getelementptr inbounds %"class.xalanc_1_10::XalanVector", %"class.xalanc_1_10::XalanVector"* %this1, i32 0, i32 3, !dbg !3349
  %0 = load i16*, i16** %m_data, align 8, !dbg !3349
  %m_size = getelementptr inbounds %"class.xalanc_1_10::XalanVector", %"class.xalanc_1_10::XalanVector"* %this1, i32 0, i32 1, !dbg !3350
  %1 = load i64, i64* %m_size, align 8, !dbg !3350
  %add.ptr = getelementptr inbounds i16, i16* %0, i64 %1, !dbg !3351
  ret i16* %add.ptr, !dbg !3352
}

; Function Attrs: noinline nounwind uwtable
define linkonce_odr dso_local void @_ZN11xercesc_2_77XMemoryC2Ev(%"class.xercesc_2_7::XMemory"* %this) unnamed_addr #1 comdat align 2 !dbg !3353 {
entry:
  %this.addr = alloca %"class.xercesc_2_7::XMemory"*, align 8
  store %"class.xercesc_2_7::XMemory"* %this, %"class.xercesc_2_7::XMemory"** %this.addr, align 8
  call void @llvm.dbg.declare(metadata %"class.xercesc_2_7::XMemory"** %this.addr, metadata !3354, metadata !DIExpression()), !dbg !3356
  %this1 = load %"class.xercesc_2_7::XMemory"*, %"class.xercesc_2_7::XMemory"** %this.addr, align 8
  ret void, !dbg !3357
}

; Function Attrs: noinline uwtable
define linkonce_odr dso_local i16* @_ZN11xercesc_2_79XMLString9replicateEPKtPNS_13MemoryManagerE(i16* %toRep, %"class.xercesc_2_7::MemoryManager"* %manager) #3 comdat align 2 !dbg !3358 {
entry:
  %toRep.addr = alloca i16*, align 8
  %manager.addr = alloca %"class.xercesc_2_7::MemoryManager"*, align 8
  %ret = alloca i16*, align 8
  %len = alloca i32, align 4
  store i16* %toRep, i16** %toRep.addr, align 8
  call void @llvm.dbg.declare(metadata i16** %toRep.addr, metadata !3674, metadata !DIExpression()), !dbg !3675
  store %"class.xercesc_2_7::MemoryManager"* %manager, %"class.xercesc_2_7::MemoryManager"** %manager.addr, align 8
  call void @llvm.dbg.declare(metadata %"class.xercesc_2_7::MemoryManager"** %manager.addr, metadata !3676, metadata !DIExpression()), !dbg !3677
  call void @llvm.dbg.declare(metadata i16** %ret, metadata !3678, metadata !DIExpression()), !dbg !3679
  store i16* null, i16** %ret, align 8, !dbg !3679
  %0 = load i16*, i16** %toRep.addr, align 8, !dbg !3680
  %tobool = icmp ne i16* %0, null, !dbg !3680
  br i1 %tobool, label %if.then, label %if.end, !dbg !3682

if.then:                                          ; preds = %entry
  call void @llvm.dbg.declare(metadata i32* %len, metadata !3683, metadata !DIExpression()), !dbg !3685
  %1 = load i16*, i16** %toRep.addr, align 8, !dbg !3686
  %call = call i32 @_ZN11xercesc_2_79XMLString9stringLenEPKt(i16* %1), !dbg !3687
  store i32 %call, i32* %len, align 4, !dbg !3685
  %2 = load %"class.xercesc_2_7::MemoryManager"*, %"class.xercesc_2_7::MemoryManager"** %manager.addr, align 8, !dbg !3688
  %3 = load i32, i32* %len, align 4, !dbg !3689
  %add = add i32 %3, 1, !dbg !3690
  %conv = zext i32 %add to i64, !dbg !3691
  %mul = mul i64 %conv, 2, !dbg !3692
  %4 = bitcast %"class.xercesc_2_7::MemoryManager"* %2 to i8* (%"class.xercesc_2_7::MemoryManager"*, i64)***, !dbg !3693
  %vtable = load i8* (%"class.xercesc_2_7::MemoryManager"*, i64)**, i8* (%"class.xercesc_2_7::MemoryManager"*, i64)*** %4, align 8, !dbg !3693
  %vfn = getelementptr inbounds i8* (%"class.xercesc_2_7::MemoryManager"*, i64)*, i8* (%"class.xercesc_2_7::MemoryManager"*, i64)** %vtable, i64 2, !dbg !3693
  %5 = load i8* (%"class.xercesc_2_7::MemoryManager"*, i64)*, i8* (%"class.xercesc_2_7::MemoryManager"*, i64)** %vfn, align 8, !dbg !3693
  %call1 = call i8* %5(%"class.xercesc_2_7::MemoryManager"* %2, i64 %mul), !dbg !3693
  %6 = bitcast i8* %call1 to i16*, !dbg !3694
  store i16* %6, i16** %ret, align 8, !dbg !3695
  %7 = load i16*, i16** %ret, align 8, !dbg !3696
  %8 = bitcast i16* %7 to i8*, !dbg !3697
  %9 = load i16*, i16** %toRep.addr, align 8, !dbg !3698
  %10 = bitcast i16* %9 to i8*, !dbg !3697
  %11 = load i32, i32* %len, align 4, !dbg !3699
  %add2 = add i32 %11, 1, !dbg !3700
  %conv3 = zext i32 %add2 to i64, !dbg !3701
  %mul4 = mul i64 %conv3, 2, !dbg !3702
  call void @llvm.memcpy.p0i8.p0i8.i64(i8* align 2 %8, i8* align 2 %10, i64 %mul4, i1 false), !dbg !3697
  br label %if.end, !dbg !3703

if.end:                                           ; preds = %if.then, %entry
  %12 = load i16*, i16** %ret, align 8, !dbg !3704
  ret i16* %12, !dbg !3705
}

; Function Attrs: noinline nounwind uwtable
define linkonce_odr dso_local void @_ZN11xercesc_2_712SAXExceptionD0Ev(%"class.xercesc_2_7::SAXException"* %this) unnamed_addr #1 comdat align 2 !dbg !3706 {
entry:
  %this.addr = alloca %"class.xercesc_2_7::SAXException"*, align 8
  store %"class.xercesc_2_7::SAXException"* %this, %"class.xercesc_2_7::SAXException"** %this.addr, align 8
  call void @llvm.dbg.declare(metadata %"class.xercesc_2_7::SAXException"** %this.addr, metadata !3707, metadata !DIExpression()), !dbg !3708
  %this1 = load %"class.xercesc_2_7::SAXException"*, %"class.xercesc_2_7::SAXException"** %this.addr, align 8
  call void @_ZN11xercesc_2_712SAXExceptionD2Ev(%"class.xercesc_2_7::SAXException"* %this1) #7, !dbg !3709
  %0 = bitcast %"class.xercesc_2_7::SAXException"* %this1 to i8*, !dbg !3709
  call void @_ZN11xercesc_2_77XMemorydlEPv(i8* %0) #7, !dbg !3709
  ret void, !dbg !3710
}

; Function Attrs: noinline nounwind uwtable
define linkonce_odr dso_local i16* @_ZNK11xercesc_2_712SAXException10getMessageEv(%"class.xercesc_2_7::SAXException"* %this) unnamed_addr #1 comdat align 2 !dbg !3711 {
entry:
  %this.addr = alloca %"class.xercesc_2_7::SAXException"*, align 8
  store %"class.xercesc_2_7::SAXException"* %this, %"class.xercesc_2_7::SAXException"** %this.addr, align 8
  call void @llvm.dbg.declare(metadata %"class.xercesc_2_7::SAXException"** %this.addr, metadata !3712, metadata !DIExpression()), !dbg !3714
  %this1 = load %"class.xercesc_2_7::SAXException"*, %"class.xercesc_2_7::SAXException"** %this.addr, align 8
  %fMsg = getelementptr inbounds %"class.xercesc_2_7::SAXException", %"class.xercesc_2_7::SAXException"* %this1, i32 0, i32 1, !dbg !3715
  %0 = load i16*, i16** %fMsg, align 8, !dbg !3715
  ret i16* %0, !dbg !3716
}

; Function Attrs: noinline nounwind uwtable
define linkonce_odr dso_local i32 @_ZN11xercesc_2_79XMLString9stringLenEPKt(i16* %src) #1 comdat align 2 !dbg !3717 {
entry:
  %retval = alloca i32, align 4
  %src.addr = alloca i16*, align 8
  %pszTmp = alloca i16*, align 8
  store i16* %src, i16** %src.addr, align 8
  call void @llvm.dbg.declare(metadata i16** %src.addr, metadata !3718, metadata !DIExpression()), !dbg !3719
  %0 = load i16*, i16** %src.addr, align 8, !dbg !3720
  %cmp = icmp eq i16* %0, null, !dbg !3722
  br i1 %cmp, label %if.then, label %lor.lhs.false, !dbg !3723

lor.lhs.false:                                    ; preds = %entry
  %1 = load i16*, i16** %src.addr, align 8, !dbg !3724
  %2 = load i16, i16* %1, align 2, !dbg !3725
  %conv = zext i16 %2 to i32, !dbg !3725
  %cmp1 = icmp eq i32 %conv, 0, !dbg !3726
  br i1 %cmp1, label %if.then, label %if.else, !dbg !3727

if.then:                                          ; preds = %lor.lhs.false, %entry
  store i32 0, i32* %retval, align 4, !dbg !3728
  br label %return, !dbg !3728

if.else:                                          ; preds = %lor.lhs.false
  call void @llvm.dbg.declare(metadata i16** %pszTmp, metadata !3730, metadata !DIExpression()), !dbg !3732
  %3 = load i16*, i16** %src.addr, align 8, !dbg !3733
  %add.ptr = getelementptr inbounds i16, i16* %3, i64 1, !dbg !3734
  store i16* %add.ptr, i16** %pszTmp, align 8, !dbg !3732
  br label %while.cond, !dbg !3735

while.cond:                                       ; preds = %while.body, %if.else
  %4 = load i16*, i16** %pszTmp, align 8, !dbg !3736
  %5 = load i16, i16* %4, align 2, !dbg !3737
  %tobool = icmp ne i16 %5, 0, !dbg !3737
  br i1 %tobool, label %while.body, label %while.end, !dbg !3735

while.body:                                       ; preds = %while.cond
  %6 = load i16*, i16** %pszTmp, align 8, !dbg !3738
  %incdec.ptr = getelementptr inbounds i16, i16* %6, i32 1, !dbg !3738
  store i16* %incdec.ptr, i16** %pszTmp, align 8, !dbg !3738
  br label %while.cond, !dbg !3735, !llvm.loop !3739

while.end:                                        ; preds = %while.cond
  %7 = load i16*, i16** %pszTmp, align 8, !dbg !3741
  %8 = load i16*, i16** %src.addr, align 8, !dbg !3742
  %sub.ptr.lhs.cast = ptrtoint i16* %7 to i64, !dbg !3743
  %sub.ptr.rhs.cast = ptrtoint i16* %8 to i64, !dbg !3743
  %sub.ptr.sub = sub i64 %sub.ptr.lhs.cast, %sub.ptr.rhs.cast, !dbg !3743
  %sub.ptr.div = sdiv exact i64 %sub.ptr.sub, 2, !dbg !3743
  %conv2 = trunc i64 %sub.ptr.div to i32, !dbg !3744
  store i32 %conv2, i32* %retval, align 4, !dbg !3745
  br label %return, !dbg !3745

return:                                           ; preds = %while.end, %if.then
  %9 = load i32, i32* %retval, align 4, !dbg !3746
  ret i32 %9, !dbg !3746
}

; Function Attrs: argmemonly nounwind willreturn
declare void @llvm.memcpy.p0i8.p0i8.i64(i8* noalias nocapture writeonly, i8* noalias nocapture readonly, i64, i1 immarg) #9

; Function Attrs: nounwind
declare dso_local void @_ZN11xercesc_2_77XMemorydlEPv(i8*) #5

; Function Attrs: noinline nounwind uwtable
define linkonce_odr dso_local zeroext i1 @_ZNK11xalanc_1_1011XalanVectorItNS_31MemoryManagedConstructionTraitsItEEE5emptyEv(%"class.xalanc_1_10::XalanVector"* %this) #1 comdat align 2 !dbg !3747 {
entry:
  %this.addr = alloca %"class.xalanc_1_10::XalanVector"*, align 8
  store %"class.xalanc_1_10::XalanVector"* %this, %"class.xalanc_1_10::XalanVector"** %this.addr, align 8
  call void @llvm.dbg.declare(metadata %"class.xalanc_1_10::XalanVector"** %this.addr, metadata !3748, metadata !DIExpression()), !dbg !3749
  %this1 = load %"class.xalanc_1_10::XalanVector"*, %"class.xalanc_1_10::XalanVector"** %this.addr, align 8
  call void @_ZNK11xalanc_1_1011XalanVectorItNS_31MemoryManagedConstructionTraitsItEEE10invariantsEv(%"class.xalanc_1_10::XalanVector"* %this1), !dbg !3750
  %m_size = getelementptr inbounds %"class.xalanc_1_10::XalanVector", %"class.xalanc_1_10::XalanVector"* %this1, i32 0, i32 1, !dbg !3751
  %0 = load i64, i64* %m_size, align 8, !dbg !3751
  %cmp = icmp eq i64 %0, 0, !dbg !3752
  %1 = zext i1 %cmp to i64, !dbg !3751
  %cond = select i1 %cmp, i1 true, i1 false, !dbg !3751
  ret i1 %cond, !dbg !3753
}

; Function Attrs: noinline nounwind uwtable
define linkonce_odr dso_local dereferenceable(2) i16* @_ZNK11xalanc_1_1011XalanVectorItNS_31MemoryManagedConstructionTraitsItEEEixEm(%"class.xalanc_1_10::XalanVector"* %this, i64 %theIndex) #1 comdat align 2 !dbg !3754 {
entry:
  %this.addr = alloca %"class.xalanc_1_10::XalanVector"*, align 8
  %theIndex.addr = alloca i64, align 8
  store %"class.xalanc_1_10::XalanVector"* %this, %"class.xalanc_1_10::XalanVector"** %this.addr, align 8
  call void @llvm.dbg.declare(metadata %"class.xalanc_1_10::XalanVector"** %this.addr, metadata !3755, metadata !DIExpression()), !dbg !3756
  store i64 %theIndex, i64* %theIndex.addr, align 8
  call void @llvm.dbg.declare(metadata i64* %theIndex.addr, metadata !3757, metadata !DIExpression()), !dbg !3758
  %this1 = load %"class.xalanc_1_10::XalanVector"*, %"class.xalanc_1_10::XalanVector"** %this.addr, align 8
  %m_data = getelementptr inbounds %"class.xalanc_1_10::XalanVector", %"class.xalanc_1_10::XalanVector"* %this1, i32 0, i32 3, !dbg !3759
  %0 = load i16*, i16** %m_data, align 8, !dbg !3759
  %1 = load i64, i64* %theIndex.addr, align 8, !dbg !3760
  %arrayidx = getelementptr inbounds i16, i16* %0, i64 %1, !dbg !3759
  ret i16* %arrayidx, !dbg !3761
}

declare dso_local zeroext i1 @_ZN11xalanc_1_106equalsEPKtS1_j(i16*, i16*, i32) #4

; Function Attrs: noinline nounwind uwtable
define linkonce_odr dso_local void @_ZN11xalanc_1_1011XalanVectorItNS_31MemoryManagedConstructionTraitsItEEE4swapERS3_(%"class.xalanc_1_10::XalanVector"* %this, %"class.xalanc_1_10::XalanVector"* dereferenceable(32) %theOther) #1 comdat align 2 !dbg !3762 {
entry:
  %this.addr = alloca %"class.xalanc_1_10::XalanVector"*, align 8
  %theOther.addr = alloca %"class.xalanc_1_10::XalanVector"*, align 8
  %theTempManager = alloca %"class.xercesc_2_7::MemoryManager"*, align 8
  %theTempLength = alloca i64, align 8
  %theTempAllocation = alloca i64, align 8
  %theTempData = alloca i16*, align 8
  store %"class.xalanc_1_10::XalanVector"* %this, %"class.xalanc_1_10::XalanVector"** %this.addr, align 8
  call void @llvm.dbg.declare(metadata %"class.xalanc_1_10::XalanVector"** %this.addr, metadata !3763, metadata !DIExpression()), !dbg !3764
  store %"class.xalanc_1_10::XalanVector"* %theOther, %"class.xalanc_1_10::XalanVector"** %theOther.addr, align 8
  call void @llvm.dbg.declare(metadata %"class.xalanc_1_10::XalanVector"** %theOther.addr, metadata !3765, metadata !DIExpression()), !dbg !3766
  %this1 = load %"class.xalanc_1_10::XalanVector"*, %"class.xalanc_1_10::XalanVector"** %this.addr, align 8
  call void @_ZNK11xalanc_1_1011XalanVectorItNS_31MemoryManagedConstructionTraitsItEEE10invariantsEv(%"class.xalanc_1_10::XalanVector"* %this1), !dbg !3767
  call void @llvm.dbg.declare(metadata %"class.xercesc_2_7::MemoryManager"** %theTempManager, metadata !3768, metadata !DIExpression()), !dbg !3769
  %m_memoryManager = getelementptr inbounds %"class.xalanc_1_10::XalanVector", %"class.xalanc_1_10::XalanVector"* %this1, i32 0, i32 0, !dbg !3770
  %0 = load %"class.xercesc_2_7::MemoryManager"*, %"class.xercesc_2_7::MemoryManager"** %m_memoryManager, align 8, !dbg !3770
  store %"class.xercesc_2_7::MemoryManager"* %0, %"class.xercesc_2_7::MemoryManager"** %theTempManager, align 8, !dbg !3769
  call void @llvm.dbg.declare(metadata i64* %theTempLength, metadata !3771, metadata !DIExpression()), !dbg !3773
  %m_size = getelementptr inbounds %"class.xalanc_1_10::XalanVector", %"class.xalanc_1_10::XalanVector"* %this1, i32 0, i32 1, !dbg !3774
  %1 = load i64, i64* %m_size, align 8, !dbg !3774
  store i64 %1, i64* %theTempLength, align 8, !dbg !3773
  call void @llvm.dbg.declare(metadata i64* %theTempAllocation, metadata !3775, metadata !DIExpression()), !dbg !3776
  %m_allocation = getelementptr inbounds %"class.xalanc_1_10::XalanVector", %"class.xalanc_1_10::XalanVector"* %this1, i32 0, i32 2, !dbg !3777
  %2 = load i64, i64* %m_allocation, align 8, !dbg !3777
  store i64 %2, i64* %theTempAllocation, align 8, !dbg !3776
  call void @llvm.dbg.declare(metadata i16** %theTempData, metadata !3778, metadata !DIExpression()), !dbg !3780
  %m_data = getelementptr inbounds %"class.xalanc_1_10::XalanVector", %"class.xalanc_1_10::XalanVector"* %this1, i32 0, i32 3, !dbg !3781
  %3 = load i16*, i16** %m_data, align 8, !dbg !3781
  store i16* %3, i16** %theTempData, align 8, !dbg !3780
  %4 = load %"class.xalanc_1_10::XalanVector"*, %"class.xalanc_1_10::XalanVector"** %theOther.addr, align 8, !dbg !3782
  %m_memoryManager2 = getelementptr inbounds %"class.xalanc_1_10::XalanVector", %"class.xalanc_1_10::XalanVector"* %4, i32 0, i32 0, !dbg !3783
  %5 = load %"class.xercesc_2_7::MemoryManager"*, %"class.xercesc_2_7::MemoryManager"** %m_memoryManager2, align 8, !dbg !3783
  %m_memoryManager3 = getelementptr inbounds %"class.xalanc_1_10::XalanVector", %"class.xalanc_1_10::XalanVector"* %this1, i32 0, i32 0, !dbg !3784
  store %"class.xercesc_2_7::MemoryManager"* %5, %"class.xercesc_2_7::MemoryManager"** %m_memoryManager3, align 8, !dbg !3785
  %6 = load %"class.xalanc_1_10::XalanVector"*, %"class.xalanc_1_10::XalanVector"** %theOther.addr, align 8, !dbg !3786
  %m_size4 = getelementptr inbounds %"class.xalanc_1_10::XalanVector", %"class.xalanc_1_10::XalanVector"* %6, i32 0, i32 1, !dbg !3787
  %7 = load i64, i64* %m_size4, align 8, !dbg !3787
  %m_size5 = getelementptr inbounds %"class.xalanc_1_10::XalanVector", %"class.xalanc_1_10::XalanVector"* %this1, i32 0, i32 1, !dbg !3788
  store i64 %7, i64* %m_size5, align 8, !dbg !3789
  %8 = load %"class.xalanc_1_10::XalanVector"*, %"class.xalanc_1_10::XalanVector"** %theOther.addr, align 8, !dbg !3790
  %m_allocation6 = getelementptr inbounds %"class.xalanc_1_10::XalanVector", %"class.xalanc_1_10::XalanVector"* %8, i32 0, i32 2, !dbg !3791
  %9 = load i64, i64* %m_allocation6, align 8, !dbg !3791
  %m_allocation7 = getelementptr inbounds %"class.xalanc_1_10::XalanVector", %"class.xalanc_1_10::XalanVector"* %this1, i32 0, i32 2, !dbg !3792
  store i64 %9, i64* %m_allocation7, align 8, !dbg !3793
  %10 = load %"class.xalanc_1_10::XalanVector"*, %"class.xalanc_1_10::XalanVector"** %theOther.addr, align 8, !dbg !3794
  %m_data8 = getelementptr inbounds %"class.xalanc_1_10::XalanVector", %"class.xalanc_1_10::XalanVector"* %10, i32 0, i32 3, !dbg !3795
  %11 = load i16*, i16** %m_data8, align 8, !dbg !3795
  %m_data9 = getelementptr inbounds %"class.xalanc_1_10::XalanVector", %"class.xalanc_1_10::XalanVector"* %this1, i32 0, i32 3, !dbg !3796
  store i16* %11, i16** %m_data9, align 8, !dbg !3797
  %12 = load %"class.xercesc_2_7::MemoryManager"*, %"class.xercesc_2_7::MemoryManager"** %theTempManager, align 8, !dbg !3798
  %13 = load %"class.xalanc_1_10::XalanVector"*, %"class.xalanc_1_10::XalanVector"** %theOther.addr, align 8, !dbg !3799
  %m_memoryManager10 = getelementptr inbounds %"class.xalanc_1_10::XalanVector", %"class.xalanc_1_10::XalanVector"* %13, i32 0, i32 0, !dbg !3800
  store %"class.xercesc_2_7::MemoryManager"* %12, %"class.xercesc_2_7::MemoryManager"** %m_memoryManager10, align 8, !dbg !3801
  %14 = load i64, i64* %theTempLength, align 8, !dbg !3802
  %15 = load %"class.xalanc_1_10::XalanVector"*, %"class.xalanc_1_10::XalanVector"** %theOther.addr, align 8, !dbg !3803
  %m_size11 = getelementptr inbounds %"class.xalanc_1_10::XalanVector", %"class.xalanc_1_10::XalanVector"* %15, i32 0, i32 1, !dbg !3804
  store i64 %14, i64* %m_size11, align 8, !dbg !3805
  %16 = load i64, i64* %theTempAllocation, align 8, !dbg !3806
  %17 = load %"class.xalanc_1_10::XalanVector"*, %"class.xalanc_1_10::XalanVector"** %theOther.addr, align 8, !dbg !3807
  %m_allocation12 = getelementptr inbounds %"class.xalanc_1_10::XalanVector", %"class.xalanc_1_10::XalanVector"* %17, i32 0, i32 2, !dbg !3808
  store i64 %16, i64* %m_allocation12, align 8, !dbg !3809
  %18 = load i16*, i16** %theTempData, align 8, !dbg !3810
  %19 = load %"class.xalanc_1_10::XalanVector"*, %"class.xalanc_1_10::XalanVector"** %theOther.addr, align 8, !dbg !3811
  %m_data13 = getelementptr inbounds %"class.xalanc_1_10::XalanVector", %"class.xalanc_1_10::XalanVector"* %19, i32 0, i32 3, !dbg !3812
  store i16* %18, i16** %m_data13, align 8, !dbg !3813
  call void @_ZNK11xalanc_1_1011XalanVectorItNS_31MemoryManagedConstructionTraitsItEEE10invariantsEv(%"class.xalanc_1_10::XalanVector"* %this1), !dbg !3814
  ret void, !dbg !3815
}

; Function Attrs: noinline nounwind uwtable
define linkonce_odr dso_local void @_ZSt4swapIjENSt9enable_ifIXsr6__and_ISt6__not_ISt15__is_tuple_likeIT_EESt21is_move_constructibleIS3_ESt18is_move_assignableIS3_EEE5valueEvE4typeERS3_SC_(i32* dereferenceable(4) %__a, i32* dereferenceable(4) %__b) #1 comdat !dbg !3816 {
entry:
  %__a.addr = alloca i32*, align 8
  %__b.addr = alloca i32*, align 8
  %__tmp = alloca i32, align 4
  store i32* %__a, i32** %__a.addr, align 8
  call void @llvm.dbg.declare(metadata i32** %__a.addr, metadata !3828, metadata !DIExpression()), !dbg !3829
  store i32* %__b, i32** %__b.addr, align 8
  call void @llvm.dbg.declare(metadata i32** %__b.addr, metadata !3830, metadata !DIExpression()), !dbg !3831
  call void @llvm.dbg.declare(metadata i32* %__tmp, metadata !3832, metadata !DIExpression()), !dbg !3833
  %0 = load i32*, i32** %__a.addr, align 8, !dbg !3834
  %call = call dereferenceable(4) i32* @_ZSt4moveIRjEONSt16remove_referenceIT_E4typeEOS2_(i32* dereferenceable(4) %0) #7, !dbg !3834
  %1 = load i32, i32* %call, align 4, !dbg !3834
  store i32 %1, i32* %__tmp, align 4, !dbg !3833
  %2 = load i32*, i32** %__b.addr, align 8, !dbg !3835
  %call1 = call dereferenceable(4) i32* @_ZSt4moveIRjEONSt16remove_referenceIT_E4typeEOS2_(i32* dereferenceable(4) %2) #7, !dbg !3835
  %3 = load i32, i32* %call1, align 4, !dbg !3835
  %4 = load i32*, i32** %__a.addr, align 8, !dbg !3836
  store i32 %3, i32* %4, align 4, !dbg !3837
  %call2 = call dereferenceable(4) i32* @_ZSt4moveIRjEONSt16remove_referenceIT_E4typeEOS2_(i32* dereferenceable(4) %__tmp) #7, !dbg !3838
  %5 = load i32, i32* %call2, align 4, !dbg !3838
  %6 = load i32*, i32** %__b.addr, align 8, !dbg !3839
  store i32 %5, i32* %6, align 4, !dbg !3840
  ret void, !dbg !3841
}

; Function Attrs: noinline nounwind uwtable
define linkonce_odr dso_local dereferenceable(4) i32* @_ZSt4moveIRjEONSt16remove_referenceIT_E4typeEOS2_(i32* dereferenceable(4) %__t) #1 comdat !dbg !3842 {
entry:
  %__t.addr = alloca i32*, align 8
  store i32* %__t, i32** %__t.addr, align 8
  call void @llvm.dbg.declare(metadata i32** %__t.addr, metadata !3850, metadata !DIExpression()), !dbg !3851
  %0 = load i32*, i32** %__t.addr, align 8, !dbg !3852
  ret i32* %0, !dbg !3853
}

; Function Attrs: noinline uwtable
define linkonce_odr dso_local i8* @_ZN11xalanc_1_1011XalanVectorIbNS_31MemoryManagedConstructionTraitsIbEEE8allocateEm(%"class.xalanc_1_10::XalanVector.0"* %this, i64 %size) #3 comdat align 2 !dbg !3854 {
entry:
  %this.addr = alloca %"class.xalanc_1_10::XalanVector.0"*, align 8
  %size.addr = alloca i64, align 8
  %theBytesNeeded = alloca i64, align 8
  %pointer = alloca i8*, align 8
  store %"class.xalanc_1_10::XalanVector.0"* %this, %"class.xalanc_1_10::XalanVector.0"** %this.addr, align 8
  call void @llvm.dbg.declare(metadata %"class.xalanc_1_10::XalanVector.0"** %this.addr, metadata !3855, metadata !DIExpression()), !dbg !3856
  store i64 %size, i64* %size.addr, align 8
  call void @llvm.dbg.declare(metadata i64* %size.addr, metadata !3857, metadata !DIExpression()), !dbg !3858
  %this1 = load %"class.xalanc_1_10::XalanVector.0"*, %"class.xalanc_1_10::XalanVector.0"** %this.addr, align 8
  call void @llvm.dbg.declare(metadata i64* %theBytesNeeded, metadata !3859, metadata !DIExpression()), !dbg !3860
  %0 = load i64, i64* %size.addr, align 8, !dbg !3861
  %mul = mul i64 %0, 1, !dbg !3862
  store i64 %mul, i64* %theBytesNeeded, align 8, !dbg !3860
  call void @llvm.dbg.declare(metadata i8** %pointer, metadata !3863, metadata !DIExpression()), !dbg !3864
  %m_memoryManager = getelementptr inbounds %"class.xalanc_1_10::XalanVector.0", %"class.xalanc_1_10::XalanVector.0"* %this1, i32 0, i32 0, !dbg !3865
  %1 = load %"class.xercesc_2_7::MemoryManager"*, %"class.xercesc_2_7::MemoryManager"** %m_memoryManager, align 8, !dbg !3865
  %2 = load i64, i64* %theBytesNeeded, align 8, !dbg !3866
  %3 = bitcast %"class.xercesc_2_7::MemoryManager"* %1 to i8* (%"class.xercesc_2_7::MemoryManager"*, i64)***, !dbg !3867
  %vtable = load i8* (%"class.xercesc_2_7::MemoryManager"*, i64)**, i8* (%"class.xercesc_2_7::MemoryManager"*, i64)*** %3, align 8, !dbg !3867
  %vfn = getelementptr inbounds i8* (%"class.xercesc_2_7::MemoryManager"*, i64)*, i8* (%"class.xercesc_2_7::MemoryManager"*, i64)** %vtable, i64 2, !dbg !3867
  %4 = load i8* (%"class.xercesc_2_7::MemoryManager"*, i64)*, i8* (%"class.xercesc_2_7::MemoryManager"*, i64)** %vfn, align 8, !dbg !3867
  %call = call i8* %4(%"class.xercesc_2_7::MemoryManager"* %1, i64 %2), !dbg !3867
  store i8* %call, i8** %pointer, align 8, !dbg !3864
  %5 = load i8*, i8** %pointer, align 8, !dbg !3868
  ret i8* %5, !dbg !3869
}

; Function Attrs: noinline nounwind uwtable
define linkonce_odr dso_local void @_ZNK11xalanc_1_1011XalanVectorIbNS_31MemoryManagedConstructionTraitsIbEEE10invariantsEv(%"class.xalanc_1_10::XalanVector.0"* %this) #1 comdat align 2 !dbg !3870 {
entry:
  %this.addr = alloca %"class.xalanc_1_10::XalanVector.0"*, align 8
  store %"class.xalanc_1_10::XalanVector.0"* %this, %"class.xalanc_1_10::XalanVector.0"** %this.addr, align 8
  call void @llvm.dbg.declare(metadata %"class.xalanc_1_10::XalanVector.0"** %this.addr, metadata !3871, metadata !DIExpression()), !dbg !3873
  %this1 = load %"class.xalanc_1_10::XalanVector.0"*, %"class.xalanc_1_10::XalanVector.0"** %this.addr, align 8
  ret void, !dbg !3874
}

; Function Attrs: noinline uwtable
define linkonce_odr dso_local void @_ZN11xalanc_1_1011XalanVectorIbNS_31MemoryManagedConstructionTraitsIbEEE7destroyEPbS4_(i8* %theFirst, i8* %theLast) #3 comdat align 2 !dbg !3875 {
entry:
  %theFirst.addr = alloca i8*, align 8
  %theLast.addr = alloca i8*, align 8
  store i8* %theFirst, i8** %theFirst.addr, align 8
  call void @llvm.dbg.declare(metadata i8** %theFirst.addr, metadata !3876, metadata !DIExpression()), !dbg !3877
  store i8* %theLast, i8** %theLast.addr, align 8
  call void @llvm.dbg.declare(metadata i8** %theLast.addr, metadata !3878, metadata !DIExpression()), !dbg !3879
  br label %for.cond, !dbg !3880

for.cond:                                         ; preds = %for.inc, %entry
  %0 = load i8*, i8** %theFirst.addr, align 8, !dbg !3881
  %1 = load i8*, i8** %theLast.addr, align 8, !dbg !3884
  %cmp = icmp ne i8* %0, %1, !dbg !3885
  br i1 %cmp, label %for.body, label %for.end, !dbg !3886

for.body:                                         ; preds = %for.cond
  %2 = load i8*, i8** %theFirst.addr, align 8, !dbg !3887
  call void @_ZN11xalanc_1_1011XalanVectorIbNS_31MemoryManagedConstructionTraitsIbEEE7destroyERb(i8* dereferenceable(1) %2), !dbg !3889
  br label %for.inc, !dbg !3890

for.inc:                                          ; preds = %for.body
  %3 = load i8*, i8** %theFirst.addr, align 8, !dbg !3891
  %incdec.ptr = getelementptr inbounds i8, i8* %3, i32 1, !dbg !3891
  store i8* %incdec.ptr, i8** %theFirst.addr, align 8, !dbg !3891
  br label %for.cond, !dbg !3892, !llvm.loop !3893

for.end:                                          ; preds = %for.cond
  ret void, !dbg !3895
}

; Function Attrs: noinline nounwind uwtable
define linkonce_odr dso_local i8* @_ZN11xalanc_1_1011XalanVectorIbNS_31MemoryManagedConstructionTraitsIbEEE5beginEv(%"class.xalanc_1_10::XalanVector.0"* %this) #1 comdat align 2 !dbg !3896 {
entry:
  %this.addr = alloca %"class.xalanc_1_10::XalanVector.0"*, align 8
  store %"class.xalanc_1_10::XalanVector.0"* %this, %"class.xalanc_1_10::XalanVector.0"** %this.addr, align 8
  call void @llvm.dbg.declare(metadata %"class.xalanc_1_10::XalanVector.0"** %this.addr, metadata !3897, metadata !DIExpression()), !dbg !3898
  %this1 = load %"class.xalanc_1_10::XalanVector.0"*, %"class.xalanc_1_10::XalanVector.0"** %this.addr, align 8
  call void @_ZNK11xalanc_1_1011XalanVectorIbNS_31MemoryManagedConstructionTraitsIbEEE10invariantsEv(%"class.xalanc_1_10::XalanVector.0"* %this1), !dbg !3899
  %m_data = getelementptr inbounds %"class.xalanc_1_10::XalanVector.0", %"class.xalanc_1_10::XalanVector.0"* %this1, i32 0, i32 3, !dbg !3900
  %0 = load i8*, i8** %m_data, align 8, !dbg !3900
  ret i8* %0, !dbg !3901
}

; Function Attrs: noinline uwtable
define linkonce_odr dso_local i8* @_ZN11xalanc_1_1011XalanVectorIbNS_31MemoryManagedConstructionTraitsIbEEE3endEv(%"class.xalanc_1_10::XalanVector.0"* %this) #3 comdat align 2 !dbg !3902 {
entry:
  %this.addr = alloca %"class.xalanc_1_10::XalanVector.0"*, align 8
  store %"class.xalanc_1_10::XalanVector.0"* %this, %"class.xalanc_1_10::XalanVector.0"** %this.addr, align 8
  call void @llvm.dbg.declare(metadata %"class.xalanc_1_10::XalanVector.0"** %this.addr, metadata !3903, metadata !DIExpression()), !dbg !3904
  %this1 = load %"class.xalanc_1_10::XalanVector.0"*, %"class.xalanc_1_10::XalanVector.0"** %this.addr, align 8
  call void @_ZNK11xalanc_1_1011XalanVectorIbNS_31MemoryManagedConstructionTraitsIbEEE10invariantsEv(%"class.xalanc_1_10::XalanVector.0"* %this1), !dbg !3905
  %call = call i8* @_ZN11xalanc_1_1011XalanVectorIbNS_31MemoryManagedConstructionTraitsIbEEE10endPointerEv(%"class.xalanc_1_10::XalanVector.0"* %this1), !dbg !3906
  ret i8* %call, !dbg !3907
}

; Function Attrs: noinline uwtable
define linkonce_odr dso_local void @_ZN11xalanc_1_1011XalanVectorIbNS_31MemoryManagedConstructionTraitsIbEEE10deallocateEPb(%"class.xalanc_1_10::XalanVector.0"* %this, i8* %pointer) #3 comdat align 2 !dbg !3908 {
entry:
  %this.addr = alloca %"class.xalanc_1_10::XalanVector.0"*, align 8
  %pointer.addr = alloca i8*, align 8
  store %"class.xalanc_1_10::XalanVector.0"* %this, %"class.xalanc_1_10::XalanVector.0"** %this.addr, align 8
  call void @llvm.dbg.declare(metadata %"class.xalanc_1_10::XalanVector.0"** %this.addr, metadata !3909, metadata !DIExpression()), !dbg !3910
  store i8* %pointer, i8** %pointer.addr, align 8
  call void @llvm.dbg.declare(metadata i8** %pointer.addr, metadata !3911, metadata !DIExpression()), !dbg !3912
  %this1 = load %"class.xalanc_1_10::XalanVector.0"*, %"class.xalanc_1_10::XalanVector.0"** %this.addr, align 8
  %m_memoryManager = getelementptr inbounds %"class.xalanc_1_10::XalanVector.0", %"class.xalanc_1_10::XalanVector.0"* %this1, i32 0, i32 0, !dbg !3913
  %0 = load %"class.xercesc_2_7::MemoryManager"*, %"class.xercesc_2_7::MemoryManager"** %m_memoryManager, align 8, !dbg !3913
  %1 = load i8*, i8** %pointer.addr, align 8, !dbg !3914
  %2 = bitcast %"class.xercesc_2_7::MemoryManager"* %0 to void (%"class.xercesc_2_7::MemoryManager"*, i8*)***, !dbg !3915
  %vtable = load void (%"class.xercesc_2_7::MemoryManager"*, i8*)**, void (%"class.xercesc_2_7::MemoryManager"*, i8*)*** %2, align 8, !dbg !3915
  %vfn = getelementptr inbounds void (%"class.xercesc_2_7::MemoryManager"*, i8*)*, void (%"class.xercesc_2_7::MemoryManager"*, i8*)** %vtable, i64 3, !dbg !3915
  %3 = load void (%"class.xercesc_2_7::MemoryManager"*, i8*)*, void (%"class.xercesc_2_7::MemoryManager"*, i8*)** %vfn, align 8, !dbg !3915
  call void %3(%"class.xercesc_2_7::MemoryManager"* %0, i8* %1), !dbg !3915
  ret void, !dbg !3916
}

; Function Attrs: noinline nounwind uwtable
define linkonce_odr dso_local void @_ZN11xalanc_1_1011XalanVectorIbNS_31MemoryManagedConstructionTraitsIbEEE7destroyERb(i8* dereferenceable(1) %theValue) #1 comdat align 2 !dbg !3917 {
entry:
  %theValue.addr = alloca i8*, align 8
  store i8* %theValue, i8** %theValue.addr, align 8
  call void @llvm.dbg.declare(metadata i8** %theValue.addr, metadata !3918, metadata !DIExpression()), !dbg !3919
  %0 = load i8*, i8** %theValue.addr, align 8, !dbg !3920
  ret void, !dbg !3921
}

; Function Attrs: noinline nounwind uwtable
define linkonce_odr dso_local i8* @_ZN11xalanc_1_1011XalanVectorIbNS_31MemoryManagedConstructionTraitsIbEEE10endPointerEv(%"class.xalanc_1_10::XalanVector.0"* %this) #1 comdat align 2 !dbg !3922 {
entry:
  %this.addr = alloca %"class.xalanc_1_10::XalanVector.0"*, align 8
  store %"class.xalanc_1_10::XalanVector.0"* %this, %"class.xalanc_1_10::XalanVector.0"** %this.addr, align 8
  call void @llvm.dbg.declare(metadata %"class.xalanc_1_10::XalanVector.0"** %this.addr, metadata !3923, metadata !DIExpression()), !dbg !3924
  %this1 = load %"class.xalanc_1_10::XalanVector.0"*, %"class.xalanc_1_10::XalanVector.0"** %this.addr, align 8
  %m_data = getelementptr inbounds %"class.xalanc_1_10::XalanVector.0", %"class.xalanc_1_10::XalanVector.0"* %this1, i32 0, i32 3, !dbg !3925
  %0 = load i8*, i8** %m_data, align 8, !dbg !3925
  %m_size = getelementptr inbounds %"class.xalanc_1_10::XalanVector.0", %"class.xalanc_1_10::XalanVector.0"* %this1, i32 0, i32 1, !dbg !3926
  %1 = load i64, i64* %m_size, align 8, !dbg !3926
  %add.ptr = getelementptr inbounds i8, i8* %0, i64 %1, !dbg !3927
  ret i8* %add.ptr, !dbg !3928
}

; Function Attrs: noinline uwtable
define internal void @_GLOBAL__sub_I_XalanXMLSerializerBase.cpp() #3 section ".text.startup" !dbg !3929 {
entry:
  call void @__cxx_global_var_init(), !dbg !3931
  call void @__cxx_global_var_init.2(), !dbg !3931
  call void @__cxx_global_var_init.3(), !dbg !3931
  call void @__cxx_global_var_init.4(), !dbg !3931
  ret void
}

attributes #0 = { nounwind readnone speculatable willreturn }
attributes #1 = { noinline nounwind uwtable "correctly-rounded-divide-sqrt-fp-math"="false" "disable-tail-calls"="false" "frame-pointer"="all" "less-precise-fpmad"="false" "min-legal-vector-width"="0" "no-infs-fp-math"="false" "no-jump-tables"="false" "no-nans-fp-math"="false" "no-signed-zeros-fp-math"="false" "no-trapping-math"="false" "stack-protector-buffer-size"="8" "target-cpu"="x86-64" "target-features"="+cx8,+fxsr,+mmx,+sse,+sse2,+x87" "unsafe-fp-math"="false" "use-soft-float"="false" }
attributes #2 = { nobuiltin nounwind "correctly-rounded-divide-sqrt-fp-math"="false" "disable-tail-calls"="false" "frame-pointer"="all" "less-precise-fpmad"="false" "no-infs-fp-math"="false" "no-nans-fp-math"="false" "no-signed-zeros-fp-math"="false" "no-trapping-math"="false" "stack-protector-buffer-size"="8" "target-cpu"="x86-64" "target-features"="+cx8,+fxsr,+mmx,+sse,+sse2,+x87" "unsafe-fp-math"="false" "use-soft-float"="false" }
attributes #3 = { noinline uwtable "correctly-rounded-divide-sqrt-fp-math"="false" "disable-tail-calls"="false" "frame-pointer"="all" "less-precise-fpmad"="false" "min-legal-vector-width"="0" "no-infs-fp-math"="false" "no-jump-tables"="false" "no-nans-fp-math"="false" "no-signed-zeros-fp-math"="false" "no-trapping-math"="false" "stack-protector-buffer-size"="8" "target-cpu"="x86-64" "target-features"="+cx8,+fxsr,+mmx,+sse,+sse2,+x87" "unsafe-fp-math"="false" "use-soft-float"="false" }
attributes #4 = { "correctly-rounded-divide-sqrt-fp-math"="false" "disable-tail-calls"="false" "frame-pointer"="all" "less-precise-fpmad"="false" "no-infs-fp-math"="false" "no-nans-fp-math"="false" "no-signed-zeros-fp-math"="false" "no-trapping-math"="false" "stack-protector-buffer-size"="8" "target-cpu"="x86-64" "target-features"="+cx8,+fxsr,+mmx,+sse,+sse2,+x87" "unsafe-fp-math"="false" "use-soft-float"="false" }
attributes #5 = { nounwind "correctly-rounded-divide-sqrt-fp-math"="false" "disable-tail-calls"="false" "frame-pointer"="all" "less-precise-fpmad"="false" "no-infs-fp-math"="false" "no-nans-fp-math"="false" "no-signed-zeros-fp-math"="false" "no-trapping-math"="false" "stack-protector-buffer-size"="8" "target-cpu"="x86-64" "target-features"="+cx8,+fxsr,+mmx,+sse,+sse2,+x87" "unsafe-fp-math"="false" "use-soft-float"="false" }
attributes #6 = { cold noreturn nounwind }
attributes #7 = { nounwind }
attributes #8 = { noinline noreturn nounwind }
attributes #9 = { argmemonly nounwind willreturn }
attributes #10 = { builtin nounwind }
attributes #11 = { noreturn nounwind }
attributes #12 = { noreturn }

!llvm.dbg.cu = !{!1389}
!llvm.module.flags = !{!2606, !2607, !2608}
!llvm.ident = !{!2609}

!0 = !DIGlobalVariableExpression(var: !1, expr: !DIExpression())
!1 = distinct !DIGlobalVariable(name: "s_lastSpecial", linkageName: "_ZN11xalanc_1_1022XalanXMLSerializerBase14CharFunctor1_013s_lastSpecialE", scope: !2, file: !3, line: 36, type: !4, isLocal: false, isDefinition: true, declaration: !8)
!2 = !DINamespace(name: "xalanc_1_10", scope: null)
!3 = !DIFile(filename: "XalanXMLSerializerBase.cpp", directory: "/home/venkat/IF-DV/spec_build_release/CPU_2017/benchspec/CPU/523.xalancbmk_r/build/build_base_ld-loop-ext-m64.0000")
!4 = !DIDerivedType(tag: DW_TAG_const_type, baseType: !5)
!5 = !DIDerivedType(tag: DW_TAG_typedef, name: "size_t", file: !6, line: 46, baseType: !7)
!6 = !DIFile(filename: "Rohit/IR2Vec-LoopOptimizationFramework/build_REL_AsrtON/lib/clang/10.0.1/include/stddef.h", directory: "/home/venkat/IF-DV")
!7 = !DIBasicType(name: "long unsigned int", size: 64, encoding: DW_ATE_unsigned)
!8 = !DIDerivedType(tag: DW_TAG_member, name: "s_lastSpecial", scope: !10, file: !9, line: 479, baseType: !4, flags: DIFlagStaticMember)
!9 = !DIFile(filename: "./xalanc/XMLSupport/XalanXMLSerializerBase.hpp", directory: "/home/venkat/IF-DV/spec_build_release/CPU_2017/benchspec/CPU/523.xalancbmk_r/build/build_base_ld-loop-ext-m64.0000")
!10 = distinct !DICompositeType(tag: DW_TAG_class_type, name: "CharFunctor1_0", scope: !11, file: !9, line: 433, size: 8, flags: DIFlagTypePassByValue, elements: !1105, identifier: "_ZTSN11xalanc_1_1022XalanXMLSerializerBase14CharFunctor1_0E")
!11 = distinct !DICompositeType(tag: DW_TAG_class_type, name: "XalanXMLSerializerBase", scope: !2, file: !9, line: 56, size: 1920, flags: DIFlagTypePassByReference | DIFlagNonTrivial, elements: !12, vtableHolder: !1104)
!12 = !{!13, !16, !786, !787, !788, !789, !790, !791, !792, !793, !794, !795, !796, !980, !984, !985, !988, !989, !997, !1000, !1003, !1011, !1012, !1022, !1025, !1029, !1030, !1031, !1032, !1035, !1036, !1037, !1038, !1043, !1044, !1045, !1046, !1047, !1050, !1053, !1054, !1055, !1058, !1061, !1064, !1065, !1066, !1069, !1070, !1071, !1072, !1073, !1074, !1077, !1078, !1081, !1084, !1087, !1090, !1093, !1097, !1101}
!13 = !DIDerivedType(tag: DW_TAG_inheritance, scope: !11, baseType: !14, flags: DIFlagPublic, extraData: i32 0)
!14 = !DICompositeType(tag: DW_TAG_class_type, name: "FormatterListener", scope: !2, file: !15, line: 62, flags: DIFlagFwdDecl)
!15 = !DIFile(filename: "./xalanc/PlatformSupport/FormatterListener.hpp", directory: "/home/venkat/IF-DV/spec_build_release/CPU_2017/benchspec/CPU/523.xalancbmk_r/build/build_base_ld-loop-ext-m64.0000")
!16 = !DIDerivedType(tag: DW_TAG_member, name: "s_1_0String", scope: !11, file: !9, line: 192, baseType: !17, flags: DIFlagPublic | DIFlagStaticMember)
!17 = !DIDerivedType(tag: DW_TAG_reference_type, baseType: !18, size: 64)
!18 = !DIDerivedType(tag: DW_TAG_const_type, baseType: !19)
!19 = distinct !DICompositeType(tag: DW_TAG_class_type, name: "XalanDOMString", scope: !2, file: !20, line: 42, size: 320, flags: DIFlagTypePassByReference | DIFlagNonTrivial, elements: !21, identifier: "_ZTSN11xalanc_1_1014XalanDOMStringE")
!20 = !DIFile(filename: "./xalanc/XalanDOM/XalanDOMString.hpp", directory: "/home/venkat/IF-DV/spec_build_release/CPU_2017/benchspec/CPU/523.xalancbmk_r/build/build_base_ld-loop-ext-m64.0000")
!21 = !{!22, !26, !374, !375, !379, !385, !391, !394, !398, !401, !405, !408, !412, !415, !418, !421, !425, !430, !431, !432, !436, !440, !441, !442, !445, !446, !447, !450, !453, !454, !455, !456, !459, !462, !467, !472, !473, !474, !477, !478, !481, !482, !483, !484, !485, !488, !489, !492, !495, !496, !499, !502, !503, !504, !505, !506, !507, !508, !509, !512, !515, !518, !521, !524, !527, !530, !533, !536, !539, !542, !545, !548, !551, !554, !557, !560, !747, !750, !751, !754, !757, !760, !763, !766, !769, !772, !775, !778, !779, !780, !783}
!22 = !DIDerivedType(tag: DW_TAG_member, name: "npos", scope: !19, file: !20, line: 61, baseType: !23, flags: DIFlagPublic | DIFlagStaticMember, extraData: i32 -1)
!23 = !DIDerivedType(tag: DW_TAG_const_type, baseType: !24)
!24 = !DIDerivedType(tag: DW_TAG_typedef, name: "size_type", scope: !19, file: !20, line: 53, baseType: !25)
!25 = !DIBasicType(name: "unsigned int", size: 32, encoding: DW_ATE_unsigned)
!26 = !DIDerivedType(tag: DW_TAG_member, name: "m_data", scope: !19, file: !20, line: 793, baseType: !27, size: 256)
!27 = !DIDerivedType(tag: DW_TAG_typedef, name: "XalanDOMCharVectorType", scope: !19, file: !20, line: 45, baseType: !28)
!28 = distinct !DICompositeType(tag: DW_TAG_class_type, name: "XalanVector<unsigned short, xalanc_1_10::MemoryManagedConstructionTraits<unsigned short> >", scope: !2, file: !29, line: 61, size: 256, flags: DIFlagTypePassByReference | DIFlagNonTrivial, elements: !30, templateParams: !367, identifier: "_ZTSN11xalanc_1_1011XalanVectorItNS_31MemoryManagedConstructionTraitsItEEEE")
!29 = !DIFile(filename: "./xalanc/Include/XalanVector.hpp", directory: "/home/venkat/IF-DV/spec_build_release/CPU_2017/benchspec/CPU/523.xalancbmk_r/build/build_base_ld-loop-ext-m64.0000")
!30 = !{!31, !36, !38, !39, !43, !48, !52, !58, !64, !67, !71, !74, !77, !78, !82, !85, !88, !91, !94, !97, !100, !103, !108, !109, !112, !113, !114, !118, !119, !124, !128, !129, !130, !133, !136, !137, !138, !229, !300, !301, !302, !305, !308, !309, !310, !311, !315, !318, !323, !326, !330, !333, !337, !340, !343, !346, !349, !350, !353, !354, !355, !359, !362, !363, !364}
!31 = !DIDerivedType(tag: DW_TAG_member, name: "m_memoryManager", scope: !28, file: !29, line: 1087, baseType: !32, size: 64)
!32 = !DIDerivedType(tag: DW_TAG_pointer_type, baseType: !33, size: 64)
!33 = !DICompositeType(tag: DW_TAG_class_type, name: "MemoryManager", scope: !35, file: !34, line: 38, flags: DIFlagFwdDecl, identifier: "_ZTSN11xercesc_2_713MemoryManagerE")
!34 = !DIFile(filename: "./xercesc/framework/MemoryManager.hpp", directory: "/home/venkat/IF-DV/spec_build_release/CPU_2017/benchspec/CPU/523.xalancbmk_r/build/build_base_ld-loop-ext-m64.0000")
!35 = !DINamespace(name: "xercesc_2_7", scope: null)
!36 = !DIDerivedType(tag: DW_TAG_member, name: "m_size", scope: !28, file: !29, line: 1089, baseType: !37, size: 64, offset: 64)
!37 = !DIDerivedType(tag: DW_TAG_typedef, name: "size_type", file: !29, line: 71, baseType: !5)
!38 = !DIDerivedType(tag: DW_TAG_member, name: "m_allocation", scope: !28, file: !29, line: 1091, baseType: !37, size: 64, offset: 128)
!39 = !DIDerivedType(tag: DW_TAG_member, name: "m_data", scope: !28, file: !29, line: 1093, baseType: !40, size: 64, offset: 192)
!40 = !DIDerivedType(tag: DW_TAG_pointer_type, baseType: !41, size: 64)
!41 = !DIDerivedType(tag: DW_TAG_typedef, name: "value_type", scope: !28, file: !29, line: 66, baseType: !42)
!42 = !DIBasicType(name: "unsigned short", size: 16, encoding: DW_ATE_unsigned)
!43 = !DISubprogram(name: "XalanVector", scope: !28, file: !29, line: 120, type: !44, scopeLine: 120, flags: DIFlagPublic | DIFlagPrototyped, spFlags: 0)
!44 = !DISubroutineType(types: !45)
!45 = !{null, !46, !47, !37}
!46 = !DIDerivedType(tag: DW_TAG_pointer_type, baseType: !28, size: 64, flags: DIFlagArtificial | DIFlagObjectPointer)
!47 = !DIDerivedType(tag: DW_TAG_reference_type, baseType: !33, size: 64)
!48 = !DISubprogram(name: "create", linkageName: "_ZN11xalanc_1_1011XalanVectorItNS_31MemoryManagedConstructionTraitsItEEE6createERN11xercesc_2_713MemoryManagerEm", scope: !28, file: !29, line: 132, type: !49, scopeLine: 132, flags: DIFlagPublic | DIFlagPrototyped | DIFlagStaticMember, spFlags: 0)
!49 = !DISubroutineType(types: !50)
!50 = !{!51, !47, !37}
!51 = !DIDerivedType(tag: DW_TAG_pointer_type, baseType: !28, size: 64)
!52 = !DISubprogram(name: "XalanVector", scope: !28, file: !29, line: 149, type: !53, scopeLine: 149, flags: DIFlagPublic | DIFlagPrototyped, spFlags: 0)
!53 = !DISubroutineType(types: !54)
!54 = !{null, !46, !55, !47, !37}
!55 = !DIDerivedType(tag: DW_TAG_reference_type, baseType: !56, size: 64)
!56 = !DIDerivedType(tag: DW_TAG_const_type, baseType: !57)
!57 = !DIDerivedType(tag: DW_TAG_typedef, name: "ThisType", scope: !28, file: !29, line: 115, baseType: !28)
!58 = !DISubprogram(name: "XalanVector", scope: !28, file: !29, line: 177, type: !59, scopeLine: 177, flags: DIFlagPublic | DIFlagPrototyped, spFlags: 0)
!59 = !DISubroutineType(types: !60)
!60 = !{null, !46, !61, !61, !47}
!61 = !DIDerivedType(tag: DW_TAG_typedef, name: "const_iterator", scope: !28, file: !29, line: 92, baseType: !62)
!62 = !DIDerivedType(tag: DW_TAG_pointer_type, baseType: !63, size: 64)
!63 = !DIDerivedType(tag: DW_TAG_const_type, baseType: !41)
!64 = !DISubprogram(name: "create", linkageName: "_ZN11xalanc_1_1011XalanVectorItNS_31MemoryManagedConstructionTraitsItEEE6createEPKtS5_RN11xercesc_2_713MemoryManagerE", scope: !28, file: !29, line: 197, type: !65, scopeLine: 197, flags: DIFlagPublic | DIFlagPrototyped | DIFlagStaticMember, spFlags: 0)
!65 = !DISubroutineType(types: !66)
!66 = !{!51, !61, !61, !47}
!67 = !DISubprogram(name: "XalanVector", scope: !28, file: !29, line: 215, type: !68, scopeLine: 215, flags: DIFlagPublic | DIFlagPrototyped, spFlags: 0)
!68 = !DISubroutineType(types: !69)
!69 = !{null, !46, !37, !70, !47}
!70 = !DIDerivedType(tag: DW_TAG_reference_type, baseType: !63, size: 64)
!71 = !DISubprogram(name: "~XalanVector", scope: !28, file: !29, line: 233, type: !72, scopeLine: 233, flags: DIFlagPublic | DIFlagPrototyped, spFlags: 0)
!72 = !DISubroutineType(types: !73)
!73 = !{null, !46}
!74 = !DISubprogram(name: "push_back", linkageName: "_ZN11xalanc_1_1011XalanVectorItNS_31MemoryManagedConstructionTraitsItEEE9push_backERKt", scope: !28, file: !29, line: 246, type: !75, scopeLine: 246, flags: DIFlagPublic | DIFlagPrototyped, spFlags: 0)
!75 = !DISubroutineType(types: !76)
!76 = !{null, !46, !70}
!77 = !DISubprogram(name: "pop_back", linkageName: "_ZN11xalanc_1_1011XalanVectorItNS_31MemoryManagedConstructionTraitsItEEE8pop_backEv", scope: !28, file: !29, line: 256, type: !72, scopeLine: 256, flags: DIFlagPublic | DIFlagPrototyped, spFlags: 0)
!78 = !DISubprogram(name: "erase", linkageName: "_ZN11xalanc_1_1011XalanVectorItNS_31MemoryManagedConstructionTraitsItEEE5eraseEPtS4_", scope: !28, file: !29, line: 268, type: !79, scopeLine: 268, flags: DIFlagPublic | DIFlagPrototyped, spFlags: 0)
!79 = !DISubroutineType(types: !80)
!80 = !{!81, !46, !81, !81}
!81 = !DIDerivedType(tag: DW_TAG_typedef, name: "iterator", scope: !28, file: !29, line: 91, baseType: !40)
!82 = !DISubprogram(name: "erase", linkageName: "_ZN11xalanc_1_1011XalanVectorItNS_31MemoryManagedConstructionTraitsItEEE5eraseEPt", scope: !28, file: !29, line: 290, type: !83, scopeLine: 290, flags: DIFlagPublic | DIFlagPrototyped, spFlags: 0)
!83 = !DISubroutineType(types: !84)
!84 = !{!81, !46, !81}
!85 = !DISubprogram(name: "insert", linkageName: "_ZN11xalanc_1_1011XalanVectorItNS_31MemoryManagedConstructionTraitsItEEE6insertEPtPKtS6_", scope: !28, file: !29, line: 296, type: !86, scopeLine: 296, flags: DIFlagPublic | DIFlagPrototyped, spFlags: 0)
!86 = !DISubroutineType(types: !87)
!87 = !{null, !46, !81, !61, !61}
!88 = !DISubprogram(name: "insert", linkageName: "_ZN11xalanc_1_1011XalanVectorItNS_31MemoryManagedConstructionTraitsItEEE6insertEPtmRKt", scope: !28, file: !29, line: 415, type: !89, scopeLine: 415, flags: DIFlagPublic | DIFlagPrototyped, spFlags: 0)
!89 = !DISubroutineType(types: !90)
!90 = !{null, !46, !81, !37, !70}
!91 = !DISubprogram(name: "insert", linkageName: "_ZN11xalanc_1_1011XalanVectorItNS_31MemoryManagedConstructionTraitsItEEE6insertEPtRKt", scope: !28, file: !29, line: 516, type: !92, scopeLine: 516, flags: DIFlagPublic | DIFlagPrototyped, spFlags: 0)
!92 = !DISubroutineType(types: !93)
!93 = !{!81, !46, !81, !70}
!94 = !DISubprogram(name: "assign", linkageName: "_ZN11xalanc_1_1011XalanVectorItNS_31MemoryManagedConstructionTraitsItEEE6assignEPKtS5_", scope: !28, file: !29, line: 538, type: !95, scopeLine: 538, flags: DIFlagPublic | DIFlagPrototyped, spFlags: 0)
!95 = !DISubroutineType(types: !96)
!96 = !{null, !46, !61, !61}
!97 = !DISubprogram(name: "assign", linkageName: "_ZN11xalanc_1_1011XalanVectorItNS_31MemoryManagedConstructionTraitsItEEE6assignEPtS4_", scope: !28, file: !29, line: 551, type: !98, scopeLine: 551, flags: DIFlagPublic | DIFlagPrototyped, spFlags: 0)
!98 = !DISubroutineType(types: !99)
!99 = !{null, !46, !81, !81}
!100 = !DISubprogram(name: "assign", linkageName: "_ZN11xalanc_1_1011XalanVectorItNS_31MemoryManagedConstructionTraitsItEEE6assignEmRKt", scope: !28, file: !29, line: 561, type: !101, scopeLine: 561, flags: DIFlagPublic | DIFlagPrototyped, spFlags: 0)
!101 = !DISubroutineType(types: !102)
!102 = !{null, !46, !37, !70}
!103 = !DISubprogram(name: "size", linkageName: "_ZNK11xalanc_1_1011XalanVectorItNS_31MemoryManagedConstructionTraitsItEEE4sizeEv", scope: !28, file: !29, line: 571, type: !104, scopeLine: 571, flags: DIFlagPublic | DIFlagPrototyped, spFlags: 0)
!104 = !DISubroutineType(types: !105)
!105 = !{!37, !106}
!106 = !DIDerivedType(tag: DW_TAG_pointer_type, baseType: !107, size: 64, flags: DIFlagArtificial | DIFlagObjectPointer)
!107 = !DIDerivedType(tag: DW_TAG_const_type, baseType: !28)
!108 = !DISubprogram(name: "max_size", linkageName: "_ZNK11xalanc_1_1011XalanVectorItNS_31MemoryManagedConstructionTraitsItEEE8max_sizeEv", scope: !28, file: !29, line: 579, type: !104, scopeLine: 579, flags: DIFlagPublic | DIFlagPrototyped, spFlags: 0)
!109 = !DISubprogram(name: "resize", linkageName: "_ZN11xalanc_1_1011XalanVectorItNS_31MemoryManagedConstructionTraitsItEEE6resizeEm", scope: !28, file: !29, line: 587, type: !110, scopeLine: 587, flags: DIFlagPublic | DIFlagPrototyped, spFlags: 0)
!110 = !DISubroutineType(types: !111)
!111 = !{null, !46, !37}
!112 = !DISubprogram(name: "resize", linkageName: "_ZN11xalanc_1_1011XalanVectorItNS_31MemoryManagedConstructionTraitsItEEE6resizeEmRKt", scope: !28, file: !29, line: 595, type: !101, scopeLine: 595, flags: DIFlagPublic | DIFlagPrototyped, spFlags: 0)
!113 = !DISubprogram(name: "capacity", linkageName: "_ZNK11xalanc_1_1011XalanVectorItNS_31MemoryManagedConstructionTraitsItEEE8capacityEv", scope: !28, file: !29, line: 628, type: !104, scopeLine: 628, flags: DIFlagPublic | DIFlagPrototyped, spFlags: 0)
!114 = !DISubprogram(name: "empty", linkageName: "_ZNK11xalanc_1_1011XalanVectorItNS_31MemoryManagedConstructionTraitsItEEE5emptyEv", scope: !28, file: !29, line: 636, type: !115, scopeLine: 636, flags: DIFlagPublic | DIFlagPrototyped, spFlags: 0)
!115 = !DISubroutineType(types: !116)
!116 = !{!117, !106}
!117 = !DIBasicType(name: "bool", size: 8, encoding: DW_ATE_boolean)
!118 = !DISubprogram(name: "reserve", linkageName: "_ZN11xalanc_1_1011XalanVectorItNS_31MemoryManagedConstructionTraitsItEEE7reserveEm", scope: !28, file: !29, line: 644, type: !110, scopeLine: 644, flags: DIFlagPublic | DIFlagPrototyped, spFlags: 0)
!119 = !DISubprogram(name: "front", linkageName: "_ZN11xalanc_1_1011XalanVectorItNS_31MemoryManagedConstructionTraitsItEEE5frontEv", scope: !28, file: !29, line: 657, type: !120, scopeLine: 657, flags: DIFlagPublic | DIFlagPrototyped, spFlags: 0)
!120 = !DISubroutineType(types: !121)
!121 = !{!122, !46}
!122 = !DIDerivedType(tag: DW_TAG_typedef, name: "reference", scope: !28, file: !29, line: 69, baseType: !123)
!123 = !DIDerivedType(tag: DW_TAG_reference_type, baseType: !41, size: 64)
!124 = !DISubprogram(name: "front", linkageName: "_ZNK11xalanc_1_1011XalanVectorItNS_31MemoryManagedConstructionTraitsItEEE5frontEv", scope: !28, file: !29, line: 665, type: !125, scopeLine: 665, flags: DIFlagPublic | DIFlagPrototyped, spFlags: 0)
!125 = !DISubroutineType(types: !126)
!126 = !{!127, !106}
!127 = !DIDerivedType(tag: DW_TAG_typedef, name: "const_reference", scope: !28, file: !29, line: 70, baseType: !70)
!128 = !DISubprogram(name: "back", linkageName: "_ZN11xalanc_1_1011XalanVectorItNS_31MemoryManagedConstructionTraitsItEEE4backEv", scope: !28, file: !29, line: 673, type: !120, scopeLine: 673, flags: DIFlagPublic | DIFlagPrototyped, spFlags: 0)
!129 = !DISubprogram(name: "back", linkageName: "_ZNK11xalanc_1_1011XalanVectorItNS_31MemoryManagedConstructionTraitsItEEE4backEv", scope: !28, file: !29, line: 679, type: !125, scopeLine: 679, flags: DIFlagPublic | DIFlagPrototyped, spFlags: 0)
!130 = !DISubprogram(name: "begin", linkageName: "_ZN11xalanc_1_1011XalanVectorItNS_31MemoryManagedConstructionTraitsItEEE5beginEv", scope: !28, file: !29, line: 685, type: !131, scopeLine: 685, flags: DIFlagPublic | DIFlagPrototyped, spFlags: 0)
!131 = !DISubroutineType(types: !132)
!132 = !{!81, !46}
!133 = !DISubprogram(name: "begin", linkageName: "_ZNK11xalanc_1_1011XalanVectorItNS_31MemoryManagedConstructionTraitsItEEE5beginEv", scope: !28, file: !29, line: 693, type: !134, scopeLine: 693, flags: DIFlagPublic | DIFlagPrototyped, spFlags: 0)
!134 = !DISubroutineType(types: !135)
!135 = !{!61, !106}
!136 = !DISubprogram(name: "end", linkageName: "_ZN11xalanc_1_1011XalanVectorItNS_31MemoryManagedConstructionTraitsItEEE3endEv", scope: !28, file: !29, line: 701, type: !131, scopeLine: 701, flags: DIFlagPublic | DIFlagPrototyped, spFlags: 0)
!137 = !DISubprogram(name: "end", linkageName: "_ZNK11xalanc_1_1011XalanVectorItNS_31MemoryManagedConstructionTraitsItEEE3endEv", scope: !28, file: !29, line: 709, type: !134, scopeLine: 709, flags: DIFlagPublic | DIFlagPrototyped, spFlags: 0)
!138 = !DISubprogram(name: "rbegin", linkageName: "_ZN11xalanc_1_1011XalanVectorItNS_31MemoryManagedConstructionTraitsItEEE6rbeginEv", scope: !28, file: !29, line: 717, type: !139, scopeLine: 717, flags: DIFlagPublic | DIFlagPrototyped, spFlags: 0)
!139 = !DISubroutineType(types: !140)
!140 = !{!141, !46}
!141 = !DIDerivedType(tag: DW_TAG_typedef, name: "reverse_iterator", scope: !28, file: !29, line: 112, baseType: !142)
!142 = !DIDerivedType(tag: DW_TAG_typedef, name: "reverse_iterator_", scope: !28, file: !29, line: 96, baseType: !143)
!143 = distinct !DICompositeType(tag: DW_TAG_class_type, name: "reverse_iterator<unsigned short *>", scope: !145, file: !144, line: 125, size: 64, flags: DIFlagTypePassByReference | DIFlagNonTrivial, elements: !146, templateParams: !198, identifier: "_ZTSSt16reverse_iteratorIPtE")
!144 = !DIFile(filename: "/usr/lib/gcc/x86_64-linux-gnu/10/../../../../include/c++/10/bits/stl_iterator.h", directory: "")
!145 = !DINamespace(name: "std", scope: null)
!146 = !{!147, !170, !171, !175, !179, !184, !188, !192, !200, !205, !208, !212, !213, !214, !221, !224, !225, !226}
!147 = !DIDerivedType(tag: DW_TAG_inheritance, scope: !143, baseType: !148, flags: DIFlagPublic, extraData: i32 0)
!148 = distinct !DICompositeType(tag: DW_TAG_structure_type, name: "iterator<std::random_access_iterator_tag, unsigned short, long, unsigned short *, unsigned short &>", scope: !145, file: !149, line: 127, size: 8, flags: DIFlagTypePassByValue, elements: !150, templateParams: !151, identifier: "_ZTSSt8iteratorISt26random_access_iterator_tagtlPtRtE")
!149 = !DIFile(filename: "/usr/lib/gcc/x86_64-linux-gnu/10/../../../../include/c++/10/bits/stl_iterator_base_types.h", directory: "")
!150 = !{}
!151 = !{!152, !163, !164, !166, !168}
!152 = !DITemplateTypeParameter(name: "_Category", type: !153)
!153 = distinct !DICompositeType(tag: DW_TAG_structure_type, name: "random_access_iterator_tag", scope: !145, file: !149, line: 107, size: 8, flags: DIFlagTypePassByValue, elements: !154, identifier: "_ZTSSt26random_access_iterator_tag")
!154 = !{!155}
!155 = !DIDerivedType(tag: DW_TAG_inheritance, scope: !153, baseType: !156, extraData: i32 0)
!156 = distinct !DICompositeType(tag: DW_TAG_structure_type, name: "bidirectional_iterator_tag", scope: !145, file: !149, line: 103, size: 8, flags: DIFlagTypePassByValue, elements: !157, identifier: "_ZTSSt26bidirectional_iterator_tag")
!157 = !{!158}
!158 = !DIDerivedType(tag: DW_TAG_inheritance, scope: !156, baseType: !159, extraData: i32 0)
!159 = distinct !DICompositeType(tag: DW_TAG_structure_type, name: "forward_iterator_tag", scope: !145, file: !149, line: 99, size: 8, flags: DIFlagTypePassByValue, elements: !160, identifier: "_ZTSSt20forward_iterator_tag")
!160 = !{!161}
!161 = !DIDerivedType(tag: DW_TAG_inheritance, scope: !159, baseType: !162, extraData: i32 0)
!162 = distinct !DICompositeType(tag: DW_TAG_structure_type, name: "input_iterator_tag", scope: !145, file: !149, line: 93, size: 8, flags: DIFlagTypePassByValue, elements: !150, identifier: "_ZTSSt18input_iterator_tag")
!163 = !DITemplateTypeParameter(name: "_Tp", type: !42)
!164 = !DITemplateTypeParameter(name: "_Distance", type: !165)
!165 = !DIBasicType(name: "long int", size: 64, encoding: DW_ATE_signed)
!166 = !DITemplateTypeParameter(name: "_Pointer", type: !167)
!167 = !DIDerivedType(tag: DW_TAG_pointer_type, baseType: !42, size: 64)
!168 = !DITemplateTypeParameter(name: "_Reference", type: !169)
!169 = !DIDerivedType(tag: DW_TAG_reference_type, baseType: !42, size: 64)
!170 = !DIDerivedType(tag: DW_TAG_member, name: "current", scope: !143, file: !144, line: 133, baseType: !167, size: 64, flags: DIFlagProtected)
!171 = !DISubprogram(name: "reverse_iterator", scope: !143, file: !144, line: 161, type: !172, scopeLine: 161, flags: DIFlagPublic | DIFlagPrototyped, spFlags: 0)
!172 = !DISubroutineType(types: !173)
!173 = !{null, !174}
!174 = !DIDerivedType(tag: DW_TAG_pointer_type, baseType: !143, size: 64, flags: DIFlagArtificial | DIFlagObjectPointer)
!175 = !DISubprogram(name: "reverse_iterator", scope: !143, file: !144, line: 167, type: !176, scopeLine: 167, flags: DIFlagPublic | DIFlagExplicit | DIFlagPrototyped, spFlags: 0)
!176 = !DISubroutineType(types: !177)
!177 = !{null, !174, !178}
!178 = !DIDerivedType(tag: DW_TAG_typedef, name: "iterator_type", scope: !143, file: !144, line: 138, baseType: !167)
!179 = !DISubprogram(name: "reverse_iterator", scope: !143, file: !144, line: 173, type: !180, scopeLine: 173, flags: DIFlagPublic | DIFlagPrototyped, spFlags: 0)
!180 = !DISubroutineType(types: !181)
!181 = !{null, !174, !182}
!182 = !DIDerivedType(tag: DW_TAG_reference_type, baseType: !183, size: 64)
!183 = !DIDerivedType(tag: DW_TAG_const_type, baseType: !143)
!184 = !DISubprogram(name: "operator=", linkageName: "_ZNSt16reverse_iteratorIPtEaSERKS1_", scope: !143, file: !144, line: 177, type: !185, scopeLine: 177, flags: DIFlagPublic | DIFlagPrototyped, spFlags: 0)
!185 = !DISubroutineType(types: !186)
!186 = !{!187, !174, !182}
!187 = !DIDerivedType(tag: DW_TAG_reference_type, baseType: !143, size: 64)
!188 = !DISubprogram(name: "base", linkageName: "_ZNKSt16reverse_iteratorIPtE4baseEv", scope: !143, file: !144, line: 193, type: !189, scopeLine: 193, flags: DIFlagPublic | DIFlagPrototyped, spFlags: 0)
!189 = !DISubroutineType(types: !190)
!190 = !{!178, !191}
!191 = !DIDerivedType(tag: DW_TAG_pointer_type, baseType: !183, size: 64, flags: DIFlagArtificial | DIFlagObjectPointer)
!192 = !DISubprogram(name: "operator*", linkageName: "_ZNKSt16reverse_iteratorIPtEdeEv", scope: !143, file: !144, line: 207, type: !193, scopeLine: 207, flags: DIFlagPublic | DIFlagPrototyped, spFlags: 0)
!193 = !DISubroutineType(types: !194)
!194 = !{!195, !191}
!195 = !DIDerivedType(tag: DW_TAG_typedef, name: "reference", scope: !143, file: !144, line: 141, baseType: !196)
!196 = !DIDerivedType(tag: DW_TAG_typedef, name: "reference", scope: !197, file: !149, line: 216, baseType: !169)
!197 = distinct !DICompositeType(tag: DW_TAG_structure_type, name: "iterator_traits<unsigned short *>", scope: !145, file: !149, line: 210, size: 8, flags: DIFlagTypePassByValue, elements: !150, templateParams: !198, identifier: "_ZTSSt15iterator_traitsIPtE")
!198 = !{!199}
!199 = !DITemplateTypeParameter(name: "_Iterator", type: !167)
!200 = !DISubprogram(name: "operator->", linkageName: "_ZNKSt16reverse_iteratorIPtEptEv", scope: !143, file: !144, line: 219, type: !201, scopeLine: 219, flags: DIFlagPublic | DIFlagPrototyped, spFlags: 0)
!201 = !DISubroutineType(types: !202)
!202 = !{!203, !191}
!203 = !DIDerivedType(tag: DW_TAG_typedef, name: "pointer", scope: !143, file: !144, line: 140, baseType: !204)
!204 = !DIDerivedType(tag: DW_TAG_typedef, name: "pointer", scope: !197, file: !149, line: 215, baseType: !167)
!205 = !DISubprogram(name: "operator++", linkageName: "_ZNSt16reverse_iteratorIPtEppEv", scope: !143, file: !144, line: 238, type: !206, scopeLine: 238, flags: DIFlagPublic | DIFlagPrototyped, spFlags: 0)
!206 = !DISubroutineType(types: !207)
!207 = !{!187, !174}
!208 = !DISubprogram(name: "operator++", linkageName: "_ZNSt16reverse_iteratorIPtEppEi", scope: !143, file: !144, line: 250, type: !209, scopeLine: 250, flags: DIFlagPublic | DIFlagPrototyped, spFlags: 0)
!209 = !DISubroutineType(types: !210)
!210 = !{!143, !174, !211}
!211 = !DIBasicType(name: "int", size: 32, encoding: DW_ATE_signed)
!212 = !DISubprogram(name: "operator--", linkageName: "_ZNSt16reverse_iteratorIPtEmmEv", scope: !143, file: !144, line: 263, type: !206, scopeLine: 263, flags: DIFlagPublic | DIFlagPrototyped, spFlags: 0)
!213 = !DISubprogram(name: "operator--", linkageName: "_ZNSt16reverse_iteratorIPtEmmEi", scope: !143, file: !144, line: 275, type: !209, scopeLine: 275, flags: DIFlagPublic | DIFlagPrototyped, spFlags: 0)
!214 = !DISubprogram(name: "operator+", linkageName: "_ZNKSt16reverse_iteratorIPtEplEl", scope: !143, file: !144, line: 288, type: !215, scopeLine: 288, flags: DIFlagPublic | DIFlagPrototyped, spFlags: 0)
!215 = !DISubroutineType(types: !216)
!216 = !{!143, !191, !217}
!217 = !DIDerivedType(tag: DW_TAG_typedef, name: "difference_type", scope: !143, file: !144, line: 139, baseType: !218)
!218 = !DIDerivedType(tag: DW_TAG_typedef, name: "difference_type", scope: !197, file: !149, line: 214, baseType: !219)
!219 = !DIDerivedType(tag: DW_TAG_typedef, name: "ptrdiff_t", scope: !145, file: !220, line: 261, baseType: !165)
!220 = !DIFile(filename: "/usr/lib/gcc/x86_64-linux-gnu/10/../../../../include/x86_64-linux-gnu/c++/10/bits/c++config.h", directory: "")
!221 = !DISubprogram(name: "operator+=", linkageName: "_ZNSt16reverse_iteratorIPtEpLEl", scope: !143, file: !144, line: 298, type: !222, scopeLine: 298, flags: DIFlagPublic | DIFlagPrototyped, spFlags: 0)
!222 = !DISubroutineType(types: !223)
!223 = !{!187, !174, !217}
!224 = !DISubprogram(name: "operator-", linkageName: "_ZNKSt16reverse_iteratorIPtEmiEl", scope: !143, file: !144, line: 310, type: !215, scopeLine: 310, flags: DIFlagPublic | DIFlagPrototyped, spFlags: 0)
!225 = !DISubprogram(name: "operator-=", linkageName: "_ZNSt16reverse_iteratorIPtEmIEl", scope: !143, file: !144, line: 320, type: !222, scopeLine: 320, flags: DIFlagPublic | DIFlagPrototyped, spFlags: 0)
!226 = !DISubprogram(name: "operator[]", linkageName: "_ZNKSt16reverse_iteratorIPtEixEl", scope: !143, file: !144, line: 332, type: !227, scopeLine: 332, flags: DIFlagPublic | DIFlagPrototyped, spFlags: 0)
!227 = !DISubroutineType(types: !228)
!228 = !{!195, !191, !217}
!229 = !DISubprogram(name: "rbegin", linkageName: "_ZNK11xalanc_1_1011XalanVectorItNS_31MemoryManagedConstructionTraitsItEEE6rbeginEv", scope: !28, file: !29, line: 725, type: !230, scopeLine: 725, flags: DIFlagPublic | DIFlagPrototyped, spFlags: 0)
!230 = !DISubroutineType(types: !231)
!231 = !{!232, !106}
!232 = !DIDerivedType(tag: DW_TAG_typedef, name: "const_reverse_iterator", scope: !28, file: !29, line: 113, baseType: !233)
!233 = !DIDerivedType(tag: DW_TAG_typedef, name: "const_reverse_iterator_", scope: !28, file: !29, line: 97, baseType: !234)
!234 = distinct !DICompositeType(tag: DW_TAG_class_type, name: "reverse_iterator<const unsigned short *>", scope: !145, file: !144, line: 125, size: 64, flags: DIFlagTypePassByReference | DIFlagNonTrivial, elements: !235, templateParams: !272, identifier: "_ZTSSt16reverse_iteratorIPKtE")
!235 = !{!236, !244, !245, !249, !253, !258, !262, !266, !274, !279, !282, !285, !286, !287, !292, !295, !296, !297}
!236 = !DIDerivedType(tag: DW_TAG_inheritance, scope: !234, baseType: !237, flags: DIFlagPublic, extraData: i32 0)
!237 = distinct !DICompositeType(tag: DW_TAG_structure_type, name: "iterator<std::random_access_iterator_tag, unsigned short, long, const unsigned short *, const unsigned short &>", scope: !145, file: !149, line: 127, size: 8, flags: DIFlagTypePassByValue, elements: !150, templateParams: !238, identifier: "_ZTSSt8iteratorISt26random_access_iterator_tagtlPKtRS1_E")
!238 = !{!152, !163, !164, !239, !242}
!239 = !DITemplateTypeParameter(name: "_Pointer", type: !240)
!240 = !DIDerivedType(tag: DW_TAG_pointer_type, baseType: !241, size: 64)
!241 = !DIDerivedType(tag: DW_TAG_const_type, baseType: !42)
!242 = !DITemplateTypeParameter(name: "_Reference", type: !243)
!243 = !DIDerivedType(tag: DW_TAG_reference_type, baseType: !241, size: 64)
!244 = !DIDerivedType(tag: DW_TAG_member, name: "current", scope: !234, file: !144, line: 133, baseType: !240, size: 64, flags: DIFlagProtected)
!245 = !DISubprogram(name: "reverse_iterator", scope: !234, file: !144, line: 161, type: !246, scopeLine: 161, flags: DIFlagPublic | DIFlagPrototyped, spFlags: 0)
!246 = !DISubroutineType(types: !247)
!247 = !{null, !248}
!248 = !DIDerivedType(tag: DW_TAG_pointer_type, baseType: !234, size: 64, flags: DIFlagArtificial | DIFlagObjectPointer)
!249 = !DISubprogram(name: "reverse_iterator", scope: !234, file: !144, line: 167, type: !250, scopeLine: 167, flags: DIFlagPublic | DIFlagExplicit | DIFlagPrototyped, spFlags: 0)
!250 = !DISubroutineType(types: !251)
!251 = !{null, !248, !252}
!252 = !DIDerivedType(tag: DW_TAG_typedef, name: "iterator_type", scope: !234, file: !144, line: 138, baseType: !240)
!253 = !DISubprogram(name: "reverse_iterator", scope: !234, file: !144, line: 173, type: !254, scopeLine: 173, flags: DIFlagPublic | DIFlagPrototyped, spFlags: 0)
!254 = !DISubroutineType(types: !255)
!255 = !{null, !248, !256}
!256 = !DIDerivedType(tag: DW_TAG_reference_type, baseType: !257, size: 64)
!257 = !DIDerivedType(tag: DW_TAG_const_type, baseType: !234)
!258 = !DISubprogram(name: "operator=", linkageName: "_ZNSt16reverse_iteratorIPKtEaSERKS2_", scope: !234, file: !144, line: 177, type: !259, scopeLine: 177, flags: DIFlagPublic | DIFlagPrototyped, spFlags: 0)
!259 = !DISubroutineType(types: !260)
!260 = !{!261, !248, !256}
!261 = !DIDerivedType(tag: DW_TAG_reference_type, baseType: !234, size: 64)
!262 = !DISubprogram(name: "base", linkageName: "_ZNKSt16reverse_iteratorIPKtE4baseEv", scope: !234, file: !144, line: 193, type: !263, scopeLine: 193, flags: DIFlagPublic | DIFlagPrototyped, spFlags: 0)
!263 = !DISubroutineType(types: !264)
!264 = !{!252, !265}
!265 = !DIDerivedType(tag: DW_TAG_pointer_type, baseType: !257, size: 64, flags: DIFlagArtificial | DIFlagObjectPointer)
!266 = !DISubprogram(name: "operator*", linkageName: "_ZNKSt16reverse_iteratorIPKtEdeEv", scope: !234, file: !144, line: 207, type: !267, scopeLine: 207, flags: DIFlagPublic | DIFlagPrototyped, spFlags: 0)
!267 = !DISubroutineType(types: !268)
!268 = !{!269, !265}
!269 = !DIDerivedType(tag: DW_TAG_typedef, name: "reference", scope: !234, file: !144, line: 141, baseType: !270)
!270 = !DIDerivedType(tag: DW_TAG_typedef, name: "reference", scope: !271, file: !149, line: 227, baseType: !243)
!271 = distinct !DICompositeType(tag: DW_TAG_structure_type, name: "iterator_traits<const unsigned short *>", scope: !145, file: !149, line: 221, size: 8, flags: DIFlagTypePassByValue, elements: !150, templateParams: !272, identifier: "_ZTSSt15iterator_traitsIPKtE")
!272 = !{!273}
!273 = !DITemplateTypeParameter(name: "_Iterator", type: !240)
!274 = !DISubprogram(name: "operator->", linkageName: "_ZNKSt16reverse_iteratorIPKtEptEv", scope: !234, file: !144, line: 219, type: !275, scopeLine: 219, flags: DIFlagPublic | DIFlagPrototyped, spFlags: 0)
!275 = !DISubroutineType(types: !276)
!276 = !{!277, !265}
!277 = !DIDerivedType(tag: DW_TAG_typedef, name: "pointer", scope: !234, file: !144, line: 140, baseType: !278)
!278 = !DIDerivedType(tag: DW_TAG_typedef, name: "pointer", scope: !271, file: !149, line: 226, baseType: !240)
!279 = !DISubprogram(name: "operator++", linkageName: "_ZNSt16reverse_iteratorIPKtEppEv", scope: !234, file: !144, line: 238, type: !280, scopeLine: 238, flags: DIFlagPublic | DIFlagPrototyped, spFlags: 0)
!280 = !DISubroutineType(types: !281)
!281 = !{!261, !248}
!282 = !DISubprogram(name: "operator++", linkageName: "_ZNSt16reverse_iteratorIPKtEppEi", scope: !234, file: !144, line: 250, type: !283, scopeLine: 250, flags: DIFlagPublic | DIFlagPrototyped, spFlags: 0)
!283 = !DISubroutineType(types: !284)
!284 = !{!234, !248, !211}
!285 = !DISubprogram(name: "operator--", linkageName: "_ZNSt16reverse_iteratorIPKtEmmEv", scope: !234, file: !144, line: 263, type: !280, scopeLine: 263, flags: DIFlagPublic | DIFlagPrototyped, spFlags: 0)
!286 = !DISubprogram(name: "operator--", linkageName: "_ZNSt16reverse_iteratorIPKtEmmEi", scope: !234, file: !144, line: 275, type: !283, scopeLine: 275, flags: DIFlagPublic | DIFlagPrototyped, spFlags: 0)
!287 = !DISubprogram(name: "operator+", linkageName: "_ZNKSt16reverse_iteratorIPKtEplEl", scope: !234, file: !144, line: 288, type: !288, scopeLine: 288, flags: DIFlagPublic | DIFlagPrototyped, spFlags: 0)
!288 = !DISubroutineType(types: !289)
!289 = !{!234, !265, !290}
!290 = !DIDerivedType(tag: DW_TAG_typedef, name: "difference_type", scope: !234, file: !144, line: 139, baseType: !291)
!291 = !DIDerivedType(tag: DW_TAG_typedef, name: "difference_type", scope: !271, file: !149, line: 225, baseType: !219)
!292 = !DISubprogram(name: "operator+=", linkageName: "_ZNSt16reverse_iteratorIPKtEpLEl", scope: !234, file: !144, line: 298, type: !293, scopeLine: 298, flags: DIFlagPublic | DIFlagPrototyped, spFlags: 0)
!293 = !DISubroutineType(types: !294)
!294 = !{!261, !248, !290}
!295 = !DISubprogram(name: "operator-", linkageName: "_ZNKSt16reverse_iteratorIPKtEmiEl", scope: !234, file: !144, line: 310, type: !288, scopeLine: 310, flags: DIFlagPublic | DIFlagPrototyped, spFlags: 0)
!296 = !DISubprogram(name: "operator-=", linkageName: "_ZNSt16reverse_iteratorIPKtEmIEl", scope: !234, file: !144, line: 320, type: !293, scopeLine: 320, flags: DIFlagPublic | DIFlagPrototyped, spFlags: 0)
!297 = !DISubprogram(name: "operator[]", linkageName: "_ZNKSt16reverse_iteratorIPKtEixEl", scope: !234, file: !144, line: 332, type: !298, scopeLine: 332, flags: DIFlagPublic | DIFlagPrototyped, spFlags: 0)
!298 = !DISubroutineType(types: !299)
!299 = !{!269, !265, !290}
!300 = !DISubprogram(name: "rend", linkageName: "_ZN11xalanc_1_1011XalanVectorItNS_31MemoryManagedConstructionTraitsItEEE4rendEv", scope: !28, file: !29, line: 733, type: !139, scopeLine: 733, flags: DIFlagPublic | DIFlagPrototyped, spFlags: 0)
!301 = !DISubprogram(name: "rend", linkageName: "_ZNK11xalanc_1_1011XalanVectorItNS_31MemoryManagedConstructionTraitsItEEE4rendEv", scope: !28, file: !29, line: 741, type: !230, scopeLine: 741, flags: DIFlagPublic | DIFlagPrototyped, spFlags: 0)
!302 = !DISubprogram(name: "at", linkageName: "_ZN11xalanc_1_1011XalanVectorItNS_31MemoryManagedConstructionTraitsItEEE2atEm", scope: !28, file: !29, line: 750, type: !303, scopeLine: 750, flags: DIFlagPublic | DIFlagPrototyped, spFlags: 0)
!303 = !DISubroutineType(types: !304)
!304 = !{!122, !46, !37}
!305 = !DISubprogram(name: "at", linkageName: "_ZNK11xalanc_1_1011XalanVectorItNS_31MemoryManagedConstructionTraitsItEEE2atEm", scope: !28, file: !29, line: 761, type: !306, scopeLine: 761, flags: DIFlagPublic | DIFlagPrototyped, spFlags: 0)
!306 = !DISubroutineType(types: !307)
!307 = !{!127, !106, !37}
!308 = !DISubprogram(name: "operator[]", linkageName: "_ZN11xalanc_1_1011XalanVectorItNS_31MemoryManagedConstructionTraitsItEEEixEm", scope: !28, file: !29, line: 772, type: !303, scopeLine: 772, flags: DIFlagPublic | DIFlagPrototyped, spFlags: 0)
!309 = !DISubprogram(name: "operator[]", linkageName: "_ZNK11xalanc_1_1011XalanVectorItNS_31MemoryManagedConstructionTraitsItEEEixEm", scope: !28, file: !29, line: 780, type: !306, scopeLine: 780, flags: DIFlagPublic | DIFlagPrototyped, spFlags: 0)
!310 = !DISubprogram(name: "clear", linkageName: "_ZN11xalanc_1_1011XalanVectorItNS_31MemoryManagedConstructionTraitsItEEE5clearEv", scope: !28, file: !29, line: 788, type: !72, scopeLine: 788, flags: DIFlagPublic | DIFlagPrototyped, spFlags: 0)
!311 = !DISubprogram(name: "operator=", linkageName: "_ZN11xalanc_1_1011XalanVectorItNS_31MemoryManagedConstructionTraitsItEEEaSERKS3_", scope: !28, file: !29, line: 802, type: !312, scopeLine: 802, flags: DIFlagPublic | DIFlagPrototyped, spFlags: 0)
!312 = !DISubroutineType(types: !313)
!313 = !{!314, !46, !55}
!314 = !DIDerivedType(tag: DW_TAG_reference_type, baseType: !57, size: 64)
!315 = !DISubprogram(name: "swap", linkageName: "_ZN11xalanc_1_1011XalanVectorItNS_31MemoryManagedConstructionTraitsItEEE4swapERS3_", scope: !28, file: !29, line: 848, type: !316, scopeLine: 848, flags: DIFlagPublic | DIFlagPrototyped, spFlags: 0)
!316 = !DISubroutineType(types: !317)
!317 = !{null, !46, !314}
!318 = !DISubprogram(name: "getMemoryManager", linkageName: "_ZNK11xalanc_1_1011XalanVectorItNS_31MemoryManagedConstructionTraitsItEEE16getMemoryManagerEv", scope: !28, file: !29, line: 871, type: !319, scopeLine: 871, flags: DIFlagPublic | DIFlagPrototyped, spFlags: 0)
!319 = !DISubroutineType(types: !320)
!320 = !{!321, !106}
!321 = !DIDerivedType(tag: DW_TAG_pointer_type, baseType: !322, size: 64)
!322 = !DIDerivedType(tag: DW_TAG_const_type, baseType: !33)
!323 = !DISubprogram(name: "getMemoryManager", linkageName: "_ZN11xalanc_1_1011XalanVectorItNS_31MemoryManagedConstructionTraitsItEEE16getMemoryManagerEv", scope: !28, file: !29, line: 877, type: !324, scopeLine: 877, flags: DIFlagPublic | DIFlagPrototyped, spFlags: 0)
!324 = !DISubroutineType(types: !325)
!325 = !{!47, !46}
!326 = !DISubprogram(name: "detach", linkageName: "_ZN11xalanc_1_1011XalanVectorItNS_31MemoryManagedConstructionTraitsItEEE6detachEv", scope: !28, file: !29, line: 889, type: !327, scopeLine: 889, flags: DIFlagPublic | DIFlagPrototyped, spFlags: 0)
!327 = !DISubroutineType(types: !328)
!328 = !{!329, !46}
!329 = !DIDerivedType(tag: DW_TAG_typedef, name: "pointer", scope: !28, file: !29, line: 67, baseType: !40)
!330 = !DISubprogram(name: "invariants", linkageName: "_ZNK11xalanc_1_1011XalanVectorItNS_31MemoryManagedConstructionTraitsItEEE10invariantsEv", scope: !28, file: !29, line: 905, type: !331, scopeLine: 905, flags: DIFlagPrototyped, spFlags: 0)
!331 = !DISubroutineType(types: !332)
!332 = !{null, !106}
!333 = !DISubprogram(name: "local_distance", linkageName: "_ZN11xalanc_1_1011XalanVectorItNS_31MemoryManagedConstructionTraitsItEEE14local_distanceEPKtS5_", scope: !28, file: !29, line: 918, type: !334, scopeLine: 918, flags: DIFlagPrototyped, spFlags: 0)
!334 = !DISubroutineType(types: !335)
!335 = !{!336, !46, !61, !61}
!336 = !DIDerivedType(tag: DW_TAG_typedef, name: "size_type", scope: !28, file: !29, line: 71, baseType: !5)
!337 = !DISubprogram(name: "allocate", linkageName: "_ZN11xalanc_1_1011XalanVectorItNS_31MemoryManagedConstructionTraitsItEEE8allocateEm", scope: !28, file: !29, line: 938, type: !338, scopeLine: 938, flags: DIFlagPrototyped, spFlags: 0)
!338 = !DISubroutineType(types: !339)
!339 = !{!40, !46, !37}
!340 = !DISubprogram(name: "deallocate", linkageName: "_ZN11xalanc_1_1011XalanVectorItNS_31MemoryManagedConstructionTraitsItEEE10deallocateEPt", scope: !28, file: !29, line: 952, type: !341, scopeLine: 952, flags: DIFlagPrototyped, spFlags: 0)
!341 = !DISubroutineType(types: !342)
!342 = !{null, !46, !40}
!343 = !DISubprogram(name: "destroy", linkageName: "_ZN11xalanc_1_1011XalanVectorItNS_31MemoryManagedConstructionTraitsItEEE7destroyERt", scope: !28, file: !29, line: 961, type: !344, scopeLine: 961, flags: DIFlagPrototyped | DIFlagStaticMember, spFlags: 0)
!344 = !DISubroutineType(types: !345)
!345 = !{null, !123}
!346 = !DISubprogram(name: "destroy", linkageName: "_ZN11xalanc_1_1011XalanVectorItNS_31MemoryManagedConstructionTraitsItEEE7destroyEPtS4_", scope: !28, file: !29, line: 967, type: !347, scopeLine: 967, flags: DIFlagPrototyped | DIFlagStaticMember, spFlags: 0)
!347 = !DISubroutineType(types: !348)
!348 = !{null, !81, !81}
!349 = !DISubprogram(name: "doPushBack", linkageName: "_ZN11xalanc_1_1011XalanVectorItNS_31MemoryManagedConstructionTraitsItEEE10doPushBackERKt", scope: !28, file: !29, line: 978, type: !75, scopeLine: 978, flags: DIFlagPrototyped, spFlags: 0)
!350 = !DISubprogram(name: "ensureCapacity", linkageName: "_ZN11xalanc_1_1011XalanVectorItNS_31MemoryManagedConstructionTraitsItEEE14ensureCapacityEm", scope: !28, file: !29, line: 1006, type: !351, scopeLine: 1006, flags: DIFlagPrototyped, spFlags: 0)
!351 = !DISubroutineType(types: !352)
!352 = !{!329, !46, !37}
!353 = !DISubprogram(name: "doReserve", linkageName: "_ZN11xalanc_1_1011XalanVectorItNS_31MemoryManagedConstructionTraitsItEEE9doReserveEm", scope: !28, file: !29, line: 1017, type: !110, scopeLine: 1017, flags: DIFlagPrototyped, spFlags: 0)
!354 = !DISubprogram(name: "endPointer", linkageName: "_ZN11xalanc_1_1011XalanVectorItNS_31MemoryManagedConstructionTraitsItEEE10endPointerEv", scope: !28, file: !29, line: 1031, type: !327, scopeLine: 1031, flags: DIFlagPrototyped, spFlags: 0)
!355 = !DISubprogram(name: "endPointer", linkageName: "_ZNK11xalanc_1_1011XalanVectorItNS_31MemoryManagedConstructionTraitsItEEE10endPointerEv", scope: !28, file: !29, line: 1037, type: !356, scopeLine: 1037, flags: DIFlagPrototyped, spFlags: 0)
!356 = !DISubroutineType(types: !357)
!357 = !{!358, !106}
!358 = !DIDerivedType(tag: DW_TAG_typedef, name: "const_pointer", scope: !28, file: !29, line: 68, baseType: !62)
!359 = !DISubprogram(name: "outOfRange", linkageName: "_ZN11xalanc_1_1011XalanVectorItNS_31MemoryManagedConstructionTraitsItEEE10outOfRangeEv", scope: !28, file: !29, line: 1043, type: !360, scopeLine: 1043, flags: DIFlagPrototyped | DIFlagStaticMember, spFlags: 0)
!360 = !DISubroutineType(types: !361)
!361 = !{null}
!362 = !DISubprogram(name: "shrinkToSize", linkageName: "_ZN11xalanc_1_1011XalanVectorItNS_31MemoryManagedConstructionTraitsItEEE12shrinkToSizeEm", scope: !28, file: !29, line: 1049, type: !110, scopeLine: 1049, flags: DIFlagPrototyped, spFlags: 0)
!363 = !DISubprogram(name: "shrinkCount", linkageName: "_ZN11xalanc_1_1011XalanVectorItNS_31MemoryManagedConstructionTraitsItEEE11shrinkCountEm", scope: !28, file: !29, line: 1060, type: !110, scopeLine: 1060, flags: DIFlagPrototyped, spFlags: 0)
!364 = !DISubprogram(name: "local_max", linkageName: "_ZN11xalanc_1_1011XalanVectorItNS_31MemoryManagedConstructionTraitsItEEE9local_maxEmm", scope: !28, file: !29, line: 1073, type: !365, scopeLine: 1073, flags: DIFlagPrototyped, spFlags: 0)
!365 = !DISubroutineType(types: !366)
!366 = !{!336, !46, !37, !37}
!367 = !{!368, !369}
!368 = !DITemplateTypeParameter(name: "Type", type: !42)
!369 = !DITemplateTypeParameter(name: "ConstructionTraits", type: !370)
!370 = distinct !DICompositeType(tag: DW_TAG_structure_type, name: "MemoryManagedConstructionTraits<unsigned short>", scope: !2, file: !371, line: 462, size: 8, flags: DIFlagTypePassByValue, elements: !150, templateParams: !372, identifier: "_ZTSN11xalanc_1_1031MemoryManagedConstructionTraitsItEE")
!371 = !DIFile(filename: "./xalanc/Include/XalanMemoryManagement.hpp", directory: "/home/venkat/IF-DV/spec_build_release/CPU_2017/benchspec/CPU/523.xalancbmk_r/build/build_base_ld-loop-ext-m64.0000")
!372 = !{!373}
!373 = !DITemplateTypeParameter(name: "C", type: !42)
!374 = !DIDerivedType(tag: DW_TAG_member, name: "m_size", scope: !19, file: !20, line: 795, baseType: !24, size: 32, offset: 256)
!375 = !DIDerivedType(tag: DW_TAG_member, name: "s_empty", scope: !19, file: !20, line: 797, baseType: !376, flags: DIFlagStaticMember)
!376 = !DIDerivedType(tag: DW_TAG_const_type, baseType: !377)
!377 = !DIDerivedType(tag: DW_TAG_typedef, name: "XalanDOMChar", scope: !2, file: !378, line: 127, baseType: !42)
!378 = !DIFile(filename: "./xalanc/Include/PlatformDefinitions.hpp", directory: "/home/venkat/IF-DV/spec_build_release/CPU_2017/benchspec/CPU/523.xalancbmk_r/build/build_base_ld-loop-ext-m64.0000")
!379 = !DISubprogram(name: "XalanDOMString", scope: !19, file: !20, line: 66, type: !380, scopeLine: 66, flags: DIFlagPublic | DIFlagPrototyped, spFlags: 0)
!380 = !DISubroutineType(types: !381)
!381 = !{null, !382, !383}
!382 = !DIDerivedType(tag: DW_TAG_pointer_type, baseType: !19, size: 64, flags: DIFlagArtificial | DIFlagObjectPointer)
!383 = !DIDerivedType(tag: DW_TAG_reference_type, baseType: !384, size: 64)
!384 = !DIDerivedType(tag: DW_TAG_typedef, name: "MemoryManagerType", scope: !2, file: !371, line: 39, baseType: !33)
!385 = !DISubprogram(name: "XalanDOMString", scope: !19, file: !20, line: 69, type: !386, scopeLine: 69, flags: DIFlagPublic | DIFlagExplicit | DIFlagPrototyped, spFlags: 0)
!386 = !DISubroutineType(types: !387)
!387 = !{null, !382, !388, !383, !24}
!388 = !DIDerivedType(tag: DW_TAG_pointer_type, baseType: !389, size: 64)
!389 = !DIDerivedType(tag: DW_TAG_const_type, baseType: !390)
!390 = !DIBasicType(name: "char", size: 8, encoding: DW_ATE_signed_char)
!391 = !DISubprogram(name: "XalanDOMString", scope: !19, file: !20, line: 74, type: !392, scopeLine: 74, flags: DIFlagPublic | DIFlagPrototyped, spFlags: 0)
!392 = !DISubroutineType(types: !393)
!393 = !{null, !382, !17, !383, !24, !24}
!394 = !DISubprogram(name: "XalanDOMString", scope: !19, file: !20, line: 81, type: !395, scopeLine: 81, flags: DIFlagPublic | DIFlagExplicit | DIFlagPrototyped, spFlags: 0)
!395 = !DISubroutineType(types: !396)
!396 = !{null, !382, !397, !383, !24}
!397 = !DIDerivedType(tag: DW_TAG_pointer_type, baseType: !376, size: 64)
!398 = !DISubprogram(name: "XalanDOMString", scope: !19, file: !20, line: 86, type: !399, scopeLine: 86, flags: DIFlagPublic | DIFlagPrototyped, spFlags: 0)
!399 = !DISubroutineType(types: !400)
!400 = !{null, !382, !24, !377, !383}
!401 = !DISubprogram(name: "clone", linkageName: "_ZN11xalanc_1_1014XalanDOMString5cloneERN11xercesc_2_713MemoryManagerE", scope: !19, file: !20, line: 92, type: !402, scopeLine: 92, flags: DIFlagPublic | DIFlagPrototyped, spFlags: 0)
!402 = !DISubroutineType(types: !403)
!403 = !{!404, !382, !383}
!404 = !DIDerivedType(tag: DW_TAG_pointer_type, baseType: !19, size: 64)
!405 = !DISubprogram(name: "~XalanDOMString", scope: !19, file: !20, line: 94, type: !406, scopeLine: 94, flags: DIFlagPublic | DIFlagPrototyped, spFlags: 0)
!406 = !DISubroutineType(types: !407)
!407 = !{null, !382}
!408 = !DISubprogram(name: "operator=", linkageName: "_ZN11xalanc_1_1014XalanDOMStringaSERKS0_", scope: !19, file: !20, line: 99, type: !409, scopeLine: 99, flags: DIFlagPublic | DIFlagPrototyped, spFlags: 0)
!409 = !DISubroutineType(types: !410)
!410 = !{!411, !382, !17}
!411 = !DIDerivedType(tag: DW_TAG_reference_type, baseType: !19, size: 64)
!412 = !DISubprogram(name: "operator=", linkageName: "_ZN11xalanc_1_1014XalanDOMStringaSEPKt", scope: !19, file: !20, line: 105, type: !413, scopeLine: 105, flags: DIFlagPublic | DIFlagPrototyped, spFlags: 0)
!413 = !DISubroutineType(types: !414)
!414 = !{!411, !382, !397}
!415 = !DISubprogram(name: "operator=", linkageName: "_ZN11xalanc_1_1014XalanDOMStringaSEPKc", scope: !19, file: !20, line: 111, type: !416, scopeLine: 111, flags: DIFlagPublic | DIFlagPrototyped, spFlags: 0)
!416 = !DISubroutineType(types: !417)
!417 = !{!411, !382, !388}
!418 = !DISubprogram(name: "operator=", linkageName: "_ZN11xalanc_1_1014XalanDOMStringaSEt", scope: !19, file: !20, line: 117, type: !419, scopeLine: 117, flags: DIFlagPublic | DIFlagPrototyped, spFlags: 0)
!419 = !DISubroutineType(types: !420)
!420 = !{!411, !382, !377}
!421 = !DISubprogram(name: "begin", linkageName: "_ZN11xalanc_1_1014XalanDOMString5beginEv", scope: !19, file: !20, line: 123, type: !422, scopeLine: 123, flags: DIFlagPublic | DIFlagPrototyped, spFlags: 0)
!422 = !DISubroutineType(types: !423)
!423 = !{!424, !382}
!424 = !DIDerivedType(tag: DW_TAG_typedef, name: "iterator", scope: !19, file: !20, line: 55, baseType: !81)
!425 = !DISubprogram(name: "begin", linkageName: "_ZNK11xalanc_1_1014XalanDOMString5beginEv", scope: !19, file: !20, line: 131, type: !426, scopeLine: 131, flags: DIFlagPublic | DIFlagPrototyped, spFlags: 0)
!426 = !DISubroutineType(types: !427)
!427 = !{!428, !429}
!428 = !DIDerivedType(tag: DW_TAG_typedef, name: "const_iterator", scope: !19, file: !20, line: 56, baseType: !61)
!429 = !DIDerivedType(tag: DW_TAG_pointer_type, baseType: !18, size: 64, flags: DIFlagArtificial | DIFlagObjectPointer)
!430 = !DISubprogram(name: "end", linkageName: "_ZN11xalanc_1_1014XalanDOMString3endEv", scope: !19, file: !20, line: 139, type: !422, scopeLine: 139, flags: DIFlagPublic | DIFlagPrototyped, spFlags: 0)
!431 = !DISubprogram(name: "end", linkageName: "_ZNK11xalanc_1_1014XalanDOMString3endEv", scope: !19, file: !20, line: 147, type: !426, scopeLine: 147, flags: DIFlagPublic | DIFlagPrototyped, spFlags: 0)
!432 = !DISubprogram(name: "rbegin", linkageName: "_ZN11xalanc_1_1014XalanDOMString6rbeginEv", scope: !19, file: !20, line: 155, type: !433, scopeLine: 155, flags: DIFlagPublic | DIFlagPrototyped, spFlags: 0)
!433 = !DISubroutineType(types: !434)
!434 = !{!435, !382}
!435 = !DIDerivedType(tag: DW_TAG_typedef, name: "reverse_iterator", scope: !19, file: !20, line: 57, baseType: !141)
!436 = !DISubprogram(name: "rbegin", linkageName: "_ZNK11xalanc_1_1014XalanDOMString6rbeginEv", scope: !19, file: !20, line: 170, type: !437, scopeLine: 170, flags: DIFlagPublic | DIFlagPrototyped, spFlags: 0)
!437 = !DISubroutineType(types: !438)
!438 = !{!439, !429}
!439 = !DIDerivedType(tag: DW_TAG_typedef, name: "const_reverse_iterator", scope: !19, file: !20, line: 58, baseType: !232)
!440 = !DISubprogram(name: "rend", linkageName: "_ZN11xalanc_1_1014XalanDOMString4rendEv", scope: !19, file: !20, line: 185, type: !433, scopeLine: 185, flags: DIFlagPublic | DIFlagPrototyped, spFlags: 0)
!441 = !DISubprogram(name: "rend", linkageName: "_ZNK11xalanc_1_1014XalanDOMString4rendEv", scope: !19, file: !20, line: 193, type: !437, scopeLine: 193, flags: DIFlagPublic | DIFlagPrototyped, spFlags: 0)
!442 = !DISubprogram(name: "size", linkageName: "_ZNK11xalanc_1_1014XalanDOMString4sizeEv", scope: !19, file: !20, line: 201, type: !443, scopeLine: 201, flags: DIFlagPublic | DIFlagPrototyped, spFlags: 0)
!443 = !DISubroutineType(types: !444)
!444 = !{!24, !429}
!445 = !DISubprogram(name: "length", linkageName: "_ZNK11xalanc_1_1014XalanDOMString6lengthEv", scope: !19, file: !20, line: 209, type: !443, scopeLine: 209, flags: DIFlagPublic | DIFlagPrototyped, spFlags: 0)
!446 = !DISubprogram(name: "max_size", linkageName: "_ZNK11xalanc_1_1014XalanDOMString8max_sizeEv", scope: !19, file: !20, line: 217, type: !443, scopeLine: 217, flags: DIFlagPublic | DIFlagPrototyped, spFlags: 0)
!447 = !DISubprogram(name: "resize", linkageName: "_ZN11xalanc_1_1014XalanDOMString6resizeEjt", scope: !19, file: !20, line: 225, type: !448, scopeLine: 225, flags: DIFlagPublic | DIFlagPrototyped, spFlags: 0)
!448 = !DISubroutineType(types: !449)
!449 = !{null, !382, !24, !377}
