; ModuleID = 'IGXMLScanner.cpp'
source_filename = "IGXMLScanner.cpp"
target datalayout = "e-m:e-p270:32:32-p271:32:32-p272:64:64-i64:64-f80:128-n8:16:32:64-S128"
target triple = "x86_64-unknown-linux-gnu"

%"class.xercesc_2_7::IGXMLScanner" = type { %"class.xercesc_2_7::XMLScanner", i8, i32, i32, i32*, %"class.xercesc_2_7::XMLBuffer", %"class.xercesc_2_7::RefVectorOf.17"*, i32, i32*, %"class.xercesc_2_7::DTDValidator"*, %"class.xercesc_2_7::SchemaValidator"*, %"class.xercesc_2_7::DTDGrammar"*, %"class.xercesc_2_7::IdentityConstraintHandler"*, %"class.xercesc_2_7::ValueVectorOf.56"*, %"class.xercesc_2_7::NameIdPool"*, %"class.xercesc_2_7::RefHash3KeysIdPool"*, i32, %"class.xercesc_2_7::RefHashTableOf.57"*, %"class.xercesc_2_7::RefHashTableOf.57"*, %"class.xercesc_2_7::RefHash2KeysTableOf.59"*, %"class.xercesc_2_7::PSVIAttributeList"*, %"class.xercesc_2_7::XSModel"*, %"class.xercesc_2_7::PSVIElement"*, %"class.xercesc_2_7::ValueStackOf.63"*, %"struct.xercesc_2_7::PSVIElemContext" }
%"class.xercesc_2_7::XMLScanner" = type { %"class.xercesc_2_7::XMLBufferFullHandler", i64, i8, i8, i8, i8, i8, i8, i8, i8, i8, i8, i8, i8, i8, i8, i8, i8, i8, i8, i8, i8, i8, i8, i8, i32, i32, i32, i32, i32, i32, i32, i32, i32**, i32, i32, i32, i32, i32, %"class.xercesc_2_7::RefVectorOf.10"*, %"class.xercesc_2_7::RefHash2KeysTableOf"*, %"class.xercesc_2_7::XMLDocumentHandler"*, %"class.xercesc_2_7::DocTypeHandler"*, %"class.xercesc_2_7::XMLEntityHandler"*, %"class.xercesc_2_7::XMLErrorReporter"*, %"class.xercesc_2_7::ErrorHandler"*, %"class.xercesc_2_7::PSVIHandler"*, %"class.xercesc_2_7::ValidationContext"*, i8, %"class.xercesc_2_7::ReaderMgr", %"class.xercesc_2_7::XMLValidator"*, i32, %"class.xercesc_2_7::GrammarResolver"*, %"class.xercesc_2_7::MemoryManager"*, %"class.xercesc_2_7::Grammar"*, %"class.xercesc_2_7::Grammar"*, %"class.xercesc_2_7::XMLStringPool"*, i16*, i16*, i16*, %"class.xercesc_2_7::SecurityManager"*, i32, %"class.xercesc_2_7::MemoryManager"*, %"class.xercesc_2_7::XMLBufferMgr", %"class.xercesc_2_7::XMLBuffer", %"class.xercesc_2_7::XMLBuffer", %"class.xercesc_2_7::XMLBuffer", %"class.xercesc_2_7::XMLBuffer", %"class.xercesc_2_7::XMLBuffer", %"class.xercesc_2_7::XMLBuffer", %"class.xercesc_2_7::XMLBuffer", %"class.xercesc_2_7::ElemStack" }
%"class.xercesc_2_7::XMLBufferFullHandler" = type { i32 (...)** }
%"class.xercesc_2_7::RefVectorOf.10" = type { %"class.xercesc_2_7::BaseRefVectorOf.11" }
%"class.xercesc_2_7::BaseRefVectorOf.11" = type { i32 (...)**, i8, i32, i32, %"class.xercesc_2_7::XMLAttr"**, %"class.xercesc_2_7::MemoryManager"* }
%"class.xercesc_2_7::XMLAttr" = type <{ i8, [3 x i8], i32, i32, [4 x i8], i16*, %"class.xercesc_2_7::QName"*, %"class.xercesc_2_7::MemoryManager"*, %"class.xercesc_2_7::DatatypeValidator"*, i8, [7 x i8] }>
%"class.xercesc_2_7::QName" = type { %"class.xercesc_2_7::XSerializable", i32, i32, i32, i32, i16*, i16*, i16*, %"class.xercesc_2_7::MemoryManager"* }
%"class.xercesc_2_7::XSerializable" = type { i32 (...)** }
%"class.xercesc_2_7::DatatypeValidator" = type { %"class.xercesc_2_7::XSerializable", i8, i8, i8, i8, i16, i32, i32, i32, i32, i32, %"class.xercesc_2_7::DatatypeValidator"*, %"class.xercesc_2_7::RefHashTableOf.3"*, i16*, %"class.xercesc_2_7::RegularExpression"*, i16*, i16*, i16*, %"class.xercesc_2_7::MemoryManager"* }
%"class.xercesc_2_7::RefHashTableOf.3" = type opaque
%"class.xercesc_2_7::RegularExpression" = type { i8, i8, i32, i32, i32, i32, %"class.xercesc_2_7::BMPattern"*, i16*, i16*, %"class.xercesc_2_7::Op"*, %"class.xercesc_2_7::Token"*, %"class.xercesc_2_7::RangeToken"*, %"class.xercesc_2_7::OpFactory", %"class.xercesc_2_7::TokenFactory"*, %"class.xercesc_2_7::MemoryManager"* }
%"class.xercesc_2_7::BMPattern" = type { i8, i32, i32*, i16*, i16*, %"class.xercesc_2_7::MemoryManager"* }
%"class.xercesc_2_7::Op" = type { i32 (...)**, %"class.xercesc_2_7::MemoryManager"*, i16, %"class.xercesc_2_7::Op"* }
%"class.xercesc_2_7::Token" = type { i32 (...)**, i16, %"class.xercesc_2_7::MemoryManager"* }
%"class.xercesc_2_7::RangeToken" = type opaque
%"class.xercesc_2_7::OpFactory" = type { %"class.xercesc_2_7::RefVectorOf.4"*, %"class.xercesc_2_7::MemoryManager"* }
%"class.xercesc_2_7::RefVectorOf.4" = type { %"class.xercesc_2_7::BaseRefVectorOf.5" }
%"class.xercesc_2_7::BaseRefVectorOf.5" = type { i32 (...)**, i8, i32, i32, %"class.xercesc_2_7::Op"**, %"class.xercesc_2_7::MemoryManager"* }
%"class.xercesc_2_7::TokenFactory" = type { %"class.xercesc_2_7::RefVectorOf.6"*, %"class.xercesc_2_7::Token"*, %"class.xercesc_2_7::Token"*, %"class.xercesc_2_7::Token"*, %"class.xercesc_2_7::Token"*, %"class.xercesc_2_7::Token"*, %"class.xercesc_2_7::Token"*, %"class.xercesc_2_7::Token"*, %"class.xercesc_2_7::Token"*, %"class.xercesc_2_7::Token"*, %"class.xercesc_2_7::Token"*, %"class.xercesc_2_7::Token"*, %"class.xercesc_2_7::Token"*, %"class.xercesc_2_7::Token"*, %"class.xercesc_2_7::Token"*, %"class.xercesc_2_7::MemoryManager"* }
%"class.xercesc_2_7::RefVectorOf.6" = type opaque
%"class.xercesc_2_7::RefHash2KeysTableOf" = type { %"class.xercesc_2_7::MemoryManager"*, i8, %"struct.xercesc_2_7::RefHash2KeysTableBucketElem"**, i32, i32, %"class.xercesc_2_7::HashBase"* }
%"struct.xercesc_2_7::RefHash2KeysTableBucketElem" = type <{ %"class.xercesc_2_7::XMLAttr"*, %"struct.xercesc_2_7::RefHash2KeysTableBucketElem"*, i8*, i32, [4 x i8] }>
%"class.xercesc_2_7::HashBase" = type { i32 (...)** }
%"class.xercesc_2_7::XMLDocumentHandler" = type { i32 (...)** }
%"class.xercesc_2_7::DocTypeHandler" = type { i32 (...)** }
%"class.xercesc_2_7::XMLEntityHandler" = type { i32 (...)** }
%"class.xercesc_2_7::XMLErrorReporter" = type { i32 (...)** }
%"class.xercesc_2_7::ErrorHandler" = type opaque
%"class.xercesc_2_7::PSVIHandler" = type { i32 (...)** }
%"class.xercesc_2_7::ValidationContext" = type { i32 (...)**, %"class.xercesc_2_7::MemoryManager"* }
%"class.xercesc_2_7::ReaderMgr" = type { %"class.xercesc_2_7::Locator", %"class.xercesc_2_7::XMLEntityDecl"*, %"class.xercesc_2_7::XMLReader"*, %"class.xercesc_2_7::XMLEntityHandler"*, %"class.xercesc_2_7::RefStackOf"*, i32, %"class.xercesc_2_7::RefStackOf.12"*, i8, i32, i8, %"class.xercesc_2_7::MemoryManager"* }
%"class.xercesc_2_7::Locator" = type { i32 (...)** }
%"class.xercesc_2_7::XMLEntityDecl" = type { %"class.xercesc_2_7::XSerializable", i32, i32, i16*, i16*, i16*, i16*, i16*, i16*, %"class.xercesc_2_7::MemoryManager"* }
%"class.xercesc_2_7::XMLReader" = type { i32, [16384 x i16], i32, [16384 x i8], [16384 x i32], i64, i64, i32, i16*, i8, i8, i16*, i32, [49152 x i8], i32, i32, i32, i8, i32, i32, i8, i8, i16*, %"class.xercesc_2_7::BinInputStream"*, i8, i8, %"class.xercesc_2_7::XMLTranscoder"*, i32, i8*, i8, i32, %"class.xercesc_2_7::MemoryManager"* }
%"class.xercesc_2_7::BinInputStream" = type opaque
%"class.xercesc_2_7::XMLTranscoder" = type opaque
%"class.xercesc_2_7::RefStackOf" = type opaque
%"class.xercesc_2_7::RefStackOf.12" = type opaque
%"class.xercesc_2_7::Grammar" = type { %"class.xercesc_2_7::XSerializable" }
%"class.xercesc_2_7::XMLStringPool" = type { %"class.xercesc_2_7::XSerializable", %"class.xercesc_2_7::MemoryManager"*, %"struct.xercesc_2_7::XMLStringPool::PoolElem"**, %"class.xercesc_2_7::RefHashTableOf"*, i32, i32 }
%"struct.xercesc_2_7::XMLStringPool::PoolElem" = type { i32, i16* }
%"class.xercesc_2_7::RefHashTableOf" = type { %"class.xercesc_2_7::MemoryManager"*, i8, %"struct.xercesc_2_7::RefHashTableBucketElem"**, i32, i32, i32, %"class.xercesc_2_7::HashBase"* }
%"struct.xercesc_2_7::RefHashTableBucketElem" = type { %"struct.xercesc_2_7::XMLStringPool::PoolElem"*, %"struct.xercesc_2_7::RefHashTableBucketElem"*, i8* }
%"class.xercesc_2_7::SecurityManager" = type <{ i32 (...)**, i32, [4 x i8] }>
%"class.xercesc_2_7::XMLBufferMgr" = type { i32, %"class.xercesc_2_7::MemoryManager"*, %"class.xercesc_2_7::XMLBuffer"** }
%"class.xercesc_2_7::ElemStack" = type { i32, i32, %"class.xercesc_2_7::XMLStringPool", %"struct.xercesc_2_7::ElemStack::StackElem"**, i32, i32, i32, i32, i32, i32, i32, %"class.xercesc_2_7::ValueVectorOf.16"*, %"class.xercesc_2_7::MemoryManager"* }
%"struct.xercesc_2_7::ElemStack::StackElem" = type { %"class.xercesc_2_7::XMLElementDecl"*, i32, i32, i32, %"class.xercesc_2_7::QName"**, %"struct.xercesc_2_7::PrefMapElem"*, i32, i32, i8, i8, i8, i32, %"class.xercesc_2_7::Grammar"*, i32, i16*, i32, i32 }
%"class.xercesc_2_7::XMLElementDecl" = type <{ %"class.xercesc_2_7::XSerializable", %"class.xercesc_2_7::MemoryManager"*, %"class.xercesc_2_7::QName"*, i32, i32, i8, [7 x i8] }>
%"struct.xercesc_2_7::PrefMapElem" = type { i32, i32 }
%"class.xercesc_2_7::ValueVectorOf.16" = type opaque
%"class.xercesc_2_7::XMLBuffer" = type { i32, i32, i32, i8, %"class.xercesc_2_7::MemoryManager"*, %"class.xercesc_2_7::XMLBufferFullHandler"*, i16* }
%"class.xercesc_2_7::RefVectorOf.17" = type { %"class.xercesc_2_7::BaseRefVectorOf.18" }
%"class.xercesc_2_7::BaseRefVectorOf.18" = type { i32 (...)**, i8, i32, i32, %"class.xercesc_2_7::KVStringPair"**, %"class.xercesc_2_7::MemoryManager"* }
%"class.xercesc_2_7::KVStringPair" = type { %"class.xercesc_2_7::XSerializable", i64, i64, i16*, i16*, %"class.xercesc_2_7::MemoryManager"* }
%"class.xercesc_2_7::DTDValidator" = type { %"class.xercesc_2_7::XMLValidator", %"class.xercesc_2_7::DTDGrammar"* }
%"class.xercesc_2_7::XMLValidator" = type { i32 (...)**, %"class.xercesc_2_7::XMLBufferMgr"*, %"class.xercesc_2_7::XMLErrorReporter"*, %"class.xercesc_2_7::ReaderMgr"*, %"class.xercesc_2_7::XMLScanner"* }
%"class.xercesc_2_7::SchemaValidator" = type <{ %"class.xercesc_2_7::XMLValidator", %"class.xercesc_2_7::MemoryManager"*, %"class.xercesc_2_7::SchemaGrammar"*, %"class.xercesc_2_7::GrammarResolver"*, %"class.xercesc_2_7::QName"*, i8, [7 x i8], %"class.xercesc_2_7::DatatypeValidator"*, %"class.xercesc_2_7::XMLBuffer"*, %"class.xercesc_2_7::XMLBuffer", i8, i8, [6 x i8], %"class.xercesc_2_7::XSDErrorReporter", %"class.xercesc_2_7::ValueStackOf"*, %"class.xercesc_2_7::DatatypeValidator"*, i8, i8, [6 x i8] }>
%"class.xercesc_2_7::SchemaGrammar" = type { %"class.xercesc_2_7::Grammar", i16*, %"class.xercesc_2_7::RefHash3KeysIdPool"*, %"class.xercesc_2_7::RefHash3KeysIdPool"*, %"class.xercesc_2_7::RefHash3KeysIdPool"*, %"class.xercesc_2_7::NameIdPool.23"*, %"class.xercesc_2_7::RefHashTableOf.35"*, %"class.xercesc_2_7::RefHashTableOf.36"*, %"class.xercesc_2_7::RefHashTableOf.37"*, %"class.xercesc_2_7::RefHashTableOf.38"*, %"class.xercesc_2_7::NamespaceScope"*, %"class.xercesc_2_7::RefHash2KeysTableOf.39"*, %"class.xercesc_2_7::ValidationContext"*, %"class.xercesc_2_7::MemoryManager"*, %"class.xercesc_2_7::XMLSchemaDescription"*, %"class.xercesc_2_7::RefHashTableOf.40"*, i8, %"class.xercesc_2_7::DatatypeValidatorFactory" }
%"class.xercesc_2_7::NameIdPool.23" = type <{ %"class.xercesc_2_7::MemoryManager"*, %"struct.xercesc_2_7::NameIdPoolBucketElem.24"**, %"class.xercesc_2_7::XMLNotationDecl"**, i32, i32, i32, [4 x i8] }>
%"struct.xercesc_2_7::NameIdPoolBucketElem.24" = type { %"class.xercesc_2_7::XMLNotationDecl"*, %"struct.xercesc_2_7::NameIdPoolBucketElem.24"* }
%"class.xercesc_2_7::XMLNotationDecl" = type { %"class.xercesc_2_7::XSerializable", i32, i32, i16*, i16*, i16*, i16*, %"class.xercesc_2_7::MemoryManager"* }
%"class.xercesc_2_7::RefHashTableOf.35" = type opaque
%"class.xercesc_2_7::RefHashTableOf.36" = type opaque
%"class.xercesc_2_7::RefHashTableOf.37" = type opaque
%"class.xercesc_2_7::RefHashTableOf.38" = type opaque
%"class.xercesc_2_7::NamespaceScope" = type opaque
%"class.xercesc_2_7::RefHash2KeysTableOf.39" = type opaque
%"class.xercesc_2_7::XMLSchemaDescription" = type { %"class.xercesc_2_7::XMLGrammarDescription" }
%"class.xercesc_2_7::XMLGrammarDescription" = type { %"class.xercesc_2_7::XSerializable", %"class.xercesc_2_7::MemoryManager"* }
%"class.xercesc_2_7::RefHashTableOf.40" = type { %"class.xercesc_2_7::MemoryManager"*, i8, %"struct.xercesc_2_7::RefHashTableBucketElem.41"**, i32, i32, i32, %"class.xercesc_2_7::HashBase"* }
%"struct.xercesc_2_7::RefHashTableBucketElem.41" = type { %"class.xercesc_2_7::XSAnnotation"*, %"struct.xercesc_2_7::RefHashTableBucketElem.41"*, i8* }
%"class.xercesc_2_7::XSAnnotation" = type opaque
%"class.xercesc_2_7::DatatypeValidatorFactory" = type { %"class.xercesc_2_7::XSerializable", %"class.xercesc_2_7::RefHashTableOf.14"*, %"class.xercesc_2_7::MemoryManager"* }
%"class.xercesc_2_7::RefHashTableOf.14" = type { %"class.xercesc_2_7::MemoryManager"*, i8, %"struct.xercesc_2_7::RefHashTableBucketElem.15"**, i32, i32, i32, %"class.xercesc_2_7::HashBase"* }
%"struct.xercesc_2_7::RefHashTableBucketElem.15" = type { %"class.xercesc_2_7::DatatypeValidator"*, %"struct.xercesc_2_7::RefHashTableBucketElem.15"*, i8* }
%"class.xercesc_2_7::XSDErrorReporter" = type { i32 (...)**, i8, %"class.xercesc_2_7::XMLErrorReporter"* }
%"class.xercesc_2_7::ValueStackOf" = type { [8 x i8], %"class.xercesc_2_7::ValueVectorOf.42" }
%"class.xercesc_2_7::ValueVectorOf.42" = type { i8, i32, i32, %"class.xercesc_2_7::ComplexTypeInfo"**, %"class.xercesc_2_7::MemoryManager"* }
%"class.xercesc_2_7::ComplexTypeInfo" = type { %"class.xercesc_2_7::XSerializable", i8, i8, i8, i8, i8, i32, i32, i32, i32, i32, i32, i32, i32, i16*, i16*, i16*, %"class.xercesc_2_7::DatatypeValidator"*, %"class.xercesc_2_7::DatatypeValidator"*, %"class.xercesc_2_7::ComplexTypeInfo"*, %"class.xercesc_2_7::ContentSpecNode"*, %"class.xercesc_2_7::SchemaAttDef"*, %"class.xercesc_2_7::SchemaAttDefList"*, %"class.xercesc_2_7::RefVectorOf.27"*, %"class.xercesc_2_7::RefHash2KeysTableOf.29"*, %"class.xercesc_2_7::XMLContentModel"*, i16*, i32*, %"class.xercesc_2_7::XSDLocator"*, %"class.xercesc_2_7::MemoryManager"* }
%"class.xercesc_2_7::ContentSpecNode" = type { %"class.xercesc_2_7::XSerializable", %"class.xercesc_2_7::MemoryManager"*, %"class.xercesc_2_7::QName"*, %"class.xercesc_2_7::XMLElementDecl"*, %"class.xercesc_2_7::ContentSpecNode"*, %"class.xercesc_2_7::ContentSpecNode"*, i32, i8, i8, i32, i32 }
%"class.xercesc_2_7::SchemaAttDef" = type { %"class.xercesc_2_7::XMLAttDef", i32, i32, i32, i32, %"class.xercesc_2_7::QName"*, %"class.xercesc_2_7::DatatypeValidator"*, %"class.xercesc_2_7::DatatypeValidator"*, %"class.xercesc_2_7::DatatypeValidator"*, %"class.xercesc_2_7::ValueVectorOf.26"*, %"class.xercesc_2_7::SchemaAttDef"* }
%"class.xercesc_2_7::XMLAttDef" = type { %"class.xercesc_2_7::XSerializable", i32, i32, i32, i8, i8, i32, i16*, i16*, %"class.xercesc_2_7::MemoryManager"* }
%"class.xercesc_2_7::ValueVectorOf.26" = type { i8, i32, i32, i32*, %"class.xercesc_2_7::MemoryManager"* }
%"class.xercesc_2_7::SchemaAttDefList" = type opaque
%"class.xercesc_2_7::RefVectorOf.27" = type { %"class.xercesc_2_7::BaseRefVectorOf.28" }
%"class.xercesc_2_7::BaseRefVectorOf.28" = type { i32 (...)**, i8, i32, i32, %"class.xercesc_2_7::SchemaElementDecl"**, %"class.xercesc_2_7::MemoryManager"* }
%"class.xercesc_2_7::SchemaElementDecl" = type <{ %"class.xercesc_2_7::XMLElementDecl.base", [3 x i8], i32, i32, i32, i32, i32, i32, i32, i32, [4 x i8], i16*, %"class.xercesc_2_7::ComplexTypeInfo"*, %"class.xercesc_2_7::RefHash2KeysTableOf.29"*, %"class.xercesc_2_7::ComplexTypeInfo"*, %"class.xercesc_2_7::DatatypeValidator"*, %"class.xercesc_2_7::RefVectorOf.31"*, %"class.xercesc_2_7::SchemaAttDef"*, %"class.xercesc_2_7::SchemaElementDecl"*, %"class.xercesc_2_7::DatatypeValidator"*, i8, i8, i8, [5 x i8] }>
%"class.xercesc_2_7::XMLElementDecl.base" = type <{ %"class.xercesc_2_7::XSerializable", %"class.xercesc_2_7::MemoryManager"*, %"class.xercesc_2_7::QName"*, i32, i32, i8 }>
%"class.xercesc_2_7::RefVectorOf.31" = type { %"class.xercesc_2_7::BaseRefVectorOf.32" }
%"class.xercesc_2_7::BaseRefVectorOf.32" = type { i32 (...)**, i8, i32, i32, %"class.xercesc_2_7::IdentityConstraint"**, %"class.xercesc_2_7::MemoryManager"* }
%"class.xercesc_2_7::IdentityConstraint" = type <{ %"class.xercesc_2_7::XSerializable", i16*, i16*, %"class.xercesc_2_7::IC_Selector"*, %"class.xercesc_2_7::RefVectorOf.33"*, %"class.xercesc_2_7::MemoryManager"*, i32, [4 x i8] }>
%"class.xercesc_2_7::IC_Selector" = type { %"class.xercesc_2_7::XSerializable", %"class.xercesc_2_7::XercesXPath"*, %"class.xercesc_2_7::IdentityConstraint"* }
%"class.xercesc_2_7::XercesXPath" = type opaque
%"class.xercesc_2_7::RefVectorOf.33" = type { %"class.xercesc_2_7::BaseRefVectorOf.34" }
%"class.xercesc_2_7::BaseRefVectorOf.34" = type { i32 (...)**, i8, i32, i32, %"class.xercesc_2_7::IC_Field"**, %"class.xercesc_2_7::MemoryManager"* }
%"class.xercesc_2_7::IC_Field" = type { %"class.xercesc_2_7::XSerializable", %"class.xercesc_2_7::XercesXPath"*, %"class.xercesc_2_7::IdentityConstraint"* }
%"class.xercesc_2_7::RefHash2KeysTableOf.29" = type { %"class.xercesc_2_7::MemoryManager"*, i8, %"struct.xercesc_2_7::RefHash2KeysTableBucketElem.30"**, i32, i32, %"class.xercesc_2_7::HashBase"* }
%"struct.xercesc_2_7::RefHash2KeysTableBucketElem.30" = type <{ %"class.xercesc_2_7::SchemaAttDef"*, %"struct.xercesc_2_7::RefHash2KeysTableBucketElem.30"*, i8*, i32, [4 x i8] }>
%"class.xercesc_2_7::XMLContentModel" = type { i32 (...)** }
%"class.xercesc_2_7::XSDLocator" = type opaque
%"class.xercesc_2_7::DTDGrammar" = type <{ %"class.xercesc_2_7::Grammar", %"class.xercesc_2_7::MemoryManager"*, %"class.xercesc_2_7::NameIdPool"*, %"class.xercesc_2_7::NameIdPool"*, %"class.xercesc_2_7::NameIdPool.20"*, %"class.xercesc_2_7::NameIdPool.23"*, %"class.xercesc_2_7::XMLDTDDescription"*, i32, i8, [3 x i8] }>
%"class.xercesc_2_7::NameIdPool.20" = type <{ %"class.xercesc_2_7::MemoryManager"*, %"struct.xercesc_2_7::NameIdPoolBucketElem.21"**, %"class.xercesc_2_7::DTDEntityDecl"**, i32, i32, i32, [4 x i8] }>
%"struct.xercesc_2_7::NameIdPoolBucketElem.21" = type { %"class.xercesc_2_7::DTDEntityDecl"*, %"struct.xercesc_2_7::NameIdPoolBucketElem.21"* }
%"class.xercesc_2_7::DTDEntityDecl" = type <{ %"class.xercesc_2_7::XMLEntityDecl", i8, i8, i8, [5 x i8] }>
%"class.xercesc_2_7::XMLDTDDescription" = type { %"class.xercesc_2_7::XMLGrammarDescription" }
%"class.xercesc_2_7::IdentityConstraintHandler" = type { i32 (...)**, %"class.xercesc_2_7::XMLScanner"*, %"class.xercesc_2_7::MemoryManager"*, %"class.xercesc_2_7::XPathMatcherStack"*, %"class.xercesc_2_7::ValueStoreCache"*, %"class.xercesc_2_7::FieldActivator"* }
%"class.xercesc_2_7::XPathMatcherStack" = type { i32, %"class.xercesc_2_7::ValueStackOf.43"*, %"class.xercesc_2_7::RefVectorOf.45"* }
%"class.xercesc_2_7::ValueStackOf.43" = type { [8 x i8], %"class.xercesc_2_7::ValueVectorOf.44" }
%"class.xercesc_2_7::ValueVectorOf.44" = type { i8, i32, i32, i32*, %"class.xercesc_2_7::MemoryManager"* }
%"class.xercesc_2_7::RefVectorOf.45" = type { %"class.xercesc_2_7::BaseRefVectorOf.46" }
%"class.xercesc_2_7::BaseRefVectorOf.46" = type { i32 (...)**, i8, i32, i32, %"class.xercesc_2_7::XPathMatcher"**, %"class.xercesc_2_7::MemoryManager"* }
%"class.xercesc_2_7::XPathMatcher" = type { i32 (...)**, i32, i32*, i32*, i32*, %"class.xercesc_2_7::RefVectorOf.47"*, %"class.xercesc_2_7::RefVectorOf.49"*, %"class.xercesc_2_7::IdentityConstraint"*, %"class.xercesc_2_7::MemoryManager"* }
%"class.xercesc_2_7::RefVectorOf.47" = type { %"class.xercesc_2_7::BaseRefVectorOf.48" }
%"class.xercesc_2_7::BaseRefVectorOf.48" = type { i32 (...)**, i8, i32, i32, %"class.xercesc_2_7::ValueStackOf.43"**, %"class.xercesc_2_7::MemoryManager"* }
%"class.xercesc_2_7::RefVectorOf.49" = type opaque
%"class.xercesc_2_7::ValueStoreCache" = type { %"class.xercesc_2_7::RefVectorOf.50"*, %"class.xercesc_2_7::RefHashTableOf.51"*, %"class.xercesc_2_7::RefHash2KeysTableOf.53"*, %"class.xercesc_2_7::RefStackOf.55"*, %"class.xercesc_2_7::XMLScanner"*, %"class.xercesc_2_7::MemoryManager"* }
%"class.xercesc_2_7::RefVectorOf.50" = type opaque
%"class.xercesc_2_7::RefHashTableOf.51" = type { %"class.xercesc_2_7::MemoryManager"*, i8, %"struct.xercesc_2_7::RefHashTableBucketElem.52"**, i32, i32, i32, %"class.xercesc_2_7::HashBase"* }
%"struct.xercesc_2_7::RefHashTableBucketElem.52" = type { %"class.xercesc_2_7::ValueStore"*, %"struct.xercesc_2_7::RefHashTableBucketElem.52"*, i8* }
%"class.xercesc_2_7::ValueStore" = type opaque
%"class.xercesc_2_7::RefHash2KeysTableOf.53" = type { %"class.xercesc_2_7::MemoryManager"*, i8, %"struct.xercesc_2_7::RefHash2KeysTableBucketElem.54"**, i32, i32, %"class.xercesc_2_7::HashBase"* }
%"struct.xercesc_2_7::RefHash2KeysTableBucketElem.54" = type <{ %"class.xercesc_2_7::ValueStore"*, %"struct.xercesc_2_7::RefHash2KeysTableBucketElem.54"*, i8*, i32, [4 x i8] }>
%"class.xercesc_2_7::RefStackOf.55" = type opaque
%"class.xercesc_2_7::FieldActivator" = type opaque
%"class.xercesc_2_7::ValueVectorOf.56" = type { i8, i32, i32, i16**, %"class.xercesc_2_7::MemoryManager"* }
%"class.xercesc_2_7::NameIdPool" = type <{ %"class.xercesc_2_7::MemoryManager"*, %"struct.xercesc_2_7::NameIdPoolBucketElem"**, %"class.xercesc_2_7::DTDElementDecl"**, i32, i32, i32, [4 x i8] }>
%"struct.xercesc_2_7::NameIdPoolBucketElem" = type { %"class.xercesc_2_7::DTDElementDecl"*, %"struct.xercesc_2_7::NameIdPoolBucketElem"* }
%"class.xercesc_2_7::DTDElementDecl" = type { %"class.xercesc_2_7::XMLElementDecl.base", i32, %"class.xercesc_2_7::RefHashTableOf.19"*, %"class.xercesc_2_7::DTDAttDefList"*, %"class.xercesc_2_7::ContentSpecNode"*, %"class.xercesc_2_7::XMLContentModel"*, i16* }
%"class.xercesc_2_7::RefHashTableOf.19" = type opaque
%"class.xercesc_2_7::DTDAttDefList" = type opaque
%"class.xercesc_2_7::RefHash3KeysIdPool" = type { %"class.xercesc_2_7::MemoryManager"*, i8, %"struct.xercesc_2_7::RefHash3KeysTableBucketElem"**, i32, %"class.xercesc_2_7::HashBase"*, %"class.xercesc_2_7::SchemaElementDecl"**, i32, i32 }
%"struct.xercesc_2_7::RefHash3KeysTableBucketElem" = type { %"class.xercesc_2_7::SchemaElementDecl"*, %"struct.xercesc_2_7::RefHash3KeysTableBucketElem"*, i8*, i32, i32 }
%"class.xercesc_2_7::RefHashTableOf.57" = type { %"class.xercesc_2_7::MemoryManager"*, i8, %"struct.xercesc_2_7::RefHashTableBucketElem.58"**, i32, i32, i32, %"class.xercesc_2_7::HashBase"* }
%"struct.xercesc_2_7::RefHashTableBucketElem.58" = type { i32*, %"struct.xercesc_2_7::RefHashTableBucketElem.58"*, i8* }
%"class.xercesc_2_7::RefHash2KeysTableOf.59" = type { %"class.xercesc_2_7::MemoryManager"*, i8, %"struct.xercesc_2_7::RefHash2KeysTableBucketElem.60"**, i32, i32, %"class.xercesc_2_7::HashBase"* }
%"struct.xercesc_2_7::RefHash2KeysTableBucketElem.60" = type <{ i32*, %"struct.xercesc_2_7::RefHash2KeysTableBucketElem.60"*, i8*, i32, [4 x i8] }>
%"class.xercesc_2_7::PSVIAttributeList" = type <{ %"class.xercesc_2_7::MemoryManager"*, %"class.xercesc_2_7::RefVectorOf.61"*, %"class.xercesc_2_7::RefArrayVectorOf"*, %"class.xercesc_2_7::RefArrayVectorOf"*, i32, [4 x i8] }>
%"class.xercesc_2_7::RefVectorOf.61" = type { %"class.xercesc_2_7::BaseRefVectorOf.62" }
%"class.xercesc_2_7::BaseRefVectorOf.62" = type { i32 (...)**, i8, i32, i32, %"class.xercesc_2_7::PSVIAttribute"**, %"class.xercesc_2_7::MemoryManager"* }
%"class.xercesc_2_7::PSVIAttribute" = type { %"class.xercesc_2_7::PSVIItem", %"class.xercesc_2_7::XSAttributeDeclaration"*, %"class.xercesc_2_7::DatatypeValidator"* }
%"class.xercesc_2_7::PSVIItem" = type { i32 (...)**, %"class.xercesc_2_7::MemoryManager"*, i16*, i16*, i16*, i16*, i32, i32, i8, %"class.xercesc_2_7::XSTypeDefinition"*, %"class.xercesc_2_7::XSSimpleTypeDefinition"* }
%"class.xercesc_2_7::XSTypeDefinition" = type { %"class.xercesc_2_7::XSObject.base", i32, i16, %"class.xercesc_2_7::XSTypeDefinition"* }
%"class.xercesc_2_7::XSObject.base" = type <{ i32 (...)**, i32, [4 x i8], %"class.xercesc_2_7::XSModel"*, %"class.xercesc_2_7::MemoryManager"*, i32 }>
%"class.xercesc_2_7::XSSimpleTypeDefinition" = type { %"class.xercesc_2_7::XSTypeDefinition", i32, i32, i32, %"class.xercesc_2_7::DatatypeValidator"*, %"class.xercesc_2_7::RefVectorOf.7"*, %"class.xercesc_2_7::RefVectorOf.8"*, %"class.xercesc_2_7::RefArrayVectorOf"*, %"class.xercesc_2_7::XSSimpleTypeDefinition"*, %"class.xercesc_2_7::RefVectorOf.9"*, %"class.xercesc_2_7::RefVectorOf.1"* }
%"class.xercesc_2_7::RefVectorOf.7" = type opaque
%"class.xercesc_2_7::RefVectorOf.8" = type opaque
%"class.xercesc_2_7::RefVectorOf.9" = type opaque
%"class.xercesc_2_7::RefVectorOf.1" = type opaque
%"class.xercesc_2_7::XSAttributeDeclaration" = type opaque
%"class.xercesc_2_7::RefArrayVectorOf" = type { %"class.xercesc_2_7::BaseRefVectorOf" }
%"class.xercesc_2_7::BaseRefVectorOf" = type { i32 (...)**, i8, i32, i32, i16**, %"class.xercesc_2_7::MemoryManager"* }
%"class.xercesc_2_7::XSModel" = type <{ %"class.xercesc_2_7::MemoryManager"*, %"class.xercesc_2_7::RefArrayVectorOf"*, %"class.xercesc_2_7::RefVectorOf"*, [14 x %"class.xercesc_2_7::RefVectorOf.0"*], [14 x %"class.xercesc_2_7::XSNamedMap"*], %"class.xercesc_2_7::XMLStringPool"*, %"class.xercesc_2_7::RefVectorOf.1"*, %"class.xercesc_2_7::RefHashTableOf.2"*, %"class.xercesc_2_7::XSObjectFactory"*, %"class.xercesc_2_7::RefVectorOf"*, %"class.xercesc_2_7::XSModel"*, i8, i8, [6 x i8] }>
%"class.xercesc_2_7::RefVectorOf.0" = type opaque
%"class.xercesc_2_7::XSNamedMap" = type opaque
%"class.xercesc_2_7::RefHashTableOf.2" = type opaque
%"class.xercesc_2_7::XSObjectFactory" = type opaque
%"class.xercesc_2_7::RefVectorOf" = type opaque
%"class.xercesc_2_7::PSVIElement" = type { %"class.xercesc_2_7::PSVIItem", %"class.xercesc_2_7::XSElementDeclaration"*, %"class.xercesc_2_7::XSNotationDeclaration"*, %"class.xercesc_2_7::XSModel"* }
%"class.xercesc_2_7::XSElementDeclaration" = type opaque
%"class.xercesc_2_7::XSNotationDeclaration" = type opaque
%"class.xercesc_2_7::ValueStackOf.63" = type { [8 x i8], %"class.xercesc_2_7::ValueVectorOf.64" }
%"class.xercesc_2_7::ValueVectorOf.64" = type { i8, i32, i32, i8*, %"class.xercesc_2_7::MemoryManager"* }
%"struct.xercesc_2_7::PSVIElemContext" = type { i8, i8, i32, i32, i32, %"class.xercesc_2_7::DatatypeValidator"*, %"class.xercesc_2_7::ComplexTypeInfo"*, i16* }
%"class.xercesc_2_7::GrammarResolver" = type { i8, i8, i8, %"class.xercesc_2_7::XMLStringPool"*, %"class.xercesc_2_7::RefHashTableOf.13"*, %"class.xercesc_2_7::RefHashTableOf.13"*, %"class.xercesc_2_7::DatatypeValidatorFactory"*, %"class.xercesc_2_7::MemoryManager"*, %"class.xercesc_2_7::XMLGrammarPool"*, %"class.xercesc_2_7::XSModel"*, %"class.xercesc_2_7::XSModel"*, %"class.xercesc_2_7::ValueVectorOf"* }
%"class.xercesc_2_7::RefHashTableOf.13" = type opaque
%"class.xercesc_2_7::XMLGrammarPool" = type <{ i32 (...)**, %"class.xercesc_2_7::MemoryManager"*, i8, [7 x i8] }>
%"class.xercesc_2_7::ValueVectorOf" = type opaque
%"class.xercesc_2_7::MemoryManager" = type { i32 (...)** }
%"class.xercesc_2_7::XMLDeleter" = type { i32 (...)** }
%"class.xercesc_2_7::XMLRefInfo" = type { %"class.xercesc_2_7::XSerializable", i8, i8, i16*, %"class.xercesc_2_7::MemoryManager"* }
%"class.xercesc_2_7::XMLAttDefList" = type { %"class.xercesc_2_7::XSerializable", %"class.xercesc_2_7::MemoryManager"* }
%"class.xercesc_2_7::JanitorMemFunCall" = type { %"class.xercesc_2_7::IGXMLScanner"*, { i64, i64 } }
%"class.xercesc_2_7::OutOfMemoryException" = type { i8 }
%"class.xercesc_2_7::XMemory" = type { i8 }
%"class.xercesc_2_7::HashPtr" = type { %"class.xercesc_2_7::HashBase" }
%"class.xercesc_2_7::HashXMLCh" = type { %"class.xercesc_2_7::HashBase" }
%"class.xercesc_2_7::InputSource" = type <{ i32 (...)**, %"class.xercesc_2_7::MemoryManager"*, i16*, i16*, i16*, i8, [7 x i8] }>
%"class.xercesc_2_7::JanitorMemFunCall.65" = type { %"class.xercesc_2_7::ReaderMgr"*, { i64, i64 } }
%"class.xercesc_2_7::XMLException" = type { i32 (...)**, i32, i8*, i32, i16*, %"class.xercesc_2_7::MemoryManager"* }
%"class.xercesc_2_7::EndOfEntityException" = type <{ %"class.xercesc_2_7::XMLEntityDecl"*, i32, [4 x i8] }>
%"class.xercesc_2_7::XMLPScanToken" = type { i32, i32 }
%"class.xercesc_2_7::RuntimeException" = type { %"class.xercesc_2_7::XMLException" }
%"class.xercesc_2_7::ContentLeafNameTypeVector" = type opaque
%"class.xercesc_2_7::XSObject" = type <{ i32 (...)**, i32, [4 x i8], %"class.xercesc_2_7::XSModel"*, %"class.xercesc_2_7::MemoryManager"*, i32, [4 x i8] }>
%"class.xercesc_2_7::DTDAttDef" = type { %"class.xercesc_2_7::XMLAttDef", i32, i16* }
%"class.xercesc_2_7::UnexpectedEOFException" = type { %"class.xercesc_2_7::XMLException" }
%"class.xercesc_2_7::IllegalArgumentException" = type { %"class.xercesc_2_7::XMLException" }
%"class.xercesc_2_7::ArrayIndexOutOfBoundsException" = type { %"class.xercesc_2_7::XMLException" }
%"class.xercesc_2_7::EmptyStackException" = type { %"class.xercesc_2_7::XMLException" }
%"class.xercesc_2_7::XMLBufBid" = type { %"class.xercesc_2_7::XMLBuffer"*, %"class.xercesc_2_7::XMLBufferMgr"* }
%"class.xercesc_2_7::Janitor" = type { %"class.xercesc_2_7::DTDElementDecl"* }
%"class.xercesc_2_7::DTDScanner" = type { i32 (...)**, %"class.xercesc_2_7::MemoryManager"*, %"class.xercesc_2_7::MemoryManager"*, %"class.xercesc_2_7::DocTypeHandler"*, %"class.xercesc_2_7::DTDAttDef"*, %"class.xercesc_2_7::DTDElementDecl"*, %"class.xercesc_2_7::DTDEntityDecl"*, i8, i32, %"class.xercesc_2_7::DTDGrammar"*, %"class.xercesc_2_7::XMLBufferMgr"*, %"class.xercesc_2_7::ReaderMgr"*, %"class.xercesc_2_7::XMLScanner"*, %"class.xercesc_2_7::NameIdPool.20"*, i32, i32 }
%"class.xercesc_2_7::ArrayJanitor" = type { i16*, %"class.xercesc_2_7::MemoryManager"* }
%"class.xercesc_2_7::Janitor.66" = type { %"class.xercesc_2_7::InputSource"* }
%"class.xercesc_2_7::Janitor.67" = type { %"class.xercesc_2_7::DTDEntityDecl"* }
%"class.xercesc_2_7::XSerializeEngine" = type <{ i16, i16, [4 x i8], %"class.xercesc_2_7::XMLGrammarPool"*, %"class.xercesc_2_7::BinInputStream"*, %"class.xercesc_2_7::BinOutputStream"*, i64, i64, i8*, i8*, i8*, i8*, %"class.xercesc_2_7::RefHashTableOf.68"*, %"class.xercesc_2_7::ValueVectorOf.69"*, i32, [4 x i8] }>
%"class.xercesc_2_7::BinOutputStream" = type opaque
%"class.xercesc_2_7::RefHashTableOf.68" = type opaque
%"class.xercesc_2_7::ValueVectorOf.69" = type opaque
%"class.xercesc_2_7::XProtoType" = type { i8*, %"class.xercesc_2_7::XSerializable"* (%"class.xercesc_2_7::MemoryManager"*)* }
%"class.xercesc_2_7::XSValue" = type opaque
%"class.xercesc_2_7::ArrayJanitor.73" = type { %"struct.xercesc_2_7::RefHashTableBucketElem.58"**, %"class.xercesc_2_7::MemoryManager"* }

$_ZN11xercesc_2_710XMLDeleterD0Ev = comdat any

$_ZN11xercesc_2_710XMLDeleterD2Ev = comdat any

$_ZN11xercesc_2_713XSerializableD2Ev = comdat any

$__clang_call_terminate = comdat any

$_ZN11xercesc_2_710XMLRefInfoD0Ev = comdat any

$_ZN11xercesc_2_710XMLRefInfoD2Ev = comdat any

$_ZN11xercesc_2_713DTDEntityDeclD0Ev = comdat any

$_ZN11xercesc_2_713DTDEntityDeclD2Ev = comdat any

$_ZN11xercesc_2_713XMLAttDefListD0Ev = comdat any

$_ZN11xercesc_2_78PSVIItemD0Ev = comdat any

$_ZN11xercesc_2_713PSVIAttributeD0Ev = comdat any

$_ZN11xercesc_2_713PSVIAttributeD2Ev = comdat any

$_ZN11xercesc_2_711PSVIHandler24handlePartialElementPSVIEPKtS2_PNS_11PSVIElementE = comdat any

$_ZN11xercesc_2_715ContentSpecNodeD0Ev = comdat any

$_ZN11xercesc_2_715ContentSpecNodeD2Ev = comdat any

$_ZN11xercesc_2_79XMLBufferC2EjPNS_13MemoryManagerE = comdat any

$_ZN11xercesc_2_717JanitorMemFunCallINS_12IGXMLScannerEEC2EPS1_MS1_FvvE = comdat any

$_ZN11xercesc_2_717JanitorMemFunCallINS_12IGXMLScannerEE7releaseEv = comdat any

$_ZN11xercesc_2_717JanitorMemFunCallINS_12IGXMLScannerEED2Ev = comdat any

$_ZN11xercesc_2_79XMLBufferD2Ev = comdat any

$_ZN11xercesc_2_710DTDGrammar17getEntityDeclPoolEv = comdat any

$_ZN11xercesc_2_717JanitorMemFunCallINS_9ReaderMgrEEC2EPS1_MS1_FvvE = comdat any

$_ZN11xercesc_2_717JanitorMemFunCallINS_9ReaderMgrEE7releaseEv = comdat any

$_ZNK11xercesc_2_712XMLException12getErrorTypeEv = comdat any

$_ZNK11xercesc_2_712XMLException10getMessageEv = comdat any

$_ZN11xercesc_2_717JanitorMemFunCallINS_9ReaderMgrEED2Ev = comdat any

$_ZN11xercesc_2_716RuntimeExceptionC2EPKcjNS_10XMLExcepts5CodesEPNS_13MemoryManagerE = comdat any

$_ZN11xercesc_2_716RuntimeExceptionD2Ev = comdat any

$_ZNK11xercesc_2_720EndOfEntityException9getEntityEv = comdat any

$_ZNK11xercesc_2_79ElemStack7isEmptyEv = comdat any

$_ZNK11xercesc_2_714XMLElementDecl11getFullNameEv = comdat any

$_ZN11xercesc_2_79ReaderMgr10skipToCharEt = comdat any

$_ZNK11xercesc_2_79ReaderMgr19getCurrentReaderNumEv = comdat any

$_ZNK11xercesc_2_712IGXMLScanner25toCheckIdentityConstraintEv = comdat any

$_ZN11xercesc_2_725IdentityConstraintHandler11endDocumentEv = comdat any

$_ZN11xercesc_2_711RefVectorOfINS_12KVStringPairEEC2EjbPNS_13MemoryManagerE = comdat any

$_ZN11xercesc_2_713ValueVectorOfIPtEC2EjPNS_13MemoryManagerEb = comdat any

$_ZN11xercesc_2_710NameIdPoolINS_14DTDElementDeclEEC2EjjPNS_13MemoryManagerE = comdat any

$_ZN11xercesc_2_718RefHash3KeysIdPoolINS_17SchemaElementDeclEEC2EjbjPNS_13MemoryManagerE = comdat any

$_ZN11xercesc_2_714RefHashTableOfIjEC2EjbPNS_8HashBaseEPNS_13MemoryManagerE = comdat any

$_ZN11xercesc_2_719RefHash2KeysTableOfIjEC2EjbPNS_8HashBaseEPNS_13MemoryManagerE = comdat any

$_ZN11xercesc_2_713ValueVectorOfIPtED2Ev = comdat any

$_ZN11xercesc_2_710NameIdPoolINS_14DTDElementDeclEED2Ev = comdat any

$_ZN11xercesc_2_718RefHash3KeysIdPoolINS_17SchemaElementDeclEED2Ev = comdat any

$_ZN11xercesc_2_714RefHashTableOfIjED2Ev = comdat any

$_ZN11xercesc_2_719RefHash2KeysTableOfIjED2Ev = comdat any

$_ZN11xercesc_2_717PSVIAttributeListD2Ev = comdat any

$_ZN11xercesc_2_712ValueStackOfIbED2Ev = comdat any

$_ZNK11xercesc_2_715BaseRefVectorOfINS_12KVStringPairEE4sizeEv = comdat any

$_ZN11xercesc_2_79ReaderMgr16getCurrentReaderEv = comdat any

$_ZNK11xercesc_2_79XMLReader12isWhitespaceEt = comdat any

$_ZNK11xercesc_2_79XMLReader21isSpecialStartTagCharEt = comdat any

$_ZN11xercesc_2_79ReaderMgr8getQNameERNS_9XMLBufferEPi = comdat any

$_ZNK11xercesc_2_79XMLBuffer7isEmptyEv = comdat any

$_ZN11xercesc_2_79XMLBuffer12getRawBufferEv = comdat any

$_ZN11xercesc_2_79ReaderMgr12skipPastCharEt = comdat any

$_ZNK11xercesc_2_79XMLBuffer6getLenEv = comdat any

$_ZN11xercesc_2_715BaseRefVectorOfINS_12KVStringPairEE10addElementEPS1_ = comdat any

$_ZN11xercesc_2_715BaseRefVectorOfINS_12KVStringPairEE9elementAtEj = comdat any

$_ZN11xercesc_2_712KVStringPair3setEPKtjS2_j = comdat any

$_ZN11xercesc_2_722UnexpectedEOFExceptionC2EPKcjNS_10XMLExcepts5CodesEPNS_13MemoryManagerE = comdat any

$_ZN11xercesc_2_722UnexpectedEOFExceptionD2Ev = comdat any

$_ZN11xercesc_2_79ElemStack13getCurrentURIEv = comdat any

$_ZN11xercesc_2_79ElemStack24getCurrentSchemaElemNameEv = comdat any

$_ZN11xercesc_2_79ReaderMgr13skippedStringEPKt = comdat any

$_ZN11xercesc_2_712ValueStackOfIbE3popEv = comdat any

$_ZNK11xercesc_2_714XMLElementDecl10isDeclaredEv = comdat any

$_ZNK11xercesc_2_715SchemaValidator18getCurrentTypeInfoEv = comdat any

$_ZNK11xercesc_2_715SchemaValidator27getCurrentDatatypeValidatorEv = comdat any

$_ZNK11xercesc_2_715SchemaValidator18getNormalizedValueEv = comdat any

$_ZN11xercesc_2_79XMLString6equalsEPKtS2_ = comdat any

$_ZNK11xercesc_2_714DTDElementDecl12getModelTypeEv = comdat any

$_ZNK11xercesc_2_715SchemaValidator16getErrorOccurredEv = comdat any

$_ZNK11xercesc_2_717DatatypeValidator7getTypeEv = comdat any

$_ZNK11xercesc_2_715SchemaValidator18getIsElemSpecifiedEv = comdat any

$_ZNK11xercesc_2_717SchemaElementDecl15getDefaultValueEv = comdat any

$_ZN11xercesc_2_715SchemaValidator19clearDatatypeBufferEv = comdat any

$_ZN11xercesc_2_79XMLBuffer3setEPKtj = comdat any

$_ZN11xercesc_2_79XMLBuffer5resetEv = comdat any

$_ZN11xercesc_2_79XMLBuffer3setEPKt = comdat any

$_ZN11xercesc_2_714XMLElementDecl14getElementNameEv = comdat any

$_ZN11xercesc_2_75QName9getPrefixEv = comdat any

$_ZN11xercesc_2_712ValueStackOfIbE4pushERKb = comdat any

$_ZN11xercesc_2_712ValueStackOfIbE4sizeEv = comdat any

$_ZN11xercesc_2_79ElemStack17getCurrentGrammarEv = comdat any

$_ZN11xercesc_2_79ElemStack17getValidationFlagEv = comdat any

$_ZN11xercesc_2_79XMLBufBidC2EPNS_12XMLBufferMgrE = comdat any

$_ZN11xercesc_2_79XMLBufBid9getBufferEv = comdat any

$_ZN11xercesc_2_79ReaderMgr7getNameERNS_9XMLBufferE = comdat any

$_ZNK11xercesc_2_79XMLBufBid7isEmptyEv = comdat any

$_ZN11xercesc_2_79XMLBufBid12getRawBufferEv = comdat any

$_ZN11xercesc_2_710XMLScanner15setRootElemNameEPt = comdat any

$_ZN11xercesc_2_77JanitorINS_14DTDElementDeclEEC2EPS1_ = comdat any

$_ZN11xercesc_2_714XMLElementDecl15setCreateReasonENS0_13CreateReasonsE = comdat any

$_ZN11xercesc_2_714XMLElementDecl26setExternalElemDeclarationEb = comdat any

$_ZN11xercesc_2_710DTDGrammar13setRootElemIdEj = comdat any

$_ZN11xercesc_2_77JanitorINS_14DTDElementDeclEE7releaseEv = comdat any

$_ZN11xercesc_2_710NameIdPoolINS_14DTDElementDeclEE8getByKeyEPKt = comdat any

$_ZN11xercesc_2_714XMLElementDecl5setIdEj = comdat any

$_ZNK11xercesc_2_714XMLElementDecl5getIdEv = comdat any

$_ZN11xercesc_2_710NameIdPoolINS_14DTDElementDeclEE3putEPS1_ = comdat any

$_ZN11xercesc_2_79XMLString9replicateEPKtPNS_13MemoryManagerE = comdat any

$_ZN11xercesc_2_79XMLBufBidD2Ev = comdat any

$_ZN11xercesc_2_712ArrayJanitorItEC2EPtPNS_13MemoryManagerE = comdat any

$_ZN11xercesc_2_77JanitorINS_11InputSourceEEC2EPS1_ = comdat any

$_ZN11xercesc_2_77JanitorINS_11InputSourceEE5resetEPS1_ = comdat any

$_ZN11xercesc_2_716RuntimeExceptionC2EPKcjNS_10XMLExcepts5CodesEPKtS6_S6_S6_PNS_13MemoryManagerE = comdat any

$_ZN11xercesc_2_715GrammarResolver13getStringPoolEv = comdat any

$_ZN11xercesc_2_713DTDEntityDeclC2EPKtbPNS_13MemoryManagerE = comdat any

$_ZN11xercesc_2_713XMLEntityDecl11setSystemIdEPKt = comdat any

$_ZN11xercesc_2_77JanitorINS_13DTDEntityDeclEEC2EPS1_ = comdat any

$_ZN11xercesc_2_79XMLReader13setThrowAtEndEb = comdat any

$_ZN11xercesc_2_77JanitorINS_13DTDEntityDeclEED2Ev = comdat any

$_ZN11xercesc_2_77JanitorINS_11InputSourceEED2Ev = comdat any

$_ZN11xercesc_2_712ArrayJanitorItED2Ev = comdat any

$_ZN11xercesc_2_77JanitorINS_14DTDElementDeclEED2Ev = comdat any

$_ZN11xercesc_2_79ElemStack17setValidationFlagEb = comdat any

$_ZN11xercesc_2_712XMLValidator16checkRootElementEj = comdat any

$_ZNK11xercesc_2_715BaseRefVectorOfINS_7XMLAttrEE4sizeEv = comdat any

$_ZNK11xercesc_2_79XMLAttDef7getTypeEv = comdat any

$_ZN11xercesc_2_715BaseRefVectorOfINS_7XMLAttrEE10addElementEPS1_ = comdat any

$_ZN11xercesc_2_715BaseRefVectorOfINS_7XMLAttrEE9elementAtEj = comdat any

$_ZN11xercesc_2_77XMLAttr3setEjPKtS2_S2_NS_9XMLAttDef8AttTypesEPNS_17DatatypeValidatorEb = comdat any

$_ZN11xercesc_2_77XMLAttr12setSpecifiedEb = comdat any

$_ZNK11xercesc_2_77XMLAttr7getNameEv = comdat any

$_ZNK11xercesc_2_714RefHashTableOfIjE11containsKeyEPKv = comdat any

$_ZN11xercesc_2_714RefHashTableOfIjE3putEPvPj = comdat any

$_ZN11xercesc_2_714RefHashTableOfIjE3getEPKv = comdat any

$_ZN11xercesc_2_714RefHashTableOfIjE9removeAllEv = comdat any

$_ZNK11xercesc_2_79XMLAttDef14getDefaultTypeEv = comdat any

$_ZNK11xercesc_2_79XMLAttDef10isExternalEv = comdat any

$_ZNK11xercesc_2_79XMLAttDef8getValueEv = comdat any

$_ZNK11xercesc_2_717SchemaElementDecl12getModelTypeEv = comdat any

$_ZNK11xercesc_2_715ComplexTypeInfo14getContentTypeEv = comdat any

$_ZNK11xercesc_2_717SchemaElementDecl18getComplexTypeInfoEv = comdat any

$_ZN11xercesc_2_715ComplexTypeInfo15getContentModelEb = comdat any

$_ZN11xercesc_2_79ElemStack15getCurrentScopeEv = comdat any

$_ZN11xercesc_2_79ElemStack17setPrefixColonPosEi = comdat any

$_ZNK11xercesc_2_714XMLElementDecl15getCreateReasonEv = comdat any

$_ZN11xercesc_2_718RefHash3KeysIdPoolINS_17SchemaElementDeclEE8getByKeyEPKvii = comdat any

$_ZN11xercesc_2_718RefHash3KeysIdPoolINS_17SchemaElementDeclEE3putEPviiPS1_ = comdat any

$_ZN11xercesc_2_714XMLElementDecl11getBaseNameEv = comdat any

$_ZN11xercesc_2_79ElemStack13setCurrentURIEj = comdat any

$_ZN11xercesc_2_79ElemStack24setCurrentSchemaElemNameEPKt = comdat any

$_ZNK11xercesc_2_715ComplexTypeInfo15getScopeDefinedEv = comdat any

$_ZNK11xercesc_2_715ComplexTypeInfo11getTypeNameEv = comdat any

$_ZN11xercesc_2_79XMLString10startsWithEPKtS2_ = comdat any

$_ZN11xercesc_2_79XMLBuffer6appendEPKtj = comdat any

$_ZN11xercesc_2_79ElemStack15setCurrentScopeEi = comdat any

$_ZN11xercesc_2_79ElemStack17setCurrentGrammarEPNS_7GrammarE = comdat any

$_ZN11xercesc_2_710XMLScanner14getPSVIHandlerEv = comdat any

$_ZN11xercesc_2_717PSVIAttributeList5resetEv = comdat any

$_ZN11xercesc_2_719RefHash2KeysTableOfIjE9removeAllEv = comdat any

$_ZN11xercesc_2_75QName12getLocalPartEv = comdat any

$_ZNK11xercesc_2_75QName6getURIEv = comdat any

$_ZNK11xercesc_2_714XMLElementDecl6getURIEv = comdat any

$_ZN11xercesc_2_715GrammarResolver23useCachedGrammarInParseEb = comdat any

$_ZN11xercesc_2_710XMLScanner22resetValidationContextEv = comdat any

$_ZN11xercesc_2_710NameIdPoolINS_14DTDElementDeclEE9removeAllEv = comdat any

$_ZN11xercesc_2_713ValueVectorOfIPtE17removeAllElementsEv = comdat any

$_ZN11xercesc_2_713ValueVectorOfIPtE10addElementERKS1_ = comdat any

$_ZNK11xercesc_2_713DTDEntityDecl22getDeclaredInIntSubsetEv = comdat any

$_ZNK11xercesc_2_713DTDEntityDecl14getIsParameterEv = comdat any

$_ZNK11xercesc_2_713DTDEntityDecl16getIsSpecialCharEv = comdat any

$_ZN11xercesc_2_713XMLAttDefListD2Ev = comdat any

$_ZN11xercesc_2_78PSVIItemD2Ev = comdat any

$_ZN11xercesc_2_713PSVIAttribute17getTypeDefinitionEv = comdat any

$_ZN11xercesc_2_713PSVIAttribute23getMemberTypeDefinitionEv = comdat any

$_ZN11xercesc_2_711PSVIHandlerD2Ev = comdat any

$_ZN11xercesc_2_711PSVIHandlerD0Ev = comdat any

$_ZN11xercesc_2_710XMLScanner10bufferFullERNS_9XMLBufferE = comdat any

$_ZNK11xercesc_2_712IGXMLScanner21getCurrentGrammarTypeEv = comdat any

$_ZNK11xercesc_2_712IGXMLScanner7getNameEv = comdat any

$_ZN11xercesc_2_77XMemoryC2Ev = comdat any

$_ZN11xercesc_2_716RuntimeExceptionD0Ev = comdat any

$_ZNK11xercesc_2_716RuntimeException7getTypeEv = comdat any

$_ZNK11xercesc_2_716RuntimeException9duplicateEv = comdat any

$_ZN11xercesc_2_716RuntimeExceptionC2ERKS0_ = comdat any

$_ZNK11xercesc_2_79XMLReader12getReaderNumEv = comdat any

$_ZN11xercesc_2_715ValueStoreCache11endDocumentEv = comdat any

$_ZN11xercesc_2_712KVStringPair6setKeyEPKtj = comdat any

$_ZN11xercesc_2_712KVStringPair8setValueEPKtj = comdat any

$_ZN11xercesc_2_722UnexpectedEOFExceptionD0Ev = comdat any

$_ZNK11xercesc_2_722UnexpectedEOFException7getTypeEv = comdat any

$_ZNK11xercesc_2_722UnexpectedEOFException9duplicateEv = comdat any

$_ZN11xercesc_2_722UnexpectedEOFExceptionC2ERKS0_ = comdat any

$_ZN11xercesc_2_712ValueStackOfIPNS_15ComplexTypeInfoEE5emptyEv = comdat any

$_ZNK11xercesc_2_712ValueStackOfIPNS_15ComplexTypeInfoEE4peekEv = comdat any

$_ZNK11xercesc_2_713ValueVectorOfIPNS_15ComplexTypeInfoEE4sizeEv = comdat any

$_ZNK11xercesc_2_713ValueVectorOfIPNS_15ComplexTypeInfoEE16getMemoryManagerEv = comdat any

$_ZN11xercesc_2_719EmptyStackExceptionC2EPKcjNS_10XMLExcepts5CodesEPNS_13MemoryManagerE = comdat any

$_ZN11xercesc_2_719EmptyStackExceptionD2Ev = comdat any

$_ZNK11xercesc_2_713ValueVectorOfIPNS_15ComplexTypeInfoEE9elementAtEj = comdat any

$_ZN11xercesc_2_719EmptyStackExceptionD0Ev = comdat any

$_ZNK11xercesc_2_719EmptyStackException7getTypeEv = comdat any

$_ZNK11xercesc_2_719EmptyStackException9duplicateEv = comdat any

$_ZN11xercesc_2_719EmptyStackExceptionC2ERKS0_ = comdat any

$_ZN11xercesc_2_730ArrayIndexOutOfBoundsExceptionC2EPKcjNS_10XMLExcepts5CodesEPNS_13MemoryManagerE = comdat any

$_ZN11xercesc_2_730ArrayIndexOutOfBoundsExceptionD2Ev = comdat any

$_ZN11xercesc_2_730ArrayIndexOutOfBoundsExceptionD0Ev = comdat any

$_ZNK11xercesc_2_730ArrayIndexOutOfBoundsException7getTypeEv = comdat any

$_ZNK11xercesc_2_730ArrayIndexOutOfBoundsException9duplicateEv = comdat any

$_ZN11xercesc_2_730ArrayIndexOutOfBoundsExceptionC2ERKS0_ = comdat any

$_ZNK11xercesc_2_79XMLBuffer12getRawBufferEv = comdat any

$_ZN11xercesc_2_79XMLBuffer6appendEPKt = comdat any

$_ZN11xercesc_2_79XMLString9stringLenEPKt = comdat any

$_ZN11xercesc_2_710NameIdPoolINS_14DTDElementDeclEE14findBucketElemEPKtRj = comdat any

$_ZN11xercesc_2_79XMLString4hashEPKtjPNS_13MemoryManagerE = comdat any

$_ZNK11xercesc_2_714DTDElementDecl6getKeyEv = comdat any

$_ZN11xercesc_2_724IllegalArgumentExceptionC2EPKcjNS_10XMLExcepts5CodesEPNS_13MemoryManagerE = comdat any

$_ZN11xercesc_2_724IllegalArgumentExceptionD2Ev = comdat any

$_ZN11xercesc_2_724IllegalArgumentExceptionD0Ev = comdat any

$_ZNK11xercesc_2_724IllegalArgumentException7getTypeEv = comdat any

$_ZNK11xercesc_2_724IllegalArgumentException9duplicateEv = comdat any

$_ZN11xercesc_2_724IllegalArgumentExceptionC2ERKS0_ = comdat any

$_ZN11xercesc_2_724IllegalArgumentExceptionC2EPKcjNS_10XMLExcepts5CodesEPKtS6_S6_S6_PNS_13MemoryManagerE = comdat any

$_ZN11xercesc_2_720NameIdPoolBucketElemINS_14DTDElementDeclEEC2EPS1_PS2_ = comdat any

$_ZN11xercesc_2_718RefHash3KeysIdPoolINS_17SchemaElementDeclEE14findBucketElemEPKviiRj = comdat any

$_ZN11xercesc_2_718RefHash3KeysIdPoolINS_17SchemaElementDeclEE10initializeEj = comdat any

$_ZN11xercesc_2_727RefHash3KeysTableBucketElemINS_17SchemaElementDeclEEC2EPviiPS1_PS2_ = comdat any

$_ZN11xercesc_2_715BaseRefVectorOfINS_12KVStringPairEEC2EjbPNS_13MemoryManagerE = comdat any

$_ZN11xercesc_2_711RefVectorOfINS_12KVStringPairEED2Ev = comdat any

$_ZN11xercesc_2_711RefVectorOfINS_12KVStringPairEED0Ev = comdat any

$_ZN11xercesc_2_715BaseRefVectorOfINS_12KVStringPairEE12setElementAtEPS1_j = comdat any

$_ZN11xercesc_2_715BaseRefVectorOfINS_12KVStringPairEE17removeAllElementsEv = comdat any

$_ZN11xercesc_2_715BaseRefVectorOfINS_12KVStringPairEE15removeElementAtEj = comdat any

$_ZN11xercesc_2_715BaseRefVectorOfINS_12KVStringPairEE17removeLastElementEv = comdat any

$_ZN11xercesc_2_715BaseRefVectorOfINS_12KVStringPairEE7cleanupEv = comdat any

$_ZN11xercesc_2_715BaseRefVectorOfINS_12KVStringPairEED2Ev = comdat any

$_ZN11xercesc_2_715BaseRefVectorOfINS_12KVStringPairEED0Ev = comdat any

$_ZN11xercesc_2_714RefHashTableOfIjE10initializeEj = comdat any

$_ZN11xercesc_2_719RefHash2KeysTableOfIjE10initializeEj = comdat any

$_ZN11xercesc_2_718RefHash3KeysIdPoolINS_17SchemaElementDeclEE9removeAllEv = comdat any

$_ZN11xercesc_2_714RefHashTableOfIjE7cleanupEv = comdat any

$_ZN11xercesc_2_713ValueVectorOfIbED2Ev = comdat any

$_ZN11xercesc_2_715BaseRefVectorOfINS_12KVStringPairEE19ensureExtraCapacityEj = comdat any

$_ZNK11xercesc_2_713ValueVectorOfIbE4sizeEv = comdat any

$_ZNK11xercesc_2_713ValueVectorOfIbE16getMemoryManagerEv = comdat any

$_ZN11xercesc_2_713ValueVectorOfIbE9elementAtEj = comdat any

$_ZN11xercesc_2_713ValueVectorOfIbE15removeElementAtEj = comdat any

$_ZN11xercesc_2_713ValueVectorOfIbE10addElementERKb = comdat any

$_ZN11xercesc_2_713ValueVectorOfIbE19ensureExtraCapacityEj = comdat any

$_ZN11xercesc_2_77JanitorINS_14DTDElementDeclEE5resetEPS1_ = comdat any

$_ZN11xercesc_2_712ArrayJanitorItE5resetEPt = comdat any

$_ZN11xercesc_2_77JanitorINS_13DTDEntityDeclEE5resetEPS1_ = comdat any

$_ZN11xercesc_2_715BaseRefVectorOfINS_7XMLAttrEE19ensureExtraCapacityEj = comdat any

$_ZNK11xercesc_2_714RefHashTableOfIjE14findBucketElemEPKvRj = comdat any

$_ZN11xercesc_2_714RefHashTableOfIjE6rehashEv = comdat any

$_ZN11xercesc_2_714RefHashTableOfIjE14findBucketElemEPKvRj = comdat any

$_ZN11xercesc_2_722RefHashTableBucketElemIjEC2EPvPjPS1_ = comdat any

$_ZN11xercesc_2_712ArrayJanitorIPNS_22RefHashTableBucketElemIjEEEC2EPS3_PNS_13MemoryManagerE = comdat any

$_ZN11xercesc_2_712ArrayJanitorIPNS_22RefHashTableBucketElemIjEEE7releaseEv = comdat any

$_ZN11xercesc_2_712ArrayJanitorIPNS_22RefHashTableBucketElemIjEEED2Ev = comdat any

$_ZN11xercesc_2_712ArrayJanitorIPNS_22RefHashTableBucketElemIjEEE5resetEPS3_ = comdat any

$_ZNK11xercesc_2_714RefHashTableOfIjE7isEmptyEv = comdat any

$_ZNK11xercesc_2_719RefHash2KeysTableOfIjE7isEmptyEv = comdat any

$_ZN11xercesc_2_713ValueVectorOfIPtE19ensureExtraCapacityEj = comdat any

$_ZTVN11xercesc_2_710XMLRefInfoE = comdat any

$_ZTVN11xercesc_2_713PSVIAttributeE = comdat any

$_ZTVN11xercesc_2_715ContentSpecNodeE = comdat any

$_ZTSN11xercesc_2_720OutOfMemoryExceptionE = comdat any

$_ZTSN11xercesc_2_77XMemoryE = comdat any

$_ZTIN11xercesc_2_77XMemoryE = comdat any

$_ZTIN11xercesc_2_720OutOfMemoryExceptionE = comdat any

$_ZTSN11xercesc_2_77XMLErrs5CodesE = comdat any

$_ZTIN11xercesc_2_77XMLErrs5CodesE = comdat any

$_ZTSN11xercesc_2_78XMLValid5CodesE = comdat any

$_ZTIN11xercesc_2_78XMLValid5CodesE = comdat any

$_ZTSN11xercesc_2_716RuntimeExceptionE = comdat any

$_ZTIN11xercesc_2_716RuntimeExceptionE = comdat any

$_ZTSN11xercesc_2_720EndOfEntityExceptionE = comdat any

$_ZTIN11xercesc_2_720EndOfEntityExceptionE = comdat any

$_ZTSN11xercesc_2_722UnexpectedEOFExceptionE = comdat any

$_ZTIN11xercesc_2_722UnexpectedEOFExceptionE = comdat any

$_ZTVN11xercesc_2_710XMLDeleterE = comdat any

$_ZTSN11xercesc_2_710XMLDeleterE = comdat any

$_ZTIN11xercesc_2_710XMLDeleterE = comdat any

$_ZTSN11xercesc_2_710XMLRefInfoE = comdat any

$_ZTSN11xercesc_2_713XSerializableE = comdat any

$_ZTIN11xercesc_2_713XSerializableE = comdat any

$_ZTIN11xercesc_2_710XMLRefInfoE = comdat any

$_ZTVN11xercesc_2_713DTDEntityDeclE = comdat any

$_ZTSN11xercesc_2_713DTDEntityDeclE = comdat any

$_ZTIN11xercesc_2_713DTDEntityDeclE = comdat any

$_ZTVN11xercesc_2_713XMLAttDefListE = comdat any

$_ZTSN11xercesc_2_713XMLAttDefListE = comdat any

$_ZTIN11xercesc_2_713XMLAttDefListE = comdat any

$_ZTVN11xercesc_2_78PSVIItemE = comdat any

$_ZTSN11xercesc_2_78PSVIItemE = comdat any

$_ZTIN11xercesc_2_78PSVIItemE = comdat any

$_ZTSN11xercesc_2_713PSVIAttributeE = comdat any

$_ZTIN11xercesc_2_713PSVIAttributeE = comdat any

$_ZTVN11xercesc_2_711PSVIHandlerE = comdat any

$_ZTSN11xercesc_2_711PSVIHandlerE = comdat any

$_ZTIN11xercesc_2_711PSVIHandlerE = comdat any

$_ZTSN11xercesc_2_715ContentSpecNodeE = comdat any

$_ZTIN11xercesc_2_715ContentSpecNodeE = comdat any

$_ZTVN11xercesc_2_716RuntimeExceptionE = comdat any

$_ZTVN11xercesc_2_722UnexpectedEOFExceptionE = comdat any

$_ZTSN11xercesc_2_719EmptyStackExceptionE = comdat any

$_ZTIN11xercesc_2_719EmptyStackExceptionE = comdat any

$_ZTVN11xercesc_2_719EmptyStackExceptionE = comdat any

$_ZTSN11xercesc_2_730ArrayIndexOutOfBoundsExceptionE = comdat any

$_ZTIN11xercesc_2_730ArrayIndexOutOfBoundsExceptionE = comdat any

$_ZTVN11xercesc_2_730ArrayIndexOutOfBoundsExceptionE = comdat any

$_ZTSN11xercesc_2_724IllegalArgumentExceptionE = comdat any

$_ZTIN11xercesc_2_724IllegalArgumentExceptionE = comdat any

$_ZTVN11xercesc_2_724IllegalArgumentExceptionE = comdat any

$_ZTVN11xercesc_2_711RefVectorOfINS_12KVStringPairEEE = comdat any

$_ZTSN11xercesc_2_711RefVectorOfINS_12KVStringPairEEE = comdat any

$_ZTSN11xercesc_2_715BaseRefVectorOfINS_12KVStringPairEEE = comdat any

$_ZTIN11xercesc_2_715BaseRefVectorOfINS_12KVStringPairEEE = comdat any

$_ZTIN11xercesc_2_711RefVectorOfINS_12KVStringPairEEE = comdat any

$_ZTVN11xercesc_2_715BaseRefVectorOfINS_12KVStringPairEEE = comdat any

@_ZTVN11xercesc_2_710XMLRefInfoE = linkonce_odr dso_local unnamed_addr constant { [7 x i8*] } { [7 x i8*] [i8* null, i8* bitcast ({ i8*, i8*, i32, i32, i8*, i64, i8*, i64 }* @_ZTIN11xercesc_2_710XMLRefInfoE to i8*), i8* bitcast (void (%"class.xercesc_2_7::XMLRefInfo"*)* @_ZN11xercesc_2_710XMLRefInfoD2Ev to i8*), i8* bitcast (void (%"class.xercesc_2_7::XMLRefInfo"*)* @_ZN11xercesc_2_710XMLRefInfoD0Ev to i8*), i8* bitcast (i1 (%"class.xercesc_2_7::XMLRefInfo"*)* @_ZNK11xercesc_2_710XMLRefInfo14isSerializableEv to i8*), i8* bitcast (void (%"class.xercesc_2_7::XMLRefInfo"*, %"class.xercesc_2_7::XSerializeEngine"*)* @_ZN11xercesc_2_710XMLRefInfo9serializeERNS_16XSerializeEngineE to i8*), i8* bitcast (%"class.xercesc_2_7::XProtoType"* (%"class.xercesc_2_7::XMLRefInfo"*)* @_ZNK11xercesc_2_710XMLRefInfo12getProtoTypeEv to i8*)] }, comdat, align 8
@_ZTVN11xercesc_2_713PSVIAttributeE = linkonce_odr dso_local unnamed_addr constant { [7 x i8*] } { [7 x i8*] [i8* null, i8* bitcast ({ i8*, i8*, i8* }* @_ZTIN11xercesc_2_713PSVIAttributeE to i8*), i8* bitcast (void (%"class.xercesc_2_7::PSVIAttribute"*)* @_ZN11xercesc_2_713PSVIAttributeD2Ev to i8*), i8* bitcast (void (%"class.xercesc_2_7::PSVIAttribute"*)* @_ZN11xercesc_2_713PSVIAttributeD0Ev to i8*), i8* bitcast (%"class.xercesc_2_7::XSTypeDefinition"* (%"class.xercesc_2_7::PSVIAttribute"*)* @_ZN11xercesc_2_713PSVIAttribute17getTypeDefinitionEv to i8*), i8* bitcast (%"class.xercesc_2_7::XSSimpleTypeDefinition"* (%"class.xercesc_2_7::PSVIAttribute"*)* @_ZN11xercesc_2_713PSVIAttribute23getMemberTypeDefinitionEv to i8*), i8* bitcast (%"class.xercesc_2_7::XSValue"* (%"class.xercesc_2_7::PSVIItem"*)* @_ZNK11xercesc_2_78PSVIItem14getActualValueEv to i8*)] }, comdat, align 8
@_ZTVN11xercesc_2_715ContentSpecNodeE = linkonce_odr dso_local unnamed_addr constant { [7 x i8*] } { [7 x i8*] [i8* null, i8* bitcast ({ i8*, i8*, i32, i32, i8*, i64, i8*, i64 }* @_ZTIN11xercesc_2_715ContentSpecNodeE to i8*), i8* bitcast (void (%"class.xercesc_2_7::ContentSpecNode"*)* @_ZN11xercesc_2_715ContentSpecNodeD2Ev to i8*), i8* bitcast (void (%"class.xercesc_2_7::ContentSpecNode"*)* @_ZN11xercesc_2_715ContentSpecNodeD0Ev to i8*), i8* bitcast (i1 (%"class.xercesc_2_7::ContentSpecNode"*)* @_ZNK11xercesc_2_715ContentSpecNode14isSerializableEv to i8*), i8* bitcast (void (%"class.xercesc_2_7::ContentSpecNode"*, %"class.xercesc_2_7::XSerializeEngine"*)* @_ZN11xercesc_2_715ContentSpecNode9serializeERNS_16XSerializeEngineE to i8*), i8* bitcast (%"class.xercesc_2_7::XProtoType"* (%"class.xercesc_2_7::ContentSpecNode"*)* @_ZNK11xercesc_2_715ContentSpecNode12getProtoTypeEv to i8*)] }, comdat, align 8
@_ZTVN11xercesc_2_712IGXMLScannerE = dso_local unnamed_addr constant { [20 x i8*] } { [20 x i8*] [i8* null, i8* bitcast ({ i8*, i8*, i8* }* @_ZTIN11xercesc_2_712IGXMLScannerE to i8*), i8* bitcast (void (%"class.xercesc_2_7::IGXMLScanner"*)* @_ZN11xercesc_2_712IGXMLScannerD1Ev to i8*), i8* bitcast (void (%"class.xercesc_2_7::IGXMLScanner"*)* @_ZN11xercesc_2_712IGXMLScannerD0Ev to i8*), i8* bitcast (i1 (%"class.xercesc_2_7::XMLScanner"*, %"class.xercesc_2_7::XMLBuffer"*)* @_ZN11xercesc_2_710XMLScanner10bufferFullERNS_9XMLBufferE to i8*), i8* bitcast (i32 (%"class.xercesc_2_7::IGXMLScanner"*)* @_ZNK11xercesc_2_712IGXMLScanner21getCurrentGrammarTypeEv to i8*), i8* bitcast (i16* (%"class.xercesc_2_7::IGXMLScanner"*)* @_ZNK11xercesc_2_712IGXMLScanner7getNameEv to i8*), i8* bitcast (%"class.xercesc_2_7::NameIdPool.20"* (%"class.xercesc_2_7::IGXMLScanner"*)* @_ZN11xercesc_2_712IGXMLScanner17getEntityDeclPoolEv to i8*), i8* bitcast (%"class.xercesc_2_7::NameIdPool.20"* (%"class.xercesc_2_7::IGXMLScanner"*)* @_ZNK11xercesc_2_712IGXMLScanner17getEntityDeclPoolEv to i8*), i8* bitcast (i32 (%"class.xercesc_2_7::IGXMLScanner"*, i16*, %"class.xercesc_2_7::XMLBuffer"*, i16, i32*)* @_ZN11xercesc_2_712IGXMLScanner12resolveQNameEPKtRNS_9XMLBufferEsRi to i8*), i8* bitcast (void (%"class.xercesc_2_7::IGXMLScanner"*, %"class.xercesc_2_7::InputSource"*)* @_ZN11xercesc_2_712IGXMLScanner12scanDocumentERKNS_11InputSourceE to i8*), i8* bitcast (i1 (%"class.xercesc_2_7::IGXMLScanner"*, %"class.xercesc_2_7::XMLPScanToken"*)* @_ZN11xercesc_2_712IGXMLScanner8scanNextERNS_13XMLPScanTokenE to i8*), i8* bitcast (%"class.xercesc_2_7::Grammar"* (%"class.xercesc_2_7::IGXMLScanner"*, %"class.xercesc_2_7::InputSource"*, i16, i1)* @_ZN11xercesc_2_712IGXMLScanner11loadGrammarERKNS_11InputSourceEsb to i8*), i8* bitcast (void (%"class.xercesc_2_7::IGXMLScanner"*)* @_ZN11xercesc_2_712IGXMLScanner13scanCDSectionEv to i8*), i8* bitcast (void (%"class.xercesc_2_7::IGXMLScanner"*, %"class.xercesc_2_7::XMLBuffer"*)* @_ZN11xercesc_2_712IGXMLScanner12scanCharDataERNS_9XMLBufferE to i8*), i8* bitcast (i32 (%"class.xercesc_2_7::IGXMLScanner"*, i1, i16*, i16*, i8*)* @_ZN11xercesc_2_712IGXMLScanner13scanEntityRefEbRtS1_Rb to i8*), i8* bitcast (void (%"class.xercesc_2_7::IGXMLScanner"*)* @_ZN11xercesc_2_712IGXMLScanner15scanDocTypeDeclEv to i8*), i8* bitcast (void (%"class.xercesc_2_7::IGXMLScanner"*, %"class.xercesc_2_7::InputSource"*)* @_ZN11xercesc_2_712IGXMLScanner9scanResetERKNS_11InputSourceE to i8*), i8* bitcast (void (%"class.xercesc_2_7::IGXMLScanner"*, %"class.xercesc_2_7::XMLBuffer"*)* @_ZN11xercesc_2_712IGXMLScanner12sendCharDataERNS_9XMLBufferE to i8*), i8* bitcast (%"class.xercesc_2_7::InputSource"* (%"class.xercesc_2_7::IGXMLScanner"*, i16*, i16*)* @_ZN11xercesc_2_712IGXMLScanner15resolveSystemIdEPKtS2_ to i8*)] }, align 8
@_ZTVN10__cxxabiv120__si_class_type_infoE = external dso_local global i8*
@_ZTSN11xercesc_2_720OutOfMemoryExceptionE = linkonce_odr dso_local constant [38 x i8] c"N11xercesc_2_720OutOfMemoryExceptionE\00", comdat, align 1
@_ZTVN10__cxxabiv117__class_type_infoE = external dso_local global i8*
@_ZTSN11xercesc_2_77XMemoryE = linkonce_odr dso_local constant [24 x i8] c"N11xercesc_2_77XMemoryE\00", comdat, align 1
@_ZTIN11xercesc_2_77XMemoryE = linkonce_odr dso_local constant { i8*, i8* } { i8* bitcast (i8** getelementptr inbounds (i8*, i8** @_ZTVN10__cxxabiv117__class_type_infoE, i64 2) to i8*), i8* getelementptr inbounds ([24 x i8], [24 x i8]* @_ZTSN11xercesc_2_77XMemoryE, i32 0, i32 0) }, comdat, align 8
@_ZTIN11xercesc_2_720OutOfMemoryExceptionE = linkonce_odr dso_local constant { i8*, i8*, i8* } { i8* bitcast (i8** getelementptr inbounds (i8*, i8** @_ZTVN10__cxxabiv120__si_class_type_infoE, i64 2) to i8*), i8* getelementptr inbounds ([38 x i8], [38 x i8]* @_ZTSN11xercesc_2_720OutOfMemoryExceptionE, i32 0, i32 0), i8* bitcast ({ i8*, i8* }* @_ZTIN11xercesc_2_77XMemoryE to i8*) }, comdat, align 8
@_ZTVN10__cxxabiv116__enum_type_infoE = external dso_local global i8*
@_ZTSN11xercesc_2_77XMLErrs5CodesE = linkonce_odr dso_local constant [30 x i8] c"N11xercesc_2_77XMLErrs5CodesE\00", comdat, align 1
@_ZTIN11xercesc_2_77XMLErrs5CodesE = linkonce_odr dso_local constant { i8*, i8* } { i8* bitcast (i8** getelementptr inbounds (i8*, i8** @_ZTVN10__cxxabiv116__enum_type_infoE, i64 2) to i8*), i8* getelementptr inbounds ([30 x i8], [30 x i8]* @_ZTSN11xercesc_2_77XMLErrs5CodesE, i32 0, i32 0) }, comdat, align 8
@_ZTSN11xercesc_2_78XMLValid5CodesE = linkonce_odr dso_local constant [31 x i8] c"N11xercesc_2_78XMLValid5CodesE\00", comdat, align 1
@_ZTIN11xercesc_2_78XMLValid5CodesE = linkonce_odr dso_local constant { i8*, i8* } { i8* bitcast (i8** getelementptr inbounds (i8*, i8** @_ZTVN10__cxxabiv116__enum_type_infoE, i64 2) to i8*), i8* getelementptr inbounds ([31 x i8], [31 x i8]* @_ZTSN11xercesc_2_78XMLValid5CodesE, i32 0, i32 0) }, comdat, align 8
@_ZTIN11xercesc_2_712XMLExceptionE = external dso_local constant i8*
@.str = private unnamed_addr constant [17 x i8] c"IGXMLScanner.cpp\00", align 1
@_ZTSN11xercesc_2_716RuntimeExceptionE = linkonce_odr dso_local constant [34 x i8] c"N11xercesc_2_716RuntimeExceptionE\00", comdat, align 1
@_ZTIN11xercesc_2_716RuntimeExceptionE = linkonce_odr dso_local constant { i8*, i8*, i8* } { i8* bitcast (i8** getelementptr inbounds (i8*, i8** @_ZTVN10__cxxabiv120__si_class_type_infoE, i64 2) to i8*), i8* getelementptr inbounds ([34 x i8], [34 x i8]* @_ZTSN11xercesc_2_716RuntimeExceptionE, i32 0, i32 0), i8* bitcast (i8** @_ZTIN11xercesc_2_712XMLExceptionE to i8*) }, comdat, align 8
@_ZTSN11xercesc_2_720EndOfEntityExceptionE = linkonce_odr dso_local constant [38 x i8] c"N11xercesc_2_720EndOfEntityExceptionE\00", comdat, align 1
@_ZTIN11xercesc_2_720EndOfEntityExceptionE = linkonce_odr dso_local constant { i8*, i8* } { i8* bitcast (i8** getelementptr inbounds (i8*, i8** @_ZTVN10__cxxabiv117__class_type_infoE, i64 2) to i8*), i8* getelementptr inbounds ([38 x i8], [38 x i8]* @_ZTSN11xercesc_2_720EndOfEntityExceptionE, i32 0, i32 0) }, comdat, align 8
@_ZZN11xercesc_2_712IGXMLScanner11rawAttrScanEPKtRNS_11RefVectorOfINS_12KVStringPairEEERbE7tmpList = internal constant [6 x i16] [i16 39, i16 34, i16 62, i16 60, i16 47, i16 0], align 2, !dbg !0
@_ZZN11xercesc_2_712IGXMLScanner11rawAttrScanEPKtRNS_11RefVectorOfINS_12KVStringPairEEERbE7tmpList_0 = internal constant [4 x i16] [i16 62, i16 60, i16 47, i16 0], align 2, !dbg !3706
@_ZTSN11xercesc_2_722UnexpectedEOFExceptionE = linkonce_odr dso_local constant [40 x i8] c"N11xercesc_2_722UnexpectedEOFExceptionE\00", comdat, align 1
@_ZTIN11xercesc_2_722UnexpectedEOFExceptionE = linkonce_odr dso_local constant { i8*, i8*, i8* } { i8* bitcast (i8** getelementptr inbounds (i8*, i8** @_ZTVN10__cxxabiv120__si_class_type_infoE, i64 2) to i8*), i8* getelementptr inbounds ([40 x i8], [40 x i8]* @_ZTSN11xercesc_2_722UnexpectedEOFExceptionE, i32 0, i32 0), i8* bitcast (i8** @_ZTIN11xercesc_2_712XMLExceptionE to i8*) }, comdat, align 8
@_ZN11xercesc_2_76XMLUni15fgZeroLenStringE = external dso_local constant [0 x i16], align 2
@_ZN11xercesc_2_76XMLUni17fgDTDEntityStringE = external dso_local constant [0 x i16], align 2
@__const._ZN11xercesc_2_712IGXMLScanner15scanDocTypeDeclEv.gDTDStr = private unnamed_addr constant [4 x i16] [i16 68, i16 84, i16 68, i16 0], align 2
@_ZZN11xercesc_2_712IGXMLScanner12scanStartTagERbE7tmpList = internal constant [6 x i16] [i16 39, i16 34, i16 62, i16 60, i16 47, i16 0], align 2, !dbg !3715
@_ZZN11xercesc_2_712IGXMLScanner12scanStartTagERbE7tmpList_0 = internal constant [4 x i16] [i16 62, i16 60, i16 47, i16 0], align 2, !dbg !3722
@_ZN11xercesc_2_76XMLUni18fgXMLNSColonStringE = external dso_local constant [0 x i16], align 2
@_ZN11xercesc_2_76XMLUni13fgXMLNSStringE = external dso_local constant [0 x i16], align 2
@__const._ZN11xercesc_2_712IGXMLScanner14scanStartTagNSERb.poundStr = private unnamed_addr constant [2 x i16] [i16 35, i16 0], align 2
@_ZN11xercesc_2_76XMLUni11fgXMLStringE = external dso_local constant [0 x i16], align 2
@__const._ZN11xercesc_2_712IGXMLScanner14loadDTDGrammarERKNS_11InputSourceEb.gDTDStr = private unnamed_addr constant [4 x i16] [i16 68, i16 84, i16 68, i16 0], align 2
@_ZTVN11xercesc_2_710XMLDeleterE = linkonce_odr dso_local unnamed_addr constant { [4 x i8*] } { [4 x i8*] [i8* null, i8* bitcast ({ i8*, i8* }* @_ZTIN11xercesc_2_710XMLDeleterE to i8*), i8* bitcast (void (%"class.xercesc_2_7::XMLDeleter"*)* @_ZN11xercesc_2_710XMLDeleterD2Ev to i8*), i8* bitcast (void (%"class.xercesc_2_7::XMLDeleter"*)* @_ZN11xercesc_2_710XMLDeleterD0Ev to i8*)] }, comdat, align 8
@_ZTSN11xercesc_2_710XMLDeleterE = linkonce_odr dso_local constant [28 x i8] c"N11xercesc_2_710XMLDeleterE\00", comdat, align 1
@_ZTIN11xercesc_2_710XMLDeleterE = linkonce_odr dso_local constant { i8*, i8* } { i8* bitcast (i8** getelementptr inbounds (i8*, i8** @_ZTVN10__cxxabiv117__class_type_infoE, i64 2) to i8*), i8* getelementptr inbounds ([28 x i8], [28 x i8]* @_ZTSN11xercesc_2_710XMLDeleterE, i32 0, i32 0) }, comdat, align 8
@_ZTVN10__cxxabiv121__vmi_class_type_infoE = external dso_local global i8*
@_ZTSN11xercesc_2_710XMLRefInfoE = linkonce_odr dso_local constant [28 x i8] c"N11xercesc_2_710XMLRefInfoE\00", comdat, align 1
@_ZTSN11xercesc_2_713XSerializableE = linkonce_odr dso_local constant [31 x i8] c"N11xercesc_2_713XSerializableE\00", comdat, align 1
@_ZTIN11xercesc_2_713XSerializableE = linkonce_odr dso_local constant { i8*, i8* } { i8* bitcast (i8** getelementptr inbounds (i8*, i8** @_ZTVN10__cxxabiv117__class_type_infoE, i64 2) to i8*), i8* getelementptr inbounds ([31 x i8], [31 x i8]* @_ZTSN11xercesc_2_713XSerializableE, i32 0, i32 0) }, comdat, align 8
@_ZTIN11xercesc_2_710XMLRefInfoE = linkonce_odr dso_local constant { i8*, i8*, i32, i32, i8*, i64, i8*, i64 } { i8* bitcast (i8** getelementptr inbounds (i8*, i8** @_ZTVN10__cxxabiv121__vmi_class_type_infoE, i64 2) to i8*), i8* getelementptr inbounds ([28 x i8], [28 x i8]* @_ZTSN11xercesc_2_710XMLRefInfoE, i32 0, i32 0), i32 0, i32 2, i8* bitcast ({ i8*, i8* }* @_ZTIN11xercesc_2_713XSerializableE to i8*), i64 2, i8* bitcast ({ i8*, i8* }* @_ZTIN11xercesc_2_77XMemoryE to i8*), i64 2 }, comdat, align 8
@_ZTVN11xercesc_2_713DTDEntityDeclE = linkonce_odr dso_local unnamed_addr constant { [10 x i8*] } { [10 x i8*] [i8* null, i8* bitcast ({ i8*, i8*, i8* }* @_ZTIN11xercesc_2_713DTDEntityDeclE to i8*), i8* bitcast (void (%"class.xercesc_2_7::DTDEntityDecl"*)* @_ZN11xercesc_2_713DTDEntityDeclD2Ev to i8*), i8* bitcast (void (%"class.xercesc_2_7::DTDEntityDecl"*)* @_ZN11xercesc_2_713DTDEntityDeclD0Ev to i8*), i8* bitcast (i1 (%"class.xercesc_2_7::DTDEntityDecl"*)* @_ZNK11xercesc_2_713DTDEntityDecl14isSerializableEv to i8*), i8* bitcast (void (%"class.xercesc_2_7::DTDEntityDecl"*, %"class.xercesc_2_7::XSerializeEngine"*)* @_ZN11xercesc_2_713DTDEntityDecl9serializeERNS_16XSerializeEngineE to i8*), i8* bitcast (%"class.xercesc_2_7::XProtoType"* (%"class.xercesc_2_7::DTDEntityDecl"*)* @_ZNK11xercesc_2_713DTDEntityDecl12getProtoTypeEv to i8*), i8* bitcast (i1 (%"class.xercesc_2_7::DTDEntityDecl"*)* @_ZNK11xercesc_2_713DTDEntityDecl22getDeclaredInIntSubsetEv to i8*), i8* bitcast (i1 (%"class.xercesc_2_7::DTDEntityDecl"*)* @_ZNK11xercesc_2_713DTDEntityDecl14getIsParameterEv to i8*), i8* bitcast (i1 (%"class.xercesc_2_7::DTDEntityDecl"*)* @_ZNK11xercesc_2_713DTDEntityDecl16getIsSpecialCharEv to i8*)] }, comdat, align 8
@_ZTSN11xercesc_2_713DTDEntityDeclE = linkonce_odr dso_local constant [31 x i8] c"N11xercesc_2_713DTDEntityDeclE\00", comdat, align 1
@_ZTIN11xercesc_2_713XMLEntityDeclE = external dso_local constant i8*
@_ZTIN11xercesc_2_713DTDEntityDeclE = linkonce_odr dso_local constant { i8*, i8*, i8* } { i8* bitcast (i8** getelementptr inbounds (i8*, i8** @_ZTVN10__cxxabiv120__si_class_type_infoE, i64 2) to i8*), i8* getelementptr inbounds ([31 x i8], [31 x i8]* @_ZTSN11xercesc_2_713DTDEntityDeclE, i32 0, i32 0), i8* bitcast (i8** @_ZTIN11xercesc_2_713XMLEntityDeclE to i8*) }, comdat, align 8
@_ZTVN11xercesc_2_713XMLAttDefListE = linkonce_odr dso_local unnamed_addr constant { [18 x i8*] } { [18 x i8*] [i8* null, i8* bitcast ({ i8*, i8*, i32, i32, i8*, i64, i8*, i64 }* @_ZTIN11xercesc_2_713XMLAttDefListE to i8*), i8* bitcast (void (%"class.xercesc_2_7::XMLAttDefList"*)* @_ZN11xercesc_2_713XMLAttDefListD2Ev to i8*), i8* bitcast (void (%"class.xercesc_2_7::XMLAttDefList"*)* @_ZN11xercesc_2_713XMLAttDefListD0Ev to i8*), i8* bitcast (i1 (%"class.xercesc_2_7::XMLAttDefList"*)* @_ZNK11xercesc_2_713XMLAttDefList14isSerializableEv to i8*), i8* bitcast (void (%"class.xercesc_2_7::XMLAttDefList"*, %"class.xercesc_2_7::XSerializeEngine"*)* @_ZN11xercesc_2_713XMLAttDefList9serializeERNS_16XSerializeEngineE to i8*), i8* bitcast (%"class.xercesc_2_7::XProtoType"* (%"class.xercesc_2_7::XMLAttDefList"*)* @_ZNK11xercesc_2_713XMLAttDefList12getProtoTypeEv to i8*), i8* bitcast (void ()* @__cxa_pure_virtual to i8*), i8* bitcast (void ()* @__cxa_pure_virtual to i8*), i8* bitcast (void ()* @__cxa_pure_virtual to i8*), i8* bitcast (void ()* @__cxa_pure_virtual to i8*), i8* bitcast (void ()* @__cxa_pure_virtual to i8*), i8* bitcast (void ()* @__cxa_pure_virtual to i8*), i8* bitcast (void ()* @__cxa_pure_virtual to i8*), i8* bitcast (void ()* @__cxa_pure_virtual to i8*), i8* bitcast (void ()* @__cxa_pure_virtual to i8*), i8* bitcast (void ()* @__cxa_pure_virtual to i8*), i8* bitcast (void ()* @__cxa_pure_virtual to i8*)] }, comdat, align 8
@_ZTSN11xercesc_2_713XMLAttDefListE = linkonce_odr dso_local constant [31 x i8] c"N11xercesc_2_713XMLAttDefListE\00", comdat, align 1
@_ZTIN11xercesc_2_713XMLAttDefListE = linkonce_odr dso_local constant { i8*, i8*, i32, i32, i8*, i64, i8*, i64 } { i8* bitcast (i8** getelementptr inbounds (i8*, i8** @_ZTVN10__cxxabiv121__vmi_class_type_infoE, i64 2) to i8*), i8* getelementptr inbounds ([31 x i8], [31 x i8]* @_ZTSN11xercesc_2_713XMLAttDefListE, i32 0, i32 0), i32 0, i32 2, i8* bitcast ({ i8*, i8* }* @_ZTIN11xercesc_2_713XSerializableE to i8*), i64 2, i8* bitcast ({ i8*, i8* }* @_ZTIN11xercesc_2_77XMemoryE to i8*), i64 2 }, comdat, align 8
@_ZTVN11xercesc_2_78PSVIItemE = linkonce_odr dso_local unnamed_addr constant { [7 x i8*] } { [7 x i8*] [i8* null, i8* bitcast ({ i8*, i8*, i8* }* @_ZTIN11xercesc_2_78PSVIItemE to i8*), i8* bitcast (void (%"class.xercesc_2_7::PSVIItem"*)* @_ZN11xercesc_2_78PSVIItemD2Ev to i8*), i8* bitcast (void (%"class.xercesc_2_7::PSVIItem"*)* @_ZN11xercesc_2_78PSVIItemD0Ev to i8*), i8* bitcast (void ()* @__cxa_pure_virtual to i8*), i8* bitcast (void ()* @__cxa_pure_virtual to i8*), i8* bitcast (%"class.xercesc_2_7::XSValue"* (%"class.xercesc_2_7::PSVIItem"*)* @_ZNK11xercesc_2_78PSVIItem14getActualValueEv to i8*)] }, comdat, align 8
@_ZTSN11xercesc_2_78PSVIItemE = linkonce_odr dso_local constant [25 x i8] c"N11xercesc_2_78PSVIItemE\00", comdat, align 1
@_ZTIN11xercesc_2_78PSVIItemE = linkonce_odr dso_local constant { i8*, i8*, i8* } { i8* bitcast (i8** getelementptr inbounds (i8*, i8** @_ZTVN10__cxxabiv120__si_class_type_infoE, i64 2) to i8*), i8* getelementptr inbounds ([25 x i8], [25 x i8]* @_ZTSN11xercesc_2_78PSVIItemE, i32 0, i32 0), i8* bitcast ({ i8*, i8* }* @_ZTIN11xercesc_2_77XMemoryE to i8*) }, comdat, align 8
@_ZTSN11xercesc_2_713PSVIAttributeE = linkonce_odr dso_local constant [31 x i8] c"N11xercesc_2_713PSVIAttributeE\00", comdat, align 1
@_ZTIN11xercesc_2_713PSVIAttributeE = linkonce_odr dso_local constant { i8*, i8*, i8* } { i8* bitcast (i8** getelementptr inbounds (i8*, i8** @_ZTVN10__cxxabiv120__si_class_type_infoE, i64 2) to i8*), i8* getelementptr inbounds ([31 x i8], [31 x i8]* @_ZTSN11xercesc_2_713PSVIAttributeE, i32 0, i32 0), i8* bitcast ({ i8*, i8*, i8* }* @_ZTIN11xercesc_2_78PSVIItemE to i8*) }, comdat, align 8
@_ZTVN11xercesc_2_711PSVIHandlerE = linkonce_odr dso_local unnamed_addr constant { [7 x i8*] } { [7 x i8*] [i8* null, i8* bitcast ({ i8*, i8* }* @_ZTIN11xercesc_2_711PSVIHandlerE to i8*), i8* bitcast (void (%"class.xercesc_2_7::PSVIHandler"*)* @_ZN11xercesc_2_711PSVIHandlerD2Ev to i8*), i8* bitcast (void (%"class.xercesc_2_7::PSVIHandler"*)* @_ZN11xercesc_2_711PSVIHandlerD0Ev to i8*), i8* bitcast (void ()* @__cxa_pure_virtual to i8*), i8* bitcast (void (%"class.xercesc_2_7::PSVIHandler"*, i16*, i16*, %"class.xercesc_2_7::PSVIElement"*)* @_ZN11xercesc_2_711PSVIHandler24handlePartialElementPSVIEPKtS2_PNS_11PSVIElementE to i8*), i8* bitcast (void ()* @__cxa_pure_virtual to i8*)] }, comdat, align 8
@_ZTSN11xercesc_2_711PSVIHandlerE = linkonce_odr dso_local constant [29 x i8] c"N11xercesc_2_711PSVIHandlerE\00", comdat, align 1
@_ZTIN11xercesc_2_711PSVIHandlerE = linkonce_odr dso_local constant { i8*, i8* } { i8* bitcast (i8** getelementptr inbounds (i8*, i8** @_ZTVN10__cxxabiv117__class_type_infoE, i64 2) to i8*), i8* getelementptr inbounds ([29 x i8], [29 x i8]* @_ZTSN11xercesc_2_711PSVIHandlerE, i32 0, i32 0) }, comdat, align 8
@_ZTSN11xercesc_2_715ContentSpecNodeE = linkonce_odr dso_local constant [33 x i8] c"N11xercesc_2_715ContentSpecNodeE\00", comdat, align 1
@_ZTIN11xercesc_2_715ContentSpecNodeE = linkonce_odr dso_local constant { i8*, i8*, i32, i32, i8*, i64, i8*, i64 } { i8* bitcast (i8** getelementptr inbounds (i8*, i8** @_ZTVN10__cxxabiv121__vmi_class_type_infoE, i64 2) to i8*), i8* getelementptr inbounds ([33 x i8], [33 x i8]* @_ZTSN11xercesc_2_715ContentSpecNodeE, i32 0, i32 0), i32 0, i32 2, i8* bitcast ({ i8*, i8* }* @_ZTIN11xercesc_2_713XSerializableE to i8*), i64 2, i8* bitcast ({ i8*, i8* }* @_ZTIN11xercesc_2_77XMemoryE to i8*), i64 2 }, comdat, align 8
@_ZTSN11xercesc_2_712IGXMLScannerE = dso_local constant [30 x i8] c"N11xercesc_2_712IGXMLScannerE\00", align 1
@_ZTIN11xercesc_2_710XMLScannerE = external dso_local constant i8*
@_ZTIN11xercesc_2_712IGXMLScannerE = dso_local constant { i8*, i8*, i8* } { i8* bitcast (i8** getelementptr inbounds (i8*, i8** @_ZTVN10__cxxabiv120__si_class_type_infoE, i64 2) to i8*), i8* getelementptr inbounds ([30 x i8], [30 x i8]* @_ZTSN11xercesc_2_712IGXMLScannerE, i32 0, i32 0), i8* bitcast (i8** @_ZTIN11xercesc_2_710XMLScannerE to i8*) }, align 8
@_ZTVN11xercesc_2_716RuntimeExceptionE = linkonce_odr dso_local unnamed_addr constant { [6 x i8*] } { [6 x i8*] [i8* null, i8* bitcast ({ i8*, i8*, i8* }* @_ZTIN11xercesc_2_716RuntimeExceptionE to i8*), i8* bitcast (void (%"class.xercesc_2_7::RuntimeException"*)* @_ZN11xercesc_2_716RuntimeExceptionD2Ev to i8*), i8* bitcast (void (%"class.xercesc_2_7::RuntimeException"*)* @_ZN11xercesc_2_716RuntimeExceptionD0Ev to i8*), i8* bitcast (i16* (%"class.xercesc_2_7::RuntimeException"*)* @_ZNK11xercesc_2_716RuntimeException7getTypeEv to i8*), i8* bitcast (%"class.xercesc_2_7::XMLException"* (%"class.xercesc_2_7::RuntimeException"*)* @_ZNK11xercesc_2_716RuntimeException9duplicateEv to i8*)] }, comdat, align 8
@_ZN11xercesc_2_76XMLUni23fgRuntimeException_NameE = external dso_local constant [0 x i16], align 2
@_ZTVN11xercesc_2_722UnexpectedEOFExceptionE = linkonce_odr dso_local unnamed_addr constant { [6 x i8*] } { [6 x i8*] [i8* null, i8* bitcast ({ i8*, i8*, i8* }* @_ZTIN11xercesc_2_722UnexpectedEOFExceptionE to i8*), i8* bitcast (void (%"class.xercesc_2_7::UnexpectedEOFException"*)* @_ZN11xercesc_2_722UnexpectedEOFExceptionD2Ev to i8*), i8* bitcast (void (%"class.xercesc_2_7::UnexpectedEOFException"*)* @_ZN11xercesc_2_722UnexpectedEOFExceptionD0Ev to i8*), i8* bitcast (i16* (%"class.xercesc_2_7::UnexpectedEOFException"*)* @_ZNK11xercesc_2_722UnexpectedEOFException7getTypeEv to i8*), i8* bitcast (%"class.xercesc_2_7::XMLException"* (%"class.xercesc_2_7::UnexpectedEOFException"*)* @_ZNK11xercesc_2_722UnexpectedEOFException9duplicateEv to i8*)] }, comdat, align 8
@_ZN11xercesc_2_76XMLUni29fgUnexpectedEOFException_NameE = external dso_local constant [0 x i16], align 2
@.str.1 = private unnamed_addr constant [30 x i8] c"./xercesc/util/ValueStackOf.c\00", align 1
@_ZTSN11xercesc_2_719EmptyStackExceptionE = linkonce_odr dso_local constant [37 x i8] c"N11xercesc_2_719EmptyStackExceptionE\00", comdat, align 1
@_ZTIN11xercesc_2_719EmptyStackExceptionE = linkonce_odr dso_local constant { i8*, i8*, i8* } { i8* bitcast (i8** getelementptr inbounds (i8*, i8** @_ZTVN10__cxxabiv120__si_class_type_infoE, i64 2) to i8*), i8* getelementptr inbounds ([37 x i8], [37 x i8]* @_ZTSN11xercesc_2_719EmptyStackExceptionE, i32 0, i32 0), i8* bitcast (i8** @_ZTIN11xercesc_2_712XMLExceptionE to i8*) }, comdat, align 8
@_ZTVN11xercesc_2_719EmptyStackExceptionE = linkonce_odr dso_local unnamed_addr constant { [6 x i8*] } { [6 x i8*] [i8* null, i8* bitcast ({ i8*, i8*, i8* }* @_ZTIN11xercesc_2_719EmptyStackExceptionE to i8*), i8* bitcast (void (%"class.xercesc_2_7::EmptyStackException"*)* @_ZN11xercesc_2_719EmptyStackExceptionD2Ev to i8*), i8* bitcast (void (%"class.xercesc_2_7::EmptyStackException"*)* @_ZN11xercesc_2_719EmptyStackExceptionD0Ev to i8*), i8* bitcast (i16* (%"class.xercesc_2_7::EmptyStackException"*)* @_ZNK11xercesc_2_719EmptyStackException7getTypeEv to i8*), i8* bitcast (%"class.xercesc_2_7::XMLException"* (%"class.xercesc_2_7::EmptyStackException"*)* @_ZNK11xercesc_2_719EmptyStackException9duplicateEv to i8*)] }, comdat, align 8
@_ZN11xercesc_2_76XMLUni26fgEmptyStackException_NameE = external dso_local constant [0 x i16], align 2
@.str.2 = private unnamed_addr constant [31 x i8] c"./xercesc/util/ValueVectorOf.c\00", align 1
@_ZTSN11xercesc_2_730ArrayIndexOutOfBoundsExceptionE = linkonce_odr dso_local constant [48 x i8] c"N11xercesc_2_730ArrayIndexOutOfBoundsExceptionE\00", comdat, align 1
@_ZTIN11xercesc_2_730ArrayIndexOutOfBoundsExceptionE = linkonce_odr dso_local constant { i8*, i8*, i8* } { i8* bitcast (i8** getelementptr inbounds (i8*, i8** @_ZTVN10__cxxabiv120__si_class_type_infoE, i64 2) to i8*), i8* getelementptr inbounds ([48 x i8], [48 x i8]* @_ZTSN11xercesc_2_730ArrayIndexOutOfBoundsExceptionE, i32 0, i32 0), i8* bitcast (i8** @_ZTIN11xercesc_2_712XMLExceptionE to i8*) }, comdat, align 8
@_ZTVN11xercesc_2_730ArrayIndexOutOfBoundsExceptionE = linkonce_odr dso_local unnamed_addr constant { [6 x i8*] } { [6 x i8*] [i8* null, i8* bitcast ({ i8*, i8*, i8* }* @_ZTIN11xercesc_2_730ArrayIndexOutOfBoundsExceptionE to i8*), i8* bitcast (void (%"class.xercesc_2_7::ArrayIndexOutOfBoundsException"*)* @_ZN11xercesc_2_730ArrayIndexOutOfBoundsExceptionD2Ev to i8*), i8* bitcast (void (%"class.xercesc_2_7::ArrayIndexOutOfBoundsException"*)* @_ZN11xercesc_2_730ArrayIndexOutOfBoundsExceptionD0Ev to i8*), i8* bitcast (i16* (%"class.xercesc_2_7::ArrayIndexOutOfBoundsException"*)* @_ZNK11xercesc_2_730ArrayIndexOutOfBoundsException7getTypeEv to i8*), i8* bitcast (%"class.xercesc_2_7::XMLException"* (%"class.xercesc_2_7::ArrayIndexOutOfBoundsException"*)* @_ZNK11xercesc_2_730ArrayIndexOutOfBoundsException9duplicateEv to i8*)] }, comdat, align 8
@_ZN11xercesc_2_76XMLUni37fgArrayIndexOutOfBoundsException_NameE = external dso_local constant [0 x i16], align 2
@_ZN11xercesc_2_76XMLUni14fgIGXMLScannerE = external dso_local constant [0 x i16], align 2
@.str.3 = private unnamed_addr constant [28 x i8] c"./xercesc/util/NameIdPool.c\00", align 1
@_ZTSN11xercesc_2_724IllegalArgumentExceptionE = linkonce_odr dso_local constant [42 x i8] c"N11xercesc_2_724IllegalArgumentExceptionE\00", comdat, align 1
@_ZTIN11xercesc_2_724IllegalArgumentExceptionE = linkonce_odr dso_local constant { i8*, i8*, i8* } { i8* bitcast (i8** getelementptr inbounds (i8*, i8** @_ZTVN10__cxxabiv120__si_class_type_infoE, i64 2) to i8*), i8* getelementptr inbounds ([42 x i8], [42 x i8]* @_ZTSN11xercesc_2_724IllegalArgumentExceptionE, i32 0, i32 0), i8* bitcast (i8** @_ZTIN11xercesc_2_712XMLExceptionE to i8*) }, comdat, align 8
@_ZTVN11xercesc_2_724IllegalArgumentExceptionE = linkonce_odr dso_local unnamed_addr constant { [6 x i8*] } { [6 x i8*] [i8* null, i8* bitcast ({ i8*, i8*, i8* }* @_ZTIN11xercesc_2_724IllegalArgumentExceptionE to i8*), i8* bitcast (void (%"class.xercesc_2_7::IllegalArgumentException"*)* @_ZN11xercesc_2_724IllegalArgumentExceptionD2Ev to i8*), i8* bitcast (void (%"class.xercesc_2_7::IllegalArgumentException"*)* @_ZN11xercesc_2_724IllegalArgumentExceptionD0Ev to i8*), i8* bitcast (i16* (%"class.xercesc_2_7::IllegalArgumentException"*)* @_ZNK11xercesc_2_724IllegalArgumentException7getTypeEv to i8*), i8* bitcast (%"class.xercesc_2_7::XMLException"* (%"class.xercesc_2_7::IllegalArgumentException"*)* @_ZNK11xercesc_2_724IllegalArgumentException9duplicateEv to i8*)] }, comdat, align 8
@_ZN11xercesc_2_76XMLUni31fgIllegalArgumentException_NameE = external dso_local constant [0 x i16], align 2
@.str.4 = private unnamed_addr constant [36 x i8] c"./xercesc/util/RefHash3KeysIdPool.c\00", align 1
@_ZTVN11xercesc_2_711RefVectorOfINS_12KVStringPairEEE = linkonce_odr dso_local unnamed_addr constant { [9 x i8*] } { [9 x i8*] [i8* null, i8* bitcast ({ i8*, i8*, i8* }* @_ZTIN11xercesc_2_711RefVectorOfINS_12KVStringPairEEE to i8*), i8* bitcast (void (%"class.xercesc_2_7::RefVectorOf.17"*)* @_ZN11xercesc_2_711RefVectorOfINS_12KVStringPairEED2Ev to i8*), i8* bitcast (void (%"class.xercesc_2_7::RefVectorOf.17"*)* @_ZN11xercesc_2_711RefVectorOfINS_12KVStringPairEED0Ev to i8*), i8* bitcast (void (%"class.xercesc_2_7::BaseRefVectorOf.18"*, %"class.xercesc_2_7::KVStringPair"*, i32)* @_ZN11xercesc_2_715BaseRefVectorOfINS_12KVStringPairEE12setElementAtEPS1_j to i8*), i8* bitcast (void (%"class.xercesc_2_7::BaseRefVectorOf.18"*)* @_ZN11xercesc_2_715BaseRefVectorOfINS_12KVStringPairEE17removeAllElementsEv to i8*), i8* bitcast (void (%"class.xercesc_2_7::BaseRefVectorOf.18"*, i32)* @_ZN11xercesc_2_715BaseRefVectorOfINS_12KVStringPairEE15removeElementAtEj to i8*), i8* bitcast (void (%"class.xercesc_2_7::BaseRefVectorOf.18"*)* @_ZN11xercesc_2_715BaseRefVectorOfINS_12KVStringPairEE17removeLastElementEv to i8*), i8* bitcast (void (%"class.xercesc_2_7::BaseRefVectorOf.18"*)* @_ZN11xercesc_2_715BaseRefVectorOfINS_12KVStringPairEE7cleanupEv to i8*)] }, comdat, align 8
@_ZTSN11xercesc_2_711RefVectorOfINS_12KVStringPairEEE = linkonce_odr dso_local constant [49 x i8] c"N11xercesc_2_711RefVectorOfINS_12KVStringPairEEE\00", comdat, align 1
@_ZTSN11xercesc_2_715BaseRefVectorOfINS_12KVStringPairEEE = linkonce_odr dso_local constant [53 x i8] c"N11xercesc_2_715BaseRefVectorOfINS_12KVStringPairEEE\00", comdat, align 1
@_ZTIN11xercesc_2_715BaseRefVectorOfINS_12KVStringPairEEE = linkonce_odr dso_local constant { i8*, i8*, i8* } { i8* bitcast (i8** getelementptr inbounds (i8*, i8** @_ZTVN10__cxxabiv120__si_class_type_infoE, i64 2) to i8*), i8* getelementptr inbounds ([53 x i8], [53 x i8]* @_ZTSN11xercesc_2_715BaseRefVectorOfINS_12KVStringPairEEE, i32 0, i32 0), i8* bitcast ({ i8*, i8* }* @_ZTIN11xercesc_2_77XMemoryE to i8*) }, comdat, align 8
@_ZTIN11xercesc_2_711RefVectorOfINS_12KVStringPairEEE = linkonce_odr dso_local constant { i8*, i8*, i8* } { i8* bitcast (i8** getelementptr inbounds (i8*, i8** @_ZTVN10__cxxabiv120__si_class_type_infoE, i64 2) to i8*), i8* getelementptr inbounds ([49 x i8], [49 x i8]* @_ZTSN11xercesc_2_711RefVectorOfINS_12KVStringPairEEE, i32 0, i32 0), i8* bitcast ({ i8*, i8*, i8* }* @_ZTIN11xercesc_2_715BaseRefVectorOfINS_12KVStringPairEEE to i8*) }, comdat, align 8
@_ZTVN11xercesc_2_715BaseRefVectorOfINS_12KVStringPairEEE = linkonce_odr dso_local unnamed_addr constant { [9 x i8*] } { [9 x i8*] [i8* null, i8* bitcast ({ i8*, i8*, i8* }* @_ZTIN11xercesc_2_715BaseRefVectorOfINS_12KVStringPairEEE to i8*), i8* bitcast (void (%"class.xercesc_2_7::BaseRefVectorOf.18"*)* @_ZN11xercesc_2_715BaseRefVectorOfINS_12KVStringPairEED2Ev to i8*), i8* bitcast (void (%"class.xercesc_2_7::BaseRefVectorOf.18"*)* @_ZN11xercesc_2_715BaseRefVectorOfINS_12KVStringPairEED0Ev to i8*), i8* bitcast (void (%"class.xercesc_2_7::BaseRefVectorOf.18"*, %"class.xercesc_2_7::KVStringPair"*, i32)* @_ZN11xercesc_2_715BaseRefVectorOfINS_12KVStringPairEE12setElementAtEPS1_j to i8*), i8* bitcast (void (%"class.xercesc_2_7::BaseRefVectorOf.18"*)* @_ZN11xercesc_2_715BaseRefVectorOfINS_12KVStringPairEE17removeAllElementsEv to i8*), i8* bitcast (void (%"class.xercesc_2_7::BaseRefVectorOf.18"*, i32)* @_ZN11xercesc_2_715BaseRefVectorOfINS_12KVStringPairEE15removeElementAtEj to i8*), i8* bitcast (void (%"class.xercesc_2_7::BaseRefVectorOf.18"*)* @_ZN11xercesc_2_715BaseRefVectorOfINS_12KVStringPairEE17removeLastElementEv to i8*), i8* bitcast (void (%"class.xercesc_2_7::BaseRefVectorOf.18"*)* @_ZN11xercesc_2_715BaseRefVectorOfINS_12KVStringPairEE7cleanupEv to i8*)] }, comdat, align 8
@.str.5 = private unnamed_addr constant [33 x i8] c"./xercesc/util/BaseRefVectorOf.c\00", align 1
@.str.6 = private unnamed_addr constant [32 x i8] c"./xercesc/util/RefHashTableOf.c\00", align 1
@.str.7 = private unnamed_addr constant [37 x i8] c"./xercesc/util/RefHash2KeysTableOf.c\00", align 1

@_ZN11xercesc_2_712IGXMLScannerC1EPNS_12XMLValidatorEPNS_15GrammarResolverEPNS_13MemoryManagerE = dso_local unnamed_addr alias void (%"class.xercesc_2_7::IGXMLScanner"*, %"class.xercesc_2_7::XMLValidator"*, %"class.xercesc_2_7::GrammarResolver"*, %"class.xercesc_2_7::MemoryManager"*), void (%"class.xercesc_2_7::IGXMLScanner"*, %"class.xercesc_2_7::XMLValidator"*, %"class.xercesc_2_7::GrammarResolver"*, %"class.xercesc_2_7::MemoryManager"*)* @_ZN11xercesc_2_712IGXMLScannerC2EPNS_12XMLValidatorEPNS_15GrammarResolverEPNS_13MemoryManagerE
@_ZN11xercesc_2_712IGXMLScannerC1EPNS_18XMLDocumentHandlerEPNS_14DocTypeHandlerEPNS_16XMLEntityHandlerEPNS_16XMLErrorReporterEPNS_12XMLValidatorEPNS_15GrammarResolverEPNS_13MemoryManagerE = dso_local unnamed_addr alias void (%"class.xercesc_2_7::IGXMLScanner"*, %"class.xercesc_2_7::XMLDocumentHandler"*, %"class.xercesc_2_7::DocTypeHandler"*, %"class.xercesc_2_7::XMLEntityHandler"*, %"class.xercesc_2_7::XMLErrorReporter"*, %"class.xercesc_2_7::XMLValidator"*, %"class.xercesc_2_7::GrammarResolver"*, %"class.xercesc_2_7::MemoryManager"*), void (%"class.xercesc_2_7::IGXMLScanner"*, %"class.xercesc_2_7::XMLDocumentHandler"*, %"class.xercesc_2_7::DocTypeHandler"*, %"class.xercesc_2_7::XMLEntityHandler"*, %"class.xercesc_2_7::XMLErrorReporter"*, %"class.xercesc_2_7::XMLValidator"*, %"class.xercesc_2_7::GrammarResolver"*, %"class.xercesc_2_7::MemoryManager"*)* @_ZN11xercesc_2_712IGXMLScannerC2EPNS_18XMLDocumentHandlerEPNS_14DocTypeHandlerEPNS_16XMLEntityHandlerEPNS_16XMLErrorReporterEPNS_12XMLValidatorEPNS_15GrammarResolverEPNS_13MemoryManagerE
@_ZN11xercesc_2_712IGXMLScannerD1Ev = dso_local unnamed_addr alias void (%"class.xercesc_2_7::IGXMLScanner"*), void (%"class.xercesc_2_7::IGXMLScanner"*)* @_ZN11xercesc_2_712IGXMLScannerD2Ev

; Function Attrs: nounwind readnone speculatable willreturn
declare void @llvm.dbg.declare(metadata, metadata, metadata) #0

; Function Attrs: noinline nounwind uwtable
define linkonce_odr dso_local void @_ZN11xercesc_2_710XMLDeleterD0Ev(%"class.xercesc_2_7::XMLDeleter"* %this) unnamed_addr #1 comdat align 2 !dbg !4106 {
entry:
  %this.addr = alloca %"class.xercesc_2_7::XMLDeleter"*, align 8
  store %"class.xercesc_2_7::XMLDeleter"* %this, %"class.xercesc_2_7::XMLDeleter"** %this.addr, align 8
  call void @llvm.dbg.declare(metadata %"class.xercesc_2_7::XMLDeleter"** %this.addr, metadata !4125, metadata !DIExpression()), !dbg !4127
  %this1 = load %"class.xercesc_2_7::XMLDeleter"*, %"class.xercesc_2_7::XMLDeleter"** %this.addr, align 8
  call void @_ZN11xercesc_2_710XMLDeleterD2Ev(%"class.xercesc_2_7::XMLDeleter"* %this1) #10, !dbg !4128
  %0 = bitcast %"class.xercesc_2_7::XMLDeleter"* %this1 to i8*, !dbg !4128
  call void @_ZdlPv(i8* %0) #11, !dbg !4128
  ret void, !dbg !4129
}

; Function Attrs: noinline nounwind uwtable
define linkonce_odr dso_local void @_ZN11xercesc_2_710XMLDeleterD2Ev(%"class.xercesc_2_7::XMLDeleter"* %this) unnamed_addr #1 comdat align 2 !dbg !4130 {
entry:
  %this.addr = alloca %"class.xercesc_2_7::XMLDeleter"*, align 8
  store %"class.xercesc_2_7::XMLDeleter"* %this, %"class.xercesc_2_7::XMLDeleter"** %this.addr, align 8
  call void @llvm.dbg.declare(metadata %"class.xercesc_2_7::XMLDeleter"** %this.addr, metadata !4131, metadata !DIExpression()), !dbg !4132
  %this1 = load %"class.xercesc_2_7::XMLDeleter"*, %"class.xercesc_2_7::XMLDeleter"** %this.addr, align 8
  ret void, !dbg !4133
}

; Function Attrs: nobuiltin nounwind
declare dso_local void @_ZdlPv(i8*) #2

declare dso_local i32 @__gxx_personality_v0(...)

; Function Attrs: noinline nounwind uwtable
define linkonce_odr dso_local void @_ZN11xercesc_2_713XSerializableD2Ev(%"class.xercesc_2_7::XSerializable"* %this) unnamed_addr #1 comdat align 2 !dbg !4134 {
entry:
  %this.addr = alloca %"class.xercesc_2_7::XSerializable"*, align 8
  store %"class.xercesc_2_7::XSerializable"* %this, %"class.xercesc_2_7::XSerializable"** %this.addr, align 8
  call void @llvm.dbg.declare(metadata %"class.xercesc_2_7::XSerializable"** %this.addr, metadata !4139, metadata !DIExpression()), !dbg !4140
  %this1 = load %"class.xercesc_2_7::XSerializable"*, %"class.xercesc_2_7::XSerializable"** %this.addr, align 8
  ret void, !dbg !4141
}

; Function Attrs: noinline noreturn nounwind
define linkonce_odr hidden void @__clang_call_terminate(i8* %0) #3 comdat {
  %2 = call i8* @__cxa_begin_catch(i8* %0) #10
  call void @_ZSt9terminatev() #12
  unreachable
}

declare dso_local i8* @__cxa_begin_catch(i8*)

declare dso_local void @_ZSt9terminatev()

; Function Attrs: noinline nounwind uwtable
define linkonce_odr dso_local void @_ZN11xercesc_2_710XMLRefInfoD0Ev(%"class.xercesc_2_7::XMLRefInfo"* %this) unnamed_addr #1 comdat align 2 !dbg !4142 {
entry:
  %this.addr = alloca %"class.xercesc_2_7::XMLRefInfo"*, align 8
  store %"class.xercesc_2_7::XMLRefInfo"* %this, %"class.xercesc_2_7::XMLRefInfo"** %this.addr, align 8
  call void @llvm.dbg.declare(metadata %"class.xercesc_2_7::XMLRefInfo"** %this.addr, metadata !4192, metadata !DIExpression()), !dbg !4194
  %this1 = load %"class.xercesc_2_7::XMLRefInfo"*, %"class.xercesc_2_7::XMLRefInfo"** %this.addr, align 8
  call void @_ZN11xercesc_2_710XMLRefInfoD2Ev(%"class.xercesc_2_7::XMLRefInfo"* %this1) #10, !dbg !4195
  %0 = bitcast %"class.xercesc_2_7::XMLRefInfo"* %this1 to i8*, !dbg !4195
  call void @_ZN11xercesc_2_77XMemorydlEPv(i8* %0) #10, !dbg !4195
  ret void, !dbg !4196
}

; Function Attrs: noinline nounwind uwtable
define linkonce_odr dso_local void @_ZN11xercesc_2_710XMLRefInfoD2Ev(%"class.xercesc_2_7::XMLRefInfo"* %this) unnamed_addr #1 comdat align 2 personality i8* bitcast (i32 (...)* @__gxx_personality_v0 to i8*) !dbg !4197 {
entry:
  %this.addr = alloca %"class.xercesc_2_7::XMLRefInfo"*, align 8
  %exn.slot = alloca i8*
  %ehselector.slot = alloca i32
  store %"class.xercesc_2_7::XMLRefInfo"* %this, %"class.xercesc_2_7::XMLRefInfo"** %this.addr, align 8
  call void @llvm.dbg.declare(metadata %"class.xercesc_2_7::XMLRefInfo"** %this.addr, metadata !4198, metadata !DIExpression()), !dbg !4199
  %this1 = load %"class.xercesc_2_7::XMLRefInfo"*, %"class.xercesc_2_7::XMLRefInfo"** %this.addr, align 8
  %0 = bitcast %"class.xercesc_2_7::XMLRefInfo"* %this1 to i32 (...)***, !dbg !4200
  store i32 (...)** bitcast (i8** getelementptr inbounds ({ [7 x i8*] }, { [7 x i8*] }* @_ZTVN11xercesc_2_710XMLRefInfoE, i32 0, inrange i32 0, i32 2) to i32 (...)**), i32 (...)*** %0, align 8, !dbg !4200
  %fMemoryManager = getelementptr inbounds %"class.xercesc_2_7::XMLRefInfo", %"class.xercesc_2_7::XMLRefInfo"* %this1, i32 0, i32 4, !dbg !4201
  %1 = load %"class.xercesc_2_7::MemoryManager"*, %"class.xercesc_2_7::MemoryManager"** %fMemoryManager, align 8, !dbg !4201
  %fRefName = getelementptr inbounds %"class.xercesc_2_7::XMLRefInfo", %"class.xercesc_2_7::XMLRefInfo"* %this1, i32 0, i32 3, !dbg !4203
  %2 = load i16*, i16** %fRefName, align 8, !dbg !4203
  %3 = bitcast i16* %2 to i8*, !dbg !4203
  %4 = bitcast %"class.xercesc_2_7::MemoryManager"* %1 to void (%"class.xercesc_2_7::MemoryManager"*, i8*)***, !dbg !4204
  %vtable = load void (%"class.xercesc_2_7::MemoryManager"*, i8*)**, void (%"class.xercesc_2_7::MemoryManager"*, i8*)*** %4, align 8, !dbg !4204
  %vfn = getelementptr inbounds void (%"class.xercesc_2_7::MemoryManager"*, i8*)*, void (%"class.xercesc_2_7::MemoryManager"*, i8*)** %vtable, i64 3, !dbg !4204
  %5 = load void (%"class.xercesc_2_7::MemoryManager"*, i8*)*, void (%"class.xercesc_2_7::MemoryManager"*, i8*)** %vfn, align 8, !dbg !4204
  invoke void %5(%"class.xercesc_2_7::MemoryManager"* %1, i8* %3)
          to label %invoke.cont unwind label %lpad, !dbg !4204

invoke.cont:                                      ; preds = %entry
  %6 = bitcast %"class.xercesc_2_7::XMLRefInfo"* %this1 to %"class.xercesc_2_7::XSerializable"*, !dbg !4205
  call void @_ZN11xercesc_2_713XSerializableD2Ev(%"class.xercesc_2_7::XSerializable"* %6) #10, !dbg !4205
  ret void, !dbg !4206

lpad:                                             ; preds = %entry
  %7 = landingpad { i8*, i32 }
          catch i8* null, !dbg !4205
  %8 = extractvalue { i8*, i32 } %7, 0, !dbg !4205
  store i8* %8, i8** %exn.slot, align 8, !dbg !4205
  %9 = extractvalue { i8*, i32 } %7, 1, !dbg !4205
  store i32 %9, i32* %ehselector.slot, align 4, !dbg !4205
  %10 = bitcast %"class.xercesc_2_7::XMLRefInfo"* %this1 to %"class.xercesc_2_7::XSerializable"*, !dbg !4205
  call void @_ZN11xercesc_2_713XSerializableD2Ev(%"class.xercesc_2_7::XSerializable"* %10) #10, !dbg !4205
  br label %terminate.handler, !dbg !4205

terminate.handler:                                ; preds = %lpad
  %exn = load i8*, i8** %exn.slot, align 8, !dbg !4205
  call void @__clang_call_terminate(i8* %exn) #12, !dbg !4205
  unreachable, !dbg !4205
}

; Function Attrs: nounwind
declare dso_local void @_ZN11xercesc_2_77XMemorydlEPv(i8*) #4

; Function Attrs: nounwind
declare dso_local void @_ZN11xercesc_2_713XMLEntityDeclD2Ev(%"class.xercesc_2_7::XMLEntityDecl"*) unnamed_addr #4

; Function Attrs: noinline nounwind uwtable
define linkonce_odr dso_local void @_ZN11xercesc_2_713DTDEntityDeclD0Ev(%"class.xercesc_2_7::DTDEntityDecl"* %this) unnamed_addr #1 comdat align 2 !dbg !4207 {
entry:
  %this.addr = alloca %"class.xercesc_2_7::DTDEntityDecl"*, align 8
  store %"class.xercesc_2_7::DTDEntityDecl"* %this, %"class.xercesc_2_7::DTDEntityDecl"** %this.addr, align 8
  call void @llvm.dbg.declare(metadata %"class.xercesc_2_7::DTDEntityDecl"** %this.addr, metadata !4208, metadata !DIExpression()), !dbg !4209
  %this1 = load %"class.xercesc_2_7::DTDEntityDecl"*, %"class.xercesc_2_7::DTDEntityDecl"** %this.addr, align 8
  call void @_ZN11xercesc_2_713DTDEntityDeclD2Ev(%"class.xercesc_2_7::DTDEntityDecl"* %this1) #10, !dbg !4210
  %0 = bitcast %"class.xercesc_2_7::DTDEntityDecl"* %this1 to i8*, !dbg !4210
  call void @_ZN11xercesc_2_77XMemorydlEPv(i8* %0) #10, !dbg !4210
  ret void, !dbg !4211
}

; Function Attrs: noinline nounwind uwtable
define linkonce_odr dso_local void @_ZN11xercesc_2_713DTDEntityDeclD2Ev(%"class.xercesc_2_7::DTDEntityDecl"* %this) unnamed_addr #1 comdat align 2 !dbg !4212 {
entry:
  %this.addr = alloca %"class.xercesc_2_7::DTDEntityDecl"*, align 8
  store %"class.xercesc_2_7::DTDEntityDecl"* %this, %"class.xercesc_2_7::DTDEntityDecl"** %this.addr, align 8
  call void @llvm.dbg.declare(metadata %"class.xercesc_2_7::DTDEntityDecl"** %this.addr, metadata !4213, metadata !DIExpression()), !dbg !4214
  %this1 = load %"class.xercesc_2_7::DTDEntityDecl"*, %"class.xercesc_2_7::DTDEntityDecl"** %this.addr, align 8
  %0 = bitcast %"class.xercesc_2_7::DTDEntityDecl"* %this1 to %"class.xercesc_2_7::XMLEntityDecl"*, !dbg !4215
  call void @_ZN11xercesc_2_713XMLEntityDeclD2Ev(%"class.xercesc_2_7::XMLEntityDecl"* %0) #10, !dbg !4215
  ret void, !dbg !4217
}

; Function Attrs: noinline nounwind uwtable
define linkonce_odr dso_local void @_ZN11xercesc_2_713XMLAttDefListD0Ev(%"class.xercesc_2_7::XMLAttDefList"* %this) unnamed_addr #1 comdat align 2 !dbg !4218 {
entry:
  %this.addr = alloca %"class.xercesc_2_7::XMLAttDefList"*, align 8
  store %"class.xercesc_2_7::XMLAttDefList"* %this, %"class.xercesc_2_7::XMLAttDefList"** %this.addr, align 8
  call void @llvm.dbg.declare(metadata %"class.xercesc_2_7::XMLAttDefList"** %this.addr, metadata !4286, metadata !DIExpression()), !dbg !4288
  %this1 = load %"class.xercesc_2_7::XMLAttDefList"*, %"class.xercesc_2_7::XMLAttDefList"** %this.addr, align 8
  call void @llvm.trap() #12, !dbg !4289
  unreachable, !dbg !4289
}

; Function Attrs: cold noreturn nounwind
declare void @llvm.trap() #5

; Function Attrs: noinline nounwind uwtable
define linkonce_odr dso_local void @_ZN11xercesc_2_78PSVIItemD0Ev(%"class.xercesc_2_7::PSVIItem"* %this) unnamed_addr #1 comdat align 2 !dbg !4290 {
entry:
  %this.addr = alloca %"class.xercesc_2_7::PSVIItem"*, align 8
  store %"class.xercesc_2_7::PSVIItem"* %this, %"class.xercesc_2_7::PSVIItem"** %this.addr, align 8
  call void @llvm.dbg.declare(metadata %"class.xercesc_2_7::PSVIItem"** %this.addr, metadata !4291, metadata !DIExpression()), !dbg !4293
  %this1 = load %"class.xercesc_2_7::PSVIItem"*, %"class.xercesc_2_7::PSVIItem"** %this.addr, align 8
  call void @llvm.trap() #12, !dbg !4294
  unreachable, !dbg !4294
}

; Function Attrs: noinline nounwind uwtable
define linkonce_odr dso_local void @_ZN11xercesc_2_713PSVIAttributeD0Ev(%"class.xercesc_2_7::PSVIAttribute"* %this) unnamed_addr #1 comdat align 2 !dbg !4295 {
entry:
  %this.addr = alloca %"class.xercesc_2_7::PSVIAttribute"*, align 8
  store %"class.xercesc_2_7::PSVIAttribute"* %this, %"class.xercesc_2_7::PSVIAttribute"** %this.addr, align 8
  call void @llvm.dbg.declare(metadata %"class.xercesc_2_7::PSVIAttribute"** %this.addr, metadata !4296, metadata !DIExpression()), !dbg !4297
  %this1 = load %"class.xercesc_2_7::PSVIAttribute"*, %"class.xercesc_2_7::PSVIAttribute"** %this.addr, align 8
  call void @_ZN11xercesc_2_713PSVIAttributeD2Ev(%"class.xercesc_2_7::PSVIAttribute"* %this1) #10, !dbg !4298
  %0 = bitcast %"class.xercesc_2_7::PSVIAttribute"* %this1 to i8*, !dbg !4298
  call void @_ZN11xercesc_2_77XMemorydlEPv(i8* %0) #10, !dbg !4298
  ret void, !dbg !4299
}

; Function Attrs: noinline nounwind uwtable
define linkonce_odr dso_local void @_ZN11xercesc_2_713PSVIAttributeD2Ev(%"class.xercesc_2_7::PSVIAttribute"* %this) unnamed_addr #1 comdat align 2 personality i8* bitcast (i32 (...)* @__gxx_personality_v0 to i8*) !dbg !4300 {
entry:
  %this.addr = alloca %"class.xercesc_2_7::PSVIAttribute"*, align 8
  %exn.slot = alloca i8*
  %ehselector.slot = alloca i32
  store %"class.xercesc_2_7::PSVIAttribute"* %this, %"class.xercesc_2_7::PSVIAttribute"** %this.addr, align 8
  call void @llvm.dbg.declare(metadata %"class.xercesc_2_7::PSVIAttribute"** %this.addr, metadata !4301, metadata !DIExpression()), !dbg !4302
  %this1 = load %"class.xercesc_2_7::PSVIAttribute"*, %"class.xercesc_2_7::PSVIAttribute"** %this.addr, align 8
  %0 = bitcast %"class.xercesc_2_7::PSVIAttribute"* %this1 to i32 (...)***, !dbg !4303
  store i32 (...)** bitcast (i8** getelementptr inbounds ({ [7 x i8*] }, { [7 x i8*] }* @_ZTVN11xercesc_2_713PSVIAttributeE, i32 0, inrange i32 0, i32 2) to i32 (...)**), i32 (...)*** %0, align 8, !dbg !4303
  %1 = bitcast %"class.xercesc_2_7::PSVIAttribute"* %this1 to %"class.xercesc_2_7::PSVIItem"*, !dbg !4304
  %fMemoryManager = getelementptr inbounds %"class.xercesc_2_7::PSVIItem", %"class.xercesc_2_7::PSVIItem"* %1, i32 0, i32 1, !dbg !4304
  %2 = load %"class.xercesc_2_7::MemoryManager"*, %"class.xercesc_2_7::MemoryManager"** %fMemoryManager, align 8, !dbg !4304
  %3 = bitcast %"class.xercesc_2_7::PSVIAttribute"* %this1 to %"class.xercesc_2_7::PSVIItem"*, !dbg !4306
  %fCanonicalValue = getelementptr inbounds %"class.xercesc_2_7::PSVIItem", %"class.xercesc_2_7::PSVIItem"* %3, i32 0, i32 5, !dbg !4306
  %4 = load i16*, i16** %fCanonicalValue, align 8, !dbg !4306
  %5 = bitcast i16* %4 to i8*, !dbg !4306
  %6 = bitcast %"class.xercesc_2_7::MemoryManager"* %2 to void (%"class.xercesc_2_7::MemoryManager"*, i8*)***, !dbg !4307
  %vtable = load void (%"class.xercesc_2_7::MemoryManager"*, i8*)**, void (%"class.xercesc_2_7::MemoryManager"*, i8*)*** %6, align 8, !dbg !4307
  %vfn = getelementptr inbounds void (%"class.xercesc_2_7::MemoryManager"*, i8*)*, void (%"class.xercesc_2_7::MemoryManager"*, i8*)** %vtable, i64 3, !dbg !4307
  %7 = load void (%"class.xercesc_2_7::MemoryManager"*, i8*)*, void (%"class.xercesc_2_7::MemoryManager"*, i8*)** %vfn, align 8, !dbg !4307
  invoke void %7(%"class.xercesc_2_7::MemoryManager"* %2, i8* %5)
          to label %invoke.cont unwind label %lpad, !dbg !4307

invoke.cont:                                      ; preds = %entry
  %8 = bitcast %"class.xercesc_2_7::PSVIAttribute"* %this1 to %"class.xercesc_2_7::PSVIItem"*, !dbg !4308
  call void @_ZN11xercesc_2_78PSVIItemD2Ev(%"class.xercesc_2_7::PSVIItem"* %8) #10, !dbg !4308
  ret void, !dbg !4309

lpad:                                             ; preds = %entry
  %9 = landingpad { i8*, i32 }
          catch i8* null, !dbg !4308
  %10 = extractvalue { i8*, i32 } %9, 0, !dbg !4308
  store i8* %10, i8** %exn.slot, align 8, !dbg !4308
  %11 = extractvalue { i8*, i32 } %9, 1, !dbg !4308
  store i32 %11, i32* %ehselector.slot, align 4, !dbg !4308
  %12 = bitcast %"class.xercesc_2_7::PSVIAttribute"* %this1 to %"class.xercesc_2_7::PSVIItem"*, !dbg !4308
  call void @_ZN11xercesc_2_78PSVIItemD2Ev(%"class.xercesc_2_7::PSVIItem"* %12) #10, !dbg !4308
  br label %terminate.handler, !dbg !4308

terminate.handler:                                ; preds = %lpad
  %exn = load i8*, i8** %exn.slot, align 8, !dbg !4308
  call void @__clang_call_terminate(i8* %exn) #12, !dbg !4308
  unreachable, !dbg !4308
}

; Function Attrs: noinline nounwind uwtable
define linkonce_odr dso_local void @_ZN11xercesc_2_711PSVIHandler24handlePartialElementPSVIEPKtS2_PNS_11PSVIElementE(%"class.xercesc_2_7::PSVIHandler"* %this, i16* %0, i16* %1, %"class.xercesc_2_7::PSVIElement"* %2) unnamed_addr #1 comdat align 2 !dbg !4310 {
entry:
  %this.addr = alloca %"class.xercesc_2_7::PSVIHandler"*, align 8
  %.addr = alloca i16*, align 8
  %.addr1 = alloca i16*, align 8
  %.addr2 = alloca %"class.xercesc_2_7::PSVIElement"*, align 8
  store %"class.xercesc_2_7::PSVIHandler"* %this, %"class.xercesc_2_7::PSVIHandler"** %this.addr, align 8
  call void @llvm.dbg.declare(metadata %"class.xercesc_2_7::PSVIHandler"** %this.addr, metadata !4336, metadata !DIExpression()), !dbg !4338
  store i16* %0, i16** %.addr, align 8
  call void @llvm.dbg.declare(metadata i16** %.addr, metadata !4339, metadata !DIExpression()), !dbg !4340
  store i16* %1, i16** %.addr1, align 8
  call void @llvm.dbg.declare(metadata i16** %.addr1, metadata !4341, metadata !DIExpression()), !dbg !4342
  store %"class.xercesc_2_7::PSVIElement"* %2, %"class.xercesc_2_7::PSVIElement"** %.addr2, align 8
  call void @llvm.dbg.declare(metadata %"class.xercesc_2_7::PSVIElement"** %.addr2, metadata !4343, metadata !DIExpression()), !dbg !4344
  %this3 = load %"class.xercesc_2_7::PSVIHandler"*, %"class.xercesc_2_7::PSVIHandler"** %this.addr, align 8
  ret void, !dbg !4345
}

; Function Attrs: noinline nounwind uwtable
define linkonce_odr dso_local void @_ZN11xercesc_2_715ContentSpecNodeD0Ev(%"class.xercesc_2_7::ContentSpecNode"* %this) unnamed_addr #1 comdat align 2 !dbg !4346 {
entry:
  %this.addr = alloca %"class.xercesc_2_7::ContentSpecNode"*, align 8
  store %"class.xercesc_2_7::ContentSpecNode"* %this, %"class.xercesc_2_7::ContentSpecNode"** %this.addr, align 8
  call void @llvm.dbg.declare(metadata %"class.xercesc_2_7::ContentSpecNode"** %this.addr, metadata !4347, metadata !DIExpression()), !dbg !4348
  %this1 = load %"class.xercesc_2_7::ContentSpecNode"*, %"class.xercesc_2_7::ContentSpecNode"** %this.addr, align 8
  call void @_ZN11xercesc_2_715ContentSpecNodeD2Ev(%"class.xercesc_2_7::ContentSpecNode"* %this1) #10, !dbg !4349
  %0 = bitcast %"class.xercesc_2_7::ContentSpecNode"* %this1 to i8*, !dbg !4349
  call void @_ZN11xercesc_2_77XMemorydlEPv(i8* %0) #10, !dbg !4349
  ret void, !dbg !4350
}

; Function Attrs: noinline nounwind uwtable
define linkonce_odr dso_local void @_ZN11xercesc_2_715ContentSpecNodeD2Ev(%"class.xercesc_2_7::ContentSpecNode"* %this) unnamed_addr #1 comdat align 2 !dbg !4351 {
entry:
  %this.addr = alloca %"class.xercesc_2_7::ContentSpecNode"*, align 8
  store %"class.xercesc_2_7::ContentSpecNode"* %this, %"class.xercesc_2_7::ContentSpecNode"** %this.addr, align 8
  call void @llvm.dbg.declare(metadata %"class.xercesc_2_7::ContentSpecNode"** %this.addr, metadata !4352, metadata !DIExpression()), !dbg !4353
  %this1 = load %"class.xercesc_2_7::ContentSpecNode"*, %"class.xercesc_2_7::ContentSpecNode"** %this.addr, align 8
  %0 = bitcast %"class.xercesc_2_7::ContentSpecNode"* %this1 to i32 (...)***, !dbg !4354
  store i32 (...)** bitcast (i8** getelementptr inbounds ({ [7 x i8*] }, { [7 x i8*] }* @_ZTVN11xercesc_2_715ContentSpecNodeE, i32 0, inrange i32 0, i32 2) to i32 (...)**), i32 (...)*** %0, align 8, !dbg !4354
  %fAdoptFirst = getelementptr inbounds %"class.xercesc_2_7::ContentSpecNode", %"class.xercesc_2_7::ContentSpecNode"* %this1, i32 0, i32 7, !dbg !4355
  %1 = load i8, i8* %fAdoptFirst, align 4, !dbg !4355
  %tobool = trunc i8 %1 to i1, !dbg !4355
  br i1 %tobool, label %if.then, label %if.end, !dbg !4358

if.then:                                          ; preds = %entry
  %fFirst = getelementptr inbounds %"class.xercesc_2_7::ContentSpecNode", %"class.xercesc_2_7::ContentSpecNode"* %this1, i32 0, i32 4, !dbg !4359
  %2 = load %"class.xercesc_2_7::ContentSpecNode"*, %"class.xercesc_2_7::ContentSpecNode"** %fFirst, align 8, !dbg !4359
  %isnull = icmp eq %"class.xercesc_2_7::ContentSpecNode"* %2, null, !dbg !4361
  br i1 %isnull, label %delete.end, label %delete.notnull, !dbg !4361

delete.notnull:                                   ; preds = %if.then
  %3 = bitcast %"class.xercesc_2_7::ContentSpecNode"* %2 to void (%"class.xercesc_2_7::ContentSpecNode"*)***, !dbg !4361
  %vtable = load void (%"class.xercesc_2_7::ContentSpecNode"*)**, void (%"class.xercesc_2_7::ContentSpecNode"*)*** %3, align 8, !dbg !4361
  %vfn = getelementptr inbounds void (%"class.xercesc_2_7::ContentSpecNode"*)*, void (%"class.xercesc_2_7::ContentSpecNode"*)** %vtable, i64 1, !dbg !4361
  %4 = load void (%"class.xercesc_2_7::ContentSpecNode"*)*, void (%"class.xercesc_2_7::ContentSpecNode"*)** %vfn, align 8, !dbg !4361
  call void %4(%"class.xercesc_2_7::ContentSpecNode"* %2) #10, !dbg !4361
  br label %delete.end, !dbg !4361

delete.end:                                       ; preds = %delete.notnull, %if.then
  br label %if.end, !dbg !4362

if.end:                                           ; preds = %delete.end, %entry
  %fAdoptSecond = getelementptr inbounds %"class.xercesc_2_7::ContentSpecNode", %"class.xercesc_2_7::ContentSpecNode"* %this1, i32 0, i32 8, !dbg !4363
  %5 = load i8, i8* %fAdoptSecond, align 1, !dbg !4363
  %tobool2 = trunc i8 %5 to i1, !dbg !4363
  br i1 %tobool2, label %if.then3, label %if.end9, !dbg !4365

if.then3:                                         ; preds = %if.end
  %fSecond = getelementptr inbounds %"class.xercesc_2_7::ContentSpecNode", %"class.xercesc_2_7::ContentSpecNode"* %this1, i32 0, i32 5, !dbg !4366
  %6 = load %"class.xercesc_2_7::ContentSpecNode"*, %"class.xercesc_2_7::ContentSpecNode"** %fSecond, align 8, !dbg !4366
  %isnull4 = icmp eq %"class.xercesc_2_7::ContentSpecNode"* %6, null, !dbg !4368
  br i1 %isnull4, label %delete.end8, label %delete.notnull5, !dbg !4368

delete.notnull5:                                  ; preds = %if.then3
  %7 = bitcast %"class.xercesc_2_7::ContentSpecNode"* %6 to void (%"class.xercesc_2_7::ContentSpecNode"*)***, !dbg !4368
  %vtable6 = load void (%"class.xercesc_2_7::ContentSpecNode"*)**, void (%"class.xercesc_2_7::ContentSpecNode"*)*** %7, align 8, !dbg !4368
  %vfn7 = getelementptr inbounds void (%"class.xercesc_2_7::ContentSpecNode"*)*, void (%"class.xercesc_2_7::ContentSpecNode"*)** %vtable6, i64 1, !dbg !4368
  %8 = load void (%"class.xercesc_2_7::ContentSpecNode"*)*, void (%"class.xercesc_2_7::ContentSpecNode"*)** %vfn7, align 8, !dbg !4368
  call void %8(%"class.xercesc_2_7::ContentSpecNode"* %6) #10, !dbg !4368
  br label %delete.end8, !dbg !4368

delete.end8:                                      ; preds = %delete.notnull5, %if.then3
  br label %if.end9, !dbg !4369

if.end9:                                          ; preds = %delete.end8, %if.end
  %fElement = getelementptr inbounds %"class.xercesc_2_7::ContentSpecNode", %"class.xercesc_2_7::ContentSpecNode"* %this1, i32 0, i32 2, !dbg !4370
  %9 = load %"class.xercesc_2_7::QName"*, %"class.xercesc_2_7::QName"** %fElement, align 8, !dbg !4370
  %isnull10 = icmp eq %"class.xercesc_2_7::QName"* %9, null, !dbg !4371
  br i1 %isnull10, label %delete.end14, label %delete.notnull11, !dbg !4371

delete.notnull11:                                 ; preds = %if.end9
  %10 = bitcast %"class.xercesc_2_7::QName"* %9 to void (%"class.xercesc_2_7::QName"*)***, !dbg !4371
  %vtable12 = load void (%"class.xercesc_2_7::QName"*)**, void (%"class.xercesc_2_7::QName"*)*** %10, align 8, !dbg !4371
  %vfn13 = getelementptr inbounds void (%"class.xercesc_2_7::QName"*)*, void (%"class.xercesc_2_7::QName"*)** %vtable12, i64 1, !dbg !4371
  %11 = load void (%"class.xercesc_2_7::QName"*)*, void (%"class.xercesc_2_7::QName"*)** %vfn13, align 8, !dbg !4371
  call void %11(%"class.xercesc_2_7::QName"* %9) #10, !dbg !4371
  br label %delete.end14, !dbg !4371

delete.end14:                                     ; preds = %delete.notnull11, %if.end9
  %12 = bitcast %"class.xercesc_2_7::ContentSpecNode"* %this1 to %"class.xercesc_2_7::XSerializable"*, !dbg !4372
  call void @_ZN11xercesc_2_713XSerializableD2Ev(%"class.xercesc_2_7::XSerializable"* %12) #10, !dbg !4372
  ret void, !dbg !4373
}

; Function Attrs: noinline uwtable
define dso_local void @_ZN11xercesc_2_712IGXMLScannerC2EPNS_12XMLValidatorEPNS_15GrammarResolverEPNS_13MemoryManagerE(%"class.xercesc_2_7::IGXMLScanner"* %this, %"class.xercesc_2_7::XMLValidator"* %valToAdopt, %"class.xercesc_2_7::GrammarResolver"* %grammarResolver, %"class.xercesc_2_7::MemoryManager"* %manager) unnamed_addr #6 align 2 personality i8* bitcast (i32 (...)* @__gxx_personality_v0 to i8*) !dbg !4374 {
entry:
  %this.addr = alloca %"class.xercesc_2_7::IGXMLScanner"*, align 8
  %valToAdopt.addr = alloca %"class.xercesc_2_7::XMLValidator"*, align 8
  %grammarResolver.addr = alloca %"class.xercesc_2_7::GrammarResolver"*, align 8
  %manager.addr = alloca %"class.xercesc_2_7::MemoryManager"*, align 8
  %exn.slot = alloca i8*
  %ehselector.slot = alloca i32
  %cleanup = alloca %"class.xercesc_2_7::JanitorMemFunCall", align 8
  %coerce = alloca { i64, i64 }, align 8
  %0 = alloca %"class.xercesc_2_7::OutOfMemoryException"*, align 8
  store %"class.xercesc_2_7::IGXMLScanner"* %this, %"class.xercesc_2_7::IGXMLScanner"** %this.addr, align 8
  call void @llvm.dbg.declare(metadata %"class.xercesc_2_7::IGXMLScanner"** %this.addr, metadata !4375, metadata !DIExpression()), !dbg !4377
  store %"class.xercesc_2_7::XMLValidator"* %valToAdopt, %"class.xercesc_2_7::XMLValidator"** %valToAdopt.addr, align 8
  call void @llvm.dbg.declare(metadata %"class.xercesc_2_7::XMLValidator"** %valToAdopt.addr, metadata !4378, metadata !DIExpression()), !dbg !4379
  store %"class.xercesc_2_7::GrammarResolver"* %grammarResolver, %"class.xercesc_2_7::GrammarResolver"** %grammarResolver.addr, align 8
  call void @llvm.dbg.declare(metadata %"class.xercesc_2_7::GrammarResolver"** %grammarResolver.addr, metadata !4380, metadata !DIExpression()), !dbg !4381
  store %"class.xercesc_2_7::MemoryManager"* %manager, %"class.xercesc_2_7::MemoryManager"** %manager.addr, align 8
  call void @llvm.dbg.declare(metadata %"class.xercesc_2_7::MemoryManager"** %manager.addr, metadata !4382, metadata !DIExpression()), !dbg !4383
  %this1 = load %"class.xercesc_2_7::IGXMLScanner"*, %"class.xercesc_2_7::IGXMLScanner"** %this.addr, align 8
  %1 = bitcast %"class.xercesc_2_7::IGXMLScanner"* %this1 to %"class.xercesc_2_7::XMLScanner"*, !dbg !4384
  %2 = load %"class.xercesc_2_7::XMLValidator"*, %"class.xercesc_2_7::XMLValidator"** %valToAdopt.addr, align 8, !dbg !4385
  %3 = load %"class.xercesc_2_7::GrammarResolver"*, %"class.xercesc_2_7::GrammarResolver"** %grammarResolver.addr, align 8, !dbg !4386
  %4 = load %"class.xercesc_2_7::MemoryManager"*, %"class.xercesc_2_7::MemoryManager"** %manager.addr, align 8, !dbg !4387
  call void @_ZN11xercesc_2_710XMLScannerC2EPNS_12XMLValidatorEPNS_15GrammarResolverEPNS_13MemoryManagerE(%"class.xercesc_2_7::XMLScanner"* %1, %"class.xercesc_2_7::XMLValidator"* %2, %"class.xercesc_2_7::GrammarResolver"* %3, %"class.xercesc_2_7::MemoryManager"* %4), !dbg !4388
  %5 = bitcast %"class.xercesc_2_7::IGXMLScanner"* %this1 to i32 (...)***, !dbg !4384
  store i32 (...)** bitcast (i8** getelementptr inbounds ({ [20 x i8*] }, { [20 x i8*] }* @_ZTVN11xercesc_2_712IGXMLScannerE, i32 0, inrange i32 0, i32 2) to i32 (...)**), i32 (...)*** %5, align 8, !dbg !4384
  %fSeeXsi = getelementptr inbounds %"class.xercesc_2_7::IGXMLScanner", %"class.xercesc_2_7::IGXMLScanner"* %this1, i32 0, i32 1, !dbg !4389
  store i8 0, i8* %fSeeXsi, align 8, !dbg !4389
  %fGrammarType = getelementptr inbounds %"class.xercesc_2_7::IGXMLScanner", %"class.xercesc_2_7::IGXMLScanner"* %this1, i32 0, i32 2, !dbg !4390
  store i32 2, i32* %fGrammarType, align 4, !dbg !4390
  %fElemStateSize = getelementptr inbounds %"class.xercesc_2_7::IGXMLScanner", %"class.xercesc_2_7::IGXMLScanner"* %this1, i32 0, i32 3, !dbg !4391
  store i32 16, i32* %fElemStateSize, align 8, !dbg !4391
  %fElemState = getelementptr inbounds %"class.xercesc_2_7::IGXMLScanner", %"class.xercesc_2_7::IGXMLScanner"* %this1, i32 0, i32 4, !dbg !4392
  store i32* null, i32** %fElemState, align 8, !dbg !4392
  %fContent = getelementptr inbounds %"class.xercesc_2_7::IGXMLScanner", %"class.xercesc_2_7::IGXMLScanner"* %this1, i32 0, i32 5, !dbg !4393
  %6 = load %"class.xercesc_2_7::MemoryManager"*, %"class.xercesc_2_7::MemoryManager"** %manager.addr, align 8, !dbg !4394
  invoke void @_ZN11xercesc_2_79XMLBufferC2EjPNS_13MemoryManagerE(%"class.xercesc_2_7::XMLBuffer"* %fContent, i32 1023, %"class.xercesc_2_7::MemoryManager"* %6)
          to label %invoke.cont unwind label %lpad, !dbg !4393

invoke.cont:                                      ; preds = %entry
  %fRawAttrList = getelementptr inbounds %"class.xercesc_2_7::IGXMLScanner", %"class.xercesc_2_7::IGXMLScanner"* %this1, i32 0, i32 6, !dbg !4395
  store %"class.xercesc_2_7::RefVectorOf.17"* null, %"class.xercesc_2_7::RefVectorOf.17"** %fRawAttrList, align 8, !dbg !4395
  %fRawAttrColonListSize = getelementptr inbounds %"class.xercesc_2_7::IGXMLScanner", %"class.xercesc_2_7::IGXMLScanner"* %this1, i32 0, i32 7, !dbg !4396
  store i32 32, i32* %fRawAttrColonListSize, align 8, !dbg !4396
  %fRawAttrColonList = getelementptr inbounds %"class.xercesc_2_7::IGXMLScanner", %"class.xercesc_2_7::IGXMLScanner"* %this1, i32 0, i32 8, !dbg !4397
  store i32* null, i32** %fRawAttrColonList, align 8, !dbg !4397
  %fDTDValidator = getelementptr inbounds %"class.xercesc_2_7::IGXMLScanner", %"class.xercesc_2_7::IGXMLScanner"* %this1, i32 0, i32 9, !dbg !4398
  store %"class.xercesc_2_7::DTDValidator"* null, %"class.xercesc_2_7::DTDValidator"** %fDTDValidator, align 8, !dbg !4398
  %fSchemaValidator = getelementptr inbounds %"class.xercesc_2_7::IGXMLScanner", %"class.xercesc_2_7::IGXMLScanner"* %this1, i32 0, i32 10, !dbg !4399
  store %"class.xercesc_2_7::SchemaValidator"* null, %"class.xercesc_2_7::SchemaValidator"** %fSchemaValidator, align 8, !dbg !4399
  %fDTDGrammar = getelementptr inbounds %"class.xercesc_2_7::IGXMLScanner", %"class.xercesc_2_7::IGXMLScanner"* %this1, i32 0, i32 11, !dbg !4400
  store %"class.xercesc_2_7::DTDGrammar"* null, %"class.xercesc_2_7::DTDGrammar"** %fDTDGrammar, align 8, !dbg !4400
  %fICHandler = getelementptr inbounds %"class.xercesc_2_7::IGXMLScanner", %"class.xercesc_2_7::IGXMLScanner"* %this1, i32 0, i32 12, !dbg !4401
  store %"class.xercesc_2_7::IdentityConstraintHandler"* null, %"class.xercesc_2_7::IdentityConstraintHandler"** %fICHandler, align 8, !dbg !4401
  %fLocationPairs = getelementptr inbounds %"class.xercesc_2_7::IGXMLScanner", %"class.xercesc_2_7::IGXMLScanner"* %this1, i32 0, i32 13, !dbg !4402
  store %"class.xercesc_2_7::ValueVectorOf.56"* null, %"class.xercesc_2_7::ValueVectorOf.56"** %fLocationPairs, align 8, !dbg !4402
  %fDTDElemNonDeclPool = getelementptr inbounds %"class.xercesc_2_7::IGXMLScanner", %"class.xercesc_2_7::IGXMLScanner"* %this1, i32 0, i32 14, !dbg !4403
  store %"class.xercesc_2_7::NameIdPool"* null, %"class.xercesc_2_7::NameIdPool"** %fDTDElemNonDeclPool, align 8, !dbg !4403
  %fSchemaElemNonDeclPool = getelementptr inbounds %"class.xercesc_2_7::IGXMLScanner", %"class.xercesc_2_7::IGXMLScanner"* %this1, i32 0, i32 15, !dbg !4404
  store %"class.xercesc_2_7::RefHash3KeysIdPool"* null, %"class.xercesc_2_7::RefHash3KeysIdPool"** %fSchemaElemNonDeclPool, align 8, !dbg !4404
  %fElemCount = getelementptr inbounds %"class.xercesc_2_7::IGXMLScanner", %"class.xercesc_2_7::IGXMLScanner"* %this1, i32 0, i32 16, !dbg !4405
  store i32 0, i32* %fElemCount, align 8, !dbg !4405
  %fAttDefRegistry = getelementptr inbounds %"class.xercesc_2_7::IGXMLScanner", %"class.xercesc_2_7::IGXMLScanner"* %this1, i32 0, i32 17, !dbg !4406
  store %"class.xercesc_2_7::RefHashTableOf.57"* null, %"class.xercesc_2_7::RefHashTableOf.57"** %fAttDefRegistry, align 8, !dbg !4406
  %fUndeclaredAttrRegistry = getelementptr inbounds %"class.xercesc_2_7::IGXMLScanner", %"class.xercesc_2_7::IGXMLScanner"* %this1, i32 0, i32 18, !dbg !4407
  store %"class.xercesc_2_7::RefHashTableOf.57"* null, %"class.xercesc_2_7::RefHashTableOf.57"** %fUndeclaredAttrRegistry, align 8, !dbg !4407
  %fUndeclaredAttrRegistryNS = getelementptr inbounds %"class.xercesc_2_7::IGXMLScanner", %"class.xercesc_2_7::IGXMLScanner"* %this1, i32 0, i32 19, !dbg !4408
  store %"class.xercesc_2_7::RefHash2KeysTableOf.59"* null, %"class.xercesc_2_7::RefHash2KeysTableOf.59"** %fUndeclaredAttrRegistryNS, align 8, !dbg !4408
  %fPSVIAttrList = getelementptr inbounds %"class.xercesc_2_7::IGXMLScanner", %"class.xercesc_2_7::IGXMLScanner"* %this1, i32 0, i32 20, !dbg !4409
  store %"class.xercesc_2_7::PSVIAttributeList"* null, %"class.xercesc_2_7::PSVIAttributeList"** %fPSVIAttrList, align 8, !dbg !4409
  %fModel = getelementptr inbounds %"class.xercesc_2_7::IGXMLScanner", %"class.xercesc_2_7::IGXMLScanner"* %this1, i32 0, i32 21, !dbg !4410
  store %"class.xercesc_2_7::XSModel"* null, %"class.xercesc_2_7::XSModel"** %fModel, align 8, !dbg !4410
  %fPSVIElement = getelementptr inbounds %"class.xercesc_2_7::IGXMLScanner", %"class.xercesc_2_7::IGXMLScanner"* %this1, i32 0, i32 22, !dbg !4411
  store %"class.xercesc_2_7::PSVIElement"* null, %"class.xercesc_2_7::PSVIElement"** %fPSVIElement, align 8, !dbg !4411
  %fErrorStack = getelementptr inbounds %"class.xercesc_2_7::IGXMLScanner", %"class.xercesc_2_7::IGXMLScanner"* %this1, i32 0, i32 23, !dbg !4412
  store %"class.xercesc_2_7::ValueStackOf.63"* null, %"class.xercesc_2_7::ValueStackOf.63"** %fErrorStack, align 8, !dbg !4412
  %fPSVIElemContext = getelementptr inbounds %"class.xercesc_2_7::IGXMLScanner", %"class.xercesc_2_7::IGXMLScanner"* %this1, i32 0, i32 24, !dbg !4413
  call void @llvm.dbg.declare(metadata %"class.xercesc_2_7::JanitorMemFunCall"* %cleanup, metadata !4414, metadata !DIExpression()), !dbg !4444
  store { i64, i64 } { i64 ptrtoint (void (%"class.xercesc_2_7::IGXMLScanner"*)* @_ZN11xercesc_2_712IGXMLScanner7cleanUpEv to i64), i64 0 }, { i64, i64 }* %coerce, align 8, !dbg !4444
  %7 = getelementptr inbounds { i64, i64 }, { i64, i64 }* %coerce, i32 0, i32 0, !dbg !4444
  %8 = load i64, i64* %7, align 8, !dbg !4444
  %9 = getelementptr inbounds { i64, i64 }, { i64, i64 }* %coerce, i32 0, i32 1, !dbg !4444
  %10 = load i64, i64* %9, align 8, !dbg !4444
  invoke void @_ZN11xercesc_2_717JanitorMemFunCallINS_12IGXMLScannerEEC2EPS1_MS1_FvvE(%"class.xercesc_2_7::JanitorMemFunCall"* %cleanup, %"class.xercesc_2_7::IGXMLScanner"* %this1, i64 %8, i64 %10)
          to label %invoke.cont3 unwind label %lpad2, !dbg !4444

invoke.cont3:                                     ; preds = %invoke.cont
  invoke void @_ZN11xercesc_2_712IGXMLScanner10commonInitEv(%"class.xercesc_2_7::IGXMLScanner"* %this1)
          to label %invoke.cont5 unwind label %lpad4, !dbg !4445

invoke.cont5:                                     ; preds = %invoke.cont3
  br label %try.cont, !dbg !4447

lpad:                                             ; preds = %entry
  %11 = landingpad { i8*, i32 }
          cleanup, !dbg !4448
  %12 = extractvalue { i8*, i32 } %11, 0, !dbg !4448
  store i8* %12, i8** %exn.slot, align 8, !dbg !4448
  %13 = extractvalue { i8*, i32 } %11, 1, !dbg !4448
  store i32 %13, i32* %ehselector.slot, align 4, !dbg !4448
  br label %ehcleanup12, !dbg !4448

lpad2:                                            ; preds = %invoke.cont
  %14 = landingpad { i8*, i32 }
          cleanup, !dbg !4449
  %15 = extractvalue { i8*, i32 } %14, 0, !dbg !4449
  store i8* %15, i8** %exn.slot, align 8, !dbg !4449
  %16 = extractvalue { i8*, i32 } %14, 1, !dbg !4449
  store i32 %16, i32* %ehselector.slot, align 4, !dbg !4449
  br label %ehcleanup11, !dbg !4449

lpad4:                                            ; preds = %invoke.cont3
  %17 = landingpad { i8*, i32 }
          cleanup
          catch i8* bitcast ({ i8*, i8*, i8* }* @_ZTIN11xercesc_2_720OutOfMemoryExceptionE to i8*), !dbg !4450
  %18 = extractvalue { i8*, i32 } %17, 0, !dbg !4450
  store i8* %18, i8** %exn.slot, align 8, !dbg !4450
  %19 = extractvalue { i8*, i32 } %17, 1, !dbg !4450
  store i32 %19, i32* %ehselector.slot, align 4, !dbg !4450
  br label %catch.dispatch, !dbg !4450

catch.dispatch:                                   ; preds = %lpad4
  %sel = load i32, i32* %ehselector.slot, align 4, !dbg !4447
  %20 = call i32 @llvm.eh.typeid.for(i8* bitcast ({ i8*, i8*, i8* }* @_ZTIN11xercesc_2_720OutOfMemoryExceptionE to i8*)) #10, !dbg !4447
  %matches = icmp eq i32 %sel, %20, !dbg !4447
  br i1 %matches, label %catch, label %ehcleanup, !dbg !4447

catch:                                            ; preds = %catch.dispatch
  call void @llvm.dbg.declare(metadata %"class.xercesc_2_7::OutOfMemoryException"** %0, metadata !4451, metadata !DIExpression()), !dbg !4484
  %exn = load i8*, i8** %exn.slot, align 8, !dbg !4447
  %21 = call i8* @__cxa_begin_catch(i8* %exn) #10, !dbg !4447
  %exn.byref = bitcast i8* %21 to %"class.xercesc_2_7::OutOfMemoryException"*, !dbg !4447
  store %"class.xercesc_2_7::OutOfMemoryException"* %exn.byref, %"class.xercesc_2_7::OutOfMemoryException"** %0, align 8, !dbg !4447
  invoke void @_ZN11xercesc_2_717JanitorMemFunCallINS_12IGXMLScannerEE7releaseEv(%"class.xercesc_2_7::JanitorMemFunCall"* %cleanup)
          to label %invoke.cont7 unwind label %lpad6, !dbg !4485

invoke.cont7:                                     ; preds = %catch
  invoke void @__cxa_rethrow() #13
          to label %unreachable unwind label %lpad6, !dbg !4487

lpad6:                                            ; preds = %invoke.cont7, %catch
  %22 = landingpad { i8*, i32 }
          cleanup, !dbg !4488
  %23 = extractvalue { i8*, i32 } %22, 0, !dbg !4488
  store i8* %23, i8** %exn.slot, align 8, !dbg !4488
  %24 = extractvalue { i8*, i32 } %22, 1, !dbg !4488
  store i32 %24, i32* %ehselector.slot, align 4, !dbg !4488
  invoke void @__cxa_end_catch()
          to label %invoke.cont8 unwind label %terminate.lpad, !dbg !4489

invoke.cont8:                                     ; preds = %lpad6
  br label %ehcleanup, !dbg !4489

try.cont:                                         ; preds = %invoke.cont5
  invoke void @_ZN11xercesc_2_717JanitorMemFunCallINS_12IGXMLScannerEE7releaseEv(%"class.xercesc_2_7::JanitorMemFunCall"* %cleanup)
          to label %invoke.cont10 unwind label %lpad9, !dbg !4490

invoke.cont10:                                    ; preds = %try.cont
  call void @_ZN11xercesc_2_717JanitorMemFunCallINS_12IGXMLScannerEED2Ev(%"class.xercesc_2_7::JanitorMemFunCall"* %cleanup) #10, !dbg !4448
  ret void, !dbg !4448

lpad9:                                            ; preds = %try.cont
  %25 = landingpad { i8*, i32 }
          cleanup, !dbg !4449
  %26 = extractvalue { i8*, i32 } %25, 0, !dbg !4449
  store i8* %26, i8** %exn.slot, align 8, !dbg !4449
  %27 = extractvalue { i8*, i32 } %25, 1, !dbg !4449
  store i32 %27, i32* %ehselector.slot, align 4, !dbg !4449
  br label %ehcleanup, !dbg !4449

ehcleanup:                                        ; preds = %lpad9, %invoke.cont8, %catch.dispatch
  call void @_ZN11xercesc_2_717JanitorMemFunCallINS_12IGXMLScannerEED2Ev(%"class.xercesc_2_7::JanitorMemFunCall"* %cleanup) #10, !dbg !4448
  br label %ehcleanup11, !dbg !4448

ehcleanup11:                                      ; preds = %ehcleanup, %lpad2
  call void @_ZN11xercesc_2_79XMLBufferD2Ev(%"class.xercesc_2_7::XMLBuffer"* %fContent) #10, !dbg !4449
  br label %ehcleanup12, !dbg !4449

ehcleanup12:                                      ; preds = %ehcleanup11, %lpad
  %28 = bitcast %"class.xercesc_2_7::IGXMLScanner"* %this1 to %"class.xercesc_2_7::XMLScanner"*, !dbg !4449
  call void @_ZN11xercesc_2_710XMLScannerD2Ev(%"class.xercesc_2_7::XMLScanner"* %28) #10, !dbg !4449
  br label %eh.resume, !dbg !4449

eh.resume:                                        ; preds = %ehcleanup12
  %exn13 = load i8*, i8** %exn.slot, align 8, !dbg !4449
  %sel14 = load i32, i32* %ehselector.slot, align 4, !dbg !4449
  %lpad.val = insertvalue { i8*, i32 } undef, i8* %exn13, 0, !dbg !4449
  %lpad.val15 = insertvalue { i8*, i32 } %lpad.val, i32 %sel14, 1, !dbg !4449
  resume { i8*, i32 } %lpad.val15, !dbg !4449

terminate.lpad:                                   ; preds = %lpad6
  %29 = landingpad { i8*, i32 }
          catch i8* null, !dbg !4489
  %30 = extractvalue { i8*, i32 } %29, 0, !dbg !4489
  call void @__clang_call_terminate(i8* %30) #12, !dbg !4489
  unreachable, !dbg !4489

unreachable:                                      ; preds = %invoke.cont7
  unreachable
}

declare dso_local void @_ZN11xercesc_2_710XMLScannerC2EPNS_12XMLValidatorEPNS_15GrammarResolverEPNS_13MemoryManagerE(%"class.xercesc_2_7::XMLScanner"*, %"class.xercesc_2_7::XMLValidator"*, %"class.xercesc_2_7::GrammarResolver"*, %"class.xercesc_2_7::MemoryManager"*) unnamed_addr #7

; Function Attrs: noinline uwtable
define linkonce_odr dso_local void @_ZN11xercesc_2_79XMLBufferC2EjPNS_13MemoryManagerE(%"class.xercesc_2_7::XMLBuffer"* %this, i32 %capacity, %"class.xercesc_2_7::MemoryManager"* %manager) unnamed_addr #6 comdat align 2 !dbg !4491 {
entry:
  %this.addr = alloca %"class.xercesc_2_7::XMLBuffer"*, align 8
  %capacity.addr = alloca i32, align 4
  %manager.addr = alloca %"class.xercesc_2_7::MemoryManager"*, align 8
  store %"class.xercesc_2_7::XMLBuffer"* %this, %"class.xercesc_2_7::XMLBuffer"** %this.addr, align 8
  call void @llvm.dbg.declare(metadata %"class.xercesc_2_7::XMLBuffer"** %this.addr, metadata !4492, metadata !DIExpression()), !dbg !4494
  store i32 %capacity, i32* %capacity.addr, align 4
  call void @llvm.dbg.declare(metadata i32* %capacity.addr, metadata !4495, metadata !DIExpression()), !dbg !4496
  store %"class.xercesc_2_7::MemoryManager"* %manager, %"class.xercesc_2_7::MemoryManager"** %manager.addr, align 8
  call void @llvm.dbg.declare(metadata %"class.xercesc_2_7::MemoryManager"** %manager.addr, metadata !4497, metadata !DIExpression()), !dbg !4498
  %this1 = load %"class.xercesc_2_7::XMLBuffer"*, %"class.xercesc_2_7::XMLBuffer"** %this.addr, align 8
  %0 = bitcast %"class.xercesc_2_7::XMLBuffer"* %this1 to %"class.xercesc_2_7::XMemory"*, !dbg !4499
  call void @_ZN11xercesc_2_77XMemoryC2Ev(%"class.xercesc_2_7::XMemory"* %0), !dbg !4500
  %fIndex = getelementptr inbounds %"class.xercesc_2_7::XMLBuffer", %"class.xercesc_2_7::XMLBuffer"* %this1, i32 0, i32 0, !dbg !4501
  store i32 0, i32* %fIndex, align 8, !dbg !4501
  %fCapacity = getelementptr inbounds %"class.xercesc_2_7::XMLBuffer", %"class.xercesc_2_7::XMLBuffer"* %this1, i32 0, i32 1, !dbg !4502
  %1 = load i32, i32* %capacity.addr, align 4, !dbg !4503
  store i32 %1, i32* %fCapacity, align 4, !dbg !4502
  %fFullSize = getelementptr inbounds %"class.xercesc_2_7::XMLBuffer", %"class.xercesc_2_7::XMLBuffer"* %this1, i32 0, i32 2, !dbg !4504
  store i32 0, i32* %fFullSize, align 8, !dbg !4504
  %fUsed = getelementptr inbounds %"class.xercesc_2_7::XMLBuffer", %"class.xercesc_2_7::XMLBuffer"* %this1, i32 0, i32 3, !dbg !4505
  store i8 0, i8* %fUsed, align 4, !dbg !4505
  %fMemoryManager = getelementptr inbounds %"class.xercesc_2_7::XMLBuffer", %"class.xercesc_2_7::XMLBuffer"* %this1, i32 0, i32 4, !dbg !4506
  %2 = load %"class.xercesc_2_7::MemoryManager"*, %"class.xercesc_2_7::MemoryManager"** %manager.addr, align 8, !dbg !4507
  store %"class.xercesc_2_7::MemoryManager"* %2, %"class.xercesc_2_7::MemoryManager"** %fMemoryManager, align 8, !dbg !4506
  %fFullHandler = getelementptr inbounds %"class.xercesc_2_7::XMLBuffer", %"class.xercesc_2_7::XMLBuffer"* %this1, i32 0, i32 5, !dbg !4508
  store %"class.xercesc_2_7::XMLBufferFullHandler"* null, %"class.xercesc_2_7::XMLBufferFullHandler"** %fFullHandler, align 8, !dbg !4508
  %fBuffer = getelementptr inbounds %"class.xercesc_2_7::XMLBuffer", %"class.xercesc_2_7::XMLBuffer"* %this1, i32 0, i32 6, !dbg !4509
  store i16* null, i16** %fBuffer, align 8, !dbg !4509
  %3 = load %"class.xercesc_2_7::MemoryManager"*, %"class.xercesc_2_7::MemoryManager"** %manager.addr, align 8, !dbg !4510
  %4 = load i32, i32* %capacity.addr, align 4, !dbg !4512
  %add = add i32 %4, 1, !dbg !4513
  %conv = zext i32 %add to i64, !dbg !4514
  %mul = mul i64 %conv, 2, !dbg !4515
  %5 = bitcast %"class.xercesc_2_7::MemoryManager"* %3 to i8* (%"class.xercesc_2_7::MemoryManager"*, i64)***, !dbg !4516
  %vtable = load i8* (%"class.xercesc_2_7::MemoryManager"*, i64)**, i8* (%"class.xercesc_2_7::MemoryManager"*, i64)*** %5, align 8, !dbg !4516
  %vfn = getelementptr inbounds i8* (%"class.xercesc_2_7::MemoryManager"*, i64)*, i8* (%"class.xercesc_2_7::MemoryManager"*, i64)** %vtable, i64 2, !dbg !4516
  %6 = load i8* (%"class.xercesc_2_7::MemoryManager"*, i64)*, i8* (%"class.xercesc_2_7::MemoryManager"*, i64)** %vfn, align 8, !dbg !4516
  %call = call i8* %6(%"class.xercesc_2_7::MemoryManager"* %3, i64 %mul), !dbg !4516
  %7 = bitcast i8* %call to i16*, !dbg !4517
  %fBuffer2 = getelementptr inbounds %"class.xercesc_2_7::XMLBuffer", %"class.xercesc_2_7::XMLBuffer"* %this1, i32 0, i32 6, !dbg !4518
  store i16* %7, i16** %fBuffer2, align 8, !dbg !4519
  %fBuffer3 = getelementptr inbounds %"class.xercesc_2_7::XMLBuffer", %"class.xercesc_2_7::XMLBuffer"* %this1, i32 0, i32 6, !dbg !4520
  %8 = load i16*, i16** %fBuffer3, align 8, !dbg !4520
  %arrayidx = getelementptr inbounds i16, i16* %8, i64 0, !dbg !4520
  store i16 0, i16* %arrayidx, align 2, !dbg !4521
  ret void, !dbg !4522
}

; Function Attrs: noinline uwtable
define dso_local void @_ZN11xercesc_2_712IGXMLScanner7cleanUpEv(%"class.xercesc_2_7::IGXMLScanner"* %this) #6 align 2 !dbg !4523 {
entry:
  %this.addr = alloca %"class.xercesc_2_7::IGXMLScanner"*, align 8
  store %"class.xercesc_2_7::IGXMLScanner"* %this, %"class.xercesc_2_7::IGXMLScanner"** %this.addr, align 8
  call void @llvm.dbg.declare(metadata %"class.xercesc_2_7::IGXMLScanner"** %this.addr, metadata !4524, metadata !DIExpression()), !dbg !4525
  %this1 = load %"class.xercesc_2_7::IGXMLScanner"*, %"class.xercesc_2_7::IGXMLScanner"** %this.addr, align 8
  %0 = bitcast %"class.xercesc_2_7::IGXMLScanner"* %this1 to %"class.xercesc_2_7::XMLScanner"*, !dbg !4526
  %fMemoryManager = getelementptr inbounds %"class.xercesc_2_7::XMLScanner", %"class.xercesc_2_7::XMLScanner"* %0, i32 0, i32 62, !dbg !4526
  %1 = load %"class.xercesc_2_7::MemoryManager"*, %"class.xercesc_2_7::MemoryManager"** %fMemoryManager, align 8, !dbg !4526
  %fElemState = getelementptr inbounds %"class.xercesc_2_7::IGXMLScanner", %"class.xercesc_2_7::IGXMLScanner"* %this1, i32 0, i32 4, !dbg !4527
  %2 = load i32*, i32** %fElemState, align 8, !dbg !4527
  %3 = bitcast i32* %2 to i8*, !dbg !4527
  %4 = bitcast %"class.xercesc_2_7::MemoryManager"* %1 to void (%"class.xercesc_2_7::MemoryManager"*, i8*)***, !dbg !4528
  %vtable = load void (%"class.xercesc_2_7::MemoryManager"*, i8*)**, void (%"class.xercesc_2_7::MemoryManager"*, i8*)*** %4, align 8, !dbg !4528
  %vfn = getelementptr inbounds void (%"class.xercesc_2_7::MemoryManager"*, i8*)*, void (%"class.xercesc_2_7::MemoryManager"*, i8*)** %vtable, i64 3, !dbg !4528
  %5 = load void (%"class.xercesc_2_7::MemoryManager"*, i8*)*, void (%"class.xercesc_2_7::MemoryManager"*, i8*)** %vfn, align 8, !dbg !4528
  call void %5(%"class.xercesc_2_7::MemoryManager"* %1, i8* %3), !dbg !4528
  %fRawAttrList = getelementptr inbounds %"class.xercesc_2_7::IGXMLScanner", %"class.xercesc_2_7::IGXMLScanner"* %this1, i32 0, i32 6, !dbg !4529
  %6 = load %"class.xercesc_2_7::RefVectorOf.17"*, %"class.xercesc_2_7::RefVectorOf.17"** %fRawAttrList, align 8, !dbg !4529
  %isnull = icmp eq %"class.xercesc_2_7::RefVectorOf.17"* %6, null, !dbg !4530
  br i1 %isnull, label %delete.end, label %delete.notnull, !dbg !4530

delete.notnull:                                   ; preds = %entry
  %7 = bitcast %"class.xercesc_2_7::RefVectorOf.17"* %6 to void (%"class.xercesc_2_7::RefVectorOf.17"*)***, !dbg !4530
  %vtable2 = load void (%"class.xercesc_2_7::RefVectorOf.17"*)**, void (%"class.xercesc_2_7::RefVectorOf.17"*)*** %7, align 8, !dbg !4530
  %vfn3 = getelementptr inbounds void (%"class.xercesc_2_7::RefVectorOf.17"*)*, void (%"class.xercesc_2_7::RefVectorOf.17"*)** %vtable2, i64 1, !dbg !4530
  %8 = load void (%"class.xercesc_2_7::RefVectorOf.17"*)*, void (%"class.xercesc_2_7::RefVectorOf.17"*)** %vfn3, align 8, !dbg !4530
  call void %8(%"class.xercesc_2_7::RefVectorOf.17"* %6) #10, !dbg !4530
  br label %delete.end, !dbg !4530

delete.end:                                       ; preds = %delete.notnull, %entry
  %9 = bitcast %"class.xercesc_2_7::IGXMLScanner"* %this1 to %"class.xercesc_2_7::XMLScanner"*, !dbg !4531
  %fMemoryManager4 = getelementptr inbounds %"class.xercesc_2_7::XMLScanner", %"class.xercesc_2_7::XMLScanner"* %9, i32 0, i32 62, !dbg !4531
  %10 = load %"class.xercesc_2_7::MemoryManager"*, %"class.xercesc_2_7::MemoryManager"** %fMemoryManager4, align 8, !dbg !4531
  %fRawAttrColonList = getelementptr inbounds %"class.xercesc_2_7::IGXMLScanner", %"class.xercesc_2_7::IGXMLScanner"* %this1, i32 0, i32 8, !dbg !4532
  %11 = load i32*, i32** %fRawAttrColonList, align 8, !dbg !4532
  %12 = bitcast i32* %11 to i8*, !dbg !4532
  %13 = bitcast %"class.xercesc_2_7::MemoryManager"* %10 to void (%"class.xercesc_2_7::MemoryManager"*, i8*)***, !dbg !4533
  %vtable5 = load void (%"class.xercesc_2_7::MemoryManager"*, i8*)**, void (%"class.xercesc_2_7::MemoryManager"*, i8*)*** %13, align 8, !dbg !4533
  %vfn6 = getelementptr inbounds void (%"class.xercesc_2_7::MemoryManager"*, i8*)*, void (%"class.xercesc_2_7::MemoryManager"*, i8*)** %vtable5, i64 3, !dbg !4533
  %14 = load void (%"class.xercesc_2_7::MemoryManager"*, i8*)*, void (%"class.xercesc_2_7::MemoryManager"*, i8*)** %vfn6, align 8, !dbg !4533
  call void %14(%"class.xercesc_2_7::MemoryManager"* %10, i8* %12), !dbg !4533
  %fDTDValidator = getelementptr inbounds %"class.xercesc_2_7::IGXMLScanner", %"class.xercesc_2_7::IGXMLScanner"* %this1, i32 0, i32 9, !dbg !4534
  %15 = load %"class.xercesc_2_7::DTDValidator"*, %"class.xercesc_2_7::DTDValidator"** %fDTDValidator, align 8, !dbg !4534
  %isnull7 = icmp eq %"class.xercesc_2_7::DTDValidator"* %15, null, !dbg !4535
  br i1 %isnull7, label %delete.end11, label %delete.notnull8, !dbg !4535

delete.notnull8:                                  ; preds = %delete.end
  %16 = bitcast %"class.xercesc_2_7::DTDValidator"* %15 to void (%"class.xercesc_2_7::DTDValidator"*)***, !dbg !4535
  %vtable9 = load void (%"class.xercesc_2_7::DTDValidator"*)**, void (%"class.xercesc_2_7::DTDValidator"*)*** %16, align 8, !dbg !4535
  %vfn10 = getelementptr inbounds void (%"class.xercesc_2_7::DTDValidator"*)*, void (%"class.xercesc_2_7::DTDValidator"*)** %vtable9, i64 1, !dbg !4535
  %17 = load void (%"class.xercesc_2_7::DTDValidator"*)*, void (%"class.xercesc_2_7::DTDValidator"*)** %vfn10, align 8, !dbg !4535
  call void %17(%"class.xercesc_2_7::DTDValidator"* %15) #10, !dbg !4535
  br label %delete.end11, !dbg !4535

delete.end11:                                     ; preds = %delete.notnull8, %delete.end
  %fSchemaValidator = getelementptr inbounds %"class.xercesc_2_7::IGXMLScanner", %"class.xercesc_2_7::IGXMLScanner"* %this1, i32 0, i32 10, !dbg !4536
  %18 = load %"class.xercesc_2_7::SchemaValidator"*, %"class.xercesc_2_7::SchemaValidator"** %fSchemaValidator, align 8, !dbg !4536
  %isnull12 = icmp eq %"class.xercesc_2_7::SchemaValidator"* %18, null, !dbg !4537
  br i1 %isnull12, label %delete.end16, label %delete.notnull13, !dbg !4537

delete.notnull13:                                 ; preds = %delete.end11
  %19 = bitcast %"class.xercesc_2_7::SchemaValidator"* %18 to void (%"class.xercesc_2_7::SchemaValidator"*)***, !dbg !4537
  %vtable14 = load void (%"class.xercesc_2_7::SchemaValidator"*)**, void (%"class.xercesc_2_7::SchemaValidator"*)*** %19, align 8, !dbg !4537
  %vfn15 = getelementptr inbounds void (%"class.xercesc_2_7::SchemaValidator"*)*, void (%"class.xercesc_2_7::SchemaValidator"*)** %vtable14, i64 1, !dbg !4537
  %20 = load void (%"class.xercesc_2_7::SchemaValidator"*)*, void (%"class.xercesc_2_7::SchemaValidator"*)** %vfn15, align 8, !dbg !4537
  call void %20(%"class.xercesc_2_7::SchemaValidator"* %18) #10, !dbg !4537
  br label %delete.end16, !dbg !4537

delete.end16:                                     ; preds = %delete.notnull13, %delete.end11
  %fICHandler = getelementptr inbounds %"class.xercesc_2_7::IGXMLScanner", %"class.xercesc_2_7::IGXMLScanner"* %this1, i32 0, i32 12, !dbg !4538
  %21 = load %"class.xercesc_2_7::IdentityConstraintHandler"*, %"class.xercesc_2_7::IdentityConstraintHandler"** %fICHandler, align 8, !dbg !4538
  %isnull17 = icmp eq %"class.xercesc_2_7::IdentityConstraintHandler"* %21, null, !dbg !4539
  br i1 %isnull17, label %delete.end21, label %delete.notnull18, !dbg !4539

delete.notnull18:                                 ; preds = %delete.end16
  %22 = bitcast %"class.xercesc_2_7::IdentityConstraintHandler"* %21 to void (%"class.xercesc_2_7::IdentityConstraintHandler"*)***, !dbg !4539
  %vtable19 = load void (%"class.xercesc_2_7::IdentityConstraintHandler"*)**, void (%"class.xercesc_2_7::IdentityConstraintHandler"*)*** %22, align 8, !dbg !4539
  %vfn20 = getelementptr inbounds void (%"class.xercesc_2_7::IdentityConstraintHandler"*)*, void (%"class.xercesc_2_7::IdentityConstraintHandler"*)** %vtable19, i64 1, !dbg !4539
  %23 = load void (%"class.xercesc_2_7::IdentityConstraintHandler"*)*, void (%"class.xercesc_2_7::IdentityConstraintHandler"*)** %vfn20, align 8, !dbg !4539
  call void %23(%"class.xercesc_2_7::IdentityConstraintHandler"* %21) #10, !dbg !4539
  br label %delete.end21, !dbg !4539

delete.end21:                                     ; preds = %delete.notnull18, %delete.end16
  %fLocationPairs = getelementptr inbounds %"class.xercesc_2_7::IGXMLScanner", %"class.xercesc_2_7::IGXMLScanner"* %this1, i32 0, i32 13, !dbg !4540
  %24 = load %"class.xercesc_2_7::ValueVectorOf.56"*, %"class.xercesc_2_7::ValueVectorOf.56"** %fLocationPairs, align 8, !dbg !4540
  %isnull22 = icmp eq %"class.xercesc_2_7::ValueVectorOf.56"* %24, null, !dbg !4541
  br i1 %isnull22, label %delete.end24, label %delete.notnull23, !dbg !4541

delete.notnull23:                                 ; preds = %delete.end21
  call void @_ZN11xercesc_2_713ValueVectorOfIPtED2Ev(%"class.xercesc_2_7::ValueVectorOf.56"* %24) #10, !dbg !4541
  %25 = bitcast %"class.xercesc_2_7::ValueVectorOf.56"* %24 to i8*, !dbg !4541
  call void @_ZN11xercesc_2_77XMemorydlEPv(i8* %25) #10, !dbg !4541
  br label %delete.end24, !dbg !4541

delete.end24:                                     ; preds = %delete.notnull23, %delete.end21
  %fDTDElemNonDeclPool = getelementptr inbounds %"class.xercesc_2_7::IGXMLScanner", %"class.xercesc_2_7::IGXMLScanner"* %this1, i32 0, i32 14, !dbg !4542
  %26 = load %"class.xercesc_2_7::NameIdPool"*, %"class.xercesc_2_7::NameIdPool"** %fDTDElemNonDeclPool, align 8, !dbg !4542
  %isnull25 = icmp eq %"class.xercesc_2_7::NameIdPool"* %26, null, !dbg !4543
  br i1 %isnull25, label %delete.end27, label %delete.notnull26, !dbg !4543

delete.notnull26:                                 ; preds = %delete.end24
  call void @_ZN11xercesc_2_710NameIdPoolINS_14DTDElementDeclEED2Ev(%"class.xercesc_2_7::NameIdPool"* %26) #10, !dbg !4543
  %27 = bitcast %"class.xercesc_2_7::NameIdPool"* %26 to i8*, !dbg !4543
  call void @_ZN11xercesc_2_77XMemorydlEPv(i8* %27) #10, !dbg !4543
  br label %delete.end27, !dbg !4543

delete.end27:                                     ; preds = %delete.notnull26, %delete.end24
  %fSchemaElemNonDeclPool = getelementptr inbounds %"class.xercesc_2_7::IGXMLScanner", %"class.xercesc_2_7::IGXMLScanner"* %this1, i32 0, i32 15, !dbg !4544
  %28 = load %"class.xercesc_2_7::RefHash3KeysIdPool"*, %"class.xercesc_2_7::RefHash3KeysIdPool"** %fSchemaElemNonDeclPool, align 8, !dbg !4544
  %isnull28 = icmp eq %"class.xercesc_2_7::RefHash3KeysIdPool"* %28, null, !dbg !4545
  br i1 %isnull28, label %delete.end30, label %delete.notnull29, !dbg !4545

delete.notnull29:                                 ; preds = %delete.end27
  call void @_ZN11xercesc_2_718RefHash3KeysIdPoolINS_17SchemaElementDeclEED2Ev(%"class.xercesc_2_7::RefHash3KeysIdPool"* %28) #10, !dbg !4545
  %29 = bitcast %"class.xercesc_2_7::RefHash3KeysIdPool"* %28 to i8*, !dbg !4545
  call void @_ZN11xercesc_2_77XMemorydlEPv(i8* %29) #10, !dbg !4545
  br label %delete.end30, !dbg !4545

delete.end30:                                     ; preds = %delete.notnull29, %delete.end27
  %fAttDefRegistry = getelementptr inbounds %"class.xercesc_2_7::IGXMLScanner", %"class.xercesc_2_7::IGXMLScanner"* %this1, i32 0, i32 17, !dbg !4546
  %30 = load %"class.xercesc_2_7::RefHashTableOf.57"*, %"class.xercesc_2_7::RefHashTableOf.57"** %fAttDefRegistry, align 8, !dbg !4546
  %isnull31 = icmp eq %"class.xercesc_2_7::RefHashTableOf.57"* %30, null, !dbg !4547
  br i1 %isnull31, label %delete.end33, label %delete.notnull32, !dbg !4547

delete.notnull32:                                 ; preds = %delete.end30
  call void @_ZN11xercesc_2_714RefHashTableOfIjED2Ev(%"class.xercesc_2_7::RefHashTableOf.57"* %30) #10, !dbg !4547
  %31 = bitcast %"class.xercesc_2_7::RefHashTableOf.57"* %30 to i8*, !dbg !4547
  call void @_ZN11xercesc_2_77XMemorydlEPv(i8* %31) #10, !dbg !4547
  br label %delete.end33, !dbg !4547

delete.end33:                                     ; preds = %delete.notnull32, %delete.end30
  %fUndeclaredAttrRegistry = getelementptr inbounds %"class.xercesc_2_7::IGXMLScanner", %"class.xercesc_2_7::IGXMLScanner"* %this1, i32 0, i32 18, !dbg !4548
  %32 = load %"class.xercesc_2_7::RefHashTableOf.57"*, %"class.xercesc_2_7::RefHashTableOf.57"** %fUndeclaredAttrRegistry, align 8, !dbg !4548
  %isnull34 = icmp eq %"class.xercesc_2_7::RefHashTableOf.57"* %32, null, !dbg !4549
  br i1 %isnull34, label %delete.end36, label %delete.notnull35, !dbg !4549

delete.notnull35:                                 ; preds = %delete.end33
  call void @_ZN11xercesc_2_714RefHashTableOfIjED2Ev(%"class.xercesc_2_7::RefHashTableOf.57"* %32) #10, !dbg !4549
  %33 = bitcast %"class.xercesc_2_7::RefHashTableOf.57"* %32 to i8*, !dbg !4549
  call void @_ZN11xercesc_2_77XMemorydlEPv(i8* %33) #10, !dbg !4549
  br label %delete.end36, !dbg !4549

delete.end36:                                     ; preds = %delete.notnull35, %delete.end33
  %fUndeclaredAttrRegistryNS = getelementptr inbounds %"class.xercesc_2_7::IGXMLScanner", %"class.xercesc_2_7::IGXMLScanner"* %this1, i32 0, i32 19, !dbg !4550
  %34 = load %"class.xercesc_2_7::RefHash2KeysTableOf.59"*, %"class.xercesc_2_7::RefHash2KeysTableOf.59"** %fUndeclaredAttrRegistryNS, align 8, !dbg !4550
  %isnull37 = icmp eq %"class.xercesc_2_7::RefHash2KeysTableOf.59"* %34, null, !dbg !4551
  br i1 %isnull37, label %delete.end39, label %delete.notnull38, !dbg !4551

delete.notnull38:                                 ; preds = %delete.end36
  call void @_ZN11xercesc_2_719RefHash2KeysTableOfIjED2Ev(%"class.xercesc_2_7::RefHash2KeysTableOf.59"* %34) #10, !dbg !4551
  %35 = bitcast %"class.xercesc_2_7::RefHash2KeysTableOf.59"* %34 to i8*, !dbg !4551
  call void @_ZN11xercesc_2_77XMemorydlEPv(i8* %35) #10, !dbg !4551
  br label %delete.end39, !dbg !4551

delete.end39:                                     ; preds = %delete.notnull38, %delete.end36
  %fPSVIAttrList = getelementptr inbounds %"class.xercesc_2_7::IGXMLScanner", %"class.xercesc_2_7::IGXMLScanner"* %this1, i32 0, i32 20, !dbg !4552
  %36 = load %"class.xercesc_2_7::PSVIAttributeList"*, %"class.xercesc_2_7::PSVIAttributeList"** %fPSVIAttrList, align 8, !dbg !4552
  %isnull40 = icmp eq %"class.xercesc_2_7::PSVIAttributeList"* %36, null, !dbg !4553
  br i1 %isnull40, label %delete.end42, label %delete.notnull41, !dbg !4553

delete.notnull41:                                 ; preds = %delete.end39
  call void @_ZN11xercesc_2_717PSVIAttributeListD2Ev(%"class.xercesc_2_7::PSVIAttributeList"* %36) #10, !dbg !4553
  %37 = bitcast %"class.xercesc_2_7::PSVIAttributeList"* %36 to i8*, !dbg !4553
  call void @_ZN11xercesc_2_77XMemorydlEPv(i8* %37) #10, !dbg !4553
  br label %delete.end42, !dbg !4553

delete.end42:                                     ; preds = %delete.notnull41, %delete.end39
  %fPSVIElement = getelementptr inbounds %"class.xercesc_2_7::IGXMLScanner", %"class.xercesc_2_7::IGXMLScanner"* %this1, i32 0, i32 22, !dbg !4554
  %38 = load %"class.xercesc_2_7::PSVIElement"*, %"class.xercesc_2_7::PSVIElement"** %fPSVIElement, align 8, !dbg !4554
  %isnull43 = icmp eq %"class.xercesc_2_7::PSVIElement"* %38, null, !dbg !4555
  br i1 %isnull43, label %delete.end47, label %delete.notnull44, !dbg !4555

delete.notnull44:                                 ; preds = %delete.end42
  %39 = bitcast %"class.xercesc_2_7::PSVIElement"* %38 to void (%"class.xercesc_2_7::PSVIElement"*)***, !dbg !4555
  %vtable45 = load void (%"class.xercesc_2_7::PSVIElement"*)**, void (%"class.xercesc_2_7::PSVIElement"*)*** %39, align 8, !dbg !4555
  %vfn46 = getelementptr inbounds void (%"class.xercesc_2_7::PSVIElement"*)*, void (%"class.xercesc_2_7::PSVIElement"*)** %vtable45, i64 1, !dbg !4555
  %40 = load void (%"class.xercesc_2_7::PSVIElement"*)*, void (%"class.xercesc_2_7::PSVIElement"*)** %vfn46, align 8, !dbg !4555
  call void %40(%"class.xercesc_2_7::PSVIElement"* %38) #10, !dbg !4555
  br label %delete.end47, !dbg !4555

delete.end47:                                     ; preds = %delete.notnull44, %delete.end42
  %fErrorStack = getelementptr inbounds %"class.xercesc_2_7::IGXMLScanner", %"class.xercesc_2_7::IGXMLScanner"* %this1, i32 0, i32 23, !dbg !4556
  %41 = load %"class.xercesc_2_7::ValueStackOf.63"*, %"class.xercesc_2_7::ValueStackOf.63"** %fErrorStack, align 8, !dbg !4556
  %isnull48 = icmp eq %"class.xercesc_2_7::ValueStackOf.63"* %41, null, !dbg !4557
  br i1 %isnull48, label %delete.end50, label %delete.notnull49, !dbg !4557

delete.notnull49:                                 ; preds = %delete.end47
  call void @_ZN11xercesc_2_712ValueStackOfIbED2Ev(%"class.xercesc_2_7::ValueStackOf.63"* %41) #10, !dbg !4557
  %42 = bitcast %"class.xercesc_2_7::ValueStackOf.63"* %41 to i8*, !dbg !4557
  call void @_ZN11xercesc_2_77XMemorydlEPv(i8* %42) #10, !dbg !4557
  br label %delete.end50, !dbg !4557

delete.end50:                                     ; preds = %delete.notnull49, %delete.end47
  ret void, !dbg !4558
}

; Function Attrs: noinline nounwind uwtable
define linkonce_odr dso_local void @_ZN11xercesc_2_717JanitorMemFunCallINS_12IGXMLScannerEEC2EPS1_MS1_FvvE(%"class.xercesc_2_7::JanitorMemFunCall"* %this, %"class.xercesc_2_7::IGXMLScanner"* %object, i64 %toCall.coerce0, i64 %toCall.coerce1) unnamed_addr #1 comdat align 2 !dbg !4559 {
entry:
  %toCall = alloca { i64, i64 }, align 8
  %this.addr = alloca %"class.xercesc_2_7::JanitorMemFunCall"*, align 8
  %object.addr = alloca %"class.xercesc_2_7::IGXMLScanner"*, align 8
  %toCall.addr = alloca { i64, i64 }, align 8
  %0 = getelementptr inbounds { i64, i64 }, { i64, i64 }* %toCall, i32 0, i32 0
  store i64 %toCall.coerce0, i64* %0, align 8
  %1 = getelementptr inbounds { i64, i64 }, { i64, i64 }* %toCall, i32 0, i32 1
  store i64 %toCall.coerce1, i64* %1, align 8
  %toCall1 = load { i64, i64 }, { i64, i64 }* %toCall, align 8
  store %"class.xercesc_2_7::JanitorMemFunCall"* %this, %"class.xercesc_2_7::JanitorMemFunCall"** %this.addr, align 8
  call void @llvm.dbg.declare(metadata %"class.xercesc_2_7::JanitorMemFunCall"** %this.addr, metadata !4561, metadata !DIExpression()), !dbg !4563
  store %"class.xercesc_2_7::IGXMLScanner"* %object, %"class.xercesc_2_7::IGXMLScanner"** %object.addr, align 8
  call void @llvm.dbg.declare(metadata %"class.xercesc_2_7::IGXMLScanner"** %object.addr, metadata !4564, metadata !DIExpression()), !dbg !4565
  store { i64, i64 } %toCall1, { i64, i64 }* %toCall.addr, align 8
  call void @llvm.dbg.declare(metadata { i64, i64 }* %toCall.addr, metadata !4566, metadata !DIExpression()), !dbg !4567
  %this2 = load %"class.xercesc_2_7::JanitorMemFunCall"*, %"class.xercesc_2_7::JanitorMemFunCall"** %this.addr, align 8
  %fObject = getelementptr inbounds %"class.xercesc_2_7::JanitorMemFunCall", %"class.xercesc_2_7::JanitorMemFunCall"* %this2, i32 0, i32 0, !dbg !4568
  %2 = load %"class.xercesc_2_7::IGXMLScanner"*, %"class.xercesc_2_7::IGXMLScanner"** %object.addr, align 8, !dbg !4569
  store %"class.xercesc_2_7::IGXMLScanner"* %2, %"class.xercesc_2_7::IGXMLScanner"** %fObject, align 8, !dbg !4568
  %fToCall = getelementptr inbounds %"class.xercesc_2_7::JanitorMemFunCall", %"class.xercesc_2_7::JanitorMemFunCall"* %this2, i32 0, i32 1, !dbg !4570
  %3 = load { i64, i64 }, { i64, i64 }* %toCall.addr, align 8, !dbg !4571
  store { i64, i64 } %3, { i64, i64 }* %fToCall, align 8, !dbg !4570
  ret void, !dbg !4572
}

; Function Attrs: noinline uwtable
define dso_local void @_ZN11xercesc_2_712IGXMLScanner10commonInitEv(%"class.xercesc_2_7::IGXMLScanner"* %this) #6 align 2 personality i8* bitcast (i32 (...)* @__gxx_personality_v0 to i8*) !dbg !4573 {
entry:
  %this.addr = alloca %"class.xercesc_2_7::IGXMLScanner"*, align 8
  %exn.slot = alloca i8*
  %ehselector.slot = alloca i32
  store %"class.xercesc_2_7::IGXMLScanner"* %this, %"class.xercesc_2_7::IGXMLScanner"** %this.addr, align 8
  call void @llvm.dbg.declare(metadata %"class.xercesc_2_7::IGXMLScanner"** %this.addr, metadata !4574, metadata !DIExpression()), !dbg !4575
  %this1 = load %"class.xercesc_2_7::IGXMLScanner"*, %"class.xercesc_2_7::IGXMLScanner"** %this.addr, align 8
  %0 = bitcast %"class.xercesc_2_7::IGXMLScanner"* %this1 to %"class.xercesc_2_7::XMLScanner"*, !dbg !4576
  %fMemoryManager = getelementptr inbounds %"class.xercesc_2_7::XMLScanner", %"class.xercesc_2_7::XMLScanner"* %0, i32 0, i32 62, !dbg !4576
  %1 = load %"class.xercesc_2_7::MemoryManager"*, %"class.xercesc_2_7::MemoryManager"** %fMemoryManager, align 8, !dbg !4576
  %fElemStateSize = getelementptr inbounds %"class.xercesc_2_7::IGXMLScanner", %"class.xercesc_2_7::IGXMLScanner"* %this1, i32 0, i32 3, !dbg !4577
  %2 = load i32, i32* %fElemStateSize, align 8, !dbg !4577
  %conv = zext i32 %2 to i64, !dbg !4577
  %mul = mul i64 %conv, 4, !dbg !4578
  %3 = bitcast %"class.xercesc_2_7::MemoryManager"* %1 to i8* (%"class.xercesc_2_7::MemoryManager"*, i64)***, !dbg !4579
  %vtable = load i8* (%"class.xercesc_2_7::MemoryManager"*, i64)**, i8* (%"class.xercesc_2_7::MemoryManager"*, i64)*** %3, align 8, !dbg !4579
  %vfn = getelementptr inbounds i8* (%"class.xercesc_2_7::MemoryManager"*, i64)*, i8* (%"class.xercesc_2_7::MemoryManager"*, i64)** %vtable, i64 2, !dbg !4579
  %4 = load i8* (%"class.xercesc_2_7::MemoryManager"*, i64)*, i8* (%"class.xercesc_2_7::MemoryManager"*, i64)** %vfn, align 8, !dbg !4579
  %call = call i8* %4(%"class.xercesc_2_7::MemoryManager"* %1, i64 %mul), !dbg !4579
  %5 = bitcast i8* %call to i32*, !dbg !4580
  %fElemState = getelementptr inbounds %"class.xercesc_2_7::IGXMLScanner", %"class.xercesc_2_7::IGXMLScanner"* %this1, i32 0, i32 4, !dbg !4581
  store i32* %5, i32** %fElemState, align 8, !dbg !4582
  %6 = bitcast %"class.xercesc_2_7::IGXMLScanner"* %this1 to %"class.xercesc_2_7::XMLScanner"*, !dbg !4583
  %fMemoryManager2 = getelementptr inbounds %"class.xercesc_2_7::XMLScanner", %"class.xercesc_2_7::XMLScanner"* %6, i32 0, i32 62, !dbg !4583
  %7 = load %"class.xercesc_2_7::MemoryManager"*, %"class.xercesc_2_7::MemoryManager"** %fMemoryManager2, align 8, !dbg !4583
  %call3 = call i8* @_ZN11xercesc_2_77XMemorynwEmPNS_13MemoryManagerE(i64 40, %"class.xercesc_2_7::MemoryManager"* %7), !dbg !4584
  %8 = bitcast i8* %call3 to %"class.xercesc_2_7::RefVectorOf.17"*, !dbg !4584
  %9 = bitcast %"class.xercesc_2_7::IGXMLScanner"* %this1 to %"class.xercesc_2_7::XMLScanner"*, !dbg !4585
  %fMemoryManager4 = getelementptr inbounds %"class.xercesc_2_7::XMLScanner", %"class.xercesc_2_7::XMLScanner"* %9, i32 0, i32 62, !dbg !4585
  %10 = load %"class.xercesc_2_7::MemoryManager"*, %"class.xercesc_2_7::MemoryManager"** %fMemoryManager4, align 8, !dbg !4585
  invoke void @_ZN11xercesc_2_711RefVectorOfINS_12KVStringPairEEC2EjbPNS_13MemoryManagerE(%"class.xercesc_2_7::RefVectorOf.17"* %8, i32 32, i1 zeroext true, %"class.xercesc_2_7::MemoryManager"* %10)
          to label %invoke.cont unwind label %lpad, !dbg !4586

invoke.cont:                                      ; preds = %entry
  %fRawAttrList = getelementptr inbounds %"class.xercesc_2_7::IGXMLScanner", %"class.xercesc_2_7::IGXMLScanner"* %this1, i32 0, i32 6, !dbg !4587
  store %"class.xercesc_2_7::RefVectorOf.17"* %8, %"class.xercesc_2_7::RefVectorOf.17"** %fRawAttrList, align 8, !dbg !4588
  %11 = bitcast %"class.xercesc_2_7::IGXMLScanner"* %this1 to %"class.xercesc_2_7::XMLScanner"*, !dbg !4589
  %fMemoryManager5 = getelementptr inbounds %"class.xercesc_2_7::XMLScanner", %"class.xercesc_2_7::XMLScanner"* %11, i32 0, i32 62, !dbg !4589
  %12 = load %"class.xercesc_2_7::MemoryManager"*, %"class.xercesc_2_7::MemoryManager"** %fMemoryManager5, align 8, !dbg !4589
  %fRawAttrColonListSize = getelementptr inbounds %"class.xercesc_2_7::IGXMLScanner", %"class.xercesc_2_7::IGXMLScanner"* %this1, i32 0, i32 7, !dbg !4590
  %13 = load i32, i32* %fRawAttrColonListSize, align 8, !dbg !4590
  %conv6 = zext i32 %13 to i64, !dbg !4590
  %mul7 = mul i64 %conv6, 4, !dbg !4591
  %14 = bitcast %"class.xercesc_2_7::MemoryManager"* %12 to i8* (%"class.xercesc_2_7::MemoryManager"*, i64)***, !dbg !4592
  %vtable8 = load i8* (%"class.xercesc_2_7::MemoryManager"*, i64)**, i8* (%"class.xercesc_2_7::MemoryManager"*, i64)*** %14, align 8, !dbg !4592
  %vfn9 = getelementptr inbounds i8* (%"class.xercesc_2_7::MemoryManager"*, i64)*, i8* (%"class.xercesc_2_7::MemoryManager"*, i64)** %vtable8, i64 2, !dbg !4592
  %15 = load i8* (%"class.xercesc_2_7::MemoryManager"*, i64)*, i8* (%"class.xercesc_2_7::MemoryManager"*, i64)** %vfn9, align 8, !dbg !4592
  %call10 = call i8* %15(%"class.xercesc_2_7::MemoryManager"* %12, i64 %mul7), !dbg !4592
  %16 = bitcast i8* %call10 to i32*, !dbg !4593
  %fRawAttrColonList = getelementptr inbounds %"class.xercesc_2_7::IGXMLScanner", %"class.xercesc_2_7::IGXMLScanner"* %this1, i32 0, i32 8, !dbg !4594
  store i32* %16, i32** %fRawAttrColonList, align 8, !dbg !4595
  %17 = bitcast %"class.xercesc_2_7::IGXMLScanner"* %this1 to %"class.xercesc_2_7::XMLScanner"*, !dbg !4596
  %fMemoryManager11 = getelementptr inbounds %"class.xercesc_2_7::XMLScanner", %"class.xercesc_2_7::XMLScanner"* %17, i32 0, i32 62, !dbg !4596
  %18 = load %"class.xercesc_2_7::MemoryManager"*, %"class.xercesc_2_7::MemoryManager"** %fMemoryManager11, align 8, !dbg !4596
  %call12 = call i8* @_ZN11xercesc_2_77XMemorynwEmPNS_13MemoryManagerE(i64 48, %"class.xercesc_2_7::MemoryManager"* %18), !dbg !4597
  %19 = bitcast i8* %call12 to %"class.xercesc_2_7::DTDValidator"*, !dbg !4597
  invoke void @_ZN11xercesc_2_712DTDValidatorC1EPNS_16XMLErrorReporterE(%"class.xercesc_2_7::DTDValidator"* %19, %"class.xercesc_2_7::XMLErrorReporter"* null)
          to label %invoke.cont14 unwind label %lpad13, !dbg !4598

invoke.cont14:                                    ; preds = %invoke.cont
  %fDTDValidator = getelementptr inbounds %"class.xercesc_2_7::IGXMLScanner", %"class.xercesc_2_7::IGXMLScanner"* %this1, i32 0, i32 9, !dbg !4599
  store %"class.xercesc_2_7::DTDValidator"* %19, %"class.xercesc_2_7::DTDValidator"** %fDTDValidator, align 8, !dbg !4600
  %20 = bitcast %"class.xercesc_2_7::IGXMLScanner"* %this1 to %"class.xercesc_2_7::XMLScanner"*, !dbg !4601
  %fDTDValidator15 = getelementptr inbounds %"class.xercesc_2_7::IGXMLScanner", %"class.xercesc_2_7::IGXMLScanner"* %this1, i32 0, i32 9, !dbg !4602
  %21 = load %"class.xercesc_2_7::DTDValidator"*, %"class.xercesc_2_7::DTDValidator"** %fDTDValidator15, align 8, !dbg !4602
  %22 = bitcast %"class.xercesc_2_7::DTDValidator"* %21 to %"class.xercesc_2_7::XMLValidator"*, !dbg !4602
  call void @_ZN11xercesc_2_710XMLScanner13initValidatorEPNS_12XMLValidatorE(%"class.xercesc_2_7::XMLScanner"* %20, %"class.xercesc_2_7::XMLValidator"* %22), !dbg !4601
  %23 = bitcast %"class.xercesc_2_7::IGXMLScanner"* %this1 to %"class.xercesc_2_7::XMLScanner"*, !dbg !4603
  %fMemoryManager16 = getelementptr inbounds %"class.xercesc_2_7::XMLScanner", %"class.xercesc_2_7::XMLScanner"* %23, i32 0, i32 62, !dbg !4603
  %24 = load %"class.xercesc_2_7::MemoryManager"*, %"class.xercesc_2_7::MemoryManager"** %fMemoryManager16, align 8, !dbg !4603
  %call17 = call i8* @_ZN11xercesc_2_77XMemorynwEmPNS_13MemoryManagerE(i64 192, %"class.xercesc_2_7::MemoryManager"* %24), !dbg !4604
  %25 = bitcast i8* %call17 to %"class.xercesc_2_7::SchemaValidator"*, !dbg !4604
  %26 = bitcast %"class.xercesc_2_7::IGXMLScanner"* %this1 to %"class.xercesc_2_7::XMLScanner"*, !dbg !4605
  %fMemoryManager18 = getelementptr inbounds %"class.xercesc_2_7::XMLScanner", %"class.xercesc_2_7::XMLScanner"* %26, i32 0, i32 62, !dbg !4605
  %27 = load %"class.xercesc_2_7::MemoryManager"*, %"class.xercesc_2_7::MemoryManager"** %fMemoryManager18, align 8, !dbg !4605
  invoke void @_ZN11xercesc_2_715SchemaValidatorC1EPNS_16XMLErrorReporterEPNS_13MemoryManagerE(%"class.xercesc_2_7::SchemaValidator"* %25, %"class.xercesc_2_7::XMLErrorReporter"* null, %"class.xercesc_2_7::MemoryManager"* %27)
          to label %invoke.cont20 unwind label %lpad19, !dbg !4606

invoke.cont20:                                    ; preds = %invoke.cont14
  %fSchemaValidator = getelementptr inbounds %"class.xercesc_2_7::IGXMLScanner", %"class.xercesc_2_7::IGXMLScanner"* %this1, i32 0, i32 10, !dbg !4607
  store %"class.xercesc_2_7::SchemaValidator"* %25, %"class.xercesc_2_7::SchemaValidator"** %fSchemaValidator, align 8, !dbg !4608
  %28 = bitcast %"class.xercesc_2_7::IGXMLScanner"* %this1 to %"class.xercesc_2_7::XMLScanner"*, !dbg !4609
  %fSchemaValidator21 = getelementptr inbounds %"class.xercesc_2_7::IGXMLScanner", %"class.xercesc_2_7::IGXMLScanner"* %this1, i32 0, i32 10, !dbg !4610
  %29 = load %"class.xercesc_2_7::SchemaValidator"*, %"class.xercesc_2_7::SchemaValidator"** %fSchemaValidator21, align 8, !dbg !4610
  %30 = bitcast %"class.xercesc_2_7::SchemaValidator"* %29 to %"class.xercesc_2_7::XMLValidator"*, !dbg !4610
  call void @_ZN11xercesc_2_710XMLScanner13initValidatorEPNS_12XMLValidatorE(%"class.xercesc_2_7::XMLScanner"* %28, %"class.xercesc_2_7::XMLValidator"* %30), !dbg !4609
  %31 = bitcast %"class.xercesc_2_7::IGXMLScanner"* %this1 to %"class.xercesc_2_7::XMLScanner"*, !dbg !4611
  %fMemoryManager22 = getelementptr inbounds %"class.xercesc_2_7::XMLScanner", %"class.xercesc_2_7::XMLScanner"* %31, i32 0, i32 62, !dbg !4611
  %32 = load %"class.xercesc_2_7::MemoryManager"*, %"class.xercesc_2_7::MemoryManager"** %fMemoryManager22, align 8, !dbg !4611
  %call23 = call i8* @_ZN11xercesc_2_77XMemorynwEmPNS_13MemoryManagerE(i64 48, %"class.xercesc_2_7::MemoryManager"* %32), !dbg !4612
  %33 = bitcast i8* %call23 to %"class.xercesc_2_7::IdentityConstraintHandler"*, !dbg !4612
  %34 = bitcast %"class.xercesc_2_7::IGXMLScanner"* %this1 to %"class.xercesc_2_7::XMLScanner"*, !dbg !4613
  %35 = bitcast %"class.xercesc_2_7::IGXMLScanner"* %this1 to %"class.xercesc_2_7::XMLScanner"*, !dbg !4614
  %fMemoryManager24 = getelementptr inbounds %"class.xercesc_2_7::XMLScanner", %"class.xercesc_2_7::XMLScanner"* %35, i32 0, i32 62, !dbg !4614
  %36 = load %"class.xercesc_2_7::MemoryManager"*, %"class.xercesc_2_7::MemoryManager"** %fMemoryManager24, align 8, !dbg !4614
  invoke void @_ZN11xercesc_2_725IdentityConstraintHandlerC1EPNS_10XMLScannerEPNS_13MemoryManagerE(%"class.xercesc_2_7::IdentityConstraintHandler"* %33, %"class.xercesc_2_7::XMLScanner"* %34, %"class.xercesc_2_7::MemoryManager"* %36)
          to label %invoke.cont26 unwind label %lpad25, !dbg !4615

invoke.cont26:                                    ; preds = %invoke.cont20
  %fICHandler = getelementptr inbounds %"class.xercesc_2_7::IGXMLScanner", %"class.xercesc_2_7::IGXMLScanner"* %this1, i32 0, i32 12, !dbg !4616
  store %"class.xercesc_2_7::IdentityConstraintHandler"* %33, %"class.xercesc_2_7::IdentityConstraintHandler"** %fICHandler, align 8, !dbg !4617
  %37 = bitcast %"class.xercesc_2_7::IGXMLScanner"* %this1 to %"class.xercesc_2_7::XMLScanner"*, !dbg !4618
  %fMemoryManager27 = getelementptr inbounds %"class.xercesc_2_7::XMLScanner", %"class.xercesc_2_7::XMLScanner"* %37, i32 0, i32 62, !dbg !4618
  %38 = load %"class.xercesc_2_7::MemoryManager"*, %"class.xercesc_2_7::MemoryManager"** %fMemoryManager27, align 8, !dbg !4618
  %call28 = call i8* @_ZN11xercesc_2_77XMemorynwEmPNS_13MemoryManagerE(i64 32, %"class.xercesc_2_7::MemoryManager"* %38), !dbg !4619
  %39 = bitcast i8* %call28 to %"class.xercesc_2_7::ValueVectorOf.56"*, !dbg !4619
  %40 = bitcast %"class.xercesc_2_7::IGXMLScanner"* %this1 to %"class.xercesc_2_7::XMLScanner"*, !dbg !4620
  %fMemoryManager29 = getelementptr inbounds %"class.xercesc_2_7::XMLScanner", %"class.xercesc_2_7::XMLScanner"* %40, i32 0, i32 62, !dbg !4620
  %41 = load %"class.xercesc_2_7::MemoryManager"*, %"class.xercesc_2_7::MemoryManager"** %fMemoryManager29, align 8, !dbg !4620
  invoke void @_ZN11xercesc_2_713ValueVectorOfIPtEC2EjPNS_13MemoryManagerEb(%"class.xercesc_2_7::ValueVectorOf.56"* %39, i32 8, %"class.xercesc_2_7::MemoryManager"* %41, i1 zeroext false)
          to label %invoke.cont31 unwind label %lpad30, !dbg !4621

invoke.cont31:                                    ; preds = %invoke.cont26
  %fLocationPairs = getelementptr inbounds %"class.xercesc_2_7::IGXMLScanner", %"class.xercesc_2_7::IGXMLScanner"* %this1, i32 0, i32 13, !dbg !4622
  store %"class.xercesc_2_7::ValueVectorOf.56"* %39, %"class.xercesc_2_7::ValueVectorOf.56"** %fLocationPairs, align 8, !dbg !4623
  %42 = bitcast %"class.xercesc_2_7::IGXMLScanner"* %this1 to %"class.xercesc_2_7::XMLScanner"*, !dbg !4624
  %fMemoryManager32 = getelementptr inbounds %"class.xercesc_2_7::XMLScanner", %"class.xercesc_2_7::XMLScanner"* %42, i32 0, i32 62, !dbg !4624
  %43 = load %"class.xercesc_2_7::MemoryManager"*, %"class.xercesc_2_7::MemoryManager"** %fMemoryManager32, align 8, !dbg !4624
  %call33 = call i8* @_ZN11xercesc_2_77XMemorynwEmPNS_13MemoryManagerE(i64 40, %"class.xercesc_2_7::MemoryManager"* %43), !dbg !4625
  %44 = bitcast i8* %call33 to %"class.xercesc_2_7::NameIdPool"*, !dbg !4625
  %45 = bitcast %"class.xercesc_2_7::IGXMLScanner"* %this1 to %"class.xercesc_2_7::XMLScanner"*, !dbg !4626
  %fMemoryManager34 = getelementptr inbounds %"class.xercesc_2_7::XMLScanner", %"class.xercesc_2_7::XMLScanner"* %45, i32 0, i32 62, !dbg !4626
  %46 = load %"class.xercesc_2_7::MemoryManager"*, %"class.xercesc_2_7::MemoryManager"** %fMemoryManager34, align 8, !dbg !4626
  invoke void @_ZN11xercesc_2_710NameIdPoolINS_14DTDElementDeclEEC2EjjPNS_13MemoryManagerE(%"class.xercesc_2_7::NameIdPool"* %44, i32 29, i32 128, %"class.xercesc_2_7::MemoryManager"* %46)
          to label %invoke.cont36 unwind label %lpad35, !dbg !4627

invoke.cont36:                                    ; preds = %invoke.cont31
  %fDTDElemNonDeclPool = getelementptr inbounds %"class.xercesc_2_7::IGXMLScanner", %"class.xercesc_2_7::IGXMLScanner"* %this1, i32 0, i32 14, !dbg !4628
  store %"class.xercesc_2_7::NameIdPool"* %44, %"class.xercesc_2_7::NameIdPool"** %fDTDElemNonDeclPool, align 8, !dbg !4629
  %47 = bitcast %"class.xercesc_2_7::IGXMLScanner"* %this1 to %"class.xercesc_2_7::XMLScanner"*, !dbg !4630
  %fMemoryManager37 = getelementptr inbounds %"class.xercesc_2_7::XMLScanner", %"class.xercesc_2_7::XMLScanner"* %47, i32 0, i32 62, !dbg !4630
  %48 = load %"class.xercesc_2_7::MemoryManager"*, %"class.xercesc_2_7::MemoryManager"** %fMemoryManager37, align 8, !dbg !4630
  %call38 = call i8* @_ZN11xercesc_2_77XMemorynwEmPNS_13MemoryManagerE(i64 56, %"class.xercesc_2_7::MemoryManager"* %48), !dbg !4631
  %49 = bitcast i8* %call38 to %"class.xercesc_2_7::RefHash3KeysIdPool"*, !dbg !4631
  %50 = bitcast %"class.xercesc_2_7::IGXMLScanner"* %this1 to %"class.xercesc_2_7::XMLScanner"*, !dbg !4632
  %fMemoryManager39 = getelementptr inbounds %"class.xercesc_2_7::XMLScanner", %"class.xercesc_2_7::XMLScanner"* %50, i32 0, i32 62, !dbg !4632
  %51 = load %"class.xercesc_2_7::MemoryManager"*, %"class.xercesc_2_7::MemoryManager"** %fMemoryManager39, align 8, !dbg !4632
  invoke void @_ZN11xercesc_2_718RefHash3KeysIdPoolINS_17SchemaElementDeclEEC2EjbjPNS_13MemoryManagerE(%"class.xercesc_2_7::RefHash3KeysIdPool"* %49, i32 29, i1 zeroext true, i32 128, %"class.xercesc_2_7::MemoryManager"* %51)
          to label %invoke.cont41 unwind label %lpad40, !dbg !4633

invoke.cont41:                                    ; preds = %invoke.cont36
  %fSchemaElemNonDeclPool = getelementptr inbounds %"class.xercesc_2_7::IGXMLScanner", %"class.xercesc_2_7::IGXMLScanner"* %this1, i32 0, i32 15, !dbg !4634
  store %"class.xercesc_2_7::RefHash3KeysIdPool"* %49, %"class.xercesc_2_7::RefHash3KeysIdPool"** %fSchemaElemNonDeclPool, align 8, !dbg !4635
  %52 = bitcast %"class.xercesc_2_7::IGXMLScanner"* %this1 to %"class.xercesc_2_7::XMLScanner"*, !dbg !4636
  %fMemoryManager42 = getelementptr inbounds %"class.xercesc_2_7::XMLScanner", %"class.xercesc_2_7::XMLScanner"* %52, i32 0, i32 62, !dbg !4636
  %53 = load %"class.xercesc_2_7::MemoryManager"*, %"class.xercesc_2_7::MemoryManager"** %fMemoryManager42, align 8, !dbg !4636
  %call43 = call i8* @_ZN11xercesc_2_77XMemorynwEmPNS_13MemoryManagerE(i64 48, %"class.xercesc_2_7::MemoryManager"* %53), !dbg !4637
  %54 = bitcast i8* %call43 to %"class.xercesc_2_7::RefHashTableOf.57"*, !dbg !4637
  %55 = bitcast %"class.xercesc_2_7::IGXMLScanner"* %this1 to %"class.xercesc_2_7::XMLScanner"*, !dbg !4638
  %fMemoryManager44 = getelementptr inbounds %"class.xercesc_2_7::XMLScanner", %"class.xercesc_2_7::XMLScanner"* %55, i32 0, i32 62, !dbg !4638
  %56 = load %"class.xercesc_2_7::MemoryManager"*, %"class.xercesc_2_7::MemoryManager"** %fMemoryManager44, align 8, !dbg !4638
  %call47 = invoke i8* @_ZN11xercesc_2_77XMemorynwEmPNS_13MemoryManagerE(i64 8, %"class.xercesc_2_7::MemoryManager"* %56)
          to label %invoke.cont46 unwind label %lpad45, !dbg !4639

invoke.cont46:                                    ; preds = %invoke.cont41
  %57 = bitcast i8* %call47 to %"class.xercesc_2_7::HashPtr"*, !dbg !4639
  invoke void @_ZN11xercesc_2_77HashPtrC1Ev(%"class.xercesc_2_7::HashPtr"* %57)
          to label %invoke.cont49 unwind label %lpad48, !dbg !4640

invoke.cont49:                                    ; preds = %invoke.cont46
  %58 = bitcast %"class.xercesc_2_7::HashPtr"* %57 to %"class.xercesc_2_7::HashBase"*, !dbg !4639
  %59 = bitcast %"class.xercesc_2_7::IGXMLScanner"* %this1 to %"class.xercesc_2_7::XMLScanner"*, !dbg !4641
  %fMemoryManager50 = getelementptr inbounds %"class.xercesc_2_7::XMLScanner", %"class.xercesc_2_7::XMLScanner"* %59, i32 0, i32 62, !dbg !4641
  %60 = load %"class.xercesc_2_7::MemoryManager"*, %"class.xercesc_2_7::MemoryManager"** %fMemoryManager50, align 8, !dbg !4641
  invoke void @_ZN11xercesc_2_714RefHashTableOfIjEC2EjbPNS_8HashBaseEPNS_13MemoryManagerE(%"class.xercesc_2_7::RefHashTableOf.57"* %54, i32 131, i1 zeroext false, %"class.xercesc_2_7::HashBase"* %58, %"class.xercesc_2_7::MemoryManager"* %60)
          to label %invoke.cont51 unwind label %lpad45, !dbg !4642

invoke.cont51:                                    ; preds = %invoke.cont49
  %fAttDefRegistry = getelementptr inbounds %"class.xercesc_2_7::IGXMLScanner", %"class.xercesc_2_7::IGXMLScanner"* %this1, i32 0, i32 17, !dbg !4643
  store %"class.xercesc_2_7::RefHashTableOf.57"* %54, %"class.xercesc_2_7::RefHashTableOf.57"** %fAttDefRegistry, align 8, !dbg !4644
  %61 = bitcast %"class.xercesc_2_7::IGXMLScanner"* %this1 to %"class.xercesc_2_7::XMLScanner"*, !dbg !4645
  %fMemoryManager52 = getelementptr inbounds %"class.xercesc_2_7::XMLScanner", %"class.xercesc_2_7::XMLScanner"* %61, i32 0, i32 62, !dbg !4645
  %62 = load %"class.xercesc_2_7::MemoryManager"*, %"class.xercesc_2_7::MemoryManager"** %fMemoryManager52, align 8, !dbg !4645
  %call53 = call i8* @_ZN11xercesc_2_77XMemorynwEmPNS_13MemoryManagerE(i64 48, %"class.xercesc_2_7::MemoryManager"* %62), !dbg !4646
  %63 = bitcast i8* %call53 to %"class.xercesc_2_7::RefHashTableOf.57"*, !dbg !4646
  %64 = bitcast %"class.xercesc_2_7::IGXMLScanner"* %this1 to %"class.xercesc_2_7::XMLScanner"*, !dbg !4647
  %fMemoryManager54 = getelementptr inbounds %"class.xercesc_2_7::XMLScanner", %"class.xercesc_2_7::XMLScanner"* %64, i32 0, i32 62, !dbg !4647
  %65 = load %"class.xercesc_2_7::MemoryManager"*, %"class.xercesc_2_7::MemoryManager"** %fMemoryManager54, align 8, !dbg !4647
  %call57 = invoke i8* @_ZN11xercesc_2_77XMemorynwEmPNS_13MemoryManagerE(i64 8, %"class.xercesc_2_7::MemoryManager"* %65)
          to label %invoke.cont56 unwind label %lpad55, !dbg !4648

invoke.cont56:                                    ; preds = %invoke.cont51
  %66 = bitcast i8* %call57 to %"class.xercesc_2_7::HashXMLCh"*, !dbg !4648
  invoke void @_ZN11xercesc_2_79HashXMLChC1Ev(%"class.xercesc_2_7::HashXMLCh"* %66)
          to label %invoke.cont59 unwind label %lpad58, !dbg !4649

invoke.cont59:                                    ; preds = %invoke.cont56
  %67 = bitcast %"class.xercesc_2_7::HashXMLCh"* %66 to %"class.xercesc_2_7::HashBase"*, !dbg !4648
  %68 = bitcast %"class.xercesc_2_7::IGXMLScanner"* %this1 to %"class.xercesc_2_7::XMLScanner"*, !dbg !4650
  %fMemoryManager61 = getelementptr inbounds %"class.xercesc_2_7::XMLScanner", %"class.xercesc_2_7::XMLScanner"* %68, i32 0, i32 62, !dbg !4650
  %69 = load %"class.xercesc_2_7::MemoryManager"*, %"class.xercesc_2_7::MemoryManager"** %fMemoryManager61, align 8, !dbg !4650
  invoke void @_ZN11xercesc_2_714RefHashTableOfIjEC2EjbPNS_8HashBaseEPNS_13MemoryManagerE(%"class.xercesc_2_7::RefHashTableOf.57"* %63, i32 7, i1 zeroext false, %"class.xercesc_2_7::HashBase"* %67, %"class.xercesc_2_7::MemoryManager"* %69)
          to label %invoke.cont62 unwind label %lpad55, !dbg !4651

invoke.cont62:                                    ; preds = %invoke.cont59
  %fUndeclaredAttrRegistry = getelementptr inbounds %"class.xercesc_2_7::IGXMLScanner", %"class.xercesc_2_7::IGXMLScanner"* %this1, i32 0, i32 18, !dbg !4652
  store %"class.xercesc_2_7::RefHashTableOf.57"* %63, %"class.xercesc_2_7::RefHashTableOf.57"** %fUndeclaredAttrRegistry, align 8, !dbg !4653
  %70 = bitcast %"class.xercesc_2_7::IGXMLScanner"* %this1 to %"class.xercesc_2_7::XMLScanner"*, !dbg !4654
  %fMemoryManager64 = getelementptr inbounds %"class.xercesc_2_7::XMLScanner", %"class.xercesc_2_7::XMLScanner"* %70, i32 0, i32 62, !dbg !4654
  %71 = load %"class.xercesc_2_7::MemoryManager"*, %"class.xercesc_2_7::MemoryManager"** %fMemoryManager64, align 8, !dbg !4654
  %call65 = call i8* @_ZN11xercesc_2_77XMemorynwEmPNS_13MemoryManagerE(i64 40, %"class.xercesc_2_7::MemoryManager"* %71), !dbg !4655
  %72 = bitcast i8* %call65 to %"class.xercesc_2_7::RefHash2KeysTableOf.59"*, !dbg !4655
  %73 = bitcast %"class.xercesc_2_7::IGXMLScanner"* %this1 to %"class.xercesc_2_7::XMLScanner"*, !dbg !4656
  %fMemoryManager66 = getelementptr inbounds %"class.xercesc_2_7::XMLScanner", %"class.xercesc_2_7::XMLScanner"* %73, i32 0, i32 62, !dbg !4656
  %74 = load %"class.xercesc_2_7::MemoryManager"*, %"class.xercesc_2_7::MemoryManager"** %fMemoryManager66, align 8, !dbg !4656
  %call69 = invoke i8* @_ZN11xercesc_2_77XMemorynwEmPNS_13MemoryManagerE(i64 8, %"class.xercesc_2_7::MemoryManager"* %74)
          to label %invoke.cont68 unwind label %lpad67, !dbg !4657

invoke.cont68:                                    ; preds = %invoke.cont62
  %75 = bitcast i8* %call69 to %"class.xercesc_2_7::HashXMLCh"*, !dbg !4657
  invoke void @_ZN11xercesc_2_79HashXMLChC1Ev(%"class.xercesc_2_7::HashXMLCh"* %75)
          to label %invoke.cont71 unwind label %lpad70, !dbg !4658

invoke.cont71:                                    ; preds = %invoke.cont68
  %76 = bitcast %"class.xercesc_2_7::HashXMLCh"* %75 to %"class.xercesc_2_7::HashBase"*, !dbg !4657
  %77 = bitcast %"class.xercesc_2_7::IGXMLScanner"* %this1 to %"class.xercesc_2_7::XMLScanner"*, !dbg !4659
  %fMemoryManager73 = getelementptr inbounds %"class.xercesc_2_7::XMLScanner", %"class.xercesc_2_7::XMLScanner"* %77, i32 0, i32 62, !dbg !4659
  %78 = load %"class.xercesc_2_7::MemoryManager"*, %"class.xercesc_2_7::MemoryManager"** %fMemoryManager73, align 8, !dbg !4659
  invoke void @_ZN11xercesc_2_719RefHash2KeysTableOfIjEC2EjbPNS_8HashBaseEPNS_13MemoryManagerE(%"class.xercesc_2_7::RefHash2KeysTableOf.59"* %72, i32 7, i1 zeroext false, %"class.xercesc_2_7::HashBase"* %76, %"class.xercesc_2_7::MemoryManager"* %78)
          to label %invoke.cont74 unwind label %lpad67, !dbg !4660

invoke.cont74:                                    ; preds = %invoke.cont71
  %fUndeclaredAttrRegistryNS = getelementptr inbounds %"class.xercesc_2_7::IGXMLScanner", %"class.xercesc_2_7::IGXMLScanner"* %this1, i32 0, i32 19, !dbg !4661
  store %"class.xercesc_2_7::RefHash2KeysTableOf.59"* %72, %"class.xercesc_2_7::RefHash2KeysTableOf.59"** %fUndeclaredAttrRegistryNS, align 8, !dbg !4662
  %79 = bitcast %"class.xercesc_2_7::IGXMLScanner"* %this1 to %"class.xercesc_2_7::XMLScanner"*, !dbg !4663
  %fMemoryManager76 = getelementptr inbounds %"class.xercesc_2_7::XMLScanner", %"class.xercesc_2_7::XMLScanner"* %79, i32 0, i32 62, !dbg !4663
  %80 = load %"class.xercesc_2_7::MemoryManager"*, %"class.xercesc_2_7::MemoryManager"** %fMemoryManager76, align 8, !dbg !4663
  %call77 = call i8* @_ZN11xercesc_2_77XMemorynwEmPNS_13MemoryManagerE(i64 40, %"class.xercesc_2_7::MemoryManager"* %80), !dbg !4664
  %81 = bitcast i8* %call77 to %"class.xercesc_2_7::PSVIAttributeList"*, !dbg !4664
  %82 = bitcast %"class.xercesc_2_7::IGXMLScanner"* %this1 to %"class.xercesc_2_7::XMLScanner"*, !dbg !4665
  %fMemoryManager78 = getelementptr inbounds %"class.xercesc_2_7::XMLScanner", %"class.xercesc_2_7::XMLScanner"* %82, i32 0, i32 62, !dbg !4665
  %83 = load %"class.xercesc_2_7::MemoryManager"*, %"class.xercesc_2_7::MemoryManager"** %fMemoryManager78, align 8, !dbg !4665
  invoke void @_ZN11xercesc_2_717PSVIAttributeListC1EPNS_13MemoryManagerE(%"class.xercesc_2_7::PSVIAttributeList"* %81, %"class.xercesc_2_7::MemoryManager"* %83)
          to label %invoke.cont80 unwind label %lpad79, !dbg !4666

invoke.cont80:                                    ; preds = %invoke.cont74
  %fPSVIAttrList = getelementptr inbounds %"class.xercesc_2_7::IGXMLScanner", %"class.xercesc_2_7::IGXMLScanner"* %this1, i32 0, i32 20, !dbg !4667
  store %"class.xercesc_2_7::PSVIAttributeList"* %81, %"class.xercesc_2_7::PSVIAttributeList"** %fPSVIAttrList, align 8, !dbg !4668
  %84 = bitcast %"class.xercesc_2_7::IGXMLScanner"* %this1 to %"class.xercesc_2_7::XMLScanner"*, !dbg !4669
  %fValidator = getelementptr inbounds %"class.xercesc_2_7::XMLScanner", %"class.xercesc_2_7::XMLScanner"* %84, i32 0, i32 50, !dbg !4669
  %85 = load %"class.xercesc_2_7::XMLValidator"*, %"class.xercesc_2_7::XMLValidator"** %fValidator, align 8, !dbg !4669
  %tobool = icmp ne %"class.xercesc_2_7::XMLValidator"* %85, null, !dbg !4669
  br i1 %tobool, label %if.end, label %if.then, !dbg !4671

if.then:                                          ; preds = %invoke.cont80
  %fDTDValidator82 = getelementptr inbounds %"class.xercesc_2_7::IGXMLScanner", %"class.xercesc_2_7::IGXMLScanner"* %this1, i32 0, i32 9, !dbg !4672
  %86 = load %"class.xercesc_2_7::DTDValidator"*, %"class.xercesc_2_7::DTDValidator"** %fDTDValidator82, align 8, !dbg !4672
  %87 = bitcast %"class.xercesc_2_7::DTDValidator"* %86 to %"class.xercesc_2_7::XMLValidator"*, !dbg !4672
  %88 = bitcast %"class.xercesc_2_7::IGXMLScanner"* %this1 to %"class.xercesc_2_7::XMLScanner"*, !dbg !4673
  %fValidator83 = getelementptr inbounds %"class.xercesc_2_7::XMLScanner", %"class.xercesc_2_7::XMLScanner"* %88, i32 0, i32 50, !dbg !4673
  store %"class.xercesc_2_7::XMLValidator"* %87, %"class.xercesc_2_7::XMLValidator"** %fValidator83, align 8, !dbg !4674
  br label %if.end, !dbg !4673

lpad:                                             ; preds = %entry
  %89 = landingpad { i8*, i32 }
          cleanup, !dbg !4675
  %90 = extractvalue { i8*, i32 } %89, 0, !dbg !4675
  store i8* %90, i8** %exn.slot, align 8, !dbg !4675
  %91 = extractvalue { i8*, i32 } %89, 1, !dbg !4675
  store i32 %91, i32* %ehselector.slot, align 4, !dbg !4675
  call void @_ZN11xercesc_2_77XMemorydlEPvPNS_13MemoryManagerE(i8* %call3, %"class.xercesc_2_7::MemoryManager"* %7) #10, !dbg !4584
  br label %eh.resume, !dbg !4584

lpad13:                                           ; preds = %invoke.cont
  %92 = landingpad { i8*, i32 }
          cleanup, !dbg !4675
  %93 = extractvalue { i8*, i32 } %92, 0, !dbg !4675
  store i8* %93, i8** %exn.slot, align 8, !dbg !4675
  %94 = extractvalue { i8*, i32 } %92, 1, !dbg !4675
  store i32 %94, i32* %ehselector.slot, align 4, !dbg !4675
  call void @_ZN11xercesc_2_77XMemorydlEPvPNS_13MemoryManagerE(i8* %call12, %"class.xercesc_2_7::MemoryManager"* %18) #10, !dbg !4597
  br label %eh.resume, !dbg !4597

lpad19:                                           ; preds = %invoke.cont14
  %95 = landingpad { i8*, i32 }
          cleanup, !dbg !4675
  %96 = extractvalue { i8*, i32 } %95, 0, !dbg !4675
  store i8* %96, i8** %exn.slot, align 8, !dbg !4675
  %97 = extractvalue { i8*, i32 } %95, 1, !dbg !4675
  store i32 %97, i32* %ehselector.slot, align 4, !dbg !4675
  call void @_ZN11xercesc_2_77XMemorydlEPvPNS_13MemoryManagerE(i8* %call17, %"class.xercesc_2_7::MemoryManager"* %24) #10, !dbg !4604
  br label %eh.resume, !dbg !4604

lpad25:                                           ; preds = %invoke.cont20
  %98 = landingpad { i8*, i32 }
          cleanup, !dbg !4675
  %99 = extractvalue { i8*, i32 } %98, 0, !dbg !4675
  store i8* %99, i8** %exn.slot, align 8, !dbg !4675
  %100 = extractvalue { i8*, i32 } %98, 1, !dbg !4675
  store i32 %100, i32* %ehselector.slot, align 4, !dbg !4675
  call void @_ZN11xercesc_2_77XMemorydlEPvPNS_13MemoryManagerE(i8* %call23, %"class.xercesc_2_7::MemoryManager"* %32) #10, !dbg !4612
  br label %eh.resume, !dbg !4612

lpad30:                                           ; preds = %invoke.cont26
  %101 = landingpad { i8*, i32 }
          cleanup, !dbg !4675
  %102 = extractvalue { i8*, i32 } %101, 0, !dbg !4675
  store i8* %102, i8** %exn.slot, align 8, !dbg !4675
  %103 = extractvalue { i8*, i32 } %101, 1, !dbg !4675
  store i32 %103, i32* %ehselector.slot, align 4, !dbg !4675
  call void @_ZN11xercesc_2_77XMemorydlEPvPNS_13MemoryManagerE(i8* %call28, %"class.xercesc_2_7::MemoryManager"* %38) #10, !dbg !4619
  br label %eh.resume, !dbg !4619

lpad35:                                           ; preds = %invoke.cont31
  %104 = landingpad { i8*, i32 }
          cleanup, !dbg !4675
  %105 = extractvalue { i8*, i32 } %104, 0, !dbg !4675
  store i8* %105, i8** %exn.slot, align 8, !dbg !4675
  %106 = extractvalue { i8*, i32 } %104, 1, !dbg !4675
  store i32 %106, i32* %ehselector.slot, align 4, !dbg !4675
  call void @_ZN11xercesc_2_77XMemorydlEPvPNS_13MemoryManagerE(i8* %call33, %"class.xercesc_2_7::MemoryManager"* %43) #10, !dbg !4625
  br label %eh.resume, !dbg !4625

lpad40:                                           ; preds = %invoke.cont36
  %107 = landingpad { i8*, i32 }
          cleanup, !dbg !4675
  %108 = extractvalue { i8*, i32 } %107, 0, !dbg !4675
  store i8* %108, i8** %exn.slot, align 8, !dbg !4675
  %109 = extractvalue { i8*, i32 } %107, 1, !dbg !4675
  store i32 %109, i32* %ehselector.slot, align 4, !dbg !4675
  call void @_ZN11xercesc_2_77XMemorydlEPvPNS_13MemoryManagerE(i8* %call38, %"class.xercesc_2_7::MemoryManager"* %48) #10, !dbg !4631
  br label %eh.resume, !dbg !4631

lpad45:                                           ; preds = %invoke.cont49, %invoke.cont41
  %110 = landingpad { i8*, i32 }
          cleanup, !dbg !4675
  %111 = extractvalue { i8*, i32 } %110, 0, !dbg !4675
  store i8* %111, i8** %exn.slot, align 8, !dbg !4675
  %112 = extractvalue { i8*, i32 } %110, 1, !dbg !4675
  store i32 %112, i32* %ehselector.slot, align 4, !dbg !4675
  br label %ehcleanup, !dbg !4675

lpad48:                                           ; preds = %invoke.cont46
  %113 = landingpad { i8*, i32 }
          cleanup, !dbg !4675
  %114 = extractvalue { i8*, i32 } %113, 0, !dbg !4675
  store i8* %114, i8** %exn.slot, align 8, !dbg !4675
  %115 = extractvalue { i8*, i32 } %113, 1, !dbg !4675
  store i32 %115, i32* %ehselector.slot, align 4, !dbg !4675
  call void @_ZN11xercesc_2_77XMemorydlEPvPNS_13MemoryManagerE(i8* %call47, %"class.xercesc_2_7::MemoryManager"* %56) #10, !dbg !4639
  br label %ehcleanup, !dbg !4639

ehcleanup:                                        ; preds = %lpad48, %lpad45
  call void @_ZN11xercesc_2_77XMemorydlEPvPNS_13MemoryManagerE(i8* %call43, %"class.xercesc_2_7::MemoryManager"* %53) #10, !dbg !4637
  br label %eh.resume, !dbg !4637

lpad55:                                           ; preds = %invoke.cont59, %invoke.cont51
  %116 = landingpad { i8*, i32 }
          cleanup, !dbg !4675
  %117 = extractvalue { i8*, i32 } %116, 0, !dbg !4675
  store i8* %117, i8** %exn.slot, align 8, !dbg !4675
  %118 = extractvalue { i8*, i32 } %116, 1, !dbg !4675
  store i32 %118, i32* %ehselector.slot, align 4, !dbg !4675
  br label %ehcleanup63, !dbg !4675

lpad58:                                           ; preds = %invoke.cont56
  %119 = landingpad { i8*, i32 }
          cleanup, !dbg !4675
  %120 = extractvalue { i8*, i32 } %119, 0, !dbg !4675
  store i8* %120, i8** %exn.slot, align 8, !dbg !4675
  %121 = extractvalue { i8*, i32 } %119, 1, !dbg !4675
  store i32 %121, i32* %ehselector.slot, align 4, !dbg !4675
  call void @_ZN11xercesc_2_77XMemorydlEPvPNS_13MemoryManagerE(i8* %call57, %"class.xercesc_2_7::MemoryManager"* %65) #10, !dbg !4648
  br label %ehcleanup63, !dbg !4648

ehcleanup63:                                      ; preds = %lpad58, %lpad55
  call void @_ZN11xercesc_2_77XMemorydlEPvPNS_13MemoryManagerE(i8* %call53, %"class.xercesc_2_7::MemoryManager"* %62) #10, !dbg !4646
  br label %eh.resume, !dbg !4646

lpad67:                                           ; preds = %invoke.cont71, %invoke.cont62
  %122 = landingpad { i8*, i32 }
          cleanup, !dbg !4675
  %123 = extractvalue { i8*, i32 } %122, 0, !dbg !4675
  store i8* %123, i8** %exn.slot, align 8, !dbg !4675
  %124 = extractvalue { i8*, i32 } %122, 1, !dbg !4675
  store i32 %124, i32* %ehselector.slot, align 4, !dbg !4675
  br label %ehcleanup75, !dbg !4675

lpad70:                                           ; preds = %invoke.cont68
  %125 = landingpad { i8*, i32 }
          cleanup, !dbg !4675
  %126 = extractvalue { i8*, i32 } %125, 0, !dbg !4675
  store i8* %126, i8** %exn.slot, align 8, !dbg !4675
  %127 = extractvalue { i8*, i32 } %125, 1, !dbg !4675
  store i32 %127, i32* %ehselector.slot, align 4, !dbg !4675
  call void @_ZN11xercesc_2_77XMemorydlEPvPNS_13MemoryManagerE(i8* %call69, %"class.xercesc_2_7::MemoryManager"* %74) #10, !dbg !4657
  br label %ehcleanup75, !dbg !4657

ehcleanup75:                                      ; preds = %lpad70, %lpad67
  call void @_ZN11xercesc_2_77XMemorydlEPvPNS_13MemoryManagerE(i8* %call65, %"class.xercesc_2_7::MemoryManager"* %71) #10, !dbg !4655
  br label %eh.resume, !dbg !4655

lpad79:                                           ; preds = %invoke.cont74
  %128 = landingpad { i8*, i32 }
          cleanup, !dbg !4675
  %129 = extractvalue { i8*, i32 } %128, 0, !dbg !4675
  store i8* %129, i8** %exn.slot, align 8, !dbg !4675
  %130 = extractvalue { i8*, i32 } %128, 1, !dbg !4675
  store i32 %130, i32* %ehselector.slot, align 4, !dbg !4675
  call void @_ZN11xercesc_2_77XMemorydlEPvPNS_13MemoryManagerE(i8* %call77, %"class.xercesc_2_7::MemoryManager"* %80) #10, !dbg !4664
  br label %eh.resume, !dbg !4664

if.end:                                           ; preds = %if.then, %invoke.cont80
  ret void, !dbg !4675

eh.resume:                                        ; preds = %lpad79, %ehcleanup75, %ehcleanup63, %ehcleanup, %lpad40, %lpad35, %lpad30, %lpad25, %lpad19, %lpad13, %lpad
  %exn = load i8*, i8** %exn.slot, align 8, !dbg !4584
  %sel = load i32, i32* %ehselector.slot, align 4, !dbg !4584
  %lpad.val = insertvalue { i8*, i32 } undef, i8* %exn, 0, !dbg !4584
  %lpad.val84 = insertvalue { i8*, i32 } %lpad.val, i32 %sel, 1, !dbg !4584
  resume { i8*, i32 } %lpad.val84, !dbg !4584
}

; Function Attrs: nounwind readnone
declare i32 @llvm.eh.typeid.for(i8*) #8

; Function Attrs: noinline nounwind uwtable
define linkonce_odr dso_local void @_ZN11xercesc_2_717JanitorMemFunCallINS_12IGXMLScannerEE7releaseEv(%"class.xercesc_2_7::JanitorMemFunCall"* %this) #1 comdat align 2 !dbg !4676 {
entry:
  %this.addr = alloca %"class.xercesc_2_7::JanitorMemFunCall"*, align 8
  store %"class.xercesc_2_7::JanitorMemFunCall"* %this, %"class.xercesc_2_7::JanitorMemFunCall"** %this.addr, align 8
  call void @llvm.dbg.declare(metadata %"class.xercesc_2_7::JanitorMemFunCall"** %this.addr, metadata !4677, metadata !DIExpression()), !dbg !4678
  %this1 = load %"class.xercesc_2_7::JanitorMemFunCall"*, %"class.xercesc_2_7::JanitorMemFunCall"** %this.addr, align 8
  %fObject = getelementptr inbounds %"class.xercesc_2_7::JanitorMemFunCall", %"class.xercesc_2_7::JanitorMemFunCall"* %this1, i32 0, i32 0, !dbg !4679
  store %"class.xercesc_2_7::IGXMLScanner"* null, %"class.xercesc_2_7::IGXMLScanner"** %fObject, align 8, !dbg !4680
  %fToCall = getelementptr inbounds %"class.xercesc_2_7::JanitorMemFunCall", %"class.xercesc_2_7::JanitorMemFunCall"* %this1, i32 0, i32 1, !dbg !4681
  store { i64, i64 } zeroinitializer, { i64, i64 }* %fToCall, align 8, !dbg !4682
  ret void, !dbg !4683
}

declare dso_local void @__cxa_rethrow()

declare dso_local void @__cxa_end_catch()

; Function Attrs: noinline nounwind uwtable
define linkonce_odr dso_local void @_ZN11xercesc_2_717JanitorMemFunCallINS_12IGXMLScannerEED2Ev(%"class.xercesc_2_7::JanitorMemFunCall"* %this) unnamed_addr #1 comdat align 2 personality i8* bitcast (i32 (...)* @__gxx_personality_v0 to i8*) !dbg !4684 {
entry:
  %this.addr = alloca %"class.xercesc_2_7::JanitorMemFunCall"*, align 8
  store %"class.xercesc_2_7::JanitorMemFunCall"* %this, %"class.xercesc_2_7::JanitorMemFunCall"** %this.addr, align 8
  call void @llvm.dbg.declare(metadata %"class.xercesc_2_7::JanitorMemFunCall"** %this.addr, metadata !4685, metadata !DIExpression()), !dbg !4686
  %this1 = load %"class.xercesc_2_7::JanitorMemFunCall"*, %"class.xercesc_2_7::JanitorMemFunCall"** %this.addr, align 8
  %fObject = getelementptr inbounds %"class.xercesc_2_7::JanitorMemFunCall", %"class.xercesc_2_7::JanitorMemFunCall"* %this1, i32 0, i32 0, !dbg !4687
  %0 = load %"class.xercesc_2_7::IGXMLScanner"*, %"class.xercesc_2_7::IGXMLScanner"** %fObject, align 8, !dbg !4687
  %cmp = icmp ne %"class.xercesc_2_7::IGXMLScanner"* %0, null, !dbg !4690
  br i1 %cmp, label %land.lhs.true, label %if.end, !dbg !4691

land.lhs.true:                                    ; preds = %entry
  %fToCall = getelementptr inbounds %"class.xercesc_2_7::JanitorMemFunCall", %"class.xercesc_2_7::JanitorMemFunCall"* %this1, i32 0, i32 1, !dbg !4692
  %1 = load { i64, i64 }, { i64, i64 }* %fToCall, align 8, !dbg !4692
  %lhs.memptr.ptr = extractvalue { i64, i64 } %1, 0, !dbg !4693
  %cmp.ptr = icmp ne i64 %lhs.memptr.ptr, 0, !dbg !4693
  %cmp.ptr.null = icmp ne i64 %lhs.memptr.ptr, 0, !dbg !4693
  %lhs.memptr.adj = extractvalue { i64, i64 } %1, 1, !dbg !4693
  %cmp.adj = icmp ne i64 %lhs.memptr.adj, 0, !dbg !4693
  %2 = and i1 %cmp.ptr.null, %cmp.adj, !dbg !4693
  %memptr.ne = or i1 %cmp.ptr, %2, !dbg !4693
  br i1 %memptr.ne, label %if.then, label %if.end, !dbg !4694

if.then:                                          ; preds = %land.lhs.true
  %fObject2 = getelementptr inbounds %"class.xercesc_2_7::JanitorMemFunCall", %"class.xercesc_2_7::JanitorMemFunCall"* %this1, i32 0, i32 0, !dbg !4695
  %3 = load %"class.xercesc_2_7::IGXMLScanner"*, %"class.xercesc_2_7::IGXMLScanner"** %fObject2, align 8, !dbg !4695
  %fToCall3 = getelementptr inbounds %"class.xercesc_2_7::JanitorMemFunCall", %"class.xercesc_2_7::JanitorMemFunCall"* %this1, i32 0, i32 1, !dbg !4697
  %4 = load { i64, i64 }, { i64, i64 }* %fToCall3, align 8, !dbg !4697
  %memptr.adj = extractvalue { i64, i64 } %4, 1, !dbg !4698
  %5 = bitcast %"class.xercesc_2_7::IGXMLScanner"* %3 to i8*, !dbg !4698
  %6 = getelementptr inbounds i8, i8* %5, i64 %memptr.adj, !dbg !4698
  %this.adjusted = bitcast i8* %6 to %"class.xercesc_2_7::IGXMLScanner"*, !dbg !4698
  %memptr.ptr = extractvalue { i64, i64 } %4, 0, !dbg !4698
  %7 = and i64 %memptr.ptr, 1, !dbg !4698
  %memptr.isvirtual = icmp ne i64 %7, 0, !dbg !4698
  br i1 %memptr.isvirtual, label %memptr.virtual, label %memptr.nonvirtual, !dbg !4698

memptr.virtual:                                   ; preds = %if.then
  %8 = bitcast %"class.xercesc_2_7::IGXMLScanner"* %this.adjusted to i8**, !dbg !4698
  %vtable = load i8*, i8** %8, align 8, !dbg !4698
  %9 = sub i64 %memptr.ptr, 1, !dbg !4698
  %10 = getelementptr i8, i8* %vtable, i64 %9, !dbg !4698, !nosanitize !3718
  %11 = bitcast i8* %10 to void (%"class.xercesc_2_7::IGXMLScanner"*)**, !dbg !4698, !nosanitize !3718
  %memptr.virtualfn = load void (%"class.xercesc_2_7::IGXMLScanner"*)*, void (%"class.xercesc_2_7::IGXMLScanner"*)** %11, align 8, !dbg !4698, !nosanitize !3718
  br label %memptr.end, !dbg !4698

memptr.nonvirtual:                                ; preds = %if.then
  %memptr.nonvirtualfn = inttoptr i64 %memptr.ptr to void (%"class.xercesc_2_7::IGXMLScanner"*)*, !dbg !4698
  br label %memptr.end, !dbg !4698

memptr.end:                                       ; preds = %memptr.nonvirtual, %memptr.virtual
  %12 = phi void (%"class.xercesc_2_7::IGXMLScanner"*)* [ %memptr.virtualfn, %memptr.virtual ], [ %memptr.nonvirtualfn, %memptr.nonvirtual ], !dbg !4698
  invoke void %12(%"class.xercesc_2_7::IGXMLScanner"* %this.adjusted)
          to label %invoke.cont unwind label %terminate.lpad, !dbg !4698

invoke.cont:                                      ; preds = %memptr.end
  br label %if.end, !dbg !4699

if.end:                                           ; preds = %invoke.cont, %land.lhs.true, %entry
  ret void, !dbg !4700

terminate.lpad:                                   ; preds = %memptr.end
  %13 = landingpad { i8*, i32 }
          catch i8* null, !dbg !4698
  %14 = extractvalue { i8*, i32 } %13, 0, !dbg !4698
  call void @__clang_call_terminate(i8* %14) #12, !dbg !4698
  unreachable, !dbg !4698
}

; Function Attrs: noinline nounwind uwtable
define linkonce_odr dso_local void @_ZN11xercesc_2_79XMLBufferD2Ev(%"class.xercesc_2_7::XMLBuffer"* %this) unnamed_addr #1 comdat align 2 personality i8* bitcast (i32 (...)* @__gxx_personality_v0 to i8*) !dbg !4701 {
entry:
  %this.addr = alloca %"class.xercesc_2_7::XMLBuffer"*, align 8
  store %"class.xercesc_2_7::XMLBuffer"* %this, %"class.xercesc_2_7::XMLBuffer"** %this.addr, align 8
  call void @llvm.dbg.declare(metadata %"class.xercesc_2_7::XMLBuffer"** %this.addr, metadata !4702, metadata !DIExpression()), !dbg !4703
  %this1 = load %"class.xercesc_2_7::XMLBuffer"*, %"class.xercesc_2_7::XMLBuffer"** %this.addr, align 8
  %fMemoryManager = getelementptr inbounds %"class.xercesc_2_7::XMLBuffer", %"class.xercesc_2_7::XMLBuffer"* %this1, i32 0, i32 4, !dbg !4704
  %0 = load %"class.xercesc_2_7::MemoryManager"*, %"class.xercesc_2_7::MemoryManager"** %fMemoryManager, align 8, !dbg !4704
  %fBuffer = getelementptr inbounds %"class.xercesc_2_7::XMLBuffer", %"class.xercesc_2_7::XMLBuffer"* %this1, i32 0, i32 6, !dbg !4706
  %1 = load i16*, i16** %fBuffer, align 8, !dbg !4706
  %2 = bitcast i16* %1 to i8*, !dbg !4706
  %3 = bitcast %"class.xercesc_2_7::MemoryManager"* %0 to void (%"class.xercesc_2_7::MemoryManager"*, i8*)***, !dbg !4707
  %vtable = load void (%"class.xercesc_2_7::MemoryManager"*, i8*)**, void (%"class.xercesc_2_7::MemoryManager"*, i8*)*** %3, align 8, !dbg !4707
  %vfn = getelementptr inbounds void (%"class.xercesc_2_7::MemoryManager"*, i8*)*, void (%"class.xercesc_2_7::MemoryManager"*, i8*)** %vtable, i64 3, !dbg !4707
  %4 = load void (%"class.xercesc_2_7::MemoryManager"*, i8*)*, void (%"class.xercesc_2_7::MemoryManager"*, i8*)** %vfn, align 8, !dbg !4707
  invoke void %4(%"class.xercesc_2_7::MemoryManager"* %0, i8* %2)
          to label %invoke.cont unwind label %terminate.lpad, !dbg !4707

invoke.cont:                                      ; preds = %entry
  ret void, !dbg !4708

terminate.lpad:                                   ; preds = %entry
  %5 = landingpad { i8*, i32 }
          catch i8* null, !dbg !4707
  %6 = extractvalue { i8*, i32 } %5, 0, !dbg !4707
  call void @__clang_call_terminate(i8* %6) #12, !dbg !4707
  unreachable, !dbg !4707
}

; Function Attrs: nounwind
declare dso_local void @_ZN11xercesc_2_710XMLScannerD2Ev(%"class.xercesc_2_7::XMLScanner"*) unnamed_addr #4

; Function Attrs: noinline uwtable
define dso_local void @_ZN11xercesc_2_712IGXMLScannerC2EPNS_18XMLDocumentHandlerEPNS_14DocTypeHandlerEPNS_16XMLEntityHandlerEPNS_16XMLErrorReporterEPNS_12XMLValidatorEPNS_15GrammarResolverEPNS_13MemoryManagerE(%"class.xercesc_2_7::IGXMLScanner"* %this, %"class.xercesc_2_7::XMLDocumentHandler"* %docHandler, %"class.xercesc_2_7::DocTypeHandler"* %docTypeHandler, %"class.xercesc_2_7::XMLEntityHandler"* %entityHandler, %"class.xercesc_2_7::XMLErrorReporter"* %errHandler, %"class.xercesc_2_7::XMLValidator"* %valToAdopt, %"class.xercesc_2_7::GrammarResolver"* %grammarResolver, %"class.xercesc_2_7::MemoryManager"* %manager) unnamed_addr #6 align 2 personality i8* bitcast (i32 (...)* @__gxx_personality_v0 to i8*) !dbg !4709 {
entry:
  %this.addr = alloca %"class.xercesc_2_7::IGXMLScanner"*, align 8
  %docHandler.addr = alloca %"class.xercesc_2_7::XMLDocumentHandler"*, align 8
  %docTypeHandler.addr = alloca %"class.xercesc_2_7::DocTypeHandler"*, align 8
  %entityHandler.addr = alloca %"class.xercesc_2_7::XMLEntityHandler"*, align 8
  %errHandler.addr = alloca %"class.xercesc_2_7::XMLErrorReporter"*, align 8
  %valToAdopt.addr = alloca %"class.xercesc_2_7::XMLValidator"*, align 8
  %grammarResolver.addr = alloca %"class.xercesc_2_7::GrammarResolver"*, align 8
  %manager.addr = alloca %"class.xercesc_2_7::MemoryManager"*, align 8
  %exn.slot = alloca i8*
  %ehselector.slot = alloca i32
  %cleanup = alloca %"class.xercesc_2_7::JanitorMemFunCall", align 8
  %coerce = alloca { i64, i64 }, align 8
  %0 = alloca %"class.xercesc_2_7::OutOfMemoryException"*, align 8
  store %"class.xercesc_2_7::IGXMLScanner"* %this, %"class.xercesc_2_7::IGXMLScanner"** %this.addr, align 8
  call void @llvm.dbg.declare(metadata %"class.xercesc_2_7::IGXMLScanner"** %this.addr, metadata !4710, metadata !DIExpression()), !dbg !4711
  store %"class.xercesc_2_7::XMLDocumentHandler"* %docHandler, %"class.xercesc_2_7::XMLDocumentHandler"** %docHandler.addr, align 8
  call void @llvm.dbg.declare(metadata %"class.xercesc_2_7::XMLDocumentHandler"** %docHandler.addr, metadata !4712, metadata !DIExpression()), !dbg !4713
  store %"class.xercesc_2_7::DocTypeHandler"* %docTypeHandler, %"class.xercesc_2_7::DocTypeHandler"** %docTypeHandler.addr, align 8
  call void @llvm.dbg.declare(metadata %"class.xercesc_2_7::DocTypeHandler"** %docTypeHandler.addr, metadata !4714, metadata !DIExpression()), !dbg !4715
  store %"class.xercesc_2_7::XMLEntityHandler"* %entityHandler, %"class.xercesc_2_7::XMLEntityHandler"** %entityHandler.addr, align 8
  call void @llvm.dbg.declare(metadata %"class.xercesc_2_7::XMLEntityHandler"** %entityHandler.addr, metadata !4716, metadata !DIExpression()), !dbg !4717
  store %"class.xercesc_2_7::XMLErrorReporter"* %errHandler, %"class.xercesc_2_7::XMLErrorReporter"** %errHandler.addr, align 8
  call void @llvm.dbg.declare(metadata %"class.xercesc_2_7::XMLErrorReporter"** %errHandler.addr, metadata !4718, metadata !DIExpression()), !dbg !4719
  store %"class.xercesc_2_7::XMLValidator"* %valToAdopt, %"class.xercesc_2_7::XMLValidator"** %valToAdopt.addr, align 8
  call void @llvm.dbg.declare(metadata %"class.xercesc_2_7::XMLValidator"** %valToAdopt.addr, metadata !4720, metadata !DIExpression()), !dbg !4721
  store %"class.xercesc_2_7::GrammarResolver"* %grammarResolver, %"class.xercesc_2_7::GrammarResolver"** %grammarResolver.addr, align 8
  call void @llvm.dbg.declare(metadata %"class.xercesc_2_7::GrammarResolver"** %grammarResolver.addr, metadata !4722, metadata !DIExpression()), !dbg !4723
  store %"class.xercesc_2_7::MemoryManager"* %manager, %"class.xercesc_2_7::MemoryManager"** %manager.addr, align 8
  call void @llvm.dbg.declare(metadata %"class.xercesc_2_7::MemoryManager"** %manager.addr, metadata !4724, metadata !DIExpression()), !dbg !4725
  %this1 = load %"class.xercesc_2_7::IGXMLScanner"*, %"class.xercesc_2_7::IGXMLScanner"** %this.addr, align 8
  %1 = bitcast %"class.xercesc_2_7::IGXMLScanner"* %this1 to %"class.xercesc_2_7::XMLScanner"*, !dbg !4726
  %2 = load %"class.xercesc_2_7::XMLDocumentHandler"*, %"class.xercesc_2_7::XMLDocumentHandler"** %docHandler.addr, align 8, !dbg !4727
  %3 = load %"class.xercesc_2_7::DocTypeHandler"*, %"class.xercesc_2_7::DocTypeHandler"** %docTypeHandler.addr, align 8, !dbg !4728
  %4 = load %"class.xercesc_2_7::XMLEntityHandler"*, %"class.xercesc_2_7::XMLEntityHandler"** %entityHandler.addr, align 8, !dbg !4729
  %5 = load %"class.xercesc_2_7::XMLErrorReporter"*, %"class.xercesc_2_7::XMLErrorReporter"** %errHandler.addr, align 8, !dbg !4730
  %6 = load %"class.xercesc_2_7::XMLValidator"*, %"class.xercesc_2_7::XMLValidator"** %valToAdopt.addr, align 8, !dbg !4731
  %7 = load %"class.xercesc_2_7::GrammarResolver"*, %"class.xercesc_2_7::GrammarResolver"** %grammarResolver.addr, align 8, !dbg !4732
  %8 = load %"class.xercesc_2_7::MemoryManager"*, %"class.xercesc_2_7::MemoryManager"** %manager.addr, align 8, !dbg !4733
  call void @_ZN11xercesc_2_710XMLScannerC2EPNS_18XMLDocumentHandlerEPNS_14DocTypeHandlerEPNS_16XMLEntityHandlerEPNS_16XMLErrorReporterEPNS_12XMLValidatorEPNS_15GrammarResolverEPNS_13MemoryManagerE(%"class.xercesc_2_7::XMLScanner"* %1, %"class.xercesc_2_7::XMLDocumentHandler"* %2, %"class.xercesc_2_7::DocTypeHandler"* %3, %"class.xercesc_2_7::XMLEntityHandler"* %4, %"class.xercesc_2_7::XMLErrorReporter"* %5, %"class.xercesc_2_7::XMLValidator"* %6, %"class.xercesc_2_7::GrammarResolver"* %7, %"class.xercesc_2_7::MemoryManager"* %8), !dbg !4734
  %9 = bitcast %"class.xercesc_2_7::IGXMLScanner"* %this1 to i32 (...)***, !dbg !4726
  store i32 (...)** bitcast (i8** getelementptr inbounds ({ [20 x i8*] }, { [20 x i8*] }* @_ZTVN11xercesc_2_712IGXMLScannerE, i32 0, inrange i32 0, i32 2) to i32 (...)**), i32 (...)*** %9, align 8, !dbg !4726
  %fSeeXsi = getelementptr inbounds %"class.xercesc_2_7::IGXMLScanner", %"class.xercesc_2_7::IGXMLScanner"* %this1, i32 0, i32 1, !dbg !4735
  store i8 0, i8* %fSeeXsi, align 8, !dbg !4735
  %fGrammarType = getelementptr inbounds %"class.xercesc_2_7::IGXMLScanner", %"class.xercesc_2_7::IGXMLScanner"* %this1, i32 0, i32 2, !dbg !4736
  store i32 2, i32* %fGrammarType, align 4, !dbg !4736
  %fElemStateSize = getelementptr inbounds %"class.xercesc_2_7::IGXMLScanner", %"class.xercesc_2_7::IGXMLScanner"* %this1, i32 0, i32 3, !dbg !4737
  store i32 16, i32* %fElemStateSize, align 8, !dbg !4737
  %fElemState = getelementptr inbounds %"class.xercesc_2_7::IGXMLScanner", %"class.xercesc_2_7::IGXMLScanner"* %this1, i32 0, i32 4, !dbg !4738
  store i32* null, i32** %fElemState, align 8, !dbg !4738
  %fContent = getelementptr inbounds %"class.xercesc_2_7::IGXMLScanner", %"class.xercesc_2_7::IGXMLScanner"* %this1, i32 0, i32 5, !dbg !4739
  %10 = load %"class.xercesc_2_7::MemoryManager"*, %"class.xercesc_2_7::MemoryManager"** %manager.addr, align 8, !dbg !4740
  invoke void @_ZN11xercesc_2_79XMLBufferC2EjPNS_13MemoryManagerE(%"class.xercesc_2_7::XMLBuffer"* %fContent, i32 1023, %"class.xercesc_2_7::MemoryManager"* %10)
          to label %invoke.cont unwind label %lpad, !dbg !4739

invoke.cont:                                      ; preds = %entry
  %fRawAttrList = getelementptr inbounds %"class.xercesc_2_7::IGXMLScanner", %"class.xercesc_2_7::IGXMLScanner"* %this1, i32 0, i32 6, !dbg !4741
  store %"class.xercesc_2_7::RefVectorOf.17"* null, %"class.xercesc_2_7::RefVectorOf.17"** %fRawAttrList, align 8, !dbg !4741
  %fRawAttrColonListSize = getelementptr inbounds %"class.xercesc_2_7::IGXMLScanner", %"class.xercesc_2_7::IGXMLScanner"* %this1, i32 0, i32 7, !dbg !4742
  store i32 32, i32* %fRawAttrColonListSize, align 8, !dbg !4742
  %fRawAttrColonList = getelementptr inbounds %"class.xercesc_2_7::IGXMLScanner", %"class.xercesc_2_7::IGXMLScanner"* %this1, i32 0, i32 8, !dbg !4743
  store i32* null, i32** %fRawAttrColonList, align 8, !dbg !4743
  %fDTDValidator = getelementptr inbounds %"class.xercesc_2_7::IGXMLScanner", %"class.xercesc_2_7::IGXMLScanner"* %this1, i32 0, i32 9, !dbg !4744
  store %"class.xercesc_2_7::DTDValidator"* null, %"class.xercesc_2_7::DTDValidator"** %fDTDValidator, align 8, !dbg !4744
  %fSchemaValidator = getelementptr inbounds %"class.xercesc_2_7::IGXMLScanner", %"class.xercesc_2_7::IGXMLScanner"* %this1, i32 0, i32 10, !dbg !4745
  store %"class.xercesc_2_7::SchemaValidator"* null, %"class.xercesc_2_7::SchemaValidator"** %fSchemaValidator, align 8, !dbg !4745
  %fDTDGrammar = getelementptr inbounds %"class.xercesc_2_7::IGXMLScanner", %"class.xercesc_2_7::IGXMLScanner"* %this1, i32 0, i32 11, !dbg !4746
  store %"class.xercesc_2_7::DTDGrammar"* null, %"class.xercesc_2_7::DTDGrammar"** %fDTDGrammar, align 8, !dbg !4746
  %fICHandler = getelementptr inbounds %"class.xercesc_2_7::IGXMLScanner", %"class.xercesc_2_7::IGXMLScanner"* %this1, i32 0, i32 12, !dbg !4747
  store %"class.xercesc_2_7::IdentityConstraintHandler"* null, %"class.xercesc_2_7::IdentityConstraintHandler"** %fICHandler, align 8, !dbg !4747
  %fLocationPairs = getelementptr inbounds %"class.xercesc_2_7::IGXMLScanner", %"class.xercesc_2_7::IGXMLScanner"* %this1, i32 0, i32 13, !dbg !4748
  store %"class.xercesc_2_7::ValueVectorOf.56"* null, %"class.xercesc_2_7::ValueVectorOf.56"** %fLocationPairs, align 8, !dbg !4748
  %fDTDElemNonDeclPool = getelementptr inbounds %"class.xercesc_2_7::IGXMLScanner", %"class.xercesc_2_7::IGXMLScanner"* %this1, i32 0, i32 14, !dbg !4749
  store %"class.xercesc_2_7::NameIdPool"* null, %"class.xercesc_2_7::NameIdPool"** %fDTDElemNonDeclPool, align 8, !dbg !4749
  %fSchemaElemNonDeclPool = getelementptr inbounds %"class.xercesc_2_7::IGXMLScanner", %"class.xercesc_2_7::IGXMLScanner"* %this1, i32 0, i32 15, !dbg !4750
  store %"class.xercesc_2_7::RefHash3KeysIdPool"* null, %"class.xercesc_2_7::RefHash3KeysIdPool"** %fSchemaElemNonDeclPool, align 8, !dbg !4750
  %fElemCount = getelementptr inbounds %"class.xercesc_2_7::IGXMLScanner", %"class.xercesc_2_7::IGXMLScanner"* %this1, i32 0, i32 16, !dbg !4751
  store i32 0, i32* %fElemCount, align 8, !dbg !4751
  %fAttDefRegistry = getelementptr inbounds %"class.xercesc_2_7::IGXMLScanner", %"class.xercesc_2_7::IGXMLScanner"* %this1, i32 0, i32 17, !dbg !4752
  store %"class.xercesc_2_7::RefHashTableOf.57"* null, %"class.xercesc_2_7::RefHashTableOf.57"** %fAttDefRegistry, align 8, !dbg !4752
  %fUndeclaredAttrRegistry = getelementptr inbounds %"class.xercesc_2_7::IGXMLScanner", %"class.xercesc_2_7::IGXMLScanner"* %this1, i32 0, i32 18, !dbg !4753
  store %"class.xercesc_2_7::RefHashTableOf.57"* null, %"class.xercesc_2_7::RefHashTableOf.57"** %fUndeclaredAttrRegistry, align 8, !dbg !4753
  %fUndeclaredAttrRegistryNS = getelementptr inbounds %"class.xercesc_2_7::IGXMLScanner", %"class.xercesc_2_7::IGXMLScanner"* %this1, i32 0, i32 19, !dbg !4754
  store %"class.xercesc_2_7::RefHash2KeysTableOf.59"* null, %"class.xercesc_2_7::RefHash2KeysTableOf.59"** %fUndeclaredAttrRegistryNS, align 8, !dbg !4754
  %fPSVIAttrList = getelementptr inbounds %"class.xercesc_2_7::IGXMLScanner", %"class.xercesc_2_7::IGXMLScanner"* %this1, i32 0, i32 20, !dbg !4755
  store %"class.xercesc_2_7::PSVIAttributeList"* null, %"class.xercesc_2_7::PSVIAttributeList"** %fPSVIAttrList, align 8, !dbg !4755
  %fModel = getelementptr inbounds %"class.xercesc_2_7::IGXMLScanner", %"class.xercesc_2_7::IGXMLScanner"* %this1, i32 0, i32 21, !dbg !4756
  store %"class.xercesc_2_7::XSModel"* null, %"class.xercesc_2_7::XSModel"** %fModel, align 8, !dbg !4756
  %fPSVIElement = getelementptr inbounds %"class.xercesc_2_7::IGXMLScanner", %"class.xercesc_2_7::IGXMLScanner"* %this1, i32 0, i32 22, !dbg !4757
  store %"class.xercesc_2_7::PSVIElement"* null, %"class.xercesc_2_7::PSVIElement"** %fPSVIElement, align 8, !dbg !4757
  %fErrorStack = getelementptr inbounds %"class.xercesc_2_7::IGXMLScanner", %"class.xercesc_2_7::IGXMLScanner"* %this1, i32 0, i32 23, !dbg !4758
  store %"class.xercesc_2_7::ValueStackOf.63"* null, %"class.xercesc_2_7::ValueStackOf.63"** %fErrorStack, align 8, !dbg !4758
  %fPSVIElemContext = getelementptr inbounds %"class.xercesc_2_7::IGXMLScanner", %"class.xercesc_2_7::IGXMLScanner"* %this1, i32 0, i32 24, !dbg !4759
  call void @llvm.dbg.declare(metadata %"class.xercesc_2_7::JanitorMemFunCall"* %cleanup, metadata !4760, metadata !DIExpression()), !dbg !4762
  store { i64, i64 } { i64 ptrtoint (void (%"class.xercesc_2_7::IGXMLScanner"*)* @_ZN11xercesc_2_712IGXMLScanner7cleanUpEv to i64), i64 0 }, { i64, i64 }* %coerce, align 8, !dbg !4762
  %11 = getelementptr inbounds { i64, i64 }, { i64, i64 }* %coerce, i32 0, i32 0, !dbg !4762
  %12 = load i64, i64* %11, align 8, !dbg !4762
  %13 = getelementptr inbounds { i64, i64 }, { i64, i64 }* %coerce, i32 0, i32 1, !dbg !4762
  %14 = load i64, i64* %13, align 8, !dbg !4762
  invoke void @_ZN11xercesc_2_717JanitorMemFunCallINS_12IGXMLScannerEEC2EPS1_MS1_FvvE(%"class.xercesc_2_7::JanitorMemFunCall"* %cleanup, %"class.xercesc_2_7::IGXMLScanner"* %this1, i64 %12, i64 %14)
          to label %invoke.cont3 unwind label %lpad2, !dbg !4762

invoke.cont3:                                     ; preds = %invoke.cont
  invoke void @_ZN11xercesc_2_712IGXMLScanner10commonInitEv(%"class.xercesc_2_7::IGXMLScanner"* %this1)
          to label %invoke.cont5 unwind label %lpad4, !dbg !4763

invoke.cont5:                                     ; preds = %invoke.cont3
  br label %try.cont, !dbg !4765

lpad:                                             ; preds = %entry
  %15 = landingpad { i8*, i32 }
          cleanup, !dbg !4766
  %16 = extractvalue { i8*, i32 } %15, 0, !dbg !4766
  store i8* %16, i8** %exn.slot, align 8, !dbg !4766
  %17 = extractvalue { i8*, i32 } %15, 1, !dbg !4766
  store i32 %17, i32* %ehselector.slot, align 4, !dbg !4766
  br label %ehcleanup12, !dbg !4766

lpad2:                                            ; preds = %invoke.cont
  %18 = landingpad { i8*, i32 }
          cleanup, !dbg !4767
  %19 = extractvalue { i8*, i32 } %18, 0, !dbg !4767
  store i8* %19, i8** %exn.slot, align 8, !dbg !4767
  %20 = extractvalue { i8*, i32 } %18, 1, !dbg !4767
  store i32 %20, i32* %ehselector.slot, align 4, !dbg !4767
  br label %ehcleanup11, !dbg !4767

lpad4:                                            ; preds = %invoke.cont3
  %21 = landingpad { i8*, i32 }
          cleanup
          catch i8* bitcast ({ i8*, i8*, i8* }* @_ZTIN11xercesc_2_720OutOfMemoryExceptionE to i8*), !dbg !4768
  %22 = extractvalue { i8*, i32 } %21, 0, !dbg !4768
  store i8* %22, i8** %exn.slot, align 8, !dbg !4768
  %23 = extractvalue { i8*, i32 } %21, 1, !dbg !4768
  store i32 %23, i32* %ehselector.slot, align 4, !dbg !4768
  br label %catch.dispatch, !dbg !4768

catch.dispatch:                                   ; preds = %lpad4
  %sel = load i32, i32* %ehselector.slot, align 4, !dbg !4765
  %24 = call i32 @llvm.eh.typeid.for(i8* bitcast ({ i8*, i8*, i8* }* @_ZTIN11xercesc_2_720OutOfMemoryExceptionE to i8*)) #10, !dbg !4765
  %matches = icmp eq i32 %sel, %24, !dbg !4765
  br i1 %matches, label %catch, label %ehcleanup, !dbg !4765

catch:                                            ; preds = %catch.dispatch
  call void @llvm.dbg.declare(metadata %"class.xercesc_2_7::OutOfMemoryException"** %0, metadata !4769, metadata !DIExpression()), !dbg !4770
  %exn = load i8*, i8** %exn.slot, align 8, !dbg !4765
  %25 = call i8* @__cxa_begin_catch(i8* %exn) #10, !dbg !4765
  %exn.byref = bitcast i8* %25 to %"class.xercesc_2_7::OutOfMemoryException"*, !dbg !4765
  store %"class.xercesc_2_7::OutOfMemoryException"* %exn.byref, %"class.xercesc_2_7::OutOfMemoryException"** %0, align 8, !dbg !4765
  invoke void @_ZN11xercesc_2_717JanitorMemFunCallINS_12IGXMLScannerEE7releaseEv(%"class.xercesc_2_7::JanitorMemFunCall"* %cleanup)
          to label %invoke.cont7 unwind label %lpad6, !dbg !4771

invoke.cont7:                                     ; preds = %catch
  invoke void @__cxa_rethrow() #13
          to label %unreachable unwind label %lpad6, !dbg !4773

lpad6:                                            ; preds = %invoke.cont7, %catch
  %26 = landingpad { i8*, i32 }
          cleanup, !dbg !4774
  %27 = extractvalue { i8*, i32 } %26, 0, !dbg !4774
  store i8* %27, i8** %exn.slot, align 8, !dbg !4774
  %28 = extractvalue { i8*, i32 } %26, 1, !dbg !4774
  store i32 %28, i32* %ehselector.slot, align 4, !dbg !4774
  invoke void @__cxa_end_catch()
          to label %invoke.cont8 unwind label %terminate.lpad, !dbg !4775

invoke.cont8:                                     ; preds = %lpad6
  br label %ehcleanup, !dbg !4775

try.cont:                                         ; preds = %invoke.cont5
  invoke void @_ZN11xercesc_2_717JanitorMemFunCallINS_12IGXMLScannerEE7releaseEv(%"class.xercesc_2_7::JanitorMemFunCall"* %cleanup)
          to label %invoke.cont10 unwind label %lpad9, !dbg !4776

invoke.cont10:                                    ; preds = %try.cont
  call void @_ZN11xercesc_2_717JanitorMemFunCallINS_12IGXMLScannerEED2Ev(%"class.xercesc_2_7::JanitorMemFunCall"* %cleanup) #10, !dbg !4766
  ret void, !dbg !4766

lpad9:                                            ; preds = %try.cont
  %29 = landingpad { i8*, i32 }
          cleanup, !dbg !4767
  %30 = extractvalue { i8*, i32 } %29, 0, !dbg !4767
  store i8* %30, i8** %exn.slot, align 8, !dbg !4767
  %31 = extractvalue { i8*, i32 } %29, 1, !dbg !4767
  store i32 %31, i32* %ehselector.slot, align 4, !dbg !4767
  br label %ehcleanup, !dbg !4767

ehcleanup:                                        ; preds = %lpad9, %invoke.cont8, %catch.dispatch
  call void @_ZN11xercesc_2_717JanitorMemFunCallINS_12IGXMLScannerEED2Ev(%"class.xercesc_2_7::JanitorMemFunCall"* %cleanup) #10, !dbg !4766
  br label %ehcleanup11, !dbg !4766

ehcleanup11:                                      ; preds = %ehcleanup, %lpad2
  call void @_ZN11xercesc_2_79XMLBufferD2Ev(%"class.xercesc_2_7::XMLBuffer"* %fContent) #10, !dbg !4767
  br label %ehcleanup12, !dbg !4767

ehcleanup12:                                      ; preds = %ehcleanup11, %lpad
  %32 = bitcast %"class.xercesc_2_7::IGXMLScanner"* %this1 to %"class.xercesc_2_7::XMLScanner"*, !dbg !4767
  call void @_ZN11xercesc_2_710XMLScannerD2Ev(%"class.xercesc_2_7::XMLScanner"* %32) #10, !dbg !4767
  br label %eh.resume, !dbg !4767

eh.resume:                                        ; preds = %ehcleanup12
  %exn13 = load i8*, i8** %exn.slot, align 8, !dbg !4767
  %sel14 = load i32, i32* %ehselector.slot, align 4, !dbg !4767
  %lpad.val = insertvalue { i8*, i32 } undef, i8* %exn13, 0, !dbg !4767
  %lpad.val15 = insertvalue { i8*, i32 } %lpad.val, i32 %sel14, 1, !dbg !4767
  resume { i8*, i32 } %lpad.val15, !dbg !4767

terminate.lpad:                                   ; preds = %lpad6
  %33 = landingpad { i8*, i32 }
          catch i8* null, !dbg !4775
  %34 = extractvalue { i8*, i32 } %33, 0, !dbg !4775
  call void @__clang_call_terminate(i8* %34) #12, !dbg !4775
  unreachable, !dbg !4775

unreachable:                                      ; preds = %invoke.cont7
  unreachable
}

declare dso_local void @_ZN11xercesc_2_710XMLScannerC2EPNS_18XMLDocumentHandlerEPNS_14DocTypeHandlerEPNS_16XMLEntityHandlerEPNS_16XMLErrorReporterEPNS_12XMLValidatorEPNS_15GrammarResolverEPNS_13MemoryManagerE(%"class.xercesc_2_7::XMLScanner"*, %"class.xercesc_2_7::XMLDocumentHandler"*, %"class.xercesc_2_7::DocTypeHandler"*, %"class.xercesc_2_7::XMLEntityHandler"*, %"class.xercesc_2_7::XMLErrorReporter"*, %"class.xercesc_2_7::XMLValidator"*, %"class.xercesc_2_7::GrammarResolver"*, %"class.xercesc_2_7::MemoryManager"*) unnamed_addr #7

; Function Attrs: noinline nounwind uwtable
define dso_local void @_ZN11xercesc_2_712IGXMLScannerD2Ev(%"class.xercesc_2_7::IGXMLScanner"* %this) unnamed_addr #1 align 2 personality i8* bitcast (i32 (...)* @__gxx_personality_v0 to i8*) !dbg !4777 {
entry:
  %this.addr = alloca %"class.xercesc_2_7::IGXMLScanner"*, align 8
  %exn.slot = alloca i8*
  %ehselector.slot = alloca i32
  store %"class.xercesc_2_7::IGXMLScanner"* %this, %"class.xercesc_2_7::IGXMLScanner"** %this.addr, align 8
  call void @llvm.dbg.declare(metadata %"class.xercesc_2_7::IGXMLScanner"** %this.addr, metadata !4778, metadata !DIExpression()), !dbg !4779
  %this1 = load %"class.xercesc_2_7::IGXMLScanner"*, %"class.xercesc_2_7::IGXMLScanner"** %this.addr, align 8
  %0 = bitcast %"class.xercesc_2_7::IGXMLScanner"* %this1 to i32 (...)***, !dbg !4780
  store i32 (...)** bitcast (i8** getelementptr inbounds ({ [20 x i8*] }, { [20 x i8*] }* @_ZTVN11xercesc_2_712IGXMLScannerE, i32 0, inrange i32 0, i32 2) to i32 (...)**), i32 (...)*** %0, align 8, !dbg !4780
  invoke void @_ZN11xercesc_2_712IGXMLScanner7cleanUpEv(%"class.xercesc_2_7::IGXMLScanner"* %this1)
          to label %invoke.cont unwind label %lpad, !dbg !4781

invoke.cont:                                      ; preds = %entry
  %fContent = getelementptr inbounds %"class.xercesc_2_7::IGXMLScanner", %"class.xercesc_2_7::IGXMLScanner"* %this1, i32 0, i32 5, !dbg !4783
  call void @_ZN11xercesc_2_79XMLBufferD2Ev(%"class.xercesc_2_7::XMLBuffer"* %fContent) #10, !dbg !4783
  %1 = bitcast %"class.xercesc_2_7::IGXMLScanner"* %this1 to %"class.xercesc_2_7::XMLScanner"*, !dbg !4783
  call void @_ZN11xercesc_2_710XMLScannerD2Ev(%"class.xercesc_2_7::XMLScanner"* %1) #10, !dbg !4783
  ret void, !dbg !4784

lpad:                                             ; preds = %entry
  %2 = landingpad { i8*, i32 }
          catch i8* null, !dbg !4783
  %3 = extractvalue { i8*, i32 } %2, 0, !dbg !4783
  store i8* %3, i8** %exn.slot, align 8, !dbg !4783
  %4 = extractvalue { i8*, i32 } %2, 1, !dbg !4783
  store i32 %4, i32* %ehselector.slot, align 4, !dbg !4783
  %fContent2 = getelementptr inbounds %"class.xercesc_2_7::IGXMLScanner", %"class.xercesc_2_7::IGXMLScanner"* %this1, i32 0, i32 5, !dbg !4783
  call void @_ZN11xercesc_2_79XMLBufferD2Ev(%"class.xercesc_2_7::XMLBuffer"* %fContent2) #10, !dbg !4783
  %5 = bitcast %"class.xercesc_2_7::IGXMLScanner"* %this1 to %"class.xercesc_2_7::XMLScanner"*, !dbg !4783
  call void @_ZN11xercesc_2_710XMLScannerD2Ev(%"class.xercesc_2_7::XMLScanner"* %5) #10, !dbg !4783
  br label %terminate.handler, !dbg !4783

terminate.handler:                                ; preds = %lpad
  %exn = load i8*, i8** %exn.slot, align 8, !dbg !4783
  call void @__clang_call_terminate(i8* %exn) #12, !dbg !4783
  unreachable, !dbg !4783
}

; Function Attrs: noinline nounwind uwtable
define dso_local void @_ZN11xercesc_2_712IGXMLScannerD0Ev(%"class.xercesc_2_7::IGXMLScanner"* %this) unnamed_addr #1 align 2 !dbg !4785 {
entry:
  %this.addr = alloca %"class.xercesc_2_7::IGXMLScanner"*, align 8
  store %"class.xercesc_2_7::IGXMLScanner"* %this, %"class.xercesc_2_7::IGXMLScanner"** %this.addr, align 8
  call void @llvm.dbg.declare(metadata %"class.xercesc_2_7::IGXMLScanner"** %this.addr, metadata !4786, metadata !DIExpression()), !dbg !4787
  %this1 = load %"class.xercesc_2_7::IGXMLScanner"*, %"class.xercesc_2_7::IGXMLScanner"** %this.addr, align 8
  call void @_ZN11xercesc_2_712IGXMLScannerD1Ev(%"class.xercesc_2_7::IGXMLScanner"* %this1) #10, !dbg !4788
  %0 = bitcast %"class.xercesc_2_7::IGXMLScanner"* %this1 to i8*, !dbg !4788
  call void @_ZN11xercesc_2_77XMemorydlEPv(i8* %0) #10, !dbg !4788
  ret void, !dbg !4789
}

; Function Attrs: noinline uwtable
define dso_local %"class.xercesc_2_7::NameIdPool.20"* @_ZN11xercesc_2_712IGXMLScanner17getEntityDeclPoolEv(%"class.xercesc_2_7::IGXMLScanner"* %this) unnamed_addr #6 align 2 !dbg !4790 {
entry:
  %retval = alloca %"class.xercesc_2_7::NameIdPool.20"*, align 8
  %this.addr = alloca %"class.xercesc_2_7::IGXMLScanner"*, align 8
  store %"class.xercesc_2_7::IGXMLScanner"* %this, %"class.xercesc_2_7::IGXMLScanner"** %this.addr, align 8
  call void @llvm.dbg.declare(metadata %"class.xercesc_2_7::IGXMLScanner"** %this.addr, metadata !4791, metadata !DIExpression()), !dbg !4792
  %this1 = load %"class.xercesc_2_7::IGXMLScanner"*, %"class.xercesc_2_7::IGXMLScanner"** %this.addr, align 8
  %fDTDGrammar = getelementptr inbounds %"class.xercesc_2_7::IGXMLScanner", %"class.xercesc_2_7::IGXMLScanner"* %this1, i32 0, i32 11, !dbg !4793
  %0 = load %"class.xercesc_2_7::DTDGrammar"*, %"class.xercesc_2_7::DTDGrammar"** %fDTDGrammar, align 8, !dbg !4793
  %tobool = icmp ne %"class.xercesc_2_7::DTDGrammar"* %0, null, !dbg !4793
  br i1 %tobool, label %if.end, label %if.then, !dbg !4795

if.then:                                          ; preds = %entry
  store %"class.xercesc_2_7::NameIdPool.20"* null, %"class.xercesc_2_7::NameIdPool.20"** %retval, align 8, !dbg !4796
  br label %return, !dbg !4796

if.end:                                           ; preds = %entry
  %fDTDGrammar2 = getelementptr inbounds %"class.xercesc_2_7::IGXMLScanner", %"class.xercesc_2_7::IGXMLScanner"* %this1, i32 0, i32 11, !dbg !4797
  %1 = load %"class.xercesc_2_7::DTDGrammar"*, %"class.xercesc_2_7::DTDGrammar"** %fDTDGrammar2, align 8, !dbg !4797
  %call = call %"class.xercesc_2_7::NameIdPool.20"* @_ZN11xercesc_2_710DTDGrammar17getEntityDeclPoolEv(%"class.xercesc_2_7::DTDGrammar"* %1), !dbg !4798
  store %"class.xercesc_2_7::NameIdPool.20"* %call, %"class.xercesc_2_7::NameIdPool.20"** %retval, align 8, !dbg !4799
  br label %return, !dbg !4799

return:                                           ; preds = %if.end, %if.then
  %2 = load %"class.xercesc_2_7::NameIdPool.20"*, %"class.xercesc_2_7::NameIdPool.20"** %retval, align 8, !dbg !4800
  ret %"class.xercesc_2_7::NameIdPool.20"* %2, !dbg !4800
}

; Function Attrs: noinline nounwind uwtable
define linkonce_odr dso_local %"class.xercesc_2_7::NameIdPool.20"* @_ZN11xercesc_2_710DTDGrammar17getEntityDeclPoolEv(%"class.xercesc_2_7::DTDGrammar"* %this) #1 comdat align 2 !dbg !4801 {
entry:
  %this.addr = alloca %"class.xercesc_2_7::DTDGrammar"*, align 8
  store %"class.xercesc_2_7::DTDGrammar"* %this, %"class.xercesc_2_7::DTDGrammar"** %this.addr, align 8
  call void @llvm.dbg.declare(metadata %"class.xercesc_2_7::DTDGrammar"** %this.addr, metadata !4806, metadata !DIExpression()), !dbg !4807
  %this1 = load %"class.xercesc_2_7::DTDGrammar"*, %"class.xercesc_2_7::DTDGrammar"** %this.addr, align 8
  %fEntityDeclPool = getelementptr inbounds %"class.xercesc_2_7::DTDGrammar", %"class.xercesc_2_7::DTDGrammar"* %this1, i32 0, i32 4, !dbg !4808
  %0 = load %"class.xercesc_2_7::NameIdPool.20"*, %"class.xercesc_2_7::NameIdPool.20"** %fEntityDeclPool, align 8, !dbg !4808
  ret %"class.xercesc_2_7::NameIdPool.20"* %0, !dbg !4809
}

; Function Attrs: noinline uwtable
define dso_local %"class.xercesc_2_7::NameIdPool.20"* @_ZNK11xercesc_2_712IGXMLScanner17getEntityDeclPoolEv(%"class.xercesc_2_7::IGXMLScanner"* %this) unnamed_addr #6 align 2 !dbg !4810 {
entry:
  %retval = alloca %"class.xercesc_2_7::NameIdPool.20"*, align 8
  %this.addr = alloca %"class.xercesc_2_7::IGXMLScanner"*, align 8
  store %"class.xercesc_2_7::IGXMLScanner"* %this, %"class.xercesc_2_7::IGXMLScanner"** %this.addr, align 8
  call void @llvm.dbg.declare(metadata %"class.xercesc_2_7::IGXMLScanner"** %this.addr, metadata !4811, metadata !DIExpression()), !dbg !4813
  %this1 = load %"class.xercesc_2_7::IGXMLScanner"*, %"class.xercesc_2_7::IGXMLScanner"** %this.addr, align 8
  %fDTDGrammar = getelementptr inbounds %"class.xercesc_2_7::IGXMLScanner", %"class.xercesc_2_7::IGXMLScanner"* %this1, i32 0, i32 11, !dbg !4814
  %0 = load %"class.xercesc_2_7::DTDGrammar"*, %"class.xercesc_2_7::DTDGrammar"** %fDTDGrammar, align 8, !dbg !4814
  %tobool = icmp ne %"class.xercesc_2_7::DTDGrammar"* %0, null, !dbg !4814
  br i1 %tobool, label %if.end, label %if.then, !dbg !4816

if.then:                                          ; preds = %entry
  store %"class.xercesc_2_7::NameIdPool.20"* null, %"class.xercesc_2_7::NameIdPool.20"** %retval, align 8, !dbg !4817
  br label %return, !dbg !4817

if.end:                                           ; preds = %entry
  %fDTDGrammar2 = getelementptr inbounds %"class.xercesc_2_7::IGXMLScanner", %"class.xercesc_2_7::IGXMLScanner"* %this1, i32 0, i32 11, !dbg !4818
  %1 = load %"class.xercesc_2_7::DTDGrammar"*, %"class.xercesc_2_7::DTDGrammar"** %fDTDGrammar2, align 8, !dbg !4818
  %call = call %"class.xercesc_2_7::NameIdPool.20"* @_ZN11xercesc_2_710DTDGrammar17getEntityDeclPoolEv(%"class.xercesc_2_7::DTDGrammar"* %1), !dbg !4819
  store %"class.xercesc_2_7::NameIdPool.20"* %call, %"class.xercesc_2_7::NameIdPool.20"** %retval, align 8, !dbg !4820
  br label %return, !dbg !4820

return:                                           ; preds = %if.end, %if.then
  %2 = load %"class.xercesc_2_7::NameIdPool.20"*, %"class.xercesc_2_7::NameIdPool.20"** %retval, align 8, !dbg !4821
  ret %"class.xercesc_2_7::NameIdPool.20"* %2, !dbg !4821
}

; Function Attrs: noinline uwtable
define dso_local void @_ZN11xercesc_2_712IGXMLScanner12scanDocumentERKNS_11InputSourceE(%"class.xercesc_2_7::IGXMLScanner"* %this, %"class.xercesc_2_7::InputSource"* dereferenceable(48) %src) unnamed_addr #6 align 2 personality i8* bitcast (i32 (...)* @__gxx_personality_v0 to i8*) !dbg !4822 {
entry:
  %this.addr = alloca %"class.xercesc_2_7::IGXMLScanner"*, align 8
  %src.addr = alloca %"class.xercesc_2_7::InputSource"*, align 8
  %resetReaderMgr = alloca %"class.xercesc_2_7::JanitorMemFunCall.65", align 8
  %coerce = alloca { i64, i64 }, align 8
  %exn.slot = alloca i8*
  %ehselector.slot = alloca i32
  %0 = alloca %"class.xercesc_2_7::OutOfMemoryException"*, align 8
  %excToCatch = alloca %"class.xercesc_2_7::XMLException"*, align 8
  %1 = alloca %"class.xercesc_2_7::OutOfMemoryException"*, align 8
  %2 = alloca i32, align 4
  %3 = alloca i32, align 4
  store %"class.xercesc_2_7::IGXMLScanner"* %this, %"class.xercesc_2_7::IGXMLScanner"** %this.addr, align 8
  call void @llvm.dbg.declare(metadata %"class.xercesc_2_7::IGXMLScanner"** %this.addr, metadata !4823, metadata !DIExpression()), !dbg !4824
  store %"class.xercesc_2_7::InputSource"* %src, %"class.xercesc_2_7::InputSource"** %src.addr, align 8
  call void @llvm.dbg.declare(metadata %"class.xercesc_2_7::InputSource"** %src.addr, metadata !4825, metadata !DIExpression()), !dbg !4826
  %this1 = load %"class.xercesc_2_7::IGXMLScanner"*, %"class.xercesc_2_7::IGXMLScanner"** %this.addr, align 8
  %4 = bitcast %"class.xercesc_2_7::IGXMLScanner"* %this1 to %"class.xercesc_2_7::XMLScanner"*, !dbg !4827
  %fSequenceId = getelementptr inbounds %"class.xercesc_2_7::XMLScanner", %"class.xercesc_2_7::XMLScanner"* %4, i32 0, i32 38, !dbg !4827
  %5 = load i32, i32* %fSequenceId, align 8, !dbg !4828
  %inc = add i32 %5, 1, !dbg !4828
  store i32 %inc, i32* %fSequenceId, align 8, !dbg !4828
  call void @llvm.dbg.declare(metadata %"class.xercesc_2_7::JanitorMemFunCall.65"* %resetReaderMgr, metadata !4829, metadata !DIExpression()), !dbg !4863
  %6 = bitcast %"class.xercesc_2_7::IGXMLScanner"* %this1 to %"class.xercesc_2_7::XMLScanner"*, !dbg !4864
  %fReaderMgr = getelementptr inbounds %"class.xercesc_2_7::XMLScanner", %"class.xercesc_2_7::XMLScanner"* %6, i32 0, i32 49, !dbg !4864
  store { i64, i64 } { i64 ptrtoint (void (%"class.xercesc_2_7::ReaderMgr"*)* @_ZN11xercesc_2_79ReaderMgr5resetEv to i64), i64 0 }, { i64, i64 }* %coerce, align 8, !dbg !4863
  %7 = getelementptr inbounds { i64, i64 }, { i64, i64 }* %coerce, i32 0, i32 0, !dbg !4863
  %8 = load i64, i64* %7, align 8, !dbg !4863
  %9 = getelementptr inbounds { i64, i64 }, { i64, i64 }* %coerce, i32 0, i32 1, !dbg !4863
  %10 = load i64, i64* %9, align 8, !dbg !4863
  call void @_ZN11xercesc_2_717JanitorMemFunCallINS_9ReaderMgrEEC2EPS1_MS1_FvvE(%"class.xercesc_2_7::JanitorMemFunCall.65"* %resetReaderMgr, %"class.xercesc_2_7::ReaderMgr"* %fReaderMgr, i64 %8, i64 %10), !dbg !4863
  %11 = load %"class.xercesc_2_7::InputSource"*, %"class.xercesc_2_7::InputSource"** %src.addr, align 8, !dbg !4865
  %12 = bitcast %"class.xercesc_2_7::IGXMLScanner"* %this1 to void (%"class.xercesc_2_7::IGXMLScanner"*, %"class.xercesc_2_7::InputSource"*)***, !dbg !4867
  %vtable = load void (%"class.xercesc_2_7::IGXMLScanner"*, %"class.xercesc_2_7::InputSource"*)**, void (%"class.xercesc_2_7::IGXMLScanner"*, %"class.xercesc_2_7::InputSource"*)*** %12, align 8, !dbg !4867
  %vfn = getelementptr inbounds void (%"class.xercesc_2_7::IGXMLScanner"*, %"class.xercesc_2_7::InputSource"*)*, void (%"class.xercesc_2_7::IGXMLScanner"*, %"class.xercesc_2_7::InputSource"*)** %vtable, i64 15, !dbg !4867
  %13 = load void (%"class.xercesc_2_7::IGXMLScanner"*, %"class.xercesc_2_7::InputSource"*)*, void (%"class.xercesc_2_7::IGXMLScanner"*, %"class.xercesc_2_7::InputSource"*)** %vfn, align 8, !dbg !4867
  invoke void %13(%"class.xercesc_2_7::IGXMLScanner"* %this1, %"class.xercesc_2_7::InputSource"* dereferenceable(48) %11)
          to label %invoke.cont unwind label %lpad, !dbg !4867

invoke.cont:                                      ; preds = %entry
  %14 = bitcast %"class.xercesc_2_7::IGXMLScanner"* %this1 to %"class.xercesc_2_7::XMLScanner"*, !dbg !4868
  %fDocHandler = getelementptr inbounds %"class.xercesc_2_7::XMLScanner", %"class.xercesc_2_7::XMLScanner"* %14, i32 0, i32 41, !dbg !4868
  %15 = load %"class.xercesc_2_7::XMLDocumentHandler"*, %"class.xercesc_2_7::XMLDocumentHandler"** %fDocHandler, align 8, !dbg !4868
  %tobool = icmp ne %"class.xercesc_2_7::XMLDocumentHandler"* %15, null, !dbg !4868
  br i1 %tobool, label %if.then, label %if.end, !dbg !4870

if.then:                                          ; preds = %invoke.cont
  %16 = bitcast %"class.xercesc_2_7::IGXMLScanner"* %this1 to %"class.xercesc_2_7::XMLScanner"*, !dbg !4871
  %fDocHandler2 = getelementptr inbounds %"class.xercesc_2_7::XMLScanner", %"class.xercesc_2_7::XMLScanner"* %16, i32 0, i32 41, !dbg !4871
  %17 = load %"class.xercesc_2_7::XMLDocumentHandler"*, %"class.xercesc_2_7::XMLDocumentHandler"** %fDocHandler2, align 8, !dbg !4871
  %18 = bitcast %"class.xercesc_2_7::XMLDocumentHandler"* %17 to void (%"class.xercesc_2_7::XMLDocumentHandler"*)***, !dbg !4872
  %vtable3 = load void (%"class.xercesc_2_7::XMLDocumentHandler"*)**, void (%"class.xercesc_2_7::XMLDocumentHandler"*)*** %18, align 8, !dbg !4872
  %vfn4 = getelementptr inbounds void (%"class.xercesc_2_7::XMLDocumentHandler"*)*, void (%"class.xercesc_2_7::XMLDocumentHandler"*)** %vtable3, i64 10, !dbg !4872
  %19 = load void (%"class.xercesc_2_7::XMLDocumentHandler"*)*, void (%"class.xercesc_2_7::XMLDocumentHandler"*)** %vfn4, align 8, !dbg !4872
  invoke void %19(%"class.xercesc_2_7::XMLDocumentHandler"* %17)
          to label %invoke.cont5 unwind label %lpad, !dbg !4872

invoke.cont5:                                     ; preds = %if.then
  br label %if.end, !dbg !4871

lpad:                                             ; preds = %if.then28, %if.then21, %if.end17, %if.then15, %if.else, %if.then9, %invoke.cont6, %if.end, %if.then, %entry
  %20 = landingpad { i8*, i32 }
          cleanup
          catch i8* bitcast ({ i8*, i8* }* @_ZTIN11xercesc_2_77XMLErrs5CodesE to i8*)
          catch i8* bitcast ({ i8*, i8* }* @_ZTIN11xercesc_2_78XMLValid5CodesE to i8*)
          catch i8* bitcast (i8** @_ZTIN11xercesc_2_712XMLExceptionE to i8*)
          catch i8* bitcast ({ i8*, i8*, i8* }* @_ZTIN11xercesc_2_720OutOfMemoryExceptionE to i8*), !dbg !4873
  %21 = extractvalue { i8*, i32 } %20, 0, !dbg !4873
  store i8* %21, i8** %exn.slot, align 8, !dbg !4873
  %22 = extractvalue { i8*, i32 } %20, 1, !dbg !4873
  store i32 %22, i32* %ehselector.slot, align 4, !dbg !4873
  br label %catch.dispatch, !dbg !4873

catch.dispatch:                                   ; preds = %lpad
  %sel = load i32, i32* %ehselector.slot, align 4, !dbg !4874
  %23 = call i32 @llvm.eh.typeid.for(i8* bitcast ({ i8*, i8* }* @_ZTIN11xercesc_2_77XMLErrs5CodesE to i8*)) #10, !dbg !4874
  %matches = icmp eq i32 %sel, %23, !dbg !4874
  br i1 %matches, label %catch92, label %catch.fallthrough, !dbg !4874

catch92:                                          ; preds = %catch.dispatch
  call void @llvm.dbg.declare(metadata i32* %3, metadata !4875, metadata !DIExpression()), !dbg !4876
  %exn93 = load i8*, i8** %exn.slot, align 8, !dbg !4877
  %24 = call i8* @__cxa_begin_catch(i8* %exn93) #10, !dbg !4877
  %25 = bitcast i8* %24 to i32*, !dbg !4877
  %26 = load i32, i32* %25, align 4, !dbg !4877
  store i32 %26, i32* %3, align 4, !dbg !4877
  call void @__cxa_end_catch() #10, !dbg !4879
  br label %try.cont94, !dbg !4879

try.cont94:                                       ; preds = %catch92, %catch90, %invoke.cont88, %if.end33
  call void @_ZN11xercesc_2_717JanitorMemFunCallINS_9ReaderMgrEED2Ev(%"class.xercesc_2_7::JanitorMemFunCall.65"* %resetReaderMgr) #10, !dbg !4881
  ret void, !dbg !4881

catch.fallthrough:                                ; preds = %catch.dispatch
  %27 = call i32 @llvm.eh.typeid.for(i8* bitcast ({ i8*, i8* }* @_ZTIN11xercesc_2_78XMLValid5CodesE to i8*)) #10, !dbg !4874
  %matches34 = icmp eq i32 %sel, %27, !dbg !4874
  br i1 %matches34, label %catch90, label %catch.fallthrough35, !dbg !4874

catch90:                                          ; preds = %catch.fallthrough
  call void @llvm.dbg.declare(metadata i32* %2, metadata !4882, metadata !DIExpression()), !dbg !4883
  %exn91 = load i8*, i8** %exn.slot, align 8, !dbg !4884
  %28 = call i8* @__cxa_begin_catch(i8* %exn91) #10, !dbg !4884
  %29 = bitcast i8* %28 to i32*, !dbg !4884
  %30 = load i32, i32* %29, align 4, !dbg !4884
  store i32 %30, i32* %2, align 4, !dbg !4884
  call void @__cxa_end_catch() #10, !dbg !4877
  br label %try.cont94, !dbg !4877

catch.fallthrough35:                              ; preds = %catch.fallthrough
  %31 = call i32 @llvm.eh.typeid.for(i8* bitcast (i8** @_ZTIN11xercesc_2_712XMLExceptionE to i8*)) #10, !dbg !4874
  %matches36 = icmp eq i32 %sel, %31, !dbg !4874
  br i1 %matches36, label %catch42, label %catch.fallthrough37, !dbg !4874

catch42:                                          ; preds = %catch.fallthrough35
  call void @llvm.dbg.declare(metadata %"class.xercesc_2_7::XMLException"** %excToCatch, metadata !4886, metadata !DIExpression()), !dbg !4891
  %exn43 = load i8*, i8** %exn.slot, align 8, !dbg !4892
  %32 = call i8* @__cxa_begin_catch(i8* %exn43) #10, !dbg !4892
  %exn.byref44 = bitcast i8* %32 to %"class.xercesc_2_7::XMLException"*, !dbg !4892
  store %"class.xercesc_2_7::XMLException"* %exn.byref44, %"class.xercesc_2_7::XMLException"** %excToCatch, align 8, !dbg !4892
  %33 = bitcast %"class.xercesc_2_7::IGXMLScanner"* %this1 to %"class.xercesc_2_7::XMLScanner"*, !dbg !4894
  %fInException = getelementptr inbounds %"class.xercesc_2_7::XMLScanner", %"class.xercesc_2_7::XMLScanner"* %33, i32 0, i32 7, !dbg !4894
  store i8 1, i8* %fInException, align 1, !dbg !4895
  %34 = load %"class.xercesc_2_7::XMLException"*, %"class.xercesc_2_7::XMLException"** %excToCatch, align 8, !dbg !4896
  %call47 = invoke i32 @_ZNK11xercesc_2_712XMLException12getErrorTypeEv(%"class.xercesc_2_7::XMLException"* %34)
          to label %invoke.cont46 unwind label %lpad45, !dbg !4899

invoke.cont46:                                    ; preds = %catch42
  %cmp = icmp eq i32 %call47, 0, !dbg !4900
  br i1 %cmp, label %if.then48, label %if.else56, !dbg !4901

if.then48:                                        ; preds = %invoke.cont46
  %35 = bitcast %"class.xercesc_2_7::IGXMLScanner"* %this1 to %"class.xercesc_2_7::XMLScanner"*, !dbg !4902
  %36 = load %"class.xercesc_2_7::XMLException"*, %"class.xercesc_2_7::XMLException"** %excToCatch, align 8, !dbg !4903
  %37 = bitcast %"class.xercesc_2_7::XMLException"* %36 to i16* (%"class.xercesc_2_7::XMLException"*)***, !dbg !4904
  %vtable49 = load i16* (%"class.xercesc_2_7::XMLException"*)**, i16* (%"class.xercesc_2_7::XMLException"*)*** %37, align 8, !dbg !4904
  %vfn50 = getelementptr inbounds i16* (%"class.xercesc_2_7::XMLException"*)*, i16* (%"class.xercesc_2_7::XMLException"*)** %vtable49, i64 2, !dbg !4904
  %38 = load i16* (%"class.xercesc_2_7::XMLException"*)*, i16* (%"class.xercesc_2_7::XMLException"*)** %vfn50, align 8, !dbg !4904
  %call52 = invoke i16* %38(%"class.xercesc_2_7::XMLException"* %36)
          to label %invoke.cont51 unwind label %lpad45, !dbg !4904

invoke.cont51:                                    ; preds = %if.then48
  %39 = load %"class.xercesc_2_7::XMLException"*, %"class.xercesc_2_7::XMLException"** %excToCatch, align 8, !dbg !4905
  %call54 = invoke i16* @_ZNK11xercesc_2_712XMLException10getMessageEv(%"class.xercesc_2_7::XMLException"* %39)
          to label %invoke.cont53 unwind label %lpad45, !dbg !4906

invoke.cont53:                                    ; preds = %invoke.cont51
  invoke void @_ZN11xercesc_2_710XMLScanner9emitErrorENS_7XMLErrs5CodesEPKtS4_S4_S4_(%"class.xercesc_2_7::XMLScanner"* %35, i32 7, i16* %call52, i16* %call54, i16* null, i16* null)
          to label %invoke.cont55 unwind label %lpad45, !dbg !4902

invoke.cont55:                                    ; preds = %invoke.cont53
  br label %if.end77, !dbg !4902

catch.fallthrough37:                              ; preds = %catch.fallthrough35
  %40 = call i32 @llvm.eh.typeid.for(i8* bitcast ({ i8*, i8*, i8* }* @_ZTIN11xercesc_2_720OutOfMemoryExceptionE to i8*)) #10, !dbg !4874
  %matches38 = icmp eq i32 %sel, %40, !dbg !4874
  br i1 %matches38, label %catch, label %ehcleanup95, !dbg !4874

catch:                                            ; preds = %catch.fallthrough37
  call void @llvm.dbg.declare(metadata %"class.xercesc_2_7::OutOfMemoryException"** %0, metadata !4907, metadata !DIExpression()), !dbg !4908
  %exn = load i8*, i8** %exn.slot, align 8, !dbg !4874
  %41 = call i8* @__cxa_begin_catch(i8* %exn) #10, !dbg !4874
  %exn.byref = bitcast i8* %41 to %"class.xercesc_2_7::OutOfMemoryException"*, !dbg !4874
  store %"class.xercesc_2_7::OutOfMemoryException"* %exn.byref, %"class.xercesc_2_7::OutOfMemoryException"** %0, align 8, !dbg !4874
  invoke void @_ZN11xercesc_2_717JanitorMemFunCallINS_9ReaderMgrEE7releaseEv(%"class.xercesc_2_7::JanitorMemFunCall.65"* %resetReaderMgr)
          to label %invoke.cont40 unwind label %lpad39, !dbg !4909

invoke.cont40:                                    ; preds = %catch
  invoke void @__cxa_rethrow() #13
          to label %unreachable unwind label %lpad39, !dbg !4910

if.end:                                           ; preds = %invoke.cont5, %invoke.cont
  %42 = bitcast %"class.xercesc_2_7::IGXMLScanner"* %this1 to %"class.xercesc_2_7::XMLScanner"*, !dbg !4911
  invoke void @_ZN11xercesc_2_710XMLScanner10scanPrologEv(%"class.xercesc_2_7::XMLScanner"* %42)
          to label %invoke.cont6 unwind label %lpad, !dbg !4911

invoke.cont6:                                     ; preds = %if.end
  %43 = bitcast %"class.xercesc_2_7::IGXMLScanner"* %this1 to %"class.xercesc_2_7::XMLScanner"*, !dbg !4912
  %fReaderMgr7 = getelementptr inbounds %"class.xercesc_2_7::XMLScanner", %"class.xercesc_2_7::XMLScanner"* %43, i32 0, i32 49, !dbg !4912
  %call = invoke zeroext i1 @_ZNK11xercesc_2_79ReaderMgr5atEOFEv(%"class.xercesc_2_7::ReaderMgr"* %fReaderMgr7)
          to label %invoke.cont8 unwind label %lpad, !dbg !4914

invoke.cont8:                                     ; preds = %invoke.cont6
  br i1 %call, label %if.then9, label %if.else, !dbg !4915

if.then9:                                         ; preds = %invoke.cont8
  %44 = bitcast %"class.xercesc_2_7::IGXMLScanner"* %this1 to %"class.xercesc_2_7::XMLScanner"*, !dbg !4916
  invoke void @_ZN11xercesc_2_710XMLScanner9emitErrorENS_7XMLErrs5CodesE(%"class.xercesc_2_7::XMLScanner"* %44, i32 279)
          to label %invoke.cont10 unwind label %lpad, !dbg !4916

invoke.cont10:                                    ; preds = %if.then9
  br label %if.end25, !dbg !4918

if.else:                                          ; preds = %invoke.cont8
  %call12 = invoke zeroext i1 @_ZN11xercesc_2_712IGXMLScanner11scanContentEv(%"class.xercesc_2_7::IGXMLScanner"* %this1)
          to label %invoke.cont11 unwind label %lpad, !dbg !4919

invoke.cont11:                                    ; preds = %if.else
  br i1 %call12, label %if.then13, label %if.end24, !dbg !4922

if.then13:                                        ; preds = %invoke.cont11
  %45 = bitcast %"class.xercesc_2_7::IGXMLScanner"* %this1 to %"class.xercesc_2_7::XMLScanner"*, !dbg !4923
  %fValidate = getelementptr inbounds %"class.xercesc_2_7::XMLScanner", %"class.xercesc_2_7::XMLScanner"* %45, i32 0, i32 10, !dbg !4923
  %46 = load i8, i8* %fValidate, align 8, !dbg !4923
  %tobool14 = trunc i8 %46 to i1, !dbg !4923
  br i1 %tobool14, label %if.then15, label %if.end17, !dbg !4926

if.then15:                                        ; preds = %if.then13
  %47 = bitcast %"class.xercesc_2_7::IGXMLScanner"* %this1 to %"class.xercesc_2_7::XMLScanner"*, !dbg !4927
  invoke void @_ZN11xercesc_2_710XMLScanner11checkIDRefsEv(%"class.xercesc_2_7::XMLScanner"* %47)
          to label %invoke.cont16 unwind label %lpad, !dbg !4927

invoke.cont16:                                    ; preds = %if.then15
  br label %if.end17, !dbg !4929

if.end17:                                         ; preds = %invoke.cont16, %if.then13
  %48 = bitcast %"class.xercesc_2_7::IGXMLScanner"* %this1 to %"class.xercesc_2_7::XMLScanner"*, !dbg !4930
  %fReaderMgr18 = getelementptr inbounds %"class.xercesc_2_7::XMLScanner", %"class.xercesc_2_7::XMLScanner"* %48, i32 0, i32 49, !dbg !4930
  %call20 = invoke zeroext i1 @_ZNK11xercesc_2_79ReaderMgr5atEOFEv(%"class.xercesc_2_7::ReaderMgr"* %fReaderMgr18)
          to label %invoke.cont19 unwind label %lpad, !dbg !4932

invoke.cont19:                                    ; preds = %if.end17
  br i1 %call20, label %if.end23, label %if.then21, !dbg !4933

if.then21:                                        ; preds = %invoke.cont19
  %49 = bitcast %"class.xercesc_2_7::IGXMLScanner"* %this1 to %"class.xercesc_2_7::XMLScanner"*, !dbg !4934
  invoke void @_ZN11xercesc_2_710XMLScanner17scanMiscellaneousEv(%"class.xercesc_2_7::XMLScanner"* %49)
          to label %invoke.cont22 unwind label %lpad, !dbg !4934

invoke.cont22:                                    ; preds = %if.then21
  br label %if.end23, !dbg !4934

if.end23:                                         ; preds = %invoke.cont22, %invoke.cont19
  br label %if.end24, !dbg !4935

if.end24:                                         ; preds = %if.end23, %invoke.cont11
  br label %if.end25

if.end25:                                         ; preds = %if.end24, %invoke.cont10
  %50 = bitcast %"class.xercesc_2_7::IGXMLScanner"* %this1 to %"class.xercesc_2_7::XMLScanner"*, !dbg !4936
  %fDocHandler26 = getelementptr inbounds %"class.xercesc_2_7::XMLScanner", %"class.xercesc_2_7::XMLScanner"* %50, i32 0, i32 41, !dbg !4936
  %51 = load %"class.xercesc_2_7::XMLDocumentHandler"*, %"class.xercesc_2_7::XMLDocumentHandler"** %fDocHandler26, align 8, !dbg !4936
  %tobool27 = icmp ne %"class.xercesc_2_7::XMLDocumentHandler"* %51, null, !dbg !4936
  br i1 %tobool27, label %if.then28, label %if.end33, !dbg !4938

if.then28:                                        ; preds = %if.end25
  %52 = bitcast %"class.xercesc_2_7::IGXMLScanner"* %this1 to %"class.xercesc_2_7::XMLScanner"*, !dbg !4939
  %fDocHandler29 = getelementptr inbounds %"class.xercesc_2_7::XMLScanner", %"class.xercesc_2_7::XMLScanner"* %52, i32 0, i32 41, !dbg !4939
  %53 = load %"class.xercesc_2_7::XMLDocumentHandler"*, %"class.xercesc_2_7::XMLDocumentHandler"** %fDocHandler29, align 8, !dbg !4939
  %54 = bitcast %"class.xercesc_2_7::XMLDocumentHandler"* %53 to void (%"class.xercesc_2_7::XMLDocumentHandler"*)***, !dbg !4940
  %vtable30 = load void (%"class.xercesc_2_7::XMLDocumentHandler"*)**, void (%"class.xercesc_2_7::XMLDocumentHandler"*)*** %54, align 8, !dbg !4940
  %vfn31 = getelementptr inbounds void (%"class.xercesc_2_7::XMLDocumentHandler"*)*, void (%"class.xercesc_2_7::XMLDocumentHandler"*)** %vtable30, i64 5, !dbg !4940
  %55 = load void (%"class.xercesc_2_7::XMLDocumentHandler"*)*, void (%"class.xercesc_2_7::XMLDocumentHandler"*)** %vfn31, align 8, !dbg !4940
  invoke void %55(%"class.xercesc_2_7::XMLDocumentHandler"* %53)
          to label %invoke.cont32 unwind label %lpad, !dbg !4940

invoke.cont32:                                    ; preds = %if.then28
  br label %if.end33, !dbg !4939

if.end33:                                         ; preds = %invoke.cont32, %if.end25
  br label %try.cont94, !dbg !4874

lpad39:                                           ; preds = %invoke.cont40, %catch
  %56 = landingpad { i8*, i32 }
          cleanup, !dbg !4941
  %57 = extractvalue { i8*, i32 } %56, 0, !dbg !4941
  store i8* %57, i8** %exn.slot, align 8, !dbg !4941
  %58 = extractvalue { i8*, i32 } %56, 1, !dbg !4941
  store i32 %58, i32* %ehselector.slot, align 4, !dbg !4941
  invoke void @__cxa_end_catch()
          to label %invoke.cont41 unwind label %terminate.lpad, !dbg !4892

invoke.cont41:                                    ; preds = %lpad39
  br label %ehcleanup95, !dbg !4892

lpad45:                                           ; preds = %invoke.cont73, %invoke.cont71, %if.else68, %invoke.cont65, %invoke.cont63, %if.then60, %if.else56, %invoke.cont53, %invoke.cont51, %if.then48, %catch42
  %59 = landingpad { i8*, i32 }
          cleanup
          catch i8* bitcast ({ i8*, i8*, i8* }* @_ZTIN11xercesc_2_720OutOfMemoryExceptionE to i8*), !dbg !4942
  %60 = extractvalue { i8*, i32 } %59, 0, !dbg !4942
  store i8* %60, i8** %exn.slot, align 8, !dbg !4942
  %61 = extractvalue { i8*, i32 } %59, 1, !dbg !4942
  store i32 %61, i32* %ehselector.slot, align 4, !dbg !4942
  br label %catch.dispatch78, !dbg !4942

catch.dispatch78:                                 ; preds = %lpad45
  %sel79 = load i32, i32* %ehselector.slot, align 4, !dbg !4943
  %62 = call i32 @llvm.eh.typeid.for(i8* bitcast ({ i8*, i8*, i8* }* @_ZTIN11xercesc_2_720OutOfMemoryExceptionE to i8*)) #10, !dbg !4943
  %matches80 = icmp eq i32 %sel79, %62, !dbg !4943
  br i1 %matches80, label %catch81, label %ehcleanup, !dbg !4943

catch81:                                          ; preds = %catch.dispatch78
  call void @llvm.dbg.declare(metadata %"class.xercesc_2_7::OutOfMemoryException"** %1, metadata !4944, metadata !DIExpression()), !dbg !4945
  %exn82 = load i8*, i8** %exn.slot, align 8, !dbg !4943
  %63 = call i8* @__cxa_begin_catch(i8* %exn82) #10, !dbg !4943
  %exn.byref83 = bitcast i8* %63 to %"class.xercesc_2_7::OutOfMemoryException"*, !dbg !4943
  store %"class.xercesc_2_7::OutOfMemoryException"* %exn.byref83, %"class.xercesc_2_7::OutOfMemoryException"** %1, align 8, !dbg !4943
  invoke void @_ZN11xercesc_2_717JanitorMemFunCallINS_9ReaderMgrEE7releaseEv(%"class.xercesc_2_7::JanitorMemFunCall.65"* %resetReaderMgr)
          to label %invoke.cont85 unwind label %lpad84, !dbg !4946

invoke.cont85:                                    ; preds = %catch81
  invoke void @__cxa_rethrow() #13
          to label %unreachable unwind label %lpad84, !dbg !4948

if.else56:                                        ; preds = %invoke.cont46
  %64 = load %"class.xercesc_2_7::XMLException"*, %"class.xercesc_2_7::XMLException"** %excToCatch, align 8, !dbg !4949
  %call58 = invoke i32 @_ZNK11xercesc_2_712XMLException12getErrorTypeEv(%"class.xercesc_2_7::XMLException"* %64)
          to label %invoke.cont57 unwind label %lpad45, !dbg !4951

invoke.cont57:                                    ; preds = %if.else56
  %cmp59 = icmp sge i32 %call58, 2, !dbg !4952
  br i1 %cmp59, label %if.then60, label %if.else68, !dbg !4953

if.then60:                                        ; preds = %invoke.cont57
  %65 = bitcast %"class.xercesc_2_7::IGXMLScanner"* %this1 to %"class.xercesc_2_7::XMLScanner"*, !dbg !4954
  %66 = load %"class.xercesc_2_7::XMLException"*, %"class.xercesc_2_7::XMLException"** %excToCatch, align 8, !dbg !4955
  %67 = bitcast %"class.xercesc_2_7::XMLException"* %66 to i16* (%"class.xercesc_2_7::XMLException"*)***, !dbg !4956
  %vtable61 = load i16* (%"class.xercesc_2_7::XMLException"*)**, i16* (%"class.xercesc_2_7::XMLException"*)*** %67, align 8, !dbg !4956
  %vfn62 = getelementptr inbounds i16* (%"class.xercesc_2_7::XMLException"*)*, i16* (%"class.xercesc_2_7::XMLException"*)** %vtable61, i64 2, !dbg !4956
  %68 = load i16* (%"class.xercesc_2_7::XMLException"*)*, i16* (%"class.xercesc_2_7::XMLException"*)** %vfn62, align 8, !dbg !4956
  %call64 = invoke i16* %68(%"class.xercesc_2_7::XMLException"* %66)
          to label %invoke.cont63 unwind label %lpad45, !dbg !4956

invoke.cont63:                                    ; preds = %if.then60
  %69 = load %"class.xercesc_2_7::XMLException"*, %"class.xercesc_2_7::XMLException"** %excToCatch, align 8, !dbg !4957
  %call66 = invoke i16* @_ZNK11xercesc_2_712XMLException10getMessageEv(%"class.xercesc_2_7::XMLException"* %69)
          to label %invoke.cont65 unwind label %lpad45, !dbg !4958

invoke.cont65:                                    ; preds = %invoke.cont63
  invoke void @_ZN11xercesc_2_710XMLScanner9emitErrorENS_7XMLErrs5CodesEPKtS4_S4_S4_(%"class.xercesc_2_7::XMLScanner"* %65, i32 292, i16* %call64, i16* %call66, i16* null, i16* null)
          to label %invoke.cont67 unwind label %lpad45, !dbg !4954

invoke.cont67:                                    ; preds = %invoke.cont65
  br label %if.end76, !dbg !4954

if.else68:                                        ; preds = %invoke.cont57
  %70 = bitcast %"class.xercesc_2_7::IGXMLScanner"* %this1 to %"class.xercesc_2_7::XMLScanner"*, !dbg !4959
  %71 = load %"class.xercesc_2_7::XMLException"*, %"class.xercesc_2_7::XMLException"** %excToCatch, align 8, !dbg !4960
  %72 = bitcast %"class.xercesc_2_7::XMLException"* %71 to i16* (%"class.xercesc_2_7::XMLException"*)***, !dbg !4961
  %vtable69 = load i16* (%"class.xercesc_2_7::XMLException"*)**, i16* (%"class.xercesc_2_7::XMLException"*)*** %72, align 8, !dbg !4961
  %vfn70 = getelementptr inbounds i16* (%"class.xercesc_2_7::XMLException"*)*, i16* (%"class.xercesc_2_7::XMLException"*)** %vtable69, i64 2, !dbg !4961
  %73 = load i16* (%"class.xercesc_2_7::XMLException"*)*, i16* (%"class.xercesc_2_7::XMLException"*)** %vfn70, align 8, !dbg !4961
  %call72 = invoke i16* %73(%"class.xercesc_2_7::XMLException"* %71)
          to label %invoke.cont71 unwind label %lpad45, !dbg !4961

invoke.cont71:                                    ; preds = %if.else68
  %74 = load %"class.xercesc_2_7::XMLException"*, %"class.xercesc_2_7::XMLException"** %excToCatch, align 8, !dbg !4962
  %call74 = invoke i16* @_ZNK11xercesc_2_712XMLException10getMessageEv(%"class.xercesc_2_7::XMLException"* %74)
          to label %invoke.cont73 unwind label %lpad45, !dbg !4963

invoke.cont73:                                    ; preds = %invoke.cont71
  invoke void @_ZN11xercesc_2_710XMLScanner9emitErrorENS_7XMLErrs5CodesEPKtS4_S4_S4_(%"class.xercesc_2_7::XMLScanner"* %70, i32 157, i16* %call72, i16* %call74, i16* null, i16* null)
          to label %invoke.cont75 unwind label %lpad45, !dbg !4959

invoke.cont75:                                    ; preds = %invoke.cont73
  br label %if.end76

if.end76:                                         ; preds = %invoke.cont75, %invoke.cont67
  br label %if.end77

if.end77:                                         ; preds = %if.end76, %invoke.cont55
  br label %try.cont, !dbg !4943

lpad84:                                           ; preds = %invoke.cont85, %catch81
  %75 = landingpad { i8*, i32 }
          cleanup, !dbg !4964
  %76 = extractvalue { i8*, i32 } %75, 0, !dbg !4964
  store i8* %76, i8** %exn.slot, align 8, !dbg !4964
  %77 = extractvalue { i8*, i32 } %75, 1, !dbg !4964
  store i32 %77, i32* %ehselector.slot, align 4, !dbg !4964
  invoke void @__cxa_end_catch()
          to label %invoke.cont86 unwind label %terminate.lpad, !dbg !4965

invoke.cont86:                                    ; preds = %lpad84
  br label %ehcleanup, !dbg !4965

try.cont:                                         ; preds = %if.end77
  invoke void @__cxa_end_catch()
          to label %invoke.cont88 unwind label %lpad87, !dbg !4884

invoke.cont88:                                    ; preds = %try.cont
  br label %try.cont94, !dbg !4884

lpad87:                                           ; preds = %try.cont
  %78 = landingpad { i8*, i32 }
          cleanup, !dbg !4881
  %79 = extractvalue { i8*, i32 } %78, 0, !dbg !4881
  store i8* %79, i8** %exn.slot, align 8, !dbg !4881
  %80 = extractvalue { i8*, i32 } %78, 1, !dbg !4881
  store i32 %80, i32* %ehselector.slot, align 4, !dbg !4881
  br label %ehcleanup95, !dbg !4881

ehcleanup:                                        ; preds = %invoke.cont86, %catch.dispatch78
  invoke void @__cxa_end_catch()
          to label %invoke.cont89 unwind label %terminate.lpad, !dbg !4884

invoke.cont89:                                    ; preds = %ehcleanup
  br label %ehcleanup95, !dbg !4884

ehcleanup95:                                      ; preds = %invoke.cont89, %lpad87, %invoke.cont41, %catch.fallthrough37
  call void @_ZN11xercesc_2_717JanitorMemFunCallINS_9ReaderMgrEED2Ev(%"class.xercesc_2_7::JanitorMemFunCall.65"* %resetReaderMgr) #10, !dbg !4881
  br label %eh.resume, !dbg !4881

eh.resume:                                        ; preds = %ehcleanup95
  %exn96 = load i8*, i8** %exn.slot, align 8, !dbg !4881
  %sel97 = load i32, i32* %ehselector.slot, align 4, !dbg !4881
  %lpad.val = insertvalue { i8*, i32 } undef, i8* %exn96, 0, !dbg !4881
  %lpad.val98 = insertvalue { i8*, i32 } %lpad.val, i32 %sel97, 1, !dbg !4881
  resume { i8*, i32 } %lpad.val98, !dbg !4881

terminate.lpad:                                   ; preds = %ehcleanup, %lpad84, %lpad39
  %81 = landingpad { i8*, i32 }
          catch i8* null, !dbg !4892
  %82 = extractvalue { i8*, i32 } %81, 0, !dbg !4892
  call void @__clang_call_terminate(i8* %82) #12, !dbg !4892
  unreachable, !dbg !4892

unreachable:                                      ; preds = %invoke.cont85, %invoke.cont40
  unreachable
}

declare dso_local void @_ZN11xercesc_2_79ReaderMgr5resetEv(%"class.xercesc_2_7::ReaderMgr"*) #7

; Function Attrs: noinline nounwind uwtable
