; ModuleID = 'XPathFactoryDefault.cpp'
source_filename = "XPathFactoryDefault.cpp"
target datalayout = "e-m:e-p270:32:32-p271:32:32-p272:64:64-i64:64-f80:128-n8:16:32:64-S128"
target triple = "x86_64-unknown-linux-gnu"

%"class.xalanc_1_10::XPathFactoryDefault" = type { %"class.xalanc_1_10::XPathFactory", %"class.xalanc_1_10::XalanSet" }
%"class.xalanc_1_10::XPathFactory" = type { i32 (...)** }
%"class.xalanc_1_10::XalanSet" = type { %"class.xalanc_1_10::XalanMap" }
%"class.xalanc_1_10::XalanMap" = type { %"class.xalanc_1_10::XalanHasher", %"struct.std::equal_to", %"class.xercesc_2_7::MemoryManager"*, float, i64, i64, %"class.xalanc_1_10::XalanList", %"class.xalanc_1_10::XalanList", %"class.xalanc_1_10::XalanVector.3", i64, i64 }
%"class.xalanc_1_10::XalanHasher" = type { i8 }
%"struct.std::equal_to" = type { i8 }
%"class.xalanc_1_10::XalanList" = type { %"class.xercesc_2_7::MemoryManager"*, %"struct.xalanc_1_10::XalanList<xalanc_1_10::XalanMap<const xalanc_1_10::XPath *, bool, xalanc_1_10::XalanMapKeyTraits<const xalanc_1_10::XPath *> >::Entry>::Node"*, %"struct.xalanc_1_10::XalanList<xalanc_1_10::XalanMap<const xalanc_1_10::XPath *, bool, xalanc_1_10::XalanMapKeyTraits<const xalanc_1_10::XPath *> >::Entry>::Node"* }
%"struct.xalanc_1_10::XalanList<xalanc_1_10::XalanMap<const xalanc_1_10::XPath *, bool, xalanc_1_10::XalanMapKeyTraits<const xalanc_1_10::XPath *> >::Entry>::Node" = type { %"struct.xalanc_1_10::XalanMap<const xalanc_1_10::XPath *, bool, xalanc_1_10::XalanMapKeyTraits<const xalanc_1_10::XPath *> >::Entry", %"struct.xalanc_1_10::XalanList<xalanc_1_10::XalanMap<const xalanc_1_10::XPath *, bool, xalanc_1_10::XalanMapKeyTraits<const xalanc_1_10::XPath *> >::Entry>::Node"*, %"struct.xalanc_1_10::XalanList<xalanc_1_10::XalanMap<const xalanc_1_10::XPath *, bool, xalanc_1_10::XalanMapKeyTraits<const xalanc_1_10::XPath *> >::Entry>::Node"* }
%"struct.xalanc_1_10::XalanMap<const xalanc_1_10::XPath *, bool, xalanc_1_10::XalanMapKeyTraits<const xalanc_1_10::XPath *> >::Entry" = type <{ %"struct.std::pair"*, i8, [7 x i8] }>
%"struct.std::pair" = type <{ %"class.xalanc_1_10::XPath"*, i8, [7 x i8] }>
%"class.xalanc_1_10::XPath" = type <{ %"class.xalanc_1_10::XPathExpression", %"class.xercesc_2_7::Locator"*, i8, [7 x i8] }>
%"class.xalanc_1_10::XPathExpression" = type { %"class.xalanc_1_10::XalanVector", i32, %"class.xalanc_1_10::XalanVector.0", i32, %"class.xalanc_1_10::XalanDOMString"*, %"class.xalanc_1_10::XalanVector.2" }
%"class.xalanc_1_10::XalanVector" = type { %"class.xercesc_2_7::MemoryManager"*, i64, i64, i32* }
%"class.xalanc_1_10::XalanVector.0" = type { %"class.xercesc_2_7::MemoryManager"*, i64, i64, %"class.xalanc_1_10::XToken"* }
%"class.xalanc_1_10::XToken" = type <{ %"class.xalanc_1_10::XObject", %"class.xalanc_1_10::XalanDOMString"*, double, i8, [7 x i8] }>
%"class.xalanc_1_10::XObject" = type { %"class.xalanc_1_10::XalanReferenceCountedObject.base", i32, %"class.xalanc_1_10::XObjectFactory"* }
%"class.xalanc_1_10::XalanReferenceCountedObject.base" = type <{ i32 (...)**, i32 }>
%"class.xalanc_1_10::XObjectFactory" = type opaque
%"class.xalanc_1_10::XalanDOMString" = type <{ %"class.xalanc_1_10::XalanVector.1", i32, [4 x i8] }>
%"class.xalanc_1_10::XalanVector.1" = type { %"class.xercesc_2_7::MemoryManager"*, i64, i64, i16* }
%"class.xalanc_1_10::XalanVector.2" = type { %"class.xercesc_2_7::MemoryManager"*, i64, i64, double* }
%"class.xercesc_2_7::Locator" = type { i32 (...)** }
%"class.xalanc_1_10::XalanVector.3" = type { %"class.xercesc_2_7::MemoryManager"*, i64, i64, %"class.xalanc_1_10::XalanVector.4"* }
%"class.xalanc_1_10::XalanVector.4" = type { %"class.xercesc_2_7::MemoryManager"*, i64, i64, %"struct.xalanc_1_10::XalanListIteratorBase"* }
%"struct.xalanc_1_10::XalanListIteratorBase" = type { %"struct.xalanc_1_10::XalanList<xalanc_1_10::XalanMap<const xalanc_1_10::XPath *, bool, xalanc_1_10::XalanMapKeyTraits<const xalanc_1_10::XPath *> >::Entry>::Node"* }
%"class.xercesc_2_7::MemoryManager" = type { i32 (...)** }
%"class.xalanc_1_10::XalanMemMgrAutoPtr" = type { %"class.xalanc_1_10::XalanMemMgrAutoPtr<xalanc_1_10::XPathFactoryDefault, false>::MemMgrAutoPtrData" }
%"class.xalanc_1_10::XalanMemMgrAutoPtr<xalanc_1_10::XPathFactoryDefault, false>::MemMgrAutoPtrData" = type { %"struct.std::pair.5" }
%"struct.std::pair.5" = type { %"class.xercesc_2_7::MemoryManager"*, %"class.xalanc_1_10::XPathFactoryDefault"* }
%"struct.xalanc_1_10::XalanSetIterator" = type { %"struct.xalanc_1_10::XalanMapIterator" }
%"struct.xalanc_1_10::XalanMapIterator" = type { %"struct.xalanc_1_10::XalanListIteratorBase" }
%"struct.xalanc_1_10::XPathFactory::DeleteXPathFunctor" = type <{ %"class.xalanc_1_10::XPathFactory"*, i8, [7 x i8] }>
%"struct.std::unary_function.8" = type { i8 }
%"struct.xalanc_1_10::XalanMapIterator.9" = type { %"struct.xalanc_1_10::XalanListIteratorBase" }
%"class.std::__pair_base.6" = type { i8 }
%"struct.std::random_access_iterator_tag" = type { i8 }
%"struct.xalanc_1_10::XalanListIteratorBase.10" = type { %"struct.xalanc_1_10::XalanList<xalanc_1_10::XalanMap<const xalanc_1_10::XPath *, bool, xalanc_1_10::XalanMapKeyTraits<const xalanc_1_10::XPath *> >::Entry>::Node"* }

$_ZN11xalanc_1_108XalanSetIPKNS_5XPathEEC2ERN11xercesc_2_713MemoryManagerE = comdat any

$_ZN11xalanc_1_1018XalanMemMgrAutoPtrINS_19XPathFactoryDefaultELb0EEC2ERN11xercesc_2_713MemoryManagerEPS1_ = comdat any

$_ZNK11xalanc_1_1018XalanMemMgrAutoPtrINS_19XPathFactoryDefaultELb0EE3getEv = comdat any

$_ZN11xalanc_1_1018XalanMemMgrAutoPtrINS_19XPathFactoryDefaultELb0EE7releaseEv = comdat any

$_ZN11xalanc_1_1018XalanMemMgrAutoPtrINS_19XPathFactoryDefaultELb0EED2Ev = comdat any

$_ZN11xalanc_1_108XalanSetIPKNS_5XPathEED2Ev = comdat any

$__clang_call_terminate = comdat any

$_ZSt8for_eachIN11xalanc_1_1016XalanSetIteratorIKPKNS0_5XPathENS0_16XalanMapIteratorINS0_27XalanMapConstIteratorTraitsISt4pairIS5_bEEENS0_21XalanListIteratorBaseINS0_23XalanListIteratorTraitsINS0_8XalanMapIS4_bNS0_17XalanMapKeyTraitsIS4_EEE5EntryEEENS0_9XalanListISH_E4NodeEEEEEEENS0_12XPathFactory18DeleteXPathFunctorEET0_T_SS_SR_ = comdat any

$_ZNK11xalanc_1_108XalanSetIPKNS_5XPathEE5beginEv = comdat any

$_ZNK11xalanc_1_108XalanSetIPKNS_5XPathEE3endEv = comdat any

$_ZN11xalanc_1_1012XPathFactory18DeleteXPathFunctorC2ERS0_b = comdat any

$_ZN11xalanc_1_108XalanSetIPKNS_5XPathEE5clearEv = comdat any

$_ZNK11xalanc_1_108XalanSetIPKNS_5XPathEE5countERKS3_ = comdat any

$_ZN11xalanc_1_108XalanSetIPKNS_5XPathEE5eraseERKS3_ = comdat any

$_ZN11xalanc_1_1020destroyObjWithMemMgrINS_5XPathEEEvPKT_RN11xercesc_2_713MemoryManagerE = comdat any

$_ZN11xalanc_1_108XalanSetIPKNS_5XPathEE16getMemoryManagerEv = comdat any

$_ZN11xalanc_1_108XalanSetIPKNS_5XPathEE6insertERKS3_ = comdat any

$_ZN11xalanc_1_108XalanMapIPKNS_5XPathEbNS_17XalanMapKeyTraitsIS3_EEED2Ev = comdat any

$_ZN11xalanc_1_108XalanMapIPKNS_5XPathEbNS_17XalanMapKeyTraitsIS3_EEE15doRemoveEntriesEv = comdat any

$_ZNK11xalanc_1_1011XalanVectorINS0_INS_21XalanListIteratorBaseINS_23XalanListIteratorTraitsINS_8XalanMapIPKNS_5XPathEbNS_17XalanMapKeyTraitsIS6_EEE5EntryEEENS_9XalanListISA_E4NodeEEENS_31MemoryManagedConstructionTraitsISF_EEEENS_32ConstructWithMemoryManagerTraitsISI_EEE5emptyEv = comdat any

$_ZN11xalanc_1_109XalanListINS_8XalanMapIPKNS_5XPathEbNS_17XalanMapKeyTraitsIS4_EEE5EntryEE5beginEv = comdat any

$_ZNK11xalanc_1_1021XalanListIteratorBaseINS_23XalanListIteratorTraitsINS_8XalanMapIPKNS_5XPathEbNS_17XalanMapKeyTraitsIS5_EEE5EntryEEENS_9XalanListIS9_E4NodeEEneERKSE_ = comdat any

$_ZN11xalanc_1_109XalanListINS_8XalanMapIPKNS_5XPathEbNS_17XalanMapKeyTraitsIS4_EEE5EntryEE3endEv = comdat any

$_ZN11xalanc_1_108XalanMapIPKNS_5XPathEbNS_17XalanMapKeyTraitsIS3_EEE10deallocateEPSt4pairIKS3_bE = comdat any

$_ZNK11xalanc_1_1021XalanListIteratorBaseINS_23XalanListIteratorTraitsINS_8XalanMapIPKNS_5XPathEbNS_17XalanMapKeyTraitsIS5_EEE5EntryEEENS_9XalanListIS9_E4NodeEEptEv = comdat any

$_ZN11xalanc_1_1021XalanListIteratorBaseINS_23XalanListIteratorTraitsINS_8XalanMapIPKNS_5XPathEbNS_17XalanMapKeyTraitsIS5_EEE5EntryEEENS_9XalanListIS9_E4NodeEEppEv = comdat any

$_ZN11xalanc_1_1011XalanVectorINS0_INS_21XalanListIteratorBaseINS_23XalanListIteratorTraitsINS_8XalanMapIPKNS_5XPathEbNS_17XalanMapKeyTraitsIS6_EEE5EntryEEENS_9XalanListISA_E4NodeEEENS_31MemoryManagedConstructionTraitsISF_EEEENS_32ConstructWithMemoryManagerTraitsISI_EEED2Ev = comdat any

$_ZN11xalanc_1_109XalanListINS_8XalanMapIPKNS_5XPathEbNS_17XalanMapKeyTraitsIS4_EEE5EntryEED2Ev = comdat any

$_ZNK11xalanc_1_108XalanMapIPKNS_5XPathEbNS_17XalanMapKeyTraitsIS3_EEE4sizeEv = comdat any

$_ZN11xalanc_1_108XalanMapIPKNS_5XPathEbNS_17XalanMapKeyTraitsIS3_EEE13doRemoveEntryERKNS_16XalanMapIteratorINS_22XalanMapIteratorTraitsISt4pairIKS3_bEEENS_21XalanListIteratorBaseINS_23XalanListIteratorTraitsINS6_5EntryEEENS_9XalanListISF_E4NodeEEEEE = comdat any

$_ZN11xalanc_1_108XalanMapIPKNS_5XPathEbNS_17XalanMapKeyTraitsIS3_EEE5beginEv = comdat any

$_ZNK11xalanc_1_1016XalanMapIteratorINS_22XalanMapIteratorTraitsISt4pairIKPKNS_5XPathEbEEENS_21XalanListIteratorBaseINS_23XalanListIteratorTraitsINS_8XalanMapIS5_bNS_17XalanMapKeyTraitsIS5_EEE5EntryEEENS_9XalanListISF_E4NodeEEEEdeEv = comdat any

$_ZN11xalanc_1_109XalanListINS_8XalanMapIPKNS_5XPathEbNS_17XalanMapKeyTraitsIS4_EEE5EntryEE6spliceENS_21XalanListIteratorBaseINS_23XalanListIteratorTraitsIS8_EENS9_4NodeEEERS9_SE_ = comdat any

$_ZN11xalanc_1_1021XalanListIteratorBaseINS_23XalanListIteratorTraitsINS_8XalanMapIPKNS_5XPathEbNS_17XalanMapKeyTraitsIS5_EEE5EntryEEENS_9XalanListIS9_E4NodeEEC2ERKSE_ = comdat any

$_ZN11xalanc_1_1021XalanListIteratorBaseINS_23XalanListIteratorTraitsINS_8XalanMapIPKNS_5XPathEbNS_17XalanMapKeyTraitsIS5_EEE5EntryEEENS_9XalanListIS9_E4NodeEE4nodeEv = comdat any

$_ZN11xalanc_1_1016XalanMapIteratorINS_22XalanMapIteratorTraitsISt4pairIKPKNS_5XPathEbEEENS_21XalanListIteratorBaseINS_23XalanListIteratorTraitsINS_8XalanMapIS5_bNS_17XalanMapKeyTraitsIS5_EEE5EntryEEENS_9XalanListISF_E4NodeEEEEC2ERKSK_ = comdat any

$_ZNK11xalanc_1_1011XalanVectorINS0_INS_21XalanListIteratorBaseINS_23XalanListIteratorTraitsINS_8XalanMapIPKNS_5XPathEbNS_17XalanMapKeyTraitsIS6_EEE5EntryEEENS_9XalanListISA_E4NodeEEENS_31MemoryManagedConstructionTraitsISF_EEEENS_32ConstructWithMemoryManagerTraitsISI_EEE10invariantsEv = comdat any

$_ZN11xalanc_1_109XalanListINS_8XalanMapIPKNS_5XPathEbNS_17XalanMapKeyTraitsIS4_EEE5EntryEE11getListHeadEv = comdat any

$_ZN11xalanc_1_1021XalanListIteratorBaseINS_23XalanListIteratorTraitsINS_8XalanMapIPKNS_5XPathEbNS_17XalanMapKeyTraitsIS5_EEE5EntryEEENS_9XalanListIS9_E4NodeEEC2ERSD_ = comdat any

$_ZN11xalanc_1_109XalanListINS_8XalanMapIPKNS_5XPathEbNS_17XalanMapKeyTraitsIS4_EEE5EntryEE8allocateEm = comdat any

$_ZNK11xalanc_1_1021XalanListIteratorBaseINS_23XalanListIteratorTraitsINS_8XalanMapIPKNS_5XPathEbNS_17XalanMapKeyTraitsIS5_EEE5EntryEEENS_9XalanListIS9_E4NodeEEeqERKSE_ = comdat any

$_ZN11xalanc_1_1011XalanVectorINS0_INS_21XalanListIteratorBaseINS_23XalanListIteratorTraitsINS_8XalanMapIPKNS_5XPathEbNS_17XalanMapKeyTraitsIS6_EEE5EntryEEENS_9XalanListISA_E4NodeEEENS_31MemoryManagedConstructionTraitsISF_EEEENS_32ConstructWithMemoryManagerTraitsISI_EEE7destroyEPSI_SM_ = comdat any

$_ZN11xalanc_1_1011XalanVectorINS0_INS_21XalanListIteratorBaseINS_23XalanListIteratorTraitsINS_8XalanMapIPKNS_5XPathEbNS_17XalanMapKeyTraitsIS6_EEE5EntryEEENS_9XalanListISA_E4NodeEEENS_31MemoryManagedConstructionTraitsISF_EEEENS_32ConstructWithMemoryManagerTraitsISI_EEE5beginEv = comdat any

$_ZN11xalanc_1_1011XalanVectorINS0_INS_21XalanListIteratorBaseINS_23XalanListIteratorTraitsINS_8XalanMapIPKNS_5XPathEbNS_17XalanMapKeyTraitsIS6_EEE5EntryEEENS_9XalanListISA_E4NodeEEENS_31MemoryManagedConstructionTraitsISF_EEEENS_32ConstructWithMemoryManagerTraitsISI_EEE3endEv = comdat any

$_ZN11xalanc_1_1011XalanVectorINS0_INS_21XalanListIteratorBaseINS_23XalanListIteratorTraitsINS_8XalanMapIPKNS_5XPathEbNS_17XalanMapKeyTraitsIS6_EEE5EntryEEENS_9XalanListISA_E4NodeEEENS_31MemoryManagedConstructionTraitsISF_EEEENS_32ConstructWithMemoryManagerTraitsISI_EEE10deallocateEPSI_ = comdat any

$_ZN11xalanc_1_1011XalanVectorINS0_INS_21XalanListIteratorBaseINS_23XalanListIteratorTraitsINS_8XalanMapIPKNS_5XPathEbNS_17XalanMapKeyTraitsIS6_EEE5EntryEEENS_9XalanListISA_E4NodeEEENS_31MemoryManagedConstructionTraitsISF_EEEENS_32ConstructWithMemoryManagerTraitsISI_EEE7destroyERSI_ = comdat any

$_ZN11xalanc_1_1011XalanVectorINS_21XalanListIteratorBaseINS_23XalanListIteratorTraitsINS_8XalanMapIPKNS_5XPathEbNS_17XalanMapKeyTraitsIS6_EEE5EntryEEENS_9XalanListISA_E4NodeEEENS_31MemoryManagedConstructionTraitsISF_EEED2Ev = comdat any

$_ZNK11xalanc_1_1011XalanVectorINS_21XalanListIteratorBaseINS_23XalanListIteratorTraitsINS_8XalanMapIPKNS_5XPathEbNS_17XalanMapKeyTraitsIS6_EEE5EntryEEENS_9XalanListISA_E4NodeEEENS_31MemoryManagedConstructionTraitsISF_EEE10invariantsEv = comdat any

$_ZN11xalanc_1_1011XalanVectorINS_21XalanListIteratorBaseINS_23XalanListIteratorTraitsINS_8XalanMapIPKNS_5XPathEbNS_17XalanMapKeyTraitsIS6_EEE5EntryEEENS_9XalanListISA_E4NodeEEENS_31MemoryManagedConstructionTraitsISF_EEE7destroyEPSF_SJ_ = comdat any

$_ZN11xalanc_1_1011XalanVectorINS_21XalanListIteratorBaseINS_23XalanListIteratorTraitsINS_8XalanMapIPKNS_5XPathEbNS_17XalanMapKeyTraitsIS6_EEE5EntryEEENS_9XalanListISA_E4NodeEEENS_31MemoryManagedConstructionTraitsISF_EEE5beginEv = comdat any

$_ZN11xalanc_1_1011XalanVectorINS_21XalanListIteratorBaseINS_23XalanListIteratorTraitsINS_8XalanMapIPKNS_5XPathEbNS_17XalanMapKeyTraitsIS6_EEE5EntryEEENS_9XalanListISA_E4NodeEEENS_31MemoryManagedConstructionTraitsISF_EEE3endEv = comdat any

$_ZN11xalanc_1_1011XalanVectorINS_21XalanListIteratorBaseINS_23XalanListIteratorTraitsINS_8XalanMapIPKNS_5XPathEbNS_17XalanMapKeyTraitsIS6_EEE5EntryEEENS_9XalanListISA_E4NodeEEENS_31MemoryManagedConstructionTraitsISF_EEE10deallocateEPSF_ = comdat any

$_ZN11xalanc_1_1011XalanVectorINS_21XalanListIteratorBaseINS_23XalanListIteratorTraitsINS_8XalanMapIPKNS_5XPathEbNS_17XalanMapKeyTraitsIS6_EEE5EntryEEENS_9XalanListISA_E4NodeEEENS_31MemoryManagedConstructionTraitsISF_EEE7destroyERSF_ = comdat any

$_ZN11xalanc_1_1011XalanVectorINS_21XalanListIteratorBaseINS_23XalanListIteratorTraitsINS_8XalanMapIPKNS_5XPathEbNS_17XalanMapKeyTraitsIS6_EEE5EntryEEENS_9XalanListISA_E4NodeEEENS_31MemoryManagedConstructionTraitsISF_EEE10endPointerEv = comdat any

$_ZN11xalanc_1_1011XalanVectorINS0_INS_21XalanListIteratorBaseINS_23XalanListIteratorTraitsINS_8XalanMapIPKNS_5XPathEbNS_17XalanMapKeyTraitsIS6_EEE5EntryEEENS_9XalanListISA_E4NodeEEENS_31MemoryManagedConstructionTraitsISF_EEEENS_32ConstructWithMemoryManagerTraitsISI_EEE10endPointerEv = comdat any

$_ZN11xalanc_1_109XalanListINS_8XalanMapIPKNS_5XPathEbNS_17XalanMapKeyTraitsIS4_EEE5EntryEE11destroyNodeERNS9_4NodeE = comdat any

$_ZN11xalanc_1_1021XalanListIteratorBaseINS_23XalanListIteratorTraitsINS_8XalanMapIPKNS_5XPathEbNS_17XalanMapKeyTraitsIS5_EEE5EntryEEENS_9XalanListIS9_E4NodeEEppEi = comdat any

$_ZN11xalanc_1_109XalanListINS_8XalanMapIPKNS_5XPathEbNS_17XalanMapKeyTraitsIS4_EEE5EntryEE10deallocateEPNS9_4NodeE = comdat any

$_ZN11xalanc_1_108XalanMapIPKNS_5XPathEbNS_17XalanMapKeyTraitsIS3_EEEC2ERN11xercesc_2_713MemoryManagerEfmm = comdat any

$_ZN11xalanc_1_109XalanListINS_8XalanMapIPKNS_5XPathEbNS_17XalanMapKeyTraitsIS4_EEE5EntryEEC2ERN11xercesc_2_713MemoryManagerE = comdat any

$_ZN11xalanc_1_1011XalanVectorINS0_INS_21XalanListIteratorBaseINS_23XalanListIteratorTraitsINS_8XalanMapIPKNS_5XPathEbNS_17XalanMapKeyTraitsIS6_EEE5EntryEEENS_9XalanListISA_E4NodeEEENS_31MemoryManagedConstructionTraitsISF_EEEENS_32ConstructWithMemoryManagerTraitsISI_EEEC2ERN11xercesc_2_713MemoryManagerEm = comdat any

$_ZN11xalanc_1_1011XalanVectorINS0_INS_21XalanListIteratorBaseINS_23XalanListIteratorTraitsINS_8XalanMapIPKNS_5XPathEbNS_17XalanMapKeyTraitsIS6_EEE5EntryEEENS_9XalanListISA_E4NodeEEENS_31MemoryManagedConstructionTraitsISF_EEEENS_32ConstructWithMemoryManagerTraitsISI_EEE8allocateEm = comdat any

$_ZN11xalanc_1_1018XalanMemMgrAutoPtrINS_19XPathFactoryDefaultELb0EE17MemMgrAutoPtrDataC2EPN11xercesc_2_713MemoryManagerEPS1_ = comdat any

$_ZNSt4pairIPN11xercesc_2_713MemoryManagerEPN11xalanc_1_1019XPathFactoryDefaultEEC2IRS2_RS5_Lb1EEEOT_OT0_ = comdat any

$_ZNK11xalanc_1_1018XalanMemMgrAutoPtrINS_19XPathFactoryDefaultELb0EE17MemMgrAutoPtrData10invariantsEv = comdat any

$_ZSt7forwardIRPN11xercesc_2_713MemoryManagerEEOT_RNSt16remove_referenceIS4_E4typeE = comdat any

$_ZSt7forwardIRPN11xalanc_1_1019XPathFactoryDefaultEEOT_RNSt16remove_referenceIS4_E4typeE = comdat any

$_ZN11xalanc_1_1018XalanMemMgrAutoPtrINS_19XPathFactoryDefaultELb0EE17MemMgrAutoPtrData10deallocateEv = comdat any

$_ZNK11xalanc_1_1018XalanMemMgrAutoPtrINS_19XPathFactoryDefaultELb0EE17MemMgrAutoPtrData12isInitilizedEv = comdat any

$_ZN11xalanc_1_1018XalanMemMgrAutoPtrINS_19XPathFactoryDefaultELb0EE17MemMgrAutoPtrData5resetEPN11xercesc_2_713MemoryManagerEPS1_ = comdat any

$_ZNK11xalanc_1_108XalanMapIPKNS_5XPathEbNS_17XalanMapKeyTraitsIS3_EEE5beginEv = comdat any

$_ZN11xalanc_1_1016XalanSetIteratorIKPKNS_5XPathENS_16XalanMapIteratorINS_27XalanMapConstIteratorTraitsISt4pairIS4_bEEENS_21XalanListIteratorBaseINS_23XalanListIteratorTraitsINS_8XalanMapIS3_bNS_17XalanMapKeyTraitsIS3_EEE5EntryEEENS_9XalanListISG_E4NodeEEEEEEC2ERKSM_ = comdat any

$_ZN11xalanc_1_1016XalanMapIteratorINS_27XalanMapConstIteratorTraitsISt4pairIKPKNS_5XPathEbEEENS_21XalanListIteratorBaseINS_23XalanListIteratorTraitsINS_8XalanMapIS5_bNS_17XalanMapKeyTraitsIS5_EEE5EntryEEENS_9XalanListISF_E4NodeEEEEC2ERKNS0_INS_22XalanMapIteratorTraitsIS7_EESK_EE = comdat any

$_ZN11xalanc_1_1016XalanMapIteratorINS_27XalanMapConstIteratorTraitsISt4pairIKPKNS_5XPathEbEEENS_21XalanListIteratorBaseINS_23XalanListIteratorTraitsINS_8XalanMapIS5_bNS_17XalanMapKeyTraitsIS5_EEE5EntryEEENS_9XalanListISF_E4NodeEEEEC2ERKSL_ = comdat any

$_ZNK11xalanc_1_108XalanMapIPKNS_5XPathEbNS_17XalanMapKeyTraitsIS3_EEE3endEv = comdat any

$_ZN11xalanc_1_108XalanMapIPKNS_5XPathEbNS_17XalanMapKeyTraitsIS3_EEE3endEv = comdat any

$_ZNK11xalanc_1_1016XalanSetIteratorIKPKNS_5XPathENS_16XalanMapIteratorINS_27XalanMapConstIteratorTraitsISt4pairIS4_bEEENS_21XalanListIteratorBaseINS_23XalanListIteratorTraitsINS_8XalanMapIS3_bNS_17XalanMapKeyTraitsIS3_EEE5EntryEEENS_9XalanListISG_E4NodeEEEEEEneERKSN_ = comdat any

$_ZNK11xalanc_1_1012XPathFactory18DeleteXPathFunctorclEPKNS_5XPathE = comdat any

$_ZNK11xalanc_1_1016XalanSetIteratorIKPKNS_5XPathENS_16XalanMapIteratorINS_27XalanMapConstIteratorTraitsISt4pairIS4_bEEENS_21XalanListIteratorBaseINS_23XalanListIteratorTraitsINS_8XalanMapIS3_bNS_17XalanMapKeyTraitsIS3_EEE5EntryEEENS_9XalanListISG_E4NodeEEEEEEdeEv = comdat any

$_ZN11xalanc_1_1016XalanSetIteratorIKPKNS_5XPathENS_16XalanMapIteratorINS_27XalanMapConstIteratorTraitsISt4pairIS4_bEEENS_21XalanListIteratorBaseINS_23XalanListIteratorTraitsINS_8XalanMapIS3_bNS_17XalanMapKeyTraitsIS3_EEE5EntryEEENS_9XalanListISG_E4NodeEEEEEEppEv = comdat any

$_ZNK11xalanc_1_1016XalanSetIteratorIKPKNS_5XPathENS_16XalanMapIteratorINS_27XalanMapConstIteratorTraitsISt4pairIS4_bEEENS_21XalanListIteratorBaseINS_23XalanListIteratorTraitsINS_8XalanMapIS3_bNS_17XalanMapKeyTraitsIS3_EEE5EntryEEENS_9XalanListISG_E4NodeEEEEEEeqERKSN_ = comdat any

$_ZNK11xalanc_1_1016XalanMapIteratorINS_27XalanMapConstIteratorTraitsISt4pairIKPKNS_5XPathEbEEENS_21XalanListIteratorBaseINS_23XalanListIteratorTraitsINS_8XalanMapIS5_bNS_17XalanMapKeyTraitsIS5_EEE5EntryEEENS_9XalanListISF_E4NodeEEEEeqERKSL_ = comdat any

$_ZN11xalanc_1_1012XPathFactory12returnObjectEPKNS_5XPathE = comdat any

$_ZNK11xalanc_1_1016XalanMapIteratorINS_27XalanMapConstIteratorTraitsISt4pairIKPKNS_5XPathEbEEENS_21XalanListIteratorBaseINS_23XalanListIteratorTraitsINS_8XalanMapIS5_bNS_17XalanMapKeyTraitsIS5_EEE5EntryEEENS_9XalanListISF_E4NodeEEEEptEv = comdat any

$_ZN11xalanc_1_1016XalanMapIteratorINS_27XalanMapConstIteratorTraitsISt4pairIKPKNS_5XPathEbEEENS_21XalanListIteratorBaseINS_23XalanListIteratorTraitsINS_8XalanMapIS5_bNS_17XalanMapKeyTraitsIS5_EEE5EntryEEENS_9XalanListISF_E4NodeEEEEppEv = comdat any

$_ZN11xalanc_1_1016XalanSetIteratorIKPKNS_5XPathENS_16XalanMapIteratorINS_27XalanMapConstIteratorTraitsISt4pairIS4_bEEENS_21XalanListIteratorBaseINS_23XalanListIteratorTraitsINS_8XalanMapIS3_bNS_17XalanMapKeyTraitsIS3_EEE5EntryEEENS_9XalanListISG_E4NodeEEEEEEC2ERKSN_ = comdat any

$_ZN11xalanc_1_108XalanMapIPKNS_5XPathEbNS_17XalanMapKeyTraitsIS3_EEE5clearEv = comdat any

$_ZN11xalanc_1_1011XalanVectorINS_21XalanListIteratorBaseINS_23XalanListIteratorTraitsINS_8XalanMapIPKNS_5XPathEbNS_17XalanMapKeyTraitsIS6_EEE5EntryEEENS_9XalanListISA_E4NodeEEENS_31MemoryManagedConstructionTraitsISF_EEE5clearEv = comdat any

$_ZN11xalanc_1_1011XalanVectorINS_21XalanListIteratorBaseINS_23XalanListIteratorTraitsINS_8XalanMapIPKNS_5XPathEbNS_17XalanMapKeyTraitsIS6_EEE5EntryEEENS_9XalanListISA_E4NodeEEENS_31MemoryManagedConstructionTraitsISF_EEE12shrinkToSizeEm = comdat any

$_ZN11xalanc_1_1011XalanVectorINS_21XalanListIteratorBaseINS_23XalanListIteratorTraitsINS_8XalanMapIPKNS_5XPathEbNS_17XalanMapKeyTraitsIS6_EEE5EntryEEENS_9XalanListISA_E4NodeEEENS_31MemoryManagedConstructionTraitsISF_EEE8pop_backEv = comdat any

$_ZNK11xalanc_1_108XalanSetIPKNS_5XPathEE4findERKS3_ = comdat any

$_ZNK11xalanc_1_108XalanMapIPKNS_5XPathEbNS_17XalanMapKeyTraitsIS3_EEE4findERKS3_ = comdat any

$_ZN11xalanc_1_108XalanMapIPKNS_5XPathEbNS_17XalanMapKeyTraitsIS3_EEE4findERKS3_ = comdat any

$_ZNK11xalanc_1_108XalanMapIPKNS_5XPathEbNS_17XalanMapKeyTraitsIS3_EEE6doHashERKS3_ = comdat any

$_ZN11xalanc_1_1011XalanVectorINS0_INS_21XalanListIteratorBaseINS_23XalanListIteratorTraitsINS_8XalanMapIPKNS_5XPathEbNS_17XalanMapKeyTraitsIS6_EEE5EntryEEENS_9XalanListISA_E4NodeEEENS_31MemoryManagedConstructionTraitsISF_EEEENS_32ConstructWithMemoryManagerTraitsISI_EEEixEm = comdat any

$_ZNKSt8equal_toIPKN11xalanc_1_105XPathEEclERKS3_S6_ = comdat any

$_ZNK11xalanc_1_108XalanMapIPKNS_5XPathEbNS_17XalanMapKeyTraitsIS3_EEE6doHashERKS3_m = comdat any

$_ZNK11xalanc_1_1011XalanVectorINS0_INS_21XalanListIteratorBaseINS_23XalanListIteratorTraitsINS_8XalanMapIPKNS_5XPathEbNS_17XalanMapKeyTraitsIS6_EEE5EntryEEENS_9XalanListISA_E4NodeEEENS_31MemoryManagedConstructionTraitsISF_EEEENS_32ConstructWithMemoryManagerTraitsISI_EEE4sizeEv = comdat any

$_ZNK11xalanc_1_1011XalanHasherIPKNS_5XPathEEclERKS3_ = comdat any

$_ZN11xalanc_1_108XalanMapIPKNS_5XPathEbNS_17XalanMapKeyTraitsIS3_EEE5eraseERKS3_ = comdat any

$_ZNK11xalanc_1_1016XalanMapIteratorINS_22XalanMapIteratorTraitsISt4pairIKPKNS_5XPathEbEEENS_21XalanListIteratorBaseINS_23XalanListIteratorTraitsINS_8XalanMapIS5_bNS_17XalanMapKeyTraitsIS5_EEE5EntryEEENS_9XalanListISF_E4NodeEEEEneERKSL_ = comdat any

$_ZN11xalanc_1_108XalanMapIPKNS_5XPathEbNS_17XalanMapKeyTraitsIS3_EEE7doEraseENS_16XalanMapIteratorINS_22XalanMapIteratorTraitsISt4pairIKS3_bEEENS_21XalanListIteratorBaseINS_23XalanListIteratorTraitsINS6_5EntryEEENS_9XalanListISF_E4NodeEEEEE = comdat any

$_ZN11xalanc_1_1016XalanMapIteratorINS_22XalanMapIteratorTraitsISt4pairIKPKNS_5XPathEbEEENS_21XalanListIteratorBaseINS_23XalanListIteratorTraitsINS_8XalanMapIS5_bNS_17XalanMapKeyTraitsIS5_EEE5EntryEEENS_9XalanListISF_E4NodeEEEEC2ERKSL_ = comdat any

$_ZNK11xalanc_1_1016XalanMapIteratorINS_22XalanMapIteratorTraitsISt4pairIKPKNS_5XPathEbEEENS_21XalanListIteratorBaseINS_23XalanListIteratorTraitsINS_8XalanMapIS5_bNS_17XalanMapKeyTraitsIS5_EEE5EntryEEENS_9XalanListISF_E4NodeEEEEeqERKSL_ = comdat any

$_ZN11xalanc_1_108XalanMapIPKNS_5XPathEbNS_17XalanMapKeyTraitsIS3_EEE14compactBucketsEv = comdat any

$_ZN11xalanc_1_1011XalanVectorINS_21XalanListIteratorBaseINS_23XalanListIteratorTraitsINS_8XalanMapIPKNS_5XPathEbNS_17XalanMapKeyTraitsIS6_EEE5EntryEEENS_9XalanListISA_E4NodeEEENS_31MemoryManagedConstructionTraitsISF_EEE5eraseEPSF_ = comdat any

$_ZNK11xalanc_1_1011XalanVectorINS_21XalanListIteratorBaseINS_23XalanListIteratorTraitsINS_8XalanMapIPKNS_5XPathEbNS_17XalanMapKeyTraitsIS6_EEE5EntryEEENS_9XalanListISA_E4NodeEEENS_31MemoryManagedConstructionTraitsISF_EEE4sizeEv = comdat any

$_ZNK11xalanc_1_1011XalanVectorINS_21XalanListIteratorBaseINS_23XalanListIteratorTraitsINS_8XalanMapIPKNS_5XPathEbNS_17XalanMapKeyTraitsIS6_EEE5EntryEEENS_9XalanListISA_E4NodeEEENS_31MemoryManagedConstructionTraitsISF_EEE8capacityEv = comdat any

$_ZN11xalanc_1_108XalanMapIPKNS_5XPathEbNS_17XalanMapKeyTraitsIS3_EEE26calculateNewBucketCapacityEmm = comdat any

$_ZN11xalanc_1_1011XalanVectorINS_21XalanListIteratorBaseINS_23XalanListIteratorTraitsINS_8XalanMapIPKNS_5XPathEbNS_17XalanMapKeyTraitsIS6_EEE5EntryEEENS_9XalanListISA_E4NodeEEENS_31MemoryManagedConstructionTraitsISF_EEEC2ERKSI_RN11xercesc_2_713MemoryManagerEm = comdat any

$_ZN11xalanc_1_1011XalanVectorINS_21XalanListIteratorBaseINS_23XalanListIteratorTraitsINS_8XalanMapIPKNS_5XPathEbNS_17XalanMapKeyTraitsIS6_EEE5EntryEEENS_9XalanListISA_E4NodeEEENS_31MemoryManagedConstructionTraitsISF_EEE4swapERSI_ = comdat any

$_ZN11xalanc_1_1011XalanVectorINS_21XalanListIteratorBaseINS_23XalanListIteratorTraitsINS_8XalanMapIPKNS_5XPathEbNS_17XalanMapKeyTraitsIS6_EEE5EntryEEENS_9XalanListISA_E4NodeEEENS_31MemoryManagedConstructionTraitsISF_EEE5eraseEPSF_SJ_ = comdat any

$_ZSt4copyIPN11xalanc_1_1021XalanListIteratorBaseINS0_23XalanListIteratorTraitsINS0_8XalanMapIPKNS0_5XPathEbNS0_17XalanMapKeyTraitsIS6_EEE5EntryEEENS0_9XalanListISA_E4NodeEEESG_ET0_T_SI_SH_ = comdat any

$_ZN11xalanc_1_1011XalanVectorINS_21XalanListIteratorBaseINS_23XalanListIteratorTraitsINS_8XalanMapIPKNS_5XPathEbNS_17XalanMapKeyTraitsIS6_EEE5EntryEEENS_9XalanListISA_E4NodeEEENS_31MemoryManagedConstructionTraitsISF_EEE11shrinkCountEm = comdat any

$_ZN11xalanc_1_1011XalanVectorINS_21XalanListIteratorBaseINS_23XalanListIteratorTraitsINS_8XalanMapIPKNS_5XPathEbNS_17XalanMapKeyTraitsIS6_EEE5EntryEEENS_9XalanListISA_E4NodeEEENS_31MemoryManagedConstructionTraitsISF_EEE14local_distanceEPKSF_SK_ = comdat any

$_ZSt13__copy_move_aILb0EPN11xalanc_1_1021XalanListIteratorBaseINS0_23XalanListIteratorTraitsINS0_8XalanMapIPKNS0_5XPathEbNS0_17XalanMapKeyTraitsIS6_EEE5EntryEEENS0_9XalanListISA_E4NodeEEESG_ET1_T0_SI_SH_ = comdat any

$_ZSt12__miter_baseIPN11xalanc_1_1021XalanListIteratorBaseINS0_23XalanListIteratorTraitsINS0_8XalanMapIPKNS0_5XPathEbNS0_17XalanMapKeyTraitsIS6_EEE5EntryEEENS0_9XalanListISA_E4NodeEEEET_SH_ = comdat any

$_ZSt12__niter_wrapIPN11xalanc_1_1021XalanListIteratorBaseINS0_23XalanListIteratorTraitsINS0_8XalanMapIPKNS0_5XPathEbNS0_17XalanMapKeyTraitsIS6_EEE5EntryEEENS0_9XalanListISA_E4NodeEEEET_RKSH_SH_ = comdat any

$_ZSt14__copy_move_a1ILb0EPN11xalanc_1_1021XalanListIteratorBaseINS0_23XalanListIteratorTraitsINS0_8XalanMapIPKNS0_5XPathEbNS0_17XalanMapKeyTraitsIS6_EEE5EntryEEENS0_9XalanListISA_E4NodeEEESG_ET1_T0_SI_SH_ = comdat any

$_ZSt12__niter_baseIPN11xalanc_1_1021XalanListIteratorBaseINS0_23XalanListIteratorTraitsINS0_8XalanMapIPKNS0_5XPathEbNS0_17XalanMapKeyTraitsIS6_EEE5EntryEEENS0_9XalanListISA_E4NodeEEEET_SH_ = comdat any

$_ZSt14__copy_move_a2ILb0EPN11xalanc_1_1021XalanListIteratorBaseINS0_23XalanListIteratorTraitsINS0_8XalanMapIPKNS0_5XPathEbNS0_17XalanMapKeyTraitsIS6_EEE5EntryEEENS0_9XalanListISA_E4NodeEEESG_ET1_T0_SI_SH_ = comdat any

$_ZNSt11__copy_moveILb0ELb0ESt26random_access_iterator_tagE8__copy_mIPN11xalanc_1_1021XalanListIteratorBaseINS3_23XalanListIteratorTraitsINS3_8XalanMapIPKNS3_5XPathEbNS3_17XalanMapKeyTraitsIS9_EEE5EntryEEENS3_9XalanListISD_E4NodeEEESJ_EET0_T_SL_SK_ = comdat any

$_ZN11xalanc_1_1021XalanListIteratorBaseINS_23XalanListIteratorTraitsINS_8XalanMapIPKNS_5XPathEbNS_17XalanMapKeyTraitsIS5_EEE5EntryEEENS_9XalanListIS9_E4NodeEEaSERKSE_ = comdat any

$_ZSt8distanceIPKN11xalanc_1_1021XalanListIteratorBaseINS0_23XalanListIteratorTraitsINS0_8XalanMapIPKNS0_5XPathEbNS0_17XalanMapKeyTraitsIS6_EEE5EntryEEENS0_9XalanListISA_E4NodeEEEENSt15iterator_traitsIT_E15difference_typeESJ_SJ_ = comdat any

$_ZSt10__distanceIPKN11xalanc_1_1021XalanListIteratorBaseINS0_23XalanListIteratorTraitsINS0_8XalanMapIPKNS0_5XPathEbNS0_17XalanMapKeyTraitsIS6_EEE5EntryEEENS0_9XalanListISA_E4NodeEEEENSt15iterator_traitsIT_E15difference_typeESJ_SJ_St26random_access_iterator_tag = comdat any

$_ZSt19__iterator_categoryIPKN11xalanc_1_1021XalanListIteratorBaseINS0_23XalanListIteratorTraitsINS0_8XalanMapIPKNS0_5XPathEbNS0_17XalanMapKeyTraitsIS6_EEE5EntryEEENS0_9XalanListISA_E4NodeEEEENSt15iterator_traitsIT_E17iterator_categoryERKSJ_ = comdat any

$_ZN11xalanc_1_1011XalanVectorINS_21XalanListIteratorBaseINS_23XalanListIteratorTraitsINS_8XalanMapIPKNS_5XPathEbNS_17XalanMapKeyTraitsIS6_EEE5EntryEEENS_9XalanListISA_E4NodeEEENS_31MemoryManagedConstructionTraitsISF_EEE9local_maxEmm = comdat any

$_ZN11xalanc_1_1011XalanVectorINS_21XalanListIteratorBaseINS_23XalanListIteratorTraitsINS_8XalanMapIPKNS_5XPathEbNS_17XalanMapKeyTraitsIS6_EEE5EntryEEENS_9XalanListISA_E4NodeEEENS_31MemoryManagedConstructionTraitsISF_EEEC2ERN11xercesc_2_713MemoryManagerEm = comdat any

$_ZN11xalanc_1_1011XalanVectorINS_21XalanListIteratorBaseINS_23XalanListIteratorTraitsINS_8XalanMapIPKNS_5XPathEbNS_17XalanMapKeyTraitsIS6_EEE5EntryEEENS_9XalanListISA_E4NodeEEENS_31MemoryManagedConstructionTraitsISF_EEE6insertEPSF_PKSF_SL_ = comdat any

$_ZNK11xalanc_1_1011XalanVectorINS_21XalanListIteratorBaseINS_23XalanListIteratorTraitsINS_8XalanMapIPKNS_5XPathEbNS_17XalanMapKeyTraitsIS6_EEE5EntryEEENS_9XalanListISA_E4NodeEEENS_31MemoryManagedConstructionTraitsISF_EEE5beginEv = comdat any

$_ZNK11xalanc_1_1011XalanVectorINS_21XalanListIteratorBaseINS_23XalanListIteratorTraitsINS_8XalanMapIPKNS_5XPathEbNS_17XalanMapKeyTraitsIS6_EEE5EntryEEENS_9XalanListISA_E4NodeEEENS_31MemoryManagedConstructionTraitsISF_EEE3endEv = comdat any

$_ZN11xalanc_1_1011XalanVectorINS_21XalanListIteratorBaseINS_23XalanListIteratorTraitsINS_8XalanMapIPKNS_5XPathEbNS_17XalanMapKeyTraitsIS6_EEE5EntryEEENS_9XalanListISA_E4NodeEEENS_31MemoryManagedConstructionTraitsISF_EEE8allocateEm = comdat any

$_ZN11xalanc_1_1011XalanVectorINS_21XalanListIteratorBaseINS_23XalanListIteratorTraitsINS_8XalanMapIPKNS_5XPathEbNS_17XalanMapKeyTraitsIS6_EEE5EntryEEENS_9XalanListISA_E4NodeEEENS_31MemoryManagedConstructionTraitsISF_EEE14ensureCapacityEm = comdat any

$_ZN11xalanc_1_1028ConstructWithNoMemoryManagerINS_21XalanListIteratorBaseINS_23XalanListIteratorTraitsINS_8XalanMapIPKNS_5XPathEbNS_17XalanMapKeyTraitsIS6_EEE5EntryEEENS_9XalanListISA_E4NodeEEEE9constructEPSF_RKSF_RN11xercesc_2_713MemoryManagerE = comdat any

$_ZN11xalanc_1_1011XalanVectorINS_21XalanListIteratorBaseINS_23XalanListIteratorTraitsINS_8XalanMapIPKNS_5XPathEbNS_17XalanMapKeyTraitsIS6_EEE5EntryEEENS_9XalanListISA_E4NodeEEENS_31MemoryManagedConstructionTraitsISF_EEE10doPushBackERKSF_ = comdat any

$_ZSt4copyIPKN11xalanc_1_1021XalanListIteratorBaseINS0_23XalanListIteratorTraitsINS0_8XalanMapIPKNS0_5XPathEbNS0_17XalanMapKeyTraitsIS6_EEE5EntryEEENS0_9XalanListISA_E4NodeEEEPSF_ET0_T_SK_SJ_ = comdat any

$_ZSt13copy_backwardIPN11xalanc_1_1021XalanListIteratorBaseINS0_23XalanListIteratorTraitsINS0_8XalanMapIPKNS0_5XPathEbNS0_17XalanMapKeyTraitsIS6_EEE5EntryEEENS0_9XalanListISA_E4NodeEEESG_ET0_T_SI_SH_ = comdat any

$_ZN11xalanc_1_1011XalanVectorINS_21XalanListIteratorBaseINS_23XalanListIteratorTraitsINS_8XalanMapIPKNS_5XPathEbNS_17XalanMapKeyTraitsIS6_EEE5EntryEEENS_9XalanListISA_E4NodeEEENS_31MemoryManagedConstructionTraitsISF_EEE9doReserveEm = comdat any

$_ZSt13__copy_move_aILb0EPKN11xalanc_1_1021XalanListIteratorBaseINS0_23XalanListIteratorTraitsINS0_8XalanMapIPKNS0_5XPathEbNS0_17XalanMapKeyTraitsIS6_EEE5EntryEEENS0_9XalanListISA_E4NodeEEEPSF_ET1_T0_SK_SJ_ = comdat any

$_ZSt12__miter_baseIPKN11xalanc_1_1021XalanListIteratorBaseINS0_23XalanListIteratorTraitsINS0_8XalanMapIPKNS0_5XPathEbNS0_17XalanMapKeyTraitsIS6_EEE5EntryEEENS0_9XalanListISA_E4NodeEEEET_SI_ = comdat any

$_ZSt14__copy_move_a1ILb0EPKN11xalanc_1_1021XalanListIteratorBaseINS0_23XalanListIteratorTraitsINS0_8XalanMapIPKNS0_5XPathEbNS0_17XalanMapKeyTraitsIS6_EEE5EntryEEENS0_9XalanListISA_E4NodeEEEPSF_ET1_T0_SK_SJ_ = comdat any

$_ZSt12__niter_baseIPKN11xalanc_1_1021XalanListIteratorBaseINS0_23XalanListIteratorTraitsINS0_8XalanMapIPKNS0_5XPathEbNS0_17XalanMapKeyTraitsIS6_EEE5EntryEEENS0_9XalanListISA_E4NodeEEEET_SI_ = comdat any

$_ZSt14__copy_move_a2ILb0EPKN11xalanc_1_1021XalanListIteratorBaseINS0_23XalanListIteratorTraitsINS0_8XalanMapIPKNS0_5XPathEbNS0_17XalanMapKeyTraitsIS6_EEE5EntryEEENS0_9XalanListISA_E4NodeEEEPSF_ET1_T0_SK_SJ_ = comdat any

$_ZNSt11__copy_moveILb0ELb0ESt26random_access_iterator_tagE8__copy_mIPKN11xalanc_1_1021XalanListIteratorBaseINS3_23XalanListIteratorTraitsINS3_8XalanMapIPKNS3_5XPathEbNS3_17XalanMapKeyTraitsIS9_EEE5EntryEEENS3_9XalanListISD_E4NodeEEEPSI_EET0_T_SN_SM_ = comdat any

$_ZSt22__copy_move_backward_aILb0EPN11xalanc_1_1021XalanListIteratorBaseINS0_23XalanListIteratorTraitsINS0_8XalanMapIPKNS0_5XPathEbNS0_17XalanMapKeyTraitsIS6_EEE5EntryEEENS0_9XalanListISA_E4NodeEEESG_ET1_T0_SI_SH_ = comdat any

$_ZSt23__copy_move_backward_a1ILb0EPN11xalanc_1_1021XalanListIteratorBaseINS0_23XalanListIteratorTraitsINS0_8XalanMapIPKNS0_5XPathEbNS0_17XalanMapKeyTraitsIS6_EEE5EntryEEENS0_9XalanListISA_E4NodeEEESG_ET1_T0_SI_SH_ = comdat any

$_ZSt23__copy_move_backward_a2ILb0EPN11xalanc_1_1021XalanListIteratorBaseINS0_23XalanListIteratorTraitsINS0_8XalanMapIPKNS0_5XPathEbNS0_17XalanMapKeyTraitsIS6_EEE5EntryEEENS0_9XalanListISA_E4NodeEEESG_ET1_T0_SI_SH_ = comdat any

$_ZNSt20__copy_move_backwardILb0ELb0ESt26random_access_iterator_tagE13__copy_move_bIPN11xalanc_1_1021XalanListIteratorBaseINS3_23XalanListIteratorTraitsINS3_8XalanMapIPKNS3_5XPathEbNS3_17XalanMapKeyTraitsIS9_EEE5EntryEEENS3_9XalanListISD_E4NodeEEESJ_EET0_T_SL_SK_ = comdat any

$_ZNK11xalanc_1_1011XalanVectorINS_21XalanListIteratorBaseINS_23XalanListIteratorTraitsINS_8XalanMapIPKNS_5XPathEbNS_17XalanMapKeyTraitsIS6_EEE5EntryEEENS_9XalanListISA_E4NodeEEENS_31MemoryManagedConstructionTraitsISF_EEE10endPointerEv = comdat any

$_ZN11xalanc_1_108XalanMapIPKNS_5XPathEbNS_17XalanMapKeyTraitsIS3_EEE16getMemoryManagerEv = comdat any

$_ZN11xalanc_1_108XalanMapIPKNS_5XPathEbNS_17XalanMapKeyTraitsIS3_EEE6insertERKS3_RKb = comdat any

$_ZN11xalanc_1_108XalanMapIPKNS_5XPathEbNS_17XalanMapKeyTraitsIS3_EEE13doCreateEntryERKS3_PKb = comdat any

$_ZN11xalanc_1_1011XalanVectorINS0_INS_21XalanListIteratorBaseINS_23XalanListIteratorTraitsINS_8XalanMapIPKNS_5XPathEbNS_17XalanMapKeyTraitsIS6_EEE5EntryEEENS_9XalanListISA_E4NodeEEENS_31MemoryManagedConstructionTraitsISF_EEEENS_32ConstructWithMemoryManagerTraitsISI_EEE6insertEPSI_mRKSI_ = comdat any

$_ZN11xalanc_1_108XalanMapIPKNS_5XPathEbNS_17XalanMapKeyTraitsIS3_EEE6rehashEv = comdat any

$_ZNK11xalanc_1_109XalanListINS_8XalanMapIPKNS_5XPathEbNS_17XalanMapKeyTraitsIS4_EEE5EntryEE5emptyEv = comdat any

$_ZN11xalanc_1_109XalanListINS_8XalanMapIPKNS_5XPathEbNS_17XalanMapKeyTraitsIS4_EEE5EntryEE9push_backERKS8_ = comdat any

$_ZN11xalanc_1_108XalanMapIPKNS_5XPathEbNS_17XalanMapKeyTraitsIS3_EEE8allocateEm = comdat any

$_ZN11xalanc_1_108XalanMapIPKNS_5XPathEbNS_17XalanMapKeyTraitsIS3_EEE5EntryC2EPSt4pairIKS3_bE = comdat any

$_ZN11xalanc_1_109XalanListINS_8XalanMapIPKNS_5XPathEbNS_17XalanMapKeyTraitsIS4_EEE5EntryEE4backEv = comdat any

$_ZN11xalanc_1_1028ConstructWithNoMemoryManagerIPKNS_5XPathEE9constructEPS3_RKS3_RN11xercesc_2_713MemoryManagerE = comdat any

$_ZN11xalanc_1_1028ConstructWithNoMemoryManagerIbE9constructEPbRKbRN11xercesc_2_713MemoryManagerE = comdat any

$_ZN11xalanc_1_1028ConstructWithNoMemoryManagerIbE9constructEPbRN11xercesc_2_713MemoryManagerE = comdat any

$_ZN11xalanc_1_1021XalanListIteratorBaseINS_23XalanListIteratorTraitsINS_8XalanMapIPKNS_5XPathEbNS_17XalanMapKeyTraitsIS5_EEE5EntryEEENS_9XalanListIS9_E4NodeEEmmEv = comdat any

$_ZN11xalanc_1_1011XalanVectorINS_21XalanListIteratorBaseINS_23XalanListIteratorTraitsINS_8XalanMapIPKNS_5XPathEbNS_17XalanMapKeyTraitsIS6_EEE5EntryEEENS_9XalanListISA_E4NodeEEENS_31MemoryManagedConstructionTraitsISF_EEE9push_backERKSF_ = comdat any

$_ZN11xalanc_1_1011XalanVectorINS0_INS_21XalanListIteratorBaseINS_23XalanListIteratorTraitsINS_8XalanMapIPKNS_5XPathEbNS_17XalanMapKeyTraitsIS6_EEE5EntryEEENS_9XalanListISA_E4NodeEEENS_31MemoryManagedConstructionTraitsISF_EEEENS_32ConstructWithMemoryManagerTraitsISI_EEE14ensureCapacityEm = comdat any

$_ZN11xalanc_1_1026ConstructWithMemoryManagerINS_11XalanVectorINS_21XalanListIteratorBaseINS_23XalanListIteratorTraitsINS_8XalanMapIPKNS_5XPathEbNS_17XalanMapKeyTraitsIS7_EEE5EntryEEENS_9XalanListISB_E4NodeEEENS_31MemoryManagedConstructionTraitsISG_EEEEE9constructEPSJ_RKSJ_RN11xercesc_2_713MemoryManagerE = comdat any

$_ZNK11xalanc_1_1011XalanVectorINS0_INS_21XalanListIteratorBaseINS_23XalanListIteratorTraitsINS_8XalanMapIPKNS_5XPathEbNS_17XalanMapKeyTraitsIS6_EEE5EntryEEENS_9XalanListISA_E4NodeEEENS_31MemoryManagedConstructionTraitsISF_EEEENS_32ConstructWithMemoryManagerTraitsISI_EEE8capacityEv = comdat any

$_ZN11xalanc_1_1011XalanVectorINS0_INS_21XalanListIteratorBaseINS_23XalanListIteratorTraitsINS_8XalanMapIPKNS_5XPathEbNS_17XalanMapKeyTraitsIS6_EEE5EntryEEENS_9XalanListISA_E4NodeEEENS_31MemoryManagedConstructionTraitsISF_EEEENS_32ConstructWithMemoryManagerTraitsISI_EEE6insertEPSI_PKSI_SO_ = comdat any

$_ZN11xalanc_1_1011XalanVectorINS0_INS_21XalanListIteratorBaseINS_23XalanListIteratorTraitsINS_8XalanMapIPKNS_5XPathEbNS_17XalanMapKeyTraitsIS6_EEE5EntryEEENS_9XalanListISA_E4NodeEEENS_31MemoryManagedConstructionTraitsISF_EEEENS_32ConstructWithMemoryManagerTraitsISI_EEE4swapERSL_ = comdat any

$_ZN11xalanc_1_1011XalanVectorINS0_INS_21XalanListIteratorBaseINS_23XalanListIteratorTraitsINS_8XalanMapIPKNS_5XPathEbNS_17XalanMapKeyTraitsIS6_EEE5EntryEEENS_9XalanListISA_E4NodeEEENS_31MemoryManagedConstructionTraitsISF_EEEENS_32ConstructWithMemoryManagerTraitsISI_EEE14local_distanceEPKSI_SN_ = comdat any

$_ZN11xalanc_1_1011XalanVectorINS0_INS_21XalanListIteratorBaseINS_23XalanListIteratorTraitsINS_8XalanMapIPKNS_5XPathEbNS_17XalanMapKeyTraitsIS6_EEE5EntryEEENS_9XalanListISA_E4NodeEEENS_31MemoryManagedConstructionTraitsISF_EEEENS_32ConstructWithMemoryManagerTraitsISI_EEE10doPushBackERKSI_ = comdat any

$_ZSt4fillIPN11xalanc_1_1011XalanVectorINS0_21XalanListIteratorBaseINS0_23XalanListIteratorTraitsINS0_8XalanMapIPKNS0_5XPathEbNS0_17XalanMapKeyTraitsIS7_EEE5EntryEEENS0_9XalanListISB_E4NodeEEENS0_31MemoryManagedConstructionTraitsISG_EEEESJ_EvT_SL_RKT0_ = comdat any

$_ZSt13copy_backwardIPN11xalanc_1_1011XalanVectorINS0_21XalanListIteratorBaseINS0_23XalanListIteratorTraitsINS0_8XalanMapIPKNS0_5XPathEbNS0_17XalanMapKeyTraitsIS7_EEE5EntryEEENS0_9XalanListISB_E4NodeEEENS0_31MemoryManagedConstructionTraitsISG_EEEESK_ET0_T_SM_SL_ = comdat any

$_ZN11xalanc_1_1011XalanVectorINS0_INS_21XalanListIteratorBaseINS_23XalanListIteratorTraitsINS_8XalanMapIPKNS_5XPathEbNS_17XalanMapKeyTraitsIS6_EEE5EntryEEENS_9XalanListISA_E4NodeEEENS_31MemoryManagedConstructionTraitsISF_EEEENS_32ConstructWithMemoryManagerTraitsISI_EEE9doReserveEm = comdat any

$_ZN11xalanc_1_1011XalanVectorINS0_INS_21XalanListIteratorBaseINS_23XalanListIteratorTraitsINS_8XalanMapIPKNS_5XPathEbNS_17XalanMapKeyTraitsIS6_EEE5EntryEEENS_9XalanListISA_E4NodeEEENS_31MemoryManagedConstructionTraitsISF_EEEENS_32ConstructWithMemoryManagerTraitsISI_EEEC2ERKSL_RN11xercesc_2_713MemoryManagerEm = comdat any

$_ZN11xalanc_1_1011XalanVectorINS0_INS_21XalanListIteratorBaseINS_23XalanListIteratorTraitsINS_8XalanMapIPKNS_5XPathEbNS_17XalanMapKeyTraitsIS6_EEE5EntryEEENS_9XalanListISA_E4NodeEEENS_31MemoryManagedConstructionTraitsISF_EEEENS_32ConstructWithMemoryManagerTraitsISI_EEE9local_maxEmm = comdat any

$_ZNK11xalanc_1_1011XalanVectorINS0_INS_21XalanListIteratorBaseINS_23XalanListIteratorTraitsINS_8XalanMapIPKNS_5XPathEbNS_17XalanMapKeyTraitsIS6_EEE5EntryEEENS_9XalanListISA_E4NodeEEENS_31MemoryManagedConstructionTraitsISF_EEEENS_32ConstructWithMemoryManagerTraitsISI_EEE5beginEv = comdat any

$_ZNK11xalanc_1_1011XalanVectorINS0_INS_21XalanListIteratorBaseINS_23XalanListIteratorTraitsINS_8XalanMapIPKNS_5XPathEbNS_17XalanMapKeyTraitsIS6_EEE5EntryEEENS_9XalanListISA_E4NodeEEENS_31MemoryManagedConstructionTraitsISF_EEEENS_32ConstructWithMemoryManagerTraitsISI_EEE3endEv = comdat any

$_ZNK11xalanc_1_1011XalanVectorINS0_INS_21XalanListIteratorBaseINS_23XalanListIteratorTraitsINS_8XalanMapIPKNS_5XPathEbNS_17XalanMapKeyTraitsIS6_EEE5EntryEEENS_9XalanListISA_E4NodeEEENS_31MemoryManagedConstructionTraitsISF_EEEENS_32ConstructWithMemoryManagerTraitsISI_EEE10endPointerEv = comdat any

$_ZSt4copyIPKN11xalanc_1_1011XalanVectorINS0_21XalanListIteratorBaseINS0_23XalanListIteratorTraitsINS0_8XalanMapIPKNS0_5XPathEbNS0_17XalanMapKeyTraitsIS7_EEE5EntryEEENS0_9XalanListISB_E4NodeEEENS0_31MemoryManagedConstructionTraitsISG_EEEEPSJ_ET0_T_SO_SN_ = comdat any

$_ZSt13__copy_move_aILb0EPKN11xalanc_1_1011XalanVectorINS0_21XalanListIteratorBaseINS0_23XalanListIteratorTraitsINS0_8XalanMapIPKNS0_5XPathEbNS0_17XalanMapKeyTraitsIS7_EEE5EntryEEENS0_9XalanListISB_E4NodeEEENS0_31MemoryManagedConstructionTraitsISG_EEEEPSJ_ET1_T0_SO_SN_ = comdat any

$_ZSt12__miter_baseIPKN11xalanc_1_1011XalanVectorINS0_21XalanListIteratorBaseINS0_23XalanListIteratorTraitsINS0_8XalanMapIPKNS0_5XPathEbNS0_17XalanMapKeyTraitsIS7_EEE5EntryEEENS0_9XalanListISB_E4NodeEEENS0_31MemoryManagedConstructionTraitsISG_EEEEET_SM_ = comdat any

$_ZSt12__niter_wrapIPN11xalanc_1_1011XalanVectorINS0_21XalanListIteratorBaseINS0_23XalanListIteratorTraitsINS0_8XalanMapIPKNS0_5XPathEbNS0_17XalanMapKeyTraitsIS7_EEE5EntryEEENS0_9XalanListISB_E4NodeEEENS0_31MemoryManagedConstructionTraitsISG_EEEEET_RKSL_SL_ = comdat any

$_ZSt14__copy_move_a1ILb0EPKN11xalanc_1_1011XalanVectorINS0_21XalanListIteratorBaseINS0_23XalanListIteratorTraitsINS0_8XalanMapIPKNS0_5XPathEbNS0_17XalanMapKeyTraitsIS7_EEE5EntryEEENS0_9XalanListISB_E4NodeEEENS0_31MemoryManagedConstructionTraitsISG_EEEEPSJ_ET1_T0_SO_SN_ = comdat any

$_ZSt12__niter_baseIPKN11xalanc_1_1011XalanVectorINS0_21XalanListIteratorBaseINS0_23XalanListIteratorTraitsINS0_8XalanMapIPKNS0_5XPathEbNS0_17XalanMapKeyTraitsIS7_EEE5EntryEEENS0_9XalanListISB_E4NodeEEENS0_31MemoryManagedConstructionTraitsISG_EEEEET_SM_ = comdat any

$_ZSt12__niter_baseIPN11xalanc_1_1011XalanVectorINS0_21XalanListIteratorBaseINS0_23XalanListIteratorTraitsINS0_8XalanMapIPKNS0_5XPathEbNS0_17XalanMapKeyTraitsIS7_EEE5EntryEEENS0_9XalanListISB_E4NodeEEENS0_31MemoryManagedConstructionTraitsISG_EEEEET_SL_ = comdat any

$_ZSt14__copy_move_a2ILb0EPKN11xalanc_1_1011XalanVectorINS0_21XalanListIteratorBaseINS0_23XalanListIteratorTraitsINS0_8XalanMapIPKNS0_5XPathEbNS0_17XalanMapKeyTraitsIS7_EEE5EntryEEENS0_9XalanListISB_E4NodeEEENS0_31MemoryManagedConstructionTraitsISG_EEEEPSJ_ET1_T0_SO_SN_ = comdat any

$_ZNSt11__copy_moveILb0ELb0ESt26random_access_iterator_tagE8__copy_mIPKN11xalanc_1_1011XalanVectorINS3_21XalanListIteratorBaseINS3_23XalanListIteratorTraitsINS3_8XalanMapIPKNS3_5XPathEbNS3_17XalanMapKeyTraitsISA_EEE5EntryEEENS3_9XalanListISE_E4NodeEEENS3_31MemoryManagedConstructionTraitsISJ_EEEEPSM_EET0_T_SR_SQ_ = comdat any

$_ZN11xalanc_1_1011XalanVectorINS_21XalanListIteratorBaseINS_23XalanListIteratorTraitsINS_8XalanMapIPKNS_5XPathEbNS_17XalanMapKeyTraitsIS6_EEE5EntryEEENS_9XalanListISA_E4NodeEEENS_31MemoryManagedConstructionTraitsISF_EEEaSERKSI_ = comdat any

$_ZSt8distanceIPKN11xalanc_1_1011XalanVectorINS0_21XalanListIteratorBaseINS0_23XalanListIteratorTraitsINS0_8XalanMapIPKNS0_5XPathEbNS0_17XalanMapKeyTraitsIS7_EEE5EntryEEENS0_9XalanListISB_E4NodeEEENS0_31MemoryManagedConstructionTraitsISG_EEEEENSt15iterator_traitsIT_E15difference_typeESN_SN_ = comdat any

$_ZSt10__distanceIPKN11xalanc_1_1011XalanVectorINS0_21XalanListIteratorBaseINS0_23XalanListIteratorTraitsINS0_8XalanMapIPKNS0_5XPathEbNS0_17XalanMapKeyTraitsIS7_EEE5EntryEEENS0_9XalanListISB_E4NodeEEENS0_31MemoryManagedConstructionTraitsISG_EEEEENSt15iterator_traitsIT_E15difference_typeESN_SN_St26random_access_iterator_tag = comdat any

$_ZSt19__iterator_categoryIPKN11xalanc_1_1011XalanVectorINS0_21XalanListIteratorBaseINS0_23XalanListIteratorTraitsINS0_8XalanMapIPKNS0_5XPathEbNS0_17XalanMapKeyTraitsIS7_EEE5EntryEEENS0_9XalanListISB_E4NodeEEENS0_31MemoryManagedConstructionTraitsISG_EEEEENSt15iterator_traitsIT_E17iterator_categoryERKSN_ = comdat any

$_ZSt8__fill_aIPN11xalanc_1_1011XalanVectorINS0_21XalanListIteratorBaseINS0_23XalanListIteratorTraitsINS0_8XalanMapIPKNS0_5XPathEbNS0_17XalanMapKeyTraitsIS7_EEE5EntryEEENS0_9XalanListISB_E4NodeEEENS0_31MemoryManagedConstructionTraitsISG_EEEESJ_EvT_SL_RKT0_ = comdat any

$_ZSt9__fill_a1IPN11xalanc_1_1011XalanVectorINS0_21XalanListIteratorBaseINS0_23XalanListIteratorTraitsINS0_8XalanMapIPKNS0_5XPathEbNS0_17XalanMapKeyTraitsIS7_EEE5EntryEEENS0_9XalanListISB_E4NodeEEENS0_31MemoryManagedConstructionTraitsISG_EEEESJ_EN9__gnu_cxx11__enable_ifIXntsr11__is_scalarIT0_EE7__valueEvE6__typeET_SQ_RKSN_ = comdat any

$_ZSt22__copy_move_backward_aILb0EPN11xalanc_1_1011XalanVectorINS0_21XalanListIteratorBaseINS0_23XalanListIteratorTraitsINS0_8XalanMapIPKNS0_5XPathEbNS0_17XalanMapKeyTraitsIS7_EEE5EntryEEENS0_9XalanListISB_E4NodeEEENS0_31MemoryManagedConstructionTraitsISG_EEEESK_ET1_T0_SM_SL_ = comdat any

$_ZSt12__miter_baseIPN11xalanc_1_1011XalanVectorINS0_21XalanListIteratorBaseINS0_23XalanListIteratorTraitsINS0_8XalanMapIPKNS0_5XPathEbNS0_17XalanMapKeyTraitsIS7_EEE5EntryEEENS0_9XalanListISB_E4NodeEEENS0_31MemoryManagedConstructionTraitsISG_EEEEET_SL_ = comdat any

$_ZSt23__copy_move_backward_a1ILb0EPN11xalanc_1_1011XalanVectorINS0_21XalanListIteratorBaseINS0_23XalanListIteratorTraitsINS0_8XalanMapIPKNS0_5XPathEbNS0_17XalanMapKeyTraitsIS7_EEE5EntryEEENS0_9XalanListISB_E4NodeEEENS0_31MemoryManagedConstructionTraitsISG_EEEESK_ET1_T0_SM_SL_ = comdat any

$_ZSt23__copy_move_backward_a2ILb0EPN11xalanc_1_1011XalanVectorINS0_21XalanListIteratorBaseINS0_23XalanListIteratorTraitsINS0_8XalanMapIPKNS0_5XPathEbNS0_17XalanMapKeyTraitsIS7_EEE5EntryEEENS0_9XalanListISB_E4NodeEEENS0_31MemoryManagedConstructionTraitsISG_EEEESK_ET1_T0_SM_SL_ = comdat any

$_ZNSt20__copy_move_backwardILb0ELb0ESt26random_access_iterator_tagE13__copy_move_bIPN11xalanc_1_1011XalanVectorINS3_21XalanListIteratorBaseINS3_23XalanListIteratorTraitsINS3_8XalanMapIPKNS3_5XPathEbNS3_17XalanMapKeyTraitsISA_EEE5EntryEEENS3_9XalanListISE_E4NodeEEENS3_31MemoryManagedConstructionTraitsISJ_EEEESN_EET0_T_SP_SO_ = comdat any

$_ZN11xalanc_1_1011XalanVectorINS0_INS_21XalanListIteratorBaseINS_23XalanListIteratorTraitsINS_8XalanMapIPKNS_5XPathEbNS_17XalanMapKeyTraitsIS6_EEE5EntryEEENS_9XalanListISA_E4NodeEEENS_31MemoryManagedConstructionTraitsISF_EEEENS_32ConstructWithMemoryManagerTraitsISI_EEEC2EmRKSI_RN11xercesc_2_713MemoryManagerE = comdat any

$_ZNK11xalanc_1_109XalanListINS_8XalanMapIPKNS_5XPathEbNS_17XalanMapKeyTraitsIS4_EEE5EntryEE5beginEv = comdat any

$_ZNK11xalanc_1_1021XalanListIteratorBaseINS_28XalanListConstIteratorTraitsINS_8XalanMapIPKNS_5XPathEbNS_17XalanMapKeyTraitsIS5_EEE5EntryEEENS_9XalanListIS9_E4NodeEEeqERKSE_ = comdat any

$_ZNK11xalanc_1_109XalanListINS_8XalanMapIPKNS_5XPathEbNS_17XalanMapKeyTraitsIS4_EEE5EntryEE3endEv = comdat any

$_ZNK11xalanc_1_109XalanListINS_8XalanMapIPKNS_5XPathEbNS_17XalanMapKeyTraitsIS4_EEE5EntryEE11getListHeadEv = comdat any

$_ZN11xalanc_1_1021XalanListIteratorBaseINS_28XalanListConstIteratorTraitsINS_8XalanMapIPKNS_5XPathEbNS_17XalanMapKeyTraitsIS5_EEE5EntryEEENS_9XalanListIS9_E4NodeEEC2ERSD_ = comdat any

$_ZN11xalanc_1_109XalanListINS_8XalanMapIPKNS_5XPathEbNS_17XalanMapKeyTraitsIS4_EEE5EntryEE13constructNodeERKS8_NS_21XalanListIteratorBaseINS_23XalanListIteratorTraitsIS8_EENS9_4NodeEEE = comdat any

$_ZN11xalanc_1_1028ConstructWithNoMemoryManagerINS_8XalanMapIPKNS_5XPathEbNS_17XalanMapKeyTraitsIS4_EEE5EntryEE9constructEPS8_RKS8_RN11xercesc_2_713MemoryManagerE = comdat any

$_ZNK11xalanc_1_1021XalanListIteratorBaseINS_23XalanListIteratorTraitsINS_8XalanMapIPKNS_5XPathEbNS_17XalanMapKeyTraitsIS5_EEE5EntryEEENS_9XalanListIS9_E4NodeEEdeEv = comdat any

@_ZTVN11xalanc_1_1019XPathFactoryDefaultE = dso_local unnamed_addr constant { [7 x i8*] } { [7 x i8*] [i8* null, i8* bitcast ({ i8*, i8*, i8* }* @_ZTIN11xalanc_1_1019XPathFactoryDefaultE to i8*), i8* bitcast (void (%"class.xalanc_1_10::XPathFactoryDefault"*)* @_ZN11xalanc_1_1019XPathFactoryDefaultD1Ev to i8*), i8* bitcast (void (%"class.xalanc_1_10::XPathFactoryDefault"*)* @_ZN11xalanc_1_1019XPathFactoryDefaultD0Ev to i8*), i8* bitcast (void (%"class.xalanc_1_10::XPathFactoryDefault"*)* @_ZN11xalanc_1_1019XPathFactoryDefault5resetEv to i8*), i8* bitcast (%"class.xalanc_1_10::XPath"* (%"class.xalanc_1_10::XPathFactoryDefault"*)* @_ZN11xalanc_1_1019XPathFactoryDefault6createEv to i8*), i8* bitcast (i1 (%"class.xalanc_1_10::XPathFactoryDefault"*, %"class.xalanc_1_10::XPath"*, i1)* @_ZN11xalanc_1_1019XPathFactoryDefault14doReturnObjectEPKNS_5XPathEb to i8*)] }, align 8
@_ZTVN10__cxxabiv120__si_class_type_infoE = external dso_local global i8*
@_ZTSN11xalanc_1_1019XPathFactoryDefaultE = dso_local constant [37 x i8] c"N11xalanc_1_1019XPathFactoryDefaultE\00", align 1
@_ZTIN11xalanc_1_1012XPathFactoryE = external dso_local constant i8*
@_ZTIN11xalanc_1_1019XPathFactoryDefaultE = dso_local constant { i8*, i8*, i8* } { i8* bitcast (i8** getelementptr inbounds (i8*, i8** @_ZTVN10__cxxabiv120__si_class_type_infoE, i64 2) to i8*), i8* getelementptr inbounds ([37 x i8], [37 x i8]* @_ZTSN11xalanc_1_1019XPathFactoryDefaultE, i32 0, i32 0), i8* bitcast (i8** @_ZTIN11xalanc_1_1012XPathFactoryE to i8*) }, align 8

@_ZN11xalanc_1_1019XPathFactoryDefaultC1ERN11xercesc_2_713MemoryManagerE = dso_local unnamed_addr alias void (%"class.xalanc_1_10::XPathFactoryDefault"*, %"class.xercesc_2_7::MemoryManager"*), void (%"class.xalanc_1_10::XPathFactoryDefault"*, %"class.xercesc_2_7::MemoryManager"*)* @_ZN11xalanc_1_1019XPathFactoryDefaultC2ERN11xercesc_2_713MemoryManagerE
@_ZN11xalanc_1_1019XPathFactoryDefaultD1Ev = dso_local unnamed_addr alias void (%"class.xalanc_1_10::XPathFactoryDefault"*), void (%"class.xalanc_1_10::XPathFactoryDefault"*)* @_ZN11xalanc_1_1019XPathFactoryDefaultD2Ev

; Function Attrs: noinline uwtable
define dso_local void @_ZN11xalanc_1_1019XPathFactoryDefaultC2ERN11xercesc_2_713MemoryManagerE(%"class.xalanc_1_10::XPathFactoryDefault"* %this, %"class.xercesc_2_7::MemoryManager"* dereferenceable(8) %theManager) unnamed_addr #0 align 2 personality i8* bitcast (i32 (...)* @__gxx_personality_v0 to i8*) !dbg !4538 {
entry:
  %this.addr = alloca %"class.xalanc_1_10::XPathFactoryDefault"*, align 8
  %theManager.addr = alloca %"class.xercesc_2_7::MemoryManager"*, align 8
  %exn.slot = alloca i8*
  %ehselector.slot = alloca i32
  store %"class.xalanc_1_10::XPathFactoryDefault"* %this, %"class.xalanc_1_10::XPathFactoryDefault"** %this.addr, align 8
  call void @llvm.dbg.declare(metadata %"class.xalanc_1_10::XPathFactoryDefault"** %this.addr, metadata !4539, metadata !DIExpression()), !dbg !4540
  store %"class.xercesc_2_7::MemoryManager"* %theManager, %"class.xercesc_2_7::MemoryManager"** %theManager.addr, align 8
  call void @llvm.dbg.declare(metadata %"class.xercesc_2_7::MemoryManager"** %theManager.addr, metadata !4541, metadata !DIExpression()), !dbg !4542
  %this1 = load %"class.xalanc_1_10::XPathFactoryDefault"*, %"class.xalanc_1_10::XPathFactoryDefault"** %this.addr, align 8
  %0 = bitcast %"class.xalanc_1_10::XPathFactoryDefault"* %this1 to %"class.xalanc_1_10::XPathFactory"*, !dbg !4543
  call void @_ZN11xalanc_1_1012XPathFactoryC2Ev(%"class.xalanc_1_10::XPathFactory"* %0), !dbg !4544
  %1 = bitcast %"class.xalanc_1_10::XPathFactoryDefault"* %this1 to i32 (...)***, !dbg !4543
  store i32 (...)** bitcast (i8** getelementptr inbounds ({ [7 x i8*] }, { [7 x i8*] }* @_ZTVN11xalanc_1_1019XPathFactoryDefaultE, i32 0, inrange i32 0, i32 2) to i32 (...)**), i32 (...)*** %1, align 8, !dbg !4543
  %m_xpaths = getelementptr inbounds %"class.xalanc_1_10::XPathFactoryDefault", %"class.xalanc_1_10::XPathFactoryDefault"* %this1, i32 0, i32 1, !dbg !4545
  %2 = load %"class.xercesc_2_7::MemoryManager"*, %"class.xercesc_2_7::MemoryManager"** %theManager.addr, align 8, !dbg !4546
  invoke void @_ZN11xalanc_1_108XalanSetIPKNS_5XPathEEC2ERN11xercesc_2_713MemoryManagerE(%"class.xalanc_1_10::XalanSet"* %m_xpaths, %"class.xercesc_2_7::MemoryManager"* dereferenceable(8) %2)
          to label %invoke.cont unwind label %lpad, !dbg !4545

invoke.cont:                                      ; preds = %entry
  ret void, !dbg !4547

lpad:                                             ; preds = %entry
  %3 = landingpad { i8*, i32 }
          cleanup, !dbg !4547
  %4 = extractvalue { i8*, i32 } %3, 0, !dbg !4547
  store i8* %4, i8** %exn.slot, align 8, !dbg !4547
  %5 = extractvalue { i8*, i32 } %3, 1, !dbg !4547
  store i32 %5, i32* %ehselector.slot, align 4, !dbg !4547
  %6 = bitcast %"class.xalanc_1_10::XPathFactoryDefault"* %this1 to %"class.xalanc_1_10::XPathFactory"*, !dbg !4548
  call void @_ZN11xalanc_1_1012XPathFactoryD2Ev(%"class.xalanc_1_10::XPathFactory"* %6) #8, !dbg !4548
  br label %eh.resume, !dbg !4548

eh.resume:                                        ; preds = %lpad
  %exn = load i8*, i8** %exn.slot, align 8, !dbg !4548
  %sel = load i32, i32* %ehselector.slot, align 4, !dbg !4548
  %lpad.val = insertvalue { i8*, i32 } undef, i8* %exn, 0, !dbg !4548
  %lpad.val2 = insertvalue { i8*, i32 } %lpad.val, i32 %sel, 1, !dbg !4548
  resume { i8*, i32 } %lpad.val2, !dbg !4548
}

; Function Attrs: nounwind readnone speculatable willreturn
declare void @llvm.dbg.declare(metadata, metadata, metadata) #1

declare dso_local void @_ZN11xalanc_1_1012XPathFactoryC2Ev(%"class.xalanc_1_10::XPathFactory"*) unnamed_addr #2

; Function Attrs: noinline uwtable
define linkonce_odr dso_local void @_ZN11xalanc_1_108XalanSetIPKNS_5XPathEEC2ERN11xercesc_2_713MemoryManagerE(%"class.xalanc_1_10::XalanSet"* %this, %"class.xercesc_2_7::MemoryManager"* dereferenceable(8) %theMemoryManager) unnamed_addr #0 comdat align 2 !dbg !4550 {
entry:
  %this.addr = alloca %"class.xalanc_1_10::XalanSet"*, align 8
  %theMemoryManager.addr = alloca %"class.xercesc_2_7::MemoryManager"*, align 8
  store %"class.xalanc_1_10::XalanSet"* %this, %"class.xalanc_1_10::XalanSet"** %this.addr, align 8
  call void @llvm.dbg.declare(metadata %"class.xalanc_1_10::XalanSet"** %this.addr, metadata !4551, metadata !DIExpression()), !dbg !4553
  store %"class.xercesc_2_7::MemoryManager"* %theMemoryManager, %"class.xercesc_2_7::MemoryManager"** %theMemoryManager.addr, align 8
  call void @llvm.dbg.declare(metadata %"class.xercesc_2_7::MemoryManager"** %theMemoryManager.addr, metadata !4554, metadata !DIExpression()), !dbg !4555
  %this1 = load %"class.xalanc_1_10::XalanSet"*, %"class.xalanc_1_10::XalanSet"** %this.addr, align 8
  %m_map = getelementptr inbounds %"class.xalanc_1_10::XalanSet", %"class.xalanc_1_10::XalanSet"* %this1, i32 0, i32 0, !dbg !4556
  %0 = load %"class.xercesc_2_7::MemoryManager"*, %"class.xercesc_2_7::MemoryManager"** %theMemoryManager.addr, align 8, !dbg !4557
  call void @_ZN11xalanc_1_108XalanMapIPKNS_5XPathEbNS_17XalanMapKeyTraitsIS3_EEEC2ERN11xercesc_2_713MemoryManagerEfmm(%"class.xalanc_1_10::XalanMap"* %m_map, %"class.xercesc_2_7::MemoryManager"* dereferenceable(8) %0, float 7.500000e-01, i64 29, i64 50), !dbg !4556
  ret void, !dbg !4558
}

declare dso_local i32 @__gxx_personality_v0(...)

; Function Attrs: nounwind
declare dso_local void @_ZN11xalanc_1_1012XPathFactoryD2Ev(%"class.xalanc_1_10::XPathFactory"*) unnamed_addr #3

; Function Attrs: noinline uwtable
define dso_local %"class.xalanc_1_10::XPathFactoryDefault"* @_ZN11xalanc_1_1019XPathFactoryDefault25createXPathFactoryDefaultERN11xercesc_2_713MemoryManagerE(%"class.xercesc_2_7::MemoryManager"* dereferenceable(8) %theManager) #0 align 2 personality i8* bitcast (i32 (...)* @__gxx_personality_v0 to i8*) !dbg !2163 {
entry:
  %theManager.addr = alloca %"class.xercesc_2_7::MemoryManager"*, align 8
  %theGuard = alloca %"class.xalanc_1_10::XalanMemMgrAutoPtr", align 8
  %theResult = alloca %"class.xalanc_1_10::XPathFactoryDefault"*, align 8
  %exn.slot = alloca i8*
  %ehselector.slot = alloca i32
  %coerce = alloca %"class.xalanc_1_10::XalanMemMgrAutoPtr<xalanc_1_10::XPathFactoryDefault, false>::MemMgrAutoPtrData", align 8
  store %"class.xercesc_2_7::MemoryManager"* %theManager, %"class.xercesc_2_7::MemoryManager"** %theManager.addr, align 8
  call void @llvm.dbg.declare(metadata %"class.xercesc_2_7::MemoryManager"** %theManager.addr, metadata !4559, metadata !DIExpression()), !dbg !4560
  call void @llvm.dbg.declare(metadata %"class.xalanc_1_10::XalanMemMgrAutoPtr"* %theGuard, metadata !4561, metadata !DIExpression()), !dbg !4562
  %0 = load %"class.xercesc_2_7::MemoryManager"*, %"class.xercesc_2_7::MemoryManager"** %theManager.addr, align 8, !dbg !4563
  %1 = load %"class.xercesc_2_7::MemoryManager"*, %"class.xercesc_2_7::MemoryManager"** %theManager.addr, align 8, !dbg !4564
  %2 = bitcast %"class.xercesc_2_7::MemoryManager"* %1 to i8* (%"class.xercesc_2_7::MemoryManager"*, i64)***, !dbg !4565
  %vtable = load i8* (%"class.xercesc_2_7::MemoryManager"*, i64)**, i8* (%"class.xercesc_2_7::MemoryManager"*, i64)*** %2, align 8, !dbg !4565
  %vfn = getelementptr inbounds i8* (%"class.xercesc_2_7::MemoryManager"*, i64)*, i8* (%"class.xercesc_2_7::MemoryManager"*, i64)** %vtable, i64 2, !dbg !4565
  %3 = load i8* (%"class.xercesc_2_7::MemoryManager"*, i64)*, i8* (%"class.xercesc_2_7::MemoryManager"*, i64)** %vfn, align 8, !dbg !4565
  %call = call i8* %3(%"class.xercesc_2_7::MemoryManager"* %1, i64 144), !dbg !4565
  %4 = bitcast i8* %call to %"class.xalanc_1_10::XPathFactoryDefault"*, !dbg !4566
  call void @_ZN11xalanc_1_1018XalanMemMgrAutoPtrINS_19XPathFactoryDefaultELb0EEC2ERN11xercesc_2_713MemoryManagerEPS1_(%"class.xalanc_1_10::XalanMemMgrAutoPtr"* %theGuard, %"class.xercesc_2_7::MemoryManager"* dereferenceable(8) %0, %"class.xalanc_1_10::XPathFactoryDefault"* %4), !dbg !4562
  call void @llvm.dbg.declare(metadata %"class.xalanc_1_10::XPathFactoryDefault"** %theResult, metadata !4567, metadata !DIExpression()), !dbg !4568
  %call1 = invoke %"class.xalanc_1_10::XPathFactoryDefault"* @_ZNK11xalanc_1_1018XalanMemMgrAutoPtrINS_19XPathFactoryDefaultELb0EE3getEv(%"class.xalanc_1_10::XalanMemMgrAutoPtr"* %theGuard)
          to label %invoke.cont unwind label %lpad, !dbg !4569

invoke.cont:                                      ; preds = %entry
  store %"class.xalanc_1_10::XPathFactoryDefault"* %call1, %"class.xalanc_1_10::XPathFactoryDefault"** %theResult, align 8, !dbg !4568
  %5 = load %"class.xalanc_1_10::XPathFactoryDefault"*, %"class.xalanc_1_10::XPathFactoryDefault"** %theResult, align 8, !dbg !4570
  %6 = bitcast %"class.xalanc_1_10::XPathFactoryDefault"* %5 to i8*, !dbg !4571
  %7 = bitcast i8* %6 to %"class.xalanc_1_10::XPathFactoryDefault"*, !dbg !4571
  %8 = load %"class.xercesc_2_7::MemoryManager"*, %"class.xercesc_2_7::MemoryManager"** %theManager.addr, align 8, !dbg !4572
  invoke void @_ZN11xalanc_1_1019XPathFactoryDefaultC1ERN11xercesc_2_713MemoryManagerE(%"class.xalanc_1_10::XPathFactoryDefault"* %7, %"class.xercesc_2_7::MemoryManager"* dereferenceable(8) %8)
          to label %invoke.cont2 unwind label %lpad, !dbg !4573

invoke.cont2:                                     ; preds = %invoke.cont
  %call4 = invoke { %"class.xercesc_2_7::MemoryManager"*, %"class.xalanc_1_10::XPathFactoryDefault"* } @_ZN11xalanc_1_1018XalanMemMgrAutoPtrINS_19XPathFactoryDefaultELb0EE7releaseEv(%"class.xalanc_1_10::XalanMemMgrAutoPtr"* %theGuard)
          to label %invoke.cont3 unwind label %lpad, !dbg !4574

invoke.cont3:                                     ; preds = %invoke.cont2
  %coerce.dive = getelementptr inbounds %"class.xalanc_1_10::XalanMemMgrAutoPtr<xalanc_1_10::XPathFactoryDefault, false>::MemMgrAutoPtrData", %"class.xalanc_1_10::XalanMemMgrAutoPtr<xalanc_1_10::XPathFactoryDefault, false>::MemMgrAutoPtrData"* %coerce, i32 0, i32 0, !dbg !4574
  %9 = bitcast %"struct.std::pair.5"* %coerce.dive to { %"class.xercesc_2_7::MemoryManager"*, %"class.xalanc_1_10::XPathFactoryDefault"* }*, !dbg !4574
  %10 = getelementptr inbounds { %"class.xercesc_2_7::MemoryManager"*, %"class.xalanc_1_10::XPathFactoryDefault"* }, { %"class.xercesc_2_7::MemoryManager"*, %"class.xalanc_1_10::XPathFactoryDefault"* }* %9, i32 0, i32 0, !dbg !4574
  %11 = extractvalue { %"class.xercesc_2_7::MemoryManager"*, %"class.xalanc_1_10::XPathFactoryDefault"* } %call4, 0, !dbg !4574
  store %"class.xercesc_2_7::MemoryManager"* %11, %"class.xercesc_2_7::MemoryManager"** %10, align 8, !dbg !4574
  %12 = getelementptr inbounds { %"class.xercesc_2_7::MemoryManager"*, %"class.xalanc_1_10::XPathFactoryDefault"* }, { %"class.xercesc_2_7::MemoryManager"*, %"class.xalanc_1_10::XPathFactoryDefault"* }* %9, i32 0, i32 1, !dbg !4574
  %13 = extractvalue { %"class.xercesc_2_7::MemoryManager"*, %"class.xalanc_1_10::XPathFactoryDefault"* } %call4, 1, !dbg !4574
  store %"class.xalanc_1_10::XPathFactoryDefault"* %13, %"class.xalanc_1_10::XPathFactoryDefault"** %12, align 8, !dbg !4574
  %14 = load %"class.xalanc_1_10::XPathFactoryDefault"*, %"class.xalanc_1_10::XPathFactoryDefault"** %theResult, align 8, !dbg !4575
  call void @_ZN11xalanc_1_1018XalanMemMgrAutoPtrINS_19XPathFactoryDefaultELb0EED2Ev(%"class.xalanc_1_10::XalanMemMgrAutoPtr"* %theGuard) #8, !dbg !4576
  ret %"class.xalanc_1_10::XPathFactoryDefault"* %14, !dbg !4576

lpad:                                             ; preds = %invoke.cont2, %invoke.cont, %entry
  %15 = landingpad { i8*, i32 }
          cleanup, !dbg !4576
  %16 = extractvalue { i8*, i32 } %15, 0, !dbg !4576
  store i8* %16, i8** %exn.slot, align 8, !dbg !4576
  %17 = extractvalue { i8*, i32 } %15, 1, !dbg !4576
  store i32 %17, i32* %ehselector.slot, align 4, !dbg !4576
  call void @_ZN11xalanc_1_1018XalanMemMgrAutoPtrINS_19XPathFactoryDefaultELb0EED2Ev(%"class.xalanc_1_10::XalanMemMgrAutoPtr"* %theGuard) #8, !dbg !4576
  br label %eh.resume, !dbg !4576

eh.resume:                                        ; preds = %lpad
  %exn = load i8*, i8** %exn.slot, align 8, !dbg !4576
  %sel = load i32, i32* %ehselector.slot, align 4, !dbg !4576
  %lpad.val = insertvalue { i8*, i32 } undef, i8* %exn, 0, !dbg !4576
  %lpad.val5 = insertvalue { i8*, i32 } %lpad.val, i32 %sel, 1, !dbg !4576
  resume { i8*, i32 } %lpad.val5, !dbg !4576
}

; Function Attrs: noinline uwtable
define linkonce_odr dso_local void @_ZN11xalanc_1_1018XalanMemMgrAutoPtrINS_19XPathFactoryDefaultELb0EEC2ERN11xercesc_2_713MemoryManagerEPS1_(%"class.xalanc_1_10::XalanMemMgrAutoPtr"* %this, %"class.xercesc_2_7::MemoryManager"* dereferenceable(8) %theManager, %"class.xalanc_1_10::XPathFactoryDefault"* %ptr) unnamed_addr #0 comdat align 2 !dbg !4577 {
entry:
  %this.addr = alloca %"class.xalanc_1_10::XalanMemMgrAutoPtr"*, align 8
  %theManager.addr = alloca %"class.xercesc_2_7::MemoryManager"*, align 8
  %ptr.addr = alloca %"class.xalanc_1_10::XPathFactoryDefault"*, align 8
  store %"class.xalanc_1_10::XalanMemMgrAutoPtr"* %this, %"class.xalanc_1_10::XalanMemMgrAutoPtr"** %this.addr, align 8
  call void @llvm.dbg.declare(metadata %"class.xalanc_1_10::XalanMemMgrAutoPtr"** %this.addr, metadata !4578, metadata !DIExpression()), !dbg !4580
  store %"class.xercesc_2_7::MemoryManager"* %theManager, %"class.xercesc_2_7::MemoryManager"** %theManager.addr, align 8
  call void @llvm.dbg.declare(metadata %"class.xercesc_2_7::MemoryManager"** %theManager.addr, metadata !4581, metadata !DIExpression()), !dbg !4582
  store %"class.xalanc_1_10::XPathFactoryDefault"* %ptr, %"class.xalanc_1_10::XPathFactoryDefault"** %ptr.addr, align 8
  call void @llvm.dbg.declare(metadata %"class.xalanc_1_10::XPathFactoryDefault"** %ptr.addr, metadata !4583, metadata !DIExpression()), !dbg !4584
  %this1 = load %"class.xalanc_1_10::XalanMemMgrAutoPtr"*, %"class.xalanc_1_10::XalanMemMgrAutoPtr"** %this.addr, align 8
  %m_pointerInfo = getelementptr inbounds %"class.xalanc_1_10::XalanMemMgrAutoPtr", %"class.xalanc_1_10::XalanMemMgrAutoPtr"* %this1, i32 0, i32 0, !dbg !4585
  %0 = load %"class.xercesc_2_7::MemoryManager"*, %"class.xercesc_2_7::MemoryManager"** %theManager.addr, align 8, !dbg !4586
  %1 = load %"class.xalanc_1_10::XPathFactoryDefault"*, %"class.xalanc_1_10::XPathFactoryDefault"** %ptr.addr, align 8, !dbg !4587
  call void @_ZN11xalanc_1_1018XalanMemMgrAutoPtrINS_19XPathFactoryDefaultELb0EE17MemMgrAutoPtrDataC2EPN11xercesc_2_713MemoryManagerEPS1_(%"class.xalanc_1_10::XalanMemMgrAutoPtr<xalanc_1_10::XPathFactoryDefault, false>::MemMgrAutoPtrData"* %m_pointerInfo, %"class.xercesc_2_7::MemoryManager"* %0, %"class.xalanc_1_10::XPathFactoryDefault"* %1), !dbg !4585
  ret void, !dbg !4588
}

; Function Attrs: noinline nounwind uwtable
define linkonce_odr dso_local %"class.xalanc_1_10::XPathFactoryDefault"* @_ZNK11xalanc_1_1018XalanMemMgrAutoPtrINS_19XPathFactoryDefaultELb0EE3getEv(%"class.xalanc_1_10::XalanMemMgrAutoPtr"* %this) #4 comdat align 2 !dbg !4589 {
entry:
  %this.addr = alloca %"class.xalanc_1_10::XalanMemMgrAutoPtr"*, align 8
  store %"class.xalanc_1_10::XalanMemMgrAutoPtr"* %this, %"class.xalanc_1_10::XalanMemMgrAutoPtr"** %this.addr, align 8
  call void @llvm.dbg.declare(metadata %"class.xalanc_1_10::XalanMemMgrAutoPtr"** %this.addr, metadata !4590, metadata !DIExpression()), !dbg !4592
  %this1 = load %"class.xalanc_1_10::XalanMemMgrAutoPtr"*, %"class.xalanc_1_10::XalanMemMgrAutoPtr"** %this.addr, align 8
  %m_pointerInfo = getelementptr inbounds %"class.xalanc_1_10::XalanMemMgrAutoPtr", %"class.xalanc_1_10::XalanMemMgrAutoPtr"* %this1, i32 0, i32 0, !dbg !4593
  %0 = bitcast %"class.xalanc_1_10::XalanMemMgrAutoPtr<xalanc_1_10::XPathFactoryDefault, false>::MemMgrAutoPtrData"* %m_pointerInfo to %"struct.std::pair.5"*, !dbg !4593
  %second = getelementptr inbounds %"struct.std::pair.5", %"struct.std::pair.5"* %0, i32 0, i32 1, !dbg !4594
  %1 = load %"class.xalanc_1_10::XPathFactoryDefault"*, %"class.xalanc_1_10::XPathFactoryDefault"** %second, align 8, !dbg !4594
  ret %"class.xalanc_1_10::XPathFactoryDefault"* %1, !dbg !4595
}

; Function Attrs: noinline uwtable
define linkonce_odr dso_local { %"class.xercesc_2_7::MemoryManager"*, %"class.xalanc_1_10::XPathFactoryDefault"* } @_ZN11xalanc_1_1018XalanMemMgrAutoPtrINS_19XPathFactoryDefaultELb0EE7releaseEv(%"class.xalanc_1_10::XalanMemMgrAutoPtr"* %this) #0 comdat align 2 !dbg !4596 {
entry:
  %retval = alloca %"class.xalanc_1_10::XalanMemMgrAutoPtr<xalanc_1_10::XPathFactoryDefault, false>::MemMgrAutoPtrData", align 8
  %this.addr = alloca %"class.xalanc_1_10::XalanMemMgrAutoPtr"*, align 8
  %tmp = alloca %"class.xalanc_1_10::XalanMemMgrAutoPtr<xalanc_1_10::XPathFactoryDefault, false>::MemMgrAutoPtrData", align 8
  store %"class.xalanc_1_10::XalanMemMgrAutoPtr"* %this, %"class.xalanc_1_10::XalanMemMgrAutoPtr"** %this.addr, align 8
  call void @llvm.dbg.declare(metadata %"class.xalanc_1_10::XalanMemMgrAutoPtr"** %this.addr, metadata !4597, metadata !DIExpression()), !dbg !4598
  %this1 = load %"class.xalanc_1_10::XalanMemMgrAutoPtr"*, %"class.xalanc_1_10::XalanMemMgrAutoPtr"** %this.addr, align 8
  call void @llvm.dbg.declare(metadata %"class.xalanc_1_10::XalanMemMgrAutoPtr<xalanc_1_10::XPathFactoryDefault, false>::MemMgrAutoPtrData"* %tmp, metadata !4599, metadata !DIExpression()), !dbg !4600
  %m_pointerInfo = getelementptr inbounds %"class.xalanc_1_10::XalanMemMgrAutoPtr", %"class.xalanc_1_10::XalanMemMgrAutoPtr"* %this1, i32 0, i32 0, !dbg !4601
  %0 = bitcast %"class.xalanc_1_10::XalanMemMgrAutoPtr<xalanc_1_10::XPathFactoryDefault, false>::MemMgrAutoPtrData"* %tmp to i8*, !dbg !4601
  %1 = bitcast %"class.xalanc_1_10::XalanMemMgrAutoPtr<xalanc_1_10::XPathFactoryDefault, false>::MemMgrAutoPtrData"* %m_pointerInfo to i8*, !dbg !4601
  call void @llvm.memcpy.p0i8.p0i8.i64(i8* align 8 %0, i8* align 8 %1, i64 16, i1 false), !dbg !4601
  %m_pointerInfo2 = getelementptr inbounds %"class.xalanc_1_10::XalanMemMgrAutoPtr", %"class.xalanc_1_10::XalanMemMgrAutoPtr"* %this1, i32 0, i32 0, !dbg !4602
  call void @_ZN11xalanc_1_1018XalanMemMgrAutoPtrINS_19XPathFactoryDefaultELb0EE17MemMgrAutoPtrData5resetEPN11xercesc_2_713MemoryManagerEPS1_(%"class.xalanc_1_10::XalanMemMgrAutoPtr<xalanc_1_10::XPathFactoryDefault, false>::MemMgrAutoPtrData"* %m_pointerInfo2, %"class.xercesc_2_7::MemoryManager"* null, %"class.xalanc_1_10::XPathFactoryDefault"* null), !dbg !4603
  %2 = bitcast %"class.xalanc_1_10::XalanMemMgrAutoPtr<xalanc_1_10::XPathFactoryDefault, false>::MemMgrAutoPtrData"* %retval to i8*, !dbg !4604
  %3 = bitcast %"class.xalanc_1_10::XalanMemMgrAutoPtr<xalanc_1_10::XPathFactoryDefault, false>::MemMgrAutoPtrData"* %tmp to i8*, !dbg !4604
  call void @llvm.memcpy.p0i8.p0i8.i64(i8* align 8 %2, i8* align 8 %3, i64 16, i1 false), !dbg !4604
  %coerce.dive = getelementptr inbounds %"class.xalanc_1_10::XalanMemMgrAutoPtr<xalanc_1_10::XPathFactoryDefault, false>::MemMgrAutoPtrData", %"class.xalanc_1_10::XalanMemMgrAutoPtr<xalanc_1_10::XPathFactoryDefault, false>::MemMgrAutoPtrData"* %retval, i32 0, i32 0, !dbg !4605
  %4 = bitcast %"struct.std::pair.5"* %coerce.dive to { %"class.xercesc_2_7::MemoryManager"*, %"class.xalanc_1_10::XPathFactoryDefault"* }*, !dbg !4605
  %5 = load { %"class.xercesc_2_7::MemoryManager"*, %"class.xalanc_1_10::XPathFactoryDefault"* }, { %"class.xercesc_2_7::MemoryManager"*, %"class.xalanc_1_10::XPathFactoryDefault"* }* %4, align 8, !dbg !4605
  ret { %"class.xercesc_2_7::MemoryManager"*, %"class.xalanc_1_10::XPathFactoryDefault"* } %5, !dbg !4605
}

; Function Attrs: noinline nounwind uwtable
define linkonce_odr dso_local void @_ZN11xalanc_1_1018XalanMemMgrAutoPtrINS_19XPathFactoryDefaultELb0EED2Ev(%"class.xalanc_1_10::XalanMemMgrAutoPtr"* %this) unnamed_addr #4 comdat align 2 personality i8* bitcast (i32 (...)* @__gxx_personality_v0 to i8*) !dbg !4606 {
entry:
  %this.addr = alloca %"class.xalanc_1_10::XalanMemMgrAutoPtr"*, align 8
  store %"class.xalanc_1_10::XalanMemMgrAutoPtr"* %this, %"class.xalanc_1_10::XalanMemMgrAutoPtr"** %this.addr, align 8
  call void @llvm.dbg.declare(metadata %"class.xalanc_1_10::XalanMemMgrAutoPtr"** %this.addr, metadata !4607, metadata !DIExpression()), !dbg !4608
  %this1 = load %"class.xalanc_1_10::XalanMemMgrAutoPtr"*, %"class.xalanc_1_10::XalanMemMgrAutoPtr"** %this.addr, align 8
  %m_pointerInfo = getelementptr inbounds %"class.xalanc_1_10::XalanMemMgrAutoPtr", %"class.xalanc_1_10::XalanMemMgrAutoPtr"* %this1, i32 0, i32 0, !dbg !4609
  invoke void @_ZN11xalanc_1_1018XalanMemMgrAutoPtrINS_19XPathFactoryDefaultELb0EE17MemMgrAutoPtrData10deallocateEv(%"class.xalanc_1_10::XalanMemMgrAutoPtr<xalanc_1_10::XPathFactoryDefault, false>::MemMgrAutoPtrData"* %m_pointerInfo)
          to label %invoke.cont unwind label %terminate.lpad, !dbg !4611

invoke.cont:                                      ; preds = %entry
  ret void, !dbg !4612

terminate.lpad:                                   ; preds = %entry
  %0 = landingpad { i8*, i32 }
          catch i8* null, !dbg !4611
  %1 = extractvalue { i8*, i32 } %0, 0, !dbg !4611
  call void @__clang_call_terminate(i8* %1) #9, !dbg !4611
  unreachable, !dbg !4611
}

; Function Attrs: noinline nounwind uwtable
define dso_local void @_ZN11xalanc_1_1019XPathFactoryDefaultD2Ev(%"class.xalanc_1_10::XPathFactoryDefault"* %this) unnamed_addr #4 align 2 personality i8* bitcast (i32 (...)* @__gxx_personality_v0 to i8*) !dbg !4613 {
entry:
  %this.addr = alloca %"class.xalanc_1_10::XPathFactoryDefault"*, align 8
  %exn.slot = alloca i8*
  %ehselector.slot = alloca i32
  store %"class.xalanc_1_10::XPathFactoryDefault"* %this, %"class.xalanc_1_10::XPathFactoryDefault"** %this.addr, align 8
  call void @llvm.dbg.declare(metadata %"class.xalanc_1_10::XPathFactoryDefault"** %this.addr, metadata !4614, metadata !DIExpression()), !dbg !4615
  %this1 = load %"class.xalanc_1_10::XPathFactoryDefault"*, %"class.xalanc_1_10::XPathFactoryDefault"** %this.addr, align 8
  %0 = bitcast %"class.xalanc_1_10::XPathFactoryDefault"* %this1 to i32 (...)***, !dbg !4616
  store i32 (...)** bitcast (i8** getelementptr inbounds ({ [7 x i8*] }, { [7 x i8*] }* @_ZTVN11xalanc_1_1019XPathFactoryDefaultE, i32 0, inrange i32 0, i32 2) to i32 (...)**), i32 (...)*** %0, align 8, !dbg !4616
  %1 = bitcast %"class.xalanc_1_10::XPathFactoryDefault"* %this1 to void (%"class.xalanc_1_10::XPathFactoryDefault"*)***, !dbg !4617
  %vtable = load void (%"class.xalanc_1_10::XPathFactoryDefault"*)**, void (%"class.xalanc_1_10::XPathFactoryDefault"*)*** %1, align 8, !dbg !4617
  %vfn = getelementptr inbounds void (%"class.xalanc_1_10::XPathFactoryDefault"*)*, void (%"class.xalanc_1_10::XPathFactoryDefault"*)** %vtable, i64 2, !dbg !4617
  %2 = load void (%"class.xalanc_1_10::XPathFactoryDefault"*)*, void (%"class.xalanc_1_10::XPathFactoryDefault"*)** %vfn, align 8, !dbg !4617
  invoke void %2(%"class.xalanc_1_10::XPathFactoryDefault"* %this1)
          to label %invoke.cont unwind label %lpad, !dbg !4617

invoke.cont:                                      ; preds = %entry
  %m_xpaths = getelementptr inbounds %"class.xalanc_1_10::XPathFactoryDefault", %"class.xalanc_1_10::XPathFactoryDefault"* %this1, i32 0, i32 1, !dbg !4619
  call void @_ZN11xalanc_1_108XalanSetIPKNS_5XPathEED2Ev(%"class.xalanc_1_10::XalanSet"* %m_xpaths) #8, !dbg !4619
  %3 = bitcast %"class.xalanc_1_10::XPathFactoryDefault"* %this1 to %"class.xalanc_1_10::XPathFactory"*, !dbg !4619
  call void @_ZN11xalanc_1_1012XPathFactoryD2Ev(%"class.xalanc_1_10::XPathFactory"* %3) #8, !dbg !4619
  ret void, !dbg !4620

lpad:                                             ; preds = %entry
  %4 = landingpad { i8*, i32 }
          catch i8* null, !dbg !4619
  %5 = extractvalue { i8*, i32 } %4, 0, !dbg !4619
  store i8* %5, i8** %exn.slot, align 8, !dbg !4619
  %6 = extractvalue { i8*, i32 } %4, 1, !dbg !4619
  store i32 %6, i32* %ehselector.slot, align 4, !dbg !4619
  %m_xpaths2 = getelementptr inbounds %"class.xalanc_1_10::XPathFactoryDefault", %"class.xalanc_1_10::XPathFactoryDefault"* %this1, i32 0, i32 1, !dbg !4619
  call void @_ZN11xalanc_1_108XalanSetIPKNS_5XPathEED2Ev(%"class.xalanc_1_10::XalanSet"* %m_xpaths2) #8, !dbg !4619
  %7 = bitcast %"class.xalanc_1_10::XPathFactoryDefault"* %this1 to %"class.xalanc_1_10::XPathFactory"*, !dbg !4619
  call void @_ZN11xalanc_1_1012XPathFactoryD2Ev(%"class.xalanc_1_10::XPathFactory"* %7) #8, !dbg !4619
  br label %terminate.handler, !dbg !4619

terminate.handler:                                ; preds = %lpad
  %exn = load i8*, i8** %exn.slot, align 8, !dbg !4619
  call void @__clang_call_terminate(i8* %exn) #9, !dbg !4619
  unreachable, !dbg !4619
}

; Function Attrs: noinline nounwind uwtable
define linkonce_odr dso_local void @_ZN11xalanc_1_108XalanSetIPKNS_5XPathEED2Ev(%"class.xalanc_1_10::XalanSet"* %this) unnamed_addr #4 comdat align 2 !dbg !4621 {
entry:
  %this.addr = alloca %"class.xalanc_1_10::XalanSet"*, align 8
  store %"class.xalanc_1_10::XalanSet"* %this, %"class.xalanc_1_10::XalanSet"** %this.addr, align 8
  call void @llvm.dbg.declare(metadata %"class.xalanc_1_10::XalanSet"** %this.addr, metadata !4623, metadata !DIExpression()), !dbg !4624
  %this1 = load %"class.xalanc_1_10::XalanSet"*, %"class.xalanc_1_10::XalanSet"** %this.addr, align 8
  %m_map = getelementptr inbounds %"class.xalanc_1_10::XalanSet", %"class.xalanc_1_10::XalanSet"* %this1, i32 0, i32 0, !dbg !4625
  call void @_ZN11xalanc_1_108XalanMapIPKNS_5XPathEbNS_17XalanMapKeyTraitsIS3_EEED2Ev(%"class.xalanc_1_10::XalanMap"* %m_map) #8, !dbg !4625
  ret void, !dbg !4627
}

; Function Attrs: noinline noreturn nounwind
define linkonce_odr hidden void @__clang_call_terminate(i8* %0) #5 comdat {
  %2 = call i8* @__cxa_begin_catch(i8* %0) #8
  call void @_ZSt9terminatev() #9
  unreachable
}

declare dso_local i8* @__cxa_begin_catch(i8*)

declare dso_local void @_ZSt9terminatev()

; Function Attrs: noinline nounwind uwtable
define dso_local void @_ZN11xalanc_1_1019XPathFactoryDefaultD0Ev(%"class.xalanc_1_10::XPathFactoryDefault"* %this) unnamed_addr #4 align 2 !dbg !4628 {
entry:
  %this.addr = alloca %"class.xalanc_1_10::XPathFactoryDefault"*, align 8
  store %"class.xalanc_1_10::XPathFactoryDefault"* %this, %"class.xalanc_1_10::XPathFactoryDefault"** %this.addr, align 8
  call void @llvm.dbg.declare(metadata %"class.xalanc_1_10::XPathFactoryDefault"** %this.addr, metadata !4629, metadata !DIExpression()), !dbg !4630
  %this1 = load %"class.xalanc_1_10::XPathFactoryDefault"*, %"class.xalanc_1_10::XPathFactoryDefault"** %this.addr, align 8
  call void @_ZN11xalanc_1_1019XPathFactoryDefaultD1Ev(%"class.xalanc_1_10::XPathFactoryDefault"* %this1) #8, !dbg !4631
  %0 = bitcast %"class.xalanc_1_10::XPathFactoryDefault"* %this1 to i8*, !dbg !4631
  call void @_ZdlPv(i8* %0) #10, !dbg !4631
  ret void, !dbg !4632
}

; Function Attrs: nobuiltin nounwind
declare dso_local void @_ZdlPv(i8*) #6

; Function Attrs: noinline uwtable
define dso_local void @_ZN11xalanc_1_1019XPathFactoryDefault5resetEv(%"class.xalanc_1_10::XPathFactoryDefault"* %this) unnamed_addr #0 align 2 !dbg !4633 {
entry:
  %this.addr = alloca %"class.xalanc_1_10::XPathFactoryDefault"*, align 8
  %agg.tmp = alloca %"struct.xalanc_1_10::XalanSetIterator", align 8
  %agg.tmp2 = alloca %"struct.xalanc_1_10::XalanSetIterator", align 8
  %agg.tmp4 = alloca %"struct.xalanc_1_10::XPathFactory::DeleteXPathFunctor", align 8
  %coerce = alloca %"struct.xalanc_1_10::XPathFactory::DeleteXPathFunctor", align 8
  store %"class.xalanc_1_10::XPathFactoryDefault"* %this, %"class.xalanc_1_10::XPathFactoryDefault"** %this.addr, align 8
  call void @llvm.dbg.declare(metadata %"class.xalanc_1_10::XPathFactoryDefault"** %this.addr, metadata !4634, metadata !DIExpression()), !dbg !4635
  %this1 = load %"class.xalanc_1_10::XPathFactoryDefault"*, %"class.xalanc_1_10::XPathFactoryDefault"** %this.addr, align 8
  %m_xpaths = getelementptr inbounds %"class.xalanc_1_10::XPathFactoryDefault", %"class.xalanc_1_10::XPathFactoryDefault"* %this1, i32 0, i32 1, !dbg !4636
  call void @_ZNK11xalanc_1_108XalanSetIPKNS_5XPathEE5beginEv(%"struct.xalanc_1_10::XalanSetIterator"* sret %agg.tmp, %"class.xalanc_1_10::XalanSet"* %m_xpaths), !dbg !4637
  %m_xpaths3 = getelementptr inbounds %"class.xalanc_1_10::XPathFactoryDefault", %"class.xalanc_1_10::XPathFactoryDefault"* %this1, i32 0, i32 1, !dbg !4638
  call void @_ZNK11xalanc_1_108XalanSetIPKNS_5XPathEE3endEv(%"struct.xalanc_1_10::XalanSetIterator"* sret %agg.tmp2, %"class.xalanc_1_10::XalanSet"* %m_xpaths3), !dbg !4639
  %0 = bitcast %"class.xalanc_1_10::XPathFactoryDefault"* %this1 to %"class.xalanc_1_10::XPathFactory"*, !dbg !4640
  call void @_ZN11xalanc_1_1012XPathFactory18DeleteXPathFunctorC2ERS0_b(%"struct.xalanc_1_10::XPathFactory::DeleteXPathFunctor"* %agg.tmp4, %"class.xalanc_1_10::XPathFactory"* dereferenceable(8) %0, i1 zeroext true), !dbg !4641
  %1 = bitcast %"struct.xalanc_1_10::XPathFactory::DeleteXPathFunctor"* %agg.tmp4 to { %"class.xalanc_1_10::XPathFactory"*, i8 }*, !dbg !4642
  %2 = getelementptr inbounds { %"class.xalanc_1_10::XPathFactory"*, i8 }, { %"class.xalanc_1_10::XPathFactory"*, i8 }* %1, i32 0, i32 0, !dbg !4642
  %3 = load %"class.xalanc_1_10::XPathFactory"*, %"class.xalanc_1_10::XPathFactory"** %2, align 8, !dbg !4642
  %4 = getelementptr inbounds { %"class.xalanc_1_10::XPathFactory"*, i8 }, { %"class.xalanc_1_10::XPathFactory"*, i8 }* %1, i32 0, i32 1, !dbg !4642
  %5 = load i8, i8* %4, align 8, !dbg !4642
  %call = call { %"class.xalanc_1_10::XPathFactory"*, i8 } @_ZSt8for_eachIN11xalanc_1_1016XalanSetIteratorIKPKNS0_5XPathENS0_16XalanMapIteratorINS0_27XalanMapConstIteratorTraitsISt4pairIS5_bEEENS0_21XalanListIteratorBaseINS0_23XalanListIteratorTraitsINS0_8XalanMapIS4_bNS0_17XalanMapKeyTraitsIS4_EEE5EntryEEENS0_9XalanListISH_E4NodeEEEEEEENS0_12XPathFactory18DeleteXPathFunctorEET0_T_SS_SR_(%"struct.xalanc_1_10::XalanSetIterator"* %agg.tmp, %"struct.xalanc_1_10::XalanSetIterator"* %agg.tmp2, %"class.xalanc_1_10::XPathFactory"* %3, i8 %5), !dbg !4642
  %6 = bitcast %"struct.xalanc_1_10::XPathFactory::DeleteXPathFunctor"* %coerce to { %"class.xalanc_1_10::XPathFactory"*, i8 }*, !dbg !4642
  %7 = getelementptr inbounds { %"class.xalanc_1_10::XPathFactory"*, i8 }, { %"class.xalanc_1_10::XPathFactory"*, i8 }* %6, i32 0, i32 0, !dbg !4642
  %8 = extractvalue { %"class.xalanc_1_10::XPathFactory"*, i8 } %call, 0, !dbg !4642
  store %"class.xalanc_1_10::XPathFactory"* %8, %"class.xalanc_1_10::XPathFactory"** %7, align 8, !dbg !4642
  %9 = getelementptr inbounds { %"class.xalanc_1_10::XPathFactory"*, i8 }, { %"class.xalanc_1_10::XPathFactory"*, i8 }* %6, i32 0, i32 1, !dbg !4642
  %10 = extractvalue { %"class.xalanc_1_10::XPathFactory"*, i8 } %call, 1, !dbg !4642
  store i8 %10, i8* %9, align 8, !dbg !4642
  %m_xpaths5 = getelementptr inbounds %"class.xalanc_1_10::XPathFactoryDefault", %"class.xalanc_1_10::XPathFactoryDefault"* %this1, i32 0, i32 1, !dbg !4643
  call void @_ZN11xalanc_1_108XalanSetIPKNS_5XPathEE5clearEv(%"class.xalanc_1_10::XalanSet"* %m_xpaths5), !dbg !4644
  ret void, !dbg !4645
}

; Function Attrs: noinline uwtable
define linkonce_odr dso_local { %"class.xalanc_1_10::XPathFactory"*, i8 } @_ZSt8for_eachIN11xalanc_1_1016XalanSetIteratorIKPKNS0_5XPathENS0_16XalanMapIteratorINS0_27XalanMapConstIteratorTraitsISt4pairIS5_bEEENS0_21XalanListIteratorBaseINS0_23XalanListIteratorTraitsINS0_8XalanMapIS4_bNS0_17XalanMapKeyTraitsIS4_EEE5EntryEEENS0_9XalanListISH_E4NodeEEEEEEENS0_12XPathFactory18DeleteXPathFunctorEET0_T_SS_SR_(%"struct.xalanc_1_10::XalanSetIterator"* %__first, %"struct.xalanc_1_10::XalanSetIterator"* %__last, %"class.xalanc_1_10::XPathFactory"* %__f.coerce0, i8 %__f.coerce1) #0 comdat !dbg !4646 {
entry:
  %retval = alloca %"struct.xalanc_1_10::XPathFactory::DeleteXPathFunctor", align 8
  %__f = alloca %"struct.xalanc_1_10::XPathFactory::DeleteXPathFunctor", align 8
  %tmp = alloca %"struct.xalanc_1_10::XalanSetIterator", align 8
  %0 = bitcast %"struct.xalanc_1_10::XPathFactory::DeleteXPathFunctor"* %__f to { %"class.xalanc_1_10::XPathFactory"*, i8 }*
  %1 = getelementptr inbounds { %"class.xalanc_1_10::XPathFactory"*, i8 }, { %"class.xalanc_1_10::XPathFactory"*, i8 }* %0, i32 0, i32 0
  store %"class.xalanc_1_10::XPathFactory"* %__f.coerce0, %"class.xalanc_1_10::XPathFactory"** %1, align 8
  %2 = getelementptr inbounds { %"class.xalanc_1_10::XPathFactory"*, i8 }, { %"class.xalanc_1_10::XPathFactory"*, i8 }* %0, i32 0, i32 1
  store i8 %__f.coerce1, i8* %2, align 8
  call void @llvm.dbg.declare(metadata %"struct.xalanc_1_10::XalanSetIterator"* %__first, metadata !4674, metadata !DIExpression()), !dbg !4675
  call void @llvm.dbg.declare(metadata %"struct.xalanc_1_10::XalanSetIterator"* %__last, metadata !4676, metadata !DIExpression()), !dbg !4677
  call void @llvm.dbg.declare(metadata %"struct.xalanc_1_10::XPathFactory::DeleteXPathFunctor"* %__f, metadata !4678, metadata !DIExpression()), !dbg !4679
  br label %for.cond, !dbg !4680

for.cond:                                         ; preds = %for.inc, %entry
  %call = call zeroext i1 @_ZNK11xalanc_1_1016XalanSetIteratorIKPKNS_5XPathENS_16XalanMapIteratorINS_27XalanMapConstIteratorTraitsISt4pairIS4_bEEENS_21XalanListIteratorBaseINS_23XalanListIteratorTraitsINS_8XalanMapIS3_bNS_17XalanMapKeyTraitsIS3_EEE5EntryEEENS_9XalanListISG_E4NodeEEEEEEneERKSN_(%"struct.xalanc_1_10::XalanSetIterator"* %__first, %"struct.xalanc_1_10::XalanSetIterator"* dereferenceable(8) %__last), !dbg !4681
  br i1 %call, label %for.body, label %for.end, !dbg !4684

for.body:                                         ; preds = %for.cond
  %call1 = call dereferenceable(8) %"class.xalanc_1_10::XPath"** @_ZNK11xalanc_1_1016XalanSetIteratorIKPKNS_5XPathENS_16XalanMapIteratorINS_27XalanMapConstIteratorTraitsISt4pairIS4_bEEENS_21XalanListIteratorBaseINS_23XalanListIteratorTraitsINS_8XalanMapIS3_bNS_17XalanMapKeyTraitsIS3_EEE5EntryEEENS_9XalanListISG_E4NodeEEEEEEdeEv(%"struct.xalanc_1_10::XalanSetIterator"* %__first), !dbg !4685
  %3 = load %"class.xalanc_1_10::XPath"*, %"class.xalanc_1_10::XPath"** %call1, align 8, !dbg !4685
  call void @_ZNK11xalanc_1_1012XPathFactory18DeleteXPathFunctorclEPKNS_5XPathE(%"struct.xalanc_1_10::XPathFactory::DeleteXPathFunctor"* %__f, %"class.xalanc_1_10::XPath"* %3), !dbg !4686
  br label %for.inc, !dbg !4686

for.inc:                                          ; preds = %for.body
  call void @_ZN11xalanc_1_1016XalanSetIteratorIKPKNS_5XPathENS_16XalanMapIteratorINS_27XalanMapConstIteratorTraitsISt4pairIS4_bEEENS_21XalanListIteratorBaseINS_23XalanListIteratorTraitsINS_8XalanMapIS3_bNS_17XalanMapKeyTraitsIS3_EEE5EntryEEENS_9XalanListISG_E4NodeEEEEEEppEv(%"struct.xalanc_1_10::XalanSetIterator"* sret %tmp, %"struct.xalanc_1_10::XalanSetIterator"* %__first), !dbg !4687
  br label %for.cond, !dbg !4688, !llvm.loop !4689

for.end:                                          ; preds = %for.cond
  %4 = bitcast %"struct.xalanc_1_10::XPathFactory::DeleteXPathFunctor"* %retval to i8*, !dbg !4691
  %5 = bitcast %"struct.xalanc_1_10::XPathFactory::DeleteXPathFunctor"* %__f to i8*, !dbg !4691
  call void @llvm.memcpy.p0i8.p0i8.i64(i8* align 8 %4, i8* align 8 %5, i64 16, i1 false), !dbg !4691
  %6 = bitcast %"struct.xalanc_1_10::XPathFactory::DeleteXPathFunctor"* %retval to { %"class.xalanc_1_10::XPathFactory"*, i8 }*, !dbg !4692
  %7 = load { %"class.xalanc_1_10::XPathFactory"*, i8 }, { %"class.xalanc_1_10::XPathFactory"*, i8 }* %6, align 8, !dbg !4692
  ret { %"class.xalanc_1_10::XPathFactory"*, i8 } %7, !dbg !4692
}

; Function Attrs: noinline uwtable
define linkonce_odr dso_local void @_ZNK11xalanc_1_108XalanSetIPKNS_5XPathEE5beginEv(%"struct.xalanc_1_10::XalanSetIterator"* noalias sret %agg.result, %"class.xalanc_1_10::XalanSet"* %this) #0 comdat align 2 !dbg !4693 {
entry:
  %result.ptr = alloca i8*, align 8
  %this.addr = alloca %"class.xalanc_1_10::XalanSet"*, align 8
  %ref.tmp = alloca %"struct.xalanc_1_10::XalanMapIterator", align 8
  %0 = bitcast %"struct.xalanc_1_10::XalanSetIterator"* %agg.result to i8*
  store i8* %0, i8** %result.ptr, align 8
  store %"class.xalanc_1_10::XalanSet"* %this, %"class.xalanc_1_10::XalanSet"** %this.addr, align 8
  call void @llvm.dbg.declare(metadata %"class.xalanc_1_10::XalanSet"** %this.addr, metadata !4694, metadata !DIExpression()), !dbg !4696
  %this1 = load %"class.xalanc_1_10::XalanSet"*, %"class.xalanc_1_10::XalanSet"** %this.addr, align 8
  %m_map = getelementptr inbounds %"class.xalanc_1_10::XalanSet", %"class.xalanc_1_10::XalanSet"* %this1, i32 0, i32 0, !dbg !4697
  call void @_ZNK11xalanc_1_108XalanMapIPKNS_5XPathEbNS_17XalanMapKeyTraitsIS3_EEE5beginEv(%"struct.xalanc_1_10::XalanMapIterator"* sret %ref.tmp, %"class.xalanc_1_10::XalanMap"* %m_map), !dbg !4698
  call void @_ZN11xalanc_1_1016XalanSetIteratorIKPKNS_5XPathENS_16XalanMapIteratorINS_27XalanMapConstIteratorTraitsISt4pairIS4_bEEENS_21XalanListIteratorBaseINS_23XalanListIteratorTraitsINS_8XalanMapIS3_bNS_17XalanMapKeyTraitsIS3_EEE5EntryEEENS_9XalanListISG_E4NodeEEEEEEC2ERKSM_(%"struct.xalanc_1_10::XalanSetIterator"* %agg.result, %"struct.xalanc_1_10::XalanMapIterator"* dereferenceable(8) %ref.tmp), !dbg !4697
  ret void, !dbg !4699
}

; Function Attrs: noinline uwtable
define linkonce_odr dso_local void @_ZNK11xalanc_1_108XalanSetIPKNS_5XPathEE3endEv(%"struct.xalanc_1_10::XalanSetIterator"* noalias sret %agg.result, %"class.xalanc_1_10::XalanSet"* %this) #0 comdat align 2 !dbg !4700 {
entry:
  %result.ptr = alloca i8*, align 8
  %this.addr = alloca %"class.xalanc_1_10::XalanSet"*, align 8
  %ref.tmp = alloca %"struct.xalanc_1_10::XalanMapIterator", align 8
  %0 = bitcast %"struct.xalanc_1_10::XalanSetIterator"* %agg.result to i8*
  store i8* %0, i8** %result.ptr, align 8
  store %"class.xalanc_1_10::XalanSet"* %this, %"class.xalanc_1_10::XalanSet"** %this.addr, align 8
  call void @llvm.dbg.declare(metadata %"class.xalanc_1_10::XalanSet"** %this.addr, metadata !4701, metadata !DIExpression()), !dbg !4702
  %this1 = load %"class.xalanc_1_10::XalanSet"*, %"class.xalanc_1_10::XalanSet"** %this.addr, align 8
  %m_map = getelementptr inbounds %"class.xalanc_1_10::XalanSet", %"class.xalanc_1_10::XalanSet"* %this1, i32 0, i32 0, !dbg !4703
  call void @_ZNK11xalanc_1_108XalanMapIPKNS_5XPathEbNS_17XalanMapKeyTraitsIS3_EEE3endEv(%"struct.xalanc_1_10::XalanMapIterator"* sret %ref.tmp, %"class.xalanc_1_10::XalanMap"* %m_map), !dbg !4704
  call void @_ZN11xalanc_1_1016XalanSetIteratorIKPKNS_5XPathENS_16XalanMapIteratorINS_27XalanMapConstIteratorTraitsISt4pairIS4_bEEENS_21XalanListIteratorBaseINS_23XalanListIteratorTraitsINS_8XalanMapIS3_bNS_17XalanMapKeyTraitsIS3_EEE5EntryEEENS_9XalanListISG_E4NodeEEEEEEC2ERKSM_(%"struct.xalanc_1_10::XalanSetIterator"* %agg.result, %"struct.xalanc_1_10::XalanMapIterator"* dereferenceable(8) %ref.tmp), !dbg !4703
  ret void, !dbg !4705
}

; Function Attrs: noinline nounwind uwtable
define linkonce_odr dso_local void @_ZN11xalanc_1_1012XPathFactory18DeleteXPathFunctorC2ERS0_b(%"struct.xalanc_1_10::XPathFactory::DeleteXPathFunctor"* %this, %"class.xalanc_1_10::XPathFactory"* dereferenceable(8) %theFactoryInstance, i1 zeroext %fInReset) unnamed_addr #4 comdat align 2 !dbg !4706 {
entry:
  %this.addr = alloca %"struct.xalanc_1_10::XPathFactory::DeleteXPathFunctor"*, align 8
  %theFactoryInstance.addr = alloca %"class.xalanc_1_10::XPathFactory"*, align 8
  %fInReset.addr = alloca i8, align 1
  store %"struct.xalanc_1_10::XPathFactory::DeleteXPathFunctor"* %this, %"struct.xalanc_1_10::XPathFactory::DeleteXPathFunctor"** %this.addr, align 8
  call void @llvm.dbg.declare(metadata %"struct.xalanc_1_10::XPathFactory::DeleteXPathFunctor"** %this.addr, metadata !4707, metadata !DIExpression()), !dbg !4709
  store %"class.xalanc_1_10::XPathFactory"* %theFactoryInstance, %"class.xalanc_1_10::XPathFactory"** %theFactoryInstance.addr, align 8
  call void @llvm.dbg.declare(metadata %"class.xalanc_1_10::XPathFactory"** %theFactoryInstance.addr, metadata !4710, metadata !DIExpression()), !dbg !4711
  %frombool = zext i1 %fInReset to i8
  store i8 %frombool, i8* %fInReset.addr, align 1
  call void @llvm.dbg.declare(metadata i8* %fInReset.addr, metadata !4712, metadata !DIExpression()), !dbg !4713
  %this1 = load %"struct.xalanc_1_10::XPathFactory::DeleteXPathFunctor"*, %"struct.xalanc_1_10::XPathFactory::DeleteXPathFunctor"** %this.addr, align 8
  %0 = bitcast %"struct.xalanc_1_10::XPathFactory::DeleteXPathFunctor"* %this1 to %"struct.std::unary_function.8"*, !dbg !4714
  %m_factoryInstance = getelementptr inbounds %"struct.xalanc_1_10::XPathFactory::DeleteXPathFunctor", %"struct.xalanc_1_10::XPathFactory::DeleteXPathFunctor"* %this1, i32 0, i32 0, !dbg !4715
  %1 = load %"class.xalanc_1_10::XPathFactory"*, %"class.xalanc_1_10::XPathFactory"** %theFactoryInstance.addr, align 8, !dbg !4716
  store %"class.xalanc_1_10::XPathFactory"* %1, %"class.xalanc_1_10::XPathFactory"** %m_factoryInstance, align 8, !dbg !4715
  %m_fInReset = getelementptr inbounds %"struct.xalanc_1_10::XPathFactory::DeleteXPathFunctor", %"struct.xalanc_1_10::XPathFactory::DeleteXPathFunctor"* %this1, i32 0, i32 1, !dbg !4717
  %2 = load i8, i8* %fInReset.addr, align 1, !dbg !4718
  %tobool = trunc i8 %2 to i1, !dbg !4718
  %frombool2 = zext i1 %tobool to i8, !dbg !4717
  store i8 %frombool2, i8* %m_fInReset, align 8, !dbg !4717
  ret void, !dbg !4719
}

; Function Attrs: noinline uwtable
define linkonce_odr dso_local void @_ZN11xalanc_1_108XalanSetIPKNS_5XPathEE5clearEv(%"class.xalanc_1_10::XalanSet"* %this) #0 comdat align 2 !dbg !4720 {
entry:
  %this.addr = alloca %"class.xalanc_1_10::XalanSet"*, align 8
  store %"class.xalanc_1_10::XalanSet"* %this, %"class.xalanc_1_10::XalanSet"** %this.addr, align 8
  call void @llvm.dbg.declare(metadata %"class.xalanc_1_10::XalanSet"** %this.addr, metadata !4721, metadata !DIExpression()), !dbg !4722
  %this1 = load %"class.xalanc_1_10::XalanSet"*, %"class.xalanc_1_10::XalanSet"** %this.addr, align 8
  %m_map = getelementptr inbounds %"class.xalanc_1_10::XalanSet", %"class.xalanc_1_10::XalanSet"* %this1, i32 0, i32 0, !dbg !4723
  call void @_ZN11xalanc_1_108XalanMapIPKNS_5XPathEbNS_17XalanMapKeyTraitsIS3_EEE5clearEv(%"class.xalanc_1_10::XalanMap"* %m_map), !dbg !4724
  ret void, !dbg !4725
}

; Function Attrs: noinline uwtable
define dso_local zeroext i1 @_ZN11xalanc_1_1019XPathFactoryDefault14doReturnObjectEPKNS_5XPathEb(%"class.xalanc_1_10::XPathFactoryDefault"* %this, %"class.xalanc_1_10::XPath"* %theXPath, i1 zeroext %fInReset) unnamed_addr #0 align 2 !dbg !4726 {
entry:
  %retval = alloca i1, align 1
  %this.addr = alloca %"class.xalanc_1_10::XPathFactoryDefault"*, align 8
  %theXPath.addr = alloca %"class.xalanc_1_10::XPath"*, align 8
  %fInReset.addr = alloca i8, align 1
  %theCount = alloca i64, align 8
  store %"class.xalanc_1_10::XPathFactoryDefault"* %this, %"class.xalanc_1_10::XPathFactoryDefault"** %this.addr, align 8
  call void @llvm.dbg.declare(metadata %"class.xalanc_1_10::XPathFactoryDefault"** %this.addr, metadata !4727, metadata !DIExpression()), !dbg !4728
  store %"class.xalanc_1_10::XPath"* %theXPath, %"class.xalanc_1_10::XPath"** %theXPath.addr, align 8
  call void @llvm.dbg.declare(metadata %"class.xalanc_1_10::XPath"** %theXPath.addr, metadata !4729, metadata !DIExpression()), !dbg !4730
  %frombool = zext i1 %fInReset to i8
  store i8 %frombool, i8* %fInReset.addr, align 1
  call void @llvm.dbg.declare(metadata i8* %fInReset.addr, metadata !4731, metadata !DIExpression()), !dbg !4732
  %this1 = load %"class.xalanc_1_10::XPathFactoryDefault"*, %"class.xalanc_1_10::XPathFactoryDefault"** %this.addr, align 8
  call void @llvm.dbg.declare(metadata i64* %theCount, metadata !4733, metadata !DIExpression()), !dbg !4735
  %0 = load i8, i8* %fInReset.addr, align 1, !dbg !4736
  %tobool = trunc i8 %0 to i1, !dbg !4736
  %conv = zext i1 %tobool to i32, !dbg !4736
  %cmp = icmp eq i32 %conv, 1, !dbg !4737
  br i1 %cmp, label %cond.true, label %cond.false, !dbg !4736

cond.true:                                        ; preds = %entry
  %m_xpaths = getelementptr inbounds %"class.xalanc_1_10::XPathFactoryDefault", %"class.xalanc_1_10::XPathFactoryDefault"* %this1, i32 0, i32 1, !dbg !4738
  %call = call i64 @_ZNK11xalanc_1_108XalanSetIPKNS_5XPathEE5countERKS3_(%"class.xalanc_1_10::XalanSet"* %m_xpaths, %"class.xalanc_1_10::XPath"** dereferenceable(8) %theXPath.addr), !dbg !4739
  br label %cond.end, !dbg !4736

cond.false:                                       ; preds = %entry
  %m_xpaths2 = getelementptr inbounds %"class.xalanc_1_10::XPathFactoryDefault", %"class.xalanc_1_10::XPathFactoryDefault"* %this1, i32 0, i32 1, !dbg !4740
  %call3 = call i64 @_ZN11xalanc_1_108XalanSetIPKNS_5XPathEE5eraseERKS3_(%"class.xalanc_1_10::XalanSet"* %m_xpaths2, %"class.xalanc_1_10::XPath"** dereferenceable(8) %theXPath.addr), !dbg !4741
  br label %cond.end, !dbg !4736

cond.end:                                         ; preds = %cond.false, %cond.true
  %cond = phi i64 [ %call, %cond.true ], [ %call3, %cond.false ], !dbg !4736
  store i64 %cond, i64* %theCount, align 8, !dbg !4735
  %1 = load i64, i64* %theCount, align 8, !dbg !4742
  %cmp4 = icmp eq i64 %1, 0, !dbg !4744
  br i1 %cmp4, label %if.then, label %if.else, !dbg !4745

if.then:                                          ; preds = %cond.end
  store i1 false, i1* %retval, align 1, !dbg !4746
  br label %return, !dbg !4746

if.else:                                          ; preds = %cond.end
  %2 = load %"class.xalanc_1_10::XPath"*, %"class.xalanc_1_10::XPath"** %theXPath.addr, align 8, !dbg !4748
  %m_xpaths5 = getelementptr inbounds %"class.xalanc_1_10::XPathFactoryDefault", %"class.xalanc_1_10::XPathFactoryDefault"* %this1, i32 0, i32 1, !dbg !4750
  %call6 = call dereferenceable(8) %"class.xercesc_2_7::MemoryManager"* @_ZN11xalanc_1_108XalanSetIPKNS_5XPathEE16getMemoryManagerEv(%"class.xalanc_1_10::XalanSet"* %m_xpaths5), !dbg !4751
  call void @_ZN11xalanc_1_1020destroyObjWithMemMgrINS_5XPathEEEvPKT_RN11xercesc_2_713MemoryManagerE(%"class.xalanc_1_10::XPath"* %2, %"class.xercesc_2_7::MemoryManager"* dereferenceable(8) %call6), !dbg !4752
  store i1 true, i1* %retval, align 1, !dbg !4753
  br label %return, !dbg !4753

return:                                           ; preds = %if.else, %if.then
  %3 = load i1, i1* %retval, align 1, !dbg !4754
  ret i1 %3, !dbg !4754
}

; Function Attrs: noinline uwtable
define linkonce_odr dso_local i64 @_ZNK11xalanc_1_108XalanSetIPKNS_5XPathEE5countERKS3_(%"class.xalanc_1_10::XalanSet"* %this, %"class.xalanc_1_10::XPath"** dereferenceable(8) %value) #0 comdat align 2 !dbg !4755 {
entry:
  %retval = alloca i64, align 8
  %this.addr = alloca %"class.xalanc_1_10::XalanSet"*, align 8
  %value.addr = alloca %"class.xalanc_1_10::XPath"**, align 8
  %ref.tmp = alloca %"struct.xalanc_1_10::XalanSetIterator", align 8
  %ref.tmp2 = alloca %"struct.xalanc_1_10::XalanSetIterator", align 8
  store %"class.xalanc_1_10::XalanSet"* %this, %"class.xalanc_1_10::XalanSet"** %this.addr, align 8
  call void @llvm.dbg.declare(metadata %"class.xalanc_1_10::XalanSet"** %this.addr, metadata !4756, metadata !DIExpression()), !dbg !4757
  store %"class.xalanc_1_10::XPath"** %value, %"class.xalanc_1_10::XPath"*** %value.addr, align 8
  call void @llvm.dbg.declare(metadata %"class.xalanc_1_10::XPath"*** %value.addr, metadata !4758, metadata !DIExpression()), !dbg !4759
  %this1 = load %"class.xalanc_1_10::XalanSet"*, %"class.xalanc_1_10::XalanSet"** %this.addr, align 8
  %0 = load %"class.xalanc_1_10::XPath"**, %"class.xalanc_1_10::XPath"*** %value.addr, align 8, !dbg !4760
  call void @_ZNK11xalanc_1_108XalanSetIPKNS_5XPathEE4findERKS3_(%"struct.xalanc_1_10::XalanSetIterator"* sret %ref.tmp, %"class.xalanc_1_10::XalanSet"* %this1, %"class.xalanc_1_10::XPath"** dereferenceable(8) %0), !dbg !4762
  call void @_ZNK11xalanc_1_108XalanSetIPKNS_5XPathEE3endEv(%"struct.xalanc_1_10::XalanSetIterator"* sret %ref.tmp2, %"class.xalanc_1_10::XalanSet"* %this1), !dbg !4763
  %call = call zeroext i1 @_ZNK11xalanc_1_1016XalanSetIteratorIKPKNS_5XPathENS_16XalanMapIteratorINS_27XalanMapConstIteratorTraitsISt4pairIS4_bEEENS_21XalanListIteratorBaseINS_23XalanListIteratorTraitsINS_8XalanMapIS3_bNS_17XalanMapKeyTraitsIS3_EEE5EntryEEENS_9XalanListISG_E4NodeEEEEEEneERKSN_(%"struct.xalanc_1_10::XalanSetIterator"* %ref.tmp, %"struct.xalanc_1_10::XalanSetIterator"* dereferenceable(8) %ref.tmp2), !dbg !4764
  br i1 %call, label %if.then, label %if.else, !dbg !4765

if.then:                                          ; preds = %entry
  store i64 1, i64* %retval, align 8, !dbg !4766
  br label %return, !dbg !4766

if.else:                                          ; preds = %entry
  store i64 0, i64* %retval, align 8, !dbg !4768
  br label %return, !dbg !4768

return:                                           ; preds = %if.else, %if.then
  %1 = load i64, i64* %retval, align 8, !dbg !4770
  ret i64 %1, !dbg !4770
}

; Function Attrs: noinline uwtable
define linkonce_odr dso_local i64 @_ZN11xalanc_1_108XalanSetIPKNS_5XPathEE5eraseERKS3_(%"class.xalanc_1_10::XalanSet"* %this, %"class.xalanc_1_10::XPath"** dereferenceable(8) %value) #0 comdat align 2 !dbg !4771 {
entry:
  %this.addr = alloca %"class.xalanc_1_10::XalanSet"*, align 8
  %value.addr = alloca %"class.xalanc_1_10::XPath"**, align 8
  store %"class.xalanc_1_10::XalanSet"* %this, %"class.xalanc_1_10::XalanSet"** %this.addr, align 8
  call void @llvm.dbg.declare(metadata %"class.xalanc_1_10::XalanSet"** %this.addr, metadata !4772, metadata !DIExpression()), !dbg !4773
  store %"class.xalanc_1_10::XPath"** %value, %"class.xalanc_1_10::XPath"*** %value.addr, align 8
  call void @llvm.dbg.declare(metadata %"class.xalanc_1_10::XPath"*** %value.addr, metadata !4774, metadata !DIExpression()), !dbg !4775
  %this1 = load %"class.xalanc_1_10::XalanSet"*, %"class.xalanc_1_10::XalanSet"** %this.addr, align 8
  %m_map = getelementptr inbounds %"class.xalanc_1_10::XalanSet", %"class.xalanc_1_10::XalanSet"* %this1, i32 0, i32 0, !dbg !4776
  %0 = load %"class.xalanc_1_10::XPath"**, %"class.xalanc_1_10::XPath"*** %value.addr, align 8, !dbg !4777
  %call = call i64 @_ZN11xalanc_1_108XalanMapIPKNS_5XPathEbNS_17XalanMapKeyTraitsIS3_EEE5eraseERKS3_(%"class.xalanc_1_10::XalanMap"* %m_map, %"class.xalanc_1_10::XPath"** dereferenceable(8) %0), !dbg !4778
  ret i64 %call, !dbg !4779
}

; Function Attrs: noinline uwtable
define linkonce_odr dso_local void @_ZN11xalanc_1_1020destroyObjWithMemMgrINS_5XPathEEEvPKT_RN11xercesc_2_713MemoryManagerE(%"class.xalanc_1_10::XPath"* %ptr, %"class.xercesc_2_7::MemoryManager"* dereferenceable(8) %theManager) #0 comdat !dbg !4780 {
entry:
  %ptr.addr = alloca %"class.xalanc_1_10::XPath"*, align 8
  %theManager.addr = alloca %"class.xercesc_2_7::MemoryManager"*, align 8
  %nonConstPointer = alloca %"class.xalanc_1_10::XPath"*, align 8
  store %"class.xalanc_1_10::XPath"* %ptr, %"class.xalanc_1_10::XPath"** %ptr.addr, align 8
  call void @llvm.dbg.declare(metadata %"class.xalanc_1_10::XPath"** %ptr.addr, metadata !4786, metadata !DIExpression()), !dbg !4787
  store %"class.xercesc_2_7::MemoryManager"* %theManager, %"class.xercesc_2_7::MemoryManager"** %theManager.addr, align 8
  call void @llvm.dbg.declare(metadata %"class.xercesc_2_7::MemoryManager"** %theManager.addr, metadata !4788, metadata !DIExpression()), !dbg !4789
  %0 = load %"class.xalanc_1_10::XPath"*, %"class.xalanc_1_10::XPath"** %ptr.addr, align 8, !dbg !4790
  %cmp = icmp ne %"class.xalanc_1_10::XPath"* %0, null, !dbg !4792
  br i1 %cmp, label %if.then, label %if.end, !dbg !4793

if.then:                                          ; preds = %entry
  call void @llvm.dbg.declare(metadata %"class.xalanc_1_10::XPath"** %nonConstPointer, metadata !4794, metadata !DIExpression()), !dbg !4797
  %1 = load %"class.xalanc_1_10::XPath"*, %"class.xalanc_1_10::XPath"** %ptr.addr, align 8, !dbg !4798
  store %"class.xalanc_1_10::XPath"* %1, %"class.xalanc_1_10::XPath"** %nonConstPointer, align 8, !dbg !4797
  %2 = load %"class.xalanc_1_10::XPath"*, %"class.xalanc_1_10::XPath"** %nonConstPointer, align 8, !dbg !4799
  call void @_ZN11xalanc_1_105XPathD1Ev(%"class.xalanc_1_10::XPath"* %2) #8, !dbg !4800
  %3 = load %"class.xercesc_2_7::MemoryManager"*, %"class.xercesc_2_7::MemoryManager"** %theManager.addr, align 8, !dbg !4801
  %4 = load %"class.xalanc_1_10::XPath"*, %"class.xalanc_1_10::XPath"** %nonConstPointer, align 8, !dbg !4802
  %5 = bitcast %"class.xalanc_1_10::XPath"* %4 to i8*, !dbg !4802
  %6 = bitcast %"class.xercesc_2_7::MemoryManager"* %3 to void (%"class.xercesc_2_7::MemoryManager"*, i8*)***, !dbg !4803
  %vtable = load void (%"class.xercesc_2_7::MemoryManager"*, i8*)**, void (%"class.xercesc_2_7::MemoryManager"*, i8*)*** %6, align 8, !dbg !4803
  %vfn = getelementptr inbounds void (%"class.xercesc_2_7::MemoryManager"*, i8*)*, void (%"class.xercesc_2_7::MemoryManager"*, i8*)** %vtable, i64 3, !dbg !4803
  %7 = load void (%"class.xercesc_2_7::MemoryManager"*, i8*)*, void (%"class.xercesc_2_7::MemoryManager"*, i8*)** %vfn, align 8, !dbg !4803
  call void %7(%"class.xercesc_2_7::MemoryManager"* %3, i8* %5), !dbg !4803
  br label %if.end, !dbg !4804

if.end:                                           ; preds = %if.then, %entry
  ret void, !dbg !4805
}

; Function Attrs: noinline uwtable
define linkonce_odr dso_local dereferenceable(8) %"class.xercesc_2_7::MemoryManager"* @_ZN11xalanc_1_108XalanSetIPKNS_5XPathEE16getMemoryManagerEv(%"class.xalanc_1_10::XalanSet"* %this) #0 comdat align 2 !dbg !4806 {
entry:
  %this.addr = alloca %"class.xalanc_1_10::XalanSet"*, align 8
  store %"class.xalanc_1_10::XalanSet"* %this, %"class.xalanc_1_10::XalanSet"** %this.addr, align 8
  call void @llvm.dbg.declare(metadata %"class.xalanc_1_10::XalanSet"** %this.addr, metadata !4807, metadata !DIExpression()), !dbg !4808
  %this1 = load %"class.xalanc_1_10::XalanSet"*, %"class.xalanc_1_10::XalanSet"** %this.addr, align 8
  %m_map = getelementptr inbounds %"class.xalanc_1_10::XalanSet", %"class.xalanc_1_10::XalanSet"* %this1, i32 0, i32 0, !dbg !4809
  %call = call dereferenceable(8) %"class.xercesc_2_7::MemoryManager"* @_ZN11xalanc_1_108XalanMapIPKNS_5XPathEbNS_17XalanMapKeyTraitsIS3_EEE16getMemoryManagerEv(%"class.xalanc_1_10::XalanMap"* %m_map), !dbg !4810
  ret %"class.xercesc_2_7::MemoryManager"* %call, !dbg !4811
}

; Function Attrs: noinline uwtable
define dso_local %"class.xalanc_1_10::XPath"* @_ZN11xalanc_1_1019XPathFactoryDefault6createEv(%"class.xalanc_1_10::XPathFactoryDefault"* %this) unnamed_addr #0 align 2 !dbg !4812 {
entry:
  %this.addr = alloca %"class.xalanc_1_10::XPathFactoryDefault"*, align 8
  %theXPath = alloca %"class.xalanc_1_10::XPath"*, align 8
  store %"class.xalanc_1_10::XPathFactoryDefault"* %this, %"class.xalanc_1_10::XPathFactoryDefault"** %this.addr, align 8
  call void @llvm.dbg.declare(metadata %"class.xalanc_1_10::XPathFactoryDefault"** %this.addr, metadata !4813, metadata !DIExpression()), !dbg !4814
  %this1 = load %"class.xalanc_1_10::XPathFactoryDefault"*, %"class.xalanc_1_10::XPathFactoryDefault"** %this.addr, align 8
  call void @llvm.dbg.declare(metadata %"class.xalanc_1_10::XPath"** %theXPath, metadata !4815, metadata !DIExpression()), !dbg !4816
  %m_xpaths = getelementptr inbounds %"class.xalanc_1_10::XPathFactoryDefault", %"class.xalanc_1_10::XPathFactoryDefault"* %this1, i32 0, i32 1, !dbg !4817
  %call = call dereferenceable(8) %"class.xercesc_2_7::MemoryManager"* @_ZN11xalanc_1_108XalanSetIPKNS_5XPathEE16getMemoryManagerEv(%"class.xalanc_1_10::XalanSet"* %m_xpaths), !dbg !4818
  %call2 = call %"class.xalanc_1_10::XPath"* @_ZN11xalanc_1_105XPath6createERN11xercesc_2_713MemoryManagerEPKNS1_7LocatorE(%"class.xercesc_2_7::MemoryManager"* dereferenceable(8) %call, %"class.xercesc_2_7::Locator"* null), !dbg !4819
  store %"class.xalanc_1_10::XPath"* %call2, %"class.xalanc_1_10::XPath"** %theXPath, align 8, !dbg !4816
  %m_xpaths3 = getelementptr inbounds %"class.xalanc_1_10::XPathFactoryDefault", %"class.xalanc_1_10::XPathFactoryDefault"* %this1, i32 0, i32 1, !dbg !4820
  call void @_ZN11xalanc_1_108XalanSetIPKNS_5XPathEE6insertERKS3_(%"class.xalanc_1_10::XalanSet"* %m_xpaths3, %"class.xalanc_1_10::XPath"** dereferenceable(8) %theXPath), !dbg !4821
  %0 = load %"class.xalanc_1_10::XPath"*, %"class.xalanc_1_10::XPath"** %theXPath, align 8, !dbg !4822
  ret %"class.xalanc_1_10::XPath"* %0, !dbg !4823
}

declare dso_local %"class.xalanc_1_10::XPath"* @_ZN11xalanc_1_105XPath6createERN11xercesc_2_713MemoryManagerEPKNS1_7LocatorE(%"class.xercesc_2_7::MemoryManager"* dereferenceable(8), %"class.xercesc_2_7::Locator"*) #2

; Function Attrs: noinline uwtable
define linkonce_odr dso_local void @_ZN11xalanc_1_108XalanSetIPKNS_5XPathEE6insertERKS3_(%"class.xalanc_1_10::XalanSet"* %this, %"class.xalanc_1_10::XPath"** dereferenceable(8) %value) #0 comdat align 2 !dbg !4824 {
entry:
  %this.addr = alloca %"class.xalanc_1_10::XalanSet"*, align 8
  %value.addr = alloca %"class.xalanc_1_10::XPath"**, align 8
  %ref.tmp = alloca i8, align 1
  store %"class.xalanc_1_10::XalanSet"* %this, %"class.xalanc_1_10::XalanSet"** %this.addr, align 8
  call void @llvm.dbg.declare(metadata %"class.xalanc_1_10::XalanSet"** %this.addr, metadata !4825, metadata !DIExpression()), !dbg !4826
  store %"class.xalanc_1_10::XPath"** %value, %"class.xalanc_1_10::XPath"*** %value.addr, align 8
  call void @llvm.dbg.declare(metadata %"class.xalanc_1_10::XPath"*** %value.addr, metadata !4827, metadata !DIExpression()), !dbg !4828
  %this1 = load %"class.xalanc_1_10::XalanSet"*, %"class.xalanc_1_10::XalanSet"** %this.addr, align 8
  %m_map = getelementptr inbounds %"class.xalanc_1_10::XalanSet", %"class.xalanc_1_10::XalanSet"* %this1, i32 0, i32 0, !dbg !4829
  %0 = load %"class.xalanc_1_10::XPath"**, %"class.xalanc_1_10::XPath"*** %value.addr, align 8, !dbg !4830
  store i8 1, i8* %ref.tmp, align 1, !dbg !4831
  call void @_ZN11xalanc_1_108XalanMapIPKNS_5XPathEbNS_17XalanMapKeyTraitsIS3_EEE6insertERKS3_RKb(%"class.xalanc_1_10::XalanMap"* %m_map, %"class.xalanc_1_10::XPath"** dereferenceable(8) %0, i8* dereferenceable(1) %ref.tmp), !dbg !4832
  ret void, !dbg !4833
}

; Function Attrs: noinline nounwind uwtable
define linkonce_odr dso_local void @_ZN11xalanc_1_108XalanMapIPKNS_5XPathEbNS_17XalanMapKeyTraitsIS3_EEED2Ev(%"class.xalanc_1_10::XalanMap"* %this) unnamed_addr #4 comdat align 2 personality i8* bitcast (i32 (...)* @__gxx_personality_v0 to i8*) !dbg !4834 {
entry:
  %this.addr = alloca %"class.xalanc_1_10::XalanMap"*, align 8
  %exn.slot = alloca i8*
  %ehselector.slot = alloca i32
  %toRemove = alloca %"struct.xalanc_1_10::XalanListIteratorBase", align 8
  %ref.tmp = alloca %"struct.xalanc_1_10::XalanListIteratorBase", align 8
  %tmp = alloca %"struct.xalanc_1_10::XalanListIteratorBase", align 8
  store %"class.xalanc_1_10::XalanMap"* %this, %"class.xalanc_1_10::XalanMap"** %this.addr, align 8
  call void @llvm.dbg.declare(metadata %"class.xalanc_1_10::XalanMap"** %this.addr, metadata !4835, metadata !DIExpression()), !dbg !4836
  %this1 = load %"class.xalanc_1_10::XalanMap"*, %"class.xalanc_1_10::XalanMap"** %this.addr, align 8
  invoke void @_ZN11xalanc_1_108XalanMapIPKNS_5XPathEbNS_17XalanMapKeyTraitsIS3_EEE15doRemoveEntriesEv(%"class.xalanc_1_10::XalanMap"* %this1)
          to label %invoke.cont unwind label %lpad, !dbg !4837

invoke.cont:                                      ; preds = %entry
  %m_buckets = getelementptr inbounds %"class.xalanc_1_10::XalanMap", %"class.xalanc_1_10::XalanMap"* %this1, i32 0, i32 8, !dbg !4839
  %call = invoke zeroext i1 @_ZNK11xalanc_1_1011XalanVectorINS0_INS_21XalanListIteratorBaseINS_23XalanListIteratorTraitsINS_8XalanMapIPKNS_5XPathEbNS_17XalanMapKeyTraitsIS6_EEE5EntryEEENS_9XalanListISA_E4NodeEEENS_31MemoryManagedConstructionTraitsISF_EEEENS_32ConstructWithMemoryManagerTraitsISI_EEE5emptyEv(%"class.xalanc_1_10::XalanVector.3"* %m_buckets)
          to label %invoke.cont2 unwind label %lpad, !dbg !4841

invoke.cont2:                                     ; preds = %invoke.cont
  br i1 %call, label %if.end, label %if.then, !dbg !4842

if.then:                                          ; preds = %invoke.cont2
  call void @llvm.dbg.declare(metadata %"struct.xalanc_1_10::XalanListIteratorBase"* %toRemove, metadata !4843, metadata !DIExpression()), !dbg !4846
  %m_freeEntries = getelementptr inbounds %"class.xalanc_1_10::XalanMap", %"class.xalanc_1_10::XalanMap"* %this1, i32 0, i32 7, !dbg !4847
  invoke void @_ZN11xalanc_1_109XalanListINS_8XalanMapIPKNS_5XPathEbNS_17XalanMapKeyTraitsIS4_EEE5EntryEE5beginEv(%"struct.xalanc_1_10::XalanListIteratorBase"* sret %toRemove, %"class.xalanc_1_10::XalanList"* %m_freeEntries)
          to label %invoke.cont3 unwind label %lpad, !dbg !4848

invoke.cont3:                                     ; preds = %if.then
  br label %while.cond, !dbg !4849

while.cond:                                       ; preds = %invoke.cont11, %invoke.cont3
  %m_freeEntries4 = getelementptr inbounds %"class.xalanc_1_10::XalanMap", %"class.xalanc_1_10::XalanMap"* %this1, i32 0, i32 7, !dbg !4850
  invoke void @_ZN11xalanc_1_109XalanListINS_8XalanMapIPKNS_5XPathEbNS_17XalanMapKeyTraitsIS4_EEE5EntryEE3endEv(%"struct.xalanc_1_10::XalanListIteratorBase"* sret %ref.tmp, %"class.xalanc_1_10::XalanList"* %m_freeEntries4)
          to label %invoke.cont5 unwind label %lpad, !dbg !4851

invoke.cont5:                                     ; preds = %while.cond
  %call7 = invoke zeroext i1 @_ZNK11xalanc_1_1021XalanListIteratorBaseINS_23XalanListIteratorTraitsINS_8XalanMapIPKNS_5XPathEbNS_17XalanMapKeyTraitsIS5_EEE5EntryEEENS_9XalanListIS9_E4NodeEEneERKSE_(%"struct.xalanc_1_10::XalanListIteratorBase"* %toRemove, %"struct.xalanc_1_10::XalanListIteratorBase"* dereferenceable(8) %ref.tmp)
          to label %invoke.cont6 unwind label %lpad, !dbg !4852

invoke.cont6:                                     ; preds = %invoke.cont5
  br i1 %call7, label %while.body, label %while.end, !dbg !4849

while.body:                                       ; preds = %invoke.cont6
  %call9 = invoke %"struct.xalanc_1_10::XalanMap<const xalanc_1_10::XPath *, bool, xalanc_1_10::XalanMapKeyTraits<const xalanc_1_10::XPath *> >::Entry"* @_ZNK11xalanc_1_1021XalanListIteratorBaseINS_23XalanListIteratorTraitsINS_8XalanMapIPKNS_5XPathEbNS_17XalanMapKeyTraitsIS5_EEE5EntryEEENS_9XalanListIS9_E4NodeEEptEv(%"struct.xalanc_1_10::XalanListIteratorBase"* %toRemove)
          to label %invoke.cont8 unwind label %lpad, !dbg !4853

invoke.cont8:                                     ; preds = %while.body
  %value = getelementptr inbounds %"struct.xalanc_1_10::XalanMap<const xalanc_1_10::XPath *, bool, xalanc_1_10::XalanMapKeyTraits<const xalanc_1_10::XPath *> >::Entry", %"struct.xalanc_1_10::XalanMap<const xalanc_1_10::XPath *, bool, xalanc_1_10::XalanMapKeyTraits<const xalanc_1_10::XPath *> >::Entry"* %call9, i32 0, i32 0, !dbg !4855
  %0 = load %"struct.std::pair"*, %"struct.std::pair"** %value, align 8, !dbg !4855
  invoke void @_ZN11xalanc_1_108XalanMapIPKNS_5XPathEbNS_17XalanMapKeyTraitsIS3_EEE10deallocateEPSt4pairIKS3_bE(%"class.xalanc_1_10::XalanMap"* %this1, %"struct.std::pair"* %0)
          to label %invoke.cont10 unwind label %lpad, !dbg !4856

invoke.cont10:                                    ; preds = %invoke.cont8
  invoke void @_ZN11xalanc_1_1021XalanListIteratorBaseINS_23XalanListIteratorTraitsINS_8XalanMapIPKNS_5XPathEbNS_17XalanMapKeyTraitsIS5_EEE5EntryEEENS_9XalanListIS9_E4NodeEEppEv(%"struct.xalanc_1_10::XalanListIteratorBase"* sret %tmp, %"struct.xalanc_1_10::XalanListIteratorBase"* %toRemove)
          to label %invoke.cont11 unwind label %lpad, !dbg !4857

invoke.cont11:                                    ; preds = %invoke.cont10
  br label %while.cond, !dbg !4849, !llvm.loop !4858

lpad:                                             ; preds = %invoke.cont10, %invoke.cont8, %while.body, %invoke.cont5, %while.cond, %if.then, %invoke.cont, %entry
  %1 = landingpad { i8*, i32 }
          catch i8* null, !dbg !4860
  %2 = extractvalue { i8*, i32 } %1, 0, !dbg !4860
  store i8* %2, i8** %exn.slot, align 8, !dbg !4860
  %3 = extractvalue { i8*, i32 } %1, 1, !dbg !4860
  store i32 %3, i32* %ehselector.slot, align 4, !dbg !4860
  %m_buckets13 = getelementptr inbounds %"class.xalanc_1_10::XalanMap", %"class.xalanc_1_10::XalanMap"* %this1, i32 0, i32 8, !dbg !4860
  call void @_ZN11xalanc_1_1011XalanVectorINS0_INS_21XalanListIteratorBaseINS_23XalanListIteratorTraitsINS_8XalanMapIPKNS_5XPathEbNS_17XalanMapKeyTraitsIS6_EEE5EntryEEENS_9XalanListISA_E4NodeEEENS_31MemoryManagedConstructionTraitsISF_EEEENS_32ConstructWithMemoryManagerTraitsISI_EEED2Ev(%"class.xalanc_1_10::XalanVector.3"* %m_buckets13) #8, !dbg !4860
  %m_freeEntries15 = getelementptr inbounds %"class.xalanc_1_10::XalanMap", %"class.xalanc_1_10::XalanMap"* %this1, i32 0, i32 7, !dbg !4860
  call void @_ZN11xalanc_1_109XalanListINS_8XalanMapIPKNS_5XPathEbNS_17XalanMapKeyTraitsIS4_EEE5EntryEED2Ev(%"class.xalanc_1_10::XalanList"* %m_freeEntries15) #8, !dbg !4860
  %m_entries16 = getelementptr inbounds %"class.xalanc_1_10::XalanMap", %"class.xalanc_1_10::XalanMap"* %this1, i32 0, i32 6, !dbg !4860
  call void @_ZN11xalanc_1_109XalanListINS_8XalanMapIPKNS_5XPathEbNS_17XalanMapKeyTraitsIS4_EEE5EntryEED2Ev(%"class.xalanc_1_10::XalanList"* %m_entries16) #8, !dbg !4860
  br label %terminate.handler, !dbg !4860

while.end:                                        ; preds = %invoke.cont6
  br label %if.end, !dbg !4861

if.end:                                           ; preds = %while.end, %invoke.cont2
  %m_buckets12 = getelementptr inbounds %"class.xalanc_1_10::XalanMap", %"class.xalanc_1_10::XalanMap"* %this1, i32 0, i32 8, !dbg !4860
  call void @_ZN11xalanc_1_1011XalanVectorINS0_INS_21XalanListIteratorBaseINS_23XalanListIteratorTraitsINS_8XalanMapIPKNS_5XPathEbNS_17XalanMapKeyTraitsIS6_EEE5EntryEEENS_9XalanListISA_E4NodeEEENS_31MemoryManagedConstructionTraitsISF_EEEENS_32ConstructWithMemoryManagerTraitsISI_EEED2Ev(%"class.xalanc_1_10::XalanVector.3"* %m_buckets12) #8, !dbg !4860
  %m_freeEntries14 = getelementptr inbounds %"class.xalanc_1_10::XalanMap", %"class.xalanc_1_10::XalanMap"* %this1, i32 0, i32 7, !dbg !4860
  call void @_ZN11xalanc_1_109XalanListINS_8XalanMapIPKNS_5XPathEbNS_17XalanMapKeyTraitsIS4_EEE5EntryEED2Ev(%"class.xalanc_1_10::XalanList"* %m_freeEntries14) #8, !dbg !4860
  %m_entries = getelementptr inbounds %"class.xalanc_1_10::XalanMap", %"class.xalanc_1_10::XalanMap"* %this1, i32 0, i32 6, !dbg !4860
  call void @_ZN11xalanc_1_109XalanListINS_8XalanMapIPKNS_5XPathEbNS_17XalanMapKeyTraitsIS4_EEE5EntryEED2Ev(%"class.xalanc_1_10::XalanList"* %m_entries) #8, !dbg !4860
  ret void, !dbg !4862

terminate.handler:                                ; preds = %lpad
  %exn = load i8*, i8** %exn.slot, align 8, !dbg !4860
  call void @__clang_call_terminate(i8* %exn) #9, !dbg !4860
  unreachable, !dbg !4860
}

; Function Attrs: noinline uwtable
define linkonce_odr dso_local void @_ZN11xalanc_1_108XalanMapIPKNS_5XPathEbNS_17XalanMapKeyTraitsIS3_EEE15doRemoveEntriesEv(%"class.xalanc_1_10::XalanMap"* %this) #0 comdat align 2 !dbg !4863 {
entry:
  %this.addr = alloca %"class.xalanc_1_10::XalanMap"*, align 8
  %ref.tmp = alloca %"struct.xalanc_1_10::XalanMapIterator.9", align 8
  store %"class.xalanc_1_10::XalanMap"* %this, %"class.xalanc_1_10::XalanMap"** %this.addr, align 8
  call void @llvm.dbg.declare(metadata %"class.xalanc_1_10::XalanMap"** %this.addr, metadata !4864, metadata !DIExpression()), !dbg !4865
  %this1 = load %"class.xalanc_1_10::XalanMap"*, %"class.xalanc_1_10::XalanMap"** %this.addr, align 8
  br label %while.cond, !dbg !4866

while.cond:                                       ; preds = %while.body, %entry
  %call = call i64 @_ZNK11xalanc_1_108XalanMapIPKNS_5XPathEbNS_17XalanMapKeyTraitsIS3_EEE4sizeEv(%"class.xalanc_1_10::XalanMap"* %this1), !dbg !4867
  %cmp = icmp ugt i64 %call, 0, !dbg !4868
  br i1 %cmp, label %while.body, label %while.end, !dbg !4866

while.body:                                       ; preds = %while.cond
  call void @_ZN11xalanc_1_108XalanMapIPKNS_5XPathEbNS_17XalanMapKeyTraitsIS3_EEE5beginEv(%"struct.xalanc_1_10::XalanMapIterator.9"* sret %ref.tmp, %"class.xalanc_1_10::XalanMap"* %this1), !dbg !4869
  call void @_ZN11xalanc_1_108XalanMapIPKNS_5XPathEbNS_17XalanMapKeyTraitsIS3_EEE13doRemoveEntryERKNS_16XalanMapIteratorINS_22XalanMapIteratorTraitsISt4pairIKS3_bEEENS_21XalanListIteratorBaseINS_23XalanListIteratorTraitsINS6_5EntryEEENS_9XalanListISF_E4NodeEEEEE(%"class.xalanc_1_10::XalanMap"* %this1, %"struct.xalanc_1_10::XalanMapIterator.9"* dereferenceable(8) %ref.tmp), !dbg !4871
  br label %while.cond, !dbg !4866, !llvm.loop !4872

while.end:                                        ; preds = %while.cond
  ret void, !dbg !4874
}

; Function Attrs: noinline uwtable
define linkonce_odr dso_local zeroext i1 @_ZNK11xalanc_1_1011XalanVectorINS0_INS_21XalanListIteratorBaseINS_23XalanListIteratorTraitsINS_8XalanMapIPKNS_5XPathEbNS_17XalanMapKeyTraitsIS6_EEE5EntryEEENS_9XalanListISA_E4NodeEEENS_31MemoryManagedConstructionTraitsISF_EEEENS_32ConstructWithMemoryManagerTraitsISI_EEE5emptyEv(%"class.xalanc_1_10::XalanVector.3"* %this) #0 comdat align 2 !dbg !4875 {
entry:
  %this.addr = alloca %"class.xalanc_1_10::XalanVector.3"*, align 8
  store %"class.xalanc_1_10::XalanVector.3"* %this, %"class.xalanc_1_10::XalanVector.3"** %this.addr, align 8
  call void @llvm.dbg.declare(metadata %"class.xalanc_1_10::XalanVector.3"** %this.addr, metadata !4876, metadata !DIExpression()), !dbg !4878
  %this1 = load %"class.xalanc_1_10::XalanVector.3"*, %"class.xalanc_1_10::XalanVector.3"** %this.addr, align 8
  call void @_ZNK11xalanc_1_1011XalanVectorINS0_INS_21XalanListIteratorBaseINS_23XalanListIteratorTraitsINS_8XalanMapIPKNS_5XPathEbNS_17XalanMapKeyTraitsIS6_EEE5EntryEEENS_9XalanListISA_E4NodeEEENS_31MemoryManagedConstructionTraitsISF_EEEENS_32ConstructWithMemoryManagerTraitsISI_EEE10invariantsEv(%"class.xalanc_1_10::XalanVector.3"* %this1), !dbg !4879
  %m_size = getelementptr inbounds %"class.xalanc_1_10::XalanVector.3", %"class.xalanc_1_10::XalanVector.3"* %this1, i32 0, i32 1, !dbg !4880
  %0 = load i64, i64* %m_size, align 8, !dbg !4880
  %cmp = icmp eq i64 %0, 0, !dbg !4881
  %1 = zext i1 %cmp to i64, !dbg !4880
  %cond = select i1 %cmp, i1 true, i1 false, !dbg !4880
  ret i1 %cond, !dbg !4882
}

; Function Attrs: noinline uwtable
define linkonce_odr dso_local void @_ZN11xalanc_1_109XalanListINS_8XalanMapIPKNS_5XPathEbNS_17XalanMapKeyTraitsIS4_EEE5EntryEE5beginEv(%"struct.xalanc_1_10::XalanListIteratorBase"* noalias sret %agg.result, %"class.xalanc_1_10::XalanList"* %this) #0 comdat align 2 !dbg !4883 {
entry:
  %result.ptr = alloca i8*, align 8
  %this.addr = alloca %"class.xalanc_1_10::XalanList"*, align 8
  %0 = bitcast %"struct.xalanc_1_10::XalanListIteratorBase"* %agg.result to i8*
  store i8* %0, i8** %result.ptr, align 8
  store %"class.xalanc_1_10::XalanList"* %this, %"class.xalanc_1_10::XalanList"** %this.addr, align 8
  call void @llvm.dbg.declare(metadata %"class.xalanc_1_10::XalanList"** %this.addr, metadata !4884, metadata !DIExpression()), !dbg !4885
  %this1 = load %"class.xalanc_1_10::XalanList"*, %"class.xalanc_1_10::XalanList"** %this.addr, align 8
  %call = call dereferenceable(32) %"struct.xalanc_1_10::XalanList<xalanc_1_10::XalanMap<const xalanc_1_10::XPath *, bool, xalanc_1_10::XalanMapKeyTraits<const xalanc_1_10::XPath *> >::Entry>::Node"* @_ZN11xalanc_1_109XalanListINS_8XalanMapIPKNS_5XPathEbNS_17XalanMapKeyTraitsIS4_EEE5EntryEE11getListHeadEv(%"class.xalanc_1_10::XalanList"* %this1), !dbg !4886
  %next = getelementptr inbounds %"struct.xalanc_1_10::XalanList<xalanc_1_10::XalanMap<const xalanc_1_10::XPath *, bool, xalanc_1_10::XalanMapKeyTraits<const xalanc_1_10::XPath *> >::Entry>::Node", %"struct.xalanc_1_10::XalanList<xalanc_1_10::XalanMap<const xalanc_1_10::XPath *, bool, xalanc_1_10::XalanMapKeyTraits<const xalanc_1_10::XPath *> >::Entry>::Node"* %call, i32 0, i32 2, !dbg !4887
  %1 = load %"struct.xalanc_1_10::XalanList<xalanc_1_10::XalanMap<const xalanc_1_10::XPath *, bool, xalanc_1_10::XalanMapKeyTraits<const xalanc_1_10::XPath *> >::Entry>::Node"*, %"struct.xalanc_1_10::XalanList<xalanc_1_10::XalanMap<const xalanc_1_10::XPath *, bool, xalanc_1_10::XalanMapKeyTraits<const xalanc_1_10::XPath *> >::Entry>::Node"** %next, align 8, !dbg !4887
  call void @_ZN11xalanc_1_1021XalanListIteratorBaseINS_23XalanListIteratorTraitsINS_8XalanMapIPKNS_5XPathEbNS_17XalanMapKeyTraitsIS5_EEE5EntryEEENS_9XalanListIS9_E4NodeEEC2ERSD_(%"struct.xalanc_1_10::XalanListIteratorBase"* %agg.result, %"struct.xalanc_1_10::XalanList<xalanc_1_10::XalanMap<const xalanc_1_10::XPath *, bool, xalanc_1_10::XalanMapKeyTraits<const xalanc_1_10::XPath *> >::Entry>::Node"* dereferenceable(32) %1), !dbg !4888
  ret void, !dbg !4889
}

; Function Attrs: noinline uwtable
define linkonce_odr dso_local zeroext i1 @_ZNK11xalanc_1_1021XalanListIteratorBaseINS_23XalanListIteratorTraitsINS_8XalanMapIPKNS_5XPathEbNS_17XalanMapKeyTraitsIS5_EEE5EntryEEENS_9XalanListIS9_E4NodeEEneERKSE_(%"struct.xalanc_1_10::XalanListIteratorBase"* %this, %"struct.xalanc_1_10::XalanListIteratorBase"* dereferenceable(8) %theRhs) #0 comdat align 2 !dbg !4890 {
entry:
  %this.addr = alloca %"struct.xalanc_1_10::XalanListIteratorBase"*, align 8
  %theRhs.addr = alloca %"struct.xalanc_1_10::XalanListIteratorBase"*, align 8
  store %"struct.xalanc_1_10::XalanListIteratorBase"* %this, %"struct.xalanc_1_10::XalanListIteratorBase"** %this.addr, align 8
  call void @llvm.dbg.declare(metadata %"struct.xalanc_1_10::XalanListIteratorBase"** %this.addr, metadata !4891, metadata !DIExpression()), !dbg !4893
  store %"struct.xalanc_1_10::XalanListIteratorBase"* %theRhs, %"struct.xalanc_1_10::XalanListIteratorBase"** %theRhs.addr, align 8
  call void @llvm.dbg.declare(metadata %"struct.xalanc_1_10::XalanListIteratorBase"** %theRhs.addr, metadata !4894, metadata !DIExpression()), !dbg !4895
  %this1 = load %"struct.xalanc_1_10::XalanListIteratorBase"*, %"struct.xalanc_1_10::XalanListIteratorBase"** %this.addr, align 8
  %0 = load %"struct.xalanc_1_10::XalanListIteratorBase"*, %"struct.xalanc_1_10::XalanListIteratorBase"** %theRhs.addr, align 8, !dbg !4896
  %call = call zeroext i1 @_ZNK11xalanc_1_1021XalanListIteratorBaseINS_23XalanListIteratorTraitsINS_8XalanMapIPKNS_5XPathEbNS_17XalanMapKeyTraitsIS5_EEE5EntryEEENS_9XalanListIS9_E4NodeEEeqERKSE_(%"struct.xalanc_1_10::XalanListIteratorBase"* %this1, %"struct.xalanc_1_10::XalanListIteratorBase"* dereferenceable(8) %0), !dbg !4897
  %lnot = xor i1 %call, true, !dbg !4898
  ret i1 %lnot, !dbg !4899
}

; Function Attrs: noinline uwtable
define linkonce_odr dso_local void @_ZN11xalanc_1_109XalanListINS_8XalanMapIPKNS_5XPathEbNS_17XalanMapKeyTraitsIS4_EEE5EntryEE3endEv(%"struct.xalanc_1_10::XalanListIteratorBase"* noalias sret %agg.result, %"class.xalanc_1_10::XalanList"* %this) #0 comdat align 2 !dbg !4900 {
entry:
  %result.ptr = alloca i8*, align 8
  %this.addr = alloca %"class.xalanc_1_10::XalanList"*, align 8
  %0 = bitcast %"struct.xalanc_1_10::XalanListIteratorBase"* %agg.result to i8*
  store i8* %0, i8** %result.ptr, align 8
  store %"class.xalanc_1_10::XalanList"* %this, %"class.xalanc_1_10::XalanList"** %this.addr, align 8
  call void @llvm.dbg.declare(metadata %"class.xalanc_1_10::XalanList"** %this.addr, metadata !4901, metadata !DIExpression()), !dbg !4902
  %this1 = load %"class.xalanc_1_10::XalanList"*, %"class.xalanc_1_10::XalanList"** %this.addr, align 8
  %call = call dereferenceable(32) %"struct.xalanc_1_10::XalanList<xalanc_1_10::XalanMap<const xalanc_1_10::XPath *, bool, xalanc_1_10::XalanMapKeyTraits<const xalanc_1_10::XPath *> >::Entry>::Node"* @_ZN11xalanc_1_109XalanListINS_8XalanMapIPKNS_5XPathEbNS_17XalanMapKeyTraitsIS4_EEE5EntryEE11getListHeadEv(%"class.xalanc_1_10::XalanList"* %this1), !dbg !4903
  call void @_ZN11xalanc_1_1021XalanListIteratorBaseINS_23XalanListIteratorTraitsINS_8XalanMapIPKNS_5XPathEbNS_17XalanMapKeyTraitsIS5_EEE5EntryEEENS_9XalanListIS9_E4NodeEEC2ERSD_(%"struct.xalanc_1_10::XalanListIteratorBase"* %agg.result, %"struct.xalanc_1_10::XalanList<xalanc_1_10::XalanMap<const xalanc_1_10::XPath *, bool, xalanc_1_10::XalanMapKeyTraits<const xalanc_1_10::XPath *> >::Entry>::Node"* dereferenceable(32) %call), !dbg !4904
  ret void, !dbg !4905
}

; Function Attrs: noinline uwtable
define linkonce_odr dso_local void @_ZN11xalanc_1_108XalanMapIPKNS_5XPathEbNS_17XalanMapKeyTraitsIS3_EEE10deallocateEPSt4pairIKS3_bE(%"class.xalanc_1_10::XalanMap"* %this, %"struct.std::pair"* %pointer) #0 comdat align 2 !dbg !4906 {
entry:
  %this.addr = alloca %"class.xalanc_1_10::XalanMap"*, align 8
  %pointer.addr = alloca %"struct.std::pair"*, align 8
  store %"class.xalanc_1_10::XalanMap"* %this, %"class.xalanc_1_10::XalanMap"** %this.addr, align 8
  call void @llvm.dbg.declare(metadata %"class.xalanc_1_10::XalanMap"** %this.addr, metadata !4907, metadata !DIExpression()), !dbg !4908
  store %"struct.std::pair"* %pointer, %"struct.std::pair"** %pointer.addr, align 8
  call void @llvm.dbg.declare(metadata %"struct.std::pair"** %pointer.addr, metadata !4909, metadata !DIExpression()), !dbg !4910
  %this1 = load %"class.xalanc_1_10::XalanMap"*, %"class.xalanc_1_10::XalanMap"** %this.addr, align 8
  %m_memoryManager = getelementptr inbounds %"class.xalanc_1_10::XalanMap", %"class.xalanc_1_10::XalanMap"* %this1, i32 0, i32 2, !dbg !4911
  %0 = load %"class.xercesc_2_7::MemoryManager"*, %"class.xercesc_2_7::MemoryManager"** %m_memoryManager, align 8, !dbg !4911
  %1 = load %"struct.std::pair"*, %"struct.std::pair"** %pointer.addr, align 8, !dbg !4912
  %2 = bitcast %"struct.std::pair"* %1 to i8*, !dbg !4912
  %3 = bitcast %"class.xercesc_2_7::MemoryManager"* %0 to void (%"class.xercesc_2_7::MemoryManager"*, i8*)***, !dbg !4913
  %vtable = load void (%"class.xercesc_2_7::MemoryManager"*, i8*)**, void (%"class.xercesc_2_7::MemoryManager"*, i8*)*** %3, align 8, !dbg !4913
  %vfn = getelementptr inbounds void (%"class.xercesc_2_7::MemoryManager"*, i8*)*, void (%"class.xercesc_2_7::MemoryManager"*, i8*)** %vtable, i64 3, !dbg !4913
  %4 = load void (%"class.xercesc_2_7::MemoryManager"*, i8*)*, void (%"class.xercesc_2_7::MemoryManager"*, i8*)** %vfn, align 8, !dbg !4913
  call void %4(%"class.xercesc_2_7::MemoryManager"* %0, i8* %2), !dbg !4913
  ret void, !dbg !4914
}

; Function Attrs: noinline nounwind uwtable
define linkonce_odr dso_local %"struct.xalanc_1_10::XalanMap<const xalanc_1_10::XPath *, bool, xalanc_1_10::XalanMapKeyTraits<const xalanc_1_10::XPath *> >::Entry"* @_ZNK11xalanc_1_1021XalanListIteratorBaseINS_23XalanListIteratorTraitsINS_8XalanMapIPKNS_5XPathEbNS_17XalanMapKeyTraitsIS5_EEE5EntryEEENS_9XalanListIS9_E4NodeEEptEv(%"struct.xalanc_1_10::XalanListIteratorBase"* %this) #4 comdat align 2 !dbg !4915 {
entry:
  %this.addr = alloca %"struct.xalanc_1_10::XalanListIteratorBase"*, align 8
  store %"struct.xalanc_1_10::XalanListIteratorBase"* %this, %"struct.xalanc_1_10::XalanListIteratorBase"** %this.addr, align 8
  call void @llvm.dbg.declare(metadata %"struct.xalanc_1_10::XalanListIteratorBase"** %this.addr, metadata !4916, metadata !DIExpression()), !dbg !4917
  %this1 = load %"struct.xalanc_1_10::XalanListIteratorBase"*, %"struct.xalanc_1_10::XalanListIteratorBase"** %this.addr, align 8
  %currentNode = getelementptr inbounds %"struct.xalanc_1_10::XalanListIteratorBase", %"struct.xalanc_1_10::XalanListIteratorBase"* %this1, i32 0, i32 0, !dbg !4918
  %0 = load %"struct.xalanc_1_10::XalanList<xalanc_1_10::XalanMap<const xalanc_1_10::XPath *, bool, xalanc_1_10::XalanMapKeyTraits<const xalanc_1_10::XPath *> >::Entry>::Node"*, %"struct.xalanc_1_10::XalanList<xalanc_1_10::XalanMap<const xalanc_1_10::XPath *, bool, xalanc_1_10::XalanMapKeyTraits<const xalanc_1_10::XPath *> >::Entry>::Node"** %currentNode, align 8, !dbg !4918
  %value = getelementptr inbounds %"struct.xalanc_1_10::XalanList<xalanc_1_10::XalanMap<const xalanc_1_10::XPath *, bool, xalanc_1_10::XalanMapKeyTraits<const xalanc_1_10::XPath *> >::Entry>::Node", %"struct.xalanc_1_10::XalanList<xalanc_1_10::XalanMap<const xalanc_1_10::XPath *, bool, xalanc_1_10::XalanMapKeyTraits<const xalanc_1_10::XPath *> >::Entry>::Node"* %0, i32 0, i32 0, !dbg !4919
  ret %"struct.xalanc_1_10::XalanMap<const xalanc_1_10::XPath *, bool, xalanc_1_10::XalanMapKeyTraits<const xalanc_1_10::XPath *> >::Entry"* %value, !dbg !4920
}

; Function Attrs: noinline uwtable
define linkonce_odr dso_local void @_ZN11xalanc_1_1021XalanListIteratorBaseINS_23XalanListIteratorTraitsINS_8XalanMapIPKNS_5XPathEbNS_17XalanMapKeyTraitsIS5_EEE5EntryEEENS_9XalanListIS9_E4NodeEEppEv(%"struct.xalanc_1_10::XalanListIteratorBase"* noalias sret %agg.result, %"struct.xalanc_1_10::XalanListIteratorBase"* %this) #0 comdat align 2 !dbg !4921 {
entry:
  %result.ptr = alloca i8*, align 8
  %this.addr = alloca %"struct.xalanc_1_10::XalanListIteratorBase"*, align 8
  %0 = bitcast %"struct.xalanc_1_10::XalanListIteratorBase"* %agg.result to i8*
  store i8* %0, i8** %result.ptr, align 8
  store %"struct.xalanc_1_10::XalanListIteratorBase"* %this, %"struct.xalanc_1_10::XalanListIteratorBase"** %this.addr, align 8
  call void @llvm.dbg.declare(metadata %"struct.xalanc_1_10::XalanListIteratorBase"** %this.addr, metadata !4922, metadata !DIExpression()), !dbg !4923
  %this1 = load %"struct.xalanc_1_10::XalanListIteratorBase"*, %"struct.xalanc_1_10::XalanListIteratorBase"** %this.addr, align 8
  %currentNode = getelementptr inbounds %"struct.xalanc_1_10::XalanListIteratorBase", %"struct.xalanc_1_10::XalanListIteratorBase"* %this1, i32 0, i32 0, !dbg !4924
  %1 = load %"struct.xalanc_1_10::XalanList<xalanc_1_10::XalanMap<const xalanc_1_10::XPath *, bool, xalanc_1_10::XalanMapKeyTraits<const xalanc_1_10::XPath *> >::Entry>::Node"*, %"struct.xalanc_1_10::XalanList<xalanc_1_10::XalanMap<const xalanc_1_10::XPath *, bool, xalanc_1_10::XalanMapKeyTraits<const xalanc_1_10::XPath *> >::Entry>::Node"** %currentNode, align 8, !dbg !4924
  %next = getelementptr inbounds %"struct.xalanc_1_10::XalanList<xalanc_1_10::XalanMap<const xalanc_1_10::XPath *, bool, xalanc_1_10::XalanMapKeyTraits<const xalanc_1_10::XPath *> >::Entry>::Node", %"struct.xalanc_1_10::XalanList<xalanc_1_10::XalanMap<const xalanc_1_10::XPath *, bool, xalanc_1_10::XalanMapKeyTraits<const xalanc_1_10::XPath *> >::Entry>::Node"* %1, i32 0, i32 2, !dbg !4925
  %2 = load %"struct.xalanc_1_10::XalanList<xalanc_1_10::XalanMap<const xalanc_1_10::XPath *, bool, xalanc_1_10::XalanMapKeyTraits<const xalanc_1_10::XPath *> >::Entry>::Node"*, %"struct.xalanc_1_10::XalanList<xalanc_1_10::XalanMap<const xalanc_1_10::XPath *, bool, xalanc_1_10::XalanMapKeyTraits<const xalanc_1_10::XPath *> >::Entry>::Node"** %next, align 8, !dbg !4925
  %currentNode2 = getelementptr inbounds %"struct.xalanc_1_10::XalanListIteratorBase", %"struct.xalanc_1_10::XalanListIteratorBase"* %this1, i32 0, i32 0, !dbg !4926
  store %"struct.xalanc_1_10::XalanList<xalanc_1_10::XalanMap<const xalanc_1_10::XPath *, bool, xalanc_1_10::XalanMapKeyTraits<const xalanc_1_10::XPath *> >::Entry>::Node"* %2, %"struct.xalanc_1_10::XalanList<xalanc_1_10::XalanMap<const xalanc_1_10::XPath *, bool, xalanc_1_10::XalanMapKeyTraits<const xalanc_1_10::XPath *> >::Entry>::Node"** %currentNode2, align 8, !dbg !4927
  call void @_ZN11xalanc_1_1021XalanListIteratorBaseINS_23XalanListIteratorTraitsINS_8XalanMapIPKNS_5XPathEbNS_17XalanMapKeyTraitsIS5_EEE5EntryEEENS_9XalanListIS9_E4NodeEEC2ERKSE_(%"struct.xalanc_1_10::XalanListIteratorBase"* %agg.result, %"struct.xalanc_1_10::XalanListIteratorBase"* dereferenceable(8) %this1), !dbg !4928
  ret void, !dbg !4929
}

; Function Attrs: noinline nounwind uwtable
define linkonce_odr dso_local void @_ZN11xalanc_1_1011XalanVectorINS0_INS_21XalanListIteratorBaseINS_23XalanListIteratorTraitsINS_8XalanMapIPKNS_5XPathEbNS_17XalanMapKeyTraitsIS6_EEE5EntryEEENS_9XalanListISA_E4NodeEEENS_31MemoryManagedConstructionTraitsISF_EEEENS_32ConstructWithMemoryManagerTraitsISI_EEED2Ev(%"class.xalanc_1_10::XalanVector.3"* %this) unnamed_addr #4 comdat align 2 personality i8* bitcast (i32 (...)* @__gxx_personality_v0 to i8*) !dbg !4930 {
entry:
  %this.addr = alloca %"class.xalanc_1_10::XalanVector.3"*, align 8
  store %"class.xalanc_1_10::XalanVector.3"* %this, %"class.xalanc_1_10::XalanVector.3"** %this.addr, align 8
  call void @llvm.dbg.declare(metadata %"class.xalanc_1_10::XalanVector.3"** %this.addr, metadata !4931, metadata !DIExpression()), !dbg !4932
  %this1 = load %"class.xalanc_1_10::XalanVector.3"*, %"class.xalanc_1_10::XalanVector.3"** %this.addr, align 8
  invoke void @_ZNK11xalanc_1_1011XalanVectorINS0_INS_21XalanListIteratorBaseINS_23XalanListIteratorTraitsINS_8XalanMapIPKNS_5XPathEbNS_17XalanMapKeyTraitsIS6_EEE5EntryEEENS_9XalanListISA_E4NodeEEENS_31MemoryManagedConstructionTraitsISF_EEEENS_32ConstructWithMemoryManagerTraitsISI_EEE10invariantsEv(%"class.xalanc_1_10::XalanVector.3"* %this1)
          to label %invoke.cont unwind label %terminate.lpad, !dbg !4933

invoke.cont:                                      ; preds = %entry
  %m_allocation = getelementptr inbounds %"class.xalanc_1_10::XalanVector.3", %"class.xalanc_1_10::XalanVector.3"* %this1, i32 0, i32 2, !dbg !4935
  %0 = load i64, i64* %m_allocation, align 8, !dbg !4935
  %cmp = icmp ne i64 %0, 0, !dbg !4937
  br i1 %cmp, label %if.then, label %if.end, !dbg !4938

if.then:                                          ; preds = %invoke.cont
  %call = invoke %"class.xalanc_1_10::XalanVector.4"* @_ZN11xalanc_1_1011XalanVectorINS0_INS_21XalanListIteratorBaseINS_23XalanListIteratorTraitsINS_8XalanMapIPKNS_5XPathEbNS_17XalanMapKeyTraitsIS6_EEE5EntryEEENS_9XalanListISA_E4NodeEEENS_31MemoryManagedConstructionTraitsISF_EEEENS_32ConstructWithMemoryManagerTraitsISI_EEE5beginEv(%"class.xalanc_1_10::XalanVector.3"* %this1)
          to label %invoke.cont2 unwind label %terminate.lpad, !dbg !4939

invoke.cont2:                                     ; preds = %if.then
  %call4 = invoke %"class.xalanc_1_10::XalanVector.4"* @_ZN11xalanc_1_1011XalanVectorINS0_INS_21XalanListIteratorBaseINS_23XalanListIteratorTraitsINS_8XalanMapIPKNS_5XPathEbNS_17XalanMapKeyTraitsIS6_EEE5EntryEEENS_9XalanListISA_E4NodeEEENS_31MemoryManagedConstructionTraitsISF_EEEENS_32ConstructWithMemoryManagerTraitsISI_EEE3endEv(%"class.xalanc_1_10::XalanVector.3"* %this1)
          to label %invoke.cont3 unwind label %terminate.lpad, !dbg !4941

invoke.cont3:                                     ; preds = %invoke.cont2
  invoke void @_ZN11xalanc_1_1011XalanVectorINS0_INS_21XalanListIteratorBaseINS_23XalanListIteratorTraitsINS_8XalanMapIPKNS_5XPathEbNS_17XalanMapKeyTraitsIS6_EEE5EntryEEENS_9XalanListISA_E4NodeEEENS_31MemoryManagedConstructionTraitsISF_EEEENS_32ConstructWithMemoryManagerTraitsISI_EEE7destroyEPSI_SM_(%"class.xalanc_1_10::XalanVector.4"* %call, %"class.xalanc_1_10::XalanVector.4"* %call4)
          to label %invoke.cont5 unwind label %terminate.lpad, !dbg !4942

invoke.cont5:                                     ; preds = %invoke.cont3
  %m_data = getelementptr inbounds %"class.xalanc_1_10::XalanVector.3", %"class.xalanc_1_10::XalanVector.3"* %this1, i32 0, i32 3, !dbg !4943
  %1 = load %"class.xalanc_1_10::XalanVector.4"*, %"class.xalanc_1_10::XalanVector.4"** %m_data, align 8, !dbg !4943
  invoke void @_ZN11xalanc_1_1011XalanVectorINS0_INS_21XalanListIteratorBaseINS_23XalanListIteratorTraitsINS_8XalanMapIPKNS_5XPathEbNS_17XalanMapKeyTraitsIS6_EEE5EntryEEENS_9XalanListISA_E4NodeEEENS_31MemoryManagedConstructionTraitsISF_EEEENS_32ConstructWithMemoryManagerTraitsISI_EEE10deallocateEPSI_(%"class.xalanc_1_10::XalanVector.3"* %this1, %"class.xalanc_1_10::XalanVector.4"* %1)
          to label %invoke.cont6 unwind label %terminate.lpad, !dbg !4944

invoke.cont6:                                     ; preds = %invoke.cont5
  br label %if.end, !dbg !4945

if.end:                                           ; preds = %invoke.cont6, %invoke.cont
  ret void, !dbg !4946

terminate.lpad:                                   ; preds = %invoke.cont5, %invoke.cont3, %invoke.cont2, %if.then, %entry
  %2 = landingpad { i8*, i32 }
          catch i8* null, !dbg !4933
  %3 = extractvalue { i8*, i32 } %2, 0, !dbg !4933
  call void @__clang_call_terminate(i8* %3) #9, !dbg !4933
  unreachable, !dbg !4933
}

; Function Attrs: noinline nounwind uwtable
define linkonce_odr dso_local void @_ZN11xalanc_1_109XalanListINS_8XalanMapIPKNS_5XPathEbNS_17XalanMapKeyTraitsIS4_EEE5EntryEED2Ev(%"class.xalanc_1_10::XalanList"* %this) unnamed_addr #4 comdat align 2 personality i8* bitcast (i32 (...)* @__gxx_personality_v0 to i8*) !dbg !4947 {
entry:
  %this.addr = alloca %"class.xalanc_1_10::XalanList"*, align 8
  %pos = alloca %"struct.xalanc_1_10::XalanListIteratorBase", align 8
  %ref.tmp = alloca %"struct.xalanc_1_10::XalanListIteratorBase", align 8
  %ref.tmp4 = alloca %"struct.xalanc_1_10::XalanListIteratorBase", align 8
  %freeNode = alloca %"struct.xalanc_1_10::XalanList<xalanc_1_10::XalanMap<const xalanc_1_10::XPath *, bool, xalanc_1_10::XalanMapKeyTraits<const xalanc_1_10::XPath *> >::Entry>::Node"*, align 8
  %nextNode = alloca %"struct.xalanc_1_10::XalanList<xalanc_1_10::XalanMap<const xalanc_1_10::XPath *, bool, xalanc_1_10::XalanMapKeyTraits<const xalanc_1_10::XPath *> >::Entry>::Node"*, align 8
  store %"class.xalanc_1_10::XalanList"* %this, %"class.xalanc_1_10::XalanList"** %this.addr, align 8
  call void @llvm.dbg.declare(metadata %"class.xalanc_1_10::XalanList"** %this.addr, metadata !4948, metadata !DIExpression()), !dbg !4949
  %this1 = load %"class.xalanc_1_10::XalanList"*, %"class.xalanc_1_10::XalanList"** %this.addr, align 8
  %m_listHead = getelementptr inbounds %"class.xalanc_1_10::XalanList", %"class.xalanc_1_10::XalanList"* %this1, i32 0, i32 1, !dbg !4950
  %0 = load %"struct.xalanc_1_10::XalanList<xalanc_1_10::XalanMap<const xalanc_1_10::XPath *, bool, xalanc_1_10::XalanMapKeyTraits<const xalanc_1_10::XPath *> >::Entry>::Node"*, %"struct.xalanc_1_10::XalanList<xalanc_1_10::XalanMap<const xalanc_1_10::XPath *, bool, xalanc_1_10::XalanMapKeyTraits<const xalanc_1_10::XPath *> >::Entry>::Node"** %m_listHead, align 8, !dbg !4950
  %cmp = icmp ne %"struct.xalanc_1_10::XalanList<xalanc_1_10::XalanMap<const xalanc_1_10::XPath *, bool, xalanc_1_10::XalanMapKeyTraits<const xalanc_1_10::XPath *> >::Entry>::Node"* %0, null, !dbg !4953
  br i1 %cmp, label %if.then, label %if.end, !dbg !4954

if.then:                                          ; preds = %entry
  call void @llvm.dbg.declare(metadata %"struct.xalanc_1_10::XalanListIteratorBase"* %pos, metadata !4955, metadata !DIExpression()), !dbg !4957
  invoke void @_ZN11xalanc_1_109XalanListINS_8XalanMapIPKNS_5XPathEbNS_17XalanMapKeyTraitsIS4_EEE5EntryEE5beginEv(%"struct.xalanc_1_10::XalanListIteratorBase"* sret %pos, %"class.xalanc_1_10::XalanList"* %this1)
          to label %invoke.cont unwind label %terminate.lpad, !dbg !4958

invoke.cont:                                      ; preds = %if.then
  br label %while.cond, !dbg !4959

while.cond:                                       ; preds = %invoke.cont8, %invoke.cont
  invoke void @_ZN11xalanc_1_109XalanListINS_8XalanMapIPKNS_5XPathEbNS_17XalanMapKeyTraitsIS4_EEE5EntryEE3endEv(%"struct.xalanc_1_10::XalanListIteratorBase"* sret %ref.tmp, %"class.xalanc_1_10::XalanList"* %this1)
          to label %invoke.cont2 unwind label %terminate.lpad, !dbg !4960

invoke.cont2:                                     ; preds = %while.cond
  %call = invoke zeroext i1 @_ZNK11xalanc_1_1021XalanListIteratorBaseINS_23XalanListIteratorTraitsINS_8XalanMapIPKNS_5XPathEbNS_17XalanMapKeyTraitsIS5_EEE5EntryEEENS_9XalanListIS9_E4NodeEEneERKSE_(%"struct.xalanc_1_10::XalanListIteratorBase"* %pos, %"struct.xalanc_1_10::XalanListIteratorBase"* dereferenceable(8) %ref.tmp)
          to label %invoke.cont3 unwind label %terminate.lpad, !dbg !4961

invoke.cont3:                                     ; preds = %invoke.cont2
  br i1 %call, label %while.body, label %while.end, !dbg !4959

while.body:                                       ; preds = %invoke.cont3
  invoke void @_ZN11xalanc_1_1021XalanListIteratorBaseINS_23XalanListIteratorTraitsINS_8XalanMapIPKNS_5XPathEbNS_17XalanMapKeyTraitsIS5_EEE5EntryEEENS_9XalanListIS9_E4NodeEEppEi(%"struct.xalanc_1_10::XalanListIteratorBase"* sret %ref.tmp4, %"struct.xalanc_1_10::XalanListIteratorBase"* %pos, i32 0)
          to label %invoke.cont5 unwind label %terminate.lpad, !dbg !4962

invoke.cont5:                                     ; preds = %while.body
  %call7 = invoke dereferenceable(32) %"struct.xalanc_1_10::XalanList<xalanc_1_10::XalanMap<const xalanc_1_10::XPath *, bool, xalanc_1_10::XalanMapKeyTraits<const xalanc_1_10::XPath *> >::Entry>::Node"* @_ZN11xalanc_1_1021XalanListIteratorBaseINS_23XalanListIteratorTraitsINS_8XalanMapIPKNS_5XPathEbNS_17XalanMapKeyTraitsIS5_EEE5EntryEEENS_9XalanListIS9_E4NodeEE4nodeEv(%"struct.xalanc_1_10::XalanListIteratorBase"* %ref.tmp4)
          to label %invoke.cont6 unwind label %terminate.lpad, !dbg !4964

invoke.cont6:                                     ; preds = %invoke.cont5
  invoke void @_ZN11xalanc_1_109XalanListINS_8XalanMapIPKNS_5XPathEbNS_17XalanMapKeyTraitsIS4_EEE5EntryEE11destroyNodeERNS9_4NodeE(%"class.xalanc_1_10::XalanList"* %this1, %"struct.xalanc_1_10::XalanList<xalanc_1_10::XalanMap<const xalanc_1_10::XPath *, bool, xalanc_1_10::XalanMapKeyTraits<const xalanc_1_10::XPath *> >::Entry>::Node"* dereferenceable(32) %call7)
          to label %invoke.cont8 unwind label %terminate.lpad, !dbg !4965

invoke.cont8:                                     ; preds = %invoke.cont6
  br label %while.cond, !dbg !4959, !llvm.loop !4966

while.end:                                        ; preds = %invoke.cont3
  call void @llvm.dbg.declare(metadata %"struct.xalanc_1_10::XalanList<xalanc_1_10::XalanMap<const xalanc_1_10::XPath *, bool, xalanc_1_10::XalanMapKeyTraits<const xalanc_1_10::XPath *> >::Entry>::Node"** %freeNode, metadata !4968, metadata !DIExpression()), !dbg !4969
  %m_freeListHeadPtr = getelementptr inbounds %"class.xalanc_1_10::XalanList", %"class.xalanc_1_10::XalanList"* %this1, i32 0, i32 2, !dbg !4970
  %1 = load %"struct.xalanc_1_10::XalanList<xalanc_1_10::XalanMap<const xalanc_1_10::XPath *, bool, xalanc_1_10::XalanMapKeyTraits<const xalanc_1_10::XPath *> >::Entry>::Node"*, %"struct.xalanc_1_10::XalanList<xalanc_1_10::XalanMap<const xalanc_1_10::XPath *, bool, xalanc_1_10::XalanMapKeyTraits<const xalanc_1_10::XPath *> >::Entry>::Node"** %m_freeListHeadPtr, align 8, !dbg !4970
  store %"struct.xalanc_1_10::XalanList<xalanc_1_10::XalanMap<const xalanc_1_10::XPath *, bool, xalanc_1_10::XalanMapKeyTraits<const xalanc_1_10::XPath *> >::Entry>::Node"* %1, %"struct.xalanc_1_10::XalanList<xalanc_1_10::XalanMap<const xalanc_1_10::XPath *, bool, xalanc_1_10::XalanMapKeyTraits<const xalanc_1_10::XPath *> >::Entry>::Node"** %freeNode, align 8, !dbg !4969
  br label %while.cond9, !dbg !4971

while.cond9:                                      ; preds = %invoke.cont12, %while.end
  %2 = load %"struct.xalanc_1_10::XalanList<xalanc_1_10::XalanMap<const xalanc_1_10::XPath *, bool, xalanc_1_10::XalanMapKeyTraits<const xalanc_1_10::XPath *> >::Entry>::Node"*, %"struct.xalanc_1_10::XalanList<xalanc_1_10::XalanMap<const xalanc_1_10::XPath *, bool, xalanc_1_10::XalanMapKeyTraits<const xalanc_1_10::XPath *> >::Entry>::Node"** %freeNode, align 8, !dbg !4972
  %cmp10 = icmp ne %"struct.xalanc_1_10::XalanList<xalanc_1_10::XalanMap<const xalanc_1_10::XPath *, bool, xalanc_1_10::XalanMapKeyTraits<const xalanc_1_10::XPath *> >::Entry>::Node"* %2, null, !dbg !4973
  br i1 %cmp10, label %while.body11, label %while.end13, !dbg !4971

while.body11:                                     ; preds = %while.cond9
  call void @llvm.dbg.declare(metadata %"struct.xalanc_1_10::XalanList<xalanc_1_10::XalanMap<const xalanc_1_10::XPath *, bool, xalanc_1_10::XalanMapKeyTraits<const xalanc_1_10::XPath *> >::Entry>::Node"** %nextNode, metadata !4974, metadata !DIExpression()), !dbg !4976
  %3 = load %"struct.xalanc_1_10::XalanList<xalanc_1_10::XalanMap<const xalanc_1_10::XPath *, bool, xalanc_1_10::XalanMapKeyTraits<const xalanc_1_10::XPath *> >::Entry>::Node"*, %"struct.xalanc_1_10::XalanList<xalanc_1_10::XalanMap<const xalanc_1_10::XPath *, bool, xalanc_1_10::XalanMapKeyTraits<const xalanc_1_10::XPath *> >::Entry>::Node"** %freeNode, align 8, !dbg !4977
  %next = getelementptr inbounds %"struct.xalanc_1_10::XalanList<xalanc_1_10::XalanMap<const xalanc_1_10::XPath *, bool, xalanc_1_10::XalanMapKeyTraits<const xalanc_1_10::XPath *> >::Entry>::Node", %"struct.xalanc_1_10::XalanList<xalanc_1_10::XalanMap<const xalanc_1_10::XPath *, bool, xalanc_1_10::XalanMapKeyTraits<const xalanc_1_10::XPath *> >::Entry>::Node"* %3, i32 0, i32 2, !dbg !4978
  %4 = load %"struct.xalanc_1_10::XalanList<xalanc_1_10::XalanMap<const xalanc_1_10::XPath *, bool, xalanc_1_10::XalanMapKeyTraits<const xalanc_1_10::XPath *> >::Entry>::Node"*, %"struct.xalanc_1_10::XalanList<xalanc_1_10::XalanMap<const xalanc_1_10::XPath *, bool, xalanc_1_10::XalanMapKeyTraits<const xalanc_1_10::XPath *> >::Entry>::Node"** %next, align 8, !dbg !4978
  store %"struct.xalanc_1_10::XalanList<xalanc_1_10::XalanMap<const xalanc_1_10::XPath *, bool, xalanc_1_10::XalanMapKeyTraits<const xalanc_1_10::XPath *> >::Entry>::Node"* %4, %"struct.xalanc_1_10::XalanList<xalanc_1_10::XalanMap<const xalanc_1_10::XPath *, bool, xalanc_1_10::XalanMapKeyTraits<const xalanc_1_10::XPath *> >::Entry>::Node"** %nextNode, align 8, !dbg !4976
  %5 = load %"struct.xalanc_1_10::XalanList<xalanc_1_10::XalanMap<const xalanc_1_10::XPath *, bool, xalanc_1_10::XalanMapKeyTraits<const xalanc_1_10::XPath *> >::Entry>::Node"*, %"struct.xalanc_1_10::XalanList<xalanc_1_10::XalanMap<const xalanc_1_10::XPath *, bool, xalanc_1_10::XalanMapKeyTraits<const xalanc_1_10::XPath *> >::Entry>::Node"** %freeNode, align 8, !dbg !4979
  invoke void @_ZN11xalanc_1_109XalanListINS_8XalanMapIPKNS_5XPathEbNS_17XalanMapKeyTraitsIS4_EEE5EntryEE10deallocateEPNS9_4NodeE(%"class.xalanc_1_10::XalanList"* %this1, %"struct.xalanc_1_10::XalanList<xalanc_1_10::XalanMap<const xalanc_1_10::XPath *, bool, xalanc_1_10::XalanMapKeyTraits<const xalanc_1_10::XPath *> >::Entry>::Node"* %5)
          to label %invoke.cont12 unwind label %terminate.lpad, !dbg !4980

invoke.cont12:                                    ; preds = %while.body11
  %6 = load %"struct.xalanc_1_10::XalanList<xalanc_1_10::XalanMap<const xalanc_1_10::XPath *, bool, xalanc_1_10::XalanMapKeyTraits<const xalanc_1_10::XPath *> >::Entry>::Node"*, %"struct.xalanc_1_10::XalanList<xalanc_1_10::XalanMap<const xalanc_1_10::XPath *, bool, xalanc_1_10::XalanMapKeyTraits<const xalanc_1_10::XPath *> >::Entry>::Node"** %nextNode, align 8, !dbg !4981
  store %"struct.xalanc_1_10::XalanList<xalanc_1_10::XalanMap<const xalanc_1_10::XPath *, bool, xalanc_1_10::XalanMapKeyTraits<const xalanc_1_10::XPath *> >::Entry>::Node"* %6, %"struct.xalanc_1_10::XalanList<xalanc_1_10::XalanMap<const xalanc_1_10::XPath *, bool, xalanc_1_10::XalanMapKeyTraits<const xalanc_1_10::XPath *> >::Entry>::Node"** %freeNode, align 8, !dbg !4982
  br label %while.cond9, !dbg !4971, !llvm.loop !4983

while.end13:                                      ; preds = %while.cond9
  %m_listHead14 = getelementptr inbounds %"class.xalanc_1_10::XalanList", %"class.xalanc_1_10::XalanList"* %this1, i32 0, i32 1, !dbg !4985
  %7 = load %"struct.xalanc_1_10::XalanList<xalanc_1_10::XalanMap<const xalanc_1_10::XPath *, bool, xalanc_1_10::XalanMapKeyTraits<const xalanc_1_10::XPath *> >::Entry>::Node"*, %"struct.xalanc_1_10::XalanList<xalanc_1_10::XalanMap<const xalanc_1_10::XPath *, bool, xalanc_1_10::XalanMapKeyTraits<const xalanc_1_10::XPath *> >::Entry>::Node"** %m_listHead14, align 8, !dbg !4985
  invoke void @_ZN11xalanc_1_109XalanListINS_8XalanMapIPKNS_5XPathEbNS_17XalanMapKeyTraitsIS4_EEE5EntryEE10deallocateEPNS9_4NodeE(%"class.xalanc_1_10::XalanList"* %this1, %"struct.xalanc_1_10::XalanList<xalanc_1_10::XalanMap<const xalanc_1_10::XPath *, bool, xalanc_1_10::XalanMapKeyTraits<const xalanc_1_10::XPath *> >::Entry>::Node"* %7)
          to label %invoke.cont15 unwind label %terminate.lpad, !dbg !4986

invoke.cont15:                                    ; preds = %while.end13
  br label %if.end, !dbg !4987

if.end:                                           ; preds = %invoke.cont15, %entry
  ret void, !dbg !4988

terminate.lpad:                                   ; preds = %while.end13, %while.body11, %invoke.cont6, %invoke.cont5, %while.body, %invoke.cont2, %while.cond, %if.then
  %8 = landingpad { i8*, i32 }
          catch i8* null, !dbg !4958
  %9 = extractvalue { i8*, i32 } %8, 0, !dbg !4958
  call void @__clang_call_terminate(i8* %9) #9, !dbg !4958
  unreachable, !dbg !4958
}

; Function Attrs: noinline nounwind uwtable
define linkonce_odr dso_local i64 @_ZNK11xalanc_1_108XalanMapIPKNS_5XPathEbNS_17XalanMapKeyTraitsIS3_EEE4sizeEv(%"class.xalanc_1_10::XalanMap"* %this) #4 comdat align 2 !dbg !4989 {
entry:
  %this.addr = alloca %"class.xalanc_1_10::XalanMap"*, align 8
  store %"class.xalanc_1_10::XalanMap"* %this, %"class.xalanc_1_10::XalanMap"** %this.addr, align 8
  call void @llvm.dbg.declare(metadata %"class.xalanc_1_10::XalanMap"** %this.addr, metadata !4990, metadata !DIExpression()), !dbg !4992
  %this1 = load %"class.xalanc_1_10::XalanMap"*, %"class.xalanc_1_10::XalanMap"** %this.addr, align 8
  %m_size = getelementptr inbounds %"class.xalanc_1_10::XalanMap", %"class.xalanc_1_10::XalanMap"* %this1, i32 0, i32 5, !dbg !4993
  %0 = load i64, i64* %m_size, align 8, !dbg !4993
  ret i64 %0, !dbg !4994
}

; Function Attrs: noinline uwtable
define linkonce_odr dso_local void @_ZN11xalanc_1_108XalanMapIPKNS_5XPathEbNS_17XalanMapKeyTraitsIS3_EEE13doRemoveEntryERKNS_16XalanMapIteratorINS_22XalanMapIteratorTraitsISt4pairIKS3_bEEENS_21XalanListIteratorBaseINS_23XalanListIteratorTraitsINS6_5EntryEEENS_9XalanListISF_E4NodeEEEEE(%"class.xalanc_1_10::XalanMap"* %this, %"struct.xalanc_1_10::XalanMapIterator.9"* dereferenceable(8) %toRemovePos) #0 comdat align 2 !dbg !4995 {
entry:
  %this.addr = alloca %"class.xalanc_1_10::XalanMap"*, align 8
  %toRemovePos.addr = alloca %"struct.xalanc_1_10::XalanMapIterator.9"*, align 8
  %toRemove = alloca %"struct.std::pair"*, align 8
  %agg.tmp = alloca %"struct.xalanc_1_10::XalanListIteratorBase", align 8
  %agg.tmp3 = alloca %"struct.xalanc_1_10::XalanListIteratorBase", align 8
  store %"class.xalanc_1_10::XalanMap"* %this, %"class.xalanc_1_10::XalanMap"** %this.addr, align 8
  call void @llvm.dbg.declare(metadata %"class.xalanc_1_10::XalanMap"** %this.addr, metadata !4996, metadata !DIExpression()), !dbg !4997
  store %"struct.xalanc_1_10::XalanMapIterator.9"* %toRemovePos, %"struct.xalanc_1_10::XalanMapIterator.9"** %toRemovePos.addr, align 8
  call void @llvm.dbg.declare(metadata %"struct.xalanc_1_10::XalanMapIterator.9"** %toRemovePos.addr, metadata !4998, metadata !DIExpression()), !dbg !4999
  %this1 = load %"class.xalanc_1_10::XalanMap"*, %"class.xalanc_1_10::XalanMap"** %this.addr, align 8
  call void @llvm.dbg.declare(metadata %"struct.std::pair"** %toRemove, metadata !5000, metadata !DIExpression()), !dbg !5002
  %0 = load %"struct.xalanc_1_10::XalanMapIterator.9"*, %"struct.xalanc_1_10::XalanMapIterator.9"** %toRemovePos.addr, align 8, !dbg !5003
  %call = call dereferenceable(16) %"struct.std::pair"* @_ZNK11xalanc_1_1016XalanMapIteratorINS_22XalanMapIteratorTraitsISt4pairIKPKNS_5XPathEbEEENS_21XalanListIteratorBaseINS_23XalanListIteratorTraitsINS_8XalanMapIS5_bNS_17XalanMapKeyTraitsIS5_EEE5EntryEEENS_9XalanListISF_E4NodeEEEEdeEv(%"struct.xalanc_1_10::XalanMapIterator.9"* %0), !dbg !5004
  store %"struct.std::pair"* %call, %"struct.std::pair"** %toRemove, align 8, !dbg !5002
  %1 = load %"struct.std::pair"*, %"struct.std::pair"** %toRemove, align 8, !dbg !5005
  %m_freeEntries = getelementptr inbounds %"class.xalanc_1_10::XalanMap", %"class.xalanc_1_10::XalanMap"* %this1, i32 0, i32 7, !dbg !5006
  %m_freeEntries2 = getelementptr inbounds %"class.xalanc_1_10::XalanMap", %"class.xalanc_1_10::XalanMap"* %this1, i32 0, i32 7, !dbg !5007
  call void @_ZN11xalanc_1_109XalanListINS_8XalanMapIPKNS_5XPathEbNS_17XalanMapKeyTraitsIS4_EEE5EntryEE3endEv(%"struct.xalanc_1_10::XalanListIteratorBase"* sret %agg.tmp, %"class.xalanc_1_10::XalanList"* %m_freeEntries2), !dbg !5008
  %m_entries = getelementptr inbounds %"class.xalanc_1_10::XalanMap", %"class.xalanc_1_10::XalanMap"* %this1, i32 0, i32 6, !dbg !5009
  %2 = load %"struct.xalanc_1_10::XalanMapIterator.9"*, %"struct.xalanc_1_10::XalanMapIterator.9"** %toRemovePos.addr, align 8, !dbg !5010
  %baseIterator = getelementptr inbounds %"struct.xalanc_1_10::XalanMapIterator.9", %"struct.xalanc_1_10::XalanMapIterator.9"* %2, i32 0, i32 0, !dbg !5011
  call void @_ZN11xalanc_1_1021XalanListIteratorBaseINS_23XalanListIteratorTraitsINS_8XalanMapIPKNS_5XPathEbNS_17XalanMapKeyTraitsIS5_EEE5EntryEEENS_9XalanListIS9_E4NodeEEC2ERKSE_(%"struct.xalanc_1_10::XalanListIteratorBase"* %agg.tmp3, %"struct.xalanc_1_10::XalanListIteratorBase"* dereferenceable(8) %baseIterator), !dbg !5010
  call void @_ZN11xalanc_1_109XalanListINS_8XalanMapIPKNS_5XPathEbNS_17XalanMapKeyTraitsIS4_EEE5EntryEE6spliceENS_21XalanListIteratorBaseINS_23XalanListIteratorTraitsIS8_EENS9_4NodeEEERS9_SE_(%"class.xalanc_1_10::XalanList"* %m_freeEntries, %"struct.xalanc_1_10::XalanListIteratorBase"* %agg.tmp, %"class.xalanc_1_10::XalanList"* dereferenceable(24) %m_entries, %"struct.xalanc_1_10::XalanListIteratorBase"* %agg.tmp3), !dbg !5012
  %3 = load %"struct.xalanc_1_10::XalanMapIterator.9"*, %"struct.xalanc_1_10::XalanMapIterator.9"** %toRemovePos.addr, align 8, !dbg !5013
  %baseIterator4 = getelementptr inbounds %"struct.xalanc_1_10::XalanMapIterator.9", %"struct.xalanc_1_10::XalanMapIterator.9"* %3, i32 0, i32 0, !dbg !5014
  %call5 = call %"struct.xalanc_1_10::XalanMap<const xalanc_1_10::XPath *, bool, xalanc_1_10::XalanMapKeyTraits<const xalanc_1_10::XPath *> >::Entry"* @_ZNK11xalanc_1_1021XalanListIteratorBaseINS_23XalanListIteratorTraitsINS_8XalanMapIPKNS_5XPathEbNS_17XalanMapKeyTraitsIS5_EEE5EntryEEENS_9XalanListIS9_E4NodeEEptEv(%"struct.xalanc_1_10::XalanListIteratorBase"* %baseIterator4), !dbg !5013
  %erased = getelementptr inbounds %"struct.xalanc_1_10::XalanMap<const xalanc_1_10::XPath *, bool, xalanc_1_10::XalanMapKeyTraits<const xalanc_1_10::XPath *> >::Entry", %"struct.xalanc_1_10::XalanMap<const xalanc_1_10::XPath *, bool, xalanc_1_10::XalanMapKeyTraits<const xalanc_1_10::XPath *> >::Entry"* %call5, i32 0, i32 1, !dbg !5015
  store i8 1, i8* %erased, align 8, !dbg !5016
  %m_size = getelementptr inbounds %"class.xalanc_1_10::XalanMap", %"class.xalanc_1_10::XalanMap"* %this1, i32 0, i32 5, !dbg !5017
  %4 = load i64, i64* %m_size, align 8, !dbg !5018
  %dec = add i64 %4, -1, !dbg !5018
  store i64 %dec, i64* %m_size, align 8, !dbg !5018
  ret void, !dbg !5019
}

; Function Attrs: noinline uwtable
define linkonce_odr dso_local void @_ZN11xalanc_1_108XalanMapIPKNS_5XPathEbNS_17XalanMapKeyTraitsIS3_EEE5beginEv(%"struct.xalanc_1_10::XalanMapIterator.9"* noalias sret %agg.result, %"class.xalanc_1_10::XalanMap"* %this) #0 comdat align 2 !dbg !5020 {
entry:
  %result.ptr = alloca i8*, align 8
  %this.addr = alloca %"class.xalanc_1_10::XalanMap"*, align 8
  %ref.tmp = alloca %"struct.xalanc_1_10::XalanListIteratorBase", align 8
  %0 = bitcast %"struct.xalanc_1_10::XalanMapIterator.9"* %agg.result to i8*
  store i8* %0, i8** %result.ptr, align 8
  store %"class.xalanc_1_10::XalanMap"* %this, %"class.xalanc_1_10::XalanMap"** %this.addr, align 8
  call void @llvm.dbg.declare(metadata %"class.xalanc_1_10::XalanMap"** %this.addr, metadata !5021, metadata !DIExpression()), !dbg !5022
  %this1 = load %"class.xalanc_1_10::XalanMap"*, %"class.xalanc_1_10::XalanMap"** %this.addr, align 8
  %m_entries = getelementptr inbounds %"class.xalanc_1_10::XalanMap", %"class.xalanc_1_10::XalanMap"* %this1, i32 0, i32 6, !dbg !5023
  call void @_ZN11xalanc_1_109XalanListINS_8XalanMapIPKNS_5XPathEbNS_17XalanMapKeyTraitsIS4_EEE5EntryEE5beginEv(%"struct.xalanc_1_10::XalanListIteratorBase"* sret %ref.tmp, %"class.xalanc_1_10::XalanList"* %m_entries), !dbg !5024
  call void @_ZN11xalanc_1_1016XalanMapIteratorINS_22XalanMapIteratorTraitsISt4pairIKPKNS_5XPathEbEEENS_21XalanListIteratorBaseINS_23XalanListIteratorTraitsINS_8XalanMapIS5_bNS_17XalanMapKeyTraitsIS5_EEE5EntryEEENS_9XalanListISF_E4NodeEEEEC2ERKSK_(%"struct.xalanc_1_10::XalanMapIterator.9"* %agg.result, %"struct.xalanc_1_10::XalanListIteratorBase"* dereferenceable(8) %ref.tmp), !dbg !5023
  ret void, !dbg !5025
}

; Function Attrs: noinline uwtable
define linkonce_odr dso_local dereferenceable(16) %"struct.std::pair"* @_ZNK11xalanc_1_1016XalanMapIteratorINS_22XalanMapIteratorTraitsISt4pairIKPKNS_5XPathEbEEENS_21XalanListIteratorBaseINS_23XalanListIteratorTraitsINS_8XalanMapIS5_bNS_17XalanMapKeyTraitsIS5_EEE5EntryEEENS_9XalanListISF_E4NodeEEEEdeEv(%"struct.xalanc_1_10::XalanMapIterator.9"* %this) #0 comdat align 2 !dbg !5026 {
entry:
  %this.addr = alloca %"struct.xalanc_1_10::XalanMapIterator.9"*, align 8
  store %"struct.xalanc_1_10::XalanMapIterator.9"* %this, %"struct.xalanc_1_10::XalanMapIterator.9"** %this.addr, align 8
  call void @llvm.dbg.declare(metadata %"struct.xalanc_1_10::XalanMapIterator.9"** %this.addr, metadata !5027, metadata !DIExpression()), !dbg !5029
  %this1 = load %"struct.xalanc_1_10::XalanMapIterator.9"*, %"struct.xalanc_1_10::XalanMapIterator.9"** %this.addr, align 8
  %baseIterator = getelementptr inbounds %"struct.xalanc_1_10::XalanMapIterator.9", %"struct.xalanc_1_10::XalanMapIterator.9"* %this1, i32 0, i32 0, !dbg !5030
  %call = call %"struct.xalanc_1_10::XalanMap<const xalanc_1_10::XPath *, bool, xalanc_1_10::XalanMapKeyTraits<const xalanc_1_10::XPath *> >::Entry"* @_ZNK11xalanc_1_1021XalanListIteratorBaseINS_23XalanListIteratorTraitsINS_8XalanMapIPKNS_5XPathEbNS_17XalanMapKeyTraitsIS5_EEE5EntryEEENS_9XalanListIS9_E4NodeEEptEv(%"struct.xalanc_1_10::XalanListIteratorBase"* %baseIterator), !dbg !5030
  %value = getelementptr inbounds %"struct.xalanc_1_10::XalanMap<const xalanc_1_10::XPath *, bool, xalanc_1_10::XalanMapKeyTraits<const xalanc_1_10::XPath *> >::Entry", %"struct.xalanc_1_10::XalanMap<const xalanc_1_10::XPath *, bool, xalanc_1_10::XalanMapKeyTraits<const xalanc_1_10::XPath *> >::Entry"* %call, i32 0, i32 0, !dbg !5031
  %0 = load %"struct.std::pair"*, %"struct.std::pair"** %value, align 8, !dbg !5031
  ret %"struct.std::pair"* %0, !dbg !5032
}

; Function Attrs: noinline uwtable
define linkonce_odr dso_local void @_ZN11xalanc_1_109XalanListINS_8XalanMapIPKNS_5XPathEbNS_17XalanMapKeyTraitsIS4_EEE5EntryEE6spliceENS_21XalanListIteratorBaseINS_23XalanListIteratorTraitsIS8_EENS9_4NodeEEERS9_SE_(%"class.xalanc_1_10::XalanList"* %this, %"struct.xalanc_1_10::XalanListIteratorBase"* %pos, %"class.xalanc_1_10::XalanList"* dereferenceable(24) %0, %"struct.xalanc_1_10::XalanListIteratorBase"* %toInsert) #0 comdat align 2 !dbg !5033 {
entry:
  %this.addr = alloca %"class.xalanc_1_10::XalanList"*, align 8
  %.addr = alloca %"class.xalanc_1_10::XalanList"*, align 8
  %posNode = alloca %"struct.xalanc_1_10::XalanList<xalanc_1_10::XalanMap<const xalanc_1_10::XPath *, bool, xalanc_1_10::XalanMapKeyTraits<const xalanc_1_10::XPath *> >::Entry>::Node"*, align 8
  %toInsertNode = alloca %"struct.xalanc_1_10::XalanList<xalanc_1_10::XalanMap<const xalanc_1_10::XPath *, bool, xalanc_1_10::XalanMapKeyTraits<const xalanc_1_10::XPath *> >::Entry>::Node"*, align 8
  store %"class.xalanc_1_10::XalanList"* %this, %"class.xalanc_1_10::XalanList"** %this.addr, align 8
  call void @llvm.dbg.declare(metadata %"class.xalanc_1_10::XalanList"** %this.addr, metadata !5034, metadata !DIExpression()), !dbg !5035
  call void @llvm.dbg.declare(metadata %"struct.xalanc_1_10::XalanListIteratorBase"* %pos, metadata !5036, metadata !DIExpression()), !dbg !5037
  store %"class.xalanc_1_10::XalanList"* %0, %"class.xalanc_1_10::XalanList"** %.addr, align 8
  call void @llvm.dbg.declare(metadata %"class.xalanc_1_10::XalanList"** %.addr, metadata !5038, metadata !DIExpression()), !dbg !5039
  call void @llvm.dbg.declare(metadata %"struct.xalanc_1_10::XalanListIteratorBase"* %toInsert, metadata !5040, metadata !DIExpression()), !dbg !5041
  %this1 = load %"class.xalanc_1_10::XalanList"*, %"class.xalanc_1_10::XalanList"** %this.addr, align 8
  %call = call zeroext i1 @_ZNK11xalanc_1_1021XalanListIteratorBaseINS_23XalanListIteratorTraitsINS_8XalanMapIPKNS_5XPathEbNS_17XalanMapKeyTraitsIS5_EEE5EntryEEENS_9XalanListIS9_E4NodeEEneERKSE_(%"struct.xalanc_1_10::XalanListIteratorBase"* %pos, %"struct.xalanc_1_10::XalanListIteratorBase"* dereferenceable(8) %toInsert), !dbg !5042
  br i1 %call, label %if.then, label %if.end, !dbg !5044

if.then:                                          ; preds = %entry
  call void @llvm.dbg.declare(metadata %"struct.xalanc_1_10::XalanList<xalanc_1_10::XalanMap<const xalanc_1_10::XPath *, bool, xalanc_1_10::XalanMapKeyTraits<const xalanc_1_10::XPath *> >::Entry>::Node"** %posNode, metadata !5045, metadata !DIExpression()), !dbg !5047
  %call2 = call dereferenceable(32) %"struct.xalanc_1_10::XalanList<xalanc_1_10::XalanMap<const xalanc_1_10::XPath *, bool, xalanc_1_10::XalanMapKeyTraits<const xalanc_1_10::XPath *> >::Entry>::Node"* @_ZN11xalanc_1_1021XalanListIteratorBaseINS_23XalanListIteratorTraitsINS_8XalanMapIPKNS_5XPathEbNS_17XalanMapKeyTraitsIS5_EEE5EntryEEENS_9XalanListIS9_E4NodeEE4nodeEv(%"struct.xalanc_1_10::XalanListIteratorBase"* %pos), !dbg !5048
  store %"struct.xalanc_1_10::XalanList<xalanc_1_10::XalanMap<const xalanc_1_10::XPath *, bool, xalanc_1_10::XalanMapKeyTraits<const xalanc_1_10::XPath *> >::Entry>::Node"* %call2, %"struct.xalanc_1_10::XalanList<xalanc_1_10::XalanMap<const xalanc_1_10::XPath *, bool, xalanc_1_10::XalanMapKeyTraits<const xalanc_1_10::XPath *> >::Entry>::Node"** %posNode, align 8, !dbg !5047
  call void @llvm.dbg.declare(metadata %"struct.xalanc_1_10::XalanList<xalanc_1_10::XalanMap<const xalanc_1_10::XPath *, bool, xalanc_1_10::XalanMapKeyTraits<const xalanc_1_10::XPath *> >::Entry>::Node"** %toInsertNode, metadata !5049, metadata !DIExpression()), !dbg !5050
  %call3 = call dereferenceable(32) %"struct.xalanc_1_10::XalanList<xalanc_1_10::XalanMap<const xalanc_1_10::XPath *, bool, xalanc_1_10::XalanMapKeyTraits<const xalanc_1_10::XPath *> >::Entry>::Node"* @_ZN11xalanc_1_1021XalanListIteratorBaseINS_23XalanListIteratorTraitsINS_8XalanMapIPKNS_5XPathEbNS_17XalanMapKeyTraitsIS5_EEE5EntryEEENS_9XalanListIS9_E4NodeEE4nodeEv(%"struct.xalanc_1_10::XalanListIteratorBase"* %toInsert), !dbg !5051
  store %"struct.xalanc_1_10::XalanList<xalanc_1_10::XalanMap<const xalanc_1_10::XPath *, bool, xalanc_1_10::XalanMapKeyTraits<const xalanc_1_10::XPath *> >::Entry>::Node"* %call3, %"struct.xalanc_1_10::XalanList<xalanc_1_10::XalanMap<const xalanc_1_10::XPath *, bool, xalanc_1_10::XalanMapKeyTraits<const xalanc_1_10::XPath *> >::Entry>::Node"** %toInsertNode, align 8, !dbg !5050
  %1 = load %"struct.xalanc_1_10::XalanList<xalanc_1_10::XalanMap<const xalanc_1_10::XPath *, bool, xalanc_1_10::XalanMapKeyTraits<const xalanc_1_10::XPath *> >::Entry>::Node"*, %"struct.xalanc_1_10::XalanList<xalanc_1_10::XalanMap<const xalanc_1_10::XPath *, bool, xalanc_1_10::XalanMapKeyTraits<const xalanc_1_10::XPath *> >::Entry>::Node"** %toInsertNode, align 8, !dbg !5052
  %next = getelementptr inbounds %"struct.xalanc_1_10::XalanList<xalanc_1_10::XalanMap<const xalanc_1_10::XPath *, bool, xalanc_1_10::XalanMapKeyTraits<const xalanc_1_10::XPath *> >::Entry>::Node", %"struct.xalanc_1_10::XalanList<xalanc_1_10::XalanMap<const xalanc_1_10::XPath *, bool, xalanc_1_10::XalanMapKeyTraits<const xalanc_1_10::XPath *> >::Entry>::Node"* %1, i32 0, i32 2, !dbg !5053
  %2 = load %"struct.xalanc_1_10::XalanList<xalanc_1_10::XalanMap<const xalanc_1_10::XPath *, bool, xalanc_1_10::XalanMapKeyTraits<const xalanc_1_10::XPath *> >::Entry>::Node"*, %"struct.xalanc_1_10::XalanList<xalanc_1_10::XalanMap<const xalanc_1_10::XPath *, bool, xalanc_1_10::XalanMapKeyTraits<const xalanc_1_10::XPath *> >::Entry>::Node"** %next, align 8, !dbg !5053
  %3 = load %"struct.xalanc_1_10::XalanList<xalanc_1_10::XalanMap<const xalanc_1_10::XPath *, bool, xalanc_1_10::XalanMapKeyTraits<const xalanc_1_10::XPath *> >::Entry>::Node"*, %"struct.xalanc_1_10::XalanList<xalanc_1_10::XalanMap<const xalanc_1_10::XPath *, bool, xalanc_1_10::XalanMapKeyTraits<const xalanc_1_10::XPath *> >::Entry>::Node"** %toInsertNode, align 8, !dbg !5054
  %prev = getelementptr inbounds %"struct.xalanc_1_10::XalanList<xalanc_1_10::XalanMap<const xalanc_1_10::XPath *, bool, xalanc_1_10::XalanMapKeyTraits<const xalanc_1_10::XPath *> >::Entry>::Node", %"struct.xalanc_1_10::XalanList<xalanc_1_10::XalanMap<const xalanc_1_10::XPath *, bool, xalanc_1_10::XalanMapKeyTraits<const xalanc_1_10::XPath *> >::Entry>::Node"* %3, i32 0, i32 1, !dbg !5055
  %4 = load %"struct.xalanc_1_10::XalanList<xalanc_1_10::XalanMap<const xalanc_1_10::XPath *, bool, xalanc_1_10::XalanMapKeyTraits<const xalanc_1_10::XPath *> >::Entry>::Node"*, %"struct.xalanc_1_10::XalanList<xalanc_1_10::XalanMap<const xalanc_1_10::XPath *, bool, xalanc_1_10::XalanMapKeyTraits<const xalanc_1_10::XPath *> >::Entry>::Node"** %prev, align 8, !dbg !5055
  %next4 = getelementptr inbounds %"struct.xalanc_1_10::XalanList<xalanc_1_10::XalanMap<const xalanc_1_10::XPath *, bool, xalanc_1_10::XalanMapKeyTraits<const xalanc_1_10::XPath *> >::Entry>::Node", %"struct.xalanc_1_10::XalanList<xalanc_1_10::XalanMap<const xalanc_1_10::XPath *, bool, xalanc_1_10::XalanMapKeyTraits<const xalanc_1_10::XPath *> >::Entry>::Node"* %4, i32 0, i32 2, !dbg !5056
  store %"struct.xalanc_1_10::XalanList<xalanc_1_10::XalanMap<const xalanc_1_10::XPath *, bool, xalanc_1_10::XalanMapKeyTraits<const xalanc_1_10::XPath *> >::Entry>::Node"* %2, %"struct.xalanc_1_10::XalanList<xalanc_1_10::XalanMap<const xalanc_1_10::XPath *, bool, xalanc_1_10::XalanMapKeyTraits<const xalanc_1_10::XPath *> >::Entry>::Node"** %next4, align 8, !dbg !5057
  %5 = load %"struct.xalanc_1_10::XalanList<xalanc_1_10::XalanMap<const xalanc_1_10::XPath *, bool, xalanc_1_10::XalanMapKeyTraits<const xalanc_1_10::XPath *> >::Entry>::Node"*, %"struct.xalanc_1_10::XalanList<xalanc_1_10::XalanMap<const xalanc_1_10::XPath *, bool, xalanc_1_10::XalanMapKeyTraits<const xalanc_1_10::XPath *> >::Entry>::Node"** %toInsertNode, align 8, !dbg !5058
  %prev5 = getelementptr inbounds %"struct.xalanc_1_10::XalanList<xalanc_1_10::XalanMap<const xalanc_1_10::XPath *, bool, xalanc_1_10::XalanMapKeyTraits<const xalanc_1_10::XPath *> >::Entry>::Node", %"struct.xalanc_1_10::XalanList<xalanc_1_10::XalanMap<const xalanc_1_10::XPath *, bool, xalanc_1_10::XalanMapKeyTraits<const xalanc_1_10::XPath *> >::Entry>::Node"* %5, i32 0, i32 1, !dbg !5059
  %6 = load %"struct.xalanc_1_10::XalanList<xalanc_1_10::XalanMap<const xalanc_1_10::XPath *, bool, xalanc_1_10::XalanMapKeyTraits<const xalanc_1_10::XPath *> >::Entry>::Node"*, %"struct.xalanc_1_10::XalanList<xalanc_1_10::XalanMap<const xalanc_1_10::XPath *, bool, xalanc_1_10::XalanMapKeyTraits<const xalanc_1_10::XPath *> >::Entry>::Node"** %prev5, align 8, !dbg !5059
  %7 = load %"struct.xalanc_1_10::XalanList<xalanc_1_10::XalanMap<const xalanc_1_10::XPath *, bool, xalanc_1_10::XalanMapKeyTraits<const xalanc_1_10::XPath *> >::Entry>::Node"*, %"struct.xalanc_1_10::XalanList<xalanc_1_10::XalanMap<const xalanc_1_10::XPath *, bool, xalanc_1_10::XalanMapKeyTraits<const xalanc_1_10::XPath *> >::Entry>::Node"** %toInsertNode, align 8, !dbg !5060
  %next6 = getelementptr inbounds %"struct.xalanc_1_10::XalanList<xalanc_1_10::XalanMap<const xalanc_1_10::XPath *, bool, xalanc_1_10::XalanMapKeyTraits<const xalanc_1_10::XPath *> >::Entry>::Node", %"struct.xalanc_1_10::XalanList<xalanc_1_10::XalanMap<const xalanc_1_10::XPath *, bool, xalanc_1_10::XalanMapKeyTraits<const xalanc_1_10::XPath *> >::Entry>::Node"* %7, i32 0, i32 2, !dbg !5061
  %8 = load %"struct.xalanc_1_10::XalanList<xalanc_1_10::XalanMap<const xalanc_1_10::XPath *, bool, xalanc_1_10::XalanMapKeyTraits<const xalanc_1_10::XPath *> >::Entry>::Node"*, %"struct.xalanc_1_10::XalanList<xalanc_1_10::XalanMap<const xalanc_1_10::XPath *, bool, xalanc_1_10::XalanMapKeyTraits<const xalanc_1_10::XPath *> >::Entry>::Node"** %next6, align 8, !dbg !5061
  %prev7 = getelementptr inbounds %"struct.xalanc_1_10::XalanList<xalanc_1_10::XalanMap<const xalanc_1_10::XPath *, bool, xalanc_1_10::XalanMapKeyTraits<const xalanc_1_10::XPath *> >::Entry>::Node", %"struct.xalanc_1_10::XalanList<xalanc_1_10::XalanMap<const xalanc_1_10::XPath *, bool, xalanc_1_10::XalanMapKeyTraits<const xalanc_1_10::XPath *> >::Entry>::Node"* %8, i32 0, i32 1, !dbg !5062
  store %"struct.xalanc_1_10::XalanList<xalanc_1_10::XalanMap<const xalanc_1_10::XPath *, bool, xalanc_1_10::XalanMapKeyTraits<const xalanc_1_10::XPath *> >::Entry>::Node"* %6, %"struct.xalanc_1_10::XalanList<xalanc_1_10::XalanMap<const xalanc_1_10::XPath *, bool, xalanc_1_10::XalanMapKeyTraits<const xalanc_1_10::XPath *> >::Entry>::Node"** %prev7, align 8, !dbg !5063
  %9 = load %"struct.xalanc_1_10::XalanList<xalanc_1_10::XalanMap<const xalanc_1_10::XPath *, bool, xalanc_1_10::XalanMapKeyTraits<const xalanc_1_10::XPath *> >::Entry>::Node"*, %"struct.xalanc_1_10::XalanList<xalanc_1_10::XalanMap<const xalanc_1_10::XPath *, bool, xalanc_1_10::XalanMapKeyTraits<const xalanc_1_10::XPath *> >::Entry>::Node"** %posNode, align 8, !dbg !5064
  %prev8 = getelementptr inbounds %"struct.xalanc_1_10::XalanList<xalanc_1_10::XalanMap<const xalanc_1_10::XPath *, bool, xalanc_1_10::XalanMapKeyTraits<const xalanc_1_10::XPath *> >::Entry>::Node", %"struct.xalanc_1_10::XalanList<xalanc_1_10::XalanMap<const xalanc_1_10::XPath *, bool, xalanc_1_10::XalanMapKeyTraits<const xalanc_1_10::XPath *> >::Entry>::Node"* %9, i32 0, i32 1, !dbg !5065
  %10 = load %"struct.xalanc_1_10::XalanList<xalanc_1_10::XalanMap<const xalanc_1_10::XPath *, bool, xalanc_1_10::XalanMapKeyTraits<const xalanc_1_10::XPath *> >::Entry>::Node"*, %"struct.xalanc_1_10::XalanList<xalanc_1_10::XalanMap<const xalanc_1_10::XPath *, bool, xalanc_1_10::XalanMapKeyTraits<const xalanc_1_10::XPath *> >::Entry>::Node"** %prev8, align 8, !dbg !5065
  %11 = load %"struct.xalanc_1_10::XalanList<xalanc_1_10::XalanMap<const xalanc_1_10::XPath *, bool, xalanc_1_10::XalanMapKeyTraits<const xalanc_1_10::XPath *> >::Entry>::Node"*, %"struct.xalanc_1_10::XalanList<xalanc_1_10::XalanMap<const xalanc_1_10::XPath *, bool, xalanc_1_10::XalanMapKeyTraits<const xalanc_1_10::XPath *> >::Entry>::Node"** %toInsertNode, align 8, !dbg !5066
  %prev9 = getelementptr inbounds %"struct.xalanc_1_10::XalanList<xalanc_1_10::XalanMap<const xalanc_1_10::XPath *, bool, xalanc_1_10::XalanMapKeyTraits<const xalanc_1_10::XPath *> >::Entry>::Node", %"struct.xalanc_1_10::XalanList<xalanc_1_10::XalanMap<const xalanc_1_10::XPath *, bool, xalanc_1_10::XalanMapKeyTraits<const xalanc_1_10::XPath *> >::Entry>::Node"* %11, i32 0, i32 1, !dbg !5067
  store %"struct.xalanc_1_10::XalanList<xalanc_1_10::XalanMap<const xalanc_1_10::XPath *, bool, xalanc_1_10::XalanMapKeyTraits<const xalanc_1_10::XPath *> >::Entry>::Node"* %10, %"struct.xalanc_1_10::XalanList<xalanc_1_10::XalanMap<const xalanc_1_10::XPath *, bool, xalanc_1_10::XalanMapKeyTraits<const xalanc_1_10::XPath *> >::Entry>::Node"** %prev9, align 8, !dbg !5068
  %12 = load %"struct.xalanc_1_10::XalanList<xalanc_1_10::XalanMap<const xalanc_1_10::XPath *, bool, xalanc_1_10::XalanMapKeyTraits<const xalanc_1_10::XPath *> >::Entry>::Node"*, %"struct.xalanc_1_10::XalanList<xalanc_1_10::XalanMap<const xalanc_1_10::XPath *, bool, xalanc_1_10::XalanMapKeyTraits<const xalanc_1_10::XPath *> >::Entry>::Node"** %posNode, align 8, !dbg !5069
  %13 = load %"struct.xalanc_1_10::XalanList<xalanc_1_10::XalanMap<const xalanc_1_10::XPath *, bool, xalanc_1_10::XalanMapKeyTraits<const xalanc_1_10::XPath *> >::Entry>::Node"*, %"struct.xalanc_1_10::XalanList<xalanc_1_10::XalanMap<const xalanc_1_10::XPath *, bool, xalanc_1_10::XalanMapKeyTraits<const xalanc_1_10::XPath *> >::Entry>::Node"** %toInsertNode, align 8, !dbg !5070
  %next10 = getelementptr inbounds %"struct.xalanc_1_10::XalanList<xalanc_1_10::XalanMap<const xalanc_1_10::XPath *, bool, xalanc_1_10::XalanMapKeyTraits<const xalanc_1_10::XPath *> >::Entry>::Node", %"struct.xalanc_1_10::XalanList<xalanc_1_10::XalanMap<const xalanc_1_10::XPath *, bool, xalanc_1_10::XalanMapKeyTraits<const xalanc_1_10::XPath *> >::Entry>::Node"* %13, i32 0, i32 2, !dbg !5071
  store %"struct.xalanc_1_10::XalanList<xalanc_1_10::XalanMap<const xalanc_1_10::XPath *, bool, xalanc_1_10::XalanMapKeyTraits<const xalanc_1_10::XPath *> >::Entry>::Node"* %12, %"struct.xalanc_1_10::XalanList<xalanc_1_10::XalanMap<const xalanc_1_10::XPath *, bool, xalanc_1_10::XalanMapKeyTraits<const xalanc_1_10::XPath *> >::Entry>::Node"** %next10, align 8, !dbg !5072
  %14 = load %"struct.xalanc_1_10::XalanList<xalanc_1_10::XalanMap<const xalanc_1_10::XPath *, bool, xalanc_1_10::XalanMapKeyTraits<const xalanc_1_10::XPath *> >::Entry>::Node"*, %"struct.xalanc_1_10::XalanList<xalanc_1_10::XalanMap<const xalanc_1_10::XPath *, bool, xalanc_1_10::XalanMapKeyTraits<const xalanc_1_10::XPath *> >::Entry>::Node"** %toInsertNode, align 8, !dbg !5073
  %15 = load %"struct.xalanc_1_10::XalanList<xalanc_1_10::XalanMap<const xalanc_1_10::XPath *, bool, xalanc_1_10::XalanMapKeyTraits<const xalanc_1_10::XPath *> >::Entry>::Node"*, %"struct.xalanc_1_10::XalanList<xalanc_1_10::XalanMap<const xalanc_1_10::XPath *, bool, xalanc_1_10::XalanMapKeyTraits<const xalanc_1_10::XPath *> >::Entry>::Node"** %posNode, align 8, !dbg !5074
  %prev11 = getelementptr inbounds %"struct.xalanc_1_10::XalanList<xalanc_1_10::XalanMap<const xalanc_1_10::XPath *, bool, xalanc_1_10::XalanMapKeyTraits<const xalanc_1_10::XPath *> >::Entry>::Node", %"struct.xalanc_1_10::XalanList<xalanc_1_10::XalanMap<const xalanc_1_10::XPath *, bool, xalanc_1_10::XalanMapKeyTraits<const xalanc_1_10::XPath *> >::Entry>::Node"* %15, i32 0, i32 1, !dbg !5075
  %16 = load %"struct.xalanc_1_10::XalanList<xalanc_1_10::XalanMap<const xalanc_1_10::XPath *, bool, xalanc_1_10::XalanMapKeyTraits<const xalanc_1_10::XPath *> >::Entry>::Node"*, %"struct.xalanc_1_10::XalanList<xalanc_1_10::XalanMap<const xalanc_1_10::XPath *, bool, xalanc_1_10::XalanMapKeyTraits<const xalanc_1_10::XPath *> >::Entry>::Node"** %prev11, align 8, !dbg !5075
  %next12 = getelementptr inbounds %"struct.xalanc_1_10::XalanList<xalanc_1_10::XalanMap<const xalanc_1_10::XPath *, bool, xalanc_1_10::XalanMapKeyTraits<const xalanc_1_10::XPath *> >::Entry>::Node", %"struct.xalanc_1_10::XalanList<xalanc_1_10::XalanMap<const xalanc_1_10::XPath *, bool, xalanc_1_10::XalanMapKeyTraits<const xalanc_1_10::XPath *> >::Entry>::Node"* %16, i32 0, i32 2, !dbg !5076
  store %"struct.xalanc_1_10::XalanList<xalanc_1_10::XalanMap<const xalanc_1_10::XPath *, bool, xalanc_1_10::XalanMapKeyTraits<const xalanc_1_10::XPath *> >::Entry>::Node"* %14, %"struct.xalanc_1_10::XalanList<xalanc_1_10::XalanMap<const xalanc_1_10::XPath *, bool, xalanc_1_10::XalanMapKeyTraits<const xalanc_1_10::XPath *> >::Entry>::Node"** %next12, align 8, !dbg !5077
  %17 = load %"struct.xalanc_1_10::XalanList<xalanc_1_10::XalanMap<const xalanc_1_10::XPath *, bool, xalanc_1_10::XalanMapKeyTraits<const xalanc_1_10::XPath *> >::Entry>::Node"*, %"struct.xalanc_1_10::XalanList<xalanc_1_10::XalanMap<const xalanc_1_10::XPath *, bool, xalanc_1_10::XalanMapKeyTraits<const xalanc_1_10::XPath *> >::Entry>::Node"** %toInsertNode, align 8, !dbg !5078
  %18 = load %"struct.xalanc_1_10::XalanList<xalanc_1_10::XalanMap<const xalanc_1_10::XPath *, bool, xalanc_1_10::XalanMapKeyTraits<const xalanc_1_10::XPath *> >::Entry>::Node"*, %"struct.xalanc_1_10::XalanList<xalanc_1_10::XalanMap<const xalanc_1_10::XPath *, bool, xalanc_1_10::XalanMapKeyTraits<const xalanc_1_10::XPath *> >::Entry>::Node"** %posNode, align 8, !dbg !5079
  %prev13 = getelementptr inbounds %"struct.xalanc_1_10::XalanList<xalanc_1_10::XalanMap<const xalanc_1_10::XPath *, bool, xalanc_1_10::XalanMapKeyTraits<const xalanc_1_10::XPath *> >::Entry>::Node", %"struct.xalanc_1_10::XalanList<xalanc_1_10::XalanMap<const xalanc_1_10::XPath *, bool, xalanc_1_10::XalanMapKeyTraits<const xalanc_1_10::XPath *> >::Entry>::Node"* %18, i32 0, i32 1, !dbg !5080
  store %"struct.xalanc_1_10::XalanList<xalanc_1_10::XalanMap<const xalanc_1_10::XPath *, bool, xalanc_1_10::XalanMapKeyTraits<const xalanc_1_10::XPath *> >::Entry>::Node"* %17, %"struct.xalanc_1_10::XalanList<xalanc_1_10::XalanMap<const xalanc_1_10::XPath *, bool, xalanc_1_10::XalanMapKeyTraits<const xalanc_1_10::XPath *> >::Entry>::Node"** %prev13, align 8, !dbg !5081
  br label %if.end, !dbg !5082

if.end:                                           ; preds = %if.then, %entry
  ret void, !dbg !5083
}

; Function Attrs: noinline nounwind uwtable
define linkonce_odr dso_local void @_ZN11xalanc_1_1021XalanListIteratorBaseINS_23XalanListIteratorTraitsINS_8XalanMapIPKNS_5XPathEbNS_17XalanMapKeyTraitsIS5_EEE5EntryEEENS_9XalanListIS9_E4NodeEEC2ERKSE_(%"struct.xalanc_1_10::XalanListIteratorBase"* %this, %"struct.xalanc_1_10::XalanListIteratorBase"* dereferenceable(8) %theRhs) unnamed_addr #4 comdat align 2 !dbg !5084 {
entry:
  %this.addr = alloca %"struct.xalanc_1_10::XalanListIteratorBase"*, align 8
  %theRhs.addr = alloca %"struct.xalanc_1_10::XalanListIteratorBase"*, align 8
  store %"struct.xalanc_1_10::XalanListIteratorBase"* %this, %"struct.xalanc_1_10::XalanListIteratorBase"** %this.addr, align 8
  call void @llvm.dbg.declare(metadata %"struct.xalanc_1_10::XalanListIteratorBase"** %this.addr, metadata !5085, metadata !DIExpression()), !dbg !5086
  store %"struct.xalanc_1_10::XalanListIteratorBase"* %theRhs, %"struct.xalanc_1_10::XalanListIteratorBase"** %theRhs.addr, align 8
  call void @llvm.dbg.declare(metadata %"struct.xalanc_1_10::XalanListIteratorBase"** %theRhs.addr, metadata !5087, metadata !DIExpression()), !dbg !5088
  %this1 = load %"struct.xalanc_1_10::XalanListIteratorBase"*, %"struct.xalanc_1_10::XalanListIteratorBase"** %this.addr, align 8
  %currentNode = getelementptr inbounds %"struct.xalanc_1_10::XalanListIteratorBase", %"struct.xalanc_1_10::XalanListIteratorBase"* %this1, i32 0, i32 0, !dbg !5089
  %0 = load %"struct.xalanc_1_10::XalanListIteratorBase"*, %"struct.xalanc_1_10::XalanListIteratorBase"** %theRhs.addr, align 8, !dbg !5090
  %currentNode2 = getelementptr inbounds %"struct.xalanc_1_10::XalanListIteratorBase", %"struct.xalanc_1_10::XalanListIteratorBase"* %0, i32 0, i32 0, !dbg !5091
  %1 = load %"struct.xalanc_1_10::XalanList<xalanc_1_10::XalanMap<const xalanc_1_10::XPath *, bool, xalanc_1_10::XalanMapKeyTraits<const xalanc_1_10::XPath *> >::Entry>::Node"*, %"struct.xalanc_1_10::XalanList<xalanc_1_10::XalanMap<const xalanc_1_10::XPath *, bool, xalanc_1_10::XalanMapKeyTraits<const xalanc_1_10::XPath *> >::Entry>::Node"** %currentNode2, align 8, !dbg !5091
  store %"struct.xalanc_1_10::XalanList<xalanc_1_10::XalanMap<const xalanc_1_10::XPath *, bool, xalanc_1_10::XalanMapKeyTraits<const xalanc_1_10::XPath *> >::Entry>::Node"* %1, %"struct.xalanc_1_10::XalanList<xalanc_1_10::XalanMap<const xalanc_1_10::XPath *, bool, xalanc_1_10::XalanMapKeyTraits<const xalanc_1_10::XPath *> >::Entry>::Node"** %currentNode, align 8, !dbg !5089
  ret void, !dbg !5092
}

; Function Attrs: noinline nounwind uwtable
define linkonce_odr dso_local dereferenceable(32) %"struct.xalanc_1_10::XalanList<xalanc_1_10::XalanMap<const xalanc_1_10::XPath *, bool, xalanc_1_10::XalanMapKeyTraits<const xalanc_1_10::XPath *> >::Entry>::Node"* @_ZN11xalanc_1_1021XalanListIteratorBaseINS_23XalanListIteratorTraitsINS_8XalanMapIPKNS_5XPathEbNS_17XalanMapKeyTraitsIS5_EEE5EntryEEENS_9XalanListIS9_E4NodeEE4nodeEv(%"struct.xalanc_1_10::XalanListIteratorBase"* %this) #4 comdat align 2 !dbg !5093 {
entry:
  %this.addr = alloca %"struct.xalanc_1_10::XalanListIteratorBase"*, align 8
  store %"struct.xalanc_1_10::XalanListIteratorBase"* %this, %"struct.xalanc_1_10::XalanListIteratorBase"** %this.addr, align 8
  call void @llvm.dbg.declare(metadata %"struct.xalanc_1_10::XalanListIteratorBase"** %this.addr, metadata !5094, metadata !DIExpression()), !dbg !5095
  %this1 = load %"struct.xalanc_1_10::XalanListIteratorBase"*, %"struct.xalanc_1_10::XalanListIteratorBase"** %this.addr, align 8
  %currentNode = getelementptr inbounds %"struct.xalanc_1_10::XalanListIteratorBase", %"struct.xalanc_1_10::XalanListIteratorBase"* %this1, i32 0, i32 0, !dbg !5096
  %0 = load %"struct.xalanc_1_10::XalanList<xalanc_1_10::XalanMap<const xalanc_1_10::XPath *, bool, xalanc_1_10::XalanMapKeyTraits<const xalanc_1_10::XPath *> >::Entry>::Node"*, %"struct.xalanc_1_10::XalanList<xalanc_1_10::XalanMap<const xalanc_1_10::XPath *, bool, xalanc_1_10::XalanMapKeyTraits<const xalanc_1_10::XPath *> >::Entry>::Node"** %currentNode, align 8, !dbg !5096
  ret %"struct.xalanc_1_10::XalanList<xalanc_1_10::XalanMap<const xalanc_1_10::XPath *, bool, xalanc_1_10::XalanMapKeyTraits<const xalanc_1_10::XPath *> >::Entry>::Node"* %0, !dbg !5097
}

; Function Attrs: noinline uwtable
define linkonce_odr dso_local void @_ZN11xalanc_1_1016XalanMapIteratorINS_22XalanMapIteratorTraitsISt4pairIKPKNS_5XPathEbEEENS_21XalanListIteratorBaseINS_23XalanListIteratorTraitsINS_8XalanMapIS5_bNS_17XalanMapKeyTraitsIS5_EEE5EntryEEENS_9XalanListISF_E4NodeEEEEC2ERKSK_(%"struct.xalanc_1_10::XalanMapIterator.9"* %this, %"struct.xalanc_1_10::XalanListIteratorBase"* dereferenceable(8) %theRhs) unnamed_addr #0 comdat align 2 !dbg !5098 {
entry:
  %this.addr = alloca %"struct.xalanc_1_10::XalanMapIterator.9"*, align 8
  %theRhs.addr = alloca %"struct.xalanc_1_10::XalanListIteratorBase"*, align 8
  store %"struct.xalanc_1_10::XalanMapIterator.9"* %this, %"struct.xalanc_1_10::XalanMapIterator.9"** %this.addr, align 8
  call void @llvm.dbg.declare(metadata %"struct.xalanc_1_10::XalanMapIterator.9"** %this.addr, metadata !5099, metadata !DIExpression()), !dbg !5101
  store %"struct.xalanc_1_10::XalanListIteratorBase"* %theRhs, %"struct.xalanc_1_10::XalanListIteratorBase"** %theRhs.addr, align 8
  call void @llvm.dbg.declare(metadata %"struct.xalanc_1_10::XalanListIteratorBase"** %theRhs.addr, metadata !5102, metadata !DIExpression()), !dbg !5103
  %this1 = load %"struct.xalanc_1_10::XalanMapIterator.9"*, %"struct.xalanc_1_10::XalanMapIterator.9"** %this.addr, align 8
  %baseIterator = getelementptr inbounds %"struct.xalanc_1_10::XalanMapIterator.9", %"struct.xalanc_1_10::XalanMapIterator.9"* %this1, i32 0, i32 0, !dbg !5104
  %0 = load %"struct.xalanc_1_10::XalanListIteratorBase"*, %"struct.xalanc_1_10::XalanListIteratorBase"** %theRhs.addr, align 8, !dbg !5105
  call void @_ZN11xalanc_1_1021XalanListIteratorBaseINS_23XalanListIteratorTraitsINS_8XalanMapIPKNS_5XPathEbNS_17XalanMapKeyTraitsIS5_EEE5EntryEEENS_9XalanListIS9_E4NodeEEC2ERKSE_(%"struct.xalanc_1_10::XalanListIteratorBase"* %baseIterator, %"struct.xalanc_1_10::XalanListIteratorBase"* dereferenceable(8) %0), !dbg !5104
  ret void, !dbg !5106
}

; Function Attrs: noinline nounwind uwtable
define linkonce_odr dso_local void @_ZNK11xalanc_1_1011XalanVectorINS0_INS_21XalanListIteratorBaseINS_23XalanListIteratorTraitsINS_8XalanMapIPKNS_5XPathEbNS_17XalanMapKeyTraitsIS6_EEE5EntryEEENS_9XalanListISA_E4NodeEEENS_31MemoryManagedConstructionTraitsISF_EEEENS_32ConstructWithMemoryManagerTraitsISI_EEE10invariantsEv(%"class.xalanc_1_10::XalanVector.3"* %this) #4 comdat align 2 !dbg !5107 {
entry:
  %this.addr = alloca %"class.xalanc_1_10::XalanVector.3"*, align 8
  store %"class.xalanc_1_10::XalanVector.3"* %this, %"class.xalanc_1_10::XalanVector.3"** %this.addr, align 8
  call void @llvm.dbg.declare(metadata %"class.xalanc_1_10::XalanVector.3"** %this.addr, metadata !5108, metadata !DIExpression()), !dbg !5109
  %this1 = load %"class.xalanc_1_10::XalanVector.3"*, %"class.xalanc_1_10::XalanVector.3"** %this.addr, align 8
  ret void, !dbg !5110
}

; Function Attrs: noinline uwtable
define linkonce_odr dso_local dereferenceable(32) %"struct.xalanc_1_10::XalanList<xalanc_1_10::XalanMap<const xalanc_1_10::XPath *, bool, xalanc_1_10::XalanMapKeyTraits<const xalanc_1_10::XPath *> >::Entry>::Node"* @_ZN11xalanc_1_109XalanListINS_8XalanMapIPKNS_5XPathEbNS_17XalanMapKeyTraitsIS4_EEE5EntryEE11getListHeadEv(%"class.xalanc_1_10::XalanList"* %this) #0 comdat align 2 !dbg !5111 {
entry:
  %this.addr = alloca %"class.xalanc_1_10::XalanList"*, align 8
  store %"class.xalanc_1_10::XalanList"* %this, %"class.xalanc_1_10::XalanList"** %this.addr, align 8
  call void @llvm.dbg.declare(metadata %"class.xalanc_1_10::XalanList"** %this.addr, metadata !5112, metadata !DIExpression()), !dbg !5113
  %this1 = load %"class.xalanc_1_10::XalanList"*, %"class.xalanc_1_10::XalanList"** %this.addr, align 8
  %m_listHead = getelementptr inbounds %"class.xalanc_1_10::XalanList", %"class.xalanc_1_10::XalanList"* %this1, i32 0, i32 1, !dbg !5114
  %0 = load %"struct.xalanc_1_10::XalanList<xalanc_1_10::XalanMap<const xalanc_1_10::XPath *, bool, xalanc_1_10::XalanMapKeyTraits<const xalanc_1_10::XPath *> >::Entry>::Node"*, %"struct.xalanc_1_10::XalanList<xalanc_1_10::XalanMap<const xalanc_1_10::XPath *, bool, xalanc_1_10::XalanMapKeyTraits<const xalanc_1_10::XPath *> >::Entry>::Node"** %m_listHead, align 8, !dbg !5114
  %cmp = icmp eq %"struct.xalanc_1_10::XalanList<xalanc_1_10::XalanMap<const xalanc_1_10::XPath *, bool, xalanc_1_10::XalanMapKeyTraits<const xalanc_1_10::XPath *> >::Entry>::Node"* null, %0, !dbg !5116
  br i1 %cmp, label %if.then, label %if.end, !dbg !5117

if.then:                                          ; preds = %entry
  %call = call %"struct.xalanc_1_10::XalanList<xalanc_1_10::XalanMap<const xalanc_1_10::XPath *, bool, xalanc_1_10::XalanMapKeyTraits<const xalanc_1_10::XPath *> >::Entry>::Node"* @_ZN11xalanc_1_109XalanListINS_8XalanMapIPKNS_5XPathEbNS_17XalanMapKeyTraitsIS4_EEE5EntryEE8allocateEm(%"class.xalanc_1_10::XalanList"* %this1, i64 1), !dbg !5118
  %m_listHead2 = getelementptr inbounds %"class.xalanc_1_10::XalanList", %"class.xalanc_1_10::XalanList"* %this1, i32 0, i32 1, !dbg !5120
  store %"struct.xalanc_1_10::XalanList<xalanc_1_10::XalanMap<const xalanc_1_10::XPath *, bool, xalanc_1_10::XalanMapKeyTraits<const xalanc_1_10::XPath *> >::Entry>::Node"* %call, %"struct.xalanc_1_10::XalanList<xalanc_1_10::XalanMap<const xalanc_1_10::XPath *, bool, xalanc_1_10::XalanMapKeyTraits<const xalanc_1_10::XPath *> >::Entry>::Node"** %m_listHead2, align 8, !dbg !5121
  %m_listHead3 = getelementptr inbounds %"class.xalanc_1_10::XalanList", %"class.xalanc_1_10::XalanList"* %this1, i32 0, i32 1, !dbg !5122
  %1 = load %"struct.xalanc_1_10::XalanList<xalanc_1_10::XalanMap<const xalanc_1_10::XPath *, bool, xalanc_1_10::XalanMapKeyTraits<const xalanc_1_10::XPath *> >::Entry>::Node"*, %"struct.xalanc_1_10::XalanList<xalanc_1_10::XalanMap<const xalanc_1_10::XPath *, bool, xalanc_1_10::XalanMapKeyTraits<const xalanc_1_10::XPath *> >::Entry>::Node"** %m_listHead3, align 8, !dbg !5122
  %m_listHead4 = getelementptr inbounds %"class.xalanc_1_10::XalanList", %"class.xalanc_1_10::XalanList"* %this1, i32 0, i32 1, !dbg !5123
  %2 = load %"struct.xalanc_1_10::XalanList<xalanc_1_10::XalanMap<const xalanc_1_10::XPath *, bool, xalanc_1_10::XalanMapKeyTraits<const xalanc_1_10::XPath *> >::Entry>::Node"*, %"struct.xalanc_1_10::XalanList<xalanc_1_10::XalanMap<const xalanc_1_10::XPath *, bool, xalanc_1_10::XalanMapKeyTraits<const xalanc_1_10::XPath *> >::Entry>::Node"** %m_listHead4, align 8, !dbg !5123
  %next = getelementptr inbounds %"struct.xalanc_1_10::XalanList<xalanc_1_10::XalanMap<const xalanc_1_10::XPath *, bool, xalanc_1_10::XalanMapKeyTraits<const xalanc_1_10::XPath *> >::Entry>::Node", %"struct.xalanc_1_10::XalanList<xalanc_1_10::XalanMap<const xalanc_1_10::XPath *, bool, xalanc_1_10::XalanMapKeyTraits<const xalanc_1_10::XPath *> >::Entry>::Node"* %2, i32 0, i32 2, !dbg !5124
  store %"struct.xalanc_1_10::XalanList<xalanc_1_10::XalanMap<const xalanc_1_10::XPath *, bool, xalanc_1_10::XalanMapKeyTraits<const xalanc_1_10::XPath *> >::Entry>::Node"* %1, %"struct.xalanc_1_10::XalanList<xalanc_1_10::XalanMap<const xalanc_1_10::XPath *, bool, xalanc_1_10::XalanMapKeyTraits<const xalanc_1_10::XPath *> >::Entry>::Node"** %next, align 8, !dbg !5125
  %m_listHead5 = getelementptr inbounds %"class.xalanc_1_10::XalanList", %"class.xalanc_1_10::XalanList"* %this1, i32 0, i32 1, !dbg !5126
  %3 = load %"struct.xalanc_1_10::XalanList<xalanc_1_10::XalanMap<const xalanc_1_10::XPath *, bool, xalanc_1_10::XalanMapKeyTraits<const xalanc_1_10::XPath *> >::Entry>::Node"*, %"struct.xalanc_1_10::XalanList<xalanc_1_10::XalanMap<const xalanc_1_10::XPath *, bool, xalanc_1_10::XalanMapKeyTraits<const xalanc_1_10::XPath *> >::Entry>::Node"** %m_listHead5, align 8, !dbg !5126
  %m_listHead6 = getelementptr inbounds %"class.xalanc_1_10::XalanList", %"class.xalanc_1_10::XalanList"* %this1, i32 0, i32 1, !dbg !5127
  %4 = load %"struct.xalanc_1_10::XalanList<xalanc_1_10::XalanMap<const xalanc_1_10::XPath *, bool, xalanc_1_10::XalanMapKeyTraits<const xalanc_1_10::XPath *> >::Entry>::Node"*, %"struct.xalanc_1_10::XalanList<xalanc_1_10::XalanMap<const xalanc_1_10::XPath *, bool, xalanc_1_10::XalanMapKeyTraits<const xalanc_1_10::XPath *> >::Entry>::Node"** %m_listHead6, align 8, !dbg !5127
  %prev = getelementptr inbounds %"struct.xalanc_1_10::XalanList<xalanc_1_10::XalanMap<const xalanc_1_10::XPath *, bool, xalanc_1_10::XalanMapKeyTraits<const xalanc_1_10::XPath *> >::Entry>::Node", %"struct.xalanc_1_10::XalanList<xalanc_1_10::XalanMap<const xalanc_1_10::XPath *, bool, xalanc_1_10::XalanMapKeyTraits<const xalanc_1_10::XPath *> >::Entry>::Node"* %4, i32 0, i32 1, !dbg !5128
  store %"struct.xalanc_1_10::XalanList<xalanc_1_10::XalanMap<const xalanc_1_10::XPath *, bool, xalanc_1_10::XalanMapKeyTraits<const xalanc_1_10::XPath *> >::Entry>::Node"* %3, %"struct.xalanc_1_10::XalanList<xalanc_1_10::XalanMap<const xalanc_1_10::XPath *, bool, xalanc_1_10::XalanMapKeyTraits<const xalanc_1_10::XPath *> >::Entry>::Node"** %prev, align 8, !dbg !5129
  br label %if.end, !dbg !5130

if.end:                                           ; preds = %if.then, %entry
  %m_listHead7 = getelementptr inbounds %"class.xalanc_1_10::XalanList", %"class.xalanc_1_10::XalanList"* %this1, i32 0, i32 1, !dbg !5131
  %5 = load %"struct.xalanc_1_10::XalanList<xalanc_1_10::XalanMap<const xalanc_1_10::XPath *, bool, xalanc_1_10::XalanMapKeyTraits<const xalanc_1_10::XPath *> >::Entry>::Node"*, %"struct.xalanc_1_10::XalanList<xalanc_1_10::XalanMap<const xalanc_1_10::XPath *, bool, xalanc_1_10::XalanMapKeyTraits<const xalanc_1_10::XPath *> >::Entry>::Node"** %m_listHead7, align 8, !dbg !5131
  ret %"struct.xalanc_1_10::XalanList<xalanc_1_10::XalanMap<const xalanc_1_10::XPath *, bool, xalanc_1_10::XalanMapKeyTraits<const xalanc_1_10::XPath *> >::Entry>::Node"* %5, !dbg !5132
}

; Function Attrs: noinline nounwind uwtable
define linkonce_odr dso_local void @_ZN11xalanc_1_1021XalanListIteratorBaseINS_23XalanListIteratorTraitsINS_8XalanMapIPKNS_5XPathEbNS_17XalanMapKeyTraitsIS5_EEE5EntryEEENS_9XalanListIS9_E4NodeEEC2ERSD_(%"struct.xalanc_1_10::XalanListIteratorBase"* %this, %"struct.xalanc_1_10::XalanList<xalanc_1_10::XalanMap<const xalanc_1_10::XPath *, bool, xalanc_1_10::XalanMapKeyTraits<const xalanc_1_10::XPath *> >::Entry>::Node"* dereferenceable(32) %node) unnamed_addr #4 comdat align 2 !dbg !5133 {
entry:
  %this.addr = alloca %"struct.xalanc_1_10::XalanListIteratorBase"*, align 8
  %node.addr = alloca %"struct.xalanc_1_10::XalanList<xalanc_1_10::XalanMap<const xalanc_1_10::XPath *, bool, xalanc_1_10::XalanMapKeyTraits<const xalanc_1_10::XPath *> >::Entry>::Node"*, align 8
  store %"struct.xalanc_1_10::XalanListIteratorBase"* %this, %"struct.xalanc_1_10::XalanListIteratorBase"** %this.addr, align 8
  call void @llvm.dbg.declare(metadata %"struct.xalanc_1_10::XalanListIteratorBase"** %this.addr, metadata !5134, metadata !DIExpression()), !dbg !5135
  store %"struct.xalanc_1_10::XalanList<xalanc_1_10::XalanMap<const xalanc_1_10::XPath *, bool, xalanc_1_10::XalanMapKeyTraits<const xalanc_1_10::XPath *> >::Entry>::Node"* %node, %"struct.xalanc_1_10::XalanList<xalanc_1_10::XalanMap<const xalanc_1_10::XPath *, bool, xalanc_1_10::XalanMapKeyTraits<const xalanc_1_10::XPath *> >::Entry>::Node"** %node.addr, align 8
  call void @llvm.dbg.declare(metadata %"struct.xalanc_1_10::XalanList<xalanc_1_10::XalanMap<const xalanc_1_10::XPath *, bool, xalanc_1_10::XalanMapKeyTraits<const xalanc_1_10::XPath *> >::Entry>::Node"** %node.addr, metadata !5136, metadata !DIExpression()), !dbg !5137
  %this1 = load %"struct.xalanc_1_10::XalanListIteratorBase"*, %"struct.xalanc_1_10::XalanListIteratorBase"** %this.addr, align 8
  %currentNode = getelementptr inbounds %"struct.xalanc_1_10::XalanListIteratorBase", %"struct.xalanc_1_10::XalanListIteratorBase"* %this1, i32 0, i32 0, !dbg !5138
  %0 = load %"struct.xalanc_1_10::XalanList<xalanc_1_10::XalanMap<const xalanc_1_10::XPath *, bool, xalanc_1_10::XalanMapKeyTraits<const xalanc_1_10::XPath *> >::Entry>::Node"*, %"struct.xalanc_1_10::XalanList<xalanc_1_10::XalanMap<const xalanc_1_10::XPath *, bool, xalanc_1_10::XalanMapKeyTraits<const xalanc_1_10::XPath *> >::Entry>::Node"** %node.addr, align 8, !dbg !5139
  store %"struct.xalanc_1_10::XalanList<xalanc_1_10::XalanMap<const xalanc_1_10::XPath *, bool, xalanc_1_10::XalanMapKeyTraits<const xalanc_1_10::XPath *> >::Entry>::Node"* %0, %"struct.xalanc_1_10::XalanList<xalanc_1_10::XalanMap<const xalanc_1_10::XPath *, bool, xalanc_1_10::XalanMapKeyTraits<const xalanc_1_10::XPath *> >::Entry>::Node"** %currentNode, align 8, !dbg !5138
  ret void, !dbg !5140
}

; Function Attrs: noinline uwtable
define linkonce_odr dso_local %"struct.xalanc_1_10::XalanList<xalanc_1_10::XalanMap<const xalanc_1_10::XPath *, bool, xalanc_1_10::XalanMapKeyTraits<const xalanc_1_10::XPath *> >::Entry>::Node"* @_ZN11xalanc_1_109XalanListINS_8XalanMapIPKNS_5XPathEbNS_17XalanMapKeyTraitsIS4_EEE5EntryEE8allocateEm(%"class.xalanc_1_10::XalanList"* %this, i64 %size) #0 comdat align 2 !dbg !5141 {
entry:
  %this.addr = alloca %"class.xalanc_1_10::XalanList"*, align 8
  %size.addr = alloca i64, align 8
  %theBytesNeeded = alloca i64, align 8
  %pointer = alloca i8*, align 8
  store %"class.xalanc_1_10::XalanList"* %this, %"class.xalanc_1_10::XalanList"** %this.addr, align 8
  call void @llvm.dbg.declare(metadata %"class.xalanc_1_10::XalanList"** %this.addr, metadata !5142, metadata !DIExpression()), !dbg !5143
  store i64 %size, i64* %size.addr, align 8
  call void @llvm.dbg.declare(metadata i64* %size.addr, metadata !5144, metadata !DIExpression()), !dbg !5145
  %this1 = load %"class.xalanc_1_10::XalanList"*, %"class.xalanc_1_10::XalanList"** %this.addr, align 8
  call void @llvm.dbg.declare(metadata i64* %theBytesNeeded, metadata !5146, metadata !DIExpression()), !dbg !5148
  %0 = load i64, i64* %size.addr, align 8, !dbg !5149
  %mul = mul i64 %0, 32, !dbg !5150
  store i64 %mul, i64* %theBytesNeeded, align 8, !dbg !5148
  call void @llvm.dbg.declare(metadata i8** %pointer, metadata !5151, metadata !DIExpression()), !dbg !5152
  %m_memoryManager = getelementptr inbounds %"class.xalanc_1_10::XalanList", %"class.xalanc_1_10::XalanList"* %this1, i32 0, i32 0, !dbg !5153
  %1 = load %"class.xercesc_2_7::MemoryManager"*, %"class.xercesc_2_7::MemoryManager"** %m_memoryManager, align 8, !dbg !5153
  %2 = load i64, i64* %theBytesNeeded, align 8, !dbg !5154
  %3 = bitcast %"class.xercesc_2_7::MemoryManager"* %1 to i8* (%"class.xercesc_2_7::MemoryManager"*, i64)***, !dbg !5155
  %vtable = load i8* (%"class.xercesc_2_7::MemoryManager"*, i64)**, i8* (%"class.xercesc_2_7::MemoryManager"*, i64)*** %3, align 8, !dbg !5155
  %vfn = getelementptr inbounds i8* (%"class.xercesc_2_7::MemoryManager"*, i64)*, i8* (%"class.xercesc_2_7::MemoryManager"*, i64)** %vtable, i64 2, !dbg !5155
  %4 = load i8* (%"class.xercesc_2_7::MemoryManager"*, i64)*, i8* (%"class.xercesc_2_7::MemoryManager"*, i64)** %vfn, align 8, !dbg !5155
  %call = call i8* %4(%"class.xercesc_2_7::MemoryManager"* %1, i64 %2), !dbg !5155
  store i8* %call, i8** %pointer, align 8, !dbg !5152
  %5 = load i8*, i8** %pointer, align 8, !dbg !5156
  %6 = bitcast i8* %5 to %"struct.xalanc_1_10::XalanList<xalanc_1_10::XalanMap<const xalanc_1_10::XPath *, bool, xalanc_1_10::XalanMapKeyTraits<const xalanc_1_10::XPath *> >::Entry>::Node"*, !dbg !5157
  ret %"struct.xalanc_1_10::XalanList<xalanc_1_10::XalanMap<const xalanc_1_10::XPath *, bool, xalanc_1_10::XalanMapKeyTraits<const xalanc_1_10::XPath *> >::Entry>::Node"* %6, !dbg !5158
}

; Function Attrs: noinline nounwind uwtable
define linkonce_odr dso_local zeroext i1 @_ZNK11xalanc_1_1021XalanListIteratorBaseINS_23XalanListIteratorTraitsINS_8XalanMapIPKNS_5XPathEbNS_17XalanMapKeyTraitsIS5_EEE5EntryEEENS_9XalanListIS9_E4NodeEEeqERKSE_(%"struct.xalanc_1_10::XalanListIteratorBase"* %this, %"struct.xalanc_1_10::XalanListIteratorBase"* dereferenceable(8) %theRhs) #4 comdat align 2 !dbg !5159 {
entry:
  %this.addr = alloca %"struct.xalanc_1_10::XalanListIteratorBase"*, align 8
  %theRhs.addr = alloca %"struct.xalanc_1_10::XalanListIteratorBase"*, align 8
  store %"struct.xalanc_1_10::XalanListIteratorBase"* %this, %"struct.xalanc_1_10::XalanListIteratorBase"** %this.addr, align 8
  call void @llvm.dbg.declare(metadata %"struct.xalanc_1_10::XalanListIteratorBase"** %this.addr, metadata !5160, metadata !DIExpression()), !dbg !5161
  store %"struct.xalanc_1_10::XalanListIteratorBase"* %theRhs, %"struct.xalanc_1_10::XalanListIteratorBase"** %theRhs.addr, align 8
  call void @llvm.dbg.declare(metadata %"struct.xalanc_1_10::XalanListIteratorBase"** %theRhs.addr, metadata !5162, metadata !DIExpression()), !dbg !5163
  %this1 = load %"struct.xalanc_1_10::XalanListIteratorBase"*, %"struct.xalanc_1_10::XalanListIteratorBase"** %this.addr, align 8
  %currentNode = getelementptr inbounds %"struct.xalanc_1_10::XalanListIteratorBase", %"struct.xalanc_1_10::XalanListIteratorBase"* %this1, i32 0, i32 0, !dbg !5164
  %0 = load %"struct.xalanc_1_10::XalanList<xalanc_1_10::XalanMap<const xalanc_1_10::XPath *, bool, xalanc_1_10::XalanMapKeyTraits<const xalanc_1_10::XPath *> >::Entry>::Node"*, %"struct.xalanc_1_10::XalanList<xalanc_1_10::XalanMap<const xalanc_1_10::XPath *, bool, xalanc_1_10::XalanMapKeyTraits<const xalanc_1_10::XPath *> >::Entry>::Node"** %currentNode, align 8, !dbg !5164
  %1 = load %"struct.xalanc_1_10::XalanListIteratorBase"*, %"struct.xalanc_1_10::XalanListIteratorBase"** %theRhs.addr, align 8, !dbg !5165
  %currentNode2 = getelementptr inbounds %"struct.xalanc_1_10::XalanListIteratorBase", %"struct.xalanc_1_10::XalanListIteratorBase"* %1, i32 0, i32 0, !dbg !5166
  %2 = load %"struct.xalanc_1_10::XalanList<xalanc_1_10::XalanMap<const xalanc_1_10::XPath *, bool, xalanc_1_10::XalanMapKeyTraits<const xalanc_1_10::XPath *> >::Entry>::Node"*, %"struct.xalanc_1_10::XalanList<xalanc_1_10::XalanMap<const xalanc_1_10::XPath *, bool, xalanc_1_10::XalanMapKeyTraits<const xalanc_1_10::XPath *> >::Entry>::Node"** %currentNode2, align 8, !dbg !5166
  %cmp = icmp eq %"struct.xalanc_1_10::XalanList<xalanc_1_10::XalanMap<const xalanc_1_10::XPath *, bool, xalanc_1_10::XalanMapKeyTraits<const xalanc_1_10::XPath *> >::Entry>::Node"* %0, %2, !dbg !5167
  ret i1 %cmp, !dbg !5168
}

; Function Attrs: noinline uwtable
define linkonce_odr dso_local void @_ZN11xalanc_1_1011XalanVectorINS0_INS_21XalanListIteratorBaseINS_23XalanListIteratorTraitsINS_8XalanMapIPKNS_5XPathEbNS_17XalanMapKeyTraitsIS6_EEE5EntryEEENS_9XalanListISA_E4NodeEEENS_31MemoryManagedConstructionTraitsISF_EEEENS_32ConstructWithMemoryManagerTraitsISI_EEE7destroyEPSI_SM_(%"class.xalanc_1_10::XalanVector.4"* %theFirst, %"class.xalanc_1_10::XalanVector.4"* %theLast) #0 comdat align 2 !dbg !5169 {
entry:
  %theFirst.addr = alloca %"class.xalanc_1_10::XalanVector.4"*, align 8
  %theLast.addr = alloca %"class.xalanc_1_10::XalanVector.4"*, align 8
  store %"class.xalanc_1_10::XalanVector.4"* %theFirst, %"class.xalanc_1_10::XalanVector.4"** %theFirst.addr, align 8
  call void @llvm.dbg.declare(metadata %"class.xalanc_1_10::XalanVector.4"** %theFirst.addr, metadata !5170, metadata !DIExpression()), !dbg !5171
  store %"class.xalanc_1_10::XalanVector.4"* %theLast, %"class.xalanc_1_10::XalanVector.4"** %theLast.addr, align 8
  call void @llvm.dbg.declare(metadata %"class.xalanc_1_10::XalanVector.4"** %theLast.addr, metadata !5172, metadata !DIExpression()), !dbg !5173
  br label %for.cond, !dbg !5174

for.cond:                                         ; preds = %for.inc, %entry
  %0 = load %"class.xalanc_1_10::XalanVector.4"*, %"class.xalanc_1_10::XalanVector.4"** %theFirst.addr, align 8, !dbg !5175
  %1 = load %"class.xalanc_1_10::XalanVector.4"*, %"class.xalanc_1_10::XalanVector.4"** %theLast.addr, align 8, !dbg !5178
  %cmp = icmp ne %"class.xalanc_1_10::XalanVector.4"* %0, %1, !dbg !5179
  br i1 %cmp, label %for.body, label %for.end, !dbg !5180

for.body:                                         ; preds = %for.cond
  %2 = load %"class.xalanc_1_10::XalanVector.4"*, %"class.xalanc_1_10::XalanVector.4"** %theFirst.addr, align 8, !dbg !5181
  call void @_ZN11xalanc_1_1011XalanVectorINS0_INS_21XalanListIteratorBaseINS_23XalanListIteratorTraitsINS_8XalanMapIPKNS_5XPathEbNS_17XalanMapKeyTraitsIS6_EEE5EntryEEENS_9XalanListISA_E4NodeEEENS_31MemoryManagedConstructionTraitsISF_EEEENS_32ConstructWithMemoryManagerTraitsISI_EEE7destroyERSI_(%"class.xalanc_1_10::XalanVector.4"* dereferenceable(32) %2), !dbg !5183
  br label %for.inc, !dbg !5184

for.inc:                                          ; preds = %for.body
  %3 = load %"class.xalanc_1_10::XalanVector.4"*, %"class.xalanc_1_10::XalanVector.4"** %theFirst.addr, align 8, !dbg !5185
  %incdec.ptr = getelementptr inbounds %"class.xalanc_1_10::XalanVector.4", %"class.xalanc_1_10::XalanVector.4"* %3, i32 1, !dbg !5185
  store %"class.xalanc_1_10::XalanVector.4"* %incdec.ptr, %"class.xalanc_1_10::XalanVector.4"** %theFirst.addr, align 8, !dbg !5185
  br label %for.cond, !dbg !5186, !llvm.loop !5187

for.end:                                          ; preds = %for.cond
  ret void, !dbg !5189
}

; Function Attrs: noinline nounwind uwtable
define linkonce_odr dso_local %"class.xalanc_1_10::XalanVector.4"* @_ZN11xalanc_1_1011XalanVectorINS0_INS_21XalanListIteratorBaseINS_23XalanListIteratorTraitsINS_8XalanMapIPKNS_5XPathEbNS_17XalanMapKeyTraitsIS6_EEE5EntryEEENS_9XalanListISA_E4NodeEEENS_31MemoryManagedConstructionTraitsISF_EEEENS_32ConstructWithMemoryManagerTraitsISI_EEE5beginEv(%"class.xalanc_1_10::XalanVector.3"* %this) #4 comdat align 2 !dbg !5190 {
entry:
  %this.addr = alloca %"class.xalanc_1_10::XalanVector.3"*, align 8
  store %"class.xalanc_1_10::XalanVector.3"* %this, %"class.xalanc_1_10::XalanVector.3"** %this.addr, align 8
  call void @llvm.dbg.declare(metadata %"class.xalanc_1_10::XalanVector.3"** %this.addr, metadata !5191, metadata !DIExpression()), !dbg !5192
  %this1 = load %"class.xalanc_1_10::XalanVector.3"*, %"class.xalanc_1_10::XalanVector.3"** %this.addr, align 8
  call void @_ZNK11xalanc_1_1011XalanVectorINS0_INS_21XalanListIteratorBaseINS_23XalanListIteratorTraitsINS_8XalanMapIPKNS_5XPathEbNS_17XalanMapKeyTraitsIS6_EEE5EntryEEENS_9XalanListISA_E4NodeEEENS_31MemoryManagedConstructionTraitsISF_EEEENS_32ConstructWithMemoryManagerTraitsISI_EEE10invariantsEv(%"class.xalanc_1_10::XalanVector.3"* %this1), !dbg !5193
  %m_data = getelementptr inbounds %"class.xalanc_1_10::XalanVector.3", %"class.xalanc_1_10::XalanVector.3"* %this1, i32 0, i32 3, !dbg !5194
  %0 = load %"class.xalanc_1_10::XalanVector.4"*, %"class.xalanc_1_10::XalanVector.4"** %m_data, align 8, !dbg !5194
  ret %"class.xalanc_1_10::XalanVector.4"* %0, !dbg !5195
}

; Function Attrs: noinline uwtable
define linkonce_odr dso_local %"class.xalanc_1_10::XalanVector.4"* @_ZN11xalanc_1_1011XalanVectorINS0_INS_21XalanListIteratorBaseINS_23XalanListIteratorTraitsINS_8XalanMapIPKNS_5XPathEbNS_17XalanMapKeyTraitsIS6_EEE5EntryEEENS_9XalanListISA_E4NodeEEENS_31MemoryManagedConstructionTraitsISF_EEEENS_32ConstructWithMemoryManagerTraitsISI_EEE3endEv(%"class.xalanc_1_10::XalanVector.3"* %this) #0 comdat align 2 !dbg !5196 {
entry:
  %this.addr = alloca %"class.xalanc_1_10::XalanVector.3"*, align 8
  store %"class.xalanc_1_10::XalanVector.3"* %this, %"class.xalanc_1_10::XalanVector.3"** %this.addr, align 8
  call void @llvm.dbg.declare(metadata %"class.xalanc_1_10::XalanVector.3"** %this.addr, metadata !5197, metadata !DIExpression()), !dbg !5198
  %this1 = load %"class.xalanc_1_10::XalanVector.3"*, %"class.xalanc_1_10::XalanVector.3"** %this.addr, align 8
  call void @_ZNK11xalanc_1_1011XalanVectorINS0_INS_21XalanListIteratorBaseINS_23XalanListIteratorTraitsINS_8XalanMapIPKNS_5XPathEbNS_17XalanMapKeyTraitsIS6_EEE5EntryEEENS_9XalanListISA_E4NodeEEENS_31MemoryManagedConstructionTraitsISF_EEEENS_32ConstructWithMemoryManagerTraitsISI_EEE10invariantsEv(%"class.xalanc_1_10::XalanVector.3"* %this1), !dbg !5199
  %call = call %"class.xalanc_1_10::XalanVector.4"* @_ZN11xalanc_1_1011XalanVectorINS0_INS_21XalanListIteratorBaseINS_23XalanListIteratorTraitsINS_8XalanMapIPKNS_5XPathEbNS_17XalanMapKeyTraitsIS6_EEE5EntryEEENS_9XalanListISA_E4NodeEEENS_31MemoryManagedConstructionTraitsISF_EEEENS_32ConstructWithMemoryManagerTraitsISI_EEE10endPointerEv(%"class.xalanc_1_10::XalanVector.3"* %this1), !dbg !5200
  ret %"class.xalanc_1_10::XalanVector.4"* %call, !dbg !5201
}

; Function Attrs: noinline uwtable
define linkonce_odr dso_local void @_ZN11xalanc_1_1011XalanVectorINS0_INS_21XalanListIteratorBaseINS_23XalanListIteratorTraitsINS_8XalanMapIPKNS_5XPathEbNS_17XalanMapKeyTraitsIS6_EEE5EntryEEENS_9XalanListISA_E4NodeEEENS_31MemoryManagedConstructionTraitsISF_EEEENS_32ConstructWithMemoryManagerTraitsISI_EEE10deallocateEPSI_(%"class.xalanc_1_10::XalanVector.3"* %this, %"class.xalanc_1_10::XalanVector.4"* %pointer) #0 comdat align 2 !dbg !5202 {
entry:
  %this.addr = alloca %"class.xalanc_1_10::XalanVector.3"*, align 8
  %pointer.addr = alloca %"class.xalanc_1_10::XalanVector.4"*, align 8
  store %"class.xalanc_1_10::XalanVector.3"* %this, %"class.xalanc_1_10::XalanVector.3"** %this.addr, align 8
  call void @llvm.dbg.declare(metadata %"class.xalanc_1_10::XalanVector.3"** %this.addr, metadata !5203, metadata !DIExpression()), !dbg !5204
  store %"class.xalanc_1_10::XalanVector.4"* %pointer, %"class.xalanc_1_10::XalanVector.4"** %pointer.addr, align 8
  call void @llvm.dbg.declare(metadata %"class.xalanc_1_10::XalanVector.4"** %pointer.addr, metadata !5205, metadata !DIExpression()), !dbg !5206
  %this1 = load %"class.xalanc_1_10::XalanVector.3"*, %"class.xalanc_1_10::XalanVector.3"** %this.addr, align 8
  %m_memoryManager = getelementptr inbounds %"class.xalanc_1_10::XalanVector.3", %"class.xalanc_1_10::XalanVector.3"* %this1, i32 0, i32 0, !dbg !5207
  %0 = load %"class.xercesc_2_7::MemoryManager"*, %"class.xercesc_2_7::MemoryManager"** %m_memoryManager, align 8, !dbg !5207
  %1 = load %"class.xalanc_1_10::XalanVector.4"*, %"class.xalanc_1_10::XalanVector.4"** %pointer.addr, align 8, !dbg !5208
  %2 = bitcast %"class.xalanc_1_10::XalanVector.4"* %1 to i8*, !dbg !5208
  %3 = bitcast %"class.xercesc_2_7::MemoryManager"* %0 to void (%"class.xercesc_2_7::MemoryManager"*, i8*)***, !dbg !5209
  %vtable = load void (%"class.xercesc_2_7::MemoryManager"*, i8*)**, void (%"class.xercesc_2_7::MemoryManager"*, i8*)*** %3, align 8, !dbg !5209
  %vfn = getelementptr inbounds void (%"class.xercesc_2_7::MemoryManager"*, i8*)*, void (%"class.xercesc_2_7::MemoryManager"*, i8*)** %vtable, i64 3, !dbg !5209
  %4 = load void (%"class.xercesc_2_7::MemoryManager"*, i8*)*, void (%"class.xercesc_2_7::MemoryManager"*, i8*)** %vfn, align 8, !dbg !5209
  call void %4(%"class.xercesc_2_7::MemoryManager"* %0, i8* %2), !dbg !5209
  ret void, !dbg !5210
}

; Function Attrs: noinline nounwind uwtable
define linkonce_odr dso_local void @_ZN11xalanc_1_1011XalanVectorINS0_INS_21XalanListIteratorBaseINS_23XalanListIteratorTraitsINS_8XalanMapIPKNS_5XPathEbNS_17XalanMapKeyTraitsIS6_EEE5EntryEEENS_9XalanListISA_E4NodeEEENS_31MemoryManagedConstructionTraitsISF_EEEENS_32ConstructWithMemoryManagerTraitsISI_EEE7destroyERSI_(%"class.xalanc_1_10::XalanVector.4"* dereferenceable(32) %theValue) #4 comdat align 2 !dbg !5211 {
entry:
  %theValue.addr = alloca %"class.xalanc_1_10::XalanVector.4"*, align 8
  store %"class.xalanc_1_10::XalanVector.4"* %theValue, %"class.xalanc_1_10::XalanVector.4"** %theValue.addr, align 8
  call void @llvm.dbg.declare(metadata %"class.xalanc_1_10::XalanVector.4"** %theValue.addr, metadata !5212, metadata !DIExpression()), !dbg !5213
  %0 = load %"class.xalanc_1_10::XalanVector.4"*, %"class.xalanc_1_10::XalanVector.4"** %theValue.addr, align 8, !dbg !5214
  call void @_ZN11xalanc_1_1011XalanVectorINS_21XalanListIteratorBaseINS_23XalanListIteratorTraitsINS_8XalanMapIPKNS_5XPathEbNS_17XalanMapKeyTraitsIS6_EEE5EntryEEENS_9XalanListISA_E4NodeEEENS_31MemoryManagedConstructionTraitsISF_EEED2Ev(%"class.xalanc_1_10::XalanVector.4"* %0) #8, !dbg !5215
  ret void, !dbg !5216
}

; Function Attrs: noinline nounwind uwtable
define linkonce_odr dso_local void @_ZN11xalanc_1_1011XalanVectorINS_21XalanListIteratorBaseINS_23XalanListIteratorTraitsINS_8XalanMapIPKNS_5XPathEbNS_17XalanMapKeyTraitsIS6_EEE5EntryEEENS_9XalanListISA_E4NodeEEENS_31MemoryManagedConstructionTraitsISF_EEED2Ev(%"class.xalanc_1_10::XalanVector.4"* %this) unnamed_addr #4 comdat align 2 personality i8* bitcast (i32 (...)* @__gxx_personality_v0 to i8*) !dbg !5217 {
entry:
  %this.addr = alloca %"class.xalanc_1_10::XalanVector.4"*, align 8
  store %"class.xalanc_1_10::XalanVector.4"* %this, %"class.xalanc_1_10::XalanVector.4"** %this.addr, align 8
  call void @llvm.dbg.declare(metadata %"class.xalanc_1_10::XalanVector.4"** %this.addr, metadata !5218, metadata !DIExpression()), !dbg !5219
  %this1 = load %"class.xalanc_1_10::XalanVector.4"*, %"class.xalanc_1_10::XalanVector.4"** %this.addr, align 8
  invoke void @_ZNK11xalanc_1_1011XalanVectorINS_21XalanListIteratorBaseINS_23XalanListIteratorTraitsINS_8XalanMapIPKNS_5XPathEbNS_17XalanMapKeyTraitsIS6_EEE5EntryEEENS_9XalanListISA_E4NodeEEENS_31MemoryManagedConstructionTraitsISF_EEE10invariantsEv(%"class.xalanc_1_10::XalanVector.4"* %this1)
          to label %invoke.cont unwind label %terminate.lpad, !dbg !5220

invoke.cont:                                      ; preds = %entry
  %m_allocation = getelementptr inbounds %"class.xalanc_1_10::XalanVector.4", %"class.xalanc_1_10::XalanVector.4"* %this1, i32 0, i32 2, !dbg !5222
  %0 = load i64, i64* %m_allocation, align 8, !dbg !5222
  %cmp = icmp ne i64 %0, 0, !dbg !5224
  br i1 %cmp, label %if.then, label %if.end, !dbg !5225

if.then:                                          ; preds = %invoke.cont
  %call = invoke %"struct.xalanc_1_10::XalanListIteratorBase"* @_ZN11xalanc_1_1011XalanVectorINS_21XalanListIteratorBaseINS_23XalanListIteratorTraitsINS_8XalanMapIPKNS_5XPathEbNS_17XalanMapKeyTraitsIS6_EEE5EntryEEENS_9XalanListISA_E4NodeEEENS_31MemoryManagedConstructionTraitsISF_EEE5beginEv(%"class.xalanc_1_10::XalanVector.4"* %this1)
          to label %invoke.cont2 unwind label %terminate.lpad, !dbg !5226

invoke.cont2:                                     ; preds = %if.then
  %call4 = invoke %"struct.xalanc_1_10::XalanListIteratorBase"* @_ZN11xalanc_1_1011XalanVectorINS_21XalanListIteratorBaseINS_23XalanListIteratorTraitsINS_8XalanMapIPKNS_5XPathEbNS_17XalanMapKeyTraitsIS6_EEE5EntryEEENS_9XalanListISA_E4NodeEEENS_31MemoryManagedConstructionTraitsISF_EEE3endEv(%"class.xalanc_1_10::XalanVector.4"* %this1)
          to label %invoke.cont3 unwind label %terminate.lpad, !dbg !5228

invoke.cont3:                                     ; preds = %invoke.cont2
  invoke void @_ZN11xalanc_1_1011XalanVectorINS_21XalanListIteratorBaseINS_23XalanListIteratorTraitsINS_8XalanMapIPKNS_5XPathEbNS_17XalanMapKeyTraitsIS6_EEE5EntryEEENS_9XalanListISA_E4NodeEEENS_31MemoryManagedConstructionTraitsISF_EEE7destroyEPSF_SJ_(%"struct.xalanc_1_10::XalanListIteratorBase"* %call, %"struct.xalanc_1_10::XalanListIteratorBase"* %call4)
          to label %invoke.cont5 unwind label %terminate.lpad, !dbg !5229

invoke.cont5:                                     ; preds = %invoke.cont3
  %m_data = getelementptr inbounds %"class.xalanc_1_10::XalanVector.4", %"class.xalanc_1_10::XalanVector.4"* %this1, i32 0, i32 3, !dbg !5230
  %1 = load %"struct.xalanc_1_10::XalanListIteratorBase"*, %"struct.xalanc_1_10::XalanListIteratorBase"** %m_data, align 8, !dbg !5230
  invoke void @_ZN11xalanc_1_1011XalanVectorINS_21XalanListIteratorBaseINS_23XalanListIteratorTraitsINS_8XalanMapIPKNS_5XPathEbNS_17XalanMapKeyTraitsIS6_EEE5EntryEEENS_9XalanListISA_E4NodeEEENS_31MemoryManagedConstructionTraitsISF_EEE10deallocateEPSF_(%"class.xalanc_1_10::XalanVector.4"* %this1, %"struct.xalanc_1_10::XalanListIteratorBase"* %1)
          to label %invoke.cont6 unwind label %terminate.lpad, !dbg !5231

invoke.cont6:                                     ; preds = %invoke.cont5
  br label %if.end, !dbg !5232

if.end:                                           ; preds = %invoke.cont6, %invoke.cont
  ret void, !dbg !5233

terminate.lpad:                                   ; preds = %invoke.cont5, %invoke.cont3, %invoke.cont2, %if.then, %entry
  %2 = landingpad { i8*, i32 }
          catch i8* null, !dbg !5220
  %3 = extractvalue { i8*, i32 } %2, 0, !dbg !5220
  call void @__clang_call_terminate(i8* %3) #9, !dbg !5220
  unreachable, !dbg !5220
}

; Function Attrs: noinline nounwind uwtable
define linkonce_odr dso_local void @_ZNK11xalanc_1_1011XalanVectorINS_21XalanListIteratorBaseINS_23XalanListIteratorTraitsINS_8XalanMapIPKNS_5XPathEbNS_17XalanMapKeyTraitsIS6_EEE5EntryEEENS_9XalanListISA_E4NodeEEENS_31MemoryManagedConstructionTraitsISF_EEE10invariantsEv(%"class.xalanc_1_10::XalanVector.4"* %this) #4 comdat align 2 !dbg !5234 {
entry:
  %this.addr = alloca %"class.xalanc_1_10::XalanVector.4"*, align 8
  store %"class.xalanc_1_10::XalanVector.4"* %this, %"class.xalanc_1_10::XalanVector.4"** %this.addr, align 8
  call void @llvm.dbg.declare(metadata %"class.xalanc_1_10::XalanVector.4"** %this.addr, metadata !5235, metadata !DIExpression()), !dbg !5237
  %this1 = load %"class.xalanc_1_10::XalanVector.4"*, %"class.xalanc_1_10::XalanVector.4"** %this.addr, align 8
  ret void, !dbg !5238
}

; Function Attrs: noinline uwtable
define linkonce_odr dso_local void @_ZN11xalanc_1_1011XalanVectorINS_21XalanListIteratorBaseINS_23XalanListIteratorTraitsINS_8XalanMapIPKNS_5XPathEbNS_17XalanMapKeyTraitsIS6_EEE5EntryEEENS_9XalanListISA_E4NodeEEENS_31MemoryManagedConstructionTraitsISF_EEE7destroyEPSF_SJ_(%"struct.xalanc_1_10::XalanListIteratorBase"* %theFirst, %"struct.xalanc_1_10::XalanListIteratorBase"* %theLast) #0 comdat align 2 !dbg !5239 {
entry:
  %theFirst.addr = alloca %"struct.xalanc_1_10::XalanListIteratorBase"*, align 8
  %theLast.addr = alloca %"struct.xalanc_1_10::XalanListIteratorBase"*, align 8
  store %"struct.xalanc_1_10::XalanListIteratorBase"* %theFirst, %"struct.xalanc_1_10::XalanListIteratorBase"** %theFirst.addr, align 8
  call void @llvm.dbg.declare(metadata %"struct.xalanc_1_10::XalanListIteratorBase"** %theFirst.addr, metadata !5240, metadata !DIExpression()), !dbg !5241
  store %"struct.xalanc_1_10::XalanListIteratorBase"* %theLast, %"struct.xalanc_1_10::XalanListIteratorBase"** %theLast.addr, align 8
  call void @llvm.dbg.declare(metadata %"struct.xalanc_1_10::XalanListIteratorBase"** %theLast.addr, metadata !5242, metadata !DIExpression()), !dbg !5243
  br label %for.cond, !dbg !5244

for.cond:                                         ; preds = %for.inc, %entry
  %0 = load %"struct.xalanc_1_10::XalanListIteratorBase"*, %"struct.xalanc_1_10::XalanListIteratorBase"** %theFirst.addr, align 8, !dbg !5245
  %1 = load %"struct.xalanc_1_10::XalanListIteratorBase"*, %"struct.xalanc_1_10::XalanListIteratorBase"** %theLast.addr, align 8, !dbg !5248
  %cmp = icmp ne %"struct.xalanc_1_10::XalanListIteratorBase"* %0, %1, !dbg !5249
  br i1 %cmp, label %for.body, label %for.end, !dbg !5250

for.body:                                         ; preds = %for.cond
  %2 = load %"struct.xalanc_1_10::XalanListIteratorBase"*, %"struct.xalanc_1_10::XalanListIteratorBase"** %theFirst.addr, align 8, !dbg !5251
  call void @_ZN11xalanc_1_1011XalanVectorINS_21XalanListIteratorBaseINS_23XalanListIteratorTraitsINS_8XalanMapIPKNS_5XPathEbNS_17XalanMapKeyTraitsIS6_EEE5EntryEEENS_9XalanListISA_E4NodeEEENS_31MemoryManagedConstructionTraitsISF_EEE7destroyERSF_(%"struct.xalanc_1_10::XalanListIteratorBase"* dereferenceable(8) %2), !dbg !5253
  br label %for.inc, !dbg !5254

for.inc:                                          ; preds = %for.body
  %3 = load %"struct.xalanc_1_10::XalanListIteratorBase"*, %"struct.xalanc_1_10::XalanListIteratorBase"** %theFirst.addr, align 8, !dbg !5255
  %incdec.ptr = getelementptr inbounds %"struct.xalanc_1_10::XalanListIteratorBase", %"struct.xalanc_1_10::XalanListIteratorBase"* %3, i32 1, !dbg !5255
  store %"struct.xalanc_1_10::XalanListIteratorBase"* %incdec.ptr, %"struct.xalanc_1_10::XalanListIteratorBase"** %theFirst.addr, align 8, !dbg !5255
  br label %for.cond, !dbg !5256, !llvm.loop !5257

for.end:                                          ; preds = %for.cond
  ret void, !dbg !5259
}

; Function Attrs: noinline nounwind uwtable
define linkonce_odr dso_local %"struct.xalanc_1_10::XalanListIteratorBase"* @_ZN11xalanc_1_1011XalanVectorINS_21XalanListIteratorBaseINS_23XalanListIteratorTraitsINS_8XalanMapIPKNS_5XPathEbNS_17XalanMapKeyTraitsIS6_EEE5EntryEEENS_9XalanListISA_E4NodeEEENS_31MemoryManagedConstructionTraitsISF_EEE5beginEv(%"class.xalanc_1_10::XalanVector.4"* %this) #4 comdat align 2 !dbg !5260 {
entry:
  %this.addr = alloca %"class.xalanc_1_10::XalanVector.4"*, align 8
  store %"class.xalanc_1_10::XalanVector.4"* %this, %"class.xalanc_1_10::XalanVector.4"** %this.addr, align 8
  call void @llvm.dbg.declare(metadata %"class.xalanc_1_10::XalanVector.4"** %this.addr, metadata !5261, metadata !DIExpression()), !dbg !5262
  %this1 = load %"class.xalanc_1_10::XalanVector.4"*, %"class.xalanc_1_10::XalanVector.4"** %this.addr, align 8
  call void @_ZNK11xalanc_1_1011XalanVectorINS_21XalanListIteratorBaseINS_23XalanListIteratorTraitsINS_8XalanMapIPKNS_5XPathEbNS_17XalanMapKeyTraitsIS6_EEE5EntryEEENS_9XalanListISA_E4NodeEEENS_31MemoryManagedConstructionTraitsISF_EEE10invariantsEv(%"class.xalanc_1_10::XalanVector.4"* %this1), !dbg !5263
  %m_data = getelementptr inbounds %"class.xalanc_1_10::XalanVector.4", %"class.xalanc_1_10::XalanVector.4"* %this1, i32 0, i32 3, !dbg !5264
  %0 = load %"struct.xalanc_1_10::XalanListIteratorBase"*, %"struct.xalanc_1_10::XalanListIteratorBase"** %m_data, align 8, !dbg !5264
  ret %"struct.xalanc_1_10::XalanListIteratorBase"* %0, !dbg !5265
}

; Function Attrs: noinline uwtable
define linkonce_odr dso_local %"struct.xalanc_1_10::XalanListIteratorBase"* @_ZN11xalanc_1_1011XalanVectorINS_21XalanListIteratorBaseINS_23XalanListIteratorTraitsINS_8XalanMapIPKNS_5XPathEbNS_17XalanMapKeyTraitsIS6_EEE5EntryEEENS_9XalanListISA_E4NodeEEENS_31MemoryManagedConstructionTraitsISF_EEE3endEv(%"class.xalanc_1_10::XalanVector.4"* %this) #0 comdat align 2 !dbg !5266 {
entry:
  %this.addr = alloca %"class.xalanc_1_10::XalanVector.4"*, align 8
  store %"class.xalanc_1_10::XalanVector.4"* %this, %"class.xalanc_1_10::XalanVector.4"** %this.addr, align 8
  call void @llvm.dbg.declare(metadata %"class.xalanc_1_10::XalanVector.4"** %this.addr, metadata !5267, metadata !DIExpression()), !dbg !5268
  %this1 = load %"class.xalanc_1_10::XalanVector.4"*, %"class.xalanc_1_10::XalanVector.4"** %this.addr, align 8
  call void @_ZNK11xalanc_1_1011XalanVectorINS_21XalanListIteratorBaseINS_23XalanListIteratorTraitsINS_8XalanMapIPKNS_5XPathEbNS_17XalanMapKeyTraitsIS6_EEE5EntryEEENS_9XalanListISA_E4NodeEEENS_31MemoryManagedConstructionTraitsISF_EEE10invariantsEv(%"class.xalanc_1_10::XalanVector.4"* %this1), !dbg !5269
  %call = call %"struct.xalanc_1_10::XalanListIteratorBase"* @_ZN11xalanc_1_1011XalanVectorINS_21XalanListIteratorBaseINS_23XalanListIteratorTraitsINS_8XalanMapIPKNS_5XPathEbNS_17XalanMapKeyTraitsIS6_EEE5EntryEEENS_9XalanListISA_E4NodeEEENS_31MemoryManagedConstructionTraitsISF_EEE10endPointerEv(%"class.xalanc_1_10::XalanVector.4"* %this1), !dbg !5270
  ret %"struct.xalanc_1_10::XalanListIteratorBase"* %call, !dbg !5271
}

; Function Attrs: noinline uwtable
define linkonce_odr dso_local void @_ZN11xalanc_1_1011XalanVectorINS_21XalanListIteratorBaseINS_23XalanListIteratorTraitsINS_8XalanMapIPKNS_5XPathEbNS_17XalanMapKeyTraitsIS6_EEE5EntryEEENS_9XalanListISA_E4NodeEEENS_31MemoryManagedConstructionTraitsISF_EEE10deallocateEPSF_(%"class.xalanc_1_10::XalanVector.4"* %this, %"struct.xalanc_1_10::XalanListIteratorBase"* %pointer) #0 comdat align 2 !dbg !5272 {
entry:
  %this.addr = alloca %"class.xalanc_1_10::XalanVector.4"*, align 8
  %pointer.addr = alloca %"struct.xalanc_1_10::XalanListIteratorBase"*, align 8
  store %"class.xalanc_1_10::XalanVector.4"* %this, %"class.xalanc_1_10::XalanVector.4"** %this.addr, align 8
  call void @llvm.dbg.declare(metadata %"class.xalanc_1_10::XalanVector.4"** %this.addr, metadata !5273, metadata !DIExpression()), !dbg !5274
  store %"struct.xalanc_1_10::XalanListIteratorBase"* %pointer, %"struct.xalanc_1_10::XalanListIteratorBase"** %pointer.addr, align 8
  call void @llvm.dbg.declare(metadata %"struct.xalanc_1_10::XalanListIteratorBase"** %pointer.addr, metadata !5275, metadata !DIExpression()), !dbg !5276
  %this1 = load %"class.xalanc_1_10::XalanVector.4"*, %"class.xalanc_1_10::XalanVector.4"** %this.addr, align 8
  %m_memoryManager = getelementptr inbounds %"class.xalanc_1_10::XalanVector.4", %"class.xalanc_1_10::XalanVector.4"* %this1, i32 0, i32 0, !dbg !5277
  %0 = load %"class.xercesc_2_7::MemoryManager"*, %"class.xercesc_2_7::MemoryManager"** %m_memoryManager, align 8, !dbg !5277
  %1 = load %"struct.xalanc_1_10::XalanListIteratorBase"*, %"struct.xalanc_1_10::XalanListIteratorBase"** %pointer.addr, align 8, !dbg !5278
  %2 = bitcast %"struct.xalanc_1_10::XalanListIteratorBase"* %1 to i8*, !dbg !5278
  %3 = bitcast %"class.xercesc_2_7::MemoryManager"* %0 to void (%"class.xercesc_2_7::MemoryManager"*, i8*)***, !dbg !5279
  %vtable = load void (%"class.xercesc_2_7::MemoryManager"*, i8*)**, void (%"class.xercesc_2_7::MemoryManager"*, i8*)*** %3, align 8, !dbg !5279
  %vfn = getelementptr inbounds void (%"class.xercesc_2_7::MemoryManager"*, i8*)*, void (%"class.xercesc_2_7::MemoryManager"*, i8*)** %vtable, i64 3, !dbg !5279
  %4 = load void (%"class.xercesc_2_7::MemoryManager"*, i8*)*, void (%"class.xercesc_2_7::MemoryManager"*, i8*)** %vfn, align 8, !dbg !5279
  call void %4(%"class.xercesc_2_7::MemoryManager"* %0, i8* %2), !dbg !5279
  ret void, !dbg !5280
}

; Function Attrs: noinline nounwind uwtable
define linkonce_odr dso_local void @_ZN11xalanc_1_1011XalanVectorINS_21XalanListIteratorBaseINS_23XalanListIteratorTraitsINS_8XalanMapIPKNS_5XPathEbNS_17XalanMapKeyTraitsIS6_EEE5EntryEEENS_9XalanListISA_E4NodeEEENS_31MemoryManagedConstructionTraitsISF_EEE7destroyERSF_(%"struct.xalanc_1_10::XalanListIteratorBase"* dereferenceable(8) %theValue) #4 comdat align 2 !dbg !5281 {
entry:
  %theValue.addr = alloca %"struct.xalanc_1_10::XalanListIteratorBase"*, align 8
  store %"struct.xalanc_1_10::XalanListIteratorBase"* %theValue, %"struct.xalanc_1_10::XalanListIteratorBase"** %theValue.addr, align 8
  call void @llvm.dbg.declare(metadata %"struct.xalanc_1_10::XalanListIteratorBase"** %theValue.addr, metadata !5282, metadata !DIExpression()), !dbg !5283
  %0 = load %"struct.xalanc_1_10::XalanListIteratorBase"*, %"struct.xalanc_1_10::XalanListIteratorBase"** %theValue.addr, align 8, !dbg !5284
  ret void, !dbg !5285
}

; Function Attrs: noinline nounwind uwtable
define linkonce_odr dso_local %"struct.xalanc_1_10::XalanListIteratorBase"* @_ZN11xalanc_1_1011XalanVectorINS_21XalanListIteratorBaseINS_23XalanListIteratorTraitsINS_8XalanMapIPKNS_5XPathEbNS_17XalanMapKeyTraitsIS6_EEE5EntryEEENS_9XalanListISA_E4NodeEEENS_31MemoryManagedConstructionTraitsISF_EEE10endPointerEv(%"class.xalanc_1_10::XalanVector.4"* %this) #4 comdat align 2 !dbg !5286 {
entry:
  %this.addr = alloca %"class.xalanc_1_10::XalanVector.4"*, align 8
  store %"class.xalanc_1_10::XalanVector.4"* %this, %"class.xalanc_1_10::XalanVector.4"** %this.addr, align 8
  call void @llvm.dbg.declare(metadata %"class.xalanc_1_10::XalanVector.4"** %this.addr, metadata !5287, metadata !DIExpression()), !dbg !5288
  %this1 = load %"class.xalanc_1_10::XalanVector.4"*, %"class.xalanc_1_10::XalanVector.4"** %this.addr, align 8
  %m_data = getelementptr inbounds %"class.xalanc_1_10::XalanVector.4", %"class.xalanc_1_10::XalanVector.4"* %this1, i32 0, i32 3, !dbg !5289
  %0 = load %"struct.xalanc_1_10::XalanListIteratorBase"*, %"struct.xalanc_1_10::XalanListIteratorBase"** %m_data, align 8, !dbg !5289
  %m_size = getelementptr inbounds %"class.xalanc_1_10::XalanVector.4", %"class.xalanc_1_10::XalanVector.4"* %this1, i32 0, i32 1, !dbg !5290
  %1 = load i64, i64* %m_size, align 8, !dbg !5290
  %add.ptr = getelementptr inbounds %"struct.xalanc_1_10::XalanListIteratorBase", %"struct.xalanc_1_10::XalanListIteratorBase"* %0, i64 %1, !dbg !5291
  ret %"struct.xalanc_1_10::XalanListIteratorBase"* %add.ptr, !dbg !5292
}

; Function Attrs: noinline nounwind uwtable
define linkonce_odr dso_local %"class.xalanc_1_10::XalanVector.4"* @_ZN11xalanc_1_1011XalanVectorINS0_INS_21XalanListIteratorBaseINS_23XalanListIteratorTraitsINS_8XalanMapIPKNS_5XPathEbNS_17XalanMapKeyTraitsIS6_EEE5EntryEEENS_9XalanListISA_E4NodeEEENS_31MemoryManagedConstructionTraitsISF_EEEENS_32ConstructWithMemoryManagerTraitsISI_EEE10endPointerEv(%"class.xalanc_1_10::XalanVector.3"* %this) #4 comdat align 2 !dbg !5293 {
entry:
  %this.addr = alloca %"class.xalanc_1_10::XalanVector.3"*, align 8
  store %"class.xalanc_1_10::XalanVector.3"* %this, %"class.xalanc_1_10::XalanVector.3"** %this.addr, align 8
  call void @llvm.dbg.declare(metadata %"class.xalanc_1_10::XalanVector.3"** %this.addr, metadata !5294, metadata !DIExpression()), !dbg !5295
  %this1 = load %"class.xalanc_1_10::XalanVector.3"*, %"class.xalanc_1_10::XalanVector.3"** %this.addr, align 8
  %m_data = getelementptr inbounds %"class.xalanc_1_10::XalanVector.3", %"class.xalanc_1_10::XalanVector.3"* %this1, i32 0, i32 3, !dbg !5296
  %0 = load %"class.xalanc_1_10::XalanVector.4"*, %"class.xalanc_1_10::XalanVector.4"** %m_data, align 8, !dbg !5296
  %m_size = getelementptr inbounds %"class.xalanc_1_10::XalanVector.3", %"class.xalanc_1_10::XalanVector.3"* %this1, i32 0, i32 1, !dbg !5297
  %1 = load i64, i64* %m_size, align 8, !dbg !5297
  %add.ptr = getelementptr inbounds %"class.xalanc_1_10::XalanVector.4", %"class.xalanc_1_10::XalanVector.4"* %0, i64 %1, !dbg !5298
  ret %"class.xalanc_1_10::XalanVector.4"* %add.ptr, !dbg !5299
}

; Function Attrs: noinline uwtable
define linkonce_odr dso_local void @_ZN11xalanc_1_109XalanListINS_8XalanMapIPKNS_5XPathEbNS_17XalanMapKeyTraitsIS4_EEE5EntryEE11destroyNodeERNS9_4NodeE(%"class.xalanc_1_10::XalanList"* %this, %"struct.xalanc_1_10::XalanList<xalanc_1_10::XalanMap<const xalanc_1_10::XPath *, bool, xalanc_1_10::XalanMapKeyTraits<const xalanc_1_10::XPath *> >::Entry>::Node"* dereferenceable(32) %node) #0 comdat align 2 !dbg !5300 {
entry:
  %this.addr = alloca %"class.xalanc_1_10::XalanList"*, align 8
  %node.addr = alloca %"struct.xalanc_1_10::XalanList<xalanc_1_10::XalanMap<const xalanc_1_10::XPath *, bool, xalanc_1_10::XalanMapKeyTraits<const xalanc_1_10::XPath *> >::Entry>::Node"*, align 8
  store %"class.xalanc_1_10::XalanList"* %this, %"class.xalanc_1_10::XalanList"** %this.addr, align 8
  call void @llvm.dbg.declare(metadata %"class.xalanc_1_10::XalanList"** %this.addr, metadata !5301, metadata !DIExpression()), !dbg !5302
  store %"struct.xalanc_1_10::XalanList<xalanc_1_10::XalanMap<const xalanc_1_10::XPath *, bool, xalanc_1_10::XalanMapKeyTraits<const xalanc_1_10::XPath *> >::Entry>::Node"* %node, %"struct.xalanc_1_10::XalanList<xalanc_1_10::XalanMap<const xalanc_1_10::XPath *, bool, xalanc_1_10::XalanMapKeyTraits<const xalanc_1_10::XPath *> >::Entry>::Node"** %node.addr, align 8
  call void @llvm.dbg.declare(metadata %"struct.xalanc_1_10::XalanList<xalanc_1_10::XalanMap<const xalanc_1_10::XPath *, bool, xalanc_1_10::XalanMapKeyTraits<const xalanc_1_10::XPath *> >::Entry>::Node"** %node.addr, metadata !5303, metadata !DIExpression()), !dbg !5304
  %this1 = load %"class.xalanc_1_10::XalanList"*, %"class.xalanc_1_10::XalanList"** %this.addr, align 8
  %0 = load %"struct.xalanc_1_10::XalanList<xalanc_1_10::XalanMap<const xalanc_1_10::XPath *, bool, xalanc_1_10::XalanMapKeyTraits<const xalanc_1_10::XPath *> >::Entry>::Node"*, %"struct.xalanc_1_10::XalanList<xalanc_1_10::XalanMap<const xalanc_1_10::XPath *, bool, xalanc_1_10::XalanMapKeyTraits<const xalanc_1_10::XPath *> >::Entry>::Node"** %node.addr, align 8, !dbg !5305
  %1 = load %"struct.xalanc_1_10::XalanList<xalanc_1_10::XalanMap<const xalanc_1_10::XPath *, bool, xalanc_1_10::XalanMapKeyTraits<const xalanc_1_10::XPath *> >::Entry>::Node"*, %"struct.xalanc_1_10::XalanList<xalanc_1_10::XalanMap<const xalanc_1_10::XPath *, bool, xalanc_1_10::XalanMapKeyTraits<const xalanc_1_10::XPath *> >::Entry>::Node"** %node.addr, align 8, !dbg !5306
  call void @_ZN11xalanc_1_109XalanListINS_8XalanMapIPKNS_5XPathEbNS_17XalanMapKeyTraitsIS4_EEE5EntryEE10deallocateEPNS9_4NodeE(%"class.xalanc_1_10::XalanList"* %this1, %"struct.xalanc_1_10::XalanList<xalanc_1_10::XalanMap<const xalanc_1_10::XPath *, bool, xalanc_1_10::XalanMapKeyTraits<const xalanc_1_10::XPath *> >::Entry>::Node"* %1), !dbg !5307
  ret void, !dbg !5308
}

; Function Attrs: noinline uwtable
define linkonce_odr dso_local void @_ZN11xalanc_1_1021XalanListIteratorBaseINS_23XalanListIteratorTraitsINS_8XalanMapIPKNS_5XPathEbNS_17XalanMapKeyTraitsIS5_EEE5EntryEEENS_9XalanListIS9_E4NodeEEppEi(%"struct.xalanc_1_10::XalanListIteratorBase"* noalias sret %agg.result, %"struct.xalanc_1_10::XalanListIteratorBase"* %this, i32 %0) #0 comdat align 2 !dbg !5309 {
entry:
  %result.ptr = alloca i8*, align 8
  %this.addr = alloca %"struct.xalanc_1_10::XalanListIteratorBase"*, align 8
  %.addr = alloca i32, align 4
  %origNode = alloca %"struct.xalanc_1_10::XalanList<xalanc_1_10::XalanMap<const xalanc_1_10::XPath *, bool, xalanc_1_10::XalanMapKeyTraits<const xalanc_1_10::XPath *> >::Entry>::Node"*, align 8
  %1 = bitcast %"struct.xalanc_1_10::XalanListIteratorBase"* %agg.result to i8*
  store i8* %1, i8** %result.ptr, align 8
  store %"struct.xalanc_1_10::XalanListIteratorBase"* %this, %"struct.xalanc_1_10::XalanListIteratorBase"** %this.addr, align 8
  call void @llvm.dbg.declare(metadata %"struct.xalanc_1_10::XalanListIteratorBase"** %this.addr, metadata !5310, metadata !DIExpression()), !dbg !5311
  store i32 %0, i32* %.addr, align 4
  call void @llvm.dbg.declare(metadata i32* %.addr, metadata !5312, metadata !DIExpression()), !dbg !5313
  %this1 = load %"struct.xalanc_1_10::XalanListIteratorBase"*, %"struct.xalanc_1_10::XalanListIteratorBase"** %this.addr, align 8
  call void @llvm.dbg.declare(metadata %"struct.xalanc_1_10::XalanList<xalanc_1_10::XalanMap<const xalanc_1_10::XPath *, bool, xalanc_1_10::XalanMapKeyTraits<const xalanc_1_10::XPath *> >::Entry>::Node"** %origNode, metadata !5314, metadata !DIExpression()), !dbg !5315
  %currentNode = getelementptr inbounds %"struct.xalanc_1_10::XalanListIteratorBase", %"struct.xalanc_1_10::XalanListIteratorBase"* %this1, i32 0, i32 0, !dbg !5316
  %2 = load %"struct.xalanc_1_10::XalanList<xalanc_1_10::XalanMap<const xalanc_1_10::XPath *, bool, xalanc_1_10::XalanMapKeyTraits<const xalanc_1_10::XPath *> >::Entry>::Node"*, %"struct.xalanc_1_10::XalanList<xalanc_1_10::XalanMap<const xalanc_1_10::XPath *, bool, xalanc_1_10::XalanMapKeyTraits<const xalanc_1_10::XPath *> >::Entry>::Node"** %currentNode, align 8, !dbg !5316
  store %"struct.xalanc_1_10::XalanList<xalanc_1_10::XalanMap<const xalanc_1_10::XPath *, bool, xalanc_1_10::XalanMapKeyTraits<const xalanc_1_10::XPath *> >::Entry>::Node"* %2, %"struct.xalanc_1_10::XalanList<xalanc_1_10::XalanMap<const xalanc_1_10::XPath *, bool, xalanc_1_10::XalanMapKeyTraits<const xalanc_1_10::XPath *> >::Entry>::Node"** %origNode, align 8, !dbg !5315
  %currentNode2 = getelementptr inbounds %"struct.xalanc_1_10::XalanListIteratorBase", %"struct.xalanc_1_10::XalanListIteratorBase"* %this1, i32 0, i32 0, !dbg !5317
  %3 = load %"struct.xalanc_1_10::XalanList<xalanc_1_10::XalanMap<const xalanc_1_10::XPath *, bool, xalanc_1_10::XalanMapKeyTraits<const xalanc_1_10::XPath *> >::Entry>::Node"*, %"struct.xalanc_1_10::XalanList<xalanc_1_10::XalanMap<const xalanc_1_10::XPath *, bool, xalanc_1_10::XalanMapKeyTraits<const xalanc_1_10::XPath *> >::Entry>::Node"** %currentNode2, align 8, !dbg !5317
  %next = getelementptr inbounds %"struct.xalanc_1_10::XalanList<xalanc_1_10::XalanMap<const xalanc_1_10::XPath *, bool, xalanc_1_10::XalanMapKeyTraits<const xalanc_1_10::XPath *> >::Entry>::Node", %"struct.xalanc_1_10::XalanList<xalanc_1_10::XalanMap<const xalanc_1_10::XPath *, bool, xalanc_1_10::XalanMapKeyTraits<const xalanc_1_10::XPath *> >::Entry>::Node"* %3, i32 0, i32 2, !dbg !5318
  %4 = load %"struct.xalanc_1_10::XalanList<xalanc_1_10::XalanMap<const xalanc_1_10::XPath *, bool, xalanc_1_10::XalanMapKeyTraits<const xalanc_1_10::XPath *> >::Entry>::Node"*, %"struct.xalanc_1_10::XalanList<xalanc_1_10::XalanMap<const xalanc_1_10::XPath *, bool, xalanc_1_10::XalanMapKeyTraits<const xalanc_1_10::XPath *> >::Entry>::Node"** %next, align 8, !dbg !5318
  %currentNode3 = getelementptr inbounds %"struct.xalanc_1_10::XalanListIteratorBase", %"struct.xalanc_1_10::XalanListIteratorBase"* %this1, i32 0, i32 0, !dbg !5319
  store %"struct.xalanc_1_10::XalanList<xalanc_1_10::XalanMap<const xalanc_1_10::XPath *, bool, xalanc_1_10::XalanMapKeyTraits<const xalanc_1_10::XPath *> >::Entry>::Node"* %4, %"struct.xalanc_1_10::XalanList<xalanc_1_10::XalanMap<const xalanc_1_10::XPath *, bool, xalanc_1_10::XalanMapKeyTraits<const xalanc_1_10::XPath *> >::Entry>::Node"** %currentNode3, align 8, !dbg !5320
  %5 = load %"struct.xalanc_1_10::XalanList<xalanc_1_10::XalanMap<const xalanc_1_10::XPath *, bool, xalanc_1_10::XalanMapKeyTraits<const xalanc_1_10::XPath *> >::Entry>::Node"*, %"struct.xalanc_1_10::XalanList<xalanc_1_10::XalanMap<const xalanc_1_10::XPath *, bool, xalanc_1_10::XalanMapKeyTraits<const xalanc_1_10::XPath *> >::Entry>::Node"** %origNode, align 8, !dbg !5321
  call void @_ZN11xalanc_1_1021XalanListIteratorBaseINS_23XalanListIteratorTraitsINS_8XalanMapIPKNS_5XPathEbNS_17XalanMapKeyTraitsIS5_EEE5EntryEEENS_9XalanListIS9_E4NodeEEC2ERSD_(%"struct.xalanc_1_10::XalanListIteratorBase"* %agg.result, %"struct.xalanc_1_10::XalanList<xalanc_1_10::XalanMap<const xalanc_1_10::XPath *, bool, xalanc_1_10::XalanMapKeyTraits<const xalanc_1_10::XPath *> >::Entry>::Node"* dereferenceable(32) %5), !dbg !5322
  ret void, !dbg !5323
}

; Function Attrs: noinline uwtable
define linkonce_odr dso_local void @_ZN11xalanc_1_109XalanListINS_8XalanMapIPKNS_5XPathEbNS_17XalanMapKeyTraitsIS4_EEE5EntryEE10deallocateEPNS9_4NodeE(%"class.xalanc_1_10::XalanList"* %this, %"struct.xalanc_1_10::XalanList<xalanc_1_10::XalanMap<const xalanc_1_10::XPath *, bool, xalanc_1_10::XalanMapKeyTraits<const xalanc_1_10::XPath *> >::Entry>::Node"* %pointer) #0 comdat align 2 !dbg !5324 {
entry:
  %this.addr = alloca %"class.xalanc_1_10::XalanList"*, align 8
  %pointer.addr = alloca %"struct.xalanc_1_10::XalanList<xalanc_1_10::XalanMap<const xalanc_1_10::XPath *, bool, xalanc_1_10::XalanMapKeyTraits<const xalanc_1_10::XPath *> >::Entry>::Node"*, align 8
  store %"class.xalanc_1_10::XalanList"* %this, %"class.xalanc_1_10::XalanList"** %this.addr, align 8
  call void @llvm.dbg.declare(metadata %"class.xalanc_1_10::XalanList"** %this.addr, metadata !5325, metadata !DIExpression()), !dbg !5326
  store %"struct.xalanc_1_10::XalanList<xalanc_1_10::XalanMap<const xalanc_1_10::XPath *, bool, xalanc_1_10::XalanMapKeyTraits<const xalanc_1_10::XPath *> >::Entry>::Node"* %pointer, %"struct.xalanc_1_10::XalanList<xalanc_1_10::XalanMap<const xalanc_1_10::XPath *, bool, xalanc_1_10::XalanMapKeyTraits<const xalanc_1_10::XPath *> >::Entry>::Node"** %pointer.addr, align 8
  call void @llvm.dbg.declare(metadata %"struct.xalanc_1_10::XalanList<xalanc_1_10::XalanMap<const xalanc_1_10::XPath *, bool, xalanc_1_10::XalanMapKeyTraits<const xalanc_1_10::XPath *> >::Entry>::Node"** %pointer.addr, metadata !5327, metadata !DIExpression()), !dbg !5328
  %this1 = load %"class.xalanc_1_10::XalanList"*, %"class.xalanc_1_10::XalanList"** %this.addr, align 8
  %m_memoryManager = getelementptr inbounds %"class.xalanc_1_10::XalanList", %"class.xalanc_1_10::XalanList"* %this1, i32 0, i32 0, !dbg !5329
  %0 = load %"class.xercesc_2_7::MemoryManager"*, %"class.xercesc_2_7::MemoryManager"** %m_memoryManager, align 8, !dbg !5329
  %1 = load %"struct.xalanc_1_10::XalanList<xalanc_1_10::XalanMap<const xalanc_1_10::XPath *, bool, xalanc_1_10::XalanMapKeyTraits<const xalanc_1_10::XPath *> >::Entry>::Node"*, %"struct.xalanc_1_10::XalanList<xalanc_1_10::XalanMap<const xalanc_1_10::XPath *, bool, xalanc_1_10::XalanMapKeyTraits<const xalanc_1_10::XPath *> >::Entry>::Node"** %pointer.addr, align 8, !dbg !5330
  %2 = bitcast %"struct.xalanc_1_10::XalanList<xalanc_1_10::XalanMap<const xalanc_1_10::XPath *, bool, xalanc_1_10::XalanMapKeyTraits<const xalanc_1_10::XPath *> >::Entry>::Node"* %1 to i8*, !dbg !5330
  %3 = bitcast %"class.xercesc_2_7::MemoryManager"* %0 to void (%"class.xercesc_2_7::MemoryManager"*, i8*)***, !dbg !5331
  %vtable = load void (%"class.xercesc_2_7::MemoryManager"*, i8*)**, void (%"class.xercesc_2_7::MemoryManager"*, i8*)*** %3, align 8, !dbg !5331
  %vfn = getelementptr inbounds void (%"class.xercesc_2_7::MemoryManager"*, i8*)*, void (%"class.xercesc_2_7::MemoryManager"*, i8*)** %vtable, i64 3, !dbg !5331
  %4 = load void (%"class.xercesc_2_7::MemoryManager"*, i8*)*, void (%"class.xercesc_2_7::MemoryManager"*, i8*)** %vfn, align 8, !dbg !5331
  call void %4(%"class.xercesc_2_7::MemoryManager"* %0, i8* %2), !dbg !5331
  ret void, !dbg !5332
}

; Function Attrs: noinline uwtable
define linkonce_odr dso_local void @_ZN11xalanc_1_108XalanMapIPKNS_5XPathEbNS_17XalanMapKeyTraitsIS3_EEEC2ERN11xercesc_2_713MemoryManagerEfmm(%"class.xalanc_1_10::XalanMap"* %this, %"class.xercesc_2_7::MemoryManager"* dereferenceable(8) %theMemoryManager, float %loadFactor, i64 %minBuckets, i64 %eraseThreshold) unnamed_addr #0 comdat align 2 personality i8* bitcast (i32 (...)* @__gxx_personality_v0 to i8*) !dbg !5333 {
entry:
  %this.addr = alloca %"class.xalanc_1_10::XalanMap"*, align 8
  %theMemoryManager.addr = alloca %"class.xercesc_2_7::MemoryManager"*, align 8
  %loadFactor.addr = alloca float, align 4
  %minBuckets.addr = alloca i64, align 8
  %eraseThreshold.addr = alloca i64, align 8
  %exn.slot = alloca i8*
  %ehselector.slot = alloca i32
  store %"class.xalanc_1_10::XalanMap"* %this, %"class.xalanc_1_10::XalanMap"** %this.addr, align 8
  call void @llvm.dbg.declare(metadata %"class.xalanc_1_10::XalanMap"** %this.addr, metadata !5334, metadata !DIExpression()), !dbg !5335
  store %"class.xercesc_2_7::MemoryManager"* %theMemoryManager, %"class.xercesc_2_7::MemoryManager"** %theMemoryManager.addr, align 8
  call void @llvm.dbg.declare(metadata %"class.xercesc_2_7::MemoryManager"** %theMemoryManager.addr, metadata !5336, metadata !DIExpression()), !dbg !5337
  store float %loadFactor, float* %loadFactor.addr, align 4
  call void @llvm.dbg.declare(metadata float* %loadFactor.addr, metadata !5338, metadata !DIExpression()), !dbg !5339
  store i64 %minBuckets, i64* %minBuckets.addr, align 8
  call void @llvm.dbg.declare(metadata i64* %minBuckets.addr, metadata !5340, metadata !DIExpression()), !dbg !5341
  store i64 %eraseThreshold, i64* %eraseThreshold.addr, align 8
  call void @llvm.dbg.declare(metadata i64* %eraseThreshold.addr, metadata !5342, metadata !DIExpression()), !dbg !5343
  %this1 = load %"class.xalanc_1_10::XalanMap"*, %"class.xalanc_1_10::XalanMap"** %this.addr, align 8
  %m_hash = getelementptr inbounds %"class.xalanc_1_10::XalanMap", %"class.xalanc_1_10::XalanMap"* %this1, i32 0, i32 0, !dbg !5344
  %m_equals = getelementptr inbounds %"class.xalanc_1_10::XalanMap", %"class.xalanc_1_10::XalanMap"* %this1, i32 0, i32 1, !dbg !5344
  %m_memoryManager = getelementptr inbounds %"class.xalanc_1_10::XalanMap", %"class.xalanc_1_10::XalanMap"* %this1, i32 0, i32 2, !dbg !5345
  %0 = load %"class.xercesc_2_7::MemoryManager"*, %"class.xercesc_2_7::MemoryManager"** %theMemoryManager.addr, align 8, !dbg !5346
  store %"class.xercesc_2_7::MemoryManager"* %0, %"class.xercesc_2_7::MemoryManager"** %m_memoryManager, align 8, !dbg !5345
  %m_loadFactor = getelementptr inbounds %"class.xalanc_1_10::XalanMap", %"class.xalanc_1_10::XalanMap"* %this1, i32 0, i32 3, !dbg !5347
  %1 = load float, float* %loadFactor.addr, align 4, !dbg !5348
  store float %1, float* %m_loadFactor, align 8, !dbg !5347
  %m_minBuckets = getelementptr inbounds %"class.xalanc_1_10::XalanMap", %"class.xalanc_1_10::XalanMap"* %this1, i32 0, i32 4, !dbg !5349
  %2 = load i64, i64* %minBuckets.addr, align 8, !dbg !5350
  store i64 %2, i64* %m_minBuckets, align 8, !dbg !5349
  %m_size = getelementptr inbounds %"class.xalanc_1_10::XalanMap", %"class.xalanc_1_10::XalanMap"* %this1, i32 0, i32 5, !dbg !5351
  store i64 0, i64* %m_size, align 8, !dbg !5351
  %m_entries = getelementptr inbounds %"class.xalanc_1_10::XalanMap", %"class.xalanc_1_10::XalanMap"* %this1, i32 0, i32 6, !dbg !5352
  %3 = load %"class.xercesc_2_7::MemoryManager"*, %"class.xercesc_2_7::MemoryManager"** %theMemoryManager.addr, align 8, !dbg !5353
  call void @_ZN11xalanc_1_109XalanListINS_8XalanMapIPKNS_5XPathEbNS_17XalanMapKeyTraitsIS4_EEE5EntryEEC2ERN11xercesc_2_713MemoryManagerE(%"class.xalanc_1_10::XalanList"* %m_entries, %"class.xercesc_2_7::MemoryManager"* dereferenceable(8) %3), !dbg !5352
  %m_freeEntries = getelementptr inbounds %"class.xalanc_1_10::XalanMap", %"class.xalanc_1_10::XalanMap"* %this1, i32 0, i32 7, !dbg !5354
  %4 = load %"class.xercesc_2_7::MemoryManager"*, %"class.xercesc_2_7::MemoryManager"** %theMemoryManager.addr, align 8, !dbg !5355
  invoke void @_ZN11xalanc_1_109XalanListINS_8XalanMapIPKNS_5XPathEbNS_17XalanMapKeyTraitsIS4_EEE5EntryEEC2ERN11xercesc_2_713MemoryManagerE(%"class.xalanc_1_10::XalanList"* %m_freeEntries, %"class.xercesc_2_7::MemoryManager"* dereferenceable(8) %4)
          to label %invoke.cont unwind label %lpad, !dbg !5354

invoke.cont:                                      ; preds = %entry
  %m_buckets = getelementptr inbounds %"class.xalanc_1_10::XalanMap", %"class.xalanc_1_10::XalanMap"* %this1, i32 0, i32 8, !dbg !5356
  %5 = load %"class.xercesc_2_7::MemoryManager"*, %"class.xercesc_2_7::MemoryManager"** %theMemoryManager.addr, align 8, !dbg !5357
  invoke void @_ZN11xalanc_1_1011XalanVectorINS0_INS_21XalanListIteratorBaseINS_23XalanListIteratorTraitsINS_8XalanMapIPKNS_5XPathEbNS_17XalanMapKeyTraitsIS6_EEE5EntryEEENS_9XalanListISA_E4NodeEEENS_31MemoryManagedConstructionTraitsISF_EEEENS_32ConstructWithMemoryManagerTraitsISI_EEEC2ERN11xercesc_2_713MemoryManagerEm(%"class.xalanc_1_10::XalanVector.3"* %m_buckets, %"class.xercesc_2_7::MemoryManager"* dereferenceable(8) %5, i64 0)
          to label %invoke.cont3 unwind label %lpad2, !dbg !5356

invoke.cont3:                                     ; preds = %invoke.cont
  %m_eraseCount = getelementptr inbounds %"class.xalanc_1_10::XalanMap", %"class.xalanc_1_10::XalanMap"* %this1, i32 0, i32 9, !dbg !5358
  store i64 0, i64* %m_eraseCount, align 8, !dbg !5358
  %m_eraseThreshold = getelementptr inbounds %"class.xalanc_1_10::XalanMap", %"class.xalanc_1_10::XalanMap"* %this1, i32 0, i32 10, !dbg !5359
  %6 = load i64, i64* %eraseThreshold.addr, align 8, !dbg !5360
  store i64 %6, i64* %m_eraseThreshold, align 8, !dbg !5359
  ret void, !dbg !5361

lpad:                                             ; preds = %entry
  %7 = landingpad { i8*, i32 }
          cleanup, !dbg !5361
  %8 = extractvalue { i8*, i32 } %7, 0, !dbg !5361
  store i8* %8, i8** %exn.slot, align 8, !dbg !5361
  %9 = extractvalue { i8*, i32 } %7, 1, !dbg !5361
  store i32 %9, i32* %ehselector.slot, align 4, !dbg !5361
  br label %ehcleanup, !dbg !5361

lpad2:                                            ; preds = %invoke.cont
  %10 = landingpad { i8*, i32 }
          cleanup, !dbg !5361
  %11 = extractvalue { i8*, i32 } %10, 0, !dbg !5361
  store i8* %11, i8** %exn.slot, align 8, !dbg !5361
  %12 = extractvalue { i8*, i32 } %10, 1, !dbg !5361
  store i32 %12, i32* %ehselector.slot, align 4, !dbg !5361
  call void @_ZN11xalanc_1_109XalanListINS_8XalanMapIPKNS_5XPathEbNS_17XalanMapKeyTraitsIS4_EEE5EntryEED2Ev(%"class.xalanc_1_10::XalanList"* %m_freeEntries) #8, !dbg !5362
  br label %ehcleanup, !dbg !5362

ehcleanup:                                        ; preds = %lpad2, %lpad
  call void @_ZN11xalanc_1_109XalanListINS_8XalanMapIPKNS_5XPathEbNS_17XalanMapKeyTraitsIS4_EEE5EntryEED2Ev(%"class.xalanc_1_10::XalanList"* %m_entries) #8, !dbg !5362
  br label %eh.resume, !dbg !5362

eh.resume:                                        ; preds = %ehcleanup
  %exn = load i8*, i8** %exn.slot, align 8, !dbg !5362
  %sel = load i32, i32* %ehselector.slot, align 4, !dbg !5362
  %lpad.val = insertvalue { i8*, i32 } undef, i8* %exn, 0, !dbg !5362
  %lpad.val4 = insertvalue { i8*, i32 } %lpad.val, i32 %sel, 1, !dbg !5362
  resume { i8*, i32 } %lpad.val4, !dbg !5362
}

; Function Attrs: noinline nounwind uwtable
define linkonce_odr dso_local void @_ZN11xalanc_1_109XalanListINS_8XalanMapIPKNS_5XPathEbNS_17XalanMapKeyTraitsIS4_EEE5EntryEEC2ERN11xercesc_2_713MemoryManagerE(%"class.xalanc_1_10::XalanList"* %this, %"class.xercesc_2_7::MemoryManager"* dereferenceable(8) %theManager) unnamed_addr #4 comdat align 2 !dbg !5364 {
entry:
  %this.addr = alloca %"class.xalanc_1_10::XalanList"*, align 8
  %theManager.addr = alloca %"class.xercesc_2_7::MemoryManager"*, align 8
  store %"class.xalanc_1_10::XalanList"* %this, %"class.xalanc_1_10::XalanList"** %this.addr, align 8
  call void @llvm.dbg.declare(metadata %"class.xalanc_1_10::XalanList"** %this.addr, metadata !5365, metadata !DIExpression()), !dbg !5366
  store %"class.xercesc_2_7::MemoryManager"* %theManager, %"class.xercesc_2_7::MemoryManager"** %theManager.addr, align 8
  call void @llvm.dbg.declare(metadata %"class.xercesc_2_7::MemoryManager"** %theManager.addr, metadata !5367, metadata !DIExpression()), !dbg !5368
  %this1 = load %"class.xalanc_1_10::XalanList"*, %"class.xalanc_1_10::XalanList"** %this.addr, align 8
  %m_memoryManager = getelementptr inbounds %"class.xalanc_1_10::XalanList", %"class.xalanc_1_10::XalanList"* %this1, i32 0, i32 0, !dbg !5369
  %0 = load %"class.xercesc_2_7::MemoryManager"*, %"class.xercesc_2_7::MemoryManager"** %theManager.addr, align 8, !dbg !5370
  store %"class.xercesc_2_7::MemoryManager"* %0, %"class.xercesc_2_7::MemoryManager"** %m_memoryManager, align 8, !dbg !5369
  %m_listHead = getelementptr inbounds %"class.xalanc_1_10::XalanList", %"class.xalanc_1_10::XalanList"* %this1, i32 0, i32 1, !dbg !5371
  store %"struct.xalanc_1_10::XalanList<xalanc_1_10::XalanMap<const xalanc_1_10::XPath *, bool, xalanc_1_10::XalanMapKeyTraits<const xalanc_1_10::XPath *> >::Entry>::Node"* null, %"struct.xalanc_1_10::XalanList<xalanc_1_10::XalanMap<const xalanc_1_10::XPath *, bool, xalanc_1_10::XalanMapKeyTraits<const xalanc_1_10::XPath *> >::Entry>::Node"** %m_listHead, align 8, !dbg !5371
