; ModuleID = 'DTDAttDefList.cpp'
source_filename = "DTDAttDefList.cpp"
target datalayout = "e-m:e-p270:32:32-p271:32:32-p272:64:64-i64:64-f80:128-n8:16:32:64-S128"
target triple = "x86_64-unknown-linux-gnu"

%"class.xercesc_2_7::XProtoType" = type { i8*, %"class.xercesc_2_7::XSerializable"* (%"class.xercesc_2_7::MemoryManager"*)* }
%"class.xercesc_2_7::XSerializable" = type { i32 (...)** }
%"class.xercesc_2_7::MemoryManager" = type { i32 (...)** }
%"class.xercesc_2_7::DTDAttDefList" = type { %"class.xercesc_2_7::XMLAttDefList", %"class.xercesc_2_7::RefHashTableOfEnumerator"*, %"class.xercesc_2_7::RefHashTableOf.1"*, %"class.xercesc_2_7::DTDAttDef"**, i32, i32 }
%"class.xercesc_2_7::XMLAttDefList" = type { %"class.xercesc_2_7::XSerializable", %"class.xercesc_2_7::MemoryManager"* }
%"class.xercesc_2_7::RefHashTableOfEnumerator" = type { %"class.xercesc_2_7::XMLEnumerator", i8, %"struct.xercesc_2_7::RefHashTableBucketElem.0"*, i32, %"class.xercesc_2_7::RefHashTableOf.1"*, %"class.xercesc_2_7::MemoryManager"* }
%"class.xercesc_2_7::XMLEnumerator" = type { i32 (...)** }
%"struct.xercesc_2_7::RefHashTableBucketElem.0" = type { %"class.xercesc_2_7::DTDAttDef"*, %"struct.xercesc_2_7::RefHashTableBucketElem.0"*, i8* }
%"class.xercesc_2_7::DTDAttDef" = type { %"class.xercesc_2_7::XMLAttDef", i32, i16* }
%"class.xercesc_2_7::XMLAttDef" = type { %"class.xercesc_2_7::XSerializable", i32, i32, i32, i8, i8, i32, i16*, i16*, %"class.xercesc_2_7::MemoryManager"* }
%"class.xercesc_2_7::RefHashTableOf.1" = type { %"class.xercesc_2_7::MemoryManager"*, i8, %"struct.xercesc_2_7::RefHashTableBucketElem.0"**, i32, i32, i32, %"class.xercesc_2_7::HashBase"* }
%"class.xercesc_2_7::HashBase" = type { i32 (...)** }
%"class.xercesc_2_7::XMLDeleter" = type { i32 (...)** }
%"class.xercesc_2_7::XMLRefInfo" = type { %"class.xercesc_2_7::XSerializable", i8, i8, i16*, %"class.xercesc_2_7::MemoryManager"* }
%"class.xercesc_2_7::ContentSpecNode" = type { %"class.xercesc_2_7::XSerializable", %"class.xercesc_2_7::MemoryManager"*, %"class.xercesc_2_7::QName"*, %"class.xercesc_2_7::XMLElementDecl"*, %"class.xercesc_2_7::ContentSpecNode"*, %"class.xercesc_2_7::ContentSpecNode"*, i32, i8, i8, i32, i32 }
%"class.xercesc_2_7::QName" = type { %"class.xercesc_2_7::XSerializable", i32, i32, i32, i32, i16*, i16*, i16*, %"class.xercesc_2_7::MemoryManager"* }
%"class.xercesc_2_7::XMLElementDecl" = type <{ %"class.xercesc_2_7::XSerializable", %"class.xercesc_2_7::MemoryManager"*, %"class.xercesc_2_7::QName"*, i32, i32, i8, [7 x i8] }>
%"class.xercesc_2_7::XMLEntityDecl" = type { %"class.xercesc_2_7::XSerializable", i32, i32, i16*, i16*, i16*, i16*, i16*, i16*, %"class.xercesc_2_7::MemoryManager"* }
%"class.xercesc_2_7::DTDEntityDecl" = type <{ %"class.xercesc_2_7::XMLEntityDecl", i8, i8, i8, [5 x i8] }>
%"class.xercesc_2_7::XPathScanner" = type { i32 (...)**, i32, i32, i32, i32, i32, i32, i32, i32, i32, i32, i32, i32, i32, i32, i32, i32, i32, i32, i32, i32, i32, %"class.xercesc_2_7::XMLStringPool"* }
%"class.xercesc_2_7::XMLStringPool" = type { %"class.xercesc_2_7::XSerializable", %"class.xercesc_2_7::MemoryManager"*, %"struct.xercesc_2_7::XMLStringPool::PoolElem"**, %"class.xercesc_2_7::RefHashTableOf"*, i32, i32 }
%"struct.xercesc_2_7::XMLStringPool::PoolElem" = type { i32, i16* }
%"class.xercesc_2_7::RefHashTableOf" = type { %"class.xercesc_2_7::MemoryManager"*, i8, %"struct.xercesc_2_7::RefHashTableBucketElem"**, i32, i32, i32, %"class.xercesc_2_7::HashBase"* }
%"struct.xercesc_2_7::RefHashTableBucketElem" = type { %"struct.xercesc_2_7::XMLStringPool::PoolElem"*, %"struct.xercesc_2_7::RefHashTableBucketElem"*, i8* }
%"class.xercesc_2_7::ValueVectorOf" = type { i8, i32, i32, i32*, %"class.xercesc_2_7::MemoryManager"* }
%"class.xercesc_2_7::XMemory" = type { i8 }
%"class.xercesc_2_7::NullPointerException" = type { %"class.xercesc_2_7::XMLException" }
%"class.xercesc_2_7::XMLException" = type { i32 (...)**, i32, i8*, i32, i16*, %"class.xercesc_2_7::MemoryManager"* }
%"class.xercesc_2_7::ArrayIndexOutOfBoundsException" = type { %"class.xercesc_2_7::XMLException" }
%"class.xercesc_2_7::XSerializeEngine" = type <{ i16, i16, [4 x i8], %"class.xercesc_2_7::XMLGrammarPool"*, %"class.xercesc_2_7::BinInputStream"*, %"class.xercesc_2_7::BinOutputStream"*, i64, i64, i8*, i8*, i8*, i8*, %"class.xercesc_2_7::RefHashTableOf.2"*, %"class.xercesc_2_7::ValueVectorOf.3"*, i32, [4 x i8] }>
%"class.xercesc_2_7::XMLGrammarPool" = type opaque
%"class.xercesc_2_7::BinInputStream" = type opaque
%"class.xercesc_2_7::BinOutputStream" = type opaque
%"class.xercesc_2_7::RefHashTableOf.2" = type opaque
%"class.xercesc_2_7::ValueVectorOf.3" = type opaque
%"class.xercesc_2_7::NoSuchElementException" = type { %"class.xercesc_2_7::XMLException" }

$_ZN11xercesc_2_710XMLDeleterD0Ev = comdat any

$_ZN11xercesc_2_710XMLDeleterD2Ev = comdat any

$_ZN11xercesc_2_713XMLAttDefListD0Ev = comdat any

$__clang_call_terminate = comdat any

$_ZN11xercesc_2_710XMLRefInfoD0Ev = comdat any

$_ZN11xercesc_2_710XMLRefInfoD2Ev = comdat any

$_ZN11xercesc_2_715ContentSpecNodeD0Ev = comdat any

$_ZN11xercesc_2_715ContentSpecNodeD2Ev = comdat any

$_ZN11xercesc_2_713DTDEntityDeclD0Ev = comdat any

$_ZN11xercesc_2_713DTDEntityDeclD2Ev = comdat any

$_ZN11xercesc_2_712XPathScanner8addTokenEPNS_13ValueVectorOfIiEEi = comdat any

$_ZN11xercesc_2_713ValueVectorOfIiE10addElementERKi = comdat any

$_ZN11xercesc_2_713XMLAttDefListC2EPNS_13MemoryManagerE = comdat any

$_ZNK11xercesc_2_713XMLAttDefList16getMemoryManagerEv = comdat any

$_ZN11xercesc_2_724RefHashTableOfEnumeratorINS_9DTDAttDefEEC2EPNS_14RefHashTableOfIS1_EEbPNS_13MemoryManagerE = comdat any

$_ZNK11xercesc_2_714RefHashTableOfINS_9DTDAttDefEE7isEmptyEv = comdat any

$_ZN11xercesc_2_714RefHashTableOfINS_9DTDAttDefEE3getEPKv = comdat any

$_ZN11xercesc_2_730ArrayIndexOutOfBoundsExceptionC2EPKcjNS_10XMLExcepts5CodesEPNS_13MemoryManagerE = comdat any

$_ZN11xercesc_2_730ArrayIndexOutOfBoundsExceptionD2Ev = comdat any

$_ZNK11xercesc_2_716XSerializeEngine9isStoringEv = comdat any

$_ZN11xercesc_2_713XMLAttDefListD2Ev = comdat any

$_ZNK11xercesc_2_713DTDEntityDecl22getDeclaredInIntSubsetEv = comdat any

$_ZNK11xercesc_2_713DTDEntityDecl14getIsParameterEv = comdat any

$_ZNK11xercesc_2_713DTDEntityDecl16getIsSpecialCharEv = comdat any

$_ZN11xercesc_2_712XPathScannerD2Ev = comdat any

$_ZN11xercesc_2_712XPathScannerD0Ev = comdat any

$_ZN11xercesc_2_713XSerializableC2Ev = comdat any

$_ZN11xercesc_2_77XMemoryC2Ev = comdat any

$_ZN11xercesc_2_713XSerializableD2Ev = comdat any

$_ZN11xercesc_2_713XSerializableD0Ev = comdat any

$_ZN11xercesc_2_730ArrayIndexOutOfBoundsExceptionD0Ev = comdat any

$_ZNK11xercesc_2_730ArrayIndexOutOfBoundsException7getTypeEv = comdat any

$_ZNK11xercesc_2_730ArrayIndexOutOfBoundsException9duplicateEv = comdat any

$_ZN11xercesc_2_730ArrayIndexOutOfBoundsExceptionC2ERKS0_ = comdat any

$_ZN11xercesc_2_713ValueVectorOfIiE19ensureExtraCapacityEj = comdat any

$_ZN11xercesc_2_713XMLEnumeratorINS_9DTDAttDefEEC2Ev = comdat any

$_ZN11xercesc_2_720NullPointerExceptionC2EPKcjNS_10XMLExcepts5CodesEPNS_13MemoryManagerE = comdat any

$_ZN11xercesc_2_720NullPointerExceptionD2Ev = comdat any

$_ZN11xercesc_2_724RefHashTableOfEnumeratorINS_9DTDAttDefEE8findNextEv = comdat any

$_ZN11xercesc_2_724RefHashTableOfEnumeratorINS_9DTDAttDefEED2Ev = comdat any

$_ZN11xercesc_2_724RefHashTableOfEnumeratorINS_9DTDAttDefEED0Ev = comdat any

$_ZNK11xercesc_2_724RefHashTableOfEnumeratorINS_9DTDAttDefEE15hasMoreElementsEv = comdat any

$_ZN11xercesc_2_724RefHashTableOfEnumeratorINS_9DTDAttDefEE11nextElementEv = comdat any

$_ZN11xercesc_2_724RefHashTableOfEnumeratorINS_9DTDAttDefEE5ResetEv = comdat any

$_ZN11xercesc_2_713XMLEnumeratorINS_9DTDAttDefEED2Ev = comdat any

$_ZN11xercesc_2_713XMLEnumeratorINS_9DTDAttDefEED0Ev = comdat any

$_ZN11xercesc_2_720NullPointerExceptionD0Ev = comdat any

$_ZNK11xercesc_2_720NullPointerException7getTypeEv = comdat any

$_ZNK11xercesc_2_720NullPointerException9duplicateEv = comdat any

$_ZN11xercesc_2_720NullPointerExceptionC2ERKS0_ = comdat any

$_ZN11xercesc_2_714RefHashTableOfINS_9DTDAttDefEED2Ev = comdat any

$_ZN11xercesc_2_714RefHashTableOfINS_9DTDAttDefEE7cleanupEv = comdat any

$_ZN11xercesc_2_714RefHashTableOfINS_9DTDAttDefEE9removeAllEv = comdat any

$_ZN11xercesc_2_722NoSuchElementExceptionC2EPKcjNS_10XMLExcepts5CodesEPNS_13MemoryManagerE = comdat any

$_ZN11xercesc_2_722NoSuchElementExceptionD2Ev = comdat any

$_ZN11xercesc_2_722NoSuchElementExceptionD0Ev = comdat any

$_ZNK11xercesc_2_722NoSuchElementException7getTypeEv = comdat any

$_ZNK11xercesc_2_722NoSuchElementException9duplicateEv = comdat any

$_ZN11xercesc_2_722NoSuchElementExceptionC2ERKS0_ = comdat any

$_ZN11xercesc_2_714RefHashTableOfINS_9DTDAttDefEE14findBucketElemEPKvRj = comdat any

$_ZTVN11xercesc_2_710XMLRefInfoE = comdat any

$_ZTVN11xercesc_2_715ContentSpecNodeE = comdat any

$_ZTSN11xercesc_2_730ArrayIndexOutOfBoundsExceptionE = comdat any

$_ZTIN11xercesc_2_730ArrayIndexOutOfBoundsExceptionE = comdat any

$_ZTVN11xercesc_2_710XMLDeleterE = comdat any

$_ZTSN11xercesc_2_710XMLDeleterE = comdat any

$_ZTIN11xercesc_2_710XMLDeleterE = comdat any

$_ZTVN11xercesc_2_713XMLAttDefListE = comdat any

$_ZTSN11xercesc_2_713XMLAttDefListE = comdat any

$_ZTSN11xercesc_2_713XSerializableE = comdat any

$_ZTIN11xercesc_2_713XSerializableE = comdat any

$_ZTSN11xercesc_2_77XMemoryE = comdat any

$_ZTIN11xercesc_2_77XMemoryE = comdat any

$_ZTIN11xercesc_2_713XMLAttDefListE = comdat any

$_ZTSN11xercesc_2_710XMLRefInfoE = comdat any

$_ZTIN11xercesc_2_710XMLRefInfoE = comdat any

$_ZTSN11xercesc_2_715ContentSpecNodeE = comdat any

$_ZTIN11xercesc_2_715ContentSpecNodeE = comdat any

$_ZTVN11xercesc_2_713DTDEntityDeclE = comdat any

$_ZTSN11xercesc_2_713DTDEntityDeclE = comdat any

$_ZTIN11xercesc_2_713DTDEntityDeclE = comdat any

$_ZTVN11xercesc_2_712XPathScannerE = comdat any

$_ZTSN11xercesc_2_712XPathScannerE = comdat any

$_ZTIN11xercesc_2_712XPathScannerE = comdat any

$_ZTVN11xercesc_2_713XSerializableE = comdat any

$_ZTVN11xercesc_2_730ArrayIndexOutOfBoundsExceptionE = comdat any

$_ZTVN11xercesc_2_724RefHashTableOfEnumeratorINS_9DTDAttDefEEE = comdat any

$_ZTSN11xercesc_2_720NullPointerExceptionE = comdat any

$_ZTIN11xercesc_2_720NullPointerExceptionE = comdat any

$_ZTSN11xercesc_2_724RefHashTableOfEnumeratorINS_9DTDAttDefEEE = comdat any

$_ZTSN11xercesc_2_713XMLEnumeratorINS_9DTDAttDefEEE = comdat any

$_ZTIN11xercesc_2_713XMLEnumeratorINS_9DTDAttDefEEE = comdat any

$_ZTIN11xercesc_2_724RefHashTableOfEnumeratorINS_9DTDAttDefEEE = comdat any

$_ZTVN11xercesc_2_713XMLEnumeratorINS_9DTDAttDefEEE = comdat any

$_ZTVN11xercesc_2_720NullPointerExceptionE = comdat any

$_ZTSN11xercesc_2_722NoSuchElementExceptionE = comdat any

$_ZTIN11xercesc_2_722NoSuchElementExceptionE = comdat any

$_ZTVN11xercesc_2_722NoSuchElementExceptionE = comdat any

@_ZTVN11xercesc_2_710XMLRefInfoE = linkonce_odr dso_local unnamed_addr constant { [7 x i8*] } { [7 x i8*] [i8* null, i8* bitcast ({ i8*, i8*, i32, i32, i8*, i64, i8*, i64 }* @_ZTIN11xercesc_2_710XMLRefInfoE to i8*), i8* bitcast (void (%"class.xercesc_2_7::XMLRefInfo"*)* @_ZN11xercesc_2_710XMLRefInfoD2Ev to i8*), i8* bitcast (void (%"class.xercesc_2_7::XMLRefInfo"*)* @_ZN11xercesc_2_710XMLRefInfoD0Ev to i8*), i8* bitcast (i1 (%"class.xercesc_2_7::XMLRefInfo"*)* @_ZNK11xercesc_2_710XMLRefInfo14isSerializableEv to i8*), i8* bitcast (void (%"class.xercesc_2_7::XMLRefInfo"*, %"class.xercesc_2_7::XSerializeEngine"*)* @_ZN11xercesc_2_710XMLRefInfo9serializeERNS_16XSerializeEngineE to i8*), i8* bitcast (%"class.xercesc_2_7::XProtoType"* (%"class.xercesc_2_7::XMLRefInfo"*)* @_ZNK11xercesc_2_710XMLRefInfo12getProtoTypeEv to i8*)] }, comdat, align 8
@_ZTVN11xercesc_2_715ContentSpecNodeE = linkonce_odr dso_local unnamed_addr constant { [7 x i8*] } { [7 x i8*] [i8* null, i8* bitcast ({ i8*, i8*, i32, i32, i8*, i64, i8*, i64 }* @_ZTIN11xercesc_2_715ContentSpecNodeE to i8*), i8* bitcast (void (%"class.xercesc_2_7::ContentSpecNode"*)* @_ZN11xercesc_2_715ContentSpecNodeD2Ev to i8*), i8* bitcast (void (%"class.xercesc_2_7::ContentSpecNode"*)* @_ZN11xercesc_2_715ContentSpecNodeD0Ev to i8*), i8* bitcast (i1 (%"class.xercesc_2_7::ContentSpecNode"*)* @_ZNK11xercesc_2_715ContentSpecNode14isSerializableEv to i8*), i8* bitcast (void (%"class.xercesc_2_7::ContentSpecNode"*, %"class.xercesc_2_7::XSerializeEngine"*)* @_ZN11xercesc_2_715ContentSpecNode9serializeERNS_16XSerializeEngineE to i8*), i8* bitcast (%"class.xercesc_2_7::XProtoType"* (%"class.xercesc_2_7::ContentSpecNode"*)* @_ZNK11xercesc_2_715ContentSpecNode12getProtoTypeEv to i8*)] }, comdat, align 8
@_ZTVN11xercesc_2_713DTDAttDefListE = dso_local unnamed_addr constant { [18 x i8*] } { [18 x i8*] [i8* null, i8* bitcast ({ i8*, i8*, i8* }* @_ZTIN11xercesc_2_713DTDAttDefListE to i8*), i8* bitcast (void (%"class.xercesc_2_7::DTDAttDefList"*)* @_ZN11xercesc_2_713DTDAttDefListD1Ev to i8*), i8* bitcast (void (%"class.xercesc_2_7::DTDAttDefList"*)* @_ZN11xercesc_2_713DTDAttDefListD0Ev to i8*), i8* bitcast (i1 (%"class.xercesc_2_7::DTDAttDefList"*)* @_ZNK11xercesc_2_713DTDAttDefList14isSerializableEv to i8*), i8* bitcast (void (%"class.xercesc_2_7::DTDAttDefList"*, %"class.xercesc_2_7::XSerializeEngine"*)* @_ZN11xercesc_2_713DTDAttDefList9serializeERNS_16XSerializeEngineE to i8*), i8* bitcast (%"class.xercesc_2_7::XProtoType"* (%"class.xercesc_2_7::DTDAttDefList"*)* @_ZNK11xercesc_2_713DTDAttDefList12getProtoTypeEv to i8*), i8* bitcast (i1 (%"class.xercesc_2_7::DTDAttDefList"*)* @_ZNK11xercesc_2_713DTDAttDefList15hasMoreElementsEv to i8*), i8* bitcast (i1 (%"class.xercesc_2_7::DTDAttDefList"*)* @_ZNK11xercesc_2_713DTDAttDefList7isEmptyEv to i8*), i8* bitcast (%"class.xercesc_2_7::XMLAttDef"* (%"class.xercesc_2_7::DTDAttDefList"*, i64, i16*)* @_ZN11xercesc_2_713DTDAttDefList10findAttDefEmPKt to i8*), i8* bitcast (%"class.xercesc_2_7::XMLAttDef"* (%"class.xercesc_2_7::DTDAttDefList"*, i64, i16*)* @_ZNK11xercesc_2_713DTDAttDefList10findAttDefEmPKt to i8*), i8* bitcast (%"class.xercesc_2_7::XMLAttDef"* (%"class.xercesc_2_7::DTDAttDefList"*, i16*, i16*)* @_ZN11xercesc_2_713DTDAttDefList10findAttDefEPKtS2_ to i8*), i8* bitcast (%"class.xercesc_2_7::XMLAttDef"* (%"class.xercesc_2_7::DTDAttDefList"*, i16*, i16*)* @_ZNK11xercesc_2_713DTDAttDefList10findAttDefEPKtS2_ to i8*), i8* bitcast (%"class.xercesc_2_7::XMLAttDef"* (%"class.xercesc_2_7::DTDAttDefList"*)* @_ZN11xercesc_2_713DTDAttDefList11nextElementEv to i8*), i8* bitcast (void (%"class.xercesc_2_7::DTDAttDefList"*)* @_ZN11xercesc_2_713DTDAttDefList5ResetEv to i8*), i8* bitcast (i32 (%"class.xercesc_2_7::DTDAttDefList"*)* @_ZNK11xercesc_2_713DTDAttDefList14getAttDefCountEv to i8*), i8* bitcast (%"class.xercesc_2_7::XMLAttDef"* (%"class.xercesc_2_7::DTDAttDefList"*, i32)* @_ZN11xercesc_2_713DTDAttDefList9getAttDefEj to i8*), i8* bitcast (%"class.xercesc_2_7::XMLAttDef"* (%"class.xercesc_2_7::DTDAttDefList"*, i32)* @_ZNK11xercesc_2_713DTDAttDefList9getAttDefEj to i8*)] }, align 8
@.str = private unnamed_addr constant [18 x i8] c"DTDAttDefList.cpp\00", align 1
@_ZTVN10__cxxabiv120__si_class_type_infoE = external dso_local global i8*
@_ZTSN11xercesc_2_730ArrayIndexOutOfBoundsExceptionE = linkonce_odr dso_local constant [48 x i8] c"N11xercesc_2_730ArrayIndexOutOfBoundsExceptionE\00", comdat, align 1
@_ZTIN11xercesc_2_712XMLExceptionE = external dso_local constant i8*
@_ZTIN11xercesc_2_730ArrayIndexOutOfBoundsExceptionE = linkonce_odr dso_local constant { i8*, i8*, i8* } { i8* bitcast (i8** getelementptr inbounds (i8*, i8** @_ZTVN10__cxxabiv120__si_class_type_infoE, i64 2) to i8*), i8* getelementptr inbounds ([48 x i8], [48 x i8]* @_ZTSN11xercesc_2_730ArrayIndexOutOfBoundsExceptionE, i32 0, i32 0), i8* bitcast (i8** @_ZTIN11xercesc_2_712XMLExceptionE to i8*) }, comdat, align 8
@.str.1 = private unnamed_addr constant [14 x i8] c"DTDAttDefList\00", align 1
@_ZN11xercesc_2_713DTDAttDefList18classDTDAttDefListE = dso_local global %"class.xercesc_2_7::XProtoType" { i8* getelementptr inbounds ([14 x i8], [14 x i8]* @.str.1, i32 0, i32 0), %"class.xercesc_2_7::XSerializable"* (%"class.xercesc_2_7::MemoryManager"*)* @_ZN11xercesc_2_713DTDAttDefList12createObjectEPNS_13MemoryManagerE }, align 8, !dbg !0
@_ZTVN11xercesc_2_710XMLDeleterE = linkonce_odr dso_local unnamed_addr constant { [4 x i8*] } { [4 x i8*] [i8* null, i8* bitcast ({ i8*, i8* }* @_ZTIN11xercesc_2_710XMLDeleterE to i8*), i8* bitcast (void (%"class.xercesc_2_7::XMLDeleter"*)* @_ZN11xercesc_2_710XMLDeleterD2Ev to i8*), i8* bitcast (void (%"class.xercesc_2_7::XMLDeleter"*)* @_ZN11xercesc_2_710XMLDeleterD0Ev to i8*)] }, comdat, align 8
@_ZTVN10__cxxabiv117__class_type_infoE = external dso_local global i8*
@_ZTSN11xercesc_2_710XMLDeleterE = linkonce_odr dso_local constant [28 x i8] c"N11xercesc_2_710XMLDeleterE\00", comdat, align 1
@_ZTIN11xercesc_2_710XMLDeleterE = linkonce_odr dso_local constant { i8*, i8* } { i8* bitcast (i8** getelementptr inbounds (i8*, i8** @_ZTVN10__cxxabiv117__class_type_infoE, i64 2) to i8*), i8* getelementptr inbounds ([28 x i8], [28 x i8]* @_ZTSN11xercesc_2_710XMLDeleterE, i32 0, i32 0) }, comdat, align 8
@_ZTVN11xercesc_2_713XMLAttDefListE = linkonce_odr dso_local unnamed_addr constant { [18 x i8*] } { [18 x i8*] [i8* null, i8* bitcast ({ i8*, i8*, i32, i32, i8*, i64, i8*, i64 }* @_ZTIN11xercesc_2_713XMLAttDefListE to i8*), i8* bitcast (void (%"class.xercesc_2_7::XMLAttDefList"*)* @_ZN11xercesc_2_713XMLAttDefListD2Ev to i8*), i8* bitcast (void (%"class.xercesc_2_7::XMLAttDefList"*)* @_ZN11xercesc_2_713XMLAttDefListD0Ev to i8*), i8* bitcast (i1 (%"class.xercesc_2_7::XMLAttDefList"*)* @_ZNK11xercesc_2_713XMLAttDefList14isSerializableEv to i8*), i8* bitcast (void (%"class.xercesc_2_7::XMLAttDefList"*, %"class.xercesc_2_7::XSerializeEngine"*)* @_ZN11xercesc_2_713XMLAttDefList9serializeERNS_16XSerializeEngineE to i8*), i8* bitcast (%"class.xercesc_2_7::XProtoType"* (%"class.xercesc_2_7::XMLAttDefList"*)* @_ZNK11xercesc_2_713XMLAttDefList12getProtoTypeEv to i8*), i8* bitcast (void ()* @__cxa_pure_virtual to i8*), i8* bitcast (void ()* @__cxa_pure_virtual to i8*), i8* bitcast (void ()* @__cxa_pure_virtual to i8*), i8* bitcast (void ()* @__cxa_pure_virtual to i8*), i8* bitcast (void ()* @__cxa_pure_virtual to i8*), i8* bitcast (void ()* @__cxa_pure_virtual to i8*), i8* bitcast (void ()* @__cxa_pure_virtual to i8*), i8* bitcast (void ()* @__cxa_pure_virtual to i8*), i8* bitcast (void ()* @__cxa_pure_virtual to i8*), i8* bitcast (void ()* @__cxa_pure_virtual to i8*), i8* bitcast (void ()* @__cxa_pure_virtual to i8*)] }, comdat, align 8
@_ZTVN10__cxxabiv121__vmi_class_type_infoE = external dso_local global i8*
@_ZTSN11xercesc_2_713XMLAttDefListE = linkonce_odr dso_local constant [31 x i8] c"N11xercesc_2_713XMLAttDefListE\00", comdat, align 1
@_ZTSN11xercesc_2_713XSerializableE = linkonce_odr dso_local constant [31 x i8] c"N11xercesc_2_713XSerializableE\00", comdat, align 1
@_ZTIN11xercesc_2_713XSerializableE = linkonce_odr dso_local constant { i8*, i8* } { i8* bitcast (i8** getelementptr inbounds (i8*, i8** @_ZTVN10__cxxabiv117__class_type_infoE, i64 2) to i8*), i8* getelementptr inbounds ([31 x i8], [31 x i8]* @_ZTSN11xercesc_2_713XSerializableE, i32 0, i32 0) }, comdat, align 8
@_ZTSN11xercesc_2_77XMemoryE = linkonce_odr dso_local constant [24 x i8] c"N11xercesc_2_77XMemoryE\00", comdat, align 1
@_ZTIN11xercesc_2_77XMemoryE = linkonce_odr dso_local constant { i8*, i8* } { i8* bitcast (i8** getelementptr inbounds (i8*, i8** @_ZTVN10__cxxabiv117__class_type_infoE, i64 2) to i8*), i8* getelementptr inbounds ([24 x i8], [24 x i8]* @_ZTSN11xercesc_2_77XMemoryE, i32 0, i32 0) }, comdat, align 8
@_ZTIN11xercesc_2_713XMLAttDefListE = linkonce_odr dso_local constant { i8*, i8*, i32, i32, i8*, i64, i8*, i64 } { i8* bitcast (i8** getelementptr inbounds (i8*, i8** @_ZTVN10__cxxabiv121__vmi_class_type_infoE, i64 2) to i8*), i8* getelementptr inbounds ([31 x i8], [31 x i8]* @_ZTSN11xercesc_2_713XMLAttDefListE, i32 0, i32 0), i32 0, i32 2, i8* bitcast ({ i8*, i8* }* @_ZTIN11xercesc_2_713XSerializableE to i8*), i64 2, i8* bitcast ({ i8*, i8* }* @_ZTIN11xercesc_2_77XMemoryE to i8*), i64 2 }, comdat, align 8
@_ZTSN11xercesc_2_710XMLRefInfoE = linkonce_odr dso_local constant [28 x i8] c"N11xercesc_2_710XMLRefInfoE\00", comdat, align 1
@_ZTIN11xercesc_2_710XMLRefInfoE = linkonce_odr dso_local constant { i8*, i8*, i32, i32, i8*, i64, i8*, i64 } { i8* bitcast (i8** getelementptr inbounds (i8*, i8** @_ZTVN10__cxxabiv121__vmi_class_type_infoE, i64 2) to i8*), i8* getelementptr inbounds ([28 x i8], [28 x i8]* @_ZTSN11xercesc_2_710XMLRefInfoE, i32 0, i32 0), i32 0, i32 2, i8* bitcast ({ i8*, i8* }* @_ZTIN11xercesc_2_713XSerializableE to i8*), i64 2, i8* bitcast ({ i8*, i8* }* @_ZTIN11xercesc_2_77XMemoryE to i8*), i64 2 }, comdat, align 8
@_ZTSN11xercesc_2_715ContentSpecNodeE = linkonce_odr dso_local constant [33 x i8] c"N11xercesc_2_715ContentSpecNodeE\00", comdat, align 1
@_ZTIN11xercesc_2_715ContentSpecNodeE = linkonce_odr dso_local constant { i8*, i8*, i32, i32, i8*, i64, i8*, i64 } { i8* bitcast (i8** getelementptr inbounds (i8*, i8** @_ZTVN10__cxxabiv121__vmi_class_type_infoE, i64 2) to i8*), i8* getelementptr inbounds ([33 x i8], [33 x i8]* @_ZTSN11xercesc_2_715ContentSpecNodeE, i32 0, i32 0), i32 0, i32 2, i8* bitcast ({ i8*, i8* }* @_ZTIN11xercesc_2_713XSerializableE to i8*), i64 2, i8* bitcast ({ i8*, i8* }* @_ZTIN11xercesc_2_77XMemoryE to i8*), i64 2 }, comdat, align 8
@_ZTVN11xercesc_2_713DTDEntityDeclE = linkonce_odr dso_local unnamed_addr constant { [10 x i8*] } { [10 x i8*] [i8* null, i8* bitcast ({ i8*, i8*, i8* }* @_ZTIN11xercesc_2_713DTDEntityDeclE to i8*), i8* bitcast (void (%"class.xercesc_2_7::DTDEntityDecl"*)* @_ZN11xercesc_2_713DTDEntityDeclD2Ev to i8*), i8* bitcast (void (%"class.xercesc_2_7::DTDEntityDecl"*)* @_ZN11xercesc_2_713DTDEntityDeclD0Ev to i8*), i8* bitcast (i1 (%"class.xercesc_2_7::DTDEntityDecl"*)* @_ZNK11xercesc_2_713DTDEntityDecl14isSerializableEv to i8*), i8* bitcast (void (%"class.xercesc_2_7::DTDEntityDecl"*, %"class.xercesc_2_7::XSerializeEngine"*)* @_ZN11xercesc_2_713DTDEntityDecl9serializeERNS_16XSerializeEngineE to i8*), i8* bitcast (%"class.xercesc_2_7::XProtoType"* (%"class.xercesc_2_7::DTDEntityDecl"*)* @_ZNK11xercesc_2_713DTDEntityDecl12getProtoTypeEv to i8*), i8* bitcast (i1 (%"class.xercesc_2_7::DTDEntityDecl"*)* @_ZNK11xercesc_2_713DTDEntityDecl22getDeclaredInIntSubsetEv to i8*), i8* bitcast (i1 (%"class.xercesc_2_7::DTDEntityDecl"*)* @_ZNK11xercesc_2_713DTDEntityDecl14getIsParameterEv to i8*), i8* bitcast (i1 (%"class.xercesc_2_7::DTDEntityDecl"*)* @_ZNK11xercesc_2_713DTDEntityDecl16getIsSpecialCharEv to i8*)] }, comdat, align 8
@_ZTSN11xercesc_2_713DTDEntityDeclE = linkonce_odr dso_local constant [31 x i8] c"N11xercesc_2_713DTDEntityDeclE\00", comdat, align 1
@_ZTIN11xercesc_2_713XMLEntityDeclE = external dso_local constant i8*
@_ZTIN11xercesc_2_713DTDEntityDeclE = linkonce_odr dso_local constant { i8*, i8*, i8* } { i8* bitcast (i8** getelementptr inbounds (i8*, i8** @_ZTVN10__cxxabiv120__si_class_type_infoE, i64 2) to i8*), i8* getelementptr inbounds ([31 x i8], [31 x i8]* @_ZTSN11xercesc_2_713DTDEntityDeclE, i32 0, i32 0), i8* bitcast (i8** @_ZTIN11xercesc_2_713XMLEntityDeclE to i8*) }, comdat, align 8
@_ZTVN11xercesc_2_712XPathScannerE = linkonce_odr dso_local unnamed_addr constant { [5 x i8*] } { [5 x i8*] [i8* null, i8* bitcast ({ i8*, i8*, i8* }* @_ZTIN11xercesc_2_712XPathScannerE to i8*), i8* bitcast (void (%"class.xercesc_2_7::XPathScanner"*)* @_ZN11xercesc_2_712XPathScannerD2Ev to i8*), i8* bitcast (void (%"class.xercesc_2_7::XPathScanner"*)* @_ZN11xercesc_2_712XPathScannerD0Ev to i8*), i8* bitcast (void (%"class.xercesc_2_7::XPathScanner"*, %"class.xercesc_2_7::ValueVectorOf"*, i32)* @_ZN11xercesc_2_712XPathScanner8addTokenEPNS_13ValueVectorOfIiEEi to i8*)] }, comdat, align 8
@_ZTSN11xercesc_2_712XPathScannerE = linkonce_odr dso_local constant [30 x i8] c"N11xercesc_2_712XPathScannerE\00", comdat, align 1
@_ZTIN11xercesc_2_712XPathScannerE = linkonce_odr dso_local constant { i8*, i8*, i8* } { i8* bitcast (i8** getelementptr inbounds (i8*, i8** @_ZTVN10__cxxabiv120__si_class_type_infoE, i64 2) to i8*), i8* getelementptr inbounds ([30 x i8], [30 x i8]* @_ZTSN11xercesc_2_712XPathScannerE, i32 0, i32 0), i8* bitcast ({ i8*, i8* }* @_ZTIN11xercesc_2_77XMemoryE to i8*) }, comdat, align 8
@_ZTSN11xercesc_2_713DTDAttDefListE = dso_local constant [31 x i8] c"N11xercesc_2_713DTDAttDefListE\00", align 1
@_ZTIN11xercesc_2_713DTDAttDefListE = dso_local constant { i8*, i8*, i8* } { i8* bitcast (i8** getelementptr inbounds (i8*, i8** @_ZTVN10__cxxabiv120__si_class_type_infoE, i64 2) to i8*), i8* getelementptr inbounds ([31 x i8], [31 x i8]* @_ZTSN11xercesc_2_713DTDAttDefListE, i32 0, i32 0), i8* bitcast ({ i8*, i8*, i32, i32, i8*, i64, i8*, i64 }* @_ZTIN11xercesc_2_713XMLAttDefListE to i8*) }, align 8
@_ZTVN11xercesc_2_713XSerializableE = linkonce_odr dso_local unnamed_addr constant { [7 x i8*] } { [7 x i8*] [i8* null, i8* bitcast ({ i8*, i8* }* @_ZTIN11xercesc_2_713XSerializableE to i8*), i8* bitcast (void (%"class.xercesc_2_7::XSerializable"*)* @_ZN11xercesc_2_713XSerializableD2Ev to i8*), i8* bitcast (void (%"class.xercesc_2_7::XSerializable"*)* @_ZN11xercesc_2_713XSerializableD0Ev to i8*), i8* bitcast (void ()* @__cxa_pure_virtual to i8*), i8* bitcast (void ()* @__cxa_pure_virtual to i8*), i8* bitcast (void ()* @__cxa_pure_virtual to i8*)] }, comdat, align 8
@_ZTVN11xercesc_2_730ArrayIndexOutOfBoundsExceptionE = linkonce_odr dso_local unnamed_addr constant { [6 x i8*] } { [6 x i8*] [i8* null, i8* bitcast ({ i8*, i8*, i8* }* @_ZTIN11xercesc_2_730ArrayIndexOutOfBoundsExceptionE to i8*), i8* bitcast (void (%"class.xercesc_2_7::ArrayIndexOutOfBoundsException"*)* @_ZN11xercesc_2_730ArrayIndexOutOfBoundsExceptionD2Ev to i8*), i8* bitcast (void (%"class.xercesc_2_7::ArrayIndexOutOfBoundsException"*)* @_ZN11xercesc_2_730ArrayIndexOutOfBoundsExceptionD0Ev to i8*), i8* bitcast (i16* (%"class.xercesc_2_7::ArrayIndexOutOfBoundsException"*)* @_ZNK11xercesc_2_730ArrayIndexOutOfBoundsException7getTypeEv to i8*), i8* bitcast (%"class.xercesc_2_7::XMLException"* (%"class.xercesc_2_7::ArrayIndexOutOfBoundsException"*)* @_ZNK11xercesc_2_730ArrayIndexOutOfBoundsException9duplicateEv to i8*)] }, comdat, align 8
@_ZN11xercesc_2_76XMLUni37fgArrayIndexOutOfBoundsException_NameE = external dso_local constant [0 x i16], align 2
@_ZTVN11xercesc_2_724RefHashTableOfEnumeratorINS_9DTDAttDefEEE = linkonce_odr dso_local unnamed_addr constant { [7 x i8*] } { [7 x i8*] [i8* null, i8* bitcast ({ i8*, i8*, i32, i32, i8*, i64, i8*, i64 }* @_ZTIN11xercesc_2_724RefHashTableOfEnumeratorINS_9DTDAttDefEEE to i8*), i8* bitcast (void (%"class.xercesc_2_7::RefHashTableOfEnumerator"*)* @_ZN11xercesc_2_724RefHashTableOfEnumeratorINS_9DTDAttDefEED2Ev to i8*), i8* bitcast (void (%"class.xercesc_2_7::RefHashTableOfEnumerator"*)* @_ZN11xercesc_2_724RefHashTableOfEnumeratorINS_9DTDAttDefEED0Ev to i8*), i8* bitcast (i1 (%"class.xercesc_2_7::RefHashTableOfEnumerator"*)* @_ZNK11xercesc_2_724RefHashTableOfEnumeratorINS_9DTDAttDefEE15hasMoreElementsEv to i8*), i8* bitcast (%"class.xercesc_2_7::DTDAttDef"* (%"class.xercesc_2_7::RefHashTableOfEnumerator"*)* @_ZN11xercesc_2_724RefHashTableOfEnumeratorINS_9DTDAttDefEE11nextElementEv to i8*), i8* bitcast (void (%"class.xercesc_2_7::RefHashTableOfEnumerator"*)* @_ZN11xercesc_2_724RefHashTableOfEnumeratorINS_9DTDAttDefEE5ResetEv to i8*)] }, comdat, align 8
@.str.2 = private unnamed_addr constant [32 x i8] c"./xercesc/util/RefHashTableOf.c\00", align 1
@_ZTSN11xercesc_2_720NullPointerExceptionE = linkonce_odr dso_local constant [38 x i8] c"N11xercesc_2_720NullPointerExceptionE\00", comdat, align 1
@_ZTIN11xercesc_2_720NullPointerExceptionE = linkonce_odr dso_local constant { i8*, i8*, i8* } { i8* bitcast (i8** getelementptr inbounds (i8*, i8** @_ZTVN10__cxxabiv120__si_class_type_infoE, i64 2) to i8*), i8* getelementptr inbounds ([38 x i8], [38 x i8]* @_ZTSN11xercesc_2_720NullPointerExceptionE, i32 0, i32 0), i8* bitcast (i8** @_ZTIN11xercesc_2_712XMLExceptionE to i8*) }, comdat, align 8
@_ZTSN11xercesc_2_724RefHashTableOfEnumeratorINS_9DTDAttDefEEE = linkonce_odr dso_local constant [58 x i8] c"N11xercesc_2_724RefHashTableOfEnumeratorINS_9DTDAttDefEEE\00", comdat, align 1
@_ZTSN11xercesc_2_713XMLEnumeratorINS_9DTDAttDefEEE = linkonce_odr dso_local constant [47 x i8] c"N11xercesc_2_713XMLEnumeratorINS_9DTDAttDefEEE\00", comdat, align 1
@_ZTIN11xercesc_2_713XMLEnumeratorINS_9DTDAttDefEEE = linkonce_odr dso_local constant { i8*, i8* } { i8* bitcast (i8** getelementptr inbounds (i8*, i8** @_ZTVN10__cxxabiv117__class_type_infoE, i64 2) to i8*), i8* getelementptr inbounds ([47 x i8], [47 x i8]* @_ZTSN11xercesc_2_713XMLEnumeratorINS_9DTDAttDefEEE, i32 0, i32 0) }, comdat, align 8
@_ZTIN11xercesc_2_724RefHashTableOfEnumeratorINS_9DTDAttDefEEE = linkonce_odr dso_local constant { i8*, i8*, i32, i32, i8*, i64, i8*, i64 } { i8* bitcast (i8** getelementptr inbounds (i8*, i8** @_ZTVN10__cxxabiv121__vmi_class_type_infoE, i64 2) to i8*), i8* getelementptr inbounds ([58 x i8], [58 x i8]* @_ZTSN11xercesc_2_724RefHashTableOfEnumeratorINS_9DTDAttDefEEE, i32 0, i32 0), i32 0, i32 2, i8* bitcast ({ i8*, i8* }* @_ZTIN11xercesc_2_713XMLEnumeratorINS_9DTDAttDefEEE to i8*), i64 2, i8* bitcast ({ i8*, i8* }* @_ZTIN11xercesc_2_77XMemoryE to i8*), i64 2 }, comdat, align 8
@_ZTVN11xercesc_2_713XMLEnumeratorINS_9DTDAttDefEEE = linkonce_odr dso_local unnamed_addr constant { [7 x i8*] } { [7 x i8*] [i8* null, i8* bitcast ({ i8*, i8* }* @_ZTIN11xercesc_2_713XMLEnumeratorINS_9DTDAttDefEEE to i8*), i8* bitcast (void (%"class.xercesc_2_7::XMLEnumerator"*)* @_ZN11xercesc_2_713XMLEnumeratorINS_9DTDAttDefEED2Ev to i8*), i8* bitcast (void (%"class.xercesc_2_7::XMLEnumerator"*)* @_ZN11xercesc_2_713XMLEnumeratorINS_9DTDAttDefEED0Ev to i8*), i8* bitcast (void ()* @__cxa_pure_virtual to i8*), i8* bitcast (void ()* @__cxa_pure_virtual to i8*), i8* bitcast (void ()* @__cxa_pure_virtual to i8*)] }, comdat, align 8
@_ZTVN11xercesc_2_720NullPointerExceptionE = linkonce_odr dso_local unnamed_addr constant { [6 x i8*] } { [6 x i8*] [i8* null, i8* bitcast ({ i8*, i8*, i8* }* @_ZTIN11xercesc_2_720NullPointerExceptionE to i8*), i8* bitcast (void (%"class.xercesc_2_7::NullPointerException"*)* @_ZN11xercesc_2_720NullPointerExceptionD2Ev to i8*), i8* bitcast (void (%"class.xercesc_2_7::NullPointerException"*)* @_ZN11xercesc_2_720NullPointerExceptionD0Ev to i8*), i8* bitcast (i16* (%"class.xercesc_2_7::NullPointerException"*)* @_ZNK11xercesc_2_720NullPointerException7getTypeEv to i8*), i8* bitcast (%"class.xercesc_2_7::XMLException"* (%"class.xercesc_2_7::NullPointerException"*)* @_ZNK11xercesc_2_720NullPointerException9duplicateEv to i8*)] }, comdat, align 8
@_ZN11xercesc_2_76XMLUni27fgNullPointerException_NameE = external dso_local constant [0 x i16], align 2
@_ZTSN11xercesc_2_722NoSuchElementExceptionE = linkonce_odr dso_local constant [40 x i8] c"N11xercesc_2_722NoSuchElementExceptionE\00", comdat, align 1
@_ZTIN11xercesc_2_722NoSuchElementExceptionE = linkonce_odr dso_local constant { i8*, i8*, i8* } { i8* bitcast (i8** getelementptr inbounds (i8*, i8** @_ZTVN10__cxxabiv120__si_class_type_infoE, i64 2) to i8*), i8* getelementptr inbounds ([40 x i8], [40 x i8]* @_ZTSN11xercesc_2_722NoSuchElementExceptionE, i32 0, i32 0), i8* bitcast (i8** @_ZTIN11xercesc_2_712XMLExceptionE to i8*) }, comdat, align 8
@_ZTVN11xercesc_2_722NoSuchElementExceptionE = linkonce_odr dso_local unnamed_addr constant { [6 x i8*] } { [6 x i8*] [i8* null, i8* bitcast ({ i8*, i8*, i8* }* @_ZTIN11xercesc_2_722NoSuchElementExceptionE to i8*), i8* bitcast (void (%"class.xercesc_2_7::NoSuchElementException"*)* @_ZN11xercesc_2_722NoSuchElementExceptionD2Ev to i8*), i8* bitcast (void (%"class.xercesc_2_7::NoSuchElementException"*)* @_ZN11xercesc_2_722NoSuchElementExceptionD0Ev to i8*), i8* bitcast (i16* (%"class.xercesc_2_7::NoSuchElementException"*)* @_ZNK11xercesc_2_722NoSuchElementException7getTypeEv to i8*), i8* bitcast (%"class.xercesc_2_7::XMLException"* (%"class.xercesc_2_7::NoSuchElementException"*)* @_ZNK11xercesc_2_722NoSuchElementException9duplicateEv to i8*)] }, comdat, align 8
@_ZN11xercesc_2_76XMLUni29fgNoSuchElementException_NameE = external dso_local constant [0 x i16], align 2

@_ZN11xercesc_2_713DTDAttDefListC1EPNS_14RefHashTableOfINS_9DTDAttDefEEEPNS_13MemoryManagerE = dso_local unnamed_addr alias void (%"class.xercesc_2_7::DTDAttDefList"*, %"class.xercesc_2_7::RefHashTableOf.1"*, %"class.xercesc_2_7::MemoryManager"*), void (%"class.xercesc_2_7::DTDAttDefList"*, %"class.xercesc_2_7::RefHashTableOf.1"*, %"class.xercesc_2_7::MemoryManager"*)* @_ZN11xercesc_2_713DTDAttDefListC2EPNS_14RefHashTableOfINS_9DTDAttDefEEEPNS_13MemoryManagerE
@_ZN11xercesc_2_713DTDAttDefListD1Ev = dso_local unnamed_addr alias void (%"class.xercesc_2_7::DTDAttDefList"*), void (%"class.xercesc_2_7::DTDAttDefList"*)* @_ZN11xercesc_2_713DTDAttDefListD2Ev
@_ZN11xercesc_2_713DTDAttDefListC1EPNS_13MemoryManagerE = dso_local unnamed_addr alias void (%"class.xercesc_2_7::DTDAttDefList"*, %"class.xercesc_2_7::MemoryManager"*), void (%"class.xercesc_2_7::DTDAttDefList"*, %"class.xercesc_2_7::MemoryManager"*)* @_ZN11xercesc_2_713DTDAttDefListC2EPNS_13MemoryManagerE

; Function Attrs: nounwind readnone speculatable willreturn
declare void @llvm.dbg.declare(metadata, metadata, metadata) #0

; Function Attrs: noinline nounwind uwtable
define linkonce_odr dso_local void @_ZN11xercesc_2_710XMLDeleterD0Ev(%"class.xercesc_2_7::XMLDeleter"* %this) unnamed_addr #1 comdat align 2 !dbg !1726 {
entry:
  %this.addr = alloca %"class.xercesc_2_7::XMLDeleter"*, align 8
  store %"class.xercesc_2_7::XMLDeleter"* %this, %"class.xercesc_2_7::XMLDeleter"** %this.addr, align 8
  call void @llvm.dbg.declare(metadata %"class.xercesc_2_7::XMLDeleter"** %this.addr, metadata !1746, metadata !DIExpression()), !dbg !1748
  %this1 = load %"class.xercesc_2_7::XMLDeleter"*, %"class.xercesc_2_7::XMLDeleter"** %this.addr, align 8
  call void @_ZN11xercesc_2_710XMLDeleterD2Ev(%"class.xercesc_2_7::XMLDeleter"* %this1) #8, !dbg !1749
  %0 = bitcast %"class.xercesc_2_7::XMLDeleter"* %this1 to i8*, !dbg !1749
  call void @_ZdlPv(i8* %0) #9, !dbg !1749
  ret void, !dbg !1750
}

; Function Attrs: noinline nounwind uwtable
define linkonce_odr dso_local void @_ZN11xercesc_2_710XMLDeleterD2Ev(%"class.xercesc_2_7::XMLDeleter"* %this) unnamed_addr #1 comdat align 2 !dbg !1751 {
entry:
  %this.addr = alloca %"class.xercesc_2_7::XMLDeleter"*, align 8
  store %"class.xercesc_2_7::XMLDeleter"* %this, %"class.xercesc_2_7::XMLDeleter"** %this.addr, align 8
  call void @llvm.dbg.declare(metadata %"class.xercesc_2_7::XMLDeleter"** %this.addr, metadata !1752, metadata !DIExpression()), !dbg !1753
  %this1 = load %"class.xercesc_2_7::XMLDeleter"*, %"class.xercesc_2_7::XMLDeleter"** %this.addr, align 8
  ret void, !dbg !1754
}

; Function Attrs: nobuiltin nounwind
declare dso_local void @_ZdlPv(i8*) #2

; Function Attrs: noinline nounwind uwtable
define linkonce_odr dso_local void @_ZN11xercesc_2_713XMLAttDefListD0Ev(%"class.xercesc_2_7::XMLAttDefList"* %this) unnamed_addr #1 comdat align 2 !dbg !1755 {
entry:
  %this.addr = alloca %"class.xercesc_2_7::XMLAttDefList"*, align 8
  store %"class.xercesc_2_7::XMLAttDefList"* %this, %"class.xercesc_2_7::XMLAttDefList"** %this.addr, align 8
  call void @llvm.dbg.declare(metadata %"class.xercesc_2_7::XMLAttDefList"** %this.addr, metadata !1756, metadata !DIExpression()), !dbg !1758
  %this1 = load %"class.xercesc_2_7::XMLAttDefList"*, %"class.xercesc_2_7::XMLAttDefList"** %this.addr, align 8
  call void @llvm.trap() #10, !dbg !1759
  unreachable, !dbg !1759
}

; Function Attrs: cold noreturn nounwind
declare void @llvm.trap() #3

declare dso_local i32 @__gxx_personality_v0(...)

; Function Attrs: noinline noreturn nounwind
define linkonce_odr hidden void @__clang_call_terminate(i8* %0) #4 comdat {
  %2 = call i8* @__cxa_begin_catch(i8* %0) #8
  call void @_ZSt9terminatev() #10
  unreachable
}

declare dso_local i8* @__cxa_begin_catch(i8*)

declare dso_local void @_ZSt9terminatev()

; Function Attrs: noinline nounwind uwtable
define linkonce_odr dso_local void @_ZN11xercesc_2_710XMLRefInfoD0Ev(%"class.xercesc_2_7::XMLRefInfo"* %this) unnamed_addr #1 comdat align 2 !dbg !1760 {
entry:
  %this.addr = alloca %"class.xercesc_2_7::XMLRefInfo"*, align 8
  store %"class.xercesc_2_7::XMLRefInfo"* %this, %"class.xercesc_2_7::XMLRefInfo"** %this.addr, align 8
  call void @llvm.dbg.declare(metadata %"class.xercesc_2_7::XMLRefInfo"** %this.addr, metadata !1810, metadata !DIExpression()), !dbg !1812
  %this1 = load %"class.xercesc_2_7::XMLRefInfo"*, %"class.xercesc_2_7::XMLRefInfo"** %this.addr, align 8
  call void @_ZN11xercesc_2_710XMLRefInfoD2Ev(%"class.xercesc_2_7::XMLRefInfo"* %this1) #8, !dbg !1813
  %0 = bitcast %"class.xercesc_2_7::XMLRefInfo"* %this1 to i8*, !dbg !1813
  call void @_ZN11xercesc_2_77XMemorydlEPv(i8* %0) #8, !dbg !1813
  ret void, !dbg !1814
}

; Function Attrs: noinline nounwind uwtable
define linkonce_odr dso_local void @_ZN11xercesc_2_710XMLRefInfoD2Ev(%"class.xercesc_2_7::XMLRefInfo"* %this) unnamed_addr #1 comdat align 2 personality i8* bitcast (i32 (...)* @__gxx_personality_v0 to i8*) !dbg !1815 {
entry:
  %this.addr = alloca %"class.xercesc_2_7::XMLRefInfo"*, align 8
  %exn.slot = alloca i8*
  %ehselector.slot = alloca i32
  store %"class.xercesc_2_7::XMLRefInfo"* %this, %"class.xercesc_2_7::XMLRefInfo"** %this.addr, align 8
  call void @llvm.dbg.declare(metadata %"class.xercesc_2_7::XMLRefInfo"** %this.addr, metadata !1816, metadata !DIExpression()), !dbg !1817
  %this1 = load %"class.xercesc_2_7::XMLRefInfo"*, %"class.xercesc_2_7::XMLRefInfo"** %this.addr, align 8
  %0 = bitcast %"class.xercesc_2_7::XMLRefInfo"* %this1 to i32 (...)***, !dbg !1818
  store i32 (...)** bitcast (i8** getelementptr inbounds ({ [7 x i8*] }, { [7 x i8*] }* @_ZTVN11xercesc_2_710XMLRefInfoE, i32 0, inrange i32 0, i32 2) to i32 (...)**), i32 (...)*** %0, align 8, !dbg !1818
  %fMemoryManager = getelementptr inbounds %"class.xercesc_2_7::XMLRefInfo", %"class.xercesc_2_7::XMLRefInfo"* %this1, i32 0, i32 4, !dbg !1819
  %1 = load %"class.xercesc_2_7::MemoryManager"*, %"class.xercesc_2_7::MemoryManager"** %fMemoryManager, align 8, !dbg !1819
  %fRefName = getelementptr inbounds %"class.xercesc_2_7::XMLRefInfo", %"class.xercesc_2_7::XMLRefInfo"* %this1, i32 0, i32 3, !dbg !1821
  %2 = load i16*, i16** %fRefName, align 8, !dbg !1821
  %3 = bitcast i16* %2 to i8*, !dbg !1821
  %4 = bitcast %"class.xercesc_2_7::MemoryManager"* %1 to void (%"class.xercesc_2_7::MemoryManager"*, i8*)***, !dbg !1822
  %vtable = load void (%"class.xercesc_2_7::MemoryManager"*, i8*)**, void (%"class.xercesc_2_7::MemoryManager"*, i8*)*** %4, align 8, !dbg !1822
  %vfn = getelementptr inbounds void (%"class.xercesc_2_7::MemoryManager"*, i8*)*, void (%"class.xercesc_2_7::MemoryManager"*, i8*)** %vtable, i64 3, !dbg !1822
  %5 = load void (%"class.xercesc_2_7::MemoryManager"*, i8*)*, void (%"class.xercesc_2_7::MemoryManager"*, i8*)** %vfn, align 8, !dbg !1822
  invoke void %5(%"class.xercesc_2_7::MemoryManager"* %1, i8* %3)
          to label %invoke.cont unwind label %lpad, !dbg !1822

invoke.cont:                                      ; preds = %entry
  %6 = bitcast %"class.xercesc_2_7::XMLRefInfo"* %this1 to %"class.xercesc_2_7::XSerializable"*, !dbg !1823
  call void @_ZN11xercesc_2_713XSerializableD2Ev(%"class.xercesc_2_7::XSerializable"* %6) #8, !dbg !1823
  ret void, !dbg !1824

lpad:                                             ; preds = %entry
  %7 = landingpad { i8*, i32 }
          catch i8* null, !dbg !1823
  %8 = extractvalue { i8*, i32 } %7, 0, !dbg !1823
  store i8* %8, i8** %exn.slot, align 8, !dbg !1823
  %9 = extractvalue { i8*, i32 } %7, 1, !dbg !1823
  store i32 %9, i32* %ehselector.slot, align 4, !dbg !1823
  %10 = bitcast %"class.xercesc_2_7::XMLRefInfo"* %this1 to %"class.xercesc_2_7::XSerializable"*, !dbg !1823
  call void @_ZN11xercesc_2_713XSerializableD2Ev(%"class.xercesc_2_7::XSerializable"* %10) #8, !dbg !1823
  br label %terminate.handler, !dbg !1823

terminate.handler:                                ; preds = %lpad
  %exn = load i8*, i8** %exn.slot, align 8, !dbg !1823
  call void @__clang_call_terminate(i8* %exn) #10, !dbg !1823
  unreachable, !dbg !1823
}

; Function Attrs: nounwind
declare dso_local void @_ZN11xercesc_2_77XMemorydlEPv(i8*) #5

; Function Attrs: noinline nounwind uwtable
define linkonce_odr dso_local void @_ZN11xercesc_2_715ContentSpecNodeD0Ev(%"class.xercesc_2_7::ContentSpecNode"* %this) unnamed_addr #1 comdat align 2 !dbg !1825 {
entry:
  %this.addr = alloca %"class.xercesc_2_7::ContentSpecNode"*, align 8
  store %"class.xercesc_2_7::ContentSpecNode"* %this, %"class.xercesc_2_7::ContentSpecNode"** %this.addr, align 8
  call void @llvm.dbg.declare(metadata %"class.xercesc_2_7::ContentSpecNode"** %this.addr, metadata !1826, metadata !DIExpression()), !dbg !1827
  %this1 = load %"class.xercesc_2_7::ContentSpecNode"*, %"class.xercesc_2_7::ContentSpecNode"** %this.addr, align 8
  call void @_ZN11xercesc_2_715ContentSpecNodeD2Ev(%"class.xercesc_2_7::ContentSpecNode"* %this1) #8, !dbg !1828
  %0 = bitcast %"class.xercesc_2_7::ContentSpecNode"* %this1 to i8*, !dbg !1828
  call void @_ZN11xercesc_2_77XMemorydlEPv(i8* %0) #8, !dbg !1828
  ret void, !dbg !1829
}

; Function Attrs: noinline nounwind uwtable
define linkonce_odr dso_local void @_ZN11xercesc_2_715ContentSpecNodeD2Ev(%"class.xercesc_2_7::ContentSpecNode"* %this) unnamed_addr #1 comdat align 2 !dbg !1830 {
entry:
  %this.addr = alloca %"class.xercesc_2_7::ContentSpecNode"*, align 8
  store %"class.xercesc_2_7::ContentSpecNode"* %this, %"class.xercesc_2_7::ContentSpecNode"** %this.addr, align 8
  call void @llvm.dbg.declare(metadata %"class.xercesc_2_7::ContentSpecNode"** %this.addr, metadata !1831, metadata !DIExpression()), !dbg !1832
  %this1 = load %"class.xercesc_2_7::ContentSpecNode"*, %"class.xercesc_2_7::ContentSpecNode"** %this.addr, align 8
  %0 = bitcast %"class.xercesc_2_7::ContentSpecNode"* %this1 to i32 (...)***, !dbg !1833
  store i32 (...)** bitcast (i8** getelementptr inbounds ({ [7 x i8*] }, { [7 x i8*] }* @_ZTVN11xercesc_2_715ContentSpecNodeE, i32 0, inrange i32 0, i32 2) to i32 (...)**), i32 (...)*** %0, align 8, !dbg !1833
  %fAdoptFirst = getelementptr inbounds %"class.xercesc_2_7::ContentSpecNode", %"class.xercesc_2_7::ContentSpecNode"* %this1, i32 0, i32 7, !dbg !1834
  %1 = load i8, i8* %fAdoptFirst, align 4, !dbg !1834
  %tobool = trunc i8 %1 to i1, !dbg !1834
  br i1 %tobool, label %if.then, label %if.end, !dbg !1837

if.then:                                          ; preds = %entry
  %fFirst = getelementptr inbounds %"class.xercesc_2_7::ContentSpecNode", %"class.xercesc_2_7::ContentSpecNode"* %this1, i32 0, i32 4, !dbg !1838
  %2 = load %"class.xercesc_2_7::ContentSpecNode"*, %"class.xercesc_2_7::ContentSpecNode"** %fFirst, align 8, !dbg !1838
  %isnull = icmp eq %"class.xercesc_2_7::ContentSpecNode"* %2, null, !dbg !1840
  br i1 %isnull, label %delete.end, label %delete.notnull, !dbg !1840

delete.notnull:                                   ; preds = %if.then
  %3 = bitcast %"class.xercesc_2_7::ContentSpecNode"* %2 to void (%"class.xercesc_2_7::ContentSpecNode"*)***, !dbg !1840
  %vtable = load void (%"class.xercesc_2_7::ContentSpecNode"*)**, void (%"class.xercesc_2_7::ContentSpecNode"*)*** %3, align 8, !dbg !1840
  %vfn = getelementptr inbounds void (%"class.xercesc_2_7::ContentSpecNode"*)*, void (%"class.xercesc_2_7::ContentSpecNode"*)** %vtable, i64 1, !dbg !1840
  %4 = load void (%"class.xercesc_2_7::ContentSpecNode"*)*, void (%"class.xercesc_2_7::ContentSpecNode"*)** %vfn, align 8, !dbg !1840
  call void %4(%"class.xercesc_2_7::ContentSpecNode"* %2) #8, !dbg !1840
  br label %delete.end, !dbg !1840

delete.end:                                       ; preds = %delete.notnull, %if.then
  br label %if.end, !dbg !1841

if.end:                                           ; preds = %delete.end, %entry
  %fAdoptSecond = getelementptr inbounds %"class.xercesc_2_7::ContentSpecNode", %"class.xercesc_2_7::ContentSpecNode"* %this1, i32 0, i32 8, !dbg !1842
  %5 = load i8, i8* %fAdoptSecond, align 1, !dbg !1842
  %tobool2 = trunc i8 %5 to i1, !dbg !1842
  br i1 %tobool2, label %if.then3, label %if.end9, !dbg !1844

if.then3:                                         ; preds = %if.end
  %fSecond = getelementptr inbounds %"class.xercesc_2_7::ContentSpecNode", %"class.xercesc_2_7::ContentSpecNode"* %this1, i32 0, i32 5, !dbg !1845
  %6 = load %"class.xercesc_2_7::ContentSpecNode"*, %"class.xercesc_2_7::ContentSpecNode"** %fSecond, align 8, !dbg !1845
  %isnull4 = icmp eq %"class.xercesc_2_7::ContentSpecNode"* %6, null, !dbg !1847
  br i1 %isnull4, label %delete.end8, label %delete.notnull5, !dbg !1847

delete.notnull5:                                  ; preds = %if.then3
  %7 = bitcast %"class.xercesc_2_7::ContentSpecNode"* %6 to void (%"class.xercesc_2_7::ContentSpecNode"*)***, !dbg !1847
  %vtable6 = load void (%"class.xercesc_2_7::ContentSpecNode"*)**, void (%"class.xercesc_2_7::ContentSpecNode"*)*** %7, align 8, !dbg !1847
  %vfn7 = getelementptr inbounds void (%"class.xercesc_2_7::ContentSpecNode"*)*, void (%"class.xercesc_2_7::ContentSpecNode"*)** %vtable6, i64 1, !dbg !1847
  %8 = load void (%"class.xercesc_2_7::ContentSpecNode"*)*, void (%"class.xercesc_2_7::ContentSpecNode"*)** %vfn7, align 8, !dbg !1847
  call void %8(%"class.xercesc_2_7::ContentSpecNode"* %6) #8, !dbg !1847
  br label %delete.end8, !dbg !1847

delete.end8:                                      ; preds = %delete.notnull5, %if.then3
  br label %if.end9, !dbg !1848

if.end9:                                          ; preds = %delete.end8, %if.end
  %fElement = getelementptr inbounds %"class.xercesc_2_7::ContentSpecNode", %"class.xercesc_2_7::ContentSpecNode"* %this1, i32 0, i32 2, !dbg !1849
  %9 = load %"class.xercesc_2_7::QName"*, %"class.xercesc_2_7::QName"** %fElement, align 8, !dbg !1849
  %isnull10 = icmp eq %"class.xercesc_2_7::QName"* %9, null, !dbg !1850
  br i1 %isnull10, label %delete.end14, label %delete.notnull11, !dbg !1850

delete.notnull11:                                 ; preds = %if.end9
  %10 = bitcast %"class.xercesc_2_7::QName"* %9 to void (%"class.xercesc_2_7::QName"*)***, !dbg !1850
  %vtable12 = load void (%"class.xercesc_2_7::QName"*)**, void (%"class.xercesc_2_7::QName"*)*** %10, align 8, !dbg !1850
  %vfn13 = getelementptr inbounds void (%"class.xercesc_2_7::QName"*)*, void (%"class.xercesc_2_7::QName"*)** %vtable12, i64 1, !dbg !1850
  %11 = load void (%"class.xercesc_2_7::QName"*)*, void (%"class.xercesc_2_7::QName"*)** %vfn13, align 8, !dbg !1850
  call void %11(%"class.xercesc_2_7::QName"* %9) #8, !dbg !1850
  br label %delete.end14, !dbg !1850

delete.end14:                                     ; preds = %delete.notnull11, %if.end9
  %12 = bitcast %"class.xercesc_2_7::ContentSpecNode"* %this1 to %"class.xercesc_2_7::XSerializable"*, !dbg !1851
  call void @_ZN11xercesc_2_713XSerializableD2Ev(%"class.xercesc_2_7::XSerializable"* %12) #8, !dbg !1851
  ret void, !dbg !1852
}

; Function Attrs: nounwind
declare dso_local void @_ZN11xercesc_2_713XMLEntityDeclD2Ev(%"class.xercesc_2_7::XMLEntityDecl"*) unnamed_addr #5

; Function Attrs: noinline nounwind uwtable
define linkonce_odr dso_local void @_ZN11xercesc_2_713DTDEntityDeclD0Ev(%"class.xercesc_2_7::DTDEntityDecl"* %this) unnamed_addr #1 comdat align 2 !dbg !1853 {
entry:
  %this.addr = alloca %"class.xercesc_2_7::DTDEntityDecl"*, align 8
  store %"class.xercesc_2_7::DTDEntityDecl"* %this, %"class.xercesc_2_7::DTDEntityDecl"** %this.addr, align 8
  call void @llvm.dbg.declare(metadata %"class.xercesc_2_7::DTDEntityDecl"** %this.addr, metadata !1908, metadata !DIExpression()), !dbg !1910
  %this1 = load %"class.xercesc_2_7::DTDEntityDecl"*, %"class.xercesc_2_7::DTDEntityDecl"** %this.addr, align 8
  call void @_ZN11xercesc_2_713DTDEntityDeclD2Ev(%"class.xercesc_2_7::DTDEntityDecl"* %this1) #8, !dbg !1911
  %0 = bitcast %"class.xercesc_2_7::DTDEntityDecl"* %this1 to i8*, !dbg !1911
  call void @_ZN11xercesc_2_77XMemorydlEPv(i8* %0) #8, !dbg !1911
  ret void, !dbg !1912
}

; Function Attrs: noinline nounwind uwtable
define linkonce_odr dso_local void @_ZN11xercesc_2_713DTDEntityDeclD2Ev(%"class.xercesc_2_7::DTDEntityDecl"* %this) unnamed_addr #1 comdat align 2 !dbg !1913 {
entry:
  %this.addr = alloca %"class.xercesc_2_7::DTDEntityDecl"*, align 8
  store %"class.xercesc_2_7::DTDEntityDecl"* %this, %"class.xercesc_2_7::DTDEntityDecl"** %this.addr, align 8
  call void @llvm.dbg.declare(metadata %"class.xercesc_2_7::DTDEntityDecl"** %this.addr, metadata !1914, metadata !DIExpression()), !dbg !1915
  %this1 = load %"class.xercesc_2_7::DTDEntityDecl"*, %"class.xercesc_2_7::DTDEntityDecl"** %this.addr, align 8
  %0 = bitcast %"class.xercesc_2_7::DTDEntityDecl"* %this1 to %"class.xercesc_2_7::XMLEntityDecl"*, !dbg !1916
  call void @_ZN11xercesc_2_713XMLEntityDeclD2Ev(%"class.xercesc_2_7::XMLEntityDecl"* %0) #8, !dbg !1916
  ret void, !dbg !1918
}

; Function Attrs: noinline uwtable
define linkonce_odr dso_local void @_ZN11xercesc_2_712XPathScanner8addTokenEPNS_13ValueVectorOfIiEEi(%"class.xercesc_2_7::XPathScanner"* %this, %"class.xercesc_2_7::ValueVectorOf"* %tokens, i32 %aToken) unnamed_addr #6 comdat align 2 !dbg !1919 {
entry:
  %this.addr = alloca %"class.xercesc_2_7::XPathScanner"*, align 8
  %tokens.addr = alloca %"class.xercesc_2_7::ValueVectorOf"*, align 8
  %aToken.addr = alloca i32, align 4
  store %"class.xercesc_2_7::XPathScanner"* %this, %"class.xercesc_2_7::XPathScanner"** %this.addr, align 8
  call void @llvm.dbg.declare(metadata %"class.xercesc_2_7::XPathScanner"** %this.addr, metadata !2043, metadata !DIExpression()), !dbg !2045
  store %"class.xercesc_2_7::ValueVectorOf"* %tokens, %"class.xercesc_2_7::ValueVectorOf"** %tokens.addr, align 8
  call void @llvm.dbg.declare(metadata %"class.xercesc_2_7::ValueVectorOf"** %tokens.addr, metadata !2046, metadata !DIExpression()), !dbg !2047
  store i32 %aToken, i32* %aToken.addr, align 4
  call void @llvm.dbg.declare(metadata i32* %aToken.addr, metadata !2048, metadata !DIExpression()), !dbg !2049
  %this1 = load %"class.xercesc_2_7::XPathScanner"*, %"class.xercesc_2_7::XPathScanner"** %this.addr, align 8
  %0 = load %"class.xercesc_2_7::ValueVectorOf"*, %"class.xercesc_2_7::ValueVectorOf"** %tokens.addr, align 8, !dbg !2050
  call void @_ZN11xercesc_2_713ValueVectorOfIiE10addElementERKi(%"class.xercesc_2_7::ValueVectorOf"* %0, i32* dereferenceable(4) %aToken.addr), !dbg !2051
  ret void, !dbg !2052
}

; Function Attrs: noinline uwtable
define linkonce_odr dso_local void @_ZN11xercesc_2_713ValueVectorOfIiE10addElementERKi(%"class.xercesc_2_7::ValueVectorOf"* %this, i32* dereferenceable(4) %toAdd) #6 comdat align 2 !dbg !2053 {
entry:
  %this.addr = alloca %"class.xercesc_2_7::ValueVectorOf"*, align 8
  %toAdd.addr = alloca i32*, align 8
  store %"class.xercesc_2_7::ValueVectorOf"* %this, %"class.xercesc_2_7::ValueVectorOf"** %this.addr, align 8
  call void @llvm.dbg.declare(metadata %"class.xercesc_2_7::ValueVectorOf"** %this.addr, metadata !2055, metadata !DIExpression()), !dbg !2056
  store i32* %toAdd, i32** %toAdd.addr, align 8
  call void @llvm.dbg.declare(metadata i32** %toAdd.addr, metadata !2057, metadata !DIExpression()), !dbg !2058
  %this1 = load %"class.xercesc_2_7::ValueVectorOf"*, %"class.xercesc_2_7::ValueVectorOf"** %this.addr, align 8
  call void @_ZN11xercesc_2_713ValueVectorOfIiE19ensureExtraCapacityEj(%"class.xercesc_2_7::ValueVectorOf"* %this1, i32 1), !dbg !2059
  %0 = load i32*, i32** %toAdd.addr, align 8, !dbg !2060
  %1 = load i32, i32* %0, align 4, !dbg !2060
  %fElemList = getelementptr inbounds %"class.xercesc_2_7::ValueVectorOf", %"class.xercesc_2_7::ValueVectorOf"* %this1, i32 0, i32 3, !dbg !2061
  %2 = load i32*, i32** %fElemList, align 8, !dbg !2061
  %fCurCount = getelementptr inbounds %"class.xercesc_2_7::ValueVectorOf", %"class.xercesc_2_7::ValueVectorOf"* %this1, i32 0, i32 1, !dbg !2062
  %3 = load i32, i32* %fCurCount, align 4, !dbg !2062
  %idxprom = zext i32 %3 to i64, !dbg !2061
  %arrayidx = getelementptr inbounds i32, i32* %2, i64 %idxprom, !dbg !2061
  store i32 %1, i32* %arrayidx, align 4, !dbg !2063
  %fCurCount2 = getelementptr inbounds %"class.xercesc_2_7::ValueVectorOf", %"class.xercesc_2_7::ValueVectorOf"* %this1, i32 0, i32 1, !dbg !2064
  %4 = load i32, i32* %fCurCount2, align 4, !dbg !2065
  %inc = add i32 %4, 1, !dbg !2065
  store i32 %inc, i32* %fCurCount2, align 4, !dbg !2065
  ret void, !dbg !2066
}

; Function Attrs: noinline uwtable
define dso_local void @_ZN11xercesc_2_713DTDAttDefListC2EPNS_14RefHashTableOfINS_9DTDAttDefEEEPNS_13MemoryManagerE(%"class.xercesc_2_7::DTDAttDefList"* %this, %"class.xercesc_2_7::RefHashTableOf.1"* %listToUse, %"class.xercesc_2_7::MemoryManager"* %manager) unnamed_addr #6 align 2 personality i8* bitcast (i32 (...)* @__gxx_personality_v0 to i8*) !dbg !2067 {
entry:
  %this.addr = alloca %"class.xercesc_2_7::DTDAttDefList"*, align 8
  %listToUse.addr = alloca %"class.xercesc_2_7::RefHashTableOf.1"*, align 8
  %manager.addr = alloca %"class.xercesc_2_7::MemoryManager"*, align 8
  %exn.slot = alloca i8*
  %ehselector.slot = alloca i32
  store %"class.xercesc_2_7::DTDAttDefList"* %this, %"class.xercesc_2_7::DTDAttDefList"** %this.addr, align 8
  call void @llvm.dbg.declare(metadata %"class.xercesc_2_7::DTDAttDefList"** %this.addr, metadata !2068, metadata !DIExpression()), !dbg !2070
  store %"class.xercesc_2_7::RefHashTableOf.1"* %listToUse, %"class.xercesc_2_7::RefHashTableOf.1"** %listToUse.addr, align 8
  call void @llvm.dbg.declare(metadata %"class.xercesc_2_7::RefHashTableOf.1"** %listToUse.addr, metadata !2071, metadata !DIExpression()), !dbg !2072
  store %"class.xercesc_2_7::MemoryManager"* %manager, %"class.xercesc_2_7::MemoryManager"** %manager.addr, align 8
  call void @llvm.dbg.declare(metadata %"class.xercesc_2_7::MemoryManager"** %manager.addr, metadata !2073, metadata !DIExpression()), !dbg !2074
  %this1 = load %"class.xercesc_2_7::DTDAttDefList"*, %"class.xercesc_2_7::DTDAttDefList"** %this.addr, align 8
  %0 = bitcast %"class.xercesc_2_7::DTDAttDefList"* %this1 to %"class.xercesc_2_7::XMLAttDefList"*, !dbg !2075
  %1 = load %"class.xercesc_2_7::MemoryManager"*, %"class.xercesc_2_7::MemoryManager"** %manager.addr, align 8, !dbg !2076
  call void @_ZN11xercesc_2_713XMLAttDefListC2EPNS_13MemoryManagerE(%"class.xercesc_2_7::XMLAttDefList"* %0, %"class.xercesc_2_7::MemoryManager"* %1), !dbg !2077
  %2 = bitcast %"class.xercesc_2_7::DTDAttDefList"* %this1 to i32 (...)***, !dbg !2075
  store i32 (...)** bitcast (i8** getelementptr inbounds ({ [18 x i8*] }, { [18 x i8*] }* @_ZTVN11xercesc_2_713DTDAttDefListE, i32 0, inrange i32 0, i32 2) to i32 (...)**), i32 (...)*** %2, align 8, !dbg !2075
  %fEnum = getelementptr inbounds %"class.xercesc_2_7::DTDAttDefList", %"class.xercesc_2_7::DTDAttDefList"* %this1, i32 0, i32 1, !dbg !2078
  store %"class.xercesc_2_7::RefHashTableOfEnumerator"* null, %"class.xercesc_2_7::RefHashTableOfEnumerator"** %fEnum, align 8, !dbg !2078
  %fList = getelementptr inbounds %"class.xercesc_2_7::DTDAttDefList", %"class.xercesc_2_7::DTDAttDefList"* %this1, i32 0, i32 2, !dbg !2079
  %3 = load %"class.xercesc_2_7::RefHashTableOf.1"*, %"class.xercesc_2_7::RefHashTableOf.1"** %listToUse.addr, align 8, !dbg !2080
  store %"class.xercesc_2_7::RefHashTableOf.1"* %3, %"class.xercesc_2_7::RefHashTableOf.1"** %fList, align 8, !dbg !2079
  %fArray = getelementptr inbounds %"class.xercesc_2_7::DTDAttDefList", %"class.xercesc_2_7::DTDAttDefList"* %this1, i32 0, i32 3, !dbg !2081
  store %"class.xercesc_2_7::DTDAttDef"** null, %"class.xercesc_2_7::DTDAttDef"*** %fArray, align 8, !dbg !2081
  %fSize = getelementptr inbounds %"class.xercesc_2_7::DTDAttDefList", %"class.xercesc_2_7::DTDAttDefList"* %this1, i32 0, i32 4, !dbg !2082
  store i32 0, i32* %fSize, align 8, !dbg !2082
  %fCount = getelementptr inbounds %"class.xercesc_2_7::DTDAttDefList", %"class.xercesc_2_7::DTDAttDefList"* %this1, i32 0, i32 5, !dbg !2083
  store i32 0, i32* %fCount, align 4, !dbg !2083
  %4 = bitcast %"class.xercesc_2_7::DTDAttDefList"* %this1 to %"class.xercesc_2_7::XMLAttDefList"*, !dbg !2084
  %call = invoke %"class.xercesc_2_7::MemoryManager"* @_ZNK11xercesc_2_713XMLAttDefList16getMemoryManagerEv(%"class.xercesc_2_7::XMLAttDefList"* %4)
          to label %invoke.cont unwind label %lpad, !dbg !2084

invoke.cont:                                      ; preds = %entry
  %call3 = invoke i8* @_ZN11xercesc_2_77XMemorynwEmPNS_13MemoryManagerE(i64 48, %"class.xercesc_2_7::MemoryManager"* %call)
          to label %invoke.cont2 unwind label %lpad, !dbg !2086

invoke.cont2:                                     ; preds = %invoke.cont
  %5 = bitcast i8* %call3 to %"class.xercesc_2_7::RefHashTableOfEnumerator"*, !dbg !2086
  %6 = load %"class.xercesc_2_7::RefHashTableOf.1"*, %"class.xercesc_2_7::RefHashTableOf.1"** %listToUse.addr, align 8, !dbg !2087
  %7 = load %"class.xercesc_2_7::MemoryManager"*, %"class.xercesc_2_7::MemoryManager"** %manager.addr, align 8, !dbg !2088
  invoke void @_ZN11xercesc_2_724RefHashTableOfEnumeratorINS_9DTDAttDefEEC2EPNS_14RefHashTableOfIS1_EEbPNS_13MemoryManagerE(%"class.xercesc_2_7::RefHashTableOfEnumerator"* %5, %"class.xercesc_2_7::RefHashTableOf.1"* %6, i1 zeroext false, %"class.xercesc_2_7::MemoryManager"* %7)
          to label %invoke.cont5 unwind label %lpad4, !dbg !2089

invoke.cont5:                                     ; preds = %invoke.cont2
  %fEnum6 = getelementptr inbounds %"class.xercesc_2_7::DTDAttDefList", %"class.xercesc_2_7::DTDAttDefList"* %this1, i32 0, i32 1, !dbg !2090
  store %"class.xercesc_2_7::RefHashTableOfEnumerator"* %5, %"class.xercesc_2_7::RefHashTableOfEnumerator"** %fEnum6, align 8, !dbg !2091
  %8 = load %"class.xercesc_2_7::MemoryManager"*, %"class.xercesc_2_7::MemoryManager"** %manager.addr, align 8, !dbg !2092
  %9 = bitcast %"class.xercesc_2_7::MemoryManager"* %8 to i8* (%"class.xercesc_2_7::MemoryManager"*, i64)***, !dbg !2093
  %vtable = load i8* (%"class.xercesc_2_7::MemoryManager"*, i64)**, i8* (%"class.xercesc_2_7::MemoryManager"*, i64)*** %9, align 8, !dbg !2093
  %vfn = getelementptr inbounds i8* (%"class.xercesc_2_7::MemoryManager"*, i64)*, i8* (%"class.xercesc_2_7::MemoryManager"*, i64)** %vtable, i64 2, !dbg !2093
  %10 = load i8* (%"class.xercesc_2_7::MemoryManager"*, i64)*, i8* (%"class.xercesc_2_7::MemoryManager"*, i64)** %vfn, align 8, !dbg !2093
  %call8 = invoke i8* %10(%"class.xercesc_2_7::MemoryManager"* %8, i64 16)
          to label %invoke.cont7 unwind label %lpad, !dbg !2093

invoke.cont7:                                     ; preds = %invoke.cont5
  %11 = bitcast i8* %call8 to %"class.xercesc_2_7::DTDAttDef"**, !dbg !2094
  %fArray9 = getelementptr inbounds %"class.xercesc_2_7::DTDAttDefList", %"class.xercesc_2_7::DTDAttDefList"* %this1, i32 0, i32 3, !dbg !2095
  store %"class.xercesc_2_7::DTDAttDef"** %11, %"class.xercesc_2_7::DTDAttDef"*** %fArray9, align 8, !dbg !2096
  %fSize10 = getelementptr inbounds %"class.xercesc_2_7::DTDAttDefList", %"class.xercesc_2_7::DTDAttDefList"* %this1, i32 0, i32 4, !dbg !2097
  store i32 2, i32* %fSize10, align 8, !dbg !2098
  ret void, !dbg !2099

lpad:                                             ; preds = %invoke.cont5, %invoke.cont, %entry
  %12 = landingpad { i8*, i32 }
          cleanup, !dbg !2100
  %13 = extractvalue { i8*, i32 } %12, 0, !dbg !2100
  store i8* %13, i8** %exn.slot, align 8, !dbg !2100
  %14 = extractvalue { i8*, i32 } %12, 1, !dbg !2100
  store i32 %14, i32* %ehselector.slot, align 4, !dbg !2100
  br label %ehcleanup, !dbg !2100

lpad4:                                            ; preds = %invoke.cont2
  %15 = landingpad { i8*, i32 }
          cleanup, !dbg !2100
  %16 = extractvalue { i8*, i32 } %15, 0, !dbg !2100
  store i8* %16, i8** %exn.slot, align 8, !dbg !2100
  %17 = extractvalue { i8*, i32 } %15, 1, !dbg !2100
  store i32 %17, i32* %ehselector.slot, align 4, !dbg !2100
  call void @_ZN11xercesc_2_77XMemorydlEPvPNS_13MemoryManagerE(i8* %call3, %"class.xercesc_2_7::MemoryManager"* %call) #8, !dbg !2086
  br label %ehcleanup, !dbg !2086

ehcleanup:                                        ; preds = %lpad4, %lpad
  %18 = bitcast %"class.xercesc_2_7::DTDAttDefList"* %this1 to %"class.xercesc_2_7::XMLAttDefList"*, !dbg !2100
  call void @_ZN11xercesc_2_713XMLAttDefListD2Ev(%"class.xercesc_2_7::XMLAttDefList"* %18) #8, !dbg !2100
  br label %eh.resume, !dbg !2100

eh.resume:                                        ; preds = %ehcleanup
  %exn = load i8*, i8** %exn.slot, align 8, !dbg !2100
  %sel = load i32, i32* %ehselector.slot, align 4, !dbg !2100
  %lpad.val = insertvalue { i8*, i32 } undef, i8* %exn, 0, !dbg !2100
  %lpad.val11 = insertvalue { i8*, i32 } %lpad.val, i32 %sel, 1, !dbg !2100
  resume { i8*, i32 } %lpad.val11, !dbg !2100
}

; Function Attrs: noinline uwtable
define linkonce_odr dso_local void @_ZN11xercesc_2_713XMLAttDefListC2EPNS_13MemoryManagerE(%"class.xercesc_2_7::XMLAttDefList"* %this, %"class.xercesc_2_7::MemoryManager"* %manager) unnamed_addr #6 comdat align 2 personality i8* bitcast (i32 (...)* @__gxx_personality_v0 to i8*) !dbg !2101 {
entry:
  %this.addr = alloca %"class.xercesc_2_7::XMLAttDefList"*, align 8
  %manager.addr = alloca %"class.xercesc_2_7::MemoryManager"*, align 8
  %exn.slot = alloca i8*
  %ehselector.slot = alloca i32
  store %"class.xercesc_2_7::XMLAttDefList"* %this, %"class.xercesc_2_7::XMLAttDefList"** %this.addr, align 8
  call void @llvm.dbg.declare(metadata %"class.xercesc_2_7::XMLAttDefList"** %this.addr, metadata !2102, metadata !DIExpression()), !dbg !2103
  store %"class.xercesc_2_7::MemoryManager"* %manager, %"class.xercesc_2_7::MemoryManager"** %manager.addr, align 8
  call void @llvm.dbg.declare(metadata %"class.xercesc_2_7::MemoryManager"** %manager.addr, metadata !2104, metadata !DIExpression()), !dbg !2105
  %this1 = load %"class.xercesc_2_7::XMLAttDefList"*, %"class.xercesc_2_7::XMLAttDefList"** %this.addr, align 8
  %0 = bitcast %"class.xercesc_2_7::XMLAttDefList"* %this1 to %"class.xercesc_2_7::XSerializable"*, !dbg !2106
  call void @_ZN11xercesc_2_713XSerializableC2Ev(%"class.xercesc_2_7::XSerializable"* %0), !dbg !2107
  %1 = bitcast %"class.xercesc_2_7::XMLAttDefList"* %this1 to %"class.xercesc_2_7::XMemory"*, !dbg !2106
  invoke void @_ZN11xercesc_2_77XMemoryC2Ev(%"class.xercesc_2_7::XMemory"* %1)
          to label %invoke.cont unwind label %lpad, !dbg !2107

invoke.cont:                                      ; preds = %entry
  %2 = bitcast %"class.xercesc_2_7::XMLAttDefList"* %this1 to i32 (...)***, !dbg !2106
  store i32 (...)** bitcast (i8** getelementptr inbounds ({ [18 x i8*] }, { [18 x i8*] }* @_ZTVN11xercesc_2_713XMLAttDefListE, i32 0, inrange i32 0, i32 2) to i32 (...)**), i32 (...)*** %2, align 8, !dbg !2106
  %fMemoryManager = getelementptr inbounds %"class.xercesc_2_7::XMLAttDefList", %"class.xercesc_2_7::XMLAttDefList"* %this1, i32 0, i32 1, !dbg !2108
  %3 = load %"class.xercesc_2_7::MemoryManager"*, %"class.xercesc_2_7::MemoryManager"** %manager.addr, align 8, !dbg !2109
  store %"class.xercesc_2_7::MemoryManager"* %3, %"class.xercesc_2_7::MemoryManager"** %fMemoryManager, align 8, !dbg !2108
  ret void, !dbg !2110

lpad:                                             ; preds = %entry
  %4 = landingpad { i8*, i32 }
          cleanup, !dbg !2110
  %5 = extractvalue { i8*, i32 } %4, 0, !dbg !2110
  store i8* %5, i8** %exn.slot, align 8, !dbg !2110
  %6 = extractvalue { i8*, i32 } %4, 1, !dbg !2110
  store i32 %6, i32* %ehselector.slot, align 4, !dbg !2110
  %7 = bitcast %"class.xercesc_2_7::XMLAttDefList"* %this1 to %"class.xercesc_2_7::XSerializable"*, !dbg !2111
  call void @_ZN11xercesc_2_713XSerializableD2Ev(%"class.xercesc_2_7::XSerializable"* %7) #8, !dbg !2111
  br label %eh.resume, !dbg !2111

eh.resume:                                        ; preds = %lpad
  %exn = load i8*, i8** %exn.slot, align 8, !dbg !2111
  %sel = load i32, i32* %ehselector.slot, align 4, !dbg !2111
  %lpad.val = insertvalue { i8*, i32 } undef, i8* %exn, 0, !dbg !2111
  %lpad.val2 = insertvalue { i8*, i32 } %lpad.val, i32 %sel, 1, !dbg !2111
  resume { i8*, i32 } %lpad.val2, !dbg !2111
}

; Function Attrs: noinline nounwind uwtable
define linkonce_odr dso_local %"class.xercesc_2_7::MemoryManager"* @_ZNK11xercesc_2_713XMLAttDefList16getMemoryManagerEv(%"class.xercesc_2_7::XMLAttDefList"* %this) #1 comdat align 2 !dbg !2113 {
entry:
  %this.addr = alloca %"class.xercesc_2_7::XMLAttDefList"*, align 8
  store %"class.xercesc_2_7::XMLAttDefList"* %this, %"class.xercesc_2_7::XMLAttDefList"** %this.addr, align 8
  call void @llvm.dbg.declare(metadata %"class.xercesc_2_7::XMLAttDefList"** %this.addr, metadata !2114, metadata !DIExpression()), !dbg !2116
  %this1 = load %"class.xercesc_2_7::XMLAttDefList"*, %"class.xercesc_2_7::XMLAttDefList"** %this.addr, align 8
  %fMemoryManager = getelementptr inbounds %"class.xercesc_2_7::XMLAttDefList", %"class.xercesc_2_7::XMLAttDefList"* %this1, i32 0, i32 1, !dbg !2117
  %0 = load %"class.xercesc_2_7::MemoryManager"*, %"class.xercesc_2_7::MemoryManager"** %fMemoryManager, align 8, !dbg !2117
  ret %"class.xercesc_2_7::MemoryManager"* %0, !dbg !2118
}

declare dso_local i8* @_ZN11xercesc_2_77XMemorynwEmPNS_13MemoryManagerE(i64, %"class.xercesc_2_7::MemoryManager"*) #7

; Function Attrs: noinline uwtable
define linkonce_odr dso_local void @_ZN11xercesc_2_724RefHashTableOfEnumeratorINS_9DTDAttDefEEC2EPNS_14RefHashTableOfIS1_EEbPNS_13MemoryManagerE(%"class.xercesc_2_7::RefHashTableOfEnumerator"* %this, %"class.xercesc_2_7::RefHashTableOf.1"* %toEnum, i1 zeroext %adopt, %"class.xercesc_2_7::MemoryManager"* %manager) unnamed_addr #6 comdat align 2 personality i8* bitcast (i32 (...)* @__gxx_personality_v0 to i8*) !dbg !2119 {
entry:
  %this.addr = alloca %"class.xercesc_2_7::RefHashTableOfEnumerator"*, align 8
  %toEnum.addr = alloca %"class.xercesc_2_7::RefHashTableOf.1"*, align 8
  %adopt.addr = alloca i8, align 1
  %manager.addr = alloca %"class.xercesc_2_7::MemoryManager"*, align 8
  %exn.slot = alloca i8*
  %ehselector.slot = alloca i32
  store %"class.xercesc_2_7::RefHashTableOfEnumerator"* %this, %"class.xercesc_2_7::RefHashTableOfEnumerator"** %this.addr, align 8
  call void @llvm.dbg.declare(metadata %"class.xercesc_2_7::RefHashTableOfEnumerator"** %this.addr, metadata !2121, metadata !DIExpression()), !dbg !2122
  store %"class.xercesc_2_7::RefHashTableOf.1"* %toEnum, %"class.xercesc_2_7::RefHashTableOf.1"** %toEnum.addr, align 8
  call void @llvm.dbg.declare(metadata %"class.xercesc_2_7::RefHashTableOf.1"** %toEnum.addr, metadata !2123, metadata !DIExpression()), !dbg !2124
  %frombool = zext i1 %adopt to i8
  store i8 %frombool, i8* %adopt.addr, align 1
  call void @llvm.dbg.declare(metadata i8* %adopt.addr, metadata !2125, metadata !DIExpression()), !dbg !2126
  store %"class.xercesc_2_7::MemoryManager"* %manager, %"class.xercesc_2_7::MemoryManager"** %manager.addr, align 8
  call void @llvm.dbg.declare(metadata %"class.xercesc_2_7::MemoryManager"** %manager.addr, metadata !2127, metadata !DIExpression()), !dbg !2128
  %this1 = load %"class.xercesc_2_7::RefHashTableOfEnumerator"*, %"class.xercesc_2_7::RefHashTableOfEnumerator"** %this.addr, align 8
  %0 = bitcast %"class.xercesc_2_7::RefHashTableOfEnumerator"* %this1 to %"class.xercesc_2_7::XMLEnumerator"*, !dbg !2129
  call void @_ZN11xercesc_2_713XMLEnumeratorINS_9DTDAttDefEEC2Ev(%"class.xercesc_2_7::XMLEnumerator"* %0), !dbg !2130
  %1 = bitcast %"class.xercesc_2_7::RefHashTableOfEnumerator"* %this1 to %"class.xercesc_2_7::XMemory"*, !dbg !2129
  invoke void @_ZN11xercesc_2_77XMemoryC2Ev(%"class.xercesc_2_7::XMemory"* %1)
          to label %invoke.cont unwind label %lpad, !dbg !2130

invoke.cont:                                      ; preds = %entry
  %2 = bitcast %"class.xercesc_2_7::RefHashTableOfEnumerator"* %this1 to i32 (...)***, !dbg !2129
  store i32 (...)** bitcast (i8** getelementptr inbounds ({ [7 x i8*] }, { [7 x i8*] }* @_ZTVN11xercesc_2_724RefHashTableOfEnumeratorINS_9DTDAttDefEEE, i32 0, inrange i32 0, i32 2) to i32 (...)**), i32 (...)*** %2, align 8, !dbg !2129
  %fAdopted = getelementptr inbounds %"class.xercesc_2_7::RefHashTableOfEnumerator", %"class.xercesc_2_7::RefHashTableOfEnumerator"* %this1, i32 0, i32 1, !dbg !2132
  %3 = load i8, i8* %adopt.addr, align 1, !dbg !2134
  %tobool = trunc i8 %3 to i1, !dbg !2134
  %frombool2 = zext i1 %tobool to i8, !dbg !2132
  store i8 %frombool2, i8* %fAdopted, align 8, !dbg !2132
  %fCurElem = getelementptr inbounds %"class.xercesc_2_7::RefHashTableOfEnumerator", %"class.xercesc_2_7::RefHashTableOfEnumerator"* %this1, i32 0, i32 2, !dbg !2135
  store %"struct.xercesc_2_7::RefHashTableBucketElem.0"* null, %"struct.xercesc_2_7::RefHashTableBucketElem.0"** %fCurElem, align 8, !dbg !2135
  %fCurHash = getelementptr inbounds %"class.xercesc_2_7::RefHashTableOfEnumerator", %"class.xercesc_2_7::RefHashTableOfEnumerator"* %this1, i32 0, i32 3, !dbg !2136
  store i32 -1, i32* %fCurHash, align 8, !dbg !2136
  %fToEnum = getelementptr inbounds %"class.xercesc_2_7::RefHashTableOfEnumerator", %"class.xercesc_2_7::RefHashTableOfEnumerator"* %this1, i32 0, i32 4, !dbg !2137
  %4 = load %"class.xercesc_2_7::RefHashTableOf.1"*, %"class.xercesc_2_7::RefHashTableOf.1"** %toEnum.addr, align 8, !dbg !2138
  store %"class.xercesc_2_7::RefHashTableOf.1"* %4, %"class.xercesc_2_7::RefHashTableOf.1"** %fToEnum, align 8, !dbg !2137
  %fMemoryManager = getelementptr inbounds %"class.xercesc_2_7::RefHashTableOfEnumerator", %"class.xercesc_2_7::RefHashTableOfEnumerator"* %this1, i32 0, i32 5, !dbg !2139
  %5 = load %"class.xercesc_2_7::MemoryManager"*, %"class.xercesc_2_7::MemoryManager"** %manager.addr, align 8, !dbg !2140
  store %"class.xercesc_2_7::MemoryManager"* %5, %"class.xercesc_2_7::MemoryManager"** %fMemoryManager, align 8, !dbg !2139
  %6 = load %"class.xercesc_2_7::RefHashTableOf.1"*, %"class.xercesc_2_7::RefHashTableOf.1"** %toEnum.addr, align 8, !dbg !2141
  %tobool3 = icmp ne %"class.xercesc_2_7::RefHashTableOf.1"* %6, null, !dbg !2141
  br i1 %tobool3, label %if.end, label %if.then, !dbg !2144

if.then:                                          ; preds = %invoke.cont
  %exception = call i8* @__cxa_allocate_exception(i64 48) #8, !dbg !2145
  %7 = bitcast i8* %exception to %"class.xercesc_2_7::NullPointerException"*, !dbg !2145
  %fMemoryManager4 = getelementptr inbounds %"class.xercesc_2_7::RefHashTableOfEnumerator", %"class.xercesc_2_7::RefHashTableOfEnumerator"* %this1, i32 0, i32 5, !dbg !2145
  %8 = load %"class.xercesc_2_7::MemoryManager"*, %"class.xercesc_2_7::MemoryManager"** %fMemoryManager4, align 8, !dbg !2145
  invoke void @_ZN11xercesc_2_720NullPointerExceptionC2EPKcjNS_10XMLExcepts5CodesEPNS_13MemoryManagerE(%"class.xercesc_2_7::NullPointerException"* %7, i8* getelementptr inbounds ([32 x i8], [32 x i8]* @.str.2, i64 0, i64 0), i32 527, i32 15, %"class.xercesc_2_7::MemoryManager"* %8)
          to label %invoke.cont6 unwind label %lpad5, !dbg !2145

invoke.cont6:                                     ; preds = %if.then
  invoke void @__cxa_throw(i8* %exception, i8* bitcast ({ i8*, i8*, i8* }* @_ZTIN11xercesc_2_720NullPointerExceptionE to i8*), i8* bitcast (void (%"class.xercesc_2_7::NullPointerException"*)* @_ZN11xercesc_2_720NullPointerExceptionD2Ev to i8*)) #11
          to label %unreachable unwind label %lpad, !dbg !2145

lpad:                                             ; preds = %if.end, %invoke.cont6, %entry
  %9 = landingpad { i8*, i32 }
          cleanup, !dbg !2146
  %10 = extractvalue { i8*, i32 } %9, 0, !dbg !2146
  store i8* %10, i8** %exn.slot, align 8, !dbg !2146
  %11 = extractvalue { i8*, i32 } %9, 1, !dbg !2146
  store i32 %11, i32* %ehselector.slot, align 4, !dbg !2146
  br label %ehcleanup, !dbg !2146

lpad5:                                            ; preds = %if.then
  %12 = landingpad { i8*, i32 }
          cleanup, !dbg !2147
  %13 = extractvalue { i8*, i32 } %12, 0, !dbg !2147
  store i8* %13, i8** %exn.slot, align 8, !dbg !2147
  %14 = extractvalue { i8*, i32 } %12, 1, !dbg !2147
  store i32 %14, i32* %ehselector.slot, align 4, !dbg !2147
  call void @__cxa_free_exception(i8* %exception) #8, !dbg !2145
  br label %ehcleanup, !dbg !2145

if.end:                                           ; preds = %invoke.cont
  invoke void @_ZN11xercesc_2_724RefHashTableOfEnumeratorINS_9DTDAttDefEE8findNextEv(%"class.xercesc_2_7::RefHashTableOfEnumerator"* %this1)
          to label %invoke.cont7 unwind label %lpad, !dbg !2148

invoke.cont7:                                     ; preds = %if.end
  ret void, !dbg !2146

ehcleanup:                                        ; preds = %lpad5, %lpad
  %15 = bitcast %"class.xercesc_2_7::RefHashTableOfEnumerator"* %this1 to %"class.xercesc_2_7::XMLEnumerator"*, !dbg !2149
  call void @_ZN11xercesc_2_713XMLEnumeratorINS_9DTDAttDefEED2Ev(%"class.xercesc_2_7::XMLEnumerator"* %15) #8, !dbg !2149
  br label %eh.resume, !dbg !2149

eh.resume:                                        ; preds = %ehcleanup
  %exn = load i8*, i8** %exn.slot, align 8, !dbg !2149
  %sel = load i32, i32* %ehselector.slot, align 4, !dbg !2149
  %lpad.val = insertvalue { i8*, i32 } undef, i8* %exn, 0, !dbg !2149
  %lpad.val8 = insertvalue { i8*, i32 } %lpad.val, i32 %sel, 1, !dbg !2149
  resume { i8*, i32 } %lpad.val8, !dbg !2149

unreachable:                                      ; preds = %invoke.cont6
  unreachable
}

; Function Attrs: nounwind
declare dso_local void @_ZN11xercesc_2_77XMemorydlEPvPNS_13MemoryManagerE(i8*, %"class.xercesc_2_7::MemoryManager"*) #5

; Function Attrs: noinline nounwind uwtable
define dso_local void @_ZN11xercesc_2_713DTDAttDefListD2Ev(%"class.xercesc_2_7::DTDAttDefList"* %this) unnamed_addr #1 align 2 personality i8* bitcast (i32 (...)* @__gxx_personality_v0 to i8*) !dbg !2150 {
entry:
  %this.addr = alloca %"class.xercesc_2_7::DTDAttDefList"*, align 8
  %exn.slot = alloca i8*
  %ehselector.slot = alloca i32
  store %"class.xercesc_2_7::DTDAttDefList"* %this, %"class.xercesc_2_7::DTDAttDefList"** %this.addr, align 8
  call void @llvm.dbg.declare(metadata %"class.xercesc_2_7::DTDAttDefList"** %this.addr, metadata !2151, metadata !DIExpression()), !dbg !2152
  %this1 = load %"class.xercesc_2_7::DTDAttDefList"*, %"class.xercesc_2_7::DTDAttDefList"** %this.addr, align 8
  %0 = bitcast %"class.xercesc_2_7::DTDAttDefList"* %this1 to i32 (...)***, !dbg !2153
  store i32 (...)** bitcast (i8** getelementptr inbounds ({ [18 x i8*] }, { [18 x i8*] }* @_ZTVN11xercesc_2_713DTDAttDefListE, i32 0, inrange i32 0, i32 2) to i32 (...)**), i32 (...)*** %0, align 8, !dbg !2153
  %fEnum = getelementptr inbounds %"class.xercesc_2_7::DTDAttDefList", %"class.xercesc_2_7::DTDAttDefList"* %this1, i32 0, i32 1, !dbg !2154
  %1 = load %"class.xercesc_2_7::RefHashTableOfEnumerator"*, %"class.xercesc_2_7::RefHashTableOfEnumerator"** %fEnum, align 8, !dbg !2154
  %isnull = icmp eq %"class.xercesc_2_7::RefHashTableOfEnumerator"* %1, null, !dbg !2156
  br i1 %isnull, label %delete.end, label %delete.notnull, !dbg !2156

delete.notnull:                                   ; preds = %entry
  %2 = bitcast %"class.xercesc_2_7::RefHashTableOfEnumerator"* %1 to void (%"class.xercesc_2_7::RefHashTableOfEnumerator"*)***, !dbg !2156
  %vtable = load void (%"class.xercesc_2_7::RefHashTableOfEnumerator"*)**, void (%"class.xercesc_2_7::RefHashTableOfEnumerator"*)*** %2, align 8, !dbg !2156
  %vfn = getelementptr inbounds void (%"class.xercesc_2_7::RefHashTableOfEnumerator"*)*, void (%"class.xercesc_2_7::RefHashTableOfEnumerator"*)** %vtable, i64 1, !dbg !2156
  %3 = load void (%"class.xercesc_2_7::RefHashTableOfEnumerator"*)*, void (%"class.xercesc_2_7::RefHashTableOfEnumerator"*)** %vfn, align 8, !dbg !2156
  call void %3(%"class.xercesc_2_7::RefHashTableOfEnumerator"* %1) #8, !dbg !2156
  br label %delete.end, !dbg !2156

delete.end:                                       ; preds = %delete.notnull, %entry
  %4 = bitcast %"class.xercesc_2_7::DTDAttDefList"* %this1 to %"class.xercesc_2_7::XMLAttDefList"*, !dbg !2157
  %call = invoke %"class.xercesc_2_7::MemoryManager"* @_ZNK11xercesc_2_713XMLAttDefList16getMemoryManagerEv(%"class.xercesc_2_7::XMLAttDefList"* %4)
          to label %invoke.cont unwind label %lpad, !dbg !2157

invoke.cont:                                      ; preds = %delete.end
  %fArray = getelementptr inbounds %"class.xercesc_2_7::DTDAttDefList", %"class.xercesc_2_7::DTDAttDefList"* %this1, i32 0, i32 3, !dbg !2158
  %5 = load %"class.xercesc_2_7::DTDAttDef"**, %"class.xercesc_2_7::DTDAttDef"*** %fArray, align 8, !dbg !2158
  %6 = bitcast %"class.xercesc_2_7::DTDAttDef"** %5 to i8*, !dbg !2158
  %7 = bitcast %"class.xercesc_2_7::MemoryManager"* %call to void (%"class.xercesc_2_7::MemoryManager"*, i8*)***, !dbg !2159
  %vtable2 = load void (%"class.xercesc_2_7::MemoryManager"*, i8*)**, void (%"class.xercesc_2_7::MemoryManager"*, i8*)*** %7, align 8, !dbg !2159
  %vfn3 = getelementptr inbounds void (%"class.xercesc_2_7::MemoryManager"*, i8*)*, void (%"class.xercesc_2_7::MemoryManager"*, i8*)** %vtable2, i64 3, !dbg !2159
  %8 = load void (%"class.xercesc_2_7::MemoryManager"*, i8*)*, void (%"class.xercesc_2_7::MemoryManager"*, i8*)** %vfn3, align 8, !dbg !2159
  invoke void %8(%"class.xercesc_2_7::MemoryManager"* %call, i8* %6)
          to label %invoke.cont4 unwind label %lpad, !dbg !2159

invoke.cont4:                                     ; preds = %invoke.cont
  %9 = bitcast %"class.xercesc_2_7::DTDAttDefList"* %this1 to %"class.xercesc_2_7::XMLAttDefList"*, !dbg !2160
  call void @_ZN11xercesc_2_713XMLAttDefListD2Ev(%"class.xercesc_2_7::XMLAttDefList"* %9) #8, !dbg !2160
  ret void, !dbg !2161

lpad:                                             ; preds = %invoke.cont, %delete.end
  %10 = landingpad { i8*, i32 }
          catch i8* null, !dbg !2160
  %11 = extractvalue { i8*, i32 } %10, 0, !dbg !2160
  store i8* %11, i8** %exn.slot, align 8, !dbg !2160
  %12 = extractvalue { i8*, i32 } %10, 1, !dbg !2160
  store i32 %12, i32* %ehselector.slot, align 4, !dbg !2160
  %13 = bitcast %"class.xercesc_2_7::DTDAttDefList"* %this1 to %"class.xercesc_2_7::XMLAttDefList"*, !dbg !2160
  call void @_ZN11xercesc_2_713XMLAttDefListD2Ev(%"class.xercesc_2_7::XMLAttDefList"* %13) #8, !dbg !2160
  br label %terminate.handler, !dbg !2160

terminate.handler:                                ; preds = %lpad
  %exn = load i8*, i8** %exn.slot, align 8, !dbg !2160
  call void @__clang_call_terminate(i8* %exn) #10, !dbg !2160
  unreachable, !dbg !2160
}

; Function Attrs: noinline nounwind uwtable
define dso_local void @_ZN11xercesc_2_713DTDAttDefListD0Ev(%"class.xercesc_2_7::DTDAttDefList"* %this) unnamed_addr #1 align 2 !dbg !2162 {
entry:
  %this.addr = alloca %"class.xercesc_2_7::DTDAttDefList"*, align 8
  store %"class.xercesc_2_7::DTDAttDefList"* %this, %"class.xercesc_2_7::DTDAttDefList"** %this.addr, align 8
  call void @llvm.dbg.declare(metadata %"class.xercesc_2_7::DTDAttDefList"** %this.addr, metadata !2163, metadata !DIExpression()), !dbg !2164
  %this1 = load %"class.xercesc_2_7::DTDAttDefList"*, %"class.xercesc_2_7::DTDAttDefList"** %this.addr, align 8
  call void @_ZN11xercesc_2_713DTDAttDefListD1Ev(%"class.xercesc_2_7::DTDAttDefList"* %this1) #8, !dbg !2165
  %0 = bitcast %"class.xercesc_2_7::DTDAttDefList"* %this1 to i8*, !dbg !2165
  call void @_ZN11xercesc_2_77XMemorydlEPv(i8* %0) #8, !dbg !2165
  ret void, !dbg !2166
}

; Function Attrs: noinline uwtable
define dso_local zeroext i1 @_ZNK11xercesc_2_713DTDAttDefList15hasMoreElementsEv(%"class.xercesc_2_7::DTDAttDefList"* %this) unnamed_addr #6 align 2 !dbg !2167 {
entry:
  %this.addr = alloca %"class.xercesc_2_7::DTDAttDefList"*, align 8
  store %"class.xercesc_2_7::DTDAttDefList"* %this, %"class.xercesc_2_7::DTDAttDefList"** %this.addr, align 8
  call void @llvm.dbg.declare(metadata %"class.xercesc_2_7::DTDAttDefList"** %this.addr, metadata !2168, metadata !DIExpression()), !dbg !2170
  %this1 = load %"class.xercesc_2_7::DTDAttDefList"*, %"class.xercesc_2_7::DTDAttDefList"** %this.addr, align 8
  %fEnum = getelementptr inbounds %"class.xercesc_2_7::DTDAttDefList", %"class.xercesc_2_7::DTDAttDefList"* %this1, i32 0, i32 1, !dbg !2171
  %0 = load %"class.xercesc_2_7::RefHashTableOfEnumerator"*, %"class.xercesc_2_7::RefHashTableOfEnumerator"** %fEnum, align 8, !dbg !2171
  %1 = bitcast %"class.xercesc_2_7::RefHashTableOfEnumerator"* %0 to i1 (%"class.xercesc_2_7::RefHashTableOfEnumerator"*)***, !dbg !2172
  %vtable = load i1 (%"class.xercesc_2_7::RefHashTableOfEnumerator"*)**, i1 (%"class.xercesc_2_7::RefHashTableOfEnumerator"*)*** %1, align 8, !dbg !2172
  %vfn = getelementptr inbounds i1 (%"class.xercesc_2_7::RefHashTableOfEnumerator"*)*, i1 (%"class.xercesc_2_7::RefHashTableOfEnumerator"*)** %vtable, i64 2, !dbg !2172
  %2 = load i1 (%"class.xercesc_2_7::RefHashTableOfEnumerator"*)*, i1 (%"class.xercesc_2_7::RefHashTableOfEnumerator"*)** %vfn, align 8, !dbg !2172
  %call = call zeroext i1 %2(%"class.xercesc_2_7::RefHashTableOfEnumerator"* %0), !dbg !2172
  ret i1 %call, !dbg !2173
}

; Function Attrs: noinline uwtable
define dso_local zeroext i1 @_ZNK11xercesc_2_713DTDAttDefList7isEmptyEv(%"class.xercesc_2_7::DTDAttDefList"* %this) unnamed_addr #6 align 2 !dbg !2174 {
entry:
  %this.addr = alloca %"class.xercesc_2_7::DTDAttDefList"*, align 8
  store %"class.xercesc_2_7::DTDAttDefList"* %this, %"class.xercesc_2_7::DTDAttDefList"** %this.addr, align 8
  call void @llvm.dbg.declare(metadata %"class.xercesc_2_7::DTDAttDefList"** %this.addr, metadata !2175, metadata !DIExpression()), !dbg !2176
  %this1 = load %"class.xercesc_2_7::DTDAttDefList"*, %"class.xercesc_2_7::DTDAttDefList"** %this.addr, align 8
  %fList = getelementptr inbounds %"class.xercesc_2_7::DTDAttDefList", %"class.xercesc_2_7::DTDAttDefList"* %this1, i32 0, i32 2, !dbg !2177
  %0 = load %"class.xercesc_2_7::RefHashTableOf.1"*, %"class.xercesc_2_7::RefHashTableOf.1"** %fList, align 8, !dbg !2177
  %call = call zeroext i1 @_ZNK11xercesc_2_714RefHashTableOfINS_9DTDAttDefEE7isEmptyEv(%"class.xercesc_2_7::RefHashTableOf.1"* %0), !dbg !2178
  ret i1 %call, !dbg !2179
}

; Function Attrs: noinline nounwind uwtable
define linkonce_odr dso_local zeroext i1 @_ZNK11xercesc_2_714RefHashTableOfINS_9DTDAttDefEE7isEmptyEv(%"class.xercesc_2_7::RefHashTableOf.1"* %this) #1 comdat align 2 !dbg !2180 {
entry:
  %this.addr = alloca %"class.xercesc_2_7::RefHashTableOf.1"*, align 8
  store %"class.xercesc_2_7::RefHashTableOf.1"* %this, %"class.xercesc_2_7::RefHashTableOf.1"** %this.addr, align 8
  call void @llvm.dbg.declare(metadata %"class.xercesc_2_7::RefHashTableOf.1"** %this.addr, metadata !2181, metadata !DIExpression()), !dbg !2183
  %this1 = load %"class.xercesc_2_7::RefHashTableOf.1"*, %"class.xercesc_2_7::RefHashTableOf.1"** %this.addr, align 8
  %fCount = getelementptr inbounds %"class.xercesc_2_7::RefHashTableOf.1", %"class.xercesc_2_7::RefHashTableOf.1"* %this1, i32 0, i32 5, !dbg !2184
  %0 = load i32, i32* %fCount, align 8, !dbg !2184
  %cmp = icmp eq i32 %0, 0, !dbg !2185
  ret i1 %cmp, !dbg !2186
}

; Function Attrs: noinline uwtable
define dso_local %"class.xercesc_2_7::XMLAttDef"* @_ZN11xercesc_2_713DTDAttDefList10findAttDefEmPKt(%"class.xercesc_2_7::DTDAttDefList"* %this, i64 %0, i16* %attName) unnamed_addr #6 align 2 !dbg !2187 {
entry:
  %this.addr = alloca %"class.xercesc_2_7::DTDAttDefList"*, align 8
  %.addr = alloca i64, align 8
  %attName.addr = alloca i16*, align 8
  store %"class.xercesc_2_7::DTDAttDefList"* %this, %"class.xercesc_2_7::DTDAttDefList"** %this.addr, align 8
  call void @llvm.dbg.declare(metadata %"class.xercesc_2_7::DTDAttDefList"** %this.addr, metadata !2188, metadata !DIExpression()), !dbg !2189
  store i64 %0, i64* %.addr, align 8
  call void @llvm.dbg.declare(metadata i64* %.addr, metadata !2190, metadata !DIExpression()), !dbg !2191
  store i16* %attName, i16** %attName.addr, align 8
  call void @llvm.dbg.declare(metadata i16** %attName.addr, metadata !2192, metadata !DIExpression()), !dbg !2193
  %this1 = load %"class.xercesc_2_7::DTDAttDefList"*, %"class.xercesc_2_7::DTDAttDefList"** %this.addr, align 8
  %fList = getelementptr inbounds %"class.xercesc_2_7::DTDAttDefList", %"class.xercesc_2_7::DTDAttDefList"* %this1, i32 0, i32 2, !dbg !2194
  %1 = load %"class.xercesc_2_7::RefHashTableOf.1"*, %"class.xercesc_2_7::RefHashTableOf.1"** %fList, align 8, !dbg !2194
  %2 = load i16*, i16** %attName.addr, align 8, !dbg !2195
  %3 = bitcast i16* %2 to i8*, !dbg !2195
  %call = call %"class.xercesc_2_7::DTDAttDef"* @_ZN11xercesc_2_714RefHashTableOfINS_9DTDAttDefEE3getEPKv(%"class.xercesc_2_7::RefHashTableOf.1"* %1, i8* %3), !dbg !2196
  %4 = bitcast %"class.xercesc_2_7::DTDAttDef"* %call to %"class.xercesc_2_7::XMLAttDef"*, !dbg !2194
  ret %"class.xercesc_2_7::XMLAttDef"* %4, !dbg !2197
}

; Function Attrs: noinline uwtable
define linkonce_odr dso_local %"class.xercesc_2_7::DTDAttDef"* @_ZN11xercesc_2_714RefHashTableOfINS_9DTDAttDefEE3getEPKv(%"class.xercesc_2_7::RefHashTableOf.1"* %this, i8* %key) #6 comdat align 2 !dbg !2198 {
entry:
  %retval = alloca %"class.xercesc_2_7::DTDAttDef"*, align 8
  %this.addr = alloca %"class.xercesc_2_7::RefHashTableOf.1"*, align 8
  %key.addr = alloca i8*, align 8
  %hashVal = alloca i32, align 4
  %findIt = alloca %"struct.xercesc_2_7::RefHashTableBucketElem.0"*, align 8
  store %"class.xercesc_2_7::RefHashTableOf.1"* %this, %"class.xercesc_2_7::RefHashTableOf.1"** %this.addr, align 8
  call void @llvm.dbg.declare(metadata %"class.xercesc_2_7::RefHashTableOf.1"** %this.addr, metadata !2199, metadata !DIExpression()), !dbg !2200
  store i8* %key, i8** %key.addr, align 8
  call void @llvm.dbg.declare(metadata i8** %key.addr, metadata !2201, metadata !DIExpression()), !dbg !2202
  %this1 = load %"class.xercesc_2_7::RefHashTableOf.1"*, %"class.xercesc_2_7::RefHashTableOf.1"** %this.addr, align 8
  call void @llvm.dbg.declare(metadata i32* %hashVal, metadata !2203, metadata !DIExpression()), !dbg !2204
  call void @llvm.dbg.declare(metadata %"struct.xercesc_2_7::RefHashTableBucketElem.0"** %findIt, metadata !2205, metadata !DIExpression()), !dbg !2206
  %0 = load i8*, i8** %key.addr, align 8, !dbg !2207
  %call = call %"struct.xercesc_2_7::RefHashTableBucketElem.0"* @_ZN11xercesc_2_714RefHashTableOfINS_9DTDAttDefEE14findBucketElemEPKvRj(%"class.xercesc_2_7::RefHashTableOf.1"* %this1, i8* %0, i32* dereferenceable(4) %hashVal), !dbg !2208
  store %"struct.xercesc_2_7::RefHashTableBucketElem.0"* %call, %"struct.xercesc_2_7::RefHashTableBucketElem.0"** %findIt, align 8, !dbg !2206
  %1 = load %"struct.xercesc_2_7::RefHashTableBucketElem.0"*, %"struct.xercesc_2_7::RefHashTableBucketElem.0"** %findIt, align 8, !dbg !2209
  %tobool = icmp ne %"struct.xercesc_2_7::RefHashTableBucketElem.0"* %1, null, !dbg !2209
  br i1 %tobool, label %if.end, label %if.then, !dbg !2211

if.then:                                          ; preds = %entry
  store %"class.xercesc_2_7::DTDAttDef"* null, %"class.xercesc_2_7::DTDAttDef"** %retval, align 8, !dbg !2212
  br label %return, !dbg !2212

if.end:                                           ; preds = %entry
  %2 = load %"struct.xercesc_2_7::RefHashTableBucketElem.0"*, %"struct.xercesc_2_7::RefHashTableBucketElem.0"** %findIt, align 8, !dbg !2213
  %fData = getelementptr inbounds %"struct.xercesc_2_7::RefHashTableBucketElem.0", %"struct.xercesc_2_7::RefHashTableBucketElem.0"* %2, i32 0, i32 0, !dbg !2214
  %3 = load %"class.xercesc_2_7::DTDAttDef"*, %"class.xercesc_2_7::DTDAttDef"** %fData, align 8, !dbg !2214
  store %"class.xercesc_2_7::DTDAttDef"* %3, %"class.xercesc_2_7::DTDAttDef"** %retval, align 8, !dbg !2215
  br label %return, !dbg !2215

return:                                           ; preds = %if.end, %if.then
  %4 = load %"class.xercesc_2_7::DTDAttDef"*, %"class.xercesc_2_7::DTDAttDef"** %retval, align 8, !dbg !2216
  ret %"class.xercesc_2_7::DTDAttDef"* %4, !dbg !2216
}

; Function Attrs: noinline uwtable
define dso_local %"class.xercesc_2_7::XMLAttDef"* @_ZNK11xercesc_2_713DTDAttDefList10findAttDefEmPKt(%"class.xercesc_2_7::DTDAttDefList"* %this, i64 %0, i16* %attName) unnamed_addr #6 align 2 !dbg !2217 {
entry:
  %this.addr = alloca %"class.xercesc_2_7::DTDAttDefList"*, align 8
  %.addr = alloca i64, align 8
  %attName.addr = alloca i16*, align 8
  store %"class.xercesc_2_7::DTDAttDefList"* %this, %"class.xercesc_2_7::DTDAttDefList"** %this.addr, align 8
  call void @llvm.dbg.declare(metadata %"class.xercesc_2_7::DTDAttDefList"** %this.addr, metadata !2218, metadata !DIExpression()), !dbg !2219
  store i64 %0, i64* %.addr, align 8
  call void @llvm.dbg.declare(metadata i64* %.addr, metadata !2220, metadata !DIExpression()), !dbg !2221
  store i16* %attName, i16** %attName.addr, align 8
  call void @llvm.dbg.declare(metadata i16** %attName.addr, metadata !2222, metadata !DIExpression()), !dbg !2223
  %this1 = load %"class.xercesc_2_7::DTDAttDefList"*, %"class.xercesc_2_7::DTDAttDefList"** %this.addr, align 8
  %fList = getelementptr inbounds %"class.xercesc_2_7::DTDAttDefList", %"class.xercesc_2_7::DTDAttDefList"* %this1, i32 0, i32 2, !dbg !2224
  %1 = load %"class.xercesc_2_7::RefHashTableOf.1"*, %"class.xercesc_2_7::RefHashTableOf.1"** %fList, align 8, !dbg !2224
  %2 = load i16*, i16** %attName.addr, align 8, !dbg !2225
  %3 = bitcast i16* %2 to i8*, !dbg !2225
  %call = call %"class.xercesc_2_7::DTDAttDef"* @_ZN11xercesc_2_714RefHashTableOfINS_9DTDAttDefEE3getEPKv(%"class.xercesc_2_7::RefHashTableOf.1"* %1, i8* %3), !dbg !2226
  %4 = bitcast %"class.xercesc_2_7::DTDAttDef"* %call to %"class.xercesc_2_7::XMLAttDef"*, !dbg !2224
  ret %"class.xercesc_2_7::XMLAttDef"* %4, !dbg !2227
}

; Function Attrs: noinline uwtable
define dso_local %"class.xercesc_2_7::XMLAttDef"* @_ZN11xercesc_2_713DTDAttDefList10findAttDefEPKtS2_(%"class.xercesc_2_7::DTDAttDefList"* %this, i16* %0, i16* %attName) unnamed_addr #6 align 2 !dbg !2228 {
entry:
  %this.addr = alloca %"class.xercesc_2_7::DTDAttDefList"*, align 8
  %.addr = alloca i16*, align 8
  %attName.addr = alloca i16*, align 8
  store %"class.xercesc_2_7::DTDAttDefList"* %this, %"class.xercesc_2_7::DTDAttDefList"** %this.addr, align 8
  call void @llvm.dbg.declare(metadata %"class.xercesc_2_7::DTDAttDefList"** %this.addr, metadata !2229, metadata !DIExpression()), !dbg !2230
  store i16* %0, i16** %.addr, align 8
  call void @llvm.dbg.declare(metadata i16** %.addr, metadata !2231, metadata !DIExpression()), !dbg !2232
  store i16* %attName, i16** %attName.addr, align 8
  call void @llvm.dbg.declare(metadata i16** %attName.addr, metadata !2233, metadata !DIExpression()), !dbg !2234
  %this1 = load %"class.xercesc_2_7::DTDAttDefList"*, %"class.xercesc_2_7::DTDAttDefList"** %this.addr, align 8
  %fList = getelementptr inbounds %"class.xercesc_2_7::DTDAttDefList", %"class.xercesc_2_7::DTDAttDefList"* %this1, i32 0, i32 2, !dbg !2235
  %1 = load %"class.xercesc_2_7::RefHashTableOf.1"*, %"class.xercesc_2_7::RefHashTableOf.1"** %fList, align 8, !dbg !2235
  %2 = load i16*, i16** %attName.addr, align 8, !dbg !2236
  %3 = bitcast i16* %2 to i8*, !dbg !2236
  %call = call %"class.xercesc_2_7::DTDAttDef"* @_ZN11xercesc_2_714RefHashTableOfINS_9DTDAttDefEE3getEPKv(%"class.xercesc_2_7::RefHashTableOf.1"* %1, i8* %3), !dbg !2237
  %4 = bitcast %"class.xercesc_2_7::DTDAttDef"* %call to %"class.xercesc_2_7::XMLAttDef"*, !dbg !2235
  ret %"class.xercesc_2_7::XMLAttDef"* %4, !dbg !2238
}

; Function Attrs: noinline uwtable
define dso_local %"class.xercesc_2_7::XMLAttDef"* @_ZNK11xercesc_2_713DTDAttDefList10findAttDefEPKtS2_(%"class.xercesc_2_7::DTDAttDefList"* %this, i16* %0, i16* %attName) unnamed_addr #6 align 2 !dbg !2239 {
entry:
  %this.addr = alloca %"class.xercesc_2_7::DTDAttDefList"*, align 8
  %.addr = alloca i16*, align 8
  %attName.addr = alloca i16*, align 8
  store %"class.xercesc_2_7::DTDAttDefList"* %this, %"class.xercesc_2_7::DTDAttDefList"** %this.addr, align 8
  call void @llvm.dbg.declare(metadata %"class.xercesc_2_7::DTDAttDefList"** %this.addr, metadata !2240, metadata !DIExpression()), !dbg !2241
  store i16* %0, i16** %.addr, align 8
  call void @llvm.dbg.declare(metadata i16** %.addr, metadata !2242, metadata !DIExpression()), !dbg !2243
  store i16* %attName, i16** %attName.addr, align 8
  call void @llvm.dbg.declare(metadata i16** %attName.addr, metadata !2244, metadata !DIExpression()), !dbg !2245
  %this1 = load %"class.xercesc_2_7::DTDAttDefList"*, %"class.xercesc_2_7::DTDAttDefList"** %this.addr, align 8
  %fList = getelementptr inbounds %"class.xercesc_2_7::DTDAttDefList", %"class.xercesc_2_7::DTDAttDefList"* %this1, i32 0, i32 2, !dbg !2246
  %1 = load %"class.xercesc_2_7::RefHashTableOf.1"*, %"class.xercesc_2_7::RefHashTableOf.1"** %fList, align 8, !dbg !2246
  %2 = load i16*, i16** %attName.addr, align 8, !dbg !2247
  %3 = bitcast i16* %2 to i8*, !dbg !2247
  %call = call %"class.xercesc_2_7::DTDAttDef"* @_ZN11xercesc_2_714RefHashTableOfINS_9DTDAttDefEE3getEPKv(%"class.xercesc_2_7::RefHashTableOf.1"* %1, i8* %3), !dbg !2248
  %4 = bitcast %"class.xercesc_2_7::DTDAttDef"* %call to %"class.xercesc_2_7::XMLAttDef"*, !dbg !2246
  ret %"class.xercesc_2_7::XMLAttDef"* %4, !dbg !2249
}

; Function Attrs: noinline uwtable
define dso_local dereferenceable(56) %"class.xercesc_2_7::XMLAttDef"* @_ZN11xercesc_2_713DTDAttDefList11nextElementEv(%"class.xercesc_2_7::DTDAttDefList"* %this) unnamed_addr #6 align 2 !dbg !2250 {
entry:
  %this.addr = alloca %"class.xercesc_2_7::DTDAttDefList"*, align 8
  store %"class.xercesc_2_7::DTDAttDefList"* %this, %"class.xercesc_2_7::DTDAttDefList"** %this.addr, align 8
  call void @llvm.dbg.declare(metadata %"class.xercesc_2_7::DTDAttDefList"** %this.addr, metadata !2251, metadata !DIExpression()), !dbg !2252
  %this1 = load %"class.xercesc_2_7::DTDAttDefList"*, %"class.xercesc_2_7::DTDAttDefList"** %this.addr, align 8
  %fEnum = getelementptr inbounds %"class.xercesc_2_7::DTDAttDefList", %"class.xercesc_2_7::DTDAttDefList"* %this1, i32 0, i32 1, !dbg !2253
  %0 = load %"class.xercesc_2_7::RefHashTableOfEnumerator"*, %"class.xercesc_2_7::RefHashTableOfEnumerator"** %fEnum, align 8, !dbg !2253
  %1 = bitcast %"class.xercesc_2_7::RefHashTableOfEnumerator"* %0 to %"class.xercesc_2_7::DTDAttDef"* (%"class.xercesc_2_7::RefHashTableOfEnumerator"*)***, !dbg !2254
  %vtable = load %"class.xercesc_2_7::DTDAttDef"* (%"class.xercesc_2_7::RefHashTableOfEnumerator"*)**, %"class.xercesc_2_7::DTDAttDef"* (%"class.xercesc_2_7::RefHashTableOfEnumerator"*)*** %1, align 8, !dbg !2254
  %vfn = getelementptr inbounds %"class.xercesc_2_7::DTDAttDef"* (%"class.xercesc_2_7::RefHashTableOfEnumerator"*)*, %"class.xercesc_2_7::DTDAttDef"* (%"class.xercesc_2_7::RefHashTableOfEnumerator"*)** %vtable, i64 3, !dbg !2254
  %2 = load %"class.xercesc_2_7::DTDAttDef"* (%"class.xercesc_2_7::RefHashTableOfEnumerator"*)*, %"class.xercesc_2_7::DTDAttDef"* (%"class.xercesc_2_7::RefHashTableOfEnumerator"*)** %vfn, align 8, !dbg !2254
  %call = call dereferenceable(72) %"class.xercesc_2_7::DTDAttDef"* %2(%"class.xercesc_2_7::RefHashTableOfEnumerator"* %0), !dbg !2254
  %3 = bitcast %"class.xercesc_2_7::DTDAttDef"* %call to %"class.xercesc_2_7::XMLAttDef"*, !dbg !2253
  ret %"class.xercesc_2_7::XMLAttDef"* %3, !dbg !2255
}

; Function Attrs: noinline uwtable
define dso_local void @_ZN11xercesc_2_713DTDAttDefList5ResetEv(%"class.xercesc_2_7::DTDAttDefList"* %this) unnamed_addr #6 align 2 !dbg !2256 {
entry:
  %this.addr = alloca %"class.xercesc_2_7::DTDAttDefList"*, align 8
  store %"class.xercesc_2_7::DTDAttDefList"* %this, %"class.xercesc_2_7::DTDAttDefList"** %this.addr, align 8
  call void @llvm.dbg.declare(metadata %"class.xercesc_2_7::DTDAttDefList"** %this.addr, metadata !2257, metadata !DIExpression()), !dbg !2258
  %this1 = load %"class.xercesc_2_7::DTDAttDefList"*, %"class.xercesc_2_7::DTDAttDefList"** %this.addr, align 8
  %fEnum = getelementptr inbounds %"class.xercesc_2_7::DTDAttDefList", %"class.xercesc_2_7::DTDAttDefList"* %this1, i32 0, i32 1, !dbg !2259
  %0 = load %"class.xercesc_2_7::RefHashTableOfEnumerator"*, %"class.xercesc_2_7::RefHashTableOfEnumerator"** %fEnum, align 8, !dbg !2259
  %1 = bitcast %"class.xercesc_2_7::RefHashTableOfEnumerator"* %0 to void (%"class.xercesc_2_7::RefHashTableOfEnumerator"*)***, !dbg !2260
  %vtable = load void (%"class.xercesc_2_7::RefHashTableOfEnumerator"*)**, void (%"class.xercesc_2_7::RefHashTableOfEnumerator"*)*** %1, align 8, !dbg !2260
  %vfn = getelementptr inbounds void (%"class.xercesc_2_7::RefHashTableOfEnumerator"*)*, void (%"class.xercesc_2_7::RefHashTableOfEnumerator"*)** %vtable, i64 4, !dbg !2260
  %2 = load void (%"class.xercesc_2_7::RefHashTableOfEnumerator"*)*, void (%"class.xercesc_2_7::RefHashTableOfEnumerator"*)** %vfn, align 8, !dbg !2260
  call void %2(%"class.xercesc_2_7::RefHashTableOfEnumerator"* %0), !dbg !2260
  ret void, !dbg !2261
}

; Function Attrs: noinline nounwind uwtable
define dso_local i32 @_ZNK11xercesc_2_713DTDAttDefList14getAttDefCountEv(%"class.xercesc_2_7::DTDAttDefList"* %this) unnamed_addr #1 align 2 !dbg !2262 {
entry:
  %this.addr = alloca %"class.xercesc_2_7::DTDAttDefList"*, align 8
  store %"class.xercesc_2_7::DTDAttDefList"* %this, %"class.xercesc_2_7::DTDAttDefList"** %this.addr, align 8
  call void @llvm.dbg.declare(metadata %"class.xercesc_2_7::DTDAttDefList"** %this.addr, metadata !2263, metadata !DIExpression()), !dbg !2264
  %this1 = load %"class.xercesc_2_7::DTDAttDefList"*, %"class.xercesc_2_7::DTDAttDefList"** %this.addr, align 8
  %fCount = getelementptr inbounds %"class.xercesc_2_7::DTDAttDefList", %"class.xercesc_2_7::DTDAttDefList"* %this1, i32 0, i32 5, !dbg !2265
  %0 = load i32, i32* %fCount, align 4, !dbg !2265
  ret i32 %0, !dbg !2266
}

; Function Attrs: noinline uwtable
define dso_local dereferenceable(56) %"class.xercesc_2_7::XMLAttDef"* @_ZN11xercesc_2_713DTDAttDefList9getAttDefEj(%"class.xercesc_2_7::DTDAttDefList"* %this, i32 %index) unnamed_addr #6 align 2 personality i8* bitcast (i32 (...)* @__gxx_personality_v0 to i8*) !dbg !2267 {
entry:
  %this.addr = alloca %"class.xercesc_2_7::DTDAttDefList"*, align 8
  %index.addr = alloca i32, align 4
  %exn.slot = alloca i8*
  %ehselector.slot = alloca i32
  store %"class.xercesc_2_7::DTDAttDefList"* %this, %"class.xercesc_2_7::DTDAttDefList"** %this.addr, align 8
  call void @llvm.dbg.declare(metadata %"class.xercesc_2_7::DTDAttDefList"** %this.addr, metadata !2268, metadata !DIExpression()), !dbg !2269
  store i32 %index, i32* %index.addr, align 4
  call void @llvm.dbg.declare(metadata i32* %index.addr, metadata !2270, metadata !DIExpression()), !dbg !2271
  %this1 = load %"class.xercesc_2_7::DTDAttDefList"*, %"class.xercesc_2_7::DTDAttDefList"** %this.addr, align 8
  %0 = load i32, i32* %index.addr, align 4, !dbg !2272
  %fCount = getelementptr inbounds %"class.xercesc_2_7::DTDAttDefList", %"class.xercesc_2_7::DTDAttDefList"* %this1, i32 0, i32 5, !dbg !2274
  %1 = load i32, i32* %fCount, align 4, !dbg !2274
  %cmp = icmp uge i32 %0, %1, !dbg !2275
  br i1 %cmp, label %if.then, label %if.end, !dbg !2276

if.then:                                          ; preds = %entry
  %exception = call i8* @__cxa_allocate_exception(i64 48) #8, !dbg !2277
  %2 = bitcast i8* %exception to %"class.xercesc_2_7::ArrayIndexOutOfBoundsException"*, !dbg !2277
  %3 = bitcast %"class.xercesc_2_7::DTDAttDefList"* %this1 to %"class.xercesc_2_7::XMLAttDefList"*, !dbg !2277
  %call = invoke %"class.xercesc_2_7::MemoryManager"* @_ZNK11xercesc_2_713XMLAttDefList16getMemoryManagerEv(%"class.xercesc_2_7::XMLAttDefList"* %3)
          to label %invoke.cont unwind label %lpad, !dbg !2277

invoke.cont:                                      ; preds = %if.then
  invoke void @_ZN11xercesc_2_730ArrayIndexOutOfBoundsExceptionC2EPKcjNS_10XMLExcepts5CodesEPNS_13MemoryManagerE(%"class.xercesc_2_7::ArrayIndexOutOfBoundsException"* %2, i8* getelementptr inbounds ([18 x i8], [18 x i8]* @.str, i64 0, i64 0), i32 128, i32 8, %"class.xercesc_2_7::MemoryManager"* %call)
          to label %invoke.cont2 unwind label %lpad, !dbg !2277

invoke.cont2:                                     ; preds = %invoke.cont
  call void @__cxa_throw(i8* %exception, i8* bitcast ({ i8*, i8*, i8* }* @_ZTIN11xercesc_2_730ArrayIndexOutOfBoundsExceptionE to i8*), i8* bitcast (void (%"class.xercesc_2_7::ArrayIndexOutOfBoundsException"*)* @_ZN11xercesc_2_730ArrayIndexOutOfBoundsExceptionD2Ev to i8*)) #11, !dbg !2277
  unreachable, !dbg !2277

lpad:                                             ; preds = %invoke.cont, %if.then
  %4 = landingpad { i8*, i32 }
          cleanup, !dbg !2278
  %5 = extractvalue { i8*, i32 } %4, 0, !dbg !2278
  store i8* %5, i8** %exn.slot, align 8, !dbg !2278
  %6 = extractvalue { i8*, i32 } %4, 1, !dbg !2278
  store i32 %6, i32* %ehselector.slot, align 4, !dbg !2278
  call void @__cxa_free_exception(i8* %exception) #8, !dbg !2277
  br label %eh.resume, !dbg !2277

if.end:                                           ; preds = %entry
  %fArray = getelementptr inbounds %"class.xercesc_2_7::DTDAttDefList", %"class.xercesc_2_7::DTDAttDefList"* %this1, i32 0, i32 3, !dbg !2279
  %7 = load %"class.xercesc_2_7::DTDAttDef"**, %"class.xercesc_2_7::DTDAttDef"*** %fArray, align 8, !dbg !2279
  %8 = load i32, i32* %index.addr, align 4, !dbg !2280
  %idxprom = zext i32 %8 to i64, !dbg !2279
  %arrayidx = getelementptr inbounds %"class.xercesc_2_7::DTDAttDef"*, %"class.xercesc_2_7::DTDAttDef"** %7, i64 %idxprom, !dbg !2279
  %9 = load %"class.xercesc_2_7::DTDAttDef"*, %"class.xercesc_2_7::DTDAttDef"** %arrayidx, align 8, !dbg !2279
  %10 = bitcast %"class.xercesc_2_7::DTDAttDef"* %9 to %"class.xercesc_2_7::XMLAttDef"*, !dbg !2281
  ret %"class.xercesc_2_7::XMLAttDef"* %10, !dbg !2282

eh.resume:                                        ; preds = %lpad
  %exn = load i8*, i8** %exn.slot, align 8, !dbg !2277
  %sel = load i32, i32* %ehselector.slot, align 4, !dbg !2277
  %lpad.val = insertvalue { i8*, i32 } undef, i8* %exn, 0, !dbg !2277
  %lpad.val3 = insertvalue { i8*, i32 } %lpad.val, i32 %sel, 1, !dbg !2277
  resume { i8*, i32 } %lpad.val3, !dbg !2277
}

declare dso_local i8* @__cxa_allocate_exception(i64)

; Function Attrs: noinline uwtable
define linkonce_odr dso_local void @_ZN11xercesc_2_730ArrayIndexOutOfBoundsExceptionC2EPKcjNS_10XMLExcepts5CodesEPNS_13MemoryManagerE(%"class.xercesc_2_7::ArrayIndexOutOfBoundsException"* %this, i8* %srcFile, i32 %srcLine, i32 %toThrow, %"class.xercesc_2_7::MemoryManager"* %memoryManager) unnamed_addr #6 comdat align 2 personality i8* bitcast (i32 (...)* @__gxx_personality_v0 to i8*) !dbg !2283 {
entry:
  %this.addr = alloca %"class.xercesc_2_7::ArrayIndexOutOfBoundsException"*, align 8
  %srcFile.addr = alloca i8*, align 8
  %srcLine.addr = alloca i32, align 4
  %toThrow.addr = alloca i32, align 4
  %memoryManager.addr = alloca %"class.xercesc_2_7::MemoryManager"*, align 8
  %exn.slot = alloca i8*
  %ehselector.slot = alloca i32
  store %"class.xercesc_2_7::ArrayIndexOutOfBoundsException"* %this, %"class.xercesc_2_7::ArrayIndexOutOfBoundsException"** %this.addr, align 8
  call void @llvm.dbg.declare(metadata %"class.xercesc_2_7::ArrayIndexOutOfBoundsException"** %this.addr, metadata !2322, metadata !DIExpression()), !dbg !2324
  store i8* %srcFile, i8** %srcFile.addr, align 8
  call void @llvm.dbg.declare(metadata i8** %srcFile.addr, metadata !2325, metadata !DIExpression()), !dbg !2326
  store i32 %srcLine, i32* %srcLine.addr, align 4
  call void @llvm.dbg.declare(metadata i32* %srcLine.addr, metadata !2327, metadata !DIExpression()), !dbg !2326
  store i32 %toThrow, i32* %toThrow.addr, align 4
  call void @llvm.dbg.declare(metadata i32* %toThrow.addr, metadata !2328, metadata !DIExpression()), !dbg !2326
  store %"class.xercesc_2_7::MemoryManager"* %memoryManager, %"class.xercesc_2_7::MemoryManager"** %memoryManager.addr, align 8
  call void @llvm.dbg.declare(metadata %"class.xercesc_2_7::MemoryManager"** %memoryManager.addr, metadata !2329, metadata !DIExpression()), !dbg !2326
  %this1 = load %"class.xercesc_2_7::ArrayIndexOutOfBoundsException"*, %"class.xercesc_2_7::ArrayIndexOutOfBoundsException"** %this.addr, align 8
  %0 = bitcast %"class.xercesc_2_7::ArrayIndexOutOfBoundsException"* %this1 to %"class.xercesc_2_7::XMLException"*, !dbg !2326
  %1 = load i8*, i8** %srcFile.addr, align 8, !dbg !2326
  %2 = load i32, i32* %srcLine.addr, align 4, !dbg !2326
  %3 = load %"class.xercesc_2_7::MemoryManager"*, %"class.xercesc_2_7::MemoryManager"** %memoryManager.addr, align 8, !dbg !2326
  call void @_ZN11xercesc_2_712XMLExceptionC2EPKcjPNS_13MemoryManagerE(%"class.xercesc_2_7::XMLException"* %0, i8* %1, i32 %2, %"class.xercesc_2_7::MemoryManager"* %3), !dbg !2326
  %4 = bitcast %"class.xercesc_2_7::ArrayIndexOutOfBoundsException"* %this1 to i32 (...)***, !dbg !2326
  store i32 (...)** bitcast (i8** getelementptr inbounds ({ [6 x i8*] }, { [6 x i8*] }* @_ZTVN11xercesc_2_730ArrayIndexOutOfBoundsExceptionE, i32 0, inrange i32 0, i32 2) to i32 (...)**), i32 (...)*** %4, align 8, !dbg !2326
  %5 = bitcast %"class.xercesc_2_7::ArrayIndexOutOfBoundsException"* %this1 to %"class.xercesc_2_7::XMLException"*, !dbg !2330
  %6 = load i32, i32* %toThrow.addr, align 4, !dbg !2330
  invoke void @_ZN11xercesc_2_712XMLException14loadExceptTextENS_10XMLExcepts5CodesE(%"class.xercesc_2_7::XMLException"* %5, i32 %6)
          to label %invoke.cont unwind label %lpad, !dbg !2330

invoke.cont:                                      ; preds = %entry
  ret void, !dbg !2326

lpad:                                             ; preds = %entry
  %7 = landingpad { i8*, i32 }
          cleanup, !dbg !2330
  %8 = extractvalue { i8*, i32 } %7, 0, !dbg !2330
  store i8* %8, i8** %exn.slot, align 8, !dbg !2330
  %9 = extractvalue { i8*, i32 } %7, 1, !dbg !2330
  store i32 %9, i32* %ehselector.slot, align 4, !dbg !2330
  %10 = bitcast %"class.xercesc_2_7::ArrayIndexOutOfBoundsException"* %this1 to %"class.xercesc_2_7::XMLException"*, !dbg !2330
  call void @_ZN11xercesc_2_712XMLExceptionD2Ev(%"class.xercesc_2_7::XMLException"* %10) #8, !dbg !2330
  br label %eh.resume, !dbg !2330

eh.resume:                                        ; preds = %lpad
  %exn = load i8*, i8** %exn.slot, align 8, !dbg !2330
  %sel = load i32, i32* %ehselector.slot, align 4, !dbg !2330
  %lpad.val = insertvalue { i8*, i32 } undef, i8* %exn, 0, !dbg !2330
  %lpad.val2 = insertvalue { i8*, i32 } %lpad.val, i32 %sel, 1, !dbg !2330
  resume { i8*, i32 } %lpad.val2, !dbg !2330
}

declare dso_local void @__cxa_free_exception(i8*)

; Function Attrs: noinline nounwind uwtable
define linkonce_odr dso_local void @_ZN11xercesc_2_730ArrayIndexOutOfBoundsExceptionD2Ev(%"class.xercesc_2_7::ArrayIndexOutOfBoundsException"* %this) unnamed_addr #1 comdat align 2 !dbg !2332 {
entry:
  %this.addr = alloca %"class.xercesc_2_7::ArrayIndexOutOfBoundsException"*, align 8
  store %"class.xercesc_2_7::ArrayIndexOutOfBoundsException"* %this, %"class.xercesc_2_7::ArrayIndexOutOfBoundsException"** %this.addr, align 8
  call void @llvm.dbg.declare(metadata %"class.xercesc_2_7::ArrayIndexOutOfBoundsException"** %this.addr, metadata !2333, metadata !DIExpression()), !dbg !2334
  %this1 = load %"class.xercesc_2_7::ArrayIndexOutOfBoundsException"*, %"class.xercesc_2_7::ArrayIndexOutOfBoundsException"** %this.addr, align 8
  %0 = bitcast %"class.xercesc_2_7::ArrayIndexOutOfBoundsException"* %this1 to %"class.xercesc_2_7::XMLException"*, !dbg !2335
  call void @_ZN11xercesc_2_712XMLExceptionD2Ev(%"class.xercesc_2_7::XMLException"* %0) #8, !dbg !2335
  ret void, !dbg !2337
}

declare dso_local void @__cxa_throw(i8*, i8*, i8*)

; Function Attrs: noinline uwtable
define dso_local dereferenceable(56) %"class.xercesc_2_7::XMLAttDef"* @_ZNK11xercesc_2_713DTDAttDefList9getAttDefEj(%"class.xercesc_2_7::DTDAttDefList"* %this, i32 %index) unnamed_addr #6 align 2 personality i8* bitcast (i32 (...)* @__gxx_personality_v0 to i8*) !dbg !2338 {
entry:
  %this.addr = alloca %"class.xercesc_2_7::DTDAttDefList"*, align 8
  %index.addr = alloca i32, align 4
  %exn.slot = alloca i8*
  %ehselector.slot = alloca i32
  store %"class.xercesc_2_7::DTDAttDefList"* %this, %"class.xercesc_2_7::DTDAttDefList"** %this.addr, align 8
  call void @llvm.dbg.declare(metadata %"class.xercesc_2_7::DTDAttDefList"** %this.addr, metadata !2339, metadata !DIExpression()), !dbg !2340
  store i32 %index, i32* %index.addr, align 4
  call void @llvm.dbg.declare(metadata i32* %index.addr, metadata !2341, metadata !DIExpression()), !dbg !2342
  %this1 = load %"class.xercesc_2_7::DTDAttDefList"*, %"class.xercesc_2_7::DTDAttDefList"** %this.addr, align 8
  %0 = load i32, i32* %index.addr, align 4, !dbg !2343
  %fCount = getelementptr inbounds %"class.xercesc_2_7::DTDAttDefList", %"class.xercesc_2_7::DTDAttDefList"* %this1, i32 0, i32 5, !dbg !2345
  %1 = load i32, i32* %fCount, align 4, !dbg !2345
  %cmp = icmp uge i32 %0, %1, !dbg !2346
  br i1 %cmp, label %if.then, label %if.end, !dbg !2347

if.then:                                          ; preds = %entry
  %exception = call i8* @__cxa_allocate_exception(i64 48) #8, !dbg !2348
  %2 = bitcast i8* %exception to %"class.xercesc_2_7::ArrayIndexOutOfBoundsException"*, !dbg !2348
  %3 = bitcast %"class.xercesc_2_7::DTDAttDefList"* %this1 to %"class.xercesc_2_7::XMLAttDefList"*, !dbg !2348
  %call = invoke %"class.xercesc_2_7::MemoryManager"* @_ZNK11xercesc_2_713XMLAttDefList16getMemoryManagerEv(%"class.xercesc_2_7::XMLAttDefList"* %3)
          to label %invoke.cont unwind label %lpad, !dbg !2348

invoke.cont:                                      ; preds = %if.then
  invoke void @_ZN11xercesc_2_730ArrayIndexOutOfBoundsExceptionC2EPKcjNS_10XMLExcepts5CodesEPNS_13MemoryManagerE(%"class.xercesc_2_7::ArrayIndexOutOfBoundsException"* %2, i8* getelementptr inbounds ([18 x i8], [18 x i8]* @.str, i64 0, i64 0), i32 138, i32 8, %"class.xercesc_2_7::MemoryManager"* %call)
          to label %invoke.cont2 unwind label %lpad, !dbg !2348

invoke.cont2:                                     ; preds = %invoke.cont
  call void @__cxa_throw(i8* %exception, i8* bitcast ({ i8*, i8*, i8* }* @_ZTIN11xercesc_2_730ArrayIndexOutOfBoundsExceptionE to i8*), i8* bitcast (void (%"class.xercesc_2_7::ArrayIndexOutOfBoundsException"*)* @_ZN11xercesc_2_730ArrayIndexOutOfBoundsExceptionD2Ev to i8*)) #11, !dbg !2348
  unreachable, !dbg !2348

lpad:                                             ; preds = %invoke.cont, %if.then
  %4 = landingpad { i8*, i32 }
          cleanup, !dbg !2349
  %5 = extractvalue { i8*, i32 } %4, 0, !dbg !2349
  store i8* %5, i8** %exn.slot, align 8, !dbg !2349
  %6 = extractvalue { i8*, i32 } %4, 1, !dbg !2349
  store i32 %6, i32* %ehselector.slot, align 4, !dbg !2349
  call void @__cxa_free_exception(i8* %exception) #8, !dbg !2348
  br label %eh.resume, !dbg !2348

if.end:                                           ; preds = %entry
  %fArray = getelementptr inbounds %"class.xercesc_2_7::DTDAttDefList", %"class.xercesc_2_7::DTDAttDefList"* %this1, i32 0, i32 3, !dbg !2350
  %7 = load %"class.xercesc_2_7::DTDAttDef"**, %"class.xercesc_2_7::DTDAttDef"*** %fArray, align 8, !dbg !2350
  %8 = load i32, i32* %index.addr, align 4, !dbg !2351
  %idxprom = zext i32 %8 to i64, !dbg !2350
  %arrayidx = getelementptr inbounds %"class.xercesc_2_7::DTDAttDef"*, %"class.xercesc_2_7::DTDAttDef"** %7, i64 %idxprom, !dbg !2350
  %9 = load %"class.xercesc_2_7::DTDAttDef"*, %"class.xercesc_2_7::DTDAttDef"** %arrayidx, align 8, !dbg !2350
  %10 = bitcast %"class.xercesc_2_7::DTDAttDef"* %9 to %"class.xercesc_2_7::XMLAttDef"*, !dbg !2352
  ret %"class.xercesc_2_7::XMLAttDef"* %10, !dbg !2353

eh.resume:                                        ; preds = %lpad
  %exn = load i8*, i8** %exn.slot, align 8, !dbg !2348
  %sel = load i32, i32* %ehselector.slot, align 4, !dbg !2348
  %lpad.val = insertvalue { i8*, i32 } undef, i8* %exn, 0, !dbg !2348
  %lpad.val3 = insertvalue { i8*, i32 } %lpad.val, i32 %sel, 1, !dbg !2348
  resume { i8*, i32 } %lpad.val3, !dbg !2348
}

; Function Attrs: noinline uwtable
define dso_local %"class.xercesc_2_7::XSerializable"* @_ZN11xercesc_2_713DTDAttDefList12createObjectEPNS_13MemoryManagerE(%"class.xercesc_2_7::MemoryManager"* %manager) #6 align 2 personality i8* bitcast (i32 (...)* @__gxx_personality_v0 to i8*) !dbg !2354 {
entry:
  %manager.addr = alloca %"class.xercesc_2_7::MemoryManager"*, align 8
  %exn.slot = alloca i8*
  %ehselector.slot = alloca i32
  store %"class.xercesc_2_7::MemoryManager"* %manager, %"class.xercesc_2_7::MemoryManager"** %manager.addr, align 8
  call void @llvm.dbg.declare(metadata %"class.xercesc_2_7::MemoryManager"** %manager.addr, metadata !2355, metadata !DIExpression()), !dbg !2356
  %0 = load %"class.xercesc_2_7::MemoryManager"*, %"class.xercesc_2_7::MemoryManager"** %manager.addr, align 8, !dbg !2356
  %call = call i8* @_ZN11xercesc_2_77XMemorynwEmPNS_13MemoryManagerE(i64 48, %"class.xercesc_2_7::MemoryManager"* %0), !dbg !2356
  %1 = bitcast i8* %call to %"class.xercesc_2_7::DTDAttDefList"*, !dbg !2356
  %2 = load %"class.xercesc_2_7::MemoryManager"*, %"class.xercesc_2_7::MemoryManager"** %manager.addr, align 8, !dbg !2356
  invoke void @_ZN11xercesc_2_713DTDAttDefListC1EPNS_13MemoryManagerE(%"class.xercesc_2_7::DTDAttDefList"* %1, %"class.xercesc_2_7::MemoryManager"* %2)
          to label %invoke.cont unwind label %lpad, !dbg !2356

invoke.cont:                                      ; preds = %entry
  %3 = bitcast %"class.xercesc_2_7::DTDAttDefList"* %1 to %"class.xercesc_2_7::XSerializable"*, !dbg !2356
  ret %"class.xercesc_2_7::XSerializable"* %3, !dbg !2356

lpad:                                             ; preds = %entry
  %4 = landingpad { i8*, i32 }
          cleanup, !dbg !2356
  %5 = extractvalue { i8*, i32 } %4, 0, !dbg !2356
  store i8* %5, i8** %exn.slot, align 8, !dbg !2356
  %6 = extractvalue { i8*, i32 } %4, 1, !dbg !2356
  store i32 %6, i32* %ehselector.slot, align 4, !dbg !2356
  call void @_ZN11xercesc_2_77XMemorydlEPvPNS_13MemoryManagerE(i8* %call, %"class.xercesc_2_7::MemoryManager"* %0) #8, !dbg !2356
  br label %eh.resume, !dbg !2356

eh.resume:                                        ; preds = %lpad
  %exn = load i8*, i8** %exn.slot, align 8, !dbg !2356
  %sel = load i32, i32* %ehselector.slot, align 4, !dbg !2356
  %lpad.val = insertvalue { i8*, i32 } undef, i8* %exn, 0, !dbg !2356
  %lpad.val1 = insertvalue { i8*, i32 } %lpad.val, i32 %sel, 1, !dbg !2356
  resume { i8*, i32 } %lpad.val1, !dbg !2356
}

; Function Attrs: noinline nounwind uwtable
define dso_local zeroext i1 @_ZNK11xercesc_2_713DTDAttDefList14isSerializableEv(%"class.xercesc_2_7::DTDAttDefList"* %this) unnamed_addr #1 align 2 !dbg !2357 {
entry:
  %this.addr = alloca %"class.xercesc_2_7::DTDAttDefList"*, align 8
  store %"class.xercesc_2_7::DTDAttDefList"* %this, %"class.xercesc_2_7::DTDAttDefList"** %this.addr, align 8
  call void @llvm.dbg.declare(metadata %"class.xercesc_2_7::DTDAttDefList"** %this.addr, metadata !2358, metadata !DIExpression()), !dbg !2359
  %this1 = load %"class.xercesc_2_7::DTDAttDefList"*, %"class.xercesc_2_7::DTDAttDefList"** %this.addr, align 8
  ret i1 true, !dbg !2360
}

; Function Attrs: noinline nounwind uwtable
define dso_local %"class.xercesc_2_7::XProtoType"* @_ZNK11xercesc_2_713DTDAttDefList12getProtoTypeEv(%"class.xercesc_2_7::DTDAttDefList"* %this) unnamed_addr #1 align 2 !dbg !2361 {
entry:
  %this.addr = alloca %"class.xercesc_2_7::DTDAttDefList"*, align 8
  store %"class.xercesc_2_7::DTDAttDefList"* %this, %"class.xercesc_2_7::DTDAttDefList"** %this.addr, align 8
  call void @llvm.dbg.declare(metadata %"class.xercesc_2_7::DTDAttDefList"** %this.addr, metadata !2362, metadata !DIExpression()), !dbg !2363
  %this1 = load %"class.xercesc_2_7::DTDAttDefList"*, %"class.xercesc_2_7::DTDAttDefList"** %this.addr, align 8
  ret %"class.xercesc_2_7::XProtoType"* @_ZN11xercesc_2_713DTDAttDefList18classDTDAttDefListE, !dbg !2364
}

; Function Attrs: noinline uwtable
define dso_local void @_ZN11xercesc_2_713DTDAttDefList9serializeERNS_16XSerializeEngineE(%"class.xercesc_2_7::DTDAttDefList"* %this, %"class.xercesc_2_7::XSerializeEngine"* dereferenceable(104) %serEng) unnamed_addr #6 align 2 personality i8* bitcast (i32 (...)* @__gxx_personality_v0 to i8*) !dbg !2365 {
entry:
  %this.addr = alloca %"class.xercesc_2_7::DTDAttDefList"*, align 8
  %serEng.addr = alloca %"class.xercesc_2_7::XSerializeEngine"*, align 8
  %exn.slot = alloca i8*
  %ehselector.slot = alloca i32
  store %"class.xercesc_2_7::DTDAttDefList"* %this, %"class.xercesc_2_7::DTDAttDefList"** %this.addr, align 8
  call void @llvm.dbg.declare(metadata %"class.xercesc_2_7::DTDAttDefList"** %this.addr, metadata !2366, metadata !DIExpression()), !dbg !2367
  store %"class.xercesc_2_7::XSerializeEngine"* %serEng, %"class.xercesc_2_7::XSerializeEngine"** %serEng.addr, align 8
  call void @llvm.dbg.declare(metadata %"class.xercesc_2_7::XSerializeEngine"** %serEng.addr, metadata !2368, metadata !DIExpression()), !dbg !2369
  %this1 = load %"class.xercesc_2_7::DTDAttDefList"*, %"class.xercesc_2_7::DTDAttDefList"** %this.addr, align 8
  %0 = bitcast %"class.xercesc_2_7::DTDAttDefList"* %this1 to %"class.xercesc_2_7::XMLAttDefList"*, !dbg !2370
  %1 = load %"class.xercesc_2_7::XSerializeEngine"*, %"class.xercesc_2_7::XSerializeEngine"** %serEng.addr, align 8, !dbg !2371
  call void @_ZN11xercesc_2_713XMLAttDefList9serializeERNS_16XSerializeEngineE(%"class.xercesc_2_7::XMLAttDefList"* %0, %"class.xercesc_2_7::XSerializeEngine"* dereferenceable(104) %1), !dbg !2370
  %2 = load %"class.xercesc_2_7::XSerializeEngine"*, %"class.xercesc_2_7::XSerializeEngine"** %serEng.addr, align 8, !dbg !2372
  %call = call zeroext i1 @_ZNK11xercesc_2_716XSerializeEngine9isStoringEv(%"class.xercesc_2_7::XSerializeEngine"* %2), !dbg !2374
  br i1 %call, label %if.then, label %if.else, !dbg !2375

if.then:                                          ; preds = %entry
  %fList = getelementptr inbounds %"class.xercesc_2_7::DTDAttDefList", %"class.xercesc_2_7::DTDAttDefList"* %this1, i32 0, i32 2, !dbg !2376
  %3 = load %"class.xercesc_2_7::RefHashTableOf.1"*, %"class.xercesc_2_7::RefHashTableOf.1"** %fList, align 8, !dbg !2376
  %4 = load %"class.xercesc_2_7::XSerializeEngine"*, %"class.xercesc_2_7::XSerializeEngine"** %serEng.addr, align 8, !dbg !2378
  call void @_ZN11xercesc_2_719XTemplateSerializer11storeObjectEPNS_14RefHashTableOfINS_9DTDAttDefEEERNS_16XSerializeEngineE(%"class.xercesc_2_7::RefHashTableOf.1"* %3, %"class.xercesc_2_7::XSerializeEngine"* dereferenceable(104) %4), !dbg !2379
  %5 = load %"class.xercesc_2_7::XSerializeEngine"*, %"class.xercesc_2_7::XSerializeEngine"** %serEng.addr, align 8, !dbg !2380
  %fCount = getelementptr inbounds %"class.xercesc_2_7::DTDAttDefList", %"class.xercesc_2_7::DTDAttDefList"* %this1, i32 0, i32 5, !dbg !2381
  %6 = load i32, i32* %fCount, align 4, !dbg !2381
  %call2 = call dereferenceable(104) %"class.xercesc_2_7::XSerializeEngine"* @_ZN11xercesc_2_716XSerializeEnginelsEj(%"class.xercesc_2_7::XSerializeEngine"* %5, i32 %6), !dbg !2382
  br label %if.end36, !dbg !2383

if.else:                                          ; preds = %entry
  %fList3 = getelementptr inbounds %"class.xercesc_2_7::DTDAttDefList", %"class.xercesc_2_7::DTDAttDefList"* %this1, i32 0, i32 2, !dbg !2384
  %7 = load %"class.xercesc_2_7::XSerializeEngine"*, %"class.xercesc_2_7::XSerializeEngine"** %serEng.addr, align 8, !dbg !2386
  call void @_ZN11xercesc_2_719XTemplateSerializer10loadObjectEPPNS_14RefHashTableOfINS_9DTDAttDefEEEibRNS_16XSerializeEngineE(%"class.xercesc_2_7::RefHashTableOf.1"** %fList3, i32 29, i1 zeroext true, %"class.xercesc_2_7::XSerializeEngine"* dereferenceable(104) %7), !dbg !2387
  %8 = load %"class.xercesc_2_7::XSerializeEngine"*, %"class.xercesc_2_7::XSerializeEngine"** %serEng.addr, align 8, !dbg !2388
  %fSize = getelementptr inbounds %"class.xercesc_2_7::DTDAttDefList", %"class.xercesc_2_7::DTDAttDefList"* %this1, i32 0, i32 4, !dbg !2389
  %call4 = call dereferenceable(104) %"class.xercesc_2_7::XSerializeEngine"* @_ZN11xercesc_2_716XSerializeEnginersERj(%"class.xercesc_2_7::XSerializeEngine"* %8, i32* dereferenceable(4) %fSize), !dbg !2390
  %fEnum = getelementptr inbounds %"class.xercesc_2_7::DTDAttDefList", %"class.xercesc_2_7::DTDAttDefList"* %this1, i32 0, i32 1, !dbg !2391
  %9 = load %"class.xercesc_2_7::RefHashTableOfEnumerator"*, %"class.xercesc_2_7::RefHashTableOfEnumerator"** %fEnum, align 8, !dbg !2391
  %tobool = icmp ne %"class.xercesc_2_7::RefHashTableOfEnumerator"* %9, null, !dbg !2391
  br i1 %tobool, label %if.end, label %land.lhs.true, !dbg !2393

land.lhs.true:                                    ; preds = %if.else
  %fList5 = getelementptr inbounds %"class.xercesc_2_7::DTDAttDefList", %"class.xercesc_2_7::DTDAttDefList"* %this1, i32 0, i32 2, !dbg !2394
  %10 = load %"class.xercesc_2_7::RefHashTableOf.1"*, %"class.xercesc_2_7::RefHashTableOf.1"** %fList5, align 8, !dbg !2394
  %tobool6 = icmp ne %"class.xercesc_2_7::RefHashTableOf.1"* %10, null, !dbg !2394
  br i1 %tobool6, label %if.then7, label %if.end, !dbg !2395

if.then7:                                         ; preds = %land.lhs.true
  %11 = bitcast %"class.xercesc_2_7::DTDAttDefList"* %this1 to %"class.xercesc_2_7::XMLAttDefList"*, !dbg !2396
  %call8 = call %"class.xercesc_2_7::MemoryManager"* @_ZNK11xercesc_2_713XMLAttDefList16getMemoryManagerEv(%"class.xercesc_2_7::XMLAttDefList"* %11), !dbg !2396
  %call9 = call i8* @_ZN11xercesc_2_77XMemorynwEmPNS_13MemoryManagerE(i64 48, %"class.xercesc_2_7::MemoryManager"* %call8), !dbg !2398
  %12 = bitcast i8* %call9 to %"class.xercesc_2_7::RefHashTableOfEnumerator"*, !dbg !2398
  %fList10 = getelementptr inbounds %"class.xercesc_2_7::DTDAttDefList", %"class.xercesc_2_7::DTDAttDefList"* %this1, i32 0, i32 2, !dbg !2399
  %13 = load %"class.xercesc_2_7::RefHashTableOf.1"*, %"class.xercesc_2_7::RefHashTableOf.1"** %fList10, align 8, !dbg !2399
  %14 = bitcast %"class.xercesc_2_7::DTDAttDefList"* %this1 to %"class.xercesc_2_7::XMLAttDefList"*, !dbg !2400
  %call11 = invoke %"class.xercesc_2_7::MemoryManager"* @_ZNK11xercesc_2_713XMLAttDefList16getMemoryManagerEv(%"class.xercesc_2_7::XMLAttDefList"* %14)
          to label %invoke.cont unwind label %lpad, !dbg !2400

invoke.cont:                                      ; preds = %if.then7
  invoke void @_ZN11xercesc_2_724RefHashTableOfEnumeratorINS_9DTDAttDefEEC2EPNS_14RefHashTableOfIS1_EEbPNS_13MemoryManagerE(%"class.xercesc_2_7::RefHashTableOfEnumerator"* %12, %"class.xercesc_2_7::RefHashTableOf.1"* %13, i1 zeroext false, %"class.xercesc_2_7::MemoryManager"* %call11)
          to label %invoke.cont12 unwind label %lpad, !dbg !2401

invoke.cont12:                                    ; preds = %invoke.cont
  %fEnum13 = getelementptr inbounds %"class.xercesc_2_7::DTDAttDefList", %"class.xercesc_2_7::DTDAttDefList"* %this1, i32 0, i32 1, !dbg !2402
  store %"class.xercesc_2_7::RefHashTableOfEnumerator"* %12, %"class.xercesc_2_7::RefHashTableOfEnumerator"** %fEnum13, align 8, !dbg !2403
  br label %if.end, !dbg !2404

lpad:                                             ; preds = %invoke.cont, %if.then7
  %15 = landingpad { i8*, i32 }
          cleanup, !dbg !2405
  %16 = extractvalue { i8*, i32 } %15, 0, !dbg !2405
  store i8* %16, i8** %exn.slot, align 8, !dbg !2405
  %17 = extractvalue { i8*, i32 } %15, 1, !dbg !2405
  store i32 %17, i32* %ehselector.slot, align 4, !dbg !2405
  call void @_ZN11xercesc_2_77XMemorydlEPvPNS_13MemoryManagerE(i8* %call9, %"class.xercesc_2_7::MemoryManager"* %call8) #8, !dbg !2398
  br label %eh.resume, !dbg !2398

if.end:                                           ; preds = %invoke.cont12, %land.lhs.true, %if.else
  %fSize14 = getelementptr inbounds %"class.xercesc_2_7::DTDAttDefList", %"class.xercesc_2_7::DTDAttDefList"* %this1, i32 0, i32 4, !dbg !2406
  %18 = load i32, i32* %fSize14, align 8, !dbg !2406
  %tobool15 = icmp ne i32 %18, 0, !dbg !2406
  br i1 %tobool15, label %if.then16, label %if.end35, !dbg !2408

if.then16:                                        ; preds = %if.end
  %19 = bitcast %"class.xercesc_2_7::DTDAttDefList"* %this1 to %"class.xercesc_2_7::XMLAttDefList"*, !dbg !2409
  %call17 = call %"class.xercesc_2_7::MemoryManager"* @_ZNK11xercesc_2_713XMLAttDefList16getMemoryManagerEv(%"class.xercesc_2_7::XMLAttDefList"* %19), !dbg !2409
  %fArray = getelementptr inbounds %"class.xercesc_2_7::DTDAttDefList", %"class.xercesc_2_7::DTDAttDefList"* %this1, i32 0, i32 3, !dbg !2411
  %20 = load %"class.xercesc_2_7::DTDAttDef"**, %"class.xercesc_2_7::DTDAttDef"*** %fArray, align 8, !dbg !2411
  %21 = bitcast %"class.xercesc_2_7::DTDAttDef"** %20 to i8*, !dbg !2411
  %22 = bitcast %"class.xercesc_2_7::MemoryManager"* %call17 to void (%"class.xercesc_2_7::MemoryManager"*, i8*)***, !dbg !2412
  %vtable = load void (%"class.xercesc_2_7::MemoryManager"*, i8*)**, void (%"class.xercesc_2_7::MemoryManager"*, i8*)*** %22, align 8, !dbg !2412
  %vfn = getelementptr inbounds void (%"class.xercesc_2_7::MemoryManager"*, i8*)*, void (%"class.xercesc_2_7::MemoryManager"*, i8*)** %vtable, i64 3, !dbg !2412
  %23 = load void (%"class.xercesc_2_7::MemoryManager"*, i8*)*, void (%"class.xercesc_2_7::MemoryManager"*, i8*)** %vfn, align 8, !dbg !2412
  call void %23(%"class.xercesc_2_7::MemoryManager"* %call17, i8* %21), !dbg !2412
  %24 = bitcast %"class.xercesc_2_7::DTDAttDefList"* %this1 to %"class.xercesc_2_7::XMLAttDefList"*, !dbg !2413
  %call18 = call %"class.xercesc_2_7::MemoryManager"* @_ZNK11xercesc_2_713XMLAttDefList16getMemoryManagerEv(%"class.xercesc_2_7::XMLAttDefList"* %24), !dbg !2413
  %fSize19 = getelementptr inbounds %"class.xercesc_2_7::DTDAttDefList", %"class.xercesc_2_7::DTDAttDefList"* %this1, i32 0, i32 4, !dbg !2414
  %25 = load i32, i32* %fSize19, align 8, !dbg !2414
  %conv = zext i32 %25 to i64, !dbg !2414
  %mul = mul i64 8, %conv, !dbg !2415
  %26 = bitcast %"class.xercesc_2_7::MemoryManager"* %call18 to i8* (%"class.xercesc_2_7::MemoryManager"*, i64)***, !dbg !2416
  %vtable20 = load i8* (%"class.xercesc_2_7::MemoryManager"*, i64)**, i8* (%"class.xercesc_2_7::MemoryManager"*, i64)*** %26, align 8, !dbg !2416
  %vfn21 = getelementptr inbounds i8* (%"class.xercesc_2_7::MemoryManager"*, i64)*, i8* (%"class.xercesc_2_7::MemoryManager"*, i64)** %vtable20, i64 2, !dbg !2416
  %27 = load i8* (%"class.xercesc_2_7::MemoryManager"*, i64)*, i8* (%"class.xercesc_2_7::MemoryManager"*, i64)** %vfn21, align 8, !dbg !2416
  %call22 = call i8* %27(%"class.xercesc_2_7::MemoryManager"* %call18, i64 %mul), !dbg !2416
  %28 = bitcast i8* %call22 to %"class.xercesc_2_7::DTDAttDef"**, !dbg !2417
  %fArray23 = getelementptr inbounds %"class.xercesc_2_7::DTDAttDefList", %"class.xercesc_2_7::DTDAttDefList"* %this1, i32 0, i32 3, !dbg !2418
  store %"class.xercesc_2_7::DTDAttDef"** %28, %"class.xercesc_2_7::DTDAttDef"*** %fArray23, align 8, !dbg !2419
  %fCount24 = getelementptr inbounds %"class.xercesc_2_7::DTDAttDefList", %"class.xercesc_2_7::DTDAttDefList"* %this1, i32 0, i32 5, !dbg !2420
  store i32 0, i32* %fCount24, align 4, !dbg !2421
  br label %while.cond, !dbg !2422

while.cond:                                       ; preds = %while.body, %if.then16
  %fEnum25 = getelementptr inbounds %"class.xercesc_2_7::DTDAttDefList", %"class.xercesc_2_7::DTDAttDefList"* %this1, i32 0, i32 1, !dbg !2423
  %29 = load %"class.xercesc_2_7::RefHashTableOfEnumerator"*, %"class.xercesc_2_7::RefHashTableOfEnumerator"** %fEnum25, align 8, !dbg !2423
  %30 = bitcast %"class.xercesc_2_7::RefHashTableOfEnumerator"* %29 to i1 (%"class.xercesc_2_7::RefHashTableOfEnumerator"*)***, !dbg !2424
  %vtable26 = load i1 (%"class.xercesc_2_7::RefHashTableOfEnumerator"*)**, i1 (%"class.xercesc_2_7::RefHashTableOfEnumerator"*)*** %30, align 8, !dbg !2424
  %vfn27 = getelementptr inbounds i1 (%"class.xercesc_2_7::RefHashTableOfEnumerator"*)*, i1 (%"class.xercesc_2_7::RefHashTableOfEnumerator"*)** %vtable26, i64 2, !dbg !2424
  %31 = load i1 (%"class.xercesc_2_7::RefHashTableOfEnumerator"*)*, i1 (%"class.xercesc_2_7::RefHashTableOfEnumerator"*)** %vfn27, align 8, !dbg !2424
  %call28 = call zeroext i1 %31(%"class.xercesc_2_7::RefHashTableOfEnumerator"* %29), !dbg !2424
  br i1 %call28, label %while.body, label %while.end, !dbg !2422

while.body:                                       ; preds = %while.cond
  %fEnum29 = getelementptr inbounds %"class.xercesc_2_7::DTDAttDefList", %"class.xercesc_2_7::DTDAttDefList"* %this1, i32 0, i32 1, !dbg !2425
  %32 = load %"class.xercesc_2_7::RefHashTableOfEnumerator"*, %"class.xercesc_2_7::RefHashTableOfEnumerator"** %fEnum29, align 8, !dbg !2425
  %33 = bitcast %"class.xercesc_2_7::RefHashTableOfEnumerator"* %32 to %"class.xercesc_2_7::DTDAttDef"* (%"class.xercesc_2_7::RefHashTableOfEnumerator"*)***, !dbg !2427
  %vtable30 = load %"class.xercesc_2_7::DTDAttDef"* (%"class.xercesc_2_7::RefHashTableOfEnumerator"*)**, %"class.xercesc_2_7::DTDAttDef"* (%"class.xercesc_2_7::RefHashTableOfEnumerator"*)*** %33, align 8, !dbg !2427
  %vfn31 = getelementptr inbounds %"class.xercesc_2_7::DTDAttDef"* (%"class.xercesc_2_7::RefHashTableOfEnumerator"*)*, %"class.xercesc_2_7::DTDAttDef"* (%"class.xercesc_2_7::RefHashTableOfEnumerator"*)** %vtable30, i64 3, !dbg !2427
  %34 = load %"class.xercesc_2_7::DTDAttDef"* (%"class.xercesc_2_7::RefHashTableOfEnumerator"*)*, %"class.xercesc_2_7::DTDAttDef"* (%"class.xercesc_2_7::RefHashTableOfEnumerator"*)** %vfn31, align 8, !dbg !2427
  %call32 = call dereferenceable(72) %"class.xercesc_2_7::DTDAttDef"* %34(%"class.xercesc_2_7::RefHashTableOfEnumerator"* %32), !dbg !2427
  %fArray33 = getelementptr inbounds %"class.xercesc_2_7::DTDAttDefList", %"class.xercesc_2_7::DTDAttDefList"* %this1, i32 0, i32 3, !dbg !2428
  %35 = load %"class.xercesc_2_7::DTDAttDef"**, %"class.xercesc_2_7::DTDAttDef"*** %fArray33, align 8, !dbg !2428
  %fCount34 = getelementptr inbounds %"class.xercesc_2_7::DTDAttDefList", %"class.xercesc_2_7::DTDAttDefList"* %this1, i32 0, i32 5, !dbg !2429
  %36 = load i32, i32* %fCount34, align 4, !dbg !2430
  %inc = add i32 %36, 1, !dbg !2430
  store i32 %inc, i32* %fCount34, align 4, !dbg !2430
  %idxprom = zext i32 %36 to i64, !dbg !2428
  %arrayidx = getelementptr inbounds %"class.xercesc_2_7::DTDAttDef"*, %"class.xercesc_2_7::DTDAttDef"** %35, i64 %idxprom, !dbg !2428
  store %"class.xercesc_2_7::DTDAttDef"* %call32, %"class.xercesc_2_7::DTDAttDef"** %arrayidx, align 8, !dbg !2431
  br label %while.cond, !dbg !2422, !llvm.loop !2432

while.end:                                        ; preds = %while.cond
  br label %if.end35, !dbg !2434

if.end35:                                         ; preds = %while.end, %if.end
  br label %if.end36

if.end36:                                         ; preds = %if.end35, %if.then
  ret void, !dbg !2435

eh.resume:                                        ; preds = %lpad
  %exn = load i8*, i8** %exn.slot, align 8, !dbg !2398
  %sel = load i32, i32* %ehselector.slot, align 4, !dbg !2398
  %lpad.val = insertvalue { i8*, i32 } undef, i8* %exn, 0, !dbg !2398
  %lpad.val37 = insertvalue { i8*, i32 } %lpad.val, i32 %sel, 1, !dbg !2398
  resume { i8*, i32 } %lpad.val37, !dbg !2398
}

declare dso_local void @_ZN11xercesc_2_713XMLAttDefList9serializeERNS_16XSerializeEngineE(%"class.xercesc_2_7::XMLAttDefList"*, %"class.xercesc_2_7::XSerializeEngine"* dereferenceable(104)) unnamed_addr #7

; Function Attrs: noinline nounwind uwtable
define linkonce_odr dso_local zeroext i1 @_ZNK11xercesc_2_716XSerializeEngine9isStoringEv(%"class.xercesc_2_7::XSerializeEngine"* %this) #1 comdat align 2 !dbg !2436 {
entry:
  %this.addr = alloca %"class.xercesc_2_7::XSerializeEngine"*, align 8
  store %"class.xercesc_2_7::XSerializeEngine"* %this, %"class.xercesc_2_7::XSerializeEngine"** %this.addr, align 8
  call void @llvm.dbg.declare(metadata %"class.xercesc_2_7::XSerializeEngine"** %this.addr, metadata !2437, metadata !DIExpression()), !dbg !2439
  %this1 = load %"class.xercesc_2_7::XSerializeEngine"*, %"class.xercesc_2_7::XSerializeEngine"** %this.addr, align 8
  %fStoreLoad = getelementptr inbounds %"class.xercesc_2_7::XSerializeEngine", %"class.xercesc_2_7::XSerializeEngine"* %this1, i32 0, i32 0, !dbg !2440
  %0 = load i16, i16* %fStoreLoad, align 8, !dbg !2440
  %conv = sext i16 %0 to i32, !dbg !2440
  %cmp = icmp eq i32 %conv, 0, !dbg !2441
  ret i1 %cmp, !dbg !2442
}

declare dso_local void @_ZN11xercesc_2_719XTemplateSerializer11storeObjectEPNS_14RefHashTableOfINS_9DTDAttDefEEERNS_16XSerializeEngineE(%"class.xercesc_2_7::RefHashTableOf.1"*, %"class.xercesc_2_7::XSerializeEngine"* dereferenceable(104)) #7

declare dso_local dereferenceable(104) %"class.xercesc_2_7::XSerializeEngine"* @_ZN11xercesc_2_716XSerializeEnginelsEj(%"class.xercesc_2_7::XSerializeEngine"*, i32) #7

declare dso_local void @_ZN11xercesc_2_719XTemplateSerializer10loadObjectEPPNS_14RefHashTableOfINS_9DTDAttDefEEEibRNS_16XSerializeEngineE(%"class.xercesc_2_7::RefHashTableOf.1"**, i32, i1 zeroext, %"class.xercesc_2_7::XSerializeEngine"* dereferenceable(104)) #7

declare dso_local dereferenceable(104) %"class.xercesc_2_7::XSerializeEngine"* @_ZN11xercesc_2_716XSerializeEnginersERj(%"class.xercesc_2_7::XSerializeEngine"*, i32* dereferenceable(4)) #7

; Function Attrs: noinline uwtable
define dso_local void @_ZN11xercesc_2_713DTDAttDefListC2EPNS_13MemoryManagerE(%"class.xercesc_2_7::DTDAttDefList"* %this, %"class.xercesc_2_7::MemoryManager"* %manager) unnamed_addr #6 align 2 !dbg !2443 {
entry:
  %this.addr = alloca %"class.xercesc_2_7::DTDAttDefList"*, align 8
  %manager.addr = alloca %"class.xercesc_2_7::MemoryManager"*, align 8
  store %"class.xercesc_2_7::DTDAttDefList"* %this, %"class.xercesc_2_7::DTDAttDefList"** %this.addr, align 8
  call void @llvm.dbg.declare(metadata %"class.xercesc_2_7::DTDAttDefList"** %this.addr, metadata !2444, metadata !DIExpression()), !dbg !2445
  store %"class.xercesc_2_7::MemoryManager"* %manager, %"class.xercesc_2_7::MemoryManager"** %manager.addr, align 8
  call void @llvm.dbg.declare(metadata %"class.xercesc_2_7::MemoryManager"** %manager.addr, metadata !2446, metadata !DIExpression()), !dbg !2447
  %this1 = load %"class.xercesc_2_7::DTDAttDefList"*, %"class.xercesc_2_7::DTDAttDefList"** %this.addr, align 8
  %0 = bitcast %"class.xercesc_2_7::DTDAttDefList"* %this1 to %"class.xercesc_2_7::XMLAttDefList"*, !dbg !2448
  %1 = load %"class.xercesc_2_7::MemoryManager"*, %"class.xercesc_2_7::MemoryManager"** %manager.addr, align 8, !dbg !2449
  call void @_ZN11xercesc_2_713XMLAttDefListC2EPNS_13MemoryManagerE(%"class.xercesc_2_7::XMLAttDefList"* %0, %"class.xercesc_2_7::MemoryManager"* %1), !dbg !2450
  %2 = bitcast %"class.xercesc_2_7::DTDAttDefList"* %this1 to i32 (...)***, !dbg !2448
  store i32 (...)** bitcast (i8** getelementptr inbounds ({ [18 x i8*] }, { [18 x i8*] }* @_ZTVN11xercesc_2_713DTDAttDefListE, i32 0, inrange i32 0, i32 2) to i32 (...)**), i32 (...)*** %2, align 8, !dbg !2448
  %fEnum = getelementptr inbounds %"class.xercesc_2_7::DTDAttDefList", %"class.xercesc_2_7::DTDAttDefList"* %this1, i32 0, i32 1, !dbg !2451
  store %"class.xercesc_2_7::RefHashTableOfEnumerator"* null, %"class.xercesc_2_7::RefHashTableOfEnumerator"** %fEnum, align 8, !dbg !2451
  %fList = getelementptr inbounds %"class.xercesc_2_7::DTDAttDefList", %"class.xercesc_2_7::DTDAttDefList"* %this1, i32 0, i32 2, !dbg !2452
  store %"class.xercesc_2_7::RefHashTableOf.1"* null, %"class.xercesc_2_7::RefHashTableOf.1"** %fList, align 8, !dbg !2452
  %fArray = getelementptr inbounds %"class.xercesc_2_7::DTDAttDefList", %"class.xercesc_2_7::DTDAttDefList"* %this1, i32 0, i32 3, !dbg !2453
  store %"class.xercesc_2_7::DTDAttDef"** null, %"class.xercesc_2_7::DTDAttDef"*** %fArray, align 8, !dbg !2453
  %fSize = getelementptr inbounds %"class.xercesc_2_7::DTDAttDefList", %"class.xercesc_2_7::DTDAttDefList"* %this1, i32 0, i32 4, !dbg !2454
  store i32 0, i32* %fSize, align 8, !dbg !2454
  %fCount = getelementptr inbounds %"class.xercesc_2_7::DTDAttDefList", %"class.xercesc_2_7::DTDAttDefList"* %this1, i32 0, i32 5, !dbg !2455
  store i32 0, i32* %fCount, align 4, !dbg !2455
  ret void, !dbg !2456
}

; Function Attrs: noinline nounwind uwtable
define linkonce_odr dso_local void @_ZN11xercesc_2_713XMLAttDefListD2Ev(%"class.xercesc_2_7::XMLAttDefList"* %this) unnamed_addr #1 comdat align 2 !dbg !2457 {
entry:
  %this.addr = alloca %"class.xercesc_2_7::XMLAttDefList"*, align 8
  store %"class.xercesc_2_7::XMLAttDefList"* %this, %"class.xercesc_2_7::XMLAttDefList"** %this.addr, align 8
  call void @llvm.dbg.declare(metadata %"class.xercesc_2_7::XMLAttDefList"** %this.addr, metadata !2458, metadata !DIExpression()), !dbg !2459
  %this1 = load %"class.xercesc_2_7::XMLAttDefList"*, %"class.xercesc_2_7::XMLAttDefList"** %this.addr, align 8
  %0 = bitcast %"class.xercesc_2_7::XMLAttDefList"* %this1 to %"class.xercesc_2_7::XSerializable"*, !dbg !2460
  call void @_ZN11xercesc_2_713XSerializableD2Ev(%"class.xercesc_2_7::XSerializable"* %0) #8, !dbg !2460
  ret void, !dbg !2462
}

declare dso_local zeroext i1 @_ZNK11xercesc_2_713XMLAttDefList14isSerializableEv(%"class.xercesc_2_7::XMLAttDefList"*) unnamed_addr #7

declare dso_local %"class.xercesc_2_7::XProtoType"* @_ZNK11xercesc_2_713XMLAttDefList12getProtoTypeEv(%"class.xercesc_2_7::XMLAttDefList"*) unnamed_addr #7

declare dso_local void @__cxa_pure_virtual() unnamed_addr

declare dso_local zeroext i1 @_ZNK11xercesc_2_710XMLRefInfo14isSerializableEv(%"class.xercesc_2_7::XMLRefInfo"*) unnamed_addr #7

declare dso_local void @_ZN11xercesc_2_710XMLRefInfo9serializeERNS_16XSerializeEngineE(%"class.xercesc_2_7::XMLRefInfo"*, %"class.xercesc_2_7::XSerializeEngine"* dereferenceable(104)) unnamed_addr #7

declare dso_local %"class.xercesc_2_7::XProtoType"* @_ZNK11xercesc_2_710XMLRefInfo12getProtoTypeEv(%"class.xercesc_2_7::XMLRefInfo"*) unnamed_addr #7

declare dso_local zeroext i1 @_ZNK11xercesc_2_715ContentSpecNode14isSerializableEv(%"class.xercesc_2_7::ContentSpecNode"*) unnamed_addr #7

declare dso_local void @_ZN11xercesc_2_715ContentSpecNode9serializeERNS_16XSerializeEngineE(%"class.xercesc_2_7::ContentSpecNode"*, %"class.xercesc_2_7::XSerializeEngine"* dereferenceable(104)) unnamed_addr #7

declare dso_local %"class.xercesc_2_7::XProtoType"* @_ZNK11xercesc_2_715ContentSpecNode12getProtoTypeEv(%"class.xercesc_2_7::ContentSpecNode"*) unnamed_addr #7

declare dso_local zeroext i1 @_ZNK11xercesc_2_713DTDEntityDecl14isSerializableEv(%"class.xercesc_2_7::DTDEntityDecl"*) unnamed_addr #7

declare dso_local void @_ZN11xercesc_2_713DTDEntityDecl9serializeERNS_16XSerializeEngineE(%"class.xercesc_2_7::DTDEntityDecl"*, %"class.xercesc_2_7::XSerializeEngine"* dereferenceable(104)) unnamed_addr #7

declare dso_local %"class.xercesc_2_7::XProtoType"* @_ZNK11xercesc_2_713DTDEntityDecl12getProtoTypeEv(%"class.xercesc_2_7::DTDEntityDecl"*) unnamed_addr #7

; Function Attrs: noinline nounwind uwtable
define linkonce_odr dso_local zeroext i1 @_ZNK11xercesc_2_713DTDEntityDecl22getDeclaredInIntSubsetEv(%"class.xercesc_2_7::DTDEntityDecl"* %this) unnamed_addr #1 comdat align 2 !dbg !2463 {
entry:
  %this.addr = alloca %"class.xercesc_2_7::DTDEntityDecl"*, align 8
  store %"class.xercesc_2_7::DTDEntityDecl"* %this, %"class.xercesc_2_7::DTDEntityDecl"** %this.addr, align 8
  call void @llvm.dbg.declare(metadata %"class.xercesc_2_7::DTDEntityDecl"** %this.addr, metadata !2464, metadata !DIExpression()), !dbg !2466
  %this1 = load %"class.xercesc_2_7::DTDEntityDecl"*, %"class.xercesc_2_7::DTDEntityDecl"** %this.addr, align 8
  %fDeclaredInIntSubset = getelementptr inbounds %"class.xercesc_2_7::DTDEntityDecl", %"class.xercesc_2_7::DTDEntityDecl"* %this1, i32 0, i32 1, !dbg !2467
  %0 = load i8, i8* %fDeclaredInIntSubset, align 8, !dbg !2467
  %tobool = trunc i8 %0 to i1, !dbg !2467
  ret i1 %tobool, !dbg !2468
}

; Function Attrs: noinline nounwind uwtable
define linkonce_odr dso_local zeroext i1 @_ZNK11xercesc_2_713DTDEntityDecl14getIsParameterEv(%"class.xercesc_2_7::DTDEntityDecl"* %this) unnamed_addr #1 comdat align 2 !dbg !2469 {
entry:
  %this.addr = alloca %"class.xercesc_2_7::DTDEntityDecl"*, align 8
  store %"class.xercesc_2_7::DTDEntityDecl"* %this, %"class.xercesc_2_7::DTDEntityDecl"** %this.addr, align 8
  call void @llvm.dbg.declare(metadata %"class.xercesc_2_7::DTDEntityDecl"** %this.addr, metadata !2470, metadata !DIExpression()), !dbg !2471
  %this1 = load %"class.xercesc_2_7::DTDEntityDecl"*, %"class.xercesc_2_7::DTDEntityDecl"** %this.addr, align 8
  %fIsParameter = getelementptr inbounds %"class.xercesc_2_7::DTDEntityDecl", %"class.xercesc_2_7::DTDEntityDecl"* %this1, i32 0, i32 2, !dbg !2472
  %0 = load i8, i8* %fIsParameter, align 1, !dbg !2472
  %tobool = trunc i8 %0 to i1, !dbg !2472
  ret i1 %tobool, !dbg !2473
}

; Function Attrs: noinline nounwind uwtable
define linkonce_odr dso_local zeroext i1 @_ZNK11xercesc_2_713DTDEntityDecl16getIsSpecialCharEv(%"class.xercesc_2_7::DTDEntityDecl"* %this) unnamed_addr #1 comdat align 2 !dbg !2474 {
entry:
  %this.addr = alloca %"class.xercesc_2_7::DTDEntityDecl"*, align 8
  store %"class.xercesc_2_7::DTDEntityDecl"* %this, %"class.xercesc_2_7::DTDEntityDecl"** %this.addr, align 8
  call void @llvm.dbg.declare(metadata %"class.xercesc_2_7::DTDEntityDecl"** %this.addr, metadata !2475, metadata !DIExpression()), !dbg !2476
  %this1 = load %"class.xercesc_2_7::DTDEntityDecl"*, %"class.xercesc_2_7::DTDEntityDecl"** %this.addr, align 8
  %fIsSpecialChar = getelementptr inbounds %"class.xercesc_2_7::DTDEntityDecl", %"class.xercesc_2_7::DTDEntityDecl"* %this1, i32 0, i32 3, !dbg !2477
  %0 = load i8, i8* %fIsSpecialChar, align 2, !dbg !2477
  %tobool = trunc i8 %0 to i1, !dbg !2477
  ret i1 %tobool, !dbg !2478
}

; Function Attrs: noinline nounwind uwtable
define linkonce_odr dso_local void @_ZN11xercesc_2_712XPathScannerD2Ev(%"class.xercesc_2_7::XPathScanner"* %this) unnamed_addr #1 comdat align 2 !dbg !2479 {
entry:
  %this.addr = alloca %"class.xercesc_2_7::XPathScanner"*, align 8
  store %"class.xercesc_2_7::XPathScanner"* %this, %"class.xercesc_2_7::XPathScanner"** %this.addr, align 8
  call void @llvm.dbg.declare(metadata %"class.xercesc_2_7::XPathScanner"** %this.addr, metadata !2480, metadata !DIExpression()), !dbg !2481
  %this1 = load %"class.xercesc_2_7::XPathScanner"*, %"class.xercesc_2_7::XPathScanner"** %this.addr, align 8
  ret void, !dbg !2482
}

; Function Attrs: noinline nounwind uwtable
define linkonce_odr dso_local void @_ZN11xercesc_2_712XPathScannerD0Ev(%"class.xercesc_2_7::XPathScanner"* %this) unnamed_addr #1 comdat align 2 !dbg !2483 {
entry:
  %this.addr = alloca %"class.xercesc_2_7::XPathScanner"*, align 8
  store %"class.xercesc_2_7::XPathScanner"* %this, %"class.xercesc_2_7::XPathScanner"** %this.addr, align 8
  call void @llvm.dbg.declare(metadata %"class.xercesc_2_7::XPathScanner"** %this.addr, metadata !2484, metadata !DIExpression()), !dbg !2485
  %this1 = load %"class.xercesc_2_7::XPathScanner"*, %"class.xercesc_2_7::XPathScanner"** %this.addr, align 8
  call void @_ZN11xercesc_2_712XPathScannerD2Ev(%"class.xercesc_2_7::XPathScanner"* %this1) #8, !dbg !2486
  %0 = bitcast %"class.xercesc_2_7::XPathScanner"* %this1 to i8*, !dbg !2486
  call void @_ZN11xercesc_2_77XMemorydlEPv(i8* %0) #8, !dbg !2486
  ret void, !dbg !2487
}

; Function Attrs: noinline nounwind uwtable
define linkonce_odr dso_local void @_ZN11xercesc_2_713XSerializableC2Ev(%"class.xercesc_2_7::XSerializable"* %this) unnamed_addr #1 comdat align 2 !dbg !2488 {
entry:
  %this.addr = alloca %"class.xercesc_2_7::XSerializable"*, align 8
  store %"class.xercesc_2_7::XSerializable"* %this, %"class.xercesc_2_7::XSerializable"** %this.addr, align 8
  call void @llvm.dbg.declare(metadata %"class.xercesc_2_7::XSerializable"** %this.addr, metadata !2489, metadata !DIExpression()), !dbg !2490
  %this1 = load %"class.xercesc_2_7::XSerializable"*, %"class.xercesc_2_7::XSerializable"** %this.addr, align 8
  %0 = bitcast %"class.xercesc_2_7::XSerializable"* %this1 to i32 (...)***, !dbg !2491
  store i32 (...)** bitcast (i8** getelementptr inbounds ({ [7 x i8*] }, { [7 x i8*] }* @_ZTVN11xercesc_2_713XSerializableE, i32 0, inrange i32 0, i32 2) to i32 (...)**), i32 (...)*** %0, align 8, !dbg !2491
  ret void, !dbg !2492
}

; Function Attrs: noinline nounwind uwtable
define linkonce_odr dso_local void @_ZN11xercesc_2_77XMemoryC2Ev(%"class.xercesc_2_7::XMemory"* %this) unnamed_addr #1 comdat align 2 !dbg !2493 {
entry:
  %this.addr = alloca %"class.xercesc_2_7::XMemory"*, align 8
  store %"class.xercesc_2_7::XMemory"* %this, %"class.xercesc_2_7::XMemory"** %this.addr, align 8
  call void @llvm.dbg.declare(metadata %"class.xercesc_2_7::XMemory"** %this.addr, metadata !2494, metadata !DIExpression()), !dbg !2496
  %this1 = load %"class.xercesc_2_7::XMemory"*, %"class.xercesc_2_7::XMemory"** %this.addr, align 8
  ret void, !dbg !2497
}

; Function Attrs: noinline nounwind uwtable
define linkonce_odr dso_local void @_ZN11xercesc_2_713XSerializableD2Ev(%"class.xercesc_2_7::XSerializable"* %this) unnamed_addr #1 comdat align 2 !dbg !2498 {
entry:
  %this.addr = alloca %"class.xercesc_2_7::XSerializable"*, align 8
  store %"class.xercesc_2_7::XSerializable"* %this, %"class.xercesc_2_7::XSerializable"** %this.addr, align 8
  call void @llvm.dbg.declare(metadata %"class.xercesc_2_7::XSerializable"** %this.addr, metadata !2499, metadata !DIExpression()), !dbg !2500
  %this1 = load %"class.xercesc_2_7::XSerializable"*, %"class.xercesc_2_7::XSerializable"** %this.addr, align 8
  ret void, !dbg !2501
}

; Function Attrs: noinline nounwind uwtable
define linkonce_odr dso_local void @_ZN11xercesc_2_713XSerializableD0Ev(%"class.xercesc_2_7::XSerializable"* %this) unnamed_addr #1 comdat align 2 !dbg !2502 {
entry:
  %this.addr = alloca %"class.xercesc_2_7::XSerializable"*, align 8
  store %"class.xercesc_2_7::XSerializable"* %this, %"class.xercesc_2_7::XSerializable"** %this.addr, align 8
  call void @llvm.dbg.declare(metadata %"class.xercesc_2_7::XSerializable"** %this.addr, metadata !2503, metadata !DIExpression()), !dbg !2504
  %this1 = load %"class.xercesc_2_7::XSerializable"*, %"class.xercesc_2_7::XSerializable"** %this.addr, align 8
  call void @llvm.trap() #10, !dbg !2505
  unreachable, !dbg !2505
}

declare dso_local void @_ZN11xercesc_2_712XMLExceptionC2EPKcjPNS_13MemoryManagerE(%"class.xercesc_2_7::XMLException"*, i8*, i32, %"class.xercesc_2_7::MemoryManager"*) unnamed_addr #7

declare dso_local void @_ZN11xercesc_2_712XMLException14loadExceptTextENS_10XMLExcepts5CodesE(%"class.xercesc_2_7::XMLException"*, i32) #7

; Function Attrs: nounwind
declare dso_local void @_ZN11xercesc_2_712XMLExceptionD2Ev(%"class.xercesc_2_7::XMLException"*) unnamed_addr #5

; Function Attrs: noinline nounwind uwtable
define linkonce_odr dso_local void @_ZN11xercesc_2_730ArrayIndexOutOfBoundsExceptionD0Ev(%"class.xercesc_2_7::ArrayIndexOutOfBoundsException"* %this) unnamed_addr #1 comdat align 2 !dbg !2506 {
entry:
  %this.addr = alloca %"class.xercesc_2_7::ArrayIndexOutOfBoundsException"*, align 8
  store %"class.xercesc_2_7::ArrayIndexOutOfBoundsException"* %this, %"class.xercesc_2_7::ArrayIndexOutOfBoundsException"** %this.addr, align 8
  call void @llvm.dbg.declare(metadata %"class.xercesc_2_7::ArrayIndexOutOfBoundsException"** %this.addr, metadata !2507, metadata !DIExpression()), !dbg !2508
  %this1 = load %"class.xercesc_2_7::ArrayIndexOutOfBoundsException"*, %"class.xercesc_2_7::ArrayIndexOutOfBoundsException"** %this.addr, align 8
  call void @_ZN11xercesc_2_730ArrayIndexOutOfBoundsExceptionD2Ev(%"class.xercesc_2_7::ArrayIndexOutOfBoundsException"* %this1) #8, !dbg !2509
  %0 = bitcast %"class.xercesc_2_7::ArrayIndexOutOfBoundsException"* %this1 to i8*, !dbg !2509
  call void @_ZN11xercesc_2_77XMemorydlEPv(i8* %0) #8, !dbg !2509
  ret void, !dbg !2509
}

; Function Attrs: noinline nounwind uwtable
define linkonce_odr dso_local i16* @_ZNK11xercesc_2_730ArrayIndexOutOfBoundsException7getTypeEv(%"class.xercesc_2_7::ArrayIndexOutOfBoundsException"* %this) unnamed_addr #1 comdat align 2 !dbg !2510 {
entry:
  %this.addr = alloca %"class.xercesc_2_7::ArrayIndexOutOfBoundsException"*, align 8
  store %"class.xercesc_2_7::ArrayIndexOutOfBoundsException"* %this, %"class.xercesc_2_7::ArrayIndexOutOfBoundsException"** %this.addr, align 8
  call void @llvm.dbg.declare(metadata %"class.xercesc_2_7::ArrayIndexOutOfBoundsException"** %this.addr, metadata !2511, metadata !DIExpression()), !dbg !2513
  %this1 = load %"class.xercesc_2_7::ArrayIndexOutOfBoundsException"*, %"class.xercesc_2_7::ArrayIndexOutOfBoundsException"** %this.addr, align 8
  ret i16* getelementptr inbounds ([0 x i16], [0 x i16]* @_ZN11xercesc_2_76XMLUni37fgArrayIndexOutOfBoundsException_NameE, i64 0, i64 0), !dbg !2514
}

; Function Attrs: noinline uwtable
define linkonce_odr dso_local %"class.xercesc_2_7::XMLException"* @_ZNK11xercesc_2_730ArrayIndexOutOfBoundsException9duplicateEv(%"class.xercesc_2_7::ArrayIndexOutOfBoundsException"* %this) unnamed_addr #6 comdat align 2 personality i8* bitcast (i32 (...)* @__gxx_personality_v0 to i8*) !dbg !2515 {
entry:
  %this.addr = alloca %"class.xercesc_2_7::ArrayIndexOutOfBoundsException"*, align 8
  %exn.slot = alloca i8*
  %ehselector.slot = alloca i32
  store %"class.xercesc_2_7::ArrayIndexOutOfBoundsException"* %this, %"class.xercesc_2_7::ArrayIndexOutOfBoundsException"** %this.addr, align 8
  call void @llvm.dbg.declare(metadata %"class.xercesc_2_7::ArrayIndexOutOfBoundsException"** %this.addr, metadata !2516, metadata !DIExpression()), !dbg !2517
  %this1 = load %"class.xercesc_2_7::ArrayIndexOutOfBoundsException"*, %"class.xercesc_2_7::ArrayIndexOutOfBoundsException"** %this.addr, align 8
  %0 = bitcast %"class.xercesc_2_7::ArrayIndexOutOfBoundsException"* %this1 to %"class.xercesc_2_7::XMLException"*, !dbg !2518
  %fMemoryManager = getelementptr inbounds %"class.xercesc_2_7::XMLException", %"class.xercesc_2_7::XMLException"* %0, i32 0, i32 5, !dbg !2518
  %1 = load %"class.xercesc_2_7::MemoryManager"*, %"class.xercesc_2_7::MemoryManager"** %fMemoryManager, align 8, !dbg !2518
  %call = call i8* @_ZN11xercesc_2_77XMemorynwEmPNS_13MemoryManagerE(i64 48, %"class.xercesc_2_7::MemoryManager"* %1), !dbg !2518
  %2 = bitcast i8* %call to %"class.xercesc_2_7::ArrayIndexOutOfBoundsException"*, !dbg !2518
  invoke void @_ZN11xercesc_2_730ArrayIndexOutOfBoundsExceptionC2ERKS0_(%"class.xercesc_2_7::ArrayIndexOutOfBoundsException"* %2, %"class.xercesc_2_7::ArrayIndexOutOfBoundsException"* dereferenceable(48) %this1)
          to label %invoke.cont unwind label %lpad, !dbg !2518

invoke.cont:                                      ; preds = %entry
  %3 = bitcast %"class.xercesc_2_7::ArrayIndexOutOfBoundsException"* %2 to %"class.xercesc_2_7::XMLException"*, !dbg !2518
  ret %"class.xercesc_2_7::XMLException"* %3, !dbg !2518

lpad:                                             ; preds = %entry
  %4 = landingpad { i8*, i32 }
          cleanup, !dbg !2518
  %5 = extractvalue { i8*, i32 } %4, 0, !dbg !2518
  store i8* %5, i8** %exn.slot, align 8, !dbg !2518
  %6 = extractvalue { i8*, i32 } %4, 1, !dbg !2518
  store i32 %6, i32* %ehselector.slot, align 4, !dbg !2518
  call void @_ZN11xercesc_2_77XMemorydlEPvPNS_13MemoryManagerE(i8* %call, %"class.xercesc_2_7::MemoryManager"* %1) #8, !dbg !2518
  br label %eh.resume, !dbg !2518

eh.resume:                                        ; preds = %lpad
  %exn = load i8*, i8** %exn.slot, align 8, !dbg !2518
  %sel = load i32, i32* %ehselector.slot, align 4, !dbg !2518
  %lpad.val = insertvalue { i8*, i32 } undef, i8* %exn, 0, !dbg !2518
  %lpad.val2 = insertvalue { i8*, i32 } %lpad.val, i32 %sel, 1, !dbg !2518
  resume { i8*, i32 } %lpad.val2, !dbg !2518
}

; Function Attrs: noinline uwtable
define linkonce_odr dso_local void @_ZN11xercesc_2_730ArrayIndexOutOfBoundsExceptionC2ERKS0_(%"class.xercesc_2_7::ArrayIndexOutOfBoundsException"* %this, %"class.xercesc_2_7::ArrayIndexOutOfBoundsException"* dereferenceable(48) %toCopy) unnamed_addr #6 comdat align 2 !dbg !2519 {
entry:
  %this.addr = alloca %"class.xercesc_2_7::ArrayIndexOutOfBoundsException"*, align 8
  %toCopy.addr = alloca %"class.xercesc_2_7::ArrayIndexOutOfBoundsException"*, align 8
  store %"class.xercesc_2_7::ArrayIndexOutOfBoundsException"* %this, %"class.xercesc_2_7::ArrayIndexOutOfBoundsException"** %this.addr, align 8
  call void @llvm.dbg.declare(metadata %"class.xercesc_2_7::ArrayIndexOutOfBoundsException"** %this.addr, metadata !2520, metadata !DIExpression()), !dbg !2521
  store %"class.xercesc_2_7::ArrayIndexOutOfBoundsException"* %toCopy, %"class.xercesc_2_7::ArrayIndexOutOfBoundsException"** %toCopy.addr, align 8
  call void @llvm.dbg.declare(metadata %"class.xercesc_2_7::ArrayIndexOutOfBoundsException"** %toCopy.addr, metadata !2522, metadata !DIExpression()), !dbg !2523
  %this1 = load %"class.xercesc_2_7::ArrayIndexOutOfBoundsException"*, %"class.xercesc_2_7::ArrayIndexOutOfBoundsException"** %this.addr, align 8
  %0 = bitcast %"class.xercesc_2_7::ArrayIndexOutOfBoundsException"* %this1 to %"class.xercesc_2_7::XMLException"*, !dbg !2523
  %1 = load %"class.xercesc_2_7::ArrayIndexOutOfBoundsException"*, %"class.xercesc_2_7::ArrayIndexOutOfBoundsException"** %toCopy.addr, align 8, !dbg !2523
  %2 = bitcast %"class.xercesc_2_7::ArrayIndexOutOfBoundsException"* %1 to %"class.xercesc_2_7::XMLException"*, !dbg !2523
  call void @_ZN11xercesc_2_712XMLExceptionC2ERKS0_(%"class.xercesc_2_7::XMLException"* %0, %"class.xercesc_2_7::XMLException"* dereferenceable(48) %2), !dbg !2523
  %3 = bitcast %"class.xercesc_2_7::ArrayIndexOutOfBoundsException"* %this1 to i32 (...)***, !dbg !2523
  store i32 (...)** bitcast (i8** getelementptr inbounds ({ [6 x i8*] }, { [6 x i8*] }* @_ZTVN11xercesc_2_730ArrayIndexOutOfBoundsExceptionE, i32 0, inrange i32 0, i32 2) to i32 (...)**), i32 (...)*** %3, align 8, !dbg !2523
  ret void, !dbg !2523
}

declare dso_local void @_ZN11xercesc_2_712XMLExceptionC2ERKS0_(%"class.xercesc_2_7::XMLException"*, %"class.xercesc_2_7::XMLException"* dereferenceable(48)) unnamed_addr #7

; Function Attrs: noinline uwtable
define linkonce_odr dso_local void @_ZN11xercesc_2_713ValueVectorOfIiE19ensureExtraCapacityEj(%"class.xercesc_2_7::ValueVectorOf"* %this, i32 %length) #6 comdat align 2 !dbg !2524 {
entry:
  %this.addr = alloca %"class.xercesc_2_7::ValueVectorOf"*, align 8
  %length.addr = alloca i32, align 4
  %newMax = alloca i32, align 4
  %minNewMax = alloca i32, align 4
  %newList = alloca i32*, align 8
  %index = alloca i32, align 4
  store %"class.xercesc_2_7::ValueVectorOf"* %this, %"class.xercesc_2_7::ValueVectorOf"** %this.addr, align 8
  call void @llvm.dbg.declare(metadata %"class.xercesc_2_7::ValueVectorOf"** %this.addr, metadata !2525, metadata !DIExpression()), !dbg !2526
  store i32 %length, i32* %length.addr, align 4
  call void @llvm.dbg.declare(metadata i32* %length.addr, metadata !2527, metadata !DIExpression()), !dbg !2528
  %this1 = load %"class.xercesc_2_7::ValueVectorOf"*, %"class.xercesc_2_7::ValueVectorOf"** %this.addr, align 8
  call void @llvm.dbg.declare(metadata i32* %newMax, metadata !2529, metadata !DIExpression()), !dbg !2530
  %fCurCount = getelementptr inbounds %"class.xercesc_2_7::ValueVectorOf", %"class.xercesc_2_7::ValueVectorOf"* %this1, i32 0, i32 1, !dbg !2531
  %0 = load i32, i32* %fCurCount, align 4, !dbg !2531
  %1 = load i32, i32* %length.addr, align 4, !dbg !2532
  %add = add i32 %0, %1, !dbg !2533
  store i32 %add, i32* %newMax, align 4, !dbg !2530
  %2 = load i32, i32* %newMax, align 4, !dbg !2534
  %fMaxCount = getelementptr inbounds %"class.xercesc_2_7::ValueVectorOf", %"class.xercesc_2_7::ValueVectorOf"* %this1, i32 0, i32 2, !dbg !2536
  %3 = load i32, i32* %fMaxCount, align 8, !dbg !2536
  %cmp = icmp ule i32 %2, %3, !dbg !2537
  br i1 %cmp, label %if.then, label %if.end, !dbg !2538

if.then:                                          ; preds = %entry
  br label %return, !dbg !2539

if.end:                                           ; preds = %entry
  call void @llvm.dbg.declare(metadata i32* %minNewMax, metadata !2540, metadata !DIExpression()), !dbg !2541
  %fCurCount2 = getelementptr inbounds %"class.xercesc_2_7::ValueVectorOf", %"class.xercesc_2_7::ValueVectorOf"* %this1, i32 0, i32 1, !dbg !2542
  %4 = load i32, i32* %fCurCount2, align 4, !dbg !2542
  %conv = uitofp i32 %4 to double, !dbg !2542
  %mul = fmul double %conv, 1.250000e+00, !dbg !2543
  %conv3 = fptoui double %mul to i32, !dbg !2544
  store i32 %conv3, i32* %minNewMax, align 4, !dbg !2541
  %5 = load i32, i32* %newMax, align 4, !dbg !2545
  %6 = load i32, i32* %minNewMax, align 4, !dbg !2547
  %cmp4 = icmp ult i32 %5, %6, !dbg !2548
  br i1 %cmp4, label %if.then5, label %if.end6, !dbg !2549

if.then5:                                         ; preds = %if.end
  %7 = load i32, i32* %minNewMax, align 4, !dbg !2550
  store i32 %7, i32* %newMax, align 4, !dbg !2551
  br label %if.end6, !dbg !2552

if.end6:                                          ; preds = %if.then5, %if.end
  call void @llvm.dbg.declare(metadata i32** %newList, metadata !2553, metadata !DIExpression()), !dbg !2554
  %fMemoryManager = getelementptr inbounds %"class.xercesc_2_7::ValueVectorOf", %"class.xercesc_2_7::ValueVectorOf"* %this1, i32 0, i32 4, !dbg !2555
  %8 = load %"class.xercesc_2_7::MemoryManager"*, %"class.xercesc_2_7::MemoryManager"** %fMemoryManager, align 8, !dbg !2555
  %9 = load i32, i32* %newMax, align 4, !dbg !2556
  %conv7 = zext i32 %9 to i64, !dbg !2556
  %mul8 = mul i64 %conv7, 4, !dbg !2557
  %10 = bitcast %"class.xercesc_2_7::MemoryManager"* %8 to i8* (%"class.xercesc_2_7::MemoryManager"*, i64)***, !dbg !2558
  %vtable = load i8* (%"class.xercesc_2_7::MemoryManager"*, i64)**, i8* (%"class.xercesc_2_7::MemoryManager"*, i64)*** %10, align 8, !dbg !2558
  %vfn = getelementptr inbounds i8* (%"class.xercesc_2_7::MemoryManager"*, i64)*, i8* (%"class.xercesc_2_7::MemoryManager"*, i64)** %vtable, i64 2, !dbg !2558
  %11 = load i8* (%"class.xercesc_2_7::MemoryManager"*, i64)*, i8* (%"class.xercesc_2_7::MemoryManager"*, i64)** %vfn, align 8, !dbg !2558
  %call = call i8* %11(%"class.xercesc_2_7::MemoryManager"* %8, i64 %mul8), !dbg !2558
  %12 = bitcast i8* %call to i32*, !dbg !2559
  store i32* %12, i32** %newList, align 8, !dbg !2554
  call void @llvm.dbg.declare(metadata i32* %index, metadata !2560, metadata !DIExpression()), !dbg !2562
  store i32 0, i32* %index, align 4, !dbg !2562
  br label %for.cond, !dbg !2563

for.cond:                                         ; preds = %for.inc, %if.end6
  %13 = load i32, i32* %index, align 4, !dbg !2564
  %fCurCount9 = getelementptr inbounds %"class.xercesc_2_7::ValueVectorOf", %"class.xercesc_2_7::ValueVectorOf"* %this1, i32 0, i32 1, !dbg !2566
  %14 = load i32, i32* %fCurCount9, align 4, !dbg !2566
  %cmp10 = icmp ult i32 %13, %14, !dbg !2567
  br i1 %cmp10, label %for.body, label %for.end, !dbg !2568

for.body:                                         ; preds = %for.cond
  %fElemList = getelementptr inbounds %"class.xercesc_2_7::ValueVectorOf", %"class.xercesc_2_7::ValueVectorOf"* %this1, i32 0, i32 3, !dbg !2569
  %15 = load i32*, i32** %fElemList, align 8, !dbg !2569
  %16 = load i32, i32* %index, align 4, !dbg !2570
  %idxprom = zext i32 %16 to i64, !dbg !2569
  %arrayidx = getelementptr inbounds i32, i32* %15, i64 %idxprom, !dbg !2569
  %17 = load i32, i32* %arrayidx, align 4, !dbg !2569
  %18 = load i32*, i32** %newList, align 8, !dbg !2571
  %19 = load i32, i32* %index, align 4, !dbg !2572
  %idxprom11 = zext i32 %19 to i64, !dbg !2571
  %arrayidx12 = getelementptr inbounds i32, i32* %18, i64 %idxprom11, !dbg !2571
  store i32 %17, i32* %arrayidx12, align 4, !dbg !2573
  br label %for.inc, !dbg !2571

for.inc:                                          ; preds = %for.body
  %20 = load i32, i32* %index, align 4, !dbg !2574
  %inc = add i32 %20, 1, !dbg !2574
  store i32 %inc, i32* %index, align 4, !dbg !2574
  br label %for.cond, !dbg !2575, !llvm.loop !2576

for.end:                                          ; preds = %for.cond
  %fMemoryManager13 = getelementptr inbounds %"class.xercesc_2_7::ValueVectorOf", %"class.xercesc_2_7::ValueVectorOf"* %this1, i32 0, i32 4, !dbg !2578
  %21 = load %"class.xercesc_2_7::MemoryManager"*, %"class.xercesc_2_7::MemoryManager"** %fMemoryManager13, align 8, !dbg !2578
  %fElemList14 = getelementptr inbounds %"class.xercesc_2_7::ValueVectorOf", %"class.xercesc_2_7::ValueVectorOf"* %this1, i32 0, i32 3, !dbg !2579
  %22 = load i32*, i32** %fElemList14, align 8, !dbg !2579
  %23 = bitcast i32* %22 to i8*, !dbg !2579
  %24 = bitcast %"class.xercesc_2_7::MemoryManager"* %21 to void (%"class.xercesc_2_7::MemoryManager"*, i8*)***, !dbg !2580
  %vtable15 = load void (%"class.xercesc_2_7::MemoryManager"*, i8*)**, void (%"class.xercesc_2_7::MemoryManager"*, i8*)*** %24, align 8, !dbg !2580
  %vfn16 = getelementptr inbounds void (%"class.xercesc_2_7::MemoryManager"*, i8*)*, void (%"class.xercesc_2_7::MemoryManager"*, i8*)** %vtable15, i64 3, !dbg !2580
  %25 = load void (%"class.xercesc_2_7::MemoryManager"*, i8*)*, void (%"class.xercesc_2_7::MemoryManager"*, i8*)** %vfn16, align 8, !dbg !2580
  call void %25(%"class.xercesc_2_7::MemoryManager"* %21, i8* %23), !dbg !2580
  %26 = load i32*, i32** %newList, align 8, !dbg !2581
  %fElemList17 = getelementptr inbounds %"class.xercesc_2_7::ValueVectorOf", %"class.xercesc_2_7::ValueVectorOf"* %this1, i32 0, i32 3, !dbg !2582
  store i32* %26, i32** %fElemList17, align 8, !dbg !2583
  %27 = load i32, i32* %newMax, align 4, !dbg !2584
  %fMaxCount18 = getelementptr inbounds %"class.xercesc_2_7::ValueVectorOf", %"class.xercesc_2_7::ValueVectorOf"* %this1, i32 0, i32 2, !dbg !2585
  store i32 %27, i32* %fMaxCount18, align 8, !dbg !2586
  br label %return, !dbg !2587

return:                                           ; preds = %for.end, %if.then
  ret void, !dbg !2587
}

; Function Attrs: noinline nounwind uwtable
define linkonce_odr dso_local void @_ZN11xercesc_2_713XMLEnumeratorINS_9DTDAttDefEEC2Ev(%"class.xercesc_2_7::XMLEnumerator"* %this) unnamed_addr #1 comdat align 2 !dbg !2588 {
entry:
  %this.addr = alloca %"class.xercesc_2_7::XMLEnumerator"*, align 8
  store %"class.xercesc_2_7::XMLEnumerator"* %this, %"class.xercesc_2_7::XMLEnumerator"** %this.addr, align 8
  call void @llvm.dbg.declare(metadata %"class.xercesc_2_7::XMLEnumerator"** %this.addr, metadata !2589, metadata !DIExpression()), !dbg !2591
  %this1 = load %"class.xercesc_2_7::XMLEnumerator"*, %"class.xercesc_2_7::XMLEnumerator"** %this.addr, align 8
  %0 = bitcast %"class.xercesc_2_7::XMLEnumerator"* %this1 to i32 (...)***, !dbg !2592
  store i32 (...)** bitcast (i8** getelementptr inbounds ({ [7 x i8*] }, { [7 x i8*] }* @_ZTVN11xercesc_2_713XMLEnumeratorINS_9DTDAttDefEEE, i32 0, inrange i32 0, i32 2) to i32 (...)**), i32 (...)*** %0, align 8, !dbg !2592
  ret void, !dbg !2593
}

; Function Attrs: noinline uwtable
define linkonce_odr dso_local void @_ZN11xercesc_2_720NullPointerExceptionC2EPKcjNS_10XMLExcepts5CodesEPNS_13MemoryManagerE(%"class.xercesc_2_7::NullPointerException"* %this, i8* %srcFile, i32 %srcLine, i32 %toThrow, %"class.xercesc_2_7::MemoryManager"* %memoryManager) unnamed_addr #6 comdat align 2 personality i8* bitcast (i32 (...)* @__gxx_personality_v0 to i8*) !dbg !2594 {
entry:
  %this.addr = alloca %"class.xercesc_2_7::NullPointerException"*, align 8
  %srcFile.addr = alloca i8*, align 8
  %srcLine.addr = alloca i32, align 4
  %toThrow.addr = alloca i32, align 4
  %memoryManager.addr = alloca %"class.xercesc_2_7::MemoryManager"*, align 8
  %exn.slot = alloca i8*
  %ehselector.slot = alloca i32
  store %"class.xercesc_2_7::NullPointerException"* %this, %"class.xercesc_2_7::NullPointerException"** %this.addr, align 8
  call void @llvm.dbg.declare(metadata %"class.xercesc_2_7::NullPointerException"** %this.addr, metadata !2629, metadata !DIExpression()), !dbg !2631
  store i8* %srcFile, i8** %srcFile.addr, align 8
  call void @llvm.dbg.declare(metadata i8** %srcFile.addr, metadata !2632, metadata !DIExpression()), !dbg !2633
  store i32 %srcLine, i32* %srcLine.addr, align 4
  call void @llvm.dbg.declare(metadata i32* %srcLine.addr, metadata !2634, metadata !DIExpression()), !dbg !2633
  store i32 %toThrow, i32* %toThrow.addr, align 4
  call void @llvm.dbg.declare(metadata i32* %toThrow.addr, metadata !2635, metadata !DIExpression()), !dbg !2633
  store %"class.xercesc_2_7::MemoryManager"* %memoryManager, %"class.xercesc_2_7::MemoryManager"** %memoryManager.addr, align 8
  call void @llvm.dbg.declare(metadata %"class.xercesc_2_7::MemoryManager"** %memoryManager.addr, metadata !2636, metadata !DIExpression()), !dbg !2633
  %this1 = load %"class.xercesc_2_7::NullPointerException"*, %"class.xercesc_2_7::NullPointerException"** %this.addr, align 8
  %0 = bitcast %"class.xercesc_2_7::NullPointerException"* %this1 to %"class.xercesc_2_7::XMLException"*, !dbg !2633
  %1 = load i8*, i8** %srcFile.addr, align 8, !dbg !2633
  %2 = load i32, i32* %srcLine.addr, align 4, !dbg !2633
  %3 = load %"class.xercesc_2_7::MemoryManager"*, %"class.xercesc_2_7::MemoryManager"** %memoryManager.addr, align 8, !dbg !2633
  call void @_ZN11xercesc_2_712XMLExceptionC2EPKcjPNS_13MemoryManagerE(%"class.xercesc_2_7::XMLException"* %0, i8* %1, i32 %2, %"class.xercesc_2_7::MemoryManager"* %3), !dbg !2633
  %4 = bitcast %"class.xercesc_2_7::NullPointerException"* %this1 to i32 (...)***, !dbg !2633
  store i32 (...)** bitcast (i8** getelementptr inbounds ({ [6 x i8*] }, { [6 x i8*] }* @_ZTVN11xercesc_2_720NullPointerExceptionE, i32 0, inrange i32 0, i32 2) to i32 (...)**), i32 (...)*** %4, align 8, !dbg !2633
  %5 = bitcast %"class.xercesc_2_7::NullPointerException"* %this1 to %"class.xercesc_2_7::XMLException"*, !dbg !2637
  %6 = load i32, i32* %toThrow.addr, align 4, !dbg !2637
  invoke void @_ZN11xercesc_2_712XMLException14loadExceptTextENS_10XMLExcepts5CodesE(%"class.xercesc_2_7::XMLException"* %5, i32 %6)
          to label %invoke.cont unwind label %lpad, !dbg !2637

invoke.cont:                                      ; preds = %entry
  ret void, !dbg !2633

lpad:                                             ; preds = %entry
  %7 = landingpad { i8*, i32 }
          cleanup, !dbg !2637
  %8 = extractvalue { i8*, i32 } %7, 0, !dbg !2637
  store i8* %8, i8** %exn.slot, align 8, !dbg !2637
  %9 = extractvalue { i8*, i32 } %7, 1, !dbg !2637
  store i32 %9, i32* %ehselector.slot, align 4, !dbg !2637
  %10 = bitcast %"class.xercesc_2_7::NullPointerException"* %this1 to %"class.xercesc_2_7::XMLException"*, !dbg !2637
  call void @_ZN11xercesc_2_712XMLExceptionD2Ev(%"class.xercesc_2_7::XMLException"* %10) #8, !dbg !2637
  br label %eh.resume, !dbg !2637

eh.resume:                                        ; preds = %lpad
  %exn = load i8*, i8** %exn.slot, align 8, !dbg !2637
  %sel = load i32, i32* %ehselector.slot, align 4, !dbg !2637
  %lpad.val = insertvalue { i8*, i32 } undef, i8* %exn, 0, !dbg !2637
  %lpad.val2 = insertvalue { i8*, i32 } %lpad.val, i32 %sel, 1, !dbg !2637
  resume { i8*, i32 } %lpad.val2, !dbg !2637
}

; Function Attrs: noinline nounwind uwtable
define linkonce_odr dso_local void @_ZN11xercesc_2_720NullPointerExceptionD2Ev(%"class.xercesc_2_7::NullPointerException"* %this) unnamed_addr #1 comdat align 2 !dbg !2639 {
entry:
  %this.addr = alloca %"class.xercesc_2_7::NullPointerException"*, align 8
  store %"class.xercesc_2_7::NullPointerException"* %this, %"class.xercesc_2_7::NullPointerException"** %this.addr, align 8
  call void @llvm.dbg.declare(metadata %"class.xercesc_2_7::NullPointerException"** %this.addr, metadata !2640, metadata !DIExpression()), !dbg !2641
  %this1 = load %"class.xercesc_2_7::NullPointerException"*, %"class.xercesc_2_7::NullPointerException"** %this.addr, align 8
  %0 = bitcast %"class.xercesc_2_7::NullPointerException"* %this1 to %"class.xercesc_2_7::XMLException"*, !dbg !2642
  call void @_ZN11xercesc_2_712XMLExceptionD2Ev(%"class.xercesc_2_7::XMLException"* %0) #8, !dbg !2642
  ret void, !dbg !2644
}

; Function Attrs: noinline nounwind uwtable
define linkonce_odr dso_local void @_ZN11xercesc_2_724RefHashTableOfEnumeratorINS_9DTDAttDefEE8findNextEv(%"class.xercesc_2_7::RefHashTableOfEnumerator"* %this) #1 comdat align 2 !dbg !2645 {
entry:
  %this.addr = alloca %"class.xercesc_2_7::RefHashTableOfEnumerator"*, align 8
  store %"class.xercesc_2_7::RefHashTableOfEnumerator"* %this, %"class.xercesc_2_7::RefHashTableOfEnumerator"** %this.addr, align 8
  call void @llvm.dbg.declare(metadata %"class.xercesc_2_7::RefHashTableOfEnumerator"** %this.addr, metadata !2646, metadata !DIExpression()), !dbg !2647
  %this1 = load %"class.xercesc_2_7::RefHashTableOfEnumerator"*, %"class.xercesc_2_7::RefHashTableOfEnumerator"** %this.addr, align 8
  %fCurElem = getelementptr inbounds %"class.xercesc_2_7::RefHashTableOfEnumerator", %"class.xercesc_2_7::RefHashTableOfEnumerator"* %this1, i32 0, i32 2, !dbg !2648
  %0 = load %"struct.xercesc_2_7::RefHashTableBucketElem.0"*, %"struct.xercesc_2_7::RefHashTableBucketElem.0"** %fCurElem, align 8, !dbg !2648
  %tobool = icmp ne %"struct.xercesc_2_7::RefHashTableBucketElem.0"* %0, null, !dbg !2648
  br i1 %tobool, label %if.then, label %if.end, !dbg !2650

if.then:                                          ; preds = %entry
  %fCurElem2 = getelementptr inbounds %"class.xercesc_2_7::RefHashTableOfEnumerator", %"class.xercesc_2_7::RefHashTableOfEnumerator"* %this1, i32 0, i32 2, !dbg !2651
  %1 = load %"struct.xercesc_2_7::RefHashTableBucketElem.0"*, %"struct.xercesc_2_7::RefHashTableBucketElem.0"** %fCurElem2, align 8, !dbg !2651
  %fNext = getelementptr inbounds %"struct.xercesc_2_7::RefHashTableBucketElem.0", %"struct.xercesc_2_7::RefHashTableBucketElem.0"* %1, i32 0, i32 1, !dbg !2652
  %2 = load %"struct.xercesc_2_7::RefHashTableBucketElem.0"*, %"struct.xercesc_2_7::RefHashTableBucketElem.0"** %fNext, align 8, !dbg !2652
  %fCurElem3 = getelementptr inbounds %"class.xercesc_2_7::RefHashTableOfEnumerator", %"class.xercesc_2_7::RefHashTableOfEnumerator"* %this1, i32 0, i32 2, !dbg !2653
  store %"struct.xercesc_2_7::RefHashTableBucketElem.0"* %2, %"struct.xercesc_2_7::RefHashTableBucketElem.0"** %fCurElem3, align 8, !dbg !2654
  br label %if.end, !dbg !2653

if.end:                                           ; preds = %if.then, %entry
  %fCurElem4 = getelementptr inbounds %"class.xercesc_2_7::RefHashTableOfEnumerator", %"class.xercesc_2_7::RefHashTableOfEnumerator"* %this1, i32 0, i32 2, !dbg !2655
  %3 = load %"struct.xercesc_2_7::RefHashTableBucketElem.0"*, %"struct.xercesc_2_7::RefHashTableBucketElem.0"** %fCurElem4, align 8, !dbg !2655
  %tobool5 = icmp ne %"struct.xercesc_2_7::RefHashTableBucketElem.0"* %3, null, !dbg !2655
  br i1 %tobool5, label %if.end27, label %if.then6, !dbg !2657

if.then6:                                         ; preds = %if.end
  %fCurHash = getelementptr inbounds %"class.xercesc_2_7::RefHashTableOfEnumerator", %"class.xercesc_2_7::RefHashTableOfEnumerator"* %this1, i32 0, i32 3, !dbg !2658
  %4 = load i32, i32* %fCurHash, align 8, !dbg !2660
  %inc = add i32 %4, 1, !dbg !2660
  store i32 %inc, i32* %fCurHash, align 8, !dbg !2660
  %fCurHash7 = getelementptr inbounds %"class.xercesc_2_7::RefHashTableOfEnumerator", %"class.xercesc_2_7::RefHashTableOfEnumerator"* %this1, i32 0, i32 3, !dbg !2661
  %5 = load i32, i32* %fCurHash7, align 8, !dbg !2661
  %fToEnum = getelementptr inbounds %"class.xercesc_2_7::RefHashTableOfEnumerator", %"class.xercesc_2_7::RefHashTableOfEnumerator"* %this1, i32 0, i32 4, !dbg !2663
  %6 = load %"class.xercesc_2_7::RefHashTableOf.1"*, %"class.xercesc_2_7::RefHashTableOf.1"** %fToEnum, align 8, !dbg !2663
  %fHashModulus = getelementptr inbounds %"class.xercesc_2_7::RefHashTableOf.1", %"class.xercesc_2_7::RefHashTableOf.1"* %6, i32 0, i32 3, !dbg !2664
  %7 = load i32, i32* %fHashModulus, align 8, !dbg !2664
  %cmp = icmp eq i32 %5, %7, !dbg !2665
  br i1 %cmp, label %if.then8, label %if.end9, !dbg !2666

if.then8:                                         ; preds = %if.then6
  br label %if.end27, !dbg !2667

if.end9:                                          ; preds = %if.then6
  br label %while.cond, !dbg !2668

while.cond:                                       ; preds = %if.end20, %if.end9
  %fToEnum10 = getelementptr inbounds %"class.xercesc_2_7::RefHashTableOfEnumerator", %"class.xercesc_2_7::RefHashTableOfEnumerator"* %this1, i32 0, i32 4, !dbg !2669
  %8 = load %"class.xercesc_2_7::RefHashTableOf.1"*, %"class.xercesc_2_7::RefHashTableOf.1"** %fToEnum10, align 8, !dbg !2669
  %fBucketList = getelementptr inbounds %"class.xercesc_2_7::RefHashTableOf.1", %"class.xercesc_2_7::RefHashTableOf.1"* %8, i32 0, i32 2, !dbg !2670
  %9 = load %"struct.xercesc_2_7::RefHashTableBucketElem.0"**, %"struct.xercesc_2_7::RefHashTableBucketElem.0"*** %fBucketList, align 8, !dbg !2670
  %fCurHash11 = getelementptr inbounds %"class.xercesc_2_7::RefHashTableOfEnumerator", %"class.xercesc_2_7::RefHashTableOfEnumerator"* %this1, i32 0, i32 3, !dbg !2671
  %10 = load i32, i32* %fCurHash11, align 8, !dbg !2671
  %idxprom = zext i32 %10 to i64, !dbg !2669
  %arrayidx = getelementptr inbounds %"struct.xercesc_2_7::RefHashTableBucketElem.0"*, %"struct.xercesc_2_7::RefHashTableBucketElem.0"** %9, i64 %idxprom, !dbg !2669
  %11 = load %"struct.xercesc_2_7::RefHashTableBucketElem.0"*, %"struct.xercesc_2_7::RefHashTableBucketElem.0"** %arrayidx, align 8, !dbg !2669
  %cmp12 = icmp eq %"struct.xercesc_2_7::RefHashTableBucketElem.0"* %11, null, !dbg !2672
  br i1 %cmp12, label %while.body, label %while.end, !dbg !2668

while.body:                                       ; preds = %while.cond
  %fCurHash13 = getelementptr inbounds %"class.xercesc_2_7::RefHashTableOfEnumerator", %"class.xercesc_2_7::RefHashTableOfEnumerator"* %this1, i32 0, i32 3, !dbg !2673
  %12 = load i32, i32* %fCurHash13, align 8, !dbg !2675
  %inc14 = add i32 %12, 1, !dbg !2675
  store i32 %inc14, i32* %fCurHash13, align 8, !dbg !2675
  %fCurHash15 = getelementptr inbounds %"class.xercesc_2_7::RefHashTableOfEnumerator", %"class.xercesc_2_7::RefHashTableOfEnumerator"* %this1, i32 0, i32 3, !dbg !2676
  %13 = load i32, i32* %fCurHash15, align 8, !dbg !2676
  %fToEnum16 = getelementptr inbounds %"class.xercesc_2_7::RefHashTableOfEnumerator", %"class.xercesc_2_7::RefHashTableOfEnumerator"* %this1, i32 0, i32 4, !dbg !2678
  %14 = load %"class.xercesc_2_7::RefHashTableOf.1"*, %"class.xercesc_2_7::RefHashTableOf.1"** %fToEnum16, align 8, !dbg !2678
  %fHashModulus17 = getelementptr inbounds %"class.xercesc_2_7::RefHashTableOf.1", %"class.xercesc_2_7::RefHashTableOf.1"* %14, i32 0, i32 3, !dbg !2679
  %15 = load i32, i32* %fHashModulus17, align 8, !dbg !2679
  %cmp18 = icmp eq i32 %13, %15, !dbg !2680
  br i1 %cmp18, label %if.then19, label %if.end20, !dbg !2681

if.then19:                                        ; preds = %while.body
  br label %if.end27, !dbg !2682

if.end20:                                         ; preds = %while.body
  br label %while.cond, !dbg !2668, !llvm.loop !2683

while.end:                                        ; preds = %while.cond
  %fToEnum21 = getelementptr inbounds %"class.xercesc_2_7::RefHashTableOfEnumerator", %"class.xercesc_2_7::RefHashTableOfEnumerator"* %this1, i32 0, i32 4, !dbg !2685
  %16 = load %"class.xercesc_2_7::RefHashTableOf.1"*, %"class.xercesc_2_7::RefHashTableOf.1"** %fToEnum21, align 8, !dbg !2685
  %fBucketList22 = getelementptr inbounds %"class.xercesc_2_7::RefHashTableOf.1", %"class.xercesc_2_7::RefHashTableOf.1"* %16, i32 0, i32 2, !dbg !2686
  %17 = load %"struct.xercesc_2_7::RefHashTableBucketElem.0"**, %"struct.xercesc_2_7::RefHashTableBucketElem.0"*** %fBucketList22, align 8, !dbg !2686
  %fCurHash23 = getelementptr inbounds %"class.xercesc_2_7::RefHashTableOfEnumerator", %"class.xercesc_2_7::RefHashTableOfEnumerator"* %this1, i32 0, i32 3, !dbg !2687
  %18 = load i32, i32* %fCurHash23, align 8, !dbg !2687
  %idxprom24 = zext i32 %18 to i64, !dbg !2685
  %arrayidx25 = getelementptr inbounds %"struct.xercesc_2_7::RefHashTableBucketElem.0"*, %"struct.xercesc_2_7::RefHashTableBucketElem.0"** %17, i64 %idxprom24, !dbg !2685
  %19 = load %"struct.xercesc_2_7::RefHashTableBucketElem.0"*, %"struct.xercesc_2_7::RefHashTableBucketElem.0"** %arrayidx25, align 8, !dbg !2685
  %fCurElem26 = getelementptr inbounds %"class.xercesc_2_7::RefHashTableOfEnumerator", %"class.xercesc_2_7::RefHashTableOfEnumerator"* %this1, i32 0, i32 2, !dbg !2688
  store %"struct.xercesc_2_7::RefHashTableBucketElem.0"* %19, %"struct.xercesc_2_7::RefHashTableBucketElem.0"** %fCurElem26, align 8, !dbg !2689
  br label %if.end27, !dbg !2690

if.end27:                                         ; preds = %if.then8, %if.then19, %while.end, %if.end
  ret void, !dbg !2691
}

; Function Attrs: noinline nounwind uwtable
define linkonce_odr dso_local void @_ZN11xercesc_2_724RefHashTableOfEnumeratorINS_9DTDAttDefEED2Ev(%"class.xercesc_2_7::RefHashTableOfEnumerator"* %this) unnamed_addr #1 comdat align 2 !dbg !2692 {
entry:
  %this.addr = alloca %"class.xercesc_2_7::RefHashTableOfEnumerator"*, align 8
  store %"class.xercesc_2_7::RefHashTableOfEnumerator"* %this, %"class.xercesc_2_7::RefHashTableOfEnumerator"** %this.addr, align 8
  call void @llvm.dbg.declare(metadata %"class.xercesc_2_7::RefHashTableOfEnumerator"** %this.addr, metadata !2693, metadata !DIExpression()), !dbg !2694
  %this1 = load %"class.xercesc_2_7::RefHashTableOfEnumerator"*, %"class.xercesc_2_7::RefHashTableOfEnumerator"** %this.addr, align 8
  %0 = bitcast %"class.xercesc_2_7::RefHashTableOfEnumerator"* %this1 to i32 (...)***, !dbg !2695
  store i32 (...)** bitcast (i8** getelementptr inbounds ({ [7 x i8*] }, { [7 x i8*] }* @_ZTVN11xercesc_2_724RefHashTableOfEnumeratorINS_9DTDAttDefEEE, i32 0, inrange i32 0, i32 2) to i32 (...)**), i32 (...)*** %0, align 8, !dbg !2695
  %fAdopted = getelementptr inbounds %"class.xercesc_2_7::RefHashTableOfEnumerator", %"class.xercesc_2_7::RefHashTableOfEnumerator"* %this1, i32 0, i32 1, !dbg !2696
  %1 = load i8, i8* %fAdopted, align 8, !dbg !2696
  %tobool = trunc i8 %1 to i1, !dbg !2696
  br i1 %tobool, label %if.then, label %if.end, !dbg !2699

if.then:                                          ; preds = %entry
  %fToEnum = getelementptr inbounds %"class.xercesc_2_7::RefHashTableOfEnumerator", %"class.xercesc_2_7::RefHashTableOfEnumerator"* %this1, i32 0, i32 4, !dbg !2700
  %2 = load %"class.xercesc_2_7::RefHashTableOf.1"*, %"class.xercesc_2_7::RefHashTableOf.1"** %fToEnum, align 8, !dbg !2700
  %isnull = icmp eq %"class.xercesc_2_7::RefHashTableOf.1"* %2, null, !dbg !2701
  br i1 %isnull, label %delete.end, label %delete.notnull, !dbg !2701

delete.notnull:                                   ; preds = %if.then
  call void @_ZN11xercesc_2_714RefHashTableOfINS_9DTDAttDefEED2Ev(%"class.xercesc_2_7::RefHashTableOf.1"* %2) #8, !dbg !2701
  %3 = bitcast %"class.xercesc_2_7::RefHashTableOf.1"* %2 to i8*, !dbg !2701
  call void @_ZN11xercesc_2_77XMemorydlEPv(i8* %3) #8, !dbg !2701
  br label %delete.end, !dbg !2701

delete.end:                                       ; preds = %delete.notnull, %if.then
  br label %if.end, !dbg !2701

if.end:                                           ; preds = %delete.end, %entry
  %4 = bitcast %"class.xercesc_2_7::RefHashTableOfEnumerator"* %this1 to %"class.xercesc_2_7::XMLEnumerator"*, !dbg !2702
  call void @_ZN11xercesc_2_713XMLEnumeratorINS_9DTDAttDefEED2Ev(%"class.xercesc_2_7::XMLEnumerator"* %4) #8, !dbg !2702
  ret void, !dbg !2703
}

; Function Attrs: noinline nounwind uwtable
define linkonce_odr dso_local void @_ZN11xercesc_2_724RefHashTableOfEnumeratorINS_9DTDAttDefEED0Ev(%"class.xercesc_2_7::RefHashTableOfEnumerator"* %this) unnamed_addr #1 comdat align 2 !dbg !2704 {
entry:
  %this.addr = alloca %"class.xercesc_2_7::RefHashTableOfEnumerator"*, align 8
  store %"class.xercesc_2_7::RefHashTableOfEnumerator"* %this, %"class.xercesc_2_7::RefHashTableOfEnumerator"** %this.addr, align 8
  call void @llvm.dbg.declare(metadata %"class.xercesc_2_7::RefHashTableOfEnumerator"** %this.addr, metadata !2705, metadata !DIExpression()), !dbg !2706
  %this1 = load %"class.xercesc_2_7::RefHashTableOfEnumerator"*, %"class.xercesc_2_7::RefHashTableOfEnumerator"** %this.addr, align 8
  call void @_ZN11xercesc_2_724RefHashTableOfEnumeratorINS_9DTDAttDefEED2Ev(%"class.xercesc_2_7::RefHashTableOfEnumerator"* %this1) #8, !dbg !2707
  %0 = bitcast %"class.xercesc_2_7::RefHashTableOfEnumerator"* %this1 to i8*, !dbg !2707
  call void @_ZN11xercesc_2_77XMemorydlEPv(i8* %0) #8, !dbg !2707
  ret void, !dbg !2708
}

; Function Attrs: noinline nounwind uwtable
define linkonce_odr dso_local zeroext i1 @_ZNK11xercesc_2_724RefHashTableOfEnumeratorINS_9DTDAttDefEE15hasMoreElementsEv(%"class.xercesc_2_7::RefHashTableOfEnumerator"* %this) unnamed_addr #1 comdat align 2 !dbg !2709 {
entry:
  %retval = alloca i1, align 1
  %this.addr = alloca %"class.xercesc_2_7::RefHashTableOfEnumerator"*, align 8
  store %"class.xercesc_2_7::RefHashTableOfEnumerator"* %this, %"class.xercesc_2_7::RefHashTableOfEnumerator"** %this.addr, align 8
  call void @llvm.dbg.declare(metadata %"class.xercesc_2_7::RefHashTableOfEnumerator"** %this.addr, metadata !2710, metadata !DIExpression()), !dbg !2712
  %this1 = load %"class.xercesc_2_7::RefHashTableOfEnumerator"*, %"class.xercesc_2_7::RefHashTableOfEnumerator"** %this.addr, align 8
  %fCurElem = getelementptr inbounds %"class.xercesc_2_7::RefHashTableOfEnumerator", %"class.xercesc_2_7::RefHashTableOfEnumerator"* %this1, i32 0, i32 2, !dbg !2713
  %0 = load %"struct.xercesc_2_7::RefHashTableBucketElem.0"*, %"struct.xercesc_2_7::RefHashTableBucketElem.0"** %fCurElem, align 8, !dbg !2713
  %tobool = icmp ne %"struct.xercesc_2_7::RefHashTableBucketElem.0"* %0, null, !dbg !2713
  br i1 %tobool, label %if.end, label %land.lhs.true, !dbg !2715

land.lhs.true:                                    ; preds = %entry
  %fCurHash = getelementptr inbounds %"class.xercesc_2_7::RefHashTableOfEnumerator", %"class.xercesc_2_7::RefHashTableOfEnumerator"* %this1, i32 0, i32 3, !dbg !2716
  %1 = load i32, i32* %fCurHash, align 8, !dbg !2716
  %fToEnum = getelementptr inbounds %"class.xercesc_2_7::RefHashTableOfEnumerator", %"class.xercesc_2_7::RefHashTableOfEnumerator"* %this1, i32 0, i32 4, !dbg !2717
  %2 = load %"class.xercesc_2_7::RefHashTableOf.1"*, %"class.xercesc_2_7::RefHashTableOf.1"** %fToEnum, align 8, !dbg !2717
  %fHashModulus = getelementptr inbounds %"class.xercesc_2_7::RefHashTableOf.1", %"class.xercesc_2_7::RefHashTableOf.1"* %2, i32 0, i32 3, !dbg !2718
  %3 = load i32, i32* %fHashModulus, align 8, !dbg !2718
  %cmp = icmp eq i32 %1, %3, !dbg !2719
  br i1 %cmp, label %if.then, label %if.end, !dbg !2720

if.then:                                          ; preds = %land.lhs.true
  store i1 false, i1* %retval, align 1, !dbg !2721
  br label %return, !dbg !2721

if.end:                                           ; preds = %land.lhs.true, %entry
  store i1 true, i1* %retval, align 1, !dbg !2722
  br label %return, !dbg !2722

return:                                           ; preds = %if.end, %if.then
  %4 = load i1, i1* %retval, align 1, !dbg !2723
  ret i1 %4, !dbg !2723
}

; Function Attrs: noinline uwtable
define linkonce_odr dso_local dereferenceable(72) %"class.xercesc_2_7::DTDAttDef"* @_ZN11xercesc_2_724RefHashTableOfEnumeratorINS_9DTDAttDefEE11nextElementEv(%"class.xercesc_2_7::RefHashTableOfEnumerator"* %this) unnamed_addr #6 comdat align 2 personality i8* bitcast (i32 (...)* @__gxx_personality_v0 to i8*) !dbg !2724 {
entry:
  %this.addr = alloca %"class.xercesc_2_7::RefHashTableOfEnumerator"*, align 8
  %exn.slot = alloca i8*
  %ehselector.slot = alloca i32
  %saveElem = alloca %"struct.xercesc_2_7::RefHashTableBucketElem.0"*, align 8
  store %"class.xercesc_2_7::RefHashTableOfEnumerator"* %this, %"class.xercesc_2_7::RefHashTableOfEnumerator"** %this.addr, align 8
  call void @llvm.dbg.declare(metadata %"class.xercesc_2_7::RefHashTableOfEnumerator"** %this.addr, metadata !2725, metadata !DIExpression()), !dbg !2726
  %this1 = load %"class.xercesc_2_7::RefHashTableOfEnumerator"*, %"class.xercesc_2_7::RefHashTableOfEnumerator"** %this.addr, align 8
  %0 = bitcast %"class.xercesc_2_7::RefHashTableOfEnumerator"* %this1 to i1 (%"class.xercesc_2_7::RefHashTableOfEnumerator"*)***, !dbg !2727
  %vtable = load i1 (%"class.xercesc_2_7::RefHashTableOfEnumerator"*)**, i1 (%"class.xercesc_2_7::RefHashTableOfEnumerator"*)*** %0, align 8, !dbg !2727
  %vfn = getelementptr inbounds i1 (%"class.xercesc_2_7::RefHashTableOfEnumerator"*)*, i1 (%"class.xercesc_2_7::RefHashTableOfEnumerator"*)** %vtable, i64 2, !dbg !2727
  %1 = load i1 (%"class.xercesc_2_7::RefHashTableOfEnumerator"*)*, i1 (%"class.xercesc_2_7::RefHashTableOfEnumerator"*)** %vfn, align 8, !dbg !2727
  %call = call zeroext i1 %1(%"class.xercesc_2_7::RefHashTableOfEnumerator"* %this1), !dbg !2727
  br i1 %call, label %if.end, label %if.then, !dbg !2729

if.then:                                          ; preds = %entry
  %exception = call i8* @__cxa_allocate_exception(i64 48) #8, !dbg !2730
  %2 = bitcast i8* %exception to %"class.xercesc_2_7::NoSuchElementException"*, !dbg !2730
  %fMemoryManager = getelementptr inbounds %"class.xercesc_2_7::RefHashTableOfEnumerator", %"class.xercesc_2_7::RefHashTableOfEnumerator"* %this1, i32 0, i32 5, !dbg !2730
  %3 = load %"class.xercesc_2_7::MemoryManager"*, %"class.xercesc_2_7::MemoryManager"** %fMemoryManager, align 8, !dbg !2730
  invoke void @_ZN11xercesc_2_722NoSuchElementExceptionC2EPKcjNS_10XMLExcepts5CodesEPNS_13MemoryManagerE(%"class.xercesc_2_7::NoSuchElementException"* %2, i8* getelementptr inbounds ([32 x i8], [32 x i8]* @.str.2, i64 0, i64 0), i32 575, i32 30, %"class.xercesc_2_7::MemoryManager"* %3)
          to label %invoke.cont unwind label %lpad, !dbg !2730

invoke.cont:                                      ; preds = %if.then
  call void @__cxa_throw(i8* %exception, i8* bitcast ({ i8*, i8*, i8* }* @_ZTIN11xercesc_2_722NoSuchElementExceptionE to i8*), i8* bitcast (void (%"class.xercesc_2_7::NoSuchElementException"*)* @_ZN11xercesc_2_722NoSuchElementExceptionD2Ev to i8*)) #11, !dbg !2730
  unreachable, !dbg !2730

lpad:                                             ; preds = %if.then
  %4 = landingpad { i8*, i32 }
          cleanup, !dbg !2731
  %5 = extractvalue { i8*, i32 } %4, 0, !dbg !2731
  store i8* %5, i8** %exn.slot, align 8, !dbg !2731
  %6 = extractvalue { i8*, i32 } %4, 1, !dbg !2731
  store i32 %6, i32* %ehselector.slot, align 4, !dbg !2731
  call void @__cxa_free_exception(i8* %exception) #8, !dbg !2730
  br label %eh.resume, !dbg !2730

if.end:                                           ; preds = %entry
  call void @llvm.dbg.declare(metadata %"struct.xercesc_2_7::RefHashTableBucketElem.0"** %saveElem, metadata !2732, metadata !DIExpression()), !dbg !2733
  %fCurElem = getelementptr inbounds %"class.xercesc_2_7::RefHashTableOfEnumerator", %"class.xercesc_2_7::RefHashTableOfEnumerator"* %this1, i32 0, i32 2, !dbg !2734
  %7 = load %"struct.xercesc_2_7::RefHashTableBucketElem.0"*, %"struct.xercesc_2_7::RefHashTableBucketElem.0"** %fCurElem, align 8, !dbg !2734
  store %"struct.xercesc_2_7::RefHashTableBucketElem.0"* %7, %"struct.xercesc_2_7::RefHashTableBucketElem.0"** %saveElem, align 8, !dbg !2733
  call void @_ZN11xercesc_2_724RefHashTableOfEnumeratorINS_9DTDAttDefEE8findNextEv(%"class.xercesc_2_7::RefHashTableOfEnumerator"* %this1), !dbg !2735
  %8 = load %"struct.xercesc_2_7::RefHashTableBucketElem.0"*, %"struct.xercesc_2_7::RefHashTableBucketElem.0"** %saveElem, align 8, !dbg !2736
  %fData = getelementptr inbounds %"struct.xercesc_2_7::RefHashTableBucketElem.0", %"struct.xercesc_2_7::RefHashTableBucketElem.0"* %8, i32 0, i32 0, !dbg !2737
  %9 = load %"class.xercesc_2_7::DTDAttDef"*, %"class.xercesc_2_7::DTDAttDef"** %fData, align 8, !dbg !2737
  ret %"class.xercesc_2_7::DTDAttDef"* %9, !dbg !2738

eh.resume:                                        ; preds = %lpad
  %exn = load i8*, i8** %exn.slot, align 8, !dbg !2730
  %sel = load i32, i32* %ehselector.slot, align 4, !dbg !2730
  %lpad.val = insertvalue { i8*, i32 } undef, i8* %exn, 0, !dbg !2730
  %lpad.val2 = insertvalue { i8*, i32 } %lpad.val, i32 %sel, 1, !dbg !2730
  resume { i8*, i32 } %lpad.val2, !dbg !2730
}

; Function Attrs: noinline nounwind uwtable
define linkonce_odr dso_local void @_ZN11xercesc_2_724RefHashTableOfEnumeratorINS_9DTDAttDefEE5ResetEv(%"class.xercesc_2_7::RefHashTableOfEnumerator"* %this) unnamed_addr #1 comdat align 2 !dbg !2739 {
entry:
  %this.addr = alloca %"class.xercesc_2_7::RefHashTableOfEnumerator"*, align 8
  store %"class.xercesc_2_7::RefHashTableOfEnumerator"* %this, %"class.xercesc_2_7::RefHashTableOfEnumerator"** %this.addr, align 8
  call void @llvm.dbg.declare(metadata %"class.xercesc_2_7::RefHashTableOfEnumerator"** %this.addr, metadata !2740, metadata !DIExpression()), !dbg !2741
  %this1 = load %"class.xercesc_2_7::RefHashTableOfEnumerator"*, %"class.xercesc_2_7::RefHashTableOfEnumerator"** %this.addr, align 8
  %fCurHash = getelementptr inbounds %"class.xercesc_2_7::RefHashTableOfEnumerator", %"class.xercesc_2_7::RefHashTableOfEnumerator"* %this1, i32 0, i32 3, !dbg !2742
  store i32 -1, i32* %fCurHash, align 8, !dbg !2743
  %fCurElem = getelementptr inbounds %"class.xercesc_2_7::RefHashTableOfEnumerator", %"class.xercesc_2_7::RefHashTableOfEnumerator"* %this1, i32 0, i32 2, !dbg !2744
  store %"struct.xercesc_2_7::RefHashTableBucketElem.0"* null, %"struct.xercesc_2_7::RefHashTableBucketElem.0"** %fCurElem, align 8, !dbg !2745
  call void @_ZN11xercesc_2_724RefHashTableOfEnumeratorINS_9DTDAttDefEE8findNextEv(%"class.xercesc_2_7::RefHashTableOfEnumerator"* %this1), !dbg !2746
  ret void, !dbg !2747
}

; Function Attrs: noinline nounwind uwtable
define linkonce_odr dso_local void @_ZN11xercesc_2_713XMLEnumeratorINS_9DTDAttDefEED2Ev(%"class.xercesc_2_7::XMLEnumerator"* %this) unnamed_addr #1 comdat align 2 !dbg !2748 {
entry:
  %this.addr = alloca %"class.xercesc_2_7::XMLEnumerator"*, align 8
  store %"class.xercesc_2_7::XMLEnumerator"* %this, %"class.xercesc_2_7::XMLEnumerator"** %this.addr, align 8
  call void @llvm.dbg.declare(metadata %"class.xercesc_2_7::XMLEnumerator"** %this.addr, metadata !2749, metadata !DIExpression()), !dbg !2750
  %this1 = load %"class.xercesc_2_7::XMLEnumerator"*, %"class.xercesc_2_7::XMLEnumerator"** %this.addr, align 8
  ret void, !dbg !2751
}

; Function Attrs: noinline nounwind uwtable
define linkonce_odr dso_local void @_ZN11xercesc_2_713XMLEnumeratorINS_9DTDAttDefEED0Ev(%"class.xercesc_2_7::XMLEnumerator"* %this) unnamed_addr #1 comdat align 2 !dbg !2752 {
entry:
  %this.addr = alloca %"class.xercesc_2_7::XMLEnumerator"*, align 8
  store %"class.xercesc_2_7::XMLEnumerator"* %this, %"class.xercesc_2_7::XMLEnumerator"** %this.addr, align 8
  call void @llvm.dbg.declare(metadata %"class.xercesc_2_7::XMLEnumerator"** %this.addr, metadata !2753, metadata !DIExpression()), !dbg !2754
  %this1 = load %"class.xercesc_2_7::XMLEnumerator"*, %"class.xercesc_2_7::XMLEnumerator"** %this.addr, align 8
  call void @llvm.trap() #10, !dbg !2755
  unreachable, !dbg !2755
}

; Function Attrs: noinline nounwind uwtable
define linkonce_odr dso_local void @_ZN11xercesc_2_720NullPointerExceptionD0Ev(%"class.xercesc_2_7::NullPointerException"* %this) unnamed_addr #1 comdat align 2 !dbg !2756 {
entry:
  %this.addr = alloca %"class.xercesc_2_7::NullPointerException"*, align 8
  store %"class.xercesc_2_7::NullPointerException"* %this, %"class.xercesc_2_7::NullPointerException"** %this.addr, align 8
  call void @llvm.dbg.declare(metadata %"class.xercesc_2_7::NullPointerException"** %this.addr, metadata !2757, metadata !DIExpression()), !dbg !2758
  %this1 = load %"class.xercesc_2_7::NullPointerException"*, %"class.xercesc_2_7::NullPointerException"** %this.addr, align 8
  call void @_ZN11xercesc_2_720NullPointerExceptionD2Ev(%"class.xercesc_2_7::NullPointerException"* %this1) #8, !dbg !2759
  %0 = bitcast %"class.xercesc_2_7::NullPointerException"* %this1 to i8*, !dbg !2759
  call void @_ZN11xercesc_2_77XMemorydlEPv(i8* %0) #8, !dbg !2759
  ret void, !dbg !2759
}

; Function Attrs: noinline nounwind uwtable
define linkonce_odr dso_local i16* @_ZNK11xercesc_2_720NullPointerException7getTypeEv(%"class.xercesc_2_7::NullPointerException"* %this) unnamed_addr #1 comdat align 2 !dbg !2760 {
entry:
  %this.addr = alloca %"class.xercesc_2_7::NullPointerException"*, align 8
  store %"class.xercesc_2_7::NullPointerException"* %this, %"class.xercesc_2_7::NullPointerException"** %this.addr, align 8
  call void @llvm.dbg.declare(metadata %"class.xercesc_2_7::NullPointerException"** %this.addr, metadata !2761, metadata !DIExpression()), !dbg !2763
  %this1 = load %"class.xercesc_2_7::NullPointerException"*, %"class.xercesc_2_7::NullPointerException"** %this.addr, align 8
  ret i16* getelementptr inbounds ([0 x i16], [0 x i16]* @_ZN11xercesc_2_76XMLUni27fgNullPointerException_NameE, i64 0, i64 0), !dbg !2764
}

; Function Attrs: noinline uwtable
define linkonce_odr dso_local %"class.xercesc_2_7::XMLException"* @_ZNK11xercesc_2_720NullPointerException9duplicateEv(%"class.xercesc_2_7::NullPointerException"* %this) unnamed_addr #6 comdat align 2 personality i8* bitcast (i32 (...)* @__gxx_personality_v0 to i8*) !dbg !2765 {
entry:
  %this.addr = alloca %"class.xercesc_2_7::NullPointerException"*, align 8
  %exn.slot = alloca i8*
  %ehselector.slot = alloca i32
  store %"class.xercesc_2_7::NullPointerException"* %this, %"class.xercesc_2_7::NullPointerException"** %this.addr, align 8
  call void @llvm.dbg.declare(metadata %"class.xercesc_2_7::NullPointerException"** %this.addr, metadata !2766, metadata !DIExpression()), !dbg !2767
  %this1 = load %"class.xercesc_2_7::NullPointerException"*, %"class.xercesc_2_7::NullPointerException"** %this.addr, align 8
  %0 = bitcast %"class.xercesc_2_7::NullPointerException"* %this1 to %"class.xercesc_2_7::XMLException"*, !dbg !2768
  %fMemoryManager = getelementptr inbounds %"class.xercesc_2_7::XMLException", %"class.xercesc_2_7::XMLException"* %0, i32 0, i32 5, !dbg !2768
  %1 = load %"class.xercesc_2_7::MemoryManager"*, %"class.xercesc_2_7::MemoryManager"** %fMemoryManager, align 8, !dbg !2768
  %call = call i8* @_ZN11xercesc_2_77XMemorynwEmPNS_13MemoryManagerE(i64 48, %"class.xercesc_2_7::MemoryManager"* %1), !dbg !2768
  %2 = bitcast i8* %call to %"class.xercesc_2_7::NullPointerException"*, !dbg !2768
  invoke void @_ZN11xercesc_2_720NullPointerExceptionC2ERKS0_(%"class.xercesc_2_7::NullPointerException"* %2, %"class.xercesc_2_7::NullPointerException"* dereferenceable(48) %this1)
          to label %invoke.cont unwind label %lpad, !dbg !2768

invoke.cont:                                      ; preds = %entry
  %3 = bitcast %"class.xercesc_2_7::NullPointerException"* %2 to %"class.xercesc_2_7::XMLException"*, !dbg !2768
  ret %"class.xercesc_2_7::XMLException"* %3, !dbg !2768

lpad:                                             ; preds = %entry
  %4 = landingpad { i8*, i32 }
          cleanup, !dbg !2768
  %5 = extractvalue { i8*, i32 } %4, 0, !dbg !2768
  store i8* %5, i8** %exn.slot, align 8, !dbg !2768
  %6 = extractvalue { i8*, i32 } %4, 1, !dbg !2768
  store i32 %6, i32* %ehselector.slot, align 4, !dbg !2768
  call void @_ZN11xercesc_2_77XMemorydlEPvPNS_13MemoryManagerE(i8* %call, %"class.xercesc_2_7::MemoryManager"* %1) #8, !dbg !2768
  br label %eh.resume, !dbg !2768

eh.resume:                                        ; preds = %lpad
  %exn = load i8*, i8** %exn.slot, align 8, !dbg !2768
  %sel = load i32, i32* %ehselector.slot, align 4, !dbg !2768
  %lpad.val = insertvalue { i8*, i32 } undef, i8* %exn, 0, !dbg !2768
  %lpad.val2 = insertvalue { i8*, i32 } %lpad.val, i32 %sel, 1, !dbg !2768
  resume { i8*, i32 } %lpad.val2, !dbg !2768
}

; Function Attrs: noinline uwtable
define linkonce_odr dso_local void @_ZN11xercesc_2_720NullPointerExceptionC2ERKS0_(%"class.xercesc_2_7::NullPointerException"* %this, %"class.xercesc_2_7::NullPointerException"* dereferenceable(48) %toCopy) unnamed_addr #6 comdat align 2 !dbg !2769 {
entry:
  %this.addr = alloca %"class.xercesc_2_7::NullPointerException"*, align 8
  %toCopy.addr = alloca %"class.xercesc_2_7::NullPointerException"*, align 8
  store %"class.xercesc_2_7::NullPointerException"* %this, %"class.xercesc_2_7::NullPointerException"** %this.addr, align 8
  call void @llvm.dbg.declare(metadata %"class.xercesc_2_7::NullPointerException"** %this.addr, metadata !2770, metadata !DIExpression()), !dbg !2771
  store %"class.xercesc_2_7::NullPointerException"* %toCopy, %"class.xercesc_2_7::NullPointerException"** %toCopy.addr, align 8
  call void @llvm.dbg.declare(metadata %"class.xercesc_2_7::NullPointerException"** %toCopy.addr, metadata !2772, metadata !DIExpression()), !dbg !2773
  %this1 = load %"class.xercesc_2_7::NullPointerException"*, %"class.xercesc_2_7::NullPointerException"** %this.addr, align 8
  %0 = bitcast %"class.xercesc_2_7::NullPointerException"* %this1 to %"class.xercesc_2_7::XMLException"*, !dbg !2773
  %1 = load %"class.xercesc_2_7::NullPointerException"*, %"class.xercesc_2_7::NullPointerException"** %toCopy.addr, align 8, !dbg !2773
  %2 = bitcast %"class.xercesc_2_7::NullPointerException"* %1 to %"class.xercesc_2_7::XMLException"*, !dbg !2773
  call void @_ZN11xercesc_2_712XMLExceptionC2ERKS0_(%"class.xercesc_2_7::XMLException"* %0, %"class.xercesc_2_7::XMLException"* dereferenceable(48) %2), !dbg !2773
  %3 = bitcast %"class.xercesc_2_7::NullPointerException"* %this1 to i32 (...)***, !dbg !2773
  store i32 (...)** bitcast (i8** getelementptr inbounds ({ [6 x i8*] }, { [6 x i8*] }* @_ZTVN11xercesc_2_720NullPointerExceptionE, i32 0, inrange i32 0, i32 2) to i32 (...)**), i32 (...)*** %3, align 8, !dbg !2773
  ret void, !dbg !2773
}

; Function Attrs: noinline nounwind uwtable
define linkonce_odr dso_local void @_ZN11xercesc_2_714RefHashTableOfINS_9DTDAttDefEED2Ev(%"class.xercesc_2_7::RefHashTableOf.1"* %this) unnamed_addr #1 comdat align 2 personality i8* bitcast (i32 (...)* @__gxx_personality_v0 to i8*) !dbg !2774 {
entry:
  %this.addr = alloca %"class.xercesc_2_7::RefHashTableOf.1"*, align 8
  store %"class.xercesc_2_7::RefHashTableOf.1"* %this, %"class.xercesc_2_7::RefHashTableOf.1"** %this.addr, align 8
  call void @llvm.dbg.declare(metadata %"class.xercesc_2_7::RefHashTableOf.1"** %this.addr, metadata !2775, metadata !DIExpression()), !dbg !2776
  %this1 = load %"class.xercesc_2_7::RefHashTableOf.1"*, %"class.xercesc_2_7::RefHashTableOf.1"** %this.addr, align 8
  invoke void @_ZN11xercesc_2_714RefHashTableOfINS_9DTDAttDefEE7cleanupEv(%"class.xercesc_2_7::RefHashTableOf.1"* %this1)
          to label %invoke.cont unwind label %terminate.lpad, !dbg !2777

invoke.cont:                                      ; preds = %entry
  ret void, !dbg !2779

terminate.lpad:                                   ; preds = %entry
  %0 = landingpad { i8*, i32 }
          catch i8* null, !dbg !2777
  %1 = extractvalue { i8*, i32 } %0, 0, !dbg !2777
  call void @__clang_call_terminate(i8* %1) #10, !dbg !2777
  unreachable, !dbg !2777
}

; Function Attrs: noinline uwtable
define linkonce_odr dso_local void @_ZN11xercesc_2_714RefHashTableOfINS_9DTDAttDefEE7cleanupEv(%"class.xercesc_2_7::RefHashTableOf.1"* %this) #6 comdat align 2 !dbg !2780 {
entry:
  %this.addr = alloca %"class.xercesc_2_7::RefHashTableOf.1"*, align 8
  store %"class.xercesc_2_7::RefHashTableOf.1"* %this, %"class.xercesc_2_7::RefHashTableOf.1"** %this.addr, align 8
  call void @llvm.dbg.declare(metadata %"class.xercesc_2_7::RefHashTableOf.1"** %this.addr, metadata !2781, metadata !DIExpression()), !dbg !2782
  %this1 = load %"class.xercesc_2_7::RefHashTableOf.1"*, %"class.xercesc_2_7::RefHashTableOf.1"** %this.addr, align 8
  call void @_ZN11xercesc_2_714RefHashTableOfINS_9DTDAttDefEE9removeAllEv(%"class.xercesc_2_7::RefHashTableOf.1"* %this1), !dbg !2783
  %fMemoryManager = getelementptr inbounds %"class.xercesc_2_7::RefHashTableOf.1", %"class.xercesc_2_7::RefHashTableOf.1"* %this1, i32 0, i32 0, !dbg !2784
  %0 = load %"class.xercesc_2_7::MemoryManager"*, %"class.xercesc_2_7::MemoryManager"** %fMemoryManager, align 8, !dbg !2784
  %fBucketList = getelementptr inbounds %"class.xercesc_2_7::RefHashTableOf.1", %"class.xercesc_2_7::RefHashTableOf.1"* %this1, i32 0, i32 2, !dbg !2785
  %1 = load %"struct.xercesc_2_7::RefHashTableBucketElem.0"**, %"struct.xercesc_2_7::RefHashTableBucketElem.0"*** %fBucketList, align 8, !dbg !2785
  %2 = bitcast %"struct.xercesc_2_7::RefHashTableBucketElem.0"** %1 to i8*, !dbg !2785
  %3 = bitcast %"class.xercesc_2_7::MemoryManager"* %0 to void (%"class.xercesc_2_7::MemoryManager"*, i8*)***, !dbg !2786
  %vtable = load void (%"class.xercesc_2_7::MemoryManager"*, i8*)**, void (%"class.xercesc_2_7::MemoryManager"*, i8*)*** %3, align 8, !dbg !2786
  %vfn = getelementptr inbounds void (%"class.xercesc_2_7::MemoryManager"*, i8*)*, void (%"class.xercesc_2_7::MemoryManager"*, i8*)** %vtable, i64 3, !dbg !2786
  %4 = load void (%"class.xercesc_2_7::MemoryManager"*, i8*)*, void (%"class.xercesc_2_7::MemoryManager"*, i8*)** %vfn, align 8, !dbg !2786
  call void %4(%"class.xercesc_2_7::MemoryManager"* %0, i8* %2), !dbg !2786
  %fBucketList2 = getelementptr inbounds %"class.xercesc_2_7::RefHashTableOf.1", %"class.xercesc_2_7::RefHashTableOf.1"* %this1, i32 0, i32 2, !dbg !2787
  store %"struct.xercesc_2_7::RefHashTableBucketElem.0"** null, %"struct.xercesc_2_7::RefHashTableBucketElem.0"*** %fBucketList2, align 8, !dbg !2788
  %fHash = getelementptr inbounds %"class.xercesc_2_7::RefHashTableOf.1", %"class.xercesc_2_7::RefHashTableOf.1"* %this1, i32 0, i32 6, !dbg !2789
  %5 = load %"class.xercesc_2_7::HashBase"*, %"class.xercesc_2_7::HashBase"** %fHash, align 8, !dbg !2789
  %isnull = icmp eq %"class.xercesc_2_7::HashBase"* %5, null, !dbg !2790
  br i1 %isnull, label %delete.end, label %delete.notnull, !dbg !2790

delete.notnull:                                   ; preds = %entry
  %6 = bitcast %"class.xercesc_2_7::HashBase"* %5 to void (%"class.xercesc_2_7::HashBase"*)***, !dbg !2790
  %vtable3 = load void (%"class.xercesc_2_7::HashBase"*)**, void (%"class.xercesc_2_7::HashBase"*)*** %6, align 8, !dbg !2790
  %vfn4 = getelementptr inbounds void (%"class.xercesc_2_7::HashBase"*)*, void (%"class.xercesc_2_7::HashBase"*)** %vtable3, i64 3, !dbg !2790
  %7 = load void (%"class.xercesc_2_7::HashBase"*)*, void (%"class.xercesc_2_7::HashBase"*)** %vfn4, align 8, !dbg !2790
  call void %7(%"class.xercesc_2_7::HashBase"* %5) #8, !dbg !2790
  br label %delete.end, !dbg !2790

delete.end:                                       ; preds = %delete.notnull, %entry
  ret void, !dbg !2791
}

; Function Attrs: noinline uwtable
define linkonce_odr dso_local void @_ZN11xercesc_2_714RefHashTableOfINS_9DTDAttDefEE9removeAllEv(%"class.xercesc_2_7::RefHashTableOf.1"* %this) #6 comdat align 2 !dbg !2792 {
entry:
  %this.addr = alloca %"class.xercesc_2_7::RefHashTableOf.1"*, align 8
  %buckInd = alloca i32, align 4
  %curElem = alloca %"struct.xercesc_2_7::RefHashTableBucketElem.0"*, align 8
  %nextElem = alloca %"struct.xercesc_2_7::RefHashTableBucketElem.0"*, align 8
  store %"class.xercesc_2_7::RefHashTableOf.1"* %this, %"class.xercesc_2_7::RefHashTableOf.1"** %this.addr, align 8
  call void @llvm.dbg.declare(metadata %"class.xercesc_2_7::RefHashTableOf.1"** %this.addr, metadata !2793, metadata !DIExpression()), !dbg !2794
  %this1 = load %"class.xercesc_2_7::RefHashTableOf.1"*, %"class.xercesc_2_7::RefHashTableOf.1"** %this.addr, align 8
  %call = call zeroext i1 @_ZNK11xercesc_2_714RefHashTableOfINS_9DTDAttDefEE7isEmptyEv(%"class.xercesc_2_7::RefHashTableOf.1"* %this1), !dbg !2795
  br i1 %call, label %if.then, label %if.end, !dbg !2797

if.then:                                          ; preds = %entry
  br label %return, !dbg !2798

if.end:                                           ; preds = %entry
  call void @llvm.dbg.declare(metadata i32* %buckInd, metadata !2799, metadata !DIExpression()), !dbg !2801
  store i32 0, i32* %buckInd, align 4, !dbg !2801
  br label %for.cond, !dbg !2802

for.cond:                                         ; preds = %for.inc, %if.end
  %0 = load i32, i32* %buckInd, align 4, !dbg !2803
  %fHashModulus = getelementptr inbounds %"class.xercesc_2_7::RefHashTableOf.1", %"class.xercesc_2_7::RefHashTableOf.1"* %this1, i32 0, i32 3, !dbg !2805
  %1 = load i32, i32* %fHashModulus, align 8, !dbg !2805
  %cmp = icmp ult i32 %0, %1, !dbg !2806
  br i1 %cmp, label %for.body, label %for.end, !dbg !2807

for.body:                                         ; preds = %for.cond
  call void @llvm.dbg.declare(metadata %"struct.xercesc_2_7::RefHashTableBucketElem.0"** %curElem, metadata !2808, metadata !DIExpression()), !dbg !2810
  %fBucketList = getelementptr inbounds %"class.xercesc_2_7::RefHashTableOf.1", %"class.xercesc_2_7::RefHashTableOf.1"* %this1, i32 0, i32 2, !dbg !2811
  %2 = load %"struct.xercesc_2_7::RefHashTableBucketElem.0"**, %"struct.xercesc_2_7::RefHashTableBucketElem.0"*** %fBucketList, align 8, !dbg !2811
  %3 = load i32, i32* %buckInd, align 4, !dbg !2812
  %idxprom = zext i32 %3 to i64, !dbg !2811
  %arrayidx = getelementptr inbounds %"struct.xercesc_2_7::RefHashTableBucketElem.0"*, %"struct.xercesc_2_7::RefHashTableBucketElem.0"** %2, i64 %idxprom, !dbg !2811
  %4 = load %"struct.xercesc_2_7::RefHashTableBucketElem.0"*, %"struct.xercesc_2_7::RefHashTableBucketElem.0"** %arrayidx, align 8, !dbg !2811
  store %"struct.xercesc_2_7::RefHashTableBucketElem.0"* %4, %"struct.xercesc_2_7::RefHashTableBucketElem.0"** %curElem, align 8, !dbg !2810
  call void @llvm.dbg.declare(metadata %"struct.xercesc_2_7::RefHashTableBucketElem.0"** %nextElem, metadata !2813, metadata !DIExpression()), !dbg !2814
  br label %while.cond, !dbg !2815

while.cond:                                       ; preds = %if.end4, %for.body
  %5 = load %"struct.xercesc_2_7::RefHashTableBucketElem.0"*, %"struct.xercesc_2_7::RefHashTableBucketElem.0"** %curElem, align 8, !dbg !2816
  %tobool = icmp ne %"struct.xercesc_2_7::RefHashTableBucketElem.0"* %5, null, !dbg !2816
  br i1 %tobool, label %while.body, label %while.end, !dbg !2815

while.body:                                       ; preds = %while.cond
  %6 = load %"struct.xercesc_2_7::RefHashTableBucketElem.0"*, %"struct.xercesc_2_7::RefHashTableBucketElem.0"** %curElem, align 8, !dbg !2817
  %fNext = getelementptr inbounds %"struct.xercesc_2_7::RefHashTableBucketElem.0", %"struct.xercesc_2_7::RefHashTableBucketElem.0"* %6, i32 0, i32 1, !dbg !2819
  %7 = load %"struct.xercesc_2_7::RefHashTableBucketElem.0"*, %"struct.xercesc_2_7::RefHashTableBucketElem.0"** %fNext, align 8, !dbg !2819
  store %"struct.xercesc_2_7::RefHashTableBucketElem.0"* %7, %"struct.xercesc_2_7::RefHashTableBucketElem.0"** %nextElem, align 8, !dbg !2820
  %fAdoptedElems = getelementptr inbounds %"class.xercesc_2_7::RefHashTableOf.1", %"class.xercesc_2_7::RefHashTableOf.1"* %this1, i32 0, i32 1, !dbg !2821
  %8 = load i8, i8* %fAdoptedElems, align 8, !dbg !2821
  %tobool2 = trunc i8 %8 to i1, !dbg !2821
  br i1 %tobool2, label %if.then3, label %if.end4, !dbg !2823

if.then3:                                         ; preds = %while.body
  %9 = load %"struct.xercesc_2_7::RefHashTableBucketElem.0"*, %"struct.xercesc_2_7::RefHashTableBucketElem.0"** %curElem, align 8, !dbg !2824
  %fData = getelementptr inbounds %"struct.xercesc_2_7::RefHashTableBucketElem.0", %"struct.xercesc_2_7::RefHashTableBucketElem.0"* %9, i32 0, i32 0, !dbg !2825
  %10 = load %"class.xercesc_2_7::DTDAttDef"*, %"class.xercesc_2_7::DTDAttDef"** %fData, align 8, !dbg !2825
  %isnull = icmp eq %"class.xercesc_2_7::DTDAttDef"* %10, null, !dbg !2826
  br i1 %isnull, label %delete.end, label %delete.notnull, !dbg !2826

delete.notnull:                                   ; preds = %if.then3
  %11 = bitcast %"class.xercesc_2_7::DTDAttDef"* %10 to void (%"class.xercesc_2_7::DTDAttDef"*)***, !dbg !2826
  %vtable = load void (%"class.xercesc_2_7::DTDAttDef"*)**, void (%"class.xercesc_2_7::DTDAttDef"*)*** %11, align 8, !dbg !2826
  %vfn = getelementptr inbounds void (%"class.xercesc_2_7::DTDAttDef"*)*, void (%"class.xercesc_2_7::DTDAttDef"*)** %vtable, i64 1, !dbg !2826
  %12 = load void (%"class.xercesc_2_7::DTDAttDef"*)*, void (%"class.xercesc_2_7::DTDAttDef"*)** %vfn, align 8, !dbg !2826
  call void %12(%"class.xercesc_2_7::DTDAttDef"* %10) #8, !dbg !2826
  br label %delete.end, !dbg !2826

delete.end:                                       ; preds = %delete.notnull, %if.then3
  br label %if.end4, !dbg !2826

if.end4:                                          ; preds = %delete.end, %while.body
  %fMemoryManager = getelementptr inbounds %"class.xercesc_2_7::RefHashTableOf.1", %"class.xercesc_2_7::RefHashTableOf.1"* %this1, i32 0, i32 0, !dbg !2827
  %13 = load %"class.xercesc_2_7::MemoryManager"*, %"class.xercesc_2_7::MemoryManager"** %fMemoryManager, align 8, !dbg !2827
  %14 = load %"struct.xercesc_2_7::RefHashTableBucketElem.0"*, %"struct.xercesc_2_7::RefHashTableBucketElem.0"** %curElem, align 8, !dbg !2828
  %15 = bitcast %"struct.xercesc_2_7::RefHashTableBucketElem.0"* %14 to i8*, !dbg !2828
  %16 = bitcast %"class.xercesc_2_7::MemoryManager"* %13 to void (%"class.xercesc_2_7::MemoryManager"*, i8*)***, !dbg !2829
  %vtable5 = load void (%"class.xercesc_2_7::MemoryManager"*, i8*)**, void (%"class.xercesc_2_7::MemoryManager"*, i8*)*** %16, align 8, !dbg !2829
  %vfn6 = getelementptr inbounds void (%"class.xercesc_2_7::MemoryManager"*, i8*)*, void (%"class.xercesc_2_7::MemoryManager"*, i8*)** %vtable5, i64 3, !dbg !2829
  %17 = load void (%"class.xercesc_2_7::MemoryManager"*, i8*)*, void (%"class.xercesc_2_7::MemoryManager"*, i8*)** %vfn6, align 8, !dbg !2829
  call void %17(%"class.xercesc_2_7::MemoryManager"* %13, i8* %15), !dbg !2829
  %18 = load %"struct.xercesc_2_7::RefHashTableBucketElem.0"*, %"struct.xercesc_2_7::RefHashTableBucketElem.0"** %nextElem, align 8, !dbg !2830
  store %"struct.xercesc_2_7::RefHashTableBucketElem.0"* %18, %"struct.xercesc_2_7::RefHashTableBucketElem.0"** %curElem, align 8, !dbg !2831
  br label %while.cond, !dbg !2815, !llvm.loop !2832

while.end:                                        ; preds = %while.cond
  %fBucketList7 = getelementptr inbounds %"class.xercesc_2_7::RefHashTableOf.1", %"class.xercesc_2_7::RefHashTableOf.1"* %this1, i32 0, i32 2, !dbg !2834
  %19 = load %"struct.xercesc_2_7::RefHashTableBucketElem.0"**, %"struct.xercesc_2_7::RefHashTableBucketElem.0"*** %fBucketList7, align 8, !dbg !2834
  %20 = load i32, i32* %buckInd, align 4, !dbg !2835
  %idxprom8 = zext i32 %20 to i64, !dbg !2834
  %arrayidx9 = getelementptr inbounds %"struct.xercesc_2_7::RefHashTableBucketElem.0"*, %"struct.xercesc_2_7::RefHashTableBucketElem.0"** %19, i64 %idxprom8, !dbg !2834
  store %"struct.xercesc_2_7::RefHashTableBucketElem.0"* null, %"struct.xercesc_2_7::RefHashTableBucketElem.0"** %arrayidx9, align 8, !dbg !2836
  br label %for.inc, !dbg !2837

for.inc:                                          ; preds = %while.end
  %21 = load i32, i32* %buckInd, align 4, !dbg !2838
  %inc = add i32 %21, 1, !dbg !2838
  store i32 %inc, i32* %buckInd, align 4, !dbg !2838
  br label %for.cond, !dbg !2839, !llvm.loop !2840

for.end:                                          ; preds = %for.cond
  %fCount = getelementptr inbounds %"class.xercesc_2_7::RefHashTableOf.1", %"class.xercesc_2_7::RefHashTableOf.1"* %this1, i32 0, i32 5, !dbg !2842
  store i32 0, i32* %fCount, align 8, !dbg !2843
  br label %return, !dbg !2844

return:                                           ; preds = %for.end, %if.then
  ret void, !dbg !2844
}

; Function Attrs: noinline uwtable
define linkonce_odr dso_local void @_ZN11xercesc_2_722NoSuchElementExceptionC2EPKcjNS_10XMLExcepts5CodesEPNS_13MemoryManagerE(%"class.xercesc_2_7::NoSuchElementException"* %this, i8* %srcFile, i32 %srcLine, i32 %toThrow, %"class.xercesc_2_7::MemoryManager"* %memoryManager) unnamed_addr #6 comdat align 2 personality i8* bitcast (i32 (...)* @__gxx_personality_v0 to i8*) !dbg !2845 {
entry:
  %this.addr = alloca %"class.xercesc_2_7::NoSuchElementException"*, align 8
  %srcFile.addr = alloca i8*, align 8
  %srcLine.addr = alloca i32, align 4
  %toThrow.addr = alloca i32, align 4
  %memoryManager.addr = alloca %"class.xercesc_2_7::MemoryManager"*, align 8
  %exn.slot = alloca i8*
  %ehselector.slot = alloca i32
  store %"class.xercesc_2_7::NoSuchElementException"* %this, %"class.xercesc_2_7::NoSuchElementException"** %this.addr, align 8
  call void @llvm.dbg.declare(metadata %"class.xercesc_2_7::NoSuchElementException"** %this.addr, metadata !2880, metadata !DIExpression()), !dbg !2882
  store i8* %srcFile, i8** %srcFile.addr, align 8
  call void @llvm.dbg.declare(metadata i8** %srcFile.addr, metadata !2883, metadata !DIExpression()), !dbg !2884
  store i32 %srcLine, i32* %srcLine.addr, align 4
  call void @llvm.dbg.declare(metadata i32* %srcLine.addr, metadata !2885, metadata !DIExpression()), !dbg !2884
  store i32 %toThrow, i32* %toThrow.addr, align 4
  call void @llvm.dbg.declare(metadata i32* %toThrow.addr, metadata !2886, metadata !DIExpression()), !dbg !2884
  store %"class.xercesc_2_7::MemoryManager"* %memoryManager, %"class.xercesc_2_7::MemoryManager"** %memoryManager.addr, align 8
  call void @llvm.dbg.declare(metadata %"class.xercesc_2_7::MemoryManager"** %memoryManager.addr, metadata !2887, metadata !DIExpression()), !dbg !2884
  %this1 = load %"class.xercesc_2_7::NoSuchElementException"*, %"class.xercesc_2_7::NoSuchElementException"** %this.addr, align 8
  %0 = bitcast %"class.xercesc_2_7::NoSuchElementException"* %this1 to %"class.xercesc_2_7::XMLException"*, !dbg !2884
  %1 = load i8*, i8** %srcFile.addr, align 8, !dbg !2884
  %2 = load i32, i32* %srcLine.addr, align 4, !dbg !2884
  %3 = load %"class.xercesc_2_7::MemoryManager"*, %"class.xercesc_2_7::MemoryManager"** %memoryManager.addr, align 8, !dbg !2884
  call void @_ZN11xercesc_2_712XMLExceptionC2EPKcjPNS_13MemoryManagerE(%"class.xercesc_2_7::XMLException"* %0, i8* %1, i32 %2, %"class.xercesc_2_7::MemoryManager"* %3), !dbg !2884
  %4 = bitcast %"class.xercesc_2_7::NoSuchElementException"* %this1 to i32 (...)***, !dbg !2884
  store i32 (...)** bitcast (i8** getelementptr inbounds ({ [6 x i8*] }, { [6 x i8*] }* @_ZTVN11xercesc_2_722NoSuchElementExceptionE, i32 0, inrange i32 0, i32 2) to i32 (...)**), i32 (...)*** %4, align 8, !dbg !2884
  %5 = bitcast %"class.xercesc_2_7::NoSuchElementException"* %this1 to %"class.xercesc_2_7::XMLException"*, !dbg !2888
  %6 = load i32, i32* %toThrow.addr, align 4, !dbg !2888
  invoke void @_ZN11xercesc_2_712XMLException14loadExceptTextENS_10XMLExcepts5CodesE(%"class.xercesc_2_7::XMLException"* %5, i32 %6)
          to label %invoke.cont unwind label %lpad, !dbg !2888

invoke.cont:                                      ; preds = %entry
  ret void, !dbg !2884

lpad:                                             ; preds = %entry
  %7 = landingpad { i8*, i32 }
          cleanup, !dbg !2888
  %8 = extractvalue { i8*, i32 } %7, 0, !dbg !2888
  store i8* %8, i8** %exn.slot, align 8, !dbg !2888
  %9 = extractvalue { i8*, i32 } %7, 1, !dbg !2888
  store i32 %9, i32* %ehselector.slot, align 4, !dbg !2888
  %10 = bitcast %"class.xercesc_2_7::NoSuchElementException"* %this1 to %"class.xercesc_2_7::XMLException"*, !dbg !2888
  call void @_ZN11xercesc_2_712XMLExceptionD2Ev(%"class.xercesc_2_7::XMLException"* %10) #8, !dbg !2888
  br label %eh.resume, !dbg !2888

eh.resume:                                        ; preds = %lpad
  %exn = load i8*, i8** %exn.slot, align 8, !dbg !2888
  %sel = load i32, i32* %ehselector.slot, align 4, !dbg !2888
  %lpad.val = insertvalue { i8*, i32 } undef, i8* %exn, 0, !dbg !2888
  %lpad.val2 = insertvalue { i8*, i32 } %lpad.val, i32 %sel, 1, !dbg !2888
  resume { i8*, i32 } %lpad.val2, !dbg !2888
}

; Function Attrs: noinline nounwind uwtable
define linkonce_odr dso_local void @_ZN11xercesc_2_722NoSuchElementExceptionD2Ev(%"class.xercesc_2_7::NoSuchElementException"* %this) unnamed_addr #1 comdat align 2 !dbg !2890 {
entry:
  %this.addr = alloca %"class.xercesc_2_7::NoSuchElementException"*, align 8
  store %"class.xercesc_2_7::NoSuchElementException"* %this, %"class.xercesc_2_7::NoSuchElementException"** %this.addr, align 8
  call void @llvm.dbg.declare(metadata %"class.xercesc_2_7::NoSuchElementException"** %this.addr, metadata !2891, metadata !DIExpression()), !dbg !2892
  %this1 = load %"class.xercesc_2_7::NoSuchElementException"*, %"class.xercesc_2_7::NoSuchElementException"** %this.addr, align 8
  %0 = bitcast %"class.xercesc_2_7::NoSuchElementException"* %this1 to %"class.xercesc_2_7::XMLException"*, !dbg !2893
  call void @_ZN11xercesc_2_712XMLExceptionD2Ev(%"class.xercesc_2_7::XMLException"* %0) #8, !dbg !2893
  ret void, !dbg !2895
}

; Function Attrs: noinline nounwind uwtable
define linkonce_odr dso_local void @_ZN11xercesc_2_722NoSuchElementExceptionD0Ev(%"class.xercesc_2_7::NoSuchElementException"* %this) unnamed_addr #1 comdat align 2 !dbg !2896 {
entry:
  %this.addr = alloca %"class.xercesc_2_7::NoSuchElementException"*, align 8
  store %"class.xercesc_2_7::NoSuchElementException"* %this, %"class.xercesc_2_7::NoSuchElementException"** %this.addr, align 8
  call void @llvm.dbg.declare(metadata %"class.xercesc_2_7::NoSuchElementException"** %this.addr, metadata !2897, metadata !DIExpression()), !dbg !2898
  %this1 = load %"class.xercesc_2_7::NoSuchElementException"*, %"class.xercesc_2_7::NoSuchElementException"** %this.addr, align 8
  call void @_ZN11xercesc_2_722NoSuchElementExceptionD2Ev(%"class.xercesc_2_7::NoSuchElementException"* %this1) #8, !dbg !2899
  %0 = bitcast %"class.xercesc_2_7::NoSuchElementException"* %this1 to i8*, !dbg !2899
  call void @_ZN11xercesc_2_77XMemorydlEPv(i8* %0) #8, !dbg !2899
  ret void, !dbg !2899
}

; Function Attrs: noinline nounwind uwtable
define linkonce_odr dso_local i16* @_ZNK11xercesc_2_722NoSuchElementException7getTypeEv(%"class.xercesc_2_7::NoSuchElementException"* %this) unnamed_addr #1 comdat align 2 !dbg !2900 {
entry:
  %this.addr = alloca %"class.xercesc_2_7::NoSuchElementException"*, align 8
  store %"class.xercesc_2_7::NoSuchElementException"* %this, %"class.xercesc_2_7::NoSuchElementException"** %this.addr, align 8
  call void @llvm.dbg.declare(metadata %"class.xercesc_2_7::NoSuchElementException"** %this.addr, metadata !2901, metadata !DIExpression()), !dbg !2903
  %this1 = load %"class.xercesc_2_7::NoSuchElementException"*, %"class.xercesc_2_7::NoSuchElementException"** %this.addr, align 8
  ret i16* getelementptr inbounds ([0 x i16], [0 x i16]* @_ZN11xercesc_2_76XMLUni29fgNoSuchElementException_NameE, i64 0, i64 0), !dbg !2904
}

; Function Attrs: noinline uwtable
define linkonce_odr dso_local %"class.xercesc_2_7::XMLException"* @_ZNK11xercesc_2_722NoSuchElementException9duplicateEv(%"class.xercesc_2_7::NoSuchElementException"* %this) unnamed_addr #6 comdat align 2 personality i8* bitcast (i32 (...)* @__gxx_personality_v0 to i8*) !dbg !2905 {
entry:
  %this.addr = alloca %"class.xercesc_2_7::NoSuchElementException"*, align 8
  %exn.slot = alloca i8*
  %ehselector.slot = alloca i32
  store %"class.xercesc_2_7::NoSuchElementException"* %this, %"class.xercesc_2_7::NoSuchElementException"** %this.addr, align 8
  call void @llvm.dbg.declare(metadata %"class.xercesc_2_7::NoSuchElementException"** %this.addr, metadata !2906, metadata !DIExpression()), !dbg !2907
  %this1 = load %"class.xercesc_2_7::NoSuchElementException"*, %"class.xercesc_2_7::NoSuchElementException"** %this.addr, align 8
  %0 = bitcast %"class.xercesc_2_7::NoSuchElementException"* %this1 to %"class.xercesc_2_7::XMLException"*, !dbg !2908
  %fMemoryManager = getelementptr inbounds %"class.xercesc_2_7::XMLException", %"class.xercesc_2_7::XMLException"* %0, i32 0, i32 5, !dbg !2908
  %1 = load %"class.xercesc_2_7::MemoryManager"*, %"class.xercesc_2_7::MemoryManager"** %fMemoryManager, align 8, !dbg !2908
  %call = call i8* @_ZN11xercesc_2_77XMemorynwEmPNS_13MemoryManagerE(i64 48, %"class.xercesc_2_7::MemoryManager"* %1), !dbg !2908
  %2 = bitcast i8* %call to %"class.xercesc_2_7::NoSuchElementException"*, !dbg !2908
  invoke void @_ZN11xercesc_2_722NoSuchElementExceptionC2ERKS0_(%"class.xercesc_2_7::NoSuchElementException"* %2, %"class.xercesc_2_7::NoSuchElementException"* dereferenceable(48) %this1)
          to label %invoke.cont unwind label %lpad, !dbg !2908

invoke.cont:                                      ; preds = %entry
  %3 = bitcast %"class.xercesc_2_7::NoSuchElementException"* %2 to %"class.xercesc_2_7::XMLException"*, !dbg !2908
  ret %"class.xercesc_2_7::XMLException"* %3, !dbg !2908

lpad:                                             ; preds = %entry
  %4 = landingpad { i8*, i32 }
          cleanup, !dbg !2908
  %5 = extractvalue { i8*, i32 } %4, 0, !dbg !2908
  store i8* %5, i8** %exn.slot, align 8, !dbg !2908
  %6 = extractvalue { i8*, i32 } %4, 1, !dbg !2908
  store i32 %6, i32* %ehselector.slot, align 4, !dbg !2908
  call void @_ZN11xercesc_2_77XMemorydlEPvPNS_13MemoryManagerE(i8* %call, %"class.xercesc_2_7::MemoryManager"* %1) #8, !dbg !2908
  br label %eh.resume, !dbg !2908

eh.resume:                                        ; preds = %lpad
  %exn = load i8*, i8** %exn.slot, align 8, !dbg !2908
  %sel = load i32, i32* %ehselector.slot, align 4, !dbg !2908
  %lpad.val = insertvalue { i8*, i32 } undef, i8* %exn, 0, !dbg !2908
  %lpad.val2 = insertvalue { i8*, i32 } %lpad.val, i32 %sel, 1, !dbg !2908
  resume { i8*, i32 } %lpad.val2, !dbg !2908
}

; Function Attrs: noinline uwtable
define linkonce_odr dso_local void @_ZN11xercesc_2_722NoSuchElementExceptionC2ERKS0_(%"class.xercesc_2_7::NoSuchElementException"* %this, %"class.xercesc_2_7::NoSuchElementException"* dereferenceable(48) %toCopy) unnamed_addr #6 comdat align 2 !dbg !2909 {
entry:
  %this.addr = alloca %"class.xercesc_2_7::NoSuchElementException"*, align 8
  %toCopy.addr = alloca %"class.xercesc_2_7::NoSuchElementException"*, align 8
  store %"class.xercesc_2_7::NoSuchElementException"* %this, %"class.xercesc_2_7::NoSuchElementException"** %this.addr, align 8
  call void @llvm.dbg.declare(metadata %"class.xercesc_2_7::NoSuchElementException"** %this.addr, metadata !2910, metadata !DIExpression()), !dbg !2911
  store %"class.xercesc_2_7::NoSuchElementException"* %toCopy, %"class.xercesc_2_7::NoSuchElementException"** %toCopy.addr, align 8
  call void @llvm.dbg.declare(metadata %"class.xercesc_2_7::NoSuchElementException"** %toCopy.addr, metadata !2912, metadata !DIExpression()), !dbg !2913
  %this1 = load %"class.xercesc_2_7::NoSuchElementException"*, %"class.xercesc_2_7::NoSuchElementException"** %this.addr, align 8
  %0 = bitcast %"class.xercesc_2_7::NoSuchElementException"* %this1 to %"class.xercesc_2_7::XMLException"*, !dbg !2913
  %1 = load %"class.xercesc_2_7::NoSuchElementException"*, %"class.xercesc_2_7::NoSuchElementException"** %toCopy.addr, align 8, !dbg !2913
  %2 = bitcast %"class.xercesc_2_7::NoSuchElementException"* %1 to %"class.xercesc_2_7::XMLException"*, !dbg !2913
  call void @_ZN11xercesc_2_712XMLExceptionC2ERKS0_(%"class.xercesc_2_7::XMLException"* %0, %"class.xercesc_2_7::XMLException"* dereferenceable(48) %2), !dbg !2913
  %3 = bitcast %"class.xercesc_2_7::NoSuchElementException"* %this1 to i32 (...)***, !dbg !2913
  store i32 (...)** bitcast (i8** getelementptr inbounds ({ [6 x i8*] }, { [6 x i8*] }* @_ZTVN11xercesc_2_722NoSuchElementExceptionE, i32 0, inrange i32 0, i32 2) to i32 (...)**), i32 (...)*** %3, align 8, !dbg !2913
  ret void, !dbg !2913
}

; Function Attrs: noinline uwtable
define linkonce_odr dso_local %"struct.xercesc_2_7::RefHashTableBucketElem.0"* @_ZN11xercesc_2_714RefHashTableOfINS_9DTDAttDefEE14findBucketElemEPKvRj(%"class.xercesc_2_7::RefHashTableOf.1"* %this, i8* %key, i32* dereferenceable(4) %hashVal) #6 comdat align 2 !dbg !2914 {
entry:
  %retval = alloca %"struct.xercesc_2_7::RefHashTableBucketElem.0"*, align 8
  %this.addr = alloca %"class.xercesc_2_7::RefHashTableOf.1"*, align 8
  %key.addr = alloca i8*, align 8
  %hashVal.addr = alloca i32*, align 8
  %curElem = alloca %"struct.xercesc_2_7::RefHashTableBucketElem.0"*, align 8
  store %"class.xercesc_2_7::RefHashTableOf.1"* %this, %"class.xercesc_2_7::RefHashTableOf.1"** %this.addr, align 8
  call void @llvm.dbg.declare(metadata %"class.xercesc_2_7::RefHashTableOf.1"** %this.addr, metadata !2915, metadata !DIExpression()), !dbg !2916
  store i8* %key, i8** %key.addr, align 8
  call void @llvm.dbg.declare(metadata i8** %key.addr, metadata !2917, metadata !DIExpression()), !dbg !2918
  store i32* %hashVal, i32** %hashVal.addr, align 8
  call void @llvm.dbg.declare(metadata i32** %hashVal.addr, metadata !2919, metadata !DIExpression()), !dbg !2920
  %this1 = load %"class.xercesc_2_7::RefHashTableOf.1"*, %"class.xercesc_2_7::RefHashTableOf.1"** %this.addr, align 8
  %fHash = getelementptr inbounds %"class.xercesc_2_7::RefHashTableOf.1", %"class.xercesc_2_7::RefHashTableOf.1"* %this1, i32 0, i32 6, !dbg !2921
  %0 = load %"class.xercesc_2_7::HashBase"*, %"class.xercesc_2_7::HashBase"** %fHash, align 8, !dbg !2921
  %1 = load i8*, i8** %key.addr, align 8, !dbg !2922
  %fHashModulus = getelementptr inbounds %"class.xercesc_2_7::RefHashTableOf.1", %"class.xercesc_2_7::RefHashTableOf.1"* %this1, i32 0, i32 3, !dbg !2923
  %2 = load i32, i32* %fHashModulus, align 8, !dbg !2923
  %fMemoryManager = getelementptr inbounds %"class.xercesc_2_7::RefHashTableOf.1", %"class.xercesc_2_7::RefHashTableOf.1"* %this1, i32 0, i32 0, !dbg !2924
  %3 = load %"class.xercesc_2_7::MemoryManager"*, %"class.xercesc_2_7::MemoryManager"** %fMemoryManager, align 8, !dbg !2924
  %4 = bitcast %"class.xercesc_2_7::HashBase"* %0 to i32 (%"class.xercesc_2_7::HashBase"*, i8*, i32, %"class.xercesc_2_7::MemoryManager"*)***, !dbg !2925
  %vtable = load i32 (%"class.xercesc_2_7::HashBase"*, i8*, i32, %"class.xercesc_2_7::MemoryManager"*)**, i32 (%"class.xercesc_2_7::HashBase"*, i8*, i32, %"class.xercesc_2_7::MemoryManager"*)*** %4, align 8, !dbg !2925
  %vfn = getelementptr inbounds i32 (%"class.xercesc_2_7::HashBase"*, i8*, i32, %"class.xercesc_2_7::MemoryManager"*)*, i32 (%"class.xercesc_2_7::HashBase"*, i8*, i32, %"class.xercesc_2_7::MemoryManager"*)** %vtable, i64 0, !dbg !2925
  %5 = load i32 (%"class.xercesc_2_7::HashBase"*, i8*, i32, %"class.xercesc_2_7::MemoryManager"*)*, i32 (%"class.xercesc_2_7::HashBase"*, i8*, i32, %"class.xercesc_2_7::MemoryManager"*)** %vfn, align 8, !dbg !2925
  %call = call i32 %5(%"class.xercesc_2_7::HashBase"* %0, i8* %1, i32 %2, %"class.xercesc_2_7::MemoryManager"* %3), !dbg !2925
  %6 = load i32*, i32** %hashVal.addr, align 8, !dbg !2926
  store i32 %call, i32* %6, align 4, !dbg !2927
  call void @llvm.dbg.declare(metadata %"struct.xercesc_2_7::RefHashTableBucketElem.0"** %curElem, metadata !2928, metadata !DIExpression()), !dbg !2929
  %fBucketList = getelementptr inbounds %"class.xercesc_2_7::RefHashTableOf.1", %"class.xercesc_2_7::RefHashTableOf.1"* %this1, i32 0, i32 2, !dbg !2930
  %7 = load %"struct.xercesc_2_7::RefHashTableBucketElem.0"**, %"struct.xercesc_2_7::RefHashTableBucketElem.0"*** %fBucketList, align 8, !dbg !2930
  %8 = load i32*, i32** %hashVal.addr, align 8, !dbg !2931
  %9 = load i32, i32* %8, align 4, !dbg !2931
  %idxprom = zext i32 %9 to i64, !dbg !2930
  %arrayidx = getelementptr inbounds %"struct.xercesc_2_7::RefHashTableBucketElem.0"*, %"struct.xercesc_2_7::RefHashTableBucketElem.0"** %7, i64 %idxprom, !dbg !2930
  %10 = load %"struct.xercesc_2_7::RefHashTableBucketElem.0"*, %"struct.xercesc_2_7::RefHashTableBucketElem.0"** %arrayidx, align 8, !dbg !2930
  store %"struct.xercesc_2_7::RefHashTableBucketElem.0"* %10, %"struct.xercesc_2_7::RefHashTableBucketElem.0"** %curElem, align 8, !dbg !2929
  br label %while.cond, !dbg !2932

while.cond:                                       ; preds = %if.end, %entry
  %11 = load %"struct.xercesc_2_7::RefHashTableBucketElem.0"*, %"struct.xercesc_2_7::RefHashTableBucketElem.0"** %curElem, align 8, !dbg !2933
  %tobool = icmp ne %"struct.xercesc_2_7::RefHashTableBucketElem.0"* %11, null, !dbg !2933
  br i1 %tobool, label %while.body, label %while.end, !dbg !2932

while.body:                                       ; preds = %while.cond
  %fHash2 = getelementptr inbounds %"class.xercesc_2_7::RefHashTableOf.1", %"class.xercesc_2_7::RefHashTableOf.1"* %this1, i32 0, i32 6, !dbg !2934
  %12 = load %"class.xercesc_2_7::HashBase"*, %"class.xercesc_2_7::HashBase"** %fHash2, align 8, !dbg !2934
  %13 = load i8*, i8** %key.addr, align 8, !dbg !2937
  %14 = load %"struct.xercesc_2_7::RefHashTableBucketElem.0"*, %"struct.xercesc_2_7::RefHashTableBucketElem.0"** %curElem, align 8, !dbg !2938
  %fKey = getelementptr inbounds %"struct.xercesc_2_7::RefHashTableBucketElem.0", %"struct.xercesc_2_7::RefHashTableBucketElem.0"* %14, i32 0, i32 2, !dbg !2939
  %15 = load i8*, i8** %fKey, align 8, !dbg !2939
  %16 = bitcast %"class.xercesc_2_7::HashBase"* %12 to i1 (%"class.xercesc_2_7::HashBase"*, i8*, i8*)***, !dbg !2940
  %vtable3 = load i1 (%"class.xercesc_2_7::HashBase"*, i8*, i8*)**, i1 (%"class.xercesc_2_7::HashBase"*, i8*, i8*)*** %16, align 8, !dbg !2940
  %vfn4 = getelementptr inbounds i1 (%"class.xercesc_2_7::HashBase"*, i8*, i8*)*, i1 (%"class.xercesc_2_7::HashBase"*, i8*, i8*)** %vtable3, i64 1, !dbg !2940
  %17 = load i1 (%"class.xercesc_2_7::HashBase"*, i8*, i8*)*, i1 (%"class.xercesc_2_7::HashBase"*, i8*, i8*)** %vfn4, align 8, !dbg !2940
  %call5 = call zeroext i1 %17(%"class.xercesc_2_7::HashBase"* %12, i8* %13, i8* %15), !dbg !2940
  br i1 %call5, label %if.then, label %if.end, !dbg !2941

if.then:                                          ; preds = %while.body
  %18 = load %"struct.xercesc_2_7::RefHashTableBucketElem.0"*, %"struct.xercesc_2_7::RefHashTableBucketElem.0"** %curElem, align 8, !dbg !2942
  store %"struct.xercesc_2_7::RefHashTableBucketElem.0"* %18, %"struct.xercesc_2_7::RefHashTableBucketElem.0"** %retval, align 8, !dbg !2943
  br label %return, !dbg !2943

if.end:                                           ; preds = %while.body
  %19 = load %"struct.xercesc_2_7::RefHashTableBucketElem.0"*, %"struct.xercesc_2_7::RefHashTableBucketElem.0"** %curElem, align 8, !dbg !2944
  %fNext = getelementptr inbounds %"struct.xercesc_2_7::RefHashTableBucketElem.0", %"struct.xercesc_2_7::RefHashTableBucketElem.0"* %19, i32 0, i32 1, !dbg !2945
  %20 = load %"struct.xercesc_2_7::RefHashTableBucketElem.0"*, %"struct.xercesc_2_7::RefHashTableBucketElem.0"** %fNext, align 8, !dbg !2945
  store %"struct.xercesc_2_7::RefHashTableBucketElem.0"* %20, %"struct.xercesc_2_7::RefHashTableBucketElem.0"** %curElem, align 8, !dbg !2946
  br label %while.cond, !dbg !2932, !llvm.loop !2947

while.end:                                        ; preds = %while.cond
  store %"struct.xercesc_2_7::RefHashTableBucketElem.0"* null, %"struct.xercesc_2_7::RefHashTableBucketElem.0"** %retval, align 8, !dbg !2949
  br label %return, !dbg !2949

return:                                           ; preds = %while.end, %if.then
  %21 = load %"struct.xercesc_2_7::RefHashTableBucketElem.0"*, %"struct.xercesc_2_7::RefHashTableBucketElem.0"** %retval, align 8, !dbg !2950
  ret %"struct.xercesc_2_7::RefHashTableBucketElem.0"* %21, !dbg !2950
}

attributes #0 = { nounwind readnone speculatable willreturn }
attributes #1 = { noinline nounwind uwtable "correctly-rounded-divide-sqrt-fp-math"="false" "disable-tail-calls"="false" "frame-pointer"="all" "less-precise-fpmad"="false" "min-legal-vector-width"="0" "no-infs-fp-math"="false" "no-jump-tables"="false" "no-nans-fp-math"="false" "no-signed-zeros-fp-math"="false" "no-trapping-math"="false" "stack-protector-buffer-size"="8" "target-cpu"="x86-64" "target-features"="+cx8,+fxsr,+mmx,+sse,+sse2,+x87" "unsafe-fp-math"="false" "use-soft-float"="false" }
attributes #2 = { nobuiltin nounwind "correctly-rounded-divide-sqrt-fp-math"="false" "disable-tail-calls"="false" "frame-pointer"="all" "less-precise-fpmad"="false" "no-infs-fp-math"="false" "no-nans-fp-math"="false" "no-signed-zeros-fp-math"="false" "no-trapping-math"="false" "stack-protector-buffer-size"="8" "target-cpu"="x86-64" "target-features"="+cx8,+fxsr,+mmx,+sse,+sse2,+x87" "unsafe-fp-math"="false" "use-soft-float"="false" }
attributes #3 = { cold noreturn nounwind }
attributes #4 = { noinline noreturn nounwind }
attributes #5 = { nounwind "correctly-rounded-divide-sqrt-fp-math"="false" "disable-tail-calls"="false" "frame-pointer"="all" "less-precise-fpmad"="false" "no-infs-fp-math"="false" "no-nans-fp-math"="false" "no-signed-zeros-fp-math"="false" "no-trapping-math"="false" "stack-protector-buffer-size"="8" "target-cpu"="x86-64" "target-features"="+cx8,+fxsr,+mmx,+sse,+sse2,+x87" "unsafe-fp-math"="false" "use-soft-float"="false" }
attributes #6 = { noinline uwtable "correctly-rounded-divide-sqrt-fp-math"="false" "disable-tail-calls"="false" "frame-pointer"="all" "less-precise-fpmad"="false" "min-legal-vector-width"="0" "no-infs-fp-math"="false" "no-jump-tables"="false" "no-nans-fp-math"="false" "no-signed-zeros-fp-math"="false" "no-trapping-math"="false" "stack-protector-buffer-size"="8" "target-cpu"="x86-64" "target-features"="+cx8,+fxsr,+mmx,+sse,+sse2,+x87" "unsafe-fp-math"="false" "use-soft-float"="false" }
attributes #7 = { "correctly-rounded-divide-sqrt-fp-math"="false" "disable-tail-calls"="false" "frame-pointer"="all" "less-precise-fpmad"="false" "no-infs-fp-math"="false" "no-nans-fp-math"="false" "no-signed-zeros-fp-math"="false" "no-trapping-math"="false" "stack-protector-buffer-size"="8" "target-cpu"="x86-64" "target-features"="+cx8,+fxsr,+mmx,+sse,+sse2,+x87" "unsafe-fp-math"="false" "use-soft-float"="false" }
attributes #8 = { nounwind }
attributes #9 = { builtin nounwind }
attributes #10 = { noreturn nounwind }
attributes #11 = { noreturn }

!llvm.dbg.cu = !{!1131}
!llvm.module.flags = !{!1722, !1723, !1724}
!llvm.ident = !{!1725}

!0 = !DIGlobalVariableExpression(var: !1, expr: !DIExpression())
!1 = distinct !DIGlobalVariable(name: "classDTDAttDefList", linkageName: "_ZN11xercesc_2_713DTDAttDefList18classDTDAttDefListE", scope: !2, file: !3, line: 146, type: !4, isLocal: false, isDefinition: true, declaration: !775)
!2 = !DINamespace(name: "xercesc_2_7", scope: null)
!3 = !DIFile(filename: "DTDAttDefList.cpp", directory: "/home/venkat/IF-DV/spec_build_release/CPU_2017/benchspec/CPU/523.xalancbmk_r/build/build_base_ld-loop-ext-m64.0000")
!4 = distinct !DICompositeType(tag: DW_TAG_class_type, name: "XProtoType", scope: !2, file: !5, line: 32, size: 128, flags: DIFlagTypePassByValue, elements: !6, identifier: "_ZTSN11xercesc_2_710XProtoTypeE")
!5 = !DIFile(filename: "./xercesc/internal/XProtoType.hpp", directory: "/home/venkat/IF-DV/spec_build_release/CPU_2017/benchspec/CPU/523.xalancbmk_r/build/build_base_ld-loop-ext-m64.0000")
!6 = !{!7, !12, !767, !772}
!7 = !DIDerivedType(tag: DW_TAG_member, name: "fClassName", scope: !4, file: !5, line: 55, baseType: !8, size: 64, flags: DIFlagPublic)
!8 = !DIDerivedType(tag: DW_TAG_pointer_type, baseType: !9, size: 64)
!9 = !DIDerivedType(tag: DW_TAG_typedef, name: "XMLByte", file: !10, line: 384, baseType: !11)
!10 = !DIFile(filename: "./xercesc/util/XercesDefs.hpp", directory: "/home/venkat/IF-DV/spec_build_release/CPU_2017/benchspec/CPU/523.xalancbmk_r/build/build_base_ld-loop-ext-m64.0000")
!11 = !DIBasicType(name: "unsigned char", size: 8, encoding: DW_ATE_unsigned_char)
!12 = !DIDerivedType(tag: DW_TAG_member, name: "fCreateObject", scope: !4, file: !5, line: 57, baseType: !13, size: 64, offset: 64, flags: DIFlagPublic)
!13 = !DIDerivedType(tag: DW_TAG_pointer_type, baseType: !14, size: 64)
!14 = !DISubroutineType(types: !15)
!15 = !{!16, !96}
!16 = !DIDerivedType(tag: DW_TAG_pointer_type, baseType: !17, size: 64)
!17 = distinct !DICompositeType(tag: DW_TAG_class_type, name: "XSerializable", scope: !2, file: !18, line: 29, size: 64, flags: DIFlagTypePassByReference | DIFlagNonTrivial, elements: !19, vtableHolder: !17, identifier: "_ZTSN11xercesc_2_713XSerializableE")
!18 = !DIFile(filename: "./xercesc/internal/XSerializable.hpp", directory: "/home/venkat/IF-DV/spec_build_release/CPU_2017/benchspec/CPU/523.xalancbmk_r/build/build_base_ld-loop-ext-m64.0000")
!19 = !{!20, !26, !30, !36, !755, !758, !759, !763}
!20 = !DIDerivedType(tag: DW_TAG_member, name: "_vptr$XSerializable", scope: !18, file: !18, baseType: !21, size: 64, flags: DIFlagArtificial)
!21 = !DIDerivedType(tag: DW_TAG_pointer_type, baseType: !22, size: 64)
!22 = !DIDerivedType(tag: DW_TAG_pointer_type, name: "__vtbl_ptr_type", baseType: !23, size: 64)
!23 = !DISubroutineType(types: !24)
!24 = !{!25}
!25 = !DIBasicType(name: "int", size: 32, encoding: DW_ATE_signed)
!26 = !DISubprogram(name: "~XSerializable", scope: !17, file: !18, line: 36, type: !27, scopeLine: 36, containingType: !17, virtualIndex: 0, flags: DIFlagPublic | DIFlagPrototyped, spFlags: DISPFlagVirtual)
!27 = !DISubroutineType(types: !28)
!28 = !{null, !29}
!29 = !DIDerivedType(tag: DW_TAG_pointer_type, baseType: !17, size: 64, flags: DIFlagArtificial | DIFlagObjectPointer)
!30 = !DISubprogram(name: "isSerializable", linkageName: "_ZNK11xercesc_2_713XSerializable14isSerializableEv", scope: !17, file: !18, line: 41, type: !31, scopeLine: 41, containingType: !17, virtualIndex: 2, flags: DIFlagPublic | DIFlagPrototyped, spFlags: DISPFlagPureVirtual)
!31 = !DISubroutineType(types: !32)
!32 = !{!33, !34}
!33 = !DIBasicType(name: "bool", size: 8, encoding: DW_ATE_boolean)
!34 = !DIDerivedType(tag: DW_TAG_pointer_type, baseType: !35, size: 64, flags: DIFlagArtificial | DIFlagObjectPointer)
!35 = !DIDerivedType(tag: DW_TAG_const_type, baseType: !17)
!36 = !DISubprogram(name: "serialize", linkageName: "_ZN11xercesc_2_713XSerializable9serializeERNS_16XSerializeEngineE", scope: !17, file: !18, line: 43, type: !37, scopeLine: 43, containingType: !17, virtualIndex: 3, flags: DIFlagPublic | DIFlagPrototyped, spFlags: DISPFlagPureVirtual)
!37 = !DISubroutineType(types: !38)
!38 = !{null, !29, !39}
!39 = !DIDerivedType(tag: DW_TAG_reference_type, baseType: !40, size: 64)
!40 = distinct !DICompositeType(tag: DW_TAG_class_type, name: "XSerializeEngine", scope: !2, file: !41, line: 42, size: 832, flags: DIFlagTypePassByReference | DIFlagNonTrivial, elements: !42, identifier: "_ZTSN11xercesc_2_716XSerializeEngineE")
!41 = !DIFile(filename: "./xercesc/internal/XSerializeEngine.hpp", directory: "/home/venkat/IF-DV/spec_build_release/CPU_2017/benchspec/CPU/523.xalancbmk_r/build/build_base_ld-loop-ext-m64.0000")
!42 = !{!43, !45, !46, !49, !50, !54, !58, !62, !64, !66, !68, !69, !70, !71, !75, !79, !82, !86, !89, !92, !99, !102, !103, !108, !109, !112, !118, !121, !125, !129, !134, !140, !148, !152, !155, !158, !162, !165, !170, !175, !178, !181, !185, !188, !191, !196, !200, !203, !206, !209, !213, !216, !219, !222, !226, !229, !233, !237, !240, !244, !248, !252, !256, !259, !263, !267, !271, !275, !279, !283, !286, !287, !288, !289, !293, !294, !298, !301, !304, !305, !308, !309, !312, !313, !314, !315, !316, !317, !320, !321, !322, !323, !326, !329, !746, !751, !752}
!43 = !DIDerivedType(tag: DW_TAG_member, name: "toReadBufferLen", scope: !40, file: !41, line: 51, baseType: !44, flags: DIFlagPublic | DIFlagStaticMember)
!44 = !DIDerivedType(tag: DW_TAG_const_type, baseType: !33)
!45 = !DIDerivedType(tag: DW_TAG_member, name: "toWriteBufferLen", scope: !40, file: !41, line: 301, baseType: !44, flags: DIFlagPublic | DIFlagStaticMember)
!46 = !DIDerivedType(tag: DW_TAG_member, name: "fStoreLoad", scope: !40, file: !41, line: 695, baseType: !47, size: 16)
!47 = !DIDerivedType(tag: DW_TAG_const_type, baseType: !48)
!48 = !DIBasicType(name: "short", size: 16, encoding: DW_ATE_signed)
!49 = !DIDerivedType(tag: DW_TAG_member, name: "fStorerLevel", scope: !40, file: !41, line: 696, baseType: !48, size: 16, offset: 16)
!50 = !DIDerivedType(tag: DW_TAG_member, name: "fGrammarPool", scope: !40, file: !41, line: 698, baseType: !51, size: 64, offset: 64)
!51 = !DIDerivedType(tag: DW_TAG_const_type, baseType: !52)
!52 = !DIDerivedType(tag: DW_TAG_pointer_type, baseType: !53, size: 64)
!53 = !DICompositeType(tag: DW_TAG_class_type, name: "XMLGrammarPool", scope: !2, file: !41, line: 38, flags: DIFlagFwdDecl, identifier: "_ZTSN11xercesc_2_714XMLGrammarPoolE")
!54 = !DIDerivedType(tag: DW_TAG_member, name: "fInputStream", scope: !40, file: !41, line: 699, baseType: !55, size: 64, offset: 128)
!55 = !DIDerivedType(tag: DW_TAG_const_type, baseType: !56)
!56 = !DIDerivedType(tag: DW_TAG_pointer_type, baseType: !57, size: 64)
!57 = !DICompositeType(tag: DW_TAG_class_type, name: "BinInputStream", scope: !2, file: !41, line: 37, flags: DIFlagFwdDecl, identifier: "_ZTSN11xercesc_2_714BinInputStreamE")
!58 = !DIDerivedType(tag: DW_TAG_member, name: "fOutputStream", scope: !40, file: !41, line: 700, baseType: !59, size: 64, offset: 192)
!59 = !DIDerivedType(tag: DW_TAG_const_type, baseType: !60)
!60 = !DIDerivedType(tag: DW_TAG_pointer_type, baseType: !61, size: 64)
!61 = !DICompositeType(tag: DW_TAG_class_type, name: "BinOutputStream", scope: !2, file: !41, line: 36, flags: DIFlagFwdDecl, identifier: "_ZTSN11xercesc_2_715BinOutputStreamE")
!62 = !DIDerivedType(tag: DW_TAG_member, name: "fBufCount", scope: !40, file: !41, line: 702, baseType: !63, size: 64, offset: 256)
!63 = !DIBasicType(name: "long unsigned int", size: 64, encoding: DW_ATE_unsigned)
!64 = !DIDerivedType(tag: DW_TAG_member, name: "fBufSize", scope: !40, file: !41, line: 705, baseType: !65, size: 64, offset: 320)
!65 = !DIDerivedType(tag: DW_TAG_const_type, baseType: !63)
!66 = !DIDerivedType(tag: DW_TAG_member, name: "fBufStart", scope: !40, file: !41, line: 706, baseType: !67, size: 64, offset: 384)
!67 = !DIDerivedType(tag: DW_TAG_const_type, baseType: !8)
!68 = !DIDerivedType(tag: DW_TAG_member, name: "fBufEnd", scope: !40, file: !41, line: 707, baseType: !67, size: 64, offset: 448)
!69 = !DIDerivedType(tag: DW_TAG_member, name: "fBufCur", scope: !40, file: !41, line: 708, baseType: !8, size: 64, offset: 512)
!70 = !DIDerivedType(tag: DW_TAG_member, name: "fBufLoadMax", scope: !40, file: !41, line: 709, baseType: !8, size: 64, offset: 576)
!71 = !DIDerivedType(tag: DW_TAG_member, name: "fStorePool", scope: !40, file: !41, line: 722, baseType: !72, size: 64, offset: 640)
!72 = !DIDerivedType(tag: DW_TAG_pointer_type, baseType: !73, size: 64)
!73 = !DICompositeType(tag: DW_TAG_class_type, name: "RefHashTableOf<xercesc_2_7::XSerializedObjectId>", scope: !2, file: !74, line: 72, flags: DIFlagFwdDecl, identifier: "_ZTSN11xercesc_2_714RefHashTableOfINS_19XSerializedObjectIdEEE")
!74 = !DIFile(filename: "./xercesc/util/RefHashTableOf.hpp", directory: "/home/venkat/IF-DV/spec_build_release/CPU_2017/benchspec/CPU/523.xalancbmk_r/build/build_base_ld-loop-ext-m64.0000")
!75 = !DIDerivedType(tag: DW_TAG_member, name: "fLoadPool", scope: !40, file: !41, line: 731, baseType: !76, size: 64, offset: 704)
!76 = !DIDerivedType(tag: DW_TAG_pointer_type, baseType: !77, size: 64)
!77 = !DICompositeType(tag: DW_TAG_class_type, name: "ValueVectorOf<void *>", scope: !2, file: !78, line: 32, flags: DIFlagFwdDecl, identifier: "_ZTSN11xercesc_2_713ValueVectorOfIPvEE")
!78 = !DIFile(filename: "./xercesc/util/ValueVectorOf.hpp", directory: "/home/venkat/IF-DV/spec_build_release/CPU_2017/benchspec/CPU/523.xalancbmk_r/build/build_base_ld-loop-ext-m64.0000")
!79 = !DIDerivedType(tag: DW_TAG_member, name: "fObjectCount", scope: !40, file: !41, line: 736, baseType: !80, size: 32, offset: 768)
!80 = !DIDerivedType(tag: DW_TAG_typedef, name: "XSerializedObjectId_t", scope: !40, file: !41, line: 53, baseType: !81)
!81 = !DIBasicType(name: "unsigned int", size: 32, encoding: DW_ATE_unsigned)
!82 = !DISubprogram(name: "~XSerializeEngine", scope: !40, file: !41, line: 60, type: !83, scopeLine: 60, flags: DIFlagPublic | DIFlagPrototyped, spFlags: 0)
!83 = !DISubroutineType(types: !84)
!84 = !{null, !85}
!85 = !DIDerivedType(tag: DW_TAG_pointer_type, baseType: !40, size: 64, flags: DIFlagArtificial | DIFlagObjectPointer)
!86 = !DISubprogram(name: "XSerializeEngine", scope: !40, file: !41, line: 76, type: !87, scopeLine: 76, flags: DIFlagPublic | DIFlagPrototyped, spFlags: 0)
!87 = !DISubroutineType(types: !88)
!88 = !{null, !85, !56, !51, !63}
!89 = !DISubprogram(name: "XSerializeEngine", scope: !40, file: !41, line: 95, type: !90, scopeLine: 95, flags: DIFlagPublic | DIFlagPrototyped, spFlags: 0)
!90 = !DISubroutineType(types: !91)
!91 = !{null, !85, !60, !51, !63}
!92 = !DISubprogram(name: "XSerializeEngine", scope: !40, file: !41, line: 116, type: !93, scopeLine: 116, flags: DIFlagPublic | DIFlagPrototyped, spFlags: 0)
!93 = !DISubroutineType(types: !94)
!94 = !{null, !85, !56, !95, !63}
!95 = !DIDerivedType(tag: DW_TAG_const_type, baseType: !96)
!96 = !DIDerivedType(tag: DW_TAG_pointer_type, baseType: !97, size: 64)
!97 = !DICompositeType(tag: DW_TAG_class_type, name: "MemoryManager", scope: !2, file: !98, line: 38, flags: DIFlagFwdDecl, identifier: "_ZTSN11xercesc_2_713MemoryManagerE")
!98 = !DIFile(filename: "./xercesc/framework/MemoryManager.hpp", directory: "/home/venkat/IF-DV/spec_build_release/CPU_2017/benchspec/CPU/523.xalancbmk_r/build/build_base_ld-loop-ext-m64.0000")
!99 = !DISubprogram(name: "XSerializeEngine", scope: !40, file: !41, line: 137, type: !100, scopeLine: 137, flags: DIFlagPublic | DIFlagPrototyped, spFlags: 0)
!100 = !DISubroutineType(types: !101)
!101 = !{null, !85, !60, !95, !63}
!102 = !DISubprogram(name: "flush", linkageName: "_ZN11xercesc_2_716XSerializeEngine5flushEv", scope: !40, file: !41, line: 148, type: !83, scopeLine: 148, flags: DIFlagPublic | DIFlagPrototyped, spFlags: 0)
!103 = !DISubprogram(name: "isStoring", linkageName: "_ZNK11xercesc_2_716XSerializeEngine9isStoringEv", scope: !40, file: !41, line: 158, type: !104, scopeLine: 158, flags: DIFlagPublic | DIFlagPrototyped, spFlags: 0)
!104 = !DISubroutineType(types: !105)
!105 = !{!33, !106}
!106 = !DIDerivedType(tag: DW_TAG_pointer_type, baseType: !107, size: 64, flags: DIFlagArtificial | DIFlagObjectPointer)
!107 = !DIDerivedType(tag: DW_TAG_const_type, baseType: !40)
!108 = !DISubprogram(name: "isLoading", linkageName: "_ZNK11xercesc_2_716XSerializeEngine9isLoadingEv", scope: !40, file: !41, line: 168, type: !104, scopeLine: 168, flags: DIFlagPublic | DIFlagPrototyped, spFlags: 0)
!109 = !DISubprogram(name: "getGrammarPool", linkageName: "_ZNK11xercesc_2_716XSerializeEngine14getGrammarPoolEv", scope: !40, file: !41, line: 177, type: !110, scopeLine: 177, flags: DIFlagPublic | DIFlagPrototyped, spFlags: 0)
!110 = !DISubroutineType(types: !111)
!111 = !{!52, !106}
!112 = !DISubprogram(name: "getStringPool", linkageName: "_ZNK11xercesc_2_716XSerializeEngine13getStringPoolEv", scope: !40, file: !41, line: 186, type: !113, scopeLine: 186, flags: DIFlagPublic | DIFlagPrototyped, spFlags: 0)
!113 = !DISubroutineType(types: !114)
!114 = !{!115, !106}
!115 = !DIDerivedType(tag: DW_TAG_pointer_type, baseType: !116, size: 64)
!116 = !DICompositeType(tag: DW_TAG_class_type, name: "XMLStringPool", scope: !2, file: !117, line: 43, flags: DIFlagFwdDecl)
!117 = !DIFile(filename: "./xercesc/util/StringPool.hpp", directory: "/home/venkat/IF-DV/spec_build_release/CPU_2017/benchspec/CPU/523.xalancbmk_r/build/build_base_ld-loop-ext-m64.0000")
!118 = !DISubprogram(name: "getMemoryManager", linkageName: "_ZNK11xercesc_2_716XSerializeEngine16getMemoryManagerEv", scope: !40, file: !41, line: 195, type: !119, scopeLine: 195, flags: DIFlagPublic | DIFlagPrototyped, spFlags: 0)
!119 = !DISubroutineType(types: !120)
!120 = !{!96, !106}
!121 = !DISubprogram(name: "getStorerLevel", linkageName: "_ZNK11xercesc_2_716XSerializeEngine14getStorerLevelEv", scope: !40, file: !41, line: 209, type: !122, scopeLine: 209, flags: DIFlagPublic | DIFlagPrototyped, spFlags: 0)
!122 = !DISubroutineType(types: !123)
!123 = !{!124, !106}
!124 = !DIBasicType(name: "unsigned short", size: 16, encoding: DW_ATE_unsigned)
!125 = !DISubprogram(name: "write", linkageName: "_ZN11xercesc_2_716XSerializeEngine5writeEPNS_13XSerializableE", scope: !40, file: !41, line: 221, type: !126, scopeLine: 221, flags: DIFlagPublic | DIFlagPrototyped, spFlags: 0)
!126 = !DISubroutineType(types: !127)
!127 = !{null, !85, !128}
!128 = !DIDerivedType(tag: DW_TAG_const_type, baseType: !16)
!129 = !DISubprogram(name: "write", linkageName: "_ZN11xercesc_2_716XSerializeEngine5writeEPNS_10XProtoTypeE", scope: !40, file: !41, line: 233, type: !130, scopeLine: 233, flags: DIFlagPublic | DIFlagPrototyped, spFlags: 0)
!130 = !DISubroutineType(types: !131)
!131 = !{null, !85, !132}
!132 = !DIDerivedType(tag: DW_TAG_const_type, baseType: !133)
!133 = !DIDerivedType(tag: DW_TAG_pointer_type, baseType: !4, size: 64)
!134 = !DISubprogram(name: "write", linkageName: "_ZN11xercesc_2_716XSerializeEngine5writeEPKhi", scope: !40, file: !41, line: 246, type: !135, scopeLine: 246, flags: DIFlagPublic | DIFlagPrototyped, spFlags: 0)
!135 = !DISubroutineType(types: !136)
!136 = !{null, !85, !137, !25}
!137 = !DIDerivedType(tag: DW_TAG_const_type, baseType: !138)
!138 = !DIDerivedType(tag: DW_TAG_pointer_type, baseType: !139, size: 64)
!139 = !DIDerivedType(tag: DW_TAG_const_type, baseType: !9)
