; ModuleID = 'TokenFactory.cpp'
source_filename = "TokenFactory.cpp"
target datalayout = "e-m:e-p270:32:32-p271:32:32-p272:64:64-i64:64-f80:128-n8:16:32:64-S128"
target triple = "x86_64-unknown-linux-gnu"

%"class.xercesc_2_7::TokenFactory" = type { %"class.xercesc_2_7::RefVectorOf"*, %"class.xercesc_2_7::Token"*, %"class.xercesc_2_7::Token"*, %"class.xercesc_2_7::Token"*, %"class.xercesc_2_7::Token"*, %"class.xercesc_2_7::Token"*, %"class.xercesc_2_7::Token"*, %"class.xercesc_2_7::Token"*, %"class.xercesc_2_7::Token"*, %"class.xercesc_2_7::Token"*, %"class.xercesc_2_7::Token"*, %"class.xercesc_2_7::Token"*, %"class.xercesc_2_7::Token"*, %"class.xercesc_2_7::Token"*, %"class.xercesc_2_7::Token"*, %"class.xercesc_2_7::MemoryManager"* }
%"class.xercesc_2_7::RefVectorOf" = type { %"class.xercesc_2_7::BaseRefVectorOf" }
%"class.xercesc_2_7::BaseRefVectorOf" = type { i32 (...)**, i8, i32, i32, %"class.xercesc_2_7::Token"**, %"class.xercesc_2_7::MemoryManager"* }
%"class.xercesc_2_7::Token" = type { i32 (...)**, i16, %"class.xercesc_2_7::MemoryManager"* }
%"class.xercesc_2_7::MemoryManager" = type { i32 (...)** }
%"class.xercesc_2_7::XMLDeleter" = type { i32 (...)** }
%"class.xercesc_2_7::XMemory" = type { i8 }
%"class.xercesc_2_7::ParenToken" = type { %"class.xercesc_2_7::Token", i32, %"class.xercesc_2_7::Token"* }
%"class.xercesc_2_7::ClosureToken" = type { %"class.xercesc_2_7::Token", i32, i32, %"class.xercesc_2_7::Token"* }
%"class.xercesc_2_7::ConcatToken" = type { %"class.xercesc_2_7::Token", %"class.xercesc_2_7::Token"*, %"class.xercesc_2_7::Token"* }
%"class.xercesc_2_7::UnionToken" = type { %"class.xercesc_2_7::Token", %"class.xercesc_2_7::RefVectorOf"* }
%"class.xercesc_2_7::RangeToken" = type { %"class.xercesc_2_7::Token", i8, i8, i32, i32, i32, i32*, i32*, %"class.xercesc_2_7::RangeToken"*, %"class.xercesc_2_7::MemoryManager"* }
%"class.xercesc_2_7::CharToken" = type <{ %"class.xercesc_2_7::Token", i32, [4 x i8] }>
%"class.xercesc_2_7::StringToken" = type { %"class.xercesc_2_7::Token", i32, i16*, %"class.xercesc_2_7::MemoryManager"* }
%"class.xercesc_2_7::ModifierToken" = type { %"class.xercesc_2_7::Token", i32, i32, %"class.xercesc_2_7::Token"* }
%"class.xercesc_2_7::ConditionToken" = type { %"class.xercesc_2_7::Token", i32, %"class.xercesc_2_7::Token"*, %"class.xercesc_2_7::Token"*, %"class.xercesc_2_7::Token"* }
%"class.xercesc_2_7::RangeTokenMap" = type { %"class.xercesc_2_7::RefHashTableOf"*, %"class.xercesc_2_7::RefHashTableOf.0"*, %"class.xercesc_2_7::XMLStringPool"*, %"class.xercesc_2_7::TokenFactory"*, %"class.xercesc_2_7::XMLMutex" }
%"class.xercesc_2_7::RefHashTableOf" = type opaque
%"class.xercesc_2_7::RefHashTableOf.0" = type opaque
%"class.xercesc_2_7::XMLStringPool" = type opaque
%"class.xercesc_2_7::XMLMutex" = type { i8* }
%"class.xercesc_2_7::ArrayIndexOutOfBoundsException" = type { %"class.xercesc_2_7::XMLException" }
%"class.xercesc_2_7::XMLException" = type { i32 (...)**, i32, i8*, i32, i16*, %"class.xercesc_2_7::MemoryManager"* }

$_ZN11xercesc_2_710XMLDeleterD0Ev = comdat any

$_ZN11xercesc_2_710XMLDeleterD2Ev = comdat any

$_ZN11xercesc_2_77XMemoryC2Ev = comdat any

$_ZN11xercesc_2_711RefVectorOfINS_5TokenEEC2EjbPNS_13MemoryManagerE = comdat any

$_ZN11xercesc_2_715BaseRefVectorOfINS_5TokenEE10addElementEPS1_ = comdat any

$_ZN11xercesc_2_712TokenFactory8getRangeEPKtb = comdat any

$_ZN11xercesc_2_715BaseRefVectorOfINS_5TokenEEC2EjbPNS_13MemoryManagerE = comdat any

$_ZN11xercesc_2_711RefVectorOfINS_5TokenEED2Ev = comdat any

$_ZN11xercesc_2_711RefVectorOfINS_5TokenEED0Ev = comdat any

$_ZN11xercesc_2_715BaseRefVectorOfINS_5TokenEE12setElementAtEPS1_j = comdat any

$_ZN11xercesc_2_715BaseRefVectorOfINS_5TokenEE17removeAllElementsEv = comdat any

$_ZN11xercesc_2_715BaseRefVectorOfINS_5TokenEE15removeElementAtEj = comdat any

$_ZN11xercesc_2_715BaseRefVectorOfINS_5TokenEE17removeLastElementEv = comdat any

$_ZN11xercesc_2_715BaseRefVectorOfINS_5TokenEE7cleanupEv = comdat any

$_ZN11xercesc_2_715BaseRefVectorOfINS_5TokenEED2Ev = comdat any

$_ZN11xercesc_2_715BaseRefVectorOfINS_5TokenEED0Ev = comdat any

$__clang_call_terminate = comdat any

$_ZN11xercesc_2_730ArrayIndexOutOfBoundsExceptionC2EPKcjNS_10XMLExcepts5CodesEPNS_13MemoryManagerE = comdat any

$_ZN11xercesc_2_730ArrayIndexOutOfBoundsExceptionD2Ev = comdat any

$_ZN11xercesc_2_730ArrayIndexOutOfBoundsExceptionD0Ev = comdat any

$_ZNK11xercesc_2_730ArrayIndexOutOfBoundsException7getTypeEv = comdat any

$_ZNK11xercesc_2_730ArrayIndexOutOfBoundsException9duplicateEv = comdat any

$_ZN11xercesc_2_730ArrayIndexOutOfBoundsExceptionC2ERKS0_ = comdat any

$_ZN11xercesc_2_715BaseRefVectorOfINS_5TokenEE19ensureExtraCapacityEj = comdat any

$_ZTVN11xercesc_2_710XMLDeleterE = comdat any

$_ZTSN11xercesc_2_710XMLDeleterE = comdat any

$_ZTIN11xercesc_2_710XMLDeleterE = comdat any

$_ZTVN11xercesc_2_711RefVectorOfINS_5TokenEEE = comdat any

$_ZTSN11xercesc_2_711RefVectorOfINS_5TokenEEE = comdat any

$_ZTSN11xercesc_2_715BaseRefVectorOfINS_5TokenEEE = comdat any

$_ZTSN11xercesc_2_77XMemoryE = comdat any

$_ZTIN11xercesc_2_77XMemoryE = comdat any

$_ZTIN11xercesc_2_715BaseRefVectorOfINS_5TokenEEE = comdat any

$_ZTIN11xercesc_2_711RefVectorOfINS_5TokenEEE = comdat any

$_ZTVN11xercesc_2_715BaseRefVectorOfINS_5TokenEEE = comdat any

$_ZTSN11xercesc_2_730ArrayIndexOutOfBoundsExceptionE = comdat any

$_ZTIN11xercesc_2_730ArrayIndexOutOfBoundsExceptionE = comdat any

$_ZTVN11xercesc_2_730ArrayIndexOutOfBoundsExceptionE = comdat any

@_ZN11xercesc_2_7L9fgUniMarkE = internal constant [2 x i16] [i16 77, i16 0], align 2, !dbg !0
@_ZN11xercesc_2_7L13fgUniAssignedE = internal constant [9 x i16] [i16 65, i16 83, i16 83, i16 73, i16 71, i16 78, i16 69, i16 68, i16 0], align 16, !dbg !11
@_ZN11xercesc_2_7L12fgUniControlE = internal constant [2 x i16] [i16 67, i16 0], align 2, !dbg !16
@_ZN11xercesc_2_7L11fgUniLetterE = internal constant [2 x i16] [i16 76, i16 0], align 2, !dbg !18
@_ZTVN11xercesc_2_710XMLDeleterE = linkonce_odr dso_local unnamed_addr constant { [4 x i8*] } { [4 x i8*] [i8* null, i8* bitcast ({ i8*, i8* }* @_ZTIN11xercesc_2_710XMLDeleterE to i8*), i8* bitcast (void (%"class.xercesc_2_7::XMLDeleter"*)* @_ZN11xercesc_2_710XMLDeleterD2Ev to i8*), i8* bitcast (void (%"class.xercesc_2_7::XMLDeleter"*)* @_ZN11xercesc_2_710XMLDeleterD0Ev to i8*)] }, comdat, align 8
@_ZTVN10__cxxabiv117__class_type_infoE = external dso_local global i8*
@_ZTSN11xercesc_2_710XMLDeleterE = linkonce_odr dso_local constant [28 x i8] c"N11xercesc_2_710XMLDeleterE\00", comdat, align 1
@_ZTIN11xercesc_2_710XMLDeleterE = linkonce_odr dso_local constant { i8*, i8* } { i8* bitcast (i8** getelementptr inbounds (i8*, i8** @_ZTVN10__cxxabiv117__class_type_infoE, i64 2) to i8*), i8* getelementptr inbounds ([28 x i8], [28 x i8]* @_ZTSN11xercesc_2_710XMLDeleterE, i32 0, i32 0) }, comdat, align 8
@_ZTVN11xercesc_2_711RefVectorOfINS_5TokenEEE = linkonce_odr dso_local unnamed_addr constant { [9 x i8*] } { [9 x i8*] [i8* null, i8* bitcast ({ i8*, i8*, i8* }* @_ZTIN11xercesc_2_711RefVectorOfINS_5TokenEEE to i8*), i8* bitcast (void (%"class.xercesc_2_7::RefVectorOf"*)* @_ZN11xercesc_2_711RefVectorOfINS_5TokenEED2Ev to i8*), i8* bitcast (void (%"class.xercesc_2_7::RefVectorOf"*)* @_ZN11xercesc_2_711RefVectorOfINS_5TokenEED0Ev to i8*), i8* bitcast (void (%"class.xercesc_2_7::BaseRefVectorOf"*, %"class.xercesc_2_7::Token"*, i32)* @_ZN11xercesc_2_715BaseRefVectorOfINS_5TokenEE12setElementAtEPS1_j to i8*), i8* bitcast (void (%"class.xercesc_2_7::BaseRefVectorOf"*)* @_ZN11xercesc_2_715BaseRefVectorOfINS_5TokenEE17removeAllElementsEv to i8*), i8* bitcast (void (%"class.xercesc_2_7::BaseRefVectorOf"*, i32)* @_ZN11xercesc_2_715BaseRefVectorOfINS_5TokenEE15removeElementAtEj to i8*), i8* bitcast (void (%"class.xercesc_2_7::BaseRefVectorOf"*)* @_ZN11xercesc_2_715BaseRefVectorOfINS_5TokenEE17removeLastElementEv to i8*), i8* bitcast (void (%"class.xercesc_2_7::BaseRefVectorOf"*)* @_ZN11xercesc_2_715BaseRefVectorOfINS_5TokenEE7cleanupEv to i8*)] }, comdat, align 8
@_ZTVN10__cxxabiv120__si_class_type_infoE = external dso_local global i8*
@_ZTSN11xercesc_2_711RefVectorOfINS_5TokenEEE = linkonce_odr dso_local constant [41 x i8] c"N11xercesc_2_711RefVectorOfINS_5TokenEEE\00", comdat, align 1
@_ZTSN11xercesc_2_715BaseRefVectorOfINS_5TokenEEE = linkonce_odr dso_local constant [45 x i8] c"N11xercesc_2_715BaseRefVectorOfINS_5TokenEEE\00", comdat, align 1
@_ZTSN11xercesc_2_77XMemoryE = linkonce_odr dso_local constant [24 x i8] c"N11xercesc_2_77XMemoryE\00", comdat, align 1
@_ZTIN11xercesc_2_77XMemoryE = linkonce_odr dso_local constant { i8*, i8* } { i8* bitcast (i8** getelementptr inbounds (i8*, i8** @_ZTVN10__cxxabiv117__class_type_infoE, i64 2) to i8*), i8* getelementptr inbounds ([24 x i8], [24 x i8]* @_ZTSN11xercesc_2_77XMemoryE, i32 0, i32 0) }, comdat, align 8
@_ZTIN11xercesc_2_715BaseRefVectorOfINS_5TokenEEE = linkonce_odr dso_local constant { i8*, i8*, i8* } { i8* bitcast (i8** getelementptr inbounds (i8*, i8** @_ZTVN10__cxxabiv120__si_class_type_infoE, i64 2) to i8*), i8* getelementptr inbounds ([45 x i8], [45 x i8]* @_ZTSN11xercesc_2_715BaseRefVectorOfINS_5TokenEEE, i32 0, i32 0), i8* bitcast ({ i8*, i8* }* @_ZTIN11xercesc_2_77XMemoryE to i8*) }, comdat, align 8
@_ZTIN11xercesc_2_711RefVectorOfINS_5TokenEEE = linkonce_odr dso_local constant { i8*, i8*, i8* } { i8* bitcast (i8** getelementptr inbounds (i8*, i8** @_ZTVN10__cxxabiv120__si_class_type_infoE, i64 2) to i8*), i8* getelementptr inbounds ([41 x i8], [41 x i8]* @_ZTSN11xercesc_2_711RefVectorOfINS_5TokenEEE, i32 0, i32 0), i8* bitcast ({ i8*, i8*, i8* }* @_ZTIN11xercesc_2_715BaseRefVectorOfINS_5TokenEEE to i8*) }, comdat, align 8
@_ZTVN11xercesc_2_715BaseRefVectorOfINS_5TokenEEE = linkonce_odr dso_local unnamed_addr constant { [9 x i8*] } { [9 x i8*] [i8* null, i8* bitcast ({ i8*, i8*, i8* }* @_ZTIN11xercesc_2_715BaseRefVectorOfINS_5TokenEEE to i8*), i8* bitcast (void (%"class.xercesc_2_7::BaseRefVectorOf"*)* @_ZN11xercesc_2_715BaseRefVectorOfINS_5TokenEED2Ev to i8*), i8* bitcast (void (%"class.xercesc_2_7::BaseRefVectorOf"*)* @_ZN11xercesc_2_715BaseRefVectorOfINS_5TokenEED0Ev to i8*), i8* bitcast (void (%"class.xercesc_2_7::BaseRefVectorOf"*, %"class.xercesc_2_7::Token"*, i32)* @_ZN11xercesc_2_715BaseRefVectorOfINS_5TokenEE12setElementAtEPS1_j to i8*), i8* bitcast (void (%"class.xercesc_2_7::BaseRefVectorOf"*)* @_ZN11xercesc_2_715BaseRefVectorOfINS_5TokenEE17removeAllElementsEv to i8*), i8* bitcast (void (%"class.xercesc_2_7::BaseRefVectorOf"*, i32)* @_ZN11xercesc_2_715BaseRefVectorOfINS_5TokenEE15removeElementAtEj to i8*), i8* bitcast (void (%"class.xercesc_2_7::BaseRefVectorOf"*)* @_ZN11xercesc_2_715BaseRefVectorOfINS_5TokenEE17removeLastElementEv to i8*), i8* bitcast (void (%"class.xercesc_2_7::BaseRefVectorOf"*)* @_ZN11xercesc_2_715BaseRefVectorOfINS_5TokenEE7cleanupEv to i8*)] }, comdat, align 8
@.str = private unnamed_addr constant [33 x i8] c"./xercesc/util/BaseRefVectorOf.c\00", align 1
@_ZTSN11xercesc_2_730ArrayIndexOutOfBoundsExceptionE = linkonce_odr dso_local constant [48 x i8] c"N11xercesc_2_730ArrayIndexOutOfBoundsExceptionE\00", comdat, align 1
@_ZTIN11xercesc_2_712XMLExceptionE = external dso_local constant i8*
@_ZTIN11xercesc_2_730ArrayIndexOutOfBoundsExceptionE = linkonce_odr dso_local constant { i8*, i8*, i8* } { i8* bitcast (i8** getelementptr inbounds (i8*, i8** @_ZTVN10__cxxabiv120__si_class_type_infoE, i64 2) to i8*), i8* getelementptr inbounds ([48 x i8], [48 x i8]* @_ZTSN11xercesc_2_730ArrayIndexOutOfBoundsExceptionE, i32 0, i32 0), i8* bitcast (i8** @_ZTIN11xercesc_2_712XMLExceptionE to i8*) }, comdat, align 8
@_ZTVN11xercesc_2_730ArrayIndexOutOfBoundsExceptionE = linkonce_odr dso_local unnamed_addr constant { [6 x i8*] } { [6 x i8*] [i8* null, i8* bitcast ({ i8*, i8*, i8* }* @_ZTIN11xercesc_2_730ArrayIndexOutOfBoundsExceptionE to i8*), i8* bitcast (void (%"class.xercesc_2_7::ArrayIndexOutOfBoundsException"*)* @_ZN11xercesc_2_730ArrayIndexOutOfBoundsExceptionD2Ev to i8*), i8* bitcast (void (%"class.xercesc_2_7::ArrayIndexOutOfBoundsException"*)* @_ZN11xercesc_2_730ArrayIndexOutOfBoundsExceptionD0Ev to i8*), i8* bitcast (i16* (%"class.xercesc_2_7::ArrayIndexOutOfBoundsException"*)* @_ZNK11xercesc_2_730ArrayIndexOutOfBoundsException7getTypeEv to i8*), i8* bitcast (%"class.xercesc_2_7::XMLException"* (%"class.xercesc_2_7::ArrayIndexOutOfBoundsException"*)* @_ZNK11xercesc_2_730ArrayIndexOutOfBoundsException9duplicateEv to i8*)] }, comdat, align 8
@_ZN11xercesc_2_76XMLUni37fgArrayIndexOutOfBoundsException_NameE = external dso_local constant [0 x i16], align 2

@_ZN11xercesc_2_712TokenFactoryC1EPNS_13MemoryManagerE = dso_local unnamed_addr alias void (%"class.xercesc_2_7::TokenFactory"*, %"class.xercesc_2_7::MemoryManager"*), void (%"class.xercesc_2_7::TokenFactory"*, %"class.xercesc_2_7::MemoryManager"*)* @_ZN11xercesc_2_712TokenFactoryC2EPNS_13MemoryManagerE
@_ZN11xercesc_2_712TokenFactoryD1Ev = dso_local unnamed_addr alias void (%"class.xercesc_2_7::TokenFactory"*), void (%"class.xercesc_2_7::TokenFactory"*)* @_ZN11xercesc_2_712TokenFactoryD2Ev

; Function Attrs: nounwind readnone speculatable willreturn
declare void @llvm.dbg.declare(metadata, metadata, metadata) #0

; Function Attrs: noinline nounwind uwtable
define linkonce_odr dso_local void @_ZN11xercesc_2_710XMLDeleterD0Ev(%"class.xercesc_2_7::XMLDeleter"* %this) unnamed_addr #1 comdat align 2 !dbg !879 {
entry:
  %this.addr = alloca %"class.xercesc_2_7::XMLDeleter"*, align 8
  store %"class.xercesc_2_7::XMLDeleter"* %this, %"class.xercesc_2_7::XMLDeleter"** %this.addr, align 8
  call void @llvm.dbg.declare(metadata %"class.xercesc_2_7::XMLDeleter"** %this.addr, metadata !901, metadata !DIExpression()), !dbg !903
  %this1 = load %"class.xercesc_2_7::XMLDeleter"*, %"class.xercesc_2_7::XMLDeleter"** %this.addr, align 8
  call void @_ZN11xercesc_2_710XMLDeleterD2Ev(%"class.xercesc_2_7::XMLDeleter"* %this1) #7, !dbg !904
  %0 = bitcast %"class.xercesc_2_7::XMLDeleter"* %this1 to i8*, !dbg !904
  call void @_ZdlPv(i8* %0) #8, !dbg !904
  ret void, !dbg !905
}

; Function Attrs: noinline nounwind uwtable
define linkonce_odr dso_local void @_ZN11xercesc_2_710XMLDeleterD2Ev(%"class.xercesc_2_7::XMLDeleter"* %this) unnamed_addr #1 comdat align 2 !dbg !906 {
entry:
  %this.addr = alloca %"class.xercesc_2_7::XMLDeleter"*, align 8
  store %"class.xercesc_2_7::XMLDeleter"* %this, %"class.xercesc_2_7::XMLDeleter"** %this.addr, align 8
  call void @llvm.dbg.declare(metadata %"class.xercesc_2_7::XMLDeleter"** %this.addr, metadata !907, metadata !DIExpression()), !dbg !908
  %this1 = load %"class.xercesc_2_7::XMLDeleter"*, %"class.xercesc_2_7::XMLDeleter"** %this.addr, align 8
  ret void, !dbg !909
}

; Function Attrs: nobuiltin nounwind
declare dso_local void @_ZdlPv(i8*) #2

; Function Attrs: noinline uwtable
define dso_local void @_ZN11xercesc_2_712TokenFactoryC2EPNS_13MemoryManagerE(%"class.xercesc_2_7::TokenFactory"* %this, %"class.xercesc_2_7::MemoryManager"* %manager) unnamed_addr #3 align 2 personality i8* bitcast (i32 (...)* @__gxx_personality_v0 to i8*) !dbg !910 {
entry:
  %this.addr = alloca %"class.xercesc_2_7::TokenFactory"*, align 8
  %manager.addr = alloca %"class.xercesc_2_7::MemoryManager"*, align 8
  %exn.slot = alloca i8*
  %ehselector.slot = alloca i32
  store %"class.xercesc_2_7::TokenFactory"* %this, %"class.xercesc_2_7::TokenFactory"** %this.addr, align 8
  call void @llvm.dbg.declare(metadata %"class.xercesc_2_7::TokenFactory"** %this.addr, metadata !1155, metadata !DIExpression()), !dbg !1157
  store %"class.xercesc_2_7::MemoryManager"* %manager, %"class.xercesc_2_7::MemoryManager"** %manager.addr, align 8
  call void @llvm.dbg.declare(metadata %"class.xercesc_2_7::MemoryManager"** %manager.addr, metadata !1158, metadata !DIExpression()), !dbg !1159
  %this1 = load %"class.xercesc_2_7::TokenFactory"*, %"class.xercesc_2_7::TokenFactory"** %this.addr, align 8
  %0 = bitcast %"class.xercesc_2_7::TokenFactory"* %this1 to %"class.xercesc_2_7::XMemory"*, !dbg !1160
  call void @_ZN11xercesc_2_77XMemoryC2Ev(%"class.xercesc_2_7::XMemory"* %0), !dbg !1161
  %fTokens = getelementptr inbounds %"class.xercesc_2_7::TokenFactory", %"class.xercesc_2_7::TokenFactory"* %this1, i32 0, i32 0, !dbg !1162
  %1 = load %"class.xercesc_2_7::MemoryManager"*, %"class.xercesc_2_7::MemoryManager"** %manager.addr, align 8, !dbg !1163
  %call = call i8* @_ZN11xercesc_2_77XMemorynwEmPNS_13MemoryManagerE(i64 40, %"class.xercesc_2_7::MemoryManager"* %1), !dbg !1164
  %2 = bitcast i8* %call to %"class.xercesc_2_7::RefVectorOf"*, !dbg !1164
  %3 = load %"class.xercesc_2_7::MemoryManager"*, %"class.xercesc_2_7::MemoryManager"** %manager.addr, align 8, !dbg !1165
  invoke void @_ZN11xercesc_2_711RefVectorOfINS_5TokenEEC2EjbPNS_13MemoryManagerE(%"class.xercesc_2_7::RefVectorOf"* %2, i32 16, i1 zeroext true, %"class.xercesc_2_7::MemoryManager"* %3)
          to label %invoke.cont unwind label %lpad, !dbg !1166

invoke.cont:                                      ; preds = %entry
  store %"class.xercesc_2_7::RefVectorOf"* %2, %"class.xercesc_2_7::RefVectorOf"** %fTokens, align 8, !dbg !1162
  %fEmpty = getelementptr inbounds %"class.xercesc_2_7::TokenFactory", %"class.xercesc_2_7::TokenFactory"* %this1, i32 0, i32 1, !dbg !1167
  store %"class.xercesc_2_7::Token"* null, %"class.xercesc_2_7::Token"** %fEmpty, align 8, !dbg !1167
  %fLineBegin = getelementptr inbounds %"class.xercesc_2_7::TokenFactory", %"class.xercesc_2_7::TokenFactory"* %this1, i32 0, i32 2, !dbg !1168
  store %"class.xercesc_2_7::Token"* null, %"class.xercesc_2_7::Token"** %fLineBegin, align 8, !dbg !1168
  %fLineBegin2 = getelementptr inbounds %"class.xercesc_2_7::TokenFactory", %"class.xercesc_2_7::TokenFactory"* %this1, i32 0, i32 3, !dbg !1169
  store %"class.xercesc_2_7::Token"* null, %"class.xercesc_2_7::Token"** %fLineBegin2, align 8, !dbg !1169
  %fLineEnd = getelementptr inbounds %"class.xercesc_2_7::TokenFactory", %"class.xercesc_2_7::TokenFactory"* %this1, i32 0, i32 4, !dbg !1170
  store %"class.xercesc_2_7::Token"* null, %"class.xercesc_2_7::Token"** %fLineEnd, align 8, !dbg !1170
  %fStringBegin = getelementptr inbounds %"class.xercesc_2_7::TokenFactory", %"class.xercesc_2_7::TokenFactory"* %this1, i32 0, i32 5, !dbg !1171
  store %"class.xercesc_2_7::Token"* null, %"class.xercesc_2_7::Token"** %fStringBegin, align 8, !dbg !1171
  %fStringEnd = getelementptr inbounds %"class.xercesc_2_7::TokenFactory", %"class.xercesc_2_7::TokenFactory"* %this1, i32 0, i32 6, !dbg !1172
  store %"class.xercesc_2_7::Token"* null, %"class.xercesc_2_7::Token"** %fStringEnd, align 8, !dbg !1172
  %fStringEnd2 = getelementptr inbounds %"class.xercesc_2_7::TokenFactory", %"class.xercesc_2_7::TokenFactory"* %this1, i32 0, i32 7, !dbg !1173
  store %"class.xercesc_2_7::Token"* null, %"class.xercesc_2_7::Token"** %fStringEnd2, align 8, !dbg !1173
  %fWordEdge = getelementptr inbounds %"class.xercesc_2_7::TokenFactory", %"class.xercesc_2_7::TokenFactory"* %this1, i32 0, i32 8, !dbg !1174
  store %"class.xercesc_2_7::Token"* null, %"class.xercesc_2_7::Token"** %fWordEdge, align 8, !dbg !1174
  %fNotWordEdge = getelementptr inbounds %"class.xercesc_2_7::TokenFactory", %"class.xercesc_2_7::TokenFactory"* %this1, i32 0, i32 9, !dbg !1175
  store %"class.xercesc_2_7::Token"* null, %"class.xercesc_2_7::Token"** %fNotWordEdge, align 8, !dbg !1175
  %fWordEnd = getelementptr inbounds %"class.xercesc_2_7::TokenFactory", %"class.xercesc_2_7::TokenFactory"* %this1, i32 0, i32 10, !dbg !1176
  store %"class.xercesc_2_7::Token"* null, %"class.xercesc_2_7::Token"** %fWordEnd, align 8, !dbg !1176
  %fWordBegin = getelementptr inbounds %"class.xercesc_2_7::TokenFactory", %"class.xercesc_2_7::TokenFactory"* %this1, i32 0, i32 11, !dbg !1177
  store %"class.xercesc_2_7::Token"* null, %"class.xercesc_2_7::Token"** %fWordBegin, align 8, !dbg !1177
  %fDot = getelementptr inbounds %"class.xercesc_2_7::TokenFactory", %"class.xercesc_2_7::TokenFactory"* %this1, i32 0, i32 12, !dbg !1178
  store %"class.xercesc_2_7::Token"* null, %"class.xercesc_2_7::Token"** %fDot, align 8, !dbg !1178
  %fCombiningChar = getelementptr inbounds %"class.xercesc_2_7::TokenFactory", %"class.xercesc_2_7::TokenFactory"* %this1, i32 0, i32 13, !dbg !1179
  store %"class.xercesc_2_7::Token"* null, %"class.xercesc_2_7::Token"** %fCombiningChar, align 8, !dbg !1179
  %fGrapheme = getelementptr inbounds %"class.xercesc_2_7::TokenFactory", %"class.xercesc_2_7::TokenFactory"* %this1, i32 0, i32 14, !dbg !1180
  store %"class.xercesc_2_7::Token"* null, %"class.xercesc_2_7::Token"** %fGrapheme, align 8, !dbg !1180
  %fMemoryManager = getelementptr inbounds %"class.xercesc_2_7::TokenFactory", %"class.xercesc_2_7::TokenFactory"* %this1, i32 0, i32 15, !dbg !1181
  %4 = load %"class.xercesc_2_7::MemoryManager"*, %"class.xercesc_2_7::MemoryManager"** %manager.addr, align 8, !dbg !1182
  store %"class.xercesc_2_7::MemoryManager"* %4, %"class.xercesc_2_7::MemoryManager"** %fMemoryManager, align 8, !dbg !1181
  ret void, !dbg !1183

lpad:                                             ; preds = %entry
  %5 = landingpad { i8*, i32 }
          cleanup, !dbg !1183
  %6 = extractvalue { i8*, i32 } %5, 0, !dbg !1183
  store i8* %6, i8** %exn.slot, align 8, !dbg !1183
  %7 = extractvalue { i8*, i32 } %5, 1, !dbg !1183
  store i32 %7, i32* %ehselector.slot, align 4, !dbg !1183
  call void @_ZN11xercesc_2_77XMemorydlEPvPNS_13MemoryManagerE(i8* %call, %"class.xercesc_2_7::MemoryManager"* %1) #7, !dbg !1164
  br label %eh.resume, !dbg !1164

eh.resume:                                        ; preds = %lpad
  %exn = load i8*, i8** %exn.slot, align 8, !dbg !1164
  %sel = load i32, i32* %ehselector.slot, align 4, !dbg !1164
  %lpad.val = insertvalue { i8*, i32 } undef, i8* %exn, 0, !dbg !1164
  %lpad.val2 = insertvalue { i8*, i32 } %lpad.val, i32 %sel, 1, !dbg !1164
  resume { i8*, i32 } %lpad.val2, !dbg !1164
}

; Function Attrs: noinline nounwind uwtable
define linkonce_odr dso_local void @_ZN11xercesc_2_77XMemoryC2Ev(%"class.xercesc_2_7::XMemory"* %this) unnamed_addr #1 comdat align 2 !dbg !1184 {
entry:
  %this.addr = alloca %"class.xercesc_2_7::XMemory"*, align 8
  store %"class.xercesc_2_7::XMemory"* %this, %"class.xercesc_2_7::XMemory"** %this.addr, align 8
  call void @llvm.dbg.declare(metadata %"class.xercesc_2_7::XMemory"** %this.addr, metadata !1185, metadata !DIExpression()), !dbg !1187
  %this1 = load %"class.xercesc_2_7::XMemory"*, %"class.xercesc_2_7::XMemory"** %this.addr, align 8
  ret void, !dbg !1188
}

declare dso_local i8* @_ZN11xercesc_2_77XMemorynwEmPNS_13MemoryManagerE(i64, %"class.xercesc_2_7::MemoryManager"*) #4

; Function Attrs: noinline uwtable
define linkonce_odr dso_local void @_ZN11xercesc_2_711RefVectorOfINS_5TokenEEC2EjbPNS_13MemoryManagerE(%"class.xercesc_2_7::RefVectorOf"* %this, i32 %maxElems, i1 zeroext %adoptElems, %"class.xercesc_2_7::MemoryManager"* %manager) unnamed_addr #3 comdat align 2 !dbg !1189 {
entry:
  %this.addr = alloca %"class.xercesc_2_7::RefVectorOf"*, align 8
  %maxElems.addr = alloca i32, align 4
  %adoptElems.addr = alloca i8, align 1
  %manager.addr = alloca %"class.xercesc_2_7::MemoryManager"*, align 8
  store %"class.xercesc_2_7::RefVectorOf"* %this, %"class.xercesc_2_7::RefVectorOf"** %this.addr, align 8
  call void @llvm.dbg.declare(metadata %"class.xercesc_2_7::RefVectorOf"** %this.addr, metadata !1191, metadata !DIExpression()), !dbg !1192
  store i32 %maxElems, i32* %maxElems.addr, align 4
  call void @llvm.dbg.declare(metadata i32* %maxElems.addr, metadata !1193, metadata !DIExpression()), !dbg !1194
  %frombool = zext i1 %adoptElems to i8
  store i8 %frombool, i8* %adoptElems.addr, align 1
  call void @llvm.dbg.declare(metadata i8* %adoptElems.addr, metadata !1195, metadata !DIExpression()), !dbg !1196
  store %"class.xercesc_2_7::MemoryManager"* %manager, %"class.xercesc_2_7::MemoryManager"** %manager.addr, align 8
  call void @llvm.dbg.declare(metadata %"class.xercesc_2_7::MemoryManager"** %manager.addr, metadata !1197, metadata !DIExpression()), !dbg !1198
  %this1 = load %"class.xercesc_2_7::RefVectorOf"*, %"class.xercesc_2_7::RefVectorOf"** %this.addr, align 8
  %0 = bitcast %"class.xercesc_2_7::RefVectorOf"* %this1 to %"class.xercesc_2_7::BaseRefVectorOf"*, !dbg !1199
  %1 = load i32, i32* %maxElems.addr, align 4, !dbg !1200
  %2 = load i8, i8* %adoptElems.addr, align 1, !dbg !1201
  %tobool = trunc i8 %2 to i1, !dbg !1201
  %3 = load %"class.xercesc_2_7::MemoryManager"*, %"class.xercesc_2_7::MemoryManager"** %manager.addr, align 8, !dbg !1202
  call void @_ZN11xercesc_2_715BaseRefVectorOfINS_5TokenEEC2EjbPNS_13MemoryManagerE(%"class.xercesc_2_7::BaseRefVectorOf"* %0, i32 %1, i1 zeroext %tobool, %"class.xercesc_2_7::MemoryManager"* %3), !dbg !1203
  %4 = bitcast %"class.xercesc_2_7::RefVectorOf"* %this1 to i32 (...)***, !dbg !1199
  store i32 (...)** bitcast (i8** getelementptr inbounds ({ [9 x i8*] }, { [9 x i8*] }* @_ZTVN11xercesc_2_711RefVectorOfINS_5TokenEEE, i32 0, inrange i32 0, i32 2) to i32 (...)**), i32 (...)*** %4, align 8, !dbg !1199
  ret void, !dbg !1204
}

declare dso_local i32 @__gxx_personality_v0(...)

; Function Attrs: nounwind
declare dso_local void @_ZN11xercesc_2_77XMemorydlEPvPNS_13MemoryManagerE(i8*, %"class.xercesc_2_7::MemoryManager"*) #5

; Function Attrs: noinline nounwind uwtable
define dso_local void @_ZN11xercesc_2_712TokenFactoryD2Ev(%"class.xercesc_2_7::TokenFactory"* %this) unnamed_addr #1 align 2 !dbg !1205 {
entry:
  %this.addr = alloca %"class.xercesc_2_7::TokenFactory"*, align 8
  store %"class.xercesc_2_7::TokenFactory"* %this, %"class.xercesc_2_7::TokenFactory"** %this.addr, align 8
  call void @llvm.dbg.declare(metadata %"class.xercesc_2_7::TokenFactory"** %this.addr, metadata !1206, metadata !DIExpression()), !dbg !1207
  %this1 = load %"class.xercesc_2_7::TokenFactory"*, %"class.xercesc_2_7::TokenFactory"** %this.addr, align 8
  %fTokens = getelementptr inbounds %"class.xercesc_2_7::TokenFactory", %"class.xercesc_2_7::TokenFactory"* %this1, i32 0, i32 0, !dbg !1208
  %0 = load %"class.xercesc_2_7::RefVectorOf"*, %"class.xercesc_2_7::RefVectorOf"** %fTokens, align 8, !dbg !1208
  %isnull = icmp eq %"class.xercesc_2_7::RefVectorOf"* %0, null, !dbg !1210
  br i1 %isnull, label %delete.end, label %delete.notnull, !dbg !1210

delete.notnull:                                   ; preds = %entry
  %1 = bitcast %"class.xercesc_2_7::RefVectorOf"* %0 to void (%"class.xercesc_2_7::RefVectorOf"*)***, !dbg !1210
  %vtable = load void (%"class.xercesc_2_7::RefVectorOf"*)**, void (%"class.xercesc_2_7::RefVectorOf"*)*** %1, align 8, !dbg !1210
  %vfn = getelementptr inbounds void (%"class.xercesc_2_7::RefVectorOf"*)*, void (%"class.xercesc_2_7::RefVectorOf"*)** %vtable, i64 1, !dbg !1210
  %2 = load void (%"class.xercesc_2_7::RefVectorOf"*)*, void (%"class.xercesc_2_7::RefVectorOf"*)** %vfn, align 8, !dbg !1210
  call void %2(%"class.xercesc_2_7::RefVectorOf"* %0) #7, !dbg !1210
  br label %delete.end, !dbg !1210

delete.end:                                       ; preds = %delete.notnull, %entry
  %fTokens2 = getelementptr inbounds %"class.xercesc_2_7::TokenFactory", %"class.xercesc_2_7::TokenFactory"* %this1, i32 0, i32 0, !dbg !1211
  store %"class.xercesc_2_7::RefVectorOf"* null, %"class.xercesc_2_7::RefVectorOf"** %fTokens2, align 8, !dbg !1212
  ret void, !dbg !1213
}

; Function Attrs: noinline uwtable
define dso_local %"class.xercesc_2_7::Token"* @_ZN11xercesc_2_712TokenFactory11createTokenEt(%"class.xercesc_2_7::TokenFactory"* %this, i16 zeroext %tokType) #3 align 2 personality i8* bitcast (i32 (...)* @__gxx_personality_v0 to i8*) !dbg !1214 {
entry:
  %retval = alloca %"class.xercesc_2_7::Token"*, align 8
  %this.addr = alloca %"class.xercesc_2_7::TokenFactory"*, align 8
  %tokType.addr = alloca i16, align 2
  %tmpTok = alloca %"class.xercesc_2_7::Token"*, align 8
  %exn.slot = alloca i8*
  %ehselector.slot = alloca i32
  store %"class.xercesc_2_7::TokenFactory"* %this, %"class.xercesc_2_7::TokenFactory"** %this.addr, align 8
  call void @llvm.dbg.declare(metadata %"class.xercesc_2_7::TokenFactory"** %this.addr, metadata !1215, metadata !DIExpression()), !dbg !1216
  store i16 %tokType, i16* %tokType.addr, align 2
  call void @llvm.dbg.declare(metadata i16* %tokType.addr, metadata !1217, metadata !DIExpression()), !dbg !1218
  %this1 = load %"class.xercesc_2_7::TokenFactory"*, %"class.xercesc_2_7::TokenFactory"** %this.addr, align 8
  %0 = load i16, i16* %tokType.addr, align 2, !dbg !1219
  %conv = zext i16 %0 to i32, !dbg !1219
  %cmp = icmp eq i32 %conv, 7, !dbg !1221
  br i1 %cmp, label %land.lhs.true, label %if.end, !dbg !1222

land.lhs.true:                                    ; preds = %entry
  %fEmpty = getelementptr inbounds %"class.xercesc_2_7::TokenFactory", %"class.xercesc_2_7::TokenFactory"* %this1, i32 0, i32 1, !dbg !1223
  %1 = load %"class.xercesc_2_7::Token"*, %"class.xercesc_2_7::Token"** %fEmpty, align 8, !dbg !1223
  %cmp2 = icmp ne %"class.xercesc_2_7::Token"* %1, null, !dbg !1224
  br i1 %cmp2, label %if.then, label %if.end, !dbg !1225

if.then:                                          ; preds = %land.lhs.true
  %fEmpty3 = getelementptr inbounds %"class.xercesc_2_7::TokenFactory", %"class.xercesc_2_7::TokenFactory"* %this1, i32 0, i32 1, !dbg !1226
  %2 = load %"class.xercesc_2_7::Token"*, %"class.xercesc_2_7::Token"** %fEmpty3, align 8, !dbg !1226
  store %"class.xercesc_2_7::Token"* %2, %"class.xercesc_2_7::Token"** %retval, align 8, !dbg !1227
  br label %return, !dbg !1227

if.end:                                           ; preds = %land.lhs.true, %entry
  call void @llvm.dbg.declare(metadata %"class.xercesc_2_7::Token"** %tmpTok, metadata !1228, metadata !DIExpression()), !dbg !1229
  %fMemoryManager = getelementptr inbounds %"class.xercesc_2_7::TokenFactory", %"class.xercesc_2_7::TokenFactory"* %this1, i32 0, i32 15, !dbg !1230
  %3 = load %"class.xercesc_2_7::MemoryManager"*, %"class.xercesc_2_7::MemoryManager"** %fMemoryManager, align 8, !dbg !1230
  %call = call i8* @_ZN11xercesc_2_77XMemorynwEmPNS_13MemoryManagerE(i64 24, %"class.xercesc_2_7::MemoryManager"* %3), !dbg !1231
  %4 = bitcast i8* %call to %"class.xercesc_2_7::Token"*, !dbg !1231
  %5 = load i16, i16* %tokType.addr, align 2, !dbg !1232
  %fMemoryManager4 = getelementptr inbounds %"class.xercesc_2_7::TokenFactory", %"class.xercesc_2_7::TokenFactory"* %this1, i32 0, i32 15, !dbg !1233
  %6 = load %"class.xercesc_2_7::MemoryManager"*, %"class.xercesc_2_7::MemoryManager"** %fMemoryManager4, align 8, !dbg !1233
  invoke void @_ZN11xercesc_2_75TokenC1EtPNS_13MemoryManagerE(%"class.xercesc_2_7::Token"* %4, i16 zeroext %5, %"class.xercesc_2_7::MemoryManager"* %6)
          to label %invoke.cont unwind label %lpad, !dbg !1234

invoke.cont:                                      ; preds = %if.end
  store %"class.xercesc_2_7::Token"* %4, %"class.xercesc_2_7::Token"** %tmpTok, align 8, !dbg !1229
  %7 = load i16, i16* %tokType.addr, align 2, !dbg !1235
  %conv5 = zext i16 %7 to i32, !dbg !1235
  %cmp6 = icmp eq i32 %conv5, 7, !dbg !1237
  br i1 %cmp6, label %if.then7, label %if.end9, !dbg !1238

if.then7:                                         ; preds = %invoke.cont
  %8 = load %"class.xercesc_2_7::Token"*, %"class.xercesc_2_7::Token"** %tmpTok, align 8, !dbg !1239
  %fEmpty8 = getelementptr inbounds %"class.xercesc_2_7::TokenFactory", %"class.xercesc_2_7::TokenFactory"* %this1, i32 0, i32 1, !dbg !1241
  store %"class.xercesc_2_7::Token"* %8, %"class.xercesc_2_7::Token"** %fEmpty8, align 8, !dbg !1242
  br label %if.end9, !dbg !1243

lpad:                                             ; preds = %if.end
  %9 = landingpad { i8*, i32 }
          cleanup, !dbg !1244
  %10 = extractvalue { i8*, i32 } %9, 0, !dbg !1244
  store i8* %10, i8** %exn.slot, align 8, !dbg !1244
  %11 = extractvalue { i8*, i32 } %9, 1, !dbg !1244
  store i32 %11, i32* %ehselector.slot, align 4, !dbg !1244
  call void @_ZN11xercesc_2_77XMemorydlEPvPNS_13MemoryManagerE(i8* %call, %"class.xercesc_2_7::MemoryManager"* %3) #7, !dbg !1231
  br label %eh.resume, !dbg !1231

if.end9:                                          ; preds = %if.then7, %invoke.cont
  %fTokens = getelementptr inbounds %"class.xercesc_2_7::TokenFactory", %"class.xercesc_2_7::TokenFactory"* %this1, i32 0, i32 0, !dbg !1245
  %12 = load %"class.xercesc_2_7::RefVectorOf"*, %"class.xercesc_2_7::RefVectorOf"** %fTokens, align 8, !dbg !1245
  %13 = bitcast %"class.xercesc_2_7::RefVectorOf"* %12 to %"class.xercesc_2_7::BaseRefVectorOf"*, !dbg !1246
  %14 = load %"class.xercesc_2_7::Token"*, %"class.xercesc_2_7::Token"** %tmpTok, align 8, !dbg !1247
  call void @_ZN11xercesc_2_715BaseRefVectorOfINS_5TokenEE10addElementEPS1_(%"class.xercesc_2_7::BaseRefVectorOf"* %13, %"class.xercesc_2_7::Token"* %14), !dbg !1246
  %15 = load %"class.xercesc_2_7::Token"*, %"class.xercesc_2_7::Token"** %tmpTok, align 8, !dbg !1248
  store %"class.xercesc_2_7::Token"* %15, %"class.xercesc_2_7::Token"** %retval, align 8, !dbg !1249
  br label %return, !dbg !1249

return:                                           ; preds = %if.end9, %if.then
  %16 = load %"class.xercesc_2_7::Token"*, %"class.xercesc_2_7::Token"** %retval, align 8, !dbg !1244
  ret %"class.xercesc_2_7::Token"* %16, !dbg !1244

eh.resume:                                        ; preds = %lpad
  %exn = load i8*, i8** %exn.slot, align 8, !dbg !1231
  %sel = load i32, i32* %ehselector.slot, align 4, !dbg !1231
  %lpad.val = insertvalue { i8*, i32 } undef, i8* %exn, 0, !dbg !1231
  %lpad.val10 = insertvalue { i8*, i32 } %lpad.val, i32 %sel, 1, !dbg !1231
  resume { i8*, i32 } %lpad.val10, !dbg !1231
}

declare dso_local void @_ZN11xercesc_2_75TokenC1EtPNS_13MemoryManagerE(%"class.xercesc_2_7::Token"*, i16 zeroext, %"class.xercesc_2_7::MemoryManager"*) unnamed_addr #4

; Function Attrs: noinline uwtable
define linkonce_odr dso_local void @_ZN11xercesc_2_715BaseRefVectorOfINS_5TokenEE10addElementEPS1_(%"class.xercesc_2_7::BaseRefVectorOf"* %this, %"class.xercesc_2_7::Token"* %toAdd) #3 comdat align 2 !dbg !1250 {
entry:
  %this.addr = alloca %"class.xercesc_2_7::BaseRefVectorOf"*, align 8
  %toAdd.addr = alloca %"class.xercesc_2_7::Token"*, align 8
  store %"class.xercesc_2_7::BaseRefVectorOf"* %this, %"class.xercesc_2_7::BaseRefVectorOf"** %this.addr, align 8
  call void @llvm.dbg.declare(metadata %"class.xercesc_2_7::BaseRefVectorOf"** %this.addr, metadata !1252, metadata !DIExpression()), !dbg !1254
  store %"class.xercesc_2_7::Token"* %toAdd, %"class.xercesc_2_7::Token"** %toAdd.addr, align 8
  call void @llvm.dbg.declare(metadata %"class.xercesc_2_7::Token"** %toAdd.addr, metadata !1255, metadata !DIExpression()), !dbg !1256
  %this1 = load %"class.xercesc_2_7::BaseRefVectorOf"*, %"class.xercesc_2_7::BaseRefVectorOf"** %this.addr, align 8
  call void @_ZN11xercesc_2_715BaseRefVectorOfINS_5TokenEE19ensureExtraCapacityEj(%"class.xercesc_2_7::BaseRefVectorOf"* %this1, i32 1), !dbg !1257
  %0 = load %"class.xercesc_2_7::Token"*, %"class.xercesc_2_7::Token"** %toAdd.addr, align 8, !dbg !1258
  %fElemList = getelementptr inbounds %"class.xercesc_2_7::BaseRefVectorOf", %"class.xercesc_2_7::BaseRefVectorOf"* %this1, i32 0, i32 4, !dbg !1259
  %1 = load %"class.xercesc_2_7::Token"**, %"class.xercesc_2_7::Token"*** %fElemList, align 8, !dbg !1259
  %fCurCount = getelementptr inbounds %"class.xercesc_2_7::BaseRefVectorOf", %"class.xercesc_2_7::BaseRefVectorOf"* %this1, i32 0, i32 2, !dbg !1260
  %2 = load i32, i32* %fCurCount, align 4, !dbg !1260
  %idxprom = zext i32 %2 to i64, !dbg !1259
  %arrayidx = getelementptr inbounds %"class.xercesc_2_7::Token"*, %"class.xercesc_2_7::Token"** %1, i64 %idxprom, !dbg !1259
  store %"class.xercesc_2_7::Token"* %0, %"class.xercesc_2_7::Token"** %arrayidx, align 8, !dbg !1261
  %fCurCount2 = getelementptr inbounds %"class.xercesc_2_7::BaseRefVectorOf", %"class.xercesc_2_7::BaseRefVectorOf"* %this1, i32 0, i32 2, !dbg !1262
  %3 = load i32, i32* %fCurCount2, align 4, !dbg !1263
  %inc = add i32 %3, 1, !dbg !1263
  store i32 %inc, i32* %fCurCount2, align 4, !dbg !1263
  ret void, !dbg !1264
}

; Function Attrs: noinline uwtable
define dso_local %"class.xercesc_2_7::ParenToken"* @_ZN11xercesc_2_712TokenFactory10createLookEtPNS_5TokenE(%"class.xercesc_2_7::TokenFactory"* %this, i16 zeroext %tokType, %"class.xercesc_2_7::Token"* %token) #3 align 2 personality i8* bitcast (i32 (...)* @__gxx_personality_v0 to i8*) !dbg !1265 {
entry:
  %this.addr = alloca %"class.xercesc_2_7::TokenFactory"*, align 8
  %tokType.addr = alloca i16, align 2
  %token.addr = alloca %"class.xercesc_2_7::Token"*, align 8
  %tmpTok = alloca %"class.xercesc_2_7::ParenToken"*, align 8
  %exn.slot = alloca i8*
  %ehselector.slot = alloca i32
  store %"class.xercesc_2_7::TokenFactory"* %this, %"class.xercesc_2_7::TokenFactory"** %this.addr, align 8
  call void @llvm.dbg.declare(metadata %"class.xercesc_2_7::TokenFactory"** %this.addr, metadata !1266, metadata !DIExpression()), !dbg !1267
  store i16 %tokType, i16* %tokType.addr, align 2
  call void @llvm.dbg.declare(metadata i16* %tokType.addr, metadata !1268, metadata !DIExpression()), !dbg !1269
  store %"class.xercesc_2_7::Token"* %token, %"class.xercesc_2_7::Token"** %token.addr, align 8
  call void @llvm.dbg.declare(metadata %"class.xercesc_2_7::Token"** %token.addr, metadata !1270, metadata !DIExpression()), !dbg !1271
  %this1 = load %"class.xercesc_2_7::TokenFactory"*, %"class.xercesc_2_7::TokenFactory"** %this.addr, align 8
  call void @llvm.dbg.declare(metadata %"class.xercesc_2_7::ParenToken"** %tmpTok, metadata !1272, metadata !DIExpression()), !dbg !1273
  %fMemoryManager = getelementptr inbounds %"class.xercesc_2_7::TokenFactory", %"class.xercesc_2_7::TokenFactory"* %this1, i32 0, i32 15, !dbg !1274
  %0 = load %"class.xercesc_2_7::MemoryManager"*, %"class.xercesc_2_7::MemoryManager"** %fMemoryManager, align 8, !dbg !1274
  %call = call i8* @_ZN11xercesc_2_77XMemorynwEmPNS_13MemoryManagerE(i64 40, %"class.xercesc_2_7::MemoryManager"* %0), !dbg !1275
  %1 = bitcast i8* %call to %"class.xercesc_2_7::ParenToken"*, !dbg !1275
  %2 = load i16, i16* %tokType.addr, align 2, !dbg !1276
  %3 = load %"class.xercesc_2_7::Token"*, %"class.xercesc_2_7::Token"** %token.addr, align 8, !dbg !1277
  %fMemoryManager2 = getelementptr inbounds %"class.xercesc_2_7::TokenFactory", %"class.xercesc_2_7::TokenFactory"* %this1, i32 0, i32 15, !dbg !1278
  %4 = load %"class.xercesc_2_7::MemoryManager"*, %"class.xercesc_2_7::MemoryManager"** %fMemoryManager2, align 8, !dbg !1278
  invoke void @_ZN11xercesc_2_710ParenTokenC1EtPNS_5TokenEiPNS_13MemoryManagerE(%"class.xercesc_2_7::ParenToken"* %1, i16 zeroext %2, %"class.xercesc_2_7::Token"* %3, i32 0, %"class.xercesc_2_7::MemoryManager"* %4)
          to label %invoke.cont unwind label %lpad, !dbg !1279

invoke.cont:                                      ; preds = %entry
  store %"class.xercesc_2_7::ParenToken"* %1, %"class.xercesc_2_7::ParenToken"** %tmpTok, align 8, !dbg !1273
  %fTokens = getelementptr inbounds %"class.xercesc_2_7::TokenFactory", %"class.xercesc_2_7::TokenFactory"* %this1, i32 0, i32 0, !dbg !1280
  %5 = load %"class.xercesc_2_7::RefVectorOf"*, %"class.xercesc_2_7::RefVectorOf"** %fTokens, align 8, !dbg !1280
  %6 = bitcast %"class.xercesc_2_7::RefVectorOf"* %5 to %"class.xercesc_2_7::BaseRefVectorOf"*, !dbg !1281
  %7 = load %"class.xercesc_2_7::ParenToken"*, %"class.xercesc_2_7::ParenToken"** %tmpTok, align 8, !dbg !1282
  %8 = bitcast %"class.xercesc_2_7::ParenToken"* %7 to %"class.xercesc_2_7::Token"*, !dbg !1282
  call void @_ZN11xercesc_2_715BaseRefVectorOfINS_5TokenEE10addElementEPS1_(%"class.xercesc_2_7::BaseRefVectorOf"* %6, %"class.xercesc_2_7::Token"* %8), !dbg !1281
  %9 = load %"class.xercesc_2_7::ParenToken"*, %"class.xercesc_2_7::ParenToken"** %tmpTok, align 8, !dbg !1283
  ret %"class.xercesc_2_7::ParenToken"* %9, !dbg !1284

lpad:                                             ; preds = %entry
  %10 = landingpad { i8*, i32 }
          cleanup, !dbg !1285
  %11 = extractvalue { i8*, i32 } %10, 0, !dbg !1285
  store i8* %11, i8** %exn.slot, align 8, !dbg !1285
  %12 = extractvalue { i8*, i32 } %10, 1, !dbg !1285
  store i32 %12, i32* %ehselector.slot, align 4, !dbg !1285
  call void @_ZN11xercesc_2_77XMemorydlEPvPNS_13MemoryManagerE(i8* %call, %"class.xercesc_2_7::MemoryManager"* %0) #7, !dbg !1275
  br label %eh.resume, !dbg !1275

eh.resume:                                        ; preds = %lpad
  %exn = load i8*, i8** %exn.slot, align 8, !dbg !1275
  %sel = load i32, i32* %ehselector.slot, align 4, !dbg !1275
  %lpad.val = insertvalue { i8*, i32 } undef, i8* %exn, 0, !dbg !1275
  %lpad.val3 = insertvalue { i8*, i32 } %lpad.val, i32 %sel, 1, !dbg !1275
  resume { i8*, i32 } %lpad.val3, !dbg !1275
}

declare dso_local void @_ZN11xercesc_2_710ParenTokenC1EtPNS_5TokenEiPNS_13MemoryManagerE(%"class.xercesc_2_7::ParenToken"*, i16 zeroext, %"class.xercesc_2_7::Token"*, i32, %"class.xercesc_2_7::MemoryManager"*) unnamed_addr #4

; Function Attrs: noinline uwtable
define dso_local %"class.xercesc_2_7::ParenToken"* @_ZN11xercesc_2_712TokenFactory17createParenthesisEPNS_5TokenEi(%"class.xercesc_2_7::TokenFactory"* %this, %"class.xercesc_2_7::Token"* %token, i32 %noGroups) #3 align 2 personality i8* bitcast (i32 (...)* @__gxx_personality_v0 to i8*) !dbg !1286 {
entry:
  %this.addr = alloca %"class.xercesc_2_7::TokenFactory"*, align 8
  %token.addr = alloca %"class.xercesc_2_7::Token"*, align 8
  %noGroups.addr = alloca i32, align 4
  %tmpTok = alloca %"class.xercesc_2_7::ParenToken"*, align 8
  %exn.slot = alloca i8*
  %ehselector.slot = alloca i32
  store %"class.xercesc_2_7::TokenFactory"* %this, %"class.xercesc_2_7::TokenFactory"** %this.addr, align 8
  call void @llvm.dbg.declare(metadata %"class.xercesc_2_7::TokenFactory"** %this.addr, metadata !1287, metadata !DIExpression()), !dbg !1288
  store %"class.xercesc_2_7::Token"* %token, %"class.xercesc_2_7::Token"** %token.addr, align 8
  call void @llvm.dbg.declare(metadata %"class.xercesc_2_7::Token"** %token.addr, metadata !1289, metadata !DIExpression()), !dbg !1290
  store i32 %noGroups, i32* %noGroups.addr, align 4
  call void @llvm.dbg.declare(metadata i32* %noGroups.addr, metadata !1291, metadata !DIExpression()), !dbg !1292
  %this1 = load %"class.xercesc_2_7::TokenFactory"*, %"class.xercesc_2_7::TokenFactory"** %this.addr, align 8
  call void @llvm.dbg.declare(metadata %"class.xercesc_2_7::ParenToken"** %tmpTok, metadata !1293, metadata !DIExpression()), !dbg !1294
  %fMemoryManager = getelementptr inbounds %"class.xercesc_2_7::TokenFactory", %"class.xercesc_2_7::TokenFactory"* %this1, i32 0, i32 15, !dbg !1295
  %0 = load %"class.xercesc_2_7::MemoryManager"*, %"class.xercesc_2_7::MemoryManager"** %fMemoryManager, align 8, !dbg !1295
  %call = call i8* @_ZN11xercesc_2_77XMemorynwEmPNS_13MemoryManagerE(i64 40, %"class.xercesc_2_7::MemoryManager"* %0), !dbg !1296
  %1 = bitcast i8* %call to %"class.xercesc_2_7::ParenToken"*, !dbg !1296
  %2 = load %"class.xercesc_2_7::Token"*, %"class.xercesc_2_7::Token"** %token.addr, align 8, !dbg !1297
  %3 = load i32, i32* %noGroups.addr, align 4, !dbg !1298
  %fMemoryManager2 = getelementptr inbounds %"class.xercesc_2_7::TokenFactory", %"class.xercesc_2_7::TokenFactory"* %this1, i32 0, i32 15, !dbg !1299
  %4 = load %"class.xercesc_2_7::MemoryManager"*, %"class.xercesc_2_7::MemoryManager"** %fMemoryManager2, align 8, !dbg !1299
  invoke void @_ZN11xercesc_2_710ParenTokenC1EtPNS_5TokenEiPNS_13MemoryManagerE(%"class.xercesc_2_7::ParenToken"* %1, i16 zeroext 6, %"class.xercesc_2_7::Token"* %2, i32 %3, %"class.xercesc_2_7::MemoryManager"* %4)
          to label %invoke.cont unwind label %lpad, !dbg !1300

invoke.cont:                                      ; preds = %entry
  store %"class.xercesc_2_7::ParenToken"* %1, %"class.xercesc_2_7::ParenToken"** %tmpTok, align 8, !dbg !1294
  %fTokens = getelementptr inbounds %"class.xercesc_2_7::TokenFactory", %"class.xercesc_2_7::TokenFactory"* %this1, i32 0, i32 0, !dbg !1301
  %5 = load %"class.xercesc_2_7::RefVectorOf"*, %"class.xercesc_2_7::RefVectorOf"** %fTokens, align 8, !dbg !1301
  %6 = bitcast %"class.xercesc_2_7::RefVectorOf"* %5 to %"class.xercesc_2_7::BaseRefVectorOf"*, !dbg !1302
  %7 = load %"class.xercesc_2_7::ParenToken"*, %"class.xercesc_2_7::ParenToken"** %tmpTok, align 8, !dbg !1303
  %8 = bitcast %"class.xercesc_2_7::ParenToken"* %7 to %"class.xercesc_2_7::Token"*, !dbg !1303
  call void @_ZN11xercesc_2_715BaseRefVectorOfINS_5TokenEE10addElementEPS1_(%"class.xercesc_2_7::BaseRefVectorOf"* %6, %"class.xercesc_2_7::Token"* %8), !dbg !1302
  %9 = load %"class.xercesc_2_7::ParenToken"*, %"class.xercesc_2_7::ParenToken"** %tmpTok, align 8, !dbg !1304
  ret %"class.xercesc_2_7::ParenToken"* %9, !dbg !1305

lpad:                                             ; preds = %entry
  %10 = landingpad { i8*, i32 }
          cleanup, !dbg !1306
  %11 = extractvalue { i8*, i32 } %10, 0, !dbg !1306
  store i8* %11, i8** %exn.slot, align 8, !dbg !1306
  %12 = extractvalue { i8*, i32 } %10, 1, !dbg !1306
  store i32 %12, i32* %ehselector.slot, align 4, !dbg !1306
  call void @_ZN11xercesc_2_77XMemorydlEPvPNS_13MemoryManagerE(i8* %call, %"class.xercesc_2_7::MemoryManager"* %0) #7, !dbg !1296
  br label %eh.resume, !dbg !1296

eh.resume:                                        ; preds = %lpad
  %exn = load i8*, i8** %exn.slot, align 8, !dbg !1296
  %sel = load i32, i32* %ehselector.slot, align 4, !dbg !1296
  %lpad.val = insertvalue { i8*, i32 } undef, i8* %exn, 0, !dbg !1296
  %lpad.val3 = insertvalue { i8*, i32 } %lpad.val, i32 %sel, 1, !dbg !1296
  resume { i8*, i32 } %lpad.val3, !dbg !1296
}

; Function Attrs: noinline uwtable
define dso_local %"class.xercesc_2_7::ClosureToken"* @_ZN11xercesc_2_712TokenFactory13createClosureEPNS_5TokenEb(%"class.xercesc_2_7::TokenFactory"* %this, %"class.xercesc_2_7::Token"* %token, i1 zeroext %isNonGreedy) #3 align 2 personality i8* bitcast (i32 (...)* @__gxx_personality_v0 to i8*) !dbg !1307 {
entry:
  %this.addr = alloca %"class.xercesc_2_7::TokenFactory"*, align 8
  %token.addr = alloca %"class.xercesc_2_7::Token"*, align 8
  %isNonGreedy.addr = alloca i8, align 1
  %tmpTok = alloca %"class.xercesc_2_7::ClosureToken"*, align 8
  %saved-rvalue = alloca i8*, align 8
  %saved-rvalue2 = alloca %"class.xercesc_2_7::MemoryManager"*, align 8
  %cleanup.cond = alloca i1, align 1
  %exn.slot = alloca i8*
  %ehselector.slot = alloca i32
  %saved-rvalue6 = alloca i8*, align 8
  %saved-rvalue7 = alloca %"class.xercesc_2_7::MemoryManager"*, align 8
  %cleanup.cond8 = alloca i1, align 1
  store %"class.xercesc_2_7::TokenFactory"* %this, %"class.xercesc_2_7::TokenFactory"** %this.addr, align 8
  call void @llvm.dbg.declare(metadata %"class.xercesc_2_7::TokenFactory"** %this.addr, metadata !1308, metadata !DIExpression()), !dbg !1309
  store %"class.xercesc_2_7::Token"* %token, %"class.xercesc_2_7::Token"** %token.addr, align 8
  call void @llvm.dbg.declare(metadata %"class.xercesc_2_7::Token"** %token.addr, metadata !1310, metadata !DIExpression()), !dbg !1311
  %frombool = zext i1 %isNonGreedy to i8
  store i8 %frombool, i8* %isNonGreedy.addr, align 1
  call void @llvm.dbg.declare(metadata i8* %isNonGreedy.addr, metadata !1312, metadata !DIExpression()), !dbg !1313
  %this1 = load %"class.xercesc_2_7::TokenFactory"*, %"class.xercesc_2_7::TokenFactory"** %this.addr, align 8
  call void @llvm.dbg.declare(metadata %"class.xercesc_2_7::ClosureToken"** %tmpTok, metadata !1314, metadata !DIExpression()), !dbg !1315
  %0 = load i8, i8* %isNonGreedy.addr, align 1, !dbg !1316
  %tobool = trunc i8 %0 to i1, !dbg !1316
  store i1 false, i1* %cleanup.cond, align 1
  store i1 false, i1* %cleanup.cond8, align 1
  br i1 %tobool, label %cond.true, label %cond.false, !dbg !1316

cond.true:                                        ; preds = %entry
  %fMemoryManager = getelementptr inbounds %"class.xercesc_2_7::TokenFactory", %"class.xercesc_2_7::TokenFactory"* %this1, i32 0, i32 15, !dbg !1317
  %1 = load %"class.xercesc_2_7::MemoryManager"*, %"class.xercesc_2_7::MemoryManager"** %fMemoryManager, align 8, !dbg !1317
  %call = call i8* @_ZN11xercesc_2_77XMemorynwEmPNS_13MemoryManagerE(i64 40, %"class.xercesc_2_7::MemoryManager"* %1), !dbg !1318
  store i8* %call, i8** %saved-rvalue, align 8, !dbg !1318
  store %"class.xercesc_2_7::MemoryManager"* %1, %"class.xercesc_2_7::MemoryManager"** %saved-rvalue2, align 8, !dbg !1318
  store i1 true, i1* %cleanup.cond, align 1, !dbg !1318
  %2 = bitcast i8* %call to %"class.xercesc_2_7::ClosureToken"*, !dbg !1318
  %3 = load %"class.xercesc_2_7::Token"*, %"class.xercesc_2_7::Token"** %token.addr, align 8, !dbg !1319
  %fMemoryManager3 = getelementptr inbounds %"class.xercesc_2_7::TokenFactory", %"class.xercesc_2_7::TokenFactory"* %this1, i32 0, i32 15, !dbg !1320
  %4 = load %"class.xercesc_2_7::MemoryManager"*, %"class.xercesc_2_7::MemoryManager"** %fMemoryManager3, align 8, !dbg !1320
  invoke void @_ZN11xercesc_2_712ClosureTokenC1EtPNS_5TokenEPNS_13MemoryManagerE(%"class.xercesc_2_7::ClosureToken"* %2, i16 zeroext 9, %"class.xercesc_2_7::Token"* %3, %"class.xercesc_2_7::MemoryManager"* %4)
          to label %invoke.cont unwind label %lpad, !dbg !1321

invoke.cont:                                      ; preds = %cond.true
  br label %cond.end, !dbg !1316

cond.false:                                       ; preds = %entry
  %fMemoryManager4 = getelementptr inbounds %"class.xercesc_2_7::TokenFactory", %"class.xercesc_2_7::TokenFactory"* %this1, i32 0, i32 15, !dbg !1322
  %5 = load %"class.xercesc_2_7::MemoryManager"*, %"class.xercesc_2_7::MemoryManager"** %fMemoryManager4, align 8, !dbg !1322
  %call5 = call i8* @_ZN11xercesc_2_77XMemorynwEmPNS_13MemoryManagerE(i64 40, %"class.xercesc_2_7::MemoryManager"* %5), !dbg !1323
  store i8* %call5, i8** %saved-rvalue6, align 8, !dbg !1323
  store %"class.xercesc_2_7::MemoryManager"* %5, %"class.xercesc_2_7::MemoryManager"** %saved-rvalue7, align 8, !dbg !1323
  store i1 true, i1* %cleanup.cond8, align 1, !dbg !1323
  %6 = bitcast i8* %call5 to %"class.xercesc_2_7::ClosureToken"*, !dbg !1323
  %7 = load %"class.xercesc_2_7::Token"*, %"class.xercesc_2_7::Token"** %token.addr, align 8, !dbg !1324
  %fMemoryManager9 = getelementptr inbounds %"class.xercesc_2_7::TokenFactory", %"class.xercesc_2_7::TokenFactory"* %this1, i32 0, i32 15, !dbg !1325
  %8 = load %"class.xercesc_2_7::MemoryManager"*, %"class.xercesc_2_7::MemoryManager"** %fMemoryManager9, align 8, !dbg !1325
  invoke void @_ZN11xercesc_2_712ClosureTokenC1EtPNS_5TokenEPNS_13MemoryManagerE(%"class.xercesc_2_7::ClosureToken"* %6, i16 zeroext 3, %"class.xercesc_2_7::Token"* %7, %"class.xercesc_2_7::MemoryManager"* %8)
          to label %invoke.cont11 unwind label %lpad10, !dbg !1326

invoke.cont11:                                    ; preds = %cond.false
  br label %cond.end, !dbg !1316

cond.end:                                         ; preds = %invoke.cont11, %invoke.cont
  %cond = phi %"class.xercesc_2_7::ClosureToken"* [ %2, %invoke.cont ], [ %6, %invoke.cont11 ], !dbg !1316
  store %"class.xercesc_2_7::ClosureToken"* %cond, %"class.xercesc_2_7::ClosureToken"** %tmpTok, align 8, !dbg !1315
  %fTokens = getelementptr inbounds %"class.xercesc_2_7::TokenFactory", %"class.xercesc_2_7::TokenFactory"* %this1, i32 0, i32 0, !dbg !1327
  %9 = load %"class.xercesc_2_7::RefVectorOf"*, %"class.xercesc_2_7::RefVectorOf"** %fTokens, align 8, !dbg !1327
  %10 = bitcast %"class.xercesc_2_7::RefVectorOf"* %9 to %"class.xercesc_2_7::BaseRefVectorOf"*, !dbg !1328
  %11 = load %"class.xercesc_2_7::ClosureToken"*, %"class.xercesc_2_7::ClosureToken"** %tmpTok, align 8, !dbg !1329
  %12 = bitcast %"class.xercesc_2_7::ClosureToken"* %11 to %"class.xercesc_2_7::Token"*, !dbg !1329
  call void @_ZN11xercesc_2_715BaseRefVectorOfINS_5TokenEE10addElementEPS1_(%"class.xercesc_2_7::BaseRefVectorOf"* %10, %"class.xercesc_2_7::Token"* %12), !dbg !1328
  %13 = load %"class.xercesc_2_7::ClosureToken"*, %"class.xercesc_2_7::ClosureToken"** %tmpTok, align 8, !dbg !1330
  ret %"class.xercesc_2_7::ClosureToken"* %13, !dbg !1331

lpad:                                             ; preds = %cond.true
  %14 = landingpad { i8*, i32 }
          cleanup, !dbg !1332
  %15 = extractvalue { i8*, i32 } %14, 0, !dbg !1332
  store i8* %15, i8** %exn.slot, align 8, !dbg !1332
  %16 = extractvalue { i8*, i32 } %14, 1, !dbg !1332
  store i32 %16, i32* %ehselector.slot, align 4, !dbg !1332
  %cleanup.is_active = load i1, i1* %cleanup.cond, align 1, !dbg !1318
  br i1 %cleanup.is_active, label %cleanup.action, label %cleanup.done, !dbg !1318

cleanup.action:                                   ; preds = %lpad
  %17 = load i8*, i8** %saved-rvalue, align 8, !dbg !1318
  %18 = load %"class.xercesc_2_7::MemoryManager"*, %"class.xercesc_2_7::MemoryManager"** %saved-rvalue2, align 8, !dbg !1318
  call void @_ZN11xercesc_2_77XMemorydlEPvPNS_13MemoryManagerE(i8* %17, %"class.xercesc_2_7::MemoryManager"* %18) #7, !dbg !1318
  br label %cleanup.done, !dbg !1318

cleanup.done:                                     ; preds = %cleanup.action, %lpad
  br label %eh.resume, !dbg !1318

lpad10:                                           ; preds = %cond.false
  %19 = landingpad { i8*, i32 }
          cleanup, !dbg !1332
  %20 = extractvalue { i8*, i32 } %19, 0, !dbg !1332
  store i8* %20, i8** %exn.slot, align 8, !dbg !1332
  %21 = extractvalue { i8*, i32 } %19, 1, !dbg !1332
  store i32 %21, i32* %ehselector.slot, align 4, !dbg !1332
  %cleanup.is_active12 = load i1, i1* %cleanup.cond8, align 1, !dbg !1323
  br i1 %cleanup.is_active12, label %cleanup.action13, label %cleanup.done14, !dbg !1323

cleanup.action13:                                 ; preds = %lpad10
  %22 = load i8*, i8** %saved-rvalue6, align 8, !dbg !1323
  %23 = load %"class.xercesc_2_7::MemoryManager"*, %"class.xercesc_2_7::MemoryManager"** %saved-rvalue7, align 8, !dbg !1323
  call void @_ZN11xercesc_2_77XMemorydlEPvPNS_13MemoryManagerE(i8* %22, %"class.xercesc_2_7::MemoryManager"* %23) #7, !dbg !1323
  br label %cleanup.done14, !dbg !1323

cleanup.done14:                                   ; preds = %cleanup.action13, %lpad10
  br label %eh.resume, !dbg !1323

eh.resume:                                        ; preds = %cleanup.done14, %cleanup.done
  %exn = load i8*, i8** %exn.slot, align 8, !dbg !1318
  %sel = load i32, i32* %ehselector.slot, align 4, !dbg !1318
  %lpad.val = insertvalue { i8*, i32 } undef, i8* %exn, 0, !dbg !1318
  %lpad.val15 = insertvalue { i8*, i32 } %lpad.val, i32 %sel, 1, !dbg !1318
  resume { i8*, i32 } %lpad.val15, !dbg !1318
}

declare dso_local void @_ZN11xercesc_2_712ClosureTokenC1EtPNS_5TokenEPNS_13MemoryManagerE(%"class.xercesc_2_7::ClosureToken"*, i16 zeroext, %"class.xercesc_2_7::Token"*, %"class.xercesc_2_7::MemoryManager"*) unnamed_addr #4

; Function Attrs: noinline uwtable
define dso_local %"class.xercesc_2_7::ConcatToken"* @_ZN11xercesc_2_712TokenFactory12createConcatEPNS_5TokenES2_(%"class.xercesc_2_7::TokenFactory"* %this, %"class.xercesc_2_7::Token"* %token1, %"class.xercesc_2_7::Token"* %token2) #3 align 2 personality i8* bitcast (i32 (...)* @__gxx_personality_v0 to i8*) !dbg !1333 {
entry:
  %this.addr = alloca %"class.xercesc_2_7::TokenFactory"*, align 8
  %token1.addr = alloca %"class.xercesc_2_7::Token"*, align 8
  %token2.addr = alloca %"class.xercesc_2_7::Token"*, align 8
  %tmpTok = alloca %"class.xercesc_2_7::ConcatToken"*, align 8
  %exn.slot = alloca i8*
  %ehselector.slot = alloca i32
  store %"class.xercesc_2_7::TokenFactory"* %this, %"class.xercesc_2_7::TokenFactory"** %this.addr, align 8
  call void @llvm.dbg.declare(metadata %"class.xercesc_2_7::TokenFactory"** %this.addr, metadata !1334, metadata !DIExpression()), !dbg !1335
  store %"class.xercesc_2_7::Token"* %token1, %"class.xercesc_2_7::Token"** %token1.addr, align 8
  call void @llvm.dbg.declare(metadata %"class.xercesc_2_7::Token"** %token1.addr, metadata !1336, metadata !DIExpression()), !dbg !1337
  store %"class.xercesc_2_7::Token"* %token2, %"class.xercesc_2_7::Token"** %token2.addr, align 8
  call void @llvm.dbg.declare(metadata %"class.xercesc_2_7::Token"** %token2.addr, metadata !1338, metadata !DIExpression()), !dbg !1339
  %this1 = load %"class.xercesc_2_7::TokenFactory"*, %"class.xercesc_2_7::TokenFactory"** %this.addr, align 8
  call void @llvm.dbg.declare(metadata %"class.xercesc_2_7::ConcatToken"** %tmpTok, metadata !1340, metadata !DIExpression()), !dbg !1341
  %fMemoryManager = getelementptr inbounds %"class.xercesc_2_7::TokenFactory", %"class.xercesc_2_7::TokenFactory"* %this1, i32 0, i32 15, !dbg !1342
  %0 = load %"class.xercesc_2_7::MemoryManager"*, %"class.xercesc_2_7::MemoryManager"** %fMemoryManager, align 8, !dbg !1342
  %call = call i8* @_ZN11xercesc_2_77XMemorynwEmPNS_13MemoryManagerE(i64 40, %"class.xercesc_2_7::MemoryManager"* %0), !dbg !1343
  %1 = bitcast i8* %call to %"class.xercesc_2_7::ConcatToken"*, !dbg !1343
  %2 = load %"class.xercesc_2_7::Token"*, %"class.xercesc_2_7::Token"** %token1.addr, align 8, !dbg !1344
  %3 = load %"class.xercesc_2_7::Token"*, %"class.xercesc_2_7::Token"** %token2.addr, align 8, !dbg !1345
  %fMemoryManager2 = getelementptr inbounds %"class.xercesc_2_7::TokenFactory", %"class.xercesc_2_7::TokenFactory"* %this1, i32 0, i32 15, !dbg !1346
  %4 = load %"class.xercesc_2_7::MemoryManager"*, %"class.xercesc_2_7::MemoryManager"** %fMemoryManager2, align 8, !dbg !1346
  invoke void @_ZN11xercesc_2_711ConcatTokenC1EPNS_5TokenES2_PNS_13MemoryManagerE(%"class.xercesc_2_7::ConcatToken"* %1, %"class.xercesc_2_7::Token"* %2, %"class.xercesc_2_7::Token"* %3, %"class.xercesc_2_7::MemoryManager"* %4)
          to label %invoke.cont unwind label %lpad, !dbg !1347

invoke.cont:                                      ; preds = %entry
  store %"class.xercesc_2_7::ConcatToken"* %1, %"class.xercesc_2_7::ConcatToken"** %tmpTok, align 8, !dbg !1341
  %fTokens = getelementptr inbounds %"class.xercesc_2_7::TokenFactory", %"class.xercesc_2_7::TokenFactory"* %this1, i32 0, i32 0, !dbg !1348
  %5 = load %"class.xercesc_2_7::RefVectorOf"*, %"class.xercesc_2_7::RefVectorOf"** %fTokens, align 8, !dbg !1348
  %6 = bitcast %"class.xercesc_2_7::RefVectorOf"* %5 to %"class.xercesc_2_7::BaseRefVectorOf"*, !dbg !1349
  %7 = load %"class.xercesc_2_7::ConcatToken"*, %"class.xercesc_2_7::ConcatToken"** %tmpTok, align 8, !dbg !1350
  %8 = bitcast %"class.xercesc_2_7::ConcatToken"* %7 to %"class.xercesc_2_7::Token"*, !dbg !1350
  call void @_ZN11xercesc_2_715BaseRefVectorOfINS_5TokenEE10addElementEPS1_(%"class.xercesc_2_7::BaseRefVectorOf"* %6, %"class.xercesc_2_7::Token"* %8), !dbg !1349
  %9 = load %"class.xercesc_2_7::ConcatToken"*, %"class.xercesc_2_7::ConcatToken"** %tmpTok, align 8, !dbg !1351
  ret %"class.xercesc_2_7::ConcatToken"* %9, !dbg !1352

lpad:                                             ; preds = %entry
  %10 = landingpad { i8*, i32 }
          cleanup, !dbg !1353
  %11 = extractvalue { i8*, i32 } %10, 0, !dbg !1353
  store i8* %11, i8** %exn.slot, align 8, !dbg !1353
  %12 = extractvalue { i8*, i32 } %10, 1, !dbg !1353
  store i32 %12, i32* %ehselector.slot, align 4, !dbg !1353
  call void @_ZN11xercesc_2_77XMemorydlEPvPNS_13MemoryManagerE(i8* %call, %"class.xercesc_2_7::MemoryManager"* %0) #7, !dbg !1343
  br label %eh.resume, !dbg !1343

eh.resume:                                        ; preds = %lpad
  %exn = load i8*, i8** %exn.slot, align 8, !dbg !1343
  %sel = load i32, i32* %ehselector.slot, align 4, !dbg !1343
  %lpad.val = insertvalue { i8*, i32 } undef, i8* %exn, 0, !dbg !1343
  %lpad.val3 = insertvalue { i8*, i32 } %lpad.val, i32 %sel, 1, !dbg !1343
  resume { i8*, i32 } %lpad.val3, !dbg !1343
}

declare dso_local void @_ZN11xercesc_2_711ConcatTokenC1EPNS_5TokenES2_PNS_13MemoryManagerE(%"class.xercesc_2_7::ConcatToken"*, %"class.xercesc_2_7::Token"*, %"class.xercesc_2_7::Token"*, %"class.xercesc_2_7::MemoryManager"*) unnamed_addr #4

; Function Attrs: noinline uwtable
define dso_local %"class.xercesc_2_7::UnionToken"* @_ZN11xercesc_2_712TokenFactory11createUnionEb(%"class.xercesc_2_7::TokenFactory"* %this, i1 zeroext %isConcat) #3 align 2 personality i8* bitcast (i32 (...)* @__gxx_personality_v0 to i8*) !dbg !1354 {
entry:
  %this.addr = alloca %"class.xercesc_2_7::TokenFactory"*, align 8
  %isConcat.addr = alloca i8, align 1
  %tmpTok = alloca %"class.xercesc_2_7::UnionToken"*, align 8
  %saved-rvalue = alloca i8*, align 8
  %saved-rvalue2 = alloca %"class.xercesc_2_7::MemoryManager"*, align 8
  %cleanup.cond = alloca i1, align 1
  %exn.slot = alloca i8*
  %ehselector.slot = alloca i32
  %saved-rvalue6 = alloca i8*, align 8
  %saved-rvalue7 = alloca %"class.xercesc_2_7::MemoryManager"*, align 8
  %cleanup.cond8 = alloca i1, align 1
  store %"class.xercesc_2_7::TokenFactory"* %this, %"class.xercesc_2_7::TokenFactory"** %this.addr, align 8
  call void @llvm.dbg.declare(metadata %"class.xercesc_2_7::TokenFactory"** %this.addr, metadata !1355, metadata !DIExpression()), !dbg !1356
  %frombool = zext i1 %isConcat to i8
  store i8 %frombool, i8* %isConcat.addr, align 1
  call void @llvm.dbg.declare(metadata i8* %isConcat.addr, metadata !1357, metadata !DIExpression()), !dbg !1358
  %this1 = load %"class.xercesc_2_7::TokenFactory"*, %"class.xercesc_2_7::TokenFactory"** %this.addr, align 8
  call void @llvm.dbg.declare(metadata %"class.xercesc_2_7::UnionToken"** %tmpTok, metadata !1359, metadata !DIExpression()), !dbg !1360
  %0 = load i8, i8* %isConcat.addr, align 1, !dbg !1361
  %tobool = trunc i8 %0 to i1, !dbg !1361
  store i1 false, i1* %cleanup.cond, align 1
  store i1 false, i1* %cleanup.cond8, align 1
  br i1 %tobool, label %cond.true, label %cond.false, !dbg !1361

cond.true:                                        ; preds = %entry
  %fMemoryManager = getelementptr inbounds %"class.xercesc_2_7::TokenFactory", %"class.xercesc_2_7::TokenFactory"* %this1, i32 0, i32 15, !dbg !1362
  %1 = load %"class.xercesc_2_7::MemoryManager"*, %"class.xercesc_2_7::MemoryManager"** %fMemoryManager, align 8, !dbg !1362
  %call = call i8* @_ZN11xercesc_2_77XMemorynwEmPNS_13MemoryManagerE(i64 32, %"class.xercesc_2_7::MemoryManager"* %1), !dbg !1363
  store i8* %call, i8** %saved-rvalue, align 8, !dbg !1363
  store %"class.xercesc_2_7::MemoryManager"* %1, %"class.xercesc_2_7::MemoryManager"** %saved-rvalue2, align 8, !dbg !1363
  store i1 true, i1* %cleanup.cond, align 1, !dbg !1363
  %2 = bitcast i8* %call to %"class.xercesc_2_7::UnionToken"*, !dbg !1363
  %fMemoryManager3 = getelementptr inbounds %"class.xercesc_2_7::TokenFactory", %"class.xercesc_2_7::TokenFactory"* %this1, i32 0, i32 15, !dbg !1364
  %3 = load %"class.xercesc_2_7::MemoryManager"*, %"class.xercesc_2_7::MemoryManager"** %fMemoryManager3, align 8, !dbg !1364
  invoke void @_ZN11xercesc_2_710UnionTokenC1EtPNS_13MemoryManagerE(%"class.xercesc_2_7::UnionToken"* %2, i16 zeroext 1, %"class.xercesc_2_7::MemoryManager"* %3)
          to label %invoke.cont unwind label %lpad, !dbg !1365

invoke.cont:                                      ; preds = %cond.true
  br label %cond.end, !dbg !1361

cond.false:                                       ; preds = %entry
  %fMemoryManager4 = getelementptr inbounds %"class.xercesc_2_7::TokenFactory", %"class.xercesc_2_7::TokenFactory"* %this1, i32 0, i32 15, !dbg !1366
  %4 = load %"class.xercesc_2_7::MemoryManager"*, %"class.xercesc_2_7::MemoryManager"** %fMemoryManager4, align 8, !dbg !1366
  %call5 = call i8* @_ZN11xercesc_2_77XMemorynwEmPNS_13MemoryManagerE(i64 32, %"class.xercesc_2_7::MemoryManager"* %4), !dbg !1367
  store i8* %call5, i8** %saved-rvalue6, align 8, !dbg !1367
  store %"class.xercesc_2_7::MemoryManager"* %4, %"class.xercesc_2_7::MemoryManager"** %saved-rvalue7, align 8, !dbg !1367
  store i1 true, i1* %cleanup.cond8, align 1, !dbg !1367
  %5 = bitcast i8* %call5 to %"class.xercesc_2_7::UnionToken"*, !dbg !1367
  %fMemoryManager9 = getelementptr inbounds %"class.xercesc_2_7::TokenFactory", %"class.xercesc_2_7::TokenFactory"* %this1, i32 0, i32 15, !dbg !1368
  %6 = load %"class.xercesc_2_7::MemoryManager"*, %"class.xercesc_2_7::MemoryManager"** %fMemoryManager9, align 8, !dbg !1368
  invoke void @_ZN11xercesc_2_710UnionTokenC1EtPNS_13MemoryManagerE(%"class.xercesc_2_7::UnionToken"* %5, i16 zeroext 2, %"class.xercesc_2_7::MemoryManager"* %6)
          to label %invoke.cont11 unwind label %lpad10, !dbg !1369

invoke.cont11:                                    ; preds = %cond.false
  br label %cond.end, !dbg !1361

cond.end:                                         ; preds = %invoke.cont11, %invoke.cont
  %cond = phi %"class.xercesc_2_7::UnionToken"* [ %2, %invoke.cont ], [ %5, %invoke.cont11 ], !dbg !1361
  store %"class.xercesc_2_7::UnionToken"* %cond, %"class.xercesc_2_7::UnionToken"** %tmpTok, align 8, !dbg !1360
  %fTokens = getelementptr inbounds %"class.xercesc_2_7::TokenFactory", %"class.xercesc_2_7::TokenFactory"* %this1, i32 0, i32 0, !dbg !1370
  %7 = load %"class.xercesc_2_7::RefVectorOf"*, %"class.xercesc_2_7::RefVectorOf"** %fTokens, align 8, !dbg !1370
  %8 = bitcast %"class.xercesc_2_7::RefVectorOf"* %7 to %"class.xercesc_2_7::BaseRefVectorOf"*, !dbg !1371
  %9 = load %"class.xercesc_2_7::UnionToken"*, %"class.xercesc_2_7::UnionToken"** %tmpTok, align 8, !dbg !1372
  %10 = bitcast %"class.xercesc_2_7::UnionToken"* %9 to %"class.xercesc_2_7::Token"*, !dbg !1372
  call void @_ZN11xercesc_2_715BaseRefVectorOfINS_5TokenEE10addElementEPS1_(%"class.xercesc_2_7::BaseRefVectorOf"* %8, %"class.xercesc_2_7::Token"* %10), !dbg !1371
  %11 = load %"class.xercesc_2_7::UnionToken"*, %"class.xercesc_2_7::UnionToken"** %tmpTok, align 8, !dbg !1373
  ret %"class.xercesc_2_7::UnionToken"* %11, !dbg !1374

lpad:                                             ; preds = %cond.true
  %12 = landingpad { i8*, i32 }
          cleanup, !dbg !1375
  %13 = extractvalue { i8*, i32 } %12, 0, !dbg !1375
  store i8* %13, i8** %exn.slot, align 8, !dbg !1375
  %14 = extractvalue { i8*, i32 } %12, 1, !dbg !1375
  store i32 %14, i32* %ehselector.slot, align 4, !dbg !1375
  %cleanup.is_active = load i1, i1* %cleanup.cond, align 1, !dbg !1363
  br i1 %cleanup.is_active, label %cleanup.action, label %cleanup.done, !dbg !1363

cleanup.action:                                   ; preds = %lpad
  %15 = load i8*, i8** %saved-rvalue, align 8, !dbg !1363
  %16 = load %"class.xercesc_2_7::MemoryManager"*, %"class.xercesc_2_7::MemoryManager"** %saved-rvalue2, align 8, !dbg !1363
  call void @_ZN11xercesc_2_77XMemorydlEPvPNS_13MemoryManagerE(i8* %15, %"class.xercesc_2_7::MemoryManager"* %16) #7, !dbg !1363
  br label %cleanup.done, !dbg !1363

cleanup.done:                                     ; preds = %cleanup.action, %lpad
  br label %eh.resume, !dbg !1363

lpad10:                                           ; preds = %cond.false
  %17 = landingpad { i8*, i32 }
          cleanup, !dbg !1375
  %18 = extractvalue { i8*, i32 } %17, 0, !dbg !1375
  store i8* %18, i8** %exn.slot, align 8, !dbg !1375
  %19 = extractvalue { i8*, i32 } %17, 1, !dbg !1375
  store i32 %19, i32* %ehselector.slot, align 4, !dbg !1375
  %cleanup.is_active12 = load i1, i1* %cleanup.cond8, align 1, !dbg !1367
  br i1 %cleanup.is_active12, label %cleanup.action13, label %cleanup.done14, !dbg !1367

cleanup.action13:                                 ; preds = %lpad10
  %20 = load i8*, i8** %saved-rvalue6, align 8, !dbg !1367
  %21 = load %"class.xercesc_2_7::MemoryManager"*, %"class.xercesc_2_7::MemoryManager"** %saved-rvalue7, align 8, !dbg !1367
  call void @_ZN11xercesc_2_77XMemorydlEPvPNS_13MemoryManagerE(i8* %20, %"class.xercesc_2_7::MemoryManager"* %21) #7, !dbg !1367
  br label %cleanup.done14, !dbg !1367

cleanup.done14:                                   ; preds = %cleanup.action13, %lpad10
  br label %eh.resume, !dbg !1367

eh.resume:                                        ; preds = %cleanup.done14, %cleanup.done
  %exn = load i8*, i8** %exn.slot, align 8, !dbg !1363
  %sel = load i32, i32* %ehselector.slot, align 4, !dbg !1363
  %lpad.val = insertvalue { i8*, i32 } undef, i8* %exn, 0, !dbg !1363
  %lpad.val15 = insertvalue { i8*, i32 } %lpad.val, i32 %sel, 1, !dbg !1363
  resume { i8*, i32 } %lpad.val15, !dbg !1363
}

declare dso_local void @_ZN11xercesc_2_710UnionTokenC1EtPNS_13MemoryManagerE(%"class.xercesc_2_7::UnionToken"*, i16 zeroext, %"class.xercesc_2_7::MemoryManager"*) unnamed_addr #4

; Function Attrs: noinline uwtable
define dso_local %"class.xercesc_2_7::RangeToken"* @_ZN11xercesc_2_712TokenFactory11createRangeEb(%"class.xercesc_2_7::TokenFactory"* %this, i1 zeroext %isNegRange) #3 align 2 personality i8* bitcast (i32 (...)* @__gxx_personality_v0 to i8*) !dbg !1376 {
entry:
  %this.addr = alloca %"class.xercesc_2_7::TokenFactory"*, align 8
  %isNegRange.addr = alloca i8, align 1
  %tmpTok = alloca %"class.xercesc_2_7::RangeToken"*, align 8
  %saved-rvalue = alloca i8*, align 8
  %saved-rvalue2 = alloca %"class.xercesc_2_7::MemoryManager"*, align 8
  %cleanup.cond = alloca i1, align 1
  %exn.slot = alloca i8*
  %ehselector.slot = alloca i32
  %saved-rvalue6 = alloca i8*, align 8
  %saved-rvalue7 = alloca %"class.xercesc_2_7::MemoryManager"*, align 8
  %cleanup.cond8 = alloca i1, align 1
  store %"class.xercesc_2_7::TokenFactory"* %this, %"class.xercesc_2_7::TokenFactory"** %this.addr, align 8
  call void @llvm.dbg.declare(metadata %"class.xercesc_2_7::TokenFactory"** %this.addr, metadata !1377, metadata !DIExpression()), !dbg !1378
  %frombool = zext i1 %isNegRange to i8
  store i8 %frombool, i8* %isNegRange.addr, align 1
  call void @llvm.dbg.declare(metadata i8* %isNegRange.addr, metadata !1379, metadata !DIExpression()), !dbg !1380
  %this1 = load %"class.xercesc_2_7::TokenFactory"*, %"class.xercesc_2_7::TokenFactory"** %this.addr, align 8
  call void @llvm.dbg.declare(metadata %"class.xercesc_2_7::RangeToken"** %tmpTok, metadata !1381, metadata !DIExpression()), !dbg !1382
  %0 = load i8, i8* %isNegRange.addr, align 1, !dbg !1383
  %tobool = trunc i8 %0 to i1, !dbg !1383
  store i1 false, i1* %cleanup.cond, align 1
  store i1 false, i1* %cleanup.cond8, align 1
  br i1 %tobool, label %cond.true, label %cond.false, !dbg !1383

cond.true:                                        ; preds = %entry
  %fMemoryManager = getelementptr inbounds %"class.xercesc_2_7::TokenFactory", %"class.xercesc_2_7::TokenFactory"* %this1, i32 0, i32 15, !dbg !1384
  %1 = load %"class.xercesc_2_7::MemoryManager"*, %"class.xercesc_2_7::MemoryManager"** %fMemoryManager, align 8, !dbg !1384
  %call = call i8* @_ZN11xercesc_2_77XMemorynwEmPNS_13MemoryManagerE(i64 72, %"class.xercesc_2_7::MemoryManager"* %1), !dbg !1385
  store i8* %call, i8** %saved-rvalue, align 8, !dbg !1385
  store %"class.xercesc_2_7::MemoryManager"* %1, %"class.xercesc_2_7::MemoryManager"** %saved-rvalue2, align 8, !dbg !1385
  store i1 true, i1* %cleanup.cond, align 1, !dbg !1385
  %2 = bitcast i8* %call to %"class.xercesc_2_7::RangeToken"*, !dbg !1385
  %fMemoryManager3 = getelementptr inbounds %"class.xercesc_2_7::TokenFactory", %"class.xercesc_2_7::TokenFactory"* %this1, i32 0, i32 15, !dbg !1386
  %3 = load %"class.xercesc_2_7::MemoryManager"*, %"class.xercesc_2_7::MemoryManager"** %fMemoryManager3, align 8, !dbg !1386
  invoke void @_ZN11xercesc_2_710RangeTokenC1EtPNS_13MemoryManagerE(%"class.xercesc_2_7::RangeToken"* %2, i16 zeroext 5, %"class.xercesc_2_7::MemoryManager"* %3)
          to label %invoke.cont unwind label %lpad, !dbg !1387

invoke.cont:                                      ; preds = %cond.true
  br label %cond.end, !dbg !1383

cond.false:                                       ; preds = %entry
  %fMemoryManager4 = getelementptr inbounds %"class.xercesc_2_7::TokenFactory", %"class.xercesc_2_7::TokenFactory"* %this1, i32 0, i32 15, !dbg !1388
  %4 = load %"class.xercesc_2_7::MemoryManager"*, %"class.xercesc_2_7::MemoryManager"** %fMemoryManager4, align 8, !dbg !1388
  %call5 = call i8* @_ZN11xercesc_2_77XMemorynwEmPNS_13MemoryManagerE(i64 72, %"class.xercesc_2_7::MemoryManager"* %4), !dbg !1389
  store i8* %call5, i8** %saved-rvalue6, align 8, !dbg !1389
  store %"class.xercesc_2_7::MemoryManager"* %4, %"class.xercesc_2_7::MemoryManager"** %saved-rvalue7, align 8, !dbg !1389
  store i1 true, i1* %cleanup.cond8, align 1, !dbg !1389
  %5 = bitcast i8* %call5 to %"class.xercesc_2_7::RangeToken"*, !dbg !1389
  %fMemoryManager9 = getelementptr inbounds %"class.xercesc_2_7::TokenFactory", %"class.xercesc_2_7::TokenFactory"* %this1, i32 0, i32 15, !dbg !1390
  %6 = load %"class.xercesc_2_7::MemoryManager"*, %"class.xercesc_2_7::MemoryManager"** %fMemoryManager9, align 8, !dbg !1390
  invoke void @_ZN11xercesc_2_710RangeTokenC1EtPNS_13MemoryManagerE(%"class.xercesc_2_7::RangeToken"* %5, i16 zeroext 4, %"class.xercesc_2_7::MemoryManager"* %6)
          to label %invoke.cont11 unwind label %lpad10, !dbg !1391

invoke.cont11:                                    ; preds = %cond.false
  br label %cond.end, !dbg !1383

cond.end:                                         ; preds = %invoke.cont11, %invoke.cont
  %cond = phi %"class.xercesc_2_7::RangeToken"* [ %2, %invoke.cont ], [ %5, %invoke.cont11 ], !dbg !1383
  store %"class.xercesc_2_7::RangeToken"* %cond, %"class.xercesc_2_7::RangeToken"** %tmpTok, align 8, !dbg !1382
  %fTokens = getelementptr inbounds %"class.xercesc_2_7::TokenFactory", %"class.xercesc_2_7::TokenFactory"* %this1, i32 0, i32 0, !dbg !1392
  %7 = load %"class.xercesc_2_7::RefVectorOf"*, %"class.xercesc_2_7::RefVectorOf"** %fTokens, align 8, !dbg !1392
  %8 = bitcast %"class.xercesc_2_7::RefVectorOf"* %7 to %"class.xercesc_2_7::BaseRefVectorOf"*, !dbg !1393
  %9 = load %"class.xercesc_2_7::RangeToken"*, %"class.xercesc_2_7::RangeToken"** %tmpTok, align 8, !dbg !1394
  %10 = bitcast %"class.xercesc_2_7::RangeToken"* %9 to %"class.xercesc_2_7::Token"*, !dbg !1394
  call void @_ZN11xercesc_2_715BaseRefVectorOfINS_5TokenEE10addElementEPS1_(%"class.xercesc_2_7::BaseRefVectorOf"* %8, %"class.xercesc_2_7::Token"* %10), !dbg !1393
  %11 = load %"class.xercesc_2_7::RangeToken"*, %"class.xercesc_2_7::RangeToken"** %tmpTok, align 8, !dbg !1395
  ret %"class.xercesc_2_7::RangeToken"* %11, !dbg !1396

lpad:                                             ; preds = %cond.true
  %12 = landingpad { i8*, i32 }
          cleanup, !dbg !1397
  %13 = extractvalue { i8*, i32 } %12, 0, !dbg !1397
  store i8* %13, i8** %exn.slot, align 8, !dbg !1397
  %14 = extractvalue { i8*, i32 } %12, 1, !dbg !1397
  store i32 %14, i32* %ehselector.slot, align 4, !dbg !1397
  %cleanup.is_active = load i1, i1* %cleanup.cond, align 1, !dbg !1385
  br i1 %cleanup.is_active, label %cleanup.action, label %cleanup.done, !dbg !1385

cleanup.action:                                   ; preds = %lpad
  %15 = load i8*, i8** %saved-rvalue, align 8, !dbg !1385
  %16 = load %"class.xercesc_2_7::MemoryManager"*, %"class.xercesc_2_7::MemoryManager"** %saved-rvalue2, align 8, !dbg !1385
  call void @_ZN11xercesc_2_77XMemorydlEPvPNS_13MemoryManagerE(i8* %15, %"class.xercesc_2_7::MemoryManager"* %16) #7, !dbg !1385
  br label %cleanup.done, !dbg !1385

cleanup.done:                                     ; preds = %cleanup.action, %lpad
  br label %eh.resume, !dbg !1385

lpad10:                                           ; preds = %cond.false
  %17 = landingpad { i8*, i32 }
          cleanup, !dbg !1397
  %18 = extractvalue { i8*, i32 } %17, 0, !dbg !1397
  store i8* %18, i8** %exn.slot, align 8, !dbg !1397
  %19 = extractvalue { i8*, i32 } %17, 1, !dbg !1397
  store i32 %19, i32* %ehselector.slot, align 4, !dbg !1397
  %cleanup.is_active12 = load i1, i1* %cleanup.cond8, align 1, !dbg !1389
  br i1 %cleanup.is_active12, label %cleanup.action13, label %cleanup.done14, !dbg !1389

cleanup.action13:                                 ; preds = %lpad10
  %20 = load i8*, i8** %saved-rvalue6, align 8, !dbg !1389
  %21 = load %"class.xercesc_2_7::MemoryManager"*, %"class.xercesc_2_7::MemoryManager"** %saved-rvalue7, align 8, !dbg !1389
  call void @_ZN11xercesc_2_77XMemorydlEPvPNS_13MemoryManagerE(i8* %20, %"class.xercesc_2_7::MemoryManager"* %21) #7, !dbg !1389
  br label %cleanup.done14, !dbg !1389

cleanup.done14:                                   ; preds = %cleanup.action13, %lpad10
  br label %eh.resume, !dbg !1389

eh.resume:                                        ; preds = %cleanup.done14, %cleanup.done
  %exn = load i8*, i8** %exn.slot, align 8, !dbg !1385
  %sel = load i32, i32* %ehselector.slot, align 4, !dbg !1385
  %lpad.val = insertvalue { i8*, i32 } undef, i8* %exn, 0, !dbg !1385
  %lpad.val15 = insertvalue { i8*, i32 } %lpad.val, i32 %sel, 1, !dbg !1385
  resume { i8*, i32 } %lpad.val15, !dbg !1385
}

declare dso_local void @_ZN11xercesc_2_710RangeTokenC1EtPNS_13MemoryManagerE(%"class.xercesc_2_7::RangeToken"*, i16 zeroext, %"class.xercesc_2_7::MemoryManager"*) unnamed_addr #4

; Function Attrs: noinline uwtable
define dso_local %"class.xercesc_2_7::CharToken"* @_ZN11xercesc_2_712TokenFactory10createCharEjb(%"class.xercesc_2_7::TokenFactory"* %this, i32 %ch, i1 zeroext %isAnchor) #3 align 2 personality i8* bitcast (i32 (...)* @__gxx_personality_v0 to i8*) !dbg !1398 {
entry:
  %this.addr = alloca %"class.xercesc_2_7::TokenFactory"*, align 8
  %ch.addr = alloca i32, align 4
  %isAnchor.addr = alloca i8, align 1
  %tmpTok = alloca %"class.xercesc_2_7::CharToken"*, align 8
  %saved-rvalue = alloca i8*, align 8
  %saved-rvalue2 = alloca %"class.xercesc_2_7::MemoryManager"*, align 8
  %cleanup.cond = alloca i1, align 1
  %exn.slot = alloca i8*
  %ehselector.slot = alloca i32
  %saved-rvalue6 = alloca i8*, align 8
  %saved-rvalue7 = alloca %"class.xercesc_2_7::MemoryManager"*, align 8
  %cleanup.cond8 = alloca i1, align 1
  store %"class.xercesc_2_7::TokenFactory"* %this, %"class.xercesc_2_7::TokenFactory"** %this.addr, align 8
  call void @llvm.dbg.declare(metadata %"class.xercesc_2_7::TokenFactory"** %this.addr, metadata !1399, metadata !DIExpression()), !dbg !1400
  store i32 %ch, i32* %ch.addr, align 4
  call void @llvm.dbg.declare(metadata i32* %ch.addr, metadata !1401, metadata !DIExpression()), !dbg !1402
  %frombool = zext i1 %isAnchor to i8
  store i8 %frombool, i8* %isAnchor.addr, align 1
  call void @llvm.dbg.declare(metadata i8* %isAnchor.addr, metadata !1403, metadata !DIExpression()), !dbg !1404
  %this1 = load %"class.xercesc_2_7::TokenFactory"*, %"class.xercesc_2_7::TokenFactory"** %this.addr, align 8
  call void @llvm.dbg.declare(metadata %"class.xercesc_2_7::CharToken"** %tmpTok, metadata !1405, metadata !DIExpression()), !dbg !1406
  %0 = load i8, i8* %isAnchor.addr, align 1, !dbg !1407
  %tobool = trunc i8 %0 to i1, !dbg !1407
  store i1 false, i1* %cleanup.cond, align 1
  store i1 false, i1* %cleanup.cond8, align 1
  br i1 %tobool, label %cond.true, label %cond.false, !dbg !1407

cond.true:                                        ; preds = %entry
  %fMemoryManager = getelementptr inbounds %"class.xercesc_2_7::TokenFactory", %"class.xercesc_2_7::TokenFactory"* %this1, i32 0, i32 15, !dbg !1408
  %1 = load %"class.xercesc_2_7::MemoryManager"*, %"class.xercesc_2_7::MemoryManager"** %fMemoryManager, align 8, !dbg !1408
  %call = call i8* @_ZN11xercesc_2_77XMemorynwEmPNS_13MemoryManagerE(i64 32, %"class.xercesc_2_7::MemoryManager"* %1), !dbg !1409
  store i8* %call, i8** %saved-rvalue, align 8, !dbg !1409
  store %"class.xercesc_2_7::MemoryManager"* %1, %"class.xercesc_2_7::MemoryManager"** %saved-rvalue2, align 8, !dbg !1409
  store i1 true, i1* %cleanup.cond, align 1, !dbg !1409
  %2 = bitcast i8* %call to %"class.xercesc_2_7::CharToken"*, !dbg !1409
  %3 = load i32, i32* %ch.addr, align 4, !dbg !1410
  %fMemoryManager3 = getelementptr inbounds %"class.xercesc_2_7::TokenFactory", %"class.xercesc_2_7::TokenFactory"* %this1, i32 0, i32 15, !dbg !1411
  %4 = load %"class.xercesc_2_7::MemoryManager"*, %"class.xercesc_2_7::MemoryManager"** %fMemoryManager3, align 8, !dbg !1411
  invoke void @_ZN11xercesc_2_79CharTokenC1EtiPNS_13MemoryManagerE(%"class.xercesc_2_7::CharToken"* %2, i16 zeroext 8, i32 %3, %"class.xercesc_2_7::MemoryManager"* %4)
          to label %invoke.cont unwind label %lpad, !dbg !1412

invoke.cont:                                      ; preds = %cond.true
  br label %cond.end, !dbg !1407

cond.false:                                       ; preds = %entry
  %fMemoryManager4 = getelementptr inbounds %"class.xercesc_2_7::TokenFactory", %"class.xercesc_2_7::TokenFactory"* %this1, i32 0, i32 15, !dbg !1413
  %5 = load %"class.xercesc_2_7::MemoryManager"*, %"class.xercesc_2_7::MemoryManager"** %fMemoryManager4, align 8, !dbg !1413
  %call5 = call i8* @_ZN11xercesc_2_77XMemorynwEmPNS_13MemoryManagerE(i64 32, %"class.xercesc_2_7::MemoryManager"* %5), !dbg !1414
  store i8* %call5, i8** %saved-rvalue6, align 8, !dbg !1414
  store %"class.xercesc_2_7::MemoryManager"* %5, %"class.xercesc_2_7::MemoryManager"** %saved-rvalue7, align 8, !dbg !1414
  store i1 true, i1* %cleanup.cond8, align 1, !dbg !1414
  %6 = bitcast i8* %call5 to %"class.xercesc_2_7::CharToken"*, !dbg !1414
  %7 = load i32, i32* %ch.addr, align 4, !dbg !1415
  %fMemoryManager9 = getelementptr inbounds %"class.xercesc_2_7::TokenFactory", %"class.xercesc_2_7::TokenFactory"* %this1, i32 0, i32 15, !dbg !1416
  %8 = load %"class.xercesc_2_7::MemoryManager"*, %"class.xercesc_2_7::MemoryManager"** %fMemoryManager9, align 8, !dbg !1416
  invoke void @_ZN11xercesc_2_79CharTokenC1EtiPNS_13MemoryManagerE(%"class.xercesc_2_7::CharToken"* %6, i16 zeroext 0, i32 %7, %"class.xercesc_2_7::MemoryManager"* %8)
          to label %invoke.cont11 unwind label %lpad10, !dbg !1417

invoke.cont11:                                    ; preds = %cond.false
  br label %cond.end, !dbg !1407

cond.end:                                         ; preds = %invoke.cont11, %invoke.cont
  %cond = phi %"class.xercesc_2_7::CharToken"* [ %2, %invoke.cont ], [ %6, %invoke.cont11 ], !dbg !1407
  store %"class.xercesc_2_7::CharToken"* %cond, %"class.xercesc_2_7::CharToken"** %tmpTok, align 8, !dbg !1406
  %fTokens = getelementptr inbounds %"class.xercesc_2_7::TokenFactory", %"class.xercesc_2_7::TokenFactory"* %this1, i32 0, i32 0, !dbg !1418
  %9 = load %"class.xercesc_2_7::RefVectorOf"*, %"class.xercesc_2_7::RefVectorOf"** %fTokens, align 8, !dbg !1418
  %10 = bitcast %"class.xercesc_2_7::RefVectorOf"* %9 to %"class.xercesc_2_7::BaseRefVectorOf"*, !dbg !1419
  %11 = load %"class.xercesc_2_7::CharToken"*, %"class.xercesc_2_7::CharToken"** %tmpTok, align 8, !dbg !1420
  %12 = bitcast %"class.xercesc_2_7::CharToken"* %11 to %"class.xercesc_2_7::Token"*, !dbg !1420
  call void @_ZN11xercesc_2_715BaseRefVectorOfINS_5TokenEE10addElementEPS1_(%"class.xercesc_2_7::BaseRefVectorOf"* %10, %"class.xercesc_2_7::Token"* %12), !dbg !1419
  %13 = load %"class.xercesc_2_7::CharToken"*, %"class.xercesc_2_7::CharToken"** %tmpTok, align 8, !dbg !1421
  ret %"class.xercesc_2_7::CharToken"* %13, !dbg !1422

lpad:                                             ; preds = %cond.true
  %14 = landingpad { i8*, i32 }
          cleanup, !dbg !1423
  %15 = extractvalue { i8*, i32 } %14, 0, !dbg !1423
  store i8* %15, i8** %exn.slot, align 8, !dbg !1423
  %16 = extractvalue { i8*, i32 } %14, 1, !dbg !1423
  store i32 %16, i32* %ehselector.slot, align 4, !dbg !1423
  %cleanup.is_active = load i1, i1* %cleanup.cond, align 1, !dbg !1409
  br i1 %cleanup.is_active, label %cleanup.action, label %cleanup.done, !dbg !1409

cleanup.action:                                   ; preds = %lpad
  %17 = load i8*, i8** %saved-rvalue, align 8, !dbg !1409
  %18 = load %"class.xercesc_2_7::MemoryManager"*, %"class.xercesc_2_7::MemoryManager"** %saved-rvalue2, align 8, !dbg !1409
  call void @_ZN11xercesc_2_77XMemorydlEPvPNS_13MemoryManagerE(i8* %17, %"class.xercesc_2_7::MemoryManager"* %18) #7, !dbg !1409
  br label %cleanup.done, !dbg !1409

cleanup.done:                                     ; preds = %cleanup.action, %lpad
  br label %eh.resume, !dbg !1409

lpad10:                                           ; preds = %cond.false
  %19 = landingpad { i8*, i32 }
          cleanup, !dbg !1423
  %20 = extractvalue { i8*, i32 } %19, 0, !dbg !1423
  store i8* %20, i8** %exn.slot, align 8, !dbg !1423
  %21 = extractvalue { i8*, i32 } %19, 1, !dbg !1423
  store i32 %21, i32* %ehselector.slot, align 4, !dbg !1423
  %cleanup.is_active12 = load i1, i1* %cleanup.cond8, align 1, !dbg !1414
  br i1 %cleanup.is_active12, label %cleanup.action13, label %cleanup.done14, !dbg !1414

cleanup.action13:                                 ; preds = %lpad10
  %22 = load i8*, i8** %saved-rvalue6, align 8, !dbg !1414
  %23 = load %"class.xercesc_2_7::MemoryManager"*, %"class.xercesc_2_7::MemoryManager"** %saved-rvalue7, align 8, !dbg !1414
  call void @_ZN11xercesc_2_77XMemorydlEPvPNS_13MemoryManagerE(i8* %22, %"class.xercesc_2_7::MemoryManager"* %23) #7, !dbg !1414
  br label %cleanup.done14, !dbg !1414

cleanup.done14:                                   ; preds = %cleanup.action13, %lpad10
  br label %eh.resume, !dbg !1414

eh.resume:                                        ; preds = %cleanup.done14, %cleanup.done
  %exn = load i8*, i8** %exn.slot, align 8, !dbg !1409
  %sel = load i32, i32* %ehselector.slot, align 4, !dbg !1409
  %lpad.val = insertvalue { i8*, i32 } undef, i8* %exn, 0, !dbg !1409
  %lpad.val15 = insertvalue { i8*, i32 } %lpad.val, i32 %sel, 1, !dbg !1409
  resume { i8*, i32 } %lpad.val15, !dbg !1409
}

declare dso_local void @_ZN11xercesc_2_79CharTokenC1EtiPNS_13MemoryManagerE(%"class.xercesc_2_7::CharToken"*, i16 zeroext, i32, %"class.xercesc_2_7::MemoryManager"*) unnamed_addr #4

; Function Attrs: noinline uwtable
define dso_local %"class.xercesc_2_7::StringToken"* @_ZN11xercesc_2_712TokenFactory19createBackReferenceEi(%"class.xercesc_2_7::TokenFactory"* %this, i32 %noRefs) #3 align 2 personality i8* bitcast (i32 (...)* @__gxx_personality_v0 to i8*) !dbg !1424 {
entry:
  %this.addr = alloca %"class.xercesc_2_7::TokenFactory"*, align 8
  %noRefs.addr = alloca i32, align 4
  %tmpTok = alloca %"class.xercesc_2_7::StringToken"*, align 8
  %exn.slot = alloca i8*
  %ehselector.slot = alloca i32
  store %"class.xercesc_2_7::TokenFactory"* %this, %"class.xercesc_2_7::TokenFactory"** %this.addr, align 8
  call void @llvm.dbg.declare(metadata %"class.xercesc_2_7::TokenFactory"** %this.addr, metadata !1425, metadata !DIExpression()), !dbg !1426
  store i32 %noRefs, i32* %noRefs.addr, align 4
  call void @llvm.dbg.declare(metadata i32* %noRefs.addr, metadata !1427, metadata !DIExpression()), !dbg !1428
  %this1 = load %"class.xercesc_2_7::TokenFactory"*, %"class.xercesc_2_7::TokenFactory"** %this.addr, align 8
  call void @llvm.dbg.declare(metadata %"class.xercesc_2_7::StringToken"** %tmpTok, metadata !1429, metadata !DIExpression()), !dbg !1430
  %fMemoryManager = getelementptr inbounds %"class.xercesc_2_7::TokenFactory", %"class.xercesc_2_7::TokenFactory"* %this1, i32 0, i32 15, !dbg !1431
  %0 = load %"class.xercesc_2_7::MemoryManager"*, %"class.xercesc_2_7::MemoryManager"** %fMemoryManager, align 8, !dbg !1431
  %call = call i8* @_ZN11xercesc_2_77XMemorynwEmPNS_13MemoryManagerE(i64 48, %"class.xercesc_2_7::MemoryManager"* %0), !dbg !1432
  %1 = bitcast i8* %call to %"class.xercesc_2_7::StringToken"*, !dbg !1432
  %2 = load i32, i32* %noRefs.addr, align 4, !dbg !1433
  %fMemoryManager2 = getelementptr inbounds %"class.xercesc_2_7::TokenFactory", %"class.xercesc_2_7::TokenFactory"* %this1, i32 0, i32 15, !dbg !1434
  %3 = load %"class.xercesc_2_7::MemoryManager"*, %"class.xercesc_2_7::MemoryManager"** %fMemoryManager2, align 8, !dbg !1434
  invoke void @_ZN11xercesc_2_711StringTokenC1EtPKtiPNS_13MemoryManagerE(%"class.xercesc_2_7::StringToken"* %1, i16 zeroext 12, i16* null, i32 %2, %"class.xercesc_2_7::MemoryManager"* %3)
          to label %invoke.cont unwind label %lpad, !dbg !1435

invoke.cont:                                      ; preds = %entry
  store %"class.xercesc_2_7::StringToken"* %1, %"class.xercesc_2_7::StringToken"** %tmpTok, align 8, !dbg !1430
  %fTokens = getelementptr inbounds %"class.xercesc_2_7::TokenFactory", %"class.xercesc_2_7::TokenFactory"* %this1, i32 0, i32 0, !dbg !1436
  %4 = load %"class.xercesc_2_7::RefVectorOf"*, %"class.xercesc_2_7::RefVectorOf"** %fTokens, align 8, !dbg !1436
  %5 = bitcast %"class.xercesc_2_7::RefVectorOf"* %4 to %"class.xercesc_2_7::BaseRefVectorOf"*, !dbg !1437
  %6 = load %"class.xercesc_2_7::StringToken"*, %"class.xercesc_2_7::StringToken"** %tmpTok, align 8, !dbg !1438
  %7 = bitcast %"class.xercesc_2_7::StringToken"* %6 to %"class.xercesc_2_7::Token"*, !dbg !1438
  call void @_ZN11xercesc_2_715BaseRefVectorOfINS_5TokenEE10addElementEPS1_(%"class.xercesc_2_7::BaseRefVectorOf"* %5, %"class.xercesc_2_7::Token"* %7), !dbg !1437
  %8 = load %"class.xercesc_2_7::StringToken"*, %"class.xercesc_2_7::StringToken"** %tmpTok, align 8, !dbg !1439
  ret %"class.xercesc_2_7::StringToken"* %8, !dbg !1440

lpad:                                             ; preds = %entry
  %9 = landingpad { i8*, i32 }
          cleanup, !dbg !1441
  %10 = extractvalue { i8*, i32 } %9, 0, !dbg !1441
  store i8* %10, i8** %exn.slot, align 8, !dbg !1441
  %11 = extractvalue { i8*, i32 } %9, 1, !dbg !1441
  store i32 %11, i32* %ehselector.slot, align 4, !dbg !1441
  call void @_ZN11xercesc_2_77XMemorydlEPvPNS_13MemoryManagerE(i8* %call, %"class.xercesc_2_7::MemoryManager"* %0) #7, !dbg !1432
  br label %eh.resume, !dbg !1432

eh.resume:                                        ; preds = %lpad
  %exn = load i8*, i8** %exn.slot, align 8, !dbg !1432
  %sel = load i32, i32* %ehselector.slot, align 4, !dbg !1432
  %lpad.val = insertvalue { i8*, i32 } undef, i8* %exn, 0, !dbg !1432
  %lpad.val3 = insertvalue { i8*, i32 } %lpad.val, i32 %sel, 1, !dbg !1432
  resume { i8*, i32 } %lpad.val3, !dbg !1432
}

declare dso_local void @_ZN11xercesc_2_711StringTokenC1EtPKtiPNS_13MemoryManagerE(%"class.xercesc_2_7::StringToken"*, i16 zeroext, i16*, i32, %"class.xercesc_2_7::MemoryManager"*) unnamed_addr #4

; Function Attrs: noinline uwtable
define dso_local %"class.xercesc_2_7::StringToken"* @_ZN11xercesc_2_712TokenFactory12createStringEPKt(%"class.xercesc_2_7::TokenFactory"* %this, i16* %literal) #3 align 2 personality i8* bitcast (i32 (...)* @__gxx_personality_v0 to i8*) !dbg !1442 {
entry:
  %this.addr = alloca %"class.xercesc_2_7::TokenFactory"*, align 8
  %literal.addr = alloca i16*, align 8
  %tmpTok = alloca %"class.xercesc_2_7::StringToken"*, align 8
  %exn.slot = alloca i8*
  %ehselector.slot = alloca i32
  store %"class.xercesc_2_7::TokenFactory"* %this, %"class.xercesc_2_7::TokenFactory"** %this.addr, align 8
  call void @llvm.dbg.declare(metadata %"class.xercesc_2_7::TokenFactory"** %this.addr, metadata !1443, metadata !DIExpression()), !dbg !1444
  store i16* %literal, i16** %literal.addr, align 8
  call void @llvm.dbg.declare(metadata i16** %literal.addr, metadata !1445, metadata !DIExpression()), !dbg !1446
  %this1 = load %"class.xercesc_2_7::TokenFactory"*, %"class.xercesc_2_7::TokenFactory"** %this.addr, align 8
  call void @llvm.dbg.declare(metadata %"class.xercesc_2_7::StringToken"** %tmpTok, metadata !1447, metadata !DIExpression()), !dbg !1448
  %fMemoryManager = getelementptr inbounds %"class.xercesc_2_7::TokenFactory", %"class.xercesc_2_7::TokenFactory"* %this1, i32 0, i32 15, !dbg !1449
  %0 = load %"class.xercesc_2_7::MemoryManager"*, %"class.xercesc_2_7::MemoryManager"** %fMemoryManager, align 8, !dbg !1449
  %call = call i8* @_ZN11xercesc_2_77XMemorynwEmPNS_13MemoryManagerE(i64 48, %"class.xercesc_2_7::MemoryManager"* %0), !dbg !1450
  %1 = bitcast i8* %call to %"class.xercesc_2_7::StringToken"*, !dbg !1450
  %2 = load i16*, i16** %literal.addr, align 8, !dbg !1451
  %fMemoryManager2 = getelementptr inbounds %"class.xercesc_2_7::TokenFactory", %"class.xercesc_2_7::TokenFactory"* %this1, i32 0, i32 15, !dbg !1452
  %3 = load %"class.xercesc_2_7::MemoryManager"*, %"class.xercesc_2_7::MemoryManager"** %fMemoryManager2, align 8, !dbg !1452
  invoke void @_ZN11xercesc_2_711StringTokenC1EtPKtiPNS_13MemoryManagerE(%"class.xercesc_2_7::StringToken"* %1, i16 zeroext 10, i16* %2, i32 0, %"class.xercesc_2_7::MemoryManager"* %3)
          to label %invoke.cont unwind label %lpad, !dbg !1453

invoke.cont:                                      ; preds = %entry
  store %"class.xercesc_2_7::StringToken"* %1, %"class.xercesc_2_7::StringToken"** %tmpTok, align 8, !dbg !1448
  %fTokens = getelementptr inbounds %"class.xercesc_2_7::TokenFactory", %"class.xercesc_2_7::TokenFactory"* %this1, i32 0, i32 0, !dbg !1454
  %4 = load %"class.xercesc_2_7::RefVectorOf"*, %"class.xercesc_2_7::RefVectorOf"** %fTokens, align 8, !dbg !1454
  %5 = bitcast %"class.xercesc_2_7::RefVectorOf"* %4 to %"class.xercesc_2_7::BaseRefVectorOf"*, !dbg !1455
  %6 = load %"class.xercesc_2_7::StringToken"*, %"class.xercesc_2_7::StringToken"** %tmpTok, align 8, !dbg !1456
  %7 = bitcast %"class.xercesc_2_7::StringToken"* %6 to %"class.xercesc_2_7::Token"*, !dbg !1456
  call void @_ZN11xercesc_2_715BaseRefVectorOfINS_5TokenEE10addElementEPS1_(%"class.xercesc_2_7::BaseRefVectorOf"* %5, %"class.xercesc_2_7::Token"* %7), !dbg !1455
  %8 = load %"class.xercesc_2_7::StringToken"*, %"class.xercesc_2_7::StringToken"** %tmpTok, align 8, !dbg !1457
  ret %"class.xercesc_2_7::StringToken"* %8, !dbg !1458

lpad:                                             ; preds = %entry
  %9 = landingpad { i8*, i32 }
          cleanup, !dbg !1459
  %10 = extractvalue { i8*, i32 } %9, 0, !dbg !1459
  store i8* %10, i8** %exn.slot, align 8, !dbg !1459
  %11 = extractvalue { i8*, i32 } %9, 1, !dbg !1459
  store i32 %11, i32* %ehselector.slot, align 4, !dbg !1459
  call void @_ZN11xercesc_2_77XMemorydlEPvPNS_13MemoryManagerE(i8* %call, %"class.xercesc_2_7::MemoryManager"* %0) #7, !dbg !1450
  br label %eh.resume, !dbg !1450

eh.resume:                                        ; preds = %lpad
  %exn = load i8*, i8** %exn.slot, align 8, !dbg !1450
  %sel = load i32, i32* %ehselector.slot, align 4, !dbg !1450
  %lpad.val = insertvalue { i8*, i32 } undef, i8* %exn, 0, !dbg !1450
  %lpad.val3 = insertvalue { i8*, i32 } %lpad.val, i32 %sel, 1, !dbg !1450
  resume { i8*, i32 } %lpad.val3, !dbg !1450
}

; Function Attrs: noinline uwtable
define dso_local %"class.xercesc_2_7::ModifierToken"* @_ZN11xercesc_2_712TokenFactory19createModifierGroupEPNS_5TokenEii(%"class.xercesc_2_7::TokenFactory"* %this, %"class.xercesc_2_7::Token"* %child, i32 %add, i32 %mask) #3 align 2 personality i8* bitcast (i32 (...)* @__gxx_personality_v0 to i8*) !dbg !1460 {
entry:
  %this.addr = alloca %"class.xercesc_2_7::TokenFactory"*, align 8
  %child.addr = alloca %"class.xercesc_2_7::Token"*, align 8
  %add.addr = alloca i32, align 4
  %mask.addr = alloca i32, align 4
  %tmpTok = alloca %"class.xercesc_2_7::ModifierToken"*, align 8
  %exn.slot = alloca i8*
  %ehselector.slot = alloca i32
  store %"class.xercesc_2_7::TokenFactory"* %this, %"class.xercesc_2_7::TokenFactory"** %this.addr, align 8
  call void @llvm.dbg.declare(metadata %"class.xercesc_2_7::TokenFactory"** %this.addr, metadata !1461, metadata !DIExpression()), !dbg !1462
  store %"class.xercesc_2_7::Token"* %child, %"class.xercesc_2_7::Token"** %child.addr, align 8
  call void @llvm.dbg.declare(metadata %"class.xercesc_2_7::Token"** %child.addr, metadata !1463, metadata !DIExpression()), !dbg !1464
  store i32 %add, i32* %add.addr, align 4
  call void @llvm.dbg.declare(metadata i32* %add.addr, metadata !1465, metadata !DIExpression()), !dbg !1466
  store i32 %mask, i32* %mask.addr, align 4
  call void @llvm.dbg.declare(metadata i32* %mask.addr, metadata !1467, metadata !DIExpression()), !dbg !1468
  %this1 = load %"class.xercesc_2_7::TokenFactory"*, %"class.xercesc_2_7::TokenFactory"** %this.addr, align 8
  call void @llvm.dbg.declare(metadata %"class.xercesc_2_7::ModifierToken"** %tmpTok, metadata !1469, metadata !DIExpression()), !dbg !1470
  %fMemoryManager = getelementptr inbounds %"class.xercesc_2_7::TokenFactory", %"class.xercesc_2_7::TokenFactory"* %this1, i32 0, i32 15, !dbg !1471
  %0 = load %"class.xercesc_2_7::MemoryManager"*, %"class.xercesc_2_7::MemoryManager"** %fMemoryManager, align 8, !dbg !1471
  %call = call i8* @_ZN11xercesc_2_77XMemorynwEmPNS_13MemoryManagerE(i64 40, %"class.xercesc_2_7::MemoryManager"* %0), !dbg !1472
  %1 = bitcast i8* %call to %"class.xercesc_2_7::ModifierToken"*, !dbg !1472
  %2 = load %"class.xercesc_2_7::Token"*, %"class.xercesc_2_7::Token"** %child.addr, align 8, !dbg !1473
  %3 = load i32, i32* %add.addr, align 4, !dbg !1474
  %4 = load i32, i32* %mask.addr, align 4, !dbg !1475
  %fMemoryManager2 = getelementptr inbounds %"class.xercesc_2_7::TokenFactory", %"class.xercesc_2_7::TokenFactory"* %this1, i32 0, i32 15, !dbg !1476
  %5 = load %"class.xercesc_2_7::MemoryManager"*, %"class.xercesc_2_7::MemoryManager"** %fMemoryManager2, align 8, !dbg !1476
  invoke void @_ZN11xercesc_2_713ModifierTokenC1EPNS_5TokenEiiPNS_13MemoryManagerE(%"class.xercesc_2_7::ModifierToken"* %1, %"class.xercesc_2_7::Token"* %2, i32 %3, i32 %4, %"class.xercesc_2_7::MemoryManager"* %5)
          to label %invoke.cont unwind label %lpad, !dbg !1477

invoke.cont:                                      ; preds = %entry
  store %"class.xercesc_2_7::ModifierToken"* %1, %"class.xercesc_2_7::ModifierToken"** %tmpTok, align 8, !dbg !1470
  %fTokens = getelementptr inbounds %"class.xercesc_2_7::TokenFactory", %"class.xercesc_2_7::TokenFactory"* %this1, i32 0, i32 0, !dbg !1478
  %6 = load %"class.xercesc_2_7::RefVectorOf"*, %"class.xercesc_2_7::RefVectorOf"** %fTokens, align 8, !dbg !1478
  %7 = bitcast %"class.xercesc_2_7::RefVectorOf"* %6 to %"class.xercesc_2_7::BaseRefVectorOf"*, !dbg !1479
  %8 = load %"class.xercesc_2_7::ModifierToken"*, %"class.xercesc_2_7::ModifierToken"** %tmpTok, align 8, !dbg !1480
  %9 = bitcast %"class.xercesc_2_7::ModifierToken"* %8 to %"class.xercesc_2_7::Token"*, !dbg !1480
  call void @_ZN11xercesc_2_715BaseRefVectorOfINS_5TokenEE10addElementEPS1_(%"class.xercesc_2_7::BaseRefVectorOf"* %7, %"class.xercesc_2_7::Token"* %9), !dbg !1479
  %10 = load %"class.xercesc_2_7::ModifierToken"*, %"class.xercesc_2_7::ModifierToken"** %tmpTok, align 8, !dbg !1481
  ret %"class.xercesc_2_7::ModifierToken"* %10, !dbg !1482

lpad:                                             ; preds = %entry
  %11 = landingpad { i8*, i32 }
          cleanup, !dbg !1483
  %12 = extractvalue { i8*, i32 } %11, 0, !dbg !1483
  store i8* %12, i8** %exn.slot, align 8, !dbg !1483
  %13 = extractvalue { i8*, i32 } %11, 1, !dbg !1483
  store i32 %13, i32* %ehselector.slot, align 4, !dbg !1483
  call void @_ZN11xercesc_2_77XMemorydlEPvPNS_13MemoryManagerE(i8* %call, %"class.xercesc_2_7::MemoryManager"* %0) #7, !dbg !1472
  br label %eh.resume, !dbg !1472

eh.resume:                                        ; preds = %lpad
  %exn = load i8*, i8** %exn.slot, align 8, !dbg !1472
  %sel = load i32, i32* %ehselector.slot, align 4, !dbg !1472
  %lpad.val = insertvalue { i8*, i32 } undef, i8* %exn, 0, !dbg !1472
  %lpad.val3 = insertvalue { i8*, i32 } %lpad.val, i32 %sel, 1, !dbg !1472
  resume { i8*, i32 } %lpad.val3, !dbg !1472
}

declare dso_local void @_ZN11xercesc_2_713ModifierTokenC1EPNS_5TokenEiiPNS_13MemoryManagerE(%"class.xercesc_2_7::ModifierToken"*, %"class.xercesc_2_7::Token"*, i32, i32, %"class.xercesc_2_7::MemoryManager"*) unnamed_addr #4

; Function Attrs: noinline uwtable
define dso_local %"class.xercesc_2_7::ConditionToken"* @_ZN11xercesc_2_712TokenFactory15createConditionEiPNS_5TokenES2_S2_(%"class.xercesc_2_7::TokenFactory"* %this, i32 %refNo, %"class.xercesc_2_7::Token"* %condition, %"class.xercesc_2_7::Token"* %yesFlow, %"class.xercesc_2_7::Token"* %noFlow) #3 align 2 personality i8* bitcast (i32 (...)* @__gxx_personality_v0 to i8*) !dbg !1484 {
entry:
  %this.addr = alloca %"class.xercesc_2_7::TokenFactory"*, align 8
  %refNo.addr = alloca i32, align 4
  %condition.addr = alloca %"class.xercesc_2_7::Token"*, align 8
  %yesFlow.addr = alloca %"class.xercesc_2_7::Token"*, align 8
  %noFlow.addr = alloca %"class.xercesc_2_7::Token"*, align 8
  %tmpTok = alloca %"class.xercesc_2_7::ConditionToken"*, align 8
  %exn.slot = alloca i8*
  %ehselector.slot = alloca i32
  store %"class.xercesc_2_7::TokenFactory"* %this, %"class.xercesc_2_7::TokenFactory"** %this.addr, align 8
  call void @llvm.dbg.declare(metadata %"class.xercesc_2_7::TokenFactory"** %this.addr, metadata !1485, metadata !DIExpression()), !dbg !1486
  store i32 %refNo, i32* %refNo.addr, align 4
  call void @llvm.dbg.declare(metadata i32* %refNo.addr, metadata !1487, metadata !DIExpression()), !dbg !1488
  store %"class.xercesc_2_7::Token"* %condition, %"class.xercesc_2_7::Token"** %condition.addr, align 8
  call void @llvm.dbg.declare(metadata %"class.xercesc_2_7::Token"** %condition.addr, metadata !1489, metadata !DIExpression()), !dbg !1490
  store %"class.xercesc_2_7::Token"* %yesFlow, %"class.xercesc_2_7::Token"** %yesFlow.addr, align 8
  call void @llvm.dbg.declare(metadata %"class.xercesc_2_7::Token"** %yesFlow.addr, metadata !1491, metadata !DIExpression()), !dbg !1492
  store %"class.xercesc_2_7::Token"* %noFlow, %"class.xercesc_2_7::Token"** %noFlow.addr, align 8
  call void @llvm.dbg.declare(metadata %"class.xercesc_2_7::Token"** %noFlow.addr, metadata !1493, metadata !DIExpression()), !dbg !1494
  %this1 = load %"class.xercesc_2_7::TokenFactory"*, %"class.xercesc_2_7::TokenFactory"** %this.addr, align 8
  call void @llvm.dbg.declare(metadata %"class.xercesc_2_7::ConditionToken"** %tmpTok, metadata !1495, metadata !DIExpression()), !dbg !1496
  %fMemoryManager = getelementptr inbounds %"class.xercesc_2_7::TokenFactory", %"class.xercesc_2_7::TokenFactory"* %this1, i32 0, i32 15, !dbg !1497
  %0 = load %"class.xercesc_2_7::MemoryManager"*, %"class.xercesc_2_7::MemoryManager"** %fMemoryManager, align 8, !dbg !1497
  %call = call i8* @_ZN11xercesc_2_77XMemorynwEmPNS_13MemoryManagerE(i64 56, %"class.xercesc_2_7::MemoryManager"* %0), !dbg !1498
  %1 = bitcast i8* %call to %"class.xercesc_2_7::ConditionToken"*, !dbg !1498
  %2 = load i32, i32* %refNo.addr, align 4, !dbg !1499
  %3 = load %"class.xercesc_2_7::Token"*, %"class.xercesc_2_7::Token"** %condition.addr, align 8, !dbg !1500
  %4 = load %"class.xercesc_2_7::Token"*, %"class.xercesc_2_7::Token"** %yesFlow.addr, align 8, !dbg !1501
  %5 = load %"class.xercesc_2_7::Token"*, %"class.xercesc_2_7::Token"** %noFlow.addr, align 8, !dbg !1502
  %fMemoryManager2 = getelementptr inbounds %"class.xercesc_2_7::TokenFactory", %"class.xercesc_2_7::TokenFactory"* %this1, i32 0, i32 15, !dbg !1503
  %6 = load %"class.xercesc_2_7::MemoryManager"*, %"class.xercesc_2_7::MemoryManager"** %fMemoryManager2, align 8, !dbg !1503
  invoke void @_ZN11xercesc_2_714ConditionTokenC1EjPNS_5TokenES2_S2_PNS_13MemoryManagerE(%"class.xercesc_2_7::ConditionToken"* %1, i32 %2, %"class.xercesc_2_7::Token"* %3, %"class.xercesc_2_7::Token"* %4, %"class.xercesc_2_7::Token"* %5, %"class.xercesc_2_7::MemoryManager"* %6)
          to label %invoke.cont unwind label %lpad, !dbg !1504

invoke.cont:                                      ; preds = %entry
  store %"class.xercesc_2_7::ConditionToken"* %1, %"class.xercesc_2_7::ConditionToken"** %tmpTok, align 8, !dbg !1496
  %fTokens = getelementptr inbounds %"class.xercesc_2_7::TokenFactory", %"class.xercesc_2_7::TokenFactory"* %this1, i32 0, i32 0, !dbg !1505
  %7 = load %"class.xercesc_2_7::RefVectorOf"*, %"class.xercesc_2_7::RefVectorOf"** %fTokens, align 8, !dbg !1505
  %8 = bitcast %"class.xercesc_2_7::RefVectorOf"* %7 to %"class.xercesc_2_7::BaseRefVectorOf"*, !dbg !1506
  %9 = load %"class.xercesc_2_7::ConditionToken"*, %"class.xercesc_2_7::ConditionToken"** %tmpTok, align 8, !dbg !1507
  %10 = bitcast %"class.xercesc_2_7::ConditionToken"* %9 to %"class.xercesc_2_7::Token"*, !dbg !1507
  call void @_ZN11xercesc_2_715BaseRefVectorOfINS_5TokenEE10addElementEPS1_(%"class.xercesc_2_7::BaseRefVectorOf"* %8, %"class.xercesc_2_7::Token"* %10), !dbg !1506
  %11 = load %"class.xercesc_2_7::ConditionToken"*, %"class.xercesc_2_7::ConditionToken"** %tmpTok, align 8, !dbg !1508
  ret %"class.xercesc_2_7::ConditionToken"* %11, !dbg !1509

lpad:                                             ; preds = %entry
  %12 = landingpad { i8*, i32 }
          cleanup, !dbg !1510
  %13 = extractvalue { i8*, i32 } %12, 0, !dbg !1510
  store i8* %13, i8** %exn.slot, align 8, !dbg !1510
  %14 = extractvalue { i8*, i32 } %12, 1, !dbg !1510
  store i32 %14, i32* %ehselector.slot, align 4, !dbg !1510
  call void @_ZN11xercesc_2_77XMemorydlEPvPNS_13MemoryManagerE(i8* %call, %"class.xercesc_2_7::MemoryManager"* %0) #7, !dbg !1498
  br label %eh.resume, !dbg !1498

eh.resume:                                        ; preds = %lpad
  %exn = load i8*, i8** %exn.slot, align 8, !dbg !1498
  %sel = load i32, i32* %ehselector.slot, align 4, !dbg !1498
  %lpad.val = insertvalue { i8*, i32 } undef, i8* %exn, 0, !dbg !1498
  %lpad.val3 = insertvalue { i8*, i32 } %lpad.val, i32 %sel, 1, !dbg !1498
  resume { i8*, i32 } %lpad.val3, !dbg !1498
}

declare dso_local void @_ZN11xercesc_2_714ConditionTokenC1EjPNS_5TokenES2_S2_PNS_13MemoryManagerE(%"class.xercesc_2_7::ConditionToken"*, i32, %"class.xercesc_2_7::Token"*, %"class.xercesc_2_7::Token"*, %"class.xercesc_2_7::Token"*, %"class.xercesc_2_7::MemoryManager"*) unnamed_addr #4

; Function Attrs: noinline uwtable
define dso_local %"class.xercesc_2_7::RangeToken"* @_ZN11xercesc_2_712TokenFactory14staticGetRangeEPKtb(i16* %keyword, i1 zeroext %complement) #3 align 2 !dbg !1511 {
entry:
  %keyword.addr = alloca i16*, align 8
  %complement.addr = alloca i8, align 1
  store i16* %keyword, i16** %keyword.addr, align 8
  call void @llvm.dbg.declare(metadata i16** %keyword.addr, metadata !1512, metadata !DIExpression()), !dbg !1513
  %frombool = zext i1 %complement to i8
  store i8 %frombool, i8* %complement.addr, align 1
  call void @llvm.dbg.declare(metadata i8* %complement.addr, metadata !1514, metadata !DIExpression()), !dbg !1515
  %call = call %"class.xercesc_2_7::RangeTokenMap"* @_ZN11xercesc_2_713RangeTokenMap8instanceEv(), !dbg !1516
  %0 = load i16*, i16** %keyword.addr, align 8, !dbg !1517
  %1 = load i8, i8* %complement.addr, align 1, !dbg !1518
  %tobool = trunc i8 %1 to i1, !dbg !1518
  %call1 = call %"class.xercesc_2_7::RangeToken"* @_ZN11xercesc_2_713RangeTokenMap8getRangeEPKtb(%"class.xercesc_2_7::RangeTokenMap"* %call, i16* %0, i1 zeroext %tobool), !dbg !1519
  ret %"class.xercesc_2_7::RangeToken"* %call1, !dbg !1520
}

declare dso_local %"class.xercesc_2_7::RangeTokenMap"* @_ZN11xercesc_2_713RangeTokenMap8instanceEv() #4

declare dso_local %"class.xercesc_2_7::RangeToken"* @_ZN11xercesc_2_713RangeTokenMap8getRangeEPKtb(%"class.xercesc_2_7::RangeTokenMap"*, i16*, i1 zeroext) #4

; Function Attrs: noinline uwtable
define dso_local %"class.xercesc_2_7::Token"* @_ZN11xercesc_2_712TokenFactory12getLineBeginEv(%"class.xercesc_2_7::TokenFactory"* %this) #3 align 2 !dbg !1521 {
entry:
  %this.addr = alloca %"class.xercesc_2_7::TokenFactory"*, align 8
  store %"class.xercesc_2_7::TokenFactory"* %this, %"class.xercesc_2_7::TokenFactory"** %this.addr, align 8
  call void @llvm.dbg.declare(metadata %"class.xercesc_2_7::TokenFactory"** %this.addr, metadata !1522, metadata !DIExpression()), !dbg !1523
  %this1 = load %"class.xercesc_2_7::TokenFactory"*, %"class.xercesc_2_7::TokenFactory"** %this.addr, align 8
  %fLineBegin = getelementptr inbounds %"class.xercesc_2_7::TokenFactory", %"class.xercesc_2_7::TokenFactory"* %this1, i32 0, i32 2, !dbg !1524
  %0 = load %"class.xercesc_2_7::Token"*, %"class.xercesc_2_7::Token"** %fLineBegin, align 8, !dbg !1524
  %cmp = icmp eq %"class.xercesc_2_7::Token"* %0, null, !dbg !1526
  br i1 %cmp, label %if.then, label %if.end, !dbg !1527

if.then:                                          ; preds = %entry
  %call = call %"class.xercesc_2_7::CharToken"* @_ZN11xercesc_2_712TokenFactory10createCharEjb(%"class.xercesc_2_7::TokenFactory"* %this1, i32 94, i1 zeroext true), !dbg !1528
  %1 = bitcast %"class.xercesc_2_7::CharToken"* %call to %"class.xercesc_2_7::Token"*, !dbg !1528
  %fLineBegin2 = getelementptr inbounds %"class.xercesc_2_7::TokenFactory", %"class.xercesc_2_7::TokenFactory"* %this1, i32 0, i32 2, !dbg !1529
  store %"class.xercesc_2_7::Token"* %1, %"class.xercesc_2_7::Token"** %fLineBegin2, align 8, !dbg !1530
  br label %if.end, !dbg !1529

if.end:                                           ; preds = %if.then, %entry
  %fLineBegin3 = getelementptr inbounds %"class.xercesc_2_7::TokenFactory", %"class.xercesc_2_7::TokenFactory"* %this1, i32 0, i32 2, !dbg !1531
  %2 = load %"class.xercesc_2_7::Token"*, %"class.xercesc_2_7::Token"** %fLineBegin3, align 8, !dbg !1531
  ret %"class.xercesc_2_7::Token"* %2, !dbg !1532
}

; Function Attrs: noinline uwtable
define dso_local %"class.xercesc_2_7::Token"* @_ZN11xercesc_2_712TokenFactory13getLineBegin2Ev(%"class.xercesc_2_7::TokenFactory"* %this) #3 align 2 !dbg !1533 {
entry:
  %this.addr = alloca %"class.xercesc_2_7::TokenFactory"*, align 8
  store %"class.xercesc_2_7::TokenFactory"* %this, %"class.xercesc_2_7::TokenFactory"** %this.addr, align 8
  call void @llvm.dbg.declare(metadata %"class.xercesc_2_7::TokenFactory"** %this.addr, metadata !1534, metadata !DIExpression()), !dbg !1535
  %this1 = load %"class.xercesc_2_7::TokenFactory"*, %"class.xercesc_2_7::TokenFactory"** %this.addr, align 8
  %fLineBegin2 = getelementptr inbounds %"class.xercesc_2_7::TokenFactory", %"class.xercesc_2_7::TokenFactory"* %this1, i32 0, i32 3, !dbg !1536
  %0 = load %"class.xercesc_2_7::Token"*, %"class.xercesc_2_7::Token"** %fLineBegin2, align 8, !dbg !1536
  %cmp = icmp eq %"class.xercesc_2_7::Token"* %0, null, !dbg !1538
  br i1 %cmp, label %if.then, label %if.end, !dbg !1539

if.then:                                          ; preds = %entry
  %call = call %"class.xercesc_2_7::CharToken"* @_ZN11xercesc_2_712TokenFactory10createCharEjb(%"class.xercesc_2_7::TokenFactory"* %this1, i32 64, i1 zeroext true), !dbg !1540
  %1 = bitcast %"class.xercesc_2_7::CharToken"* %call to %"class.xercesc_2_7::Token"*, !dbg !1540
  %fLineBegin22 = getelementptr inbounds %"class.xercesc_2_7::TokenFactory", %"class.xercesc_2_7::TokenFactory"* %this1, i32 0, i32 3, !dbg !1541
  store %"class.xercesc_2_7::Token"* %1, %"class.xercesc_2_7::Token"** %fLineBegin22, align 8, !dbg !1542
  br label %if.end, !dbg !1541

if.end:                                           ; preds = %if.then, %entry
  %fLineBegin23 = getelementptr inbounds %"class.xercesc_2_7::TokenFactory", %"class.xercesc_2_7::TokenFactory"* %this1, i32 0, i32 3, !dbg !1543
  %2 = load %"class.xercesc_2_7::Token"*, %"class.xercesc_2_7::Token"** %fLineBegin23, align 8, !dbg !1543
  ret %"class.xercesc_2_7::Token"* %2, !dbg !1544
}

; Function Attrs: noinline uwtable
define dso_local %"class.xercesc_2_7::Token"* @_ZN11xercesc_2_712TokenFactory10getLineEndEv(%"class.xercesc_2_7::TokenFactory"* %this) #3 align 2 !dbg !1545 {
entry:
  %this.addr = alloca %"class.xercesc_2_7::TokenFactory"*, align 8
  store %"class.xercesc_2_7::TokenFactory"* %this, %"class.xercesc_2_7::TokenFactory"** %this.addr, align 8
  call void @llvm.dbg.declare(metadata %"class.xercesc_2_7::TokenFactory"** %this.addr, metadata !1546, metadata !DIExpression()), !dbg !1547
  %this1 = load %"class.xercesc_2_7::TokenFactory"*, %"class.xercesc_2_7::TokenFactory"** %this.addr, align 8
  %fLineEnd = getelementptr inbounds %"class.xercesc_2_7::TokenFactory", %"class.xercesc_2_7::TokenFactory"* %this1, i32 0, i32 4, !dbg !1548
  %0 = load %"class.xercesc_2_7::Token"*, %"class.xercesc_2_7::Token"** %fLineEnd, align 8, !dbg !1548
  %cmp = icmp eq %"class.xercesc_2_7::Token"* %0, null, !dbg !1550
  br i1 %cmp, label %if.then, label %if.end, !dbg !1551

if.then:                                          ; preds = %entry
  %call = call %"class.xercesc_2_7::CharToken"* @_ZN11xercesc_2_712TokenFactory10createCharEjb(%"class.xercesc_2_7::TokenFactory"* %this1, i32 36, i1 zeroext true), !dbg !1552
  %1 = bitcast %"class.xercesc_2_7::CharToken"* %call to %"class.xercesc_2_7::Token"*, !dbg !1552
  %fLineEnd2 = getelementptr inbounds %"class.xercesc_2_7::TokenFactory", %"class.xercesc_2_7::TokenFactory"* %this1, i32 0, i32 4, !dbg !1553
  store %"class.xercesc_2_7::Token"* %1, %"class.xercesc_2_7::Token"** %fLineEnd2, align 8, !dbg !1554
  br label %if.end, !dbg !1553

if.end:                                           ; preds = %if.then, %entry
  %fLineEnd3 = getelementptr inbounds %"class.xercesc_2_7::TokenFactory", %"class.xercesc_2_7::TokenFactory"* %this1, i32 0, i32 4, !dbg !1555
  %2 = load %"class.xercesc_2_7::Token"*, %"class.xercesc_2_7::Token"** %fLineEnd3, align 8, !dbg !1555
  ret %"class.xercesc_2_7::Token"* %2, !dbg !1556
}

; Function Attrs: noinline uwtable
define dso_local %"class.xercesc_2_7::Token"* @_ZN11xercesc_2_712TokenFactory14getStringBeginEv(%"class.xercesc_2_7::TokenFactory"* %this) #3 align 2 !dbg !1557 {
entry:
  %this.addr = alloca %"class.xercesc_2_7::TokenFactory"*, align 8
  store %"class.xercesc_2_7::TokenFactory"* %this, %"class.xercesc_2_7::TokenFactory"** %this.addr, align 8
  call void @llvm.dbg.declare(metadata %"class.xercesc_2_7::TokenFactory"** %this.addr, metadata !1558, metadata !DIExpression()), !dbg !1559
  %this1 = load %"class.xercesc_2_7::TokenFactory"*, %"class.xercesc_2_7::TokenFactory"** %this.addr, align 8
  %fStringBegin = getelementptr inbounds %"class.xercesc_2_7::TokenFactory", %"class.xercesc_2_7::TokenFactory"* %this1, i32 0, i32 5, !dbg !1560
  %0 = load %"class.xercesc_2_7::Token"*, %"class.xercesc_2_7::Token"** %fStringBegin, align 8, !dbg !1560
  %cmp = icmp eq %"class.xercesc_2_7::Token"* %0, null, !dbg !1562
  br i1 %cmp, label %if.then, label %if.end, !dbg !1563

if.then:                                          ; preds = %entry
  %call = call %"class.xercesc_2_7::CharToken"* @_ZN11xercesc_2_712TokenFactory10createCharEjb(%"class.xercesc_2_7::TokenFactory"* %this1, i32 65, i1 zeroext true), !dbg !1564
  %1 = bitcast %"class.xercesc_2_7::CharToken"* %call to %"class.xercesc_2_7::Token"*, !dbg !1564
  %fStringBegin2 = getelementptr inbounds %"class.xercesc_2_7::TokenFactory", %"class.xercesc_2_7::TokenFactory"* %this1, i32 0, i32 5, !dbg !1565
  store %"class.xercesc_2_7::Token"* %1, %"class.xercesc_2_7::Token"** %fStringBegin2, align 8, !dbg !1566
  br label %if.end, !dbg !1565

if.end:                                           ; preds = %if.then, %entry
  %fStringBegin3 = getelementptr inbounds %"class.xercesc_2_7::TokenFactory", %"class.xercesc_2_7::TokenFactory"* %this1, i32 0, i32 5, !dbg !1567
  %2 = load %"class.xercesc_2_7::Token"*, %"class.xercesc_2_7::Token"** %fStringBegin3, align 8, !dbg !1567
  ret %"class.xercesc_2_7::Token"* %2, !dbg !1568
}

; Function Attrs: noinline uwtable
define dso_local %"class.xercesc_2_7::Token"* @_ZN11xercesc_2_712TokenFactory12getStringEndEv(%"class.xercesc_2_7::TokenFactory"* %this) #3 align 2 !dbg !1569 {
entry:
  %this.addr = alloca %"class.xercesc_2_7::TokenFactory"*, align 8
  store %"class.xercesc_2_7::TokenFactory"* %this, %"class.xercesc_2_7::TokenFactory"** %this.addr, align 8
  call void @llvm.dbg.declare(metadata %"class.xercesc_2_7::TokenFactory"** %this.addr, metadata !1570, metadata !DIExpression()), !dbg !1571
  %this1 = load %"class.xercesc_2_7::TokenFactory"*, %"class.xercesc_2_7::TokenFactory"** %this.addr, align 8
  %fStringEnd = getelementptr inbounds %"class.xercesc_2_7::TokenFactory", %"class.xercesc_2_7::TokenFactory"* %this1, i32 0, i32 6, !dbg !1572
  %0 = load %"class.xercesc_2_7::Token"*, %"class.xercesc_2_7::Token"** %fStringEnd, align 8, !dbg !1572
  %cmp = icmp eq %"class.xercesc_2_7::Token"* %0, null, !dbg !1574
  br i1 %cmp, label %if.then, label %if.end, !dbg !1575

if.then:                                          ; preds = %entry
  %call = call %"class.xercesc_2_7::CharToken"* @_ZN11xercesc_2_712TokenFactory10createCharEjb(%"class.xercesc_2_7::TokenFactory"* %this1, i32 122, i1 zeroext true), !dbg !1576
  %1 = bitcast %"class.xercesc_2_7::CharToken"* %call to %"class.xercesc_2_7::Token"*, !dbg !1576
  %fStringEnd2 = getelementptr inbounds %"class.xercesc_2_7::TokenFactory", %"class.xercesc_2_7::TokenFactory"* %this1, i32 0, i32 6, !dbg !1577
  store %"class.xercesc_2_7::Token"* %1, %"class.xercesc_2_7::Token"** %fStringEnd2, align 8, !dbg !1578
  br label %if.end, !dbg !1577

if.end:                                           ; preds = %if.then, %entry
  %fStringEnd3 = getelementptr inbounds %"class.xercesc_2_7::TokenFactory", %"class.xercesc_2_7::TokenFactory"* %this1, i32 0, i32 6, !dbg !1579
  %2 = load %"class.xercesc_2_7::Token"*, %"class.xercesc_2_7::Token"** %fStringEnd3, align 8, !dbg !1579
  ret %"class.xercesc_2_7::Token"* %2, !dbg !1580
}

; Function Attrs: noinline uwtable
define dso_local %"class.xercesc_2_7::Token"* @_ZN11xercesc_2_712TokenFactory13getStringEnd2Ev(%"class.xercesc_2_7::TokenFactory"* %this) #3 align 2 !dbg !1581 {
entry:
  %this.addr = alloca %"class.xercesc_2_7::TokenFactory"*, align 8
  store %"class.xercesc_2_7::TokenFactory"* %this, %"class.xercesc_2_7::TokenFactory"** %this.addr, align 8
  call void @llvm.dbg.declare(metadata %"class.xercesc_2_7::TokenFactory"** %this.addr, metadata !1582, metadata !DIExpression()), !dbg !1583
  %this1 = load %"class.xercesc_2_7::TokenFactory"*, %"class.xercesc_2_7::TokenFactory"** %this.addr, align 8
  %fStringEnd2 = getelementptr inbounds %"class.xercesc_2_7::TokenFactory", %"class.xercesc_2_7::TokenFactory"* %this1, i32 0, i32 7, !dbg !1584
  %0 = load %"class.xercesc_2_7::Token"*, %"class.xercesc_2_7::Token"** %fStringEnd2, align 8, !dbg !1584
  %cmp = icmp eq %"class.xercesc_2_7::Token"* %0, null, !dbg !1586
  br i1 %cmp, label %if.then, label %if.end, !dbg !1587

if.then:                                          ; preds = %entry
  %call = call %"class.xercesc_2_7::CharToken"* @_ZN11xercesc_2_712TokenFactory10createCharEjb(%"class.xercesc_2_7::TokenFactory"* %this1, i32 90, i1 zeroext true), !dbg !1588
  %1 = bitcast %"class.xercesc_2_7::CharToken"* %call to %"class.xercesc_2_7::Token"*, !dbg !1588
  %fStringEnd22 = getelementptr inbounds %"class.xercesc_2_7::TokenFactory", %"class.xercesc_2_7::TokenFactory"* %this1, i32 0, i32 7, !dbg !1589
  store %"class.xercesc_2_7::Token"* %1, %"class.xercesc_2_7::Token"** %fStringEnd22, align 8, !dbg !1590
  br label %if.end, !dbg !1589

if.end:                                           ; preds = %if.then, %entry
  %fStringEnd23 = getelementptr inbounds %"class.xercesc_2_7::TokenFactory", %"class.xercesc_2_7::TokenFactory"* %this1, i32 0, i32 7, !dbg !1591
  %2 = load %"class.xercesc_2_7::Token"*, %"class.xercesc_2_7::Token"** %fStringEnd23, align 8, !dbg !1591
  ret %"class.xercesc_2_7::Token"* %2, !dbg !1592
}

; Function Attrs: noinline uwtable
define dso_local %"class.xercesc_2_7::Token"* @_ZN11xercesc_2_712TokenFactory11getWordEdgeEv(%"class.xercesc_2_7::TokenFactory"* %this) #3 align 2 !dbg !1593 {
entry:
  %this.addr = alloca %"class.xercesc_2_7::TokenFactory"*, align 8
  store %"class.xercesc_2_7::TokenFactory"* %this, %"class.xercesc_2_7::TokenFactory"** %this.addr, align 8
  call void @llvm.dbg.declare(metadata %"class.xercesc_2_7::TokenFactory"** %this.addr, metadata !1594, metadata !DIExpression()), !dbg !1595
  %this1 = load %"class.xercesc_2_7::TokenFactory"*, %"class.xercesc_2_7::TokenFactory"** %this.addr, align 8
  %fWordEdge = getelementptr inbounds %"class.xercesc_2_7::TokenFactory", %"class.xercesc_2_7::TokenFactory"* %this1, i32 0, i32 8, !dbg !1596
  %0 = load %"class.xercesc_2_7::Token"*, %"class.xercesc_2_7::Token"** %fWordEdge, align 8, !dbg !1596
  %cmp = icmp eq %"class.xercesc_2_7::Token"* %0, null, !dbg !1598
  br i1 %cmp, label %if.then, label %if.end, !dbg !1599

if.then:                                          ; preds = %entry
  %call = call %"class.xercesc_2_7::CharToken"* @_ZN11xercesc_2_712TokenFactory10createCharEjb(%"class.xercesc_2_7::TokenFactory"* %this1, i32 98, i1 zeroext true), !dbg !1600
  %1 = bitcast %"class.xercesc_2_7::CharToken"* %call to %"class.xercesc_2_7::Token"*, !dbg !1600
  %fWordEdge2 = getelementptr inbounds %"class.xercesc_2_7::TokenFactory", %"class.xercesc_2_7::TokenFactory"* %this1, i32 0, i32 8, !dbg !1601
  store %"class.xercesc_2_7::Token"* %1, %"class.xercesc_2_7::Token"** %fWordEdge2, align 8, !dbg !1602
  br label %if.end, !dbg !1601

if.end:                                           ; preds = %if.then, %entry
  %fWordEdge3 = getelementptr inbounds %"class.xercesc_2_7::TokenFactory", %"class.xercesc_2_7::TokenFactory"* %this1, i32 0, i32 8, !dbg !1603
  %2 = load %"class.xercesc_2_7::Token"*, %"class.xercesc_2_7::Token"** %fWordEdge3, align 8, !dbg !1603
  ret %"class.xercesc_2_7::Token"* %2, !dbg !1604
}

; Function Attrs: noinline uwtable
define dso_local %"class.xercesc_2_7::Token"* @_ZN11xercesc_2_712TokenFactory14getNotWordEdgeEv(%"class.xercesc_2_7::TokenFactory"* %this) #3 align 2 !dbg !1605 {
entry:
  %this.addr = alloca %"class.xercesc_2_7::TokenFactory"*, align 8
  store %"class.xercesc_2_7::TokenFactory"* %this, %"class.xercesc_2_7::TokenFactory"** %this.addr, align 8
  call void @llvm.dbg.declare(metadata %"class.xercesc_2_7::TokenFactory"** %this.addr, metadata !1606, metadata !DIExpression()), !dbg !1607
  %this1 = load %"class.xercesc_2_7::TokenFactory"*, %"class.xercesc_2_7::TokenFactory"** %this.addr, align 8
  %fNotWordEdge = getelementptr inbounds %"class.xercesc_2_7::TokenFactory", %"class.xercesc_2_7::TokenFactory"* %this1, i32 0, i32 9, !dbg !1608
  %0 = load %"class.xercesc_2_7::Token"*, %"class.xercesc_2_7::Token"** %fNotWordEdge, align 8, !dbg !1608
  %cmp = icmp eq %"class.xercesc_2_7::Token"* %0, null, !dbg !1610
  br i1 %cmp, label %if.then, label %if.end, !dbg !1611

if.then:                                          ; preds = %entry
  %call = call %"class.xercesc_2_7::CharToken"* @_ZN11xercesc_2_712TokenFactory10createCharEjb(%"class.xercesc_2_7::TokenFactory"* %this1, i32 66, i1 zeroext true), !dbg !1612
  %1 = bitcast %"class.xercesc_2_7::CharToken"* %call to %"class.xercesc_2_7::Token"*, !dbg !1612
  %fNotWordEdge2 = getelementptr inbounds %"class.xercesc_2_7::TokenFactory", %"class.xercesc_2_7::TokenFactory"* %this1, i32 0, i32 9, !dbg !1613
  store %"class.xercesc_2_7::Token"* %1, %"class.xercesc_2_7::Token"** %fNotWordEdge2, align 8, !dbg !1614
  br label %if.end, !dbg !1613

if.end:                                           ; preds = %if.then, %entry
  %fNotWordEdge3 = getelementptr inbounds %"class.xercesc_2_7::TokenFactory", %"class.xercesc_2_7::TokenFactory"* %this1, i32 0, i32 9, !dbg !1615
  %2 = load %"class.xercesc_2_7::Token"*, %"class.xercesc_2_7::Token"** %fNotWordEdge3, align 8, !dbg !1615
  ret %"class.xercesc_2_7::Token"* %2, !dbg !1616
}

; Function Attrs: noinline uwtable
define dso_local %"class.xercesc_2_7::Token"* @_ZN11xercesc_2_712TokenFactory12getWordBeginEv(%"class.xercesc_2_7::TokenFactory"* %this) #3 align 2 !dbg !1617 {
entry:
  %this.addr = alloca %"class.xercesc_2_7::TokenFactory"*, align 8
  store %"class.xercesc_2_7::TokenFactory"* %this, %"class.xercesc_2_7::TokenFactory"** %this.addr, align 8
  call void @llvm.dbg.declare(metadata %"class.xercesc_2_7::TokenFactory"** %this.addr, metadata !1618, metadata !DIExpression()), !dbg !1619
  %this1 = load %"class.xercesc_2_7::TokenFactory"*, %"class.xercesc_2_7::TokenFactory"** %this.addr, align 8
  %fWordBegin = getelementptr inbounds %"class.xercesc_2_7::TokenFactory", %"class.xercesc_2_7::TokenFactory"* %this1, i32 0, i32 11, !dbg !1620
  %0 = load %"class.xercesc_2_7::Token"*, %"class.xercesc_2_7::Token"** %fWordBegin, align 8, !dbg !1620
  %cmp = icmp eq %"class.xercesc_2_7::Token"* %0, null, !dbg !1622
  br i1 %cmp, label %if.then, label %if.end, !dbg !1623

if.then:                                          ; preds = %entry
  %call = call %"class.xercesc_2_7::CharToken"* @_ZN11xercesc_2_712TokenFactory10createCharEjb(%"class.xercesc_2_7::TokenFactory"* %this1, i32 60, i1 zeroext true), !dbg !1624
  %1 = bitcast %"class.xercesc_2_7::CharToken"* %call to %"class.xercesc_2_7::Token"*, !dbg !1624
  %fWordBegin2 = getelementptr inbounds %"class.xercesc_2_7::TokenFactory", %"class.xercesc_2_7::TokenFactory"* %this1, i32 0, i32 11, !dbg !1625
  store %"class.xercesc_2_7::Token"* %1, %"class.xercesc_2_7::Token"** %fWordBegin2, align 8, !dbg !1626
  br label %if.end, !dbg !1625

if.end:                                           ; preds = %if.then, %entry
  %fWordBegin3 = getelementptr inbounds %"class.xercesc_2_7::TokenFactory", %"class.xercesc_2_7::TokenFactory"* %this1, i32 0, i32 11, !dbg !1627
  %2 = load %"class.xercesc_2_7::Token"*, %"class.xercesc_2_7::Token"** %fWordBegin3, align 8, !dbg !1627
  ret %"class.xercesc_2_7::Token"* %2, !dbg !1628
}

; Function Attrs: noinline uwtable
define dso_local %"class.xercesc_2_7::Token"* @_ZN11xercesc_2_712TokenFactory10getWordEndEv(%"class.xercesc_2_7::TokenFactory"* %this) #3 align 2 !dbg !1629 {
entry:
  %this.addr = alloca %"class.xercesc_2_7::TokenFactory"*, align 8
  store %"class.xercesc_2_7::TokenFactory"* %this, %"class.xercesc_2_7::TokenFactory"** %this.addr, align 8
  call void @llvm.dbg.declare(metadata %"class.xercesc_2_7::TokenFactory"** %this.addr, metadata !1630, metadata !DIExpression()), !dbg !1631
  %this1 = load %"class.xercesc_2_7::TokenFactory"*, %"class.xercesc_2_7::TokenFactory"** %this.addr, align 8
  %fWordEnd = getelementptr inbounds %"class.xercesc_2_7::TokenFactory", %"class.xercesc_2_7::TokenFactory"* %this1, i32 0, i32 10, !dbg !1632
  %0 = load %"class.xercesc_2_7::Token"*, %"class.xercesc_2_7::Token"** %fWordEnd, align 8, !dbg !1632
  %cmp = icmp eq %"class.xercesc_2_7::Token"* %0, null, !dbg !1634
  br i1 %cmp, label %if.then, label %if.end, !dbg !1635

if.then:                                          ; preds = %entry
  %call = call %"class.xercesc_2_7::CharToken"* @_ZN11xercesc_2_712TokenFactory10createCharEjb(%"class.xercesc_2_7::TokenFactory"* %this1, i32 62, i1 zeroext true), !dbg !1636
  %1 = bitcast %"class.xercesc_2_7::CharToken"* %call to %"class.xercesc_2_7::Token"*, !dbg !1636
  %fWordEnd2 = getelementptr inbounds %"class.xercesc_2_7::TokenFactory", %"class.xercesc_2_7::TokenFactory"* %this1, i32 0, i32 10, !dbg !1637
  store %"class.xercesc_2_7::Token"* %1, %"class.xercesc_2_7::Token"** %fWordEnd2, align 8, !dbg !1638
  br label %if.end, !dbg !1637

if.end:                                           ; preds = %if.then, %entry
  %fWordEnd3 = getelementptr inbounds %"class.xercesc_2_7::TokenFactory", %"class.xercesc_2_7::TokenFactory"* %this1, i32 0, i32 10, !dbg !1639
  %2 = load %"class.xercesc_2_7::Token"*, %"class.xercesc_2_7::Token"** %fWordEnd3, align 8, !dbg !1639
  ret %"class.xercesc_2_7::Token"* %2, !dbg !1640
}

; Function Attrs: noinline uwtable
define dso_local %"class.xercesc_2_7::Token"* @_ZN11xercesc_2_712TokenFactory6getDotEv(%"class.xercesc_2_7::TokenFactory"* %this) #3 align 2 !dbg !1641 {
entry:
  %this.addr = alloca %"class.xercesc_2_7::TokenFactory"*, align 8
  store %"class.xercesc_2_7::TokenFactory"* %this, %"class.xercesc_2_7::TokenFactory"** %this.addr, align 8
  call void @llvm.dbg.declare(metadata %"class.xercesc_2_7::TokenFactory"** %this.addr, metadata !1642, metadata !DIExpression()), !dbg !1643
  %this1 = load %"class.xercesc_2_7::TokenFactory"*, %"class.xercesc_2_7::TokenFactory"** %this.addr, align 8
  %fDot = getelementptr inbounds %"class.xercesc_2_7::TokenFactory", %"class.xercesc_2_7::TokenFactory"* %this1, i32 0, i32 12, !dbg !1644
  %0 = load %"class.xercesc_2_7::Token"*, %"class.xercesc_2_7::Token"** %fDot, align 8, !dbg !1644
  %cmp = icmp eq %"class.xercesc_2_7::Token"* %0, null, !dbg !1646
  br i1 %cmp, label %if.then, label %if.end, !dbg !1647

if.then:                                          ; preds = %entry
  %call = call %"class.xercesc_2_7::Token"* @_ZN11xercesc_2_712TokenFactory11createTokenEt(%"class.xercesc_2_7::TokenFactory"* %this1, i16 zeroext 11), !dbg !1648
  %fDot2 = getelementptr inbounds %"class.xercesc_2_7::TokenFactory", %"class.xercesc_2_7::TokenFactory"* %this1, i32 0, i32 12, !dbg !1649
  store %"class.xercesc_2_7::Token"* %call, %"class.xercesc_2_7::Token"** %fDot2, align 8, !dbg !1650
  br label %if.end, !dbg !1649

if.end:                                           ; preds = %if.then, %entry
  %fDot3 = getelementptr inbounds %"class.xercesc_2_7::TokenFactory", %"class.xercesc_2_7::TokenFactory"* %this1, i32 0, i32 12, !dbg !1651
  %1 = load %"class.xercesc_2_7::Token"*, %"class.xercesc_2_7::Token"** %fDot3, align 8, !dbg !1651
  ret %"class.xercesc_2_7::Token"* %1, !dbg !1652
}

; Function Attrs: noinline uwtable
define dso_local %"class.xercesc_2_7::Token"* @_ZN11xercesc_2_712TokenFactory29getCombiningCharacterSequenceEv(%"class.xercesc_2_7::TokenFactory"* %this) #3 align 2 !dbg !1653 {
entry:
  %this.addr = alloca %"class.xercesc_2_7::TokenFactory"*, align 8
  %foo = alloca %"class.xercesc_2_7::Token"*, align 8
  store %"class.xercesc_2_7::TokenFactory"* %this, %"class.xercesc_2_7::TokenFactory"** %this.addr, align 8
  call void @llvm.dbg.declare(metadata %"class.xercesc_2_7::TokenFactory"** %this.addr, metadata !1654, metadata !DIExpression()), !dbg !1655
  %this1 = load %"class.xercesc_2_7::TokenFactory"*, %"class.xercesc_2_7::TokenFactory"** %this.addr, align 8
  %fCombiningChar = getelementptr inbounds %"class.xercesc_2_7::TokenFactory", %"class.xercesc_2_7::TokenFactory"* %this1, i32 0, i32 13, !dbg !1656
  %0 = load %"class.xercesc_2_7::Token"*, %"class.xercesc_2_7::Token"** %fCombiningChar, align 8, !dbg !1656
  %cmp = icmp eq %"class.xercesc_2_7::Token"* %0, null, !dbg !1658
  br i1 %cmp, label %if.then, label %if.end, !dbg !1659

if.then:                                          ; preds = %entry
  call void @llvm.dbg.declare(metadata %"class.xercesc_2_7::Token"** %foo, metadata !1660, metadata !DIExpression()), !dbg !1662
  %call = call %"class.xercesc_2_7::RangeToken"* @_ZN11xercesc_2_712TokenFactory8getRangeEPKtb(%"class.xercesc_2_7::TokenFactory"* %this1, i16* getelementptr inbounds ([2 x i16], [2 x i16]* @_ZN11xercesc_2_7L9fgUniMarkE, i64 0, i64 0), i1 zeroext false), !dbg !1663
  %1 = bitcast %"class.xercesc_2_7::RangeToken"* %call to %"class.xercesc_2_7::Token"*, !dbg !1663
  %call2 = call %"class.xercesc_2_7::ClosureToken"* @_ZN11xercesc_2_712TokenFactory13createClosureEPNS_5TokenEb(%"class.xercesc_2_7::TokenFactory"* %this1, %"class.xercesc_2_7::Token"* %1, i1 zeroext false), !dbg !1664
  %2 = bitcast %"class.xercesc_2_7::ClosureToken"* %call2 to %"class.xercesc_2_7::Token"*, !dbg !1664
  store %"class.xercesc_2_7::Token"* %2, %"class.xercesc_2_7::Token"** %foo, align 8, !dbg !1662
  %call3 = call %"class.xercesc_2_7::RangeToken"* @_ZN11xercesc_2_712TokenFactory8getRangeEPKtb(%"class.xercesc_2_7::TokenFactory"* %this1, i16* getelementptr inbounds ([2 x i16], [2 x i16]* @_ZN11xercesc_2_7L9fgUniMarkE, i64 0, i64 0), i1 zeroext true), !dbg !1665
  %3 = bitcast %"class.xercesc_2_7::RangeToken"* %call3 to %"class.xercesc_2_7::Token"*, !dbg !1665
  %4 = load %"class.xercesc_2_7::Token"*, %"class.xercesc_2_7::Token"** %foo, align 8, !dbg !1666
  %call4 = call %"class.xercesc_2_7::ConcatToken"* @_ZN11xercesc_2_712TokenFactory12createConcatEPNS_5TokenES2_(%"class.xercesc_2_7::TokenFactory"* %this1, %"class.xercesc_2_7::Token"* %3, %"class.xercesc_2_7::Token"* %4), !dbg !1667
  %5 = bitcast %"class.xercesc_2_7::ConcatToken"* %call4 to %"class.xercesc_2_7::Token"*, !dbg !1667
  store %"class.xercesc_2_7::Token"* %5, %"class.xercesc_2_7::Token"** %foo, align 8, !dbg !1668
  %6 = load %"class.xercesc_2_7::Token"*, %"class.xercesc_2_7::Token"** %foo, align 8, !dbg !1669
  %fCombiningChar5 = getelementptr inbounds %"class.xercesc_2_7::TokenFactory", %"class.xercesc_2_7::TokenFactory"* %this1, i32 0, i32 13, !dbg !1670
  store %"class.xercesc_2_7::Token"* %6, %"class.xercesc_2_7::Token"** %fCombiningChar5, align 8, !dbg !1671
  br label %if.end, !dbg !1672

if.end:                                           ; preds = %if.then, %entry
  %fCombiningChar6 = getelementptr inbounds %"class.xercesc_2_7::TokenFactory", %"class.xercesc_2_7::TokenFactory"* %this1, i32 0, i32 13, !dbg !1673
  %7 = load %"class.xercesc_2_7::Token"*, %"class.xercesc_2_7::Token"** %fCombiningChar6, align 8, !dbg !1673
  ret %"class.xercesc_2_7::Token"* %7, !dbg !1674
}

; Function Attrs: noinline uwtable
define linkonce_odr dso_local %"class.xercesc_2_7::RangeToken"* @_ZN11xercesc_2_712TokenFactory8getRangeEPKtb(%"class.xercesc_2_7::TokenFactory"* %this, i16* %name, i1 zeroext %complement) #3 comdat align 2 !dbg !1675 {
entry:
  %this.addr = alloca %"class.xercesc_2_7::TokenFactory"*, align 8
  %name.addr = alloca i16*, align 8
  %complement.addr = alloca i8, align 1
  store %"class.xercesc_2_7::TokenFactory"* %this, %"class.xercesc_2_7::TokenFactory"** %this.addr, align 8
  call void @llvm.dbg.declare(metadata %"class.xercesc_2_7::TokenFactory"** %this.addr, metadata !1676, metadata !DIExpression()), !dbg !1677
  store i16* %name, i16** %name.addr, align 8
  call void @llvm.dbg.declare(metadata i16** %name.addr, metadata !1678, metadata !DIExpression()), !dbg !1679
  %frombool = zext i1 %complement to i8
  store i8 %frombool, i8* %complement.addr, align 1
  call void @llvm.dbg.declare(metadata i8* %complement.addr, metadata !1680, metadata !DIExpression()), !dbg !1681
  %this1 = load %"class.xercesc_2_7::TokenFactory"*, %"class.xercesc_2_7::TokenFactory"** %this.addr, align 8
  %0 = load i16*, i16** %name.addr, align 8, !dbg !1682
  %1 = load i8, i8* %complement.addr, align 1, !dbg !1683
  %tobool = trunc i8 %1 to i1, !dbg !1683
  %call = call %"class.xercesc_2_7::RangeToken"* @_ZN11xercesc_2_712TokenFactory14staticGetRangeEPKtb(i16* %0, i1 zeroext %tobool), !dbg !1684
  ret %"class.xercesc_2_7::RangeToken"* %call, !dbg !1685
}

; Function Attrs: noinline uwtable
define dso_local %"class.xercesc_2_7::Token"* @_ZN11xercesc_2_712TokenFactory18getGraphemePatternEv(%"class.xercesc_2_7::TokenFactory"* %this) #3 align 2 !dbg !1686 {
entry:
  %this.addr = alloca %"class.xercesc_2_7::TokenFactory"*, align 8
  %base_char = alloca %"class.xercesc_2_7::Token"*, align 8
  %virama = alloca %"class.xercesc_2_7::Token"*, align 8
  %combiner_wo_virama = alloca %"class.xercesc_2_7::Token"*, align 8
  %left = alloca %"class.xercesc_2_7::Token"*, align 8
  %foo = alloca %"class.xercesc_2_7::Token"*, align 8
  store %"class.xercesc_2_7::TokenFactory"* %this, %"class.xercesc_2_7::TokenFactory"** %this.addr, align 8
  call void @llvm.dbg.declare(metadata %"class.xercesc_2_7::TokenFactory"** %this.addr, metadata !1687, metadata !DIExpression()), !dbg !1688
  %this1 = load %"class.xercesc_2_7::TokenFactory"*, %"class.xercesc_2_7::TokenFactory"** %this.addr, align 8
  %fGrapheme = getelementptr inbounds %"class.xercesc_2_7::TokenFactory", %"class.xercesc_2_7::TokenFactory"* %this1, i32 0, i32 14, !dbg !1689
  %0 = load %"class.xercesc_2_7::Token"*, %"class.xercesc_2_7::Token"** %fGrapheme, align 8, !dbg !1689
  %cmp = icmp eq %"class.xercesc_2_7::Token"* %0, null, !dbg !1691
  br i1 %cmp, label %if.then, label %if.end, !dbg !1692

if.then:                                          ; preds = %entry
  call void @llvm.dbg.declare(metadata %"class.xercesc_2_7::Token"** %base_char, metadata !1693, metadata !DIExpression()), !dbg !1695
  %call = call %"class.xercesc_2_7::RangeToken"* @_ZN11xercesc_2_712TokenFactory11createRangeEb(%"class.xercesc_2_7::TokenFactory"* %this1, i1 zeroext false), !dbg !1696
  %1 = bitcast %"class.xercesc_2_7::RangeToken"* %call to %"class.xercesc_2_7::Token"*, !dbg !1696
  store %"class.xercesc_2_7::Token"* %1, %"class.xercesc_2_7::Token"** %base_char, align 8, !dbg !1695
  %2 = load %"class.xercesc_2_7::Token"*, %"class.xercesc_2_7::Token"** %base_char, align 8, !dbg !1697
  %call2 = call %"class.xercesc_2_7::RangeToken"* @_ZN11xercesc_2_712TokenFactory8getRangeEPKtb(%"class.xercesc_2_7::TokenFactory"* %this1, i16* getelementptr inbounds ([9 x i16], [9 x i16]* @_ZN11xercesc_2_7L13fgUniAssignedE, i64 0, i64 0), i1 zeroext false), !dbg !1698
  %3 = bitcast %"class.xercesc_2_7::RangeToken"* %call2 to %"class.xercesc_2_7::Token"*, !dbg !1698
  %4 = bitcast %"class.xercesc_2_7::Token"* %2 to void (%"class.xercesc_2_7::Token"*, %"class.xercesc_2_7::Token"*)***, !dbg !1699
  %vtable = load void (%"class.xercesc_2_7::Token"*, %"class.xercesc_2_7::Token"*)**, void (%"class.xercesc_2_7::Token"*, %"class.xercesc_2_7::Token"*)*** %4, align 8, !dbg !1699
  %vfn = getelementptr inbounds void (%"class.xercesc_2_7::Token"*, %"class.xercesc_2_7::Token"*)*, void (%"class.xercesc_2_7::Token"*, %"class.xercesc_2_7::Token"*)** %vtable, i64 13, !dbg !1699
  %5 = load void (%"class.xercesc_2_7::Token"*, %"class.xercesc_2_7::Token"*)*, void (%"class.xercesc_2_7::Token"*, %"class.xercesc_2_7::Token"*)** %vfn, align 8, !dbg !1699
  call void %5(%"class.xercesc_2_7::Token"* %2, %"class.xercesc_2_7::Token"* %3), !dbg !1699
  %6 = load %"class.xercesc_2_7::Token"*, %"class.xercesc_2_7::Token"** %base_char, align 8, !dbg !1700
  %call3 = call %"class.xercesc_2_7::RangeToken"* @_ZN11xercesc_2_712TokenFactory8getRangeEPKtb(%"class.xercesc_2_7::TokenFactory"* %this1, i16* getelementptr inbounds ([2 x i16], [2 x i16]* @_ZN11xercesc_2_7L9fgUniMarkE, i64 0, i64 0), i1 zeroext false), !dbg !1701
  %7 = bitcast %"class.xercesc_2_7::Token"* %6 to void (%"class.xercesc_2_7::Token"*, %"class.xercesc_2_7::RangeToken"*)***, !dbg !1702
  %vtable4 = load void (%"class.xercesc_2_7::Token"*, %"class.xercesc_2_7::RangeToken"*)**, void (%"class.xercesc_2_7::Token"*, %"class.xercesc_2_7::RangeToken"*)*** %7, align 8, !dbg !1702
  %vfn5 = getelementptr inbounds void (%"class.xercesc_2_7::Token"*, %"class.xercesc_2_7::RangeToken"*)*, void (%"class.xercesc_2_7::Token"*, %"class.xercesc_2_7::RangeToken"*)** %vtable4, i64 16, !dbg !1702
  %8 = load void (%"class.xercesc_2_7::Token"*, %"class.xercesc_2_7::RangeToken"*)*, void (%"class.xercesc_2_7::Token"*, %"class.xercesc_2_7::RangeToken"*)** %vfn5, align 8, !dbg !1702
  call void %8(%"class.xercesc_2_7::Token"* %6, %"class.xercesc_2_7::RangeToken"* %call3), !dbg !1702
  %9 = load %"class.xercesc_2_7::Token"*, %"class.xercesc_2_7::Token"** %base_char, align 8, !dbg !1703
  %call6 = call %"class.xercesc_2_7::RangeToken"* @_ZN11xercesc_2_712TokenFactory8getRangeEPKtb(%"class.xercesc_2_7::TokenFactory"* %this1, i16* getelementptr inbounds ([2 x i16], [2 x i16]* @_ZN11xercesc_2_7L12fgUniControlE, i64 0, i64 0), i1 zeroext false), !dbg !1704
  %10 = bitcast %"class.xercesc_2_7::Token"* %9 to void (%"class.xercesc_2_7::Token"*, %"class.xercesc_2_7::RangeToken"*)***, !dbg !1705
  %vtable7 = load void (%"class.xercesc_2_7::Token"*, %"class.xercesc_2_7::RangeToken"*)**, void (%"class.xercesc_2_7::Token"*, %"class.xercesc_2_7::RangeToken"*)*** %10, align 8, !dbg !1705
  %vfn8 = getelementptr inbounds void (%"class.xercesc_2_7::Token"*, %"class.xercesc_2_7::RangeToken"*)*, void (%"class.xercesc_2_7::Token"*, %"class.xercesc_2_7::RangeToken"*)** %vtable7, i64 16, !dbg !1705
  %11 = load void (%"class.xercesc_2_7::Token"*, %"class.xercesc_2_7::RangeToken"*)*, void (%"class.xercesc_2_7::Token"*, %"class.xercesc_2_7::RangeToken"*)** %vfn8, align 8, !dbg !1705
  call void %11(%"class.xercesc_2_7::Token"* %9, %"class.xercesc_2_7::RangeToken"* %call6), !dbg !1705
  call void @llvm.dbg.declare(metadata %"class.xercesc_2_7::Token"** %virama, metadata !1706, metadata !DIExpression()), !dbg !1707
  %call9 = call %"class.xercesc_2_7::RangeToken"* @_ZN11xercesc_2_712TokenFactory11createRangeEb(%"class.xercesc_2_7::TokenFactory"* %this1, i1 zeroext false), !dbg !1708
  %12 = bitcast %"class.xercesc_2_7::RangeToken"* %call9 to %"class.xercesc_2_7::Token"*, !dbg !1708
  store %"class.xercesc_2_7::Token"* %12, %"class.xercesc_2_7::Token"** %virama, align 8, !dbg !1707
  %13 = load %"class.xercesc_2_7::Token"*, %"class.xercesc_2_7::Token"** %virama, align 8, !dbg !1709
  %14 = bitcast %"class.xercesc_2_7::Token"* %13 to void (%"class.xercesc_2_7::Token"*, i32, i32)***, !dbg !1710
  %vtable10 = load void (%"class.xercesc_2_7::Token"*, i32, i32)**, void (%"class.xercesc_2_7::Token"*, i32, i32)*** %14, align 8, !dbg !1710
  %vfn11 = getelementptr inbounds void (%"class.xercesc_2_7::Token"*, i32, i32)*, void (%"class.xercesc_2_7::Token"*, i32, i32)** %vtable10, i64 12, !dbg !1710
  %15 = load void (%"class.xercesc_2_7::Token"*, i32, i32)*, void (%"class.xercesc_2_7::Token"*, i32, i32)** %vfn11, align 8, !dbg !1710
  call void %15(%"class.xercesc_2_7::Token"* %13, i32 2381, i32 2381), !dbg !1710
  %16 = load %"class.xercesc_2_7::Token"*, %"class.xercesc_2_7::Token"** %virama, align 8, !dbg !1711
  %17 = bitcast %"class.xercesc_2_7::Token"* %16 to void (%"class.xercesc_2_7::Token"*, i32, i32)***, !dbg !1712
  %vtable12 = load void (%"class.xercesc_2_7::Token"*, i32, i32)**, void (%"class.xercesc_2_7::Token"*, i32, i32)*** %17, align 8, !dbg !1712
  %vfn13 = getelementptr inbounds void (%"class.xercesc_2_7::Token"*, i32, i32)*, void (%"class.xercesc_2_7::Token"*, i32, i32)** %vtable12, i64 12, !dbg !1712
  %18 = load void (%"class.xercesc_2_7::Token"*, i32, i32)*, void (%"class.xercesc_2_7::Token"*, i32, i32)** %vfn13, align 8, !dbg !1712
  call void %18(%"class.xercesc_2_7::Token"* %16, i32 2509, i32 2509), !dbg !1712
  %19 = load %"class.xercesc_2_7::Token"*, %"class.xercesc_2_7::Token"** %virama, align 8, !dbg !1713
  %20 = bitcast %"class.xercesc_2_7::Token"* %19 to void (%"class.xercesc_2_7::Token"*, i32, i32)***, !dbg !1714
  %vtable14 = load void (%"class.xercesc_2_7::Token"*, i32, i32)**, void (%"class.xercesc_2_7::Token"*, i32, i32)*** %20, align 8, !dbg !1714
  %vfn15 = getelementptr inbounds void (%"class.xercesc_2_7::Token"*, i32, i32)*, void (%"class.xercesc_2_7::Token"*, i32, i32)** %vtable14, i64 12, !dbg !1714
  %21 = load void (%"class.xercesc_2_7::Token"*, i32, i32)*, void (%"class.xercesc_2_7::Token"*, i32, i32)** %vfn15, align 8, !dbg !1714
  call void %21(%"class.xercesc_2_7::Token"* %19, i32 2637, i32 2637), !dbg !1714
  %22 = load %"class.xercesc_2_7::Token"*, %"class.xercesc_2_7::Token"** %virama, align 8, !dbg !1715
  %23 = bitcast %"class.xercesc_2_7::Token"* %22 to void (%"class.xercesc_2_7::Token"*, i32, i32)***, !dbg !1716
  %vtable16 = load void (%"class.xercesc_2_7::Token"*, i32, i32)**, void (%"class.xercesc_2_7::Token"*, i32, i32)*** %23, align 8, !dbg !1716
  %vfn17 = getelementptr inbounds void (%"class.xercesc_2_7::Token"*, i32, i32)*, void (%"class.xercesc_2_7::Token"*, i32, i32)** %vtable16, i64 12, !dbg !1716
  %24 = load void (%"class.xercesc_2_7::Token"*, i32, i32)*, void (%"class.xercesc_2_7::Token"*, i32, i32)** %vfn17, align 8, !dbg !1716
  call void %24(%"class.xercesc_2_7::Token"* %22, i32 2765, i32 2765), !dbg !1716
  %25 = load %"class.xercesc_2_7::Token"*, %"class.xercesc_2_7::Token"** %virama, align 8, !dbg !1717
  %26 = bitcast %"class.xercesc_2_7::Token"* %25 to void (%"class.xercesc_2_7::Token"*, i32, i32)***, !dbg !1718
  %vtable18 = load void (%"class.xercesc_2_7::Token"*, i32, i32)**, void (%"class.xercesc_2_7::Token"*, i32, i32)*** %26, align 8, !dbg !1718
  %vfn19 = getelementptr inbounds void (%"class.xercesc_2_7::Token"*, i32, i32)*, void (%"class.xercesc_2_7::Token"*, i32, i32)** %vtable18, i64 12, !dbg !1718
  %27 = load void (%"class.xercesc_2_7::Token"*, i32, i32)*, void (%"class.xercesc_2_7::Token"*, i32, i32)** %vfn19, align 8, !dbg !1718
  call void %27(%"class.xercesc_2_7::Token"* %25, i32 2893, i32 2893), !dbg !1718
  %28 = load %"class.xercesc_2_7::Token"*, %"class.xercesc_2_7::Token"** %virama, align 8, !dbg !1719
  %29 = bitcast %"class.xercesc_2_7::Token"* %28 to void (%"class.xercesc_2_7::Token"*, i32, i32)***, !dbg !1720
  %vtable20 = load void (%"class.xercesc_2_7::Token"*, i32, i32)**, void (%"class.xercesc_2_7::Token"*, i32, i32)*** %29, align 8, !dbg !1720
  %vfn21 = getelementptr inbounds void (%"class.xercesc_2_7::Token"*, i32, i32)*, void (%"class.xercesc_2_7::Token"*, i32, i32)** %vtable20, i64 12, !dbg !1720
  %30 = load void (%"class.xercesc_2_7::Token"*, i32, i32)*, void (%"class.xercesc_2_7::Token"*, i32, i32)** %vfn21, align 8, !dbg !1720
  call void %30(%"class.xercesc_2_7::Token"* %28, i32 3021, i32 3021), !dbg !1720
  %31 = load %"class.xercesc_2_7::Token"*, %"class.xercesc_2_7::Token"** %virama, align 8, !dbg !1721
  %32 = bitcast %"class.xercesc_2_7::Token"* %31 to void (%"class.xercesc_2_7::Token"*, i32, i32)***, !dbg !1722
  %vtable22 = load void (%"class.xercesc_2_7::Token"*, i32, i32)**, void (%"class.xercesc_2_7::Token"*, i32, i32)*** %32, align 8, !dbg !1722
  %vfn23 = getelementptr inbounds void (%"class.xercesc_2_7::Token"*, i32, i32)*, void (%"class.xercesc_2_7::Token"*, i32, i32)** %vtable22, i64 12, !dbg !1722
  %33 = load void (%"class.xercesc_2_7::Token"*, i32, i32)*, void (%"class.xercesc_2_7::Token"*, i32, i32)** %vfn23, align 8, !dbg !1722
  call void %33(%"class.xercesc_2_7::Token"* %31, i32 3149, i32 3149), !dbg !1722
  %34 = load %"class.xercesc_2_7::Token"*, %"class.xercesc_2_7::Token"** %virama, align 8, !dbg !1723
  %35 = bitcast %"class.xercesc_2_7::Token"* %34 to void (%"class.xercesc_2_7::Token"*, i32, i32)***, !dbg !1724
  %vtable24 = load void (%"class.xercesc_2_7::Token"*, i32, i32)**, void (%"class.xercesc_2_7::Token"*, i32, i32)*** %35, align 8, !dbg !1724
  %vfn25 = getelementptr inbounds void (%"class.xercesc_2_7::Token"*, i32, i32)*, void (%"class.xercesc_2_7::Token"*, i32, i32)** %vtable24, i64 12, !dbg !1724
  %36 = load void (%"class.xercesc_2_7::Token"*, i32, i32)*, void (%"class.xercesc_2_7::Token"*, i32, i32)** %vfn25, align 8, !dbg !1724
  call void %36(%"class.xercesc_2_7::Token"* %34, i32 3277, i32 3277), !dbg !1724
  %37 = load %"class.xercesc_2_7::Token"*, %"class.xercesc_2_7::Token"** %virama, align 8, !dbg !1725
  %38 = bitcast %"class.xercesc_2_7::Token"* %37 to void (%"class.xercesc_2_7::Token"*, i32, i32)***, !dbg !1726
  %vtable26 = load void (%"class.xercesc_2_7::Token"*, i32, i32)**, void (%"class.xercesc_2_7::Token"*, i32, i32)*** %38, align 8, !dbg !1726
  %vfn27 = getelementptr inbounds void (%"class.xercesc_2_7::Token"*, i32, i32)*, void (%"class.xercesc_2_7::Token"*, i32, i32)** %vtable26, i64 12, !dbg !1726
  %39 = load void (%"class.xercesc_2_7::Token"*, i32, i32)*, void (%"class.xercesc_2_7::Token"*, i32, i32)** %vfn27, align 8, !dbg !1726
  call void %39(%"class.xercesc_2_7::Token"* %37, i32 3405, i32 3405), !dbg !1726
  %40 = load %"class.xercesc_2_7::Token"*, %"class.xercesc_2_7::Token"** %virama, align 8, !dbg !1727
  %41 = bitcast %"class.xercesc_2_7::Token"* %40 to void (%"class.xercesc_2_7::Token"*, i32, i32)***, !dbg !1728
  %vtable28 = load void (%"class.xercesc_2_7::Token"*, i32, i32)**, void (%"class.xercesc_2_7::Token"*, i32, i32)*** %41, align 8, !dbg !1728
  %vfn29 = getelementptr inbounds void (%"class.xercesc_2_7::Token"*, i32, i32)*, void (%"class.xercesc_2_7::Token"*, i32, i32)** %vtable28, i64 12, !dbg !1728
  %42 = load void (%"class.xercesc_2_7::Token"*, i32, i32)*, void (%"class.xercesc_2_7::Token"*, i32, i32)** %vfn29, align 8, !dbg !1728
  call void %42(%"class.xercesc_2_7::Token"* %40, i32 3642, i32 3642), !dbg !1728
  %43 = load %"class.xercesc_2_7::Token"*, %"class.xercesc_2_7::Token"** %virama, align 8, !dbg !1729
  %44 = bitcast %"class.xercesc_2_7::Token"* %43 to void (%"class.xercesc_2_7::Token"*, i32, i32)***, !dbg !1730
  %vtable30 = load void (%"class.xercesc_2_7::Token"*, i32, i32)**, void (%"class.xercesc_2_7::Token"*, i32, i32)*** %44, align 8, !dbg !1730
  %vfn31 = getelementptr inbounds void (%"class.xercesc_2_7::Token"*, i32, i32)*, void (%"class.xercesc_2_7::Token"*, i32, i32)** %vtable30, i64 12, !dbg !1730
  %45 = load void (%"class.xercesc_2_7::Token"*, i32, i32)*, void (%"class.xercesc_2_7::Token"*, i32, i32)** %vfn31, align 8, !dbg !1730
  call void %45(%"class.xercesc_2_7::Token"* %43, i32 3972, i32 3972), !dbg !1730
  call void @llvm.dbg.declare(metadata %"class.xercesc_2_7::Token"** %combiner_wo_virama, metadata !1731, metadata !DIExpression()), !dbg !1732
  %call32 = call %"class.xercesc_2_7::RangeToken"* @_ZN11xercesc_2_712TokenFactory11createRangeEb(%"class.xercesc_2_7::TokenFactory"* %this1, i1 zeroext false), !dbg !1733
  %46 = bitcast %"class.xercesc_2_7::RangeToken"* %call32 to %"class.xercesc_2_7::Token"*, !dbg !1733
  store %"class.xercesc_2_7::Token"* %46, %"class.xercesc_2_7::Token"** %combiner_wo_virama, align 8, !dbg !1732
  %47 = load %"class.xercesc_2_7::Token"*, %"class.xercesc_2_7::Token"** %combiner_wo_virama, align 8, !dbg !1734
  %call33 = call %"class.xercesc_2_7::RangeToken"* @_ZN11xercesc_2_712TokenFactory8getRangeEPKtb(%"class.xercesc_2_7::TokenFactory"* %this1, i16* getelementptr inbounds ([2 x i16], [2 x i16]* @_ZN11xercesc_2_7L9fgUniMarkE, i64 0, i64 0), i1 zeroext false), !dbg !1735
  %48 = bitcast %"class.xercesc_2_7::RangeToken"* %call33 to %"class.xercesc_2_7::Token"*, !dbg !1735
  %49 = bitcast %"class.xercesc_2_7::Token"* %47 to void (%"class.xercesc_2_7::Token"*, %"class.xercesc_2_7::Token"*)***, !dbg !1736
  %vtable34 = load void (%"class.xercesc_2_7::Token"*, %"class.xercesc_2_7::Token"*)**, void (%"class.xercesc_2_7::Token"*, %"class.xercesc_2_7::Token"*)*** %49, align 8, !dbg !1736
  %vfn35 = getelementptr inbounds void (%"class.xercesc_2_7::Token"*, %"class.xercesc_2_7::Token"*)*, void (%"class.xercesc_2_7::Token"*, %"class.xercesc_2_7::Token"*)** %vtable34, i64 13, !dbg !1736
  %50 = load void (%"class.xercesc_2_7::Token"*, %"class.xercesc_2_7::Token"*)*, void (%"class.xercesc_2_7::Token"*, %"class.xercesc_2_7::Token"*)** %vfn35, align 8, !dbg !1736
  call void %50(%"class.xercesc_2_7::Token"* %47, %"class.xercesc_2_7::Token"* %48), !dbg !1736
  %51 = load %"class.xercesc_2_7::Token"*, %"class.xercesc_2_7::Token"** %combiner_wo_virama, align 8, !dbg !1737
  %52 = bitcast %"class.xercesc_2_7::Token"* %51 to void (%"class.xercesc_2_7::Token"*, i32, i32)***, !dbg !1738
  %vtable36 = load void (%"class.xercesc_2_7::Token"*, i32, i32)**, void (%"class.xercesc_2_7::Token"*, i32, i32)*** %52, align 8, !dbg !1738
  %vfn37 = getelementptr inbounds void (%"class.xercesc_2_7::Token"*, i32, i32)*, void (%"class.xercesc_2_7::Token"*, i32, i32)** %vtable36, i64 12, !dbg !1738
  %53 = load void (%"class.xercesc_2_7::Token"*, i32, i32)*, void (%"class.xercesc_2_7::Token"*, i32, i32)** %vfn37, align 8, !dbg !1738
  call void %53(%"class.xercesc_2_7::Token"* %51, i32 4448, i32 4607), !dbg !1738
  %54 = load %"class.xercesc_2_7::Token"*, %"class.xercesc_2_7::Token"** %combiner_wo_virama, align 8, !dbg !1739
  %55 = bitcast %"class.xercesc_2_7::Token"* %54 to void (%"class.xercesc_2_7::Token"*, i32, i32)***, !dbg !1740
  %vtable38 = load void (%"class.xercesc_2_7::Token"*, i32, i32)**, void (%"class.xercesc_2_7::Token"*, i32, i32)*** %55, align 8, !dbg !1740
  %vfn39 = getelementptr inbounds void (%"class.xercesc_2_7::Token"*, i32, i32)*, void (%"class.xercesc_2_7::Token"*, i32, i32)** %vtable38, i64 12, !dbg !1740
  %56 = load void (%"class.xercesc_2_7::Token"*, i32, i32)*, void (%"class.xercesc_2_7::Token"*, i32, i32)** %vfn39, align 8, !dbg !1740
  call void %56(%"class.xercesc_2_7::Token"* %54, i32 65439, i32 65439), !dbg !1740
  call void @llvm.dbg.declare(metadata %"class.xercesc_2_7::Token"** %left, metadata !1741, metadata !DIExpression()), !dbg !1742
  %call40 = call %"class.xercesc_2_7::UnionToken"* @_ZN11xercesc_2_712TokenFactory11createUnionEb(%"class.xercesc_2_7::TokenFactory"* %this1, i1 zeroext false), !dbg !1743
  %57 = bitcast %"class.xercesc_2_7::UnionToken"* %call40 to %"class.xercesc_2_7::Token"*, !dbg !1744
  store %"class.xercesc_2_7::Token"* %57, %"class.xercesc_2_7::Token"** %left, align 8, !dbg !1742
  %58 = load %"class.xercesc_2_7::Token"*, %"class.xercesc_2_7::Token"** %left, align 8, !dbg !1745
  %59 = load %"class.xercesc_2_7::Token"*, %"class.xercesc_2_7::Token"** %base_char, align 8, !dbg !1746
  %60 = bitcast %"class.xercesc_2_7::Token"* %58 to void (%"class.xercesc_2_7::Token"*, %"class.xercesc_2_7::Token"*, %"class.xercesc_2_7::TokenFactory"*)***, !dbg !1747
  %vtable41 = load void (%"class.xercesc_2_7::Token"*, %"class.xercesc_2_7::Token"*, %"class.xercesc_2_7::TokenFactory"*)**, void (%"class.xercesc_2_7::Token"*, %"class.xercesc_2_7::Token"*, %"class.xercesc_2_7::TokenFactory"*)*** %60, align 8, !dbg !1747
  %vfn42 = getelementptr inbounds void (%"class.xercesc_2_7::Token"*, %"class.xercesc_2_7::Token"*, %"class.xercesc_2_7::TokenFactory"*)*, void (%"class.xercesc_2_7::Token"*, %"class.xercesc_2_7::Token"*, %"class.xercesc_2_7::TokenFactory"*)** %vtable41, i64 18, !dbg !1747
  %61 = load void (%"class.xercesc_2_7::Token"*, %"class.xercesc_2_7::Token"*, %"class.xercesc_2_7::TokenFactory"*)*, void (%"class.xercesc_2_7::Token"*, %"class.xercesc_2_7::Token"*, %"class.xercesc_2_7::TokenFactory"*)** %vfn42, align 8, !dbg !1747
  call void %61(%"class.xercesc_2_7::Token"* %58, %"class.xercesc_2_7::Token"* %59, %"class.xercesc_2_7::TokenFactory"* %this1), !dbg !1747
  %62 = load %"class.xercesc_2_7::Token"*, %"class.xercesc_2_7::Token"** %left, align 8, !dbg !1748
  %call43 = call %"class.xercesc_2_7::Token"* @_ZN11xercesc_2_712TokenFactory11createTokenEt(%"class.xercesc_2_7::TokenFactory"* %this1, i16 zeroext 7), !dbg !1749
  %63 = bitcast %"class.xercesc_2_7::Token"* %62 to void (%"class.xercesc_2_7::Token"*, %"class.xercesc_2_7::Token"*, %"class.xercesc_2_7::TokenFactory"*)***, !dbg !1750
  %vtable44 = load void (%"class.xercesc_2_7::Token"*, %"class.xercesc_2_7::Token"*, %"class.xercesc_2_7::TokenFactory"*)**, void (%"class.xercesc_2_7::Token"*, %"class.xercesc_2_7::Token"*, %"class.xercesc_2_7::TokenFactory"*)*** %63, align 8, !dbg !1750
  %vfn45 = getelementptr inbounds void (%"class.xercesc_2_7::Token"*, %"class.xercesc_2_7::Token"*, %"class.xercesc_2_7::TokenFactory"*)*, void (%"class.xercesc_2_7::Token"*, %"class.xercesc_2_7::Token"*, %"class.xercesc_2_7::TokenFactory"*)** %vtable44, i64 18, !dbg !1750
  %64 = load void (%"class.xercesc_2_7::Token"*, %"class.xercesc_2_7::Token"*, %"class.xercesc_2_7::TokenFactory"*)*, void (%"class.xercesc_2_7::Token"*, %"class.xercesc_2_7::Token"*, %"class.xercesc_2_7::TokenFactory"*)** %vfn45, align 8, !dbg !1750
  call void %64(%"class.xercesc_2_7::Token"* %62, %"class.xercesc_2_7::Token"* %call43, %"class.xercesc_2_7::TokenFactory"* %this1), !dbg !1750
  call void @llvm.dbg.declare(metadata %"class.xercesc_2_7::Token"** %foo, metadata !1751, metadata !DIExpression()), !dbg !1752
  %call46 = call %"class.xercesc_2_7::UnionToken"* @_ZN11xercesc_2_712TokenFactory11createUnionEb(%"class.xercesc_2_7::TokenFactory"* %this1, i1 zeroext false), !dbg !1753
  %65 = bitcast %"class.xercesc_2_7::UnionToken"* %call46 to %"class.xercesc_2_7::Token"*, !dbg !1753
  store %"class.xercesc_2_7::Token"* %65, %"class.xercesc_2_7::Token"** %foo, align 8, !dbg !1752
  %66 = load %"class.xercesc_2_7::Token"*, %"class.xercesc_2_7::Token"** %foo, align 8, !dbg !1754
  %67 = load %"class.xercesc_2_7::Token"*, %"class.xercesc_2_7::Token"** %virama, align 8, !dbg !1755
  %call47 = call %"class.xercesc_2_7::RangeToken"* @_ZN11xercesc_2_712TokenFactory8getRangeEPKtb(%"class.xercesc_2_7::TokenFactory"* %this1, i16* getelementptr inbounds ([2 x i16], [2 x i16]* @_ZN11xercesc_2_7L11fgUniLetterE, i64 0, i64 0), i1 zeroext false), !dbg !1756
  %68 = bitcast %"class.xercesc_2_7::RangeToken"* %call47 to %"class.xercesc_2_7::Token"*, !dbg !1756
  %call48 = call %"class.xercesc_2_7::ConcatToken"* @_ZN11xercesc_2_712TokenFactory12createConcatEPNS_5TokenES2_(%"class.xercesc_2_7::TokenFactory"* %this1, %"class.xercesc_2_7::Token"* %67, %"class.xercesc_2_7::Token"* %68), !dbg !1757
  %69 = bitcast %"class.xercesc_2_7::ConcatToken"* %call48 to %"class.xercesc_2_7::Token"*, !dbg !1758
  %70 = bitcast %"class.xercesc_2_7::Token"* %66 to void (%"class.xercesc_2_7::Token"*, %"class.xercesc_2_7::Token"*, %"class.xercesc_2_7::TokenFactory"*)***, !dbg !1759
  %vtable49 = load void (%"class.xercesc_2_7::Token"*, %"class.xercesc_2_7::Token"*, %"class.xercesc_2_7::TokenFactory"*)**, void (%"class.xercesc_2_7::Token"*, %"class.xercesc_2_7::Token"*, %"class.xercesc_2_7::TokenFactory"*)*** %70, align 8, !dbg !1759
  %vfn50 = getelementptr inbounds void (%"class.xercesc_2_7::Token"*, %"class.xercesc_2_7::Token"*, %"class.xercesc_2_7::TokenFactory"*)*, void (%"class.xercesc_2_7::Token"*, %"class.xercesc_2_7::Token"*, %"class.xercesc_2_7::TokenFactory"*)** %vtable49, i64 18, !dbg !1759
  %71 = load void (%"class.xercesc_2_7::Token"*, %"class.xercesc_2_7::Token"*, %"class.xercesc_2_7::TokenFactory"*)*, void (%"class.xercesc_2_7::Token"*, %"class.xercesc_2_7::Token"*, %"class.xercesc_2_7::TokenFactory"*)** %vfn50, align 8, !dbg !1759
  call void %71(%"class.xercesc_2_7::Token"* %66, %"class.xercesc_2_7::Token"* %69, %"class.xercesc_2_7::TokenFactory"* %this1), !dbg !1759
  %72 = load %"class.xercesc_2_7::Token"*, %"class.xercesc_2_7::Token"** %foo, align 8, !dbg !1760
  %73 = load %"class.xercesc_2_7::Token"*, %"class.xercesc_2_7::Token"** %combiner_wo_virama, align 8, !dbg !1761
  %74 = bitcast %"class.xercesc_2_7::Token"* %72 to void (%"class.xercesc_2_7::Token"*, %"class.xercesc_2_7::Token"*, %"class.xercesc_2_7::TokenFactory"*)***, !dbg !1762
  %vtable51 = load void (%"class.xercesc_2_7::Token"*, %"class.xercesc_2_7::Token"*, %"class.xercesc_2_7::TokenFactory"*)**, void (%"class.xercesc_2_7::Token"*, %"class.xercesc_2_7::Token"*, %"class.xercesc_2_7::TokenFactory"*)*** %74, align 8, !dbg !1762
  %vfn52 = getelementptr inbounds void (%"class.xercesc_2_7::Token"*, %"class.xercesc_2_7::Token"*, %"class.xercesc_2_7::TokenFactory"*)*, void (%"class.xercesc_2_7::Token"*, %"class.xercesc_2_7::Token"*, %"class.xercesc_2_7::TokenFactory"*)** %vtable51, i64 18, !dbg !1762
  %75 = load void (%"class.xercesc_2_7::Token"*, %"class.xercesc_2_7::Token"*, %"class.xercesc_2_7::TokenFactory"*)*, void (%"class.xercesc_2_7::Token"*, %"class.xercesc_2_7::Token"*, %"class.xercesc_2_7::TokenFactory"*)** %vfn52, align 8, !dbg !1762
  call void %75(%"class.xercesc_2_7::Token"* %72, %"class.xercesc_2_7::Token"* %73, %"class.xercesc_2_7::TokenFactory"* %this1), !dbg !1762
  %76 = load %"class.xercesc_2_7::Token"*, %"class.xercesc_2_7::Token"** %foo, align 8, !dbg !1763
  %call53 = call %"class.xercesc_2_7::ClosureToken"* @_ZN11xercesc_2_712TokenFactory13createClosureEPNS_5TokenEb(%"class.xercesc_2_7::TokenFactory"* %this1, %"class.xercesc_2_7::Token"* %76, i1 zeroext false), !dbg !1764
  %77 = bitcast %"class.xercesc_2_7::ClosureToken"* %call53 to %"class.xercesc_2_7::Token"*, !dbg !1764
  store %"class.xercesc_2_7::Token"* %77, %"class.xercesc_2_7::Token"** %foo, align 8, !dbg !1765
  %78 = load %"class.xercesc_2_7::Token"*, %"class.xercesc_2_7::Token"** %left, align 8, !dbg !1766
  %79 = load %"class.xercesc_2_7::Token"*, %"class.xercesc_2_7::Token"** %foo, align 8, !dbg !1767
  %call54 = call %"class.xercesc_2_7::ConcatToken"* @_ZN11xercesc_2_712TokenFactory12createConcatEPNS_5TokenES2_(%"class.xercesc_2_7::TokenFactory"* %this1, %"class.xercesc_2_7::Token"* %78, %"class.xercesc_2_7::Token"* %79), !dbg !1768
  %80 = bitcast %"class.xercesc_2_7::ConcatToken"* %call54 to %"class.xercesc_2_7::Token"*, !dbg !1768
  store %"class.xercesc_2_7::Token"* %80, %"class.xercesc_2_7::Token"** %foo, align 8, !dbg !1769
  %81 = load %"class.xercesc_2_7::Token"*, %"class.xercesc_2_7::Token"** %foo, align 8, !dbg !1770
  %fGrapheme55 = getelementptr inbounds %"class.xercesc_2_7::TokenFactory", %"class.xercesc_2_7::TokenFactory"* %this1, i32 0, i32 14, !dbg !1771
  store %"class.xercesc_2_7::Token"* %81, %"class.xercesc_2_7::Token"** %fGrapheme55, align 8, !dbg !1772
  br label %if.end, !dbg !1773

if.end:                                           ; preds = %if.then, %entry
  %fGrapheme56 = getelementptr inbounds %"class.xercesc_2_7::TokenFactory", %"class.xercesc_2_7::TokenFactory"* %this1, i32 0, i32 14, !dbg !1774
  %82 = load %"class.xercesc_2_7::Token"*, %"class.xercesc_2_7::Token"** %fGrapheme56, align 8, !dbg !1774
  ret %"class.xercesc_2_7::Token"* %82, !dbg !1775
}

; Function Attrs: noinline uwtable
define linkonce_odr dso_local void @_ZN11xercesc_2_715BaseRefVectorOfINS_5TokenEEC2EjbPNS_13MemoryManagerE(%"class.xercesc_2_7::BaseRefVectorOf"* %this, i32 %maxElems, i1 zeroext %adoptElems, %"class.xercesc_2_7::MemoryManager"* %manager) unnamed_addr #3 comdat align 2 !dbg !1776 {
entry:
  %this.addr = alloca %"class.xercesc_2_7::BaseRefVectorOf"*, align 8
  %maxElems.addr = alloca i32, align 4
  %adoptElems.addr = alloca i8, align 1
  %manager.addr = alloca %"class.xercesc_2_7::MemoryManager"*, align 8
  %index = alloca i32, align 4
  store %"class.xercesc_2_7::BaseRefVectorOf"* %this, %"class.xercesc_2_7::BaseRefVectorOf"** %this.addr, align 8
  call void @llvm.dbg.declare(metadata %"class.xercesc_2_7::BaseRefVectorOf"** %this.addr, metadata !1777, metadata !DIExpression()), !dbg !1778
  store i32 %maxElems, i32* %maxElems.addr, align 4
  call void @llvm.dbg.declare(metadata i32* %maxElems.addr, metadata !1779, metadata !DIExpression()), !dbg !1780
  %frombool = zext i1 %adoptElems to i8
  store i8 %frombool, i8* %adoptElems.addr, align 1
  call void @llvm.dbg.declare(metadata i8* %adoptElems.addr, metadata !1781, metadata !DIExpression()), !dbg !1782
  store %"class.xercesc_2_7::MemoryManager"* %manager, %"class.xercesc_2_7::MemoryManager"** %manager.addr, align 8
  call void @llvm.dbg.declare(metadata %"class.xercesc_2_7::MemoryManager"** %manager.addr, metadata !1783, metadata !DIExpression()), !dbg !1784
  %this1 = load %"class.xercesc_2_7::BaseRefVectorOf"*, %"class.xercesc_2_7::BaseRefVectorOf"** %this.addr, align 8
  %0 = bitcast %"class.xercesc_2_7::BaseRefVectorOf"* %this1 to %"class.xercesc_2_7::XMemory"*, !dbg !1785
  call void @_ZN11xercesc_2_77XMemoryC2Ev(%"class.xercesc_2_7::XMemory"* %0), !dbg !1786
  %1 = bitcast %"class.xercesc_2_7::BaseRefVectorOf"* %this1 to i32 (...)***, !dbg !1785
  store i32 (...)** bitcast (i8** getelementptr inbounds ({ [9 x i8*] }, { [9 x i8*] }* @_ZTVN11xercesc_2_715BaseRefVectorOfINS_5TokenEEE, i32 0, inrange i32 0, i32 2) to i32 (...)**), i32 (...)*** %1, align 8, !dbg !1785
  %fAdoptedElems = getelementptr inbounds %"class.xercesc_2_7::BaseRefVectorOf", %"class.xercesc_2_7::BaseRefVectorOf"* %this1, i32 0, i32 1, !dbg !1788
  %2 = load i8, i8* %adoptElems.addr, align 1, !dbg !1790
  %tobool = trunc i8 %2 to i1, !dbg !1790
  %frombool2 = zext i1 %tobool to i8, !dbg !1788
  store i8 %frombool2, i8* %fAdoptedElems, align 8, !dbg !1788
  %fCurCount = getelementptr inbounds %"class.xercesc_2_7::BaseRefVectorOf", %"class.xercesc_2_7::BaseRefVectorOf"* %this1, i32 0, i32 2, !dbg !1791
  store i32 0, i32* %fCurCount, align 4, !dbg !1791
  %fMaxCount = getelementptr inbounds %"class.xercesc_2_7::BaseRefVectorOf", %"class.xercesc_2_7::BaseRefVectorOf"* %this1, i32 0, i32 3, !dbg !1792
  %3 = load i32, i32* %maxElems.addr, align 4, !dbg !1793
  store i32 %3, i32* %fMaxCount, align 8, !dbg !1792
  %fElemList = getelementptr inbounds %"class.xercesc_2_7::BaseRefVectorOf", %"class.xercesc_2_7::BaseRefVectorOf"* %this1, i32 0, i32 4, !dbg !1794
  store %"class.xercesc_2_7::Token"** null, %"class.xercesc_2_7::Token"*** %fElemList, align 8, !dbg !1794
  %fMemoryManager = getelementptr inbounds %"class.xercesc_2_7::BaseRefVectorOf", %"class.xercesc_2_7::BaseRefVectorOf"* %this1, i32 0, i32 5, !dbg !1795
  %4 = load %"class.xercesc_2_7::MemoryManager"*, %"class.xercesc_2_7::MemoryManager"** %manager.addr, align 8, !dbg !1796
  store %"class.xercesc_2_7::MemoryManager"* %4, %"class.xercesc_2_7::MemoryManager"** %fMemoryManager, align 8, !dbg !1795
  %fMemoryManager3 = getelementptr inbounds %"class.xercesc_2_7::BaseRefVectorOf", %"class.xercesc_2_7::BaseRefVectorOf"* %this1, i32 0, i32 5, !dbg !1797
  %5 = load %"class.xercesc_2_7::MemoryManager"*, %"class.xercesc_2_7::MemoryManager"** %fMemoryManager3, align 8, !dbg !1797
  %6 = load i32, i32* %maxElems.addr, align 4, !dbg !1799
  %conv = zext i32 %6 to i64, !dbg !1799
  %mul = mul i64 %conv, 8, !dbg !1800
  %7 = bitcast %"class.xercesc_2_7::MemoryManager"* %5 to i8* (%"class.xercesc_2_7::MemoryManager"*, i64)***, !dbg !1801
  %vtable = load i8* (%"class.xercesc_2_7::MemoryManager"*, i64)**, i8* (%"class.xercesc_2_7::MemoryManager"*, i64)*** %7, align 8, !dbg !1801
  %vfn = getelementptr inbounds i8* (%"class.xercesc_2_7::MemoryManager"*, i64)*, i8* (%"class.xercesc_2_7::MemoryManager"*, i64)** %vtable, i64 2, !dbg !1801
  %8 = load i8* (%"class.xercesc_2_7::MemoryManager"*, i64)*, i8* (%"class.xercesc_2_7::MemoryManager"*, i64)** %vfn, align 8, !dbg !1801
  %call = call i8* %8(%"class.xercesc_2_7::MemoryManager"* %5, i64 %mul), !dbg !1801
  %9 = bitcast i8* %call to %"class.xercesc_2_7::Token"**, !dbg !1802
  %fElemList4 = getelementptr inbounds %"class.xercesc_2_7::BaseRefVectorOf", %"class.xercesc_2_7::BaseRefVectorOf"* %this1, i32 0, i32 4, !dbg !1803
  store %"class.xercesc_2_7::Token"** %9, %"class.xercesc_2_7::Token"*** %fElemList4, align 8, !dbg !1804
  call void @llvm.dbg.declare(metadata i32* %index, metadata !1805, metadata !DIExpression()), !dbg !1807
  store i32 0, i32* %index, align 4, !dbg !1807
  br label %for.cond, !dbg !1808

for.cond:                                         ; preds = %for.inc, %entry
  %10 = load i32, i32* %index, align 4, !dbg !1809
  %11 = load i32, i32* %maxElems.addr, align 4, !dbg !1811
  %cmp = icmp ult i32 %10, %11, !dbg !1812
  br i1 %cmp, label %for.body, label %for.end, !dbg !1813

for.body:                                         ; preds = %for.cond
  %fElemList5 = getelementptr inbounds %"class.xercesc_2_7::BaseRefVectorOf", %"class.xercesc_2_7::BaseRefVectorOf"* %this1, i32 0, i32 4, !dbg !1814
  %12 = load %"class.xercesc_2_7::Token"**, %"class.xercesc_2_7::Token"*** %fElemList5, align 8, !dbg !1814
  %13 = load i32, i32* %index, align 4, !dbg !1815
  %idxprom = zext i32 %13 to i64, !dbg !1814
  %arrayidx = getelementptr inbounds %"class.xercesc_2_7::Token"*, %"class.xercesc_2_7::Token"** %12, i64 %idxprom, !dbg !1814
  store %"class.xercesc_2_7::Token"* null, %"class.xercesc_2_7::Token"** %arrayidx, align 8, !dbg !1816
  br label %for.inc, !dbg !1814

for.inc:                                          ; preds = %for.body
  %14 = load i32, i32* %index, align 4, !dbg !1817
  %inc = add i32 %14, 1, !dbg !1817
  store i32 %inc, i32* %index, align 4, !dbg !1817
  br label %for.cond, !dbg !1818, !llvm.loop !1819

for.end:                                          ; preds = %for.cond
  ret void, !dbg !1821
}

; Function Attrs: noinline nounwind uwtable
define linkonce_odr dso_local void @_ZN11xercesc_2_711RefVectorOfINS_5TokenEED2Ev(%"class.xercesc_2_7::RefVectorOf"* %this) unnamed_addr #1 comdat align 2 personality i8* bitcast (i32 (...)* @__gxx_personality_v0 to i8*) !dbg !1822 {
entry:
  %this.addr = alloca %"class.xercesc_2_7::RefVectorOf"*, align 8
  %index = alloca i32, align 4
  %exn.slot = alloca i8*
  %ehselector.slot = alloca i32
  store %"class.xercesc_2_7::RefVectorOf"* %this, %"class.xercesc_2_7::RefVectorOf"** %this.addr, align 8
  call void @llvm.dbg.declare(metadata %"class.xercesc_2_7::RefVectorOf"** %this.addr, metadata !1823, metadata !DIExpression()), !dbg !1824
  %this1 = load %"class.xercesc_2_7::RefVectorOf"*, %"class.xercesc_2_7::RefVectorOf"** %this.addr, align 8
  %0 = bitcast %"class.xercesc_2_7::RefVectorOf"* %this1 to i32 (...)***, !dbg !1825
  store i32 (...)** bitcast (i8** getelementptr inbounds ({ [9 x i8*] }, { [9 x i8*] }* @_ZTVN11xercesc_2_711RefVectorOfINS_5TokenEEE, i32 0, inrange i32 0, i32 2) to i32 (...)**), i32 (...)*** %0, align 8, !dbg !1825
  %1 = bitcast %"class.xercesc_2_7::RefVectorOf"* %this1 to %"class.xercesc_2_7::BaseRefVectorOf"*, !dbg !1826
  %fAdoptedElems = getelementptr inbounds %"class.xercesc_2_7::BaseRefVectorOf", %"class.xercesc_2_7::BaseRefVectorOf"* %1, i32 0, i32 1, !dbg !1826
  %2 = load i8, i8* %fAdoptedElems, align 8, !dbg !1826
  %tobool = trunc i8 %2 to i1, !dbg !1826
  br i1 %tobool, label %if.then, label %if.end, !dbg !1829

if.then:                                          ; preds = %entry
  call void @llvm.dbg.declare(metadata i32* %index, metadata !1830, metadata !DIExpression()), !dbg !1833
  store i32 0, i32* %index, align 4, !dbg !1833
  br label %for.cond, !dbg !1834

for.cond:                                         ; preds = %for.inc, %if.then
  %3 = load i32, i32* %index, align 4, !dbg !1835
  %4 = bitcast %"class.xercesc_2_7::RefVectorOf"* %this1 to %"class.xercesc_2_7::BaseRefVectorOf"*, !dbg !1837
  %fCurCount = getelementptr inbounds %"class.xercesc_2_7::BaseRefVectorOf", %"class.xercesc_2_7::BaseRefVectorOf"* %4, i32 0, i32 2, !dbg !1837
  %5 = load i32, i32* %fCurCount, align 4, !dbg !1837
  %cmp = icmp ult i32 %3, %5, !dbg !1838
  br i1 %cmp, label %for.body, label %for.end, !dbg !1839

for.body:                                         ; preds = %for.cond
  %6 = bitcast %"class.xercesc_2_7::RefVectorOf"* %this1 to %"class.xercesc_2_7::BaseRefVectorOf"*, !dbg !1840
  %fElemList = getelementptr inbounds %"class.xercesc_2_7::BaseRefVectorOf", %"class.xercesc_2_7::BaseRefVectorOf"* %6, i32 0, i32 4, !dbg !1840
  %7 = load %"class.xercesc_2_7::Token"**, %"class.xercesc_2_7::Token"*** %fElemList, align 8, !dbg !1840
  %8 = load i32, i32* %index, align 4, !dbg !1841
  %idxprom = zext i32 %8 to i64, !dbg !1842
  %arrayidx = getelementptr inbounds %"class.xercesc_2_7::Token"*, %"class.xercesc_2_7::Token"** %7, i64 %idxprom, !dbg !1842
  %9 = load %"class.xercesc_2_7::Token"*, %"class.xercesc_2_7::Token"** %arrayidx, align 8, !dbg !1842
  %isnull = icmp eq %"class.xercesc_2_7::Token"* %9, null, !dbg !1843
  br i1 %isnull, label %delete.end, label %delete.notnull, !dbg !1843

delete.notnull:                                   ; preds = %for.body
  %10 = bitcast %"class.xercesc_2_7::Token"* %9 to void (%"class.xercesc_2_7::Token"*)***, !dbg !1843
  %vtable = load void (%"class.xercesc_2_7::Token"*)**, void (%"class.xercesc_2_7::Token"*)*** %10, align 8, !dbg !1843
  %vfn = getelementptr inbounds void (%"class.xercesc_2_7::Token"*)*, void (%"class.xercesc_2_7::Token"*)** %vtable, i64 1, !dbg !1843
  %11 = load void (%"class.xercesc_2_7::Token"*)*, void (%"class.xercesc_2_7::Token"*)** %vfn, align 8, !dbg !1843
  call void %11(%"class.xercesc_2_7::Token"* %9) #7, !dbg !1843
  br label %delete.end, !dbg !1843

delete.end:                                       ; preds = %delete.notnull, %for.body
  br label %for.inc, !dbg !1843

for.inc:                                          ; preds = %delete.end
  %12 = load i32, i32* %index, align 4, !dbg !1844
  %inc = add i32 %12, 1, !dbg !1844
  store i32 %inc, i32* %index, align 4, !dbg !1844
  br label %for.cond, !dbg !1845, !llvm.loop !1846

for.end:                                          ; preds = %for.cond
  br label %if.end, !dbg !1848

if.end:                                           ; preds = %for.end, %entry
  %13 = bitcast %"class.xercesc_2_7::RefVectorOf"* %this1 to %"class.xercesc_2_7::BaseRefVectorOf"*, !dbg !1849
  %fMemoryManager = getelementptr inbounds %"class.xercesc_2_7::BaseRefVectorOf", %"class.xercesc_2_7::BaseRefVectorOf"* %13, i32 0, i32 5, !dbg !1849
  %14 = load %"class.xercesc_2_7::MemoryManager"*, %"class.xercesc_2_7::MemoryManager"** %fMemoryManager, align 8, !dbg !1849
  %15 = bitcast %"class.xercesc_2_7::RefVectorOf"* %this1 to %"class.xercesc_2_7::BaseRefVectorOf"*, !dbg !1850
  %fElemList2 = getelementptr inbounds %"class.xercesc_2_7::BaseRefVectorOf", %"class.xercesc_2_7::BaseRefVectorOf"* %15, i32 0, i32 4, !dbg !1850
  %16 = load %"class.xercesc_2_7::Token"**, %"class.xercesc_2_7::Token"*** %fElemList2, align 8, !dbg !1850
  %17 = bitcast %"class.xercesc_2_7::Token"** %16 to i8*, !dbg !1851
  %18 = bitcast %"class.xercesc_2_7::MemoryManager"* %14 to void (%"class.xercesc_2_7::MemoryManager"*, i8*)***, !dbg !1852
  %vtable3 = load void (%"class.xercesc_2_7::MemoryManager"*, i8*)**, void (%"class.xercesc_2_7::MemoryManager"*, i8*)*** %18, align 8, !dbg !1852
  %vfn4 = getelementptr inbounds void (%"class.xercesc_2_7::MemoryManager"*, i8*)*, void (%"class.xercesc_2_7::MemoryManager"*, i8*)** %vtable3, i64 3, !dbg !1852
  %19 = load void (%"class.xercesc_2_7::MemoryManager"*, i8*)*, void (%"class.xercesc_2_7::MemoryManager"*, i8*)** %vfn4, align 8, !dbg !1852
  invoke void %19(%"class.xercesc_2_7::MemoryManager"* %14, i8* %17)
          to label %invoke.cont unwind label %lpad, !dbg !1852

invoke.cont:                                      ; preds = %if.end
  %20 = bitcast %"class.xercesc_2_7::RefVectorOf"* %this1 to %"class.xercesc_2_7::BaseRefVectorOf"*, !dbg !1853
  call void @_ZN11xercesc_2_715BaseRefVectorOfINS_5TokenEED2Ev(%"class.xercesc_2_7::BaseRefVectorOf"* %20) #7, !dbg !1853
  ret void, !dbg !1854

lpad:                                             ; preds = %if.end
  %21 = landingpad { i8*, i32 }
          catch i8* null, !dbg !1853
  %22 = extractvalue { i8*, i32 } %21, 0, !dbg !1853
  store i8* %22, i8** %exn.slot, align 8, !dbg !1853
  %23 = extractvalue { i8*, i32 } %21, 1, !dbg !1853
  store i32 %23, i32* %ehselector.slot, align 4, !dbg !1853
  %24 = bitcast %"class.xercesc_2_7::RefVectorOf"* %this1 to %"class.xercesc_2_7::BaseRefVectorOf"*, !dbg !1853
  call void @_ZN11xercesc_2_715BaseRefVectorOfINS_5TokenEED2Ev(%"class.xercesc_2_7::BaseRefVectorOf"* %24) #7, !dbg !1853
  br label %terminate.handler, !dbg !1853

terminate.handler:                                ; preds = %lpad
  %exn = load i8*, i8** %exn.slot, align 8, !dbg !1853
  call void @__clang_call_terminate(i8* %exn) #9, !dbg !1853
  unreachable, !dbg !1853
}

; Function Attrs: noinline nounwind uwtable
define linkonce_odr dso_local void @_ZN11xercesc_2_711RefVectorOfINS_5TokenEED0Ev(%"class.xercesc_2_7::RefVectorOf"* %this) unnamed_addr #1 comdat align 2 !dbg !1855 {
entry:
  %this.addr = alloca %"class.xercesc_2_7::RefVectorOf"*, align 8
  store %"class.xercesc_2_7::RefVectorOf"* %this, %"class.xercesc_2_7::RefVectorOf"** %this.addr, align 8
  call void @llvm.dbg.declare(metadata %"class.xercesc_2_7::RefVectorOf"** %this.addr, metadata !1856, metadata !DIExpression()), !dbg !1857
  %this1 = load %"class.xercesc_2_7::RefVectorOf"*, %"class.xercesc_2_7::RefVectorOf"** %this.addr, align 8
  call void @_ZN11xercesc_2_711RefVectorOfINS_5TokenEED2Ev(%"class.xercesc_2_7::RefVectorOf"* %this1) #7, !dbg !1858
  %0 = bitcast %"class.xercesc_2_7::RefVectorOf"* %this1 to i8*, !dbg !1858
  call void @_ZN11xercesc_2_77XMemorydlEPv(i8* %0) #7, !dbg !1858
  ret void, !dbg !1859
}

; Function Attrs: noinline uwtable
define linkonce_odr dso_local void @_ZN11xercesc_2_715BaseRefVectorOfINS_5TokenEE12setElementAtEPS1_j(%"class.xercesc_2_7::BaseRefVectorOf"* %this, %"class.xercesc_2_7::Token"* %toSet, i32 %setAt) unnamed_addr #3 comdat align 2 personality i8* bitcast (i32 (...)* @__gxx_personality_v0 to i8*) !dbg !1860 {
entry:
  %this.addr = alloca %"class.xercesc_2_7::BaseRefVectorOf"*, align 8
  %toSet.addr = alloca %"class.xercesc_2_7::Token"*, align 8
  %setAt.addr = alloca i32, align 4
  %exn.slot = alloca i8*
  %ehselector.slot = alloca i32
  store %"class.xercesc_2_7::BaseRefVectorOf"* %this, %"class.xercesc_2_7::BaseRefVectorOf"** %this.addr, align 8
  call void @llvm.dbg.declare(metadata %"class.xercesc_2_7::BaseRefVectorOf"** %this.addr, metadata !1861, metadata !DIExpression()), !dbg !1862
  store %"class.xercesc_2_7::Token"* %toSet, %"class.xercesc_2_7::Token"** %toSet.addr, align 8
  call void @llvm.dbg.declare(metadata %"class.xercesc_2_7::Token"** %toSet.addr, metadata !1863, metadata !DIExpression()), !dbg !1864
  store i32 %setAt, i32* %setAt.addr, align 4
  call void @llvm.dbg.declare(metadata i32* %setAt.addr, metadata !1865, metadata !DIExpression()), !dbg !1866
  %this1 = load %"class.xercesc_2_7::BaseRefVectorOf"*, %"class.xercesc_2_7::BaseRefVectorOf"** %this.addr, align 8
  %0 = load i32, i32* %setAt.addr, align 4, !dbg !1867
  %fCurCount = getelementptr inbounds %"class.xercesc_2_7::BaseRefVectorOf", %"class.xercesc_2_7::BaseRefVectorOf"* %this1, i32 0, i32 2, !dbg !1869
  %1 = load i32, i32* %fCurCount, align 4, !dbg !1869
  %cmp = icmp uge i32 %0, %1, !dbg !1870
  br i1 %cmp, label %if.then, label %if.end, !dbg !1871

if.then:                                          ; preds = %entry
  %exception = call i8* @__cxa_allocate_exception(i64 48) #7, !dbg !1872
  %2 = bitcast i8* %exception to %"class.xercesc_2_7::ArrayIndexOutOfBoundsException"*, !dbg !1872
  %fMemoryManager = getelementptr inbounds %"class.xercesc_2_7::BaseRefVectorOf", %"class.xercesc_2_7::BaseRefVectorOf"* %this1, i32 0, i32 5, !dbg !1872
  %3 = load %"class.xercesc_2_7::MemoryManager"*, %"class.xercesc_2_7::MemoryManager"** %fMemoryManager, align 8, !dbg !1872
  invoke void @_ZN11xercesc_2_730ArrayIndexOutOfBoundsExceptionC2EPKcjNS_10XMLExcepts5CodesEPNS_13MemoryManagerE(%"class.xercesc_2_7::ArrayIndexOutOfBoundsException"* %2, i8* getelementptr inbounds ([33 x i8], [33 x i8]* @.str, i64 0, i64 0), i32 67, i32 116, %"class.xercesc_2_7::MemoryManager"* %3)
          to label %invoke.cont unwind label %lpad, !dbg !1872

invoke.cont:                                      ; preds = %if.then
  call void @__cxa_throw(i8* %exception, i8* bitcast ({ i8*, i8*, i8* }* @_ZTIN11xercesc_2_730ArrayIndexOutOfBoundsExceptionE to i8*), i8* bitcast (void (%"class.xercesc_2_7::ArrayIndexOutOfBoundsException"*)* @_ZN11xercesc_2_730ArrayIndexOutOfBoundsExceptionD2Ev to i8*)) #10, !dbg !1872
  unreachable, !dbg !1872

lpad:                                             ; preds = %if.then
  %4 = landingpad { i8*, i32 }
          cleanup, !dbg !1873
  %5 = extractvalue { i8*, i32 } %4, 0, !dbg !1873
  store i8* %5, i8** %exn.slot, align 8, !dbg !1873
  %6 = extractvalue { i8*, i32 } %4, 1, !dbg !1873
  store i32 %6, i32* %ehselector.slot, align 4, !dbg !1873
  call void @__cxa_free_exception(i8* %exception) #7, !dbg !1872
  br label %eh.resume, !dbg !1872

if.end:                                           ; preds = %entry
  %fAdoptedElems = getelementptr inbounds %"class.xercesc_2_7::BaseRefVectorOf", %"class.xercesc_2_7::BaseRefVectorOf"* %this1, i32 0, i32 1, !dbg !1874
  %7 = load i8, i8* %fAdoptedElems, align 8, !dbg !1874
  %tobool = trunc i8 %7 to i1, !dbg !1874
  br i1 %tobool, label %if.then2, label %if.end3, !dbg !1876

if.then2:                                         ; preds = %if.end
  %fElemList = getelementptr inbounds %"class.xercesc_2_7::BaseRefVectorOf", %"class.xercesc_2_7::BaseRefVectorOf"* %this1, i32 0, i32 4, !dbg !1877
  %8 = load %"class.xercesc_2_7::Token"**, %"class.xercesc_2_7::Token"*** %fElemList, align 8, !dbg !1877
  %9 = load i32, i32* %setAt.addr, align 4, !dbg !1878
  %idxprom = zext i32 %9 to i64, !dbg !1877
  %arrayidx = getelementptr inbounds %"class.xercesc_2_7::Token"*, %"class.xercesc_2_7::Token"** %8, i64 %idxprom, !dbg !1877
  %10 = load %"class.xercesc_2_7::Token"*, %"class.xercesc_2_7::Token"** %arrayidx, align 8, !dbg !1877
  %isnull = icmp eq %"class.xercesc_2_7::Token"* %10, null, !dbg !1879
  br i1 %isnull, label %delete.end, label %delete.notnull, !dbg !1879

delete.notnull:                                   ; preds = %if.then2
  %11 = bitcast %"class.xercesc_2_7::Token"* %10 to void (%"class.xercesc_2_7::Token"*)***, !dbg !1879
  %vtable = load void (%"class.xercesc_2_7::Token"*)**, void (%"class.xercesc_2_7::Token"*)*** %11, align 8, !dbg !1879
  %vfn = getelementptr inbounds void (%"class.xercesc_2_7::Token"*)*, void (%"class.xercesc_2_7::Token"*)** %vtable, i64 1, !dbg !1879
  %12 = load void (%"class.xercesc_2_7::Token"*)*, void (%"class.xercesc_2_7::Token"*)** %vfn, align 8, !dbg !1879
  call void %12(%"class.xercesc_2_7::Token"* %10) #7, !dbg !1879
  br label %delete.end, !dbg !1879

delete.end:                                       ; preds = %delete.notnull, %if.then2
  br label %if.end3, !dbg !1879

if.end3:                                          ; preds = %delete.end, %if.end
  %13 = load %"class.xercesc_2_7::Token"*, %"class.xercesc_2_7::Token"** %toSet.addr, align 8, !dbg !1880
  %fElemList4 = getelementptr inbounds %"class.xercesc_2_7::BaseRefVectorOf", %"class.xercesc_2_7::BaseRefVectorOf"* %this1, i32 0, i32 4, !dbg !1881
  %14 = load %"class.xercesc_2_7::Token"**, %"class.xercesc_2_7::Token"*** %fElemList4, align 8, !dbg !1881
  %15 = load i32, i32* %setAt.addr, align 4, !dbg !1882
  %idxprom5 = zext i32 %15 to i64, !dbg !1881
  %arrayidx6 = getelementptr inbounds %"class.xercesc_2_7::Token"*, %"class.xercesc_2_7::Token"** %14, i64 %idxprom5, !dbg !1881
  store %"class.xercesc_2_7::Token"* %13, %"class.xercesc_2_7::Token"** %arrayidx6, align 8, !dbg !1883
  ret void, !dbg !1884

eh.resume:                                        ; preds = %lpad
  %exn = load i8*, i8** %exn.slot, align 8, !dbg !1872
  %sel = load i32, i32* %ehselector.slot, align 4, !dbg !1872
  %lpad.val = insertvalue { i8*, i32 } undef, i8* %exn, 0, !dbg !1872
  %lpad.val7 = insertvalue { i8*, i32 } %lpad.val, i32 %sel, 1, !dbg !1872
  resume { i8*, i32 } %lpad.val7, !dbg !1872
}

; Function Attrs: noinline nounwind uwtable
define linkonce_odr dso_local void @_ZN11xercesc_2_715BaseRefVectorOfINS_5TokenEE17removeAllElementsEv(%"class.xercesc_2_7::BaseRefVectorOf"* %this) unnamed_addr #1 comdat align 2 !dbg !1885 {
entry:
  %this.addr = alloca %"class.xercesc_2_7::BaseRefVectorOf"*, align 8
  %index = alloca i32, align 4
  store %"class.xercesc_2_7::BaseRefVectorOf"* %this, %"class.xercesc_2_7::BaseRefVectorOf"** %this.addr, align 8
  call void @llvm.dbg.declare(metadata %"class.xercesc_2_7::BaseRefVectorOf"** %this.addr, metadata !1886, metadata !DIExpression()), !dbg !1887
  %this1 = load %"class.xercesc_2_7::BaseRefVectorOf"*, %"class.xercesc_2_7::BaseRefVectorOf"** %this.addr, align 8
  call void @llvm.dbg.declare(metadata i32* %index, metadata !1888, metadata !DIExpression()), !dbg !1890
  store i32 0, i32* %index, align 4, !dbg !1890
  br label %for.cond, !dbg !1891

for.cond:                                         ; preds = %for.inc, %entry
  %0 = load i32, i32* %index, align 4, !dbg !1892
  %fCurCount = getelementptr inbounds %"class.xercesc_2_7::BaseRefVectorOf", %"class.xercesc_2_7::BaseRefVectorOf"* %this1, i32 0, i32 2, !dbg !1894
  %1 = load i32, i32* %fCurCount, align 4, !dbg !1894
  %cmp = icmp ult i32 %0, %1, !dbg !1895
  br i1 %cmp, label %for.body, label %for.end, !dbg !1896

for.body:                                         ; preds = %for.cond
  %fAdoptedElems = getelementptr inbounds %"class.xercesc_2_7::BaseRefVectorOf", %"class.xercesc_2_7::BaseRefVectorOf"* %this1, i32 0, i32 1, !dbg !1897
  %2 = load i8, i8* %fAdoptedElems, align 8, !dbg !1897
  %tobool = trunc i8 %2 to i1, !dbg !1897
  br i1 %tobool, label %if.then, label %if.end, !dbg !1900

if.then:                                          ; preds = %for.body
  %fElemList = getelementptr inbounds %"class.xercesc_2_7::BaseRefVectorOf", %"class.xercesc_2_7::BaseRefVectorOf"* %this1, i32 0, i32 4, !dbg !1901
  %3 = load %"class.xercesc_2_7::Token"**, %"class.xercesc_2_7::Token"*** %fElemList, align 8, !dbg !1901
  %4 = load i32, i32* %index, align 4, !dbg !1902
  %idxprom = zext i32 %4 to i64, !dbg !1901
  %arrayidx = getelementptr inbounds %"class.xercesc_2_7::Token"*, %"class.xercesc_2_7::Token"** %3, i64 %idxprom, !dbg !1901
  %5 = load %"class.xercesc_2_7::Token"*, %"class.xercesc_2_7::Token"** %arrayidx, align 8, !dbg !1901
  %isnull = icmp eq %"class.xercesc_2_7::Token"* %5, null, !dbg !1903
  br i1 %isnull, label %delete.end, label %delete.notnull, !dbg !1903

delete.notnull:                                   ; preds = %if.then
  %6 = bitcast %"class.xercesc_2_7::Token"* %5 to void (%"class.xercesc_2_7::Token"*)***, !dbg !1903
  %vtable = load void (%"class.xercesc_2_7::Token"*)**, void (%"class.xercesc_2_7::Token"*)*** %6, align 8, !dbg !1903
  %vfn = getelementptr inbounds void (%"class.xercesc_2_7::Token"*)*, void (%"class.xercesc_2_7::Token"*)** %vtable, i64 1, !dbg !1903
  %7 = load void (%"class.xercesc_2_7::Token"*)*, void (%"class.xercesc_2_7::Token"*)** %vfn, align 8, !dbg !1903
  call void %7(%"class.xercesc_2_7::Token"* %5) #7, !dbg !1903
  br label %delete.end, !dbg !1903

delete.end:                                       ; preds = %delete.notnull, %if.then
  br label %if.end, !dbg !1903

if.end:                                           ; preds = %delete.end, %for.body
  %fElemList2 = getelementptr inbounds %"class.xercesc_2_7::BaseRefVectorOf", %"class.xercesc_2_7::BaseRefVectorOf"* %this1, i32 0, i32 4, !dbg !1904
  %8 = load %"class.xercesc_2_7::Token"**, %"class.xercesc_2_7::Token"*** %fElemList2, align 8, !dbg !1904
  %9 = load i32, i32* %index, align 4, !dbg !1905
  %idxprom3 = zext i32 %9 to i64, !dbg !1904
  %arrayidx4 = getelementptr inbounds %"class.xercesc_2_7::Token"*, %"class.xercesc_2_7::Token"** %8, i64 %idxprom3, !dbg !1904
  store %"class.xercesc_2_7::Token"* null, %"class.xercesc_2_7::Token"** %arrayidx4, align 8, !dbg !1906
  br label %for.inc, !dbg !1907

for.inc:                                          ; preds = %if.end
  %10 = load i32, i32* %index, align 4, !dbg !1908
  %inc = add i32 %10, 1, !dbg !1908
  store i32 %inc, i32* %index, align 4, !dbg !1908
  br label %for.cond, !dbg !1909, !llvm.loop !1910

for.end:                                          ; preds = %for.cond
  %fCurCount5 = getelementptr inbounds %"class.xercesc_2_7::BaseRefVectorOf", %"class.xercesc_2_7::BaseRefVectorOf"* %this1, i32 0, i32 2, !dbg !1912
  store i32 0, i32* %fCurCount5, align 4, !dbg !1913
  ret void, !dbg !1914
}

; Function Attrs: noinline uwtable
define linkonce_odr dso_local void @_ZN11xercesc_2_715BaseRefVectorOfINS_5TokenEE15removeElementAtEj(%"class.xercesc_2_7::BaseRefVectorOf"* %this, i32 %removeAt) unnamed_addr #3 comdat align 2 personality i8* bitcast (i32 (...)* @__gxx_personality_v0 to i8*) !dbg !1915 {
entry:
  %this.addr = alloca %"class.xercesc_2_7::BaseRefVectorOf"*, align 8
  %removeAt.addr = alloca i32, align 4
  %exn.slot = alloca i8*
  %ehselector.slot = alloca i32
  %index = alloca i32, align 4
  store %"class.xercesc_2_7::BaseRefVectorOf"* %this, %"class.xercesc_2_7::BaseRefVectorOf"** %this.addr, align 8
  call void @llvm.dbg.declare(metadata %"class.xercesc_2_7::BaseRefVectorOf"** %this.addr, metadata !1916, metadata !DIExpression()), !dbg !1917
  store i32 %removeAt, i32* %removeAt.addr, align 4
  call void @llvm.dbg.declare(metadata i32* %removeAt.addr, metadata !1918, metadata !DIExpression()), !dbg !1919
  %this1 = load %"class.xercesc_2_7::BaseRefVectorOf"*, %"class.xercesc_2_7::BaseRefVectorOf"** %this.addr, align 8
  %0 = load i32, i32* %removeAt.addr, align 4, !dbg !1920
  %fCurCount = getelementptr inbounds %"class.xercesc_2_7::BaseRefVectorOf", %"class.xercesc_2_7::BaseRefVectorOf"* %this1, i32 0, i32 2, !dbg !1922
  %1 = load i32, i32* %fCurCount, align 4, !dbg !1922
  %cmp = icmp uge i32 %0, %1, !dbg !1923
  br i1 %cmp, label %if.then, label %if.end, !dbg !1924

if.then:                                          ; preds = %entry
  %exception = call i8* @__cxa_allocate_exception(i64 48) #7, !dbg !1925
  %2 = bitcast i8* %exception to %"class.xercesc_2_7::ArrayIndexOutOfBoundsException"*, !dbg !1925
  %fMemoryManager = getelementptr inbounds %"class.xercesc_2_7::BaseRefVectorOf", %"class.xercesc_2_7::BaseRefVectorOf"* %this1, i32 0, i32 5, !dbg !1925
  %3 = load %"class.xercesc_2_7::MemoryManager"*, %"class.xercesc_2_7::MemoryManager"** %fMemoryManager, align 8, !dbg !1925
  invoke void @_ZN11xercesc_2_730ArrayIndexOutOfBoundsExceptionC2EPKcjNS_10XMLExcepts5CodesEPNS_13MemoryManagerE(%"class.xercesc_2_7::ArrayIndexOutOfBoundsException"* %2, i8* getelementptr inbounds ([33 x i8], [33 x i8]* @.str, i64 0, i64 0), i32 144, i32 116, %"class.xercesc_2_7::MemoryManager"* %3)
          to label %invoke.cont unwind label %lpad, !dbg !1925

invoke.cont:                                      ; preds = %if.then
  call void @__cxa_throw(i8* %exception, i8* bitcast ({ i8*, i8*, i8* }* @_ZTIN11xercesc_2_730ArrayIndexOutOfBoundsExceptionE to i8*), i8* bitcast (void (%"class.xercesc_2_7::ArrayIndexOutOfBoundsException"*)* @_ZN11xercesc_2_730ArrayIndexOutOfBoundsExceptionD2Ev to i8*)) #10, !dbg !1925
  unreachable, !dbg !1925

lpad:                                             ; preds = %if.then
  %4 = landingpad { i8*, i32 }
          cleanup, !dbg !1926
  %5 = extractvalue { i8*, i32 } %4, 0, !dbg !1926
  store i8* %5, i8** %exn.slot, align 8, !dbg !1926
  %6 = extractvalue { i8*, i32 } %4, 1, !dbg !1926
  store i32 %6, i32* %ehselector.slot, align 4, !dbg !1926
  call void @__cxa_free_exception(i8* %exception) #7, !dbg !1925
  br label %eh.resume, !dbg !1925

if.end:                                           ; preds = %entry
  %fAdoptedElems = getelementptr inbounds %"class.xercesc_2_7::BaseRefVectorOf", %"class.xercesc_2_7::BaseRefVectorOf"* %this1, i32 0, i32 1, !dbg !1927
  %7 = load i8, i8* %fAdoptedElems, align 8, !dbg !1927
  %tobool = trunc i8 %7 to i1, !dbg !1927
  br i1 %tobool, label %if.then2, label %if.end3, !dbg !1929

if.then2:                                         ; preds = %if.end
  %fElemList = getelementptr inbounds %"class.xercesc_2_7::BaseRefVectorOf", %"class.xercesc_2_7::BaseRefVectorOf"* %this1, i32 0, i32 4, !dbg !1930
  %8 = load %"class.xercesc_2_7::Token"**, %"class.xercesc_2_7::Token"*** %fElemList, align 8, !dbg !1930
  %9 = load i32, i32* %removeAt.addr, align 4, !dbg !1931
  %idxprom = zext i32 %9 to i64, !dbg !1930
  %arrayidx = getelementptr inbounds %"class.xercesc_2_7::Token"*, %"class.xercesc_2_7::Token"** %8, i64 %idxprom, !dbg !1930
  %10 = load %"class.xercesc_2_7::Token"*, %"class.xercesc_2_7::Token"** %arrayidx, align 8, !dbg !1930
  %isnull = icmp eq %"class.xercesc_2_7::Token"* %10, null, !dbg !1932
  br i1 %isnull, label %delete.end, label %delete.notnull, !dbg !1932

delete.notnull:                                   ; preds = %if.then2
  %11 = bitcast %"class.xercesc_2_7::Token"* %10 to void (%"class.xercesc_2_7::Token"*)***, !dbg !1932
  %vtable = load void (%"class.xercesc_2_7::Token"*)**, void (%"class.xercesc_2_7::Token"*)*** %11, align 8, !dbg !1932
  %vfn = getelementptr inbounds void (%"class.xercesc_2_7::Token"*)*, void (%"class.xercesc_2_7::Token"*)** %vtable, i64 1, !dbg !1932
  %12 = load void (%"class.xercesc_2_7::Token"*)*, void (%"class.xercesc_2_7::Token"*)** %vfn, align 8, !dbg !1932
  call void %12(%"class.xercesc_2_7::Token"* %10) #7, !dbg !1932
  br label %delete.end, !dbg !1932

delete.end:                                       ; preds = %delete.notnull, %if.then2
  br label %if.end3, !dbg !1932

if.end3:                                          ; preds = %delete.end, %if.end
  %13 = load i32, i32* %removeAt.addr, align 4, !dbg !1933
  %fCurCount4 = getelementptr inbounds %"class.xercesc_2_7::BaseRefVectorOf", %"class.xercesc_2_7::BaseRefVectorOf"* %this1, i32 0, i32 2, !dbg !1935
  %14 = load i32, i32* %fCurCount4, align 4, !dbg !1935
  %sub = sub i32 %14, 1, !dbg !1936
  %cmp5 = icmp eq i32 %13, %sub, !dbg !1937
  br i1 %cmp5, label %if.then6, label %if.end11, !dbg !1938

if.then6:                                         ; preds = %if.end3
  %fElemList7 = getelementptr inbounds %"class.xercesc_2_7::BaseRefVectorOf", %"class.xercesc_2_7::BaseRefVectorOf"* %this1, i32 0, i32 4, !dbg !1939
  %15 = load %"class.xercesc_2_7::Token"**, %"class.xercesc_2_7::Token"*** %fElemList7, align 8, !dbg !1939
  %16 = load i32, i32* %removeAt.addr, align 4, !dbg !1941
  %idxprom8 = zext i32 %16 to i64, !dbg !1939
  %arrayidx9 = getelementptr inbounds %"class.xercesc_2_7::Token"*, %"class.xercesc_2_7::Token"** %15, i64 %idxprom8, !dbg !1939
  store %"class.xercesc_2_7::Token"* null, %"class.xercesc_2_7::Token"** %arrayidx9, align 8, !dbg !1942
  %fCurCount10 = getelementptr inbounds %"class.xercesc_2_7::BaseRefVectorOf", %"class.xercesc_2_7::BaseRefVectorOf"* %this1, i32 0, i32 2, !dbg !1943
  %17 = load i32, i32* %fCurCount10, align 4, !dbg !1944
  %dec = add i32 %17, -1, !dbg !1944
  store i32 %dec, i32* %fCurCount10, align 4, !dbg !1944
  br label %return, !dbg !1945

if.end11:                                         ; preds = %if.end3
  call void @llvm.dbg.declare(metadata i32* %index, metadata !1946, metadata !DIExpression()), !dbg !1948
  %18 = load i32, i32* %removeAt.addr, align 4, !dbg !1949
  store i32 %18, i32* %index, align 4, !dbg !1948
  br label %for.cond, !dbg !1950

for.cond:                                         ; preds = %for.inc, %if.end11
  %19 = load i32, i32* %index, align 4, !dbg !1951
  %fCurCount12 = getelementptr inbounds %"class.xercesc_2_7::BaseRefVectorOf", %"class.xercesc_2_7::BaseRefVectorOf"* %this1, i32 0, i32 2, !dbg !1953
  %20 = load i32, i32* %fCurCount12, align 4, !dbg !1953
  %sub13 = sub i32 %20, 1, !dbg !1954
  %cmp14 = icmp ult i32 %19, %sub13, !dbg !1955
  br i1 %cmp14, label %for.body, label %for.end, !dbg !1956

for.body:                                         ; preds = %for.cond
  %fElemList15 = getelementptr inbounds %"class.xercesc_2_7::BaseRefVectorOf", %"class.xercesc_2_7::BaseRefVectorOf"* %this1, i32 0, i32 4, !dbg !1957
  %21 = load %"class.xercesc_2_7::Token"**, %"class.xercesc_2_7::Token"*** %fElemList15, align 8, !dbg !1957
  %22 = load i32, i32* %index, align 4, !dbg !1958
  %add = add i32 %22, 1, !dbg !1959
  %idxprom16 = zext i32 %add to i64, !dbg !1957
  %arrayidx17 = getelementptr inbounds %"class.xercesc_2_7::Token"*, %"class.xercesc_2_7::Token"** %21, i64 %idxprom16, !dbg !1957
  %23 = load %"class.xercesc_2_7::Token"*, %"class.xercesc_2_7::Token"** %arrayidx17, align 8, !dbg !1957
  %fElemList18 = getelementptr inbounds %"class.xercesc_2_7::BaseRefVectorOf", %"class.xercesc_2_7::BaseRefVectorOf"* %this1, i32 0, i32 4, !dbg !1960
  %24 = load %"class.xercesc_2_7::Token"**, %"class.xercesc_2_7::Token"*** %fElemList18, align 8, !dbg !1960
  %25 = load i32, i32* %index, align 4, !dbg !1961
  %idxprom19 = zext i32 %25 to i64, !dbg !1960
  %arrayidx20 = getelementptr inbounds %"class.xercesc_2_7::Token"*, %"class.xercesc_2_7::Token"** %24, i64 %idxprom19, !dbg !1960
  store %"class.xercesc_2_7::Token"* %23, %"class.xercesc_2_7::Token"** %arrayidx20, align 8, !dbg !1962
  br label %for.inc, !dbg !1960

for.inc:                                          ; preds = %for.body
  %26 = load i32, i32* %index, align 4, !dbg !1963
  %inc = add i32 %26, 1, !dbg !1963
  store i32 %inc, i32* %index, align 4, !dbg !1963
  br label %for.cond, !dbg !1964, !llvm.loop !1965

for.end:                                          ; preds = %for.cond
  %fElemList21 = getelementptr inbounds %"class.xercesc_2_7::BaseRefVectorOf", %"class.xercesc_2_7::BaseRefVectorOf"* %this1, i32 0, i32 4, !dbg !1967
  %27 = load %"class.xercesc_2_7::Token"**, %"class.xercesc_2_7::Token"*** %fElemList21, align 8, !dbg !1967
  %fCurCount22 = getelementptr inbounds %"class.xercesc_2_7::BaseRefVectorOf", %"class.xercesc_2_7::BaseRefVectorOf"* %this1, i32 0, i32 2, !dbg !1968
  %28 = load i32, i32* %fCurCount22, align 4, !dbg !1968
  %sub23 = sub i32 %28, 1, !dbg !1969
  %idxprom24 = zext i32 %sub23 to i64, !dbg !1967
  %arrayidx25 = getelementptr inbounds %"class.xercesc_2_7::Token"*, %"class.xercesc_2_7::Token"** %27, i64 %idxprom24, !dbg !1967
  store %"class.xercesc_2_7::Token"* null, %"class.xercesc_2_7::Token"** %arrayidx25, align 8, !dbg !1970
  %fCurCount26 = getelementptr inbounds %"class.xercesc_2_7::BaseRefVectorOf", %"class.xercesc_2_7::BaseRefVectorOf"* %this1, i32 0, i32 2, !dbg !1971
  %29 = load i32, i32* %fCurCount26, align 4, !dbg !1972
  %dec27 = add i32 %29, -1, !dbg !1972
  store i32 %dec27, i32* %fCurCount26, align 4, !dbg !1972
  br label %return, !dbg !1973

return:                                           ; preds = %for.end, %if.then6
  ret void, !dbg !1973

eh.resume:                                        ; preds = %lpad
  %exn = load i8*, i8** %exn.slot, align 8, !dbg !1925
  %sel = load i32, i32* %ehselector.slot, align 4, !dbg !1925
  %lpad.val = insertvalue { i8*, i32 } undef, i8* %exn, 0, !dbg !1925
  %lpad.val28 = insertvalue { i8*, i32 } %lpad.val, i32 %sel, 1, !dbg !1925
  resume { i8*, i32 } %lpad.val28, !dbg !1925
}

; Function Attrs: noinline nounwind uwtable
define linkonce_odr dso_local void @_ZN11xercesc_2_715BaseRefVectorOfINS_5TokenEE17removeLastElementEv(%"class.xercesc_2_7::BaseRefVectorOf"* %this) unnamed_addr #1 comdat align 2 !dbg !1974 {
entry:
  %this.addr = alloca %"class.xercesc_2_7::BaseRefVectorOf"*, align 8
  store %"class.xercesc_2_7::BaseRefVectorOf"* %this, %"class.xercesc_2_7::BaseRefVectorOf"** %this.addr, align 8
  call void @llvm.dbg.declare(metadata %"class.xercesc_2_7::BaseRefVectorOf"** %this.addr, metadata !1975, metadata !DIExpression()), !dbg !1976
  %this1 = load %"class.xercesc_2_7::BaseRefVectorOf"*, %"class.xercesc_2_7::BaseRefVectorOf"** %this.addr, align 8
  %fCurCount = getelementptr inbounds %"class.xercesc_2_7::BaseRefVectorOf", %"class.xercesc_2_7::BaseRefVectorOf"* %this1, i32 0, i32 2, !dbg !1977
  %0 = load i32, i32* %fCurCount, align 4, !dbg !1977
  %tobool = icmp ne i32 %0, 0, !dbg !1977
  br i1 %tobool, label %if.end, label %if.then, !dbg !1979

if.then:                                          ; preds = %entry
  br label %if.end6, !dbg !1980

if.end:                                           ; preds = %entry
  %fCurCount2 = getelementptr inbounds %"class.xercesc_2_7::BaseRefVectorOf", %"class.xercesc_2_7::BaseRefVectorOf"* %this1, i32 0, i32 2, !dbg !1981
  %1 = load i32, i32* %fCurCount2, align 4, !dbg !1982
  %dec = add i32 %1, -1, !dbg !1982
  store i32 %dec, i32* %fCurCount2, align 4, !dbg !1982
  %fAdoptedElems = getelementptr inbounds %"class.xercesc_2_7::BaseRefVectorOf", %"class.xercesc_2_7::BaseRefVectorOf"* %this1, i32 0, i32 1, !dbg !1983
  %2 = load i8, i8* %fAdoptedElems, align 8, !dbg !1983
  %tobool3 = trunc i8 %2 to i1, !dbg !1983
  br i1 %tobool3, label %if.then4, label %if.end6, !dbg !1985

if.then4:                                         ; preds = %if.end
  %fElemList = getelementptr inbounds %"class.xercesc_2_7::BaseRefVectorOf", %"class.xercesc_2_7::BaseRefVectorOf"* %this1, i32 0, i32 4, !dbg !1986
  %3 = load %"class.xercesc_2_7::Token"**, %"class.xercesc_2_7::Token"*** %fElemList, align 8, !dbg !1986
  %fCurCount5 = getelementptr inbounds %"class.xercesc_2_7::BaseRefVectorOf", %"class.xercesc_2_7::BaseRefVectorOf"* %this1, i32 0, i32 2, !dbg !1987
  %4 = load i32, i32* %fCurCount5, align 4, !dbg !1987
  %idxprom = zext i32 %4 to i64, !dbg !1986
  %arrayidx = getelementptr inbounds %"class.xercesc_2_7::Token"*, %"class.xercesc_2_7::Token"** %3, i64 %idxprom, !dbg !1986
  %5 = load %"class.xercesc_2_7::Token"*, %"class.xercesc_2_7::Token"** %arrayidx, align 8, !dbg !1986
  %isnull = icmp eq %"class.xercesc_2_7::Token"* %5, null, !dbg !1988
  br i1 %isnull, label %delete.end, label %delete.notnull, !dbg !1988

delete.notnull:                                   ; preds = %if.then4
  %6 = bitcast %"class.xercesc_2_7::Token"* %5 to void (%"class.xercesc_2_7::Token"*)***, !dbg !1988
  %vtable = load void (%"class.xercesc_2_7::Token"*)**, void (%"class.xercesc_2_7::Token"*)*** %6, align 8, !dbg !1988
  %vfn = getelementptr inbounds void (%"class.xercesc_2_7::Token"*)*, void (%"class.xercesc_2_7::Token"*)** %vtable, i64 1, !dbg !1988
  %7 = load void (%"class.xercesc_2_7::Token"*)*, void (%"class.xercesc_2_7::Token"*)** %vfn, align 8, !dbg !1988
  call void %7(%"class.xercesc_2_7::Token"* %5) #7, !dbg !1988
  br label %delete.end, !dbg !1988

delete.end:                                       ; preds = %delete.notnull, %if.then4
  br label %if.end6, !dbg !1988

if.end6:                                          ; preds = %if.then, %delete.end, %if.end
  ret void, !dbg !1989
}

; Function Attrs: noinline uwtable
define linkonce_odr dso_local void @_ZN11xercesc_2_715BaseRefVectorOfINS_5TokenEE7cleanupEv(%"class.xercesc_2_7::BaseRefVectorOf"* %this) unnamed_addr #3 comdat align 2 !dbg !1990 {
entry:
  %this.addr = alloca %"class.xercesc_2_7::BaseRefVectorOf"*, align 8
  %index = alloca i32, align 4
  store %"class.xercesc_2_7::BaseRefVectorOf"* %this, %"class.xercesc_2_7::BaseRefVectorOf"** %this.addr, align 8
  call void @llvm.dbg.declare(metadata %"class.xercesc_2_7::BaseRefVectorOf"** %this.addr, metadata !1991, metadata !DIExpression()), !dbg !1992
  %this1 = load %"class.xercesc_2_7::BaseRefVectorOf"*, %"class.xercesc_2_7::BaseRefVectorOf"** %this.addr, align 8
  %fAdoptedElems = getelementptr inbounds %"class.xercesc_2_7::BaseRefVectorOf", %"class.xercesc_2_7::BaseRefVectorOf"* %this1, i32 0, i32 1, !dbg !1993
  %0 = load i8, i8* %fAdoptedElems, align 8, !dbg !1993
  %tobool = trunc i8 %0 to i1, !dbg !1993
  br i1 %tobool, label %if.then, label %if.end, !dbg !1995

if.then:                                          ; preds = %entry
  call void @llvm.dbg.declare(metadata i32* %index, metadata !1996, metadata !DIExpression()), !dbg !1999
  store i32 0, i32* %index, align 4, !dbg !1999
  br label %for.cond, !dbg !2000

for.cond:                                         ; preds = %for.inc, %if.then
  %1 = load i32, i32* %index, align 4, !dbg !2001
  %fCurCount = getelementptr inbounds %"class.xercesc_2_7::BaseRefVectorOf", %"class.xercesc_2_7::BaseRefVectorOf"* %this1, i32 0, i32 2, !dbg !2003
  %2 = load i32, i32* %fCurCount, align 4, !dbg !2003
  %cmp = icmp ult i32 %1, %2, !dbg !2004
  br i1 %cmp, label %for.body, label %for.end, !dbg !2005

for.body:                                         ; preds = %for.cond
  %fElemList = getelementptr inbounds %"class.xercesc_2_7::BaseRefVectorOf", %"class.xercesc_2_7::BaseRefVectorOf"* %this1, i32 0, i32 4, !dbg !2006
  %3 = load %"class.xercesc_2_7::Token"**, %"class.xercesc_2_7::Token"*** %fElemList, align 8, !dbg !2006
  %4 = load i32, i32* %index, align 4, !dbg !2007
  %idxprom = zext i32 %4 to i64, !dbg !2006
  %arrayidx = getelementptr inbounds %"class.xercesc_2_7::Token"*, %"class.xercesc_2_7::Token"** %3, i64 %idxprom, !dbg !2006
  %5 = load %"class.xercesc_2_7::Token"*, %"class.xercesc_2_7::Token"** %arrayidx, align 8, !dbg !2006
  %isnull = icmp eq %"class.xercesc_2_7::Token"* %5, null, !dbg !2008
  br i1 %isnull, label %delete.end, label %delete.notnull, !dbg !2008

delete.notnull:                                   ; preds = %for.body
  %6 = bitcast %"class.xercesc_2_7::Token"* %5 to void (%"class.xercesc_2_7::Token"*)***, !dbg !2008
  %vtable = load void (%"class.xercesc_2_7::Token"*)**, void (%"class.xercesc_2_7::Token"*)*** %6, align 8, !dbg !2008
  %vfn = getelementptr inbounds void (%"class.xercesc_2_7::Token"*)*, void (%"class.xercesc_2_7::Token"*)** %vtable, i64 1, !dbg !2008
  %7 = load void (%"class.xercesc_2_7::Token"*)*, void (%"class.xercesc_2_7::Token"*)** %vfn, align 8, !dbg !2008
  call void %7(%"class.xercesc_2_7::Token"* %5) #7, !dbg !2008
  br label %delete.end, !dbg !2008

delete.end:                                       ; preds = %delete.notnull, %for.body
  br label %for.inc, !dbg !2008

for.inc:                                          ; preds = %delete.end
  %8 = load i32, i32* %index, align 4, !dbg !2009
  %inc = add i32 %8, 1, !dbg !2009
  store i32 %inc, i32* %index, align 4, !dbg !2009
  br label %for.cond, !dbg !2010, !llvm.loop !2011

for.end:                                          ; preds = %for.cond
  br label %if.end, !dbg !2013

if.end:                                           ; preds = %for.end, %entry
  %fMemoryManager = getelementptr inbounds %"class.xercesc_2_7::BaseRefVectorOf", %"class.xercesc_2_7::BaseRefVectorOf"* %this1, i32 0, i32 5, !dbg !2014
  %9 = load %"class.xercesc_2_7::MemoryManager"*, %"class.xercesc_2_7::MemoryManager"** %fMemoryManager, align 8, !dbg !2014
  %fElemList2 = getelementptr inbounds %"class.xercesc_2_7::BaseRefVectorOf", %"class.xercesc_2_7::BaseRefVectorOf"* %this1, i32 0, i32 4, !dbg !2015
  %10 = load %"class.xercesc_2_7::Token"**, %"class.xercesc_2_7::Token"*** %fElemList2, align 8, !dbg !2015
  %11 = bitcast %"class.xercesc_2_7::Token"** %10 to i8*, !dbg !2015
  %12 = bitcast %"class.xercesc_2_7::MemoryManager"* %9 to void (%"class.xercesc_2_7::MemoryManager"*, i8*)***, !dbg !2016
  %vtable3 = load void (%"class.xercesc_2_7::MemoryManager"*, i8*)**, void (%"class.xercesc_2_7::MemoryManager"*, i8*)*** %12, align 8, !dbg !2016
  %vfn4 = getelementptr inbounds void (%"class.xercesc_2_7::MemoryManager"*, i8*)*, void (%"class.xercesc_2_7::MemoryManager"*, i8*)** %vtable3, i64 3, !dbg !2016
  %13 = load void (%"class.xercesc_2_7::MemoryManager"*, i8*)*, void (%"class.xercesc_2_7::MemoryManager"*, i8*)** %vfn4, align 8, !dbg !2016
  call void %13(%"class.xercesc_2_7::MemoryManager"* %9, i8* %11), !dbg !2016
  ret void, !dbg !2017
}

; Function Attrs: noinline nounwind uwtable
define linkonce_odr dso_local void @_ZN11xercesc_2_715BaseRefVectorOfINS_5TokenEED2Ev(%"class.xercesc_2_7::BaseRefVectorOf"* %this) unnamed_addr #1 comdat align 2 !dbg !2018 {
entry:
  %this.addr = alloca %"class.xercesc_2_7::BaseRefVectorOf"*, align 8
  store %"class.xercesc_2_7::BaseRefVectorOf"* %this, %"class.xercesc_2_7::BaseRefVectorOf"** %this.addr, align 8
  call void @llvm.dbg.declare(metadata %"class.xercesc_2_7::BaseRefVectorOf"** %this.addr, metadata !2019, metadata !DIExpression()), !dbg !2020
  %this1 = load %"class.xercesc_2_7::BaseRefVectorOf"*, %"class.xercesc_2_7::BaseRefVectorOf"** %this.addr, align 8
  ret void, !dbg !2021
}

; Function Attrs: noinline nounwind uwtable
define linkonce_odr dso_local void @_ZN11xercesc_2_715BaseRefVectorOfINS_5TokenEED0Ev(%"class.xercesc_2_7::BaseRefVectorOf"* %this) unnamed_addr #1 comdat align 2 !dbg !2022 {
entry:
  %this.addr = alloca %"class.xercesc_2_7::BaseRefVectorOf"*, align 8
  store %"class.xercesc_2_7::BaseRefVectorOf"* %this, %"class.xercesc_2_7::BaseRefVectorOf"** %this.addr, align 8
  call void @llvm.dbg.declare(metadata %"class.xercesc_2_7::BaseRefVectorOf"** %this.addr, metadata !2023, metadata !DIExpression()), !dbg !2024
  %this1 = load %"class.xercesc_2_7::BaseRefVectorOf"*, %"class.xercesc_2_7::BaseRefVectorOf"** %this.addr, align 8
  call void @_ZN11xercesc_2_715BaseRefVectorOfINS_5TokenEED2Ev(%"class.xercesc_2_7::BaseRefVectorOf"* %this1) #7, !dbg !2025
  %0 = bitcast %"class.xercesc_2_7::BaseRefVectorOf"* %this1 to i8*, !dbg !2025
  call void @_ZN11xercesc_2_77XMemorydlEPv(i8* %0) #7, !dbg !2025
  ret void, !dbg !2026
}

; Function Attrs: nounwind
declare dso_local void @_ZN11xercesc_2_77XMemorydlEPv(i8*) #5

; Function Attrs: noinline noreturn nounwind
define linkonce_odr hidden void @__clang_call_terminate(i8* %0) #6 comdat {
  %2 = call i8* @__cxa_begin_catch(i8* %0) #7
  call void @_ZSt9terminatev() #9
  unreachable
}

declare dso_local i8* @__cxa_begin_catch(i8*)

declare dso_local void @_ZSt9terminatev()

declare dso_local i8* @__cxa_allocate_exception(i64)

; Function Attrs: noinline uwtable
define linkonce_odr dso_local void @_ZN11xercesc_2_730ArrayIndexOutOfBoundsExceptionC2EPKcjNS_10XMLExcepts5CodesEPNS_13MemoryManagerE(%"class.xercesc_2_7::ArrayIndexOutOfBoundsException"* %this, i8* %srcFile, i32 %srcLine, i32 %toThrow, %"class.xercesc_2_7::MemoryManager"* %memoryManager) unnamed_addr #3 comdat align 2 personality i8* bitcast (i32 (...)* @__gxx_personality_v0 to i8*) !dbg !2027 {
entry:
  %this.addr = alloca %"class.xercesc_2_7::ArrayIndexOutOfBoundsException"*, align 8
  %srcFile.addr = alloca i8*, align 8
  %srcLine.addr = alloca i32, align 4
  %toThrow.addr = alloca i32, align 4
  %memoryManager.addr = alloca %"class.xercesc_2_7::MemoryManager"*, align 8
  %exn.slot = alloca i8*
  %ehselector.slot = alloca i32
  store %"class.xercesc_2_7::ArrayIndexOutOfBoundsException"* %this, %"class.xercesc_2_7::ArrayIndexOutOfBoundsException"** %this.addr, align 8
  call void @llvm.dbg.declare(metadata %"class.xercesc_2_7::ArrayIndexOutOfBoundsException"** %this.addr, metadata !2067, metadata !DIExpression()), !dbg !2069
  store i8* %srcFile, i8** %srcFile.addr, align 8
  call void @llvm.dbg.declare(metadata i8** %srcFile.addr, metadata !2070, metadata !DIExpression()), !dbg !2071
  store i32 %srcLine, i32* %srcLine.addr, align 4
  call void @llvm.dbg.declare(metadata i32* %srcLine.addr, metadata !2072, metadata !DIExpression()), !dbg !2071
  store i32 %toThrow, i32* %toThrow.addr, align 4
  call void @llvm.dbg.declare(metadata i32* %toThrow.addr, metadata !2073, metadata !DIExpression()), !dbg !2071
  store %"class.xercesc_2_7::MemoryManager"* %memoryManager, %"class.xercesc_2_7::MemoryManager"** %memoryManager.addr, align 8
  call void @llvm.dbg.declare(metadata %"class.xercesc_2_7::MemoryManager"** %memoryManager.addr, metadata !2074, metadata !DIExpression()), !dbg !2071
  %this1 = load %"class.xercesc_2_7::ArrayIndexOutOfBoundsException"*, %"class.xercesc_2_7::ArrayIndexOutOfBoundsException"** %this.addr, align 8
  %0 = bitcast %"class.xercesc_2_7::ArrayIndexOutOfBoundsException"* %this1 to %"class.xercesc_2_7::XMLException"*, !dbg !2071
  %1 = load i8*, i8** %srcFile.addr, align 8, !dbg !2071
  %2 = load i32, i32* %srcLine.addr, align 4, !dbg !2071
  %3 = load %"class.xercesc_2_7::MemoryManager"*, %"class.xercesc_2_7::MemoryManager"** %memoryManager.addr, align 8, !dbg !2071
  call void @_ZN11xercesc_2_712XMLExceptionC2EPKcjPNS_13MemoryManagerE(%"class.xercesc_2_7::XMLException"* %0, i8* %1, i32 %2, %"class.xercesc_2_7::MemoryManager"* %3), !dbg !2071
  %4 = bitcast %"class.xercesc_2_7::ArrayIndexOutOfBoundsException"* %this1 to i32 (...)***, !dbg !2071
  store i32 (...)** bitcast (i8** getelementptr inbounds ({ [6 x i8*] }, { [6 x i8*] }* @_ZTVN11xercesc_2_730ArrayIndexOutOfBoundsExceptionE, i32 0, inrange i32 0, i32 2) to i32 (...)**), i32 (...)*** %4, align 8, !dbg !2071
  %5 = bitcast %"class.xercesc_2_7::ArrayIndexOutOfBoundsException"* %this1 to %"class.xercesc_2_7::XMLException"*, !dbg !2075
  %6 = load i32, i32* %toThrow.addr, align 4, !dbg !2075
  invoke void @_ZN11xercesc_2_712XMLException14loadExceptTextENS_10XMLExcepts5CodesE(%"class.xercesc_2_7::XMLException"* %5, i32 %6)
          to label %invoke.cont unwind label %lpad, !dbg !2075

invoke.cont:                                      ; preds = %entry
  ret void, !dbg !2071

lpad:                                             ; preds = %entry
  %7 = landingpad { i8*, i32 }
          cleanup, !dbg !2075
  %8 = extractvalue { i8*, i32 } %7, 0, !dbg !2075
  store i8* %8, i8** %exn.slot, align 8, !dbg !2075
  %9 = extractvalue { i8*, i32 } %7, 1, !dbg !2075
  store i32 %9, i32* %ehselector.slot, align 4, !dbg !2075
  %10 = bitcast %"class.xercesc_2_7::ArrayIndexOutOfBoundsException"* %this1 to %"class.xercesc_2_7::XMLException"*, !dbg !2075
  call void @_ZN11xercesc_2_712XMLExceptionD2Ev(%"class.xercesc_2_7::XMLException"* %10) #7, !dbg !2075
  br label %eh.resume, !dbg !2075

eh.resume:                                        ; preds = %lpad
  %exn = load i8*, i8** %exn.slot, align 8, !dbg !2075
  %sel = load i32, i32* %ehselector.slot, align 4, !dbg !2075
  %lpad.val = insertvalue { i8*, i32 } undef, i8* %exn, 0, !dbg !2075
  %lpad.val2 = insertvalue { i8*, i32 } %lpad.val, i32 %sel, 1, !dbg !2075
  resume { i8*, i32 } %lpad.val2, !dbg !2075
}

declare dso_local void @__cxa_free_exception(i8*)

; Function Attrs: noinline nounwind uwtable
define linkonce_odr dso_local void @_ZN11xercesc_2_730ArrayIndexOutOfBoundsExceptionD2Ev(%"class.xercesc_2_7::ArrayIndexOutOfBoundsException"* %this) unnamed_addr #1 comdat align 2 !dbg !2077 {
entry:
  %this.addr = alloca %"class.xercesc_2_7::ArrayIndexOutOfBoundsException"*, align 8
  store %"class.xercesc_2_7::ArrayIndexOutOfBoundsException"* %this, %"class.xercesc_2_7::ArrayIndexOutOfBoundsException"** %this.addr, align 8
  call void @llvm.dbg.declare(metadata %"class.xercesc_2_7::ArrayIndexOutOfBoundsException"** %this.addr, metadata !2078, metadata !DIExpression()), !dbg !2079
  %this1 = load %"class.xercesc_2_7::ArrayIndexOutOfBoundsException"*, %"class.xercesc_2_7::ArrayIndexOutOfBoundsException"** %this.addr, align 8
  %0 = bitcast %"class.xercesc_2_7::ArrayIndexOutOfBoundsException"* %this1 to %"class.xercesc_2_7::XMLException"*, !dbg !2080
  call void @_ZN11xercesc_2_712XMLExceptionD2Ev(%"class.xercesc_2_7::XMLException"* %0) #7, !dbg !2080
  ret void, !dbg !2082
}

declare dso_local void @__cxa_throw(i8*, i8*, i8*)

declare dso_local void @_ZN11xercesc_2_712XMLExceptionC2EPKcjPNS_13MemoryManagerE(%"class.xercesc_2_7::XMLException"*, i8*, i32, %"class.xercesc_2_7::MemoryManager"*) unnamed_addr #4

declare dso_local void @_ZN11xercesc_2_712XMLException14loadExceptTextENS_10XMLExcepts5CodesE(%"class.xercesc_2_7::XMLException"*, i32) #4

; Function Attrs: nounwind
declare dso_local void @_ZN11xercesc_2_712XMLExceptionD2Ev(%"class.xercesc_2_7::XMLException"*) unnamed_addr #5

; Function Attrs: noinline nounwind uwtable
define linkonce_odr dso_local void @_ZN11xercesc_2_730ArrayIndexOutOfBoundsExceptionD0Ev(%"class.xercesc_2_7::ArrayIndexOutOfBoundsException"* %this) unnamed_addr #1 comdat align 2 !dbg !2083 {
entry:
  %this.addr = alloca %"class.xercesc_2_7::ArrayIndexOutOfBoundsException"*, align 8
  store %"class.xercesc_2_7::ArrayIndexOutOfBoundsException"* %this, %"class.xercesc_2_7::ArrayIndexOutOfBoundsException"** %this.addr, align 8
  call void @llvm.dbg.declare(metadata %"class.xercesc_2_7::ArrayIndexOutOfBoundsException"** %this.addr, metadata !2084, metadata !DIExpression()), !dbg !2085
  %this1 = load %"class.xercesc_2_7::ArrayIndexOutOfBoundsException"*, %"class.xercesc_2_7::ArrayIndexOutOfBoundsException"** %this.addr, align 8
  call void @_ZN11xercesc_2_730ArrayIndexOutOfBoundsExceptionD2Ev(%"class.xercesc_2_7::ArrayIndexOutOfBoundsException"* %this1) #7, !dbg !2086
  %0 = bitcast %"class.xercesc_2_7::ArrayIndexOutOfBoundsException"* %this1 to i8*, !dbg !2086
  call void @_ZN11xercesc_2_77XMemorydlEPv(i8* %0) #7, !dbg !2086
  ret void, !dbg !2086
}

; Function Attrs: noinline nounwind uwtable
define linkonce_odr dso_local i16* @_ZNK11xercesc_2_730ArrayIndexOutOfBoundsException7getTypeEv(%"class.xercesc_2_7::ArrayIndexOutOfBoundsException"* %this) unnamed_addr #1 comdat align 2 !dbg !2087 {
entry:
  %this.addr = alloca %"class.xercesc_2_7::ArrayIndexOutOfBoundsException"*, align 8
  store %"class.xercesc_2_7::ArrayIndexOutOfBoundsException"* %this, %"class.xercesc_2_7::ArrayIndexOutOfBoundsException"** %this.addr, align 8
  call void @llvm.dbg.declare(metadata %"class.xercesc_2_7::ArrayIndexOutOfBoundsException"** %this.addr, metadata !2088, metadata !DIExpression()), !dbg !2090
  %this1 = load %"class.xercesc_2_7::ArrayIndexOutOfBoundsException"*, %"class.xercesc_2_7::ArrayIndexOutOfBoundsException"** %this.addr, align 8
  ret i16* getelementptr inbounds ([0 x i16], [0 x i16]* @_ZN11xercesc_2_76XMLUni37fgArrayIndexOutOfBoundsException_NameE, i64 0, i64 0), !dbg !2091
}

; Function Attrs: noinline uwtable
define linkonce_odr dso_local %"class.xercesc_2_7::XMLException"* @_ZNK11xercesc_2_730ArrayIndexOutOfBoundsException9duplicateEv(%"class.xercesc_2_7::ArrayIndexOutOfBoundsException"* %this) unnamed_addr #3 comdat align 2 personality i8* bitcast (i32 (...)* @__gxx_personality_v0 to i8*) !dbg !2092 {
entry:
  %this.addr = alloca %"class.xercesc_2_7::ArrayIndexOutOfBoundsException"*, align 8
  %exn.slot = alloca i8*
  %ehselector.slot = alloca i32
  store %"class.xercesc_2_7::ArrayIndexOutOfBoundsException"* %this, %"class.xercesc_2_7::ArrayIndexOutOfBoundsException"** %this.addr, align 8
  call void @llvm.dbg.declare(metadata %"class.xercesc_2_7::ArrayIndexOutOfBoundsException"** %this.addr, metadata !2093, metadata !DIExpression()), !dbg !2094
  %this1 = load %"class.xercesc_2_7::ArrayIndexOutOfBoundsException"*, %"class.xercesc_2_7::ArrayIndexOutOfBoundsException"** %this.addr, align 8
  %0 = bitcast %"class.xercesc_2_7::ArrayIndexOutOfBoundsException"* %this1 to %"class.xercesc_2_7::XMLException"*, !dbg !2095
  %fMemoryManager = getelementptr inbounds %"class.xercesc_2_7::XMLException", %"class.xercesc_2_7::XMLException"* %0, i32 0, i32 5, !dbg !2095
  %1 = load %"class.xercesc_2_7::MemoryManager"*, %"class.xercesc_2_7::MemoryManager"** %fMemoryManager, align 8, !dbg !2095
  %call = call i8* @_ZN11xercesc_2_77XMemorynwEmPNS_13MemoryManagerE(i64 48, %"class.xercesc_2_7::MemoryManager"* %1), !dbg !2095
  %2 = bitcast i8* %call to %"class.xercesc_2_7::ArrayIndexOutOfBoundsException"*, !dbg !2095
  invoke void @_ZN11xercesc_2_730ArrayIndexOutOfBoundsExceptionC2ERKS0_(%"class.xercesc_2_7::ArrayIndexOutOfBoundsException"* %2, %"class.xercesc_2_7::ArrayIndexOutOfBoundsException"* dereferenceable(48) %this1)
          to label %invoke.cont unwind label %lpad, !dbg !2095

invoke.cont:                                      ; preds = %entry
  %3 = bitcast %"class.xercesc_2_7::ArrayIndexOutOfBoundsException"* %2 to %"class.xercesc_2_7::XMLException"*, !dbg !2095
  ret %"class.xercesc_2_7::XMLException"* %3, !dbg !2095

lpad:                                             ; preds = %entry
  %4 = landingpad { i8*, i32 }
          cleanup, !dbg !2095
  %5 = extractvalue { i8*, i32 } %4, 0, !dbg !2095
  store i8* %5, i8** %exn.slot, align 8, !dbg !2095
  %6 = extractvalue { i8*, i32 } %4, 1, !dbg !2095
  store i32 %6, i32* %ehselector.slot, align 4, !dbg !2095
  call void @_ZN11xercesc_2_77XMemorydlEPvPNS_13MemoryManagerE(i8* %call, %"class.xercesc_2_7::MemoryManager"* %1) #7, !dbg !2095
  br label %eh.resume, !dbg !2095

eh.resume:                                        ; preds = %lpad
  %exn = load i8*, i8** %exn.slot, align 8, !dbg !2095
  %sel = load i32, i32* %ehselector.slot, align 4, !dbg !2095
  %lpad.val = insertvalue { i8*, i32 } undef, i8* %exn, 0, !dbg !2095
  %lpad.val2 = insertvalue { i8*, i32 } %lpad.val, i32 %sel, 1, !dbg !2095
  resume { i8*, i32 } %lpad.val2, !dbg !2095
}

; Function Attrs: noinline uwtable
define linkonce_odr dso_local void @_ZN11xercesc_2_730ArrayIndexOutOfBoundsExceptionC2ERKS0_(%"class.xercesc_2_7::ArrayIndexOutOfBoundsException"* %this, %"class.xercesc_2_7::ArrayIndexOutOfBoundsException"* dereferenceable(48) %toCopy) unnamed_addr #3 comdat align 2 !dbg !2096 {
entry:
  %this.addr = alloca %"class.xercesc_2_7::ArrayIndexOutOfBoundsException"*, align 8
  %toCopy.addr = alloca %"class.xercesc_2_7::ArrayIndexOutOfBoundsException"*, align 8
  store %"class.xercesc_2_7::ArrayIndexOutOfBoundsException"* %this, %"class.xercesc_2_7::ArrayIndexOutOfBoundsException"** %this.addr, align 8
  call void @llvm.dbg.declare(metadata %"class.xercesc_2_7::ArrayIndexOutOfBoundsException"** %this.addr, metadata !2097, metadata !DIExpression()), !dbg !2098
  store %"class.xercesc_2_7::ArrayIndexOutOfBoundsException"* %toCopy, %"class.xercesc_2_7::ArrayIndexOutOfBoundsException"** %toCopy.addr, align 8
  call void @llvm.dbg.declare(metadata %"class.xercesc_2_7::ArrayIndexOutOfBoundsException"** %toCopy.addr, metadata !2099, metadata !DIExpression()), !dbg !2100
  %this1 = load %"class.xercesc_2_7::ArrayIndexOutOfBoundsException"*, %"class.xercesc_2_7::ArrayIndexOutOfBoundsException"** %this.addr, align 8
  %0 = bitcast %"class.xercesc_2_7::ArrayIndexOutOfBoundsException"* %this1 to %"class.xercesc_2_7::XMLException"*, !dbg !2100
  %1 = load %"class.xercesc_2_7::ArrayIndexOutOfBoundsException"*, %"class.xercesc_2_7::ArrayIndexOutOfBoundsException"** %toCopy.addr, align 8, !dbg !2100
  %2 = bitcast %"class.xercesc_2_7::ArrayIndexOutOfBoundsException"* %1 to %"class.xercesc_2_7::XMLException"*, !dbg !2100
  call void @_ZN11xercesc_2_712XMLExceptionC2ERKS0_(%"class.xercesc_2_7::XMLException"* %0, %"class.xercesc_2_7::XMLException"* dereferenceable(48) %2), !dbg !2100
  %3 = bitcast %"class.xercesc_2_7::ArrayIndexOutOfBoundsException"* %this1 to i32 (...)***, !dbg !2100
  store i32 (...)** bitcast (i8** getelementptr inbounds ({ [6 x i8*] }, { [6 x i8*] }* @_ZTVN11xercesc_2_730ArrayIndexOutOfBoundsExceptionE, i32 0, inrange i32 0, i32 2) to i32 (...)**), i32 (...)*** %3, align 8, !dbg !2100
  ret void, !dbg !2100
}

declare dso_local void @_ZN11xercesc_2_712XMLExceptionC2ERKS0_(%"class.xercesc_2_7::XMLException"*, %"class.xercesc_2_7::XMLException"* dereferenceable(48)) unnamed_addr #4

; Function Attrs: noinline uwtable
define linkonce_odr dso_local void @_ZN11xercesc_2_715BaseRefVectorOfINS_5TokenEE19ensureExtraCapacityEj(%"class.xercesc_2_7::BaseRefVectorOf"* %this, i32 %length) #3 comdat align 2 !dbg !2101 {
entry:
  %this.addr = alloca %"class.xercesc_2_7::BaseRefVectorOf"*, align 8
  %length.addr = alloca i32, align 4
  %newMax = alloca i32, align 4
  %newList = alloca %"class.xercesc_2_7::Token"**, align 8
  %index = alloca i32, align 4
  store %"class.xercesc_2_7::BaseRefVectorOf"* %this, %"class.xercesc_2_7::BaseRefVectorOf"** %this.addr, align 8
  call void @llvm.dbg.declare(metadata %"class.xercesc_2_7::BaseRefVectorOf"** %this.addr, metadata !2102, metadata !DIExpression()), !dbg !2103
  store i32 %length, i32* %length.addr, align 4
  call void @llvm.dbg.declare(metadata i32* %length.addr, metadata !2104, metadata !DIExpression()), !dbg !2105
  %this1 = load %"class.xercesc_2_7::BaseRefVectorOf"*, %"class.xercesc_2_7::BaseRefVectorOf"** %this.addr, align 8
  call void @llvm.dbg.declare(metadata i32* %newMax, metadata !2106, metadata !DIExpression()), !dbg !2107
  %fCurCount = getelementptr inbounds %"class.xercesc_2_7::BaseRefVectorOf", %"class.xercesc_2_7::BaseRefVectorOf"* %this1, i32 0, i32 2, !dbg !2108
  %0 = load i32, i32* %fCurCount, align 4, !dbg !2108
  %1 = load i32, i32* %length.addr, align 4, !dbg !2109
  %add = add i32 %0, %1, !dbg !2110
  store i32 %add, i32* %newMax, align 4, !dbg !2107
  %2 = load i32, i32* %newMax, align 4, !dbg !2111
  %fMaxCount = getelementptr inbounds %"class.xercesc_2_7::BaseRefVectorOf", %"class.xercesc_2_7::BaseRefVectorOf"* %this1, i32 0, i32 3, !dbg !2113
  %3 = load i32, i32* %fMaxCount, align 8, !dbg !2113
  %cmp = icmp ule i32 %2, %3, !dbg !2114
  br i1 %cmp, label %if.then, label %if.end, !dbg !2115

if.then:                                          ; preds = %entry
  br label %return, !dbg !2116

if.end:                                           ; preds = %entry
  %4 = load i32, i32* %newMax, align 4, !dbg !2117
  %fMaxCount2 = getelementptr inbounds %"class.xercesc_2_7::BaseRefVectorOf", %"class.xercesc_2_7::BaseRefVectorOf"* %this1, i32 0, i32 3, !dbg !2119
  %5 = load i32, i32* %fMaxCount2, align 8, !dbg !2119
  %fMaxCount3 = getelementptr inbounds %"class.xercesc_2_7::BaseRefVectorOf", %"class.xercesc_2_7::BaseRefVectorOf"* %this1, i32 0, i32 3, !dbg !2120
  %6 = load i32, i32* %fMaxCount3, align 8, !dbg !2120
  %div = udiv i32 %6, 2, !dbg !2121
  %add4 = add i32 %5, %div, !dbg !2122
  %cmp5 = icmp ult i32 %4, %add4, !dbg !2123
  br i1 %cmp5, label %if.then6, label %if.end11, !dbg !2124

if.then6:                                         ; preds = %if.end
  %fMaxCount7 = getelementptr inbounds %"class.xercesc_2_7::BaseRefVectorOf", %"class.xercesc_2_7::BaseRefVectorOf"* %this1, i32 0, i32 3, !dbg !2125
  %7 = load i32, i32* %fMaxCount7, align 8, !dbg !2125
  %fMaxCount8 = getelementptr inbounds %"class.xercesc_2_7::BaseRefVectorOf", %"class.xercesc_2_7::BaseRefVectorOf"* %this1, i32 0, i32 3, !dbg !2126
  %8 = load i32, i32* %fMaxCount8, align 8, !dbg !2126
  %div9 = udiv i32 %8, 2, !dbg !2127
  %add10 = add i32 %7, %div9, !dbg !2128
  store i32 %add10, i32* %newMax, align 4, !dbg !2129
  br label %if.end11, !dbg !2130

if.end11:                                         ; preds = %if.then6, %if.end
  call void @llvm.dbg.declare(metadata %"class.xercesc_2_7::Token"*** %newList, metadata !2131, metadata !DIExpression()), !dbg !2132
  %fMemoryManager = getelementptr inbounds %"class.xercesc_2_7::BaseRefVectorOf", %"class.xercesc_2_7::BaseRefVectorOf"* %this1, i32 0, i32 5, !dbg !2133
  %9 = load %"class.xercesc_2_7::MemoryManager"*, %"class.xercesc_2_7::MemoryManager"** %fMemoryManager, align 8, !dbg !2133
  %10 = load i32, i32* %newMax, align 4, !dbg !2134
  %conv = zext i32 %10 to i64, !dbg !2134
  %mul = mul i64 %conv, 8, !dbg !2135
  %11 = bitcast %"class.xercesc_2_7::MemoryManager"* %9 to i8* (%"class.xercesc_2_7::MemoryManager"*, i64)***, !dbg !2136
  %vtable = load i8* (%"class.xercesc_2_7::MemoryManager"*, i64)**, i8* (%"class.xercesc_2_7::MemoryManager"*, i64)*** %11, align 8, !dbg !2136
  %vfn = getelementptr inbounds i8* (%"class.xercesc_2_7::MemoryManager"*, i64)*, i8* (%"class.xercesc_2_7::MemoryManager"*, i64)** %vtable, i64 2, !dbg !2136
  %12 = load i8* (%"class.xercesc_2_7::MemoryManager"*, i64)*, i8* (%"class.xercesc_2_7::MemoryManager"*, i64)** %vfn, align 8, !dbg !2136
  %call = call i8* %12(%"class.xercesc_2_7::MemoryManager"* %9, i64 %mul), !dbg !2136
  %13 = bitcast i8* %call to %"class.xercesc_2_7::Token"**, !dbg !2137
  store %"class.xercesc_2_7::Token"** %13, %"class.xercesc_2_7::Token"*** %newList, align 8, !dbg !2132
  call void @llvm.dbg.declare(metadata i32* %index, metadata !2138, metadata !DIExpression()), !dbg !2139
  store i32 0, i32* %index, align 4, !dbg !2139
  br label %for.cond, !dbg !2140

for.cond:                                         ; preds = %for.inc, %if.end11
  %14 = load i32, i32* %index, align 4, !dbg !2141
  %fCurCount12 = getelementptr inbounds %"class.xercesc_2_7::BaseRefVectorOf", %"class.xercesc_2_7::BaseRefVectorOf"* %this1, i32 0, i32 2, !dbg !2144
  %15 = load i32, i32* %fCurCount12, align 4, !dbg !2144
  %cmp13 = icmp ult i32 %14, %15, !dbg !2145
  br i1 %cmp13, label %for.body, label %for.end, !dbg !2146

for.body:                                         ; preds = %for.cond
  %fElemList = getelementptr inbounds %"class.xercesc_2_7::BaseRefVectorOf", %"class.xercesc_2_7::BaseRefVectorOf"* %this1, i32 0, i32 4, !dbg !2147
  %16 = load %"class.xercesc_2_7::Token"**, %"class.xercesc_2_7::Token"*** %fElemList, align 8, !dbg !2147
  %17 = load i32, i32* %index, align 4, !dbg !2148
  %idxprom = zext i32 %17 to i64, !dbg !2147
  %arrayidx = getelementptr inbounds %"class.xercesc_2_7::Token"*, %"class.xercesc_2_7::Token"** %16, i64 %idxprom, !dbg !2147
  %18 = load %"class.xercesc_2_7::Token"*, %"class.xercesc_2_7::Token"** %arrayidx, align 8, !dbg !2147
  %19 = load %"class.xercesc_2_7::Token"**, %"class.xercesc_2_7::Token"*** %newList, align 8, !dbg !2149
  %20 = load i32, i32* %index, align 4, !dbg !2150
  %idxprom14 = zext i32 %20 to i64, !dbg !2149
  %arrayidx15 = getelementptr inbounds %"class.xercesc_2_7::Token"*, %"class.xercesc_2_7::Token"** %19, i64 %idxprom14, !dbg !2149
  store %"class.xercesc_2_7::Token"* %18, %"class.xercesc_2_7::Token"** %arrayidx15, align 8, !dbg !2151
  br label %for.inc, !dbg !2149

for.inc:                                          ; preds = %for.body
  %21 = load i32, i32* %index, align 4, !dbg !2152
  %inc = add i32 %21, 1, !dbg !2152
  store i32 %inc, i32* %index, align 4, !dbg !2152
  br label %for.cond, !dbg !2153, !llvm.loop !2154

for.end:                                          ; preds = %for.cond
  br label %for.cond16, !dbg !2156

for.cond16:                                       ; preds = %for.inc21, %for.end
  %22 = load i32, i32* %index, align 4, !dbg !2157
  %23 = load i32, i32* %newMax, align 4, !dbg !2160
  %cmp17 = icmp ult i32 %22, %23, !dbg !2161
  br i1 %cmp17, label %for.body18, label %for.end23, !dbg !2162

for.body18:                                       ; preds = %for.cond16
  %24 = load %"class.xercesc_2_7::Token"**, %"class.xercesc_2_7::Token"*** %newList, align 8, !dbg !2163
  %25 = load i32, i32* %index, align 4, !dbg !2164
  %idxprom19 = zext i32 %25 to i64, !dbg !2163
  %arrayidx20 = getelementptr inbounds %"class.xercesc_2_7::Token"*, %"class.xercesc_2_7::Token"** %24, i64 %idxprom19, !dbg !2163
  store %"class.xercesc_2_7::Token"* null, %"class.xercesc_2_7::Token"** %arrayidx20, align 8, !dbg !2165
  br label %for.inc21, !dbg !2163

for.inc21:                                        ; preds = %for.body18
  %26 = load i32, i32* %index, align 4, !dbg !2166
  %inc22 = add i32 %26, 1, !dbg !2166
  store i32 %inc22, i32* %index, align 4, !dbg !2166
  br label %for.cond16, !dbg !2167, !llvm.loop !2168

for.end23:                                        ; preds = %for.cond16
  %fMemoryManager24 = getelementptr inbounds %"class.xercesc_2_7::BaseRefVectorOf", %"class.xercesc_2_7::BaseRefVectorOf"* %this1, i32 0, i32 5, !dbg !2170
  %27 = load %"class.xercesc_2_7::MemoryManager"*, %"class.xercesc_2_7::MemoryManager"** %fMemoryManager24, align 8, !dbg !2170
  %fElemList25 = getelementptr inbounds %"class.xercesc_2_7::BaseRefVectorOf", %"class.xercesc_2_7::BaseRefVectorOf"* %this1, i32 0, i32 4, !dbg !2171
  %28 = load %"class.xercesc_2_7::Token"**, %"class.xercesc_2_7::Token"*** %fElemList25, align 8, !dbg !2171
  %29 = bitcast %"class.xercesc_2_7::Token"** %28 to i8*, !dbg !2171
  %30 = bitcast %"class.xercesc_2_7::MemoryManager"* %27 to void (%"class.xercesc_2_7::MemoryManager"*, i8*)***, !dbg !2172
  %vtable26 = load void (%"class.xercesc_2_7::MemoryManager"*, i8*)**, void (%"class.xercesc_2_7::MemoryManager"*, i8*)*** %30, align 8, !dbg !2172
  %vfn27 = getelementptr inbounds void (%"class.xercesc_2_7::MemoryManager"*, i8*)*, void (%"class.xercesc_2_7::MemoryManager"*, i8*)** %vtable26, i64 3, !dbg !2172
  %31 = load void (%"class.xercesc_2_7::MemoryManager"*, i8*)*, void (%"class.xercesc_2_7::MemoryManager"*, i8*)** %vfn27, align 8, !dbg !2172
  call void %31(%"class.xercesc_2_7::MemoryManager"* %27, i8* %29), !dbg !2172
  %32 = load %"class.xercesc_2_7::Token"**, %"class.xercesc_2_7::Token"*** %newList, align 8, !dbg !2173
  %fElemList28 = getelementptr inbounds %"class.xercesc_2_7::BaseRefVectorOf", %"class.xercesc_2_7::BaseRefVectorOf"* %this1, i32 0, i32 4, !dbg !2174
  store %"class.xercesc_2_7::Token"** %32, %"class.xercesc_2_7::Token"*** %fElemList28, align 8, !dbg !2175
  %33 = load i32, i32* %newMax, align 4, !dbg !2176
  %fMaxCount29 = getelementptr inbounds %"class.xercesc_2_7::BaseRefVectorOf", %"class.xercesc_2_7::BaseRefVectorOf"* %this1, i32 0, i32 3, !dbg !2177
  store i32 %33, i32* %fMaxCount29, align 8, !dbg !2178
  br label %return, !dbg !2179

return:                                           ; preds = %for.end23, %if.then
  ret void, !dbg !2179
}

attributes #0 = { nounwind readnone speculatable willreturn }
attributes #1 = { noinline nounwind uwtable "correctly-rounded-divide-sqrt-fp-math"="false" "disable-tail-calls"="false" "frame-pointer"="all" "less-precise-fpmad"="false" "min-legal-vector-width"="0" "no-infs-fp-math"="false" "no-jump-tables"="false" "no-nans-fp-math"="false" "no-signed-zeros-fp-math"="false" "no-trapping-math"="false" "stack-protector-buffer-size"="8" "target-cpu"="x86-64" "target-features"="+cx8,+fxsr,+mmx,+sse,+sse2,+x87" "unsafe-fp-math"="false" "use-soft-float"="false" }
attributes #2 = { nobuiltin nounwind "correctly-rounded-divide-sqrt-fp-math"="false" "disable-tail-calls"="false" "frame-pointer"="all" "less-precise-fpmad"="false" "no-infs-fp-math"="false" "no-nans-fp-math"="false" "no-signed-zeros-fp-math"="false" "no-trapping-math"="false" "stack-protector-buffer-size"="8" "target-cpu"="x86-64" "target-features"="+cx8,+fxsr,+mmx,+sse,+sse2,+x87" "unsafe-fp-math"="false" "use-soft-float"="false" }
attributes #3 = { noinline uwtable "correctly-rounded-divide-sqrt-fp-math"="false" "disable-tail-calls"="false" "frame-pointer"="all" "less-precise-fpmad"="false" "min-legal-vector-width"="0" "no-infs-fp-math"="false" "no-jump-tables"="false" "no-nans-fp-math"="false" "no-signed-zeros-fp-math"="false" "no-trapping-math"="false" "stack-protector-buffer-size"="8" "target-cpu"="x86-64" "target-features"="+cx8,+fxsr,+mmx,+sse,+sse2,+x87" "unsafe-fp-math"="false" "use-soft-float"="false" }
attributes #4 = { "correctly-rounded-divide-sqrt-fp-math"="false" "disable-tail-calls"="false" "frame-pointer"="all" "less-precise-fpmad"="false" "no-infs-fp-math"="false" "no-nans-fp-math"="false" "no-signed-zeros-fp-math"="false" "no-trapping-math"="false" "stack-protector-buffer-size"="8" "target-cpu"="x86-64" "target-features"="+cx8,+fxsr,+mmx,+sse,+sse2,+x87" "unsafe-fp-math"="false" "use-soft-float"="false" }
attributes #5 = { nounwind "correctly-rounded-divide-sqrt-fp-math"="false" "disable-tail-calls"="false" "frame-pointer"="all" "less-precise-fpmad"="false" "no-infs-fp-math"="false" "no-nans-fp-math"="false" "no-signed-zeros-fp-math"="false" "no-trapping-math"="false" "stack-protector-buffer-size"="8" "target-cpu"="x86-64" "target-features"="+cx8,+fxsr,+mmx,+sse,+sse2,+x87" "unsafe-fp-math"="false" "use-soft-float"="false" }
attributes #6 = { noinline noreturn nounwind }
attributes #7 = { nounwind }
attributes #8 = { builtin nounwind }
attributes #9 = { noreturn nounwind }
attributes #10 = { noreturn }

!llvm.dbg.cu = !{!20}
!llvm.module.flags = !{!875, !876, !877}
!llvm.ident = !{!878}

!0 = !DIGlobalVariableExpression(var: !1, expr: !DIExpression())
!1 = distinct !DIGlobalVariable(name: "fgUniMark", linkageName: "_ZN11xercesc_2_7L9fgUniMarkE", scope: !2, file: !3, line: 206, type: !4, isLocal: true, isDefinition: true)
!2 = !DINamespace(name: "xercesc_2_7", scope: null)
!3 = !DIFile(filename: "./xercesc/util/regx/RegxDefs.hpp", directory: "/home/venkat/IF-DV/spec_build_release/CPU_2017/benchspec/CPU/523.xalancbmk_r/build/build_base_ld-loop-ext-m64.0000")
!4 = !DICompositeType(tag: DW_TAG_array_type, baseType: !5, size: 32, elements: !9)
!5 = !DIDerivedType(tag: DW_TAG_const_type, baseType: !6)
!6 = !DIDerivedType(tag: DW_TAG_typedef, name: "XMLCh", file: !7, line: 67, baseType: !8)
!7 = !DIFile(filename: "./xercesc/util/Compilers/GCCDefs.hpp", directory: "/home/venkat/IF-DV/spec_build_release/CPU_2017/benchspec/CPU/523.xalancbmk_r/build/build_base_ld-loop-ext-m64.0000")
!8 = !DIBasicType(name: "unsigned short", size: 16, encoding: DW_ATE_unsigned)
!9 = !{!10}
!10 = !DISubrange(count: 2)
!11 = !DIGlobalVariableExpression(var: !12, expr: !DIExpression())
!12 = distinct !DIGlobalVariable(name: "fgUniAssigned", linkageName: "_ZN11xercesc_2_7L13fgUniAssignedE", scope: !2, file: !3, line: 172, type: !13, isLocal: true, isDefinition: true)
!13 = !DICompositeType(tag: DW_TAG_array_type, baseType: !5, size: 144, elements: !14)
!14 = !{!15}
!15 = !DISubrange(count: 9)
!16 = !DIGlobalVariableExpression(var: !17, expr: !DIExpression())
!17 = distinct !DIGlobalVariable(name: "fgUniControl", linkageName: "_ZN11xercesc_2_7L12fgUniControlE", scope: !2, file: !3, line: 221, type: !4, isLocal: true, isDefinition: true)
!18 = !DIGlobalVariableExpression(var: !19, expr: !DIExpression())
!19 = distinct !DIGlobalVariable(name: "fgUniLetter", linkageName: "_ZN11xercesc_2_7L11fgUniLetterE", scope: !2, file: !3, line: 196, type: !4, isLocal: true, isDefinition: true)
!20 = distinct !DICompileUnit(language: DW_LANG_C_plus_plus_14, file: !21, producer: "clang version 10.0.1 (https://github.com/svkeerthy/IR2Vec-LoopOptimizationFramework.git 561ac470e63b728263a0ac06ef987886ac648486)", isOptimized: false, runtimeVersion: 0, emissionKind: FullDebug, enums: !22, retainedTypes: !461, globals: !464, imports: !486, splitDebugInlining: false, nameTableKind: None)
!21 = !DIFile(filename: "TokenFactory.cpp", directory: "/home/venkat/IF-DV/spec_build_release/CPU_2017/benchspec/CPU/523.xalancbmk_r/build/build_base_ld-loop-ext-m64.0000")
!22 = !{!23, !48}
!23 = !DICompositeType(tag: DW_TAG_enumeration_type, scope: !25, file: !24, line: 54, baseType: !26, size: 32, elements: !27, identifier: "_ZTSN11xercesc_2_75TokenUt_E")
!24 = !DIFile(filename: "./xercesc/util/regx/Token.hpp", directory: "/home/venkat/IF-DV/spec_build_release/CPU_2017/benchspec/CPU/523.xalancbmk_r/build/build_base_ld-loop-ext-m64.0000")
!25 = !DICompositeType(tag: DW_TAG_class_type, name: "Token", scope: !2, file: !24, line: 39, flags: DIFlagFwdDecl)
!26 = !DIBasicType(name: "unsigned int", size: 32, encoding: DW_ATE_unsigned)
!27 = !{!28, !29, !30, !31, !32, !33, !34, !35, !36, !37, !38, !39, !40, !41, !42, !43, !44, !45, !46, !47}
!28 = !DIEnumerator(name: "T_CHAR", value: 0, isUnsigned: true)
!29 = !DIEnumerator(name: "T_CONCAT", value: 1, isUnsigned: true)
!30 = !DIEnumerator(name: "T_UNION", value: 2, isUnsigned: true)
!31 = !DIEnumerator(name: "T_CLOSURE", value: 3, isUnsigned: true)
!32 = !DIEnumerator(name: "T_RANGE", value: 4, isUnsigned: true)
!33 = !DIEnumerator(name: "T_NRANGE", value: 5, isUnsigned: true)
!34 = !DIEnumerator(name: "T_PAREN", value: 6, isUnsigned: true)
!35 = !DIEnumerator(name: "T_EMPTY", value: 7, isUnsigned: true)
!36 = !DIEnumerator(name: "T_ANCHOR", value: 8, isUnsigned: true)
!37 = !DIEnumerator(name: "T_NONGREEDYCLOSURE", value: 9, isUnsigned: true)
!38 = !DIEnumerator(name: "T_STRING", value: 10, isUnsigned: true)
!39 = !DIEnumerator(name: "T_DOT", value: 11, isUnsigned: true)
!40 = !DIEnumerator(name: "T_BACKREFERENCE", value: 12, isUnsigned: true)
!41 = !DIEnumerator(name: "T_LOOKAHEAD", value: 20, isUnsigned: true)
!42 = !DIEnumerator(name: "T_NEGATIVELOOKAHEAD", value: 21, isUnsigned: true)
!43 = !DIEnumerator(name: "T_LOOKBEHIND", value: 22, isUnsigned: true)
!44 = !DIEnumerator(name: "T_NEGATIVELOOKBEHIND", value: 23, isUnsigned: true)
!45 = !DIEnumerator(name: "T_INDEPENDENT", value: 24, isUnsigned: true)
!46 = !DIEnumerator(name: "T_MODIFIERGROUP", value: 25, isUnsigned: true)
!47 = !DIEnumerator(name: "T_CONDITION", value: 26, isUnsigned: true)
!48 = !DICompositeType(tag: DW_TAG_enumeration_type, name: "Codes", scope: !50, file: !49, line: 14, baseType: !26, size: 32, elements: !56, identifier: "_ZTSN11xercesc_2_710XMLExcepts5CodesE")
!49 = !DIFile(filename: "./xercesc/util/XMLExceptMsgs.hpp", directory: "/home/venkat/IF-DV/spec_build_release/CPU_2017/benchspec/CPU/523.xalancbmk_r/build/build_base_ld-loop-ext-m64.0000")
!50 = distinct !DICompositeType(tag: DW_TAG_class_type, name: "XMLExcepts", scope: !2, file: !49, line: 11, size: 8, flags: DIFlagTypePassByValue | DIFlagNonTrivial, elements: !51, identifier: "_ZTSN11xercesc_2_710XMLExceptsE")
!51 = !{!52}
!52 = !DISubprogram(name: "XMLExcepts", scope: !50, file: !49, line: 427, type: !53, scopeLine: 427, flags: DIFlagPrototyped, spFlags: 0)
!53 = !DISubroutineType(types: !54)
!54 = !{null, !55}
!55 = !DIDerivedType(tag: DW_TAG_pointer_type, baseType: !50, size: 64, flags: DIFlagArtificial | DIFlagObjectPointer)
!56 = !{!57, !58, !59, !60, !61, !62, !63, !64, !65, !66, !67, !68, !69, !70, !71, !72, !73, !74, !75, !76, !77, !78, !79, !80, !81, !82, !83, !84, !85, !86, !87, !88, !89, !90, !91, !92, !93, !94, !95, !96, !97, !98, !99, !100, !101, !102, !103, !104, !105, !106, !107, !108, !109, !110, !111, !112, !113, !114, !115, !116, !117, !118, !119, !120, !121, !122, !123, !124, !125, !126, !127, !128, !129, !130, !131, !132, !133, !134, !135, !136, !137, !138, !139, !140, !141, !142, !143, !144, !145, !146, !147, !148, !149, !150, !151, !152, !153, !154, !155, !156, !157, !158, !159, !160, !161, !162, !163, !164, !165, !166, !167, !168, !169, !170, !171, !172, !173, !174, !175, !176, !177, !178, !179, !180, !181, !182, !183, !184, !185, !186, !187, !188, !189, !190, !191, !192, !193, !194, !195, !196, !197, !198, !199, !200, !201, !202, !203, !204, !205, !206, !207, !208, !209, !210, !211, !212, !213, !214, !215, !216, !217, !218, !219, !220, !221, !222, !223, !224, !225, !226, !227, !228, !229, !230, !231, !232, !233, !234, !235, !236, !237, !238, !239, !240, !241, !242, !243, !244, !245, !246, !247, !248, !249, !250, !251, !252, !253, !254, !255, !256, !257, !258, !259, !260, !261, !262, !263, !264, !265, !266, !267, !268, !269, !270, !271, !272, !273, !274, !275, !276, !277, !278, !279, !280, !281, !282, !283, !284, !285, !286, !287, !288, !289, !290, !291, !292, !293, !294, !295, !296, !297, !298, !299, !300, !301, !302, !303, !304, !305, !306, !307, !308, !309, !310, !311, !312, !313, !314, !315, !316, !317, !318, !319, !320, !321, !322, !323, !324, !325, !326, !327, !328, !329, !330, !331, !332, !333, !334, !335, !336, !337, !338, !339, !340, !341, !342, !343, !344, !345, !346, !347, !348, !349, !350, !351, !352, !353, !354, !355, !356, !357, !358, !359, !360, !361, !362, !363, !364, !365, !366, !367, !368, !369, !370, !371, !372, !373, !374, !375, !376, !377, !378, !379, !380, !381, !382, !383, !384, !385, !386, !387, !388, !389, !390, !391, !392, !393, !394, !395, !396, !397, !398, !399, !400, !401, !402, !403, !404, !405, !406, !407, !408, !409, !410, !411, !412, !413, !414, !415, !416, !417, !418, !419, !420, !421, !422, !423, !424, !425, !426, !427, !428, !429, !430, !431, !432, !433, !434, !435, !436, !437, !438, !439, !440, !441, !442, !443, !444, !445, !446, !447, !448, !449, !450, !451, !452, !453, !454, !455, !456, !457, !458, !459, !460}
!57 = !DIEnumerator(name: "NoError", value: 0, isUnsigned: true)
!58 = !DIEnumerator(name: "W_LowBounds", value: 1, isUnsigned: true)
!59 = !DIEnumerator(name: "Scan_CouldNotOpenSource_Warning", value: 2, isUnsigned: true)
!60 = !DIEnumerator(name: "GC_ExistingGrammar", value: 3, isUnsigned: true)
!61 = !DIEnumerator(name: "W_HighBounds", value: 4, isUnsigned: true)
!62 = !DIEnumerator(name: "F_LowBounds", value: 5, isUnsigned: true)
!63 = !DIEnumerator(name: "Array_BadIndex", value: 6, isUnsigned: true)
!64 = !DIEnumerator(name: "Array_BadNewSize", value: 7, isUnsigned: true)
!65 = !DIEnumerator(name: "AttrList_BadIndex", value: 8, isUnsigned: true)
!66 = !DIEnumerator(name: "AttDef_BadAttType", value: 9, isUnsigned: true)
!67 = !DIEnumerator(name: "AttDef_BadDefAttType", value: 10, isUnsigned: true)
!68 = !DIEnumerator(name: "Bitset_BadIndex", value: 11, isUnsigned: true)
!69 = !DIEnumerator(name: "Bitset_NotEqualSize", value: 12, isUnsigned: true)
!70 = !DIEnumerator(name: "BufMgr_NoMoreBuffers", value: 13, isUnsigned: true)
!71 = !DIEnumerator(name: "BufMgr_BufferNotInPool", value: 14, isUnsigned: true)
!72 = !DIEnumerator(name: "CPtr_PointerIsZero", value: 15, isUnsigned: true)
!73 = !DIEnumerator(name: "CM_BinOpHadUnaryType", value: 16, isUnsigned: true)
!74 = !DIEnumerator(name: "CM_MustBeMixedOrChildren", value: 17, isUnsigned: true)
!75 = !DIEnumerator(name: "CM_NoPCDATAHere", value: 18, isUnsigned: true)
!76 = !DIEnumerator(name: "CM_NotValidForSpecType", value: 19, isUnsigned: true)
!77 = !DIEnumerator(name: "CM_UnaryOpHadBinType", value: 20, isUnsigned: true)
!78 = !DIEnumerator(name: "CM_UnknownCMType", value: 21, isUnsigned: true)
!79 = !DIEnumerator(name: "CM_UnknownCMSpecType", value: 22, isUnsigned: true)
!80 = !DIEnumerator(name: "CM_NoParentCSN", value: 23, isUnsigned: true)
!81 = !DIEnumerator(name: "CM_NotValidSpecTypeForNode", value: 24, isUnsigned: true)
!82 = !DIEnumerator(name: "DTD_UnknownCreateReason", value: 25, isUnsigned: true)
!83 = !DIEnumerator(name: "ElemStack_EmptyStack", value: 26, isUnsigned: true)
!84 = !DIEnumerator(name: "ElemStack_BadIndex", value: 27, isUnsigned: true)
!85 = !DIEnumerator(name: "ElemStack_StackUnderflow", value: 28, isUnsigned: true)
!86 = !DIEnumerator(name: "ElemStack_NoParentPushed", value: 29, isUnsigned: true)
!87 = !DIEnumerator(name: "Enum_NoMoreElements", value: 30, isUnsigned: true)
!88 = !DIEnumerator(name: "File_CouldNotOpenFile", value: 31, isUnsigned: true)
!89 = !DIEnumerator(name: "File_CouldNotGetCurPos", value: 32, isUnsigned: true)
!90 = !DIEnumerator(name: "File_CouldNotCloseFile", value: 33, isUnsigned: true)
!91 = !DIEnumerator(name: "File_CouldNotSeekToEnd", value: 34, isUnsigned: true)
!92 = !DIEnumerator(name: "File_CouldNotSeekToPos", value: 35, isUnsigned: true)
!93 = !DIEnumerator(name: "File_CouldNotDupHandle", value: 36, isUnsigned: true)
!94 = !DIEnumerator(name: "File_CouldNotReadFromFile", value: 37, isUnsigned: true)
!95 = !DIEnumerator(name: "File_CouldNotWriteToFile", value: 38, isUnsigned: true)
!96 = !DIEnumerator(name: "File_CouldNotResetFile", value: 39, isUnsigned: true)
!97 = !DIEnumerator(name: "File_CouldNotGetSize", value: 40, isUnsigned: true)
!98 = !DIEnumerator(name: "File_CouldNotGetBasePathName", value: 41, isUnsigned: true)
!99 = !DIEnumerator(name: "File_BasePathUnderflow", value: 42, isUnsigned: true)
!100 = !DIEnumerator(name: "Gen_ParseInProgress", value: 43, isUnsigned: true)
!101 = !DIEnumerator(name: "Gen_NoDTDValidator", value: 44, isUnsigned: true)
!102 = !DIEnumerator(name: "Gen_CouldNotOpenDTD", value: 45, isUnsigned: true)
!103 = !DIEnumerator(name: "Gen_CouldNotOpenExtEntity", value: 46, isUnsigned: true)
!104 = !DIEnumerator(name: "Gen_UnexpectedEOF", value: 47, isUnsigned: true)
!105 = !DIEnumerator(name: "HshTbl_ZeroModulus", value: 48, isUnsigned: true)
!106 = !DIEnumerator(name: "HshTbl_BadHashFromKey", value: 49, isUnsigned: true)
!107 = !DIEnumerator(name: "HshTbl_NoSuchKeyExists", value: 50, isUnsigned: true)
!108 = !DIEnumerator(name: "Mutex_CouldNotCreate", value: 51, isUnsigned: true)
!109 = !DIEnumerator(name: "Mutex_CouldNotClose", value: 52, isUnsigned: true)
!110 = !DIEnumerator(name: "Mutex_CouldNotLock", value: 53, isUnsigned: true)
!111 = !DIEnumerator(name: "Mutex_CouldNotUnlock", value: 54, isUnsigned: true)
!112 = !DIEnumerator(name: "Mutex_CouldNotDestroy", value: 55, isUnsigned: true)
!113 = !DIEnumerator(name: "NetAcc_InternalError", value: 56, isUnsigned: true)
!114 = !DIEnumerator(name: "NetAcc_LengthError", value: 57, isUnsigned: true)
!115 = !DIEnumerator(name: "NetAcc_InitFailed", value: 58, isUnsigned: true)
!116 = !DIEnumerator(name: "NetAcc_TargetResolution", value: 59, isUnsigned: true)
!117 = !DIEnumerator(name: "NetAcc_CreateSocket", value: 60, isUnsigned: true)
!118 = !DIEnumerator(name: "NetAcc_ConnSocket", value: 61, isUnsigned: true)
!119 = !DIEnumerator(name: "NetAcc_WriteSocket", value: 62, isUnsigned: true)
!120 = !DIEnumerator(name: "NetAcc_ReadSocket", value: 63, isUnsigned: true)
!121 = !DIEnumerator(name: "NetAcc_UnsupportedMethod", value: 64, isUnsigned: true)
!122 = !DIEnumerator(name: "Pool_ElemAlreadyExists", value: 65, isUnsigned: true)
!123 = !DIEnumerator(name: "Pool_BadHashFromKey", value: 66, isUnsigned: true)
!124 = !DIEnumerator(name: "Pool_InvalidId", value: 67, isUnsigned: true)
!125 = !DIEnumerator(name: "Pool_ZeroModulus", value: 68, isUnsigned: true)
!126 = !DIEnumerator(name: "RdrMgr_ReaderIdNotFound", value: 69, isUnsigned: true)
!127 = !DIEnumerator(name: "Reader_BadAutoEncoding", value: 70, isUnsigned: true)
!128 = !DIEnumerator(name: "Reader_CouldNotDecodeFirstLine", value: 71, isUnsigned: true)
!129 = !DIEnumerator(name: "Reader_NelLsepinDecl", value: 72, isUnsigned: true)
!130 = !DIEnumerator(name: "Reader_EOIInMultiSeq", value: 73, isUnsigned: true)
!131 = !DIEnumerator(name: "Reader_SrcOfsNotSupported", value: 74, isUnsigned: true)
!132 = !DIEnumerator(name: "Reader_EncodingStrRequired", value: 75, isUnsigned: true)
!133 = !DIEnumerator(name: "Scan_CouldNotOpenSource", value: 76, isUnsigned: true)
!134 = !DIEnumerator(name: "Scan_UnbalancedStartEnd", value: 77, isUnsigned: true)
!135 = !DIEnumerator(name: "Scan_BadPScanToken", value: 78, isUnsigned: true)
!136 = !DIEnumerator(name: "Stack_BadIndex", value: 79, isUnsigned: true)
!137 = !DIEnumerator(name: "Stack_EmptyStack", value: 80, isUnsigned: true)
!138 = !DIEnumerator(name: "Str_ZeroSizedTargetBuf", value: 81, isUnsigned: true)
!139 = !DIEnumerator(name: "Str_UnknownRadix", value: 82, isUnsigned: true)
!140 = !DIEnumerator(name: "Str_TargetBufTooSmall", value: 83, isUnsigned: true)
!141 = !DIEnumerator(name: "Str_StartIndexPastEnd", value: 84, isUnsigned: true)
!142 = !DIEnumerator(name: "Str_ConvertOverflow", value: 85, isUnsigned: true)
!143 = !DIEnumerator(name: "Strm_StdErrWriteFailure", value: 86, isUnsigned: true)
!144 = !DIEnumerator(name: "Strm_StdOutWriteFailure", value: 87, isUnsigned: true)
!145 = !DIEnumerator(name: "Strm_ConWriteFailure", value: 88, isUnsigned: true)
!146 = !DIEnumerator(name: "StrPool_IllegalId", value: 89, isUnsigned: true)
!147 = !DIEnumerator(name: "Trans_CouldNotCreateDefCvtr", value: 90, isUnsigned: true)
!148 = !DIEnumerator(name: "Trans_InvalidSizeReq", value: 91, isUnsigned: true)
!149 = !DIEnumerator(name: "Trans_Unrepresentable", value: 92, isUnsigned: true)
!150 = !DIEnumerator(name: "Trans_NotValidForEncoding", value: 93, isUnsigned: true)
!151 = !DIEnumerator(name: "Trans_BadBlockSize", value: 94, isUnsigned: true)
!152 = !DIEnumerator(name: "Trans_BadSrcSeq", value: 95, isUnsigned: true)
!153 = !DIEnumerator(name: "Trans_BadSrcCP", value: 96, isUnsigned: true)
!154 = !DIEnumerator(name: "Trans_BadTrailingSurrogate", value: 97, isUnsigned: true)
!155 = !DIEnumerator(name: "Trans_CantCreateCvtrFor", value: 98, isUnsigned: true)
!156 = !DIEnumerator(name: "URL_MalformedURL", value: 99, isUnsigned: true)
!157 = !DIEnumerator(name: "URL_UnsupportedProto", value: 100, isUnsigned: true)
!158 = !DIEnumerator(name: "URL_UnsupportedProto1", value: 101, isUnsigned: true)
!159 = !DIEnumerator(name: "URL_OnlyLocalHost", value: 102, isUnsigned: true)
!160 = !DIEnumerator(name: "URL_NoProtocolPresent", value: 103, isUnsigned: true)
!161 = !DIEnumerator(name: "URL_ExpectingTwoSlashes", value: 104, isUnsigned: true)
!162 = !DIEnumerator(name: "URL_IncorrectEscapedCharRef", value: 105, isUnsigned: true)
!163 = !DIEnumerator(name: "URL_UnterminatedHostComponent", value: 106, isUnsigned: true)
!164 = !DIEnumerator(name: "URL_RelativeBaseURL", value: 107, isUnsigned: true)
!165 = !DIEnumerator(name: "URL_BaseUnderflow", value: 108, isUnsigned: true)
!166 = !DIEnumerator(name: "URL_BadPortField", value: 109, isUnsigned: true)
!167 = !DIEnumerator(name: "UTF8_FormatError", value: 110, isUnsigned: true)
