; ModuleID = 'XalanExe.cpp'
source_filename = "XalanExe.cpp"
target datalayout = "e-m:e-p270:32:32-p271:32:32-p272:64:64-i64:64-f80:128-n8:16:32:64-S128"
target triple = "x86_64-unknown-linux-gnu"

%"class.std::ios_base::Init" = type { i8 }
%"class.std::basic_ostream" = type { i32 (...)**, %"class.std::basic_ios" }
%"class.std::basic_ios" = type { %"class.std::ios_base", %"class.std::basic_ostream"*, i8, i8, %"class.std::basic_streambuf"*, %"class.std::ctype"*, %"class.std::num_put"*, %"class.std::num_get"* }
%"class.std::ios_base" = type { i32 (...)**, i64, i64, i32, i32, i32, %"struct.std::ios_base::_Callback_list"*, %"struct.std::ios_base::_Words", [8 x %"struct.std::ios_base::_Words"], i32, %"struct.std::ios_base::_Words"*, %"class.std::locale" }
%"struct.std::ios_base::_Callback_list" = type { %"struct.std::ios_base::_Callback_list"*, void (i32, %"class.std::ios_base"*, i32)*, i32, i32 }
%"struct.std::ios_base::_Words" = type { i8*, i64 }
%"class.std::locale" = type { %"class.std::locale::_Impl"* }
%"class.std::locale::_Impl" = type { i32, %"class.std::locale::facet"**, i64, %"class.std::locale::facet"**, i8** }
%"class.std::locale::facet" = type <{ i32 (...)**, i32, [4 x i8] }>
%"class.std::basic_streambuf" = type { i32 (...)**, i8*, i8*, i8*, i8*, i8*, i8*, %"class.std::locale" }
%"class.std::ctype" = type <{ %"class.std::locale::facet.base", [4 x i8], %struct.__locale_struct*, i8, [7 x i8], i32*, i32*, i16*, i8, [256 x i8], [256 x i8], i8, [6 x i8] }>
%"class.std::locale::facet.base" = type <{ i32 (...)**, i32 }>
%struct.__locale_struct = type { [13 x %struct.__locale_data*], i16*, i32*, i32*, [13 x i8*] }
%struct.__locale_data = type opaque
%"class.std::num_put" = type { %"class.std::locale::facet.base", [4 x i8] }
%"class.std::num_get" = type { %"class.std::locale::facet.base", [4 x i8] }
%"class.std::basic_istream" = type { i32 (...)**, i64, %"class.std::basic_ios" }
%"class.xalanc_1_10::XSLTInputSource" = type { %"class.xercesc_2_7::InputSource.base", %"class.std::basic_istream"*, %"class.xalanc_1_10::XalanNode"* }
%"class.xercesc_2_7::InputSource.base" = type <{ i32 (...)**, %"class.xercesc_2_7::MemoryManager"*, i16*, i16*, i16*, i8 }>
%"class.xercesc_2_7::MemoryManager" = type { i32 (...)** }
%"class.xalanc_1_10::XalanNode" = type opaque
%"class.xercesc_2_7::XMLDeleter" = type { i32 (...)** }
%"class.xalanc_1_10::XalanDOMString" = type <{ %"class.xalanc_1_10::XalanVector", i32, [4 x i8] }>
%"class.xalanc_1_10::XalanVector" = type { %"class.xercesc_2_7::MemoryManager"*, i64, i64, i16* }
%"class.xalanc_1_10::XalanVector.0" = type { %"class.xercesc_2_7::MemoryManager"*, i64, i64, i8* }
%"class.xalanc_1_10::XalanDOMString::TranscodingError" = type { %"class.xalanc_1_10::XalanDOMException.base", [4 x i8] }
%"class.xalanc_1_10::XalanDOMException.base" = type <{ i32 (...)**, i32 }>
%class.Params = type { i8, i8, i8, i8, i8, i32, i8*, i8*, i8*, i8*, %"class.xalanc_1_10::XalanArrayAutoPtr", i64, i64 }
%"class.xalanc_1_10::XalanArrayAutoPtr" = type { %"struct.Params::ParamPair"* }
%"struct.Params::ParamPair" = type { i8*, i8* }
%"class.xalanc_1_10::XalanTransformer" = type { i32 (...)**, %"class.xercesc_2_7::MemoryManager"*, %"class.xalanc_1_10::XalanVector.1", %"class.xalanc_1_10::XalanVector.2", %"class.xalanc_1_10::XalanVector.3", %"class.xalanc_1_10::XalanVector.4", %"class.xalanc_1_10::XalanVector.6", %"class.xalanc_1_10::XalanVector.0", i8, %"class.xercesc_2_7::EntityResolver"*, %"class.xercesc_2_7::ErrorHandler"*, %"class.xalanc_1_10::XalanDOMString", %"class.xalanc_1_10::XalanDOMString", %"class.xalanc_1_10::ProblemListener"*, %"class.std::basic_ostream"*, %"class.xalanc_1_10::XalanDOMString", i8, %"class.xalanc_1_10::StylesheetExecutionContextDefault"* }
%"class.xalanc_1_10::XalanVector.1" = type { %"class.xercesc_2_7::MemoryManager"*, i64, i64, %"class.xalanc_1_10::XalanCompiledStylesheet"** }
%"class.xalanc_1_10::XalanCompiledStylesheet" = type opaque
%"class.xalanc_1_10::XalanVector.2" = type { %"class.xercesc_2_7::MemoryManager"*, i64, i64, %"class.xalanc_1_10::XalanParsedSource"** }
%"class.xalanc_1_10::XalanParsedSource" = type opaque
%"class.xalanc_1_10::XalanVector.3" = type { %"class.xercesc_2_7::MemoryManager"*, i64, i64, %"struct.std::pair"* }
%"struct.std::pair" = type opaque
%"class.xalanc_1_10::XalanVector.4" = type { %"class.xercesc_2_7::MemoryManager"*, i64, i64, %"struct.std::pair.5"* }
%"struct.std::pair.5" = type opaque
%"class.xalanc_1_10::XalanVector.6" = type { %"class.xercesc_2_7::MemoryManager"*, i64, i64, %"class.xalanc_1_10::TraceListener"** }
%"class.xalanc_1_10::TraceListener" = type opaque
%"class.xercesc_2_7::EntityResolver" = type opaque
%"class.xercesc_2_7::ErrorHandler" = type opaque
%"class.xalanc_1_10::ProblemListener" = type opaque
%"class.xalanc_1_10::StylesheetExecutionContextDefault" = type opaque
%"class.xercesc_2_7::PanicHandler" = type { i32 (...)** }
%"class.xercesc_2_7::InputSource" = type <{ i32 (...)**, %"class.xercesc_2_7::MemoryManager"*, i16*, i16*, i16*, i8, [7 x i8] }>
%"class.xalanc_1_10::XSLTResultTarget" = type { %"class.xalanc_1_10::XalanDOMString", %"class.std::basic_ostream"*, %"class.xalanc_1_10::XalanDOMString", %"class.xalanc_1_10::Writer"*, %"class.xalanc_1_10::FormatterListener"*, %struct._IO_FILE* }
%"class.xalanc_1_10::Writer" = type opaque
%"class.xalanc_1_10::FormatterListener" = type { %"class.xercesc_2_7::DocumentHandler", %"class.xalanc_1_10::PrefixResolver"*, i32, i32 }
%"class.xercesc_2_7::DocumentHandler" = type { i32 (...)** }
%"class.xalanc_1_10::PrefixResolver" = type { i32 (...)** }
%struct._IO_FILE = type { i32, i8*, i8*, i8*, i8*, i8*, i8*, i8*, i8*, i8*, i8*, i8*, %struct._IO_marker*, %struct._IO_FILE*, i32, i32, i64, i16, i8, [1 x i8], i8*, i64, %struct._IO_codecvt*, %struct._IO_wide_data*, %struct._IO_FILE*, i8*, i64, i32, [20 x i8] }
%struct._IO_marker = type opaque
%struct._IO_codecvt = type opaque
%struct._IO_wide_data = type opaque
%"class.xalanc_1_10::XalanTransformer::EnsureDestroyParsedSource" = type { %"class.xalanc_1_10::XalanTransformer"*, %"class.xalanc_1_10::XalanParsedSource"* }
%"struct.xalanc_1_10::XalanTransformer::EnsureDestroyCompiledStylesheet" = type { %"class.xalanc_1_10::XalanTransformer"*, %"class.xalanc_1_10::XalanCompiledStylesheet"* }
%"struct.std::random_access_iterator_tag" = type { i8 }

$_ZN11xercesc_2_710XMLDeleterD0Ev = comdat any

$_ZN11xercesc_2_710XMLDeleterD2Ev = comdat any

$_ZN11xalanc_1_1011XalanVectorIcNS_31MemoryManagedConstructionTraitsIcEEEC2ERN11xercesc_2_713MemoryManagerEm = comdat any

$_ZN11xalanc_1_1011XalanVectorIcNS_31MemoryManagedConstructionTraitsIcEEEixEm = comdat any

$_ZN11xalanc_1_1011XalanVectorIcNS_31MemoryManagedConstructionTraitsIcEEED2Ev = comdat any

$__clang_call_terminate = comdat any

$_ZN11xalanc_1_1014XalanDOMStringD2Ev = comdat any

$_ZN6Params8addParamEPKcS1_ = comdat any

$_ZN6ParamsC2Em = comdat any

$_ZNK6Params9setParamsERN11xalanc_1_1016XalanTransformerE = comdat any

$_Z9transformRN11xalanc_1_1016XalanTransformerERK6Params = comdat any

$_ZNK11xalanc_1_1016XalanTransformer12getLastErrorEv = comdat any

$_ZN6ParamsD2Ev = comdat any

$_ZN11xalanc_1_1011XalanVectorItNS_31MemoryManagedConstructionTraitsItEEED2Ev = comdat any

$_ZNK11xalanc_1_1011XalanVectorItNS_31MemoryManagedConstructionTraitsItEEE10invariantsEv = comdat any

$_ZN11xalanc_1_1011XalanVectorItNS_31MemoryManagedConstructionTraitsItEEE7destroyEPtS4_ = comdat any

$_ZN11xalanc_1_1011XalanVectorItNS_31MemoryManagedConstructionTraitsItEEE5beginEv = comdat any

$_ZN11xalanc_1_1011XalanVectorItNS_31MemoryManagedConstructionTraitsItEEE3endEv = comdat any

$_ZN11xalanc_1_1011XalanVectorItNS_31MemoryManagedConstructionTraitsItEEE10deallocateEPt = comdat any

$_ZN11xalanc_1_1011XalanVectorItNS_31MemoryManagedConstructionTraitsItEEE7destroyERt = comdat any

$_ZN11xalanc_1_1011XalanVectorItNS_31MemoryManagedConstructionTraitsItEEE10endPointerEv = comdat any

$_ZNK11xalanc_1_1017XalanArrayAutoPtrIN6Params9ParamPairEE3getEv = comdat any

$_ZN11xalanc_1_1017XalanArrayAutoPtrIN6Params9ParamPairEE5resetEPS2_ = comdat any

$_ZN6Params9ParamPairC2Ev = comdat any

$_ZNK11xalanc_1_1017XalanArrayAutoPtrIN6Params9ParamPairEEixEm = comdat any

$_ZN11xalanc_1_1017XalanArrayAutoPtrIN6Params9ParamPairEEC2EPS2_ = comdat any

$_ZN11xalanc_1_1016XalanTransformer16setUseValidationEb = comdat any

$_Z9transformRN11xalanc_1_1016XalanTransformerERK6ParamsRKNS_15XSLTInputSourceE = comdat any

$_ZN11xalanc_1_1012XalanMemMgrs10getDefaultEv = comdat any

$_ZN11xalanc_1_1015XSLTInputSourceD2Ev = comdat any

$_Z9transformRN11xalanc_1_1016XalanTransformerERK6ParamsRKNS_15XSLTInputSourceES7_ = comdat any

$_ZN11xalanc_1_1016XalanTransformer16getMemoryManagerEv = comdat any

$_ZN11xalanc_1_1016XSLTResultTarget11setEncodingERKNS_14XalanDOMStringE = comdat any

$_ZN11xalanc_1_1016XSLTResultTarget11setFileNameEPKc = comdat any

$_ZN11xalanc_1_1016XSLTResultTarget13setByteStreamEPSo = comdat any

$_Z9transformRN11xalanc_1_1016XalanTransformerERK6ParamsRKNS_15XSLTInputSourceERKNS_16XSLTResultTargetE = comdat any

$_Z9transformRN11xalanc_1_1016XalanTransformerERK6ParamsRKNS_15XSLTInputSourceES7_RKNS_16XSLTResultTargetE = comdat any

$_ZN11xalanc_1_1014XalanDOMStringaSERKS0_ = comdat any

$_ZN11xalanc_1_1014XalanDOMString6assignERKS0_ = comdat any

$_ZNK11xalanc_1_1014XalanDOMString10invariantsEv = comdat any

$_ZN11xalanc_1_1011XalanVectorItNS_31MemoryManagedConstructionTraitsItEEEaSERKS3_ = comdat any

$_ZN11xalanc_1_1011XalanVectorItNS_31MemoryManagedConstructionTraitsItEEEC2ERKS3_RN11xercesc_2_713MemoryManagerEm = comdat any

$_ZN11xalanc_1_1011XalanVectorItNS_31MemoryManagedConstructionTraitsItEEE4swapERS3_ = comdat any

$_ZNK11xalanc_1_1011XalanVectorItNS_31MemoryManagedConstructionTraitsItEEE3endEv = comdat any

$_ZN11xalanc_1_1011XalanVectorItNS_31MemoryManagedConstructionTraitsItEEE12shrinkToSizeEm = comdat any

$_ZNK11xalanc_1_1011XalanVectorItNS_31MemoryManagedConstructionTraitsItEEE5beginEv = comdat any

$_ZN11xalanc_1_1011XalanVectorItNS_31MemoryManagedConstructionTraitsItEEE6insertEPtPKtS6_ = comdat any

$_ZSt4copyIPKtPtET0_T_S4_S3_ = comdat any

$_ZN11xalanc_1_1011XalanVectorItNS_31MemoryManagedConstructionTraitsItEEE9local_maxEmm = comdat any

$_ZN11xalanc_1_1011XalanVectorItNS_31MemoryManagedConstructionTraitsItEEEC2ERN11xercesc_2_713MemoryManagerEm = comdat any

$_ZN11xalanc_1_1011XalanVectorItNS_31MemoryManagedConstructionTraitsItEEE8allocateEm = comdat any

$_ZNK11xalanc_1_1011XalanVectorItNS_31MemoryManagedConstructionTraitsItEEE10endPointerEv = comdat any

$_ZN11xalanc_1_1011XalanVectorItNS_31MemoryManagedConstructionTraitsItEEE8pop_backEv = comdat any

$_ZN11xalanc_1_1011XalanVectorItNS_31MemoryManagedConstructionTraitsItEEE14local_distanceEPKtS5_ = comdat any

$_ZNK11xalanc_1_1011XalanVectorItNS_31MemoryManagedConstructionTraitsItEEE4sizeEv = comdat any

$_ZN11xalanc_1_1011XalanVectorItNS_31MemoryManagedConstructionTraitsItEEE14ensureCapacityEm = comdat any

$_ZN11xalanc_1_1028ConstructWithNoMemoryManagerItE9constructEPtRKtRN11xercesc_2_713MemoryManagerE = comdat any

$_ZNK11xalanc_1_1011XalanVectorItNS_31MemoryManagedConstructionTraitsItEEE8capacityEv = comdat any

$_ZN11xalanc_1_1011XalanVectorItNS_31MemoryManagedConstructionTraitsItEEE10doPushBackERKt = comdat any

$_ZSt13copy_backwardIPtS0_ET0_T_S2_S1_ = comdat any

$_ZSt8distanceIPKtENSt15iterator_traitsIT_E15difference_typeES3_S3_ = comdat any

$_ZSt10__distanceIPKtENSt15iterator_traitsIT_E15difference_typeES3_S3_St26random_access_iterator_tag = comdat any

$_ZSt19__iterator_categoryIPKtENSt15iterator_traitsIT_E17iterator_categoryERKS3_ = comdat any

$_ZN11xalanc_1_1011XalanVectorItNS_31MemoryManagedConstructionTraitsItEEE9doReserveEm = comdat any

$_ZSt22__copy_move_backward_aILb0EPtS0_ET1_T0_S2_S1_ = comdat any

$_ZSt12__miter_baseIPtET_S1_ = comdat any

$_ZSt12__niter_wrapIPtET_RKS1_S1_ = comdat any

$_ZSt23__copy_move_backward_a1ILb0EPtS0_ET1_T0_S2_S1_ = comdat any

$_ZSt12__niter_baseIPtET_S1_ = comdat any

$_ZSt23__copy_move_backward_a2ILb0EPtS0_ET1_T0_S2_S1_ = comdat any

$_ZNSt20__copy_move_backwardILb0ELb1ESt26random_access_iterator_tagE13__copy_move_bItEEPT_PKS3_S6_S4_ = comdat any

$_ZSt13__copy_move_aILb0EPKtPtET1_T0_S4_S3_ = comdat any

$_ZSt12__miter_baseIPKtET_S2_ = comdat any

$_ZSt14__copy_move_a1ILb0EPKtPtET1_T0_S4_S3_ = comdat any

$_ZSt12__niter_baseIPKtET_S2_ = comdat any

$_ZSt14__copy_move_a2ILb0EPKtPtET1_T0_S4_S3_ = comdat any

$_ZNSt11__copy_moveILb0ELb1ESt26random_access_iterator_tagE8__copy_mItEEPT_PKS3_S6_S4_ = comdat any

$_ZN11xalanc_1_1014XalanDOMString5clearEv = comdat any

$_ZN11xalanc_1_1014XalanDOMStringaSEPKc = comdat any

$_ZN11xalanc_1_1011XalanVectorItNS_31MemoryManagedConstructionTraitsItEEE5eraseEPtS4_ = comdat any

$_ZSt4copyIPtS0_ET0_T_S2_S1_ = comdat any

$_ZN11xalanc_1_1011XalanVectorItNS_31MemoryManagedConstructionTraitsItEEE11shrinkCountEm = comdat any

$_ZSt13__copy_move_aILb0EPtS0_ET1_T0_S2_S1_ = comdat any

$_ZSt14__copy_move_a1ILb0EPtS0_ET1_T0_S2_S1_ = comdat any

$_ZSt14__copy_move_a2ILb0EPtS0_ET1_T0_S2_S1_ = comdat any

$_ZN11xalanc_1_1014XalanDOMString6assignEPKc = comdat any

$_ZN11xalanc_1_1014XalanDOMString6appendEPKc = comdat any

$_ZN11xalanc_1_1016XalanTransformer9transformERKNS_15XSLTInputSourceERKNS_16XSLTResultTargetE = comdat any

$_Z8getClockv = comdat any

$_Z25reportElapsedMillisecondsPKcllRSo = comdat any

$_ZN11xalanc_1_1016XalanTransformer25EnsureDestroyParsedSourceC2ERS0_PKNS_17XalanParsedSourceE = comdat any

$_ZN11xalanc_1_1016XalanTransformer9transformERKNS_17XalanParsedSourceERKNS_16XSLTResultTargetE = comdat any

$_ZN11xalanc_1_1016XalanTransformer25EnsureDestroyParsedSourceD2Ev = comdat any

$_ZN11xalanc_1_1016XalanTransformer9transformERKNS_17XalanParsedSourceERKNS_15XSLTInputSourceERKNS_16XSLTResultTargetE = comdat any

$_ZN11xalanc_1_1016XalanTransformer31EnsureDestroyCompiledStylesheetC2ERS0_PKNS_23XalanCompiledStylesheetE = comdat any

$_ZN11xalanc_1_1016XalanTransformer9transformERKNS_17XalanParsedSourceEPKNS_23XalanCompiledStylesheetERKNS_16XSLTResultTargetE = comdat any

$_ZN11xalanc_1_1016XalanTransformer31EnsureDestroyCompiledStylesheetD2Ev = comdat any

$_ZNK11xalanc_1_1011XalanVectorIcNS_31MemoryManagedConstructionTraitsIcEEEixEm = comdat any

$_ZN11xalanc_1_1017XalanArrayAutoPtrIN6Params9ParamPairEED2Ev = comdat any

$_ZN11xalanc_1_1011XalanVectorIcNS_31MemoryManagedConstructionTraitsIcEEE8allocateEm = comdat any

$_ZNK11xalanc_1_1011XalanVectorIcNS_31MemoryManagedConstructionTraitsIcEEE10invariantsEv = comdat any

$_ZN11xalanc_1_1011XalanVectorIcNS_31MemoryManagedConstructionTraitsIcEEE7destroyEPcS4_ = comdat any

$_ZN11xalanc_1_1011XalanVectorIcNS_31MemoryManagedConstructionTraitsIcEEE5beginEv = comdat any

$_ZN11xalanc_1_1011XalanVectorIcNS_31MemoryManagedConstructionTraitsIcEEE3endEv = comdat any

$_ZN11xalanc_1_1011XalanVectorIcNS_31MemoryManagedConstructionTraitsIcEEE10deallocateEPc = comdat any

$_ZN11xalanc_1_1011XalanVectorIcNS_31MemoryManagedConstructionTraitsIcEEE7destroyERc = comdat any

$_ZN11xalanc_1_1011XalanVectorIcNS_31MemoryManagedConstructionTraitsIcEEE10endPointerEv = comdat any

$_ZTSN11xalanc_1_1014XalanDOMString16TranscodingErrorE = comdat any

$_ZTIN11xalanc_1_1014XalanDOMString16TranscodingErrorE = comdat any

$_ZTVN11xercesc_2_710XMLDeleterE = comdat any

$_ZTSN11xercesc_2_710XMLDeleterE = comdat any

$_ZTIN11xercesc_2_710XMLDeleterE = comdat any

@_ZStL8__ioinit = internal global %"class.std::ios_base::Init" zeroinitializer, align 1, !dbg !0
@__dso_handle = external hidden global i8
@.str = private unnamed_addr constant [7 x i8] c"1.10.0\00", align 1
@.str.1 = private unnamed_addr constant [6 x i8] c"2.7.0\00", align 1
@_ZTVN10__cxxabiv120__si_class_type_infoE = external dso_local global i8*
@_ZTSN11xalanc_1_1014XalanDOMString16TranscodingErrorE = linkonce_odr dso_local constant [50 x i8] c"N11xalanc_1_1014XalanDOMString16TranscodingErrorE\00", comdat, align 1
@_ZTIN11xalanc_1_1017XalanDOMExceptionE = external dso_local constant i8*
@_ZTIN11xalanc_1_1014XalanDOMString16TranscodingErrorE = linkonce_odr dso_local constant { i8*, i8*, i8* } { i8* bitcast (i8** getelementptr inbounds (i8*, i8** @_ZTVN10__cxxabiv120__si_class_type_infoE, i64 2) to i8*), i8* getelementptr inbounds ([50 x i8], [50 x i8]* @_ZTSN11xalanc_1_1014XalanDOMString16TranscodingErrorE, i32 0, i32 0), i8* bitcast (i8** @_ZTIN11xalanc_1_1017XalanDOMExceptionE to i8*) }, comdat, align 8
@_ZSt4cerr = external dso_local global %"class.std::basic_ostream", align 8
@.str.2 = private unnamed_addr constant [53 x i8] c"Transcoding error: wrong XalanC or XercesC versions.\00", align 1
@.str.3 = private unnamed_addr constant [26 x i8] c"Cannot read help message \00", align 1
@.str.4 = private unnamed_addr constant [2 x i8] c".\00", align 1
@.str.5 = private unnamed_addr constant [57 x i8] c"Maximum numbers of stylesheets params has been exceeded!\00", align 1
@_ZN11xercesc_2_76XMLUni22fgXercescDefaultLocaleE = external dso_local constant [0 x i8], align 1
@_ZTVN11xercesc_2_710XMLDeleterE = linkonce_odr dso_local unnamed_addr constant { [4 x i8*] } { [4 x i8*] [i8* null, i8* bitcast ({ i8*, i8* }* @_ZTIN11xercesc_2_710XMLDeleterE to i8*), i8* bitcast (void (%"class.xercesc_2_7::XMLDeleter"*)* @_ZN11xercesc_2_710XMLDeleterD2Ev to i8*), i8* bitcast (void (%"class.xercesc_2_7::XMLDeleter"*)* @_ZN11xercesc_2_710XMLDeleterD0Ev to i8*)] }, comdat, align 8
@_ZTVN10__cxxabiv117__class_type_infoE = external dso_local global i8*
@_ZTSN11xercesc_2_710XMLDeleterE = linkonce_odr dso_local constant [28 x i8] c"N11xercesc_2_710XMLDeleterE\00", comdat, align 1
@_ZTIN11xercesc_2_710XMLDeleterE = linkonce_odr dso_local constant { i8*, i8* } { i8* bitcast (i8** getelementptr inbounds (i8*, i8** @_ZTVN10__cxxabiv117__class_type_infoE, i64 2) to i8*), i8* getelementptr inbounds ([28 x i8], [28 x i8]* @_ZTSN11xercesc_2_710XMLDeleterE, i32 0, i32 0) }, comdat, align 8
@_ZSt3cin = external dso_local global %"class.std::basic_istream", align 8
@_ZSt4cout = external dso_local global %"class.std::basic_ostream", align 8
@.str.6 = private unnamed_addr constant [27 x i8] c"Source tree parsing time: \00", align 1
@.str.7 = private unnamed_addr constant [56 x i8] c"Transformation time, including stylesheet compilation: \00", align 1
@_ZN11xalanc_1_1016XalanTransformer18s_emptyInputSourceE = external dso_local global %"class.xalanc_1_10::XSLTInputSource"*, align 8
@.str.8 = private unnamed_addr constant [16 x i8] c" milliseconds.\0A\00", align 1
@.str.9 = private unnamed_addr constant [30 x i8] c"Stylesheet compilation time: \00", align 1
@.str.10 = private unnamed_addr constant [22 x i8] c"Transformation time: \00", align 1
@llvm.global_ctors = appending global [1 x { i32, void ()*, i8* }] [{ i32, void ()*, i8* } { i32 65535, void ()* @_GLOBAL__sub_I_XalanExe.cpp, i8* null }]

; Function Attrs: noinline uwtable
define internal void @__cxx_global_var_init() #0 section ".text.startup" !dbg !2463 {
entry:
  call void @_ZNSt8ios_base4InitC1Ev(%"class.std::ios_base::Init"* @_ZStL8__ioinit), !dbg !2464
  %0 = call i32 @__cxa_atexit(void (i8*)* bitcast (void (%"class.std::ios_base::Init"*)* @_ZNSt8ios_base4InitD1Ev to void (i8*)*), i8* getelementptr inbounds (%"class.std::ios_base::Init", %"class.std::ios_base::Init"* @_ZStL8__ioinit, i32 0, i32 0), i8* @__dso_handle) #3, !dbg !2464
  ret void, !dbg !2464
}

declare dso_local void @_ZNSt8ios_base4InitC1Ev(%"class.std::ios_base::Init"*) unnamed_addr #1

; Function Attrs: nounwind
declare dso_local void @_ZNSt8ios_base4InitD1Ev(%"class.std::ios_base::Init"*) unnamed_addr #2

; Function Attrs: nounwind
declare dso_local i32 @__cxa_atexit(void (i8*)*, i8*, i8*) #3

; Function Attrs: nounwind readnone speculatable willreturn
declare void @llvm.dbg.declare(metadata, metadata, metadata) #4

; Function Attrs: noinline nounwind uwtable
define linkonce_odr dso_local void @_ZN11xercesc_2_710XMLDeleterD0Ev(%"class.xercesc_2_7::XMLDeleter"* %this) unnamed_addr #5 comdat align 2 !dbg !2465 {
entry:
  %this.addr = alloca %"class.xercesc_2_7::XMLDeleter"*, align 8
  store %"class.xercesc_2_7::XMLDeleter"* %this, %"class.xercesc_2_7::XMLDeleter"** %this.addr, align 8
  call void @llvm.dbg.declare(metadata %"class.xercesc_2_7::XMLDeleter"** %this.addr, metadata !2485, metadata !DIExpression()), !dbg !2487
  %this1 = load %"class.xercesc_2_7::XMLDeleter"*, %"class.xercesc_2_7::XMLDeleter"** %this.addr, align 8
  call void @_ZN11xercesc_2_710XMLDeleterD2Ev(%"class.xercesc_2_7::XMLDeleter"* %this1) #3, !dbg !2488
  %0 = bitcast %"class.xercesc_2_7::XMLDeleter"* %this1 to i8*, !dbg !2488
  call void @_ZdlPv(i8* %0) #13, !dbg !2488
  ret void, !dbg !2489
}

; Function Attrs: noinline nounwind uwtable
define linkonce_odr dso_local void @_ZN11xercesc_2_710XMLDeleterD2Ev(%"class.xercesc_2_7::XMLDeleter"* %this) unnamed_addr #5 comdat align 2 !dbg !2490 {
entry:
  %this.addr = alloca %"class.xercesc_2_7::XMLDeleter"*, align 8
  store %"class.xercesc_2_7::XMLDeleter"* %this, %"class.xercesc_2_7::XMLDeleter"** %this.addr, align 8
  call void @llvm.dbg.declare(metadata %"class.xercesc_2_7::XMLDeleter"** %this.addr, metadata !2491, metadata !DIExpression()), !dbg !2492
  %this1 = load %"class.xercesc_2_7::XMLDeleter"*, %"class.xercesc_2_7::XMLDeleter"** %this.addr, align 8
  ret void, !dbg !2493
}

; Function Attrs: nobuiltin nounwind
declare dso_local void @_ZdlPv(i8*) #6

; Function Attrs: noinline uwtable
define dso_local void @_Z5Usagev() #0 personality i8* bitcast (i32 (...)* @__gxx_personality_v0 to i8*) !dbg !2098 {
entry:
  %theManager = alloca %"class.xercesc_2_7::MemoryManager"*, align 8
  %bErrorState = alloca i8, align 1
  %szXalanVersion = alloca %"class.xalanc_1_10::XalanDOMString", align 8
  %exn.slot = alloca i8*
  %ehselector.slot = alloca i32
  %szXercesVersion = alloca %"class.xalanc_1_10::XalanDOMString", align 8
  %cvtXalanVersion = alloca %"class.xalanc_1_10::XalanVector.0", align 8
  %cvtXercesVersion = alloca %"class.xalanc_1_10::XalanVector.0", align 8
  %0 = alloca %"class.xalanc_1_10::XalanDOMString::TranscodingError"*, align 8
  %cvtXalanExeHelpMenu = alloca %"class.xalanc_1_10::XalanVector.0", align 8
  %theBuffer = alloca %"class.xalanc_1_10::XalanDOMString", align 8
  %i = alloca i32, align 4
  %1 = alloca %"class.xalanc_1_10::XalanDOMString::TranscodingError"*, align 8
  call void @llvm.dbg.declare(metadata %"class.xercesc_2_7::MemoryManager"** %theManager, metadata !2494, metadata !DIExpression()), !dbg !2495
  %call = call dereferenceable(8) %"class.xercesc_2_7::MemoryManager"* @_ZN11xalanc_1_1012XalanMemMgrs22getDefaultXercesMemMgrEv(), !dbg !2496
  store %"class.xercesc_2_7::MemoryManager"* %call, %"class.xercesc_2_7::MemoryManager"** %theManager, align 8, !dbg !2495
  call void @llvm.dbg.declare(metadata i8* %bErrorState, metadata !2497, metadata !DIExpression()), !dbg !2498
  store i8 1, i8* %bErrorState, align 1, !dbg !2498
  call void @llvm.dbg.declare(metadata %"class.xalanc_1_10::XalanDOMString"* %szXalanVersion, metadata !2499, metadata !DIExpression()), !dbg !2500
  %2 = load %"class.xercesc_2_7::MemoryManager"*, %"class.xercesc_2_7::MemoryManager"** %theManager, align 8, !dbg !2501
  call void @_ZN11xalanc_1_1014XalanDOMStringC1ERN11xercesc_2_713MemoryManagerE(%"class.xalanc_1_10::XalanDOMString"* %szXalanVersion, %"class.xercesc_2_7::MemoryManager"* dereferenceable(8) %2), !dbg !2500
  %call1 = invoke dereferenceable(40) %"class.xalanc_1_10::XalanDOMString"* @_ZN11xalanc_1_1018XalanMessageLoader10getMessageERNS_14XalanDOMStringENS_13XalanMessages5CodesEPKcS6_S6_S6_(%"class.xalanc_1_10::XalanDOMString"* dereferenceable(40) %szXalanVersion, i32 154, i8* getelementptr inbounds ([7 x i8], [7 x i8]* @.str, i64 0, i64 0), i8* null, i8* null, i8* null)
          to label %invoke.cont unwind label %lpad, !dbg !2502

invoke.cont:                                      ; preds = %entry
  call void @llvm.dbg.declare(metadata %"class.xalanc_1_10::XalanDOMString"* %szXercesVersion, metadata !2503, metadata !DIExpression()), !dbg !2504
  %3 = load %"class.xercesc_2_7::MemoryManager"*, %"class.xercesc_2_7::MemoryManager"** %theManager, align 8, !dbg !2505
  invoke void @_ZN11xalanc_1_1014XalanDOMStringC1ERN11xercesc_2_713MemoryManagerE(%"class.xalanc_1_10::XalanDOMString"* %szXercesVersion, %"class.xercesc_2_7::MemoryManager"* dereferenceable(8) %3)
          to label %invoke.cont2 unwind label %lpad, !dbg !2504

invoke.cont2:                                     ; preds = %invoke.cont
  %call5 = invoke dereferenceable(40) %"class.xalanc_1_10::XalanDOMString"* @_ZN11xalanc_1_1018XalanMessageLoader10getMessageERNS_14XalanDOMStringENS_13XalanMessages5CodesEPKcS6_S6_S6_(%"class.xalanc_1_10::XalanDOMString"* dereferenceable(40) %szXercesVersion, i32 155, i8* getelementptr inbounds ([6 x i8], [6 x i8]* @.str.1, i64 0, i64 0), i8* null, i8* null, i8* null)
          to label %invoke.cont4 unwind label %lpad3, !dbg !2506

invoke.cont4:                                     ; preds = %invoke.cont2
  call void @llvm.dbg.declare(metadata %"class.xalanc_1_10::XalanVector.0"* %cvtXalanVersion, metadata !2507, metadata !DIExpression()), !dbg !2509
  %4 = load %"class.xercesc_2_7::MemoryManager"*, %"class.xercesc_2_7::MemoryManager"** %theManager, align 8, !dbg !2510
  invoke void @_ZN11xalanc_1_1011XalanVectorIcNS_31MemoryManagedConstructionTraitsIcEEEC2ERN11xercesc_2_713MemoryManagerEm(%"class.xalanc_1_10::XalanVector.0"* %cvtXalanVersion, %"class.xercesc_2_7::MemoryManager"* dereferenceable(8) %4, i64 0)
          to label %invoke.cont7 unwind label %lpad6, !dbg !2509

invoke.cont7:                                     ; preds = %invoke.cont4
  invoke void @_ZNK11xalanc_1_1014XalanDOMString9transcodeERNS_11XalanVectorIcNS_31MemoryManagedConstructionTraitsIcEEEE(%"class.xalanc_1_10::XalanDOMString"* %szXalanVersion, %"class.xalanc_1_10::XalanVector.0"* dereferenceable(32) %cvtXalanVersion)
          to label %invoke.cont9 unwind label %lpad8, !dbg !2511

invoke.cont9:                                     ; preds = %invoke.cont7
  call void @llvm.dbg.declare(metadata %"class.xalanc_1_10::XalanVector.0"* %cvtXercesVersion, metadata !2512, metadata !DIExpression()), !dbg !2513
  %5 = load %"class.xercesc_2_7::MemoryManager"*, %"class.xercesc_2_7::MemoryManager"** %theManager, align 8, !dbg !2514
  invoke void @_ZN11xalanc_1_1011XalanVectorIcNS_31MemoryManagedConstructionTraitsIcEEEC2ERN11xercesc_2_713MemoryManagerEm(%"class.xalanc_1_10::XalanVector.0"* %cvtXercesVersion, %"class.xercesc_2_7::MemoryManager"* dereferenceable(8) %5, i64 0)
          to label %invoke.cont10 unwind label %lpad8, !dbg !2513

invoke.cont10:                                    ; preds = %invoke.cont9
  invoke void @_ZNK11xalanc_1_1014XalanDOMString9transcodeERNS_11XalanVectorIcNS_31MemoryManagedConstructionTraitsIcEEEE(%"class.xalanc_1_10::XalanDOMString"* %szXercesVersion, %"class.xalanc_1_10::XalanVector.0"* dereferenceable(32) %cvtXercesVersion)
          to label %invoke.cont12 unwind label %lpad11, !dbg !2515

invoke.cont12:                                    ; preds = %invoke.cont10
  %call14 = invoke dereferenceable(1) i8* @_ZN11xalanc_1_1011XalanVectorIcNS_31MemoryManagedConstructionTraitsIcEEEixEm(%"class.xalanc_1_10::XalanVector.0"* %cvtXalanVersion, i64 0)
          to label %invoke.cont13 unwind label %lpad11, !dbg !2516

invoke.cont13:                                    ; preds = %invoke.cont12
  %call16 = invoke dereferenceable(272) %"class.std::basic_ostream"* @_ZStlsISt11char_traitsIcEERSt13basic_ostreamIcT_ES5_PKc(%"class.std::basic_ostream"* dereferenceable(272) @_ZSt4cerr, i8* %call14)
          to label %invoke.cont15 unwind label %lpad11, !dbg !2517

invoke.cont15:                                    ; preds = %invoke.cont13
  %call18 = invoke dereferenceable(272) %"class.std::basic_ostream"* @_ZNSolsEPFRSoS_E(%"class.std::basic_ostream"* %call16, %"class.std::basic_ostream"* (%"class.std::basic_ostream"*)* @_ZSt4endlIcSt11char_traitsIcEERSt13basic_ostreamIT_T0_ES6_)
          to label %invoke.cont17 unwind label %lpad11, !dbg !2518

invoke.cont17:                                    ; preds = %invoke.cont15
  %call20 = invoke dereferenceable(1) i8* @_ZN11xalanc_1_1011XalanVectorIcNS_31MemoryManagedConstructionTraitsIcEEEixEm(%"class.xalanc_1_10::XalanVector.0"* %cvtXercesVersion, i64 0)
          to label %invoke.cont19 unwind label %lpad11, !dbg !2519

invoke.cont19:                                    ; preds = %invoke.cont17
  %call22 = invoke dereferenceable(272) %"class.std::basic_ostream"* @_ZStlsISt11char_traitsIcEERSt13basic_ostreamIcT_ES5_PKc(%"class.std::basic_ostream"* dereferenceable(272) @_ZSt4cerr, i8* %call20)
          to label %invoke.cont21 unwind label %lpad11, !dbg !2520

invoke.cont21:                                    ; preds = %invoke.cont19
  %call24 = invoke dereferenceable(272) %"class.std::basic_ostream"* @_ZNSolsEPFRSoS_E(%"class.std::basic_ostream"* %call22, %"class.std::basic_ostream"* (%"class.std::basic_ostream"*)* @_ZSt4endlIcSt11char_traitsIcEERSt13basic_ostreamIT_T0_ES6_)
          to label %invoke.cont23 unwind label %lpad11, !dbg !2521

invoke.cont23:                                    ; preds = %invoke.cont21
  call void @_ZN11xalanc_1_1011XalanVectorIcNS_31MemoryManagedConstructionTraitsIcEEED2Ev(%"class.xalanc_1_10::XalanVector.0"* %cvtXercesVersion) #3, !dbg !2522
  call void @_ZN11xalanc_1_1011XalanVectorIcNS_31MemoryManagedConstructionTraitsIcEEED2Ev(%"class.xalanc_1_10::XalanVector.0"* %cvtXalanVersion) #3, !dbg !2522
  br label %try.cont, !dbg !2523

lpad:                                             ; preds = %invoke.cont, %entry
  %6 = landingpad { i8*, i32 }
          cleanup, !dbg !2524
  %7 = extractvalue { i8*, i32 } %6, 0, !dbg !2524
  store i8* %7, i8** %exn.slot, align 8, !dbg !2524
  %8 = extractvalue { i8*, i32 } %6, 1, !dbg !2524
  store i32 %8, i32* %ehselector.slot, align 4, !dbg !2524
  br label %ehcleanup73, !dbg !2524

lpad3:                                            ; preds = %try.cont, %invoke.cont30, %invoke.cont2
  %9 = landingpad { i8*, i32 }
          cleanup, !dbg !2524
  %10 = extractvalue { i8*, i32 } %9, 0, !dbg !2524
  store i8* %10, i8** %exn.slot, align 8, !dbg !2524
  %11 = extractvalue { i8*, i32 } %9, 1, !dbg !2524
  store i32 %11, i32* %ehselector.slot, align 4, !dbg !2524
  br label %ehcleanup72, !dbg !2524

lpad6:                                            ; preds = %invoke.cont4
  %12 = landingpad { i8*, i32 }
          cleanup
          catch i8* bitcast ({ i8*, i8*, i8* }* @_ZTIN11xalanc_1_1014XalanDOMString16TranscodingErrorE to i8*), !dbg !2525
  %13 = extractvalue { i8*, i32 } %12, 0, !dbg !2525
  store i8* %13, i8** %exn.slot, align 8, !dbg !2525
  %14 = extractvalue { i8*, i32 } %12, 1, !dbg !2525
  store i32 %14, i32* %ehselector.slot, align 4, !dbg !2525
  br label %catch.dispatch, !dbg !2525

lpad8:                                            ; preds = %invoke.cont9, %invoke.cont7
  %15 = landingpad { i8*, i32 }
          cleanup
          catch i8* bitcast ({ i8*, i8*, i8* }* @_ZTIN11xalanc_1_1014XalanDOMString16TranscodingErrorE to i8*), !dbg !2525
  %16 = extractvalue { i8*, i32 } %15, 0, !dbg !2525
  store i8* %16, i8** %exn.slot, align 8, !dbg !2525
  %17 = extractvalue { i8*, i32 } %15, 1, !dbg !2525
  store i32 %17, i32* %ehselector.slot, align 4, !dbg !2525
  br label %ehcleanup, !dbg !2525

lpad11:                                           ; preds = %invoke.cont21, %invoke.cont19, %invoke.cont17, %invoke.cont15, %invoke.cont13, %invoke.cont12, %invoke.cont10
  %18 = landingpad { i8*, i32 }
          cleanup
          catch i8* bitcast ({ i8*, i8*, i8* }* @_ZTIN11xalanc_1_1014XalanDOMString16TranscodingErrorE to i8*), !dbg !2525
  %19 = extractvalue { i8*, i32 } %18, 0, !dbg !2525
  store i8* %19, i8** %exn.slot, align 8, !dbg !2525
  %20 = extractvalue { i8*, i32 } %18, 1, !dbg !2525
  store i32 %20, i32* %ehselector.slot, align 4, !dbg !2525
  call void @_ZN11xalanc_1_1011XalanVectorIcNS_31MemoryManagedConstructionTraitsIcEEED2Ev(%"class.xalanc_1_10::XalanVector.0"* %cvtXercesVersion) #3, !dbg !2522
  br label %ehcleanup, !dbg !2522

ehcleanup:                                        ; preds = %lpad11, %lpad8
  call void @_ZN11xalanc_1_1011XalanVectorIcNS_31MemoryManagedConstructionTraitsIcEEED2Ev(%"class.xalanc_1_10::XalanVector.0"* %cvtXalanVersion) #3, !dbg !2522
  br label %catch.dispatch, !dbg !2522

catch.dispatch:                                   ; preds = %ehcleanup, %lpad6
  %sel = load i32, i32* %ehselector.slot, align 4, !dbg !2523
  %21 = call i32 @llvm.eh.typeid.for(i8* bitcast ({ i8*, i8*, i8* }* @_ZTIN11xalanc_1_1014XalanDOMString16TranscodingErrorE to i8*)) #3, !dbg !2523
  %matches = icmp eq i32 %sel, %21, !dbg !2523
  br i1 %matches, label %catch, label %ehcleanup72, !dbg !2523

catch:                                            ; preds = %catch.dispatch
  call void @llvm.dbg.declare(metadata %"class.xalanc_1_10::XalanDOMString::TranscodingError"** %0, metadata !2526, metadata !DIExpression()), !dbg !2530
  %exn = load i8*, i8** %exn.slot, align 8, !dbg !2523
  %22 = call i8* @__cxa_begin_catch(i8* %exn) #3, !dbg !2523
  %exn.byref = bitcast i8* %22 to %"class.xalanc_1_10::XalanDOMString::TranscodingError"*, !dbg !2523
  store %"class.xalanc_1_10::XalanDOMString::TranscodingError"* %exn.byref, %"class.xalanc_1_10::XalanDOMString::TranscodingError"** %0, align 8, !dbg !2523
  %call27 = invoke dereferenceable(272) %"class.std::basic_ostream"* @_ZNSolsEPFRSoS_E(%"class.std::basic_ostream"* @_ZSt4cerr, %"class.std::basic_ostream"* (%"class.std::basic_ostream"*)* @_ZSt4endlIcSt11char_traitsIcEERSt13basic_ostreamIT_T0_ES6_)
          to label %invoke.cont26 unwind label %lpad25, !dbg !2531

invoke.cont26:                                    ; preds = %catch
  %call29 = invoke dereferenceable(272) %"class.std::basic_ostream"* @_ZStlsISt11char_traitsIcEERSt13basic_ostreamIcT_ES5_PKc(%"class.std::basic_ostream"* dereferenceable(272) %call27, i8* getelementptr inbounds ([53 x i8], [53 x i8]* @.str.2, i64 0, i64 0))
          to label %invoke.cont28 unwind label %lpad25, !dbg !2533

invoke.cont28:                                    ; preds = %invoke.cont26
  %call31 = invoke dereferenceable(272) %"class.std::basic_ostream"* @_ZNSolsEPFRSoS_E(%"class.std::basic_ostream"* %call29, %"class.std::basic_ostream"* (%"class.std::basic_ostream"*)* @_ZSt4endlIcSt11char_traitsIcEERSt13basic_ostreamIT_T0_ES6_)
          to label %invoke.cont30 unwind label %lpad25, !dbg !2534

invoke.cont30:                                    ; preds = %invoke.cont28
  store i8 0, i8* %bErrorState, align 1, !dbg !2535
  invoke void @__cxa_end_catch()
          to label %invoke.cont32 unwind label %lpad3, !dbg !2536

invoke.cont32:                                    ; preds = %invoke.cont30
  br label %try.cont, !dbg !2536

try.cont:                                         ; preds = %invoke.cont32, %invoke.cont23
  call void @llvm.dbg.declare(metadata %"class.xalanc_1_10::XalanVector.0"* %cvtXalanExeHelpMenu, metadata !2537, metadata !DIExpression()), !dbg !2538
  %23 = load %"class.xercesc_2_7::MemoryManager"*, %"class.xercesc_2_7::MemoryManager"** %theManager, align 8, !dbg !2539
  invoke void @_ZN11xalanc_1_1011XalanVectorIcNS_31MemoryManagedConstructionTraitsIcEEEC2ERN11xercesc_2_713MemoryManagerEm(%"class.xalanc_1_10::XalanVector.0"* %cvtXalanExeHelpMenu, %"class.xercesc_2_7::MemoryManager"* dereferenceable(8) %23, i64 0)
          to label %invoke.cont35 unwind label %lpad3, !dbg !2538

invoke.cont35:                                    ; preds = %try.cont
  call void @llvm.dbg.declare(metadata %"class.xalanc_1_10::XalanDOMString"* %theBuffer, metadata !2540, metadata !DIExpression()), !dbg !2541
  %24 = load %"class.xercesc_2_7::MemoryManager"*, %"class.xercesc_2_7::MemoryManager"** %theManager, align 8, !dbg !2542
  invoke void @_ZN11xalanc_1_1014XalanDOMStringC1ERN11xercesc_2_713MemoryManagerE(%"class.xalanc_1_10::XalanDOMString"* %theBuffer, %"class.xercesc_2_7::MemoryManager"* dereferenceable(8) %24)
          to label %invoke.cont37 unwind label %lpad36, !dbg !2541

invoke.cont37:                                    ; preds = %invoke.cont35
  call void @llvm.dbg.declare(metadata i32* %i, metadata !2543, metadata !DIExpression()), !dbg !2545
  store i32 156, i32* %i, align 4, !dbg !2545
  br label %for.cond, !dbg !2546

for.cond:                                         ; preds = %for.inc, %invoke.cont37
  %25 = load i8, i8* %bErrorState, align 1, !dbg !2547
  %tobool = trunc i8 %25 to i1, !dbg !2547
  br i1 %tobool, label %land.rhs, label %land.end, !dbg !2549

land.rhs:                                         ; preds = %for.cond
  %26 = load i32, i32* %i, align 4, !dbg !2550
  %cmp = icmp sle i32 %26, 169, !dbg !2551
  br label %land.end

land.end:                                         ; preds = %land.rhs, %for.cond
  %27 = phi i1 [ false, %for.cond ], [ %cmp, %land.rhs ], !dbg !2552
  br i1 %27, label %for.body, label %for.end, !dbg !2553

for.body:                                         ; preds = %land.end
  %28 = load i32, i32* %i, align 4, !dbg !2554
  %call40 = invoke dereferenceable(40) %"class.xalanc_1_10::XalanDOMString"* @_ZN11xalanc_1_1018XalanMessageLoader10getMessageERNS_14XalanDOMStringENS_13XalanMessages5CodesE(%"class.xalanc_1_10::XalanDOMString"* dereferenceable(40) %theBuffer, i32 %28)
          to label %invoke.cont39 unwind label %lpad38, !dbg !2557

invoke.cont39:                                    ; preds = %for.body
  invoke void @_ZNK11xalanc_1_1014XalanDOMString9transcodeERNS_11XalanVectorIcNS_31MemoryManagedConstructionTraitsIcEEEE(%"class.xalanc_1_10::XalanDOMString"* %theBuffer, %"class.xalanc_1_10::XalanVector.0"* dereferenceable(32) %cvtXalanExeHelpMenu)
          to label %invoke.cont41 unwind label %lpad38, !dbg !2558

invoke.cont41:                                    ; preds = %invoke.cont39
  %call43 = invoke dereferenceable(1) i8* @_ZN11xalanc_1_1011XalanVectorIcNS_31MemoryManagedConstructionTraitsIcEEEixEm(%"class.xalanc_1_10::XalanVector.0"* %cvtXalanExeHelpMenu, i64 0)
          to label %invoke.cont42 unwind label %lpad38, !dbg !2559

invoke.cont42:                                    ; preds = %invoke.cont41
  %call45 = invoke dereferenceable(272) %"class.std::basic_ostream"* @_ZStlsISt11char_traitsIcEERSt13basic_ostreamIcT_ES5_PKc(%"class.std::basic_ostream"* dereferenceable(272) @_ZSt4cerr, i8* %call43)
          to label %invoke.cont44 unwind label %lpad38, !dbg !2560

invoke.cont44:                                    ; preds = %invoke.cont42
  %call47 = invoke dereferenceable(272) %"class.std::basic_ostream"* @_ZNSolsEPFRSoS_E(%"class.std::basic_ostream"* %call45, %"class.std::basic_ostream"* (%"class.std::basic_ostream"*)* @_ZSt4endlIcSt11char_traitsIcEERSt13basic_ostreamIT_T0_ES6_)
          to label %invoke.cont46 unwind label %lpad38, !dbg !2561

invoke.cont46:                                    ; preds = %invoke.cont44
  br label %try.cont69, !dbg !2562

lpad25:                                           ; preds = %invoke.cont28, %invoke.cont26, %catch
  %29 = landingpad { i8*, i32 }
          cleanup, !dbg !2563
  %30 = extractvalue { i8*, i32 } %29, 0, !dbg !2563
  store i8* %30, i8** %exn.slot, align 8, !dbg !2563
  %31 = extractvalue { i8*, i32 } %29, 1, !dbg !2563
  store i32 %31, i32* %ehselector.slot, align 4, !dbg !2563
  invoke void @__cxa_end_catch()
          to label %invoke.cont34 unwind label %terminate.lpad, !dbg !2536

invoke.cont34:                                    ; preds = %lpad25
  br label %ehcleanup72, !dbg !2536

lpad36:                                           ; preds = %invoke.cont35
  %32 = landingpad { i8*, i32 }
          cleanup, !dbg !2524
  %33 = extractvalue { i8*, i32 } %32, 0, !dbg !2524
  store i8* %33, i8** %exn.slot, align 8, !dbg !2524
  %34 = extractvalue { i8*, i32 } %32, 1, !dbg !2524
  store i32 %34, i32* %ehselector.slot, align 4, !dbg !2524
  br label %ehcleanup71, !dbg !2524

lpad38:                                           ; preds = %invoke.cont44, %invoke.cont42, %invoke.cont41, %invoke.cont39, %for.body
  %35 = landingpad { i8*, i32 }
          cleanup
          catch i8* bitcast ({ i8*, i8*, i8* }* @_ZTIN11xalanc_1_1014XalanDOMString16TranscodingErrorE to i8*), !dbg !2564
  %36 = extractvalue { i8*, i32 } %35, 0, !dbg !2564
  store i8* %36, i8** %exn.slot, align 8, !dbg !2564
  %37 = extractvalue { i8*, i32 } %35, 1, !dbg !2564
  store i32 %37, i32* %ehselector.slot, align 4, !dbg !2564
  br label %catch.dispatch48, !dbg !2564

catch.dispatch48:                                 ; preds = %lpad38
  %sel49 = load i32, i32* %ehselector.slot, align 4, !dbg !2562
  %38 = call i32 @llvm.eh.typeid.for(i8* bitcast ({ i8*, i8*, i8* }* @_ZTIN11xalanc_1_1014XalanDOMString16TranscodingErrorE to i8*)) #3, !dbg !2562
  %matches50 = icmp eq i32 %sel49, %38, !dbg !2562
  br i1 %matches50, label %catch51, label %ehcleanup70, !dbg !2562

catch51:                                          ; preds = %catch.dispatch48
  call void @llvm.dbg.declare(metadata %"class.xalanc_1_10::XalanDOMString::TranscodingError"** %1, metadata !2565, metadata !DIExpression()), !dbg !2566
  %exn52 = load i8*, i8** %exn.slot, align 8, !dbg !2562
  %39 = call i8* @__cxa_begin_catch(i8* %exn52) #3, !dbg !2562
  %exn.byref53 = bitcast i8* %39 to %"class.xalanc_1_10::XalanDOMString::TranscodingError"*, !dbg !2562
  store %"class.xalanc_1_10::XalanDOMString::TranscodingError"* %exn.byref53, %"class.xalanc_1_10::XalanDOMString::TranscodingError"** %1, align 8, !dbg !2562
  %call56 = invoke dereferenceable(272) %"class.std::basic_ostream"* @_ZNSolsEPFRSoS_E(%"class.std::basic_ostream"* @_ZSt4cerr, %"class.std::basic_ostream"* (%"class.std::basic_ostream"*)* @_ZSt4endlIcSt11char_traitsIcEERSt13basic_ostreamIT_T0_ES6_)
          to label %invoke.cont55 unwind label %lpad54, !dbg !2567

invoke.cont55:                                    ; preds = %catch51
  %call58 = invoke dereferenceable(272) %"class.std::basic_ostream"* @_ZStlsISt11char_traitsIcEERSt13basic_ostreamIcT_ES5_PKc(%"class.std::basic_ostream"* dereferenceable(272) %call56, i8* getelementptr inbounds ([26 x i8], [26 x i8]* @.str.3, i64 0, i64 0))
          to label %invoke.cont57 unwind label %lpad54, !dbg !2569

invoke.cont57:                                    ; preds = %invoke.cont55
  %40 = load i32, i32* %i, align 4, !dbg !2570
  %call60 = invoke dereferenceable(272) %"class.std::basic_ostream"* @_ZNSolsEi(%"class.std::basic_ostream"* %call58, i32 %40)
          to label %invoke.cont59 unwind label %lpad54, !dbg !2571

invoke.cont59:                                    ; preds = %invoke.cont57
  %call62 = invoke dereferenceable(272) %"class.std::basic_ostream"* @_ZStlsISt11char_traitsIcEERSt13basic_ostreamIcT_ES5_PKc(%"class.std::basic_ostream"* dereferenceable(272) %call60, i8* getelementptr inbounds ([2 x i8], [2 x i8]* @.str.4, i64 0, i64 0))
          to label %invoke.cont61 unwind label %lpad54, !dbg !2572

invoke.cont61:                                    ; preds = %invoke.cont59
  %call64 = invoke dereferenceable(272) %"class.std::basic_ostream"* @_ZNSolsEPFRSoS_E(%"class.std::basic_ostream"* %call62, %"class.std::basic_ostream"* (%"class.std::basic_ostream"*)* @_ZSt4endlIcSt11char_traitsIcEERSt13basic_ostreamIT_T0_ES6_)
          to label %invoke.cont63 unwind label %lpad54, !dbg !2573

invoke.cont63:                                    ; preds = %invoke.cont61
  store i8 0, i8* %bErrorState, align 1, !dbg !2574
  invoke void @__cxa_end_catch()
          to label %invoke.cont66 unwind label %lpad65, !dbg !2575

invoke.cont66:                                    ; preds = %invoke.cont63
  br label %try.cont69, !dbg !2575

try.cont69:                                       ; preds = %invoke.cont66, %invoke.cont46
  br label %for.inc, !dbg !2576

for.inc:                                          ; preds = %try.cont69
  %41 = load i32, i32* %i, align 4, !dbg !2577
  %inc = add nsw i32 %41, 1, !dbg !2577
  store i32 %inc, i32* %i, align 4, !dbg !2577
  br label %for.cond, !dbg !2578, !llvm.loop !2579

lpad54:                                           ; preds = %invoke.cont61, %invoke.cont59, %invoke.cont57, %invoke.cont55, %catch51
  %42 = landingpad { i8*, i32 }
          cleanup, !dbg !2581
  %43 = extractvalue { i8*, i32 } %42, 0, !dbg !2581
  store i8* %43, i8** %exn.slot, align 8, !dbg !2581
  %44 = extractvalue { i8*, i32 } %42, 1, !dbg !2581
  store i32 %44, i32* %ehselector.slot, align 4, !dbg !2581
  invoke void @__cxa_end_catch()
          to label %invoke.cont68 unwind label %terminate.lpad, !dbg !2575

lpad65:                                           ; preds = %invoke.cont63
  %45 = landingpad { i8*, i32 }
          cleanup, !dbg !2582
  %46 = extractvalue { i8*, i32 } %45, 0, !dbg !2582
  store i8* %46, i8** %exn.slot, align 8, !dbg !2582
  %47 = extractvalue { i8*, i32 } %45, 1, !dbg !2582
  store i32 %47, i32* %ehselector.slot, align 4, !dbg !2582
  br label %ehcleanup70, !dbg !2582

invoke.cont68:                                    ; preds = %lpad54
  br label %ehcleanup70, !dbg !2575

for.end:                                          ; preds = %land.end
  call void @_ZN11xalanc_1_1014XalanDOMStringD2Ev(%"class.xalanc_1_10::XalanDOMString"* %theBuffer) #3, !dbg !2524
  call void @_ZN11xalanc_1_1011XalanVectorIcNS_31MemoryManagedConstructionTraitsIcEEED2Ev(%"class.xalanc_1_10::XalanVector.0"* %cvtXalanExeHelpMenu) #3, !dbg !2524
  call void @_ZN11xalanc_1_1014XalanDOMStringD2Ev(%"class.xalanc_1_10::XalanDOMString"* %szXercesVersion) #3, !dbg !2524
  call void @_ZN11xalanc_1_1014XalanDOMStringD2Ev(%"class.xalanc_1_10::XalanDOMString"* %szXalanVersion) #3, !dbg !2524
  ret void, !dbg !2524

ehcleanup70:                                      ; preds = %invoke.cont68, %lpad65, %catch.dispatch48
  call void @_ZN11xalanc_1_1014XalanDOMStringD2Ev(%"class.xalanc_1_10::XalanDOMString"* %theBuffer) #3, !dbg !2524
  br label %ehcleanup71, !dbg !2524

ehcleanup71:                                      ; preds = %ehcleanup70, %lpad36
  call void @_ZN11xalanc_1_1011XalanVectorIcNS_31MemoryManagedConstructionTraitsIcEEED2Ev(%"class.xalanc_1_10::XalanVector.0"* %cvtXalanExeHelpMenu) #3, !dbg !2524
  br label %ehcleanup72, !dbg !2524

ehcleanup72:                                      ; preds = %ehcleanup71, %invoke.cont34, %catch.dispatch, %lpad3
  call void @_ZN11xalanc_1_1014XalanDOMStringD2Ev(%"class.xalanc_1_10::XalanDOMString"* %szXercesVersion) #3, !dbg !2524
  br label %ehcleanup73, !dbg !2524

ehcleanup73:                                      ; preds = %ehcleanup72, %lpad
  call void @_ZN11xalanc_1_1014XalanDOMStringD2Ev(%"class.xalanc_1_10::XalanDOMString"* %szXalanVersion) #3, !dbg !2524
  br label %eh.resume, !dbg !2524

eh.resume:                                        ; preds = %ehcleanup73
  %exn74 = load i8*, i8** %exn.slot, align 8, !dbg !2524
  %sel75 = load i32, i32* %ehselector.slot, align 4, !dbg !2524
  %lpad.val = insertvalue { i8*, i32 } undef, i8* %exn74, 0, !dbg !2524
  %lpad.val76 = insertvalue { i8*, i32 } %lpad.val, i32 %sel75, 1, !dbg !2524
  resume { i8*, i32 } %lpad.val76, !dbg !2524

terminate.lpad:                                   ; preds = %lpad54, %lpad25
  %48 = landingpad { i8*, i32 }
          catch i8* null, !dbg !2536
  %49 = extractvalue { i8*, i32 } %48, 0, !dbg !2536
  call void @__clang_call_terminate(i8* %49) #14, !dbg !2536
  unreachable, !dbg !2536
}

declare dso_local dereferenceable(8) %"class.xercesc_2_7::MemoryManager"* @_ZN11xalanc_1_1012XalanMemMgrs22getDefaultXercesMemMgrEv() #1

declare dso_local void @_ZN11xalanc_1_1014XalanDOMStringC1ERN11xercesc_2_713MemoryManagerE(%"class.xalanc_1_10::XalanDOMString"*, %"class.xercesc_2_7::MemoryManager"* dereferenceable(8)) unnamed_addr #1

declare dso_local dereferenceable(40) %"class.xalanc_1_10::XalanDOMString"* @_ZN11xalanc_1_1018XalanMessageLoader10getMessageERNS_14XalanDOMStringENS_13XalanMessages5CodesEPKcS6_S6_S6_(%"class.xalanc_1_10::XalanDOMString"* dereferenceable(40), i32, i8*, i8*, i8*, i8*) #1

declare dso_local i32 @__gxx_personality_v0(...)

; Function Attrs: noinline uwtable
define linkonce_odr dso_local void @_ZN11xalanc_1_1011XalanVectorIcNS_31MemoryManagedConstructionTraitsIcEEEC2ERN11xercesc_2_713MemoryManagerEm(%"class.xalanc_1_10::XalanVector.0"* %this, %"class.xercesc_2_7::MemoryManager"* dereferenceable(8) %theManager, i64 %initialAllocation) unnamed_addr #0 comdat align 2 !dbg !2583 {
entry:
  %this.addr = alloca %"class.xalanc_1_10::XalanVector.0"*, align 8
  %theManager.addr = alloca %"class.xercesc_2_7::MemoryManager"*, align 8
  %initialAllocation.addr = alloca i64, align 8
  store %"class.xalanc_1_10::XalanVector.0"* %this, %"class.xalanc_1_10::XalanVector.0"** %this.addr, align 8
  call void @llvm.dbg.declare(metadata %"class.xalanc_1_10::XalanVector.0"** %this.addr, metadata !2584, metadata !DIExpression()), !dbg !2585
  store %"class.xercesc_2_7::MemoryManager"* %theManager, %"class.xercesc_2_7::MemoryManager"** %theManager.addr, align 8
  call void @llvm.dbg.declare(metadata %"class.xercesc_2_7::MemoryManager"** %theManager.addr, metadata !2586, metadata !DIExpression()), !dbg !2587
  store i64 %initialAllocation, i64* %initialAllocation.addr, align 8
  call void @llvm.dbg.declare(metadata i64* %initialAllocation.addr, metadata !2588, metadata !DIExpression()), !dbg !2589
  %this1 = load %"class.xalanc_1_10::XalanVector.0"*, %"class.xalanc_1_10::XalanVector.0"** %this.addr, align 8
  %m_memoryManager = getelementptr inbounds %"class.xalanc_1_10::XalanVector.0", %"class.xalanc_1_10::XalanVector.0"* %this1, i32 0, i32 0, !dbg !2590
  %0 = load %"class.xercesc_2_7::MemoryManager"*, %"class.xercesc_2_7::MemoryManager"** %theManager.addr, align 8, !dbg !2591
  store %"class.xercesc_2_7::MemoryManager"* %0, %"class.xercesc_2_7::MemoryManager"** %m_memoryManager, align 8, !dbg !2590
  %m_size = getelementptr inbounds %"class.xalanc_1_10::XalanVector.0", %"class.xalanc_1_10::XalanVector.0"* %this1, i32 0, i32 1, !dbg !2592
  store i64 0, i64* %m_size, align 8, !dbg !2592
  %m_allocation = getelementptr inbounds %"class.xalanc_1_10::XalanVector.0", %"class.xalanc_1_10::XalanVector.0"* %this1, i32 0, i32 2, !dbg !2593
  %1 = load i64, i64* %initialAllocation.addr, align 8, !dbg !2594
  store i64 %1, i64* %m_allocation, align 8, !dbg !2593
  %m_data = getelementptr inbounds %"class.xalanc_1_10::XalanVector.0", %"class.xalanc_1_10::XalanVector.0"* %this1, i32 0, i32 3, !dbg !2595
  %2 = load i64, i64* %initialAllocation.addr, align 8, !dbg !2596
  %cmp = icmp ugt i64 %2, 0, !dbg !2597
  br i1 %cmp, label %cond.true, label %cond.false, !dbg !2596

cond.true:                                        ; preds = %entry
  %3 = load i64, i64* %initialAllocation.addr, align 8, !dbg !2598
  %call = call i8* @_ZN11xalanc_1_1011XalanVectorIcNS_31MemoryManagedConstructionTraitsIcEEE8allocateEm(%"class.xalanc_1_10::XalanVector.0"* %this1, i64 %3), !dbg !2599
  br label %cond.end, !dbg !2596

cond.false:                                       ; preds = %entry
  br label %cond.end, !dbg !2596

cond.end:                                         ; preds = %cond.false, %cond.true
  %cond = phi i8* [ %call, %cond.true ], [ null, %cond.false ], !dbg !2596
  store i8* %cond, i8** %m_data, align 8, !dbg !2595
  call void @_ZNK11xalanc_1_1011XalanVectorIcNS_31MemoryManagedConstructionTraitsIcEEE10invariantsEv(%"class.xalanc_1_10::XalanVector.0"* %this1), !dbg !2600
  ret void, !dbg !2602
}

declare dso_local void @_ZNK11xalanc_1_1014XalanDOMString9transcodeERNS_11XalanVectorIcNS_31MemoryManagedConstructionTraitsIcEEEE(%"class.xalanc_1_10::XalanDOMString"*, %"class.xalanc_1_10::XalanVector.0"* dereferenceable(32)) #1

declare dso_local dereferenceable(272) %"class.std::basic_ostream"* @_ZStlsISt11char_traitsIcEERSt13basic_ostreamIcT_ES5_PKc(%"class.std::basic_ostream"* dereferenceable(272), i8*) #1

; Function Attrs: noinline nounwind uwtable
define linkonce_odr dso_local dereferenceable(1) i8* @_ZN11xalanc_1_1011XalanVectorIcNS_31MemoryManagedConstructionTraitsIcEEEixEm(%"class.xalanc_1_10::XalanVector.0"* %this, i64 %theIndex) #5 comdat align 2 !dbg !2603 {
entry:
  %this.addr = alloca %"class.xalanc_1_10::XalanVector.0"*, align 8
  %theIndex.addr = alloca i64, align 8
  store %"class.xalanc_1_10::XalanVector.0"* %this, %"class.xalanc_1_10::XalanVector.0"** %this.addr, align 8
  call void @llvm.dbg.declare(metadata %"class.xalanc_1_10::XalanVector.0"** %this.addr, metadata !2604, metadata !DIExpression()), !dbg !2605
  store i64 %theIndex, i64* %theIndex.addr, align 8
  call void @llvm.dbg.declare(metadata i64* %theIndex.addr, metadata !2606, metadata !DIExpression()), !dbg !2607
  %this1 = load %"class.xalanc_1_10::XalanVector.0"*, %"class.xalanc_1_10::XalanVector.0"** %this.addr, align 8
  %m_data = getelementptr inbounds %"class.xalanc_1_10::XalanVector.0", %"class.xalanc_1_10::XalanVector.0"* %this1, i32 0, i32 3, !dbg !2608
  %0 = load i8*, i8** %m_data, align 8, !dbg !2608
  %1 = load i64, i64* %theIndex.addr, align 8, !dbg !2609
  %arrayidx = getelementptr inbounds i8, i8* %0, i64 %1, !dbg !2608
  ret i8* %arrayidx, !dbg !2610
}

declare dso_local dereferenceable(272) %"class.std::basic_ostream"* @_ZNSolsEPFRSoS_E(%"class.std::basic_ostream"*, %"class.std::basic_ostream"* (%"class.std::basic_ostream"*)*) #1

declare dso_local dereferenceable(272) %"class.std::basic_ostream"* @_ZSt4endlIcSt11char_traitsIcEERSt13basic_ostreamIT_T0_ES6_(%"class.std::basic_ostream"* dereferenceable(272)) #1

; Function Attrs: noinline nounwind uwtable
define linkonce_odr dso_local void @_ZN11xalanc_1_1011XalanVectorIcNS_31MemoryManagedConstructionTraitsIcEEED2Ev(%"class.xalanc_1_10::XalanVector.0"* %this) unnamed_addr #5 comdat align 2 personality i8* bitcast (i32 (...)* @__gxx_personality_v0 to i8*) !dbg !2611 {
entry:
  %this.addr = alloca %"class.xalanc_1_10::XalanVector.0"*, align 8
  store %"class.xalanc_1_10::XalanVector.0"* %this, %"class.xalanc_1_10::XalanVector.0"** %this.addr, align 8
  call void @llvm.dbg.declare(metadata %"class.xalanc_1_10::XalanVector.0"** %this.addr, metadata !2612, metadata !DIExpression()), !dbg !2613
  %this1 = load %"class.xalanc_1_10::XalanVector.0"*, %"class.xalanc_1_10::XalanVector.0"** %this.addr, align 8
  invoke void @_ZNK11xalanc_1_1011XalanVectorIcNS_31MemoryManagedConstructionTraitsIcEEE10invariantsEv(%"class.xalanc_1_10::XalanVector.0"* %this1)
          to label %invoke.cont unwind label %terminate.lpad, !dbg !2614

invoke.cont:                                      ; preds = %entry
  %m_allocation = getelementptr inbounds %"class.xalanc_1_10::XalanVector.0", %"class.xalanc_1_10::XalanVector.0"* %this1, i32 0, i32 2, !dbg !2616
  %0 = load i64, i64* %m_allocation, align 8, !dbg !2616
  %cmp = icmp ne i64 %0, 0, !dbg !2618
  br i1 %cmp, label %if.then, label %if.end, !dbg !2619

if.then:                                          ; preds = %invoke.cont
  %call = invoke i8* @_ZN11xalanc_1_1011XalanVectorIcNS_31MemoryManagedConstructionTraitsIcEEE5beginEv(%"class.xalanc_1_10::XalanVector.0"* %this1)
          to label %invoke.cont2 unwind label %terminate.lpad, !dbg !2620

invoke.cont2:                                     ; preds = %if.then
  %call4 = invoke i8* @_ZN11xalanc_1_1011XalanVectorIcNS_31MemoryManagedConstructionTraitsIcEEE3endEv(%"class.xalanc_1_10::XalanVector.0"* %this1)
          to label %invoke.cont3 unwind label %terminate.lpad, !dbg !2622

invoke.cont3:                                     ; preds = %invoke.cont2
  invoke void @_ZN11xalanc_1_1011XalanVectorIcNS_31MemoryManagedConstructionTraitsIcEEE7destroyEPcS4_(i8* %call, i8* %call4)
          to label %invoke.cont5 unwind label %terminate.lpad, !dbg !2623

invoke.cont5:                                     ; preds = %invoke.cont3
  %m_data = getelementptr inbounds %"class.xalanc_1_10::XalanVector.0", %"class.xalanc_1_10::XalanVector.0"* %this1, i32 0, i32 3, !dbg !2624
  %1 = load i8*, i8** %m_data, align 8, !dbg !2624
  invoke void @_ZN11xalanc_1_1011XalanVectorIcNS_31MemoryManagedConstructionTraitsIcEEE10deallocateEPc(%"class.xalanc_1_10::XalanVector.0"* %this1, i8* %1)
          to label %invoke.cont6 unwind label %terminate.lpad, !dbg !2625

invoke.cont6:                                     ; preds = %invoke.cont5
  br label %if.end, !dbg !2626

if.end:                                           ; preds = %invoke.cont6, %invoke.cont
  ret void, !dbg !2627

terminate.lpad:                                   ; preds = %invoke.cont5, %invoke.cont3, %invoke.cont2, %if.then, %entry
  %2 = landingpad { i8*, i32 }
          catch i8* null, !dbg !2614
  %3 = extractvalue { i8*, i32 } %2, 0, !dbg !2614
  call void @__clang_call_terminate(i8* %3) #14, !dbg !2614
  unreachable, !dbg !2614
}

; Function Attrs: nounwind readnone
declare i32 @llvm.eh.typeid.for(i8*) #7

declare dso_local i8* @__cxa_begin_catch(i8*)

declare dso_local void @__cxa_end_catch()

; Function Attrs: noinline noreturn nounwind
define linkonce_odr hidden void @__clang_call_terminate(i8* %0) #8 comdat {
  %2 = call i8* @__cxa_begin_catch(i8* %0) #3
  call void @_ZSt9terminatev() #14
  unreachable
}

declare dso_local void @_ZSt9terminatev()

declare dso_local dereferenceable(40) %"class.xalanc_1_10::XalanDOMString"* @_ZN11xalanc_1_1018XalanMessageLoader10getMessageERNS_14XalanDOMStringENS_13XalanMessages5CodesE(%"class.xalanc_1_10::XalanDOMString"* dereferenceable(40), i32) #1

declare dso_local dereferenceable(272) %"class.std::basic_ostream"* @_ZNSolsEi(%"class.std::basic_ostream"*, i32) #1

; Function Attrs: noinline nounwind uwtable
define linkonce_odr dso_local void @_ZN11xalanc_1_1014XalanDOMStringD2Ev(%"class.xalanc_1_10::XalanDOMString"* %this) unnamed_addr #5 comdat align 2 !dbg !2628 {
entry:
  %this.addr = alloca %"class.xalanc_1_10::XalanDOMString"*, align 8
  store %"class.xalanc_1_10::XalanDOMString"* %this, %"class.xalanc_1_10::XalanDOMString"** %this.addr, align 8
  call void @llvm.dbg.declare(metadata %"class.xalanc_1_10::XalanDOMString"** %this.addr, metadata !2629, metadata !DIExpression()), !dbg !2630
  %this1 = load %"class.xalanc_1_10::XalanDOMString"*, %"class.xalanc_1_10::XalanDOMString"** %this.addr, align 8
  %m_data = getelementptr inbounds %"class.xalanc_1_10::XalanDOMString", %"class.xalanc_1_10::XalanDOMString"* %this1, i32 0, i32 0, !dbg !2631
  call void @_ZN11xalanc_1_1011XalanVectorItNS_31MemoryManagedConstructionTraitsItEEED2Ev(%"class.xalanc_1_10::XalanVector"* %m_data) #3, !dbg !2631
  ret void, !dbg !2633
}

; Function Attrs: noinline uwtable
define dso_local zeroext i1 @_Z7getArgsiPPcR6Params(i32 %argc, i8** %argv, %class.Params* dereferenceable(72) %params) #0 !dbg !2634 {
entry:
  %retval = alloca i1, align 1
  %argc.addr = alloca i32, align 4
  %argv.addr = alloca i8**, align 8
  %params.addr = alloca %class.Params*, align 8
  %fSuccess = alloca i8, align 1
  %i = alloca i32, align 4
  %name = alloca i8*, align 8
  %value = alloca i8*, align 8
  store i32 %argc, i32* %argc.addr, align 4
  call void @llvm.dbg.declare(metadata i32* %argc.addr, metadata !2638, metadata !DIExpression()), !dbg !2639
  store i8** %argv, i8*** %argv.addr, align 8
  call void @llvm.dbg.declare(metadata i8*** %argv.addr, metadata !2640, metadata !DIExpression()), !dbg !2641
  store %class.Params* %params, %class.Params** %params.addr, align 8
  call void @llvm.dbg.declare(metadata %class.Params** %params.addr, metadata !2642, metadata !DIExpression()), !dbg !2643
  call void @llvm.dbg.declare(metadata i8* %fSuccess, metadata !2644, metadata !DIExpression()), !dbg !2645
  store i8 1, i8* %fSuccess, align 1, !dbg !2645
  call void @llvm.dbg.declare(metadata i32* %i, metadata !2646, metadata !DIExpression()), !dbg !2648
  store i32 1, i32* %i, align 4, !dbg !2648
  br label %for.cond, !dbg !2649

for.cond:                                         ; preds = %for.inc, %entry
  %0 = load i32, i32* %i, align 4, !dbg !2650
  %1 = load i32, i32* %argc.addr, align 4, !dbg !2652
  %cmp = icmp slt i32 %0, %1, !dbg !2653
  br i1 %cmp, label %land.rhs, label %land.end, !dbg !2654

land.rhs:                                         ; preds = %for.cond
  %2 = load i8, i8* %fSuccess, align 1, !dbg !2655
  %tobool = trunc i8 %2 to i1, !dbg !2655
  %conv = zext i1 %tobool to i32, !dbg !2655
  %cmp1 = icmp eq i32 %conv, 1, !dbg !2656
  br label %land.end

land.end:                                         ; preds = %land.rhs, %for.cond
  %3 = phi i1 [ false, %for.cond ], [ %cmp1, %land.rhs ], !dbg !2657
  br i1 %3, label %for.body, label %for.end, !dbg !2658

for.body:                                         ; preds = %land.end
  %4 = load i8**, i8*** %argv.addr, align 8, !dbg !2659
  %5 = load i32, i32* %i, align 4, !dbg !2662
  %idxprom = sext i32 %5 to i64, !dbg !2659
  %arrayidx = getelementptr inbounds i8*, i8** %4, i64 %idxprom, !dbg !2659
  %6 = load i8*, i8** %arrayidx, align 8, !dbg !2659
  %arrayidx2 = getelementptr inbounds i8, i8* %6, i64 0, !dbg !2659
  %7 = load i8, i8* %arrayidx2, align 1, !dbg !2659
  %conv3 = sext i8 %7 to i32, !dbg !2659
  %cmp4 = icmp eq i32 %conv3, 45, !dbg !2663
  br i1 %cmp4, label %land.lhs.true, label %if.else173, !dbg !2664

land.lhs.true:                                    ; preds = %for.body
  %8 = load i8**, i8*** %argv.addr, align 8, !dbg !2665
  %9 = load i32, i32* %i, align 4, !dbg !2666
  %idxprom5 = sext i32 %9 to i64, !dbg !2665
  %arrayidx6 = getelementptr inbounds i8*, i8** %8, i64 %idxprom5, !dbg !2665
  %10 = load i8*, i8** %arrayidx6, align 8, !dbg !2665
  %arrayidx7 = getelementptr inbounds i8, i8* %10, i64 1, !dbg !2665
  %11 = load i8, i8* %arrayidx7, align 1, !dbg !2665
  %conv8 = sext i8 %11 to i32, !dbg !2665
  %cmp9 = icmp ne i32 %conv8, 0, !dbg !2667
  br i1 %cmp9, label %if.then, label %if.else173, !dbg !2668

if.then:                                          ; preds = %land.lhs.true
  %12 = load i8**, i8*** %argv.addr, align 8, !dbg !2669
  %13 = load i32, i32* %i, align 4, !dbg !2672
  %idxprom10 = sext i32 %13 to i64, !dbg !2669
  %arrayidx11 = getelementptr inbounds i8*, i8** %12, i64 %idxprom10, !dbg !2669
  %14 = load i8*, i8** %arrayidx11, align 8, !dbg !2669
  %arrayidx12 = getelementptr inbounds i8, i8* %14, i64 2, !dbg !2669
  %15 = load i8, i8* %arrayidx12, align 1, !dbg !2669
  %conv13 = sext i8 %15 to i32, !dbg !2669
  %cmp14 = icmp ne i32 %conv13, 0, !dbg !2673
  br i1 %cmp14, label %if.then15, label %if.else, !dbg !2674

if.then15:                                        ; preds = %if.then
  store i8 0, i8* %fSuccess, align 1, !dbg !2675
  br label %if.end172, !dbg !2677

if.else:                                          ; preds = %if.then
  %16 = load %class.Params*, %class.Params** %params.addr, align 8, !dbg !2678
  %m_inFileName = getelementptr inbounds %class.Params, %class.Params* %16, i32 0, i32 6, !dbg !2680
  %17 = load i8*, i8** %m_inFileName, align 8, !dbg !2680
  %cmp16 = icmp ne i8* %17, null, !dbg !2681
  br i1 %cmp16, label %if.then18, label %lor.lhs.false, !dbg !2682

lor.lhs.false:                                    ; preds = %if.else
  %18 = load %class.Params*, %class.Params** %params.addr, align 8, !dbg !2683
  %m_xslFileName = getelementptr inbounds %class.Params, %class.Params* %18, i32 0, i32 7, !dbg !2684
  %19 = load i8*, i8** %m_xslFileName, align 8, !dbg !2684
  %cmp17 = icmp ne i8* %19, null, !dbg !2685
  br i1 %cmp17, label %if.then18, label %if.else19, !dbg !2686

if.then18:                                        ; preds = %lor.lhs.false, %if.else
  store i8 0, i8* %fSuccess, align 1, !dbg !2687
  br label %if.end171, !dbg !2689

if.else19:                                        ; preds = %lor.lhs.false
  %20 = load i8**, i8*** %argv.addr, align 8, !dbg !2690
  %21 = load i32, i32* %i, align 4, !dbg !2692
  %idxprom20 = sext i32 %21 to i64, !dbg !2690
  %arrayidx21 = getelementptr inbounds i8*, i8** %20, i64 %idxprom20, !dbg !2690
  %22 = load i8*, i8** %arrayidx21, align 8, !dbg !2690
  %arrayidx22 = getelementptr inbounds i8, i8* %22, i64 1, !dbg !2690
  %23 = load i8, i8* %arrayidx22, align 1, !dbg !2690
  %conv23 = sext i8 %23 to i32, !dbg !2690
  %cmp24 = icmp eq i32 %conv23, 97, !dbg !2693
  br i1 %cmp24, label %if.then25, label %if.else26, !dbg !2694

if.then25:                                        ; preds = %if.else19
  %24 = load %class.Params*, %class.Params** %params.addr, align 8, !dbg !2695
  %m_useStylesheetPI = getelementptr inbounds %class.Params, %class.Params* %24, i32 0, i32 1, !dbg !2697
  store i8 1, i8* %m_useStylesheetPI, align 1, !dbg !2698
  br label %if.end170, !dbg !2699

if.else26:                                        ; preds = %if.else19
  %25 = load i8**, i8*** %argv.addr, align 8, !dbg !2700
  %26 = load i32, i32* %i, align 4, !dbg !2702
  %idxprom27 = sext i32 %26 to i64, !dbg !2700
  %arrayidx28 = getelementptr inbounds i8*, i8** %25, i64 %idxprom27, !dbg !2700
  %27 = load i8*, i8** %arrayidx28, align 8, !dbg !2700
  %arrayidx29 = getelementptr inbounds i8, i8* %27, i64 1, !dbg !2700
  %28 = load i8, i8* %arrayidx29, align 1, !dbg !2700
  %conv30 = sext i8 %28 to i32, !dbg !2700
  %cmp31 = icmp eq i32 %conv30, 101, !dbg !2703
  br i1 %cmp31, label %if.then32, label %if.else48, !dbg !2704

if.then32:                                        ; preds = %if.else26
  %29 = load i32, i32* %i, align 4, !dbg !2705
  %inc = add nsw i32 %29, 1, !dbg !2705
  store i32 %inc, i32* %i, align 4, !dbg !2705
  %30 = load i32, i32* %i, align 4, !dbg !2707
  %31 = load i32, i32* %argc.addr, align 4, !dbg !2709
  %cmp33 = icmp slt i32 %30, %31, !dbg !2710
  br i1 %cmp33, label %land.lhs.true34, label %if.else47, !dbg !2711

land.lhs.true34:                                  ; preds = %if.then32
  %32 = load i8**, i8*** %argv.addr, align 8, !dbg !2712
  %33 = load i32, i32* %i, align 4, !dbg !2713
  %idxprom35 = sext i32 %33 to i64, !dbg !2712
  %arrayidx36 = getelementptr inbounds i8*, i8** %32, i64 %idxprom35, !dbg !2712
  %34 = load i8*, i8** %arrayidx36, align 8, !dbg !2712
  %arrayidx37 = getelementptr inbounds i8, i8* %34, i64 0, !dbg !2712
  %35 = load i8, i8* %arrayidx37, align 1, !dbg !2712
  %conv38 = sext i8 %35 to i32, !dbg !2712
  %cmp39 = icmp ne i32 %conv38, 45, !dbg !2714
  br i1 %cmp39, label %land.lhs.true40, label %if.else47, !dbg !2715

land.lhs.true40:                                  ; preds = %land.lhs.true34
  %36 = load i8**, i8*** %argv.addr, align 8, !dbg !2716
  %37 = load i32, i32* %i, align 4, !dbg !2717
  %idxprom41 = sext i32 %37 to i64, !dbg !2716
  %arrayidx42 = getelementptr inbounds i8*, i8** %36, i64 %idxprom41, !dbg !2716
  %38 = load i8*, i8** %arrayidx42, align 8, !dbg !2716
  %call = call i64 @strlen(i8* %38) #15, !dbg !2718
  %cmp43 = icmp ne i64 %call, 0, !dbg !2719
  br i1 %cmp43, label %if.then44, label %if.else47, !dbg !2720

if.then44:                                        ; preds = %land.lhs.true40
  %39 = load i8**, i8*** %argv.addr, align 8, !dbg !2721
  %40 = load i32, i32* %i, align 4, !dbg !2723
  %idxprom45 = sext i32 %40 to i64, !dbg !2721
  %arrayidx46 = getelementptr inbounds i8*, i8** %39, i64 %idxprom45, !dbg !2721
  %41 = load i8*, i8** %arrayidx46, align 8, !dbg !2721
  %42 = load %class.Params*, %class.Params** %params.addr, align 8, !dbg !2724
  %m_encoding = getelementptr inbounds %class.Params, %class.Params* %42, i32 0, i32 9, !dbg !2725
  store i8* %41, i8** %m_encoding, align 8, !dbg !2726
  br label %if.end, !dbg !2727

if.else47:                                        ; preds = %land.lhs.true40, %land.lhs.true34, %if.then32
  store i8 0, i8* %fSuccess, align 1, !dbg !2728
  br label %if.end

if.end:                                           ; preds = %if.else47, %if.then44
  br label %if.end169, !dbg !2730

if.else48:                                        ; preds = %if.else26
  %43 = load i8**, i8*** %argv.addr, align 8, !dbg !2731
  %44 = load i32, i32* %i, align 4, !dbg !2733
  %idxprom49 = sext i32 %44 to i64, !dbg !2731
  %arrayidx50 = getelementptr inbounds i8*, i8** %43, i64 %idxprom49, !dbg !2731
  %45 = load i8*, i8** %arrayidx50, align 8, !dbg !2731
  %arrayidx51 = getelementptr inbounds i8, i8* %45, i64 1, !dbg !2731
  %46 = load i8, i8* %arrayidx51, align 1, !dbg !2731
  %conv52 = sext i8 %46 to i32, !dbg !2731
  %cmp53 = icmp eq i32 %conv52, 105, !dbg !2734
  br i1 %cmp53, label %if.then54, label %if.else74, !dbg !2735

if.then54:                                        ; preds = %if.else48
  %47 = load i32, i32* %i, align 4, !dbg !2736
  %inc55 = add nsw i32 %47, 1, !dbg !2736
  store i32 %inc55, i32* %i, align 4, !dbg !2736
  %48 = load i32, i32* %i, align 4, !dbg !2738
  %49 = load i32, i32* %argc.addr, align 4, !dbg !2740
  %cmp56 = icmp slt i32 %48, %49, !dbg !2741
  br i1 %cmp56, label %land.lhs.true57, label %if.else72, !dbg !2742

land.lhs.true57:                                  ; preds = %if.then54
  %50 = load i8**, i8*** %argv.addr, align 8, !dbg !2743
  %51 = load i32, i32* %i, align 4, !dbg !2744
  %idxprom58 = sext i32 %51 to i64, !dbg !2743
  %arrayidx59 = getelementptr inbounds i8*, i8** %50, i64 %idxprom58, !dbg !2743
  %52 = load i8*, i8** %arrayidx59, align 8, !dbg !2743
  %arrayidx60 = getelementptr inbounds i8, i8* %52, i64 0, !dbg !2743
  %53 = load i8, i8* %arrayidx60, align 1, !dbg !2743
  %conv61 = sext i8 %53 to i32, !dbg !2743
  %cmp62 = icmp ne i32 %conv61, 45, !dbg !2745
  br i1 %cmp62, label %land.lhs.true63, label %if.else72, !dbg !2746

land.lhs.true63:                                  ; preds = %land.lhs.true57
  %54 = load i8**, i8*** %argv.addr, align 8, !dbg !2747
  %55 = load i32, i32* %i, align 4, !dbg !2748
  %idxprom64 = sext i32 %55 to i64, !dbg !2747
  %arrayidx65 = getelementptr inbounds i8*, i8** %54, i64 %idxprom64, !dbg !2747
  %56 = load i8*, i8** %arrayidx65, align 8, !dbg !2747
  %call66 = call i64 @strlen(i8* %56) #15, !dbg !2749
  %cmp67 = icmp ne i64 %call66, 0, !dbg !2750
  br i1 %cmp67, label %if.then68, label %if.else72, !dbg !2751

if.then68:                                        ; preds = %land.lhs.true63
  %57 = load i8**, i8*** %argv.addr, align 8, !dbg !2752
  %58 = load i32, i32* %i, align 4, !dbg !2754
  %idxprom69 = sext i32 %58 to i64, !dbg !2752
  %arrayidx70 = getelementptr inbounds i8*, i8** %57, i64 %idxprom69, !dbg !2752
  %59 = load i8*, i8** %arrayidx70, align 8, !dbg !2752
  %call71 = call i32 @atoi(i8* %59) #15, !dbg !2755
  %60 = load %class.Params*, %class.Params** %params.addr, align 8, !dbg !2756
  %m_indentAmount = getelementptr inbounds %class.Params, %class.Params* %60, i32 0, i32 5, !dbg !2757
  store i32 %call71, i32* %m_indentAmount, align 8, !dbg !2758
  br label %if.end73, !dbg !2759

if.else72:                                        ; preds = %land.lhs.true63, %land.lhs.true57, %if.then54
  store i8 0, i8* %fSuccess, align 1, !dbg !2760
  br label %if.end73

if.end73:                                         ; preds = %if.else72, %if.then68
  br label %if.end168, !dbg !2762

if.else74:                                        ; preds = %if.else48
  %61 = load i8**, i8*** %argv.addr, align 8, !dbg !2763
  %62 = load i32, i32* %i, align 4, !dbg !2765
  %idxprom75 = sext i32 %62 to i64, !dbg !2763
  %arrayidx76 = getelementptr inbounds i8*, i8** %61, i64 %idxprom75, !dbg !2763
  %63 = load i8*, i8** %arrayidx76, align 8, !dbg !2763
  %arrayidx77 = getelementptr inbounds i8, i8* %63, i64 1, !dbg !2763
  %64 = load i8, i8* %arrayidx77, align 1, !dbg !2763
  %conv78 = sext i8 %64 to i32, !dbg !2763
  %cmp79 = icmp eq i32 %conv78, 109, !dbg !2766
  br i1 %cmp79, label %if.then80, label %if.else81, !dbg !2767

if.then80:                                        ; preds = %if.else74
  %65 = load %class.Params*, %class.Params** %params.addr, align 8, !dbg !2768
  %m_omitMETATag = getelementptr inbounds %class.Params, %class.Params* %65, i32 0, i32 2, !dbg !2770
  store i8 1, i8* %m_omitMETATag, align 2, !dbg !2771
  br label %if.end167, !dbg !2772

if.else81:                                        ; preds = %if.else74
  %66 = load i8**, i8*** %argv.addr, align 8, !dbg !2773
  %67 = load i32, i32* %i, align 4, !dbg !2775
  %idxprom82 = sext i32 %67 to i64, !dbg !2773
  %arrayidx83 = getelementptr inbounds i8*, i8** %66, i64 %idxprom82, !dbg !2773
  %68 = load i8*, i8** %arrayidx83, align 8, !dbg !2773
  %arrayidx84 = getelementptr inbounds i8, i8* %68, i64 1, !dbg !2773
  %69 = load i8, i8* %arrayidx84, align 1, !dbg !2773
  %conv85 = sext i8 %69 to i32, !dbg !2773
  %cmp86 = icmp eq i32 %conv85, 111, !dbg !2776
  br i1 %cmp86, label %if.then87, label %if.else106, !dbg !2777

if.then87:                                        ; preds = %if.else81
  %70 = load i32, i32* %i, align 4, !dbg !2778
  %inc88 = add nsw i32 %70, 1, !dbg !2778
  store i32 %inc88, i32* %i, align 4, !dbg !2778
  %71 = load i32, i32* %i, align 4, !dbg !2780
  %72 = load i32, i32* %argc.addr, align 4, !dbg !2782
  %cmp89 = icmp slt i32 %71, %72, !dbg !2783
  br i1 %cmp89, label %land.lhs.true90, label %if.else104, !dbg !2784

land.lhs.true90:                                  ; preds = %if.then87
  %73 = load i8**, i8*** %argv.addr, align 8, !dbg !2785
  %74 = load i32, i32* %i, align 4, !dbg !2786
  %idxprom91 = sext i32 %74 to i64, !dbg !2785
  %arrayidx92 = getelementptr inbounds i8*, i8** %73, i64 %idxprom91, !dbg !2785
  %75 = load i8*, i8** %arrayidx92, align 8, !dbg !2785
  %arrayidx93 = getelementptr inbounds i8, i8* %75, i64 0, !dbg !2785
  %76 = load i8, i8* %arrayidx93, align 1, !dbg !2785
  %conv94 = sext i8 %76 to i32, !dbg !2785
  %cmp95 = icmp ne i32 %conv94, 45, !dbg !2787
  br i1 %cmp95, label %land.lhs.true96, label %if.else104, !dbg !2788

land.lhs.true96:                                  ; preds = %land.lhs.true90
  %77 = load i8**, i8*** %argv.addr, align 8, !dbg !2789
  %78 = load i32, i32* %i, align 4, !dbg !2790
  %idxprom97 = sext i32 %78 to i64, !dbg !2789
  %arrayidx98 = getelementptr inbounds i8*, i8** %77, i64 %idxprom97, !dbg !2789
  %79 = load i8*, i8** %arrayidx98, align 8, !dbg !2789
  %call99 = call i64 @strlen(i8* %79) #15, !dbg !2791
  %cmp100 = icmp ne i64 %call99, 0, !dbg !2792
  br i1 %cmp100, label %if.then101, label %if.else104, !dbg !2793

if.then101:                                       ; preds = %land.lhs.true96
  %80 = load i8**, i8*** %argv.addr, align 8, !dbg !2794
  %81 = load i32, i32* %i, align 4, !dbg !2796
  %idxprom102 = sext i32 %81 to i64, !dbg !2794
  %arrayidx103 = getelementptr inbounds i8*, i8** %80, i64 %idxprom102, !dbg !2794
  %82 = load i8*, i8** %arrayidx103, align 8, !dbg !2794
  %83 = load %class.Params*, %class.Params** %params.addr, align 8, !dbg !2797
  %m_outFileName = getelementptr inbounds %class.Params, %class.Params* %83, i32 0, i32 8, !dbg !2798
  store i8* %82, i8** %m_outFileName, align 8, !dbg !2799
  br label %if.end105, !dbg !2800

if.else104:                                       ; preds = %land.lhs.true96, %land.lhs.true90, %if.then87
  store i8 0, i8* %fSuccess, align 1, !dbg !2801
  br label %if.end105

if.end105:                                        ; preds = %if.else104, %if.then101
  br label %if.end166, !dbg !2803

if.else106:                                       ; preds = %if.else81
  %84 = load i8**, i8*** %argv.addr, align 8, !dbg !2804
  %85 = load i32, i32* %i, align 4, !dbg !2806
  %idxprom107 = sext i32 %85 to i64, !dbg !2804
  %arrayidx108 = getelementptr inbounds i8*, i8** %84, i64 %idxprom107, !dbg !2804
  %86 = load i8*, i8** %arrayidx108, align 8, !dbg !2804
  %arrayidx109 = getelementptr inbounds i8, i8* %86, i64 1, !dbg !2804
  %87 = load i8, i8* %arrayidx109, align 1, !dbg !2804
  %conv110 = sext i8 %87 to i32, !dbg !2804
  %cmp111 = icmp eq i32 %conv110, 112, !dbg !2807
  br i1 %cmp111, label %if.then112, label %if.else140, !dbg !2808

if.then112:                                       ; preds = %if.else106
  %88 = load i32, i32* %i, align 4, !dbg !2809
  %inc113 = add nsw i32 %88, 1, !dbg !2809
  store i32 %inc113, i32* %i, align 4, !dbg !2809
  %89 = load i32, i32* %i, align 4, !dbg !2811
  %90 = load i32, i32* %argc.addr, align 4, !dbg !2813
  %cmp114 = icmp sge i32 %89, %90, !dbg !2814
  br i1 %cmp114, label %if.then121, label %lor.lhs.false115, !dbg !2815

lor.lhs.false115:                                 ; preds = %if.then112
  %91 = load i8**, i8*** %argv.addr, align 8, !dbg !2816
  %92 = load i32, i32* %i, align 4, !dbg !2817
  %idxprom116 = sext i32 %92 to i64, !dbg !2816
  %arrayidx117 = getelementptr inbounds i8*, i8** %91, i64 %idxprom116, !dbg !2816
  %93 = load i8*, i8** %arrayidx117, align 8, !dbg !2816
  %arrayidx118 = getelementptr inbounds i8, i8* %93, i64 0, !dbg !2816
  %94 = load i8, i8* %arrayidx118, align 1, !dbg !2816
  %conv119 = sext i8 %94 to i32, !dbg !2816
  %cmp120 = icmp eq i32 %conv119, 45, !dbg !2818
  br i1 %cmp120, label %if.then121, label %if.else122, !dbg !2819

if.then121:                                       ; preds = %lor.lhs.false115, %if.then112
  store i8 0, i8* %fSuccess, align 1, !dbg !2820
  br label %if.end139, !dbg !2822

if.else122:                                       ; preds = %lor.lhs.false115
  call void @llvm.dbg.declare(metadata i8** %name, metadata !2823, metadata !DIExpression()), !dbg !2825
  %95 = load i8**, i8*** %argv.addr, align 8, !dbg !2826
  %96 = load i32, i32* %i, align 4, !dbg !2827
  %idxprom123 = sext i32 %96 to i64, !dbg !2826
  %arrayidx124 = getelementptr inbounds i8*, i8** %95, i64 %idxprom123, !dbg !2826
  %97 = load i8*, i8** %arrayidx124, align 8, !dbg !2826
  store i8* %97, i8** %name, align 8, !dbg !2825
  %98 = load i32, i32* %i, align 4, !dbg !2828
  %inc125 = add nsw i32 %98, 1, !dbg !2828
  store i32 %inc125, i32* %i, align 4, !dbg !2828
  %99 = load i32, i32* %i, align 4, !dbg !2829
  %100 = load i32, i32* %argc.addr, align 4, !dbg !2831
  %cmp126 = icmp sge i32 %99, %100, !dbg !2832
  br i1 %cmp126, label %if.then127, label %if.else128, !dbg !2833

if.then127:                                       ; preds = %if.else122
  store i8 0, i8* %fSuccess, align 1, !dbg !2834
  br label %if.end138, !dbg !2836

if.else128:                                       ; preds = %if.else122
  call void @llvm.dbg.declare(metadata i8** %value, metadata !2837, metadata !DIExpression()), !dbg !2839
  %101 = load i8**, i8*** %argv.addr, align 8, !dbg !2840
  %102 = load i32, i32* %i, align 4, !dbg !2841
  %idxprom129 = sext i32 %102 to i64, !dbg !2840
  %arrayidx130 = getelementptr inbounds i8*, i8** %101, i64 %idxprom129, !dbg !2840
  %103 = load i8*, i8** %arrayidx130, align 8, !dbg !2840
  store i8* %103, i8** %value, align 8, !dbg !2839
  %104 = load %class.Params*, %class.Params** %params.addr, align 8, !dbg !2842
  %105 = load i8*, i8** %name, align 8, !dbg !2844
  %106 = load i8*, i8** %value, align 8, !dbg !2845
  %call131 = call zeroext i1 @_ZN6Params8addParamEPKcS1_(%class.Params* %104, i8* %105, i8* %106), !dbg !2846
  %conv132 = zext i1 %call131 to i32, !dbg !2842
  %cmp133 = icmp eq i32 %conv132, 0, !dbg !2847
  br i1 %cmp133, label %if.then134, label %if.end137, !dbg !2848

if.then134:                                       ; preds = %if.else128
  %call135 = call dereferenceable(272) %"class.std::basic_ostream"* @_ZStlsISt11char_traitsIcEERSt13basic_ostreamIcT_ES5_PKc(%"class.std::basic_ostream"* dereferenceable(272) @_ZSt4cerr, i8* getelementptr inbounds ([57 x i8], [57 x i8]* @.str.5, i64 0, i64 0)), !dbg !2849
  %call136 = call dereferenceable(272) %"class.std::basic_ostream"* @_ZNSolsEPFRSoS_E(%"class.std::basic_ostream"* %call135, %"class.std::basic_ostream"* (%"class.std::basic_ostream"*)* @_ZSt4endlIcSt11char_traitsIcEERSt13basic_ostreamIT_T0_ES6_), !dbg !2851
  store i8 0, i8* %fSuccess, align 1, !dbg !2852
  br label %if.end137, !dbg !2853

if.end137:                                        ; preds = %if.then134, %if.else128
  br label %if.end138

if.end138:                                        ; preds = %if.end137, %if.then127
  br label %if.end139

if.end139:                                        ; preds = %if.end138, %if.then121
  br label %if.end165, !dbg !2854

if.else140:                                       ; preds = %if.else106
  %107 = load i8**, i8*** %argv.addr, align 8, !dbg !2855
  %108 = load i32, i32* %i, align 4, !dbg !2857
  %idxprom141 = sext i32 %108 to i64, !dbg !2855
  %arrayidx142 = getelementptr inbounds i8*, i8** %107, i64 %idxprom141, !dbg !2855
  %109 = load i8*, i8** %arrayidx142, align 8, !dbg !2855
  %arrayidx143 = getelementptr inbounds i8, i8* %109, i64 1, !dbg !2855
  %110 = load i8, i8* %arrayidx143, align 1, !dbg !2855
  %conv144 = sext i8 %110 to i32, !dbg !2855
  %cmp145 = icmp eq i32 %conv144, 116, !dbg !2858
  br i1 %cmp145, label %if.then146, label %if.else147, !dbg !2859

if.then146:                                       ; preds = %if.else140
  %111 = load %class.Params*, %class.Params** %params.addr, align 8, !dbg !2860
  %m_showTiming = getelementptr inbounds %class.Params, %class.Params* %111, i32 0, i32 4, !dbg !2862
  store i8 1, i8* %m_showTiming, align 4, !dbg !2863
  br label %if.end164, !dbg !2864

if.else147:                                       ; preds = %if.else140
  %112 = load i8**, i8*** %argv.addr, align 8, !dbg !2865
  %113 = load i32, i32* %i, align 4, !dbg !2867
  %idxprom148 = sext i32 %113 to i64, !dbg !2865
  %arrayidx149 = getelementptr inbounds i8*, i8** %112, i64 %idxprom148, !dbg !2865
  %114 = load i8*, i8** %arrayidx149, align 8, !dbg !2865
  %arrayidx150 = getelementptr inbounds i8, i8* %114, i64 1, !dbg !2865
  %115 = load i8, i8* %arrayidx150, align 1, !dbg !2865
  %conv151 = sext i8 %115 to i32, !dbg !2865
  %cmp152 = icmp eq i32 %conv151, 117, !dbg !2868
  br i1 %cmp152, label %if.then153, label %if.else154, !dbg !2869

if.then153:                                       ; preds = %if.else147
  %116 = load %class.Params*, %class.Params** %params.addr, align 8, !dbg !2870
  %m_noURLEscaping = getelementptr inbounds %class.Params, %class.Params* %116, i32 0, i32 3, !dbg !2872
  store i8 1, i8* %m_noURLEscaping, align 1, !dbg !2873
  br label %if.end163, !dbg !2874

if.else154:                                       ; preds = %if.else147
  %117 = load i8**, i8*** %argv.addr, align 8, !dbg !2875
  %118 = load i32, i32* %i, align 4, !dbg !2877
  %idxprom155 = sext i32 %118 to i64, !dbg !2875
  %arrayidx156 = getelementptr inbounds i8*, i8** %117, i64 %idxprom155, !dbg !2875
  %119 = load i8*, i8** %arrayidx156, align 8, !dbg !2875
  %arrayidx157 = getelementptr inbounds i8, i8* %119, i64 1, !dbg !2875
  %120 = load i8, i8* %arrayidx157, align 1, !dbg !2875
  %conv158 = sext i8 %120 to i32, !dbg !2875
  %cmp159 = icmp eq i32 %conv158, 118, !dbg !2878
  br i1 %cmp159, label %if.then160, label %if.else161, !dbg !2879

if.then160:                                       ; preds = %if.else154
  %121 = load %class.Params*, %class.Params** %params.addr, align 8, !dbg !2880
  %m_validate = getelementptr inbounds %class.Params, %class.Params* %121, i32 0, i32 0, !dbg !2882
  store i8 1, i8* %m_validate, align 8, !dbg !2883
  br label %if.end162, !dbg !2884

if.else161:                                       ; preds = %if.else154
  store i8 0, i8* %fSuccess, align 1, !dbg !2885
  br label %if.end162

if.end162:                                        ; preds = %if.else161, %if.then160
  br label %if.end163

if.end163:                                        ; preds = %if.end162, %if.then153
  br label %if.end164

if.end164:                                        ; preds = %if.end163, %if.then146
  br label %if.end165

if.end165:                                        ; preds = %if.end164, %if.end139
  br label %if.end166

if.end166:                                        ; preds = %if.end165, %if.end105
  br label %if.end167

if.end167:                                        ; preds = %if.end166, %if.then80
  br label %if.end168

if.end168:                                        ; preds = %if.end167, %if.end73
  br label %if.end169

if.end169:                                        ; preds = %if.end168, %if.end
  br label %if.end170

if.end170:                                        ; preds = %if.end169, %if.then25
  br label %if.end171

if.end171:                                        ; preds = %if.end170, %if.then18
  br label %if.end172

if.end172:                                        ; preds = %if.end171, %if.then15
  br label %if.end215, !dbg !2887

if.else173:                                       ; preds = %land.lhs.true, %for.body
  %122 = load %class.Params*, %class.Params** %params.addr, align 8, !dbg !2888
  %m_inFileName174 = getelementptr inbounds %class.Params, %class.Params* %122, i32 0, i32 6, !dbg !2890
  %123 = load i8*, i8** %m_inFileName174, align 8, !dbg !2890
  %cmp175 = icmp eq i8* %123, null, !dbg !2891
  br i1 %cmp175, label %land.lhs.true176, label %if.else190, !dbg !2892

land.lhs.true176:                                 ; preds = %if.else173
  %124 = load i8**, i8*** %argv.addr, align 8, !dbg !2893
  %125 = load i32, i32* %i, align 4, !dbg !2894
  %idxprom177 = sext i32 %125 to i64, !dbg !2893
  %arrayidx178 = getelementptr inbounds i8*, i8** %124, i64 %idxprom177, !dbg !2893
  %126 = load i8*, i8** %arrayidx178, align 8, !dbg !2893
  %call179 = call i64 @strlen(i8* %126) #15, !dbg !2895
  %cmp180 = icmp ne i64 %call179, 0, !dbg !2896
  br i1 %cmp180, label %if.then181, label %if.else190, !dbg !2897

if.then181:                                       ; preds = %land.lhs.true176
  %127 = load i8**, i8*** %argv.addr, align 8, !dbg !2898
  %128 = load i32, i32* %i, align 4, !dbg !2900
  %idxprom182 = sext i32 %128 to i64, !dbg !2898
  %arrayidx183 = getelementptr inbounds i8*, i8** %127, i64 %idxprom182, !dbg !2898
  %129 = load i8*, i8** %arrayidx183, align 8, !dbg !2898
  %130 = load %class.Params*, %class.Params** %params.addr, align 8, !dbg !2901
  %m_inFileName184 = getelementptr inbounds %class.Params, %class.Params* %130, i32 0, i32 6, !dbg !2902
  store i8* %129, i8** %m_inFileName184, align 8, !dbg !2903
  %131 = load %class.Params*, %class.Params** %params.addr, align 8, !dbg !2904
  %m_inFileName185 = getelementptr inbounds %class.Params, %class.Params* %131, i32 0, i32 6, !dbg !2906
  %132 = load i8*, i8** %m_inFileName185, align 8, !dbg !2906
  %call186 = call i64 @strlen(i8* %132) #15, !dbg !2907
  %cmp187 = icmp eq i64 %call186, 0, !dbg !2908
  br i1 %cmp187, label %if.then188, label %if.end189, !dbg !2909

if.then188:                                       ; preds = %if.then181
  store i8 0, i8* %fSuccess, align 1, !dbg !2910
  br label %if.end189, !dbg !2912

if.end189:                                        ; preds = %if.then188, %if.then181
  br label %if.end214, !dbg !2913

if.else190:                                       ; preds = %land.lhs.true176, %if.else173
  %133 = load %class.Params*, %class.Params** %params.addr, align 8, !dbg !2914
  %m_xslFileName191 = getelementptr inbounds %class.Params, %class.Params* %133, i32 0, i32 7, !dbg !2916
  %134 = load i8*, i8** %m_xslFileName191, align 8, !dbg !2916
  %cmp192 = icmp eq i8* %134, null, !dbg !2917
  br i1 %cmp192, label %land.lhs.true193, label %if.else212, !dbg !2918

land.lhs.true193:                                 ; preds = %if.else190
  %135 = load i8**, i8*** %argv.addr, align 8, !dbg !2919
  %136 = load i32, i32* %i, align 4, !dbg !2920
  %idxprom194 = sext i32 %136 to i64, !dbg !2919
  %arrayidx195 = getelementptr inbounds i8*, i8** %135, i64 %idxprom194, !dbg !2919
  %137 = load i8*, i8** %arrayidx195, align 8, !dbg !2919
  %call196 = call i64 @strlen(i8* %137) #15, !dbg !2921
  %cmp197 = icmp ne i64 %call196, 0, !dbg !2922
  br i1 %cmp197, label %land.lhs.true198, label %if.else212, !dbg !2923

land.lhs.true198:                                 ; preds = %land.lhs.true193
  %138 = load %class.Params*, %class.Params** %params.addr, align 8, !dbg !2924
  %m_useStylesheetPI199 = getelementptr inbounds %class.Params, %class.Params* %138, i32 0, i32 1, !dbg !2925
  %139 = load i8, i8* %m_useStylesheetPI199, align 1, !dbg !2925
  %tobool200 = trunc i8 %139 to i1, !dbg !2925
  %conv201 = zext i1 %tobool200 to i32, !dbg !2924
  %cmp202 = icmp eq i32 %conv201, 0, !dbg !2926
  br i1 %cmp202, label %if.then203, label %if.else212, !dbg !2927

if.then203:                                       ; preds = %land.lhs.true198
  %140 = load i8**, i8*** %argv.addr, align 8, !dbg !2928
  %141 = load i32, i32* %i, align 4, !dbg !2930
  %idxprom204 = sext i32 %141 to i64, !dbg !2928
  %arrayidx205 = getelementptr inbounds i8*, i8** %140, i64 %idxprom204, !dbg !2928
  %142 = load i8*, i8** %arrayidx205, align 8, !dbg !2928
  %143 = load %class.Params*, %class.Params** %params.addr, align 8, !dbg !2931
  %m_xslFileName206 = getelementptr inbounds %class.Params, %class.Params* %143, i32 0, i32 7, !dbg !2932
  store i8* %142, i8** %m_xslFileName206, align 8, !dbg !2933
  %144 = load %class.Params*, %class.Params** %params.addr, align 8, !dbg !2934
  %m_xslFileName207 = getelementptr inbounds %class.Params, %class.Params* %144, i32 0, i32 7, !dbg !2936
  %145 = load i8*, i8** %m_xslFileName207, align 8, !dbg !2936
  %call208 = call i64 @strlen(i8* %145) #15, !dbg !2937
  %cmp209 = icmp eq i64 %call208, 0, !dbg !2938
  br i1 %cmp209, label %if.then210, label %if.end211, !dbg !2939

if.then210:                                       ; preds = %if.then203
  store i8 0, i8* %fSuccess, align 1, !dbg !2940
  br label %if.end211, !dbg !2942

if.end211:                                        ; preds = %if.then210, %if.then203
  br label %if.end213, !dbg !2943

if.else212:                                       ; preds = %land.lhs.true198, %land.lhs.true193, %if.else190
  store i8 0, i8* %fSuccess, align 1, !dbg !2944
  br label %if.end213

if.end213:                                        ; preds = %if.else212, %if.end211
  br label %if.end214

if.end214:                                        ; preds = %if.end213, %if.end189
  br label %if.end215

if.end215:                                        ; preds = %if.end214, %if.end172
  br label %for.inc, !dbg !2946

for.inc:                                          ; preds = %if.end215
  %146 = load i32, i32* %i, align 4, !dbg !2947
  %inc216 = add nsw i32 %146, 1, !dbg !2947
  store i32 %inc216, i32* %i, align 4, !dbg !2947
  br label %for.cond, !dbg !2948, !llvm.loop !2949

for.end:                                          ; preds = %land.end
  %147 = load i8, i8* %fSuccess, align 1, !dbg !2951
  %tobool217 = trunc i8 %147 to i1, !dbg !2951
  %conv218 = zext i1 %tobool217 to i32, !dbg !2951
  %cmp219 = icmp eq i32 %conv218, 1, !dbg !2953
  br i1 %cmp219, label %land.lhs.true220, label %if.else224, !dbg !2954

land.lhs.true220:                                 ; preds = %for.end
  %148 = load %class.Params*, %class.Params** %params.addr, align 8, !dbg !2955
  %m_inFileName221 = getelementptr inbounds %class.Params, %class.Params* %148, i32 0, i32 6, !dbg !2956
  %149 = load i8*, i8** %m_inFileName221, align 8, !dbg !2956
  %cmp222 = icmp eq i8* %149, null, !dbg !2957
  br i1 %cmp222, label %if.then223, label %if.else224, !dbg !2958

if.then223:                                       ; preds = %land.lhs.true220
  store i1 false, i1* %retval, align 1, !dbg !2959
  br label %return, !dbg !2959

if.else224:                                       ; preds = %land.lhs.true220, %for.end
  %150 = load %class.Params*, %class.Params** %params.addr, align 8, !dbg !2961
  %m_xslFileName225 = getelementptr inbounds %class.Params, %class.Params* %150, i32 0, i32 7, !dbg !2963
  %151 = load i8*, i8** %m_xslFileName225, align 8, !dbg !2963
  %cmp226 = icmp eq i8* %151, null, !dbg !2964
  br i1 %cmp226, label %if.then227, label %if.else230, !dbg !2965

if.then227:                                       ; preds = %if.else224
  %152 = load %class.Params*, %class.Params** %params.addr, align 8, !dbg !2966
  %m_useStylesheetPI228 = getelementptr inbounds %class.Params, %class.Params* %152, i32 0, i32 1, !dbg !2968
  %153 = load i8, i8* %m_useStylesheetPI228, align 1, !dbg !2968
  %tobool229 = trunc i8 %153 to i1, !dbg !2968
  store i1 %tobool229, i1* %retval, align 1, !dbg !2969
  br label %return, !dbg !2969

if.else230:                                       ; preds = %if.else224
  %154 = load %class.Params*, %class.Params** %params.addr, align 8, !dbg !2970
  %m_xslFileName231 = getelementptr inbounds %class.Params, %class.Params* %154, i32 0, i32 7, !dbg !2972
  %155 = load i8*, i8** %m_xslFileName231, align 8, !dbg !2972
  %156 = load %class.Params*, %class.Params** %params.addr, align 8, !dbg !2973
  %m_inFileName232 = getelementptr inbounds %class.Params, %class.Params* %156, i32 0, i32 6, !dbg !2974
  %157 = load i8*, i8** %m_inFileName232, align 8, !dbg !2974
  %call233 = call i32 @strcmp(i8* %155, i8* %157) #15, !dbg !2975
  %cmp234 = icmp eq i32 %call233, 0, !dbg !2976
  br i1 %cmp234, label %if.then235, label %if.else236, !dbg !2977

if.then235:                                       ; preds = %if.else230
  store i1 false, i1* %retval, align 1, !dbg !2978
  br label %return, !dbg !2978

if.else236:                                       ; preds = %if.else230
  %158 = load i8, i8* %fSuccess, align 1, !dbg !2980
  %tobool237 = trunc i8 %158 to i1, !dbg !2980
  store i1 %tobool237, i1* %retval, align 1, !dbg !2982
  br label %return, !dbg !2982

return:                                           ; preds = %if.else236, %if.then235, %if.then227, %if.then223
  %159 = load i1, i1* %retval, align 1, !dbg !2983
  ret i1 %159, !dbg !2983
}

; Function Attrs: nounwind readonly
declare dso_local i64 @strlen(i8*) #9

; Function Attrs: nounwind readonly
declare dso_local i32 @atoi(i8*) #9

; Function Attrs: noinline uwtable
define linkonce_odr dso_local zeroext i1 @_ZN6Params8addParamEPKcS1_(%class.Params* %this, i8* %name, i8* %expression) #0 comdat align 2 personality i8* bitcast (i32 (...)* @__gxx_personality_v0 to i8*) !dbg !2984 {
entry:
  %retval = alloca i1, align 1
  %this.addr = alloca %class.Params*, align 8
  %name.addr = alloca i8*, align 8
  %expression.addr = alloca i8*, align 8
  %exn.slot = alloca i8*
  %ehselector.slot = alloca i32
  store %class.Params* %this, %class.Params** %this.addr, align 8
  call void @llvm.dbg.declare(metadata %class.Params** %this.addr, metadata !2985, metadata !DIExpression()), !dbg !2987
  store i8* %name, i8** %name.addr, align 8
  call void @llvm.dbg.declare(metadata i8** %name.addr, metadata !2988, metadata !DIExpression()), !dbg !2989
  store i8* %expression, i8** %expression.addr, align 8
  call void @llvm.dbg.declare(metadata i8** %expression.addr, metadata !2990, metadata !DIExpression()), !dbg !2991
  %this1 = load %class.Params*, %class.Params** %this.addr, align 8
  %m_currentParam = getelementptr inbounds %class.Params, %class.Params* %this1, i32 0, i32 12, !dbg !2992
  %0 = load i64, i64* %m_currentParam, align 8, !dbg !2992
  %m_maxParams = getelementptr inbounds %class.Params, %class.Params* %this1, i32 0, i32 11, !dbg !2994
  %1 = load i64, i64* %m_maxParams, align 8, !dbg !2994
  %cmp = icmp eq i64 %0, %1, !dbg !2995
  br i1 %cmp, label %if.then, label %if.else, !dbg !2996

if.then:                                          ; preds = %entry
  store i1 false, i1* %retval, align 1, !dbg !2997
  br label %return, !dbg !2997

if.else:                                          ; preds = %entry
  %m_params = getelementptr inbounds %class.Params, %class.Params* %this1, i32 0, i32 10, !dbg !2999
  %call = call %"struct.Params::ParamPair"* @_ZNK11xalanc_1_1017XalanArrayAutoPtrIN6Params9ParamPairEE3getEv(%"class.xalanc_1_10::XalanArrayAutoPtr"* %m_params), !dbg !3002
  %cmp2 = icmp eq %"struct.Params::ParamPair"* %call, null, !dbg !3003
  br i1 %cmp2, label %if.then3, label %if.end, !dbg !3004

if.then3:                                         ; preds = %if.else
  %m_params4 = getelementptr inbounds %class.Params, %class.Params* %this1, i32 0, i32 10, !dbg !3005
  %m_maxParams5 = getelementptr inbounds %class.Params, %class.Params* %this1, i32 0, i32 11, !dbg !3007
  %2 = load i64, i64* %m_maxParams5, align 8, !dbg !3007
  %3 = call { i64, i1 } @llvm.umul.with.overflow.i64(i64 %2, i64 16), !dbg !3008
  %4 = extractvalue { i64, i1 } %3, 1, !dbg !3008
  %5 = extractvalue { i64, i1 } %3, 0, !dbg !3008
  %6 = select i1 %4, i64 -1, i64 %5, !dbg !3008
  %call6 = call i8* @_Znam(i64 %6) #16, !dbg !3008
  %7 = bitcast i8* %call6 to %"struct.Params::ParamPair"*, !dbg !3008
  %isempty = icmp eq i64 %2, 0, !dbg !3008
  br i1 %isempty, label %arrayctor.cont, label %new.ctorloop, !dbg !3008

new.ctorloop:                                     ; preds = %if.then3
  %arrayctor.end = getelementptr inbounds %"struct.Params::ParamPair", %"struct.Params::ParamPair"* %7, i64 %2, !dbg !3008
  br label %arrayctor.loop, !dbg !3008

arrayctor.loop:                                   ; preds = %invoke.cont, %new.ctorloop
  %arrayctor.cur = phi %"struct.Params::ParamPair"* [ %7, %new.ctorloop ], [ %arrayctor.next, %invoke.cont ], !dbg !3008
  invoke void @_ZN6Params9ParamPairC2Ev(%"struct.Params::ParamPair"* %arrayctor.cur)
          to label %invoke.cont unwind label %lpad, !dbg !3008

invoke.cont:                                      ; preds = %arrayctor.loop
  %arrayctor.next = getelementptr inbounds %"struct.Params::ParamPair", %"struct.Params::ParamPair"* %arrayctor.cur, i64 1, !dbg !3008
  %arrayctor.done = icmp eq %"struct.Params::ParamPair"* %arrayctor.next, %arrayctor.end, !dbg !3008
  br i1 %arrayctor.done, label %arrayctor.cont, label %arrayctor.loop, !dbg !3008

arrayctor.cont:                                   ; preds = %if.then3, %invoke.cont
  call void @_ZN11xalanc_1_1017XalanArrayAutoPtrIN6Params9ParamPairEE5resetEPS2_(%"class.xalanc_1_10::XalanArrayAutoPtr"* %m_params4, %"struct.Params::ParamPair"* %7), !dbg !3009
  br label %if.end, !dbg !3010

lpad:                                             ; preds = %arrayctor.loop
  %8 = landingpad { i8*, i32 }
          cleanup, !dbg !3011
  %9 = extractvalue { i8*, i32 } %8, 0, !dbg !3011
  store i8* %9, i8** %exn.slot, align 8, !dbg !3011
  %10 = extractvalue { i8*, i32 } %8, 1, !dbg !3011
  store i32 %10, i32* %ehselector.slot, align 4, !dbg !3011
  call void @_ZdaPv(i8* %call6) #13, !dbg !3008
  br label %eh.resume, !dbg !3008

if.end:                                           ; preds = %arrayctor.cont, %if.else
  %11 = load i8*, i8** %name.addr, align 8, !dbg !3012
  %m_params7 = getelementptr inbounds %class.Params, %class.Params* %this1, i32 0, i32 10, !dbg !3013
  %m_currentParam8 = getelementptr inbounds %class.Params, %class.Params* %this1, i32 0, i32 12, !dbg !3014
  %12 = load i64, i64* %m_currentParam8, align 8, !dbg !3014
  %call9 = call dereferenceable(16) %"struct.Params::ParamPair"* @_ZNK11xalanc_1_1017XalanArrayAutoPtrIN6Params9ParamPairEEixEm(%"class.xalanc_1_10::XalanArrayAutoPtr"* %m_params7, i64 %12), !dbg !3013
  %m_name = getelementptr inbounds %"struct.Params::ParamPair", %"struct.Params::ParamPair"* %call9, i32 0, i32 0, !dbg !3015
  store i8* %11, i8** %m_name, align 8, !dbg !3016
  %13 = load i8*, i8** %expression.addr, align 8, !dbg !3017
  %m_params10 = getelementptr inbounds %class.Params, %class.Params* %this1, i32 0, i32 10, !dbg !3018
  %m_currentParam11 = getelementptr inbounds %class.Params, %class.Params* %this1, i32 0, i32 12, !dbg !3019
  %14 = load i64, i64* %m_currentParam11, align 8, !dbg !3019
  %call12 = call dereferenceable(16) %"struct.Params::ParamPair"* @_ZNK11xalanc_1_1017XalanArrayAutoPtrIN6Params9ParamPairEEixEm(%"class.xalanc_1_10::XalanArrayAutoPtr"* %m_params10, i64 %14), !dbg !3018
  %m_expression = getelementptr inbounds %"struct.Params::ParamPair", %"struct.Params::ParamPair"* %call12, i32 0, i32 1, !dbg !3020
  store i8* %13, i8** %m_expression, align 8, !dbg !3021
  %m_currentParam13 = getelementptr inbounds %class.Params, %class.Params* %this1, i32 0, i32 12, !dbg !3022
  %15 = load i64, i64* %m_currentParam13, align 8, !dbg !3023
  %inc = add i64 %15, 1, !dbg !3023
  store i64 %inc, i64* %m_currentParam13, align 8, !dbg !3023
  store i1 true, i1* %retval, align 1, !dbg !3024
  br label %return, !dbg !3024

return:                                           ; preds = %if.end, %if.then
  %16 = load i1, i1* %retval, align 1, !dbg !3025
  ret i1 %16, !dbg !3025

eh.resume:                                        ; preds = %lpad
  %exn = load i8*, i8** %exn.slot, align 8, !dbg !3008
  %sel = load i32, i32* %ehselector.slot, align 4, !dbg !3008
  %lpad.val = insertvalue { i8*, i32 } undef, i8* %exn, 0, !dbg !3008
  %lpad.val14 = insertvalue { i8*, i32 } %lpad.val, i32 %sel, 1, !dbg !3008
  resume { i8*, i32 } %lpad.val14, !dbg !3008
}

; Function Attrs: nounwind readonly
declare dso_local i32 @strcmp(i8*, i8*) #9

; Function Attrs: noinline uwtable
define dso_local void @_Z24writeElapsedMillisecondsllRSo(i64 %theStartClock, i64 %theEndClock, %"class.std::basic_ostream"* dereferenceable(272) %theStream) #0 !dbg !3026 {
entry:
  %theStartClock.addr = alloca i64, align 8
  %theEndClock.addr = alloca i64, align 8
  %theStream.addr = alloca %"class.std::basic_ostream"*, align 8
  store i64 %theStartClock, i64* %theStartClock.addr, align 8
  call void @llvm.dbg.declare(metadata i64* %theStartClock.addr, metadata !3032, metadata !DIExpression()), !dbg !3033
  store i64 %theEndClock, i64* %theEndClock.addr, align 8
  call void @llvm.dbg.declare(metadata i64* %theEndClock.addr, metadata !3034, metadata !DIExpression()), !dbg !3035
  store %"class.std::basic_ostream"* %theStream, %"class.std::basic_ostream"** %theStream.addr, align 8
  call void @llvm.dbg.declare(metadata %"class.std::basic_ostream"** %theStream.addr, metadata !3036, metadata !DIExpression()), !dbg !3037
  %0 = load %"class.std::basic_ostream"*, %"class.std::basic_ostream"** %theStream.addr, align 8, !dbg !3038
  %1 = load i64, i64* %theEndClock.addr, align 8, !dbg !3039
  %2 = load i64, i64* %theStartClock.addr, align 8, !dbg !3040
  %sub = sub nsw i64 %1, %2, !dbg !3041
  %conv = sitofp i64 %sub to double, !dbg !3039
  %div = fdiv double %conv, 1.000000e+06, !dbg !3042
  %mul = fmul double %div, 1.000000e+03, !dbg !3043
  %call = call dereferenceable(272) %"class.std::basic_ostream"* @_ZNSolsEd(%"class.std::basic_ostream"* %0, double %mul), !dbg !3044
  ret void, !dbg !3045
}

declare dso_local dereferenceable(272) %"class.std::basic_ostream"* @_ZNSolsEd(%"class.std::basic_ostream"*, double) #1

; Function Attrs: noinline uwtable
define dso_local i32 @_Z8xsltMainiPPc(i32 %argc, i8** %argv) #0 personality i8* bitcast (i32 (...)* @__gxx_personality_v0 to i8*) !dbg !2207 {
entry:
  %argc.addr = alloca i32, align 4
  %argv.addr = alloca i8**, align 8
  %theResult = alloca i32, align 4
  %theParams = alloca %class.Params, align 8
  %exn.slot = alloca i8*
  %ehselector.slot = alloca i32
  %theTransformer = alloca %"class.xalanc_1_10::XalanTransformer", align 8
  store i32 %argc, i32* %argc.addr, align 4
  call void @llvm.dbg.declare(metadata i32* %argc.addr, metadata !3046, metadata !DIExpression()), !dbg !3047
  store i8** %argv, i8*** %argv.addr, align 8
  call void @llvm.dbg.declare(metadata i8*** %argv.addr, metadata !3048, metadata !DIExpression()), !dbg !3049
  call void @llvm.dbg.declare(metadata i32* %theResult, metadata !3050, metadata !DIExpression()), !dbg !3051
  store i32 -1, i32* %theResult, align 4, !dbg !3051
  call void @_ZN11xercesc_2_716XMLPlatformUtils10InitializeEPKcS2_PNS_12PanicHandlerEPNS_13MemoryManagerEb(i8* getelementptr inbounds ([0 x i8], [0 x i8]* @_ZN11xercesc_2_76XMLUni22fgXercescDefaultLocaleE, i64 0, i64 0), i8* null, %"class.xercesc_2_7::PanicHandler"* null, %"class.xercesc_2_7::MemoryManager"* null, i1 zeroext false), !dbg !3052
  %call = call dereferenceable(8) %"class.xercesc_2_7::MemoryManager"* @_ZN11xalanc_1_1012XalanMemMgrs22getDefaultXercesMemMgrEv(), !dbg !3053
  call void @_ZN11xalanc_1_1016XalanTransformer10initializeERN11xercesc_2_713MemoryManagerE(%"class.xercesc_2_7::MemoryManager"* dereferenceable(8) %call), !dbg !3053
  call void @llvm.dbg.declare(metadata %class.Params* %theParams, metadata !3054, metadata !DIExpression()), !dbg !3056
  %0 = load i32, i32* %argc.addr, align 4, !dbg !3057
  %sub = sub nsw i32 %0, 1, !dbg !3058
  %div = sdiv i32 %sub, 2, !dbg !3059
  %add = add nsw i32 %div, 1, !dbg !3060
  %conv = sext i32 %add to i64, !dbg !3061
  call void @_ZN6ParamsC2Em(%class.Params* %theParams, i64 %conv), !dbg !3056
  %1 = load i32, i32* %argc.addr, align 4, !dbg !3062
  %2 = load i8**, i8*** %argv.addr, align 8, !dbg !3064
  %call1 = invoke zeroext i1 @_Z7getArgsiPPcR6Params(i32 %1, i8** %2, %class.Params* dereferenceable(72) %theParams)
          to label %invoke.cont unwind label %lpad, !dbg !3065

invoke.cont:                                      ; preds = %entry
  %conv2 = zext i1 %call1 to i32, !dbg !3065
  %cmp = icmp eq i32 %conv2, 0, !dbg !3066
  br i1 %cmp, label %if.then, label %if.else, !dbg !3067

if.then:                                          ; preds = %invoke.cont
  invoke void @_Z5Usagev()
          to label %invoke.cont3 unwind label %lpad, !dbg !3068

invoke.cont3:                                     ; preds = %if.then
  br label %if.end19, !dbg !3070

lpad:                                             ; preds = %invoke.cont4, %if.else, %if.then, %entry
  %3 = landingpad { i8*, i32 }
          cleanup, !dbg !3071
  %4 = extractvalue { i8*, i32 } %3, 0, !dbg !3071
  store i8* %4, i8** %exn.slot, align 8, !dbg !3071
  %5 = extractvalue { i8*, i32 } %3, 1, !dbg !3071
  store i32 %5, i32* %ehselector.slot, align 4, !dbg !3071
  br label %ehcleanup, !dbg !3071

if.else:                                          ; preds = %invoke.cont
  call void @llvm.dbg.declare(metadata %"class.xalanc_1_10::XalanTransformer"* %theTransformer, metadata !3072, metadata !DIExpression()), !dbg !3074
  %call5 = invoke dereferenceable(8) %"class.xercesc_2_7::MemoryManager"* @_ZN11xalanc_1_1012XalanMemMgrs22getDefaultXercesMemMgrEv()
          to label %invoke.cont4 unwind label %lpad, !dbg !3074

invoke.cont4:                                     ; preds = %if.else
  invoke void @_ZN11xalanc_1_1016XalanTransformerC1ERN11xercesc_2_713MemoryManagerE(%"class.xalanc_1_10::XalanTransformer"* %theTransformer, %"class.xercesc_2_7::MemoryManager"* dereferenceable(8) %call5)
          to label %invoke.cont6 unwind label %lpad, !dbg !3074

invoke.cont6:                                     ; preds = %invoke.cont4
  invoke void @_ZNK6Params9setParamsERN11xalanc_1_1016XalanTransformerE(%class.Params* %theParams, %"class.xalanc_1_10::XalanTransformer"* dereferenceable(384) %theTransformer)
          to label %invoke.cont8 unwind label %lpad7, !dbg !3075

invoke.cont8:                                     ; preds = %invoke.cont6
  %call10 = invoke i32 @_Z9transformRN11xalanc_1_1016XalanTransformerERK6Params(%"class.xalanc_1_10::XalanTransformer"* dereferenceable(384) %theTransformer, %class.Params* dereferenceable(72) %theParams)
          to label %invoke.cont9 unwind label %lpad7, !dbg !3076

invoke.cont9:                                     ; preds = %invoke.cont8
  store i32 %call10, i32* %theResult, align 4, !dbg !3077
  %6 = load i32, i32* %theResult, align 4, !dbg !3078
  %cmp11 = icmp ne i32 %6, 0, !dbg !3080
  br i1 %cmp11, label %if.then12, label %if.end, !dbg !3081

if.then12:                                        ; preds = %invoke.cont9
  %call14 = invoke i8* @_ZNK11xalanc_1_1016XalanTransformer12getLastErrorEv(%"class.xalanc_1_10::XalanTransformer"* %theTransformer)
          to label %invoke.cont13 unwind label %lpad7, !dbg !3082

invoke.cont13:                                    ; preds = %if.then12
  %call16 = invoke dereferenceable(272) %"class.std::basic_ostream"* @_ZStlsISt11char_traitsIcEERSt13basic_ostreamIcT_ES5_PKc(%"class.std::basic_ostream"* dereferenceable(272) @_ZSt4cerr, i8* %call14)
          to label %invoke.cont15 unwind label %lpad7, !dbg !3084

invoke.cont15:                                    ; preds = %invoke.cont13
  %call18 = invoke dereferenceable(272) %"class.std::basic_ostream"* @_ZNSolsEPFRSoS_E(%"class.std::basic_ostream"* %call16, %"class.std::basic_ostream"* (%"class.std::basic_ostream"*)* @_ZSt4endlIcSt11char_traitsIcEERSt13basic_ostreamIT_T0_ES6_)
          to label %invoke.cont17 unwind label %lpad7, !dbg !3085

invoke.cont17:                                    ; preds = %invoke.cont15
  br label %if.end, !dbg !3086

lpad7:                                            ; preds = %invoke.cont15, %invoke.cont13, %if.then12, %invoke.cont8, %invoke.cont6
  %7 = landingpad { i8*, i32 }
          cleanup, !dbg !3087
  %8 = extractvalue { i8*, i32 } %7, 0, !dbg !3087
  store i8* %8, i8** %exn.slot, align 8, !dbg !3087
  %9 = extractvalue { i8*, i32 } %7, 1, !dbg !3087
  store i32 %9, i32* %ehselector.slot, align 4, !dbg !3087
  call void @_ZN11xalanc_1_1016XalanTransformerD1Ev(%"class.xalanc_1_10::XalanTransformer"* %theTransformer) #3, !dbg !3088
  br label %ehcleanup, !dbg !3088

if.end:                                           ; preds = %invoke.cont17, %invoke.cont9
  call void @_ZN11xalanc_1_1016XalanTransformerD1Ev(%"class.xalanc_1_10::XalanTransformer"* %theTransformer) #3, !dbg !3088
  br label %if.end19

if.end19:                                         ; preds = %if.end, %invoke.cont3
  call void @_ZN6ParamsD2Ev(%class.Params* %theParams) #3, !dbg !3089
  call void @_ZN11xalanc_1_1016XalanTransformer9terminateEv(), !dbg !3090
  call void @_ZN11xercesc_2_716XMLPlatformUtils9TerminateEv(), !dbg !3091
  call void @_ZN11xalanc_1_1016XalanTransformer10ICUCleanUpEv(), !dbg !3092
  %10 = load i32, i32* %theResult, align 4, !dbg !3093
  ret i32 %10, !dbg !3094

ehcleanup:                                        ; preds = %lpad7, %lpad
  call void @_ZN6ParamsD2Ev(%class.Params* %theParams) #3, !dbg !3089
  br label %eh.resume, !dbg !3089

eh.resume:                                        ; preds = %ehcleanup
  %exn = load i8*, i8** %exn.slot, align 8, !dbg !3089
  %sel = load i32, i32* %ehselector.slot, align 4, !dbg !3089
  %lpad.val = insertvalue { i8*, i32 } undef, i8* %exn, 0, !dbg !3089
  %lpad.val20 = insertvalue { i8*, i32 } %lpad.val, i32 %sel, 1, !dbg !3089
  resume { i8*, i32 } %lpad.val20, !dbg !3089
}

declare dso_local void @_ZN11xercesc_2_716XMLPlatformUtils10InitializeEPKcS2_PNS_12PanicHandlerEPNS_13MemoryManagerEb(i8*, i8*, %"class.xercesc_2_7::PanicHandler"*, %"class.xercesc_2_7::MemoryManager"*, i1 zeroext) #1

declare dso_local void @_ZN11xalanc_1_1016XalanTransformer10initializeERN11xercesc_2_713MemoryManagerE(%"class.xercesc_2_7::MemoryManager"* dereferenceable(8)) #1

; Function Attrs: noinline uwtable
define linkonce_odr dso_local void @_ZN6ParamsC2Em(%class.Params* %this, i64 %maxParams) unnamed_addr #0 comdat align 2 !dbg !3095 {
entry:
  %this.addr = alloca %class.Params*, align 8
  %maxParams.addr = alloca i64, align 8
  store %class.Params* %this, %class.Params** %this.addr, align 8
  call void @llvm.dbg.declare(metadata %class.Params** %this.addr, metadata !3096, metadata !DIExpression()), !dbg !3097
  store i64 %maxParams, i64* %maxParams.addr, align 8
  call void @llvm.dbg.declare(metadata i64* %maxParams.addr, metadata !3098, metadata !DIExpression()), !dbg !3099
  %this1 = load %class.Params*, %class.Params** %this.addr, align 8
  %m_validate = getelementptr inbounds %class.Params, %class.Params* %this1, i32 0, i32 0, !dbg !3100
  store i8 0, i8* %m_validate, align 8, !dbg !3100
  %m_useStylesheetPI = getelementptr inbounds %class.Params, %class.Params* %this1, i32 0, i32 1, !dbg !3101
  store i8 0, i8* %m_useStylesheetPI, align 1, !dbg !3101
  %m_omitMETATag = getelementptr inbounds %class.Params, %class.Params* %this1, i32 0, i32 2, !dbg !3102
  store i8 0, i8* %m_omitMETATag, align 2, !dbg !3102
  %m_noURLEscaping = getelementptr inbounds %class.Params, %class.Params* %this1, i32 0, i32 3, !dbg !3103
  store i8 0, i8* %m_noURLEscaping, align 1, !dbg !3103
  %m_showTiming = getelementptr inbounds %class.Params, %class.Params* %this1, i32 0, i32 4, !dbg !3104
  store i8 0, i8* %m_showTiming, align 4, !dbg !3104
  %m_indentAmount = getelementptr inbounds %class.Params, %class.Params* %this1, i32 0, i32 5, !dbg !3105
  store i32 -1, i32* %m_indentAmount, align 8, !dbg !3105
  %m_inFileName = getelementptr inbounds %class.Params, %class.Params* %this1, i32 0, i32 6, !dbg !3106
  store i8* null, i8** %m_inFileName, align 8, !dbg !3106
  %m_xslFileName = getelementptr inbounds %class.Params, %class.Params* %this1, i32 0, i32 7, !dbg !3107
  store i8* null, i8** %m_xslFileName, align 8, !dbg !3107
  %m_outFileName = getelementptr inbounds %class.Params, %class.Params* %this1, i32 0, i32 8, !dbg !3108
  store i8* null, i8** %m_outFileName, align 8, !dbg !3108
  %m_encoding = getelementptr inbounds %class.Params, %class.Params* %this1, i32 0, i32 9, !dbg !3109
  store i8* null, i8** %m_encoding, align 8, !dbg !3109
  %m_params = getelementptr inbounds %class.Params, %class.Params* %this1, i32 0, i32 10, !dbg !3110
  call void @_ZN11xalanc_1_1017XalanArrayAutoPtrIN6Params9ParamPairEEC2EPS2_(%"class.xalanc_1_10::XalanArrayAutoPtr"* %m_params, %"struct.Params::ParamPair"* null), !dbg !3110
  %m_maxParams = getelementptr inbounds %class.Params, %class.Params* %this1, i32 0, i32 11, !dbg !3111
  %0 = load i64, i64* %maxParams.addr, align 8, !dbg !3112
  store i64 %0, i64* %m_maxParams, align 8, !dbg !3111
  %m_currentParam = getelementptr inbounds %class.Params, %class.Params* %this1, i32 0, i32 12, !dbg !3113
  store i64 0, i64* %m_currentParam, align 8, !dbg !3113
  ret void, !dbg !3114
}

declare dso_local void @_ZN11xalanc_1_1016XalanTransformerC1ERN11xercesc_2_713MemoryManagerE(%"class.xalanc_1_10::XalanTransformer"*, %"class.xercesc_2_7::MemoryManager"* dereferenceable(8)) unnamed_addr #1

; Function Attrs: noinline uwtable
define linkonce_odr dso_local void @_ZNK6Params9setParamsERN11xalanc_1_1016XalanTransformerE(%class.Params* %this, %"class.xalanc_1_10::XalanTransformer"* dereferenceable(384) %theTransformer) #0 comdat align 2 !dbg !3115 {
entry:
  %this.addr = alloca %class.Params*, align 8
  %theTransformer.addr = alloca %"class.xalanc_1_10::XalanTransformer"*, align 8
  %i = alloca i64, align 8
  store %class.Params* %this, %class.Params** %this.addr, align 8
  call void @llvm.dbg.declare(metadata %class.Params** %this.addr, metadata !3116, metadata !DIExpression()), !dbg !3118
  store %"class.xalanc_1_10::XalanTransformer"* %theTransformer, %"class.xalanc_1_10::XalanTransformer"** %theTransformer.addr, align 8
  call void @llvm.dbg.declare(metadata %"class.xalanc_1_10::XalanTransformer"** %theTransformer.addr, metadata !3119, metadata !DIExpression()), !dbg !3120
  %this1 = load %class.Params*, %class.Params** %this.addr, align 8
  %0 = load %"class.xalanc_1_10::XalanTransformer"*, %"class.xalanc_1_10::XalanTransformer"** %theTransformer.addr, align 8, !dbg !3121
  %m_validate = getelementptr inbounds %class.Params, %class.Params* %this1, i32 0, i32 0, !dbg !3122
  %1 = load i8, i8* %m_validate, align 8, !dbg !3122
  %tobool = trunc i8 %1 to i1, !dbg !3122
  call void @_ZN11xalanc_1_1016XalanTransformer16setUseValidationEb(%"class.xalanc_1_10::XalanTransformer"* %0, i1 zeroext %tobool), !dbg !3123
  %m_omitMETATag = getelementptr inbounds %class.Params, %class.Params* %this1, i32 0, i32 2, !dbg !3124
  %2 = load i8, i8* %m_omitMETATag, align 2, !dbg !3124
  %tobool2 = trunc i8 %2 to i1, !dbg !3124
  %conv = zext i1 %tobool2 to i32, !dbg !3124
  %cmp = icmp eq i32 %conv, 1, !dbg !3126
  br i1 %cmp, label %if.then, label %if.end, !dbg !3127

if.then:                                          ; preds = %entry
  %3 = load %"class.xalanc_1_10::XalanTransformer"*, %"class.xalanc_1_10::XalanTransformer"** %theTransformer.addr, align 8, !dbg !3128
  call void @_ZN11xalanc_1_1016XalanTransformer14setOmitMETATagENS0_12eOmitMETATagE(%"class.xalanc_1_10::XalanTransformer"* %3, i32 2), !dbg !3130
  br label %if.end, !dbg !3131

if.end:                                           ; preds = %if.then, %entry
  %m_noURLEscaping = getelementptr inbounds %class.Params, %class.Params* %this1, i32 0, i32 3, !dbg !3132
  %4 = load i8, i8* %m_noURLEscaping, align 1, !dbg !3132
  %tobool3 = trunc i8 %4 to i1, !dbg !3132
  %conv4 = zext i1 %tobool3 to i32, !dbg !3132
  %cmp5 = icmp eq i32 %conv4, 1, !dbg !3134
  br i1 %cmp5, label %if.then6, label %if.end7, !dbg !3135

if.then6:                                         ; preds = %if.end
  %5 = load %"class.xalanc_1_10::XalanTransformer"*, %"class.xalanc_1_10::XalanTransformer"** %theTransformer.addr, align 8, !dbg !3136
  call void @_ZN11xalanc_1_1016XalanTransformer13setEscapeURLsENS0_11eEscapeURLsE(%"class.xalanc_1_10::XalanTransformer"* %5, i32 1), !dbg !3138
  br label %if.end7, !dbg !3139

if.end7:                                          ; preds = %if.then6, %if.end
  %m_indentAmount = getelementptr inbounds %class.Params, %class.Params* %this1, i32 0, i32 5, !dbg !3140
  %6 = load i32, i32* %m_indentAmount, align 8, !dbg !3140
  %cmp8 = icmp sge i32 %6, 0, !dbg !3142
  br i1 %cmp8, label %if.then9, label %if.end11, !dbg !3143

if.then9:                                         ; preds = %if.end7
  %7 = load %"class.xalanc_1_10::XalanTransformer"*, %"class.xalanc_1_10::XalanTransformer"** %theTransformer.addr, align 8, !dbg !3144
  %m_indentAmount10 = getelementptr inbounds %class.Params, %class.Params* %this1, i32 0, i32 5, !dbg !3146
  %8 = load i32, i32* %m_indentAmount10, align 8, !dbg !3146
  call void @_ZN11xalanc_1_1016XalanTransformer9setIndentEi(%"class.xalanc_1_10::XalanTransformer"* %7, i32 %8), !dbg !3147
  br label %if.end11, !dbg !3148

if.end11:                                         ; preds = %if.then9, %if.end7
  call void @llvm.dbg.declare(metadata i64* %i, metadata !3149, metadata !DIExpression()), !dbg !3151
  store i64 0, i64* %i, align 8, !dbg !3151
  br label %for.cond, !dbg !3152

for.cond:                                         ; preds = %for.inc, %if.end11
  %9 = load i64, i64* %i, align 8, !dbg !3153
  %m_currentParam = getelementptr inbounds %class.Params, %class.Params* %this1, i32 0, i32 12, !dbg !3155
  %10 = load i64, i64* %m_currentParam, align 8, !dbg !3155
  %cmp12 = icmp ult i64 %9, %10, !dbg !3156
  br i1 %cmp12, label %for.body, label %for.end, !dbg !3157

for.body:                                         ; preds = %for.cond
  %11 = load %"class.xalanc_1_10::XalanTransformer"*, %"class.xalanc_1_10::XalanTransformer"** %theTransformer.addr, align 8, !dbg !3158
  %m_params = getelementptr inbounds %class.Params, %class.Params* %this1, i32 0, i32 10, !dbg !3160
  %12 = load i64, i64* %i, align 8, !dbg !3161
  %call = call dereferenceable(16) %"struct.Params::ParamPair"* @_ZNK11xalanc_1_1017XalanArrayAutoPtrIN6Params9ParamPairEEixEm(%"class.xalanc_1_10::XalanArrayAutoPtr"* %m_params, i64 %12), !dbg !3160
  %m_name = getelementptr inbounds %"struct.Params::ParamPair", %"struct.Params::ParamPair"* %call, i32 0, i32 0, !dbg !3162
  %13 = load i8*, i8** %m_name, align 8, !dbg !3162
  %m_params13 = getelementptr inbounds %class.Params, %class.Params* %this1, i32 0, i32 10, !dbg !3163
  %14 = load i64, i64* %i, align 8, !dbg !3164
  %call14 = call dereferenceable(16) %"struct.Params::ParamPair"* @_ZNK11xalanc_1_1017XalanArrayAutoPtrIN6Params9ParamPairEEixEm(%"class.xalanc_1_10::XalanArrayAutoPtr"* %m_params13, i64 %14), !dbg !3163
  %m_expression = getelementptr inbounds %"struct.Params::ParamPair", %"struct.Params::ParamPair"* %call14, i32 0, i32 1, !dbg !3165
  %15 = load i8*, i8** %m_expression, align 8, !dbg !3165
  call void @_ZN11xalanc_1_1016XalanTransformer18setStylesheetParamEPKcS2_(%"class.xalanc_1_10::XalanTransformer"* %11, i8* %13, i8* %15), !dbg !3166
  br label %for.inc, !dbg !3167

for.inc:                                          ; preds = %for.body
  %16 = load i64, i64* %i, align 8, !dbg !3168
  %inc = add i64 %16, 1, !dbg !3168
  store i64 %inc, i64* %i, align 8, !dbg !3168
  br label %for.cond, !dbg !3169, !llvm.loop !3170

for.end:                                          ; preds = %for.cond
  ret void, !dbg !3172
}

; Function Attrs: noinline uwtable
define linkonce_odr dso_local i32 @_Z9transformRN11xalanc_1_1016XalanTransformerERK6Params(%"class.xalanc_1_10::XalanTransformer"* dereferenceable(384) %theTransformer, %class.Params* dereferenceable(72) %theParams) #0 comdat personality i8* bitcast (i32 (...)* @__gxx_personality_v0 to i8*) !dbg !3173 {
entry:
  %retval = alloca i32, align 4
  %theTransformer.addr = alloca %"class.xalanc_1_10::XalanTransformer"*, align 8
  %theParams.addr = alloca %class.Params*, align 8
  %ref.tmp = alloca %"class.xalanc_1_10::XSLTInputSource", align 8
  %exn.slot = alloca i8*
  %ehselector.slot = alloca i32
  %ref.tmp6 = alloca %"class.xalanc_1_10::XSLTInputSource", align 8
  store %"class.xalanc_1_10::XalanTransformer"* %theTransformer, %"class.xalanc_1_10::XalanTransformer"** %theTransformer.addr, align 8
  call void @llvm.dbg.declare(metadata %"class.xalanc_1_10::XalanTransformer"** %theTransformer.addr, metadata !3176, metadata !DIExpression()), !dbg !3177
  store %class.Params* %theParams, %class.Params** %theParams.addr, align 8
  call void @llvm.dbg.declare(metadata %class.Params** %theParams.addr, metadata !3178, metadata !DIExpression()), !dbg !3179
  %0 = load %class.Params*, %class.Params** %theParams.addr, align 8, !dbg !3180
  %m_inFileName = getelementptr inbounds %class.Params, %class.Params* %0, i32 0, i32 6, !dbg !3182
  %1 = load i8*, i8** %m_inFileName, align 8, !dbg !3182
  %arrayidx = getelementptr inbounds i8, i8* %1, i64 0, !dbg !3180
  %2 = load i8, i8* %arrayidx, align 1, !dbg !3180
  %conv = sext i8 %2 to i32, !dbg !3180
  %cmp = icmp eq i32 %conv, 45, !dbg !3183
  br i1 %cmp, label %land.lhs.true, label %if.else, !dbg !3184

land.lhs.true:                                    ; preds = %entry
  %3 = load %class.Params*, %class.Params** %theParams.addr, align 8, !dbg !3185
  %m_inFileName1 = getelementptr inbounds %class.Params, %class.Params* %3, i32 0, i32 6, !dbg !3186
  %4 = load i8*, i8** %m_inFileName1, align 8, !dbg !3186
  %arrayidx2 = getelementptr inbounds i8, i8* %4, i64 1, !dbg !3185
  %5 = load i8, i8* %arrayidx2, align 1, !dbg !3185
  %conv3 = sext i8 %5 to i32, !dbg !3185
  %cmp4 = icmp eq i32 %conv3, 0, !dbg !3187
  br i1 %cmp4, label %if.then, label %if.else, !dbg !3188

if.then:                                          ; preds = %land.lhs.true
  %6 = load %"class.xalanc_1_10::XalanTransformer"*, %"class.xalanc_1_10::XalanTransformer"** %theTransformer.addr, align 8, !dbg !3189
  %7 = load %class.Params*, %class.Params** %theParams.addr, align 8, !dbg !3191
  %call = call dereferenceable(8) %"class.xercesc_2_7::MemoryManager"* @_ZN11xalanc_1_1012XalanMemMgrs10getDefaultEv(), !dbg !3192
  call void @_ZN11xalanc_1_1015XSLTInputSourceC1EPSiRN11xercesc_2_713MemoryManagerE(%"class.xalanc_1_10::XSLTInputSource"* %ref.tmp, %"class.std::basic_istream"* @_ZSt3cin, %"class.xercesc_2_7::MemoryManager"* dereferenceable(8) %call), !dbg !3192
  %call5 = invoke i32 @_Z9transformRN11xalanc_1_1016XalanTransformerERK6ParamsRKNS_15XSLTInputSourceE(%"class.xalanc_1_10::XalanTransformer"* dereferenceable(384) %6, %class.Params* dereferenceable(72) %7, %"class.xalanc_1_10::XSLTInputSource"* dereferenceable(64) %ref.tmp)
          to label %invoke.cont unwind label %lpad, !dbg !3193

invoke.cont:                                      ; preds = %if.then
  store i32 %call5, i32* %retval, align 4, !dbg !3194
  call void @_ZN11xalanc_1_1015XSLTInputSourceD2Ev(%"class.xalanc_1_10::XSLTInputSource"* %ref.tmp) #3, !dbg !3194
  br label %return, !dbg !3194

lpad:                                             ; preds = %if.then
  %8 = landingpad { i8*, i32 }
          cleanup, !dbg !3195
  %9 = extractvalue { i8*, i32 } %8, 0, !dbg !3195
  store i8* %9, i8** %exn.slot, align 8, !dbg !3195
  %10 = extractvalue { i8*, i32 } %8, 1, !dbg !3195
  store i32 %10, i32* %ehselector.slot, align 4, !dbg !3195
  call void @_ZN11xalanc_1_1015XSLTInputSourceD2Ev(%"class.xalanc_1_10::XSLTInputSource"* %ref.tmp) #3, !dbg !3194
  br label %eh.resume, !dbg !3194

if.else:                                          ; preds = %land.lhs.true, %entry
  %11 = load %"class.xalanc_1_10::XalanTransformer"*, %"class.xalanc_1_10::XalanTransformer"** %theTransformer.addr, align 8, !dbg !3196
  %12 = load %class.Params*, %class.Params** %theParams.addr, align 8, !dbg !3198
  %13 = load %class.Params*, %class.Params** %theParams.addr, align 8, !dbg !3199
  %m_inFileName7 = getelementptr inbounds %class.Params, %class.Params* %13, i32 0, i32 6, !dbg !3200
  %14 = load i8*, i8** %m_inFileName7, align 8, !dbg !3200
  %call8 = call dereferenceable(8) %"class.xercesc_2_7::MemoryManager"* @_ZN11xalanc_1_1012XalanMemMgrs10getDefaultEv(), !dbg !3199
  call void @_ZN11xalanc_1_1015XSLTInputSourceC1EPKcRN11xercesc_2_713MemoryManagerE(%"class.xalanc_1_10::XSLTInputSource"* %ref.tmp6, i8* %14, %"class.xercesc_2_7::MemoryManager"* dereferenceable(8) %call8), !dbg !3199
  %call11 = invoke i32 @_Z9transformRN11xalanc_1_1016XalanTransformerERK6ParamsRKNS_15XSLTInputSourceE(%"class.xalanc_1_10::XalanTransformer"* dereferenceable(384) %11, %class.Params* dereferenceable(72) %12, %"class.xalanc_1_10::XSLTInputSource"* dereferenceable(64) %ref.tmp6)
          to label %invoke.cont10 unwind label %lpad9, !dbg !3201

invoke.cont10:                                    ; preds = %if.else
  store i32 %call11, i32* %retval, align 4, !dbg !3202
  call void @_ZN11xalanc_1_1015XSLTInputSourceD2Ev(%"class.xalanc_1_10::XSLTInputSource"* %ref.tmp6) #3, !dbg !3202
  br label %return, !dbg !3202

lpad9:                                            ; preds = %if.else
  %15 = landingpad { i8*, i32 }
          cleanup, !dbg !3203
  %16 = extractvalue { i8*, i32 } %15, 0, !dbg !3203
  store i8* %16, i8** %exn.slot, align 8, !dbg !3203
  %17 = extractvalue { i8*, i32 } %15, 1, !dbg !3203
  store i32 %17, i32* %ehselector.slot, align 4, !dbg !3203
  call void @_ZN11xalanc_1_1015XSLTInputSourceD2Ev(%"class.xalanc_1_10::XSLTInputSource"* %ref.tmp6) #3, !dbg !3202
  br label %eh.resume, !dbg !3202

return:                                           ; preds = %invoke.cont10, %invoke.cont
  %18 = load i32, i32* %retval, align 4, !dbg !3204
  ret i32 %18, !dbg !3204

eh.resume:                                        ; preds = %lpad9, %lpad
  %exn = load i8*, i8** %exn.slot, align 8, !dbg !3194
  %sel = load i32, i32* %ehselector.slot, align 4, !dbg !3194
  %lpad.val = insertvalue { i8*, i32 } undef, i8* %exn, 0, !dbg !3194
  %lpad.val12 = insertvalue { i8*, i32 } %lpad.val, i32 %sel, 1, !dbg !3194
  resume { i8*, i32 } %lpad.val12, !dbg !3194
}

; Function Attrs: noinline uwtable
define linkonce_odr dso_local i8* @_ZNK11xalanc_1_1016XalanTransformer12getLastErrorEv(%"class.xalanc_1_10::XalanTransformer"* %this) #0 comdat align 2 !dbg !3205 {
entry:
  %this.addr = alloca %"class.xalanc_1_10::XalanTransformer"*, align 8
  store %"class.xalanc_1_10::XalanTransformer"* %this, %"class.xalanc_1_10::XalanTransformer"** %this.addr, align 8
  call void @llvm.dbg.declare(metadata %"class.xalanc_1_10::XalanTransformer"** %this.addr, metadata !3211, metadata !DIExpression()), !dbg !3213
  %this1 = load %"class.xalanc_1_10::XalanTransformer"*, %"class.xalanc_1_10::XalanTransformer"** %this.addr, align 8
  %m_errorMessage = getelementptr inbounds %"class.xalanc_1_10::XalanTransformer", %"class.xalanc_1_10::XalanTransformer"* %this1, i32 0, i32 7, !dbg !3214
  %call = call dereferenceable(1) i8* @_ZNK11xalanc_1_1011XalanVectorIcNS_31MemoryManagedConstructionTraitsIcEEEixEm(%"class.xalanc_1_10::XalanVector.0"* %m_errorMessage, i64 0), !dbg !3214
  ret i8* %call, !dbg !3215
}

; Function Attrs: nounwind
declare dso_local void @_ZN11xalanc_1_1016XalanTransformerD1Ev(%"class.xalanc_1_10::XalanTransformer"*) unnamed_addr #2

; Function Attrs: noinline nounwind uwtable
define linkonce_odr dso_local void @_ZN6ParamsD2Ev(%class.Params* %this) unnamed_addr #5 comdat align 2 !dbg !3216 {
entry:
  %this.addr = alloca %class.Params*, align 8
  store %class.Params* %this, %class.Params** %this.addr, align 8
  call void @llvm.dbg.declare(metadata %class.Params** %this.addr, metadata !3220, metadata !DIExpression()), !dbg !3221
  %this1 = load %class.Params*, %class.Params** %this.addr, align 8
  %m_params = getelementptr inbounds %class.Params, %class.Params* %this1, i32 0, i32 10, !dbg !3222
  call void @_ZN11xalanc_1_1017XalanArrayAutoPtrIN6Params9ParamPairEED2Ev(%"class.xalanc_1_10::XalanArrayAutoPtr"* %m_params) #3, !dbg !3222
  ret void, !dbg !3224
}

declare dso_local void @_ZN11xalanc_1_1016XalanTransformer9terminateEv() #1

declare dso_local void @_ZN11xercesc_2_716XMLPlatformUtils9TerminateEv() #1

declare dso_local void @_ZN11xalanc_1_1016XalanTransformer10ICUCleanUpEv() #1

; Function Attrs: noinline norecurse uwtable
define dso_local i32 @main(i32 %argc, i8** %argv) #10 !dbg !3225 {
entry:
  %retval = alloca i32, align 4
  %argc.addr = alloca i32, align 4
  %argv.addr = alloca i8**, align 8
  store i32 0, i32* %retval, align 4
  store i32 %argc, i32* %argc.addr, align 4
  call void @llvm.dbg.declare(metadata i32* %argc.addr, metadata !3226, metadata !DIExpression()), !dbg !3227
  store i8** %argv, i8*** %argv.addr, align 8
  call void @llvm.dbg.declare(metadata i8*** %argv.addr, metadata !3228, metadata !DIExpression()), !dbg !3229
  %0 = load i32, i32* %argc.addr, align 4, !dbg !3230
  %1 = load i8**, i8*** %argv.addr, align 8, !dbg !3231
  %call = call i32 @_Z8xsltMainiPPc(i32 %0, i8** %1), !dbg !3232
  ret i32 %call, !dbg !3233
}

; Function Attrs: noinline nounwind uwtable
define linkonce_odr dso_local void @_ZN11xalanc_1_1011XalanVectorItNS_31MemoryManagedConstructionTraitsItEEED2Ev(%"class.xalanc_1_10::XalanVector"* %this) unnamed_addr #5 comdat align 2 personality i8* bitcast (i32 (...)* @__gxx_personality_v0 to i8*) !dbg !3234 {
entry:
  %this.addr = alloca %"class.xalanc_1_10::XalanVector"*, align 8
  store %"class.xalanc_1_10::XalanVector"* %this, %"class.xalanc_1_10::XalanVector"** %this.addr, align 8
  call void @llvm.dbg.declare(metadata %"class.xalanc_1_10::XalanVector"** %this.addr, metadata !3235, metadata !DIExpression()), !dbg !3236
  %this1 = load %"class.xalanc_1_10::XalanVector"*, %"class.xalanc_1_10::XalanVector"** %this.addr, align 8
  invoke void @_ZNK11xalanc_1_1011XalanVectorItNS_31MemoryManagedConstructionTraitsItEEE10invariantsEv(%"class.xalanc_1_10::XalanVector"* %this1)
          to label %invoke.cont unwind label %terminate.lpad, !dbg !3237

invoke.cont:                                      ; preds = %entry
  %m_allocation = getelementptr inbounds %"class.xalanc_1_10::XalanVector", %"class.xalanc_1_10::XalanVector"* %this1, i32 0, i32 2, !dbg !3239
  %0 = load i64, i64* %m_allocation, align 8, !dbg !3239
  %cmp = icmp ne i64 %0, 0, !dbg !3241
  br i1 %cmp, label %if.then, label %if.end, !dbg !3242

if.then:                                          ; preds = %invoke.cont
  %call = invoke i16* @_ZN11xalanc_1_1011XalanVectorItNS_31MemoryManagedConstructionTraitsItEEE5beginEv(%"class.xalanc_1_10::XalanVector"* %this1)
          to label %invoke.cont2 unwind label %terminate.lpad, !dbg !3243

invoke.cont2:                                     ; preds = %if.then
  %call4 = invoke i16* @_ZN11xalanc_1_1011XalanVectorItNS_31MemoryManagedConstructionTraitsItEEE3endEv(%"class.xalanc_1_10::XalanVector"* %this1)
          to label %invoke.cont3 unwind label %terminate.lpad, !dbg !3245

invoke.cont3:                                     ; preds = %invoke.cont2
  invoke void @_ZN11xalanc_1_1011XalanVectorItNS_31MemoryManagedConstructionTraitsItEEE7destroyEPtS4_(i16* %call, i16* %call4)
          to label %invoke.cont5 unwind label %terminate.lpad, !dbg !3246

invoke.cont5:                                     ; preds = %invoke.cont3
  %m_data = getelementptr inbounds %"class.xalanc_1_10::XalanVector", %"class.xalanc_1_10::XalanVector"* %this1, i32 0, i32 3, !dbg !3247
  %1 = load i16*, i16** %m_data, align 8, !dbg !3247
  invoke void @_ZN11xalanc_1_1011XalanVectorItNS_31MemoryManagedConstructionTraitsItEEE10deallocateEPt(%"class.xalanc_1_10::XalanVector"* %this1, i16* %1)
          to label %invoke.cont6 unwind label %terminate.lpad, !dbg !3248

invoke.cont6:                                     ; preds = %invoke.cont5
  br label %if.end, !dbg !3249

if.end:                                           ; preds = %invoke.cont6, %invoke.cont
  ret void, !dbg !3250

terminate.lpad:                                   ; preds = %invoke.cont5, %invoke.cont3, %invoke.cont2, %if.then, %entry
  %2 = landingpad { i8*, i32 }
          catch i8* null, !dbg !3237
  %3 = extractvalue { i8*, i32 } %2, 0, !dbg !3237
  call void @__clang_call_terminate(i8* %3) #14, !dbg !3237
  unreachable, !dbg !3237
}

; Function Attrs: noinline nounwind uwtable
define linkonce_odr dso_local void @_ZNK11xalanc_1_1011XalanVectorItNS_31MemoryManagedConstructionTraitsItEEE10invariantsEv(%"class.xalanc_1_10::XalanVector"* %this) #5 comdat align 2 !dbg !3251 {
entry:
  %this.addr = alloca %"class.xalanc_1_10::XalanVector"*, align 8
  store %"class.xalanc_1_10::XalanVector"* %this, %"class.xalanc_1_10::XalanVector"** %this.addr, align 8
  call void @llvm.dbg.declare(metadata %"class.xalanc_1_10::XalanVector"** %this.addr, metadata !3252, metadata !DIExpression()), !dbg !3254
  %this1 = load %"class.xalanc_1_10::XalanVector"*, %"class.xalanc_1_10::XalanVector"** %this.addr, align 8
  ret void, !dbg !3255
}

; Function Attrs: noinline uwtable
define linkonce_odr dso_local void @_ZN11xalanc_1_1011XalanVectorItNS_31MemoryManagedConstructionTraitsItEEE7destroyEPtS4_(i16* %theFirst, i16* %theLast) #0 comdat align 2 !dbg !3256 {
entry:
  %theFirst.addr = alloca i16*, align 8
  %theLast.addr = alloca i16*, align 8
  store i16* %theFirst, i16** %theFirst.addr, align 8
  call void @llvm.dbg.declare(metadata i16** %theFirst.addr, metadata !3257, metadata !DIExpression()), !dbg !3258
  store i16* %theLast, i16** %theLast.addr, align 8
  call void @llvm.dbg.declare(metadata i16** %theLast.addr, metadata !3259, metadata !DIExpression()), !dbg !3260
  br label %for.cond, !dbg !3261

for.cond:                                         ; preds = %for.inc, %entry
  %0 = load i16*, i16** %theFirst.addr, align 8, !dbg !3262
  %1 = load i16*, i16** %theLast.addr, align 8, !dbg !3265
  %cmp = icmp ne i16* %0, %1, !dbg !3266
  br i1 %cmp, label %for.body, label %for.end, !dbg !3267

for.body:                                         ; preds = %for.cond
  %2 = load i16*, i16** %theFirst.addr, align 8, !dbg !3268
  call void @_ZN11xalanc_1_1011XalanVectorItNS_31MemoryManagedConstructionTraitsItEEE7destroyERt(i16* dereferenceable(2) %2), !dbg !3270
  br label %for.inc, !dbg !3271

for.inc:                                          ; preds = %for.body
  %3 = load i16*, i16** %theFirst.addr, align 8, !dbg !3272
  %incdec.ptr = getelementptr inbounds i16, i16* %3, i32 1, !dbg !3272
  store i16* %incdec.ptr, i16** %theFirst.addr, align 8, !dbg !3272
  br label %for.cond, !dbg !3273, !llvm.loop !3274

for.end:                                          ; preds = %for.cond
  ret void, !dbg !3276
}

; Function Attrs: noinline nounwind uwtable
define linkonce_odr dso_local i16* @_ZN11xalanc_1_1011XalanVectorItNS_31MemoryManagedConstructionTraitsItEEE5beginEv(%"class.xalanc_1_10::XalanVector"* %this) #5 comdat align 2 !dbg !3277 {
entry:
  %this.addr = alloca %"class.xalanc_1_10::XalanVector"*, align 8
  store %"class.xalanc_1_10::XalanVector"* %this, %"class.xalanc_1_10::XalanVector"** %this.addr, align 8
  call void @llvm.dbg.declare(metadata %"class.xalanc_1_10::XalanVector"** %this.addr, metadata !3278, metadata !DIExpression()), !dbg !3279
  %this1 = load %"class.xalanc_1_10::XalanVector"*, %"class.xalanc_1_10::XalanVector"** %this.addr, align 8
  call void @_ZNK11xalanc_1_1011XalanVectorItNS_31MemoryManagedConstructionTraitsItEEE10invariantsEv(%"class.xalanc_1_10::XalanVector"* %this1), !dbg !3280
  %m_data = getelementptr inbounds %"class.xalanc_1_10::XalanVector", %"class.xalanc_1_10::XalanVector"* %this1, i32 0, i32 3, !dbg !3281
  %0 = load i16*, i16** %m_data, align 8, !dbg !3281
  ret i16* %0, !dbg !3282
}

; Function Attrs: noinline uwtable
define linkonce_odr dso_local i16* @_ZN11xalanc_1_1011XalanVectorItNS_31MemoryManagedConstructionTraitsItEEE3endEv(%"class.xalanc_1_10::XalanVector"* %this) #0 comdat align 2 !dbg !3283 {
entry:
  %this.addr = alloca %"class.xalanc_1_10::XalanVector"*, align 8
  store %"class.xalanc_1_10::XalanVector"* %this, %"class.xalanc_1_10::XalanVector"** %this.addr, align 8
  call void @llvm.dbg.declare(metadata %"class.xalanc_1_10::XalanVector"** %this.addr, metadata !3284, metadata !DIExpression()), !dbg !3285
  %this1 = load %"class.xalanc_1_10::XalanVector"*, %"class.xalanc_1_10::XalanVector"** %this.addr, align 8
  call void @_ZNK11xalanc_1_1011XalanVectorItNS_31MemoryManagedConstructionTraitsItEEE10invariantsEv(%"class.xalanc_1_10::XalanVector"* %this1), !dbg !3286
  %call = call i16* @_ZN11xalanc_1_1011XalanVectorItNS_31MemoryManagedConstructionTraitsItEEE10endPointerEv(%"class.xalanc_1_10::XalanVector"* %this1), !dbg !3287
  ret i16* %call, !dbg !3288
}

; Function Attrs: noinline uwtable
define linkonce_odr dso_local void @_ZN11xalanc_1_1011XalanVectorItNS_31MemoryManagedConstructionTraitsItEEE10deallocateEPt(%"class.xalanc_1_10::XalanVector"* %this, i16* %pointer) #0 comdat align 2 !dbg !3289 {
entry:
  %this.addr = alloca %"class.xalanc_1_10::XalanVector"*, align 8
  %pointer.addr = alloca i16*, align 8
  store %"class.xalanc_1_10::XalanVector"* %this, %"class.xalanc_1_10::XalanVector"** %this.addr, align 8
  call void @llvm.dbg.declare(metadata %"class.xalanc_1_10::XalanVector"** %this.addr, metadata !3290, metadata !DIExpression()), !dbg !3291
  store i16* %pointer, i16** %pointer.addr, align 8
  call void @llvm.dbg.declare(metadata i16** %pointer.addr, metadata !3292, metadata !DIExpression()), !dbg !3293
  %this1 = load %"class.xalanc_1_10::XalanVector"*, %"class.xalanc_1_10::XalanVector"** %this.addr, align 8
  %m_memoryManager = getelementptr inbounds %"class.xalanc_1_10::XalanVector", %"class.xalanc_1_10::XalanVector"* %this1, i32 0, i32 0, !dbg !3294
  %0 = load %"class.xercesc_2_7::MemoryManager"*, %"class.xercesc_2_7::MemoryManager"** %m_memoryManager, align 8, !dbg !3294
  %1 = load i16*, i16** %pointer.addr, align 8, !dbg !3295
  %2 = bitcast i16* %1 to i8*, !dbg !3295
  %3 = bitcast %"class.xercesc_2_7::MemoryManager"* %0 to void (%"class.xercesc_2_7::MemoryManager"*, i8*)***, !dbg !3296
  %vtable = load void (%"class.xercesc_2_7::MemoryManager"*, i8*)**, void (%"class.xercesc_2_7::MemoryManager"*, i8*)*** %3, align 8, !dbg !3296
  %vfn = getelementptr inbounds void (%"class.xercesc_2_7::MemoryManager"*, i8*)*, void (%"class.xercesc_2_7::MemoryManager"*, i8*)** %vtable, i64 3, !dbg !3296
  %4 = load void (%"class.xercesc_2_7::MemoryManager"*, i8*)*, void (%"class.xercesc_2_7::MemoryManager"*, i8*)** %vfn, align 8, !dbg !3296
  call void %4(%"class.xercesc_2_7::MemoryManager"* %0, i8* %2), !dbg !3296
  ret void, !dbg !3297
}

; Function Attrs: noinline nounwind uwtable
define linkonce_odr dso_local void @_ZN11xalanc_1_1011XalanVectorItNS_31MemoryManagedConstructionTraitsItEEE7destroyERt(i16* dereferenceable(2) %theValue) #5 comdat align 2 !dbg !3298 {
entry:
  %theValue.addr = alloca i16*, align 8
  store i16* %theValue, i16** %theValue.addr, align 8
  call void @llvm.dbg.declare(metadata i16** %theValue.addr, metadata !3299, metadata !DIExpression()), !dbg !3300
  %0 = load i16*, i16** %theValue.addr, align 8, !dbg !3301
  ret void, !dbg !3302
}

; Function Attrs: noinline nounwind uwtable
define linkonce_odr dso_local i16* @_ZN11xalanc_1_1011XalanVectorItNS_31MemoryManagedConstructionTraitsItEEE10endPointerEv(%"class.xalanc_1_10::XalanVector"* %this) #5 comdat align 2 !dbg !3303 {
entry:
  %this.addr = alloca %"class.xalanc_1_10::XalanVector"*, align 8
  store %"class.xalanc_1_10::XalanVector"* %this, %"class.xalanc_1_10::XalanVector"** %this.addr, align 8
  call void @llvm.dbg.declare(metadata %"class.xalanc_1_10::XalanVector"** %this.addr, metadata !3304, metadata !DIExpression()), !dbg !3305
  %this1 = load %"class.xalanc_1_10::XalanVector"*, %"class.xalanc_1_10::XalanVector"** %this.addr, align 8
  %m_data = getelementptr inbounds %"class.xalanc_1_10::XalanVector", %"class.xalanc_1_10::XalanVector"* %this1, i32 0, i32 3, !dbg !3306
  %0 = load i16*, i16** %m_data, align 8, !dbg !3306
  %m_size = getelementptr inbounds %"class.xalanc_1_10::XalanVector", %"class.xalanc_1_10::XalanVector"* %this1, i32 0, i32 1, !dbg !3307
  %1 = load i64, i64* %m_size, align 8, !dbg !3307
  %add.ptr = getelementptr inbounds i16, i16* %0, i64 %1, !dbg !3308
  ret i16* %add.ptr, !dbg !3309
}

; Function Attrs: noinline nounwind uwtable
define linkonce_odr dso_local %"struct.Params::ParamPair"* @_ZNK11xalanc_1_1017XalanArrayAutoPtrIN6Params9ParamPairEE3getEv(%"class.xalanc_1_10::XalanArrayAutoPtr"* %this) #5 comdat align 2 !dbg !3310 {
entry:
  %this.addr = alloca %"class.xalanc_1_10::XalanArrayAutoPtr"*, align 8
  store %"class.xalanc_1_10::XalanArrayAutoPtr"* %this, %"class.xalanc_1_10::XalanArrayAutoPtr"** %this.addr, align 8
  call void @llvm.dbg.declare(metadata %"class.xalanc_1_10::XalanArrayAutoPtr"** %this.addr, metadata !3311, metadata !DIExpression()), !dbg !3313
  %this1 = load %"class.xalanc_1_10::XalanArrayAutoPtr"*, %"class.xalanc_1_10::XalanArrayAutoPtr"** %this.addr, align 8
  %m_pointer = getelementptr inbounds %"class.xalanc_1_10::XalanArrayAutoPtr", %"class.xalanc_1_10::XalanArrayAutoPtr"* %this1, i32 0, i32 0, !dbg !3314
  %0 = load %"struct.Params::ParamPair"*, %"struct.Params::ParamPair"** %m_pointer, align 8, !dbg !3314
  ret %"struct.Params::ParamPair"* %0, !dbg !3315
}

; Function Attrs: noinline nounwind uwtable
define linkonce_odr dso_local void @_ZN11xalanc_1_1017XalanArrayAutoPtrIN6Params9ParamPairEE5resetEPS2_(%"class.xalanc_1_10::XalanArrayAutoPtr"* %this, %"struct.Params::ParamPair"* %thePointer) #5 comdat align 2 !dbg !3316 {
entry:
  %this.addr = alloca %"class.xalanc_1_10::XalanArrayAutoPtr"*, align 8
  %thePointer.addr = alloca %"struct.Params::ParamPair"*, align 8
  store %"class.xalanc_1_10::XalanArrayAutoPtr"* %this, %"class.xalanc_1_10::XalanArrayAutoPtr"** %this.addr, align 8
  call void @llvm.dbg.declare(metadata %"class.xalanc_1_10::XalanArrayAutoPtr"** %this.addr, metadata !3317, metadata !DIExpression()), !dbg !3319
  store %"struct.Params::ParamPair"* %thePointer, %"struct.Params::ParamPair"** %thePointer.addr, align 8
  call void @llvm.dbg.declare(metadata %"struct.Params::ParamPair"** %thePointer.addr, metadata !3320, metadata !DIExpression()), !dbg !3321
  %this1 = load %"class.xalanc_1_10::XalanArrayAutoPtr"*, %"class.xalanc_1_10::XalanArrayAutoPtr"** %this.addr, align 8
  %m_pointer = getelementptr inbounds %"class.xalanc_1_10::XalanArrayAutoPtr", %"class.xalanc_1_10::XalanArrayAutoPtr"* %this1, i32 0, i32 0, !dbg !3322
  %0 = load %"struct.Params::ParamPair"*, %"struct.Params::ParamPair"** %m_pointer, align 8, !dbg !3322
  %cmp = icmp ne %"struct.Params::ParamPair"* %0, null, !dbg !3324
  br i1 %cmp, label %if.then, label %if.end, !dbg !3325

if.then:                                          ; preds = %entry
  %m_pointer2 = getelementptr inbounds %"class.xalanc_1_10::XalanArrayAutoPtr", %"class.xalanc_1_10::XalanArrayAutoPtr"* %this1, i32 0, i32 0, !dbg !3326
  %1 = load %"struct.Params::ParamPair"*, %"struct.Params::ParamPair"** %m_pointer2, align 8, !dbg !3326
  %isnull = icmp eq %"struct.Params::ParamPair"* %1, null, !dbg !3328
  br i1 %isnull, label %delete.end, label %delete.notnull, !dbg !3328

delete.notnull:                                   ; preds = %if.then
  %2 = bitcast %"struct.Params::ParamPair"* %1 to i8*, !dbg !3328
  call void @_ZdaPv(i8* %2) #13, !dbg !3328
  br label %delete.end, !dbg !3328

delete.end:                                       ; preds = %delete.notnull, %if.then
  br label %if.end, !dbg !3329

if.end:                                           ; preds = %delete.end, %entry
  %3 = load %"struct.Params::ParamPair"*, %"struct.Params::ParamPair"** %thePointer.addr, align 8, !dbg !3330
  %m_pointer3 = getelementptr inbounds %"class.xalanc_1_10::XalanArrayAutoPtr", %"class.xalanc_1_10::XalanArrayAutoPtr"* %this1, i32 0, i32 0, !dbg !3331
  store %"struct.Params::ParamPair"* %3, %"struct.Params::ParamPair"** %m_pointer3, align 8, !dbg !3332
  ret void, !dbg !3333
}

; Function Attrs: nounwind readnone speculatable willreturn
declare { i64, i1 } @llvm.umul.with.overflow.i64(i64, i64) #4

; Function Attrs: nobuiltin
declare dso_local noalias i8* @_Znam(i64) #11

; Function Attrs: noinline nounwind uwtable
define linkonce_odr dso_local void @_ZN6Params9ParamPairC2Ev(%"struct.Params::ParamPair"* %this) unnamed_addr #5 comdat align 2 !dbg !3334 {
entry:
  %this.addr = alloca %"struct.Params::ParamPair"*, align 8
  store %"struct.Params::ParamPair"* %this, %"struct.Params::ParamPair"** %this.addr, align 8
  call void @llvm.dbg.declare(metadata %"struct.Params::ParamPair"** %this.addr, metadata !3335, metadata !DIExpression()), !dbg !3336
  %this1 = load %"struct.Params::ParamPair"*, %"struct.Params::ParamPair"** %this.addr, align 8
  %m_name = getelementptr inbounds %"struct.Params::ParamPair", %"struct.Params::ParamPair"* %this1, i32 0, i32 0, !dbg !3337
  store i8* null, i8** %m_name, align 8, !dbg !3337
  %m_expression = getelementptr inbounds %"struct.Params::ParamPair", %"struct.Params::ParamPair"* %this1, i32 0, i32 1, !dbg !3338
  store i8* null, i8** %m_expression, align 8, !dbg !3338
  ret void, !dbg !3339
}

; Function Attrs: nobuiltin nounwind
declare dso_local void @_ZdaPv(i8*) #6

; Function Attrs: noinline nounwind uwtable
define linkonce_odr dso_local dereferenceable(16) %"struct.Params::ParamPair"* @_ZNK11xalanc_1_1017XalanArrayAutoPtrIN6Params9ParamPairEEixEm(%"class.xalanc_1_10::XalanArrayAutoPtr"* %this, i64 %index) #5 comdat align 2 !dbg !3340 {
entry:
  %this.addr = alloca %"class.xalanc_1_10::XalanArrayAutoPtr"*, align 8
  %index.addr = alloca i64, align 8
  store %"class.xalanc_1_10::XalanArrayAutoPtr"* %this, %"class.xalanc_1_10::XalanArrayAutoPtr"** %this.addr, align 8
  call void @llvm.dbg.declare(metadata %"class.xalanc_1_10::XalanArrayAutoPtr"** %this.addr, metadata !3341, metadata !DIExpression()), !dbg !3342
  store i64 %index, i64* %index.addr, align 8
  call void @llvm.dbg.declare(metadata i64* %index.addr, metadata !3343, metadata !DIExpression()), !dbg !3344
  %this1 = load %"class.xalanc_1_10::XalanArrayAutoPtr"*, %"class.xalanc_1_10::XalanArrayAutoPtr"** %this.addr, align 8
  %m_pointer = getelementptr inbounds %"class.xalanc_1_10::XalanArrayAutoPtr", %"class.xalanc_1_10::XalanArrayAutoPtr"* %this1, i32 0, i32 0, !dbg !3345
  %0 = load %"struct.Params::ParamPair"*, %"struct.Params::ParamPair"** %m_pointer, align 8, !dbg !3345
  %1 = load i64, i64* %index.addr, align 8, !dbg !3346
  %arrayidx = getelementptr inbounds %"struct.Params::ParamPair", %"struct.Params::ParamPair"* %0, i64 %1, !dbg !3345
  ret %"struct.Params::ParamPair"* %arrayidx, !dbg !3347
}

; Function Attrs: noinline nounwind uwtable
define linkonce_odr dso_local void @_ZN11xalanc_1_1017XalanArrayAutoPtrIN6Params9ParamPairEEC2EPS2_(%"class.xalanc_1_10::XalanArrayAutoPtr"* %this, %"struct.Params::ParamPair"* %thePointer) unnamed_addr #5 comdat align 2 !dbg !3348 {
entry:
  %this.addr = alloca %"class.xalanc_1_10::XalanArrayAutoPtr"*, align 8
  %thePointer.addr = alloca %"struct.Params::ParamPair"*, align 8
  store %"class.xalanc_1_10::XalanArrayAutoPtr"* %this, %"class.xalanc_1_10::XalanArrayAutoPtr"** %this.addr, align 8
  call void @llvm.dbg.declare(metadata %"class.xalanc_1_10::XalanArrayAutoPtr"** %this.addr, metadata !3349, metadata !DIExpression()), !dbg !3350
  store %"struct.Params::ParamPair"* %thePointer, %"struct.Params::ParamPair"** %thePointer.addr, align 8
  call void @llvm.dbg.declare(metadata %"struct.Params::ParamPair"** %thePointer.addr, metadata !3351, metadata !DIExpression()), !dbg !3352
  %this1 = load %"class.xalanc_1_10::XalanArrayAutoPtr"*, %"class.xalanc_1_10::XalanArrayAutoPtr"** %this.addr, align 8
  %m_pointer = getelementptr inbounds %"class.xalanc_1_10::XalanArrayAutoPtr", %"class.xalanc_1_10::XalanArrayAutoPtr"* %this1, i32 0, i32 0, !dbg !3353
  %0 = load %"struct.Params::ParamPair"*, %"struct.Params::ParamPair"** %thePointer.addr, align 8, !dbg !3354
  store %"struct.Params::ParamPair"* %0, %"struct.Params::ParamPair"** %m_pointer, align 8, !dbg !3353
  ret void, !dbg !3355
}

; Function Attrs: noinline nounwind uwtable
define linkonce_odr dso_local void @_ZN11xalanc_1_1016XalanTransformer16setUseValidationEb(%"class.xalanc_1_10::XalanTransformer"* %this, i1 zeroext %fValue) #5 comdat align 2 !dbg !3356 {
entry:
  %this.addr = alloca %"class.xalanc_1_10::XalanTransformer"*, align 8
  %fValue.addr = alloca i8, align 1
  store %"class.xalanc_1_10::XalanTransformer"* %this, %"class.xalanc_1_10::XalanTransformer"** %this.addr, align 8
  call void @llvm.dbg.declare(metadata %"class.xalanc_1_10::XalanTransformer"** %this.addr, metadata !3361, metadata !DIExpression()), !dbg !3363
  %frombool = zext i1 %fValue to i8
  store i8 %frombool, i8* %fValue.addr, align 1
  call void @llvm.dbg.declare(metadata i8* %fValue.addr, metadata !3364, metadata !DIExpression()), !dbg !3365
  %this1 = load %"class.xalanc_1_10::XalanTransformer"*, %"class.xalanc_1_10::XalanTransformer"** %this.addr, align 8
  %0 = load i8, i8* %fValue.addr, align 1, !dbg !3366
  %tobool = trunc i8 %0 to i1, !dbg !3366
  %m_useValidation = getelementptr inbounds %"class.xalanc_1_10::XalanTransformer", %"class.xalanc_1_10::XalanTransformer"* %this1, i32 0, i32 8, !dbg !3367
  %frombool2 = zext i1 %tobool to i8, !dbg !3368
  store i8 %frombool2, i8* %m_useValidation, align 8, !dbg !3368
  ret void, !dbg !3369
}

declare dso_local void @_ZN11xalanc_1_1016XalanTransformer14setOmitMETATagENS0_12eOmitMETATagE(%"class.xalanc_1_10::XalanTransformer"*, i32) #1

declare dso_local void @_ZN11xalanc_1_1016XalanTransformer13setEscapeURLsENS0_11eEscapeURLsE(%"class.xalanc_1_10::XalanTransformer"*, i32) #1

declare dso_local void @_ZN11xalanc_1_1016XalanTransformer9setIndentEi(%"class.xalanc_1_10::XalanTransformer"*, i32) #1

declare dso_local void @_ZN11xalanc_1_1016XalanTransformer18setStylesheetParamEPKcS2_(%"class.xalanc_1_10::XalanTransformer"*, i8*, i8*) #1

; Function Attrs: noinline uwtable
define linkonce_odr dso_local i32 @_Z9transformRN11xalanc_1_1016XalanTransformerERK6ParamsRKNS_15XSLTInputSourceE(%"class.xalanc_1_10::XalanTransformer"* dereferenceable(384) %theTransformer, %class.Params* dereferenceable(72) %theParams, %"class.xalanc_1_10::XSLTInputSource"* dereferenceable(64) %theSource) #0 comdat personality i8* bitcast (i32 (...)* @__gxx_personality_v0 to i8*) !dbg !3370 {
entry:
  %retval = alloca i32, align 4
  %theTransformer.addr = alloca %"class.xalanc_1_10::XalanTransformer"*, align 8
  %theParams.addr = alloca %class.Params*, align 8
  %theSource.addr = alloca %"class.xalanc_1_10::XSLTInputSource"*, align 8
  %ref.tmp = alloca %"class.xalanc_1_10::XSLTInputSource", align 8
  %exn.slot = alloca i8*
  %ehselector.slot = alloca i32
  %ref.tmp8 = alloca %"class.xalanc_1_10::XSLTInputSource", align 8
  store %"class.xalanc_1_10::XalanTransformer"* %theTransformer, %"class.xalanc_1_10::XalanTransformer"** %theTransformer.addr, align 8
  call void @llvm.dbg.declare(metadata %"class.xalanc_1_10::XalanTransformer"** %theTransformer.addr, metadata !3373, metadata !DIExpression()), !dbg !3374
  store %class.Params* %theParams, %class.Params** %theParams.addr, align 8
  call void @llvm.dbg.declare(metadata %class.Params** %theParams.addr, metadata !3375, metadata !DIExpression()), !dbg !3376
  store %"class.xalanc_1_10::XSLTInputSource"* %theSource, %"class.xalanc_1_10::XSLTInputSource"** %theSource.addr, align 8
  call void @llvm.dbg.declare(metadata %"class.xalanc_1_10::XSLTInputSource"** %theSource.addr, metadata !3377, metadata !DIExpression()), !dbg !3378
  %0 = load %class.Params*, %class.Params** %theParams.addr, align 8, !dbg !3379
  %m_useStylesheetPI = getelementptr inbounds %class.Params, %class.Params* %0, i32 0, i32 1, !dbg !3381
  %1 = load i8, i8* %m_useStylesheetPI, align 1, !dbg !3381
  %tobool = trunc i8 %1 to i1, !dbg !3381
  %conv = zext i1 %tobool to i32, !dbg !3379
  %cmp = icmp eq i32 %conv, 1, !dbg !3382
  br i1 %cmp, label %if.then, label %lor.lhs.false, !dbg !3383

lor.lhs.false:                                    ; preds = %entry
  %2 = load %class.Params*, %class.Params** %theParams.addr, align 8, !dbg !3384
  %m_xslFileName = getelementptr inbounds %class.Params, %class.Params* %2, i32 0, i32 7, !dbg !3385
  %3 = load i8*, i8** %m_xslFileName, align 8, !dbg !3385
  %arrayidx = getelementptr inbounds i8, i8* %3, i64 0, !dbg !3384
  %4 = load i8, i8* %arrayidx, align 1, !dbg !3384
  %conv1 = sext i8 %4 to i32, !dbg !3384
  %cmp2 = icmp eq i32 %conv1, 45, !dbg !3386
  br i1 %cmp2, label %land.lhs.true, label %if.else, !dbg !3387

land.lhs.true:                                    ; preds = %lor.lhs.false
  %5 = load %class.Params*, %class.Params** %theParams.addr, align 8, !dbg !3388
  %m_xslFileName3 = getelementptr inbounds %class.Params, %class.Params* %5, i32 0, i32 7, !dbg !3389
  %6 = load i8*, i8** %m_xslFileName3, align 8, !dbg !3389
  %arrayidx4 = getelementptr inbounds i8, i8* %6, i64 1, !dbg !3388
  %7 = load i8, i8* %arrayidx4, align 1, !dbg !3388
  %conv5 = sext i8 %7 to i32, !dbg !3388
  %cmp6 = icmp eq i32 %conv5, 0, !dbg !3390
  br i1 %cmp6, label %if.then, label %if.else, !dbg !3391

if.then:                                          ; preds = %land.lhs.true, %entry
  %8 = load %"class.xalanc_1_10::XalanTransformer"*, %"class.xalanc_1_10::XalanTransformer"** %theTransformer.addr, align 8, !dbg !3392
  %9 = load %class.Params*, %class.Params** %theParams.addr, align 8, !dbg !3394
  %10 = load %"class.xalanc_1_10::XSLTInputSource"*, %"class.xalanc_1_10::XSLTInputSource"** %theSource.addr, align 8, !dbg !3395
  %call = call dereferenceable(8) %"class.xercesc_2_7::MemoryManager"* @_ZN11xalanc_1_1012XalanMemMgrs10getDefaultEv(), !dbg !3396
  call void @_ZN11xalanc_1_1015XSLTInputSourceC1EPSiRN11xercesc_2_713MemoryManagerE(%"class.xalanc_1_10::XSLTInputSource"* %ref.tmp, %"class.std::basic_istream"* @_ZSt3cin, %"class.xercesc_2_7::MemoryManager"* dereferenceable(8) %call), !dbg !3396
  %call7 = invoke i32 @_Z9transformRN11xalanc_1_1016XalanTransformerERK6ParamsRKNS_15XSLTInputSourceES7_(%"class.xalanc_1_10::XalanTransformer"* dereferenceable(384) %8, %class.Params* dereferenceable(72) %9, %"class.xalanc_1_10::XSLTInputSource"* dereferenceable(64) %10, %"class.xalanc_1_10::XSLTInputSource"* dereferenceable(64) %ref.tmp)
          to label %invoke.cont unwind label %lpad, !dbg !3397

invoke.cont:                                      ; preds = %if.then
  store i32 %call7, i32* %retval, align 4, !dbg !3398
  call void @_ZN11xalanc_1_1015XSLTInputSourceD2Ev(%"class.xalanc_1_10::XSLTInputSource"* %ref.tmp) #3, !dbg !3398
  br label %return, !dbg !3398

lpad:                                             ; preds = %if.then
  %11 = landingpad { i8*, i32 }
          cleanup, !dbg !3399
  %12 = extractvalue { i8*, i32 } %11, 0, !dbg !3399
  store i8* %12, i8** %exn.slot, align 8, !dbg !3399
  %13 = extractvalue { i8*, i32 } %11, 1, !dbg !3399
  store i32 %13, i32* %ehselector.slot, align 4, !dbg !3399
  call void @_ZN11xalanc_1_1015XSLTInputSourceD2Ev(%"class.xalanc_1_10::XSLTInputSource"* %ref.tmp) #3, !dbg !3398
  br label %eh.resume, !dbg !3398

if.else:                                          ; preds = %land.lhs.true, %lor.lhs.false
  %14 = load %"class.xalanc_1_10::XalanTransformer"*, %"class.xalanc_1_10::XalanTransformer"** %theTransformer.addr, align 8, !dbg !3400
  %15 = load %class.Params*, %class.Params** %theParams.addr, align 8, !dbg !3402
  %16 = load %"class.xalanc_1_10::XSLTInputSource"*, %"class.xalanc_1_10::XSLTInputSource"** %theSource.addr, align 8, !dbg !3403
  %17 = load %class.Params*, %class.Params** %theParams.addr, align 8, !dbg !3404
  %m_xslFileName9 = getelementptr inbounds %class.Params, %class.Params* %17, i32 0, i32 7, !dbg !3405
  %18 = load i8*, i8** %m_xslFileName9, align 8, !dbg !3405
  %call10 = call dereferenceable(8) %"class.xercesc_2_7::MemoryManager"* @_ZN11xalanc_1_1012XalanMemMgrs10getDefaultEv(), !dbg !3406
  call void @_ZN11xalanc_1_1015XSLTInputSourceC1EPKcRN11xercesc_2_713MemoryManagerE(%"class.xalanc_1_10::XSLTInputSource"* %ref.tmp8, i8* %18, %"class.xercesc_2_7::MemoryManager"* dereferenceable(8) %call10), !dbg !3406
  %call13 = invoke i32 @_Z9transformRN11xalanc_1_1016XalanTransformerERK6ParamsRKNS_15XSLTInputSourceES7_(%"class.xalanc_1_10::XalanTransformer"* dereferenceable(384) %14, %class.Params* dereferenceable(72) %15, %"class.xalanc_1_10::XSLTInputSource"* dereferenceable(64) %16, %"class.xalanc_1_10::XSLTInputSource"* dereferenceable(64) %ref.tmp8)
          to label %invoke.cont12 unwind label %lpad11, !dbg !3407

invoke.cont12:                                    ; preds = %if.else
  store i32 %call13, i32* %retval, align 4, !dbg !3408
  call void @_ZN11xalanc_1_1015XSLTInputSourceD2Ev(%"class.xalanc_1_10::XSLTInputSource"* %ref.tmp8) #3, !dbg !3408
  br label %return, !dbg !3408

lpad11:                                           ; preds = %if.else
  %19 = landingpad { i8*, i32 }
          cleanup, !dbg !3409
  %20 = extractvalue { i8*, i32 } %19, 0, !dbg !3409
  store i8* %20, i8** %exn.slot, align 8, !dbg !3409
  %21 = extractvalue { i8*, i32 } %19, 1, !dbg !3409
  store i32 %21, i32* %ehselector.slot, align 4, !dbg !3409
  call void @_ZN11xalanc_1_1015XSLTInputSourceD2Ev(%"class.xalanc_1_10::XSLTInputSource"* %ref.tmp8) #3, !dbg !3408
  br label %eh.resume, !dbg !3408

return:                                           ; preds = %invoke.cont12, %invoke.cont
  %22 = load i32, i32* %retval, align 4, !dbg !3410
  ret i32 %22, !dbg !3410

eh.resume:                                        ; preds = %lpad11, %lpad
  %exn = load i8*, i8** %exn.slot, align 8, !dbg !3398
  %sel = load i32, i32* %ehselector.slot, align 4, !dbg !3398
  %lpad.val = insertvalue { i8*, i32 } undef, i8* %exn, 0, !dbg !3398
  %lpad.val14 = insertvalue { i8*, i32 } %lpad.val, i32 %sel, 1, !dbg !3398
  resume { i8*, i32 } %lpad.val14, !dbg !3398
}

; Function Attrs: noinline uwtable
define linkonce_odr dso_local dereferenceable(8) %"class.xercesc_2_7::MemoryManager"* @_ZN11xalanc_1_1012XalanMemMgrs10getDefaultEv() #0 comdat align 2 !dbg !3411 {
entry:
  %call = call dereferenceable(8) %"class.xercesc_2_7::MemoryManager"* @_ZN11xalanc_1_1012XalanMemMgrs22getDefaultXercesMemMgrEv(), !dbg !3412
  ret %"class.xercesc_2_7::MemoryManager"* %call, !dbg !3413
}

declare dso_local void @_ZN11xalanc_1_1015XSLTInputSourceC1EPSiRN11xercesc_2_713MemoryManagerE(%"class.xalanc_1_10::XSLTInputSource"*, %"class.std::basic_istream"*, %"class.xercesc_2_7::MemoryManager"* dereferenceable(8)) unnamed_addr #1

; Function Attrs: noinline nounwind uwtable
define linkonce_odr dso_local void @_ZN11xalanc_1_1015XSLTInputSourceD2Ev(%"class.xalanc_1_10::XSLTInputSource"* %this) unnamed_addr #5 comdat align 2 !dbg !3414 {
entry:
  %this.addr = alloca %"class.xalanc_1_10::XSLTInputSource"*, align 8
  store %"class.xalanc_1_10::XSLTInputSource"* %this, %"class.xalanc_1_10::XSLTInputSource"** %this.addr, align 8
  call void @llvm.dbg.declare(metadata %"class.xalanc_1_10::XSLTInputSource"** %this.addr, metadata !3419, metadata !DIExpression()), !dbg !3421
  %this1 = load %"class.xalanc_1_10::XSLTInputSource"*, %"class.xalanc_1_10::XSLTInputSource"** %this.addr, align 8
  %0 = bitcast %"class.xalanc_1_10::XSLTInputSource"* %this1 to %"class.xercesc_2_7::InputSource"*, !dbg !3422
  call void @_ZN11xercesc_2_711InputSourceD2Ev(%"class.xercesc_2_7::InputSource"* %0) #3, !dbg !3422
  ret void, !dbg !3424
}

declare dso_local void @_ZN11xalanc_1_1015XSLTInputSourceC1EPKcRN11xercesc_2_713MemoryManagerE(%"class.xalanc_1_10::XSLTInputSource"*, i8*, %"class.xercesc_2_7::MemoryManager"* dereferenceable(8)) unnamed_addr #1

; Function Attrs: noinline uwtable
define linkonce_odr dso_local i32 @_Z9transformRN11xalanc_1_1016XalanTransformerERK6ParamsRKNS_15XSLTInputSourceES7_(%"class.xalanc_1_10::XalanTransformer"* dereferenceable(384) %theTransformer, %class.Params* dereferenceable(72) %theParams, %"class.xalanc_1_10::XSLTInputSource"* dereferenceable(64) %theSource, %"class.xalanc_1_10::XSLTInputSource"* dereferenceable(64) %theStylesheetSource) #0 comdat personality i8* bitcast (i32 (...)* @__gxx_personality_v0 to i8*) !dbg !2358 {
entry:
  %retval = alloca i32, align 4
  %theTransformer.addr = alloca %"class.xalanc_1_10::XalanTransformer"*, align 8
  %theParams.addr = alloca %class.Params*, align 8
  %theSource.addr = alloca %"class.xalanc_1_10::XSLTInputSource"*, align 8
  %theStylesheetSource.addr = alloca %"class.xalanc_1_10::XSLTInputSource"*, align 8
  %theManager = alloca %"class.xercesc_2_7::MemoryManager"*, align 8
  %theTarget = alloca %"class.xalanc_1_10::XSLTResultTarget", align 8
  %ref.tmp = alloca %"class.xalanc_1_10::XalanDOMString", align 8
  %exn.slot = alloca i8*
  %ehselector.slot = alloca i32
  %cleanup.dest.slot = alloca i32, align 4
  store %"class.xalanc_1_10::XalanTransformer"* %theTransformer, %"class.xalanc_1_10::XalanTransformer"** %theTransformer.addr, align 8
  call void @llvm.dbg.declare(metadata %"class.xalanc_1_10::XalanTransformer"** %theTransformer.addr, metadata !3425, metadata !DIExpression()), !dbg !3426
  store %class.Params* %theParams, %class.Params** %theParams.addr, align 8
  call void @llvm.dbg.declare(metadata %class.Params** %theParams.addr, metadata !3427, metadata !DIExpression()), !dbg !3428
  store %"class.xalanc_1_10::XSLTInputSource"* %theSource, %"class.xalanc_1_10::XSLTInputSource"** %theSource.addr, align 8
  call void @llvm.dbg.declare(metadata %"class.xalanc_1_10::XSLTInputSource"** %theSource.addr, metadata !3429, metadata !DIExpression()), !dbg !3430
  store %"class.xalanc_1_10::XSLTInputSource"* %theStylesheetSource, %"class.xalanc_1_10::XSLTInputSource"** %theStylesheetSource.addr, align 8
  call void @llvm.dbg.declare(metadata %"class.xalanc_1_10::XSLTInputSource"** %theStylesheetSource.addr, metadata !3431, metadata !DIExpression()), !dbg !3432
  call void @llvm.dbg.declare(metadata %"class.xercesc_2_7::MemoryManager"** %theManager, metadata !3433, metadata !DIExpression()), !dbg !3434
  %0 = load %"class.xalanc_1_10::XalanTransformer"*, %"class.xalanc_1_10::XalanTransformer"** %theTransformer.addr, align 8, !dbg !3435
  %call = call dereferenceable(8) %"class.xercesc_2_7::MemoryManager"* @_ZN11xalanc_1_1016XalanTransformer16getMemoryManagerEv(%"class.xalanc_1_10::XalanTransformer"* %0), !dbg !3436
  store %"class.xercesc_2_7::MemoryManager"* %call, %"class.xercesc_2_7::MemoryManager"** %theManager, align 8, !dbg !3434
  call void @llvm.dbg.declare(metadata %"class.xalanc_1_10::XSLTResultTarget"* %theTarget, metadata !3437, metadata !DIExpression()), !dbg !3438
  %1 = load %"class.xercesc_2_7::MemoryManager"*, %"class.xercesc_2_7::MemoryManager"** %theManager, align 8, !dbg !3439
  call void @_ZN11xalanc_1_1016XSLTResultTargetC1ERN11xercesc_2_713MemoryManagerE(%"class.xalanc_1_10::XSLTResultTarget"* %theTarget, %"class.xercesc_2_7::MemoryManager"* dereferenceable(8) %1), !dbg !3438
  %2 = load %class.Params*, %class.Params** %theParams.addr, align 8, !dbg !3440
  %m_encoding = getelementptr inbounds %class.Params, %class.Params* %2, i32 0, i32 9, !dbg !3442
  %3 = load i8*, i8** %m_encoding, align 8, !dbg !3442
  %cmp = icmp ne i8* %3, null, !dbg !3443
  br i1 %cmp, label %if.then, label %if.end, !dbg !3444

if.then:                                          ; preds = %entry
  %4 = load %class.Params*, %class.Params** %theParams.addr, align 8, !dbg !3445
  %m_encoding1 = getelementptr inbounds %class.Params, %class.Params* %4, i32 0, i32 9, !dbg !3447
  %5 = load i8*, i8** %m_encoding1, align 8, !dbg !3447
  %6 = load %"class.xercesc_2_7::MemoryManager"*, %"class.xercesc_2_7::MemoryManager"** %theManager, align 8, !dbg !3448
  invoke void @_ZN11xalanc_1_1014XalanDOMStringC1EPKcRN11xercesc_2_713MemoryManagerEj(%"class.xalanc_1_10::XalanDOMString"* %ref.tmp, i8* %5, %"class.xercesc_2_7::MemoryManager"* dereferenceable(8) %6, i32 -1)
          to label %invoke.cont unwind label %lpad, !dbg !3449

invoke.cont:                                      ; preds = %if.then
  invoke void @_ZN11xalanc_1_1016XSLTResultTarget11setEncodingERKNS_14XalanDOMStringE(%"class.xalanc_1_10::XSLTResultTarget"* %theTarget, %"class.xalanc_1_10::XalanDOMString"* dereferenceable(40) %ref.tmp)
          to label %invoke.cont3 unwind label %lpad2, !dbg !3450

invoke.cont3:                                     ; preds = %invoke.cont
  call void @_ZN11xalanc_1_1014XalanDOMStringD2Ev(%"class.xalanc_1_10::XalanDOMString"* %ref.tmp) #3, !dbg !3451
  br label %if.end, !dbg !3452

lpad:                                             ; preds = %if.else14, %if.then11, %if.else, %if.then5, %if.then
  %7 = landingpad { i8*, i32 }
          cleanup, !dbg !3453
  %8 = extractvalue { i8*, i32 } %7, 0, !dbg !3453
  store i8* %8, i8** %exn.slot, align 8, !dbg !3453
  %9 = extractvalue { i8*, i32 } %7, 1, !dbg !3453
  store i32 %9, i32* %ehselector.slot, align 4, !dbg !3453
  br label %ehcleanup, !dbg !3453

lpad2:                                            ; preds = %invoke.cont
  %10 = landingpad { i8*, i32 }
          cleanup, !dbg !3453
  %11 = extractvalue { i8*, i32 } %10, 0, !dbg !3453
  store i8* %11, i8** %exn.slot, align 8, !dbg !3453
  %12 = extractvalue { i8*, i32 } %10, 1, !dbg !3453
  store i32 %12, i32* %ehselector.slot, align 4, !dbg !3453
  call void @_ZN11xalanc_1_1014XalanDOMStringD2Ev(%"class.xalanc_1_10::XalanDOMString"* %ref.tmp) #3, !dbg !3451
  br label %ehcleanup, !dbg !3451

if.end:                                           ; preds = %invoke.cont3, %entry
  %13 = load %class.Params*, %class.Params** %theParams.addr, align 8, !dbg !3454
  %m_outFileName = getelementptr inbounds %class.Params, %class.Params* %13, i32 0, i32 8, !dbg !3456
  %14 = load i8*, i8** %m_outFileName, align 8, !dbg !3456
  %cmp4 = icmp ne i8* %14, null, !dbg !3457
  br i1 %cmp4, label %if.then5, label %if.else, !dbg !3458

if.then5:                                         ; preds = %if.end
  %15 = load %class.Params*, %class.Params** %theParams.addr, align 8, !dbg !3459
  %m_outFileName6 = getelementptr inbounds %class.Params, %class.Params* %15, i32 0, i32 8, !dbg !3461
  %16 = load i8*, i8** %m_outFileName6, align 8, !dbg !3461
  invoke void @_ZN11xalanc_1_1016XSLTResultTarget11setFileNameEPKc(%"class.xalanc_1_10::XSLTResultTarget"* %theTarget, i8* %16)
          to label %invoke.cont7 unwind label %lpad, !dbg !3462

invoke.cont7:                                     ; preds = %if.then5
  br label %if.end9, !dbg !3463

if.else:                                          ; preds = %if.end
  invoke void @_ZN11xalanc_1_1016XSLTResultTarget13setByteStreamEPSo(%"class.xalanc_1_10::XSLTResultTarget"* %theTarget, %"class.std::basic_ostream"* @_ZSt4cout)
          to label %invoke.cont8 unwind label %lpad, !dbg !3464

invoke.cont8:                                     ; preds = %if.else
  br label %if.end9

if.end9:                                          ; preds = %invoke.cont8, %invoke.cont7
  %17 = load %class.Params*, %class.Params** %theParams.addr, align 8, !dbg !3466
  %m_useStylesheetPI = getelementptr inbounds %class.Params, %class.Params* %17, i32 0, i32 1, !dbg !3468
  %18 = load i8, i8* %m_useStylesheetPI, align 1, !dbg !3468
  %tobool = trunc i8 %18 to i1, !dbg !3468
  %conv = zext i1 %tobool to i32, !dbg !3466
  %cmp10 = icmp eq i32 %conv, 1, !dbg !3469
  br i1 %cmp10, label %if.then11, label %if.else14, !dbg !3470

if.then11:                                        ; preds = %if.end9
  %19 = load %"class.xalanc_1_10::XalanTransformer"*, %"class.xalanc_1_10::XalanTransformer"** %theTransformer.addr, align 8, !dbg !3471
  %20 = load %class.Params*, %class.Params** %theParams.addr, align 8, !dbg !3473
  %21 = load %"class.xalanc_1_10::XSLTInputSource"*, %"class.xalanc_1_10::XSLTInputSource"** %theSource.addr, align 8, !dbg !3474
  %call13 = invoke i32 @_Z9transformRN11xalanc_1_1016XalanTransformerERK6ParamsRKNS_15XSLTInputSourceERKNS_16XSLTResultTargetE(%"class.xalanc_1_10::XalanTransformer"* dereferenceable(384) %19, %class.Params* dereferenceable(72) %20, %"class.xalanc_1_10::XSLTInputSource"* dereferenceable(64) %21, %"class.xalanc_1_10::XSLTResultTarget"* dereferenceable(112) %theTarget)
          to label %invoke.cont12 unwind label %lpad, !dbg !3475

invoke.cont12:                                    ; preds = %if.then11
  store i32 %call13, i32* %retval, align 4, !dbg !3476
  store i32 1, i32* %cleanup.dest.slot, align 4
  br label %cleanup, !dbg !3476

if.else14:                                        ; preds = %if.end9
  %22 = load %"class.xalanc_1_10::XalanTransformer"*, %"class.xalanc_1_10::XalanTransformer"** %theTransformer.addr, align 8, !dbg !3477
  %23 = load %class.Params*, %class.Params** %theParams.addr, align 8, !dbg !3479
  %24 = load %"class.xalanc_1_10::XSLTInputSource"*, %"class.xalanc_1_10::XSLTInputSource"** %theSource.addr, align 8, !dbg !3480
  %25 = load %"class.xalanc_1_10::XSLTInputSource"*, %"class.xalanc_1_10::XSLTInputSource"** %theStylesheetSource.addr, align 8, !dbg !3481
  %call16 = invoke i32 @_Z9transformRN11xalanc_1_1016XalanTransformerERK6ParamsRKNS_15XSLTInputSourceES7_RKNS_16XSLTResultTargetE(%"class.xalanc_1_10::XalanTransformer"* dereferenceable(384) %22, %class.Params* dereferenceable(72) %23, %"class.xalanc_1_10::XSLTInputSource"* dereferenceable(64) %24, %"class.xalanc_1_10::XSLTInputSource"* dereferenceable(64) %25, %"class.xalanc_1_10::XSLTResultTarget"* dereferenceable(112) %theTarget)
          to label %invoke.cont15 unwind label %lpad, !dbg !3482

invoke.cont15:                                    ; preds = %if.else14
  store i32 %call16, i32* %retval, align 4, !dbg !3483
  store i32 1, i32* %cleanup.dest.slot, align 4
  br label %cleanup, !dbg !3483

cleanup:                                          ; preds = %invoke.cont15, %invoke.cont12
  call void @_ZN11xalanc_1_1016XSLTResultTargetD1Ev(%"class.xalanc_1_10::XSLTResultTarget"* %theTarget) #3, !dbg !3484
  %26 = load i32, i32* %retval, align 4, !dbg !3484
  ret i32 %26, !dbg !3484

ehcleanup:                                        ; preds = %lpad2, %lpad
  call void @_ZN11xalanc_1_1016XSLTResultTargetD1Ev(%"class.xalanc_1_10::XSLTResultTarget"* %theTarget) #3, !dbg !3484
  br label %eh.resume, !dbg !3484

eh.resume:                                        ; preds = %ehcleanup
  %exn = load i8*, i8** %exn.slot, align 8, !dbg !3484
  %sel = load i32, i32* %ehselector.slot, align 4, !dbg !3484
  %lpad.val = insertvalue { i8*, i32 } undef, i8* %exn, 0, !dbg !3484
  %lpad.val17 = insertvalue { i8*, i32 } %lpad.val, i32 %sel, 1, !dbg !3484
  resume { i8*, i32 } %lpad.val17, !dbg !3484
}

; Function Attrs: noinline nounwind uwtable
define linkonce_odr dso_local dereferenceable(8) %"class.xercesc_2_7::MemoryManager"* @_ZN11xalanc_1_1016XalanTransformer16getMemoryManagerEv(%"class.xalanc_1_10::XalanTransformer"* %this) #5 comdat align 2 !dbg !3485 {
entry:
  %this.addr = alloca %"class.xalanc_1_10::XalanTransformer"*, align 8
  store %"class.xalanc_1_10::XalanTransformer"* %this, %"class.xalanc_1_10::XalanTransformer"** %this.addr, align 8
  call void @llvm.dbg.declare(metadata %"class.xalanc_1_10::XalanTransformer"** %this.addr, metadata !3489, metadata !DIExpression()), !dbg !3490
  %this1 = load %"class.xalanc_1_10::XalanTransformer"*, %"class.xalanc_1_10::XalanTransformer"** %this.addr, align 8
  %m_memoryManager = getelementptr inbounds %"class.xalanc_1_10::XalanTransformer", %"class.xalanc_1_10::XalanTransformer"* %this1, i32 0, i32 1, !dbg !3491
  %0 = load %"class.xercesc_2_7::MemoryManager"*, %"class.xercesc_2_7::MemoryManager"** %m_memoryManager, align 8, !dbg !3491
  ret %"class.xercesc_2_7::MemoryManager"* %0, !dbg !3492
}

declare dso_local void @_ZN11xalanc_1_1016XSLTResultTargetC1ERN11xercesc_2_713MemoryManagerE(%"class.xalanc_1_10::XSLTResultTarget"*, %"class.xercesc_2_7::MemoryManager"* dereferenceable(8)) unnamed_addr #1

; Function Attrs: noinline uwtable
define linkonce_odr dso_local void @_ZN11xalanc_1_1016XSLTResultTarget11setEncodingERKNS_14XalanDOMStringE(%"class.xalanc_1_10::XSLTResultTarget"* %this, %"class.xalanc_1_10::XalanDOMString"* dereferenceable(40) %encoding) #0 comdat align 2 !dbg !3493 {
entry:
  %this.addr = alloca %"class.xalanc_1_10::XSLTResultTarget"*, align 8
  %encoding.addr = alloca %"class.xalanc_1_10::XalanDOMString"*, align 8
  store %"class.xalanc_1_10::XSLTResultTarget"* %this, %"class.xalanc_1_10::XSLTResultTarget"** %this.addr, align 8
  call void @llvm.dbg.declare(metadata %"class.xalanc_1_10::XSLTResultTarget"** %this.addr, metadata !3494, metadata !DIExpression()), !dbg !3496
  store %"class.xalanc_1_10::XalanDOMString"* %encoding, %"class.xalanc_1_10::XalanDOMString"** %encoding.addr, align 8
  call void @llvm.dbg.declare(metadata %"class.xalanc_1_10::XalanDOMString"** %encoding.addr, metadata !3497, metadata !DIExpression()), !dbg !3498
  %this1 = load %"class.xalanc_1_10::XSLTResultTarget"*, %"class.xalanc_1_10::XSLTResultTarget"** %this.addr, align 8
  %0 = load %"class.xalanc_1_10::XalanDOMString"*, %"class.xalanc_1_10::XalanDOMString"** %encoding.addr, align 8, !dbg !3499
  %m_encoding = getelementptr inbounds %"class.xalanc_1_10::XSLTResultTarget", %"class.xalanc_1_10::XSLTResultTarget"* %this1, i32 0, i32 2, !dbg !3500
  %call = call dereferenceable(40) %"class.xalanc_1_10::XalanDOMString"* @_ZN11xalanc_1_1014XalanDOMStringaSERKS0_(%"class.xalanc_1_10::XalanDOMString"* %m_encoding, %"class.xalanc_1_10::XalanDOMString"* dereferenceable(40) %0), !dbg !3501
  ret void, !dbg !3502
}

declare dso_local void @_ZN11xalanc_1_1014XalanDOMStringC1EPKcRN11xercesc_2_713MemoryManagerEj(%"class.xalanc_1_10::XalanDOMString"*, i8*, %"class.xercesc_2_7::MemoryManager"* dereferenceable(8), i32) unnamed_addr #1

; Function Attrs: noinline uwtable
define linkonce_odr dso_local void @_ZN11xalanc_1_1016XSLTResultTarget11setFileNameEPKc(%"class.xalanc_1_10::XSLTResultTarget"* %this, i8* %fileName) #0 comdat align 2 !dbg !3503 {
entry:
  %this.addr = alloca %"class.xalanc_1_10::XSLTResultTarget"*, align 8
  %fileName.addr = alloca i8*, align 8
  store %"class.xalanc_1_10::XSLTResultTarget"* %this, %"class.xalanc_1_10::XSLTResultTarget"** %this.addr, align 8
  call void @llvm.dbg.declare(metadata %"class.xalanc_1_10::XSLTResultTarget"** %this.addr, metadata !3504, metadata !DIExpression()), !dbg !3505
  store i8* %fileName, i8** %fileName.addr, align 8
  call void @llvm.dbg.declare(metadata i8** %fileName.addr, metadata !3506, metadata !DIExpression()), !dbg !3507
  %this1 = load %"class.xalanc_1_10::XSLTResultTarget"*, %"class.xalanc_1_10::XSLTResultTarget"** %this.addr, align 8
  %0 = load i8*, i8** %fileName.addr, align 8, !dbg !3508
  %cmp = icmp eq i8* %0, null, !dbg !3510
  br i1 %cmp, label %if.then, label %if.else, !dbg !3511

if.then:                                          ; preds = %entry
  %m_fileName = getelementptr inbounds %"class.xalanc_1_10::XSLTResultTarget", %"class.xalanc_1_10::XSLTResultTarget"* %this1, i32 0, i32 0, !dbg !3512
  call void @_ZN11xalanc_1_1014XalanDOMString5clearEv(%"class.xalanc_1_10::XalanDOMString"* %m_fileName), !dbg !3514
  br label %if.end, !dbg !3515

if.else:                                          ; preds = %entry
  %1 = load i8*, i8** %fileName.addr, align 8, !dbg !3516
  %m_fileName2 = getelementptr inbounds %"class.xalanc_1_10::XSLTResultTarget", %"class.xalanc_1_10::XSLTResultTarget"* %this1, i32 0, i32 0, !dbg !3518
  %call = call dereferenceable(40) %"class.xalanc_1_10::XalanDOMString"* @_ZN11xalanc_1_1014XalanDOMStringaSEPKc(%"class.xalanc_1_10::XalanDOMString"* %m_fileName2, i8* %1), !dbg !3519
  br label %if.end

if.end:                                           ; preds = %if.else, %if.then
  ret void, !dbg !3520
}

; Function Attrs: noinline nounwind uwtable
define linkonce_odr dso_local void @_ZN11xalanc_1_1016XSLTResultTarget13setByteStreamEPSo(%"class.xalanc_1_10::XSLTResultTarget"* %this, %"class.std::basic_ostream"* %byteStream) #5 comdat align 2 !dbg !3521 {
entry:
  %this.addr = alloca %"class.xalanc_1_10::XSLTResultTarget"*, align 8
  %byteStream.addr = alloca %"class.std::basic_ostream"*, align 8
  store %"class.xalanc_1_10::XSLTResultTarget"* %this, %"class.xalanc_1_10::XSLTResultTarget"** %this.addr, align 8
  call void @llvm.dbg.declare(metadata %"class.xalanc_1_10::XSLTResultTarget"** %this.addr, metadata !3522, metadata !DIExpression()), !dbg !3523
  store %"class.std::basic_ostream"* %byteStream, %"class.std::basic_ostream"** %byteStream.addr, align 8
  call void @llvm.dbg.declare(metadata %"class.std::basic_ostream"** %byteStream.addr, metadata !3524, metadata !DIExpression()), !dbg !3525
  %this1 = load %"class.xalanc_1_10::XSLTResultTarget"*, %"class.xalanc_1_10::XSLTResultTarget"** %this.addr, align 8
  %0 = load %"class.std::basic_ostream"*, %"class.std::basic_ostream"** %byteStream.addr, align 8, !dbg !3526
  %m_byteStream = getelementptr inbounds %"class.xalanc_1_10::XSLTResultTarget", %"class.xalanc_1_10::XSLTResultTarget"* %this1, i32 0, i32 1, !dbg !3527
  store %"class.std::basic_ostream"* %0, %"class.std::basic_ostream"** %m_byteStream, align 8, !dbg !3528
  ret void, !dbg !3529
}

; Function Attrs: noinline uwtable
define linkonce_odr dso_local i32 @_Z9transformRN11xalanc_1_1016XalanTransformerERK6ParamsRKNS_15XSLTInputSourceERKNS_16XSLTResultTargetE(%"class.xalanc_1_10::XalanTransformer"* dereferenceable(384) %theTransformer, %class.Params* dereferenceable(72) %theParams, %"class.xalanc_1_10::XSLTInputSource"* dereferenceable(64) %theSource, %"class.xalanc_1_10::XSLTResultTarget"* dereferenceable(112) %theTarget) #0 comdat personality i8* bitcast (i32 (...)* @__gxx_personality_v0 to i8*) !dbg !2445 {
entry:
  %retval = alloca i32, align 4
  %theTransformer.addr = alloca %"class.xalanc_1_10::XalanTransformer"*, align 8
  %theParams.addr = alloca %class.Params*, align 8
  %theSource.addr = alloca %"class.xalanc_1_10::XSLTInputSource"*, align 8
  %theTarget.addr = alloca %"class.xalanc_1_10::XSLTResultTarget"*, align 8
  %theStartClock = alloca i64, align 8
  %theParsedSource = alloca %"class.xalanc_1_10::XalanParsedSource"*, align 8
  %theResult = alloca i32, align 4
  %theEndClock = alloca i64, align 8
  %theGuard = alloca %"class.xalanc_1_10::XalanTransformer::EnsureDestroyParsedSource", align 8
  %exn.slot = alloca i8*
  %ehselector.slot = alloca i32
  store %"class.xalanc_1_10::XalanTransformer"* %theTransformer, %"class.xalanc_1_10::XalanTransformer"** %theTransformer.addr, align 8
  call void @llvm.dbg.declare(metadata %"class.xalanc_1_10::XalanTransformer"** %theTransformer.addr, metadata !3530, metadata !DIExpression()), !dbg !3531
  store %class.Params* %theParams, %class.Params** %theParams.addr, align 8
  call void @llvm.dbg.declare(metadata %class.Params** %theParams.addr, metadata !3532, metadata !DIExpression()), !dbg !3533
  store %"class.xalanc_1_10::XSLTInputSource"* %theSource, %"class.xalanc_1_10::XSLTInputSource"** %theSource.addr, align 8
  call void @llvm.dbg.declare(metadata %"class.xalanc_1_10::XSLTInputSource"** %theSource.addr, metadata !3534, metadata !DIExpression()), !dbg !3535
  store %"class.xalanc_1_10::XSLTResultTarget"* %theTarget, %"class.xalanc_1_10::XSLTResultTarget"** %theTarget.addr, align 8
  call void @llvm.dbg.declare(metadata %"class.xalanc_1_10::XSLTResultTarget"** %theTarget.addr, metadata !3536, metadata !DIExpression()), !dbg !3537
  %0 = load %class.Params*, %class.Params** %theParams.addr, align 8, !dbg !3538
  %m_showTiming = getelementptr inbounds %class.Params, %class.Params* %0, i32 0, i32 4, !dbg !3539
  %1 = load i8, i8* %m_showTiming, align 4, !dbg !3539
  %tobool = trunc i8 %1 to i1, !dbg !3539
  %conv = zext i1 %tobool to i32, !dbg !3538
  %cmp = icmp eq i32 %conv, 0, !dbg !3540
  br i1 %cmp, label %if.then, label %if.else, !dbg !3541

if.then:                                          ; preds = %entry
  %2 = load %"class.xalanc_1_10::XalanTransformer"*, %"class.xalanc_1_10::XalanTransformer"** %theTransformer.addr, align 8, !dbg !3542
  %3 = load %"class.xalanc_1_10::XSLTInputSource"*, %"class.xalanc_1_10::XSLTInputSource"** %theSource.addr, align 8, !dbg !3544
  %4 = load %"class.xalanc_1_10::XSLTResultTarget"*, %"class.xalanc_1_10::XSLTResultTarget"** %theTarget.addr, align 8, !dbg !3545
  %call = call i32 @_ZN11xalanc_1_1016XalanTransformer9transformERKNS_15XSLTInputSourceERKNS_16XSLTResultTargetE(%"class.xalanc_1_10::XalanTransformer"* %2, %"class.xalanc_1_10::XSLTInputSource"* dereferenceable(64) %3, %"class.xalanc_1_10::XSLTResultTarget"* dereferenceable(112) %4), !dbg !3546
  store i32 %call, i32* %retval, align 4, !dbg !3547
  br label %return, !dbg !3547

if.else:                                          ; preds = %entry
  call void @llvm.dbg.declare(metadata i64* %theStartClock, metadata !3548, metadata !DIExpression()), !dbg !3549
  %call1 = call i64 @_Z8getClockv(), !dbg !3550
  store i64 %call1, i64* %theStartClock, align 8, !dbg !3549
  call void @llvm.dbg.declare(metadata %"class.xalanc_1_10::XalanParsedSource"** %theParsedSource, metadata !3551, metadata !DIExpression()), !dbg !3554
  store %"class.xalanc_1_10::XalanParsedSource"* null, %"class.xalanc_1_10::XalanParsedSource"** %theParsedSource, align 8, !dbg !3554
  call void @llvm.dbg.declare(metadata i32* %theResult, metadata !3555, metadata !DIExpression()), !dbg !3556
  %5 = load %"class.xalanc_1_10::XalanTransformer"*, %"class.xalanc_1_10::XalanTransformer"** %theTransformer.addr, align 8, !dbg !3557
  %6 = load %"class.xalanc_1_10::XSLTInputSource"*, %"class.xalanc_1_10::XSLTInputSource"** %theSource.addr, align 8, !dbg !3558
  %call2 = call i32 @_ZN11xalanc_1_1016XalanTransformer11parseSourceERKNS_15XSLTInputSourceERPKNS_17XalanParsedSourceEb(%"class.xalanc_1_10::XalanTransformer"* %5, %"class.xalanc_1_10::XSLTInputSource"* dereferenceable(64) %6, %"class.xalanc_1_10::XalanParsedSource"** dereferenceable(8) %theParsedSource, i1 zeroext false), !dbg !3559
  store i32 %call2, i32* %theResult, align 4, !dbg !3556
  %7 = load i32, i32* %theResult, align 4, !dbg !3560
  %cmp3 = icmp eq i32 %7, 0, !dbg !3562
  br i1 %cmp3, label %if.then4, label %if.end, !dbg !3563

if.then4:                                         ; preds = %if.else
  call void @llvm.dbg.declare(metadata i64* %theEndClock, metadata !3564, metadata !DIExpression()), !dbg !3566
  %call5 = call i64 @_Z8getClockv(), !dbg !3567
  store i64 %call5, i64* %theEndClock, align 8, !dbg !3566
  %8 = load i64, i64* %theStartClock, align 8, !dbg !3568
  %9 = load i64, i64* %theEndClock, align 8, !dbg !3569
  call void @_Z25reportElapsedMillisecondsPKcllRSo(i8* getelementptr inbounds ([27 x i8], [27 x i8]* @.str.6, i64 0, i64 0), i64 %8, i64 %9, %"class.std::basic_ostream"* dereferenceable(272) @_ZSt4cerr), !dbg !3570
  call void @llvm.dbg.declare(metadata %"class.xalanc_1_10::XalanTransformer::EnsureDestroyParsedSource"* %theGuard, metadata !3571, metadata !DIExpression()), !dbg !3585
  %10 = load %"class.xalanc_1_10::XalanTransformer"*, %"class.xalanc_1_10::XalanTransformer"** %theTransformer.addr, align 8, !dbg !3586
  %11 = load %"class.xalanc_1_10::XalanParsedSource"*, %"class.xalanc_1_10::XalanParsedSource"** %theParsedSource, align 8, !dbg !3587
  call void @_ZN11xalanc_1_1016XalanTransformer25EnsureDestroyParsedSourceC2ERS0_PKNS_17XalanParsedSourceE(%"class.xalanc_1_10::XalanTransformer::EnsureDestroyParsedSource"* %theGuard, %"class.xalanc_1_10::XalanTransformer"* dereferenceable(384) %10, %"class.xalanc_1_10::XalanParsedSource"* %11), !dbg !3585
  %call6 = invoke i64 @_Z8getClockv()
          to label %invoke.cont unwind label %lpad, !dbg !3588

invoke.cont:                                      ; preds = %if.then4
  store i64 %call6, i64* %theStartClock, align 8, !dbg !3589
  %12 = load %"class.xalanc_1_10::XalanTransformer"*, %"class.xalanc_1_10::XalanTransformer"** %theTransformer.addr, align 8, !dbg !3590
  %13 = load %"class.xalanc_1_10::XalanParsedSource"*, %"class.xalanc_1_10::XalanParsedSource"** %theParsedSource, align 8, !dbg !3591
  %14 = load %"class.xalanc_1_10::XSLTResultTarget"*, %"class.xalanc_1_10::XSLTResultTarget"** %theTarget.addr, align 8, !dbg !3592
  %call8 = invoke i32 @_ZN11xalanc_1_1016XalanTransformer9transformERKNS_17XalanParsedSourceERKNS_16XSLTResultTargetE(%"class.xalanc_1_10::XalanTransformer"* %12, %"class.xalanc_1_10::XalanParsedSource"* nonnull %13, %"class.xalanc_1_10::XSLTResultTarget"* dereferenceable(112) %14)
          to label %invoke.cont7 unwind label %lpad, !dbg !3593

invoke.cont7:                                     ; preds = %invoke.cont
  store i32 %call8, i32* %theResult, align 4, !dbg !3594
  %call10 = invoke i64 @_Z8getClockv()
          to label %invoke.cont9 unwind label %lpad, !dbg !3595

invoke.cont9:                                     ; preds = %invoke.cont7
  store i64 %call10, i64* %theEndClock, align 8, !dbg !3596
  %15 = load i64, i64* %theStartClock, align 8, !dbg !3597
  %16 = load i64, i64* %theEndClock, align 8, !dbg !3598
  invoke void @_Z25reportElapsedMillisecondsPKcllRSo(i8* getelementptr inbounds ([56 x i8], [56 x i8]* @.str.7, i64 0, i64 0), i64 %15, i64 %16, %"class.std::basic_ostream"* dereferenceable(272) @_ZSt4cerr)
          to label %invoke.cont11 unwind label %lpad, !dbg !3599

invoke.cont11:                                    ; preds = %invoke.cont9
  call void @_ZN11xalanc_1_1016XalanTransformer25EnsureDestroyParsedSourceD2Ev(%"class.xalanc_1_10::XalanTransformer::EnsureDestroyParsedSource"* %theGuard) #3, !dbg !3600
  br label %if.end, !dbg !3601

lpad:                                             ; preds = %invoke.cont9, %invoke.cont7, %invoke.cont, %if.then4
  %17 = landingpad { i8*, i32 }
          cleanup, !dbg !3602
  %18 = extractvalue { i8*, i32 } %17, 0, !dbg !3602
  store i8* %18, i8** %exn.slot, align 8, !dbg !3602
  %19 = extractvalue { i8*, i32 } %17, 1, !dbg !3602
  store i32 %19, i32* %ehselector.slot, align 4, !dbg !3602
  call void @_ZN11xalanc_1_1016XalanTransformer25EnsureDestroyParsedSourceD2Ev(%"class.xalanc_1_10::XalanTransformer::EnsureDestroyParsedSource"* %theGuard) #3, !dbg !3600
  br label %eh.resume, !dbg !3600

if.end:                                           ; preds = %invoke.cont11, %if.else
  %20 = load i32, i32* %theResult, align 4, !dbg !3603
  store i32 %20, i32* %retval, align 4, !dbg !3604
  br label %return, !dbg !3604

return:                                           ; preds = %if.end, %if.then
  %21 = load i32, i32* %retval, align 4, !dbg !3605
  ret i32 %21, !dbg !3605

eh.resume:                                        ; preds = %lpad
  %exn = load i8*, i8** %exn.slot, align 8, !dbg !3600
  %sel = load i32, i32* %ehselector.slot, align 4, !dbg !3600
  %lpad.val = insertvalue { i8*, i32 } undef, i8* %exn, 0, !dbg !3600
  %lpad.val12 = insertvalue { i8*, i32 } %lpad.val, i32 %sel, 1, !dbg !3600
  resume { i8*, i32 } %lpad.val12, !dbg !3600
}

; Function Attrs: noinline uwtable
define linkonce_odr dso_local i32 @_Z9transformRN11xalanc_1_1016XalanTransformerERK6ParamsRKNS_15XSLTInputSourceES7_RKNS_16XSLTResultTargetE(%"class.xalanc_1_10::XalanTransformer"* dereferenceable(384) %theTransformer, %class.Params* dereferenceable(72) %theParams, %"class.xalanc_1_10::XSLTInputSource"* dereferenceable(64) %theSource, %"class.xalanc_1_10::XSLTInputSource"* dereferenceable(64) %theStylesheetSource, %"class.xalanc_1_10::XSLTResultTarget"* dereferenceable(112) %theTarget) #0 comdat personality i8* bitcast (i32 (...)* @__gxx_personality_v0 to i8*) !dbg !2452 {
entry:
  %retval = alloca i32, align 4
  %theTransformer.addr = alloca %"class.xalanc_1_10::XalanTransformer"*, align 8
  %theParams.addr = alloca %class.Params*, align 8
  %theSource.addr = alloca %"class.xalanc_1_10::XSLTInputSource"*, align 8
  %theStylesheetSource.addr = alloca %"class.xalanc_1_10::XSLTInputSource"*, align 8
  %theTarget.addr = alloca %"class.xalanc_1_10::XSLTResultTarget"*, align 8
  %theStartClock = alloca i64, align 8
  %theParsedSource = alloca %"class.xalanc_1_10::XalanParsedSource"*, align 8
  %theResult = alloca i32, align 4
  %theEndClock = alloca i64, align 8
  %theSourceGuard = alloca %"class.xalanc_1_10::XalanTransformer::EnsureDestroyParsedSource", align 8
  %theCompiledStylesheet = alloca %"class.xalanc_1_10::XalanCompiledStylesheet"*, align 8
  %exn.slot = alloca i8*
  %ehselector.slot = alloca i32
  %theStylesheetGuard = alloca %"struct.xalanc_1_10::XalanTransformer::EnsureDestroyCompiledStylesheet", align 8
  store %"class.xalanc_1_10::XalanTransformer"* %theTransformer, %"class.xalanc_1_10::XalanTransformer"** %theTransformer.addr, align 8
  call void @llvm.dbg.declare(metadata %"class.xalanc_1_10::XalanTransformer"** %theTransformer.addr, metadata !3606, metadata !DIExpression()), !dbg !3607
  store %class.Params* %theParams, %class.Params** %theParams.addr, align 8
  call void @llvm.dbg.declare(metadata %class.Params** %theParams.addr, metadata !3608, metadata !DIExpression()), !dbg !3609
  store %"class.xalanc_1_10::XSLTInputSource"* %theSource, %"class.xalanc_1_10::XSLTInputSource"** %theSource.addr, align 8
  call void @llvm.dbg.declare(metadata %"class.xalanc_1_10::XSLTInputSource"** %theSource.addr, metadata !3610, metadata !DIExpression()), !dbg !3611
  store %"class.xalanc_1_10::XSLTInputSource"* %theStylesheetSource, %"class.xalanc_1_10::XSLTInputSource"** %theStylesheetSource.addr, align 8
  call void @llvm.dbg.declare(metadata %"class.xalanc_1_10::XSLTInputSource"** %theStylesheetSource.addr, metadata !3612, metadata !DIExpression()), !dbg !3613
  store %"class.xalanc_1_10::XSLTResultTarget"* %theTarget, %"class.xalanc_1_10::XSLTResultTarget"** %theTarget.addr, align 8
  call void @llvm.dbg.declare(metadata %"class.xalanc_1_10::XSLTResultTarget"** %theTarget.addr, metadata !3614, metadata !DIExpression()), !dbg !3615
  %0 = load %class.Params*, %class.Params** %theParams.addr, align 8, !dbg !3616
  %m_showTiming = getelementptr inbounds %class.Params, %class.Params* %0, i32 0, i32 4, !dbg !3617
  %1 = load i8, i8* %m_showTiming, align 4, !dbg !3617
  %tobool = trunc i8 %1 to i1, !dbg !3617
  %conv = zext i1 %tobool to i32, !dbg !3616
  %cmp = icmp eq i32 %conv, 0, !dbg !3618
  br i1 %cmp, label %if.then, label %if.else, !dbg !3619

if.then:                                          ; preds = %entry
  %2 = load %"class.xalanc_1_10::XalanTransformer"*, %"class.xalanc_1_10::XalanTransformer"** %theTransformer.addr, align 8, !dbg !3620
  %3 = load %"class.xalanc_1_10::XSLTInputSource"*, %"class.xalanc_1_10::XSLTInputSource"** %theSource.addr, align 8, !dbg !3622
  %4 = load %"class.xalanc_1_10::XSLTInputSource"*, %"class.xalanc_1_10::XSLTInputSource"** %theStylesheetSource.addr, align 8, !dbg !3623
  %5 = load %"class.xalanc_1_10::XSLTResultTarget"*, %"class.xalanc_1_10::XSLTResultTarget"** %theTarget.addr, align 8, !dbg !3624
  %call = call i32 @_ZN11xalanc_1_1016XalanTransformer9transformERKNS_15XSLTInputSourceES3_RKNS_16XSLTResultTargetE(%"class.xalanc_1_10::XalanTransformer"* %2, %"class.xalanc_1_10::XSLTInputSource"* dereferenceable(64) %3, %"class.xalanc_1_10::XSLTInputSource"* dereferenceable(64) %4, %"class.xalanc_1_10::XSLTResultTarget"* dereferenceable(112) %5), !dbg !3625
  store i32 %call, i32* %retval, align 4, !dbg !3626
  br label %return, !dbg !3626

if.else:                                          ; preds = %entry
  call void @llvm.dbg.declare(metadata i64* %theStartClock, metadata !3627, metadata !DIExpression()), !dbg !3628
  %call1 = call i64 @_Z8getClockv(), !dbg !3629
  store i64 %call1, i64* %theStartClock, align 8, !dbg !3628
  call void @llvm.dbg.declare(metadata %"class.xalanc_1_10::XalanParsedSource"** %theParsedSource, metadata !3630, metadata !DIExpression()), !dbg !3631
  store %"class.xalanc_1_10::XalanParsedSource"* null, %"class.xalanc_1_10::XalanParsedSource"** %theParsedSource, align 8, !dbg !3631
  call void @llvm.dbg.declare(metadata i32* %theResult, metadata !3632, metadata !DIExpression()), !dbg !3633
  %6 = load %"class.xalanc_1_10::XalanTransformer"*, %"class.xalanc_1_10::XalanTransformer"** %theTransformer.addr, align 8, !dbg !3634
  %7 = load %"class.xalanc_1_10::XSLTInputSource"*, %"class.xalanc_1_10::XSLTInputSource"** %theSource.addr, align 8, !dbg !3635
  %call2 = call i32 @_ZN11xalanc_1_1016XalanTransformer11parseSourceERKNS_15XSLTInputSourceERPKNS_17XalanParsedSourceEb(%"class.xalanc_1_10::XalanTransformer"* %6, %"class.xalanc_1_10::XSLTInputSource"* dereferenceable(64) %7, %"class.xalanc_1_10::XalanParsedSource"** dereferenceable(8) %theParsedSource, i1 zeroext false), !dbg !3636
  store i32 %call2, i32* %theResult, align 4, !dbg !3633
  %8 = load i32, i32* %theResult, align 4, !dbg !3637
  %cmp3 = icmp eq i32 %8, 0, !dbg !3638
  br i1 %cmp3, label %if.then4, label %if.end23, !dbg !3639

if.then4:                                         ; preds = %if.else
  call void @llvm.dbg.declare(metadata i64* %theEndClock, metadata !3640, metadata !DIExpression()), !dbg !3641
  %call5 = call i64 @_Z8getClockv(), !dbg !3642
  store i64 %call5, i64* %theEndClock, align 8, !dbg !3641
  %9 = load i64, i64* %theStartClock, align 8, !dbg !3643
  %10 = load i64, i64* %theEndClock, align 8, !dbg !3644
  call void @_Z25reportElapsedMillisecondsPKcllRSo(i8* getelementptr inbounds ([27 x i8], [27 x i8]* @.str.6, i64 0, i64 0), i64 %9, i64 %10, %"class.std::basic_ostream"* dereferenceable(272) @_ZSt4cerr), !dbg !3645
  call void @llvm.dbg.declare(metadata %"class.xalanc_1_10::XalanTransformer::EnsureDestroyParsedSource"* %theSourceGuard, metadata !3646, metadata !DIExpression()), !dbg !3647
  %11 = load %"class.xalanc_1_10::XalanTransformer"*, %"class.xalanc_1_10::XalanTransformer"** %theTransformer.addr, align 8, !dbg !3648
  %12 = load %"class.xalanc_1_10::XalanParsedSource"*, %"class.xalanc_1_10::XalanParsedSource"** %theParsedSource, align 8, !dbg !3649
  call void @_ZN11xalanc_1_1016XalanTransformer25EnsureDestroyParsedSourceC2ERS0_PKNS_17XalanParsedSourceE(%"class.xalanc_1_10::XalanTransformer::EnsureDestroyParsedSource"* %theSourceGuard, %"class.xalanc_1_10::XalanTransformer"* dereferenceable(384) %11, %"class.xalanc_1_10::XalanParsedSource"* %12), !dbg !3647
  call void @llvm.dbg.declare(metadata %"class.xalanc_1_10::XalanCompiledStylesheet"** %theCompiledStylesheet, metadata !3650, metadata !DIExpression()), !dbg !3653
  store %"class.xalanc_1_10::XalanCompiledStylesheet"* null, %"class.xalanc_1_10::XalanCompiledStylesheet"** %theCompiledStylesheet, align 8, !dbg !3653
  %call6 = invoke i64 @_Z8getClockv()
          to label %invoke.cont unwind label %lpad, !dbg !3654

invoke.cont:                                      ; preds = %if.then4
  store i64 %call6, i64* %theStartClock, align 8, !dbg !3655
  %13 = load %"class.xalanc_1_10::XalanTransformer"*, %"class.xalanc_1_10::XalanTransformer"** %theTransformer.addr, align 8, !dbg !3656
  %14 = load %"class.xalanc_1_10::XSLTInputSource"*, %"class.xalanc_1_10::XSLTInputSource"** %theStylesheetSource.addr, align 8, !dbg !3657
  %call8 = invoke i32 @_ZN11xalanc_1_1016XalanTransformer17compileStylesheetERKNS_15XSLTInputSourceERPKNS_23XalanCompiledStylesheetE(%"class.xalanc_1_10::XalanTransformer"* %13, %"class.xalanc_1_10::XSLTInputSource"* dereferenceable(64) %14, %"class.xalanc_1_10::XalanCompiledStylesheet"** dereferenceable(8) %theCompiledStylesheet)
          to label %invoke.cont7 unwind label %lpad, !dbg !3658

invoke.cont7:                                     ; preds = %invoke.cont
  store i32 %call8, i32* %theResult, align 4, !dbg !3659
  %15 = load i32, i32* %theResult, align 4, !dbg !3660
  %cmp9 = icmp eq i32 %15, 0, !dbg !3662
  br i1 %cmp9, label %if.then10, label %if.end, !dbg !3663

if.then10:                                        ; preds = %invoke.cont7
  %call12 = invoke i64 @_Z8getClockv()
          to label %invoke.cont11 unwind label %lpad, !dbg !3664

invoke.cont11:                                    ; preds = %if.then10
  store i64 %call12, i64* %theEndClock, align 8, !dbg !3666
  %16 = load i64, i64* %theStartClock, align 8, !dbg !3667
  %17 = load i64, i64* %theEndClock, align 8, !dbg !3668
  invoke void @_Z25reportElapsedMillisecondsPKcllRSo(i8* getelementptr inbounds ([30 x i8], [30 x i8]* @.str.9, i64 0, i64 0), i64 %16, i64 %17, %"class.std::basic_ostream"* dereferenceable(272) @_ZSt4cerr)
          to label %invoke.cont13 unwind label %lpad, !dbg !3669

invoke.cont13:                                    ; preds = %invoke.cont11
  call void @llvm.dbg.declare(metadata %"struct.xalanc_1_10::XalanTransformer::EnsureDestroyCompiledStylesheet"* %theStylesheetGuard, metadata !3670, metadata !DIExpression()), !dbg !3684
  %18 = load %"class.xalanc_1_10::XalanTransformer"*, %"class.xalanc_1_10::XalanTransformer"** %theTransformer.addr, align 8, !dbg !3685
  %19 = load %"class.xalanc_1_10::XalanCompiledStylesheet"*, %"class.xalanc_1_10::XalanCompiledStylesheet"** %theCompiledStylesheet, align 8, !dbg !3686
  invoke void @_ZN11xalanc_1_1016XalanTransformer31EnsureDestroyCompiledStylesheetC2ERS0_PKNS_23XalanCompiledStylesheetE(%"struct.xalanc_1_10::XalanTransformer::EnsureDestroyCompiledStylesheet"* %theStylesheetGuard, %"class.xalanc_1_10::XalanTransformer"* dereferenceable(384) %18, %"class.xalanc_1_10::XalanCompiledStylesheet"* %19)
          to label %invoke.cont14 unwind label %lpad, !dbg !3684

invoke.cont14:                                    ; preds = %invoke.cont13
  %call17 = invoke i64 @_Z8getClockv()
          to label %invoke.cont16 unwind label %lpad15, !dbg !3687

invoke.cont16:                                    ; preds = %invoke.cont14
  store i64 %call17, i64* %theStartClock, align 8, !dbg !3688
  %20 = load %"class.xalanc_1_10::XalanTransformer"*, %"class.xalanc_1_10::XalanTransformer"** %theTransformer.addr, align 8, !dbg !3689
  %21 = load %"class.xalanc_1_10::XalanParsedSource"*, %"class.xalanc_1_10::XalanParsedSource"** %theParsedSource, align 8, !dbg !3690
  %22 = load %"class.xalanc_1_10::XalanCompiledStylesheet"*, %"class.xalanc_1_10::XalanCompiledStylesheet"** %theCompiledStylesheet, align 8, !dbg !3691
  %23 = load %"class.xalanc_1_10::XSLTResultTarget"*, %"class.xalanc_1_10::XSLTResultTarget"** %theTarget.addr, align 8, !dbg !3692
  %call19 = invoke i32 @_ZN11xalanc_1_1016XalanTransformer9transformERKNS_17XalanParsedSourceEPKNS_23XalanCompiledStylesheetERKNS_16XSLTResultTargetE(%"class.xalanc_1_10::XalanTransformer"* %20, %"class.xalanc_1_10::XalanParsedSource"* nonnull %21, %"class.xalanc_1_10::XalanCompiledStylesheet"* %22, %"class.xalanc_1_10::XSLTResultTarget"* dereferenceable(112) %23)
          to label %invoke.cont18 unwind label %lpad15, !dbg !3693

invoke.cont18:                                    ; preds = %invoke.cont16
  store i32 %call19, i32* %theResult, align 4, !dbg !3694
  %call21 = invoke i64 @_Z8getClockv()
          to label %invoke.cont20 unwind label %lpad15, !dbg !3695

invoke.cont20:                                    ; preds = %invoke.cont18
  store i64 %call21, i64* %theEndClock, align 8, !dbg !3696
  %24 = load i64, i64* %theStartClock, align 8, !dbg !3697
  %25 = load i64, i64* %theEndClock, align 8, !dbg !3698
  invoke void @_Z25reportElapsedMillisecondsPKcllRSo(i8* getelementptr inbounds ([22 x i8], [22 x i8]* @.str.10, i64 0, i64 0), i64 %24, i64 %25, %"class.std::basic_ostream"* dereferenceable(272) @_ZSt4cerr)
          to label %invoke.cont22 unwind label %lpad15, !dbg !3699

invoke.cont22:                                    ; preds = %invoke.cont20
  call void @_ZN11xalanc_1_1016XalanTransformer31EnsureDestroyCompiledStylesheetD2Ev(%"struct.xalanc_1_10::XalanTransformer::EnsureDestroyCompiledStylesheet"* %theStylesheetGuard) #3, !dbg !3700
  br label %if.end, !dbg !3701

lpad:                                             ; preds = %invoke.cont13, %invoke.cont11, %if.then10, %invoke.cont, %if.then4
  %26 = landingpad { i8*, i32 }
          cleanup, !dbg !3702
  %27 = extractvalue { i8*, i32 } %26, 0, !dbg !3702
  store i8* %27, i8** %exn.slot, align 8, !dbg !3702
  %28 = extractvalue { i8*, i32 } %26, 1, !dbg !3702
  store i32 %28, i32* %ehselector.slot, align 4, !dbg !3702
  br label %ehcleanup, !dbg !3702

lpad15:                                           ; preds = %invoke.cont20, %invoke.cont18, %invoke.cont16, %invoke.cont14
  %29 = landingpad { i8*, i32 }
          cleanup, !dbg !3703
  %30 = extractvalue { i8*, i32 } %29, 0, !dbg !3703
  store i8* %30, i8** %exn.slot, align 8, !dbg !3703
  %31 = extractvalue { i8*, i32 } %29, 1, !dbg !3703
  store i32 %31, i32* %ehselector.slot, align 4, !dbg !3703
  call void @_ZN11xalanc_1_1016XalanTransformer31EnsureDestroyCompiledStylesheetD2Ev(%"struct.xalanc_1_10::XalanTransformer::EnsureDestroyCompiledStylesheet"* %theStylesheetGuard) #3, !dbg !3700
  br label %ehcleanup, !dbg !3700

if.end:                                           ; preds = %invoke.cont22, %invoke.cont7
  call void @_ZN11xalanc_1_1016XalanTransformer25EnsureDestroyParsedSourceD2Ev(%"class.xalanc_1_10::XalanTransformer::EnsureDestroyParsedSource"* %theSourceGuard) #3, !dbg !3704
  br label %if.end23, !dbg !3705

ehcleanup:                                        ; preds = %lpad15, %lpad
  call void @_ZN11xalanc_1_1016XalanTransformer25EnsureDestroyParsedSourceD2Ev(%"class.xalanc_1_10::XalanTransformer::EnsureDestroyParsedSource"* %theSourceGuard) #3, !dbg !3704
  br label %eh.resume, !dbg !3704

if.end23:                                         ; preds = %if.end, %if.else
  %32 = load i32, i32* %theResult, align 4, !dbg !3706
  store i32 %32, i32* %retval, align 4, !dbg !3707
  br label %return, !dbg !3707

return:                                           ; preds = %if.end23, %if.then
  %33 = load i32, i32* %retval, align 4, !dbg !3708
  ret i32 %33, !dbg !3708

eh.resume:                                        ; preds = %ehcleanup
  %exn = load i8*, i8** %exn.slot, align 8, !dbg !3704
  %sel = load i32, i32* %ehselector.slot, align 4, !dbg !3704
  %lpad.val = insertvalue { i8*, i32 } undef, i8* %exn, 0, !dbg !3704
  %lpad.val24 = insertvalue { i8*, i32 } %lpad.val, i32 %sel, 1, !dbg !3704
  resume { i8*, i32 } %lpad.val24, !dbg !3704
}

; Function Attrs: nounwind
declare dso_local void @_ZN11xalanc_1_1016XSLTResultTargetD1Ev(%"class.xalanc_1_10::XSLTResultTarget"*) unnamed_addr #2

; Function Attrs: noinline uwtable
define linkonce_odr dso_local dereferenceable(40) %"class.xalanc_1_10::XalanDOMString"* @_ZN11xalanc_1_1014XalanDOMStringaSERKS0_(%"class.xalanc_1_10::XalanDOMString"* %this, %"class.xalanc_1_10::XalanDOMString"* dereferenceable(40) %theRHS) #0 comdat align 2 !dbg !3709 {
entry:
  %this.addr = alloca %"class.xalanc_1_10::XalanDOMString"*, align 8
  %theRHS.addr = alloca %"class.xalanc_1_10::XalanDOMString"*, align 8
  store %"class.xalanc_1_10::XalanDOMString"* %this, %"class.xalanc_1_10::XalanDOMString"** %this.addr, align 8
  call void @llvm.dbg.declare(metadata %"class.xalanc_1_10::XalanDOMString"** %this.addr, metadata !3710, metadata !DIExpression()), !dbg !3711
  store %"class.xalanc_1_10::XalanDOMString"* %theRHS, %"class.xalanc_1_10::XalanDOMString"** %theRHS.addr, align 8
  call void @llvm.dbg.declare(metadata %"class.xalanc_1_10::XalanDOMString"** %theRHS.addr, metadata !3712, metadata !DIExpression()), !dbg !3713
  %this1 = load %"class.xalanc_1_10::XalanDOMString"*, %"class.xalanc_1_10::XalanDOMString"** %this.addr, align 8
  %0 = load %"class.xalanc_1_10::XalanDOMString"*, %"class.xalanc_1_10::XalanDOMString"** %theRHS.addr, align 8, !dbg !3714
  %call = call dereferenceable(40) %"class.xalanc_1_10::XalanDOMString"* @_ZN11xalanc_1_1014XalanDOMString6assignERKS0_(%"class.xalanc_1_10::XalanDOMString"* %this1, %"class.xalanc_1_10::XalanDOMString"* dereferenceable(40) %0), !dbg !3715
  ret %"class.xalanc_1_10::XalanDOMString"* %call, !dbg !3716
}

; Function Attrs: noinline uwtable
define linkonce_odr dso_local dereferenceable(40) %"class.xalanc_1_10::XalanDOMString"* @_ZN11xalanc_1_1014XalanDOMString6assignERKS0_(%"class.xalanc_1_10::XalanDOMString"* %this, %"class.xalanc_1_10::XalanDOMString"* dereferenceable(40) %theSource) #0 comdat align 2 !dbg !3717 {
entry:
  %this.addr = alloca %"class.xalanc_1_10::XalanDOMString"*, align 8
  %theSource.addr = alloca %"class.xalanc_1_10::XalanDOMString"*, align 8
  store %"class.xalanc_1_10::XalanDOMString"* %this, %"class.xalanc_1_10::XalanDOMString"** %this.addr, align 8
  call void @llvm.dbg.declare(metadata %"class.xalanc_1_10::XalanDOMString"** %this.addr, metadata !3718, metadata !DIExpression()), !dbg !3719
  store %"class.xalanc_1_10::XalanDOMString"* %theSource, %"class.xalanc_1_10::XalanDOMString"** %theSource.addr, align 8
  call void @llvm.dbg.declare(metadata %"class.xalanc_1_10::XalanDOMString"** %theSource.addr, metadata !3720, metadata !DIExpression()), !dbg !3721
  %this1 = load %"class.xalanc_1_10::XalanDOMString"*, %"class.xalanc_1_10::XalanDOMString"** %this.addr, align 8
  call void @_ZNK11xalanc_1_1014XalanDOMString10invariantsEv(%"class.xalanc_1_10::XalanDOMString"* %this1), !dbg !3722
  %0 = load %"class.xalanc_1_10::XalanDOMString"*, %"class.xalanc_1_10::XalanDOMString"** %theSource.addr, align 8, !dbg !3723
  %cmp = icmp ne %"class.xalanc_1_10::XalanDOMString"* %0, %this1, !dbg !3725
  br i1 %cmp, label %if.then, label %if.end, !dbg !3726

if.then:                                          ; preds = %entry
  %1 = load %"class.xalanc_1_10::XalanDOMString"*, %"class.xalanc_1_10::XalanDOMString"** %theSource.addr, align 8, !dbg !3727
  %m_data = getelementptr inbounds %"class.xalanc_1_10::XalanDOMString", %"class.xalanc_1_10::XalanDOMString"* %1, i32 0, i32 0, !dbg !3729
  %m_data2 = getelementptr inbounds %"class.xalanc_1_10::XalanDOMString", %"class.xalanc_1_10::XalanDOMString"* %this1, i32 0, i32 0, !dbg !3730
  %call = call dereferenceable(32) %"class.xalanc_1_10::XalanVector"* @_ZN11xalanc_1_1011XalanVectorItNS_31MemoryManagedConstructionTraitsItEEEaSERKS3_(%"class.xalanc_1_10::XalanVector"* %m_data2, %"class.xalanc_1_10::XalanVector"* dereferenceable(32) %m_data), !dbg !3731
  %2 = load %"class.xalanc_1_10::XalanDOMString"*, %"class.xalanc_1_10::XalanDOMString"** %theSource.addr, align 8, !dbg !3732
  %m_size = getelementptr inbounds %"class.xalanc_1_10::XalanDOMString", %"class.xalanc_1_10::XalanDOMString"* %2, i32 0, i32 1, !dbg !3733
  %3 = load i32, i32* %m_size, align 8, !dbg !3733
  %m_size3 = getelementptr inbounds %"class.xalanc_1_10::XalanDOMString", %"class.xalanc_1_10::XalanDOMString"* %this1, i32 0, i32 1, !dbg !3734
  store i32 %3, i32* %m_size3, align 8, !dbg !3735
  br label %if.end, !dbg !3736

if.end:                                           ; preds = %if.then, %entry
  call void @_ZNK11xalanc_1_1014XalanDOMString10invariantsEv(%"class.xalanc_1_10::XalanDOMString"* %this1), !dbg !3737
  ret %"class.xalanc_1_10::XalanDOMString"* %this1, !dbg !3738
}

; Function Attrs: noinline nounwind uwtable
define linkonce_odr dso_local void @_ZNK11xalanc_1_1014XalanDOMString10invariantsEv(%"class.xalanc_1_10::XalanDOMString"* %this) #5 comdat align 2 !dbg !3739 {
entry:
  %this.addr = alloca %"class.xalanc_1_10::XalanDOMString"*, align 8
  store %"class.xalanc_1_10::XalanDOMString"* %this, %"class.xalanc_1_10::XalanDOMString"** %this.addr, align 8
  call void @llvm.dbg.declare(metadata %"class.xalanc_1_10::XalanDOMString"** %this.addr, metadata !3740, metadata !DIExpression()), !dbg !3742
  %this1 = load %"class.xalanc_1_10::XalanDOMString"*, %"class.xalanc_1_10::XalanDOMString"** %this.addr, align 8
  ret void, !dbg !3743
}

; Function Attrs: noinline uwtable
define linkonce_odr dso_local dereferenceable(32) %"class.xalanc_1_10::XalanVector"* @_ZN11xalanc_1_1011XalanVectorItNS_31MemoryManagedConstructionTraitsItEEEaSERKS3_(%"class.xalanc_1_10::XalanVector"* %this, %"class.xalanc_1_10::XalanVector"* dereferenceable(32) %theRHS) #0 comdat align 2 personality i8* bitcast (i32 (...)* @__gxx_personality_v0 to i8*) !dbg !3744 {
entry:
  %this.addr = alloca %"class.xalanc_1_10::XalanVector"*, align 8
  %theRHS.addr = alloca %"class.xalanc_1_10::XalanVector"*, align 8
  %theTemp = alloca %"class.xalanc_1_10::XalanVector", align 8
  %exn.slot = alloca i8*
  %ehselector.slot = alloca i32
  %theRHSCopyEnd = alloca i16*, align 8
  store %"class.xalanc_1_10::XalanVector"* %this, %"class.xalanc_1_10::XalanVector"** %this.addr, align 8
  call void @llvm.dbg.declare(metadata %"class.xalanc_1_10::XalanVector"** %this.addr, metadata !3745, metadata !DIExpression()), !dbg !3746
  store %"class.xalanc_1_10::XalanVector"* %theRHS, %"class.xalanc_1_10::XalanVector"** %theRHS.addr, align 8
  call void @llvm.dbg.declare(metadata %"class.xalanc_1_10::XalanVector"** %theRHS.addr, metadata !3747, metadata !DIExpression()), !dbg !3748
  %this1 = load %"class.xalanc_1_10::XalanVector"*, %"class.xalanc_1_10::XalanVector"** %this.addr, align 8
  call void @_ZNK11xalanc_1_1011XalanVectorItNS_31MemoryManagedConstructionTraitsItEEE10invariantsEv(%"class.xalanc_1_10::XalanVector"* %this1), !dbg !3749
  %0 = load %"class.xalanc_1_10::XalanVector"*, %"class.xalanc_1_10::XalanVector"** %theRHS.addr, align 8, !dbg !3750
  %cmp = icmp ne %"class.xalanc_1_10::XalanVector"* %0, %this1, !dbg !3752
  br i1 %cmp, label %if.then, label %if.end23, !dbg !3753

if.then:                                          ; preds = %entry
  %m_allocation = getelementptr inbounds %"class.xalanc_1_10::XalanVector", %"class.xalanc_1_10::XalanVector"* %this1, i32 0, i32 2, !dbg !3754
  %1 = load i64, i64* %m_allocation, align 8, !dbg !3754
  %2 = load %"class.xalanc_1_10::XalanVector"*, %"class.xalanc_1_10::XalanVector"** %theRHS.addr, align 8, !dbg !3757
  %m_size = getelementptr inbounds %"class.xalanc_1_10::XalanVector", %"class.xalanc_1_10::XalanVector"* %2, i32 0, i32 1, !dbg !3758
  %3 = load i64, i64* %m_size, align 8, !dbg !3758
  %cmp2 = icmp ult i64 %1, %3, !dbg !3759
  br i1 %cmp2, label %if.then3, label %if.else, !dbg !3760

if.then3:                                         ; preds = %if.then
  call void @llvm.dbg.declare(metadata %"class.xalanc_1_10::XalanVector"* %theTemp, metadata !3761, metadata !DIExpression()), !dbg !3763
  %4 = load %"class.xalanc_1_10::XalanVector"*, %"class.xalanc_1_10::XalanVector"** %theRHS.addr, align 8, !dbg !3764
  %m_memoryManager = getelementptr inbounds %"class.xalanc_1_10::XalanVector", %"class.xalanc_1_10::XalanVector"* %this1, i32 0, i32 0, !dbg !3765
  %5 = load %"class.xercesc_2_7::MemoryManager"*, %"class.xercesc_2_7::MemoryManager"** %m_memoryManager, align 8, !dbg !3765
  call void @_ZN11xalanc_1_1011XalanVectorItNS_31MemoryManagedConstructionTraitsItEEEC2ERKS3_RN11xercesc_2_713MemoryManagerEm(%"class.xalanc_1_10::XalanVector"* %theTemp, %"class.xalanc_1_10::XalanVector"* dereferenceable(32) %4, %"class.xercesc_2_7::MemoryManager"* dereferenceable(8) %5, i64 0), !dbg !3763
  invoke void @_ZN11xalanc_1_1011XalanVectorItNS_31MemoryManagedConstructionTraitsItEEE4swapERS3_(%"class.xalanc_1_10::XalanVector"* %this1, %"class.xalanc_1_10::XalanVector"* dereferenceable(32) %theTemp)
          to label %invoke.cont unwind label %lpad, !dbg !3766

invoke.cont:                                      ; preds = %if.then3
  call void @_ZN11xalanc_1_1011XalanVectorItNS_31MemoryManagedConstructionTraitsItEEED2Ev(%"class.xalanc_1_10::XalanVector"* %theTemp) #3, !dbg !3767
  br label %if.end22, !dbg !3768

lpad:                                             ; preds = %if.then3
  %6 = landingpad { i8*, i32 }
          cleanup, !dbg !3769
  %7 = extractvalue { i8*, i32 } %6, 0, !dbg !3769
  store i8* %7, i8** %exn.slot, align 8, !dbg !3769
  %8 = extractvalue { i8*, i32 } %6, 1, !dbg !3769
  store i32 %8, i32* %ehselector.slot, align 4, !dbg !3769
  call void @_ZN11xalanc_1_1011XalanVectorItNS_31MemoryManagedConstructionTraitsItEEED2Ev(%"class.xalanc_1_10::XalanVector"* %theTemp) #3, !dbg !3767
  br label %eh.resume, !dbg !3767

if.else:                                          ; preds = %if.then
  call void @llvm.dbg.declare(metadata i16** %theRHSCopyEnd, metadata !3770, metadata !DIExpression()), !dbg !3772
  %9 = load %"class.xalanc_1_10::XalanVector"*, %"class.xalanc_1_10::XalanVector"** %theRHS.addr, align 8, !dbg !3773
  %call = call i16* @_ZNK11xalanc_1_1011XalanVectorItNS_31MemoryManagedConstructionTraitsItEEE3endEv(%"class.xalanc_1_10::XalanVector"* %9), !dbg !3774
  store i16* %call, i16** %theRHSCopyEnd, align 8, !dbg !3772
  %m_size4 = getelementptr inbounds %"class.xalanc_1_10::XalanVector", %"class.xalanc_1_10::XalanVector"* %this1, i32 0, i32 1, !dbg !3775
  %10 = load i64, i64* %m_size4, align 8, !dbg !3775
  %11 = load %"class.xalanc_1_10::XalanVector"*, %"class.xalanc_1_10::XalanVector"** %theRHS.addr, align 8, !dbg !3777
  %m_size5 = getelementptr inbounds %"class.xalanc_1_10::XalanVector", %"class.xalanc_1_10::XalanVector"* %11, i32 0, i32 1, !dbg !3778
  %12 = load i64, i64* %m_size5, align 8, !dbg !3778
  %cmp6 = icmp ugt i64 %10, %12, !dbg !3779
  br i1 %cmp6, label %if.then7, label %if.else9, !dbg !3780

if.then7:                                         ; preds = %if.else
  %13 = load %"class.xalanc_1_10::XalanVector"*, %"class.xalanc_1_10::XalanVector"** %theRHS.addr, align 8, !dbg !3781
  %m_size8 = getelementptr inbounds %"class.xalanc_1_10::XalanVector", %"class.xalanc_1_10::XalanVector"* %13, i32 0, i32 1, !dbg !3783
  %14 = load i64, i64* %m_size8, align 8, !dbg !3783
  call void @_ZN11xalanc_1_1011XalanVectorItNS_31MemoryManagedConstructionTraitsItEEE12shrinkToSizeEm(%"class.xalanc_1_10::XalanVector"* %this1, i64 %14), !dbg !3784
  br label %if.end18, !dbg !3785

if.else9:                                         ; preds = %if.else
  %m_size10 = getelementptr inbounds %"class.xalanc_1_10::XalanVector", %"class.xalanc_1_10::XalanVector"* %this1, i32 0, i32 1, !dbg !3786
  %15 = load i64, i64* %m_size10, align 8, !dbg !3786
  %16 = load %"class.xalanc_1_10::XalanVector"*, %"class.xalanc_1_10::XalanVector"** %theRHS.addr, align 8, !dbg !3788
  %m_size11 = getelementptr inbounds %"class.xalanc_1_10::XalanVector", %"class.xalanc_1_10::XalanVector"* %16, i32 0, i32 1, !dbg !3789
  %17 = load i64, i64* %m_size11, align 8, !dbg !3789
  %cmp12 = icmp ult i64 %15, %17, !dbg !3790
  br i1 %cmp12, label %if.then13, label %if.end, !dbg !3791

if.then13:                                        ; preds = %if.else9
  %18 = load %"class.xalanc_1_10::XalanVector"*, %"class.xalanc_1_10::XalanVector"** %theRHS.addr, align 8, !dbg !3792
  %call14 = call i16* @_ZNK11xalanc_1_1011XalanVectorItNS_31MemoryManagedConstructionTraitsItEEE5beginEv(%"class.xalanc_1_10::XalanVector"* %18), !dbg !3794
  %m_size15 = getelementptr inbounds %"class.xalanc_1_10::XalanVector", %"class.xalanc_1_10::XalanVector"* %this1, i32 0, i32 1, !dbg !3795
  %19 = load i64, i64* %m_size15, align 8, !dbg !3795
  %add.ptr = getelementptr inbounds i16, i16* %call14, i64 %19, !dbg !3796
  store i16* %add.ptr, i16** %theRHSCopyEnd, align 8, !dbg !3797
  %call16 = call i16* @_ZN11xalanc_1_1011XalanVectorItNS_31MemoryManagedConstructionTraitsItEEE3endEv(%"class.xalanc_1_10::XalanVector"* %this1), !dbg !3798
  %20 = load i16*, i16** %theRHSCopyEnd, align 8, !dbg !3799
  %21 = load %"class.xalanc_1_10::XalanVector"*, %"class.xalanc_1_10::XalanVector"** %theRHS.addr, align 8, !dbg !3800
  %call17 = call i16* @_ZNK11xalanc_1_1011XalanVectorItNS_31MemoryManagedConstructionTraitsItEEE3endEv(%"class.xalanc_1_10::XalanVector"* %21), !dbg !3801
  call void @_ZN11xalanc_1_1011XalanVectorItNS_31MemoryManagedConstructionTraitsItEEE6insertEPtPKtS6_(%"class.xalanc_1_10::XalanVector"* %this1, i16* %call16, i16* %20, i16* %call17), !dbg !3802
  br label %if.end, !dbg !3803

if.end:                                           ; preds = %if.then13, %if.else9
  br label %if.end18

if.end18:                                         ; preds = %if.end, %if.then7
  %22 = load %"class.xalanc_1_10::XalanVector"*, %"class.xalanc_1_10::XalanVector"** %theRHS.addr, align 8, !dbg !3804
  %call19 = call i16* @_ZNK11xalanc_1_1011XalanVectorItNS_31MemoryManagedConstructionTraitsItEEE5beginEv(%"class.xalanc_1_10::XalanVector"* %22), !dbg !3805
  %23 = load i16*, i16** %theRHSCopyEnd, align 8, !dbg !3806
  %call20 = call i16* @_ZN11xalanc_1_1011XalanVectorItNS_31MemoryManagedConstructionTraitsItEEE5beginEv(%"class.xalanc_1_10::XalanVector"* %this1), !dbg !3807
  %call21 = call i16* @_ZSt4copyIPKtPtET0_T_S4_S3_(i16* %call19, i16* %23, i16* %call20), !dbg !3808
  br label %if.end22

if.end22:                                         ; preds = %if.end18, %invoke.cont
  br label %if.end23, !dbg !3809

if.end23:                                         ; preds = %if.end22, %entry
  call void @_ZNK11xalanc_1_1011XalanVectorItNS_31MemoryManagedConstructionTraitsItEEE10invariantsEv(%"class.xalanc_1_10::XalanVector"* %this1), !dbg !3810
  ret %"class.xalanc_1_10::XalanVector"* %this1, !dbg !3811

eh.resume:                                        ; preds = %lpad
  %exn = load i8*, i8** %exn.slot, align 8, !dbg !3767
  %sel = load i32, i32* %ehselector.slot, align 4, !dbg !3767
  %lpad.val = insertvalue { i8*, i32 } undef, i8* %exn, 0, !dbg !3767
  %lpad.val24 = insertvalue { i8*, i32 } %lpad.val, i32 %sel, 1, !dbg !3767
  resume { i8*, i32 } %lpad.val24, !dbg !3767
}

; Function Attrs: noinline uwtable
define linkonce_odr dso_local void @_ZN11xalanc_1_1011XalanVectorItNS_31MemoryManagedConstructionTraitsItEEEC2ERKS3_RN11xercesc_2_713MemoryManagerEm(%"class.xalanc_1_10::XalanVector"* %this, %"class.xalanc_1_10::XalanVector"* dereferenceable(32) %theSource, %"class.xercesc_2_7::MemoryManager"* dereferenceable(8) %theManager, i64 %theInitialAllocation) unnamed_addr #0 comdat align 2 personality i8* bitcast (i32 (...)* @__gxx_personality_v0 to i8*) !dbg !3812 {
entry:
  %this.addr = alloca %"class.xalanc_1_10::XalanVector"*, align 8
  %theSource.addr = alloca %"class.xalanc_1_10::XalanVector"*, align 8
  %theManager.addr = alloca %"class.xercesc_2_7::MemoryManager"*, align 8
  %theInitialAllocation.addr = alloca i64, align 8
  %theTemp = alloca %"class.xalanc_1_10::XalanVector", align 8
  %exn.slot = alloca i8*
  %ehselector.slot = alloca i32
  store %"class.xalanc_1_10::XalanVector"* %this, %"class.xalanc_1_10::XalanVector"** %this.addr, align 8
  call void @llvm.dbg.declare(metadata %"class.xalanc_1_10::XalanVector"** %this.addr, metadata !3813, metadata !DIExpression()), !dbg !3814
  store %"class.xalanc_1_10::XalanVector"* %theSource, %"class.xalanc_1_10::XalanVector"** %theSource.addr, align 8
  call void @llvm.dbg.declare(metadata %"class.xalanc_1_10::XalanVector"** %theSource.addr, metadata !3815, metadata !DIExpression()), !dbg !3816
  store %"class.xercesc_2_7::MemoryManager"* %theManager, %"class.xercesc_2_7::MemoryManager"** %theManager.addr, align 8
  call void @llvm.dbg.declare(metadata %"class.xercesc_2_7::MemoryManager"** %theManager.addr, metadata !3817, metadata !DIExpression()), !dbg !3818
  store i64 %theInitialAllocation, i64* %theInitialAllocation.addr, align 8
  call void @llvm.dbg.declare(metadata i64* %theInitialAllocation.addr, metadata !3819, metadata !DIExpression()), !dbg !3820
  %this1 = load %"class.xalanc_1_10::XalanVector"*, %"class.xalanc_1_10::XalanVector"** %this.addr, align 8
  %m_memoryManager = getelementptr inbounds %"class.xalanc_1_10::XalanVector", %"class.xalanc_1_10::XalanVector"* %this1, i32 0, i32 0, !dbg !3821
  %0 = load %"class.xercesc_2_7::MemoryManager"*, %"class.xercesc_2_7::MemoryManager"** %theManager.addr, align 8, !dbg !3822
  store %"class.xercesc_2_7::MemoryManager"* %0, %"class.xercesc_2_7::MemoryManager"** %m_memoryManager, align 8, !dbg !3821
  %m_size = getelementptr inbounds %"class.xalanc_1_10::XalanVector", %"class.xalanc_1_10::XalanVector"* %this1, i32 0, i32 1, !dbg !3823
  store i64 0, i64* %m_size, align 8, !dbg !3823
  %m_allocation = getelementptr inbounds %"class.xalanc_1_10::XalanVector", %"class.xalanc_1_10::XalanVector"* %this1, i32 0, i32 2, !dbg !3824
  store i64 0, i64* %m_allocation, align 8, !dbg !3824
  %m_data = getelementptr inbounds %"class.xalanc_1_10::XalanVector", %"class.xalanc_1_10::XalanVector"* %this1, i32 0, i32 3, !dbg !3825
  store i16* null, i16** %m_data, align 8, !dbg !3825
  %1 = load %"class.xalanc_1_10::XalanVector"*, %"class.xalanc_1_10::XalanVector"** %theSource.addr, align 8, !dbg !3826
  %m_size2 = getelementptr inbounds %"class.xalanc_1_10::XalanVector", %"class.xalanc_1_10::XalanVector"* %1, i32 0, i32 1, !dbg !3829
  %2 = load i64, i64* %m_size2, align 8, !dbg !3829
  %cmp = icmp ugt i64 %2, 0, !dbg !3830
  br i1 %cmp, label %if.then, label %if.else, !dbg !3831

if.then:                                          ; preds = %entry
  call void @llvm.dbg.declare(metadata %"class.xalanc_1_10::XalanVector"* %theTemp, metadata !3832, metadata !DIExpression()), !dbg !3834
  %3 = load %"class.xercesc_2_7::MemoryManager"*, %"class.xercesc_2_7::MemoryManager"** %theManager.addr, align 8, !dbg !3835
  %4 = load %"class.xalanc_1_10::XalanVector"*, %"class.xalanc_1_10::XalanVector"** %theSource.addr, align 8, !dbg !3836
  %m_size3 = getelementptr inbounds %"class.xalanc_1_10::XalanVector", %"class.xalanc_1_10::XalanVector"* %4, i32 0, i32 1, !dbg !3837
  %5 = load i64, i64* %m_size3, align 8, !dbg !3837
  %6 = load i64, i64* %theInitialAllocation.addr, align 8, !dbg !3838
  %call = call i64 @_ZN11xalanc_1_1011XalanVectorItNS_31MemoryManagedConstructionTraitsItEEE9local_maxEmm(%"class.xalanc_1_10::XalanVector"* %this1, i64 %5, i64 %6), !dbg !3839
  call void @_ZN11xalanc_1_1011XalanVectorItNS_31MemoryManagedConstructionTraitsItEEEC2ERN11xercesc_2_713MemoryManagerEm(%"class.xalanc_1_10::XalanVector"* %theTemp, %"class.xercesc_2_7::MemoryManager"* dereferenceable(8) %3, i64 %call), !dbg !3834
  %call4 = invoke i16* @_ZN11xalanc_1_1011XalanVectorItNS_31MemoryManagedConstructionTraitsItEEE5beginEv(%"class.xalanc_1_10::XalanVector"* %theTemp)
          to label %invoke.cont unwind label %lpad, !dbg !3840

invoke.cont:                                      ; preds = %if.then
  %7 = load %"class.xalanc_1_10::XalanVector"*, %"class.xalanc_1_10::XalanVector"** %theSource.addr, align 8, !dbg !3841
  %call6 = invoke i16* @_ZNK11xalanc_1_1011XalanVectorItNS_31MemoryManagedConstructionTraitsItEEE5beginEv(%"class.xalanc_1_10::XalanVector"* %7)
          to label %invoke.cont5 unwind label %lpad, !dbg !3842

invoke.cont5:                                     ; preds = %invoke.cont
  %8 = load %"class.xalanc_1_10::XalanVector"*, %"class.xalanc_1_10::XalanVector"** %theSource.addr, align 8, !dbg !3843
  %call8 = invoke i16* @_ZNK11xalanc_1_1011XalanVectorItNS_31MemoryManagedConstructionTraitsItEEE3endEv(%"class.xalanc_1_10::XalanVector"* %8)
          to label %invoke.cont7 unwind label %lpad, !dbg !3844

invoke.cont7:                                     ; preds = %invoke.cont5
  invoke void @_ZN11xalanc_1_1011XalanVectorItNS_31MemoryManagedConstructionTraitsItEEE6insertEPtPKtS6_(%"class.xalanc_1_10::XalanVector"* %theTemp, i16* %call4, i16* %call6, i16* %call8)
          to label %invoke.cont9 unwind label %lpad, !dbg !3845

invoke.cont9:                                     ; preds = %invoke.cont7
  invoke void @_ZN11xalanc_1_1011XalanVectorItNS_31MemoryManagedConstructionTraitsItEEE4swapERS3_(%"class.xalanc_1_10::XalanVector"* %this1, %"class.xalanc_1_10::XalanVector"* dereferenceable(32) %theTemp)
          to label %invoke.cont10 unwind label %lpad, !dbg !3846

invoke.cont10:                                    ; preds = %invoke.cont9
  call void @_ZN11xalanc_1_1011XalanVectorItNS_31MemoryManagedConstructionTraitsItEEED2Ev(%"class.xalanc_1_10::XalanVector"* %theTemp) #3, !dbg !3847
  br label %if.end16, !dbg !3848

lpad:                                             ; preds = %invoke.cont9, %invoke.cont7, %invoke.cont5, %invoke.cont, %if.then
  %9 = landingpad { i8*, i32 }
          cleanup, !dbg !3849
  %10 = extractvalue { i8*, i32 } %9, 0, !dbg !3849
  store i8* %10, i8** %exn.slot, align 8, !dbg !3849
  %11 = extractvalue { i8*, i32 } %9, 1, !dbg !3849
  store i32 %11, i32* %ehselector.slot, align 4, !dbg !3849
  call void @_ZN11xalanc_1_1011XalanVectorItNS_31MemoryManagedConstructionTraitsItEEED2Ev(%"class.xalanc_1_10::XalanVector"* %theTemp) #3, !dbg !3847
  br label %eh.resume, !dbg !3847

if.else:                                          ; preds = %entry
  %12 = load i64, i64* %theInitialAllocation.addr, align 8, !dbg !3850
  %cmp11 = icmp ugt i64 %12, 0, !dbg !3852
  br i1 %cmp11, label %if.then12, label %if.end, !dbg !3853

if.then12:                                        ; preds = %if.else
  %13 = load i64, i64* %theInitialAllocation.addr, align 8, !dbg !3854
  %call13 = call i16* @_ZN11xalanc_1_1011XalanVectorItNS_31MemoryManagedConstructionTraitsItEEE8allocateEm(%"class.xalanc_1_10::XalanVector"* %this1, i64 %13), !dbg !3856
  %m_data14 = getelementptr inbounds %"class.xalanc_1_10::XalanVector", %"class.xalanc_1_10::XalanVector"* %this1, i32 0, i32 3, !dbg !3857
  store i16* %call13, i16** %m_data14, align 8, !dbg !3858
  %14 = load i64, i64* %theInitialAllocation.addr, align 8, !dbg !3859
  %m_allocation15 = getelementptr inbounds %"class.xalanc_1_10::XalanVector", %"class.xalanc_1_10::XalanVector"* %this1, i32 0, i32 2, !dbg !3860
  store i64 %14, i64* %m_allocation15, align 8, !dbg !3861
  br label %if.end, !dbg !3862

if.end:                                           ; preds = %if.then12, %if.else
  br label %if.end16

if.end16:                                         ; preds = %if.end, %invoke.cont10
  call void @_ZNK11xalanc_1_1011XalanVectorItNS_31MemoryManagedConstructionTraitsItEEE10invariantsEv(%"class.xalanc_1_10::XalanVector"* %this1), !dbg !3863
  ret void, !dbg !3864

eh.resume:                                        ; preds = %lpad
  %exn = load i8*, i8** %exn.slot, align 8, !dbg !3847
  %sel = load i32, i32* %ehselector.slot, align 4, !dbg !3847
  %lpad.val = insertvalue { i8*, i32 } undef, i8* %exn, 0, !dbg !3847
  %lpad.val17 = insertvalue { i8*, i32 } %lpad.val, i32 %sel, 1, !dbg !3847
  resume { i8*, i32 } %lpad.val17, !dbg !3847
}

; Function Attrs: noinline nounwind uwtable
define linkonce_odr dso_local void @_ZN11xalanc_1_1011XalanVectorItNS_31MemoryManagedConstructionTraitsItEEE4swapERS3_(%"class.xalanc_1_10::XalanVector"* %this, %"class.xalanc_1_10::XalanVector"* dereferenceable(32) %theOther) #5 comdat align 2 !dbg !3865 {
entry:
  %this.addr = alloca %"class.xalanc_1_10::XalanVector"*, align 8
  %theOther.addr = alloca %"class.xalanc_1_10::XalanVector"*, align 8
  %theTempManager = alloca %"class.xercesc_2_7::MemoryManager"*, align 8
  %theTempLength = alloca i64, align 8
  %theTempAllocation = alloca i64, align 8
  %theTempData = alloca i16*, align 8
  store %"class.xalanc_1_10::XalanVector"* %this, %"class.xalanc_1_10::XalanVector"** %this.addr, align 8
  call void @llvm.dbg.declare(metadata %"class.xalanc_1_10::XalanVector"** %this.addr, metadata !3866, metadata !DIExpression()), !dbg !3867
  store %"class.xalanc_1_10::XalanVector"* %theOther, %"class.xalanc_1_10::XalanVector"** %theOther.addr, align 8
  call void @llvm.dbg.declare(metadata %"class.xalanc_1_10::XalanVector"** %theOther.addr, metadata !3868, metadata !DIExpression()), !dbg !3869
  %this1 = load %"class.xalanc_1_10::XalanVector"*, %"class.xalanc_1_10::XalanVector"** %this.addr, align 8
  call void @_ZNK11xalanc_1_1011XalanVectorItNS_31MemoryManagedConstructionTraitsItEEE10invariantsEv(%"class.xalanc_1_10::XalanVector"* %this1), !dbg !3870
  call void @llvm.dbg.declare(metadata %"class.xercesc_2_7::MemoryManager"** %theTempManager, metadata !3871, metadata !DIExpression()), !dbg !3872
  %m_memoryManager = getelementptr inbounds %"class.xalanc_1_10::XalanVector", %"class.xalanc_1_10::XalanVector"* %this1, i32 0, i32 0, !dbg !3873
  %0 = load %"class.xercesc_2_7::MemoryManager"*, %"class.xercesc_2_7::MemoryManager"** %m_memoryManager, align 8, !dbg !3873
  store %"class.xercesc_2_7::MemoryManager"* %0, %"class.xercesc_2_7::MemoryManager"** %theTempManager, align 8, !dbg !3872
  call void @llvm.dbg.declare(metadata i64* %theTempLength, metadata !3874, metadata !DIExpression()), !dbg !3876
  %m_size = getelementptr inbounds %"class.xalanc_1_10::XalanVector", %"class.xalanc_1_10::XalanVector"* %this1, i32 0, i32 1, !dbg !3877
  %1 = load i64, i64* %m_size, align 8, !dbg !3877
  store i64 %1, i64* %theTempLength, align 8, !dbg !3876
  call void @llvm.dbg.declare(metadata i64* %theTempAllocation, metadata !3878, metadata !DIExpression()), !dbg !3879
  %m_allocation = getelementptr inbounds %"class.xalanc_1_10::XalanVector", %"class.xalanc_1_10::XalanVector"* %this1, i32 0, i32 2, !dbg !3880
  %2 = load i64, i64* %m_allocation, align 8, !dbg !3880
  store i64 %2, i64* %theTempAllocation, align 8, !dbg !3879
  call void @llvm.dbg.declare(metadata i16** %theTempData, metadata !3881, metadata !DIExpression()), !dbg !3883
  %m_data = getelementptr inbounds %"class.xalanc_1_10::XalanVector", %"class.xalanc_1_10::XalanVector"* %this1, i32 0, i32 3, !dbg !3884
  %3 = load i16*, i16** %m_data, align 8, !dbg !3884
  store i16* %3, i16** %theTempData, align 8, !dbg !3883
  %4 = load %"class.xalanc_1_10::XalanVector"*, %"class.xalanc_1_10::XalanVector"** %theOther.addr, align 8, !dbg !3885
  %m_memoryManager2 = getelementptr inbounds %"class.xalanc_1_10::XalanVector", %"class.xalanc_1_10::XalanVector"* %4, i32 0, i32 0, !dbg !3886
  %5 = load %"class.xercesc_2_7::MemoryManager"*, %"class.xercesc_2_7::MemoryManager"** %m_memoryManager2, align 8, !dbg !3886
  %m_memoryManager3 = getelementptr inbounds %"class.xalanc_1_10::XalanVector", %"class.xalanc_1_10::XalanVector"* %this1, i32 0, i32 0, !dbg !3887
  store %"class.xercesc_2_7::MemoryManager"* %5, %"class.xercesc_2_7::MemoryManager"** %m_memoryManager3, align 8, !dbg !3888
  %6 = load %"class.xalanc_1_10::XalanVector"*, %"class.xalanc_1_10::XalanVector"** %theOther.addr, align 8, !dbg !3889
  %m_size4 = getelementptr inbounds %"class.xalanc_1_10::XalanVector", %"class.xalanc_1_10::XalanVector"* %6, i32 0, i32 1, !dbg !3890
  %7 = load i64, i64* %m_size4, align 8, !dbg !3890
  %m_size5 = getelementptr inbounds %"class.xalanc_1_10::XalanVector", %"class.xalanc_1_10::XalanVector"* %this1, i32 0, i32 1, !dbg !3891
  store i64 %7, i64* %m_size5, align 8, !dbg !3892
  %8 = load %"class.xalanc_1_10::XalanVector"*, %"class.xalanc_1_10::XalanVector"** %theOther.addr, align 8, !dbg !3893
  %m_allocation6 = getelementptr inbounds %"class.xalanc_1_10::XalanVector", %"class.xalanc_1_10::XalanVector"* %8, i32 0, i32 2, !dbg !3894
  %9 = load i64, i64* %m_allocation6, align 8, !dbg !3894
  %m_allocation7 = getelementptr inbounds %"class.xalanc_1_10::XalanVector", %"class.xalanc_1_10::XalanVector"* %this1, i32 0, i32 2, !dbg !3895
  store i64 %9, i64* %m_allocation7, align 8, !dbg !3896
  %10 = load %"class.xalanc_1_10::XalanVector"*, %"class.xalanc_1_10::XalanVector"** %theOther.addr, align 8, !dbg !3897
  %m_data8 = getelementptr inbounds %"class.xalanc_1_10::XalanVector", %"class.xalanc_1_10::XalanVector"* %10, i32 0, i32 3, !dbg !3898
  %11 = load i16*, i16** %m_data8, align 8, !dbg !3898
  %m_data9 = getelementptr inbounds %"class.xalanc_1_10::XalanVector", %"class.xalanc_1_10::XalanVector"* %this1, i32 0, i32 3, !dbg !3899
  store i16* %11, i16** %m_data9, align 8, !dbg !3900
  %12 = load %"class.xercesc_2_7::MemoryManager"*, %"class.xercesc_2_7::MemoryManager"** %theTempManager, align 8, !dbg !3901
  %13 = load %"class.xalanc_1_10::XalanVector"*, %"class.xalanc_1_10::XalanVector"** %theOther.addr, align 8, !dbg !3902
  %m_memoryManager10 = getelementptr inbounds %"class.xalanc_1_10::XalanVector", %"class.xalanc_1_10::XalanVector"* %13, i32 0, i32 0, !dbg !3903
  store %"class.xercesc_2_7::MemoryManager"* %12, %"class.xercesc_2_7::MemoryManager"** %m_memoryManager10, align 8, !dbg !3904
  %14 = load i64, i64* %theTempLength, align 8, !dbg !3905
  %15 = load %"class.xalanc_1_10::XalanVector"*, %"class.xalanc_1_10::XalanVector"** %theOther.addr, align 8, !dbg !3906
  %m_size11 = getelementptr inbounds %"class.xalanc_1_10::XalanVector", %"class.xalanc_1_10::XalanVector"* %15, i32 0, i32 1, !dbg !3907
  store i64 %14, i64* %m_size11, align 8, !dbg !3908
  %16 = load i64, i64* %theTempAllocation, align 8, !dbg !3909
  %17 = load %"class.xalanc_1_10::XalanVector"*, %"class.xalanc_1_10::XalanVector"** %theOther.addr, align 8, !dbg !3910
  %m_allocation12 = getelementptr inbounds %"class.xalanc_1_10::XalanVector", %"class.xalanc_1_10::XalanVector"* %17, i32 0, i32 2, !dbg !3911
  store i64 %16, i64* %m_allocation12, align 8, !dbg !3912
  %18 = load i16*, i16** %theTempData, align 8, !dbg !3913
  %19 = load %"class.xalanc_1_10::XalanVector"*, %"class.xalanc_1_10::XalanVector"** %theOther.addr, align 8, !dbg !3914
  %m_data13 = getelementptr inbounds %"class.xalanc_1_10::XalanVector", %"class.xalanc_1_10::XalanVector"* %19, i32 0, i32 3, !dbg !3915
  store i16* %18, i16** %m_data13, align 8, !dbg !3916
  call void @_ZNK11xalanc_1_1011XalanVectorItNS_31MemoryManagedConstructionTraitsItEEE10invariantsEv(%"class.xalanc_1_10::XalanVector"* %this1), !dbg !3917
  ret void, !dbg !3918
}

; Function Attrs: noinline uwtable
define linkonce_odr dso_local i16* @_ZNK11xalanc_1_1011XalanVectorItNS_31MemoryManagedConstructionTraitsItEEE3endEv(%"class.xalanc_1_10::XalanVector"* %this) #0 comdat align 2 !dbg !3919 {
entry:
  %this.addr = alloca %"class.xalanc_1_10::XalanVector"*, align 8
  store %"class.xalanc_1_10::XalanVector"* %this, %"class.xalanc_1_10::XalanVector"** %this.addr, align 8
  call void @llvm.dbg.declare(metadata %"class.xalanc_1_10::XalanVector"** %this.addr, metadata !3920, metadata !DIExpression()), !dbg !3921
  %this1 = load %"class.xalanc_1_10::XalanVector"*, %"class.xalanc_1_10::XalanVector"** %this.addr, align 8
  call void @_ZNK11xalanc_1_1011XalanVectorItNS_31MemoryManagedConstructionTraitsItEEE10invariantsEv(%"class.xalanc_1_10::XalanVector"* %this1), !dbg !3922
  %call = call i16* @_ZNK11xalanc_1_1011XalanVectorItNS_31MemoryManagedConstructionTraitsItEEE10endPointerEv(%"class.xalanc_1_10::XalanVector"* %this1), !dbg !3923
  ret i16* %call, !dbg !3924
}

; Function Attrs: noinline uwtable
define linkonce_odr dso_local void @_ZN11xalanc_1_1011XalanVectorItNS_31MemoryManagedConstructionTraitsItEEE12shrinkToSizeEm(%"class.xalanc_1_10::XalanVector"* %this, i64 %theSize) #0 comdat align 2 !dbg !3925 {
entry:
  %this.addr = alloca %"class.xalanc_1_10::XalanVector"*, align 8
  %theSize.addr = alloca i64, align 8
  store %"class.xalanc_1_10::XalanVector"* %this, %"class.xalanc_1_10::XalanVector"** %this.addr, align 8
  call void @llvm.dbg.declare(metadata %"class.xalanc_1_10::XalanVector"** %this.addr, metadata !3926, metadata !DIExpression()), !dbg !3927
  store i64 %theSize, i64* %theSize.addr, align 8
  call void @llvm.dbg.declare(metadata i64* %theSize.addr, metadata !3928, metadata !DIExpression()), !dbg !3929
  %this1 = load %"class.xalanc_1_10::XalanVector"*, %"class.xalanc_1_10::XalanVector"** %this.addr, align 8
  br label %do.body, !dbg !3930

do.body:                                          ; preds = %do.cond, %entry
  call void @_ZN11xalanc_1_1011XalanVectorItNS_31MemoryManagedConstructionTraitsItEEE8pop_backEv(%"class.xalanc_1_10::XalanVector"* %this1), !dbg !3931
  br label %do.cond, !dbg !3933

do.cond:                                          ; preds = %do.body
  %m_size = getelementptr inbounds %"class.xalanc_1_10::XalanVector", %"class.xalanc_1_10::XalanVector"* %this1, i32 0, i32 1, !dbg !3934
  %0 = load i64, i64* %m_size, align 8, !dbg !3934
  %1 = load i64, i64* %theSize.addr, align 8, !dbg !3935
  %cmp = icmp ugt i64 %0, %1, !dbg !3936
  br i1 %cmp, label %do.body, label %do.end, !dbg !3933, !llvm.loop !3937

do.end:                                           ; preds = %do.cond
  ret void, !dbg !3939
}

; Function Attrs: noinline nounwind uwtable
define linkonce_odr dso_local i16* @_ZNK11xalanc_1_1011XalanVectorItNS_31MemoryManagedConstructionTraitsItEEE5beginEv(%"class.xalanc_1_10::XalanVector"* %this) #5 comdat align 2 !dbg !3940 {
entry:
  %this.addr = alloca %"class.xalanc_1_10::XalanVector"*, align 8
  store %"class.xalanc_1_10::XalanVector"* %this, %"class.xalanc_1_10::XalanVector"** %this.addr, align 8
  call void @llvm.dbg.declare(metadata %"class.xalanc_1_10::XalanVector"** %this.addr, metadata !3941, metadata !DIExpression()), !dbg !3942
  %this1 = load %"class.xalanc_1_10::XalanVector"*, %"class.xalanc_1_10::XalanVector"** %this.addr, align 8
  call void @_ZNK11xalanc_1_1011XalanVectorItNS_31MemoryManagedConstructionTraitsItEEE10invariantsEv(%"class.xalanc_1_10::XalanVector"* %this1), !dbg !3943
  %m_data = getelementptr inbounds %"class.xalanc_1_10::XalanVector", %"class.xalanc_1_10::XalanVector"* %this1, i32 0, i32 3, !dbg !3944
  %0 = load i16*, i16** %m_data, align 8, !dbg !3944
  ret i16* %0, !dbg !3945
}

; Function Attrs: noinline uwtable
define linkonce_odr dso_local void @_ZN11xalanc_1_1011XalanVectorItNS_31MemoryManagedConstructionTraitsItEEE6insertEPtPKtS6_(%"class.xalanc_1_10::XalanVector"* %this, i16* %thePosition, i16* %theFirst, i16* %theLast) #0 comdat align 2 personality i8* bitcast (i32 (...)* @__gxx_personality_v0 to i8*) !dbg !3946 {
entry:
  %this.addr = alloca %"class.xalanc_1_10::XalanVector"*, align 8
  %thePosition.addr = alloca i16*, align 8
  %theFirst.addr = alloca i16*, align 8
  %theLast.addr = alloca i16*, align 8
  %theInsertSize = alloca i64, align 8
  %theTotalSize = alloca i64, align 8
  %thePointer = alloca i16*, align 8
  %theTemp = alloca %"class.xalanc_1_10::XalanVector", align 8
  %exn.slot = alloca i8*
  %ehselector.slot = alloca i32
  %theOriginalEnd = alloca i16*, align 8
  %theRightSplitSize = alloca i64, align 8
  %toInsertSplit = alloca i16*, align 8
  %toInsertIter = alloca i16*, align 8
  %toMoveIter = alloca i16*, align 8
  store %"class.xalanc_1_10::XalanVector"* %this, %"class.xalanc_1_10::XalanVector"** %this.addr, align 8
  call void @llvm.dbg.declare(metadata %"class.xalanc_1_10::XalanVector"** %this.addr, metadata !3947, metadata !DIExpression()), !dbg !3948
  store i16* %thePosition, i16** %thePosition.addr, align 8
  call void @llvm.dbg.declare(metadata i16** %thePosition.addr, metadata !3949, metadata !DIExpression()), !dbg !3950
  store i16* %theFirst, i16** %theFirst.addr, align 8
  call void @llvm.dbg.declare(metadata i16** %theFirst.addr, metadata !3951, metadata !DIExpression()), !dbg !3952
  store i16* %theLast, i16** %theLast.addr, align 8
  call void @llvm.dbg.declare(metadata i16** %theLast.addr, metadata !3953, metadata !DIExpression()), !dbg !3954
  %this1 = load %"class.xalanc_1_10::XalanVector"*, %"class.xalanc_1_10::XalanVector"** %this.addr, align 8
  call void @_ZNK11xalanc_1_1011XalanVectorItNS_31MemoryManagedConstructionTraitsItEEE10invariantsEv(%"class.xalanc_1_10::XalanVector"* %this1), !dbg !3955
  call void @llvm.dbg.declare(metadata i64* %theInsertSize, metadata !3956, metadata !DIExpression()), !dbg !3957
  %0 = load i16*, i16** %theFirst.addr, align 8, !dbg !3958
  %1 = load i16*, i16** %theLast.addr, align 8, !dbg !3959
  %call = call i64 @_ZN11xalanc_1_1011XalanVectorItNS_31MemoryManagedConstructionTraitsItEEE14local_distanceEPKtS5_(%"class.xalanc_1_10::XalanVector"* %this1, i16* %0, i16* %1), !dbg !3960
  store i64 %call, i64* %theInsertSize, align 8, !dbg !3957
  %2 = load i64, i64* %theInsertSize, align 8, !dbg !3961
  %cmp = icmp eq i64 %2, 0, !dbg !3963
  br i1 %cmp, label %if.then, label %if.end, !dbg !3964

if.then:                                          ; preds = %entry
  br label %return, !dbg !3965

if.end:                                           ; preds = %entry
  call void @llvm.dbg.declare(metadata i64* %theTotalSize, metadata !3967, metadata !DIExpression()), !dbg !3968
  %call2 = call i64 @_ZNK11xalanc_1_1011XalanVectorItNS_31MemoryManagedConstructionTraitsItEEE4sizeEv(%"class.xalanc_1_10::XalanVector"* %this1), !dbg !3969
  %3 = load i64, i64* %theInsertSize, align 8, !dbg !3970
  %add = add i64 %call2, %3, !dbg !3971
  store i64 %add, i64* %theTotalSize, align 8, !dbg !3968
  %4 = load i16*, i16** %thePosition.addr, align 8, !dbg !3972
  %call3 = call i16* @_ZN11xalanc_1_1011XalanVectorItNS_31MemoryManagedConstructionTraitsItEEE3endEv(%"class.xalanc_1_10::XalanVector"* %this1), !dbg !3974
  %cmp4 = icmp eq i16* %4, %call3, !dbg !3975
  br i1 %cmp4, label %if.then5, label %if.else, !dbg !3976

if.then5:                                         ; preds = %if.end
  call void @llvm.dbg.declare(metadata i16** %thePointer, metadata !3977, metadata !DIExpression()), !dbg !3979
  %5 = load i64, i64* %theTotalSize, align 8, !dbg !3980
  %call6 = call i16* @_ZN11xalanc_1_1011XalanVectorItNS_31MemoryManagedConstructionTraitsItEEE14ensureCapacityEm(%"class.xalanc_1_10::XalanVector"* %this1, i64 %5), !dbg !3981
  store i16* %call6, i16** %thePointer, align 8, !dbg !3979
  br label %while.cond, !dbg !3982

while.cond:                                       ; preds = %while.body, %if.then5
  %6 = load i16*, i16** %theFirst.addr, align 8, !dbg !3983
  %7 = load i16*, i16** %theLast.addr, align 8, !dbg !3984
  %cmp7 = icmp ne i16* %6, %7, !dbg !3985
  br i1 %cmp7, label %while.body, label %while.end, !dbg !3982

while.body:                                       ; preds = %while.cond
  %8 = load i16*, i16** %thePointer, align 8, !dbg !3986
  %9 = load i16*, i16** %theFirst.addr, align 8, !dbg !3988
  %m_memoryManager = getelementptr inbounds %"class.xalanc_1_10::XalanVector", %"class.xalanc_1_10::XalanVector"* %this1, i32 0, i32 0, !dbg !3989
  %10 = load %"class.xercesc_2_7::MemoryManager"*, %"class.xercesc_2_7::MemoryManager"** %m_memoryManager, align 8, !dbg !3989
  %call8 = call i16* @_ZN11xalanc_1_1028ConstructWithNoMemoryManagerItE9constructEPtRKtRN11xercesc_2_713MemoryManagerE(i16* %8, i16* dereferenceable(2) %9, %"class.xercesc_2_7::MemoryManager"* dereferenceable(8) %10), !dbg !3990
  %11 = load i16*, i16** %thePointer, align 8, !dbg !3991
  %incdec.ptr = getelementptr inbounds i16, i16* %11, i32 1, !dbg !3991
  store i16* %incdec.ptr, i16** %thePointer, align 8, !dbg !3991
  %m_size = getelementptr inbounds %"class.xalanc_1_10::XalanVector", %"class.xalanc_1_10::XalanVector"* %this1, i32 0, i32 1, !dbg !3992
  %12 = load i64, i64* %m_size, align 8, !dbg !3993
  %inc = add i64 %12, 1, !dbg !3993
  store i64 %inc, i64* %m_size, align 8, !dbg !3993
  %13 = load i16*, i16** %theFirst.addr, align 8, !dbg !3994
  %incdec.ptr9 = getelementptr inbounds i16, i16* %13, i32 1, !dbg !3994
  store i16* %incdec.ptr9, i16** %theFirst.addr, align 8, !dbg !3994
  br label %while.cond, !dbg !3982, !llvm.loop !3995

while.end:                                        ; preds = %while.cond
  br label %if.end57, !dbg !3997

if.else:                                          ; preds = %if.end
  %14 = load i64, i64* %theTotalSize, align 8, !dbg !3998
  %call10 = call i64 @_ZNK11xalanc_1_1011XalanVectorItNS_31MemoryManagedConstructionTraitsItEEE8capacityEv(%"class.xalanc_1_10::XalanVector"* %this1), !dbg !4001
  %cmp11 = icmp ugt i64 %14, %call10, !dbg !4002
  br i1 %cmp11, label %if.then12, label %if.else27, !dbg !4003

if.then12:                                        ; preds = %if.else
  call void @llvm.dbg.declare(metadata %"class.xalanc_1_10::XalanVector"* %theTemp, metadata !4004, metadata !DIExpression()), !dbg !4006
  %m_memoryManager13 = getelementptr inbounds %"class.xalanc_1_10::XalanVector", %"class.xalanc_1_10::XalanVector"* %this1, i32 0, i32 0, !dbg !4007
  %15 = load %"class.xercesc_2_7::MemoryManager"*, %"class.xercesc_2_7::MemoryManager"** %m_memoryManager13, align 8, !dbg !4007
  %16 = load i64, i64* %theTotalSize, align 8, !dbg !4008
  call void @_ZN11xalanc_1_1011XalanVectorItNS_31MemoryManagedConstructionTraitsItEEEC2ERN11xercesc_2_713MemoryManagerEm(%"class.xalanc_1_10::XalanVector"* %theTemp, %"class.xercesc_2_7::MemoryManager"* dereferenceable(8) %15, i64 %16), !dbg !4006
  %call14 = invoke i16* @_ZN11xalanc_1_1011XalanVectorItNS_31MemoryManagedConstructionTraitsItEEE3endEv(%"class.xalanc_1_10::XalanVector"* %theTemp)
          to label %invoke.cont unwind label %lpad, !dbg !4009

invoke.cont:                                      ; preds = %if.then12
  %call16 = invoke i16* @_ZN11xalanc_1_1011XalanVectorItNS_31MemoryManagedConstructionTraitsItEEE5beginEv(%"class.xalanc_1_10::XalanVector"* %this1)
          to label %invoke.cont15 unwind label %lpad, !dbg !4010

invoke.cont15:                                    ; preds = %invoke.cont
  %17 = load i16*, i16** %thePosition.addr, align 8, !dbg !4011
  invoke void @_ZN11xalanc_1_1011XalanVectorItNS_31MemoryManagedConstructionTraitsItEEE6insertEPtPKtS6_(%"class.xalanc_1_10::XalanVector"* %theTemp, i16* %call14, i16* %call16, i16* %17)
          to label %invoke.cont17 unwind label %lpad, !dbg !4012

invoke.cont17:                                    ; preds = %invoke.cont15
  %call19 = invoke i16* @_ZN11xalanc_1_1011XalanVectorItNS_31MemoryManagedConstructionTraitsItEEE3endEv(%"class.xalanc_1_10::XalanVector"* %theTemp)
          to label %invoke.cont18 unwind label %lpad, !dbg !4013

invoke.cont18:                                    ; preds = %invoke.cont17
  %18 = load i16*, i16** %theFirst.addr, align 8, !dbg !4014
  %19 = load i16*, i16** %theLast.addr, align 8, !dbg !4015
  invoke void @_ZN11xalanc_1_1011XalanVectorItNS_31MemoryManagedConstructionTraitsItEEE6insertEPtPKtS6_(%"class.xalanc_1_10::XalanVector"* %theTemp, i16* %call19, i16* %18, i16* %19)
          to label %invoke.cont20 unwind label %lpad, !dbg !4016

invoke.cont20:                                    ; preds = %invoke.cont18
  %call22 = invoke i16* @_ZN11xalanc_1_1011XalanVectorItNS_31MemoryManagedConstructionTraitsItEEE3endEv(%"class.xalanc_1_10::XalanVector"* %theTemp)
          to label %invoke.cont21 unwind label %lpad, !dbg !4017

invoke.cont21:                                    ; preds = %invoke.cont20
  %20 = load i16*, i16** %thePosition.addr, align 8, !dbg !4018
  %call24 = invoke i16* @_ZN11xalanc_1_1011XalanVectorItNS_31MemoryManagedConstructionTraitsItEEE3endEv(%"class.xalanc_1_10::XalanVector"* %this1)
          to label %invoke.cont23 unwind label %lpad, !dbg !4019

invoke.cont23:                                    ; preds = %invoke.cont21
  invoke void @_ZN11xalanc_1_1011XalanVectorItNS_31MemoryManagedConstructionTraitsItEEE6insertEPtPKtS6_(%"class.xalanc_1_10::XalanVector"* %theTemp, i16* %call22, i16* %20, i16* %call24)
          to label %invoke.cont25 unwind label %lpad, !dbg !4020

invoke.cont25:                                    ; preds = %invoke.cont23
  invoke void @_ZN11xalanc_1_1011XalanVectorItNS_31MemoryManagedConstructionTraitsItEEE4swapERS3_(%"class.xalanc_1_10::XalanVector"* %this1, %"class.xalanc_1_10::XalanVector"* dereferenceable(32) %theTemp)
          to label %invoke.cont26 unwind label %lpad, !dbg !4021

invoke.cont26:                                    ; preds = %invoke.cont25
  call void @_ZN11xalanc_1_1011XalanVectorItNS_31MemoryManagedConstructionTraitsItEEED2Ev(%"class.xalanc_1_10::XalanVector"* %theTemp) #3, !dbg !4022
  br label %if.end56, !dbg !4023

lpad:                                             ; preds = %invoke.cont25, %invoke.cont23, %invoke.cont21, %invoke.cont20, %invoke.cont18, %invoke.cont17, %invoke.cont15, %invoke.cont, %if.then12
  %21 = landingpad { i8*, i32 }
          cleanup, !dbg !4024
  %22 = extractvalue { i8*, i32 } %21, 0, !dbg !4024
  store i8* %22, i8** %exn.slot, align 8, !dbg !4024
  %23 = extractvalue { i8*, i32 } %21, 1, !dbg !4024
  store i32 %23, i32* %ehselector.slot, align 4, !dbg !4024
  call void @_ZN11xalanc_1_1011XalanVectorItNS_31MemoryManagedConstructionTraitsItEEED2Ev(%"class.xalanc_1_10::XalanVector"* %theTemp) #3, !dbg !4022
  br label %eh.resume, !dbg !4022

if.else27:                                        ; preds = %if.else
  call void @llvm.dbg.declare(metadata i16** %theOriginalEnd, metadata !4025, metadata !DIExpression()), !dbg !4028
  %call28 = call i16* @_ZN11xalanc_1_1011XalanVectorItNS_31MemoryManagedConstructionTraitsItEEE3endEv(%"class.xalanc_1_10::XalanVector"* %this1), !dbg !4029
  store i16* %call28, i16** %theOriginalEnd, align 8, !dbg !4028
  call void @llvm.dbg.declare(metadata i64* %theRightSplitSize, metadata !4030, metadata !DIExpression()), !dbg !4031
  %24 = load i16*, i16** %thePosition.addr, align 8, !dbg !4032
  %25 = load i16*, i16** %theOriginalEnd, align 8, !dbg !4033
  %call29 = call i64 @_ZN11xalanc_1_1011XalanVectorItNS_31MemoryManagedConstructionTraitsItEEE14local_distanceEPKtS5_(%"class.xalanc_1_10::XalanVector"* %this1, i16* %24, i16* %25), !dbg !4034
  store i64 %call29, i64* %theRightSplitSize, align 8, !dbg !4031
  %26 = load i64, i64* %theRightSplitSize, align 8, !dbg !4035
  %27 = load i64, i64* %theInsertSize, align 8, !dbg !4037
  %cmp30 = icmp ule i64 %26, %27, !dbg !4038
