; ModuleID = 'FormatterToXercesDOM.cpp'
source_filename = "FormatterToXercesDOM.cpp"
target datalayout = "e-m:e-p270:32:32-p271:32:32-p272:64:64-i64:64-f80:128-n8:16:32:64-S128"
target triple = "x86_64-unknown-linux-gnu"

%"class.xalanc_1_10::XalanDOMString" = type <{ %"class.xalanc_1_10::XalanVector", i32, [4 x i8] }>
%"class.xalanc_1_10::XalanVector" = type { %"class.xercesc_2_7::MemoryManager"*, i64, i64, i16* }
%"class.xercesc_2_7::MemoryManager" = type { i32 (...)** }
%"class.xalanc_1_10::FormatterToXercesDOM" = type { %"class.xalanc_1_10::FormatterListener", %"class.xercesc_2_7::DOMDocument"*, %"class.xercesc_2_7::DOMDocumentFragment"*, %"class.xercesc_2_7::DOMElement"*, %"class.xalanc_1_10::XalanVector.0", %"class.xalanc_1_10::XalanDOMString", %"class.xalanc_1_10::XalanDOMString" }
%"class.xalanc_1_10::FormatterListener" = type { %"class.xercesc_2_7::DocumentHandler", %"class.xalanc_1_10::PrefixResolver"*, i32, i32 }
%"class.xercesc_2_7::DocumentHandler" = type { i32 (...)** }
%"class.xalanc_1_10::PrefixResolver" = type { i32 (...)** }
%"class.xalanc_1_10::XalanVector.0" = type { %"class.xercesc_2_7::MemoryManager"*, i64, i64, %"class.xercesc_2_7::DOMElement"** }
%"class.xercesc_2_7::DOMDocument" = type { %"class.xercesc_2_7::DOMDocumentRange", %"class.xercesc_2_7::DOMXPathEvaluator", %"class.xercesc_2_7::DOMDocumentTraversal", %"class.xercesc_2_7::DOMNode" }
%"class.xercesc_2_7::DOMDocumentRange" = type { i32 (...)** }
%"class.xercesc_2_7::DOMXPathEvaluator" = type { i32 (...)** }
%"class.xercesc_2_7::DOMDocumentTraversal" = type { i32 (...)** }
%"class.xercesc_2_7::DOMNode" = type { i32 (...)** }
%"class.xercesc_2_7::DOMDocumentFragment" = type { %"class.xercesc_2_7::DOMNode" }
%"class.xercesc_2_7::DOMElement" = type { %"class.xercesc_2_7::DOMNode" }
%"class.xercesc_2_7::XMLDeleter" = type { i32 (...)** }
%"class.xercesc_2_7::Locator" = type opaque
%"class.xercesc_2_7::DOMException" = type <{ i32 (...)**, i32, [4 x i8], i16*, %"class.xercesc_2_7::MemoryManager"*, i8, [7 x i8] }>
%"class.xalanc_1_10::XercesDOMException" = type { %"class.xalanc_1_10::XalanDOMException.base", [4 x i8] }
%"class.xalanc_1_10::XalanDOMException.base" = type <{ i32 (...)**, i32 }>
%"class.xercesc_2_7::DOMText" = type { %"class.xercesc_2_7::DOMCharacterData" }
%"class.xercesc_2_7::DOMCharacterData" = type { %"class.xercesc_2_7::DOMNode" }
%"class.xercesc_2_7::AttributeList" = type { i32 (...)** }
%"class.xercesc_2_7::DOMEntityReference" = type { %"class.xercesc_2_7::DOMNode" }
%"class.xercesc_2_7::DOMProcessingInstruction" = type { %"class.xercesc_2_7::DOMNode" }
%"class.xercesc_2_7::DOMComment" = type { %"class.xercesc_2_7::DOMCharacterData" }
%"class.xercesc_2_7::DOMCDATASection" = type { %"class.xercesc_2_7::DOMText" }
%"class.xalanc_1_10::Writer" = type opaque
%"struct.std::random_access_iterator_tag" = type { i8 }

$_ZN11xercesc_2_710XMLDeleterD0Ev = comdat any

$_ZN11xercesc_2_710XMLDeleterD2Ev = comdat any

$_ZN11xalanc_1_1014XalanDOMStringD2Ev = comdat any

$_ZN11xalanc_1_1011XalanVectorIPN11xercesc_2_710DOMElementENS_31MemoryManagedConstructionTraitsIS3_EEEC2ERNS1_13MemoryManagerEm = comdat any

$_ZN11xalanc_1_1011XalanVectorIPN11xercesc_2_710DOMElementENS_31MemoryManagedConstructionTraitsIS3_EEED2Ev = comdat any

$__clang_call_terminate = comdat any

$_ZN11xalanc_1_1011XalanVectorIPN11xercesc_2_710DOMElementENS_31MemoryManagedConstructionTraitsIS3_EEE9push_backERKS3_ = comdat any

$_ZNK11xalanc_1_1011XalanVectorIPN11xercesc_2_710DOMElementENS_31MemoryManagedConstructionTraitsIS3_EEE5emptyEv = comdat any

$_ZN11xalanc_1_1011XalanVectorIPN11xercesc_2_710DOMElementENS_31MemoryManagedConstructionTraitsIS3_EEE4backEv = comdat any

$_ZN11xalanc_1_1011XalanVectorIPN11xercesc_2_710DOMElementENS_31MemoryManagedConstructionTraitsIS3_EEE8pop_backEv = comdat any

$_ZN11xalanc_1_106assignERNS_14XalanDOMStringEPKtj = comdat any

$_ZNK11xalanc_1_1014XalanDOMString5c_strEv = comdat any

$_ZN11xalanc_1_106lengthERKNS_14XalanDOMStringE = comdat any

$_ZN11xalanc_1_107isEmptyERKNS_14XalanDOMStringE = comdat any

$_ZN11xalanc_1_105clearERNS_14XalanDOMStringE = comdat any

$_ZN11xalanc_1_1011XalanVectorItNS_31MemoryManagedConstructionTraitsItEEED2Ev = comdat any

$_ZNK11xalanc_1_1011XalanVectorItNS_31MemoryManagedConstructionTraitsItEEE10invariantsEv = comdat any

$_ZN11xalanc_1_1011XalanVectorItNS_31MemoryManagedConstructionTraitsItEEE7destroyEPtS4_ = comdat any

$_ZN11xalanc_1_1011XalanVectorItNS_31MemoryManagedConstructionTraitsItEEE5beginEv = comdat any

$_ZN11xalanc_1_1011XalanVectorItNS_31MemoryManagedConstructionTraitsItEEE3endEv = comdat any

$_ZN11xalanc_1_1011XalanVectorItNS_31MemoryManagedConstructionTraitsItEEE10deallocateEPt = comdat any

$_ZN11xalanc_1_1011XalanVectorItNS_31MemoryManagedConstructionTraitsItEEE7destroyERt = comdat any

$_ZN11xalanc_1_1011XalanVectorItNS_31MemoryManagedConstructionTraitsItEEE10endPointerEv = comdat any

$_ZN11xalanc_1_1014XalanDOMString6assignEPKt = comdat any

$_ZN11xalanc_1_1014XalanDOMString6assignEPKtj = comdat any

$_ZNK11xalanc_1_1014XalanDOMString10invariantsEv = comdat any

$_ZN11xalanc_1_1014XalanDOMString6appendEPKt = comdat any

$_ZNK11xalanc_1_1011XalanVectorItNS_31MemoryManagedConstructionTraitsItEEE5emptyEv = comdat any

$_ZNK11xalanc_1_1011XalanVectorItNS_31MemoryManagedConstructionTraitsItEEEixEm = comdat any

$_ZNK11xalanc_1_1014XalanDOMString6lengthEv = comdat any

$_ZNK11xalanc_1_1014XalanDOMString4sizeEv = comdat any

$_ZNK11xalanc_1_1014XalanDOMString5emptyEv = comdat any

$_ZN11xalanc_1_1014XalanDOMString5clearEv = comdat any

$_ZN11xalanc_1_1011XalanVectorItNS_31MemoryManagedConstructionTraitsItEEE5eraseEPtS4_ = comdat any

$_ZSt4copyIPtS0_ET0_T_S2_S1_ = comdat any

$_ZN11xalanc_1_1011XalanVectorItNS_31MemoryManagedConstructionTraitsItEEE11shrinkCountEm = comdat any

$_ZN11xalanc_1_1011XalanVectorItNS_31MemoryManagedConstructionTraitsItEEE14local_distanceEPKtS5_ = comdat any

$_ZSt13__copy_move_aILb0EPtS0_ET1_T0_S2_S1_ = comdat any

$_ZSt12__miter_baseIPtET_S1_ = comdat any

$_ZSt12__niter_wrapIPtET_RKS1_S1_ = comdat any

$_ZSt14__copy_move_a1ILb0EPtS0_ET1_T0_S2_S1_ = comdat any

$_ZSt12__niter_baseIPtET_S1_ = comdat any

$_ZSt14__copy_move_a2ILb0EPtS0_ET1_T0_S2_S1_ = comdat any

$_ZNSt11__copy_moveILb0ELb1ESt26random_access_iterator_tagE8__copy_mItEEPT_PKS3_S6_S4_ = comdat any

$_ZN11xalanc_1_1011XalanVectorItNS_31MemoryManagedConstructionTraitsItEEE8pop_backEv = comdat any

$_ZSt8distanceIPKtENSt15iterator_traitsIT_E15difference_typeES3_S3_ = comdat any

$_ZSt10__distanceIPKtENSt15iterator_traitsIT_E15difference_typeES3_S3_St26random_access_iterator_tag = comdat any

$_ZSt19__iterator_categoryIPKtENSt15iterator_traitsIT_E17iterator_categoryERKS3_ = comdat any

$_ZN11xalanc_1_1011XalanVectorIPN11xercesc_2_710DOMElementENS_31MemoryManagedConstructionTraitsIS3_EEE8allocateEm = comdat any

$_ZNK11xalanc_1_1011XalanVectorIPN11xercesc_2_710DOMElementENS_31MemoryManagedConstructionTraitsIS3_EEE10invariantsEv = comdat any

$_ZN11xalanc_1_1011XalanVectorIPN11xercesc_2_710DOMElementENS_31MemoryManagedConstructionTraitsIS3_EEE7destroyEPS3_S7_ = comdat any

$_ZN11xalanc_1_1011XalanVectorIPN11xercesc_2_710DOMElementENS_31MemoryManagedConstructionTraitsIS3_EEE5beginEv = comdat any

$_ZN11xalanc_1_1011XalanVectorIPN11xercesc_2_710DOMElementENS_31MemoryManagedConstructionTraitsIS3_EEE3endEv = comdat any

$_ZN11xalanc_1_1011XalanVectorIPN11xercesc_2_710DOMElementENS_31MemoryManagedConstructionTraitsIS3_EEE10deallocateEPS3_ = comdat any

$_ZN11xalanc_1_1011XalanVectorIPN11xercesc_2_710DOMElementENS_31MemoryManagedConstructionTraitsIS3_EEE7destroyERS3_ = comdat any

$_ZN11xalanc_1_1011XalanVectorIPN11xercesc_2_710DOMElementENS_31MemoryManagedConstructionTraitsIS3_EEE10endPointerEv = comdat any

$_ZN11xalanc_1_1011XalanVectorIPN11xercesc_2_710DOMElementENS_31MemoryManagedConstructionTraitsIS3_EEE10doPushBackERKS3_ = comdat any

$_ZN11xalanc_1_1028ConstructWithNoMemoryManagerIPN11xercesc_2_710DOMElementEE9constructEPS3_RKS3_RNS1_13MemoryManagerE = comdat any

$_ZN11xalanc_1_1011XalanVectorIPN11xercesc_2_710DOMElementENS_31MemoryManagedConstructionTraitsIS3_EEEC2ERKS6_RNS1_13MemoryManagerEm = comdat any

$_ZN11xalanc_1_1011XalanVectorIPN11xercesc_2_710DOMElementENS_31MemoryManagedConstructionTraitsIS3_EEE4swapERS6_ = comdat any

$_ZN11xalanc_1_1011XalanVectorIPN11xercesc_2_710DOMElementENS_31MemoryManagedConstructionTraitsIS3_EEE9local_maxEmm = comdat any

$_ZN11xalanc_1_1011XalanVectorIPN11xercesc_2_710DOMElementENS_31MemoryManagedConstructionTraitsIS3_EEE6insertEPS3_PKS3_S9_ = comdat any

$_ZNK11xalanc_1_1011XalanVectorIPN11xercesc_2_710DOMElementENS_31MemoryManagedConstructionTraitsIS3_EEE5beginEv = comdat any

$_ZNK11xalanc_1_1011XalanVectorIPN11xercesc_2_710DOMElementENS_31MemoryManagedConstructionTraitsIS3_EEE3endEv = comdat any

$_ZN11xalanc_1_1011XalanVectorIPN11xercesc_2_710DOMElementENS_31MemoryManagedConstructionTraitsIS3_EEE14local_distanceEPKS3_S8_ = comdat any

$_ZNK11xalanc_1_1011XalanVectorIPN11xercesc_2_710DOMElementENS_31MemoryManagedConstructionTraitsIS3_EEE4sizeEv = comdat any

$_ZN11xalanc_1_1011XalanVectorIPN11xercesc_2_710DOMElementENS_31MemoryManagedConstructionTraitsIS3_EEE14ensureCapacityEm = comdat any

$_ZNK11xalanc_1_1011XalanVectorIPN11xercesc_2_710DOMElementENS_31MemoryManagedConstructionTraitsIS3_EEE8capacityEv = comdat any

$_ZSt4copyIPKPN11xercesc_2_710DOMElementEPS2_ET0_T_S7_S6_ = comdat any

$_ZSt13copy_backwardIPPN11xercesc_2_710DOMElementES3_ET0_T_S5_S4_ = comdat any

$_ZSt8distanceIPKPN11xercesc_2_710DOMElementEENSt15iterator_traitsIT_E15difference_typeES6_S6_ = comdat any

$_ZSt10__distanceIPKPN11xercesc_2_710DOMElementEENSt15iterator_traitsIT_E15difference_typeES6_S6_St26random_access_iterator_tag = comdat any

$_ZSt19__iterator_categoryIPKPN11xercesc_2_710DOMElementEENSt15iterator_traitsIT_E17iterator_categoryERKS6_ = comdat any

$_ZN11xalanc_1_1011XalanVectorIPN11xercesc_2_710DOMElementENS_31MemoryManagedConstructionTraitsIS3_EEE9doReserveEm = comdat any

$_ZSt13__copy_move_aILb0EPKPN11xercesc_2_710DOMElementEPS2_ET1_T0_S7_S6_ = comdat any

$_ZSt12__miter_baseIPKPN11xercesc_2_710DOMElementEET_S5_ = comdat any

$_ZSt12__niter_wrapIPPN11xercesc_2_710DOMElementEET_RKS4_S4_ = comdat any

$_ZSt14__copy_move_a1ILb0EPKPN11xercesc_2_710DOMElementEPS2_ET1_T0_S7_S6_ = comdat any

$_ZSt12__niter_baseIPKPN11xercesc_2_710DOMElementEET_S5_ = comdat any

$_ZSt12__niter_baseIPPN11xercesc_2_710DOMElementEET_S4_ = comdat any

$_ZSt14__copy_move_a2ILb0EPKPN11xercesc_2_710DOMElementEPS2_ET1_T0_S7_S6_ = comdat any

$_ZNSt11__copy_moveILb0ELb1ESt26random_access_iterator_tagE8__copy_mIPN11xercesc_2_710DOMElementEEEPT_PKS6_S9_S7_ = comdat any

$_ZSt22__copy_move_backward_aILb0EPPN11xercesc_2_710DOMElementES3_ET1_T0_S5_S4_ = comdat any

$_ZSt12__miter_baseIPPN11xercesc_2_710DOMElementEET_S4_ = comdat any

$_ZSt23__copy_move_backward_a1ILb0EPPN11xercesc_2_710DOMElementES3_ET1_T0_S5_S4_ = comdat any

$_ZSt23__copy_move_backward_a2ILb0EPPN11xercesc_2_710DOMElementES3_ET1_T0_S5_S4_ = comdat any

$_ZNSt20__copy_move_backwardILb0ELb1ESt26random_access_iterator_tagE13__copy_move_bIPN11xercesc_2_710DOMElementEEEPT_PKS6_S9_S7_ = comdat any

$_ZNK11xalanc_1_1011XalanVectorIPN11xercesc_2_710DOMElementENS_31MemoryManagedConstructionTraitsIS3_EEE10endPointerEv = comdat any

$_ZTVN11xercesc_2_710XMLDeleterE = comdat any

$_ZTSN11xercesc_2_710XMLDeleterE = comdat any

$_ZTIN11xercesc_2_710XMLDeleterE = comdat any

@_ZN11xalanc_1_1020FormatterToXercesDOM13s_emptyStringE = dso_local global %"class.xalanc_1_10::XalanDOMString" zeroinitializer, align 8, !dbg !0
@__dso_handle = external hidden global i8
@_ZTVN11xalanc_1_1020FormatterToXercesDOME = dso_local unnamed_addr constant { [23 x i8*] } { [23 x i8*] [i8* null, i8* bitcast ({ i8*, i8*, i8* }* @_ZTIN11xalanc_1_1020FormatterToXercesDOME to i8*), i8* bitcast (void (%"class.xalanc_1_10::FormatterToXercesDOM"*)* @_ZN11xalanc_1_1020FormatterToXercesDOMD1Ev to i8*), i8* bitcast (void (%"class.xalanc_1_10::FormatterToXercesDOM"*)* @_ZN11xalanc_1_1020FormatterToXercesDOMD0Ev to i8*), i8* bitcast (void (%"class.xalanc_1_10::FormatterToXercesDOM"*, i16*, i32)* @_ZN11xalanc_1_1020FormatterToXercesDOM10charactersEPKtj to i8*), i8* bitcast (void (%"class.xalanc_1_10::FormatterToXercesDOM"*)* @_ZN11xalanc_1_1020FormatterToXercesDOM11endDocumentEv to i8*), i8* bitcast (void (%"class.xalanc_1_10::FormatterToXercesDOM"*, i16*)* @_ZN11xalanc_1_1020FormatterToXercesDOM10endElementEPKt to i8*), i8* bitcast (void (%"class.xalanc_1_10::FormatterToXercesDOM"*, i16*, i32)* @_ZN11xalanc_1_1020FormatterToXercesDOM19ignorableWhitespaceEPKtj to i8*), i8* bitcast (void (%"class.xalanc_1_10::FormatterToXercesDOM"*, i16*, i16*)* @_ZN11xalanc_1_1020FormatterToXercesDOM21processingInstructionEPKtS2_ to i8*), i8* bitcast (void (%"class.xalanc_1_10::FormatterToXercesDOM"*)* @_ZN11xalanc_1_1020FormatterToXercesDOM13resetDocumentEv to i8*), i8* bitcast (void (%"class.xalanc_1_10::FormatterToXercesDOM"*, %"class.xercesc_2_7::Locator"*)* @_ZN11xalanc_1_1020FormatterToXercesDOM18setDocumentLocatorEPKN11xercesc_2_77LocatorE to i8*), i8* bitcast (void (%"class.xalanc_1_10::FormatterToXercesDOM"*)* @_ZN11xalanc_1_1020FormatterToXercesDOM13startDocumentEv to i8*), i8* bitcast (void (%"class.xalanc_1_10::FormatterToXercesDOM"*, i16*, %"class.xercesc_2_7::AttributeList"*)* @_ZN11xalanc_1_1020FormatterToXercesDOM12startElementEPKtRN11xercesc_2_713AttributeListE to i8*), i8* bitcast (void (%"class.xalanc_1_10::FormatterToXercesDOM"*, i16*, i32)* @_ZN11xalanc_1_1020FormatterToXercesDOM13charactersRawEPKtj to i8*), i8* bitcast (void (%"class.xalanc_1_10::FormatterToXercesDOM"*, i16*)* @_ZN11xalanc_1_1020FormatterToXercesDOM7commentEPKt to i8*), i8* bitcast (void (%"class.xalanc_1_10::FormatterToXercesDOM"*, i16*, i32)* @_ZN11xalanc_1_1020FormatterToXercesDOM5cdataEPKtj to i8*), i8* bitcast (void (%"class.xalanc_1_10::FormatterToXercesDOM"*, i16*)* @_ZN11xalanc_1_1020FormatterToXercesDOM15entityReferenceEPKt to i8*), i8* bitcast (%"class.xalanc_1_10::Writer"* (%"class.xalanc_1_10::FormatterListener"*)* @_ZNK11xalanc_1_1017FormatterListener9getWriterEv to i8*), i8* bitcast (%"class.xalanc_1_10::XalanDOMString"* (%"class.xalanc_1_10::FormatterListener"*)* @_ZNK11xalanc_1_1017FormatterListener16getDoctypeSystemEv to i8*), i8* bitcast (%"class.xalanc_1_10::XalanDOMString"* (%"class.xalanc_1_10::FormatterListener"*)* @_ZNK11xalanc_1_1017FormatterListener16getDoctypePublicEv to i8*), i8* bitcast (%"class.xalanc_1_10::XalanDOMString"* (%"class.xalanc_1_10::FormatterListener"*)* @_ZNK11xalanc_1_1017FormatterListener11getEncodingEv to i8*), i8* bitcast (%"class.xalanc_1_10::XalanDOMString"* (%"class.xalanc_1_10::FormatterListener"*)* @_ZNK11xalanc_1_1017FormatterListener12getMediaTypeEv to i8*), i8* bitcast (i32 (%"class.xalanc_1_10::FormatterListener"*)* @_ZNK11xalanc_1_1017FormatterListener9getIndentEv to i8*)] }, align 8
@_ZTIN11xercesc_2_712DOMExceptionE = external dso_local constant i8*
@_ZTIN11xalanc_1_1018XercesDOMExceptionE = external dso_local constant i8*
@_ZTVN11xercesc_2_710XMLDeleterE = linkonce_odr dso_local unnamed_addr constant { [4 x i8*] } { [4 x i8*] [i8* null, i8* bitcast ({ i8*, i8* }* @_ZTIN11xercesc_2_710XMLDeleterE to i8*), i8* bitcast (void (%"class.xercesc_2_7::XMLDeleter"*)* @_ZN11xercesc_2_710XMLDeleterD2Ev to i8*), i8* bitcast (void (%"class.xercesc_2_7::XMLDeleter"*)* @_ZN11xercesc_2_710XMLDeleterD0Ev to i8*)] }, comdat, align 8
@_ZTVN10__cxxabiv117__class_type_infoE = external dso_local global i8*
@_ZTSN11xercesc_2_710XMLDeleterE = linkonce_odr dso_local constant [28 x i8] c"N11xercesc_2_710XMLDeleterE\00", comdat, align 1
@_ZTIN11xercesc_2_710XMLDeleterE = linkonce_odr dso_local constant { i8*, i8* } { i8* bitcast (i8** getelementptr inbounds (i8*, i8** @_ZTVN10__cxxabiv117__class_type_infoE, i64 2) to i8*), i8* getelementptr inbounds ([28 x i8], [28 x i8]* @_ZTSN11xercesc_2_710XMLDeleterE, i32 0, i32 0) }, comdat, align 8
@_ZTVN10__cxxabiv120__si_class_type_infoE = external dso_local global i8*
@_ZTSN11xalanc_1_1020FormatterToXercesDOME = dso_local constant [38 x i8] c"N11xalanc_1_1020FormatterToXercesDOME\00", align 1
@_ZTIN11xalanc_1_1017FormatterListenerE = external dso_local constant i8*
@_ZTIN11xalanc_1_1020FormatterToXercesDOME = dso_local constant { i8*, i8*, i8* } { i8* bitcast (i8** getelementptr inbounds (i8*, i8** @_ZTVN10__cxxabiv120__si_class_type_infoE, i64 2) to i8*), i8* getelementptr inbounds ([38 x i8], [38 x i8]* @_ZTSN11xalanc_1_1020FormatterToXercesDOME, i32 0, i32 0), i8* bitcast (i8** @_ZTIN11xalanc_1_1017FormatterListenerE to i8*) }, align 8
@_ZN11xalanc_1_1014XalanDOMString7s_emptyE = external dso_local constant i16, align 2
@llvm.global_ctors = appending global [1 x { i32, void ()*, i8* }] [{ i32, void ()*, i8* } { i32 65535, void ()* @_GLOBAL__sub_I_FormatterToXercesDOM.cpp, i8* null }]

@_ZN11xalanc_1_1020FormatterToXercesDOMC1EPN11xercesc_2_711DOMDocumentEPNS1_19DOMDocumentFragmentEPNS1_10DOMElementERNS1_13MemoryManagerE = dso_local unnamed_addr alias void (%"class.xalanc_1_10::FormatterToXercesDOM"*, %"class.xercesc_2_7::DOMDocument"*, %"class.xercesc_2_7::DOMDocumentFragment"*, %"class.xercesc_2_7::DOMElement"*, %"class.xercesc_2_7::MemoryManager"*), void (%"class.xalanc_1_10::FormatterToXercesDOM"*, %"class.xercesc_2_7::DOMDocument"*, %"class.xercesc_2_7::DOMDocumentFragment"*, %"class.xercesc_2_7::DOMElement"*, %"class.xercesc_2_7::MemoryManager"*)* @_ZN11xalanc_1_1020FormatterToXercesDOMC2EPN11xercesc_2_711DOMDocumentEPNS1_19DOMDocumentFragmentEPNS1_10DOMElementERNS1_13MemoryManagerE
@_ZN11xalanc_1_1020FormatterToXercesDOMC1EPN11xercesc_2_711DOMDocumentEPNS1_10DOMElementERNS1_13MemoryManagerE = dso_local unnamed_addr alias void (%"class.xalanc_1_10::FormatterToXercesDOM"*, %"class.xercesc_2_7::DOMDocument"*, %"class.xercesc_2_7::DOMElement"*, %"class.xercesc_2_7::MemoryManager"*), void (%"class.xalanc_1_10::FormatterToXercesDOM"*, %"class.xercesc_2_7::DOMDocument"*, %"class.xercesc_2_7::DOMElement"*, %"class.xercesc_2_7::MemoryManager"*)* @_ZN11xalanc_1_1020FormatterToXercesDOMC2EPN11xercesc_2_711DOMDocumentEPNS1_10DOMElementERNS1_13MemoryManagerE
@_ZN11xalanc_1_1020FormatterToXercesDOMD1Ev = dso_local unnamed_addr alias void (%"class.xalanc_1_10::FormatterToXercesDOM"*), void (%"class.xalanc_1_10::FormatterToXercesDOM"*)* @_ZN11xalanc_1_1020FormatterToXercesDOMD2Ev

; Function Attrs: nounwind readnone speculatable willreturn
declare void @llvm.dbg.declare(metadata, metadata, metadata) #0

; Function Attrs: noinline nounwind uwtable
define linkonce_odr dso_local void @_ZN11xercesc_2_710XMLDeleterD0Ev(%"class.xercesc_2_7::XMLDeleter"* %this) unnamed_addr #1 comdat align 2 !dbg !1961 {
entry:
  %this.addr = alloca %"class.xercesc_2_7::XMLDeleter"*, align 8
  store %"class.xercesc_2_7::XMLDeleter"* %this, %"class.xercesc_2_7::XMLDeleter"** %this.addr, align 8
  call void @llvm.dbg.declare(metadata %"class.xercesc_2_7::XMLDeleter"** %this.addr, metadata !1982, metadata !DIExpression()), !dbg !1984
  %this1 = load %"class.xercesc_2_7::XMLDeleter"*, %"class.xercesc_2_7::XMLDeleter"** %this.addr, align 8
  call void @_ZN11xercesc_2_710XMLDeleterD2Ev(%"class.xercesc_2_7::XMLDeleter"* %this1) #5, !dbg !1985
  %0 = bitcast %"class.xercesc_2_7::XMLDeleter"* %this1 to i8*, !dbg !1985
  call void @_ZdlPv(i8* %0) #10, !dbg !1985
  ret void, !dbg !1986
}

; Function Attrs: noinline nounwind uwtable
define linkonce_odr dso_local void @_ZN11xercesc_2_710XMLDeleterD2Ev(%"class.xercesc_2_7::XMLDeleter"* %this) unnamed_addr #1 comdat align 2 !dbg !1987 {
entry:
  %this.addr = alloca %"class.xercesc_2_7::XMLDeleter"*, align 8
  store %"class.xercesc_2_7::XMLDeleter"* %this, %"class.xercesc_2_7::XMLDeleter"** %this.addr, align 8
  call void @llvm.dbg.declare(metadata %"class.xercesc_2_7::XMLDeleter"** %this.addr, metadata !1988, metadata !DIExpression()), !dbg !1989
  %this1 = load %"class.xercesc_2_7::XMLDeleter"*, %"class.xercesc_2_7::XMLDeleter"** %this.addr, align 8
  ret void, !dbg !1990
}

; Function Attrs: nobuiltin nounwind
declare dso_local void @_ZdlPv(i8*) #2

; Function Attrs: noinline uwtable
define internal void @__cxx_global_var_init() #3 section ".text.startup" !dbg !1991 {
entry:
  %call = call dereferenceable(8) %"class.xercesc_2_7::MemoryManager"* @_ZN11xalanc_1_1012XalanMemMgrs14getDummyMemMgrEv(), !dbg !1992
  call void @_ZN11xalanc_1_1014XalanDOMStringC1ERN11xercesc_2_713MemoryManagerE(%"class.xalanc_1_10::XalanDOMString"* @_ZN11xalanc_1_1020FormatterToXercesDOM13s_emptyStringE, %"class.xercesc_2_7::MemoryManager"* dereferenceable(8) %call), !dbg !1993
  %0 = call i32 @__cxa_atexit(void (i8*)* bitcast (void (%"class.xalanc_1_10::XalanDOMString"*)* @_ZN11xalanc_1_1014XalanDOMStringD2Ev to void (i8*)*), i8* bitcast (%"class.xalanc_1_10::XalanDOMString"* @_ZN11xalanc_1_1020FormatterToXercesDOM13s_emptyStringE to i8*), i8* @__dso_handle) #5, !dbg !1993
  ret void, !dbg !1992
}

declare dso_local dereferenceable(8) %"class.xercesc_2_7::MemoryManager"* @_ZN11xalanc_1_1012XalanMemMgrs14getDummyMemMgrEv() #4

declare dso_local void @_ZN11xalanc_1_1014XalanDOMStringC1ERN11xercesc_2_713MemoryManagerE(%"class.xalanc_1_10::XalanDOMString"*, %"class.xercesc_2_7::MemoryManager"* dereferenceable(8)) unnamed_addr #4

; Function Attrs: noinline nounwind uwtable
define linkonce_odr dso_local void @_ZN11xalanc_1_1014XalanDOMStringD2Ev(%"class.xalanc_1_10::XalanDOMString"* %this) unnamed_addr #1 comdat align 2 !dbg !1994 {
entry:
  %this.addr = alloca %"class.xalanc_1_10::XalanDOMString"*, align 8
  store %"class.xalanc_1_10::XalanDOMString"* %this, %"class.xalanc_1_10::XalanDOMString"** %this.addr, align 8
  call void @llvm.dbg.declare(metadata %"class.xalanc_1_10::XalanDOMString"** %this.addr, metadata !1995, metadata !DIExpression()), !dbg !1996
  %this1 = load %"class.xalanc_1_10::XalanDOMString"*, %"class.xalanc_1_10::XalanDOMString"** %this.addr, align 8
  %m_data = getelementptr inbounds %"class.xalanc_1_10::XalanDOMString", %"class.xalanc_1_10::XalanDOMString"* %this1, i32 0, i32 0, !dbg !1997
  call void @_ZN11xalanc_1_1011XalanVectorItNS_31MemoryManagedConstructionTraitsItEEED2Ev(%"class.xalanc_1_10::XalanVector"* %m_data) #5, !dbg !1997
  ret void, !dbg !1999
}

; Function Attrs: nounwind
declare dso_local i32 @__cxa_atexit(void (i8*)*, i8*, i8*) #5

; Function Attrs: noinline uwtable
define dso_local void @_ZN11xalanc_1_1020FormatterToXercesDOMC2EPN11xercesc_2_711DOMDocumentEPNS1_19DOMDocumentFragmentEPNS1_10DOMElementERNS1_13MemoryManagerE(%"class.xalanc_1_10::FormatterToXercesDOM"* %this, %"class.xercesc_2_7::DOMDocument"* %doc, %"class.xercesc_2_7::DOMDocumentFragment"* %docFrag, %"class.xercesc_2_7::DOMElement"* %currentElement, %"class.xercesc_2_7::MemoryManager"* dereferenceable(8) %theManager) unnamed_addr #3 align 2 personality i8* bitcast (i32 (...)* @__gxx_personality_v0 to i8*) !dbg !2000 {
entry:
  %this.addr = alloca %"class.xalanc_1_10::FormatterToXercesDOM"*, align 8
  %doc.addr = alloca %"class.xercesc_2_7::DOMDocument"*, align 8
  %docFrag.addr = alloca %"class.xercesc_2_7::DOMDocumentFragment"*, align 8
  %currentElement.addr = alloca %"class.xercesc_2_7::DOMElement"*, align 8
  %theManager.addr = alloca %"class.xercesc_2_7::MemoryManager"*, align 8
  %exn.slot = alloca i8*
  %ehselector.slot = alloca i32
  store %"class.xalanc_1_10::FormatterToXercesDOM"* %this, %"class.xalanc_1_10::FormatterToXercesDOM"** %this.addr, align 8
  call void @llvm.dbg.declare(metadata %"class.xalanc_1_10::FormatterToXercesDOM"** %this.addr, metadata !2001, metadata !DIExpression()), !dbg !2003
  store %"class.xercesc_2_7::DOMDocument"* %doc, %"class.xercesc_2_7::DOMDocument"** %doc.addr, align 8
  call void @llvm.dbg.declare(metadata %"class.xercesc_2_7::DOMDocument"** %doc.addr, metadata !2004, metadata !DIExpression()), !dbg !2005
  store %"class.xercesc_2_7::DOMDocumentFragment"* %docFrag, %"class.xercesc_2_7::DOMDocumentFragment"** %docFrag.addr, align 8
  call void @llvm.dbg.declare(metadata %"class.xercesc_2_7::DOMDocumentFragment"** %docFrag.addr, metadata !2006, metadata !DIExpression()), !dbg !2007
  store %"class.xercesc_2_7::DOMElement"* %currentElement, %"class.xercesc_2_7::DOMElement"** %currentElement.addr, align 8
  call void @llvm.dbg.declare(metadata %"class.xercesc_2_7::DOMElement"** %currentElement.addr, metadata !2008, metadata !DIExpression()), !dbg !2009
  store %"class.xercesc_2_7::MemoryManager"* %theManager, %"class.xercesc_2_7::MemoryManager"** %theManager.addr, align 8
  call void @llvm.dbg.declare(metadata %"class.xercesc_2_7::MemoryManager"** %theManager.addr, metadata !2010, metadata !DIExpression()), !dbg !2011
  %this1 = load %"class.xalanc_1_10::FormatterToXercesDOM"*, %"class.xalanc_1_10::FormatterToXercesDOM"** %this.addr, align 8
  %0 = bitcast %"class.xalanc_1_10::FormatterToXercesDOM"* %this1 to %"class.xalanc_1_10::FormatterListener"*, !dbg !2012
  call void @_ZN11xalanc_1_1017FormatterListenerC2ENS0_7eFormatE(%"class.xalanc_1_10::FormatterListener"* %0, i32 4), !dbg !2013
  %1 = bitcast %"class.xalanc_1_10::FormatterToXercesDOM"* %this1 to i32 (...)***, !dbg !2012
  store i32 (...)** bitcast (i8** getelementptr inbounds ({ [23 x i8*] }, { [23 x i8*] }* @_ZTVN11xalanc_1_1020FormatterToXercesDOME, i32 0, inrange i32 0, i32 2) to i32 (...)**), i32 (...)*** %1, align 8, !dbg !2012
  %m_doc = getelementptr inbounds %"class.xalanc_1_10::FormatterToXercesDOM", %"class.xalanc_1_10::FormatterToXercesDOM"* %this1, i32 0, i32 1, !dbg !2014
  %2 = load %"class.xercesc_2_7::DOMDocument"*, %"class.xercesc_2_7::DOMDocument"** %doc.addr, align 8, !dbg !2015
  store %"class.xercesc_2_7::DOMDocument"* %2, %"class.xercesc_2_7::DOMDocument"** %m_doc, align 8, !dbg !2014
  %m_docFrag = getelementptr inbounds %"class.xalanc_1_10::FormatterToXercesDOM", %"class.xalanc_1_10::FormatterToXercesDOM"* %this1, i32 0, i32 2, !dbg !2016
  %3 = load %"class.xercesc_2_7::DOMDocumentFragment"*, %"class.xercesc_2_7::DOMDocumentFragment"** %docFrag.addr, align 8, !dbg !2017
  store %"class.xercesc_2_7::DOMDocumentFragment"* %3, %"class.xercesc_2_7::DOMDocumentFragment"** %m_docFrag, align 8, !dbg !2016
  %m_currentElem = getelementptr inbounds %"class.xalanc_1_10::FormatterToXercesDOM", %"class.xalanc_1_10::FormatterToXercesDOM"* %this1, i32 0, i32 3, !dbg !2018
  %4 = load %"class.xercesc_2_7::DOMElement"*, %"class.xercesc_2_7::DOMElement"** %currentElement.addr, align 8, !dbg !2019
  store %"class.xercesc_2_7::DOMElement"* %4, %"class.xercesc_2_7::DOMElement"** %m_currentElem, align 8, !dbg !2018
  %m_elemStack = getelementptr inbounds %"class.xalanc_1_10::FormatterToXercesDOM", %"class.xalanc_1_10::FormatterToXercesDOM"* %this1, i32 0, i32 4, !dbg !2020
  %5 = load %"class.xercesc_2_7::MemoryManager"*, %"class.xercesc_2_7::MemoryManager"** %theManager.addr, align 8, !dbg !2021
  invoke void @_ZN11xalanc_1_1011XalanVectorIPN11xercesc_2_710DOMElementENS_31MemoryManagedConstructionTraitsIS3_EEEC2ERNS1_13MemoryManagerEm(%"class.xalanc_1_10::XalanVector.0"* %m_elemStack, %"class.xercesc_2_7::MemoryManager"* dereferenceable(8) %5, i64 0)
          to label %invoke.cont unwind label %lpad, !dbg !2020

invoke.cont:                                      ; preds = %entry
  %m_buffer = getelementptr inbounds %"class.xalanc_1_10::FormatterToXercesDOM", %"class.xalanc_1_10::FormatterToXercesDOM"* %this1, i32 0, i32 5, !dbg !2022
  %6 = load %"class.xercesc_2_7::MemoryManager"*, %"class.xercesc_2_7::MemoryManager"** %theManager.addr, align 8, !dbg !2023
  invoke void @_ZN11xalanc_1_1014XalanDOMStringC1ERN11xercesc_2_713MemoryManagerE(%"class.xalanc_1_10::XalanDOMString"* %m_buffer, %"class.xercesc_2_7::MemoryManager"* dereferenceable(8) %6)
          to label %invoke.cont3 unwind label %lpad2, !dbg !2022

invoke.cont3:                                     ; preds = %invoke.cont
  %m_textBuffer = getelementptr inbounds %"class.xalanc_1_10::FormatterToXercesDOM", %"class.xalanc_1_10::FormatterToXercesDOM"* %this1, i32 0, i32 6, !dbg !2024
  %7 = load %"class.xercesc_2_7::MemoryManager"*, %"class.xercesc_2_7::MemoryManager"** %theManager.addr, align 8, !dbg !2025
  invoke void @_ZN11xalanc_1_1014XalanDOMStringC1ERN11xercesc_2_713MemoryManagerE(%"class.xalanc_1_10::XalanDOMString"* %m_textBuffer, %"class.xercesc_2_7::MemoryManager"* dereferenceable(8) %7)
          to label %invoke.cont5 unwind label %lpad4, !dbg !2024

invoke.cont5:                                     ; preds = %invoke.cont3
  ret void, !dbg !2026

lpad:                                             ; preds = %entry
  %8 = landingpad { i8*, i32 }
          cleanup, !dbg !2026
  %9 = extractvalue { i8*, i32 } %8, 0, !dbg !2026
  store i8* %9, i8** %exn.slot, align 8, !dbg !2026
  %10 = extractvalue { i8*, i32 } %8, 1, !dbg !2026
  store i32 %10, i32* %ehselector.slot, align 4, !dbg !2026
  br label %ehcleanup6, !dbg !2026

lpad2:                                            ; preds = %invoke.cont
  %11 = landingpad { i8*, i32 }
          cleanup, !dbg !2026
  %12 = extractvalue { i8*, i32 } %11, 0, !dbg !2026
  store i8* %12, i8** %exn.slot, align 8, !dbg !2026
  %13 = extractvalue { i8*, i32 } %11, 1, !dbg !2026
  store i32 %13, i32* %ehselector.slot, align 4, !dbg !2026
  br label %ehcleanup, !dbg !2026

lpad4:                                            ; preds = %invoke.cont3
  %14 = landingpad { i8*, i32 }
          cleanup, !dbg !2026
  %15 = extractvalue { i8*, i32 } %14, 0, !dbg !2026
  store i8* %15, i8** %exn.slot, align 8, !dbg !2026
  %16 = extractvalue { i8*, i32 } %14, 1, !dbg !2026
  store i32 %16, i32* %ehselector.slot, align 4, !dbg !2026
  call void @_ZN11xalanc_1_1014XalanDOMStringD2Ev(%"class.xalanc_1_10::XalanDOMString"* %m_buffer) #5, !dbg !2027
  br label %ehcleanup, !dbg !2027

ehcleanup:                                        ; preds = %lpad4, %lpad2
  call void @_ZN11xalanc_1_1011XalanVectorIPN11xercesc_2_710DOMElementENS_31MemoryManagedConstructionTraitsIS3_EEED2Ev(%"class.xalanc_1_10::XalanVector.0"* %m_elemStack) #5, !dbg !2027
  br label %ehcleanup6, !dbg !2027

ehcleanup6:                                       ; preds = %ehcleanup, %lpad
  %17 = bitcast %"class.xalanc_1_10::FormatterToXercesDOM"* %this1 to %"class.xalanc_1_10::FormatterListener"*, !dbg !2027
  call void @_ZN11xalanc_1_1017FormatterListenerD2Ev(%"class.xalanc_1_10::FormatterListener"* %17) #5, !dbg !2027
  br label %eh.resume, !dbg !2027

eh.resume:                                        ; preds = %ehcleanup6
  %exn = load i8*, i8** %exn.slot, align 8, !dbg !2027
  %sel = load i32, i32* %ehselector.slot, align 4, !dbg !2027
  %lpad.val = insertvalue { i8*, i32 } undef, i8* %exn, 0, !dbg !2027
  %lpad.val7 = insertvalue { i8*, i32 } %lpad.val, i32 %sel, 1, !dbg !2027
  resume { i8*, i32 } %lpad.val7, !dbg !2027
}

declare dso_local void @_ZN11xalanc_1_1017FormatterListenerC2ENS0_7eFormatE(%"class.xalanc_1_10::FormatterListener"*, i32) unnamed_addr #4

; Function Attrs: noinline uwtable
define linkonce_odr dso_local void @_ZN11xalanc_1_1011XalanVectorIPN11xercesc_2_710DOMElementENS_31MemoryManagedConstructionTraitsIS3_EEEC2ERNS1_13MemoryManagerEm(%"class.xalanc_1_10::XalanVector.0"* %this, %"class.xercesc_2_7::MemoryManager"* dereferenceable(8) %theManager, i64 %initialAllocation) unnamed_addr #3 comdat align 2 !dbg !2029 {
entry:
  %this.addr = alloca %"class.xalanc_1_10::XalanVector.0"*, align 8
  %theManager.addr = alloca %"class.xercesc_2_7::MemoryManager"*, align 8
  %initialAllocation.addr = alloca i64, align 8
  store %"class.xalanc_1_10::XalanVector.0"* %this, %"class.xalanc_1_10::XalanVector.0"** %this.addr, align 8
  call void @llvm.dbg.declare(metadata %"class.xalanc_1_10::XalanVector.0"** %this.addr, metadata !2030, metadata !DIExpression()), !dbg !2031
  store %"class.xercesc_2_7::MemoryManager"* %theManager, %"class.xercesc_2_7::MemoryManager"** %theManager.addr, align 8
  call void @llvm.dbg.declare(metadata %"class.xercesc_2_7::MemoryManager"** %theManager.addr, metadata !2032, metadata !DIExpression()), !dbg !2033
  store i64 %initialAllocation, i64* %initialAllocation.addr, align 8
  call void @llvm.dbg.declare(metadata i64* %initialAllocation.addr, metadata !2034, metadata !DIExpression()), !dbg !2035
  %this1 = load %"class.xalanc_1_10::XalanVector.0"*, %"class.xalanc_1_10::XalanVector.0"** %this.addr, align 8
  %m_memoryManager = getelementptr inbounds %"class.xalanc_1_10::XalanVector.0", %"class.xalanc_1_10::XalanVector.0"* %this1, i32 0, i32 0, !dbg !2036
  %0 = load %"class.xercesc_2_7::MemoryManager"*, %"class.xercesc_2_7::MemoryManager"** %theManager.addr, align 8, !dbg !2037
  store %"class.xercesc_2_7::MemoryManager"* %0, %"class.xercesc_2_7::MemoryManager"** %m_memoryManager, align 8, !dbg !2036
  %m_size = getelementptr inbounds %"class.xalanc_1_10::XalanVector.0", %"class.xalanc_1_10::XalanVector.0"* %this1, i32 0, i32 1, !dbg !2038
  store i64 0, i64* %m_size, align 8, !dbg !2038
  %m_allocation = getelementptr inbounds %"class.xalanc_1_10::XalanVector.0", %"class.xalanc_1_10::XalanVector.0"* %this1, i32 0, i32 2, !dbg !2039
  %1 = load i64, i64* %initialAllocation.addr, align 8, !dbg !2040
  store i64 %1, i64* %m_allocation, align 8, !dbg !2039
  %m_data = getelementptr inbounds %"class.xalanc_1_10::XalanVector.0", %"class.xalanc_1_10::XalanVector.0"* %this1, i32 0, i32 3, !dbg !2041
  %2 = load i64, i64* %initialAllocation.addr, align 8, !dbg !2042
  %cmp = icmp ugt i64 %2, 0, !dbg !2043
  br i1 %cmp, label %cond.true, label %cond.false, !dbg !2042

cond.true:                                        ; preds = %entry
  %3 = load i64, i64* %initialAllocation.addr, align 8, !dbg !2044
  %call = call %"class.xercesc_2_7::DOMElement"** @_ZN11xalanc_1_1011XalanVectorIPN11xercesc_2_710DOMElementENS_31MemoryManagedConstructionTraitsIS3_EEE8allocateEm(%"class.xalanc_1_10::XalanVector.0"* %this1, i64 %3), !dbg !2045
  br label %cond.end, !dbg !2042

cond.false:                                       ; preds = %entry
  br label %cond.end, !dbg !2042

cond.end:                                         ; preds = %cond.false, %cond.true
  %cond = phi %"class.xercesc_2_7::DOMElement"** [ %call, %cond.true ], [ null, %cond.false ], !dbg !2042
  store %"class.xercesc_2_7::DOMElement"** %cond, %"class.xercesc_2_7::DOMElement"*** %m_data, align 8, !dbg !2041
  call void @_ZNK11xalanc_1_1011XalanVectorIPN11xercesc_2_710DOMElementENS_31MemoryManagedConstructionTraitsIS3_EEE10invariantsEv(%"class.xalanc_1_10::XalanVector.0"* %this1), !dbg !2046
  ret void, !dbg !2048
}

declare dso_local i32 @__gxx_personality_v0(...)

; Function Attrs: noinline nounwind uwtable
define linkonce_odr dso_local void @_ZN11xalanc_1_1011XalanVectorIPN11xercesc_2_710DOMElementENS_31MemoryManagedConstructionTraitsIS3_EEED2Ev(%"class.xalanc_1_10::XalanVector.0"* %this) unnamed_addr #1 comdat align 2 personality i8* bitcast (i32 (...)* @__gxx_personality_v0 to i8*) !dbg !2049 {
entry:
  %this.addr = alloca %"class.xalanc_1_10::XalanVector.0"*, align 8
  store %"class.xalanc_1_10::XalanVector.0"* %this, %"class.xalanc_1_10::XalanVector.0"** %this.addr, align 8
  call void @llvm.dbg.declare(metadata %"class.xalanc_1_10::XalanVector.0"** %this.addr, metadata !2050, metadata !DIExpression()), !dbg !2051
  %this1 = load %"class.xalanc_1_10::XalanVector.0"*, %"class.xalanc_1_10::XalanVector.0"** %this.addr, align 8
  invoke void @_ZNK11xalanc_1_1011XalanVectorIPN11xercesc_2_710DOMElementENS_31MemoryManagedConstructionTraitsIS3_EEE10invariantsEv(%"class.xalanc_1_10::XalanVector.0"* %this1)
          to label %invoke.cont unwind label %terminate.lpad, !dbg !2052

invoke.cont:                                      ; preds = %entry
  %m_allocation = getelementptr inbounds %"class.xalanc_1_10::XalanVector.0", %"class.xalanc_1_10::XalanVector.0"* %this1, i32 0, i32 2, !dbg !2054
  %0 = load i64, i64* %m_allocation, align 8, !dbg !2054
  %cmp = icmp ne i64 %0, 0, !dbg !2056
  br i1 %cmp, label %if.then, label %if.end, !dbg !2057

if.then:                                          ; preds = %invoke.cont
  %call = invoke %"class.xercesc_2_7::DOMElement"** @_ZN11xalanc_1_1011XalanVectorIPN11xercesc_2_710DOMElementENS_31MemoryManagedConstructionTraitsIS3_EEE5beginEv(%"class.xalanc_1_10::XalanVector.0"* %this1)
          to label %invoke.cont2 unwind label %terminate.lpad, !dbg !2058

invoke.cont2:                                     ; preds = %if.then
  %call4 = invoke %"class.xercesc_2_7::DOMElement"** @_ZN11xalanc_1_1011XalanVectorIPN11xercesc_2_710DOMElementENS_31MemoryManagedConstructionTraitsIS3_EEE3endEv(%"class.xalanc_1_10::XalanVector.0"* %this1)
          to label %invoke.cont3 unwind label %terminate.lpad, !dbg !2060

invoke.cont3:                                     ; preds = %invoke.cont2
  invoke void @_ZN11xalanc_1_1011XalanVectorIPN11xercesc_2_710DOMElementENS_31MemoryManagedConstructionTraitsIS3_EEE7destroyEPS3_S7_(%"class.xercesc_2_7::DOMElement"** %call, %"class.xercesc_2_7::DOMElement"** %call4)
          to label %invoke.cont5 unwind label %terminate.lpad, !dbg !2061

invoke.cont5:                                     ; preds = %invoke.cont3
  %m_data = getelementptr inbounds %"class.xalanc_1_10::XalanVector.0", %"class.xalanc_1_10::XalanVector.0"* %this1, i32 0, i32 3, !dbg !2062
  %1 = load %"class.xercesc_2_7::DOMElement"**, %"class.xercesc_2_7::DOMElement"*** %m_data, align 8, !dbg !2062
  invoke void @_ZN11xalanc_1_1011XalanVectorIPN11xercesc_2_710DOMElementENS_31MemoryManagedConstructionTraitsIS3_EEE10deallocateEPS3_(%"class.xalanc_1_10::XalanVector.0"* %this1, %"class.xercesc_2_7::DOMElement"** %1)
          to label %invoke.cont6 unwind label %terminate.lpad, !dbg !2063

invoke.cont6:                                     ; preds = %invoke.cont5
  br label %if.end, !dbg !2064

if.end:                                           ; preds = %invoke.cont6, %invoke.cont
  ret void, !dbg !2065

terminate.lpad:                                   ; preds = %invoke.cont5, %invoke.cont3, %invoke.cont2, %if.then, %entry
  %2 = landingpad { i8*, i32 }
          catch i8* null, !dbg !2052
  %3 = extractvalue { i8*, i32 } %2, 0, !dbg !2052
  call void @__clang_call_terminate(i8* %3) #11, !dbg !2052
  unreachable, !dbg !2052
}

; Function Attrs: nounwind
declare dso_local void @_ZN11xalanc_1_1017FormatterListenerD2Ev(%"class.xalanc_1_10::FormatterListener"*) unnamed_addr #6

; Function Attrs: noinline uwtable
define dso_local void @_ZN11xalanc_1_1020FormatterToXercesDOMC2EPN11xercesc_2_711DOMDocumentEPNS1_10DOMElementERNS1_13MemoryManagerE(%"class.xalanc_1_10::FormatterToXercesDOM"* %this, %"class.xercesc_2_7::DOMDocument"* %doc, %"class.xercesc_2_7::DOMElement"* %elem, %"class.xercesc_2_7::MemoryManager"* dereferenceable(8) %theManager) unnamed_addr #3 align 2 personality i8* bitcast (i32 (...)* @__gxx_personality_v0 to i8*) !dbg !2066 {
entry:
  %this.addr = alloca %"class.xalanc_1_10::FormatterToXercesDOM"*, align 8
  %doc.addr = alloca %"class.xercesc_2_7::DOMDocument"*, align 8
  %elem.addr = alloca %"class.xercesc_2_7::DOMElement"*, align 8
  %theManager.addr = alloca %"class.xercesc_2_7::MemoryManager"*, align 8
  %exn.slot = alloca i8*
  %ehselector.slot = alloca i32
  store %"class.xalanc_1_10::FormatterToXercesDOM"* %this, %"class.xalanc_1_10::FormatterToXercesDOM"** %this.addr, align 8
  call void @llvm.dbg.declare(metadata %"class.xalanc_1_10::FormatterToXercesDOM"** %this.addr, metadata !2067, metadata !DIExpression()), !dbg !2068
  store %"class.xercesc_2_7::DOMDocument"* %doc, %"class.xercesc_2_7::DOMDocument"** %doc.addr, align 8
  call void @llvm.dbg.declare(metadata %"class.xercesc_2_7::DOMDocument"** %doc.addr, metadata !2069, metadata !DIExpression()), !dbg !2070
  store %"class.xercesc_2_7::DOMElement"* %elem, %"class.xercesc_2_7::DOMElement"** %elem.addr, align 8
  call void @llvm.dbg.declare(metadata %"class.xercesc_2_7::DOMElement"** %elem.addr, metadata !2071, metadata !DIExpression()), !dbg !2072
  store %"class.xercesc_2_7::MemoryManager"* %theManager, %"class.xercesc_2_7::MemoryManager"** %theManager.addr, align 8
  call void @llvm.dbg.declare(metadata %"class.xercesc_2_7::MemoryManager"** %theManager.addr, metadata !2073, metadata !DIExpression()), !dbg !2074
  %this1 = load %"class.xalanc_1_10::FormatterToXercesDOM"*, %"class.xalanc_1_10::FormatterToXercesDOM"** %this.addr, align 8
  %0 = bitcast %"class.xalanc_1_10::FormatterToXercesDOM"* %this1 to %"class.xalanc_1_10::FormatterListener"*, !dbg !2075
  call void @_ZN11xalanc_1_1017FormatterListenerC2ENS0_7eFormatE(%"class.xalanc_1_10::FormatterListener"* %0, i32 4), !dbg !2076
  %1 = bitcast %"class.xalanc_1_10::FormatterToXercesDOM"* %this1 to i32 (...)***, !dbg !2075
  store i32 (...)** bitcast (i8** getelementptr inbounds ({ [23 x i8*] }, { [23 x i8*] }* @_ZTVN11xalanc_1_1020FormatterToXercesDOME, i32 0, inrange i32 0, i32 2) to i32 (...)**), i32 (...)*** %1, align 8, !dbg !2075
  %m_doc = getelementptr inbounds %"class.xalanc_1_10::FormatterToXercesDOM", %"class.xalanc_1_10::FormatterToXercesDOM"* %this1, i32 0, i32 1, !dbg !2077
  %2 = load %"class.xercesc_2_7::DOMDocument"*, %"class.xercesc_2_7::DOMDocument"** %doc.addr, align 8, !dbg !2078
  store %"class.xercesc_2_7::DOMDocument"* %2, %"class.xercesc_2_7::DOMDocument"** %m_doc, align 8, !dbg !2077
  %m_docFrag = getelementptr inbounds %"class.xalanc_1_10::FormatterToXercesDOM", %"class.xalanc_1_10::FormatterToXercesDOM"* %this1, i32 0, i32 2, !dbg !2079
  store %"class.xercesc_2_7::DOMDocumentFragment"* null, %"class.xercesc_2_7::DOMDocumentFragment"** %m_docFrag, align 8, !dbg !2079
  %m_currentElem = getelementptr inbounds %"class.xalanc_1_10::FormatterToXercesDOM", %"class.xalanc_1_10::FormatterToXercesDOM"* %this1, i32 0, i32 3, !dbg !2080
  %3 = load %"class.xercesc_2_7::DOMElement"*, %"class.xercesc_2_7::DOMElement"** %elem.addr, align 8, !dbg !2081
  store %"class.xercesc_2_7::DOMElement"* %3, %"class.xercesc_2_7::DOMElement"** %m_currentElem, align 8, !dbg !2080
  %m_elemStack = getelementptr inbounds %"class.xalanc_1_10::FormatterToXercesDOM", %"class.xalanc_1_10::FormatterToXercesDOM"* %this1, i32 0, i32 4, !dbg !2082
  %4 = load %"class.xercesc_2_7::MemoryManager"*, %"class.xercesc_2_7::MemoryManager"** %theManager.addr, align 8, !dbg !2083
  invoke void @_ZN11xalanc_1_1011XalanVectorIPN11xercesc_2_710DOMElementENS_31MemoryManagedConstructionTraitsIS3_EEEC2ERNS1_13MemoryManagerEm(%"class.xalanc_1_10::XalanVector.0"* %m_elemStack, %"class.xercesc_2_7::MemoryManager"* dereferenceable(8) %4, i64 0)
          to label %invoke.cont unwind label %lpad, !dbg !2082

invoke.cont:                                      ; preds = %entry
  %m_buffer = getelementptr inbounds %"class.xalanc_1_10::FormatterToXercesDOM", %"class.xalanc_1_10::FormatterToXercesDOM"* %this1, i32 0, i32 5, !dbg !2084
  %5 = load %"class.xercesc_2_7::MemoryManager"*, %"class.xercesc_2_7::MemoryManager"** %theManager.addr, align 8, !dbg !2085
  invoke void @_ZN11xalanc_1_1014XalanDOMStringC1ERN11xercesc_2_713MemoryManagerE(%"class.xalanc_1_10::XalanDOMString"* %m_buffer, %"class.xercesc_2_7::MemoryManager"* dereferenceable(8) %5)
          to label %invoke.cont3 unwind label %lpad2, !dbg !2084

invoke.cont3:                                     ; preds = %invoke.cont
  %m_textBuffer = getelementptr inbounds %"class.xalanc_1_10::FormatterToXercesDOM", %"class.xalanc_1_10::FormatterToXercesDOM"* %this1, i32 0, i32 6, !dbg !2086
  %6 = load %"class.xercesc_2_7::MemoryManager"*, %"class.xercesc_2_7::MemoryManager"** %theManager.addr, align 8, !dbg !2087
  invoke void @_ZN11xalanc_1_1014XalanDOMStringC1ERN11xercesc_2_713MemoryManagerE(%"class.xalanc_1_10::XalanDOMString"* %m_textBuffer, %"class.xercesc_2_7::MemoryManager"* dereferenceable(8) %6)
          to label %invoke.cont5 unwind label %lpad4, !dbg !2086

invoke.cont5:                                     ; preds = %invoke.cont3
  ret void, !dbg !2088

lpad:                                             ; preds = %entry
  %7 = landingpad { i8*, i32 }
          cleanup, !dbg !2088
  %8 = extractvalue { i8*, i32 } %7, 0, !dbg !2088
  store i8* %8, i8** %exn.slot, align 8, !dbg !2088
  %9 = extractvalue { i8*, i32 } %7, 1, !dbg !2088
  store i32 %9, i32* %ehselector.slot, align 4, !dbg !2088
  br label %ehcleanup6, !dbg !2088

lpad2:                                            ; preds = %invoke.cont
  %10 = landingpad { i8*, i32 }
          cleanup, !dbg !2088
  %11 = extractvalue { i8*, i32 } %10, 0, !dbg !2088
  store i8* %11, i8** %exn.slot, align 8, !dbg !2088
  %12 = extractvalue { i8*, i32 } %10, 1, !dbg !2088
  store i32 %12, i32* %ehselector.slot, align 4, !dbg !2088
  br label %ehcleanup, !dbg !2088

lpad4:                                            ; preds = %invoke.cont3
  %13 = landingpad { i8*, i32 }
          cleanup, !dbg !2088
  %14 = extractvalue { i8*, i32 } %13, 0, !dbg !2088
  store i8* %14, i8** %exn.slot, align 8, !dbg !2088
  %15 = extractvalue { i8*, i32 } %13, 1, !dbg !2088
  store i32 %15, i32* %ehselector.slot, align 4, !dbg !2088
  call void @_ZN11xalanc_1_1014XalanDOMStringD2Ev(%"class.xalanc_1_10::XalanDOMString"* %m_buffer) #5, !dbg !2089
  br label %ehcleanup, !dbg !2089

ehcleanup:                                        ; preds = %lpad4, %lpad2
  call void @_ZN11xalanc_1_1011XalanVectorIPN11xercesc_2_710DOMElementENS_31MemoryManagedConstructionTraitsIS3_EEED2Ev(%"class.xalanc_1_10::XalanVector.0"* %m_elemStack) #5, !dbg !2089
  br label %ehcleanup6, !dbg !2089

ehcleanup6:                                       ; preds = %ehcleanup, %lpad
  %16 = bitcast %"class.xalanc_1_10::FormatterToXercesDOM"* %this1 to %"class.xalanc_1_10::FormatterListener"*, !dbg !2089
  call void @_ZN11xalanc_1_1017FormatterListenerD2Ev(%"class.xalanc_1_10::FormatterListener"* %16) #5, !dbg !2089
  br label %eh.resume, !dbg !2089

eh.resume:                                        ; preds = %ehcleanup6
  %exn = load i8*, i8** %exn.slot, align 8, !dbg !2089
  %sel = load i32, i32* %ehselector.slot, align 4, !dbg !2089
  %lpad.val = insertvalue { i8*, i32 } undef, i8* %exn, 0, !dbg !2089
  %lpad.val7 = insertvalue { i8*, i32 } %lpad.val, i32 %sel, 1, !dbg !2089
  resume { i8*, i32 } %lpad.val7, !dbg !2089
}

; Function Attrs: noinline nounwind uwtable
define dso_local void @_ZN11xalanc_1_1020FormatterToXercesDOMD2Ev(%"class.xalanc_1_10::FormatterToXercesDOM"* %this) unnamed_addr #1 align 2 !dbg !2091 {
entry:
  %this.addr = alloca %"class.xalanc_1_10::FormatterToXercesDOM"*, align 8
  store %"class.xalanc_1_10::FormatterToXercesDOM"* %this, %"class.xalanc_1_10::FormatterToXercesDOM"** %this.addr, align 8
  call void @llvm.dbg.declare(metadata %"class.xalanc_1_10::FormatterToXercesDOM"** %this.addr, metadata !2092, metadata !DIExpression()), !dbg !2093
  %this1 = load %"class.xalanc_1_10::FormatterToXercesDOM"*, %"class.xalanc_1_10::FormatterToXercesDOM"** %this.addr, align 8
  %0 = bitcast %"class.xalanc_1_10::FormatterToXercesDOM"* %this1 to i32 (...)***, !dbg !2094
  store i32 (...)** bitcast (i8** getelementptr inbounds ({ [23 x i8*] }, { [23 x i8*] }* @_ZTVN11xalanc_1_1020FormatterToXercesDOME, i32 0, inrange i32 0, i32 2) to i32 (...)**), i32 (...)*** %0, align 8, !dbg !2094
  %m_textBuffer = getelementptr inbounds %"class.xalanc_1_10::FormatterToXercesDOM", %"class.xalanc_1_10::FormatterToXercesDOM"* %this1, i32 0, i32 6, !dbg !2095
  call void @_ZN11xalanc_1_1014XalanDOMStringD2Ev(%"class.xalanc_1_10::XalanDOMString"* %m_textBuffer) #5, !dbg !2095
  %m_buffer = getelementptr inbounds %"class.xalanc_1_10::FormatterToXercesDOM", %"class.xalanc_1_10::FormatterToXercesDOM"* %this1, i32 0, i32 5, !dbg !2095
  call void @_ZN11xalanc_1_1014XalanDOMStringD2Ev(%"class.xalanc_1_10::XalanDOMString"* %m_buffer) #5, !dbg !2095
  %m_elemStack = getelementptr inbounds %"class.xalanc_1_10::FormatterToXercesDOM", %"class.xalanc_1_10::FormatterToXercesDOM"* %this1, i32 0, i32 4, !dbg !2095
  call void @_ZN11xalanc_1_1011XalanVectorIPN11xercesc_2_710DOMElementENS_31MemoryManagedConstructionTraitsIS3_EEED2Ev(%"class.xalanc_1_10::XalanVector.0"* %m_elemStack) #5, !dbg !2095
  %1 = bitcast %"class.xalanc_1_10::FormatterToXercesDOM"* %this1 to %"class.xalanc_1_10::FormatterListener"*, !dbg !2095
  call void @_ZN11xalanc_1_1017FormatterListenerD2Ev(%"class.xalanc_1_10::FormatterListener"* %1) #5, !dbg !2095
  ret void, !dbg !2097
}

; Function Attrs: noinline nounwind uwtable
define dso_local void @_ZN11xalanc_1_1020FormatterToXercesDOMD0Ev(%"class.xalanc_1_10::FormatterToXercesDOM"* %this) unnamed_addr #1 align 2 !dbg !2098 {
entry:
  %this.addr = alloca %"class.xalanc_1_10::FormatterToXercesDOM"*, align 8
  store %"class.xalanc_1_10::FormatterToXercesDOM"* %this, %"class.xalanc_1_10::FormatterToXercesDOM"** %this.addr, align 8
  call void @llvm.dbg.declare(metadata %"class.xalanc_1_10::FormatterToXercesDOM"** %this.addr, metadata !2099, metadata !DIExpression()), !dbg !2100
  %this1 = load %"class.xalanc_1_10::FormatterToXercesDOM"*, %"class.xalanc_1_10::FormatterToXercesDOM"** %this.addr, align 8
  call void @_ZN11xalanc_1_1020FormatterToXercesDOMD1Ev(%"class.xalanc_1_10::FormatterToXercesDOM"* %this1) #5, !dbg !2101
  %0 = bitcast %"class.xalanc_1_10::FormatterToXercesDOM"* %this1 to i8*, !dbg !2101
  call void @_ZdlPv(i8* %0) #10, !dbg !2101
  ret void, !dbg !2102
}

; Function Attrs: noinline nounwind uwtable
define dso_local void @_ZN11xalanc_1_1020FormatterToXercesDOM18setDocumentLocatorEPKN11xercesc_2_77LocatorE(%"class.xalanc_1_10::FormatterToXercesDOM"* %this, %"class.xercesc_2_7::Locator"* %0) unnamed_addr #1 align 2 !dbg !2103 {
entry:
  %this.addr = alloca %"class.xalanc_1_10::FormatterToXercesDOM"*, align 8
  %.addr = alloca %"class.xercesc_2_7::Locator"*, align 8
  store %"class.xalanc_1_10::FormatterToXercesDOM"* %this, %"class.xalanc_1_10::FormatterToXercesDOM"** %this.addr, align 8
  call void @llvm.dbg.declare(metadata %"class.xalanc_1_10::FormatterToXercesDOM"** %this.addr, metadata !2104, metadata !DIExpression()), !dbg !2105
  store %"class.xercesc_2_7::Locator"* %0, %"class.xercesc_2_7::Locator"** %.addr, align 8
  call void @llvm.dbg.declare(metadata %"class.xercesc_2_7::Locator"** %.addr, metadata !2106, metadata !DIExpression()), !dbg !2107
  %this1 = load %"class.xalanc_1_10::FormatterToXercesDOM"*, %"class.xalanc_1_10::FormatterToXercesDOM"** %this.addr, align 8
  ret void, !dbg !2108
}

; Function Attrs: noinline nounwind uwtable
define dso_local void @_ZN11xalanc_1_1020FormatterToXercesDOM13startDocumentEv(%"class.xalanc_1_10::FormatterToXercesDOM"* %this) unnamed_addr #1 align 2 !dbg !2109 {
entry:
  %this.addr = alloca %"class.xalanc_1_10::FormatterToXercesDOM"*, align 8
  store %"class.xalanc_1_10::FormatterToXercesDOM"* %this, %"class.xalanc_1_10::FormatterToXercesDOM"** %this.addr, align 8
  call void @llvm.dbg.declare(metadata %"class.xalanc_1_10::FormatterToXercesDOM"** %this.addr, metadata !2110, metadata !DIExpression()), !dbg !2111
  %this1 = load %"class.xalanc_1_10::FormatterToXercesDOM"*, %"class.xalanc_1_10::FormatterToXercesDOM"** %this.addr, align 8
  ret void, !dbg !2112
}

; Function Attrs: noinline uwtable
define dso_local void @_ZN11xalanc_1_1020FormatterToXercesDOM11endDocumentEv(%"class.xalanc_1_10::FormatterToXercesDOM"* %this) unnamed_addr #3 align 2 personality i8* bitcast (i32 (...)* @__gxx_personality_v0 to i8*) !dbg !2113 {
entry:
  %this.addr = alloca %"class.xalanc_1_10::FormatterToXercesDOM"*, align 8
  %exn.slot = alloca i8*
  %ehselector.slot = alloca i32
  %theException = alloca %"class.xercesc_2_7::DOMException"*, align 8
  store %"class.xalanc_1_10::FormatterToXercesDOM"* %this, %"class.xalanc_1_10::FormatterToXercesDOM"** %this.addr, align 8
  call void @llvm.dbg.declare(metadata %"class.xalanc_1_10::FormatterToXercesDOM"** %this.addr, metadata !2114, metadata !DIExpression()), !dbg !2115
  %this1 = load %"class.xalanc_1_10::FormatterToXercesDOM"*, %"class.xalanc_1_10::FormatterToXercesDOM"** %this.addr, align 8
  invoke void @_ZN11xalanc_1_1020FormatterToXercesDOM22processAccumulatedTextEv(%"class.xalanc_1_10::FormatterToXercesDOM"* %this1)
          to label %invoke.cont unwind label %lpad, !dbg !2116

invoke.cont:                                      ; preds = %entry
  br label %try.cont, !dbg !2118

lpad:                                             ; preds = %entry
  %0 = landingpad { i8*, i32 }
          catch i8* bitcast (i8** @_ZTIN11xercesc_2_712DOMExceptionE to i8*), !dbg !2119
  %1 = extractvalue { i8*, i32 } %0, 0, !dbg !2119
  store i8* %1, i8** %exn.slot, align 8, !dbg !2119
  %2 = extractvalue { i8*, i32 } %0, 1, !dbg !2119
  store i32 %2, i32* %ehselector.slot, align 4, !dbg !2119
  br label %catch.dispatch, !dbg !2119

catch.dispatch:                                   ; preds = %lpad
  %sel = load i32, i32* %ehselector.slot, align 4, !dbg !2118
  %3 = call i32 @llvm.eh.typeid.for(i8* bitcast (i8** @_ZTIN11xercesc_2_712DOMExceptionE to i8*)) #5, !dbg !2118
  %matches = icmp eq i32 %sel, %3, !dbg !2118
  br i1 %matches, label %catch, label %eh.resume, !dbg !2118

catch:                                            ; preds = %catch.dispatch
  call void @llvm.dbg.declare(metadata %"class.xercesc_2_7::DOMException"** %theException, metadata !2120, metadata !DIExpression()), !dbg !2125
  %exn = load i8*, i8** %exn.slot, align 8, !dbg !2118
  %4 = call i8* @__cxa_begin_catch(i8* %exn) #5, !dbg !2118
  %exn.byref = bitcast i8* %4 to %"class.xercesc_2_7::DOMException"*, !dbg !2118
  store %"class.xercesc_2_7::DOMException"* %exn.byref, %"class.xercesc_2_7::DOMException"** %theException, align 8, !dbg !2118
  %exception = call i8* @__cxa_allocate_exception(i64 16) #5, !dbg !2126
  %5 = bitcast i8* %exception to %"class.xalanc_1_10::XercesDOMException"*, !dbg !2126
  %6 = load %"class.xercesc_2_7::DOMException"*, %"class.xercesc_2_7::DOMException"** %theException, align 8, !dbg !2128
  invoke void @_ZN11xalanc_1_1018XercesDOMExceptionC1ERKN11xercesc_2_712DOMExceptionE(%"class.xalanc_1_10::XercesDOMException"* %5, %"class.xercesc_2_7::DOMException"* dereferenceable(40) %6)
          to label %invoke.cont3 unwind label %lpad2, !dbg !2129

invoke.cont3:                                     ; preds = %catch
  invoke void @__cxa_throw(i8* %exception, i8* bitcast (i8** @_ZTIN11xalanc_1_1018XercesDOMExceptionE to i8*), i8* bitcast (void (%"class.xalanc_1_10::XercesDOMException"*)* @_ZN11xalanc_1_1018XercesDOMExceptionD1Ev to i8*)) #12
          to label %unreachable unwind label %lpad4, !dbg !2126

lpad2:                                            ; preds = %catch
  %7 = landingpad { i8*, i32 }
          cleanup, !dbg !2130
  %8 = extractvalue { i8*, i32 } %7, 0, !dbg !2130
  store i8* %8, i8** %exn.slot, align 8, !dbg !2130
  %9 = extractvalue { i8*, i32 } %7, 1, !dbg !2130
  store i32 %9, i32* %ehselector.slot, align 4, !dbg !2130
  call void @__cxa_free_exception(i8* %exception) #5, !dbg !2126
  br label %ehcleanup, !dbg !2126

lpad4:                                            ; preds = %invoke.cont3
  %10 = landingpad { i8*, i32 }
          cleanup, !dbg !2130
  %11 = extractvalue { i8*, i32 } %10, 0, !dbg !2130
  store i8* %11, i8** %exn.slot, align 8, !dbg !2130
  %12 = extractvalue { i8*, i32 } %10, 1, !dbg !2130
  store i32 %12, i32* %ehselector.slot, align 4, !dbg !2130
  br label %ehcleanup, !dbg !2130

ehcleanup:                                        ; preds = %lpad4, %lpad2
  invoke void @__cxa_end_catch()
          to label %invoke.cont5 unwind label %terminate.lpad, !dbg !2131

invoke.cont5:                                     ; preds = %ehcleanup
  br label %eh.resume, !dbg !2131

try.cont:                                         ; preds = %invoke.cont
  ret void, !dbg !2132

eh.resume:                                        ; preds = %invoke.cont5, %catch.dispatch
  %exn6 = load i8*, i8** %exn.slot, align 8, !dbg !2118
  %sel7 = load i32, i32* %ehselector.slot, align 4, !dbg !2118
  %lpad.val = insertvalue { i8*, i32 } undef, i8* %exn6, 0, !dbg !2118
  %lpad.val8 = insertvalue { i8*, i32 } %lpad.val, i32 %sel7, 1, !dbg !2118
  resume { i8*, i32 } %lpad.val8, !dbg !2118

terminate.lpad:                                   ; preds = %ehcleanup
  %13 = landingpad { i8*, i32 }
          catch i8* null, !dbg !2131
  %14 = extractvalue { i8*, i32 } %13, 0, !dbg !2131
  call void @__clang_call_terminate(i8* %14) #11, !dbg !2131
  unreachable, !dbg !2131

unreachable:                                      ; preds = %invoke.cont3
  unreachable
}

; Function Attrs: noinline uwtable
define dso_local void @_ZN11xalanc_1_1020FormatterToXercesDOM22processAccumulatedTextEv(%"class.xalanc_1_10::FormatterToXercesDOM"* %this) #3 align 2 !dbg !2133 {
entry:
  %this.addr = alloca %"class.xalanc_1_10::FormatterToXercesDOM"*, align 8
  store %"class.xalanc_1_10::FormatterToXercesDOM"* %this, %"class.xalanc_1_10::FormatterToXercesDOM"** %this.addr, align 8
  call void @llvm.dbg.declare(metadata %"class.xalanc_1_10::FormatterToXercesDOM"** %this.addr, metadata !2134, metadata !DIExpression()), !dbg !2135
  %this1 = load %"class.xalanc_1_10::FormatterToXercesDOM"*, %"class.xalanc_1_10::FormatterToXercesDOM"** %this.addr, align 8
  %m_textBuffer = getelementptr inbounds %"class.xalanc_1_10::FormatterToXercesDOM", %"class.xalanc_1_10::FormatterToXercesDOM"* %this1, i32 0, i32 6, !dbg !2136
  %call = call zeroext i1 @_ZN11xalanc_1_107isEmptyERKNS_14XalanDOMStringE(%"class.xalanc_1_10::XalanDOMString"* dereferenceable(40) %m_textBuffer), !dbg !2138
  %conv = zext i1 %call to i32, !dbg !2138
  %cmp = icmp eq i32 %conv, 0, !dbg !2139
  br i1 %cmp, label %if.then, label %if.end, !dbg !2140

if.then:                                          ; preds = %entry
  %m_doc = getelementptr inbounds %"class.xalanc_1_10::FormatterToXercesDOM", %"class.xalanc_1_10::FormatterToXercesDOM"* %this1, i32 0, i32 1, !dbg !2141
  %0 = load %"class.xercesc_2_7::DOMDocument"*, %"class.xercesc_2_7::DOMDocument"** %m_doc, align 8, !dbg !2141
  %m_textBuffer2 = getelementptr inbounds %"class.xalanc_1_10::FormatterToXercesDOM", %"class.xalanc_1_10::FormatterToXercesDOM"* %this1, i32 0, i32 6, !dbg !2143
  %call3 = call i16* @_ZNK11xalanc_1_1014XalanDOMString5c_strEv(%"class.xalanc_1_10::XalanDOMString"* %m_textBuffer2), !dbg !2144
  %1 = bitcast %"class.xercesc_2_7::DOMDocument"* %0 to %"class.xercesc_2_7::DOMText"* (%"class.xercesc_2_7::DOMDocument"*, i16*)***, !dbg !2145
  %vtable = load %"class.xercesc_2_7::DOMText"* (%"class.xercesc_2_7::DOMDocument"*, i16*)**, %"class.xercesc_2_7::DOMText"* (%"class.xercesc_2_7::DOMDocument"*, i16*)*** %1, align 8, !dbg !2145
  %vfn = getelementptr inbounds %"class.xercesc_2_7::DOMText"* (%"class.xercesc_2_7::DOMDocument"*, i16*)*, %"class.xercesc_2_7::DOMText"* (%"class.xercesc_2_7::DOMDocument"*, i16*)** %vtable, i64 5, !dbg !2145
  %2 = load %"class.xercesc_2_7::DOMText"* (%"class.xercesc_2_7::DOMDocument"*, i16*)*, %"class.xercesc_2_7::DOMText"* (%"class.xercesc_2_7::DOMDocument"*, i16*)** %vfn, align 8, !dbg !2145
  %call4 = call %"class.xercesc_2_7::DOMText"* %2(%"class.xercesc_2_7::DOMDocument"* %0, i16* %call3), !dbg !2145
  %3 = bitcast %"class.xercesc_2_7::DOMText"* %call4 to %"class.xercesc_2_7::DOMNode"*, !dbg !2141
  call void @_ZN11xalanc_1_1020FormatterToXercesDOM6appendEPN11xercesc_2_77DOMNodeE(%"class.xalanc_1_10::FormatterToXercesDOM"* %this1, %"class.xercesc_2_7::DOMNode"* %3), !dbg !2146
  %m_textBuffer5 = getelementptr inbounds %"class.xalanc_1_10::FormatterToXercesDOM", %"class.xalanc_1_10::FormatterToXercesDOM"* %this1, i32 0, i32 6, !dbg !2147
  call void @_ZN11xalanc_1_105clearERNS_14XalanDOMStringE(%"class.xalanc_1_10::XalanDOMString"* dereferenceable(40) %m_textBuffer5), !dbg !2148
  br label %if.end, !dbg !2149

if.end:                                           ; preds = %if.then, %entry
  ret void, !dbg !2150
}

; Function Attrs: nounwind readnone
declare i32 @llvm.eh.typeid.for(i8*) #7

declare dso_local i8* @__cxa_begin_catch(i8*)

declare dso_local i8* @__cxa_allocate_exception(i64)

declare dso_local void @_ZN11xalanc_1_1018XercesDOMExceptionC1ERKN11xercesc_2_712DOMExceptionE(%"class.xalanc_1_10::XercesDOMException"*, %"class.xercesc_2_7::DOMException"* dereferenceable(40)) unnamed_addr #4

declare dso_local void @__cxa_free_exception(i8*)

; Function Attrs: nounwind
declare dso_local void @_ZN11xalanc_1_1018XercesDOMExceptionD1Ev(%"class.xalanc_1_10::XercesDOMException"*) unnamed_addr #6

declare dso_local void @__cxa_throw(i8*, i8*, i8*)

declare dso_local void @__cxa_end_catch()

; Function Attrs: noinline noreturn nounwind
define linkonce_odr hidden void @__clang_call_terminate(i8* %0) #8 comdat {
  %2 = call i8* @__cxa_begin_catch(i8* %0) #5
  call void @_ZSt9terminatev() #11
  unreachable
}

declare dso_local void @_ZSt9terminatev()

; Function Attrs: noinline uwtable
define dso_local void @_ZN11xalanc_1_1020FormatterToXercesDOM12startElementEPKtRN11xercesc_2_713AttributeListE(%"class.xalanc_1_10::FormatterToXercesDOM"* %this, i16* %name, %"class.xercesc_2_7::AttributeList"* dereferenceable(8) %attrs) unnamed_addr #3 align 2 personality i8* bitcast (i32 (...)* @__gxx_personality_v0 to i8*) !dbg !2151 {
entry:
  %this.addr = alloca %"class.xalanc_1_10::FormatterToXercesDOM"*, align 8
  %name.addr = alloca i16*, align 8
  %attrs.addr = alloca %"class.xercesc_2_7::AttributeList"*, align 8
  %exn.slot = alloca i8*
  %ehselector.slot = alloca i32
  %elem = alloca %"class.xercesc_2_7::DOMElement"*, align 8
  %theException = alloca %"class.xercesc_2_7::DOMException"*, align 8
  store %"class.xalanc_1_10::FormatterToXercesDOM"* %this, %"class.xalanc_1_10::FormatterToXercesDOM"** %this.addr, align 8
  call void @llvm.dbg.declare(metadata %"class.xalanc_1_10::FormatterToXercesDOM"** %this.addr, metadata !2152, metadata !DIExpression()), !dbg !2153
  store i16* %name, i16** %name.addr, align 8
  call void @llvm.dbg.declare(metadata i16** %name.addr, metadata !2154, metadata !DIExpression()), !dbg !2155
  store %"class.xercesc_2_7::AttributeList"* %attrs, %"class.xercesc_2_7::AttributeList"** %attrs.addr, align 8
  call void @llvm.dbg.declare(metadata %"class.xercesc_2_7::AttributeList"** %attrs.addr, metadata !2156, metadata !DIExpression()), !dbg !2157
  %this1 = load %"class.xalanc_1_10::FormatterToXercesDOM"*, %"class.xalanc_1_10::FormatterToXercesDOM"** %this.addr, align 8
  invoke void @_ZN11xalanc_1_1020FormatterToXercesDOM22processAccumulatedTextEv(%"class.xalanc_1_10::FormatterToXercesDOM"* %this1)
          to label %invoke.cont unwind label %lpad, !dbg !2158

invoke.cont:                                      ; preds = %entry
  call void @llvm.dbg.declare(metadata %"class.xercesc_2_7::DOMElement"** %elem, metadata !2160, metadata !DIExpression()), !dbg !2162
  %0 = load i16*, i16** %name.addr, align 8, !dbg !2163
  %1 = load %"class.xercesc_2_7::AttributeList"*, %"class.xercesc_2_7::AttributeList"** %attrs.addr, align 8, !dbg !2164
  %call = invoke %"class.xercesc_2_7::DOMElement"* @_ZN11xalanc_1_1020FormatterToXercesDOM13createElementEPKtRN11xercesc_2_713AttributeListE(%"class.xalanc_1_10::FormatterToXercesDOM"* %this1, i16* %0, %"class.xercesc_2_7::AttributeList"* dereferenceable(8) %1)
          to label %invoke.cont2 unwind label %lpad, !dbg !2165

invoke.cont2:                                     ; preds = %invoke.cont
  store %"class.xercesc_2_7::DOMElement"* %call, %"class.xercesc_2_7::DOMElement"** %elem, align 8, !dbg !2162
  %2 = load %"class.xercesc_2_7::DOMElement"*, %"class.xercesc_2_7::DOMElement"** %elem, align 8, !dbg !2166
  %3 = bitcast %"class.xercesc_2_7::DOMElement"* %2 to %"class.xercesc_2_7::DOMNode"*, !dbg !2166
  invoke void @_ZN11xalanc_1_1020FormatterToXercesDOM6appendEPN11xercesc_2_77DOMNodeE(%"class.xalanc_1_10::FormatterToXercesDOM"* %this1, %"class.xercesc_2_7::DOMNode"* %3)
          to label %invoke.cont3 unwind label %lpad, !dbg !2167

invoke.cont3:                                     ; preds = %invoke.cont2
  %m_elemStack = getelementptr inbounds %"class.xalanc_1_10::FormatterToXercesDOM", %"class.xalanc_1_10::FormatterToXercesDOM"* %this1, i32 0, i32 4, !dbg !2168
  %m_currentElem = getelementptr inbounds %"class.xalanc_1_10::FormatterToXercesDOM", %"class.xalanc_1_10::FormatterToXercesDOM"* %this1, i32 0, i32 3, !dbg !2169
  invoke void @_ZN11xalanc_1_1011XalanVectorIPN11xercesc_2_710DOMElementENS_31MemoryManagedConstructionTraitsIS3_EEE9push_backERKS3_(%"class.xalanc_1_10::XalanVector.0"* %m_elemStack, %"class.xercesc_2_7::DOMElement"** dereferenceable(8) %m_currentElem)
          to label %invoke.cont4 unwind label %lpad, !dbg !2170

invoke.cont4:                                     ; preds = %invoke.cont3
  %4 = load %"class.xercesc_2_7::DOMElement"*, %"class.xercesc_2_7::DOMElement"** %elem, align 8, !dbg !2171
  %m_currentElem5 = getelementptr inbounds %"class.xalanc_1_10::FormatterToXercesDOM", %"class.xalanc_1_10::FormatterToXercesDOM"* %this1, i32 0, i32 3, !dbg !2172
  store %"class.xercesc_2_7::DOMElement"* %4, %"class.xercesc_2_7::DOMElement"** %m_currentElem5, align 8, !dbg !2173
  br label %try.cont, !dbg !2174

lpad:                                             ; preds = %invoke.cont3, %invoke.cont2, %invoke.cont, %entry
  %5 = landingpad { i8*, i32 }
          catch i8* bitcast (i8** @_ZTIN11xercesc_2_712DOMExceptionE to i8*), !dbg !2175
  %6 = extractvalue { i8*, i32 } %5, 0, !dbg !2175
  store i8* %6, i8** %exn.slot, align 8, !dbg !2175
  %7 = extractvalue { i8*, i32 } %5, 1, !dbg !2175
  store i32 %7, i32* %ehselector.slot, align 4, !dbg !2175
  br label %catch.dispatch, !dbg !2175

catch.dispatch:                                   ; preds = %lpad
  %sel = load i32, i32* %ehselector.slot, align 4, !dbg !2174
  %8 = call i32 @llvm.eh.typeid.for(i8* bitcast (i8** @_ZTIN11xercesc_2_712DOMExceptionE to i8*)) #5, !dbg !2174
  %matches = icmp eq i32 %sel, %8, !dbg !2174
  br i1 %matches, label %catch, label %eh.resume, !dbg !2174

catch:                                            ; preds = %catch.dispatch
  call void @llvm.dbg.declare(metadata %"class.xercesc_2_7::DOMException"** %theException, metadata !2176, metadata !DIExpression()), !dbg !2177
  %exn = load i8*, i8** %exn.slot, align 8, !dbg !2174
  %9 = call i8* @__cxa_begin_catch(i8* %exn) #5, !dbg !2174
  %exn.byref = bitcast i8* %9 to %"class.xercesc_2_7::DOMException"*, !dbg !2174
  store %"class.xercesc_2_7::DOMException"* %exn.byref, %"class.xercesc_2_7::DOMException"** %theException, align 8, !dbg !2174
  %exception = call i8* @__cxa_allocate_exception(i64 16) #5, !dbg !2178
  %10 = bitcast i8* %exception to %"class.xalanc_1_10::XercesDOMException"*, !dbg !2178
  %11 = load %"class.xercesc_2_7::DOMException"*, %"class.xercesc_2_7::DOMException"** %theException, align 8, !dbg !2180
  invoke void @_ZN11xalanc_1_1018XercesDOMExceptionC1ERKN11xercesc_2_712DOMExceptionE(%"class.xalanc_1_10::XercesDOMException"* %10, %"class.xercesc_2_7::DOMException"* dereferenceable(40) %11)
          to label %invoke.cont7 unwind label %lpad6, !dbg !2181

invoke.cont7:                                     ; preds = %catch
  invoke void @__cxa_throw(i8* %exception, i8* bitcast (i8** @_ZTIN11xalanc_1_1018XercesDOMExceptionE to i8*), i8* bitcast (void (%"class.xalanc_1_10::XercesDOMException"*)* @_ZN11xalanc_1_1018XercesDOMExceptionD1Ev to i8*)) #12
          to label %unreachable unwind label %lpad8, !dbg !2178

lpad6:                                            ; preds = %catch
  %12 = landingpad { i8*, i32 }
          cleanup, !dbg !2182
  %13 = extractvalue { i8*, i32 } %12, 0, !dbg !2182
  store i8* %13, i8** %exn.slot, align 8, !dbg !2182
  %14 = extractvalue { i8*, i32 } %12, 1, !dbg !2182
  store i32 %14, i32* %ehselector.slot, align 4, !dbg !2182
  call void @__cxa_free_exception(i8* %exception) #5, !dbg !2178
  br label %ehcleanup, !dbg !2178

lpad8:                                            ; preds = %invoke.cont7
  %15 = landingpad { i8*, i32 }
          cleanup, !dbg !2182
  %16 = extractvalue { i8*, i32 } %15, 0, !dbg !2182
  store i8* %16, i8** %exn.slot, align 8, !dbg !2182
  %17 = extractvalue { i8*, i32 } %15, 1, !dbg !2182
  store i32 %17, i32* %ehselector.slot, align 4, !dbg !2182
  br label %ehcleanup, !dbg !2182

ehcleanup:                                        ; preds = %lpad8, %lpad6
  invoke void @__cxa_end_catch()
          to label %invoke.cont9 unwind label %terminate.lpad, !dbg !2183

invoke.cont9:                                     ; preds = %ehcleanup
  br label %eh.resume, !dbg !2183

try.cont:                                         ; preds = %invoke.cont4
  ret void, !dbg !2184

eh.resume:                                        ; preds = %invoke.cont9, %catch.dispatch
  %exn10 = load i8*, i8** %exn.slot, align 8, !dbg !2174
  %sel11 = load i32, i32* %ehselector.slot, align 4, !dbg !2174
  %lpad.val = insertvalue { i8*, i32 } undef, i8* %exn10, 0, !dbg !2174
  %lpad.val12 = insertvalue { i8*, i32 } %lpad.val, i32 %sel11, 1, !dbg !2174
  resume { i8*, i32 } %lpad.val12, !dbg !2174

terminate.lpad:                                   ; preds = %ehcleanup
  %18 = landingpad { i8*, i32 }
          catch i8* null, !dbg !2183
  %19 = extractvalue { i8*, i32 } %18, 0, !dbg !2183
  call void @__clang_call_terminate(i8* %19) #11, !dbg !2183
  unreachable, !dbg !2183

unreachable:                                      ; preds = %invoke.cont7
  unreachable
}

; Function Attrs: noinline uwtable
define dso_local %"class.xercesc_2_7::DOMElement"* @_ZN11xalanc_1_1020FormatterToXercesDOM13createElementEPKtRN11xercesc_2_713AttributeListE(%"class.xalanc_1_10::FormatterToXercesDOM"* %this, i16* %theElementName, %"class.xercesc_2_7::AttributeList"* dereferenceable(8) %attrs) #3 align 2 !dbg !2185 {
entry:
  %this.addr = alloca %"class.xalanc_1_10::FormatterToXercesDOM"*, align 8
  %theElementName.addr = alloca i16*, align 8
  %attrs.addr = alloca %"class.xercesc_2_7::AttributeList"*, align 8
  %theElement = alloca %"class.xercesc_2_7::DOMElement"*, align 8
  %theNamespace = alloca %"class.xalanc_1_10::XalanDOMString"*, align 8
  store %"class.xalanc_1_10::FormatterToXercesDOM"* %this, %"class.xalanc_1_10::FormatterToXercesDOM"** %this.addr, align 8
  call void @llvm.dbg.declare(metadata %"class.xalanc_1_10::FormatterToXercesDOM"** %this.addr, metadata !2186, metadata !DIExpression()), !dbg !2187
  store i16* %theElementName, i16** %theElementName.addr, align 8
  call void @llvm.dbg.declare(metadata i16** %theElementName.addr, metadata !2188, metadata !DIExpression()), !dbg !2189
  store %"class.xercesc_2_7::AttributeList"* %attrs, %"class.xercesc_2_7::AttributeList"** %attrs.addr, align 8
  call void @llvm.dbg.declare(metadata %"class.xercesc_2_7::AttributeList"** %attrs.addr, metadata !2190, metadata !DIExpression()), !dbg !2191
  %this1 = load %"class.xalanc_1_10::FormatterToXercesDOM"*, %"class.xalanc_1_10::FormatterToXercesDOM"** %this.addr, align 8
  call void @llvm.dbg.declare(metadata %"class.xercesc_2_7::DOMElement"** %theElement, metadata !2192, metadata !DIExpression()), !dbg !2193
  store %"class.xercesc_2_7::DOMElement"* null, %"class.xercesc_2_7::DOMElement"** %theElement, align 8, !dbg !2193
  %0 = bitcast %"class.xalanc_1_10::FormatterToXercesDOM"* %this1 to %"class.xalanc_1_10::FormatterListener"*, !dbg !2194
  %m_prefixResolver = getelementptr inbounds %"class.xalanc_1_10::FormatterListener", %"class.xalanc_1_10::FormatterListener"* %0, i32 0, i32 1, !dbg !2194
  %1 = load %"class.xalanc_1_10::PrefixResolver"*, %"class.xalanc_1_10::PrefixResolver"** %m_prefixResolver, align 8, !dbg !2194
  %cmp = icmp eq %"class.xalanc_1_10::PrefixResolver"* %1, null, !dbg !2196
  br i1 %cmp, label %if.then, label %if.else, !dbg !2197

if.then:                                          ; preds = %entry
  %m_doc = getelementptr inbounds %"class.xalanc_1_10::FormatterToXercesDOM", %"class.xalanc_1_10::FormatterToXercesDOM"* %this1, i32 0, i32 1, !dbg !2198
  %2 = load %"class.xercesc_2_7::DOMDocument"*, %"class.xercesc_2_7::DOMDocument"** %m_doc, align 8, !dbg !2198
  %3 = load i16*, i16** %theElementName.addr, align 8, !dbg !2200
  %4 = bitcast %"class.xercesc_2_7::DOMDocument"* %2 to %"class.xercesc_2_7::DOMElement"* (%"class.xercesc_2_7::DOMDocument"*, i16*)***, !dbg !2201
  %vtable = load %"class.xercesc_2_7::DOMElement"* (%"class.xercesc_2_7::DOMDocument"*, i16*)**, %"class.xercesc_2_7::DOMElement"* (%"class.xercesc_2_7::DOMDocument"*, i16*)*** %4, align 8, !dbg !2201
  %vfn = getelementptr inbounds %"class.xercesc_2_7::DOMElement"* (%"class.xercesc_2_7::DOMDocument"*, i16*)*, %"class.xercesc_2_7::DOMElement"* (%"class.xercesc_2_7::DOMDocument"*, i16*)** %vtable, i64 3, !dbg !2201
  %5 = load %"class.xercesc_2_7::DOMElement"* (%"class.xercesc_2_7::DOMDocument"*, i16*)*, %"class.xercesc_2_7::DOMElement"* (%"class.xercesc_2_7::DOMDocument"*, i16*)** %vfn, align 8, !dbg !2201
  %call = call %"class.xercesc_2_7::DOMElement"* %5(%"class.xercesc_2_7::DOMDocument"* %2, i16* %3), !dbg !2201
  store %"class.xercesc_2_7::DOMElement"* %call, %"class.xercesc_2_7::DOMElement"** %theElement, align 8, !dbg !2202
  %6 = load %"class.xercesc_2_7::DOMElement"*, %"class.xercesc_2_7::DOMElement"** %theElement, align 8, !dbg !2203
  %7 = load %"class.xercesc_2_7::AttributeList"*, %"class.xercesc_2_7::AttributeList"** %attrs.addr, align 8, !dbg !2204
  call void @_ZN11xalanc_1_1020FormatterToXercesDOM13addAttributesEPN11xercesc_2_710DOMElementERNS1_13AttributeListE(%"class.xalanc_1_10::FormatterToXercesDOM"* %this1, %"class.xercesc_2_7::DOMElement"* %6, %"class.xercesc_2_7::AttributeList"* dereferenceable(8) %7), !dbg !2205
  br label %if.end18, !dbg !2206

if.else:                                          ; preds = %entry
  call void @llvm.dbg.declare(metadata %"class.xalanc_1_10::XalanDOMString"** %theNamespace, metadata !2207, metadata !DIExpression()), !dbg !2211
  %8 = load i16*, i16** %theElementName.addr, align 8, !dbg !2212
  %9 = bitcast %"class.xalanc_1_10::FormatterToXercesDOM"* %this1 to %"class.xalanc_1_10::FormatterListener"*, !dbg !2213
  %m_prefixResolver2 = getelementptr inbounds %"class.xalanc_1_10::FormatterListener", %"class.xalanc_1_10::FormatterListener"* %9, i32 0, i32 1, !dbg !2213
  %10 = load %"class.xalanc_1_10::PrefixResolver"*, %"class.xalanc_1_10::PrefixResolver"** %m_prefixResolver2, align 8, !dbg !2213
  %m_buffer = getelementptr inbounds %"class.xalanc_1_10::FormatterToXercesDOM", %"class.xalanc_1_10::FormatterToXercesDOM"* %this1, i32 0, i32 5, !dbg !2214
  %call3 = call %"class.xalanc_1_10::XalanDOMString"* @_ZN11xalanc_1_1011DOMServices21getNamespaceForPrefixEPKtRKNS_14PrefixResolverEbRNS_14XalanDOMStringE(i16* %8, %"class.xalanc_1_10::PrefixResolver"* dereferenceable(8) %10, i1 zeroext false, %"class.xalanc_1_10::XalanDOMString"* dereferenceable(40) %m_buffer), !dbg !2215
  store %"class.xalanc_1_10::XalanDOMString"* %call3, %"class.xalanc_1_10::XalanDOMString"** %theNamespace, align 8, !dbg !2211
  %11 = load %"class.xalanc_1_10::XalanDOMString"*, %"class.xalanc_1_10::XalanDOMString"** %theNamespace, align 8, !dbg !2216
  %cmp4 = icmp eq %"class.xalanc_1_10::XalanDOMString"* %11, null, !dbg !2218
  br i1 %cmp4, label %if.then7, label %lor.lhs.false, !dbg !2219

lor.lhs.false:                                    ; preds = %if.else
  %12 = load %"class.xalanc_1_10::XalanDOMString"*, %"class.xalanc_1_10::XalanDOMString"** %theNamespace, align 8, !dbg !2220
  %call5 = call i32 @_ZN11xalanc_1_106lengthERKNS_14XalanDOMStringE(%"class.xalanc_1_10::XalanDOMString"* dereferenceable(40) %12), !dbg !2221
  %cmp6 = icmp eq i32 %call5, 0, !dbg !2222
  br i1 %cmp6, label %if.then7, label %if.else12, !dbg !2223

if.then7:                                         ; preds = %lor.lhs.false, %if.else
  %m_doc8 = getelementptr inbounds %"class.xalanc_1_10::FormatterToXercesDOM", %"class.xalanc_1_10::FormatterToXercesDOM"* %this1, i32 0, i32 1, !dbg !2224
  %13 = load %"class.xercesc_2_7::DOMDocument"*, %"class.xercesc_2_7::DOMDocument"** %m_doc8, align 8, !dbg !2224
  %14 = load i16*, i16** %theElementName.addr, align 8, !dbg !2226
  %15 = bitcast %"class.xercesc_2_7::DOMDocument"* %13 to %"class.xercesc_2_7::DOMElement"* (%"class.xercesc_2_7::DOMDocument"*, i16*)***, !dbg !2227
  %vtable9 = load %"class.xercesc_2_7::DOMElement"* (%"class.xercesc_2_7::DOMDocument"*, i16*)**, %"class.xercesc_2_7::DOMElement"* (%"class.xercesc_2_7::DOMDocument"*, i16*)*** %15, align 8, !dbg !2227
  %vfn10 = getelementptr inbounds %"class.xercesc_2_7::DOMElement"* (%"class.xercesc_2_7::DOMDocument"*, i16*)*, %"class.xercesc_2_7::DOMElement"* (%"class.xercesc_2_7::DOMDocument"*, i16*)** %vtable9, i64 3, !dbg !2227
  %16 = load %"class.xercesc_2_7::DOMElement"* (%"class.xercesc_2_7::DOMDocument"*, i16*)*, %"class.xercesc_2_7::DOMElement"* (%"class.xercesc_2_7::DOMDocument"*, i16*)** %vfn10, align 8, !dbg !2227
  %call11 = call %"class.xercesc_2_7::DOMElement"* %16(%"class.xercesc_2_7::DOMDocument"* %13, i16* %14), !dbg !2227
  store %"class.xercesc_2_7::DOMElement"* %call11, %"class.xercesc_2_7::DOMElement"** %theElement, align 8, !dbg !2228
  br label %if.end, !dbg !2229

if.else12:                                        ; preds = %lor.lhs.false
  %m_doc13 = getelementptr inbounds %"class.xalanc_1_10::FormatterToXercesDOM", %"class.xalanc_1_10::FormatterToXercesDOM"* %this1, i32 0, i32 1, !dbg !2230
  %17 = load %"class.xercesc_2_7::DOMDocument"*, %"class.xercesc_2_7::DOMDocument"** %m_doc13, align 8, !dbg !2230
  %18 = load %"class.xalanc_1_10::XalanDOMString"*, %"class.xalanc_1_10::XalanDOMString"** %theNamespace, align 8, !dbg !2232
  %call14 = call i16* @_ZNK11xalanc_1_1014XalanDOMString5c_strEv(%"class.xalanc_1_10::XalanDOMString"* %18), !dbg !2233
  %19 = load i16*, i16** %theElementName.addr, align 8, !dbg !2234
  %20 = bitcast %"class.xercesc_2_7::DOMDocument"* %17 to %"class.xercesc_2_7::DOMElement"* (%"class.xercesc_2_7::DOMDocument"*, i16*, i16*)***, !dbg !2235
  %vtable15 = load %"class.xercesc_2_7::DOMElement"* (%"class.xercesc_2_7::DOMDocument"*, i16*, i16*)**, %"class.xercesc_2_7::DOMElement"* (%"class.xercesc_2_7::DOMDocument"*, i16*, i16*)*** %20, align 8, !dbg !2235
  %vfn16 = getelementptr inbounds %"class.xercesc_2_7::DOMElement"* (%"class.xercesc_2_7::DOMDocument"*, i16*, i16*)*, %"class.xercesc_2_7::DOMElement"* (%"class.xercesc_2_7::DOMDocument"*, i16*, i16*)** %vtable15, i64 16, !dbg !2235
  %21 = load %"class.xercesc_2_7::DOMElement"* (%"class.xercesc_2_7::DOMDocument"*, i16*, i16*)*, %"class.xercesc_2_7::DOMElement"* (%"class.xercesc_2_7::DOMDocument"*, i16*, i16*)** %vfn16, align 8, !dbg !2235
  %call17 = call %"class.xercesc_2_7::DOMElement"* %21(%"class.xercesc_2_7::DOMDocument"* %17, i16* %call14, i16* %19), !dbg !2235
  store %"class.xercesc_2_7::DOMElement"* %call17, %"class.xercesc_2_7::DOMElement"** %theElement, align 8, !dbg !2236
  br label %if.end

if.end:                                           ; preds = %if.else12, %if.then7
  %22 = load %"class.xercesc_2_7::DOMElement"*, %"class.xercesc_2_7::DOMElement"** %theElement, align 8, !dbg !2237
  %23 = load %"class.xercesc_2_7::AttributeList"*, %"class.xercesc_2_7::AttributeList"** %attrs.addr, align 8, !dbg !2238
  call void @_ZN11xalanc_1_1020FormatterToXercesDOM13addAttributesEPN11xercesc_2_710DOMElementERNS1_13AttributeListE(%"class.xalanc_1_10::FormatterToXercesDOM"* %this1, %"class.xercesc_2_7::DOMElement"* %22, %"class.xercesc_2_7::AttributeList"* dereferenceable(8) %23), !dbg !2239
  br label %if.end18

if.end18:                                         ; preds = %if.end, %if.then
  %24 = load %"class.xercesc_2_7::DOMElement"*, %"class.xercesc_2_7::DOMElement"** %theElement, align 8, !dbg !2240
  ret %"class.xercesc_2_7::DOMElement"* %24, !dbg !2241
}

; Function Attrs: noinline uwtable
define dso_local void @_ZN11xalanc_1_1020FormatterToXercesDOM6appendEPN11xercesc_2_77DOMNodeE(%"class.xalanc_1_10::FormatterToXercesDOM"* %this, %"class.xercesc_2_7::DOMNode"* %newNode) #3 align 2 !dbg !2242 {
entry:
  %this.addr = alloca %"class.xalanc_1_10::FormatterToXercesDOM"*, align 8
  %newNode.addr = alloca %"class.xercesc_2_7::DOMNode"*, align 8
  store %"class.xalanc_1_10::FormatterToXercesDOM"* %this, %"class.xalanc_1_10::FormatterToXercesDOM"** %this.addr, align 8
  call void @llvm.dbg.declare(metadata %"class.xalanc_1_10::FormatterToXercesDOM"** %this.addr, metadata !2243, metadata !DIExpression()), !dbg !2244
  store %"class.xercesc_2_7::DOMNode"* %newNode, %"class.xercesc_2_7::DOMNode"** %newNode.addr, align 8
  call void @llvm.dbg.declare(metadata %"class.xercesc_2_7::DOMNode"** %newNode.addr, metadata !2245, metadata !DIExpression()), !dbg !2246
  %this1 = load %"class.xalanc_1_10::FormatterToXercesDOM"*, %"class.xalanc_1_10::FormatterToXercesDOM"** %this.addr, align 8
  %m_currentElem = getelementptr inbounds %"class.xalanc_1_10::FormatterToXercesDOM", %"class.xalanc_1_10::FormatterToXercesDOM"* %this1, i32 0, i32 3, !dbg !2247
  %0 = load %"class.xercesc_2_7::DOMElement"*, %"class.xercesc_2_7::DOMElement"** %m_currentElem, align 8, !dbg !2247
  %cmp = icmp ne %"class.xercesc_2_7::DOMElement"* null, %0, !dbg !2249
  br i1 %cmp, label %if.then, label %if.else, !dbg !2250

if.then:                                          ; preds = %entry
  %m_currentElem2 = getelementptr inbounds %"class.xalanc_1_10::FormatterToXercesDOM", %"class.xalanc_1_10::FormatterToXercesDOM"* %this1, i32 0, i32 3, !dbg !2251
  %1 = load %"class.xercesc_2_7::DOMElement"*, %"class.xercesc_2_7::DOMElement"** %m_currentElem2, align 8, !dbg !2251
  %2 = bitcast %"class.xercesc_2_7::DOMElement"* %1 to %"class.xercesc_2_7::DOMNode"*, !dbg !2253
  %3 = load %"class.xercesc_2_7::DOMNode"*, %"class.xercesc_2_7::DOMNode"** %newNode.addr, align 8, !dbg !2254
  %4 = bitcast %"class.xercesc_2_7::DOMNode"* %2 to %"class.xercesc_2_7::DOMNode"* (%"class.xercesc_2_7::DOMNode"*, %"class.xercesc_2_7::DOMNode"*)***, !dbg !2253
  %vtable = load %"class.xercesc_2_7::DOMNode"* (%"class.xercesc_2_7::DOMNode"*, %"class.xercesc_2_7::DOMNode"*)**, %"class.xercesc_2_7::DOMNode"* (%"class.xercesc_2_7::DOMNode"*, %"class.xercesc_2_7::DOMNode"*)*** %4, align 8, !dbg !2253
  %vfn = getelementptr inbounds %"class.xercesc_2_7::DOMNode"* (%"class.xercesc_2_7::DOMNode"*, %"class.xercesc_2_7::DOMNode"*)*, %"class.xercesc_2_7::DOMNode"* (%"class.xercesc_2_7::DOMNode"*, %"class.xercesc_2_7::DOMNode"*)** %vtable, i64 17, !dbg !2253
  %5 = load %"class.xercesc_2_7::DOMNode"* (%"class.xercesc_2_7::DOMNode"*, %"class.xercesc_2_7::DOMNode"*)*, %"class.xercesc_2_7::DOMNode"* (%"class.xercesc_2_7::DOMNode"*, %"class.xercesc_2_7::DOMNode"*)** %vfn, align 8, !dbg !2253
  %call = call %"class.xercesc_2_7::DOMNode"* %5(%"class.xercesc_2_7::DOMNode"* %2, %"class.xercesc_2_7::DOMNode"* %3), !dbg !2253
  br label %if.end13, !dbg !2255

if.else:                                          ; preds = %entry
  %m_docFrag = getelementptr inbounds %"class.xalanc_1_10::FormatterToXercesDOM", %"class.xalanc_1_10::FormatterToXercesDOM"* %this1, i32 0, i32 2, !dbg !2256
  %6 = load %"class.xercesc_2_7::DOMDocumentFragment"*, %"class.xercesc_2_7::DOMDocumentFragment"** %m_docFrag, align 8, !dbg !2256
  %cmp3 = icmp ne %"class.xercesc_2_7::DOMDocumentFragment"* null, %6, !dbg !2258
  br i1 %cmp3, label %if.then4, label %if.else9, !dbg !2259

if.then4:                                         ; preds = %if.else
  %m_docFrag5 = getelementptr inbounds %"class.xalanc_1_10::FormatterToXercesDOM", %"class.xalanc_1_10::FormatterToXercesDOM"* %this1, i32 0, i32 2, !dbg !2260
  %7 = load %"class.xercesc_2_7::DOMDocumentFragment"*, %"class.xercesc_2_7::DOMDocumentFragment"** %m_docFrag5, align 8, !dbg !2260
  %8 = bitcast %"class.xercesc_2_7::DOMDocumentFragment"* %7 to %"class.xercesc_2_7::DOMNode"*, !dbg !2262
  %9 = load %"class.xercesc_2_7::DOMNode"*, %"class.xercesc_2_7::DOMNode"** %newNode.addr, align 8, !dbg !2263
  %10 = bitcast %"class.xercesc_2_7::DOMNode"* %8 to %"class.xercesc_2_7::DOMNode"* (%"class.xercesc_2_7::DOMNode"*, %"class.xercesc_2_7::DOMNode"*)***, !dbg !2262
  %vtable6 = load %"class.xercesc_2_7::DOMNode"* (%"class.xercesc_2_7::DOMNode"*, %"class.xercesc_2_7::DOMNode"*)**, %"class.xercesc_2_7::DOMNode"* (%"class.xercesc_2_7::DOMNode"*, %"class.xercesc_2_7::DOMNode"*)*** %10, align 8, !dbg !2262
  %vfn7 = getelementptr inbounds %"class.xercesc_2_7::DOMNode"* (%"class.xercesc_2_7::DOMNode"*, %"class.xercesc_2_7::DOMNode"*)*, %"class.xercesc_2_7::DOMNode"* (%"class.xercesc_2_7::DOMNode"*, %"class.xercesc_2_7::DOMNode"*)** %vtable6, i64 17, !dbg !2262
  %11 = load %"class.xercesc_2_7::DOMNode"* (%"class.xercesc_2_7::DOMNode"*, %"class.xercesc_2_7::DOMNode"*)*, %"class.xercesc_2_7::DOMNode"* (%"class.xercesc_2_7::DOMNode"*, %"class.xercesc_2_7::DOMNode"*)** %vfn7, align 8, !dbg !2262
  %call8 = call %"class.xercesc_2_7::DOMNode"* %11(%"class.xercesc_2_7::DOMNode"* %8, %"class.xercesc_2_7::DOMNode"* %9), !dbg !2262
  br label %if.end, !dbg !2264

if.else9:                                         ; preds = %if.else
  %m_doc = getelementptr inbounds %"class.xalanc_1_10::FormatterToXercesDOM", %"class.xalanc_1_10::FormatterToXercesDOM"* %this1, i32 0, i32 1, !dbg !2265
  %12 = load %"class.xercesc_2_7::DOMDocument"*, %"class.xercesc_2_7::DOMDocument"** %m_doc, align 8, !dbg !2265
  %13 = bitcast %"class.xercesc_2_7::DOMDocument"* %12 to i8*, !dbg !2267
  %add.ptr = getelementptr inbounds i8, i8* %13, i64 24, !dbg !2267
  %14 = bitcast i8* %add.ptr to %"class.xercesc_2_7::DOMNode"*, !dbg !2267
  %15 = load %"class.xercesc_2_7::DOMNode"*, %"class.xercesc_2_7::DOMNode"** %newNode.addr, align 8, !dbg !2268
  %16 = bitcast %"class.xercesc_2_7::DOMNode"* %14 to %"class.xercesc_2_7::DOMNode"* (%"class.xercesc_2_7::DOMNode"*, %"class.xercesc_2_7::DOMNode"*)***, !dbg !2267
  %vtable10 = load %"class.xercesc_2_7::DOMNode"* (%"class.xercesc_2_7::DOMNode"*, %"class.xercesc_2_7::DOMNode"*)**, %"class.xercesc_2_7::DOMNode"* (%"class.xercesc_2_7::DOMNode"*, %"class.xercesc_2_7::DOMNode"*)*** %16, align 8, !dbg !2267
  %vfn11 = getelementptr inbounds %"class.xercesc_2_7::DOMNode"* (%"class.xercesc_2_7::DOMNode"*, %"class.xercesc_2_7::DOMNode"*)*, %"class.xercesc_2_7::DOMNode"* (%"class.xercesc_2_7::DOMNode"*, %"class.xercesc_2_7::DOMNode"*)** %vtable10, i64 17, !dbg !2267
  %17 = load %"class.xercesc_2_7::DOMNode"* (%"class.xercesc_2_7::DOMNode"*, %"class.xercesc_2_7::DOMNode"*)*, %"class.xercesc_2_7::DOMNode"* (%"class.xercesc_2_7::DOMNode"*, %"class.xercesc_2_7::DOMNode"*)** %vfn11, align 8, !dbg !2267
  %call12 = call %"class.xercesc_2_7::DOMNode"* %17(%"class.xercesc_2_7::DOMNode"* %14, %"class.xercesc_2_7::DOMNode"* %15), !dbg !2267
  br label %if.end

if.end:                                           ; preds = %if.else9, %if.then4
  br label %if.end13

if.end13:                                         ; preds = %if.end, %if.then
  ret void, !dbg !2269
}

; Function Attrs: noinline uwtable
define linkonce_odr dso_local void @_ZN11xalanc_1_1011XalanVectorIPN11xercesc_2_710DOMElementENS_31MemoryManagedConstructionTraitsIS3_EEE9push_backERKS3_(%"class.xalanc_1_10::XalanVector.0"* %this, %"class.xercesc_2_7::DOMElement"** dereferenceable(8) %data) #3 comdat align 2 !dbg !2270 {
entry:
  %this.addr = alloca %"class.xalanc_1_10::XalanVector.0"*, align 8
  %data.addr = alloca %"class.xercesc_2_7::DOMElement"**, align 8
  store %"class.xalanc_1_10::XalanVector.0"* %this, %"class.xalanc_1_10::XalanVector.0"** %this.addr, align 8
  call void @llvm.dbg.declare(metadata %"class.xalanc_1_10::XalanVector.0"** %this.addr, metadata !2271, metadata !DIExpression()), !dbg !2272
  store %"class.xercesc_2_7::DOMElement"** %data, %"class.xercesc_2_7::DOMElement"*** %data.addr, align 8
  call void @llvm.dbg.declare(metadata %"class.xercesc_2_7::DOMElement"*** %data.addr, metadata !2273, metadata !DIExpression()), !dbg !2274
  %this1 = load %"class.xalanc_1_10::XalanVector.0"*, %"class.xalanc_1_10::XalanVector.0"** %this.addr, align 8
  call void @_ZNK11xalanc_1_1011XalanVectorIPN11xercesc_2_710DOMElementENS_31MemoryManagedConstructionTraitsIS3_EEE10invariantsEv(%"class.xalanc_1_10::XalanVector.0"* %this1), !dbg !2275
  %0 = load %"class.xercesc_2_7::DOMElement"**, %"class.xercesc_2_7::DOMElement"*** %data.addr, align 8, !dbg !2276
  call void @_ZN11xalanc_1_1011XalanVectorIPN11xercesc_2_710DOMElementENS_31MemoryManagedConstructionTraitsIS3_EEE10doPushBackERKS3_(%"class.xalanc_1_10::XalanVector.0"* %this1, %"class.xercesc_2_7::DOMElement"** dereferenceable(8) %0), !dbg !2277
  call void @_ZNK11xalanc_1_1011XalanVectorIPN11xercesc_2_710DOMElementENS_31MemoryManagedConstructionTraitsIS3_EEE10invariantsEv(%"class.xalanc_1_10::XalanVector.0"* %this1), !dbg !2278
  ret void, !dbg !2279
}

; Function Attrs: noinline uwtable
define dso_local void @_ZN11xalanc_1_1020FormatterToXercesDOM10endElementEPKt(%"class.xalanc_1_10::FormatterToXercesDOM"* %this, i16* %0) unnamed_addr #3 align 2 personality i8* bitcast (i32 (...)* @__gxx_personality_v0 to i8*) !dbg !2280 {
entry:
  %this.addr = alloca %"class.xalanc_1_10::FormatterToXercesDOM"*, align 8
  %.addr = alloca i16*, align 8
  %exn.slot = alloca i8*
  %ehselector.slot = alloca i32
  %theException = alloca %"class.xercesc_2_7::DOMException"*, align 8
  store %"class.xalanc_1_10::FormatterToXercesDOM"* %this, %"class.xalanc_1_10::FormatterToXercesDOM"** %this.addr, align 8
  call void @llvm.dbg.declare(metadata %"class.xalanc_1_10::FormatterToXercesDOM"** %this.addr, metadata !2281, metadata !DIExpression()), !dbg !2282
  store i16* %0, i16** %.addr, align 8
  call void @llvm.dbg.declare(metadata i16** %.addr, metadata !2283, metadata !DIExpression()), !dbg !2284
  %this1 = load %"class.xalanc_1_10::FormatterToXercesDOM"*, %"class.xalanc_1_10::FormatterToXercesDOM"** %this.addr, align 8
  invoke void @_ZN11xalanc_1_1020FormatterToXercesDOM22processAccumulatedTextEv(%"class.xalanc_1_10::FormatterToXercesDOM"* %this1)
          to label %invoke.cont unwind label %lpad, !dbg !2285

invoke.cont:                                      ; preds = %entry
  %m_elemStack = getelementptr inbounds %"class.xalanc_1_10::FormatterToXercesDOM", %"class.xalanc_1_10::FormatterToXercesDOM"* %this1, i32 0, i32 4, !dbg !2287
  %call = invoke zeroext i1 @_ZNK11xalanc_1_1011XalanVectorIPN11xercesc_2_710DOMElementENS_31MemoryManagedConstructionTraitsIS3_EEE5emptyEv(%"class.xalanc_1_10::XalanVector.0"* %m_elemStack)
          to label %invoke.cont2 unwind label %lpad, !dbg !2289

invoke.cont2:                                     ; preds = %invoke.cont
  %conv = zext i1 %call to i32, !dbg !2287
  %cmp = icmp eq i32 %conv, 0, !dbg !2290
  br i1 %cmp, label %if.then, label %if.else, !dbg !2291

if.then:                                          ; preds = %invoke.cont2
  %m_elemStack3 = getelementptr inbounds %"class.xalanc_1_10::FormatterToXercesDOM", %"class.xalanc_1_10::FormatterToXercesDOM"* %this1, i32 0, i32 4, !dbg !2292
  %call5 = invoke dereferenceable(8) %"class.xercesc_2_7::DOMElement"** @_ZN11xalanc_1_1011XalanVectorIPN11xercesc_2_710DOMElementENS_31MemoryManagedConstructionTraitsIS3_EEE4backEv(%"class.xalanc_1_10::XalanVector.0"* %m_elemStack3)
          to label %invoke.cont4 unwind label %lpad, !dbg !2294

invoke.cont4:                                     ; preds = %if.then
  %1 = load %"class.xercesc_2_7::DOMElement"*, %"class.xercesc_2_7::DOMElement"** %call5, align 8, !dbg !2294
  %m_currentElem = getelementptr inbounds %"class.xalanc_1_10::FormatterToXercesDOM", %"class.xalanc_1_10::FormatterToXercesDOM"* %this1, i32 0, i32 3, !dbg !2295
  store %"class.xercesc_2_7::DOMElement"* %1, %"class.xercesc_2_7::DOMElement"** %m_currentElem, align 8, !dbg !2296
  %m_elemStack6 = getelementptr inbounds %"class.xalanc_1_10::FormatterToXercesDOM", %"class.xalanc_1_10::FormatterToXercesDOM"* %this1, i32 0, i32 4, !dbg !2297
  invoke void @_ZN11xalanc_1_1011XalanVectorIPN11xercesc_2_710DOMElementENS_31MemoryManagedConstructionTraitsIS3_EEE8pop_backEv(%"class.xalanc_1_10::XalanVector.0"* %m_elemStack6)
          to label %invoke.cont7 unwind label %lpad, !dbg !2298

invoke.cont7:                                     ; preds = %invoke.cont4
  br label %if.end, !dbg !2299

lpad:                                             ; preds = %invoke.cont4, %if.then, %invoke.cont, %entry
  %2 = landingpad { i8*, i32 }
          catch i8* bitcast (i8** @_ZTIN11xercesc_2_712DOMExceptionE to i8*), !dbg !2300
  %3 = extractvalue { i8*, i32 } %2, 0, !dbg !2300
  store i8* %3, i8** %exn.slot, align 8, !dbg !2300
  %4 = extractvalue { i8*, i32 } %2, 1, !dbg !2300
  store i32 %4, i32* %ehselector.slot, align 4, !dbg !2300
  br label %catch.dispatch, !dbg !2300

catch.dispatch:                                   ; preds = %lpad
  %sel = load i32, i32* %ehselector.slot, align 4, !dbg !2301
  %5 = call i32 @llvm.eh.typeid.for(i8* bitcast (i8** @_ZTIN11xercesc_2_712DOMExceptionE to i8*)) #5, !dbg !2301
  %matches = icmp eq i32 %sel, %5, !dbg !2301
  br i1 %matches, label %catch, label %eh.resume, !dbg !2301

catch:                                            ; preds = %catch.dispatch
  call void @llvm.dbg.declare(metadata %"class.xercesc_2_7::DOMException"** %theException, metadata !2302, metadata !DIExpression()), !dbg !2303
  %exn = load i8*, i8** %exn.slot, align 8, !dbg !2301
  %6 = call i8* @__cxa_begin_catch(i8* %exn) #5, !dbg !2301
  %exn.byref = bitcast i8* %6 to %"class.xercesc_2_7::DOMException"*, !dbg !2301
  store %"class.xercesc_2_7::DOMException"* %exn.byref, %"class.xercesc_2_7::DOMException"** %theException, align 8, !dbg !2301
  %exception = call i8* @__cxa_allocate_exception(i64 16) #5, !dbg !2304
  %7 = bitcast i8* %exception to %"class.xalanc_1_10::XercesDOMException"*, !dbg !2304
  %8 = load %"class.xercesc_2_7::DOMException"*, %"class.xercesc_2_7::DOMException"** %theException, align 8, !dbg !2306
  invoke void @_ZN11xalanc_1_1018XercesDOMExceptionC1ERKN11xercesc_2_712DOMExceptionE(%"class.xalanc_1_10::XercesDOMException"* %7, %"class.xercesc_2_7::DOMException"* dereferenceable(40) %8)
          to label %invoke.cont10 unwind label %lpad9, !dbg !2307

invoke.cont10:                                    ; preds = %catch
  invoke void @__cxa_throw(i8* %exception, i8* bitcast (i8** @_ZTIN11xalanc_1_1018XercesDOMExceptionE to i8*), i8* bitcast (void (%"class.xalanc_1_10::XercesDOMException"*)* @_ZN11xalanc_1_1018XercesDOMExceptionD1Ev to i8*)) #12
          to label %unreachable unwind label %lpad11, !dbg !2304

if.else:                                          ; preds = %invoke.cont2
  %m_currentElem8 = getelementptr inbounds %"class.xalanc_1_10::FormatterToXercesDOM", %"class.xalanc_1_10::FormatterToXercesDOM"* %this1, i32 0, i32 3, !dbg !2308
  store %"class.xercesc_2_7::DOMElement"* null, %"class.xercesc_2_7::DOMElement"** %m_currentElem8, align 8, !dbg !2310
  br label %if.end

if.end:                                           ; preds = %if.else, %invoke.cont7
  br label %try.cont, !dbg !2301

lpad9:                                            ; preds = %catch
  %9 = landingpad { i8*, i32 }
          cleanup, !dbg !2311
  %10 = extractvalue { i8*, i32 } %9, 0, !dbg !2311
  store i8* %10, i8** %exn.slot, align 8, !dbg !2311
  %11 = extractvalue { i8*, i32 } %9, 1, !dbg !2311
  store i32 %11, i32* %ehselector.slot, align 4, !dbg !2311
  call void @__cxa_free_exception(i8* %exception) #5, !dbg !2304
  br label %ehcleanup, !dbg !2304

lpad11:                                           ; preds = %invoke.cont10
  %12 = landingpad { i8*, i32 }
          cleanup, !dbg !2311
  %13 = extractvalue { i8*, i32 } %12, 0, !dbg !2311
  store i8* %13, i8** %exn.slot, align 8, !dbg !2311
  %14 = extractvalue { i8*, i32 } %12, 1, !dbg !2311
  store i32 %14, i32* %ehselector.slot, align 4, !dbg !2311
  br label %ehcleanup, !dbg !2311

ehcleanup:                                        ; preds = %lpad11, %lpad9
  invoke void @__cxa_end_catch()
          to label %invoke.cont12 unwind label %terminate.lpad, !dbg !2312

invoke.cont12:                                    ; preds = %ehcleanup
  br label %eh.resume, !dbg !2312

try.cont:                                         ; preds = %if.end
  ret void, !dbg !2313

eh.resume:                                        ; preds = %invoke.cont12, %catch.dispatch
  %exn13 = load i8*, i8** %exn.slot, align 8, !dbg !2301
  %sel14 = load i32, i32* %ehselector.slot, align 4, !dbg !2301
  %lpad.val = insertvalue { i8*, i32 } undef, i8* %exn13, 0, !dbg !2301
  %lpad.val15 = insertvalue { i8*, i32 } %lpad.val, i32 %sel14, 1, !dbg !2301
  resume { i8*, i32 } %lpad.val15, !dbg !2301

terminate.lpad:                                   ; preds = %ehcleanup
  %15 = landingpad { i8*, i32 }
          catch i8* null, !dbg !2312
  %16 = extractvalue { i8*, i32 } %15, 0, !dbg !2312
  call void @__clang_call_terminate(i8* %16) #11, !dbg !2312
  unreachable, !dbg !2312

unreachable:                                      ; preds = %invoke.cont10
  unreachable
}

; Function Attrs: noinline nounwind uwtable
define linkonce_odr dso_local zeroext i1 @_ZNK11xalanc_1_1011XalanVectorIPN11xercesc_2_710DOMElementENS_31MemoryManagedConstructionTraitsIS3_EEE5emptyEv(%"class.xalanc_1_10::XalanVector.0"* %this) #1 comdat align 2 !dbg !2314 {
entry:
  %this.addr = alloca %"class.xalanc_1_10::XalanVector.0"*, align 8
  store %"class.xalanc_1_10::XalanVector.0"* %this, %"class.xalanc_1_10::XalanVector.0"** %this.addr, align 8
  call void @llvm.dbg.declare(metadata %"class.xalanc_1_10::XalanVector.0"** %this.addr, metadata !2315, metadata !DIExpression()), !dbg !2317
  %this1 = load %"class.xalanc_1_10::XalanVector.0"*, %"class.xalanc_1_10::XalanVector.0"** %this.addr, align 8
  call void @_ZNK11xalanc_1_1011XalanVectorIPN11xercesc_2_710DOMElementENS_31MemoryManagedConstructionTraitsIS3_EEE10invariantsEv(%"class.xalanc_1_10::XalanVector.0"* %this1), !dbg !2318
  %m_size = getelementptr inbounds %"class.xalanc_1_10::XalanVector.0", %"class.xalanc_1_10::XalanVector.0"* %this1, i32 0, i32 1, !dbg !2319
  %0 = load i64, i64* %m_size, align 8, !dbg !2319
  %cmp = icmp eq i64 %0, 0, !dbg !2320
  %1 = zext i1 %cmp to i64, !dbg !2319
  %cond = select i1 %cmp, i1 true, i1 false, !dbg !2319
  ret i1 %cond, !dbg !2321
}

; Function Attrs: noinline nounwind uwtable
define linkonce_odr dso_local dereferenceable(8) %"class.xercesc_2_7::DOMElement"** @_ZN11xalanc_1_1011XalanVectorIPN11xercesc_2_710DOMElementENS_31MemoryManagedConstructionTraitsIS3_EEE4backEv(%"class.xalanc_1_10::XalanVector.0"* %this) #1 comdat align 2 !dbg !2322 {
entry:
  %this.addr = alloca %"class.xalanc_1_10::XalanVector.0"*, align 8
  store %"class.xalanc_1_10::XalanVector.0"* %this, %"class.xalanc_1_10::XalanVector.0"** %this.addr, align 8
  call void @llvm.dbg.declare(metadata %"class.xalanc_1_10::XalanVector.0"** %this.addr, metadata !2323, metadata !DIExpression()), !dbg !2324
  %this1 = load %"class.xalanc_1_10::XalanVector.0"*, %"class.xalanc_1_10::XalanVector.0"** %this.addr, align 8
  %m_data = getelementptr inbounds %"class.xalanc_1_10::XalanVector.0", %"class.xalanc_1_10::XalanVector.0"* %this1, i32 0, i32 3, !dbg !2325
  %0 = load %"class.xercesc_2_7::DOMElement"**, %"class.xercesc_2_7::DOMElement"*** %m_data, align 8, !dbg !2325
  %m_size = getelementptr inbounds %"class.xalanc_1_10::XalanVector.0", %"class.xalanc_1_10::XalanVector.0"* %this1, i32 0, i32 1, !dbg !2326
  %1 = load i64, i64* %m_size, align 8, !dbg !2326
  %sub = sub i64 %1, 1, !dbg !2327
  %arrayidx = getelementptr inbounds %"class.xercesc_2_7::DOMElement"*, %"class.xercesc_2_7::DOMElement"** %0, i64 %sub, !dbg !2325
  ret %"class.xercesc_2_7::DOMElement"** %arrayidx, !dbg !2328
}

; Function Attrs: noinline nounwind uwtable
define linkonce_odr dso_local void @_ZN11xalanc_1_1011XalanVectorIPN11xercesc_2_710DOMElementENS_31MemoryManagedConstructionTraitsIS3_EEE8pop_backEv(%"class.xalanc_1_10::XalanVector.0"* %this) #1 comdat align 2 !dbg !2329 {
entry:
  %this.addr = alloca %"class.xalanc_1_10::XalanVector.0"*, align 8
  store %"class.xalanc_1_10::XalanVector.0"* %this, %"class.xalanc_1_10::XalanVector.0"** %this.addr, align 8
  call void @llvm.dbg.declare(metadata %"class.xalanc_1_10::XalanVector.0"** %this.addr, metadata !2330, metadata !DIExpression()), !dbg !2331
  %this1 = load %"class.xalanc_1_10::XalanVector.0"*, %"class.xalanc_1_10::XalanVector.0"** %this.addr, align 8
  call void @_ZNK11xalanc_1_1011XalanVectorIPN11xercesc_2_710DOMElementENS_31MemoryManagedConstructionTraitsIS3_EEE10invariantsEv(%"class.xalanc_1_10::XalanVector.0"* %this1), !dbg !2332
  %m_size = getelementptr inbounds %"class.xalanc_1_10::XalanVector.0", %"class.xalanc_1_10::XalanVector.0"* %this1, i32 0, i32 1, !dbg !2333
  %0 = load i64, i64* %m_size, align 8, !dbg !2334
  %dec = add i64 %0, -1, !dbg !2334
  store i64 %dec, i64* %m_size, align 8, !dbg !2334
  %m_data = getelementptr inbounds %"class.xalanc_1_10::XalanVector.0", %"class.xalanc_1_10::XalanVector.0"* %this1, i32 0, i32 3, !dbg !2335
  %1 = load %"class.xercesc_2_7::DOMElement"**, %"class.xercesc_2_7::DOMElement"*** %m_data, align 8, !dbg !2335
  %m_size2 = getelementptr inbounds %"class.xalanc_1_10::XalanVector.0", %"class.xalanc_1_10::XalanVector.0"* %this1, i32 0, i32 1, !dbg !2336
  %2 = load i64, i64* %m_size2, align 8, !dbg !2336
  %arrayidx = getelementptr inbounds %"class.xercesc_2_7::DOMElement"*, %"class.xercesc_2_7::DOMElement"** %1, i64 %2, !dbg !2335
  call void @_ZN11xalanc_1_1011XalanVectorIPN11xercesc_2_710DOMElementENS_31MemoryManagedConstructionTraitsIS3_EEE7destroyERS3_(%"class.xercesc_2_7::DOMElement"** dereferenceable(8) %arrayidx), !dbg !2337
  call void @_ZNK11xalanc_1_1011XalanVectorIPN11xercesc_2_710DOMElementENS_31MemoryManagedConstructionTraitsIS3_EEE10invariantsEv(%"class.xalanc_1_10::XalanVector.0"* %this1), !dbg !2338
  ret void, !dbg !2339
}

; Function Attrs: noinline uwtable
define dso_local void @_ZN11xalanc_1_1020FormatterToXercesDOM10charactersEPKtj(%"class.xalanc_1_10::FormatterToXercesDOM"* %this, i16* %chars, i32 %length) unnamed_addr #3 align 2 !dbg !2340 {
entry:
  %this.addr = alloca %"class.xalanc_1_10::FormatterToXercesDOM"*, align 8
  %chars.addr = alloca i16*, align 8
  %length.addr = alloca i32, align 4
  store %"class.xalanc_1_10::FormatterToXercesDOM"* %this, %"class.xalanc_1_10::FormatterToXercesDOM"** %this.addr, align 8
  call void @llvm.dbg.declare(metadata %"class.xalanc_1_10::FormatterToXercesDOM"** %this.addr, metadata !2341, metadata !DIExpression()), !dbg !2342
  store i16* %chars, i16** %chars.addr, align 8
  call void @llvm.dbg.declare(metadata i16** %chars.addr, metadata !2343, metadata !DIExpression()), !dbg !2344
  store i32 %length, i32* %length.addr, align 4
  call void @llvm.dbg.declare(metadata i32* %length.addr, metadata !2345, metadata !DIExpression()), !dbg !2346
  %this1 = load %"class.xalanc_1_10::FormatterToXercesDOM"*, %"class.xalanc_1_10::FormatterToXercesDOM"** %this.addr, align 8
  %m_textBuffer = getelementptr inbounds %"class.xalanc_1_10::FormatterToXercesDOM", %"class.xalanc_1_10::FormatterToXercesDOM"* %this1, i32 0, i32 6, !dbg !2347
  %0 = load i16*, i16** %chars.addr, align 8, !dbg !2348
  %1 = load i32, i32* %length.addr, align 4, !dbg !2349
  %call = call dereferenceable(40) %"class.xalanc_1_10::XalanDOMString"* @_ZN11xalanc_1_1014XalanDOMString6appendEPKtj(%"class.xalanc_1_10::XalanDOMString"* %m_textBuffer, i16* %0, i32 %1), !dbg !2350
  ret void, !dbg !2351
}

declare dso_local dereferenceable(40) %"class.xalanc_1_10::XalanDOMString"* @_ZN11xalanc_1_1014XalanDOMString6appendEPKtj(%"class.xalanc_1_10::XalanDOMString"*, i16*, i32) #4

; Function Attrs: noinline uwtable
define dso_local void @_ZN11xalanc_1_1020FormatterToXercesDOM13charactersRawEPKtj(%"class.xalanc_1_10::FormatterToXercesDOM"* %this, i16* %chars, i32 %length) unnamed_addr #3 align 2 personality i8* bitcast (i32 (...)* @__gxx_personality_v0 to i8*) !dbg !2352 {
entry:
  %this.addr = alloca %"class.xalanc_1_10::FormatterToXercesDOM"*, align 8
  %chars.addr = alloca i16*, align 8
  %length.addr = alloca i32, align 4
  %exn.slot = alloca i8*
  %ehselector.slot = alloca i32
  %theException = alloca %"class.xercesc_2_7::DOMException"*, align 8
  store %"class.xalanc_1_10::FormatterToXercesDOM"* %this, %"class.xalanc_1_10::FormatterToXercesDOM"** %this.addr, align 8
  call void @llvm.dbg.declare(metadata %"class.xalanc_1_10::FormatterToXercesDOM"** %this.addr, metadata !2353, metadata !DIExpression()), !dbg !2354
  store i16* %chars, i16** %chars.addr, align 8
  call void @llvm.dbg.declare(metadata i16** %chars.addr, metadata !2355, metadata !DIExpression()), !dbg !2356
  store i32 %length, i32* %length.addr, align 4
  call void @llvm.dbg.declare(metadata i32* %length.addr, metadata !2357, metadata !DIExpression()), !dbg !2358
  %this1 = load %"class.xalanc_1_10::FormatterToXercesDOM"*, %"class.xalanc_1_10::FormatterToXercesDOM"** %this.addr, align 8
  invoke void @_ZN11xalanc_1_1020FormatterToXercesDOM22processAccumulatedTextEv(%"class.xalanc_1_10::FormatterToXercesDOM"* %this1)
          to label %invoke.cont unwind label %lpad, !dbg !2359

invoke.cont:                                      ; preds = %entry
  %0 = load i16*, i16** %chars.addr, align 8, !dbg !2361
  %1 = load i32, i32* %length.addr, align 4, !dbg !2362
  %2 = bitcast %"class.xalanc_1_10::FormatterToXercesDOM"* %this1 to void (%"class.xalanc_1_10::FormatterToXercesDOM"*, i16*, i32)***, !dbg !2363
  %vtable = load void (%"class.xalanc_1_10::FormatterToXercesDOM"*, i16*, i32)**, void (%"class.xalanc_1_10::FormatterToXercesDOM"*, i16*, i32)*** %2, align 8, !dbg !2363
  %vfn = getelementptr inbounds void (%"class.xalanc_1_10::FormatterToXercesDOM"*, i16*, i32)*, void (%"class.xalanc_1_10::FormatterToXercesDOM"*, i16*, i32)** %vtable, i64 13, !dbg !2363
  %3 = load void (%"class.xalanc_1_10::FormatterToXercesDOM"*, i16*, i32)*, void (%"class.xalanc_1_10::FormatterToXercesDOM"*, i16*, i32)** %vfn, align 8, !dbg !2363
  invoke void %3(%"class.xalanc_1_10::FormatterToXercesDOM"* %this1, i16* %0, i32 %1)
          to label %invoke.cont2 unwind label %lpad, !dbg !2363

invoke.cont2:                                     ; preds = %invoke.cont
  br label %try.cont, !dbg !2364

lpad:                                             ; preds = %invoke.cont, %entry
  %4 = landingpad { i8*, i32 }
          catch i8* bitcast (i8** @_ZTIN11xercesc_2_712DOMExceptionE to i8*), !dbg !2365
  %5 = extractvalue { i8*, i32 } %4, 0, !dbg !2365
  store i8* %5, i8** %exn.slot, align 8, !dbg !2365
  %6 = extractvalue { i8*, i32 } %4, 1, !dbg !2365
  store i32 %6, i32* %ehselector.slot, align 4, !dbg !2365
  br label %catch.dispatch, !dbg !2365

catch.dispatch:                                   ; preds = %lpad
  %sel = load i32, i32* %ehselector.slot, align 4, !dbg !2364
  %7 = call i32 @llvm.eh.typeid.for(i8* bitcast (i8** @_ZTIN11xercesc_2_712DOMExceptionE to i8*)) #5, !dbg !2364
  %matches = icmp eq i32 %sel, %7, !dbg !2364
  br i1 %matches, label %catch, label %eh.resume, !dbg !2364

catch:                                            ; preds = %catch.dispatch
  call void @llvm.dbg.declare(metadata %"class.xercesc_2_7::DOMException"** %theException, metadata !2366, metadata !DIExpression()), !dbg !2367
  %exn = load i8*, i8** %exn.slot, align 8, !dbg !2364
  %8 = call i8* @__cxa_begin_catch(i8* %exn) #5, !dbg !2364
  %exn.byref = bitcast i8* %8 to %"class.xercesc_2_7::DOMException"*, !dbg !2364
  store %"class.xercesc_2_7::DOMException"* %exn.byref, %"class.xercesc_2_7::DOMException"** %theException, align 8, !dbg !2364
  %exception = call i8* @__cxa_allocate_exception(i64 16) #5, !dbg !2368
  %9 = bitcast i8* %exception to %"class.xalanc_1_10::XercesDOMException"*, !dbg !2368
  %10 = load %"class.xercesc_2_7::DOMException"*, %"class.xercesc_2_7::DOMException"** %theException, align 8, !dbg !2370
  invoke void @_ZN11xalanc_1_1018XercesDOMExceptionC1ERKN11xercesc_2_712DOMExceptionE(%"class.xalanc_1_10::XercesDOMException"* %9, %"class.xercesc_2_7::DOMException"* dereferenceable(40) %10)
          to label %invoke.cont4 unwind label %lpad3, !dbg !2371

invoke.cont4:                                     ; preds = %catch
  invoke void @__cxa_throw(i8* %exception, i8* bitcast (i8** @_ZTIN11xalanc_1_1018XercesDOMExceptionE to i8*), i8* bitcast (void (%"class.xalanc_1_10::XercesDOMException"*)* @_ZN11xalanc_1_1018XercesDOMExceptionD1Ev to i8*)) #12
          to label %unreachable unwind label %lpad5, !dbg !2368

lpad3:                                            ; preds = %catch
  %11 = landingpad { i8*, i32 }
          cleanup, !dbg !2372
  %12 = extractvalue { i8*, i32 } %11, 0, !dbg !2372
  store i8* %12, i8** %exn.slot, align 8, !dbg !2372
  %13 = extractvalue { i8*, i32 } %11, 1, !dbg !2372
  store i32 %13, i32* %ehselector.slot, align 4, !dbg !2372
  call void @__cxa_free_exception(i8* %exception) #5, !dbg !2368
  br label %ehcleanup, !dbg !2368

lpad5:                                            ; preds = %invoke.cont4
  %14 = landingpad { i8*, i32 }
          cleanup, !dbg !2372
  %15 = extractvalue { i8*, i32 } %14, 0, !dbg !2372
  store i8* %15, i8** %exn.slot, align 8, !dbg !2372
  %16 = extractvalue { i8*, i32 } %14, 1, !dbg !2372
  store i32 %16, i32* %ehselector.slot, align 4, !dbg !2372
  br label %ehcleanup, !dbg !2372

ehcleanup:                                        ; preds = %lpad5, %lpad3
  invoke void @__cxa_end_catch()
          to label %invoke.cont6 unwind label %terminate.lpad, !dbg !2373

invoke.cont6:                                     ; preds = %ehcleanup
  br label %eh.resume, !dbg !2373

try.cont:                                         ; preds = %invoke.cont2
  ret void, !dbg !2374

eh.resume:                                        ; preds = %invoke.cont6, %catch.dispatch
  %exn7 = load i8*, i8** %exn.slot, align 8, !dbg !2364
  %sel8 = load i32, i32* %ehselector.slot, align 4, !dbg !2364
  %lpad.val = insertvalue { i8*, i32 } undef, i8* %exn7, 0, !dbg !2364
  %lpad.val9 = insertvalue { i8*, i32 } %lpad.val, i32 %sel8, 1, !dbg !2364
  resume { i8*, i32 } %lpad.val9, !dbg !2364

terminate.lpad:                                   ; preds = %ehcleanup
  %17 = landingpad { i8*, i32 }
          catch i8* null, !dbg !2373
  %18 = extractvalue { i8*, i32 } %17, 0, !dbg !2373
  call void @__clang_call_terminate(i8* %18) #11, !dbg !2373
  unreachable, !dbg !2373

unreachable:                                      ; preds = %invoke.cont4
  unreachable
}

; Function Attrs: noinline uwtable
define dso_local void @_ZN11xalanc_1_1020FormatterToXercesDOM15entityReferenceEPKt(%"class.xalanc_1_10::FormatterToXercesDOM"* %this, i16* %name) unnamed_addr #3 align 2 personality i8* bitcast (i32 (...)* @__gxx_personality_v0 to i8*) !dbg !2375 {
entry:
  %this.addr = alloca %"class.xalanc_1_10::FormatterToXercesDOM"*, align 8
  %name.addr = alloca i16*, align 8
  %exn.slot = alloca i8*
  %ehselector.slot = alloca i32
  %theException = alloca %"class.xercesc_2_7::DOMException"*, align 8
  store %"class.xalanc_1_10::FormatterToXercesDOM"* %this, %"class.xalanc_1_10::FormatterToXercesDOM"** %this.addr, align 8
  call void @llvm.dbg.declare(metadata %"class.xalanc_1_10::FormatterToXercesDOM"** %this.addr, metadata !2376, metadata !DIExpression()), !dbg !2377
  store i16* %name, i16** %name.addr, align 8
  call void @llvm.dbg.declare(metadata i16** %name.addr, metadata !2378, metadata !DIExpression()), !dbg !2379
  %this1 = load %"class.xalanc_1_10::FormatterToXercesDOM"*, %"class.xalanc_1_10::FormatterToXercesDOM"** %this.addr, align 8
  invoke void @_ZN11xalanc_1_1020FormatterToXercesDOM22processAccumulatedTextEv(%"class.xalanc_1_10::FormatterToXercesDOM"* %this1)
          to label %invoke.cont unwind label %lpad, !dbg !2380

invoke.cont:                                      ; preds = %entry
  %m_doc = getelementptr inbounds %"class.xalanc_1_10::FormatterToXercesDOM", %"class.xalanc_1_10::FormatterToXercesDOM"* %this1, i32 0, i32 1, !dbg !2382
  %0 = load %"class.xercesc_2_7::DOMDocument"*, %"class.xercesc_2_7::DOMDocument"** %m_doc, align 8, !dbg !2382
  %1 = load i16*, i16** %name.addr, align 8, !dbg !2383
  %2 = bitcast %"class.xercesc_2_7::DOMDocument"* %0 to %"class.xercesc_2_7::DOMEntityReference"* (%"class.xercesc_2_7::DOMDocument"*, i16*)***, !dbg !2384
  %vtable = load %"class.xercesc_2_7::DOMEntityReference"* (%"class.xercesc_2_7::DOMDocument"*, i16*)**, %"class.xercesc_2_7::DOMEntityReference"* (%"class.xercesc_2_7::DOMDocument"*, i16*)*** %2, align 8, !dbg !2384
  %vfn = getelementptr inbounds %"class.xercesc_2_7::DOMEntityReference"* (%"class.xercesc_2_7::DOMDocument"*, i16*)*, %"class.xercesc_2_7::DOMEntityReference"* (%"class.xercesc_2_7::DOMDocument"*, i16*)** %vtable, i64 10, !dbg !2384
  %3 = load %"class.xercesc_2_7::DOMEntityReference"* (%"class.xercesc_2_7::DOMDocument"*, i16*)*, %"class.xercesc_2_7::DOMEntityReference"* (%"class.xercesc_2_7::DOMDocument"*, i16*)** %vfn, align 8, !dbg !2384
  %call = invoke %"class.xercesc_2_7::DOMEntityReference"* %3(%"class.xercesc_2_7::DOMDocument"* %0, i16* %1)
          to label %invoke.cont2 unwind label %lpad, !dbg !2384

invoke.cont2:                                     ; preds = %invoke.cont
  %4 = bitcast %"class.xercesc_2_7::DOMEntityReference"* %call to %"class.xercesc_2_7::DOMNode"*, !dbg !2382
  invoke void @_ZN11xalanc_1_1020FormatterToXercesDOM6appendEPN11xercesc_2_77DOMNodeE(%"class.xalanc_1_10::FormatterToXercesDOM"* %this1, %"class.xercesc_2_7::DOMNode"* %4)
          to label %invoke.cont3 unwind label %lpad, !dbg !2385

invoke.cont3:                                     ; preds = %invoke.cont2
  br label %try.cont, !dbg !2386

lpad:                                             ; preds = %invoke.cont2, %invoke.cont, %entry
  %5 = landingpad { i8*, i32 }
          catch i8* bitcast (i8** @_ZTIN11xercesc_2_712DOMExceptionE to i8*), !dbg !2387
  %6 = extractvalue { i8*, i32 } %5, 0, !dbg !2387
  store i8* %6, i8** %exn.slot, align 8, !dbg !2387
  %7 = extractvalue { i8*, i32 } %5, 1, !dbg !2387
  store i32 %7, i32* %ehselector.slot, align 4, !dbg !2387
  br label %catch.dispatch, !dbg !2387

catch.dispatch:                                   ; preds = %lpad
  %sel = load i32, i32* %ehselector.slot, align 4, !dbg !2386
  %8 = call i32 @llvm.eh.typeid.for(i8* bitcast (i8** @_ZTIN11xercesc_2_712DOMExceptionE to i8*)) #5, !dbg !2386
  %matches = icmp eq i32 %sel, %8, !dbg !2386
  br i1 %matches, label %catch, label %eh.resume, !dbg !2386

catch:                                            ; preds = %catch.dispatch
  call void @llvm.dbg.declare(metadata %"class.xercesc_2_7::DOMException"** %theException, metadata !2388, metadata !DIExpression()), !dbg !2389
  %exn = load i8*, i8** %exn.slot, align 8, !dbg !2386
  %9 = call i8* @__cxa_begin_catch(i8* %exn) #5, !dbg !2386
  %exn.byref = bitcast i8* %9 to %"class.xercesc_2_7::DOMException"*, !dbg !2386
  store %"class.xercesc_2_7::DOMException"* %exn.byref, %"class.xercesc_2_7::DOMException"** %theException, align 8, !dbg !2386
  %exception = call i8* @__cxa_allocate_exception(i64 16) #5, !dbg !2390
  %10 = bitcast i8* %exception to %"class.xalanc_1_10::XercesDOMException"*, !dbg !2390
  %11 = load %"class.xercesc_2_7::DOMException"*, %"class.xercesc_2_7::DOMException"** %theException, align 8, !dbg !2392
  invoke void @_ZN11xalanc_1_1018XercesDOMExceptionC1ERKN11xercesc_2_712DOMExceptionE(%"class.xalanc_1_10::XercesDOMException"* %10, %"class.xercesc_2_7::DOMException"* dereferenceable(40) %11)
          to label %invoke.cont5 unwind label %lpad4, !dbg !2393

invoke.cont5:                                     ; preds = %catch
  invoke void @__cxa_throw(i8* %exception, i8* bitcast (i8** @_ZTIN11xalanc_1_1018XercesDOMExceptionE to i8*), i8* bitcast (void (%"class.xalanc_1_10::XercesDOMException"*)* @_ZN11xalanc_1_1018XercesDOMExceptionD1Ev to i8*)) #12
          to label %unreachable unwind label %lpad6, !dbg !2390

lpad4:                                            ; preds = %catch
  %12 = landingpad { i8*, i32 }
          cleanup, !dbg !2394
  %13 = extractvalue { i8*, i32 } %12, 0, !dbg !2394
  store i8* %13, i8** %exn.slot, align 8, !dbg !2394
  %14 = extractvalue { i8*, i32 } %12, 1, !dbg !2394
  store i32 %14, i32* %ehselector.slot, align 4, !dbg !2394
  call void @__cxa_free_exception(i8* %exception) #5, !dbg !2390
  br label %ehcleanup, !dbg !2390

lpad6:                                            ; preds = %invoke.cont5
  %15 = landingpad { i8*, i32 }
          cleanup, !dbg !2394
  %16 = extractvalue { i8*, i32 } %15, 0, !dbg !2394
  store i8* %16, i8** %exn.slot, align 8, !dbg !2394
  %17 = extractvalue { i8*, i32 } %15, 1, !dbg !2394
  store i32 %17, i32* %ehselector.slot, align 4, !dbg !2394
  br label %ehcleanup, !dbg !2394

ehcleanup:                                        ; preds = %lpad6, %lpad4
  invoke void @__cxa_end_catch()
          to label %invoke.cont7 unwind label %terminate.lpad, !dbg !2395

invoke.cont7:                                     ; preds = %ehcleanup
  br label %eh.resume, !dbg !2395

try.cont:                                         ; preds = %invoke.cont3
  ret void, !dbg !2396

eh.resume:                                        ; preds = %invoke.cont7, %catch.dispatch
  %exn8 = load i8*, i8** %exn.slot, align 8, !dbg !2386
  %sel9 = load i32, i32* %ehselector.slot, align 4, !dbg !2386
  %lpad.val = insertvalue { i8*, i32 } undef, i8* %exn8, 0, !dbg !2386
  %lpad.val10 = insertvalue { i8*, i32 } %lpad.val, i32 %sel9, 1, !dbg !2386
  resume { i8*, i32 } %lpad.val10, !dbg !2386

terminate.lpad:                                   ; preds = %ehcleanup
  %18 = landingpad { i8*, i32 }
          catch i8* null, !dbg !2395
  %19 = extractvalue { i8*, i32 } %18, 0, !dbg !2395
  call void @__clang_call_terminate(i8* %19) #11, !dbg !2395
  unreachable, !dbg !2395

unreachable:                                      ; preds = %invoke.cont5
  unreachable
}

; Function Attrs: noinline uwtable
define dso_local void @_ZN11xalanc_1_1020FormatterToXercesDOM19ignorableWhitespaceEPKtj(%"class.xalanc_1_10::FormatterToXercesDOM"* %this, i16* %chars, i32 %length) unnamed_addr #3 align 2 personality i8* bitcast (i32 (...)* @__gxx_personality_v0 to i8*) !dbg !2397 {
entry:
  %this.addr = alloca %"class.xalanc_1_10::FormatterToXercesDOM"*, align 8
  %chars.addr = alloca i16*, align 8
  %length.addr = alloca i32, align 4
  %exn.slot = alloca i8*
  %ehselector.slot = alloca i32
  %theException = alloca %"class.xercesc_2_7::DOMException"*, align 8
  store %"class.xalanc_1_10::FormatterToXercesDOM"* %this, %"class.xalanc_1_10::FormatterToXercesDOM"** %this.addr, align 8
  call void @llvm.dbg.declare(metadata %"class.xalanc_1_10::FormatterToXercesDOM"** %this.addr, metadata !2398, metadata !DIExpression()), !dbg !2399
  store i16* %chars, i16** %chars.addr, align 8
  call void @llvm.dbg.declare(metadata i16** %chars.addr, metadata !2400, metadata !DIExpression()), !dbg !2401
  store i32 %length, i32* %length.addr, align 4
  call void @llvm.dbg.declare(metadata i32* %length.addr, metadata !2402, metadata !DIExpression()), !dbg !2403
  %this1 = load %"class.xalanc_1_10::FormatterToXercesDOM"*, %"class.xalanc_1_10::FormatterToXercesDOM"** %this.addr, align 8
  invoke void @_ZN11xalanc_1_1020FormatterToXercesDOM22processAccumulatedTextEv(%"class.xalanc_1_10::FormatterToXercesDOM"* %this1)
          to label %invoke.cont unwind label %lpad, !dbg !2404

invoke.cont:                                      ; preds = %entry
  %m_buffer = getelementptr inbounds %"class.xalanc_1_10::FormatterToXercesDOM", %"class.xalanc_1_10::FormatterToXercesDOM"* %this1, i32 0, i32 5, !dbg !2406
  %0 = load i16*, i16** %chars.addr, align 8, !dbg !2407
  %1 = load i32, i32* %length.addr, align 4, !dbg !2408
  %call = invoke dereferenceable(40) %"class.xalanc_1_10::XalanDOMString"* @_ZN11xalanc_1_106assignERNS_14XalanDOMStringEPKtj(%"class.xalanc_1_10::XalanDOMString"* dereferenceable(40) %m_buffer, i16* %0, i32 %1)
          to label %invoke.cont2 unwind label %lpad, !dbg !2409

invoke.cont2:                                     ; preds = %invoke.cont
  %m_doc = getelementptr inbounds %"class.xalanc_1_10::FormatterToXercesDOM", %"class.xalanc_1_10::FormatterToXercesDOM"* %this1, i32 0, i32 1, !dbg !2410
  %2 = load %"class.xercesc_2_7::DOMDocument"*, %"class.xercesc_2_7::DOMDocument"** %m_doc, align 8, !dbg !2410
  %m_buffer3 = getelementptr inbounds %"class.xalanc_1_10::FormatterToXercesDOM", %"class.xalanc_1_10::FormatterToXercesDOM"* %this1, i32 0, i32 5, !dbg !2411
  %call5 = invoke i16* @_ZNK11xalanc_1_1014XalanDOMString5c_strEv(%"class.xalanc_1_10::XalanDOMString"* %m_buffer3)
          to label %invoke.cont4 unwind label %lpad, !dbg !2412

invoke.cont4:                                     ; preds = %invoke.cont2
  %3 = bitcast %"class.xercesc_2_7::DOMDocument"* %2 to %"class.xercesc_2_7::DOMText"* (%"class.xercesc_2_7::DOMDocument"*, i16*)***, !dbg !2413
  %vtable = load %"class.xercesc_2_7::DOMText"* (%"class.xercesc_2_7::DOMDocument"*, i16*)**, %"class.xercesc_2_7::DOMText"* (%"class.xercesc_2_7::DOMDocument"*, i16*)*** %3, align 8, !dbg !2413
  %vfn = getelementptr inbounds %"class.xercesc_2_7::DOMText"* (%"class.xercesc_2_7::DOMDocument"*, i16*)*, %"class.xercesc_2_7::DOMText"* (%"class.xercesc_2_7::DOMDocument"*, i16*)** %vtable, i64 5, !dbg !2413
  %4 = load %"class.xercesc_2_7::DOMText"* (%"class.xercesc_2_7::DOMDocument"*, i16*)*, %"class.xercesc_2_7::DOMText"* (%"class.xercesc_2_7::DOMDocument"*, i16*)** %vfn, align 8, !dbg !2413
  %call7 = invoke %"class.xercesc_2_7::DOMText"* %4(%"class.xercesc_2_7::DOMDocument"* %2, i16* %call5)
          to label %invoke.cont6 unwind label %lpad, !dbg !2413

invoke.cont6:                                     ; preds = %invoke.cont4
  %5 = bitcast %"class.xercesc_2_7::DOMText"* %call7 to %"class.xercesc_2_7::DOMNode"*, !dbg !2410
  invoke void @_ZN11xalanc_1_1020FormatterToXercesDOM6appendEPN11xercesc_2_77DOMNodeE(%"class.xalanc_1_10::FormatterToXercesDOM"* %this1, %"class.xercesc_2_7::DOMNode"* %5)
          to label %invoke.cont8 unwind label %lpad, !dbg !2414

invoke.cont8:                                     ; preds = %invoke.cont6
  br label %try.cont, !dbg !2415

lpad:                                             ; preds = %invoke.cont6, %invoke.cont4, %invoke.cont2, %invoke.cont, %entry
  %6 = landingpad { i8*, i32 }
          catch i8* bitcast (i8** @_ZTIN11xercesc_2_712DOMExceptionE to i8*), !dbg !2416
  %7 = extractvalue { i8*, i32 } %6, 0, !dbg !2416
  store i8* %7, i8** %exn.slot, align 8, !dbg !2416
  %8 = extractvalue { i8*, i32 } %6, 1, !dbg !2416
  store i32 %8, i32* %ehselector.slot, align 4, !dbg !2416
  br label %catch.dispatch, !dbg !2416

catch.dispatch:                                   ; preds = %lpad
  %sel = load i32, i32* %ehselector.slot, align 4, !dbg !2415
  %9 = call i32 @llvm.eh.typeid.for(i8* bitcast (i8** @_ZTIN11xercesc_2_712DOMExceptionE to i8*)) #5, !dbg !2415
  %matches = icmp eq i32 %sel, %9, !dbg !2415
  br i1 %matches, label %catch, label %eh.resume, !dbg !2415

catch:                                            ; preds = %catch.dispatch
  call void @llvm.dbg.declare(metadata %"class.xercesc_2_7::DOMException"** %theException, metadata !2417, metadata !DIExpression()), !dbg !2418
  %exn = load i8*, i8** %exn.slot, align 8, !dbg !2415
  %10 = call i8* @__cxa_begin_catch(i8* %exn) #5, !dbg !2415
  %exn.byref = bitcast i8* %10 to %"class.xercesc_2_7::DOMException"*, !dbg !2415
  store %"class.xercesc_2_7::DOMException"* %exn.byref, %"class.xercesc_2_7::DOMException"** %theException, align 8, !dbg !2415
  %exception = call i8* @__cxa_allocate_exception(i64 16) #5, !dbg !2419
  %11 = bitcast i8* %exception to %"class.xalanc_1_10::XercesDOMException"*, !dbg !2419
  %12 = load %"class.xercesc_2_7::DOMException"*, %"class.xercesc_2_7::DOMException"** %theException, align 8, !dbg !2421
  invoke void @_ZN11xalanc_1_1018XercesDOMExceptionC1ERKN11xercesc_2_712DOMExceptionE(%"class.xalanc_1_10::XercesDOMException"* %11, %"class.xercesc_2_7::DOMException"* dereferenceable(40) %12)
          to label %invoke.cont10 unwind label %lpad9, !dbg !2422

invoke.cont10:                                    ; preds = %catch
  invoke void @__cxa_throw(i8* %exception, i8* bitcast (i8** @_ZTIN11xalanc_1_1018XercesDOMExceptionE to i8*), i8* bitcast (void (%"class.xalanc_1_10::XercesDOMException"*)* @_ZN11xalanc_1_1018XercesDOMExceptionD1Ev to i8*)) #12
          to label %unreachable unwind label %lpad11, !dbg !2419

lpad9:                                            ; preds = %catch
  %13 = landingpad { i8*, i32 }
          cleanup, !dbg !2423
  %14 = extractvalue { i8*, i32 } %13, 0, !dbg !2423
  store i8* %14, i8** %exn.slot, align 8, !dbg !2423
  %15 = extractvalue { i8*, i32 } %13, 1, !dbg !2423
  store i32 %15, i32* %ehselector.slot, align 4, !dbg !2423
  call void @__cxa_free_exception(i8* %exception) #5, !dbg !2419
  br label %ehcleanup, !dbg !2419

lpad11:                                           ; preds = %invoke.cont10
  %16 = landingpad { i8*, i32 }
          cleanup, !dbg !2423
  %17 = extractvalue { i8*, i32 } %16, 0, !dbg !2423
  store i8* %17, i8** %exn.slot, align 8, !dbg !2423
  %18 = extractvalue { i8*, i32 } %16, 1, !dbg !2423
  store i32 %18, i32* %ehselector.slot, align 4, !dbg !2423
  br label %ehcleanup, !dbg !2423

ehcleanup:                                        ; preds = %lpad11, %lpad9
  invoke void @__cxa_end_catch()
          to label %invoke.cont12 unwind label %terminate.lpad, !dbg !2424

invoke.cont12:                                    ; preds = %ehcleanup
  br label %eh.resume, !dbg !2424

try.cont:                                         ; preds = %invoke.cont8
  ret void, !dbg !2425

eh.resume:                                        ; preds = %invoke.cont12, %catch.dispatch
  %exn13 = load i8*, i8** %exn.slot, align 8, !dbg !2415
  %sel14 = load i32, i32* %ehselector.slot, align 4, !dbg !2415
  %lpad.val = insertvalue { i8*, i32 } undef, i8* %exn13, 0, !dbg !2415
  %lpad.val15 = insertvalue { i8*, i32 } %lpad.val, i32 %sel14, 1, !dbg !2415
  resume { i8*, i32 } %lpad.val15, !dbg !2415

terminate.lpad:                                   ; preds = %ehcleanup
  %19 = landingpad { i8*, i32 }
          catch i8* null, !dbg !2424
  %20 = extractvalue { i8*, i32 } %19, 0, !dbg !2424
  call void @__clang_call_terminate(i8* %20) #11, !dbg !2424
  unreachable, !dbg !2424

unreachable:                                      ; preds = %invoke.cont10
  unreachable
}

; Function Attrs: noinline uwtable
define linkonce_odr dso_local dereferenceable(40) %"class.xalanc_1_10::XalanDOMString"* @_ZN11xalanc_1_106assignERNS_14XalanDOMStringEPKtj(%"class.xalanc_1_10::XalanDOMString"* dereferenceable(40) %theString, i16* %theStringToAssign, i32 %theStringToAssignLength) #3 comdat !dbg !2426 {
entry:
  %theString.addr = alloca %"class.xalanc_1_10::XalanDOMString"*, align 8
  %theStringToAssign.addr = alloca i16*, align 8
  %theStringToAssignLength.addr = alloca i32, align 4
  store %"class.xalanc_1_10::XalanDOMString"* %theString, %"class.xalanc_1_10::XalanDOMString"** %theString.addr, align 8
  call void @llvm.dbg.declare(metadata %"class.xalanc_1_10::XalanDOMString"** %theString.addr, metadata !2429, metadata !DIExpression()), !dbg !2430
  store i16* %theStringToAssign, i16** %theStringToAssign.addr, align 8
  call void @llvm.dbg.declare(metadata i16** %theStringToAssign.addr, metadata !2431, metadata !DIExpression()), !dbg !2432
  store i32 %theStringToAssignLength, i32* %theStringToAssignLength.addr, align 4
  call void @llvm.dbg.declare(metadata i32* %theStringToAssignLength.addr, metadata !2433, metadata !DIExpression()), !dbg !2434
  %0 = load i32, i32* %theStringToAssignLength.addr, align 4, !dbg !2435
  %cmp = icmp eq i32 %0, -1, !dbg !2437
  br i1 %cmp, label %if.then, label %if.else, !dbg !2438

if.then:                                          ; preds = %entry
  %1 = load %"class.xalanc_1_10::XalanDOMString"*, %"class.xalanc_1_10::XalanDOMString"** %theString.addr, align 8, !dbg !2439
  %2 = load i16*, i16** %theStringToAssign.addr, align 8, !dbg !2441
  %call = call dereferenceable(40) %"class.xalanc_1_10::XalanDOMString"* @_ZN11xalanc_1_1014XalanDOMString6assignEPKt(%"class.xalanc_1_10::XalanDOMString"* %1, i16* %2), !dbg !2442
  br label %if.end, !dbg !2443

if.else:                                          ; preds = %entry
  %3 = load %"class.xalanc_1_10::XalanDOMString"*, %"class.xalanc_1_10::XalanDOMString"** %theString.addr, align 8, !dbg !2444
  %4 = load i16*, i16** %theStringToAssign.addr, align 8, !dbg !2446
  %5 = load i32, i32* %theStringToAssignLength.addr, align 4, !dbg !2447
  %call1 = call dereferenceable(40) %"class.xalanc_1_10::XalanDOMString"* @_ZN11xalanc_1_1014XalanDOMString6assignEPKtj(%"class.xalanc_1_10::XalanDOMString"* %3, i16* %4, i32 %5), !dbg !2448
  br label %if.end

if.end:                                           ; preds = %if.else, %if.then
  %6 = load %"class.xalanc_1_10::XalanDOMString"*, %"class.xalanc_1_10::XalanDOMString"** %theString.addr, align 8, !dbg !2449
  ret %"class.xalanc_1_10::XalanDOMString"* %6, !dbg !2450
}

; Function Attrs: noinline uwtable
define linkonce_odr dso_local i16* @_ZNK11xalanc_1_1014XalanDOMString5c_strEv(%"class.xalanc_1_10::XalanDOMString"* %this) #3 comdat align 2 !dbg !2451 {
entry:
  %this.addr = alloca %"class.xalanc_1_10::XalanDOMString"*, align 8
  store %"class.xalanc_1_10::XalanDOMString"* %this, %"class.xalanc_1_10::XalanDOMString"** %this.addr, align 8
  call void @llvm.dbg.declare(metadata %"class.xalanc_1_10::XalanDOMString"** %this.addr, metadata !2452, metadata !DIExpression()), !dbg !2453
  %this1 = load %"class.xalanc_1_10::XalanDOMString"*, %"class.xalanc_1_10::XalanDOMString"** %this.addr, align 8
  call void @_ZNK11xalanc_1_1014XalanDOMString10invariantsEv(%"class.xalanc_1_10::XalanDOMString"* %this1), !dbg !2454
  %m_data = getelementptr inbounds %"class.xalanc_1_10::XalanDOMString", %"class.xalanc_1_10::XalanDOMString"* %this1, i32 0, i32 0, !dbg !2455
  %call = call zeroext i1 @_ZNK11xalanc_1_1011XalanVectorItNS_31MemoryManagedConstructionTraitsItEEE5emptyEv(%"class.xalanc_1_10::XalanVector"* %m_data), !dbg !2456
  %conv = zext i1 %call to i32, !dbg !2455
  %cmp = icmp eq i32 %conv, 1, !dbg !2457
  br i1 %cmp, label %cond.true, label %cond.false, !dbg !2455

cond.true:                                        ; preds = %entry
  br label %cond.end, !dbg !2455

cond.false:                                       ; preds = %entry
  %m_data2 = getelementptr inbounds %"class.xalanc_1_10::XalanDOMString", %"class.xalanc_1_10::XalanDOMString"* %this1, i32 0, i32 0, !dbg !2458
  %call3 = call dereferenceable(2) i16* @_ZNK11xalanc_1_1011XalanVectorItNS_31MemoryManagedConstructionTraitsItEEEixEm(%"class.xalanc_1_10::XalanVector"* %m_data2, i64 0), !dbg !2458
  br label %cond.end, !dbg !2455

cond.end:                                         ; preds = %cond.false, %cond.true
  %cond = phi i16* [ @_ZN11xalanc_1_1014XalanDOMString7s_emptyE, %cond.true ], [ %call3, %cond.false ], !dbg !2455
  ret i16* %cond, !dbg !2459
}

; Function Attrs: noinline uwtable
define dso_local void @_ZN11xalanc_1_1020FormatterToXercesDOM21processingInstructionEPKtS2_(%"class.xalanc_1_10::FormatterToXercesDOM"* %this, i16* %target, i16* %data) unnamed_addr #3 align 2 personality i8* bitcast (i32 (...)* @__gxx_personality_v0 to i8*) !dbg !2460 {
entry:
  %this.addr = alloca %"class.xalanc_1_10::FormatterToXercesDOM"*, align 8
  %target.addr = alloca i16*, align 8
  %data.addr = alloca i16*, align 8
  %exn.slot = alloca i8*
  %ehselector.slot = alloca i32
  %theException = alloca %"class.xercesc_2_7::DOMException"*, align 8
  store %"class.xalanc_1_10::FormatterToXercesDOM"* %this, %"class.xalanc_1_10::FormatterToXercesDOM"** %this.addr, align 8
  call void @llvm.dbg.declare(metadata %"class.xalanc_1_10::FormatterToXercesDOM"** %this.addr, metadata !2461, metadata !DIExpression()), !dbg !2462
  store i16* %target, i16** %target.addr, align 8
  call void @llvm.dbg.declare(metadata i16** %target.addr, metadata !2463, metadata !DIExpression()), !dbg !2464
  store i16* %data, i16** %data.addr, align 8
  call void @llvm.dbg.declare(metadata i16** %data.addr, metadata !2465, metadata !DIExpression()), !dbg !2466
  %this1 = load %"class.xalanc_1_10::FormatterToXercesDOM"*, %"class.xalanc_1_10::FormatterToXercesDOM"** %this.addr, align 8
  invoke void @_ZN11xalanc_1_1020FormatterToXercesDOM22processAccumulatedTextEv(%"class.xalanc_1_10::FormatterToXercesDOM"* %this1)
          to label %invoke.cont unwind label %lpad, !dbg !2467

invoke.cont:                                      ; preds = %entry
  %m_doc = getelementptr inbounds %"class.xalanc_1_10::FormatterToXercesDOM", %"class.xalanc_1_10::FormatterToXercesDOM"* %this1, i32 0, i32 1, !dbg !2469
  %0 = load %"class.xercesc_2_7::DOMDocument"*, %"class.xercesc_2_7::DOMDocument"** %m_doc, align 8, !dbg !2469
  %1 = load i16*, i16** %target.addr, align 8, !dbg !2470
  %2 = load i16*, i16** %data.addr, align 8, !dbg !2471
  %3 = bitcast %"class.xercesc_2_7::DOMDocument"* %0 to %"class.xercesc_2_7::DOMProcessingInstruction"* (%"class.xercesc_2_7::DOMDocument"*, i16*, i16*)***, !dbg !2472
  %vtable = load %"class.xercesc_2_7::DOMProcessingInstruction"* (%"class.xercesc_2_7::DOMDocument"*, i16*, i16*)**, %"class.xercesc_2_7::DOMProcessingInstruction"* (%"class.xercesc_2_7::DOMDocument"*, i16*, i16*)*** %3, align 8, !dbg !2472
  %vfn = getelementptr inbounds %"class.xercesc_2_7::DOMProcessingInstruction"* (%"class.xercesc_2_7::DOMDocument"*, i16*, i16*)*, %"class.xercesc_2_7::DOMProcessingInstruction"* (%"class.xercesc_2_7::DOMDocument"*, i16*, i16*)** %vtable, i64 8, !dbg !2472
  %4 = load %"class.xercesc_2_7::DOMProcessingInstruction"* (%"class.xercesc_2_7::DOMDocument"*, i16*, i16*)*, %"class.xercesc_2_7::DOMProcessingInstruction"* (%"class.xercesc_2_7::DOMDocument"*, i16*, i16*)** %vfn, align 8, !dbg !2472
  %call = invoke %"class.xercesc_2_7::DOMProcessingInstruction"* %4(%"class.xercesc_2_7::DOMDocument"* %0, i16* %1, i16* %2)
          to label %invoke.cont2 unwind label %lpad, !dbg !2472

invoke.cont2:                                     ; preds = %invoke.cont
  %5 = bitcast %"class.xercesc_2_7::DOMProcessingInstruction"* %call to %"class.xercesc_2_7::DOMNode"*, !dbg !2469
  invoke void @_ZN11xalanc_1_1020FormatterToXercesDOM6appendEPN11xercesc_2_77DOMNodeE(%"class.xalanc_1_10::FormatterToXercesDOM"* %this1, %"class.xercesc_2_7::DOMNode"* %5)
          to label %invoke.cont3 unwind label %lpad, !dbg !2473

invoke.cont3:                                     ; preds = %invoke.cont2
  br label %try.cont, !dbg !2474

lpad:                                             ; preds = %invoke.cont2, %invoke.cont, %entry
  %6 = landingpad { i8*, i32 }
          catch i8* bitcast (i8** @_ZTIN11xercesc_2_712DOMExceptionE to i8*), !dbg !2475
  %7 = extractvalue { i8*, i32 } %6, 0, !dbg !2475
  store i8* %7, i8** %exn.slot, align 8, !dbg !2475
  %8 = extractvalue { i8*, i32 } %6, 1, !dbg !2475
  store i32 %8, i32* %ehselector.slot, align 4, !dbg !2475
  br label %catch.dispatch, !dbg !2475

catch.dispatch:                                   ; preds = %lpad
  %sel = load i32, i32* %ehselector.slot, align 4, !dbg !2474
  %9 = call i32 @llvm.eh.typeid.for(i8* bitcast (i8** @_ZTIN11xercesc_2_712DOMExceptionE to i8*)) #5, !dbg !2474
  %matches = icmp eq i32 %sel, %9, !dbg !2474
  br i1 %matches, label %catch, label %eh.resume, !dbg !2474

catch:                                            ; preds = %catch.dispatch
  call void @llvm.dbg.declare(metadata %"class.xercesc_2_7::DOMException"** %theException, metadata !2476, metadata !DIExpression()), !dbg !2477
  %exn = load i8*, i8** %exn.slot, align 8, !dbg !2474
  %10 = call i8* @__cxa_begin_catch(i8* %exn) #5, !dbg !2474
  %exn.byref = bitcast i8* %10 to %"class.xercesc_2_7::DOMException"*, !dbg !2474
  store %"class.xercesc_2_7::DOMException"* %exn.byref, %"class.xercesc_2_7::DOMException"** %theException, align 8, !dbg !2474
  %exception = call i8* @__cxa_allocate_exception(i64 16) #5, !dbg !2478
  %11 = bitcast i8* %exception to %"class.xalanc_1_10::XercesDOMException"*, !dbg !2478
  %12 = load %"class.xercesc_2_7::DOMException"*, %"class.xercesc_2_7::DOMException"** %theException, align 8, !dbg !2480
  invoke void @_ZN11xalanc_1_1018XercesDOMExceptionC1ERKN11xercesc_2_712DOMExceptionE(%"class.xalanc_1_10::XercesDOMException"* %11, %"class.xercesc_2_7::DOMException"* dereferenceable(40) %12)
          to label %invoke.cont5 unwind label %lpad4, !dbg !2481

invoke.cont5:                                     ; preds = %catch
  invoke void @__cxa_throw(i8* %exception, i8* bitcast (i8** @_ZTIN11xalanc_1_1018XercesDOMExceptionE to i8*), i8* bitcast (void (%"class.xalanc_1_10::XercesDOMException"*)* @_ZN11xalanc_1_1018XercesDOMExceptionD1Ev to i8*)) #12
          to label %unreachable unwind label %lpad6, !dbg !2478

lpad4:                                            ; preds = %catch
  %13 = landingpad { i8*, i32 }
          cleanup, !dbg !2482
  %14 = extractvalue { i8*, i32 } %13, 0, !dbg !2482
  store i8* %14, i8** %exn.slot, align 8, !dbg !2482
  %15 = extractvalue { i8*, i32 } %13, 1, !dbg !2482
  store i32 %15, i32* %ehselector.slot, align 4, !dbg !2482
  call void @__cxa_free_exception(i8* %exception) #5, !dbg !2478
  br label %ehcleanup, !dbg !2478

lpad6:                                            ; preds = %invoke.cont5
  %16 = landingpad { i8*, i32 }
          cleanup, !dbg !2482
  %17 = extractvalue { i8*, i32 } %16, 0, !dbg !2482
  store i8* %17, i8** %exn.slot, align 8, !dbg !2482
  %18 = extractvalue { i8*, i32 } %16, 1, !dbg !2482
  store i32 %18, i32* %ehselector.slot, align 4, !dbg !2482
  br label %ehcleanup, !dbg !2482

ehcleanup:                                        ; preds = %lpad6, %lpad4
  invoke void @__cxa_end_catch()
          to label %invoke.cont7 unwind label %terminate.lpad, !dbg !2483

invoke.cont7:                                     ; preds = %ehcleanup
  br label %eh.resume, !dbg !2483

try.cont:                                         ; preds = %invoke.cont3
  ret void, !dbg !2484

eh.resume:                                        ; preds = %invoke.cont7, %catch.dispatch
  %exn8 = load i8*, i8** %exn.slot, align 8, !dbg !2474
  %sel9 = load i32, i32* %ehselector.slot, align 4, !dbg !2474
  %lpad.val = insertvalue { i8*, i32 } undef, i8* %exn8, 0, !dbg !2474
  %lpad.val10 = insertvalue { i8*, i32 } %lpad.val, i32 %sel9, 1, !dbg !2474
  resume { i8*, i32 } %lpad.val10, !dbg !2474

terminate.lpad:                                   ; preds = %ehcleanup
  %19 = landingpad { i8*, i32 }
          catch i8* null, !dbg !2483
  %20 = extractvalue { i8*, i32 } %19, 0, !dbg !2483
  call void @__clang_call_terminate(i8* %20) #11, !dbg !2483
  unreachable, !dbg !2483

unreachable:                                      ; preds = %invoke.cont5
  unreachable
}

; Function Attrs: noinline nounwind uwtable
define dso_local void @_ZN11xalanc_1_1020FormatterToXercesDOM13resetDocumentEv(%"class.xalanc_1_10::FormatterToXercesDOM"* %this) unnamed_addr #1 align 2 !dbg !2485 {
entry:
  %this.addr = alloca %"class.xalanc_1_10::FormatterToXercesDOM"*, align 8
  store %"class.xalanc_1_10::FormatterToXercesDOM"* %this, %"class.xalanc_1_10::FormatterToXercesDOM"** %this.addr, align 8
  call void @llvm.dbg.declare(metadata %"class.xalanc_1_10::FormatterToXercesDOM"** %this.addr, metadata !2486, metadata !DIExpression()), !dbg !2487
  %this1 = load %"class.xalanc_1_10::FormatterToXercesDOM"*, %"class.xalanc_1_10::FormatterToXercesDOM"** %this.addr, align 8
  ret void, !dbg !2488
}

; Function Attrs: noinline uwtable
define dso_local void @_ZN11xalanc_1_1020FormatterToXercesDOM7commentEPKt(%"class.xalanc_1_10::FormatterToXercesDOM"* %this, i16* %data) unnamed_addr #3 align 2 personality i8* bitcast (i32 (...)* @__gxx_personality_v0 to i8*) !dbg !2489 {
entry:
  %this.addr = alloca %"class.xalanc_1_10::FormatterToXercesDOM"*, align 8
  %data.addr = alloca i16*, align 8
  %exn.slot = alloca i8*
  %ehselector.slot = alloca i32
  %theException = alloca %"class.xercesc_2_7::DOMException"*, align 8
  store %"class.xalanc_1_10::FormatterToXercesDOM"* %this, %"class.xalanc_1_10::FormatterToXercesDOM"** %this.addr, align 8
  call void @llvm.dbg.declare(metadata %"class.xalanc_1_10::FormatterToXercesDOM"** %this.addr, metadata !2490, metadata !DIExpression()), !dbg !2491
  store i16* %data, i16** %data.addr, align 8
  call void @llvm.dbg.declare(metadata i16** %data.addr, metadata !2492, metadata !DIExpression()), !dbg !2493
  %this1 = load %"class.xalanc_1_10::FormatterToXercesDOM"*, %"class.xalanc_1_10::FormatterToXercesDOM"** %this.addr, align 8
  invoke void @_ZN11xalanc_1_1020FormatterToXercesDOM22processAccumulatedTextEv(%"class.xalanc_1_10::FormatterToXercesDOM"* %this1)
          to label %invoke.cont unwind label %lpad, !dbg !2494

invoke.cont:                                      ; preds = %entry
  %m_doc = getelementptr inbounds %"class.xalanc_1_10::FormatterToXercesDOM", %"class.xalanc_1_10::FormatterToXercesDOM"* %this1, i32 0, i32 1, !dbg !2496
  %0 = load %"class.xercesc_2_7::DOMDocument"*, %"class.xercesc_2_7::DOMDocument"** %m_doc, align 8, !dbg !2496
  %1 = load i16*, i16** %data.addr, align 8, !dbg !2497
  %2 = bitcast %"class.xercesc_2_7::DOMDocument"* %0 to %"class.xercesc_2_7::DOMComment"* (%"class.xercesc_2_7::DOMDocument"*, i16*)***, !dbg !2498
  %vtable = load %"class.xercesc_2_7::DOMComment"* (%"class.xercesc_2_7::DOMDocument"*, i16*)**, %"class.xercesc_2_7::DOMComment"* (%"class.xercesc_2_7::DOMDocument"*, i16*)*** %2, align 8, !dbg !2498
  %vfn = getelementptr inbounds %"class.xercesc_2_7::DOMComment"* (%"class.xercesc_2_7::DOMDocument"*, i16*)*, %"class.xercesc_2_7::DOMComment"* (%"class.xercesc_2_7::DOMDocument"*, i16*)** %vtable, i64 6, !dbg !2498
  %3 = load %"class.xercesc_2_7::DOMComment"* (%"class.xercesc_2_7::DOMDocument"*, i16*)*, %"class.xercesc_2_7::DOMComment"* (%"class.xercesc_2_7::DOMDocument"*, i16*)** %vfn, align 8, !dbg !2498
  %call = invoke %"class.xercesc_2_7::DOMComment"* %3(%"class.xercesc_2_7::DOMDocument"* %0, i16* %1)
          to label %invoke.cont2 unwind label %lpad, !dbg !2498

invoke.cont2:                                     ; preds = %invoke.cont
  %4 = bitcast %"class.xercesc_2_7::DOMComment"* %call to %"class.xercesc_2_7::DOMNode"*, !dbg !2496
  invoke void @_ZN11xalanc_1_1020FormatterToXercesDOM6appendEPN11xercesc_2_77DOMNodeE(%"class.xalanc_1_10::FormatterToXercesDOM"* %this1, %"class.xercesc_2_7::DOMNode"* %4)
          to label %invoke.cont3 unwind label %lpad, !dbg !2499

invoke.cont3:                                     ; preds = %invoke.cont2
  br label %try.cont, !dbg !2500

lpad:                                             ; preds = %invoke.cont2, %invoke.cont, %entry
  %5 = landingpad { i8*, i32 }
          catch i8* bitcast (i8** @_ZTIN11xercesc_2_712DOMExceptionE to i8*), !dbg !2501
  %6 = extractvalue { i8*, i32 } %5, 0, !dbg !2501
  store i8* %6, i8** %exn.slot, align 8, !dbg !2501
  %7 = extractvalue { i8*, i32 } %5, 1, !dbg !2501
  store i32 %7, i32* %ehselector.slot, align 4, !dbg !2501
  br label %catch.dispatch, !dbg !2501

catch.dispatch:                                   ; preds = %lpad
  %sel = load i32, i32* %ehselector.slot, align 4, !dbg !2500
  %8 = call i32 @llvm.eh.typeid.for(i8* bitcast (i8** @_ZTIN11xercesc_2_712DOMExceptionE to i8*)) #5, !dbg !2500
  %matches = icmp eq i32 %sel, %8, !dbg !2500
  br i1 %matches, label %catch, label %eh.resume, !dbg !2500

catch:                                            ; preds = %catch.dispatch
  call void @llvm.dbg.declare(metadata %"class.xercesc_2_7::DOMException"** %theException, metadata !2502, metadata !DIExpression()), !dbg !2503
  %exn = load i8*, i8** %exn.slot, align 8, !dbg !2500
  %9 = call i8* @__cxa_begin_catch(i8* %exn) #5, !dbg !2500
  %exn.byref = bitcast i8* %9 to %"class.xercesc_2_7::DOMException"*, !dbg !2500
  store %"class.xercesc_2_7::DOMException"* %exn.byref, %"class.xercesc_2_7::DOMException"** %theException, align 8, !dbg !2500
  %exception = call i8* @__cxa_allocate_exception(i64 16) #5, !dbg !2504
  %10 = bitcast i8* %exception to %"class.xalanc_1_10::XercesDOMException"*, !dbg !2504
  %11 = load %"class.xercesc_2_7::DOMException"*, %"class.xercesc_2_7::DOMException"** %theException, align 8, !dbg !2506
  invoke void @_ZN11xalanc_1_1018XercesDOMExceptionC1ERKN11xercesc_2_712DOMExceptionE(%"class.xalanc_1_10::XercesDOMException"* %10, %"class.xercesc_2_7::DOMException"* dereferenceable(40) %11)
          to label %invoke.cont5 unwind label %lpad4, !dbg !2507

invoke.cont5:                                     ; preds = %catch
  invoke void @__cxa_throw(i8* %exception, i8* bitcast (i8** @_ZTIN11xalanc_1_1018XercesDOMExceptionE to i8*), i8* bitcast (void (%"class.xalanc_1_10::XercesDOMException"*)* @_ZN11xalanc_1_1018XercesDOMExceptionD1Ev to i8*)) #12
          to label %unreachable unwind label %lpad6, !dbg !2504

lpad4:                                            ; preds = %catch
  %12 = landingpad { i8*, i32 }
          cleanup, !dbg !2508
  %13 = extractvalue { i8*, i32 } %12, 0, !dbg !2508
  store i8* %13, i8** %exn.slot, align 8, !dbg !2508
  %14 = extractvalue { i8*, i32 } %12, 1, !dbg !2508
  store i32 %14, i32* %ehselector.slot, align 4, !dbg !2508
  call void @__cxa_free_exception(i8* %exception) #5, !dbg !2504
  br label %ehcleanup, !dbg !2504

lpad6:                                            ; preds = %invoke.cont5
  %15 = landingpad { i8*, i32 }
          cleanup, !dbg !2508
  %16 = extractvalue { i8*, i32 } %15, 0, !dbg !2508
  store i8* %16, i8** %exn.slot, align 8, !dbg !2508
  %17 = extractvalue { i8*, i32 } %15, 1, !dbg !2508
  store i32 %17, i32* %ehselector.slot, align 4, !dbg !2508
  br label %ehcleanup, !dbg !2508

ehcleanup:                                        ; preds = %lpad6, %lpad4
  invoke void @__cxa_end_catch()
          to label %invoke.cont7 unwind label %terminate.lpad, !dbg !2509

invoke.cont7:                                     ; preds = %ehcleanup
  br label %eh.resume, !dbg !2509

try.cont:                                         ; preds = %invoke.cont3
  ret void, !dbg !2510

eh.resume:                                        ; preds = %invoke.cont7, %catch.dispatch
  %exn8 = load i8*, i8** %exn.slot, align 8, !dbg !2500
  %sel9 = load i32, i32* %ehselector.slot, align 4, !dbg !2500
  %lpad.val = insertvalue { i8*, i32 } undef, i8* %exn8, 0, !dbg !2500
  %lpad.val10 = insertvalue { i8*, i32 } %lpad.val, i32 %sel9, 1, !dbg !2500
  resume { i8*, i32 } %lpad.val10, !dbg !2500

terminate.lpad:                                   ; preds = %ehcleanup
  %18 = landingpad { i8*, i32 }
          catch i8* null, !dbg !2509
  %19 = extractvalue { i8*, i32 } %18, 0, !dbg !2509
  call void @__clang_call_terminate(i8* %19) #11, !dbg !2509
  unreachable, !dbg !2509

unreachable:                                      ; preds = %invoke.cont5
  unreachable
}

; Function Attrs: noinline uwtable
define dso_local void @_ZN11xalanc_1_1020FormatterToXercesDOM5cdataEPKtj(%"class.xalanc_1_10::FormatterToXercesDOM"* %this, i16* %ch, i32 %length) unnamed_addr #3 align 2 personality i8* bitcast (i32 (...)* @__gxx_personality_v0 to i8*) !dbg !2511 {
entry:
  %this.addr = alloca %"class.xalanc_1_10::FormatterToXercesDOM"*, align 8
  %ch.addr = alloca i16*, align 8
  %length.addr = alloca i32, align 4
  %exn.slot = alloca i8*
  %ehselector.slot = alloca i32
  %theException = alloca %"class.xercesc_2_7::DOMException"*, align 8
  store %"class.xalanc_1_10::FormatterToXercesDOM"* %this, %"class.xalanc_1_10::FormatterToXercesDOM"** %this.addr, align 8
  call void @llvm.dbg.declare(metadata %"class.xalanc_1_10::FormatterToXercesDOM"** %this.addr, metadata !2512, metadata !DIExpression()), !dbg !2513
  store i16* %ch, i16** %ch.addr, align 8
  call void @llvm.dbg.declare(metadata i16** %ch.addr, metadata !2514, metadata !DIExpression()), !dbg !2515
  store i32 %length, i32* %length.addr, align 4
  call void @llvm.dbg.declare(metadata i32* %length.addr, metadata !2516, metadata !DIExpression()), !dbg !2517
  %this1 = load %"class.xalanc_1_10::FormatterToXercesDOM"*, %"class.xalanc_1_10::FormatterToXercesDOM"** %this.addr, align 8
  invoke void @_ZN11xalanc_1_1020FormatterToXercesDOM22processAccumulatedTextEv(%"class.xalanc_1_10::FormatterToXercesDOM"* %this1)
          to label %invoke.cont unwind label %lpad, !dbg !2518

invoke.cont:                                      ; preds = %entry
  %m_buffer = getelementptr inbounds %"class.xalanc_1_10::FormatterToXercesDOM", %"class.xalanc_1_10::FormatterToXercesDOM"* %this1, i32 0, i32 5, !dbg !2520
  %0 = load i16*, i16** %ch.addr, align 8, !dbg !2521
  %1 = load i32, i32* %length.addr, align 4, !dbg !2522
  %call = invoke dereferenceable(40) %"class.xalanc_1_10::XalanDOMString"* @_ZN11xalanc_1_106assignERNS_14XalanDOMStringEPKtj(%"class.xalanc_1_10::XalanDOMString"* dereferenceable(40) %m_buffer, i16* %0, i32 %1)
          to label %invoke.cont2 unwind label %lpad, !dbg !2523

invoke.cont2:                                     ; preds = %invoke.cont
  %m_doc = getelementptr inbounds %"class.xalanc_1_10::FormatterToXercesDOM", %"class.xalanc_1_10::FormatterToXercesDOM"* %this1, i32 0, i32 1, !dbg !2524
  %2 = load %"class.xercesc_2_7::DOMDocument"*, %"class.xercesc_2_7::DOMDocument"** %m_doc, align 8, !dbg !2524
  %m_buffer3 = getelementptr inbounds %"class.xalanc_1_10::FormatterToXercesDOM", %"class.xalanc_1_10::FormatterToXercesDOM"* %this1, i32 0, i32 5, !dbg !2525
  %call5 = invoke i16* @_ZNK11xalanc_1_1014XalanDOMString5c_strEv(%"class.xalanc_1_10::XalanDOMString"* %m_buffer3)
          to label %invoke.cont4 unwind label %lpad, !dbg !2526

invoke.cont4:                                     ; preds = %invoke.cont2
  %3 = bitcast %"class.xercesc_2_7::DOMDocument"* %2 to %"class.xercesc_2_7::DOMCDATASection"* (%"class.xercesc_2_7::DOMDocument"*, i16*)***, !dbg !2527
  %vtable = load %"class.xercesc_2_7::DOMCDATASection"* (%"class.xercesc_2_7::DOMDocument"*, i16*)**, %"class.xercesc_2_7::DOMCDATASection"* (%"class.xercesc_2_7::DOMDocument"*, i16*)*** %3, align 8, !dbg !2527
  %vfn = getelementptr inbounds %"class.xercesc_2_7::DOMCDATASection"* (%"class.xercesc_2_7::DOMDocument"*, i16*)*, %"class.xercesc_2_7::DOMCDATASection"* (%"class.xercesc_2_7::DOMDocument"*, i16*)** %vtable, i64 7, !dbg !2527
  %4 = load %"class.xercesc_2_7::DOMCDATASection"* (%"class.xercesc_2_7::DOMDocument"*, i16*)*, %"class.xercesc_2_7::DOMCDATASection"* (%"class.xercesc_2_7::DOMDocument"*, i16*)** %vfn, align 8, !dbg !2527
  %call7 = invoke %"class.xercesc_2_7::DOMCDATASection"* %4(%"class.xercesc_2_7::DOMDocument"* %2, i16* %call5)
          to label %invoke.cont6 unwind label %lpad, !dbg !2527

invoke.cont6:                                     ; preds = %invoke.cont4
  %5 = bitcast %"class.xercesc_2_7::DOMCDATASection"* %call7 to %"class.xercesc_2_7::DOMNode"*, !dbg !2524
  invoke void @_ZN11xalanc_1_1020FormatterToXercesDOM6appendEPN11xercesc_2_77DOMNodeE(%"class.xalanc_1_10::FormatterToXercesDOM"* %this1, %"class.xercesc_2_7::DOMNode"* %5)
          to label %invoke.cont8 unwind label %lpad, !dbg !2528

invoke.cont8:                                     ; preds = %invoke.cont6
  br label %try.cont, !dbg !2529

lpad:                                             ; preds = %invoke.cont6, %invoke.cont4, %invoke.cont2, %invoke.cont, %entry
  %6 = landingpad { i8*, i32 }
          catch i8* bitcast (i8** @_ZTIN11xercesc_2_712DOMExceptionE to i8*), !dbg !2530
  %7 = extractvalue { i8*, i32 } %6, 0, !dbg !2530
  store i8* %7, i8** %exn.slot, align 8, !dbg !2530
  %8 = extractvalue { i8*, i32 } %6, 1, !dbg !2530
  store i32 %8, i32* %ehselector.slot, align 4, !dbg !2530
  br label %catch.dispatch, !dbg !2530

catch.dispatch:                                   ; preds = %lpad
  %sel = load i32, i32* %ehselector.slot, align 4, !dbg !2529
  %9 = call i32 @llvm.eh.typeid.for(i8* bitcast (i8** @_ZTIN11xercesc_2_712DOMExceptionE to i8*)) #5, !dbg !2529
  %matches = icmp eq i32 %sel, %9, !dbg !2529
  br i1 %matches, label %catch, label %eh.resume, !dbg !2529

catch:                                            ; preds = %catch.dispatch
  call void @llvm.dbg.declare(metadata %"class.xercesc_2_7::DOMException"** %theException, metadata !2531, metadata !DIExpression()), !dbg !2532
  %exn = load i8*, i8** %exn.slot, align 8, !dbg !2529
  %10 = call i8* @__cxa_begin_catch(i8* %exn) #5, !dbg !2529
  %exn.byref = bitcast i8* %10 to %"class.xercesc_2_7::DOMException"*, !dbg !2529
  store %"class.xercesc_2_7::DOMException"* %exn.byref, %"class.xercesc_2_7::DOMException"** %theException, align 8, !dbg !2529
  %exception = call i8* @__cxa_allocate_exception(i64 16) #5, !dbg !2533
  %11 = bitcast i8* %exception to %"class.xalanc_1_10::XercesDOMException"*, !dbg !2533
  %12 = load %"class.xercesc_2_7::DOMException"*, %"class.xercesc_2_7::DOMException"** %theException, align 8, !dbg !2535
  invoke void @_ZN11xalanc_1_1018XercesDOMExceptionC1ERKN11xercesc_2_712DOMExceptionE(%"class.xalanc_1_10::XercesDOMException"* %11, %"class.xercesc_2_7::DOMException"* dereferenceable(40) %12)
          to label %invoke.cont10 unwind label %lpad9, !dbg !2536

invoke.cont10:                                    ; preds = %catch
  invoke void @__cxa_throw(i8* %exception, i8* bitcast (i8** @_ZTIN11xalanc_1_1018XercesDOMExceptionE to i8*), i8* bitcast (void (%"class.xalanc_1_10::XercesDOMException"*)* @_ZN11xalanc_1_1018XercesDOMExceptionD1Ev to i8*)) #12
          to label %unreachable unwind label %lpad11, !dbg !2533

lpad9:                                            ; preds = %catch
  %13 = landingpad { i8*, i32 }
          cleanup, !dbg !2537
  %14 = extractvalue { i8*, i32 } %13, 0, !dbg !2537
  store i8* %14, i8** %exn.slot, align 8, !dbg !2537
  %15 = extractvalue { i8*, i32 } %13, 1, !dbg !2537
  store i32 %15, i32* %ehselector.slot, align 4, !dbg !2537
  call void @__cxa_free_exception(i8* %exception) #5, !dbg !2533
  br label %ehcleanup, !dbg !2533

lpad11:                                           ; preds = %invoke.cont10
  %16 = landingpad { i8*, i32 }
          cleanup, !dbg !2537
  %17 = extractvalue { i8*, i32 } %16, 0, !dbg !2537
  store i8* %17, i8** %exn.slot, align 8, !dbg !2537
  %18 = extractvalue { i8*, i32 } %16, 1, !dbg !2537
  store i32 %18, i32* %ehselector.slot, align 4, !dbg !2537
  br label %ehcleanup, !dbg !2537

ehcleanup:                                        ; preds = %lpad11, %lpad9
  invoke void @__cxa_end_catch()
          to label %invoke.cont12 unwind label %terminate.lpad, !dbg !2538

invoke.cont12:                                    ; preds = %ehcleanup
  br label %eh.resume, !dbg !2538

try.cont:                                         ; preds = %invoke.cont8
  ret void, !dbg !2539

eh.resume:                                        ; preds = %invoke.cont12, %catch.dispatch
  %exn13 = load i8*, i8** %exn.slot, align 8, !dbg !2529
  %sel14 = load i32, i32* %ehselector.slot, align 4, !dbg !2529
  %lpad.val = insertvalue { i8*, i32 } undef, i8* %exn13, 0, !dbg !2529
  %lpad.val15 = insertvalue { i8*, i32 } %lpad.val, i32 %sel14, 1, !dbg !2529
  resume { i8*, i32 } %lpad.val15, !dbg !2529

terminate.lpad:                                   ; preds = %ehcleanup
  %19 = landingpad { i8*, i32 }
          catch i8* null, !dbg !2538
  %20 = extractvalue { i8*, i32 } %19, 0, !dbg !2538
  call void @__clang_call_terminate(i8* %20) #11, !dbg !2538
  unreachable, !dbg !2538

unreachable:                                      ; preds = %invoke.cont10
  unreachable
}

; Function Attrs: noinline uwtable
define dso_local void @_ZN11xalanc_1_1020FormatterToXercesDOM13addAttributesEPN11xercesc_2_710DOMElementERNS1_13AttributeListE(%"class.xalanc_1_10::FormatterToXercesDOM"* %this, %"class.xercesc_2_7::DOMElement"* %theElement, %"class.xercesc_2_7::AttributeList"* dereferenceable(8) %attrs) #3 align 2 !dbg !2540 {
entry:
  %this.addr = alloca %"class.xalanc_1_10::FormatterToXercesDOM"*, align 8
  %theElement.addr = alloca %"class.xercesc_2_7::DOMElement"*, align 8
  %attrs.addr = alloca %"class.xercesc_2_7::AttributeList"*, align 8
  %nAtts = alloca i32, align 4
  %i = alloca i32, align 4
  %i11 = alloca i32, align 4
  %theName = alloca i16*, align 8
  %theNamespace = alloca %"class.xalanc_1_10::XalanDOMString"*, align 8
  store %"class.xalanc_1_10::FormatterToXercesDOM"* %this, %"class.xalanc_1_10::FormatterToXercesDOM"** %this.addr, align 8
  call void @llvm.dbg.declare(metadata %"class.xalanc_1_10::FormatterToXercesDOM"** %this.addr, metadata !2541, metadata !DIExpression()), !dbg !2542
  store %"class.xercesc_2_7::DOMElement"* %theElement, %"class.xercesc_2_7::DOMElement"** %theElement.addr, align 8
  call void @llvm.dbg.declare(metadata %"class.xercesc_2_7::DOMElement"** %theElement.addr, metadata !2543, metadata !DIExpression()), !dbg !2544
  store %"class.xercesc_2_7::AttributeList"* %attrs, %"class.xercesc_2_7::AttributeList"** %attrs.addr, align 8
  call void @llvm.dbg.declare(metadata %"class.xercesc_2_7::AttributeList"** %attrs.addr, metadata !2545, metadata !DIExpression()), !dbg !2546
  %this1 = load %"class.xalanc_1_10::FormatterToXercesDOM"*, %"class.xalanc_1_10::FormatterToXercesDOM"** %this.addr, align 8
  call void @llvm.dbg.declare(metadata i32* %nAtts, metadata !2547, metadata !DIExpression()), !dbg !2548
  %0 = load %"class.xercesc_2_7::AttributeList"*, %"class.xercesc_2_7::AttributeList"** %attrs.addr, align 8, !dbg !2549
  %1 = bitcast %"class.xercesc_2_7::AttributeList"* %0 to i32 (%"class.xercesc_2_7::AttributeList"*)***, !dbg !2550
  %vtable = load i32 (%"class.xercesc_2_7::AttributeList"*)**, i32 (%"class.xercesc_2_7::AttributeList"*)*** %1, align 8, !dbg !2550
  %vfn = getelementptr inbounds i32 (%"class.xercesc_2_7::AttributeList"*)*, i32 (%"class.xercesc_2_7::AttributeList"*)** %vtable, i64 2, !dbg !2550
  %2 = load i32 (%"class.xercesc_2_7::AttributeList"*)*, i32 (%"class.xercesc_2_7::AttributeList"*)** %vfn, align 8, !dbg !2550
  %call = call i32 %2(%"class.xercesc_2_7::AttributeList"* %0), !dbg !2550
  store i32 %call, i32* %nAtts, align 4, !dbg !2548
  %3 = bitcast %"class.xalanc_1_10::FormatterToXercesDOM"* %this1 to %"class.xalanc_1_10::FormatterListener"*, !dbg !2551
  %m_prefixResolver = getelementptr inbounds %"class.xalanc_1_10::FormatterListener", %"class.xalanc_1_10::FormatterListener"* %3, i32 0, i32 1, !dbg !2551
  %4 = load %"class.xalanc_1_10::PrefixResolver"*, %"class.xalanc_1_10::PrefixResolver"** %m_prefixResolver, align 8, !dbg !2551
  %cmp = icmp eq %"class.xalanc_1_10::PrefixResolver"* %4, null, !dbg !2553
  br i1 %cmp, label %if.then, label %if.else, !dbg !2554

if.then:                                          ; preds = %entry
  call void @llvm.dbg.declare(metadata i32* %i, metadata !2555, metadata !DIExpression()), !dbg !2558
  store i32 0, i32* %i, align 4, !dbg !2558
  br label %for.cond, !dbg !2559

for.cond:                                         ; preds = %for.inc, %if.then
  %5 = load i32, i32* %i, align 4, !dbg !2560
  %6 = load i32, i32* %nAtts, align 4, !dbg !2562
  %cmp2 = icmp ult i32 %5, %6, !dbg !2563
  br i1 %cmp2, label %for.body, label %for.end, !dbg !2564

for.body:                                         ; preds = %for.cond
  %7 = load %"class.xercesc_2_7::DOMElement"*, %"class.xercesc_2_7::DOMElement"** %theElement.addr, align 8, !dbg !2565
  %8 = load %"class.xercesc_2_7::AttributeList"*, %"class.xercesc_2_7::AttributeList"** %attrs.addr, align 8, !dbg !2567
  %9 = load i32, i32* %i, align 4, !dbg !2568
  %10 = bitcast %"class.xercesc_2_7::AttributeList"* %8 to i16* (%"class.xercesc_2_7::AttributeList"*, i32)***, !dbg !2569
  %vtable3 = load i16* (%"class.xercesc_2_7::AttributeList"*, i32)**, i16* (%"class.xercesc_2_7::AttributeList"*, i32)*** %10, align 8, !dbg !2569
  %vfn4 = getelementptr inbounds i16* (%"class.xercesc_2_7::AttributeList"*, i32)*, i16* (%"class.xercesc_2_7::AttributeList"*, i32)** %vtable3, i64 3, !dbg !2569
  %11 = load i16* (%"class.xercesc_2_7::AttributeList"*, i32)*, i16* (%"class.xercesc_2_7::AttributeList"*, i32)** %vfn4, align 8, !dbg !2569
  %call5 = call i16* %11(%"class.xercesc_2_7::AttributeList"* %8, i32 %9), !dbg !2569
  %12 = load %"class.xercesc_2_7::AttributeList"*, %"class.xercesc_2_7::AttributeList"** %attrs.addr, align 8, !dbg !2570
  %13 = load i32, i32* %i, align 4, !dbg !2571
  %14 = bitcast %"class.xercesc_2_7::AttributeList"* %12 to i16* (%"class.xercesc_2_7::AttributeList"*, i32)***, !dbg !2572
  %vtable6 = load i16* (%"class.xercesc_2_7::AttributeList"*, i32)**, i16* (%"class.xercesc_2_7::AttributeList"*, i32)*** %14, align 8, !dbg !2572
  %vfn7 = getelementptr inbounds i16* (%"class.xercesc_2_7::AttributeList"*, i32)*, i16* (%"class.xercesc_2_7::AttributeList"*, i32)** %vtable6, i64 5, !dbg !2572
  %15 = load i16* (%"class.xercesc_2_7::AttributeList"*, i32)*, i16* (%"class.xercesc_2_7::AttributeList"*, i32)** %vfn7, align 8, !dbg !2572
  %call8 = call i16* %15(%"class.xercesc_2_7::AttributeList"* %12, i32 %13), !dbg !2572
  %16 = bitcast %"class.xercesc_2_7::DOMElement"* %7 to void (%"class.xercesc_2_7::DOMElement"*, i16*, i16*)***, !dbg !2573
  %vtable9 = load void (%"class.xercesc_2_7::DOMElement"*, i16*, i16*)**, void (%"class.xercesc_2_7::DOMElement"*, i16*, i16*)*** %16, align 8, !dbg !2573
  %vfn10 = getelementptr inbounds void (%"class.xercesc_2_7::DOMElement"*, i16*, i16*)*, void (%"class.xercesc_2_7::DOMElement"*, i16*, i16*)** %vtable9, i64 44, !dbg !2573
  %17 = load void (%"class.xercesc_2_7::DOMElement"*, i16*, i16*)*, void (%"class.xercesc_2_7::DOMElement"*, i16*, i16*)** %vfn10, align 8, !dbg !2573
  call void %17(%"class.xercesc_2_7::DOMElement"* %7, i16* %call5, i16* %call8), !dbg !2573
  br label %for.inc, !dbg !2574

for.inc:                                          ; preds = %for.body
  %18 = load i32, i32* %i, align 4, !dbg !2575
  %inc = add i32 %18, 1, !dbg !2575
  store i32 %inc, i32* %i, align 4, !dbg !2575
  br label %for.cond, !dbg !2576, !llvm.loop !2577

for.end:                                          ; preds = %for.cond
  br label %if.end39, !dbg !2579

if.else:                                          ; preds = %entry
  call void @llvm.dbg.declare(metadata i32* %i11, metadata !2580, metadata !DIExpression()), !dbg !2583
  store i32 0, i32* %i11, align 4, !dbg !2583
  br label %for.cond12, !dbg !2584

for.cond12:                                       ; preds = %for.inc36, %if.else
  %19 = load i32, i32* %i11, align 4, !dbg !2585
  %20 = load i32, i32* %nAtts, align 4, !dbg !2587
  %cmp13 = icmp ult i32 %19, %20, !dbg !2588
  br i1 %cmp13, label %for.body14, label %for.end38, !dbg !2589

for.body14:                                       ; preds = %for.cond12
  call void @llvm.dbg.declare(metadata i16** %theName, metadata !2590, metadata !DIExpression()), !dbg !2593
  %21 = load %"class.xercesc_2_7::AttributeList"*, %"class.xercesc_2_7::AttributeList"** %attrs.addr, align 8, !dbg !2594
  %22 = load i32, i32* %i11, align 4, !dbg !2595
  %23 = bitcast %"class.xercesc_2_7::AttributeList"* %21 to i16* (%"class.xercesc_2_7::AttributeList"*, i32)***, !dbg !2596
  %vtable15 = load i16* (%"class.xercesc_2_7::AttributeList"*, i32)**, i16* (%"class.xercesc_2_7::AttributeList"*, i32)*** %23, align 8, !dbg !2596
  %vfn16 = getelementptr inbounds i16* (%"class.xercesc_2_7::AttributeList"*, i32)*, i16* (%"class.xercesc_2_7::AttributeList"*, i32)** %vtable15, i64 3, !dbg !2596
  %24 = load i16* (%"class.xercesc_2_7::AttributeList"*, i32)*, i16* (%"class.xercesc_2_7::AttributeList"*, i32)** %vfn16, align 8, !dbg !2596
  %call17 = call i16* %24(%"class.xercesc_2_7::AttributeList"* %21, i32 %22), !dbg !2596
  store i16* %call17, i16** %theName, align 8, !dbg !2593
  call void @llvm.dbg.declare(metadata %"class.xalanc_1_10::XalanDOMString"** %theNamespace, metadata !2597, metadata !DIExpression()), !dbg !2598
  %25 = load i16*, i16** %theName, align 8, !dbg !2599
  %26 = bitcast %"class.xalanc_1_10::FormatterToXercesDOM"* %this1 to %"class.xalanc_1_10::FormatterListener"*, !dbg !2600
  %m_prefixResolver18 = getelementptr inbounds %"class.xalanc_1_10::FormatterListener", %"class.xalanc_1_10::FormatterListener"* %26, i32 0, i32 1, !dbg !2600
  %27 = load %"class.xalanc_1_10::PrefixResolver"*, %"class.xalanc_1_10::PrefixResolver"** %m_prefixResolver18, align 8, !dbg !2600
  %m_buffer = getelementptr inbounds %"class.xalanc_1_10::FormatterToXercesDOM", %"class.xalanc_1_10::FormatterToXercesDOM"* %this1, i32 0, i32 5, !dbg !2601
  %call19 = call %"class.xalanc_1_10::XalanDOMString"* @_ZN11xalanc_1_1011DOMServices21getNamespaceForPrefixEPKtRKNS_14PrefixResolverEbRNS_14XalanDOMStringE(i16* %25, %"class.xalanc_1_10::PrefixResolver"* dereferenceable(8) %27, i1 zeroext true, %"class.xalanc_1_10::XalanDOMString"* dereferenceable(40) %m_buffer), !dbg !2602
  store %"class.xalanc_1_10::XalanDOMString"* %call19, %"class.xalanc_1_10::XalanDOMString"** %theNamespace, align 8, !dbg !2598
  %28 = load %"class.xalanc_1_10::XalanDOMString"*, %"class.xalanc_1_10::XalanDOMString"** %theNamespace, align 8, !dbg !2603
  %cmp20 = icmp eq %"class.xalanc_1_10::XalanDOMString"* %28, null, !dbg !2605
  br i1 %cmp20, label %if.then23, label %lor.lhs.false, !dbg !2606

lor.lhs.false:                                    ; preds = %for.body14
  %29 = load %"class.xalanc_1_10::XalanDOMString"*, %"class.xalanc_1_10::XalanDOMString"** %theNamespace, align 8, !dbg !2607
  %call21 = call i32 @_ZN11xalanc_1_106lengthERKNS_14XalanDOMStringE(%"class.xalanc_1_10::XalanDOMString"* dereferenceable(40) %29), !dbg !2608
  %cmp22 = icmp eq i32 %call21, 0, !dbg !2609
  br i1 %cmp22, label %if.then23, label %if.else29, !dbg !2610

if.then23:                                        ; preds = %lor.lhs.false, %for.body14
  %30 = load %"class.xercesc_2_7::DOMElement"*, %"class.xercesc_2_7::DOMElement"** %theElement.addr, align 8, !dbg !2611
  %31 = load i16*, i16** %theName, align 8, !dbg !2613
  %32 = load %"class.xercesc_2_7::AttributeList"*, %"class.xercesc_2_7::AttributeList"** %attrs.addr, align 8, !dbg !2614
  %33 = load i32, i32* %i11, align 4, !dbg !2615
  %34 = bitcast %"class.xercesc_2_7::AttributeList"* %32 to i16* (%"class.xercesc_2_7::AttributeList"*, i32)***, !dbg !2616
  %vtable24 = load i16* (%"class.xercesc_2_7::AttributeList"*, i32)**, i16* (%"class.xercesc_2_7::AttributeList"*, i32)*** %34, align 8, !dbg !2616
  %vfn25 = getelementptr inbounds i16* (%"class.xercesc_2_7::AttributeList"*, i32)*, i16* (%"class.xercesc_2_7::AttributeList"*, i32)** %vtable24, i64 5, !dbg !2616
  %35 = load i16* (%"class.xercesc_2_7::AttributeList"*, i32)*, i16* (%"class.xercesc_2_7::AttributeList"*, i32)** %vfn25, align 8, !dbg !2616
  %call26 = call i16* %35(%"class.xercesc_2_7::AttributeList"* %32, i32 %33), !dbg !2616
  %36 = bitcast %"class.xercesc_2_7::DOMElement"* %30 to void (%"class.xercesc_2_7::DOMElement"*, i16*, i16*)***, !dbg !2617
  %vtable27 = load void (%"class.xercesc_2_7::DOMElement"*, i16*, i16*)**, void (%"class.xercesc_2_7::DOMElement"*, i16*, i16*)*** %36, align 8, !dbg !2617
  %vfn28 = getelementptr inbounds void (%"class.xercesc_2_7::DOMElement"*, i16*, i16*)*, void (%"class.xercesc_2_7::DOMElement"*, i16*, i16*)** %vtable27, i64 44, !dbg !2617
  %37 = load void (%"class.xercesc_2_7::DOMElement"*, i16*, i16*)*, void (%"class.xercesc_2_7::DOMElement"*, i16*, i16*)** %vfn28, align 8, !dbg !2617
  call void %37(%"class.xercesc_2_7::DOMElement"* %30, i16* %31, i16* %call26), !dbg !2617
  br label %if.end, !dbg !2618

if.else29:                                        ; preds = %lor.lhs.false
  %38 = load %"class.xercesc_2_7::DOMElement"*, %"class.xercesc_2_7::DOMElement"** %theElement.addr, align 8, !dbg !2619
  %39 = load %"class.xalanc_1_10::XalanDOMString"*, %"class.xalanc_1_10::XalanDOMString"** %theNamespace, align 8, !dbg !2621
  %call30 = call i16* @_ZNK11xalanc_1_1014XalanDOMString5c_strEv(%"class.xalanc_1_10::XalanDOMString"* %39), !dbg !2622
  %40 = load i16*, i16** %theName, align 8, !dbg !2623
  %41 = load %"class.xercesc_2_7::AttributeList"*, %"class.xercesc_2_7::AttributeList"** %attrs.addr, align 8, !dbg !2624
  %42 = load i32, i32* %i11, align 4, !dbg !2625
  %43 = bitcast %"class.xercesc_2_7::AttributeList"* %41 to i16* (%"class.xercesc_2_7::AttributeList"*, i32)***, !dbg !2626
  %vtable31 = load i16* (%"class.xercesc_2_7::AttributeList"*, i32)**, i16* (%"class.xercesc_2_7::AttributeList"*, i32)*** %43, align 8, !dbg !2626
  %vfn32 = getelementptr inbounds i16* (%"class.xercesc_2_7::AttributeList"*, i32)*, i16* (%"class.xercesc_2_7::AttributeList"*, i32)** %vtable31, i64 5, !dbg !2626
  %44 = load i16* (%"class.xercesc_2_7::AttributeList"*, i32)*, i16* (%"class.xercesc_2_7::AttributeList"*, i32)** %vfn32, align 8, !dbg !2626
  %call33 = call i16* %44(%"class.xercesc_2_7::AttributeList"* %41, i32 %42), !dbg !2626
  %45 = bitcast %"class.xercesc_2_7::DOMElement"* %38 to void (%"class.xercesc_2_7::DOMElement"*, i16*, i16*, i16*)***, !dbg !2627
  %vtable34 = load void (%"class.xercesc_2_7::DOMElement"*, i16*, i16*, i16*)**, void (%"class.xercesc_2_7::DOMElement"*, i16*, i16*, i16*)*** %45, align 8, !dbg !2627
  %vfn35 = getelementptr inbounds void (%"class.xercesc_2_7::DOMElement"*, i16*, i16*, i16*)*, void (%"class.xercesc_2_7::DOMElement"*, i16*, i16*, i16*)** %vtable34, i64 49, !dbg !2627
  %46 = load void (%"class.xercesc_2_7::DOMElement"*, i16*, i16*, i16*)*, void (%"class.xercesc_2_7::DOMElement"*, i16*, i16*, i16*)** %vfn35, align 8, !dbg !2627
  call void %46(%"class.xercesc_2_7::DOMElement"* %38, i16* %call30, i16* %40, i16* %call33), !dbg !2627
  br label %if.end

if.end:                                           ; preds = %if.else29, %if.then23
  br label %for.inc36, !dbg !2628

for.inc36:                                        ; preds = %if.end
  %47 = load i32, i32* %i11, align 4, !dbg !2629
  %inc37 = add i32 %47, 1, !dbg !2629
  store i32 %inc37, i32* %i11, align 4, !dbg !2629
  br label %for.cond12, !dbg !2630, !llvm.loop !2631

for.end38:                                        ; preds = %for.cond12
  br label %if.end39

if.end39:                                         ; preds = %for.end38, %for.end
  ret void, !dbg !2633
}

declare dso_local %"class.xalanc_1_10::XalanDOMString"* @_ZN11xalanc_1_1011DOMServices21getNamespaceForPrefixEPKtRKNS_14PrefixResolverEbRNS_14XalanDOMStringE(i16*, %"class.xalanc_1_10::PrefixResolver"* dereferenceable(8), i1 zeroext, %"class.xalanc_1_10::XalanDOMString"* dereferenceable(40)) #4

; Function Attrs: noinline uwtable
define linkonce_odr dso_local i32 @_ZN11xalanc_1_106lengthERKNS_14XalanDOMStringE(%"class.xalanc_1_10::XalanDOMString"* dereferenceable(40) %theString) #3 comdat !dbg !2634 {
entry:
  %theString.addr = alloca %"class.xalanc_1_10::XalanDOMString"*, align 8
  store %"class.xalanc_1_10::XalanDOMString"* %theString, %"class.xalanc_1_10::XalanDOMString"** %theString.addr, align 8
  call void @llvm.dbg.declare(metadata %"class.xalanc_1_10::XalanDOMString"** %theString.addr, metadata !2637, metadata !DIExpression()), !dbg !2638
  %0 = load %"class.xalanc_1_10::XalanDOMString"*, %"class.xalanc_1_10::XalanDOMString"** %theString.addr, align 8, !dbg !2639
  %call = call i32 @_ZNK11xalanc_1_1014XalanDOMString6lengthEv(%"class.xalanc_1_10::XalanDOMString"* %0), !dbg !2640
  ret i32 %call, !dbg !2641
}

; Function Attrs: noinline uwtable
define linkonce_odr dso_local zeroext i1 @_ZN11xalanc_1_107isEmptyERKNS_14XalanDOMStringE(%"class.xalanc_1_10::XalanDOMString"* dereferenceable(40) %str) #3 comdat !dbg !2642 {
entry:
  %str.addr = alloca %"class.xalanc_1_10::XalanDOMString"*, align 8
  store %"class.xalanc_1_10::XalanDOMString"* %str, %"class.xalanc_1_10::XalanDOMString"** %str.addr, align 8
  call void @llvm.dbg.declare(metadata %"class.xalanc_1_10::XalanDOMString"** %str.addr, metadata !2645, metadata !DIExpression()), !dbg !2646
  %0 = load %"class.xalanc_1_10::XalanDOMString"*, %"class.xalanc_1_10::XalanDOMString"** %str.addr, align 8, !dbg !2647
  %call = call zeroext i1 @_ZNK11xalanc_1_1014XalanDOMString5emptyEv(%"class.xalanc_1_10::XalanDOMString"* %0), !dbg !2648
  ret i1 %call, !dbg !2649
}

; Function Attrs: noinline uwtable
define linkonce_odr dso_local void @_ZN11xalanc_1_105clearERNS_14XalanDOMStringE(%"class.xalanc_1_10::XalanDOMString"* dereferenceable(40) %theString) #3 comdat !dbg !2650 {
entry:
  %theString.addr = alloca %"class.xalanc_1_10::XalanDOMString"*, align 8
  store %"class.xalanc_1_10::XalanDOMString"* %theString, %"class.xalanc_1_10::XalanDOMString"** %theString.addr, align 8
  call void @llvm.dbg.declare(metadata %"class.xalanc_1_10::XalanDOMString"** %theString.addr, metadata !2653, metadata !DIExpression()), !dbg !2654
  %0 = load %"class.xalanc_1_10::XalanDOMString"*, %"class.xalanc_1_10::XalanDOMString"** %theString.addr, align 8, !dbg !2655
  call void @_ZN11xalanc_1_1014XalanDOMString5clearEv(%"class.xalanc_1_10::XalanDOMString"* %0), !dbg !2656
  ret void, !dbg !2657
}

declare dso_local %"class.xalanc_1_10::Writer"* @_ZNK11xalanc_1_1017FormatterListener9getWriterEv(%"class.xalanc_1_10::FormatterListener"*) unnamed_addr #4

declare dso_local dereferenceable(40) %"class.xalanc_1_10::XalanDOMString"* @_ZNK11xalanc_1_1017FormatterListener16getDoctypeSystemEv(%"class.xalanc_1_10::FormatterListener"*) unnamed_addr #4

declare dso_local dereferenceable(40) %"class.xalanc_1_10::XalanDOMString"* @_ZNK11xalanc_1_1017FormatterListener16getDoctypePublicEv(%"class.xalanc_1_10::FormatterListener"*) unnamed_addr #4

declare dso_local dereferenceable(40) %"class.xalanc_1_10::XalanDOMString"* @_ZNK11xalanc_1_1017FormatterListener11getEncodingEv(%"class.xalanc_1_10::FormatterListener"*) unnamed_addr #4

declare dso_local dereferenceable(40) %"class.xalanc_1_10::XalanDOMString"* @_ZNK11xalanc_1_1017FormatterListener12getMediaTypeEv(%"class.xalanc_1_10::FormatterListener"*) unnamed_addr #4

declare dso_local i32 @_ZNK11xalanc_1_1017FormatterListener9getIndentEv(%"class.xalanc_1_10::FormatterListener"*) unnamed_addr #4

; Function Attrs: noinline nounwind uwtable
define linkonce_odr dso_local void @_ZN11xalanc_1_1011XalanVectorItNS_31MemoryManagedConstructionTraitsItEEED2Ev(%"class.xalanc_1_10::XalanVector"* %this) unnamed_addr #1 comdat align 2 personality i8* bitcast (i32 (...)* @__gxx_personality_v0 to i8*) !dbg !2658 {
entry:
  %this.addr = alloca %"class.xalanc_1_10::XalanVector"*, align 8
  store %"class.xalanc_1_10::XalanVector"* %this, %"class.xalanc_1_10::XalanVector"** %this.addr, align 8
  call void @llvm.dbg.declare(metadata %"class.xalanc_1_10::XalanVector"** %this.addr, metadata !2659, metadata !DIExpression()), !dbg !2660
  %this1 = load %"class.xalanc_1_10::XalanVector"*, %"class.xalanc_1_10::XalanVector"** %this.addr, align 8
  invoke void @_ZNK11xalanc_1_1011XalanVectorItNS_31MemoryManagedConstructionTraitsItEEE10invariantsEv(%"class.xalanc_1_10::XalanVector"* %this1)
          to label %invoke.cont unwind label %terminate.lpad, !dbg !2661

invoke.cont:                                      ; preds = %entry
  %m_allocation = getelementptr inbounds %"class.xalanc_1_10::XalanVector", %"class.xalanc_1_10::XalanVector"* %this1, i32 0, i32 2, !dbg !2663
  %0 = load i64, i64* %m_allocation, align 8, !dbg !2663
  %cmp = icmp ne i64 %0, 0, !dbg !2665
  br i1 %cmp, label %if.then, label %if.end, !dbg !2666

if.then:                                          ; preds = %invoke.cont
  %call = invoke i16* @_ZN11xalanc_1_1011XalanVectorItNS_31MemoryManagedConstructionTraitsItEEE5beginEv(%"class.xalanc_1_10::XalanVector"* %this1)
          to label %invoke.cont2 unwind label %terminate.lpad, !dbg !2667

invoke.cont2:                                     ; preds = %if.then
  %call4 = invoke i16* @_ZN11xalanc_1_1011XalanVectorItNS_31MemoryManagedConstructionTraitsItEEE3endEv(%"class.xalanc_1_10::XalanVector"* %this1)
          to label %invoke.cont3 unwind label %terminate.lpad, !dbg !2669

invoke.cont3:                                     ; preds = %invoke.cont2
  invoke void @_ZN11xalanc_1_1011XalanVectorItNS_31MemoryManagedConstructionTraitsItEEE7destroyEPtS4_(i16* %call, i16* %call4)
          to label %invoke.cont5 unwind label %terminate.lpad, !dbg !2670

invoke.cont5:                                     ; preds = %invoke.cont3
  %m_data = getelementptr inbounds %"class.xalanc_1_10::XalanVector", %"class.xalanc_1_10::XalanVector"* %this1, i32 0, i32 3, !dbg !2671
  %1 = load i16*, i16** %m_data, align 8, !dbg !2671
  invoke void @_ZN11xalanc_1_1011XalanVectorItNS_31MemoryManagedConstructionTraitsItEEE10deallocateEPt(%"class.xalanc_1_10::XalanVector"* %this1, i16* %1)
          to label %invoke.cont6 unwind label %terminate.lpad, !dbg !2672

invoke.cont6:                                     ; preds = %invoke.cont5
  br label %if.end, !dbg !2673

if.end:                                           ; preds = %invoke.cont6, %invoke.cont
  ret void, !dbg !2674

terminate.lpad:                                   ; preds = %invoke.cont5, %invoke.cont3, %invoke.cont2, %if.then, %entry
  %2 = landingpad { i8*, i32 }
          catch i8* null, !dbg !2661
  %3 = extractvalue { i8*, i32 } %2, 0, !dbg !2661
  call void @__clang_call_terminate(i8* %3) #11, !dbg !2661
  unreachable, !dbg !2661
}

; Function Attrs: noinline nounwind uwtable
define linkonce_odr dso_local void @_ZNK11xalanc_1_1011XalanVectorItNS_31MemoryManagedConstructionTraitsItEEE10invariantsEv(%"class.xalanc_1_10::XalanVector"* %this) #1 comdat align 2 !dbg !2675 {
entry:
  %this.addr = alloca %"class.xalanc_1_10::XalanVector"*, align 8
  store %"class.xalanc_1_10::XalanVector"* %this, %"class.xalanc_1_10::XalanVector"** %this.addr, align 8
  call void @llvm.dbg.declare(metadata %"class.xalanc_1_10::XalanVector"** %this.addr, metadata !2676, metadata !DIExpression()), !dbg !2678
  %this1 = load %"class.xalanc_1_10::XalanVector"*, %"class.xalanc_1_10::XalanVector"** %this.addr, align 8
  ret void, !dbg !2679
}

; Function Attrs: noinline uwtable
define linkonce_odr dso_local void @_ZN11xalanc_1_1011XalanVectorItNS_31MemoryManagedConstructionTraitsItEEE7destroyEPtS4_(i16* %theFirst, i16* %theLast) #3 comdat align 2 !dbg !2680 {
entry:
  %theFirst.addr = alloca i16*, align 8
  %theLast.addr = alloca i16*, align 8
  store i16* %theFirst, i16** %theFirst.addr, align 8
  call void @llvm.dbg.declare(metadata i16** %theFirst.addr, metadata !2681, metadata !DIExpression()), !dbg !2682
  store i16* %theLast, i16** %theLast.addr, align 8
  call void @llvm.dbg.declare(metadata i16** %theLast.addr, metadata !2683, metadata !DIExpression()), !dbg !2684
  br label %for.cond, !dbg !2685

for.cond:                                         ; preds = %for.inc, %entry
  %0 = load i16*, i16** %theFirst.addr, align 8, !dbg !2686
  %1 = load i16*, i16** %theLast.addr, align 8, !dbg !2689
  %cmp = icmp ne i16* %0, %1, !dbg !2690
  br i1 %cmp, label %for.body, label %for.end, !dbg !2691

for.body:                                         ; preds = %for.cond
  %2 = load i16*, i16** %theFirst.addr, align 8, !dbg !2692
  call void @_ZN11xalanc_1_1011XalanVectorItNS_31MemoryManagedConstructionTraitsItEEE7destroyERt(i16* dereferenceable(2) %2), !dbg !2694
  br label %for.inc, !dbg !2695

for.inc:                                          ; preds = %for.body
  %3 = load i16*, i16** %theFirst.addr, align 8, !dbg !2696
  %incdec.ptr = getelementptr inbounds i16, i16* %3, i32 1, !dbg !2696
  store i16* %incdec.ptr, i16** %theFirst.addr, align 8, !dbg !2696
  br label %for.cond, !dbg !2697, !llvm.loop !2698

for.end:                                          ; preds = %for.cond
  ret void, !dbg !2700
}

; Function Attrs: noinline nounwind uwtable
define linkonce_odr dso_local i16* @_ZN11xalanc_1_1011XalanVectorItNS_31MemoryManagedConstructionTraitsItEEE5beginEv(%"class.xalanc_1_10::XalanVector"* %this) #1 comdat align 2 !dbg !2701 {
entry:
  %this.addr = alloca %"class.xalanc_1_10::XalanVector"*, align 8
  store %"class.xalanc_1_10::XalanVector"* %this, %"class.xalanc_1_10::XalanVector"** %this.addr, align 8
  call void @llvm.dbg.declare(metadata %"class.xalanc_1_10::XalanVector"** %this.addr, metadata !2702, metadata !DIExpression()), !dbg !2703
  %this1 = load %"class.xalanc_1_10::XalanVector"*, %"class.xalanc_1_10::XalanVector"** %this.addr, align 8
  call void @_ZNK11xalanc_1_1011XalanVectorItNS_31MemoryManagedConstructionTraitsItEEE10invariantsEv(%"class.xalanc_1_10::XalanVector"* %this1), !dbg !2704
  %m_data = getelementptr inbounds %"class.xalanc_1_10::XalanVector", %"class.xalanc_1_10::XalanVector"* %this1, i32 0, i32 3, !dbg !2705
  %0 = load i16*, i16** %m_data, align 8, !dbg !2705
  ret i16* %0, !dbg !2706
}

; Function Attrs: noinline uwtable
define linkonce_odr dso_local i16* @_ZN11xalanc_1_1011XalanVectorItNS_31MemoryManagedConstructionTraitsItEEE3endEv(%"class.xalanc_1_10::XalanVector"* %this) #3 comdat align 2 !dbg !2707 {
entry:
  %this.addr = alloca %"class.xalanc_1_10::XalanVector"*, align 8
  store %"class.xalanc_1_10::XalanVector"* %this, %"class.xalanc_1_10::XalanVector"** %this.addr, align 8
  call void @llvm.dbg.declare(metadata %"class.xalanc_1_10::XalanVector"** %this.addr, metadata !2708, metadata !DIExpression()), !dbg !2709
  %this1 = load %"class.xalanc_1_10::XalanVector"*, %"class.xalanc_1_10::XalanVector"** %this.addr, align 8
  call void @_ZNK11xalanc_1_1011XalanVectorItNS_31MemoryManagedConstructionTraitsItEEE10invariantsEv(%"class.xalanc_1_10::XalanVector"* %this1), !dbg !2710
  %call = call i16* @_ZN11xalanc_1_1011XalanVectorItNS_31MemoryManagedConstructionTraitsItEEE10endPointerEv(%"class.xalanc_1_10::XalanVector"* %this1), !dbg !2711
  ret i16* %call, !dbg !2712
}

; Function Attrs: noinline uwtable
define linkonce_odr dso_local void @_ZN11xalanc_1_1011XalanVectorItNS_31MemoryManagedConstructionTraitsItEEE10deallocateEPt(%"class.xalanc_1_10::XalanVector"* %this, i16* %pointer) #3 comdat align 2 !dbg !2713 {
entry:
  %this.addr = alloca %"class.xalanc_1_10::XalanVector"*, align 8
  %pointer.addr = alloca i16*, align 8
  store %"class.xalanc_1_10::XalanVector"* %this, %"class.xalanc_1_10::XalanVector"** %this.addr, align 8
  call void @llvm.dbg.declare(metadata %"class.xalanc_1_10::XalanVector"** %this.addr, metadata !2714, metadata !DIExpression()), !dbg !2715
  store i16* %pointer, i16** %pointer.addr, align 8
  call void @llvm.dbg.declare(metadata i16** %pointer.addr, metadata !2716, metadata !DIExpression()), !dbg !2717
  %this1 = load %"class.xalanc_1_10::XalanVector"*, %"class.xalanc_1_10::XalanVector"** %this.addr, align 8
  %m_memoryManager = getelementptr inbounds %"class.xalanc_1_10::XalanVector", %"class.xalanc_1_10::XalanVector"* %this1, i32 0, i32 0, !dbg !2718
  %0 = load %"class.xercesc_2_7::MemoryManager"*, %"class.xercesc_2_7::MemoryManager"** %m_memoryManager, align 8, !dbg !2718
  %1 = load i16*, i16** %pointer.addr, align 8, !dbg !2719
  %2 = bitcast i16* %1 to i8*, !dbg !2719
  %3 = bitcast %"class.xercesc_2_7::MemoryManager"* %0 to void (%"class.xercesc_2_7::MemoryManager"*, i8*)***, !dbg !2720
  %vtable = load void (%"class.xercesc_2_7::MemoryManager"*, i8*)**, void (%"class.xercesc_2_7::MemoryManager"*, i8*)*** %3, align 8, !dbg !2720
  %vfn = getelementptr inbounds void (%"class.xercesc_2_7::MemoryManager"*, i8*)*, void (%"class.xercesc_2_7::MemoryManager"*, i8*)** %vtable, i64 3, !dbg !2720
  %4 = load void (%"class.xercesc_2_7::MemoryManager"*, i8*)*, void (%"class.xercesc_2_7::MemoryManager"*, i8*)** %vfn, align 8, !dbg !2720
  call void %4(%"class.xercesc_2_7::MemoryManager"* %0, i8* %2), !dbg !2720
  ret void, !dbg !2721
}

; Function Attrs: noinline nounwind uwtable
define linkonce_odr dso_local void @_ZN11xalanc_1_1011XalanVectorItNS_31MemoryManagedConstructionTraitsItEEE7destroyERt(i16* dereferenceable(2) %theValue) #1 comdat align 2 !dbg !2722 {
entry:
  %theValue.addr = alloca i16*, align 8
  store i16* %theValue, i16** %theValue.addr, align 8
  call void @llvm.dbg.declare(metadata i16** %theValue.addr, metadata !2723, metadata !DIExpression()), !dbg !2724
  %0 = load i16*, i16** %theValue.addr, align 8, !dbg !2725
  ret void, !dbg !2726
}

; Function Attrs: noinline nounwind uwtable
define linkonce_odr dso_local i16* @_ZN11xalanc_1_1011XalanVectorItNS_31MemoryManagedConstructionTraitsItEEE10endPointerEv(%"class.xalanc_1_10::XalanVector"* %this) #1 comdat align 2 !dbg !2727 {
entry:
  %this.addr = alloca %"class.xalanc_1_10::XalanVector"*, align 8
  store %"class.xalanc_1_10::XalanVector"* %this, %"class.xalanc_1_10::XalanVector"** %this.addr, align 8
  call void @llvm.dbg.declare(metadata %"class.xalanc_1_10::XalanVector"** %this.addr, metadata !2728, metadata !DIExpression()), !dbg !2729
  %this1 = load %"class.xalanc_1_10::XalanVector"*, %"class.xalanc_1_10::XalanVector"** %this.addr, align 8
  %m_data = getelementptr inbounds %"class.xalanc_1_10::XalanVector", %"class.xalanc_1_10::XalanVector"* %this1, i32 0, i32 3, !dbg !2730
  %0 = load i16*, i16** %m_data, align 8, !dbg !2730
  %m_size = getelementptr inbounds %"class.xalanc_1_10::XalanVector", %"class.xalanc_1_10::XalanVector"* %this1, i32 0, i32 1, !dbg !2731
  %1 = load i64, i64* %m_size, align 8, !dbg !2731
  %add.ptr = getelementptr inbounds i16, i16* %0, i64 %1, !dbg !2732
  ret i16* %add.ptr, !dbg !2733
}

; Function Attrs: noinline uwtable
define linkonce_odr dso_local dereferenceable(40) %"class.xalanc_1_10::XalanDOMString"* @_ZN11xalanc_1_1014XalanDOMString6assignEPKt(%"class.xalanc_1_10::XalanDOMString"* %this, i16* %theSource) #3 comdat align 2 !dbg !2734 {
entry:
  %this.addr = alloca %"class.xalanc_1_10::XalanDOMString"*, align 8
  %theSource.addr = alloca i16*, align 8
  store %"class.xalanc_1_10::XalanDOMString"* %this, %"class.xalanc_1_10::XalanDOMString"** %this.addr, align 8
  call void @llvm.dbg.declare(metadata %"class.xalanc_1_10::XalanDOMString"** %this.addr, metadata !2735, metadata !DIExpression()), !dbg !2736
  store i16* %theSource, i16** %theSource.addr, align 8
  call void @llvm.dbg.declare(metadata i16** %theSource.addr, metadata !2737, metadata !DIExpression()), !dbg !2738
  %this1 = load %"class.xalanc_1_10::XalanDOMString"*, %"class.xalanc_1_10::XalanDOMString"** %this.addr, align 8
  call void @_ZNK11xalanc_1_1014XalanDOMString10invariantsEv(%"class.xalanc_1_10::XalanDOMString"* %this1), !dbg !2739
  call void @_ZN11xalanc_1_1014XalanDOMString5eraseEjj(%"class.xalanc_1_10::XalanDOMString"* %this1, i32 0, i32 -1), !dbg !2740
  call void @_ZNK11xalanc_1_1014XalanDOMString10invariantsEv(%"class.xalanc_1_10::XalanDOMString"* %this1), !dbg !2741
  %0 = load i16*, i16** %theSource.addr, align 8, !dbg !2742
  %call = call dereferenceable(40) %"class.xalanc_1_10::XalanDOMString"* @_ZN11xalanc_1_1014XalanDOMString6appendEPKt(%"class.xalanc_1_10::XalanDOMString"* %this1, i16* %0), !dbg !2743
  ret %"class.xalanc_1_10::XalanDOMString"* %call, !dbg !2744
}

; Function Attrs: noinline uwtable
define linkonce_odr dso_local dereferenceable(40) %"class.xalanc_1_10::XalanDOMString"* @_ZN11xalanc_1_1014XalanDOMString6assignEPKtj(%"class.xalanc_1_10::XalanDOMString"* %this, i16* %theSource, i32 %theCount) #3 comdat align 2 !dbg !2745 {
entry:
  %this.addr = alloca %"class.xalanc_1_10::XalanDOMString"*, align 8
  %theSource.addr = alloca i16*, align 8
  %theCount.addr = alloca i32, align 4
  store %"class.xalanc_1_10::XalanDOMString"* %this, %"class.xalanc_1_10::XalanDOMString"** %this.addr, align 8
  call void @llvm.dbg.declare(metadata %"class.xalanc_1_10::XalanDOMString"** %this.addr, metadata !2746, metadata !DIExpression()), !dbg !2747
  store i16* %theSource, i16** %theSource.addr, align 8
  call void @llvm.dbg.declare(metadata i16** %theSource.addr, metadata !2748, metadata !DIExpression()), !dbg !2749
  store i32 %theCount, i32* %theCount.addr, align 4
  call void @llvm.dbg.declare(metadata i32* %theCount.addr, metadata !2750, metadata !DIExpression()), !dbg !2751
  %this1 = load %"class.xalanc_1_10::XalanDOMString"*, %"class.xalanc_1_10::XalanDOMString"** %this.addr, align 8
  call void @_ZNK11xalanc_1_1014XalanDOMString10invariantsEv(%"class.xalanc_1_10::XalanDOMString"* %this1), !dbg !2752
  call void @_ZN11xalanc_1_1014XalanDOMString5eraseEjj(%"class.xalanc_1_10::XalanDOMString"* %this1, i32 0, i32 -1), !dbg !2753
  call void @_ZNK11xalanc_1_1014XalanDOMString10invariantsEv(%"class.xalanc_1_10::XalanDOMString"* %this1), !dbg !2754
  %0 = load i16*, i16** %theSource.addr, align 8, !dbg !2755
  %1 = load i32, i32* %theCount.addr, align 4, !dbg !2756
  %call = call dereferenceable(40) %"class.xalanc_1_10::XalanDOMString"* @_ZN11xalanc_1_1014XalanDOMString6appendEPKtj(%"class.xalanc_1_10::XalanDOMString"* %this1, i16* %0, i32 %1), !dbg !2757
  ret %"class.xalanc_1_10::XalanDOMString"* %call, !dbg !2758
}

; Function Attrs: noinline nounwind uwtable
define linkonce_odr dso_local void @_ZNK11xalanc_1_1014XalanDOMString10invariantsEv(%"class.xalanc_1_10::XalanDOMString"* %this) #1 comdat align 2 !dbg !2759 {
entry:
  %this.addr = alloca %"class.xalanc_1_10::XalanDOMString"*, align 8
  store %"class.xalanc_1_10::XalanDOMString"* %this, %"class.xalanc_1_10::XalanDOMString"** %this.addr, align 8
  call void @llvm.dbg.declare(metadata %"class.xalanc_1_10::XalanDOMString"** %this.addr, metadata !2760, metadata !DIExpression()), !dbg !2761
  %this1 = load %"class.xalanc_1_10::XalanDOMString"*, %"class.xalanc_1_10::XalanDOMString"** %this.addr, align 8
  ret void, !dbg !2762
}

declare dso_local void @_ZN11xalanc_1_1014XalanDOMString5eraseEjj(%"class.xalanc_1_10::XalanDOMString"*, i32, i32) #4

; Function Attrs: noinline uwtable
define linkonce_odr dso_local dereferenceable(40) %"class.xalanc_1_10::XalanDOMString"* @_ZN11xalanc_1_1014XalanDOMString6appendEPKt(%"class.xalanc_1_10::XalanDOMString"* %this, i16* %theString) #3 comdat align 2 !dbg !2763 {
entry:
  %this.addr = alloca %"class.xalanc_1_10::XalanDOMString"*, align 8
  %theString.addr = alloca i16*, align 8
  store %"class.xalanc_1_10::XalanDOMString"* %this, %"class.xalanc_1_10::XalanDOMString"** %this.addr, align 8
  call void @llvm.dbg.declare(metadata %"class.xalanc_1_10::XalanDOMString"** %this.addr, metadata !2764, metadata !DIExpression()), !dbg !2765
  store i16* %theString, i16** %theString.addr, align 8
  call void @llvm.dbg.declare(metadata i16** %theString.addr, metadata !2766, metadata !DIExpression()), !dbg !2767
  %this1 = load %"class.xalanc_1_10::XalanDOMString"*, %"class.xalanc_1_10::XalanDOMString"** %this.addr, align 8
  %0 = load i16*, i16** %theString.addr, align 8, !dbg !2768
  %1 = load i16*, i16** %theString.addr, align 8, !dbg !2769
  %call = call i32 @_ZN11xalanc_1_1014XalanDOMString6lengthEPKt(i16* %1), !dbg !2770
  %call2 = call dereferenceable(40) %"class.xalanc_1_10::XalanDOMString"* @_ZN11xalanc_1_1014XalanDOMString6appendEPKtj(%"class.xalanc_1_10::XalanDOMString"* %this1, i16* %0, i32 %call), !dbg !2771
  ret %"class.xalanc_1_10::XalanDOMString"* %call2, !dbg !2772
}

declare dso_local i32 @_ZN11xalanc_1_1014XalanDOMString6lengthEPKt(i16*) #4

; Function Attrs: noinline nounwind uwtable
define linkonce_odr dso_local zeroext i1 @_ZNK11xalanc_1_1011XalanVectorItNS_31MemoryManagedConstructionTraitsItEEE5emptyEv(%"class.xalanc_1_10::XalanVector"* %this) #1 comdat align 2 !dbg !2773 {
entry:
  %this.addr = alloca %"class.xalanc_1_10::XalanVector"*, align 8
  store %"class.xalanc_1_10::XalanVector"* %this, %"class.xalanc_1_10::XalanVector"** %this.addr, align 8
  call void @llvm.dbg.declare(metadata %"class.xalanc_1_10::XalanVector"** %this.addr, metadata !2774, metadata !DIExpression()), !dbg !2775
  %this1 = load %"class.xalanc_1_10::XalanVector"*, %"class.xalanc_1_10::XalanVector"** %this.addr, align 8
  call void @_ZNK11xalanc_1_1011XalanVectorItNS_31MemoryManagedConstructionTraitsItEEE10invariantsEv(%"class.xalanc_1_10::XalanVector"* %this1), !dbg !2776
  %m_size = getelementptr inbounds %"class.xalanc_1_10::XalanVector", %"class.xalanc_1_10::XalanVector"* %this1, i32 0, i32 1, !dbg !2777
  %0 = load i64, i64* %m_size, align 8, !dbg !2777
  %cmp = icmp eq i64 %0, 0, !dbg !2778
  %1 = zext i1 %cmp to i64, !dbg !2777
  %cond = select i1 %cmp, i1 true, i1 false, !dbg !2777
  ret i1 %cond, !dbg !2779
}

; Function Attrs: noinline nounwind uwtable
define linkonce_odr dso_local dereferenceable(2) i16* @_ZNK11xalanc_1_1011XalanVectorItNS_31MemoryManagedConstructionTraitsItEEEixEm(%"class.xalanc_1_10::XalanVector"* %this, i64 %theIndex) #1 comdat align 2 !dbg !2780 {
entry:
  %this.addr = alloca %"class.xalanc_1_10::XalanVector"*, align 8
  %theIndex.addr = alloca i64, align 8
  store %"class.xalanc_1_10::XalanVector"* %this, %"class.xalanc_1_10::XalanVector"** %this.addr, align 8
  call void @llvm.dbg.declare(metadata %"class.xalanc_1_10::XalanVector"** %this.addr, metadata !2781, metadata !DIExpression()), !dbg !2782
  store i64 %theIndex, i64* %theIndex.addr, align 8
  call void @llvm.dbg.declare(metadata i64* %theIndex.addr, metadata !2783, metadata !DIExpression()), !dbg !2784
  %this1 = load %"class.xalanc_1_10::XalanVector"*, %"class.xalanc_1_10::XalanVector"** %this.addr, align 8
  %m_data = getelementptr inbounds %"class.xalanc_1_10::XalanVector", %"class.xalanc_1_10::XalanVector"* %this1, i32 0, i32 3, !dbg !2785
  %0 = load i16*, i16** %m_data, align 8, !dbg !2785
  %1 = load i64, i64* %theIndex.addr, align 8, !dbg !2786
  %arrayidx = getelementptr inbounds i16, i16* %0, i64 %1, !dbg !2785
  ret i16* %arrayidx, !dbg !2787
}

; Function Attrs: noinline uwtable
define linkonce_odr dso_local i32 @_ZNK11xalanc_1_1014XalanDOMString6lengthEv(%"class.xalanc_1_10::XalanDOMString"* %this) #3 comdat align 2 !dbg !2788 {
entry:
  %this.addr = alloca %"class.xalanc_1_10::XalanDOMString"*, align 8
  store %"class.xalanc_1_10::XalanDOMString"* %this, %"class.xalanc_1_10::XalanDOMString"** %this.addr, align 8
  call void @llvm.dbg.declare(metadata %"class.xalanc_1_10::XalanDOMString"** %this.addr, metadata !2789, metadata !DIExpression()), !dbg !2790
  %this1 = load %"class.xalanc_1_10::XalanDOMString"*, %"class.xalanc_1_10::XalanDOMString"** %this.addr, align 8
  call void @_ZNK11xalanc_1_1014XalanDOMString10invariantsEv(%"class.xalanc_1_10::XalanDOMString"* %this1), !dbg !2791
  %call = call i32 @_ZNK11xalanc_1_1014XalanDOMString4sizeEv(%"class.xalanc_1_10::XalanDOMString"* %this1), !dbg !2792
  ret i32 %call, !dbg !2793
}

; Function Attrs: noinline nounwind uwtable
define linkonce_odr dso_local i32 @_ZNK11xalanc_1_1014XalanDOMString4sizeEv(%"class.xalanc_1_10::XalanDOMString"* %this) #1 comdat align 2 !dbg !2794 {
entry:
  %this.addr = alloca %"class.xalanc_1_10::XalanDOMString"*, align 8
  store %"class.xalanc_1_10::XalanDOMString"* %this, %"class.xalanc_1_10::XalanDOMString"** %this.addr, align 8
  call void @llvm.dbg.declare(metadata %"class.xalanc_1_10::XalanDOMString"** %this.addr, metadata !2795, metadata !DIExpression()), !dbg !2796
  %this1 = load %"class.xalanc_1_10::XalanDOMString"*, %"class.xalanc_1_10::XalanDOMString"** %this.addr, align 8
  call void @_ZNK11xalanc_1_1014XalanDOMString10invariantsEv(%"class.xalanc_1_10::XalanDOMString"* %this1), !dbg !2797
  %m_size = getelementptr inbounds %"class.xalanc_1_10::XalanDOMString", %"class.xalanc_1_10::XalanDOMString"* %this1, i32 0, i32 1, !dbg !2798
  %0 = load i32, i32* %m_size, align 8, !dbg !2798
  ret i32 %0, !dbg !2799
}

; Function Attrs: noinline nounwind uwtable
define linkonce_odr dso_local zeroext i1 @_ZNK11xalanc_1_1014XalanDOMString5emptyEv(%"class.xalanc_1_10::XalanDOMString"* %this) #1 comdat align 2 !dbg !2800 {
entry:
  %this.addr = alloca %"class.xalanc_1_10::XalanDOMString"*, align 8
  store %"class.xalanc_1_10::XalanDOMString"* %this, %"class.xalanc_1_10::XalanDOMString"** %this.addr, align 8
  call void @llvm.dbg.declare(metadata %"class.xalanc_1_10::XalanDOMString"** %this.addr, metadata !2801, metadata !DIExpression()), !dbg !2802
  %this1 = load %"class.xalanc_1_10::XalanDOMString"*, %"class.xalanc_1_10::XalanDOMString"** %this.addr, align 8
  call void @_ZNK11xalanc_1_1014XalanDOMString10invariantsEv(%"class.xalanc_1_10::XalanDOMString"* %this1), !dbg !2803
  %m_size = getelementptr inbounds %"class.xalanc_1_10::XalanDOMString", %"class.xalanc_1_10::XalanDOMString"* %this1, i32 0, i32 1, !dbg !2804
  %0 = load i32, i32* %m_size, align 8, !dbg !2804
  %cmp = icmp eq i32 %0, 0, !dbg !2805
  %1 = zext i1 %cmp to i64, !dbg !2804
  %cond = select i1 %cmp, i1 true, i1 false, !dbg !2804
  ret i1 %cond, !dbg !2806
}

; Function Attrs: noinline uwtable
define linkonce_odr dso_local void @_ZN11xalanc_1_1014XalanDOMString5clearEv(%"class.xalanc_1_10::XalanDOMString"* %this) #3 comdat align 2 !dbg !2807 {
entry:
  %this.addr = alloca %"class.xalanc_1_10::XalanDOMString"*, align 8
  store %"class.xalanc_1_10::XalanDOMString"* %this, %"class.xalanc_1_10::XalanDOMString"** %this.addr, align 8
  call void @llvm.dbg.declare(metadata %"class.xalanc_1_10::XalanDOMString"** %this.addr, metadata !2808, metadata !DIExpression()), !dbg !2809
  %this1 = load %"class.xalanc_1_10::XalanDOMString"*, %"class.xalanc_1_10::XalanDOMString"** %this.addr, align 8
  call void @_ZNK11xalanc_1_1014XalanDOMString10invariantsEv(%"class.xalanc_1_10::XalanDOMString"* %this1), !dbg !2810
  %m_data = getelementptr inbounds %"class.xalanc_1_10::XalanDOMString", %"class.xalanc_1_10::XalanDOMString"* %this1, i32 0, i32 0, !dbg !2811
  %m_data2 = getelementptr inbounds %"class.xalanc_1_10::XalanDOMString", %"class.xalanc_1_10::XalanDOMString"* %this1, i32 0, i32 0, !dbg !2812
  %call = call i16* @_ZN11xalanc_1_1011XalanVectorItNS_31MemoryManagedConstructionTraitsItEEE5beginEv(%"class.xalanc_1_10::XalanVector"* %m_data2), !dbg !2813
  %m_data3 = getelementptr inbounds %"class.xalanc_1_10::XalanDOMString", %"class.xalanc_1_10::XalanDOMString"* %this1, i32 0, i32 0, !dbg !2814
  %call4 = call i16* @_ZN11xalanc_1_1011XalanVectorItNS_31MemoryManagedConstructionTraitsItEEE3endEv(%"class.xalanc_1_10::XalanVector"* %m_data3), !dbg !2815
  %call5 = call i16* @_ZN11xalanc_1_1011XalanVectorItNS_31MemoryManagedConstructionTraitsItEEE5eraseEPtS4_(%"class.xalanc_1_10::XalanVector"* %m_data, i16* %call, i16* %call4), !dbg !2816
  %m_size = getelementptr inbounds %"class.xalanc_1_10::XalanDOMString", %"class.xalanc_1_10::XalanDOMString"* %this1, i32 0, i32 1, !dbg !2817
  store i32 0, i32* %m_size, align 8, !dbg !2818
  call void @_ZNK11xalanc_1_1014XalanDOMString10invariantsEv(%"class.xalanc_1_10::XalanDOMString"* %this1), !dbg !2819
  ret void, !dbg !2820
}

; Function Attrs: noinline uwtable
define linkonce_odr dso_local i16* @_ZN11xalanc_1_1011XalanVectorItNS_31MemoryManagedConstructionTraitsItEEE5eraseEPtS4_(%"class.xalanc_1_10::XalanVector"* %this, i16* %theFirst, i16* %theLast) #3 comdat align 2 !dbg !2821 {
entry:
  %this.addr = alloca %"class.xalanc_1_10::XalanVector"*, align 8
  %theFirst.addr = alloca i16*, align 8
  %theLast.addr = alloca i16*, align 8
  store %"class.xalanc_1_10::XalanVector"* %this, %"class.xalanc_1_10::XalanVector"** %this.addr, align 8
  call void @llvm.dbg.declare(metadata %"class.xalanc_1_10::XalanVector"** %this.addr, metadata !2822, metadata !DIExpression()), !dbg !2823
  store i16* %theFirst, i16** %theFirst.addr, align 8
  call void @llvm.dbg.declare(metadata i16** %theFirst.addr, metadata !2824, metadata !DIExpression()), !dbg !2825
  store i16* %theLast, i16** %theLast.addr, align 8
  call void @llvm.dbg.declare(metadata i16** %theLast.addr, metadata !2826, metadata !DIExpression()), !dbg !2827
  %this1 = load %"class.xalanc_1_10::XalanVector"*, %"class.xalanc_1_10::XalanVector"** %this.addr, align 8
  call void @_ZNK11xalanc_1_1011XalanVectorItNS_31MemoryManagedConstructionTraitsItEEE10invariantsEv(%"class.xalanc_1_10::XalanVector"* %this1), !dbg !2828
  %0 = load i16*, i16** %theFirst.addr, align 8, !dbg !2829
  %1 = load i16*, i16** %theLast.addr, align 8, !dbg !2831
  %cmp = icmp ne i16* %0, %1, !dbg !2832
  br i1 %cmp, label %if.then, label %if.end, !dbg !2833

if.then:                                          ; preds = %entry
  %2 = load i16*, i16** %theLast.addr, align 8, !dbg !2834
  %call = call i16* @_ZN11xalanc_1_1011XalanVectorItNS_31MemoryManagedConstructionTraitsItEEE3endEv(%"class.xalanc_1_10::XalanVector"* %this1), !dbg !2836
  %3 = load i16*, i16** %theFirst.addr, align 8, !dbg !2837
  %call2 = call i16* @_ZSt4copyIPtS0_ET0_T_S2_S1_(i16* %2, i16* %call, i16* %3), !dbg !2838
  %4 = load i16*, i16** %theFirst.addr, align 8, !dbg !2839
  %5 = load i16*, i16** %theLast.addr, align 8, !dbg !2840
  %call3 = call i64 @_ZN11xalanc_1_1011XalanVectorItNS_31MemoryManagedConstructionTraitsItEEE14local_distanceEPKtS5_(%"class.xalanc_1_10::XalanVector"* %this1, i16* %4, i16* %5), !dbg !2841
  call void @_ZN11xalanc_1_1011XalanVectorItNS_31MemoryManagedConstructionTraitsItEEE11shrinkCountEm(%"class.xalanc_1_10::XalanVector"* %this1, i64 %call3), !dbg !2842
  br label %if.end, !dbg !2843

if.end:                                           ; preds = %if.then, %entry
  call void @_ZNK11xalanc_1_1011XalanVectorItNS_31MemoryManagedConstructionTraitsItEEE10invariantsEv(%"class.xalanc_1_10::XalanVector"* %this1), !dbg !2844
  %6 = load i16*, i16** %theFirst.addr, align 8, !dbg !2845
  ret i16* %6, !dbg !2846
}

; Function Attrs: noinline uwtable
define linkonce_odr dso_local i16* @_ZSt4copyIPtS0_ET0_T_S2_S1_(i16* %__first, i16* %__last, i16* %__result) #3 comdat !dbg !2847 {
entry:
  %__first.addr = alloca i16*, align 8
  %__last.addr = alloca i16*, align 8
  %__result.addr = alloca i16*, align 8
  store i16* %__first, i16** %__first.addr, align 8
  call void @llvm.dbg.declare(metadata i16** %__first.addr, metadata !2854, metadata !DIExpression()), !dbg !2856
  store i16* %__last, i16** %__last.addr, align 8
  call void @llvm.dbg.declare(metadata i16** %__last.addr, metadata !2857, metadata !DIExpression()), !dbg !2858
  store i16* %__result, i16** %__result.addr, align 8
  call void @llvm.dbg.declare(metadata i16** %__result.addr, metadata !2859, metadata !DIExpression()), !dbg !2860
  %0 = load i16*, i16** %__first.addr, align 8, !dbg !2861
  %call = call i16* @_ZSt12__miter_baseIPtET_S1_(i16* %0), !dbg !2862
  %1 = load i16*, i16** %__last.addr, align 8, !dbg !2863
  %call1 = call i16* @_ZSt12__miter_baseIPtET_S1_(i16* %1), !dbg !2864
  %2 = load i16*, i16** %__result.addr, align 8, !dbg !2865
  %call2 = call i16* @_ZSt13__copy_move_aILb0EPtS0_ET1_T0_S2_S1_(i16* %call, i16* %call1, i16* %2), !dbg !2866
  ret i16* %call2, !dbg !2867
}

; Function Attrs: noinline uwtable
define linkonce_odr dso_local void @_ZN11xalanc_1_1011XalanVectorItNS_31MemoryManagedConstructionTraitsItEEE11shrinkCountEm(%"class.xalanc_1_10::XalanVector"* %this, i64 %theCount) #3 comdat align 2 !dbg !2868 {
entry:
  %this.addr = alloca %"class.xalanc_1_10::XalanVector"*, align 8
  %theCount.addr = alloca i64, align 8
  store %"class.xalanc_1_10::XalanVector"* %this, %"class.xalanc_1_10::XalanVector"** %this.addr, align 8
  call void @llvm.dbg.declare(metadata %"class.xalanc_1_10::XalanVector"** %this.addr, metadata !2869, metadata !DIExpression()), !dbg !2870
  store i64 %theCount, i64* %theCount.addr, align 8
  call void @llvm.dbg.declare(metadata i64* %theCount.addr, metadata !2871, metadata !DIExpression()), !dbg !2872
  %this1 = load %"class.xalanc_1_10::XalanVector"*, %"class.xalanc_1_10::XalanVector"** %this.addr, align 8
  br label %while.cond, !dbg !2873

while.cond:                                       ; preds = %while.body, %entry
  %0 = load i64, i64* %theCount.addr, align 8, !dbg !2874
  %cmp = icmp ugt i64 %0, 0, !dbg !2875
  br i1 %cmp, label %while.body, label %while.end, !dbg !2873

while.body:                                       ; preds = %while.cond
  call void @_ZN11xalanc_1_1011XalanVectorItNS_31MemoryManagedConstructionTraitsItEEE8pop_backEv(%"class.xalanc_1_10::XalanVector"* %this1), !dbg !2876
  %1 = load i64, i64* %theCount.addr, align 8, !dbg !2878
  %dec = add i64 %1, -1, !dbg !2878
  store i64 %dec, i64* %theCount.addr, align 8, !dbg !2878
  br label %while.cond, !dbg !2873, !llvm.loop !2879

while.end:                                        ; preds = %while.cond
  ret void, !dbg !2881
}

; Function Attrs: noinline uwtable
define linkonce_odr dso_local i64 @_ZN11xalanc_1_1011XalanVectorItNS_31MemoryManagedConstructionTraitsItEEE14local_distanceEPKtS5_(%"class.xalanc_1_10::XalanVector"* %this, i16* %theFirst, i16* %theLast) #3 comdat align 2 !dbg !2882 {
entry:
  %this.addr = alloca %"class.xalanc_1_10::XalanVector"*, align 8
  %theFirst.addr = alloca i16*, align 8
  %theLast.addr = alloca i16*, align 8
  store %"class.xalanc_1_10::XalanVector"* %this, %"class.xalanc_1_10::XalanVector"** %this.addr, align 8
  call void @llvm.dbg.declare(metadata %"class.xalanc_1_10::XalanVector"** %this.addr, metadata !2883, metadata !DIExpression()), !dbg !2884
  store i16* %theFirst, i16** %theFirst.addr, align 8
  call void @llvm.dbg.declare(metadata i16** %theFirst.addr, metadata !2885, metadata !DIExpression()), !dbg !2886
  store i16* %theLast, i16** %theLast.addr, align 8
  call void @llvm.dbg.declare(metadata i16** %theLast.addr, metadata !2887, metadata !DIExpression()), !dbg !2888
  %this1 = load %"class.xalanc_1_10::XalanVector"*, %"class.xalanc_1_10::XalanVector"** %this.addr, align 8
  %0 = load i16*, i16** %theFirst.addr, align 8, !dbg !2889
  %1 = load i16*, i16** %theLast.addr, align 8, !dbg !2890
  %call = call i64 @_ZSt8distanceIPKtENSt15iterator_traitsIT_E15difference_typeES3_S3_(i16* %0, i16* %1), !dbg !2891
  ret i64 %call, !dbg !2892
}

; Function Attrs: noinline uwtable
define linkonce_odr dso_local i16* @_ZSt13__copy_move_aILb0EPtS0_ET1_T0_S2_S1_(i16* %__first, i16* %__last, i16* %__result) #3 comdat !dbg !2893 {
entry:
  %__first.addr = alloca i16*, align 8
  %__last.addr = alloca i16*, align 8
  %__result.addr = alloca i16*, align 8
  store i16* %__first, i16** %__first.addr, align 8
  call void @llvm.dbg.declare(metadata i16** %__first.addr, metadata !2898, metadata !DIExpression()), !dbg !2899
  store i16* %__last, i16** %__last.addr, align 8
  call void @llvm.dbg.declare(metadata i16** %__last.addr, metadata !2900, metadata !DIExpression()), !dbg !2901
  store i16* %__result, i16** %__result.addr, align 8
  call void @llvm.dbg.declare(metadata i16** %__result.addr, metadata !2902, metadata !DIExpression()), !dbg !2903
  %0 = load i16*, i16** %__first.addr, align 8, !dbg !2904
  %call = call i16* @_ZSt12__niter_baseIPtET_S1_(i16* %0) #5, !dbg !2905
  %1 = load i16*, i16** %__last.addr, align 8, !dbg !2906
  %call1 = call i16* @_ZSt12__niter_baseIPtET_S1_(i16* %1) #5, !dbg !2907
  %2 = load i16*, i16** %__result.addr, align 8, !dbg !2908
  %call2 = call i16* @_ZSt12__niter_baseIPtET_S1_(i16* %2) #5, !dbg !2909
  %call3 = call i16* @_ZSt14__copy_move_a1ILb0EPtS0_ET1_T0_S2_S1_(i16* %call, i16* %call1, i16* %call2), !dbg !2910
  %call4 = call i16* @_ZSt12__niter_wrapIPtET_RKS1_S1_(i16** dereferenceable(8) %__result.addr, i16* %call3), !dbg !2911
  ret i16* %call4, !dbg !2912
}

; Function Attrs: noinline nounwind uwtable
define linkonce_odr dso_local i16* @_ZSt12__miter_baseIPtET_S1_(i16* %__it) #1 comdat !dbg !2913 {
entry:
  %__it.addr = alloca i16*, align 8
  store i16* %__it, i16** %__it.addr, align 8
  call void @llvm.dbg.declare(metadata i16** %__it.addr, metadata !2917, metadata !DIExpression()), !dbg !2918
  %0 = load i16*, i16** %__it.addr, align 8, !dbg !2919
  ret i16* %0, !dbg !2920
}

; Function Attrs: noinline nounwind uwtable
define linkonce_odr dso_local i16* @_ZSt12__niter_wrapIPtET_RKS1_S1_(i16** dereferenceable(8) %0, i16* %__res) #1 comdat !dbg !2921 {
entry:
  %.addr = alloca i16**, align 8
  %__res.addr = alloca i16*, align 8
  store i16** %0, i16*** %.addr, align 8
  call void @llvm.dbg.declare(metadata i16*** %.addr, metadata !2926, metadata !DIExpression()), !dbg !2927
  store i16* %__res, i16** %__res.addr, align 8
  call void @llvm.dbg.declare(metadata i16** %__res.addr, metadata !2928, metadata !DIExpression()), !dbg !2929
  %1 = load i16*, i16** %__res.addr, align 8, !dbg !2930
  ret i16* %1, !dbg !2931
}

; Function Attrs: noinline uwtable
define linkonce_odr dso_local i16* @_ZSt14__copy_move_a1ILb0EPtS0_ET1_T0_S2_S1_(i16* %__first, i16* %__last, i16* %__result) #3 comdat !dbg !2932 {
entry:
  %__first.addr = alloca i16*, align 8
  %__last.addr = alloca i16*, align 8
  %__result.addr = alloca i16*, align 8
  store i16* %__first, i16** %__first.addr, align 8
  call void @llvm.dbg.declare(metadata i16** %__first.addr, metadata !2933, metadata !DIExpression()), !dbg !2934
  store i16* %__last, i16** %__last.addr, align 8
  call void @llvm.dbg.declare(metadata i16** %__last.addr, metadata !2935, metadata !DIExpression()), !dbg !2936
  store i16* %__result, i16** %__result.addr, align 8
  call void @llvm.dbg.declare(metadata i16** %__result.addr, metadata !2937, metadata !DIExpression()), !dbg !2938
  %0 = load i16*, i16** %__first.addr, align 8, !dbg !2939
  %1 = load i16*, i16** %__last.addr, align 8, !dbg !2940
  %2 = load i16*, i16** %__result.addr, align 8, !dbg !2941
  %call = call i16* @_ZSt14__copy_move_a2ILb0EPtS0_ET1_T0_S2_S1_(i16* %0, i16* %1, i16* %2), !dbg !2942
  ret i16* %call, !dbg !2943
}

; Function Attrs: noinline nounwind uwtable
define linkonce_odr dso_local i16* @_ZSt12__niter_baseIPtET_S1_(i16* %__it) #1 comdat !dbg !2944 {
entry:
  %__it.addr = alloca i16*, align 8
  store i16* %__it, i16** %__it.addr, align 8
  call void @llvm.dbg.declare(metadata i16** %__it.addr, metadata !2945, metadata !DIExpression()), !dbg !2946
  %0 = load i16*, i16** %__it.addr, align 8, !dbg !2947
  ret i16* %0, !dbg !2948
}

; Function Attrs: noinline uwtable
define linkonce_odr dso_local i16* @_ZSt14__copy_move_a2ILb0EPtS0_ET1_T0_S2_S1_(i16* %__first, i16* %__last, i16* %__result) #3 comdat !dbg !2949 {
entry:
  %__first.addr = alloca i16*, align 8
  %__last.addr = alloca i16*, align 8
  %__result.addr = alloca i16*, align 8
  store i16* %__first, i16** %__first.addr, align 8
  call void @llvm.dbg.declare(metadata i16** %__first.addr, metadata !2950, metadata !DIExpression()), !dbg !2951
  store i16* %__last, i16** %__last.addr, align 8
  call void @llvm.dbg.declare(metadata i16** %__last.addr, metadata !2952, metadata !DIExpression()), !dbg !2953
  store i16* %__result, i16** %__result.addr, align 8
  call void @llvm.dbg.declare(metadata i16** %__result.addr, metadata !2954, metadata !DIExpression()), !dbg !2955
  %0 = load i16*, i16** %__first.addr, align 8, !dbg !2956
  %1 = load i16*, i16** %__last.addr, align 8, !dbg !2957
  %2 = load i16*, i16** %__result.addr, align 8, !dbg !2958
  %call = call i16* @_ZNSt11__copy_moveILb0ELb1ESt26random_access_iterator_tagE8__copy_mItEEPT_PKS3_S6_S4_(i16* %0, i16* %1, i16* %2), !dbg !2959
  ret i16* %call, !dbg !2960
}

; Function Attrs: noinline nounwind uwtable
define linkonce_odr dso_local i16* @_ZNSt11__copy_moveILb0ELb1ESt26random_access_iterator_tagE8__copy_mItEEPT_PKS3_S6_S4_(i16* %__first, i16* %__last, i16* %__result) #1 comdat align 2 !dbg !2961 {
entry:
  %__first.addr = alloca i16*, align 8
  %__last.addr = alloca i16*, align 8
  %__result.addr = alloca i16*, align 8
  %_Num = alloca i64, align 8
  store i16* %__first, i16** %__first.addr, align 8
  call void @llvm.dbg.declare(metadata i16** %__first.addr, metadata !2969, metadata !DIExpression()), !dbg !2970
  store i16* %__last, i16** %__last.addr, align 8
  call void @llvm.dbg.declare(metadata i16** %__last.addr, metadata !2971, metadata !DIExpression()), !dbg !2972
  store i16* %__result, i16** %__result.addr, align 8
  call void @llvm.dbg.declare(metadata i16** %__result.addr, metadata !2973, metadata !DIExpression()), !dbg !2974
  call void @llvm.dbg.declare(metadata i64* %_Num, metadata !2975, metadata !DIExpression()), !dbg !2977
  %0 = load i16*, i16** %__last.addr, align 8, !dbg !2978
  %1 = load i16*, i16** %__first.addr, align 8, !dbg !2979
  %sub.ptr.lhs.cast = ptrtoint i16* %0 to i64, !dbg !2980
  %sub.ptr.rhs.cast = ptrtoint i16* %1 to i64, !dbg !2980
  %sub.ptr.sub = sub i64 %sub.ptr.lhs.cast, %sub.ptr.rhs.cast, !dbg !2980
  %sub.ptr.div = sdiv exact i64 %sub.ptr.sub, 2, !dbg !2980
  store i64 %sub.ptr.div, i64* %_Num, align 8, !dbg !2977
  %2 = load i64, i64* %_Num, align 8, !dbg !2981
  %tobool = icmp ne i64 %2, 0, !dbg !2981
  br i1 %tobool, label %if.then, label %if.end, !dbg !2983

if.then:                                          ; preds = %entry
  %3 = load i16*, i16** %__result.addr, align 8, !dbg !2984
  %4 = bitcast i16* %3 to i8*, !dbg !2985
  %5 = load i16*, i16** %__first.addr, align 8, !dbg !2986
  %6 = bitcast i16* %5 to i8*, !dbg !2985
  %7 = load i64, i64* %_Num, align 8, !dbg !2987
  %mul = mul i64 2, %7, !dbg !2988
  call void @llvm.memmove.p0i8.p0i8.i64(i8* align 2 %4, i8* align 2 %6, i64 %mul, i1 false), !dbg !2985
  br label %if.end, !dbg !2985

if.end:                                           ; preds = %if.then, %entry
  %8 = load i16*, i16** %__result.addr, align 8, !dbg !2989
  %9 = load i64, i64* %_Num, align 8, !dbg !2990
  %add.ptr = getelementptr inbounds i16, i16* %8, i64 %9, !dbg !2991
  ret i16* %add.ptr, !dbg !2992
}

; Function Attrs: argmemonly nounwind willreturn
declare void @llvm.memmove.p0i8.p0i8.i64(i8* nocapture, i8* nocapture readonly, i64, i1 immarg) #9

; Function Attrs: noinline nounwind uwtable
define linkonce_odr dso_local void @_ZN11xalanc_1_1011XalanVectorItNS_31MemoryManagedConstructionTraitsItEEE8pop_backEv(%"class.xalanc_1_10::XalanVector"* %this) #1 comdat align 2 !dbg !2993 {
entry:
  %this.addr = alloca %"class.xalanc_1_10::XalanVector"*, align 8
  store %"class.xalanc_1_10::XalanVector"* %this, %"class.xalanc_1_10::XalanVector"** %this.addr, align 8
  call void @llvm.dbg.declare(metadata %"class.xalanc_1_10::XalanVector"** %this.addr, metadata !2994, metadata !DIExpression()), !dbg !2995
  %this1 = load %"class.xalanc_1_10::XalanVector"*, %"class.xalanc_1_10::XalanVector"** %this.addr, align 8
  call void @_ZNK11xalanc_1_1011XalanVectorItNS_31MemoryManagedConstructionTraitsItEEE10invariantsEv(%"class.xalanc_1_10::XalanVector"* %this1), !dbg !2996
  %m_size = getelementptr inbounds %"class.xalanc_1_10::XalanVector", %"class.xalanc_1_10::XalanVector"* %this1, i32 0, i32 1, !dbg !2997
  %0 = load i64, i64* %m_size, align 8, !dbg !2998
  %dec = add i64 %0, -1, !dbg !2998
  store i64 %dec, i64* %m_size, align 8, !dbg !2998
  %m_data = getelementptr inbounds %"class.xalanc_1_10::XalanVector", %"class.xalanc_1_10::XalanVector"* %this1, i32 0, i32 3, !dbg !2999
  %1 = load i16*, i16** %m_data, align 8, !dbg !2999
  %m_size2 = getelementptr inbounds %"class.xalanc_1_10::XalanVector", %"class.xalanc_1_10::XalanVector"* %this1, i32 0, i32 1, !dbg !3000
  %2 = load i64, i64* %m_size2, align 8, !dbg !3000
  %arrayidx = getelementptr inbounds i16, i16* %1, i64 %2, !dbg !2999
  call void @_ZN11xalanc_1_1011XalanVectorItNS_31MemoryManagedConstructionTraitsItEEE7destroyERt(i16* dereferenceable(2) %arrayidx), !dbg !3001
  call void @_ZNK11xalanc_1_1011XalanVectorItNS_31MemoryManagedConstructionTraitsItEEE10invariantsEv(%"class.xalanc_1_10::XalanVector"* %this1), !dbg !3002
  ret void, !dbg !3003
}

; Function Attrs: noinline uwtable
define linkonce_odr dso_local i64 @_ZSt8distanceIPKtENSt15iterator_traitsIT_E15difference_typeES3_S3_(i16* %__first, i16* %__last) #3 comdat !dbg !3004 {
entry:
  %__first.addr = alloca i16*, align 8
  %__last.addr = alloca i16*, align 8
  %agg.tmp = alloca %"struct.std::random_access_iterator_tag", align 1
  %undef.agg.tmp = alloca %"struct.std::random_access_iterator_tag", align 1
  store i16* %__first, i16** %__first.addr, align 8
  call void @llvm.dbg.declare(metadata i16** %__first.addr, metadata !3010, metadata !DIExpression()), !dbg !3011
  store i16* %__last, i16** %__last.addr, align 8
  call void @llvm.dbg.declare(metadata i16** %__last.addr, metadata !3012, metadata !DIExpression()), !dbg !3013
  %0 = load i16*, i16** %__first.addr, align 8, !dbg !3014
  %1 = load i16*, i16** %__last.addr, align 8, !dbg !3015
  call void @_ZSt19__iterator_categoryIPKtENSt15iterator_traitsIT_E17iterator_categoryERKS3_(i16** dereferenceable(8) %__first.addr), !dbg !3016
  %call = call i64 @_ZSt10__distanceIPKtENSt15iterator_traitsIT_E15difference_typeES3_S3_St26random_access_iterator_tag(i16* %0, i16* %1), !dbg !3017
  ret i64 %call, !dbg !3018
}

; Function Attrs: noinline nounwind uwtable
define linkonce_odr dso_local i64 @_ZSt10__distanceIPKtENSt15iterator_traitsIT_E15difference_typeES3_S3_St26random_access_iterator_tag(i16* %__first, i16* %__last) #1 comdat !dbg !3019 {
entry:
  %0 = alloca %"struct.std::random_access_iterator_tag", align 1
  %__first.addr = alloca i16*, align 8
  %__last.addr = alloca i16*, align 8
  store i16* %__first, i16** %__first.addr, align 8
  call void @llvm.dbg.declare(metadata i16** %__first.addr, metadata !3024, metadata !DIExpression()), !dbg !3025
  store i16* %__last, i16** %__last.addr, align 8
  call void @llvm.dbg.declare(metadata i16** %__last.addr, metadata !3026, metadata !DIExpression()), !dbg !3027
  call void @llvm.dbg.declare(metadata %"struct.std::random_access_iterator_tag"* %0, metadata !3028, metadata !DIExpression()), !dbg !3029
  %1 = load i16*, i16** %__last.addr, align 8, !dbg !3030
  %2 = load i16*, i16** %__first.addr, align 8, !dbg !3031
  %sub.ptr.lhs.cast = ptrtoint i16* %1 to i64, !dbg !3032
  %sub.ptr.rhs.cast = ptrtoint i16* %2 to i64, !dbg !3032
  %sub.ptr.sub = sub i64 %sub.ptr.lhs.cast, %sub.ptr.rhs.cast, !dbg !3032
  %sub.ptr.div = sdiv exact i64 %sub.ptr.sub, 2, !dbg !3032
  ret i64 %sub.ptr.div, !dbg !3033
}

; Function Attrs: noinline nounwind uwtable
define linkonce_odr dso_local void @_ZSt19__iterator_categoryIPKtENSt15iterator_traitsIT_E17iterator_categoryERKS3_(i16** dereferenceable(8) %0) #1 comdat !dbg !3034 {
entry:
  %.addr = alloca i16**, align 8
  store i16** %0, i16*** %.addr, align 8
  call void @llvm.dbg.declare(metadata i16*** %.addr, metadata !3042, metadata !DIExpression()), !dbg !3043
  ret void, !dbg !3044
}

; Function Attrs: noinline uwtable
define linkonce_odr dso_local %"class.xercesc_2_7::DOMElement"** @_ZN11xalanc_1_1011XalanVectorIPN11xercesc_2_710DOMElementENS_31MemoryManagedConstructionTraitsIS3_EEE8allocateEm(%"class.xalanc_1_10::XalanVector.0"* %this, i64 %size) #3 comdat align 2 !dbg !3045 {
entry:
  %this.addr = alloca %"class.xalanc_1_10::XalanVector.0"*, align 8
  %size.addr = alloca i64, align 8
  %theBytesNeeded = alloca i64, align 8
  %pointer = alloca i8*, align 8
  store %"class.xalanc_1_10::XalanVector.0"* %this, %"class.xalanc_1_10::XalanVector.0"** %this.addr, align 8
  call void @llvm.dbg.declare(metadata %"class.xalanc_1_10::XalanVector.0"** %this.addr, metadata !3046, metadata !DIExpression()), !dbg !3047
  store i64 %size, i64* %size.addr, align 8
  call void @llvm.dbg.declare(metadata i64* %size.addr, metadata !3048, metadata !DIExpression()), !dbg !3049
  %this1 = load %"class.xalanc_1_10::XalanVector.0"*, %"class.xalanc_1_10::XalanVector.0"** %this.addr, align 8
  call void @llvm.dbg.declare(metadata i64* %theBytesNeeded, metadata !3050, metadata !DIExpression()), !dbg !3052
  %0 = load i64, i64* %size.addr, align 8, !dbg !3053
  %mul = mul i64 %0, 8, !dbg !3054
  store i64 %mul, i64* %theBytesNeeded, align 8, !dbg !3052
  call void @llvm.dbg.declare(metadata i8** %pointer, metadata !3055, metadata !DIExpression()), !dbg !3056
  %m_memoryManager = getelementptr inbounds %"class.xalanc_1_10::XalanVector.0", %"class.xalanc_1_10::XalanVector.0"* %this1, i32 0, i32 0, !dbg !3057
  %1 = load %"class.xercesc_2_7::MemoryManager"*, %"class.xercesc_2_7::MemoryManager"** %m_memoryManager, align 8, !dbg !3057
  %2 = load i64, i64* %theBytesNeeded, align 8, !dbg !3058
  %3 = bitcast %"class.xercesc_2_7::MemoryManager"* %1 to i8* (%"class.xercesc_2_7::MemoryManager"*, i64)***, !dbg !3059
  %vtable = load i8* (%"class.xercesc_2_7::MemoryManager"*, i64)**, i8* (%"class.xercesc_2_7::MemoryManager"*, i64)*** %3, align 8, !dbg !3059
  %vfn = getelementptr inbounds i8* (%"class.xercesc_2_7::MemoryManager"*, i64)*, i8* (%"class.xercesc_2_7::MemoryManager"*, i64)** %vtable, i64 2, !dbg !3059
  %4 = load i8* (%"class.xercesc_2_7::MemoryManager"*, i64)*, i8* (%"class.xercesc_2_7::MemoryManager"*, i64)** %vfn, align 8, !dbg !3059
  %call = call i8* %4(%"class.xercesc_2_7::MemoryManager"* %1, i64 %2), !dbg !3059
  store i8* %call, i8** %pointer, align 8, !dbg !3056
  %5 = load i8*, i8** %pointer, align 8, !dbg !3060
  %6 = bitcast i8* %5 to %"class.xercesc_2_7::DOMElement"**, !dbg !3061
  ret %"class.xercesc_2_7::DOMElement"** %6, !dbg !3062
}

; Function Attrs: noinline nounwind uwtable
define linkonce_odr dso_local void @_ZNK11xalanc_1_1011XalanVectorIPN11xercesc_2_710DOMElementENS_31MemoryManagedConstructionTraitsIS3_EEE10invariantsEv(%"class.xalanc_1_10::XalanVector.0"* %this) #1 comdat align 2 !dbg !3063 {
entry:
  %this.addr = alloca %"class.xalanc_1_10::XalanVector.0"*, align 8
  store %"class.xalanc_1_10::XalanVector.0"* %this, %"class.xalanc_1_10::XalanVector.0"** %this.addr, align 8
  call void @llvm.dbg.declare(metadata %"class.xalanc_1_10::XalanVector.0"** %this.addr, metadata !3064, metadata !DIExpression()), !dbg !3065
  %this1 = load %"class.xalanc_1_10::XalanVector.0"*, %"class.xalanc_1_10::XalanVector.0"** %this.addr, align 8
  ret void, !dbg !3066
}

; Function Attrs: noinline uwtable
define linkonce_odr dso_local void @_ZN11xalanc_1_1011XalanVectorIPN11xercesc_2_710DOMElementENS_31MemoryManagedConstructionTraitsIS3_EEE7destroyEPS3_S7_(%"class.xercesc_2_7::DOMElement"** %theFirst, %"class.xercesc_2_7::DOMElement"** %theLast) #3 comdat align 2 !dbg !3067 {
entry:
  %theFirst.addr = alloca %"class.xercesc_2_7::DOMElement"**, align 8
  %theLast.addr = alloca %"class.xercesc_2_7::DOMElement"**, align 8
  store %"class.xercesc_2_7::DOMElement"** %theFirst, %"class.xercesc_2_7::DOMElement"*** %theFirst.addr, align 8
  call void @llvm.dbg.declare(metadata %"class.xercesc_2_7::DOMElement"*** %theFirst.addr, metadata !3068, metadata !DIExpression()), !dbg !3069
  store %"class.xercesc_2_7::DOMElement"** %theLast, %"class.xercesc_2_7::DOMElement"*** %theLast.addr, align 8
  call void @llvm.dbg.declare(metadata %"class.xercesc_2_7::DOMElement"*** %theLast.addr, metadata !3070, metadata !DIExpression()), !dbg !3071
  br label %for.cond, !dbg !3072

for.cond:                                         ; preds = %for.inc, %entry
  %0 = load %"class.xercesc_2_7::DOMElement"**, %"class.xercesc_2_7::DOMElement"*** %theFirst.addr, align 8, !dbg !3073
  %1 = load %"class.xercesc_2_7::DOMElement"**, %"class.xercesc_2_7::DOMElement"*** %theLast.addr, align 8, !dbg !3076
  %cmp = icmp ne %"class.xercesc_2_7::DOMElement"** %0, %1, !dbg !3077
  br i1 %cmp, label %for.body, label %for.end, !dbg !3078

for.body:                                         ; preds = %for.cond
  %2 = load %"class.xercesc_2_7::DOMElement"**, %"class.xercesc_2_7::DOMElement"*** %theFirst.addr, align 8, !dbg !3079
  call void @_ZN11xalanc_1_1011XalanVectorIPN11xercesc_2_710DOMElementENS_31MemoryManagedConstructionTraitsIS3_EEE7destroyERS3_(%"class.xercesc_2_7::DOMElement"** dereferenceable(8) %2), !dbg !3081
  br label %for.inc, !dbg !3082

for.inc:                                          ; preds = %for.body
  %3 = load %"class.xercesc_2_7::DOMElement"**, %"class.xercesc_2_7::DOMElement"*** %theFirst.addr, align 8, !dbg !3083
  %incdec.ptr = getelementptr inbounds %"class.xercesc_2_7::DOMElement"*, %"class.xercesc_2_7::DOMElement"** %3, i32 1, !dbg !3083
  store %"class.xercesc_2_7::DOMElement"** %incdec.ptr, %"class.xercesc_2_7::DOMElement"*** %theFirst.addr, align 8, !dbg !3083
  br label %for.cond, !dbg !3084, !llvm.loop !3085

for.end:                                          ; preds = %for.cond
  ret void, !dbg !3087
}

; Function Attrs: noinline nounwind uwtable
define linkonce_odr dso_local %"class.xercesc_2_7::DOMElement"** @_ZN11xalanc_1_1011XalanVectorIPN11xercesc_2_710DOMElementENS_31MemoryManagedConstructionTraitsIS3_EEE5beginEv(%"class.xalanc_1_10::XalanVector.0"* %this) #1 comdat align 2 !dbg !3088 {
entry:
  %this.addr = alloca %"class.xalanc_1_10::XalanVector.0"*, align 8
  store %"class.xalanc_1_10::XalanVector.0"* %this, %"class.xalanc_1_10::XalanVector.0"** %this.addr, align 8
  call void @llvm.dbg.declare(metadata %"class.xalanc_1_10::XalanVector.0"** %this.addr, metadata !3089, metadata !DIExpression()), !dbg !3090
  %this1 = load %"class.xalanc_1_10::XalanVector.0"*, %"class.xalanc_1_10::XalanVector.0"** %this.addr, align 8
  call void @_ZNK11xalanc_1_1011XalanVectorIPN11xercesc_2_710DOMElementENS_31MemoryManagedConstructionTraitsIS3_EEE10invariantsEv(%"class.xalanc_1_10::XalanVector.0"* %this1), !dbg !3091
  %m_data = getelementptr inbounds %"class.xalanc_1_10::XalanVector.0", %"class.xalanc_1_10::XalanVector.0"* %this1, i32 0, i32 3, !dbg !3092
  %0 = load %"class.xercesc_2_7::DOMElement"**, %"class.xercesc_2_7::DOMElement"*** %m_data, align 8, !dbg !3092
  ret %"class.xercesc_2_7::DOMElement"** %0, !dbg !3093
}

; Function Attrs: noinline uwtable
define linkonce_odr dso_local %"class.xercesc_2_7::DOMElement"** @_ZN11xalanc_1_1011XalanVectorIPN11xercesc_2_710DOMElementENS_31MemoryManagedConstructionTraitsIS3_EEE3endEv(%"class.xalanc_1_10::XalanVector.0"* %this) #3 comdat align 2 !dbg !3094 {
entry:
  %this.addr = alloca %"class.xalanc_1_10::XalanVector.0"*, align 8
  store %"class.xalanc_1_10::XalanVector.0"* %this, %"class.xalanc_1_10::XalanVector.0"** %this.addr, align 8
  call void @llvm.dbg.declare(metadata %"class.xalanc_1_10::XalanVector.0"** %this.addr, metadata !3095, metadata !DIExpression()), !dbg !3096
  %this1 = load %"class.xalanc_1_10::XalanVector.0"*, %"class.xalanc_1_10::XalanVector.0"** %this.addr, align 8
  call void @_ZNK11xalanc_1_1011XalanVectorIPN11xercesc_2_710DOMElementENS_31MemoryManagedConstructionTraitsIS3_EEE10invariantsEv(%"class.xalanc_1_10::XalanVector.0"* %this1), !dbg !3097
  %call = call %"class.xercesc_2_7::DOMElement"** @_ZN11xalanc_1_1011XalanVectorIPN11xercesc_2_710DOMElementENS_31MemoryManagedConstructionTraitsIS3_EEE10endPointerEv(%"class.xalanc_1_10::XalanVector.0"* %this1), !dbg !3098
  ret %"class.xercesc_2_7::DOMElement"** %call, !dbg !3099
}

; Function Attrs: noinline uwtable
define linkonce_odr dso_local void @_ZN11xalanc_1_1011XalanVectorIPN11xercesc_2_710DOMElementENS_31MemoryManagedConstructionTraitsIS3_EEE10deallocateEPS3_(%"class.xalanc_1_10::XalanVector.0"* %this, %"class.xercesc_2_7::DOMElement"** %pointer) #3 comdat align 2 !dbg !3100 {
entry:
  %this.addr = alloca %"class.xalanc_1_10::XalanVector.0"*, align 8
  %pointer.addr = alloca %"class.xercesc_2_7::DOMElement"**, align 8
  store %"class.xalanc_1_10::XalanVector.0"* %this, %"class.xalanc_1_10::XalanVector.0"** %this.addr, align 8
  call void @llvm.dbg.declare(metadata %"class.xalanc_1_10::XalanVector.0"** %this.addr, metadata !3101, metadata !DIExpression()), !dbg !3102
  store %"class.xercesc_2_7::DOMElement"** %pointer, %"class.xercesc_2_7::DOMElement"*** %pointer.addr, align 8
  call void @llvm.dbg.declare(metadata %"class.xercesc_2_7::DOMElement"*** %pointer.addr, metadata !3103, metadata !DIExpression()), !dbg !3104
  %this1 = load %"class.xalanc_1_10::XalanVector.0"*, %"class.xalanc_1_10::XalanVector.0"** %this.addr, align 8
  %m_memoryManager = getelementptr inbounds %"class.xalanc_1_10::XalanVector.0", %"class.xalanc_1_10::XalanVector.0"* %this1, i32 0, i32 0, !dbg !3105
  %0 = load %"class.xercesc_2_7::MemoryManager"*, %"class.xercesc_2_7::MemoryManager"** %m_memoryManager, align 8, !dbg !3105
  %1 = load %"class.xercesc_2_7::DOMElement"**, %"class.xercesc_2_7::DOMElement"*** %pointer.addr, align 8, !dbg !3106
  %2 = bitcast %"class.xercesc_2_7::DOMElement"** %1 to i8*, !dbg !3106
  %3 = bitcast %"class.xercesc_2_7::MemoryManager"* %0 to void (%"class.xercesc_2_7::MemoryManager"*, i8*)***, !dbg !3107
  %vtable = load void (%"class.xercesc_2_7::MemoryManager"*, i8*)**, void (%"class.xercesc_2_7::MemoryManager"*, i8*)*** %3, align 8, !dbg !3107
  %vfn = getelementptr inbounds void (%"class.xercesc_2_7::MemoryManager"*, i8*)*, void (%"class.xercesc_2_7::MemoryManager"*, i8*)** %vtable, i64 3, !dbg !3107
  %4 = load void (%"class.xercesc_2_7::MemoryManager"*, i8*)*, void (%"class.xercesc_2_7::MemoryManager"*, i8*)** %vfn, align 8, !dbg !3107
  call void %4(%"class.xercesc_2_7::MemoryManager"* %0, i8* %2), !dbg !3107
  ret void, !dbg !3108
}

; Function Attrs: noinline nounwind uwtable
define linkonce_odr dso_local void @_ZN11xalanc_1_1011XalanVectorIPN11xercesc_2_710DOMElementENS_31MemoryManagedConstructionTraitsIS3_EEE7destroyERS3_(%"class.xercesc_2_7::DOMElement"** dereferenceable(8) %theValue) #1 comdat align 2 !dbg !3109 {
entry:
  %theValue.addr = alloca %"class.xercesc_2_7::DOMElement"**, align 8
  store %"class.xercesc_2_7::DOMElement"** %theValue, %"class.xercesc_2_7::DOMElement"*** %theValue.addr, align 8
  call void @llvm.dbg.declare(metadata %"class.xercesc_2_7::DOMElement"*** %theValue.addr, metadata !3110, metadata !DIExpression()), !dbg !3111
  %0 = load %"class.xercesc_2_7::DOMElement"**, %"class.xercesc_2_7::DOMElement"*** %theValue.addr, align 8, !dbg !3112
  ret void, !dbg !3113
}

; Function Attrs: noinline nounwind uwtable
define linkonce_odr dso_local %"class.xercesc_2_7::DOMElement"** @_ZN11xalanc_1_1011XalanVectorIPN11xercesc_2_710DOMElementENS_31MemoryManagedConstructionTraitsIS3_EEE10endPointerEv(%"class.xalanc_1_10::XalanVector.0"* %this) #1 comdat align 2 !dbg !3114 {
entry:
  %this.addr = alloca %"class.xalanc_1_10::XalanVector.0"*, align 8
  store %"class.xalanc_1_10::XalanVector.0"* %this, %"class.xalanc_1_10::XalanVector.0"** %this.addr, align 8
  call void @llvm.dbg.declare(metadata %"class.xalanc_1_10::XalanVector.0"** %this.addr, metadata !3115, metadata !DIExpression()), !dbg !3116
  %this1 = load %"class.xalanc_1_10::XalanVector.0"*, %"class.xalanc_1_10::XalanVector.0"** %this.addr, align 8
  %m_data = getelementptr inbounds %"class.xalanc_1_10::XalanVector.0", %"class.xalanc_1_10::XalanVector.0"* %this1, i32 0, i32 3, !dbg !3117
  %0 = load %"class.xercesc_2_7::DOMElement"**, %"class.xercesc_2_7::DOMElement"*** %m_data, align 8, !dbg !3117
  %m_size = getelementptr inbounds %"class.xalanc_1_10::XalanVector.0", %"class.xalanc_1_10::XalanVector.0"* %this1, i32 0, i32 1, !dbg !3118
  %1 = load i64, i64* %m_size, align 8, !dbg !3118
  %add.ptr = getelementptr inbounds %"class.xercesc_2_7::DOMElement"*, %"class.xercesc_2_7::DOMElement"** %0, i64 %1, !dbg !3119
  ret %"class.xercesc_2_7::DOMElement"** %add.ptr, !dbg !3120
}

; Function Attrs: noinline uwtable
define linkonce_odr dso_local void @_ZN11xalanc_1_1011XalanVectorIPN11xercesc_2_710DOMElementENS_31MemoryManagedConstructionTraitsIS3_EEE10doPushBackERKS3_(%"class.xalanc_1_10::XalanVector.0"* %this, %"class.xercesc_2_7::DOMElement"** dereferenceable(8) %data) #3 comdat align 2 personality i8* bitcast (i32 (...)* @__gxx_personality_v0 to i8*) !dbg !3121 {
entry:
  %this.addr = alloca %"class.xalanc_1_10::XalanVector.0"*, align 8
  %data.addr = alloca %"class.xercesc_2_7::DOMElement"**, align 8
  %theNewSize = alloca i64, align 8
  %theTemp = alloca %"class.xalanc_1_10::XalanVector.0", align 8
  %exn.slot = alloca i8*
  %ehselector.slot = alloca i32
  store %"class.xalanc_1_10::XalanVector.0"* %this, %"class.xalanc_1_10::XalanVector.0"** %this.addr, align 8
  call void @llvm.dbg.declare(metadata %"class.xalanc_1_10::XalanVector.0"** %this.addr, metadata !3122, metadata !DIExpression()), !dbg !3123
  store %"class.xercesc_2_7::DOMElement"** %data, %"class.xercesc_2_7::DOMElement"*** %data.addr, align 8
  call void @llvm.dbg.declare(metadata %"class.xercesc_2_7::DOMElement"*** %data.addr, metadata !3124, metadata !DIExpression()), !dbg !3125
  %this1 = load %"class.xalanc_1_10::XalanVector.0"*, %"class.xalanc_1_10::XalanVector.0"** %this.addr, align 8
  call void @_ZNK11xalanc_1_1011XalanVectorIPN11xercesc_2_710DOMElementENS_31MemoryManagedConstructionTraitsIS3_EEE10invariantsEv(%"class.xalanc_1_10::XalanVector.0"* %this1), !dbg !3126
  %m_size = getelementptr inbounds %"class.xalanc_1_10::XalanVector.0", %"class.xalanc_1_10::XalanVector.0"* %this1, i32 0, i32 1, !dbg !3127
  %0 = load i64, i64* %m_size, align 8, !dbg !3127
  %m_allocation = getelementptr inbounds %"class.xalanc_1_10::XalanVector.0", %"class.xalanc_1_10::XalanVector.0"* %this1, i32 0, i32 2, !dbg !3129
  %1 = load i64, i64* %m_allocation, align 8, !dbg !3129
  %cmp = icmp ult i64 %0, %1, !dbg !3130
  br i1 %cmp, label %if.then, label %if.else, !dbg !3131

if.then:                                          ; preds = %entry
  %call = call %"class.xercesc_2_7::DOMElement"** @_ZN11xalanc_1_1011XalanVectorIPN11xercesc_2_710DOMElementENS_31MemoryManagedConstructionTraitsIS3_EEE10endPointerEv(%"class.xalanc_1_10::XalanVector.0"* %this1), !dbg !3132
  %2 = load %"class.xercesc_2_7::DOMElement"**, %"class.xercesc_2_7::DOMElement"*** %data.addr, align 8, !dbg !3134
  %m_memoryManager = getelementptr inbounds %"class.xalanc_1_10::XalanVector.0", %"class.xalanc_1_10::XalanVector.0"* %this1, i32 0, i32 0, !dbg !3135
  %3 = load %"class.xercesc_2_7::MemoryManager"*, %"class.xercesc_2_7::MemoryManager"** %m_memoryManager, align 8, !dbg !3135
  %call2 = call %"class.xercesc_2_7::DOMElement"** @_ZN11xalanc_1_1028ConstructWithNoMemoryManagerIPN11xercesc_2_710DOMElementEE9constructEPS3_RKS3_RNS1_13MemoryManagerE(%"class.xercesc_2_7::DOMElement"** %call, %"class.xercesc_2_7::DOMElement"** dereferenceable(8) %2, %"class.xercesc_2_7::MemoryManager"* dereferenceable(8) %3), !dbg !3136
  %m_size3 = getelementptr inbounds %"class.xalanc_1_10::XalanVector.0", %"class.xalanc_1_10::XalanVector.0"* %this1, i32 0, i32 1, !dbg !3137
  %4 = load i64, i64* %m_size3, align 8, !dbg !3138
  %inc = add i64 %4, 1, !dbg !3138
  store i64 %inc, i64* %m_size3, align 8, !dbg !3138
  br label %if.end, !dbg !3139

if.else:                                          ; preds = %entry
  call void @llvm.dbg.declare(metadata i64* %theNewSize, metadata !3140, metadata !DIExpression()), !dbg !3142
  %m_size4 = getelementptr inbounds %"class.xalanc_1_10::XalanVector.0", %"class.xalanc_1_10::XalanVector.0"* %this1, i32 0, i32 1, !dbg !3143
  %5 = load i64, i64* %m_size4, align 8, !dbg !3143
  %cmp5 = icmp eq i64 %5, 0, !dbg !3144
  br i1 %cmp5, label %cond.true, label %cond.false, !dbg !3143

cond.true:                                        ; preds = %if.else
  br label %cond.end, !dbg !3143

cond.false:                                       ; preds = %if.else
  %m_size6 = getelementptr inbounds %"class.xalanc_1_10::XalanVector.0", %"class.xalanc_1_10::XalanVector.0"* %this1, i32 0, i32 1, !dbg !3145
  %6 = load i64, i64* %m_size6, align 8, !dbg !3145
  %conv = uitofp i64 %6 to double, !dbg !3145
  %mul = fmul double %conv, 1.600000e+00, !dbg !3146
  %add = fadd double %mul, 5.000000e-01, !dbg !3147
  %conv7 = fptoui double %add to i64, !dbg !3148
  br label %cond.end, !dbg !3143

cond.end:                                         ; preds = %cond.false, %cond.true
  %cond = phi i64 [ 1, %cond.true ], [ %conv7, %cond.false ], !dbg !3143
  store i64 %cond, i64* %theNewSize, align 8, !dbg !3142
  call void @llvm.dbg.declare(metadata %"class.xalanc_1_10::XalanVector.0"* %theTemp, metadata !3149, metadata !DIExpression()), !dbg !3150
  %m_memoryManager8 = getelementptr inbounds %"class.xalanc_1_10::XalanVector.0", %"class.xalanc_1_10::XalanVector.0"* %this1, i32 0, i32 0, !dbg !3151
  %7 = load %"class.xercesc_2_7::MemoryManager"*, %"class.xercesc_2_7::MemoryManager"** %m_memoryManager8, align 8, !dbg !3151
  %8 = load i64, i64* %theNewSize, align 8, !dbg !3152
  call void @_ZN11xalanc_1_1011XalanVectorIPN11xercesc_2_710DOMElementENS_31MemoryManagedConstructionTraitsIS3_EEEC2ERKS6_RNS1_13MemoryManagerEm(%"class.xalanc_1_10::XalanVector.0"* %theTemp, %"class.xalanc_1_10::XalanVector.0"* dereferenceable(32) %this1, %"class.xercesc_2_7::MemoryManager"* dereferenceable(8) %7, i64 %8), !dbg !3150
  %9 = load %"class.xercesc_2_7::DOMElement"**, %"class.xercesc_2_7::DOMElement"*** %data.addr, align 8, !dbg !3153
  invoke void @_ZN11xalanc_1_1011XalanVectorIPN11xercesc_2_710DOMElementENS_31MemoryManagedConstructionTraitsIS3_EEE10doPushBackERKS3_(%"class.xalanc_1_10::XalanVector.0"* %theTemp, %"class.xercesc_2_7::DOMElement"** dereferenceable(8) %9)
          to label %invoke.cont unwind label %lpad, !dbg !3154

invoke.cont:                                      ; preds = %cond.end
  invoke void @_ZN11xalanc_1_1011XalanVectorIPN11xercesc_2_710DOMElementENS_31MemoryManagedConstructionTraitsIS3_EEE4swapERS6_(%"class.xalanc_1_10::XalanVector.0"* %this1, %"class.xalanc_1_10::XalanVector.0"* dereferenceable(32) %theTemp)
          to label %invoke.cont9 unwind label %lpad, !dbg !3155

invoke.cont9:                                     ; preds = %invoke.cont
  call void @_ZN11xalanc_1_1011XalanVectorIPN11xercesc_2_710DOMElementENS_31MemoryManagedConstructionTraitsIS3_EEED2Ev(%"class.xalanc_1_10::XalanVector.0"* %theTemp) #5, !dbg !3156
  br label %if.end

lpad:                                             ; preds = %invoke.cont, %cond.end
  %10 = landingpad { i8*, i32 }
          cleanup, !dbg !3157
  %11 = extractvalue { i8*, i32 } %10, 0, !dbg !3157
  store i8* %11, i8** %exn.slot, align 8, !dbg !3157
  %12 = extractvalue { i8*, i32 } %10, 1, !dbg !3157
  store i32 %12, i32* %ehselector.slot, align 4, !dbg !3157
  call void @_ZN11xalanc_1_1011XalanVectorIPN11xercesc_2_710DOMElementENS_31MemoryManagedConstructionTraitsIS3_EEED2Ev(%"class.xalanc_1_10::XalanVector.0"* %theTemp) #5, !dbg !3156
  br label %eh.resume, !dbg !3156

if.end:                                           ; preds = %invoke.cont9, %if.then
  call void @_ZNK11xalanc_1_1011XalanVectorIPN11xercesc_2_710DOMElementENS_31MemoryManagedConstructionTraitsIS3_EEE10invariantsEv(%"class.xalanc_1_10::XalanVector.0"* %this1), !dbg !3158
  ret void, !dbg !3159

eh.resume:                                        ; preds = %lpad
  %exn = load i8*, i8** %exn.slot, align 8, !dbg !3156
  %sel = load i32, i32* %ehselector.slot, align 4, !dbg !3156
  %lpad.val = insertvalue { i8*, i32 } undef, i8* %exn, 0, !dbg !3156
  %lpad.val10 = insertvalue { i8*, i32 } %lpad.val, i32 %sel, 1, !dbg !3156
  resume { i8*, i32 } %lpad.val10, !dbg !3156
}

; Function Attrs: noinline nounwind uwtable
define linkonce_odr dso_local %"class.xercesc_2_7::DOMElement"** @_ZN11xalanc_1_1028ConstructWithNoMemoryManagerIPN11xercesc_2_710DOMElementEE9constructEPS3_RKS3_RNS1_13MemoryManagerE(%"class.xercesc_2_7::DOMElement"** %address, %"class.xercesc_2_7::DOMElement"** dereferenceable(8) %theRhs, %"class.xercesc_2_7::MemoryManager"* dereferenceable(8) %0) #1 comdat align 2 !dbg !3160 {
entry:
  %address.addr = alloca %"class.xercesc_2_7::DOMElement"**, align 8
  %theRhs.addr = alloca %"class.xercesc_2_7::DOMElement"**, align 8
  %.addr = alloca %"class.xercesc_2_7::MemoryManager"*, align 8
  store %"class.xercesc_2_7::DOMElement"** %address, %"class.xercesc_2_7::DOMElement"*** %address.addr, align 8
  call void @llvm.dbg.declare(metadata %"class.xercesc_2_7::DOMElement"*** %address.addr, metadata !3171, metadata !DIExpression()), !dbg !3172
  store %"class.xercesc_2_7::DOMElement"** %theRhs, %"class.xercesc_2_7::DOMElement"*** %theRhs.addr, align 8
  call void @llvm.dbg.declare(metadata %"class.xercesc_2_7::DOMElement"*** %theRhs.addr, metadata !3173, metadata !DIExpression()), !dbg !3174
  store %"class.xercesc_2_7::MemoryManager"* %0, %"class.xercesc_2_7::MemoryManager"** %.addr, align 8
  call void @llvm.dbg.declare(metadata %"class.xercesc_2_7::MemoryManager"** %.addr, metadata !3175, metadata !DIExpression()), !dbg !3176
  %1 = load %"class.xercesc_2_7::DOMElement"**, %"class.xercesc_2_7::DOMElement"*** %address.addr, align 8, !dbg !3177
  %2 = bitcast %"class.xercesc_2_7::DOMElement"** %1 to i8*, !dbg !3178
  %3 = bitcast i8* %2 to %"class.xercesc_2_7::DOMElement"**, !dbg !3178
  %4 = load %"class.xercesc_2_7::DOMElement"**, %"class.xercesc_2_7::DOMElement"*** %theRhs.addr, align 8, !dbg !3179
  %5 = load %"class.xercesc_2_7::DOMElement"*, %"class.xercesc_2_7::DOMElement"** %4, align 8, !dbg !3179
  store %"class.xercesc_2_7::DOMElement"* %5, %"class.xercesc_2_7::DOMElement"** %3, align 8, !dbg !3178
  ret %"class.xercesc_2_7::DOMElement"** %3, !dbg !3180
}

; Function Attrs: noinline uwtable
define linkonce_odr dso_local void @_ZN11xalanc_1_1011XalanVectorIPN11xercesc_2_710DOMElementENS_31MemoryManagedConstructionTraitsIS3_EEEC2ERKS6_RNS1_13MemoryManagerEm(%"class.xalanc_1_10::XalanVector.0"* %this, %"class.xalanc_1_10::XalanVector.0"* dereferenceable(32) %theSource, %"class.xercesc_2_7::MemoryManager"* dereferenceable(8) %theManager, i64 %theInitialAllocation) unnamed_addr #3 comdat align 2 personality i8* bitcast (i32 (...)* @__gxx_personality_v0 to i8*) !dbg !3181 {
entry:
  %this.addr = alloca %"class.xalanc_1_10::XalanVector.0"*, align 8
  %theSource.addr = alloca %"class.xalanc_1_10::XalanVector.0"*, align 8
  %theManager.addr = alloca %"class.xercesc_2_7::MemoryManager"*, align 8
  %theInitialAllocation.addr = alloca i64, align 8
  %theTemp = alloca %"class.xalanc_1_10::XalanVector.0", align 8
  %exn.slot = alloca i8*
  %ehselector.slot = alloca i32
  store %"class.xalanc_1_10::XalanVector.0"* %this, %"class.xalanc_1_10::XalanVector.0"** %this.addr, align 8
  call void @llvm.dbg.declare(metadata %"class.xalanc_1_10::XalanVector.0"** %this.addr, metadata !3182, metadata !DIExpression()), !dbg !3183
  store %"class.xalanc_1_10::XalanVector.0"* %theSource, %"class.xalanc_1_10::XalanVector.0"** %theSource.addr, align 8
  call void @llvm.dbg.declare(metadata %"class.xalanc_1_10::XalanVector.0"** %theSource.addr, metadata !3184, metadata !DIExpression()), !dbg !3185
  store %"class.xercesc_2_7::MemoryManager"* %theManager, %"class.xercesc_2_7::MemoryManager"** %theManager.addr, align 8
  call void @llvm.dbg.declare(metadata %"class.xercesc_2_7::MemoryManager"** %theManager.addr, metadata !3186, metadata !DIExpression()), !dbg !3187
  store i64 %theInitialAllocation, i64* %theInitialAllocation.addr, align 8
  call void @llvm.dbg.declare(metadata i64* %theInitialAllocation.addr, metadata !3188, metadata !DIExpression()), !dbg !3189
  %this1 = load %"class.xalanc_1_10::XalanVector.0"*, %"class.xalanc_1_10::XalanVector.0"** %this.addr, align 8
  %m_memoryManager = getelementptr inbounds %"class.xalanc_1_10::XalanVector.0", %"class.xalanc_1_10::XalanVector.0"* %this1, i32 0, i32 0, !dbg !3190
  %0 = load %"class.xercesc_2_7::MemoryManager"*, %"class.xercesc_2_7::MemoryManager"** %theManager.addr, align 8, !dbg !3191
  store %"class.xercesc_2_7::MemoryManager"* %0, %"class.xercesc_2_7::MemoryManager"** %m_memoryManager, align 8, !dbg !3190
  %m_size = getelementptr inbounds %"class.xalanc_1_10::XalanVector.0", %"class.xalanc_1_10::XalanVector.0"* %this1, i32 0, i32 1, !dbg !3192
  store i64 0, i64* %m_size, align 8, !dbg !3192
  %m_allocation = getelementptr inbounds %"class.xalanc_1_10::XalanVector.0", %"class.xalanc_1_10::XalanVector.0"* %this1, i32 0, i32 2, !dbg !3193
  store i64 0, i64* %m_allocation, align 8, !dbg !3193
  %m_data = getelementptr inbounds %"class.xalanc_1_10::XalanVector.0", %"class.xalanc_1_10::XalanVector.0"* %this1, i32 0, i32 3, !dbg !3194
  store %"class.xercesc_2_7::DOMElement"** null, %"class.xercesc_2_7::DOMElement"*** %m_data, align 8, !dbg !3194
  %1 = load %"class.xalanc_1_10::XalanVector.0"*, %"class.xalanc_1_10::XalanVector.0"** %theSource.addr, align 8, !dbg !3195
  %m_size2 = getelementptr inbounds %"class.xalanc_1_10::XalanVector.0", %"class.xalanc_1_10::XalanVector.0"* %1, i32 0, i32 1, !dbg !3198
  %2 = load i64, i64* %m_size2, align 8, !dbg !3198
  %cmp = icmp ugt i64 %2, 0, !dbg !3199
  br i1 %cmp, label %if.then, label %if.else, !dbg !3200

if.then:                                          ; preds = %entry
  call void @llvm.dbg.declare(metadata %"class.xalanc_1_10::XalanVector.0"* %theTemp, metadata !3201, metadata !DIExpression()), !dbg !3203
  %3 = load %"class.xercesc_2_7::MemoryManager"*, %"class.xercesc_2_7::MemoryManager"** %theManager.addr, align 8, !dbg !3204
  %4 = load %"class.xalanc_1_10::XalanVector.0"*, %"class.xalanc_1_10::XalanVector.0"** %theSource.addr, align 8, !dbg !3205
  %m_size3 = getelementptr inbounds %"class.xalanc_1_10::XalanVector.0", %"class.xalanc_1_10::XalanVector.0"* %4, i32 0, i32 1, !dbg !3206
  %5 = load i64, i64* %m_size3, align 8, !dbg !3206
  %6 = load i64, i64* %theInitialAllocation.addr, align 8, !dbg !3207
  %call = call i64 @_ZN11xalanc_1_1011XalanVectorIPN11xercesc_2_710DOMElementENS_31MemoryManagedConstructionTraitsIS3_EEE9local_maxEmm(%"class.xalanc_1_10::XalanVector.0"* %this1, i64 %5, i64 %6), !dbg !3208
  call void @_ZN11xalanc_1_1011XalanVectorIPN11xercesc_2_710DOMElementENS_31MemoryManagedConstructionTraitsIS3_EEEC2ERNS1_13MemoryManagerEm(%"class.xalanc_1_10::XalanVector.0"* %theTemp, %"class.xercesc_2_7::MemoryManager"* dereferenceable(8) %3, i64 %call), !dbg !3203
  %call4 = invoke %"class.xercesc_2_7::DOMElement"** @_ZN11xalanc_1_1011XalanVectorIPN11xercesc_2_710DOMElementENS_31MemoryManagedConstructionTraitsIS3_EEE5beginEv(%"class.xalanc_1_10::XalanVector.0"* %theTemp)
          to label %invoke.cont unwind label %lpad, !dbg !3209

invoke.cont:                                      ; preds = %if.then
  %7 = load %"class.xalanc_1_10::XalanVector.0"*, %"class.xalanc_1_10::XalanVector.0"** %theSource.addr, align 8, !dbg !3210
  %call6 = invoke %"class.xercesc_2_7::DOMElement"** @_ZNK11xalanc_1_1011XalanVectorIPN11xercesc_2_710DOMElementENS_31MemoryManagedConstructionTraitsIS3_EEE5beginEv(%"class.xalanc_1_10::XalanVector.0"* %7)
          to label %invoke.cont5 unwind label %lpad, !dbg !3211

invoke.cont5:                                     ; preds = %invoke.cont
  %8 = load %"class.xalanc_1_10::XalanVector.0"*, %"class.xalanc_1_10::XalanVector.0"** %theSource.addr, align 8, !dbg !3212
  %call8 = invoke %"class.xercesc_2_7::DOMElement"** @_ZNK11xalanc_1_1011XalanVectorIPN11xercesc_2_710DOMElementENS_31MemoryManagedConstructionTraitsIS3_EEE3endEv(%"class.xalanc_1_10::XalanVector.0"* %8)
          to label %invoke.cont7 unwind label %lpad, !dbg !3213

invoke.cont7:                                     ; preds = %invoke.cont5
  invoke void @_ZN11xalanc_1_1011XalanVectorIPN11xercesc_2_710DOMElementENS_31MemoryManagedConstructionTraitsIS3_EEE6insertEPS3_PKS3_S9_(%"class.xalanc_1_10::XalanVector.0"* %theTemp, %"class.xercesc_2_7::DOMElement"** %call4, %"class.xercesc_2_7::DOMElement"** %call6, %"class.xercesc_2_7::DOMElement"** %call8)
          to label %invoke.cont9 unwind label %lpad, !dbg !3214

invoke.cont9:                                     ; preds = %invoke.cont7
  invoke void @_ZN11xalanc_1_1011XalanVectorIPN11xercesc_2_710DOMElementENS_31MemoryManagedConstructionTraitsIS3_EEE4swapERS6_(%"class.xalanc_1_10::XalanVector.0"* %this1, %"class.xalanc_1_10::XalanVector.0"* dereferenceable(32) %theTemp)
          to label %invoke.cont10 unwind label %lpad, !dbg !3215

invoke.cont10:                                    ; preds = %invoke.cont9
  call void @_ZN11xalanc_1_1011XalanVectorIPN11xercesc_2_710DOMElementENS_31MemoryManagedConstructionTraitsIS3_EEED2Ev(%"class.xalanc_1_10::XalanVector.0"* %theTemp) #5, !dbg !3216
  br label %if.end16, !dbg !3217

lpad:                                             ; preds = %invoke.cont9, %invoke.cont7, %invoke.cont5, %invoke.cont, %if.then
  %9 = landingpad { i8*, i32 }
          cleanup, !dbg !3218
  %10 = extractvalue { i8*, i32 } %9, 0, !dbg !3218
  store i8* %10, i8** %exn.slot, align 8, !dbg !3218
  %11 = extractvalue { i8*, i32 } %9, 1, !dbg !3218
  store i32 %11, i32* %ehselector.slot, align 4, !dbg !3218
  call void @_ZN11xalanc_1_1011XalanVectorIPN11xercesc_2_710DOMElementENS_31MemoryManagedConstructionTraitsIS3_EEED2Ev(%"class.xalanc_1_10::XalanVector.0"* %theTemp) #5, !dbg !3216
  br label %eh.resume, !dbg !3216

if.else:                                          ; preds = %entry
  %12 = load i64, i64* %theInitialAllocation.addr, align 8, !dbg !3219
  %cmp11 = icmp ugt i64 %12, 0, !dbg !3221
  br i1 %cmp11, label %if.then12, label %if.end, !dbg !3222

if.then12:                                        ; preds = %if.else
  %13 = load i64, i64* %theInitialAllocation.addr, align 8, !dbg !3223
  %call13 = call %"class.xercesc_2_7::DOMElement"** @_ZN11xalanc_1_1011XalanVectorIPN11xercesc_2_710DOMElementENS_31MemoryManagedConstructionTraitsIS3_EEE8allocateEm(%"class.xalanc_1_10::XalanVector.0"* %this1, i64 %13), !dbg !3225
  %m_data14 = getelementptr inbounds %"class.xalanc_1_10::XalanVector.0", %"class.xalanc_1_10::XalanVector.0"* %this1, i32 0, i32 3, !dbg !3226
  store %"class.xercesc_2_7::DOMElement"** %call13, %"class.xercesc_2_7::DOMElement"*** %m_data14, align 8, !dbg !3227
  %14 = load i64, i64* %theInitialAllocation.addr, align 8, !dbg !3228
  %m_allocation15 = getelementptr inbounds %"class.xalanc_1_10::XalanVector.0", %"class.xalanc_1_10::XalanVector.0"* %this1, i32 0, i32 2, !dbg !3229
  store i64 %14, i64* %m_allocation15, align 8, !dbg !3230
  br label %if.end, !dbg !3231

if.end:                                           ; preds = %if.then12, %if.else
  br label %if.end16

if.end16:                                         ; preds = %if.end, %invoke.cont10
  call void @_ZNK11xalanc_1_1011XalanVectorIPN11xercesc_2_710DOMElementENS_31MemoryManagedConstructionTraitsIS3_EEE10invariantsEv(%"class.xalanc_1_10::XalanVector.0"* %this1), !dbg !3232
  ret void, !dbg !3233

