; ModuleID = 'XPathMatcher.cpp'
source_filename = "XPathMatcher.cpp"
target datalayout = "e-m:e-p270:32:32-p271:32:32-p272:64:64-i64:64-f80:128-n8:16:32:64-S128"
target triple = "x86_64-unknown-linux-gnu"

%"class.xercesc_2_7::XPathMatcher" = type { i32 (...)**, i32, i32*, i32*, i32*, %"class.xercesc_2_7::RefVectorOf"*, %"class.xercesc_2_7::RefVectorOf.0"*, %"class.xercesc_2_7::IdentityConstraint"*, %"class.xercesc_2_7::MemoryManager"* }
%"class.xercesc_2_7::RefVectorOf" = type { %"class.xercesc_2_7::BaseRefVectorOf" }
%"class.xercesc_2_7::BaseRefVectorOf" = type { i32 (...)**, i8, i32, i32, %"class.xercesc_2_7::ValueStackOf"**, %"class.xercesc_2_7::MemoryManager"* }
%"class.xercesc_2_7::ValueStackOf" = type { [8 x i8], %"class.xercesc_2_7::ValueVectorOf" }
%"class.xercesc_2_7::ValueVectorOf" = type { i8, i32, i32, i32*, %"class.xercesc_2_7::MemoryManager"* }
%"class.xercesc_2_7::RefVectorOf.0" = type { %"class.xercesc_2_7::BaseRefVectorOf.1" }
%"class.xercesc_2_7::BaseRefVectorOf.1" = type { i32 (...)**, i8, i32, i32, %"class.xercesc_2_7::XercesLocationPath"**, %"class.xercesc_2_7::MemoryManager"* }
%"class.xercesc_2_7::XercesLocationPath" = type { %"class.xercesc_2_7::XSerializable", %"class.xercesc_2_7::RefVectorOf.2"* }
%"class.xercesc_2_7::XSerializable" = type { i32 (...)** }
%"class.xercesc_2_7::RefVectorOf.2" = type { %"class.xercesc_2_7::BaseRefVectorOf.3" }
%"class.xercesc_2_7::BaseRefVectorOf.3" = type { i32 (...)**, i8, i32, i32, %"class.xercesc_2_7::XercesStep"**, %"class.xercesc_2_7::MemoryManager"* }
%"class.xercesc_2_7::XercesStep" = type { %"class.xercesc_2_7::XSerializable", i16, %"class.xercesc_2_7::XercesNodeTest"* }
%"class.xercesc_2_7::XercesNodeTest" = type { %"class.xercesc_2_7::XSerializable", i16, %"class.xercesc_2_7::QName"* }
%"class.xercesc_2_7::QName" = type { %"class.xercesc_2_7::XSerializable", i32, i32, i32, i32, i16*, i16*, i16*, %"class.xercesc_2_7::MemoryManager"* }
%"class.xercesc_2_7::IdentityConstraint" = type <{ %"class.xercesc_2_7::XSerializable", i16*, i16*, %"class.xercesc_2_7::IC_Selector"*, %"class.xercesc_2_7::RefVectorOf.4"*, %"class.xercesc_2_7::MemoryManager"*, i32, [4 x i8] }>
%"class.xercesc_2_7::IC_Selector" = type opaque
%"class.xercesc_2_7::RefVectorOf.4" = type { %"class.xercesc_2_7::BaseRefVectorOf.5" }
%"class.xercesc_2_7::BaseRefVectorOf.5" = type { i32 (...)**, i8, i32, i32, %"class.xercesc_2_7::IC_Field"**, %"class.xercesc_2_7::MemoryManager"* }
%"class.xercesc_2_7::IC_Field" = type { %"class.xercesc_2_7::XSerializable", %"class.xercesc_2_7::XercesXPath"*, %"class.xercesc_2_7::IdentityConstraint"* }
%"class.xercesc_2_7::XercesXPath" = type { %"class.xercesc_2_7::XSerializable", i32, i16*, %"class.xercesc_2_7::RefVectorOf.0"*, %"class.xercesc_2_7::MemoryManager"* }
%"class.xercesc_2_7::MemoryManager" = type { i32 (...)** }
%"class.xercesc_2_7::XMLDeleter" = type { i32 (...)** }
%"class.xercesc_2_7::XPathScanner" = type { i32 (...)**, i32, i32, i32, i32, i32, i32, i32, i32, i32, i32, i32, i32, i32, i32, i32, i32, i32, i32, i32, i32, i32, %"class.xercesc_2_7::XMLStringPool"* }
%"class.xercesc_2_7::XMLStringPool" = type opaque
%"class.xercesc_2_7::XMLAttDefList" = type { %"class.xercesc_2_7::XSerializable", %"class.xercesc_2_7::MemoryManager"* }
%"class.xercesc_2_7::JanitorMemFunCall" = type { %"class.xercesc_2_7::XPathMatcher"*, { i64, i64 } }
%"class.xercesc_2_7::OutOfMemoryException" = type { i8 }
%"class.xercesc_2_7::XMemory" = type { i8 }
%"class.xercesc_2_7::ArrayIndexOutOfBoundsException" = type { %"class.xercesc_2_7::XMLException" }
%"class.xercesc_2_7::XMLException" = type { i32 (...)**, i32, i8*, i32, i16*, %"class.xercesc_2_7::MemoryManager"* }
%"class.xercesc_2_7::XMLElementDecl" = type <{ %"class.xercesc_2_7::XSerializable", %"class.xercesc_2_7::MemoryManager"*, %"class.xercesc_2_7::QName"*, i32, i32, i8, [7 x i8] }>
%"class.xercesc_2_7::RefVectorOf.6" = type { %"class.xercesc_2_7::BaseRefVectorOf.7" }
%"class.xercesc_2_7::BaseRefVectorOf.7" = type { i32 (...)**, i8, i32, i32, %"class.xercesc_2_7::XMLAttr"**, %"class.xercesc_2_7::MemoryManager"* }
%"class.xercesc_2_7::XMLAttr" = type <{ i8, [3 x i8], i32, i32, [4 x i8], i16*, %"class.xercesc_2_7::QName"*, %"class.xercesc_2_7::MemoryManager"*, %"class.xercesc_2_7::DatatypeValidator"*, i8, [7 x i8] }>
%"class.xercesc_2_7::DatatypeValidator" = type { %"class.xercesc_2_7::XSerializable", i8, i8, i8, i8, i16, i32, i32, i32, i32, i32, %"class.xercesc_2_7::DatatypeValidator"*, %"class.xercesc_2_7::RefHashTableOf"*, i16*, %"class.xercesc_2_7::RegularExpression"*, i16*, i16*, i16*, %"class.xercesc_2_7::MemoryManager"* }
%"class.xercesc_2_7::RefHashTableOf" = type opaque
%"class.xercesc_2_7::RegularExpression" = type { i8, i8, i32, i32, i32, i32, %"class.xercesc_2_7::BMPattern"*, i16*, i16*, %"class.xercesc_2_7::Op"*, %"class.xercesc_2_7::Token"*, %"class.xercesc_2_7::RangeToken"*, %"class.xercesc_2_7::OpFactory", %"class.xercesc_2_7::TokenFactory"*, %"class.xercesc_2_7::MemoryManager"* }
%"class.xercesc_2_7::BMPattern" = type { i8, i32, i32*, i16*, i16*, %"class.xercesc_2_7::MemoryManager"* }
%"class.xercesc_2_7::Op" = type { i32 (...)**, %"class.xercesc_2_7::MemoryManager"*, i16, %"class.xercesc_2_7::Op"* }
%"class.xercesc_2_7::Token" = type { i32 (...)**, i16, %"class.xercesc_2_7::MemoryManager"* }
%"class.xercesc_2_7::RangeToken" = type opaque
%"class.xercesc_2_7::OpFactory" = type { %"class.xercesc_2_7::RefVectorOf.8"*, %"class.xercesc_2_7::MemoryManager"* }
%"class.xercesc_2_7::RefVectorOf.8" = type { %"class.xercesc_2_7::BaseRefVectorOf.9" }
%"class.xercesc_2_7::BaseRefVectorOf.9" = type { i32 (...)**, i8, i32, i32, %"class.xercesc_2_7::Op"**, %"class.xercesc_2_7::MemoryManager"* }
%"class.xercesc_2_7::TokenFactory" = type { %"class.xercesc_2_7::RefVectorOf.10"*, %"class.xercesc_2_7::Token"*, %"class.xercesc_2_7::Token"*, %"class.xercesc_2_7::Token"*, %"class.xercesc_2_7::Token"*, %"class.xercesc_2_7::Token"*, %"class.xercesc_2_7::Token"*, %"class.xercesc_2_7::Token"*, %"class.xercesc_2_7::Token"*, %"class.xercesc_2_7::Token"*, %"class.xercesc_2_7::Token"*, %"class.xercesc_2_7::Token"*, %"class.xercesc_2_7::Token"*, %"class.xercesc_2_7::Token"*, %"class.xercesc_2_7::Token"*, %"class.xercesc_2_7::MemoryManager"* }
%"class.xercesc_2_7::RefVectorOf.10" = type opaque
%"class.xercesc_2_7::SchemaAttDef" = type { %"class.xercesc_2_7::XMLAttDef", i32, i32, i32, i32, %"class.xercesc_2_7::QName"*, %"class.xercesc_2_7::DatatypeValidator"*, %"class.xercesc_2_7::DatatypeValidator"*, %"class.xercesc_2_7::DatatypeValidator"*, %"class.xercesc_2_7::ValueVectorOf.11"*, %"class.xercesc_2_7::SchemaAttDef"* }
%"class.xercesc_2_7::XMLAttDef" = type { %"class.xercesc_2_7::XSerializable", i32, i32, i32, i8, i8, i32, i16*, i16*, %"class.xercesc_2_7::MemoryManager"* }
%"class.xercesc_2_7::ValueVectorOf.11" = type { i8, i32, i32, i32*, %"class.xercesc_2_7::MemoryManager"* }
%"class.xercesc_2_7::SchemaElementDecl" = type <{ %"class.xercesc_2_7::XMLElementDecl.base", [3 x i8], i32, i32, i32, i32, i32, i32, i32, i32, [4 x i8], i16*, %"class.xercesc_2_7::ComplexTypeInfo"*, %"class.xercesc_2_7::RefHash2KeysTableOf"*, %"class.xercesc_2_7::ComplexTypeInfo"*, %"class.xercesc_2_7::DatatypeValidator"*, %"class.xercesc_2_7::RefVectorOf.14"*, %"class.xercesc_2_7::SchemaAttDef"*, %"class.xercesc_2_7::SchemaElementDecl"*, %"class.xercesc_2_7::DatatypeValidator"*, i8, i8, i8, [5 x i8] }>
%"class.xercesc_2_7::XMLElementDecl.base" = type <{ %"class.xercesc_2_7::XSerializable", %"class.xercesc_2_7::MemoryManager"*, %"class.xercesc_2_7::QName"*, i32, i32, i8 }>
%"class.xercesc_2_7::RefHash2KeysTableOf" = type { %"class.xercesc_2_7::MemoryManager"*, i8, %"struct.xercesc_2_7::RefHash2KeysTableBucketElem"**, i32, i32, %"class.xercesc_2_7::HashBase"* }
%"struct.xercesc_2_7::RefHash2KeysTableBucketElem" = type <{ %"class.xercesc_2_7::SchemaAttDef"*, %"struct.xercesc_2_7::RefHash2KeysTableBucketElem"*, i8*, i32, [4 x i8] }>
%"class.xercesc_2_7::HashBase" = type { i32 (...)** }
%"class.xercesc_2_7::ComplexTypeInfo" = type { %"class.xercesc_2_7::XSerializable", i8, i8, i8, i8, i8, i32, i32, i32, i32, i32, i32, i32, i32, i16*, i16*, i16*, %"class.xercesc_2_7::DatatypeValidator"*, %"class.xercesc_2_7::DatatypeValidator"*, %"class.xercesc_2_7::ComplexTypeInfo"*, %"class.xercesc_2_7::ContentSpecNode"*, %"class.xercesc_2_7::SchemaAttDef"*, %"class.xercesc_2_7::SchemaAttDefList"*, %"class.xercesc_2_7::RefVectorOf.12"*, %"class.xercesc_2_7::RefHash2KeysTableOf"*, %"class.xercesc_2_7::XMLContentModel"*, i16*, i32*, %"class.xercesc_2_7::XSDLocator"*, %"class.xercesc_2_7::MemoryManager"* }
%"class.xercesc_2_7::ContentSpecNode" = type opaque
%"class.xercesc_2_7::SchemaAttDefList" = type opaque
%"class.xercesc_2_7::RefVectorOf.12" = type { %"class.xercesc_2_7::BaseRefVectorOf.13" }
%"class.xercesc_2_7::BaseRefVectorOf.13" = type { i32 (...)**, i8, i32, i32, %"class.xercesc_2_7::SchemaElementDecl"**, %"class.xercesc_2_7::MemoryManager"* }
%"class.xercesc_2_7::XMLContentModel" = type { i32 (...)** }
%"class.xercesc_2_7::XSDLocator" = type opaque
%"class.xercesc_2_7::RefVectorOf.14" = type { %"class.xercesc_2_7::BaseRefVectorOf.15" }
%"class.xercesc_2_7::BaseRefVectorOf.15" = type { i32 (...)**, i8, i32, i32, %"class.xercesc_2_7::IdentityConstraint"**, %"class.xercesc_2_7::MemoryManager"* }
%"class.xercesc_2_7::EmptyStackException" = type { %"class.xercesc_2_7::XMLException" }
%"class.xercesc_2_7::RuntimeException" = type { %"class.xercesc_2_7::XMLException" }
%"class.xercesc_2_7::XSerializeEngine" = type <{ i16, i16, [4 x i8], %"class.xercesc_2_7::XMLGrammarPool"*, %"class.xercesc_2_7::BinInputStream"*, %"class.xercesc_2_7::BinOutputStream"*, i64, i64, i8*, i8*, i8*, i8*, %"class.xercesc_2_7::RefHashTableOf.16"*, %"class.xercesc_2_7::ValueVectorOf.17"*, i32, [4 x i8] }>
%"class.xercesc_2_7::XMLGrammarPool" = type opaque
%"class.xercesc_2_7::BinInputStream" = type opaque
%"class.xercesc_2_7::BinOutputStream" = type opaque
%"class.xercesc_2_7::RefHashTableOf.16" = type opaque
%"class.xercesc_2_7::ValueVectorOf.17" = type opaque
%"class.xercesc_2_7::XProtoType" = type { i8*, %"class.xercesc_2_7::XSerializable"* (%"class.xercesc_2_7::MemoryManager"*)* }

$_ZN11xercesc_2_710XMLDeleterD0Ev = comdat any

$_ZN11xercesc_2_710XMLDeleterD2Ev = comdat any

$_ZN11xercesc_2_712XPathScanner8addTokenEPNS_13ValueVectorOfIiEEi = comdat any

$_ZN11xercesc_2_713ValueVectorOfIiE10addElementERKi = comdat any

$_ZN11xercesc_2_713XSerializableD2Ev = comdat any

$_ZN11xercesc_2_713XMLAttDefListD0Ev = comdat any

$_ZN11xercesc_2_77XMemoryC2Ev = comdat any

$_ZN11xercesc_2_712XPathMatcher7cleanUpEv = comdat any

$_ZN11xercesc_2_717JanitorMemFunCallINS_12XPathMatcherEEC2EPS1_MS1_FvvE = comdat any

$_ZN11xercesc_2_717JanitorMemFunCallINS_12XPathMatcherEE7releaseEv = comdat any

$__clang_call_terminate = comdat any

$_ZN11xercesc_2_717JanitorMemFunCallINS_12XPathMatcherEED2Ev = comdat any

$_ZNK11xercesc_2_711XercesXPath16getLocationPathsEv = comdat any

$_ZNK11xercesc_2_715BaseRefVectorOfINS_18XercesLocationPathEE4sizeEv = comdat any

$_ZN11xercesc_2_711RefVectorOfINS_12ValueStackOfIiEEEC2EjbPNS_13MemoryManagerE = comdat any

$_ZN11xercesc_2_715BaseRefVectorOfINS_12ValueStackOfIiEEE10addElementEPS2_ = comdat any

$_ZN11xercesc_2_712ValueStackOfIiEC2EjPNS_13MemoryManagerEb = comdat any

$_ZN11xercesc_2_715BaseRefVectorOfINS_12ValueStackOfIiEEE9elementAtEj = comdat any

$_ZN11xercesc_2_712ValueStackOfIiE17removeAllElementsEv = comdat any

$_ZN11xercesc_2_712ValueStackOfIiE4pushERKi = comdat any

$_ZN11xercesc_2_715BaseRefVectorOfINS_18XercesLocationPathEE9elementAtEj = comdat any

$_ZNK11xercesc_2_718XercesLocationPath11getStepSizeEv = comdat any

$_ZNK11xercesc_2_718XercesLocationPath7getStepEj = comdat any

$_ZNK11xercesc_2_710XercesStep11getAxisTypeEv = comdat any

$_ZNK11xercesc_2_710XercesStep11getNodeTestEv = comdat any

$_ZNK11xercesc_2_714XercesNodeTest7getTypeEv = comdat any

$_ZNK11xercesc_2_714XMLElementDecl14getElementNameEv = comdat any

$_ZNK11xercesc_2_75QName12getLocalPartEv = comdat any

$_ZNK11xercesc_2_714XercesNodeTest7getNameEv = comdat any

$_ZNK11xercesc_2_715BaseRefVectorOfINS_7XMLAttrEE9elementAtEj = comdat any

$_ZNK11xercesc_2_77XMLAttr10getAttNameEv = comdat any

$_ZNK11xercesc_2_77XMLAttr7getNameEv = comdat any

$_ZNK11xercesc_2_77XMLAttr8getURIIdEv = comdat any

$_ZNK11xercesc_2_712SchemaAttDef20getDatatypeValidatorEv = comdat any

$_ZNK11xercesc_2_77XMLAttr8getValueEv = comdat any

$_ZN11xercesc_2_712ValueStackOfIiE3popEv = comdat any

$_ZNK11xercesc_2_717SchemaElementDecl20getDatatypeValidatorEv = comdat any

$_ZNK11xercesc_2_717SchemaElementDecl12getMiscFlagsEv = comdat any

$_ZN11xercesc_2_716RuntimeExceptionC2EPKcjNS_10XMLExcepts5CodesEPNS_13MemoryManagerE = comdat any

$_ZN11xercesc_2_716RuntimeExceptionD2Ev = comdat any

$_ZN11xercesc_2_712XPathScannerD2Ev = comdat any

$_ZN11xercesc_2_712XPathScannerD0Ev = comdat any

$_ZN11xercesc_2_713XMLAttDefListD2Ev = comdat any

$_ZNK11xercesc_2_715BaseRefVectorOfINS_10XercesStepEE4sizeEv = comdat any

$_ZN11xercesc_2_715BaseRefVectorOfINS_10XercesStepEE9elementAtEj = comdat any

$_ZN11xercesc_2_730ArrayIndexOutOfBoundsExceptionC2EPKcjNS_10XMLExcepts5CodesEPNS_13MemoryManagerE = comdat any

$_ZN11xercesc_2_730ArrayIndexOutOfBoundsExceptionD2Ev = comdat any

$_ZN11xercesc_2_730ArrayIndexOutOfBoundsExceptionD0Ev = comdat any

$_ZNK11xercesc_2_730ArrayIndexOutOfBoundsException7getTypeEv = comdat any

$_ZNK11xercesc_2_730ArrayIndexOutOfBoundsException9duplicateEv = comdat any

$_ZN11xercesc_2_730ArrayIndexOutOfBoundsExceptionC2ERKS0_ = comdat any

$_ZN11xercesc_2_75QName12getLocalPartEv = comdat any

$_ZNK11xercesc_2_75QName6getURIEv = comdat any

$_ZN11xercesc_2_716RuntimeExceptionD0Ev = comdat any

$_ZNK11xercesc_2_716RuntimeException7getTypeEv = comdat any

$_ZNK11xercesc_2_716RuntimeException9duplicateEv = comdat any

$_ZN11xercesc_2_716RuntimeExceptionC2ERKS0_ = comdat any

$_ZN11xercesc_2_713ValueVectorOfIiE19ensureExtraCapacityEj = comdat any

$_ZN11xercesc_2_715BaseRefVectorOfINS_12ValueStackOfIiEEEC2EjbPNS_13MemoryManagerE = comdat any

$_ZN11xercesc_2_711RefVectorOfINS_12ValueStackOfIiEEED2Ev = comdat any

$_ZN11xercesc_2_711RefVectorOfINS_12ValueStackOfIiEEED0Ev = comdat any

$_ZN11xercesc_2_715BaseRefVectorOfINS_12ValueStackOfIiEEE12setElementAtEPS2_j = comdat any

$_ZN11xercesc_2_715BaseRefVectorOfINS_12ValueStackOfIiEEE17removeAllElementsEv = comdat any

$_ZN11xercesc_2_715BaseRefVectorOfINS_12ValueStackOfIiEEE15removeElementAtEj = comdat any

$_ZN11xercesc_2_715BaseRefVectorOfINS_12ValueStackOfIiEEE17removeLastElementEv = comdat any

$_ZN11xercesc_2_715BaseRefVectorOfINS_12ValueStackOfIiEEE7cleanupEv = comdat any

$_ZN11xercesc_2_715BaseRefVectorOfINS_12ValueStackOfIiEEED2Ev = comdat any

$_ZN11xercesc_2_715BaseRefVectorOfINS_12ValueStackOfIiEEED0Ev = comdat any

$_ZN11xercesc_2_712ValueStackOfIiED2Ev = comdat any

$_ZN11xercesc_2_713ValueVectorOfIiED2Ev = comdat any

$_ZN11xercesc_2_715BaseRefVectorOfINS_12ValueStackOfIiEEE19ensureExtraCapacityEj = comdat any

$_ZN11xercesc_2_713ValueVectorOfIiEC2EjPNS_13MemoryManagerEb = comdat any

$_ZN11xercesc_2_713ValueVectorOfIiE17removeAllElementsEv = comdat any

$_ZNK11xercesc_2_713ValueVectorOfIiE4sizeEv = comdat any

$_ZNK11xercesc_2_713ValueVectorOfIiE16getMemoryManagerEv = comdat any

$_ZN11xercesc_2_719EmptyStackExceptionC2EPKcjNS_10XMLExcepts5CodesEPNS_13MemoryManagerE = comdat any

$_ZN11xercesc_2_719EmptyStackExceptionD2Ev = comdat any

$_ZN11xercesc_2_713ValueVectorOfIiE9elementAtEj = comdat any

$_ZN11xercesc_2_713ValueVectorOfIiE15removeElementAtEj = comdat any

$_ZN11xercesc_2_719EmptyStackExceptionD0Ev = comdat any

$_ZNK11xercesc_2_719EmptyStackException7getTypeEv = comdat any

$_ZNK11xercesc_2_719EmptyStackException9duplicateEv = comdat any

$_ZN11xercesc_2_719EmptyStackExceptionC2ERKS0_ = comdat any

$_ZTSN11xercesc_2_720OutOfMemoryExceptionE = comdat any

$_ZTSN11xercesc_2_77XMemoryE = comdat any

$_ZTIN11xercesc_2_77XMemoryE = comdat any

$_ZTIN11xercesc_2_720OutOfMemoryExceptionE = comdat any

$_ZTSN11xercesc_2_716RuntimeExceptionE = comdat any

$_ZTIN11xercesc_2_716RuntimeExceptionE = comdat any

$_ZTVN11xercesc_2_710XMLDeleterE = comdat any

$_ZTSN11xercesc_2_710XMLDeleterE = comdat any

$_ZTIN11xercesc_2_710XMLDeleterE = comdat any

$_ZTVN11xercesc_2_712XPathScannerE = comdat any

$_ZTSN11xercesc_2_712XPathScannerE = comdat any

$_ZTIN11xercesc_2_712XPathScannerE = comdat any

$_ZTVN11xercesc_2_713XMLAttDefListE = comdat any

$_ZTSN11xercesc_2_713XMLAttDefListE = comdat any

$_ZTSN11xercesc_2_713XSerializableE = comdat any

$_ZTIN11xercesc_2_713XSerializableE = comdat any

$_ZTIN11xercesc_2_713XMLAttDefListE = comdat any

$_ZTSN11xercesc_2_730ArrayIndexOutOfBoundsExceptionE = comdat any

$_ZTIN11xercesc_2_730ArrayIndexOutOfBoundsExceptionE = comdat any

$_ZTVN11xercesc_2_730ArrayIndexOutOfBoundsExceptionE = comdat any

$_ZTVN11xercesc_2_716RuntimeExceptionE = comdat any

$_ZTVN11xercesc_2_711RefVectorOfINS_12ValueStackOfIiEEEE = comdat any

$_ZTSN11xercesc_2_711RefVectorOfINS_12ValueStackOfIiEEEE = comdat any

$_ZTSN11xercesc_2_715BaseRefVectorOfINS_12ValueStackOfIiEEEE = comdat any

$_ZTIN11xercesc_2_715BaseRefVectorOfINS_12ValueStackOfIiEEEE = comdat any

$_ZTIN11xercesc_2_711RefVectorOfINS_12ValueStackOfIiEEEE = comdat any

$_ZTVN11xercesc_2_715BaseRefVectorOfINS_12ValueStackOfIiEEEE = comdat any

$_ZTSN11xercesc_2_719EmptyStackExceptionE = comdat any

$_ZTIN11xercesc_2_719EmptyStackExceptionE = comdat any

$_ZTVN11xercesc_2_719EmptyStackExceptionE = comdat any

@_ZTVN11xercesc_2_712XPathMatcherE = dso_local unnamed_addr constant { [9 x i8*] } { [9 x i8*] [i8* null, i8* bitcast ({ i8*, i8*, i8* }* @_ZTIN11xercesc_2_712XPathMatcherE to i8*), i8* bitcast (void (%"class.xercesc_2_7::XPathMatcher"*)* @_ZN11xercesc_2_712XPathMatcherD1Ev to i8*), i8* bitcast (void (%"class.xercesc_2_7::XPathMatcher"*)* @_ZN11xercesc_2_712XPathMatcherD0Ev to i8*), i8* bitcast (i32 (%"class.xercesc_2_7::XPathMatcher"*)* @_ZNK11xercesc_2_712XPathMatcher15getInitialDepthEv to i8*), i8* bitcast (void (%"class.xercesc_2_7::XPathMatcher"*)* @_ZN11xercesc_2_712XPathMatcher21startDocumentFragmentEv to i8*), i8* bitcast (void (%"class.xercesc_2_7::XPathMatcher"*, %"class.xercesc_2_7::XMLElementDecl"*, i32, i16*, %"class.xercesc_2_7::RefVectorOf.6"*, i32)* @_ZN11xercesc_2_712XPathMatcher12startElementERKNS_14XMLElementDeclEjPKtRKNS_11RefVectorOfINS_7XMLAttrEEEj to i8*), i8* bitcast (void (%"class.xercesc_2_7::XPathMatcher"*, %"class.xercesc_2_7::XMLElementDecl"*, i16*)* @_ZN11xercesc_2_712XPathMatcher10endElementERKNS_14XMLElementDeclEPKt to i8*), i8* bitcast (void (%"class.xercesc_2_7::XPathMatcher"*, i16*, %"class.xercesc_2_7::DatatypeValidator"*, i1)* @_ZN11xercesc_2_712XPathMatcher7matchedEPKtPNS_17DatatypeValidatorEb to i8*)] }, align 8
@_ZTVN10__cxxabiv120__si_class_type_infoE = external dso_local global i8*
@_ZTSN11xercesc_2_720OutOfMemoryExceptionE = linkonce_odr dso_local constant [38 x i8] c"N11xercesc_2_720OutOfMemoryExceptionE\00", comdat, align 1
@_ZTVN10__cxxabiv117__class_type_infoE = external dso_local global i8*
@_ZTSN11xercesc_2_77XMemoryE = linkonce_odr dso_local constant [24 x i8] c"N11xercesc_2_77XMemoryE\00", comdat, align 1
@_ZTIN11xercesc_2_77XMemoryE = linkonce_odr dso_local constant { i8*, i8* } { i8* bitcast (i8** getelementptr inbounds (i8*, i8** @_ZTVN10__cxxabiv117__class_type_infoE, i64 2) to i8*), i8* getelementptr inbounds ([24 x i8], [24 x i8]* @_ZTSN11xercesc_2_77XMemoryE, i32 0, i32 0) }, comdat, align 8
@_ZTIN11xercesc_2_720OutOfMemoryExceptionE = linkonce_odr dso_local constant { i8*, i8*, i8* } { i8* bitcast (i8** getelementptr inbounds (i8*, i8** @_ZTVN10__cxxabiv120__si_class_type_infoE, i64 2) to i8*), i8* getelementptr inbounds ([38 x i8], [38 x i8]* @_ZTSN11xercesc_2_720OutOfMemoryExceptionE, i32 0, i32 0), i8* bitcast ({ i8*, i8* }* @_ZTIN11xercesc_2_77XMemoryE to i8*) }, comdat, align 8
@.str = private unnamed_addr constant [17 x i8] c"XPathMatcher.cpp\00", align 1
@_ZTSN11xercesc_2_716RuntimeExceptionE = linkonce_odr dso_local constant [34 x i8] c"N11xercesc_2_716RuntimeExceptionE\00", comdat, align 1
@_ZTIN11xercesc_2_712XMLExceptionE = external dso_local constant i8*
@_ZTIN11xercesc_2_716RuntimeExceptionE = linkonce_odr dso_local constant { i8*, i8*, i8* } { i8* bitcast (i8** getelementptr inbounds (i8*, i8** @_ZTVN10__cxxabiv120__si_class_type_infoE, i64 2) to i8*), i8* getelementptr inbounds ([34 x i8], [34 x i8]* @_ZTSN11xercesc_2_716RuntimeExceptionE, i32 0, i32 0), i8* bitcast (i8** @_ZTIN11xercesc_2_712XMLExceptionE to i8*) }, comdat, align 8
@_ZTVN11xercesc_2_710XMLDeleterE = linkonce_odr dso_local unnamed_addr constant { [4 x i8*] } { [4 x i8*] [i8* null, i8* bitcast ({ i8*, i8* }* @_ZTIN11xercesc_2_710XMLDeleterE to i8*), i8* bitcast (void (%"class.xercesc_2_7::XMLDeleter"*)* @_ZN11xercesc_2_710XMLDeleterD2Ev to i8*), i8* bitcast (void (%"class.xercesc_2_7::XMLDeleter"*)* @_ZN11xercesc_2_710XMLDeleterD0Ev to i8*)] }, comdat, align 8
@_ZTSN11xercesc_2_710XMLDeleterE = linkonce_odr dso_local constant [28 x i8] c"N11xercesc_2_710XMLDeleterE\00", comdat, align 1
@_ZTIN11xercesc_2_710XMLDeleterE = linkonce_odr dso_local constant { i8*, i8* } { i8* bitcast (i8** getelementptr inbounds (i8*, i8** @_ZTVN10__cxxabiv117__class_type_infoE, i64 2) to i8*), i8* getelementptr inbounds ([28 x i8], [28 x i8]* @_ZTSN11xercesc_2_710XMLDeleterE, i32 0, i32 0) }, comdat, align 8
@_ZTVN11xercesc_2_712XPathScannerE = linkonce_odr dso_local unnamed_addr constant { [5 x i8*] } { [5 x i8*] [i8* null, i8* bitcast ({ i8*, i8*, i8* }* @_ZTIN11xercesc_2_712XPathScannerE to i8*), i8* bitcast (void (%"class.xercesc_2_7::XPathScanner"*)* @_ZN11xercesc_2_712XPathScannerD2Ev to i8*), i8* bitcast (void (%"class.xercesc_2_7::XPathScanner"*)* @_ZN11xercesc_2_712XPathScannerD0Ev to i8*), i8* bitcast (void (%"class.xercesc_2_7::XPathScanner"*, %"class.xercesc_2_7::ValueVectorOf"*, i32)* @_ZN11xercesc_2_712XPathScanner8addTokenEPNS_13ValueVectorOfIiEEi to i8*)] }, comdat, align 8
@_ZTSN11xercesc_2_712XPathScannerE = linkonce_odr dso_local constant [30 x i8] c"N11xercesc_2_712XPathScannerE\00", comdat, align 1
@_ZTIN11xercesc_2_712XPathScannerE = linkonce_odr dso_local constant { i8*, i8*, i8* } { i8* bitcast (i8** getelementptr inbounds (i8*, i8** @_ZTVN10__cxxabiv120__si_class_type_infoE, i64 2) to i8*), i8* getelementptr inbounds ([30 x i8], [30 x i8]* @_ZTSN11xercesc_2_712XPathScannerE, i32 0, i32 0), i8* bitcast ({ i8*, i8* }* @_ZTIN11xercesc_2_77XMemoryE to i8*) }, comdat, align 8
@_ZTVN11xercesc_2_713XMLAttDefListE = linkonce_odr dso_local unnamed_addr constant { [18 x i8*] } { [18 x i8*] [i8* null, i8* bitcast ({ i8*, i8*, i32, i32, i8*, i64, i8*, i64 }* @_ZTIN11xercesc_2_713XMLAttDefListE to i8*), i8* bitcast (void (%"class.xercesc_2_7::XMLAttDefList"*)* @_ZN11xercesc_2_713XMLAttDefListD2Ev to i8*), i8* bitcast (void (%"class.xercesc_2_7::XMLAttDefList"*)* @_ZN11xercesc_2_713XMLAttDefListD0Ev to i8*), i8* bitcast (i1 (%"class.xercesc_2_7::XMLAttDefList"*)* @_ZNK11xercesc_2_713XMLAttDefList14isSerializableEv to i8*), i8* bitcast (void (%"class.xercesc_2_7::XMLAttDefList"*, %"class.xercesc_2_7::XSerializeEngine"*)* @_ZN11xercesc_2_713XMLAttDefList9serializeERNS_16XSerializeEngineE to i8*), i8* bitcast (%"class.xercesc_2_7::XProtoType"* (%"class.xercesc_2_7::XMLAttDefList"*)* @_ZNK11xercesc_2_713XMLAttDefList12getProtoTypeEv to i8*), i8* bitcast (void ()* @__cxa_pure_virtual to i8*), i8* bitcast (void ()* @__cxa_pure_virtual to i8*), i8* bitcast (void ()* @__cxa_pure_virtual to i8*), i8* bitcast (void ()* @__cxa_pure_virtual to i8*), i8* bitcast (void ()* @__cxa_pure_virtual to i8*), i8* bitcast (void ()* @__cxa_pure_virtual to i8*), i8* bitcast (void ()* @__cxa_pure_virtual to i8*), i8* bitcast (void ()* @__cxa_pure_virtual to i8*), i8* bitcast (void ()* @__cxa_pure_virtual to i8*), i8* bitcast (void ()* @__cxa_pure_virtual to i8*), i8* bitcast (void ()* @__cxa_pure_virtual to i8*)] }, comdat, align 8
@_ZTVN10__cxxabiv121__vmi_class_type_infoE = external dso_local global i8*
@_ZTSN11xercesc_2_713XMLAttDefListE = linkonce_odr dso_local constant [31 x i8] c"N11xercesc_2_713XMLAttDefListE\00", comdat, align 1
@_ZTSN11xercesc_2_713XSerializableE = linkonce_odr dso_local constant [31 x i8] c"N11xercesc_2_713XSerializableE\00", comdat, align 1
@_ZTIN11xercesc_2_713XSerializableE = linkonce_odr dso_local constant { i8*, i8* } { i8* bitcast (i8** getelementptr inbounds (i8*, i8** @_ZTVN10__cxxabiv117__class_type_infoE, i64 2) to i8*), i8* getelementptr inbounds ([31 x i8], [31 x i8]* @_ZTSN11xercesc_2_713XSerializableE, i32 0, i32 0) }, comdat, align 8
@_ZTIN11xercesc_2_713XMLAttDefListE = linkonce_odr dso_local constant { i8*, i8*, i32, i32, i8*, i64, i8*, i64 } { i8* bitcast (i8** getelementptr inbounds (i8*, i8** @_ZTVN10__cxxabiv121__vmi_class_type_infoE, i64 2) to i8*), i8* getelementptr inbounds ([31 x i8], [31 x i8]* @_ZTSN11xercesc_2_713XMLAttDefListE, i32 0, i32 0), i32 0, i32 2, i8* bitcast ({ i8*, i8* }* @_ZTIN11xercesc_2_713XSerializableE to i8*), i64 2, i8* bitcast ({ i8*, i8* }* @_ZTIN11xercesc_2_77XMemoryE to i8*), i64 2 }, comdat, align 8
@_ZTSN11xercesc_2_712XPathMatcherE = dso_local constant [30 x i8] c"N11xercesc_2_712XPathMatcherE\00", align 1
@_ZTIN11xercesc_2_712XPathMatcherE = dso_local constant { i8*, i8*, i8* } { i8* bitcast (i8** getelementptr inbounds (i8*, i8** @_ZTVN10__cxxabiv120__si_class_type_infoE, i64 2) to i8*), i8* getelementptr inbounds ([30 x i8], [30 x i8]* @_ZTSN11xercesc_2_712XPathMatcherE, i32 0, i32 0), i8* bitcast ({ i8*, i8* }* @_ZTIN11xercesc_2_77XMemoryE to i8*) }, align 8
@.str.1 = private unnamed_addr constant [33 x i8] c"./xercesc/util/BaseRefVectorOf.c\00", align 1
@_ZTSN11xercesc_2_730ArrayIndexOutOfBoundsExceptionE = linkonce_odr dso_local constant [48 x i8] c"N11xercesc_2_730ArrayIndexOutOfBoundsExceptionE\00", comdat, align 1
@_ZTIN11xercesc_2_730ArrayIndexOutOfBoundsExceptionE = linkonce_odr dso_local constant { i8*, i8*, i8* } { i8* bitcast (i8** getelementptr inbounds (i8*, i8** @_ZTVN10__cxxabiv120__si_class_type_infoE, i64 2) to i8*), i8* getelementptr inbounds ([48 x i8], [48 x i8]* @_ZTSN11xercesc_2_730ArrayIndexOutOfBoundsExceptionE, i32 0, i32 0), i8* bitcast (i8** @_ZTIN11xercesc_2_712XMLExceptionE to i8*) }, comdat, align 8
@_ZTVN11xercesc_2_730ArrayIndexOutOfBoundsExceptionE = linkonce_odr dso_local unnamed_addr constant { [6 x i8*] } { [6 x i8*] [i8* null, i8* bitcast ({ i8*, i8*, i8* }* @_ZTIN11xercesc_2_730ArrayIndexOutOfBoundsExceptionE to i8*), i8* bitcast (void (%"class.xercesc_2_7::ArrayIndexOutOfBoundsException"*)* @_ZN11xercesc_2_730ArrayIndexOutOfBoundsExceptionD2Ev to i8*), i8* bitcast (void (%"class.xercesc_2_7::ArrayIndexOutOfBoundsException"*)* @_ZN11xercesc_2_730ArrayIndexOutOfBoundsExceptionD0Ev to i8*), i8* bitcast (i16* (%"class.xercesc_2_7::ArrayIndexOutOfBoundsException"*)* @_ZNK11xercesc_2_730ArrayIndexOutOfBoundsException7getTypeEv to i8*), i8* bitcast (%"class.xercesc_2_7::XMLException"* (%"class.xercesc_2_7::ArrayIndexOutOfBoundsException"*)* @_ZNK11xercesc_2_730ArrayIndexOutOfBoundsException9duplicateEv to i8*)] }, comdat, align 8
@_ZN11xercesc_2_76XMLUni37fgArrayIndexOutOfBoundsException_NameE = external dso_local constant [0 x i16], align 2
@_ZTVN11xercesc_2_716RuntimeExceptionE = linkonce_odr dso_local unnamed_addr constant { [6 x i8*] } { [6 x i8*] [i8* null, i8* bitcast ({ i8*, i8*, i8* }* @_ZTIN11xercesc_2_716RuntimeExceptionE to i8*), i8* bitcast (void (%"class.xercesc_2_7::RuntimeException"*)* @_ZN11xercesc_2_716RuntimeExceptionD2Ev to i8*), i8* bitcast (void (%"class.xercesc_2_7::RuntimeException"*)* @_ZN11xercesc_2_716RuntimeExceptionD0Ev to i8*), i8* bitcast (i16* (%"class.xercesc_2_7::RuntimeException"*)* @_ZNK11xercesc_2_716RuntimeException7getTypeEv to i8*), i8* bitcast (%"class.xercesc_2_7::XMLException"* (%"class.xercesc_2_7::RuntimeException"*)* @_ZNK11xercesc_2_716RuntimeException9duplicateEv to i8*)] }, comdat, align 8
@_ZN11xercesc_2_76XMLUni23fgRuntimeException_NameE = external dso_local constant [0 x i16], align 2
@_ZTVN11xercesc_2_711RefVectorOfINS_12ValueStackOfIiEEEE = linkonce_odr dso_local unnamed_addr constant { [9 x i8*] } { [9 x i8*] [i8* null, i8* bitcast ({ i8*, i8*, i8* }* @_ZTIN11xercesc_2_711RefVectorOfINS_12ValueStackOfIiEEEE to i8*), i8* bitcast (void (%"class.xercesc_2_7::RefVectorOf"*)* @_ZN11xercesc_2_711RefVectorOfINS_12ValueStackOfIiEEED2Ev to i8*), i8* bitcast (void (%"class.xercesc_2_7::RefVectorOf"*)* @_ZN11xercesc_2_711RefVectorOfINS_12ValueStackOfIiEEED0Ev to i8*), i8* bitcast (void (%"class.xercesc_2_7::BaseRefVectorOf"*, %"class.xercesc_2_7::ValueStackOf"*, i32)* @_ZN11xercesc_2_715BaseRefVectorOfINS_12ValueStackOfIiEEE12setElementAtEPS2_j to i8*), i8* bitcast (void (%"class.xercesc_2_7::BaseRefVectorOf"*)* @_ZN11xercesc_2_715BaseRefVectorOfINS_12ValueStackOfIiEEE17removeAllElementsEv to i8*), i8* bitcast (void (%"class.xercesc_2_7::BaseRefVectorOf"*, i32)* @_ZN11xercesc_2_715BaseRefVectorOfINS_12ValueStackOfIiEEE15removeElementAtEj to i8*), i8* bitcast (void (%"class.xercesc_2_7::BaseRefVectorOf"*)* @_ZN11xercesc_2_715BaseRefVectorOfINS_12ValueStackOfIiEEE17removeLastElementEv to i8*), i8* bitcast (void (%"class.xercesc_2_7::BaseRefVectorOf"*)* @_ZN11xercesc_2_715BaseRefVectorOfINS_12ValueStackOfIiEEE7cleanupEv to i8*)] }, comdat, align 8
@_ZTSN11xercesc_2_711RefVectorOfINS_12ValueStackOfIiEEEE = linkonce_odr dso_local constant [52 x i8] c"N11xercesc_2_711RefVectorOfINS_12ValueStackOfIiEEEE\00", comdat, align 1
@_ZTSN11xercesc_2_715BaseRefVectorOfINS_12ValueStackOfIiEEEE = linkonce_odr dso_local constant [56 x i8] c"N11xercesc_2_715BaseRefVectorOfINS_12ValueStackOfIiEEEE\00", comdat, align 1
@_ZTIN11xercesc_2_715BaseRefVectorOfINS_12ValueStackOfIiEEEE = linkonce_odr dso_local constant { i8*, i8*, i8* } { i8* bitcast (i8** getelementptr inbounds (i8*, i8** @_ZTVN10__cxxabiv120__si_class_type_infoE, i64 2) to i8*), i8* getelementptr inbounds ([56 x i8], [56 x i8]* @_ZTSN11xercesc_2_715BaseRefVectorOfINS_12ValueStackOfIiEEEE, i32 0, i32 0), i8* bitcast ({ i8*, i8* }* @_ZTIN11xercesc_2_77XMemoryE to i8*) }, comdat, align 8
@_ZTIN11xercesc_2_711RefVectorOfINS_12ValueStackOfIiEEEE = linkonce_odr dso_local constant { i8*, i8*, i8* } { i8* bitcast (i8** getelementptr inbounds (i8*, i8** @_ZTVN10__cxxabiv120__si_class_type_infoE, i64 2) to i8*), i8* getelementptr inbounds ([52 x i8], [52 x i8]* @_ZTSN11xercesc_2_711RefVectorOfINS_12ValueStackOfIiEEEE, i32 0, i32 0), i8* bitcast ({ i8*, i8*, i8* }* @_ZTIN11xercesc_2_715BaseRefVectorOfINS_12ValueStackOfIiEEEE to i8*) }, comdat, align 8
@_ZTVN11xercesc_2_715BaseRefVectorOfINS_12ValueStackOfIiEEEE = linkonce_odr dso_local unnamed_addr constant { [9 x i8*] } { [9 x i8*] [i8* null, i8* bitcast ({ i8*, i8*, i8* }* @_ZTIN11xercesc_2_715BaseRefVectorOfINS_12ValueStackOfIiEEEE to i8*), i8* bitcast (void (%"class.xercesc_2_7::BaseRefVectorOf"*)* @_ZN11xercesc_2_715BaseRefVectorOfINS_12ValueStackOfIiEEED2Ev to i8*), i8* bitcast (void (%"class.xercesc_2_7::BaseRefVectorOf"*)* @_ZN11xercesc_2_715BaseRefVectorOfINS_12ValueStackOfIiEEED0Ev to i8*), i8* bitcast (void (%"class.xercesc_2_7::BaseRefVectorOf"*, %"class.xercesc_2_7::ValueStackOf"*, i32)* @_ZN11xercesc_2_715BaseRefVectorOfINS_12ValueStackOfIiEEE12setElementAtEPS2_j to i8*), i8* bitcast (void (%"class.xercesc_2_7::BaseRefVectorOf"*)* @_ZN11xercesc_2_715BaseRefVectorOfINS_12ValueStackOfIiEEE17removeAllElementsEv to i8*), i8* bitcast (void (%"class.xercesc_2_7::BaseRefVectorOf"*, i32)* @_ZN11xercesc_2_715BaseRefVectorOfINS_12ValueStackOfIiEEE15removeElementAtEj to i8*), i8* bitcast (void (%"class.xercesc_2_7::BaseRefVectorOf"*)* @_ZN11xercesc_2_715BaseRefVectorOfINS_12ValueStackOfIiEEE17removeLastElementEv to i8*), i8* bitcast (void (%"class.xercesc_2_7::BaseRefVectorOf"*)* @_ZN11xercesc_2_715BaseRefVectorOfINS_12ValueStackOfIiEEE7cleanupEv to i8*)] }, comdat, align 8
@.str.2 = private unnamed_addr constant [30 x i8] c"./xercesc/util/ValueStackOf.c\00", align 1
@_ZTSN11xercesc_2_719EmptyStackExceptionE = linkonce_odr dso_local constant [37 x i8] c"N11xercesc_2_719EmptyStackExceptionE\00", comdat, align 1
@_ZTIN11xercesc_2_719EmptyStackExceptionE = linkonce_odr dso_local constant { i8*, i8*, i8* } { i8* bitcast (i8** getelementptr inbounds (i8*, i8** @_ZTVN10__cxxabiv120__si_class_type_infoE, i64 2) to i8*), i8* getelementptr inbounds ([37 x i8], [37 x i8]* @_ZTSN11xercesc_2_719EmptyStackExceptionE, i32 0, i32 0), i8* bitcast (i8** @_ZTIN11xercesc_2_712XMLExceptionE to i8*) }, comdat, align 8
@_ZTVN11xercesc_2_719EmptyStackExceptionE = linkonce_odr dso_local unnamed_addr constant { [6 x i8*] } { [6 x i8*] [i8* null, i8* bitcast ({ i8*, i8*, i8* }* @_ZTIN11xercesc_2_719EmptyStackExceptionE to i8*), i8* bitcast (void (%"class.xercesc_2_7::EmptyStackException"*)* @_ZN11xercesc_2_719EmptyStackExceptionD2Ev to i8*), i8* bitcast (void (%"class.xercesc_2_7::EmptyStackException"*)* @_ZN11xercesc_2_719EmptyStackExceptionD0Ev to i8*), i8* bitcast (i16* (%"class.xercesc_2_7::EmptyStackException"*)* @_ZNK11xercesc_2_719EmptyStackException7getTypeEv to i8*), i8* bitcast (%"class.xercesc_2_7::XMLException"* (%"class.xercesc_2_7::EmptyStackException"*)* @_ZNK11xercesc_2_719EmptyStackException9duplicateEv to i8*)] }, comdat, align 8
@_ZN11xercesc_2_76XMLUni26fgEmptyStackException_NameE = external dso_local constant [0 x i16], align 2
@.str.3 = private unnamed_addr constant [31 x i8] c"./xercesc/util/ValueVectorOf.c\00", align 1

@_ZN11xercesc_2_712XPathMatcherC1EPNS_11XercesXPathEPNS_13MemoryManagerE = dso_local unnamed_addr alias void (%"class.xercesc_2_7::XPathMatcher"*, %"class.xercesc_2_7::XercesXPath"*, %"class.xercesc_2_7::MemoryManager"*), void (%"class.xercesc_2_7::XPathMatcher"*, %"class.xercesc_2_7::XercesXPath"*, %"class.xercesc_2_7::MemoryManager"*)* @_ZN11xercesc_2_712XPathMatcherC2EPNS_11XercesXPathEPNS_13MemoryManagerE
@_ZN11xercesc_2_712XPathMatcherC1EPNS_11XercesXPathEPNS_18IdentityConstraintEPNS_13MemoryManagerE = dso_local unnamed_addr alias void (%"class.xercesc_2_7::XPathMatcher"*, %"class.xercesc_2_7::XercesXPath"*, %"class.xercesc_2_7::IdentityConstraint"*, %"class.xercesc_2_7::MemoryManager"*), void (%"class.xercesc_2_7::XPathMatcher"*, %"class.xercesc_2_7::XercesXPath"*, %"class.xercesc_2_7::IdentityConstraint"*, %"class.xercesc_2_7::MemoryManager"*)* @_ZN11xercesc_2_712XPathMatcherC2EPNS_11XercesXPathEPNS_18IdentityConstraintEPNS_13MemoryManagerE
@_ZN11xercesc_2_712XPathMatcherD1Ev = dso_local unnamed_addr alias void (%"class.xercesc_2_7::XPathMatcher"*), void (%"class.xercesc_2_7::XPathMatcher"*)* @_ZN11xercesc_2_712XPathMatcherD2Ev

; Function Attrs: nounwind readnone speculatable willreturn
declare void @llvm.dbg.declare(metadata, metadata, metadata) #0

; Function Attrs: noinline nounwind uwtable
define linkonce_odr dso_local void @_ZN11xercesc_2_710XMLDeleterD0Ev(%"class.xercesc_2_7::XMLDeleter"* %this) unnamed_addr #1 comdat align 2 !dbg !1349 {
entry:
  %this.addr = alloca %"class.xercesc_2_7::XMLDeleter"*, align 8
  store %"class.xercesc_2_7::XMLDeleter"* %this, %"class.xercesc_2_7::XMLDeleter"** %this.addr, align 8
  call void @llvm.dbg.declare(metadata %"class.xercesc_2_7::XMLDeleter"** %this.addr, metadata !1369, metadata !DIExpression()), !dbg !1371
  %this1 = load %"class.xercesc_2_7::XMLDeleter"*, %"class.xercesc_2_7::XMLDeleter"** %this.addr, align 8
  call void @_ZN11xercesc_2_710XMLDeleterD2Ev(%"class.xercesc_2_7::XMLDeleter"* %this1) #10, !dbg !1372
  %0 = bitcast %"class.xercesc_2_7::XMLDeleter"* %this1 to i8*, !dbg !1372
  call void @_ZdlPv(i8* %0) #11, !dbg !1372
  ret void, !dbg !1373
}

; Function Attrs: noinline nounwind uwtable
define linkonce_odr dso_local void @_ZN11xercesc_2_710XMLDeleterD2Ev(%"class.xercesc_2_7::XMLDeleter"* %this) unnamed_addr #1 comdat align 2 !dbg !1374 {
entry:
  %this.addr = alloca %"class.xercesc_2_7::XMLDeleter"*, align 8
  store %"class.xercesc_2_7::XMLDeleter"* %this, %"class.xercesc_2_7::XMLDeleter"** %this.addr, align 8
  call void @llvm.dbg.declare(metadata %"class.xercesc_2_7::XMLDeleter"** %this.addr, metadata !1375, metadata !DIExpression()), !dbg !1376
  %this1 = load %"class.xercesc_2_7::XMLDeleter"*, %"class.xercesc_2_7::XMLDeleter"** %this.addr, align 8
  ret void, !dbg !1377
}

; Function Attrs: nobuiltin nounwind
declare dso_local void @_ZdlPv(i8*) #2

; Function Attrs: noinline uwtable
define linkonce_odr dso_local void @_ZN11xercesc_2_712XPathScanner8addTokenEPNS_13ValueVectorOfIiEEi(%"class.xercesc_2_7::XPathScanner"* %this, %"class.xercesc_2_7::ValueVectorOf"* %tokens, i32 %aToken) unnamed_addr #3 comdat align 2 !dbg !1378 {
entry:
  %this.addr = alloca %"class.xercesc_2_7::XPathScanner"*, align 8
  %tokens.addr = alloca %"class.xercesc_2_7::ValueVectorOf"*, align 8
  %aToken.addr = alloca i32, align 4
  store %"class.xercesc_2_7::XPathScanner"* %this, %"class.xercesc_2_7::XPathScanner"** %this.addr, align 8
  call void @llvm.dbg.declare(metadata %"class.xercesc_2_7::XPathScanner"** %this.addr, metadata !1446, metadata !DIExpression()), !dbg !1448
  store %"class.xercesc_2_7::ValueVectorOf"* %tokens, %"class.xercesc_2_7::ValueVectorOf"** %tokens.addr, align 8
  call void @llvm.dbg.declare(metadata %"class.xercesc_2_7::ValueVectorOf"** %tokens.addr, metadata !1449, metadata !DIExpression()), !dbg !1450
  store i32 %aToken, i32* %aToken.addr, align 4
  call void @llvm.dbg.declare(metadata i32* %aToken.addr, metadata !1451, metadata !DIExpression()), !dbg !1452
  %this1 = load %"class.xercesc_2_7::XPathScanner"*, %"class.xercesc_2_7::XPathScanner"** %this.addr, align 8
  %0 = load %"class.xercesc_2_7::ValueVectorOf"*, %"class.xercesc_2_7::ValueVectorOf"** %tokens.addr, align 8, !dbg !1453
  call void @_ZN11xercesc_2_713ValueVectorOfIiE10addElementERKi(%"class.xercesc_2_7::ValueVectorOf"* %0, i32* dereferenceable(4) %aToken.addr), !dbg !1454
  ret void, !dbg !1455
}

; Function Attrs: noinline uwtable
define linkonce_odr dso_local void @_ZN11xercesc_2_713ValueVectorOfIiE10addElementERKi(%"class.xercesc_2_7::ValueVectorOf"* %this, i32* dereferenceable(4) %toAdd) #3 comdat align 2 !dbg !1456 {
entry:
  %this.addr = alloca %"class.xercesc_2_7::ValueVectorOf"*, align 8
  %toAdd.addr = alloca i32*, align 8
  store %"class.xercesc_2_7::ValueVectorOf"* %this, %"class.xercesc_2_7::ValueVectorOf"** %this.addr, align 8
  call void @llvm.dbg.declare(metadata %"class.xercesc_2_7::ValueVectorOf"** %this.addr, metadata !1458, metadata !DIExpression()), !dbg !1459
  store i32* %toAdd, i32** %toAdd.addr, align 8
  call void @llvm.dbg.declare(metadata i32** %toAdd.addr, metadata !1460, metadata !DIExpression()), !dbg !1461
  %this1 = load %"class.xercesc_2_7::ValueVectorOf"*, %"class.xercesc_2_7::ValueVectorOf"** %this.addr, align 8
  call void @_ZN11xercesc_2_713ValueVectorOfIiE19ensureExtraCapacityEj(%"class.xercesc_2_7::ValueVectorOf"* %this1, i32 1), !dbg !1462
  %0 = load i32*, i32** %toAdd.addr, align 8, !dbg !1463
  %1 = load i32, i32* %0, align 4, !dbg !1463
  %fElemList = getelementptr inbounds %"class.xercesc_2_7::ValueVectorOf", %"class.xercesc_2_7::ValueVectorOf"* %this1, i32 0, i32 3, !dbg !1464
  %2 = load i32*, i32** %fElemList, align 8, !dbg !1464
  %fCurCount = getelementptr inbounds %"class.xercesc_2_7::ValueVectorOf", %"class.xercesc_2_7::ValueVectorOf"* %this1, i32 0, i32 1, !dbg !1465
  %3 = load i32, i32* %fCurCount, align 4, !dbg !1465
  %idxprom = zext i32 %3 to i64, !dbg !1464
  %arrayidx = getelementptr inbounds i32, i32* %2, i64 %idxprom, !dbg !1464
  store i32 %1, i32* %arrayidx, align 4, !dbg !1466
  %fCurCount2 = getelementptr inbounds %"class.xercesc_2_7::ValueVectorOf", %"class.xercesc_2_7::ValueVectorOf"* %this1, i32 0, i32 1, !dbg !1467
  %4 = load i32, i32* %fCurCount2, align 4, !dbg !1468
  %inc = add i32 %4, 1, !dbg !1468
  store i32 %inc, i32* %fCurCount2, align 4, !dbg !1468
  ret void, !dbg !1469
}

; Function Attrs: noinline nounwind uwtable
define linkonce_odr dso_local void @_ZN11xercesc_2_713XSerializableD2Ev(%"class.xercesc_2_7::XSerializable"* %this) unnamed_addr #1 comdat align 2 !dbg !1470 {
entry:
  %this.addr = alloca %"class.xercesc_2_7::XSerializable"*, align 8
  store %"class.xercesc_2_7::XSerializable"* %this, %"class.xercesc_2_7::XSerializable"** %this.addr, align 8
  call void @llvm.dbg.declare(metadata %"class.xercesc_2_7::XSerializable"** %this.addr, metadata !1477, metadata !DIExpression()), !dbg !1479
  %this1 = load %"class.xercesc_2_7::XSerializable"*, %"class.xercesc_2_7::XSerializable"** %this.addr, align 8
  ret void, !dbg !1480
}

; Function Attrs: noinline nounwind uwtable
define linkonce_odr dso_local void @_ZN11xercesc_2_713XMLAttDefListD0Ev(%"class.xercesc_2_7::XMLAttDefList"* %this) unnamed_addr #1 comdat align 2 !dbg !1481 {
entry:
  %this.addr = alloca %"class.xercesc_2_7::XMLAttDefList"*, align 8
  store %"class.xercesc_2_7::XMLAttDefList"* %this, %"class.xercesc_2_7::XMLAttDefList"** %this.addr, align 8
  call void @llvm.dbg.declare(metadata %"class.xercesc_2_7::XMLAttDefList"** %this.addr, metadata !1831, metadata !DIExpression()), !dbg !1833
  %this1 = load %"class.xercesc_2_7::XMLAttDefList"*, %"class.xercesc_2_7::XMLAttDefList"** %this.addr, align 8
  call void @llvm.trap() #12, !dbg !1834
  unreachable, !dbg !1834
}

; Function Attrs: cold noreturn nounwind
declare void @llvm.trap() #4

; Function Attrs: noinline uwtable
define dso_local void @_ZN11xercesc_2_712XPathMatcherC2EPNS_11XercesXPathEPNS_13MemoryManagerE(%"class.xercesc_2_7::XPathMatcher"* %this, %"class.xercesc_2_7::XercesXPath"* %xpath, %"class.xercesc_2_7::MemoryManager"* %manager) unnamed_addr #3 align 2 personality i8* bitcast (i32 (...)* @__gxx_personality_v0 to i8*) !dbg !1835 {
entry:
  %this.addr = alloca %"class.xercesc_2_7::XPathMatcher"*, align 8
  %xpath.addr = alloca %"class.xercesc_2_7::XercesXPath"*, align 8
  %manager.addr = alloca %"class.xercesc_2_7::MemoryManager"*, align 8
  %cleanup = alloca %"class.xercesc_2_7::JanitorMemFunCall", align 8
  %coerce = alloca { i64, i64 }, align 8
  %exn.slot = alloca i8*
  %ehselector.slot = alloca i32
  %0 = alloca %"class.xercesc_2_7::OutOfMemoryException"*, align 8
  store %"class.xercesc_2_7::XPathMatcher"* %this, %"class.xercesc_2_7::XPathMatcher"** %this.addr, align 8
  call void @llvm.dbg.declare(metadata %"class.xercesc_2_7::XPathMatcher"** %this.addr, metadata !1836, metadata !DIExpression()), !dbg !1838
  store %"class.xercesc_2_7::XercesXPath"* %xpath, %"class.xercesc_2_7::XercesXPath"** %xpath.addr, align 8
  call void @llvm.dbg.declare(metadata %"class.xercesc_2_7::XercesXPath"** %xpath.addr, metadata !1839, metadata !DIExpression()), !dbg !1840
  store %"class.xercesc_2_7::MemoryManager"* %manager, %"class.xercesc_2_7::MemoryManager"** %manager.addr, align 8
  call void @llvm.dbg.declare(metadata %"class.xercesc_2_7::MemoryManager"** %manager.addr, metadata !1841, metadata !DIExpression()), !dbg !1842
  %this1 = load %"class.xercesc_2_7::XPathMatcher"*, %"class.xercesc_2_7::XPathMatcher"** %this.addr, align 8
  %1 = bitcast %"class.xercesc_2_7::XPathMatcher"* %this1 to %"class.xercesc_2_7::XMemory"*, !dbg !1843
  call void @_ZN11xercesc_2_77XMemoryC2Ev(%"class.xercesc_2_7::XMemory"* %1), !dbg !1844
  %2 = bitcast %"class.xercesc_2_7::XPathMatcher"* %this1 to i32 (...)***, !dbg !1843
  store i32 (...)** bitcast (i8** getelementptr inbounds ({ [9 x i8*] }, { [9 x i8*] }* @_ZTVN11xercesc_2_712XPathMatcherE, i32 0, inrange i32 0, i32 2) to i32 (...)**), i32 (...)*** %2, align 8, !dbg !1843
  %fLocationPathSize = getelementptr inbounds %"class.xercesc_2_7::XPathMatcher", %"class.xercesc_2_7::XPathMatcher"* %this1, i32 0, i32 1, !dbg !1845
  store i32 0, i32* %fLocationPathSize, align 8, !dbg !1845
  %fMatched = getelementptr inbounds %"class.xercesc_2_7::XPathMatcher", %"class.xercesc_2_7::XPathMatcher"* %this1, i32 0, i32 2, !dbg !1846
  store i32* null, i32** %fMatched, align 8, !dbg !1846
  %fNoMatchDepth = getelementptr inbounds %"class.xercesc_2_7::XPathMatcher", %"class.xercesc_2_7::XPathMatcher"* %this1, i32 0, i32 3, !dbg !1847
  store i32* null, i32** %fNoMatchDepth, align 8, !dbg !1847
  %fCurrentStep = getelementptr inbounds %"class.xercesc_2_7::XPathMatcher", %"class.xercesc_2_7::XPathMatcher"* %this1, i32 0, i32 4, !dbg !1848
  store i32* null, i32** %fCurrentStep, align 8, !dbg !1848
  %fStepIndexes = getelementptr inbounds %"class.xercesc_2_7::XPathMatcher", %"class.xercesc_2_7::XPathMatcher"* %this1, i32 0, i32 5, !dbg !1849
  store %"class.xercesc_2_7::RefVectorOf"* null, %"class.xercesc_2_7::RefVectorOf"** %fStepIndexes, align 8, !dbg !1849
  %fLocationPaths = getelementptr inbounds %"class.xercesc_2_7::XPathMatcher", %"class.xercesc_2_7::XPathMatcher"* %this1, i32 0, i32 6, !dbg !1850
  store %"class.xercesc_2_7::RefVectorOf.0"* null, %"class.xercesc_2_7::RefVectorOf.0"** %fLocationPaths, align 8, !dbg !1850
  %fIdentityConstraint = getelementptr inbounds %"class.xercesc_2_7::XPathMatcher", %"class.xercesc_2_7::XPathMatcher"* %this1, i32 0, i32 7, !dbg !1851
  store %"class.xercesc_2_7::IdentityConstraint"* null, %"class.xercesc_2_7::IdentityConstraint"** %fIdentityConstraint, align 8, !dbg !1851
  %fMemoryManager = getelementptr inbounds %"class.xercesc_2_7::XPathMatcher", %"class.xercesc_2_7::XPathMatcher"* %this1, i32 0, i32 8, !dbg !1852
  %3 = load %"class.xercesc_2_7::MemoryManager"*, %"class.xercesc_2_7::MemoryManager"** %manager.addr, align 8, !dbg !1853
  store %"class.xercesc_2_7::MemoryManager"* %3, %"class.xercesc_2_7::MemoryManager"** %fMemoryManager, align 8, !dbg !1852
  call void @llvm.dbg.declare(metadata %"class.xercesc_2_7::JanitorMemFunCall"* %cleanup, metadata !1854, metadata !DIExpression()), !dbg !1884
  store { i64, i64 } { i64 ptrtoint (void (%"class.xercesc_2_7::XPathMatcher"*)* @_ZN11xercesc_2_712XPathMatcher7cleanUpEv to i64), i64 0 }, { i64, i64 }* %coerce, align 8, !dbg !1884
  %4 = getelementptr inbounds { i64, i64 }, { i64, i64 }* %coerce, i32 0, i32 0, !dbg !1884
  %5 = load i64, i64* %4, align 8, !dbg !1884
  %6 = getelementptr inbounds { i64, i64 }, { i64, i64 }* %coerce, i32 0, i32 1, !dbg !1884
  %7 = load i64, i64* %6, align 8, !dbg !1884
  call void @_ZN11xercesc_2_717JanitorMemFunCallINS_12XPathMatcherEEC2EPS1_MS1_FvvE(%"class.xercesc_2_7::JanitorMemFunCall"* %cleanup, %"class.xercesc_2_7::XPathMatcher"* %this1, i64 %5, i64 %7), !dbg !1884
  %8 = load %"class.xercesc_2_7::XercesXPath"*, %"class.xercesc_2_7::XercesXPath"** %xpath.addr, align 8, !dbg !1885
  invoke void @_ZN11xercesc_2_712XPathMatcher4initEPNS_11XercesXPathE(%"class.xercesc_2_7::XPathMatcher"* %this1, %"class.xercesc_2_7::XercesXPath"* %8)
          to label %invoke.cont unwind label %lpad, !dbg !1887

invoke.cont:                                      ; preds = %entry
  br label %try.cont, !dbg !1888

lpad:                                             ; preds = %entry
  %9 = landingpad { i8*, i32 }
          cleanup
          catch i8* bitcast ({ i8*, i8*, i8* }* @_ZTIN11xercesc_2_720OutOfMemoryExceptionE to i8*), !dbg !1889
  %10 = extractvalue { i8*, i32 } %9, 0, !dbg !1889
  store i8* %10, i8** %exn.slot, align 8, !dbg !1889
  %11 = extractvalue { i8*, i32 } %9, 1, !dbg !1889
  store i32 %11, i32* %ehselector.slot, align 4, !dbg !1889
  br label %catch.dispatch, !dbg !1889

catch.dispatch:                                   ; preds = %lpad
  %sel = load i32, i32* %ehselector.slot, align 4, !dbg !1888
  %12 = call i32 @llvm.eh.typeid.for(i8* bitcast ({ i8*, i8*, i8* }* @_ZTIN11xercesc_2_720OutOfMemoryExceptionE to i8*)) #10, !dbg !1888
  %matches = icmp eq i32 %sel, %12, !dbg !1888
  br i1 %matches, label %catch, label %ehcleanup, !dbg !1888

catch:                                            ; preds = %catch.dispatch
  call void @llvm.dbg.declare(metadata %"class.xercesc_2_7::OutOfMemoryException"** %0, metadata !1890, metadata !DIExpression()), !dbg !1923
  %exn = load i8*, i8** %exn.slot, align 8, !dbg !1888
  %13 = call i8* @__cxa_begin_catch(i8* %exn) #10, !dbg !1888
  %exn.byref = bitcast i8* %13 to %"class.xercesc_2_7::OutOfMemoryException"*, !dbg !1888
  store %"class.xercesc_2_7::OutOfMemoryException"* %exn.byref, %"class.xercesc_2_7::OutOfMemoryException"** %0, align 8, !dbg !1888
  invoke void @_ZN11xercesc_2_717JanitorMemFunCallINS_12XPathMatcherEE7releaseEv(%"class.xercesc_2_7::JanitorMemFunCall"* %cleanup)
          to label %invoke.cont3 unwind label %lpad2, !dbg !1924

invoke.cont3:                                     ; preds = %catch
  invoke void @__cxa_rethrow() #13
          to label %unreachable unwind label %lpad2, !dbg !1926

lpad2:                                            ; preds = %invoke.cont3, %catch
  %14 = landingpad { i8*, i32 }
          cleanup, !dbg !1927
  %15 = extractvalue { i8*, i32 } %14, 0, !dbg !1927
  store i8* %15, i8** %exn.slot, align 8, !dbg !1927
  %16 = extractvalue { i8*, i32 } %14, 1, !dbg !1927
  store i32 %16, i32* %ehselector.slot, align 4, !dbg !1927
  invoke void @__cxa_end_catch()
          to label %invoke.cont4 unwind label %terminate.lpad, !dbg !1928

invoke.cont4:                                     ; preds = %lpad2
  br label %ehcleanup, !dbg !1928

try.cont:                                         ; preds = %invoke.cont
  invoke void @_ZN11xercesc_2_717JanitorMemFunCallINS_12XPathMatcherEE7releaseEv(%"class.xercesc_2_7::JanitorMemFunCall"* %cleanup)
          to label %invoke.cont6 unwind label %lpad5, !dbg !1929

invoke.cont6:                                     ; preds = %try.cont
  call void @_ZN11xercesc_2_717JanitorMemFunCallINS_12XPathMatcherEED2Ev(%"class.xercesc_2_7::JanitorMemFunCall"* %cleanup) #10, !dbg !1930
  ret void, !dbg !1930

lpad5:                                            ; preds = %try.cont
  %17 = landingpad { i8*, i32 }
          cleanup, !dbg !1931
  %18 = extractvalue { i8*, i32 } %17, 0, !dbg !1931
  store i8* %18, i8** %exn.slot, align 8, !dbg !1931
  %19 = extractvalue { i8*, i32 } %17, 1, !dbg !1931
  store i32 %19, i32* %ehselector.slot, align 4, !dbg !1931
  br label %ehcleanup, !dbg !1931

ehcleanup:                                        ; preds = %lpad5, %invoke.cont4, %catch.dispatch
  call void @_ZN11xercesc_2_717JanitorMemFunCallINS_12XPathMatcherEED2Ev(%"class.xercesc_2_7::JanitorMemFunCall"* %cleanup) #10, !dbg !1930
  br label %eh.resume, !dbg !1930

eh.resume:                                        ; preds = %ehcleanup
  %exn7 = load i8*, i8** %exn.slot, align 8, !dbg !1930
  %sel8 = load i32, i32* %ehselector.slot, align 4, !dbg !1930
  %lpad.val = insertvalue { i8*, i32 } undef, i8* %exn7, 0, !dbg !1930
  %lpad.val9 = insertvalue { i8*, i32 } %lpad.val, i32 %sel8, 1, !dbg !1930
  resume { i8*, i32 } %lpad.val9, !dbg !1930

terminate.lpad:                                   ; preds = %lpad2
  %20 = landingpad { i8*, i32 }
          catch i8* null, !dbg !1928
  %21 = extractvalue { i8*, i32 } %20, 0, !dbg !1928
  call void @__clang_call_terminate(i8* %21) #12, !dbg !1928
  unreachable, !dbg !1928

unreachable:                                      ; preds = %invoke.cont3
  unreachable
}

; Function Attrs: noinline nounwind uwtable
define linkonce_odr dso_local void @_ZN11xercesc_2_77XMemoryC2Ev(%"class.xercesc_2_7::XMemory"* %this) unnamed_addr #1 comdat align 2 !dbg !1932 {
entry:
  %this.addr = alloca %"class.xercesc_2_7::XMemory"*, align 8
  store %"class.xercesc_2_7::XMemory"* %this, %"class.xercesc_2_7::XMemory"** %this.addr, align 8
  call void @llvm.dbg.declare(metadata %"class.xercesc_2_7::XMemory"** %this.addr, metadata !1933, metadata !DIExpression()), !dbg !1935
  %this1 = load %"class.xercesc_2_7::XMemory"*, %"class.xercesc_2_7::XMemory"** %this.addr, align 8
  ret void, !dbg !1936
}

; Function Attrs: noinline uwtable
define linkonce_odr dso_local void @_ZN11xercesc_2_712XPathMatcher7cleanUpEv(%"class.xercesc_2_7::XPathMatcher"* %this) #3 comdat align 2 !dbg !1937 {
entry:
  %this.addr = alloca %"class.xercesc_2_7::XPathMatcher"*, align 8
  store %"class.xercesc_2_7::XPathMatcher"* %this, %"class.xercesc_2_7::XPathMatcher"** %this.addr, align 8
  call void @llvm.dbg.declare(metadata %"class.xercesc_2_7::XPathMatcher"** %this.addr, metadata !1938, metadata !DIExpression()), !dbg !1939
  %this1 = load %"class.xercesc_2_7::XPathMatcher"*, %"class.xercesc_2_7::XPathMatcher"** %this.addr, align 8
  %fMemoryManager = getelementptr inbounds %"class.xercesc_2_7::XPathMatcher", %"class.xercesc_2_7::XPathMatcher"* %this1, i32 0, i32 8, !dbg !1940
  %0 = load %"class.xercesc_2_7::MemoryManager"*, %"class.xercesc_2_7::MemoryManager"** %fMemoryManager, align 8, !dbg !1940
  %fMatched = getelementptr inbounds %"class.xercesc_2_7::XPathMatcher", %"class.xercesc_2_7::XPathMatcher"* %this1, i32 0, i32 2, !dbg !1941
  %1 = load i32*, i32** %fMatched, align 8, !dbg !1941
  %2 = bitcast i32* %1 to i8*, !dbg !1941
  %3 = bitcast %"class.xercesc_2_7::MemoryManager"* %0 to void (%"class.xercesc_2_7::MemoryManager"*, i8*)***, !dbg !1942
  %vtable = load void (%"class.xercesc_2_7::MemoryManager"*, i8*)**, void (%"class.xercesc_2_7::MemoryManager"*, i8*)*** %3, align 8, !dbg !1942
  %vfn = getelementptr inbounds void (%"class.xercesc_2_7::MemoryManager"*, i8*)*, void (%"class.xercesc_2_7::MemoryManager"*, i8*)** %vtable, i64 3, !dbg !1942
  %4 = load void (%"class.xercesc_2_7::MemoryManager"*, i8*)*, void (%"class.xercesc_2_7::MemoryManager"*, i8*)** %vfn, align 8, !dbg !1942
  call void %4(%"class.xercesc_2_7::MemoryManager"* %0, i8* %2), !dbg !1942
  %fMemoryManager2 = getelementptr inbounds %"class.xercesc_2_7::XPathMatcher", %"class.xercesc_2_7::XPathMatcher"* %this1, i32 0, i32 8, !dbg !1943
  %5 = load %"class.xercesc_2_7::MemoryManager"*, %"class.xercesc_2_7::MemoryManager"** %fMemoryManager2, align 8, !dbg !1943
  %fNoMatchDepth = getelementptr inbounds %"class.xercesc_2_7::XPathMatcher", %"class.xercesc_2_7::XPathMatcher"* %this1, i32 0, i32 3, !dbg !1944
  %6 = load i32*, i32** %fNoMatchDepth, align 8, !dbg !1944
  %7 = bitcast i32* %6 to i8*, !dbg !1944
  %8 = bitcast %"class.xercesc_2_7::MemoryManager"* %5 to void (%"class.xercesc_2_7::MemoryManager"*, i8*)***, !dbg !1945
  %vtable3 = load void (%"class.xercesc_2_7::MemoryManager"*, i8*)**, void (%"class.xercesc_2_7::MemoryManager"*, i8*)*** %8, align 8, !dbg !1945
  %vfn4 = getelementptr inbounds void (%"class.xercesc_2_7::MemoryManager"*, i8*)*, void (%"class.xercesc_2_7::MemoryManager"*, i8*)** %vtable3, i64 3, !dbg !1945
  %9 = load void (%"class.xercesc_2_7::MemoryManager"*, i8*)*, void (%"class.xercesc_2_7::MemoryManager"*, i8*)** %vfn4, align 8, !dbg !1945
  call void %9(%"class.xercesc_2_7::MemoryManager"* %5, i8* %7), !dbg !1945
  %fMemoryManager5 = getelementptr inbounds %"class.xercesc_2_7::XPathMatcher", %"class.xercesc_2_7::XPathMatcher"* %this1, i32 0, i32 8, !dbg !1946
  %10 = load %"class.xercesc_2_7::MemoryManager"*, %"class.xercesc_2_7::MemoryManager"** %fMemoryManager5, align 8, !dbg !1946
  %fCurrentStep = getelementptr inbounds %"class.xercesc_2_7::XPathMatcher", %"class.xercesc_2_7::XPathMatcher"* %this1, i32 0, i32 4, !dbg !1947
  %11 = load i32*, i32** %fCurrentStep, align 8, !dbg !1947
  %12 = bitcast i32* %11 to i8*, !dbg !1947
  %13 = bitcast %"class.xercesc_2_7::MemoryManager"* %10 to void (%"class.xercesc_2_7::MemoryManager"*, i8*)***, !dbg !1948
  %vtable6 = load void (%"class.xercesc_2_7::MemoryManager"*, i8*)**, void (%"class.xercesc_2_7::MemoryManager"*, i8*)*** %13, align 8, !dbg !1948
  %vfn7 = getelementptr inbounds void (%"class.xercesc_2_7::MemoryManager"*, i8*)*, void (%"class.xercesc_2_7::MemoryManager"*, i8*)** %vtable6, i64 3, !dbg !1948
  %14 = load void (%"class.xercesc_2_7::MemoryManager"*, i8*)*, void (%"class.xercesc_2_7::MemoryManager"*, i8*)** %vfn7, align 8, !dbg !1948
  call void %14(%"class.xercesc_2_7::MemoryManager"* %10, i8* %12), !dbg !1948
  %fStepIndexes = getelementptr inbounds %"class.xercesc_2_7::XPathMatcher", %"class.xercesc_2_7::XPathMatcher"* %this1, i32 0, i32 5, !dbg !1949
  %15 = load %"class.xercesc_2_7::RefVectorOf"*, %"class.xercesc_2_7::RefVectorOf"** %fStepIndexes, align 8, !dbg !1949
  %isnull = icmp eq %"class.xercesc_2_7::RefVectorOf"* %15, null, !dbg !1950
  br i1 %isnull, label %delete.end, label %delete.notnull, !dbg !1950

delete.notnull:                                   ; preds = %entry
  %16 = bitcast %"class.xercesc_2_7::RefVectorOf"* %15 to void (%"class.xercesc_2_7::RefVectorOf"*)***, !dbg !1950
  %vtable8 = load void (%"class.xercesc_2_7::RefVectorOf"*)**, void (%"class.xercesc_2_7::RefVectorOf"*)*** %16, align 8, !dbg !1950
  %vfn9 = getelementptr inbounds void (%"class.xercesc_2_7::RefVectorOf"*)*, void (%"class.xercesc_2_7::RefVectorOf"*)** %vtable8, i64 1, !dbg !1950
  %17 = load void (%"class.xercesc_2_7::RefVectorOf"*)*, void (%"class.xercesc_2_7::RefVectorOf"*)** %vfn9, align 8, !dbg !1950
  call void %17(%"class.xercesc_2_7::RefVectorOf"* %15) #10, !dbg !1950
  br label %delete.end, !dbg !1950

delete.end:                                       ; preds = %delete.notnull, %entry
  ret void, !dbg !1951
}

; Function Attrs: noinline nounwind uwtable
define linkonce_odr dso_local void @_ZN11xercesc_2_717JanitorMemFunCallINS_12XPathMatcherEEC2EPS1_MS1_FvvE(%"class.xercesc_2_7::JanitorMemFunCall"* %this, %"class.xercesc_2_7::XPathMatcher"* %object, i64 %toCall.coerce0, i64 %toCall.coerce1) unnamed_addr #1 comdat align 2 !dbg !1952 {
entry:
  %toCall = alloca { i64, i64 }, align 8
  %this.addr = alloca %"class.xercesc_2_7::JanitorMemFunCall"*, align 8
  %object.addr = alloca %"class.xercesc_2_7::XPathMatcher"*, align 8
  %toCall.addr = alloca { i64, i64 }, align 8
  %0 = getelementptr inbounds { i64, i64 }, { i64, i64 }* %toCall, i32 0, i32 0
  store i64 %toCall.coerce0, i64* %0, align 8
  %1 = getelementptr inbounds { i64, i64 }, { i64, i64 }* %toCall, i32 0, i32 1
  store i64 %toCall.coerce1, i64* %1, align 8
  %toCall1 = load { i64, i64 }, { i64, i64 }* %toCall, align 8
  store %"class.xercesc_2_7::JanitorMemFunCall"* %this, %"class.xercesc_2_7::JanitorMemFunCall"** %this.addr, align 8
  call void @llvm.dbg.declare(metadata %"class.xercesc_2_7::JanitorMemFunCall"** %this.addr, metadata !1954, metadata !DIExpression()), !dbg !1956
  store %"class.xercesc_2_7::XPathMatcher"* %object, %"class.xercesc_2_7::XPathMatcher"** %object.addr, align 8
  call void @llvm.dbg.declare(metadata %"class.xercesc_2_7::XPathMatcher"** %object.addr, metadata !1957, metadata !DIExpression()), !dbg !1958
  store { i64, i64 } %toCall1, { i64, i64 }* %toCall.addr, align 8
  call void @llvm.dbg.declare(metadata { i64, i64 }* %toCall.addr, metadata !1959, metadata !DIExpression()), !dbg !1960
  %this2 = load %"class.xercesc_2_7::JanitorMemFunCall"*, %"class.xercesc_2_7::JanitorMemFunCall"** %this.addr, align 8
  %fObject = getelementptr inbounds %"class.xercesc_2_7::JanitorMemFunCall", %"class.xercesc_2_7::JanitorMemFunCall"* %this2, i32 0, i32 0, !dbg !1961
  %2 = load %"class.xercesc_2_7::XPathMatcher"*, %"class.xercesc_2_7::XPathMatcher"** %object.addr, align 8, !dbg !1962
  store %"class.xercesc_2_7::XPathMatcher"* %2, %"class.xercesc_2_7::XPathMatcher"** %fObject, align 8, !dbg !1961
  %fToCall = getelementptr inbounds %"class.xercesc_2_7::JanitorMemFunCall", %"class.xercesc_2_7::JanitorMemFunCall"* %this2, i32 0, i32 1, !dbg !1963
  %3 = load { i64, i64 }, { i64, i64 }* %toCall.addr, align 8, !dbg !1964
  store { i64, i64 } %3, { i64, i64 }* %fToCall, align 8, !dbg !1963
  ret void, !dbg !1965
}

; Function Attrs: noinline uwtable
define dso_local void @_ZN11xercesc_2_712XPathMatcher4initEPNS_11XercesXPathE(%"class.xercesc_2_7::XPathMatcher"* %this, %"class.xercesc_2_7::XercesXPath"* %xpath) #3 align 2 personality i8* bitcast (i32 (...)* @__gxx_personality_v0 to i8*) !dbg !1966 {
entry:
  %this.addr = alloca %"class.xercesc_2_7::XPathMatcher"*, align 8
  %xpath.addr = alloca %"class.xercesc_2_7::XercesXPath"*, align 8
  %exn.slot = alloca i8*
  %ehselector.slot = alloca i32
  %i = alloca i32, align 4
  store %"class.xercesc_2_7::XPathMatcher"* %this, %"class.xercesc_2_7::XPathMatcher"** %this.addr, align 8
  call void @llvm.dbg.declare(metadata %"class.xercesc_2_7::XPathMatcher"** %this.addr, metadata !1967, metadata !DIExpression()), !dbg !1968
  store %"class.xercesc_2_7::XercesXPath"* %xpath, %"class.xercesc_2_7::XercesXPath"** %xpath.addr, align 8
  call void @llvm.dbg.declare(metadata %"class.xercesc_2_7::XercesXPath"** %xpath.addr, metadata !1969, metadata !DIExpression()), !dbg !1970
  %this1 = load %"class.xercesc_2_7::XPathMatcher"*, %"class.xercesc_2_7::XPathMatcher"** %this.addr, align 8
  %0 = load %"class.xercesc_2_7::XercesXPath"*, %"class.xercesc_2_7::XercesXPath"** %xpath.addr, align 8, !dbg !1971
  %tobool = icmp ne %"class.xercesc_2_7::XercesXPath"* %0, null, !dbg !1971
  br i1 %tobool, label %if.then, label %if.end36, !dbg !1973

if.then:                                          ; preds = %entry
  %1 = load %"class.xercesc_2_7::XercesXPath"*, %"class.xercesc_2_7::XercesXPath"** %xpath.addr, align 8, !dbg !1974
  %call = call %"class.xercesc_2_7::RefVectorOf.0"* @_ZNK11xercesc_2_711XercesXPath16getLocationPathsEv(%"class.xercesc_2_7::XercesXPath"* %1), !dbg !1976
  %fLocationPaths = getelementptr inbounds %"class.xercesc_2_7::XPathMatcher", %"class.xercesc_2_7::XPathMatcher"* %this1, i32 0, i32 6, !dbg !1977
  store %"class.xercesc_2_7::RefVectorOf.0"* %call, %"class.xercesc_2_7::RefVectorOf.0"** %fLocationPaths, align 8, !dbg !1978
  %fLocationPaths2 = getelementptr inbounds %"class.xercesc_2_7::XPathMatcher", %"class.xercesc_2_7::XPathMatcher"* %this1, i32 0, i32 6, !dbg !1979
  %2 = load %"class.xercesc_2_7::RefVectorOf.0"*, %"class.xercesc_2_7::RefVectorOf.0"** %fLocationPaths2, align 8, !dbg !1979
  %tobool3 = icmp ne %"class.xercesc_2_7::RefVectorOf.0"* %2, null, !dbg !1979
  br i1 %tobool3, label %cond.true, label %cond.false, !dbg !1979

cond.true:                                        ; preds = %if.then
  %fLocationPaths4 = getelementptr inbounds %"class.xercesc_2_7::XPathMatcher", %"class.xercesc_2_7::XPathMatcher"* %this1, i32 0, i32 6, !dbg !1980
  %3 = load %"class.xercesc_2_7::RefVectorOf.0"*, %"class.xercesc_2_7::RefVectorOf.0"** %fLocationPaths4, align 8, !dbg !1980
  %4 = bitcast %"class.xercesc_2_7::RefVectorOf.0"* %3 to %"class.xercesc_2_7::BaseRefVectorOf.1"*, !dbg !1981
  %call5 = call i32 @_ZNK11xercesc_2_715BaseRefVectorOfINS_18XercesLocationPathEE4sizeEv(%"class.xercesc_2_7::BaseRefVectorOf.1"* %4), !dbg !1981
  br label %cond.end, !dbg !1979

cond.false:                                       ; preds = %if.then
  br label %cond.end, !dbg !1979

cond.end:                                         ; preds = %cond.false, %cond.true
  %cond = phi i32 [ %call5, %cond.true ], [ 0, %cond.false ], !dbg !1979
  %fLocationPathSize = getelementptr inbounds %"class.xercesc_2_7::XPathMatcher", %"class.xercesc_2_7::XPathMatcher"* %this1, i32 0, i32 1, !dbg !1982
  store i32 %cond, i32* %fLocationPathSize, align 8, !dbg !1983
  %fLocationPathSize6 = getelementptr inbounds %"class.xercesc_2_7::XPathMatcher", %"class.xercesc_2_7::XPathMatcher"* %this1, i32 0, i32 1, !dbg !1984
  %5 = load i32, i32* %fLocationPathSize6, align 8, !dbg !1984
  %tobool7 = icmp ne i32 %5, 0, !dbg !1984
  br i1 %tobool7, label %if.then8, label %if.end, !dbg !1986

if.then8:                                         ; preds = %cond.end
  %fMemoryManager = getelementptr inbounds %"class.xercesc_2_7::XPathMatcher", %"class.xercesc_2_7::XPathMatcher"* %this1, i32 0, i32 8, !dbg !1987
  %6 = load %"class.xercesc_2_7::MemoryManager"*, %"class.xercesc_2_7::MemoryManager"** %fMemoryManager, align 8, !dbg !1987
  %call9 = call i8* @_ZN11xercesc_2_77XMemorynwEmPNS_13MemoryManagerE(i64 40, %"class.xercesc_2_7::MemoryManager"* %6), !dbg !1989
  %7 = bitcast i8* %call9 to %"class.xercesc_2_7::RefVectorOf"*, !dbg !1989
  %fLocationPathSize10 = getelementptr inbounds %"class.xercesc_2_7::XPathMatcher", %"class.xercesc_2_7::XPathMatcher"* %this1, i32 0, i32 1, !dbg !1990
  %8 = load i32, i32* %fLocationPathSize10, align 8, !dbg !1990
  %fMemoryManager11 = getelementptr inbounds %"class.xercesc_2_7::XPathMatcher", %"class.xercesc_2_7::XPathMatcher"* %this1, i32 0, i32 8, !dbg !1991
  %9 = load %"class.xercesc_2_7::MemoryManager"*, %"class.xercesc_2_7::MemoryManager"** %fMemoryManager11, align 8, !dbg !1991
  invoke void @_ZN11xercesc_2_711RefVectorOfINS_12ValueStackOfIiEEEC2EjbPNS_13MemoryManagerE(%"class.xercesc_2_7::RefVectorOf"* %7, i32 %8, i1 zeroext true, %"class.xercesc_2_7::MemoryManager"* %9)
          to label %invoke.cont unwind label %lpad, !dbg !1992

invoke.cont:                                      ; preds = %if.then8
  %fStepIndexes = getelementptr inbounds %"class.xercesc_2_7::XPathMatcher", %"class.xercesc_2_7::XPathMatcher"* %this1, i32 0, i32 5, !dbg !1993
  store %"class.xercesc_2_7::RefVectorOf"* %7, %"class.xercesc_2_7::RefVectorOf"** %fStepIndexes, align 8, !dbg !1994
  %fMemoryManager12 = getelementptr inbounds %"class.xercesc_2_7::XPathMatcher", %"class.xercesc_2_7::XPathMatcher"* %this1, i32 0, i32 8, !dbg !1995
  %10 = load %"class.xercesc_2_7::MemoryManager"*, %"class.xercesc_2_7::MemoryManager"** %fMemoryManager12, align 8, !dbg !1995
  %fLocationPathSize13 = getelementptr inbounds %"class.xercesc_2_7::XPathMatcher", %"class.xercesc_2_7::XPathMatcher"* %this1, i32 0, i32 1, !dbg !1996
  %11 = load i32, i32* %fLocationPathSize13, align 8, !dbg !1996
  %conv = zext i32 %11 to i64, !dbg !1996
  %mul = mul i64 %conv, 4, !dbg !1997
  %12 = bitcast %"class.xercesc_2_7::MemoryManager"* %10 to i8* (%"class.xercesc_2_7::MemoryManager"*, i64)***, !dbg !1998
  %vtable = load i8* (%"class.xercesc_2_7::MemoryManager"*, i64)**, i8* (%"class.xercesc_2_7::MemoryManager"*, i64)*** %12, align 8, !dbg !1998
  %vfn = getelementptr inbounds i8* (%"class.xercesc_2_7::MemoryManager"*, i64)*, i8* (%"class.xercesc_2_7::MemoryManager"*, i64)** %vtable, i64 2, !dbg !1998
  %13 = load i8* (%"class.xercesc_2_7::MemoryManager"*, i64)*, i8* (%"class.xercesc_2_7::MemoryManager"*, i64)** %vfn, align 8, !dbg !1998
  %call14 = call i8* %13(%"class.xercesc_2_7::MemoryManager"* %10, i64 %mul), !dbg !1998
  %14 = bitcast i8* %call14 to i32*, !dbg !1999
  %fCurrentStep = getelementptr inbounds %"class.xercesc_2_7::XPathMatcher", %"class.xercesc_2_7::XPathMatcher"* %this1, i32 0, i32 4, !dbg !2000
  store i32* %14, i32** %fCurrentStep, align 8, !dbg !2001
  %fMemoryManager15 = getelementptr inbounds %"class.xercesc_2_7::XPathMatcher", %"class.xercesc_2_7::XPathMatcher"* %this1, i32 0, i32 8, !dbg !2002
  %15 = load %"class.xercesc_2_7::MemoryManager"*, %"class.xercesc_2_7::MemoryManager"** %fMemoryManager15, align 8, !dbg !2002
  %fLocationPathSize16 = getelementptr inbounds %"class.xercesc_2_7::XPathMatcher", %"class.xercesc_2_7::XPathMatcher"* %this1, i32 0, i32 1, !dbg !2003
  %16 = load i32, i32* %fLocationPathSize16, align 8, !dbg !2003
  %conv17 = zext i32 %16 to i64, !dbg !2003
  %mul18 = mul i64 %conv17, 4, !dbg !2004
  %17 = bitcast %"class.xercesc_2_7::MemoryManager"* %15 to i8* (%"class.xercesc_2_7::MemoryManager"*, i64)***, !dbg !2005
  %vtable19 = load i8* (%"class.xercesc_2_7::MemoryManager"*, i64)**, i8* (%"class.xercesc_2_7::MemoryManager"*, i64)*** %17, align 8, !dbg !2005
  %vfn20 = getelementptr inbounds i8* (%"class.xercesc_2_7::MemoryManager"*, i64)*, i8* (%"class.xercesc_2_7::MemoryManager"*, i64)** %vtable19, i64 2, !dbg !2005
  %18 = load i8* (%"class.xercesc_2_7::MemoryManager"*, i64)*, i8* (%"class.xercesc_2_7::MemoryManager"*, i64)** %vfn20, align 8, !dbg !2005
  %call21 = call i8* %18(%"class.xercesc_2_7::MemoryManager"* %15, i64 %mul18), !dbg !2005
  %19 = bitcast i8* %call21 to i32*, !dbg !2006
  %fNoMatchDepth = getelementptr inbounds %"class.xercesc_2_7::XPathMatcher", %"class.xercesc_2_7::XPathMatcher"* %this1, i32 0, i32 3, !dbg !2007
  store i32* %19, i32** %fNoMatchDepth, align 8, !dbg !2008
  %fMemoryManager22 = getelementptr inbounds %"class.xercesc_2_7::XPathMatcher", %"class.xercesc_2_7::XPathMatcher"* %this1, i32 0, i32 8, !dbg !2009
  %20 = load %"class.xercesc_2_7::MemoryManager"*, %"class.xercesc_2_7::MemoryManager"** %fMemoryManager22, align 8, !dbg !2009
  %fLocationPathSize23 = getelementptr inbounds %"class.xercesc_2_7::XPathMatcher", %"class.xercesc_2_7::XPathMatcher"* %this1, i32 0, i32 1, !dbg !2010
  %21 = load i32, i32* %fLocationPathSize23, align 8, !dbg !2010
  %conv24 = zext i32 %21 to i64, !dbg !2010
  %mul25 = mul i64 %conv24, 4, !dbg !2011
  %22 = bitcast %"class.xercesc_2_7::MemoryManager"* %20 to i8* (%"class.xercesc_2_7::MemoryManager"*, i64)***, !dbg !2012
  %vtable26 = load i8* (%"class.xercesc_2_7::MemoryManager"*, i64)**, i8* (%"class.xercesc_2_7::MemoryManager"*, i64)*** %22, align 8, !dbg !2012
  %vfn27 = getelementptr inbounds i8* (%"class.xercesc_2_7::MemoryManager"*, i64)*, i8* (%"class.xercesc_2_7::MemoryManager"*, i64)** %vtable26, i64 2, !dbg !2012
  %23 = load i8* (%"class.xercesc_2_7::MemoryManager"*, i64)*, i8* (%"class.xercesc_2_7::MemoryManager"*, i64)** %vfn27, align 8, !dbg !2012
  %call28 = call i8* %23(%"class.xercesc_2_7::MemoryManager"* %20, i64 %mul25), !dbg !2012
  %24 = bitcast i8* %call28 to i32*, !dbg !2013
  %fMatched = getelementptr inbounds %"class.xercesc_2_7::XPathMatcher", %"class.xercesc_2_7::XPathMatcher"* %this1, i32 0, i32 2, !dbg !2014
  store i32* %24, i32** %fMatched, align 8, !dbg !2015
  call void @llvm.dbg.declare(metadata i32* %i, metadata !2016, metadata !DIExpression()), !dbg !2018
  store i32 0, i32* %i, align 4, !dbg !2018
  br label %for.cond, !dbg !2019

for.cond:                                         ; preds = %for.inc, %invoke.cont
  %25 = load i32, i32* %i, align 4, !dbg !2020
  %fLocationPathSize29 = getelementptr inbounds %"class.xercesc_2_7::XPathMatcher", %"class.xercesc_2_7::XPathMatcher"* %this1, i32 0, i32 1, !dbg !2022
  %26 = load i32, i32* %fLocationPathSize29, align 8, !dbg !2022
  %cmp = icmp ult i32 %25, %26, !dbg !2023
  br i1 %cmp, label %for.body, label %for.end, !dbg !2024

for.body:                                         ; preds = %for.cond
  %fStepIndexes30 = getelementptr inbounds %"class.xercesc_2_7::XPathMatcher", %"class.xercesc_2_7::XPathMatcher"* %this1, i32 0, i32 5, !dbg !2025
  %27 = load %"class.xercesc_2_7::RefVectorOf"*, %"class.xercesc_2_7::RefVectorOf"** %fStepIndexes30, align 8, !dbg !2025
  %28 = bitcast %"class.xercesc_2_7::RefVectorOf"* %27 to %"class.xercesc_2_7::BaseRefVectorOf"*, !dbg !2027
  %fMemoryManager31 = getelementptr inbounds %"class.xercesc_2_7::XPathMatcher", %"class.xercesc_2_7::XPathMatcher"* %this1, i32 0, i32 8, !dbg !2028
  %29 = load %"class.xercesc_2_7::MemoryManager"*, %"class.xercesc_2_7::MemoryManager"** %fMemoryManager31, align 8, !dbg !2028
  %call32 = call i8* @_ZN11xercesc_2_77XMemorynwEmPNS_13MemoryManagerE(i64 40, %"class.xercesc_2_7::MemoryManager"* %29), !dbg !2029
  %30 = bitcast i8* %call32 to %"class.xercesc_2_7::ValueStackOf"*, !dbg !2029
  %fMemoryManager33 = getelementptr inbounds %"class.xercesc_2_7::XPathMatcher", %"class.xercesc_2_7::XPathMatcher"* %this1, i32 0, i32 8, !dbg !2030
  %31 = load %"class.xercesc_2_7::MemoryManager"*, %"class.xercesc_2_7::MemoryManager"** %fMemoryManager33, align 8, !dbg !2030
  invoke void @_ZN11xercesc_2_712ValueStackOfIiEC2EjPNS_13MemoryManagerEb(%"class.xercesc_2_7::ValueStackOf"* %30, i32 8, %"class.xercesc_2_7::MemoryManager"* %31, i1 zeroext false)
          to label %invoke.cont35 unwind label %lpad34, !dbg !2031

invoke.cont35:                                    ; preds = %for.body
  call void @_ZN11xercesc_2_715BaseRefVectorOfINS_12ValueStackOfIiEEE10addElementEPS2_(%"class.xercesc_2_7::BaseRefVectorOf"* %28, %"class.xercesc_2_7::ValueStackOf"* %30), !dbg !2027
  br label %for.inc, !dbg !2032

for.inc:                                          ; preds = %invoke.cont35
  %32 = load i32, i32* %i, align 4, !dbg !2033
  %inc = add i32 %32, 1, !dbg !2033
  store i32 %inc, i32* %i, align 4, !dbg !2033
  br label %for.cond, !dbg !2034, !llvm.loop !2035

lpad:                                             ; preds = %if.then8
  %33 = landingpad { i8*, i32 }
          cleanup, !dbg !2037
  %34 = extractvalue { i8*, i32 } %33, 0, !dbg !2037
  store i8* %34, i8** %exn.slot, align 8, !dbg !2037
  %35 = extractvalue { i8*, i32 } %33, 1, !dbg !2037
  store i32 %35, i32* %ehselector.slot, align 4, !dbg !2037
  call void @_ZN11xercesc_2_77XMemorydlEPvPNS_13MemoryManagerE(i8* %call9, %"class.xercesc_2_7::MemoryManager"* %6) #10, !dbg !1989
  br label %eh.resume, !dbg !1989

lpad34:                                           ; preds = %for.body
  %36 = landingpad { i8*, i32 }
          cleanup, !dbg !2038
  %37 = extractvalue { i8*, i32 } %36, 0, !dbg !2038
  store i8* %37, i8** %exn.slot, align 8, !dbg !2038
  %38 = extractvalue { i8*, i32 } %36, 1, !dbg !2038
  store i32 %38, i32* %ehselector.slot, align 4, !dbg !2038
  call void @_ZN11xercesc_2_77XMemorydlEPvPNS_13MemoryManagerE(i8* %call32, %"class.xercesc_2_7::MemoryManager"* %29) #10, !dbg !2029
  br label %eh.resume, !dbg !2029

for.end:                                          ; preds = %for.cond
  br label %if.end, !dbg !2039

if.end:                                           ; preds = %for.end, %cond.end
  br label %if.end36, !dbg !2040

if.end36:                                         ; preds = %if.end, %entry
  ret void, !dbg !2041

eh.resume:                                        ; preds = %lpad34, %lpad
  %exn = load i8*, i8** %exn.slot, align 8, !dbg !1989
  %sel = load i32, i32* %ehselector.slot, align 4, !dbg !1989
  %lpad.val = insertvalue { i8*, i32 } undef, i8* %exn, 0, !dbg !1989
  %lpad.val37 = insertvalue { i8*, i32 } %lpad.val, i32 %sel, 1, !dbg !1989
  resume { i8*, i32 } %lpad.val37, !dbg !1989
}

declare dso_local i32 @__gxx_personality_v0(...)

; Function Attrs: nounwind readnone
declare i32 @llvm.eh.typeid.for(i8*) #5

declare dso_local i8* @__cxa_begin_catch(i8*)

; Function Attrs: noinline nounwind uwtable
define linkonce_odr dso_local void @_ZN11xercesc_2_717JanitorMemFunCallINS_12XPathMatcherEE7releaseEv(%"class.xercesc_2_7::JanitorMemFunCall"* %this) #1 comdat align 2 !dbg !2042 {
entry:
  %this.addr = alloca %"class.xercesc_2_7::JanitorMemFunCall"*, align 8
  store %"class.xercesc_2_7::JanitorMemFunCall"* %this, %"class.xercesc_2_7::JanitorMemFunCall"** %this.addr, align 8
  call void @llvm.dbg.declare(metadata %"class.xercesc_2_7::JanitorMemFunCall"** %this.addr, metadata !2043, metadata !DIExpression()), !dbg !2044
  %this1 = load %"class.xercesc_2_7::JanitorMemFunCall"*, %"class.xercesc_2_7::JanitorMemFunCall"** %this.addr, align 8
  %fObject = getelementptr inbounds %"class.xercesc_2_7::JanitorMemFunCall", %"class.xercesc_2_7::JanitorMemFunCall"* %this1, i32 0, i32 0, !dbg !2045
  store %"class.xercesc_2_7::XPathMatcher"* null, %"class.xercesc_2_7::XPathMatcher"** %fObject, align 8, !dbg !2046
  %fToCall = getelementptr inbounds %"class.xercesc_2_7::JanitorMemFunCall", %"class.xercesc_2_7::JanitorMemFunCall"* %this1, i32 0, i32 1, !dbg !2047
  store { i64, i64 } zeroinitializer, { i64, i64 }* %fToCall, align 8, !dbg !2048
  ret void, !dbg !2049
}

declare dso_local void @__cxa_rethrow()

declare dso_local void @__cxa_end_catch()

; Function Attrs: noinline noreturn nounwind
define linkonce_odr hidden void @__clang_call_terminate(i8* %0) #6 comdat {
  %2 = call i8* @__cxa_begin_catch(i8* %0) #10
  call void @_ZSt9terminatev() #12
  unreachable
}

declare dso_local void @_ZSt9terminatev()

; Function Attrs: noinline nounwind uwtable
define linkonce_odr dso_local void @_ZN11xercesc_2_717JanitorMemFunCallINS_12XPathMatcherEED2Ev(%"class.xercesc_2_7::JanitorMemFunCall"* %this) unnamed_addr #1 comdat align 2 personality i8* bitcast (i32 (...)* @__gxx_personality_v0 to i8*) !dbg !2050 {
entry:
  %this.addr = alloca %"class.xercesc_2_7::JanitorMemFunCall"*, align 8
  store %"class.xercesc_2_7::JanitorMemFunCall"* %this, %"class.xercesc_2_7::JanitorMemFunCall"** %this.addr, align 8
  call void @llvm.dbg.declare(metadata %"class.xercesc_2_7::JanitorMemFunCall"** %this.addr, metadata !2051, metadata !DIExpression()), !dbg !2052
  %this1 = load %"class.xercesc_2_7::JanitorMemFunCall"*, %"class.xercesc_2_7::JanitorMemFunCall"** %this.addr, align 8
  %fObject = getelementptr inbounds %"class.xercesc_2_7::JanitorMemFunCall", %"class.xercesc_2_7::JanitorMemFunCall"* %this1, i32 0, i32 0, !dbg !2053
  %0 = load %"class.xercesc_2_7::XPathMatcher"*, %"class.xercesc_2_7::XPathMatcher"** %fObject, align 8, !dbg !2053
  %cmp = icmp ne %"class.xercesc_2_7::XPathMatcher"* %0, null, !dbg !2056
  br i1 %cmp, label %land.lhs.true, label %if.end, !dbg !2057

land.lhs.true:                                    ; preds = %entry
  %fToCall = getelementptr inbounds %"class.xercesc_2_7::JanitorMemFunCall", %"class.xercesc_2_7::JanitorMemFunCall"* %this1, i32 0, i32 1, !dbg !2058
  %1 = load { i64, i64 }, { i64, i64 }* %fToCall, align 8, !dbg !2058
  %lhs.memptr.ptr = extractvalue { i64, i64 } %1, 0, !dbg !2059
  %cmp.ptr = icmp ne i64 %lhs.memptr.ptr, 0, !dbg !2059
  %cmp.ptr.null = icmp ne i64 %lhs.memptr.ptr, 0, !dbg !2059
  %lhs.memptr.adj = extractvalue { i64, i64 } %1, 1, !dbg !2059
  %cmp.adj = icmp ne i64 %lhs.memptr.adj, 0, !dbg !2059
  %2 = and i1 %cmp.ptr.null, %cmp.adj, !dbg !2059
  %memptr.ne = or i1 %cmp.ptr, %2, !dbg !2059
  br i1 %memptr.ne, label %if.then, label %if.end, !dbg !2060

if.then:                                          ; preds = %land.lhs.true
  %fObject2 = getelementptr inbounds %"class.xercesc_2_7::JanitorMemFunCall", %"class.xercesc_2_7::JanitorMemFunCall"* %this1, i32 0, i32 0, !dbg !2061
  %3 = load %"class.xercesc_2_7::XPathMatcher"*, %"class.xercesc_2_7::XPathMatcher"** %fObject2, align 8, !dbg !2061
  %fToCall3 = getelementptr inbounds %"class.xercesc_2_7::JanitorMemFunCall", %"class.xercesc_2_7::JanitorMemFunCall"* %this1, i32 0, i32 1, !dbg !2063
  %4 = load { i64, i64 }, { i64, i64 }* %fToCall3, align 8, !dbg !2063
  %memptr.adj = extractvalue { i64, i64 } %4, 1, !dbg !2064
  %5 = bitcast %"class.xercesc_2_7::XPathMatcher"* %3 to i8*, !dbg !2064
  %6 = getelementptr inbounds i8, i8* %5, i64 %memptr.adj, !dbg !2064
  %this.adjusted = bitcast i8* %6 to %"class.xercesc_2_7::XPathMatcher"*, !dbg !2064
  %memptr.ptr = extractvalue { i64, i64 } %4, 0, !dbg !2064
  %7 = and i64 %memptr.ptr, 1, !dbg !2064
  %memptr.isvirtual = icmp ne i64 %7, 0, !dbg !2064
  br i1 %memptr.isvirtual, label %memptr.virtual, label %memptr.nonvirtual, !dbg !2064

memptr.virtual:                                   ; preds = %if.then
  %8 = bitcast %"class.xercesc_2_7::XPathMatcher"* %this.adjusted to i8**, !dbg !2064
  %vtable = load i8*, i8** %8, align 8, !dbg !2064
  %9 = sub i64 %memptr.ptr, 1, !dbg !2064
  %10 = getelementptr i8, i8* %vtable, i64 %9, !dbg !2064, !nosanitize !1368
  %11 = bitcast i8* %10 to void (%"class.xercesc_2_7::XPathMatcher"*)**, !dbg !2064, !nosanitize !1368
  %memptr.virtualfn = load void (%"class.xercesc_2_7::XPathMatcher"*)*, void (%"class.xercesc_2_7::XPathMatcher"*)** %11, align 8, !dbg !2064, !nosanitize !1368
  br label %memptr.end, !dbg !2064

memptr.nonvirtual:                                ; preds = %if.then
  %memptr.nonvirtualfn = inttoptr i64 %memptr.ptr to void (%"class.xercesc_2_7::XPathMatcher"*)*, !dbg !2064
  br label %memptr.end, !dbg !2064

memptr.end:                                       ; preds = %memptr.nonvirtual, %memptr.virtual
  %12 = phi void (%"class.xercesc_2_7::XPathMatcher"*)* [ %memptr.virtualfn, %memptr.virtual ], [ %memptr.nonvirtualfn, %memptr.nonvirtual ], !dbg !2064
  invoke void %12(%"class.xercesc_2_7::XPathMatcher"* %this.adjusted)
          to label %invoke.cont unwind label %terminate.lpad, !dbg !2064

invoke.cont:                                      ; preds = %memptr.end
  br label %if.end, !dbg !2065

if.end:                                           ; preds = %invoke.cont, %land.lhs.true, %entry
  ret void, !dbg !2066

terminate.lpad:                                   ; preds = %memptr.end
  %13 = landingpad { i8*, i32 }
          catch i8* null, !dbg !2064
  %14 = extractvalue { i8*, i32 } %13, 0, !dbg !2064
  call void @__clang_call_terminate(i8* %14) #12, !dbg !2064
  unreachable, !dbg !2064
}

; Function Attrs: noinline uwtable
define dso_local void @_ZN11xercesc_2_712XPathMatcherC2EPNS_11XercesXPathEPNS_18IdentityConstraintEPNS_13MemoryManagerE(%"class.xercesc_2_7::XPathMatcher"* %this, %"class.xercesc_2_7::XercesXPath"* %xpath, %"class.xercesc_2_7::IdentityConstraint"* %ic, %"class.xercesc_2_7::MemoryManager"* %manager) unnamed_addr #3 align 2 personality i8* bitcast (i32 (...)* @__gxx_personality_v0 to i8*) !dbg !2067 {
entry:
  %this.addr = alloca %"class.xercesc_2_7::XPathMatcher"*, align 8
  %xpath.addr = alloca %"class.xercesc_2_7::XercesXPath"*, align 8
  %ic.addr = alloca %"class.xercesc_2_7::IdentityConstraint"*, align 8
  %manager.addr = alloca %"class.xercesc_2_7::MemoryManager"*, align 8
  %cleanup = alloca %"class.xercesc_2_7::JanitorMemFunCall", align 8
  %coerce = alloca { i64, i64 }, align 8
  %exn.slot = alloca i8*
  %ehselector.slot = alloca i32
  %0 = alloca %"class.xercesc_2_7::OutOfMemoryException"*, align 8
  store %"class.xercesc_2_7::XPathMatcher"* %this, %"class.xercesc_2_7::XPathMatcher"** %this.addr, align 8
  call void @llvm.dbg.declare(metadata %"class.xercesc_2_7::XPathMatcher"** %this.addr, metadata !2068, metadata !DIExpression()), !dbg !2069
  store %"class.xercesc_2_7::XercesXPath"* %xpath, %"class.xercesc_2_7::XercesXPath"** %xpath.addr, align 8
  call void @llvm.dbg.declare(metadata %"class.xercesc_2_7::XercesXPath"** %xpath.addr, metadata !2070, metadata !DIExpression()), !dbg !2071
  store %"class.xercesc_2_7::IdentityConstraint"* %ic, %"class.xercesc_2_7::IdentityConstraint"** %ic.addr, align 8
  call void @llvm.dbg.declare(metadata %"class.xercesc_2_7::IdentityConstraint"** %ic.addr, metadata !2072, metadata !DIExpression()), !dbg !2073
  store %"class.xercesc_2_7::MemoryManager"* %manager, %"class.xercesc_2_7::MemoryManager"** %manager.addr, align 8
  call void @llvm.dbg.declare(metadata %"class.xercesc_2_7::MemoryManager"** %manager.addr, metadata !2074, metadata !DIExpression()), !dbg !2075
  %this1 = load %"class.xercesc_2_7::XPathMatcher"*, %"class.xercesc_2_7::XPathMatcher"** %this.addr, align 8
  %1 = bitcast %"class.xercesc_2_7::XPathMatcher"* %this1 to %"class.xercesc_2_7::XMemory"*, !dbg !2076
  call void @_ZN11xercesc_2_77XMemoryC2Ev(%"class.xercesc_2_7::XMemory"* %1), !dbg !2077
  %2 = bitcast %"class.xercesc_2_7::XPathMatcher"* %this1 to i32 (...)***, !dbg !2076
  store i32 (...)** bitcast (i8** getelementptr inbounds ({ [9 x i8*] }, { [9 x i8*] }* @_ZTVN11xercesc_2_712XPathMatcherE, i32 0, inrange i32 0, i32 2) to i32 (...)**), i32 (...)*** %2, align 8, !dbg !2076
  %fLocationPathSize = getelementptr inbounds %"class.xercesc_2_7::XPathMatcher", %"class.xercesc_2_7::XPathMatcher"* %this1, i32 0, i32 1, !dbg !2078
  store i32 0, i32* %fLocationPathSize, align 8, !dbg !2078
  %fMatched = getelementptr inbounds %"class.xercesc_2_7::XPathMatcher", %"class.xercesc_2_7::XPathMatcher"* %this1, i32 0, i32 2, !dbg !2079
  store i32* null, i32** %fMatched, align 8, !dbg !2079
  %fNoMatchDepth = getelementptr inbounds %"class.xercesc_2_7::XPathMatcher", %"class.xercesc_2_7::XPathMatcher"* %this1, i32 0, i32 3, !dbg !2080
  store i32* null, i32** %fNoMatchDepth, align 8, !dbg !2080
  %fCurrentStep = getelementptr inbounds %"class.xercesc_2_7::XPathMatcher", %"class.xercesc_2_7::XPathMatcher"* %this1, i32 0, i32 4, !dbg !2081
  store i32* null, i32** %fCurrentStep, align 8, !dbg !2081
  %fStepIndexes = getelementptr inbounds %"class.xercesc_2_7::XPathMatcher", %"class.xercesc_2_7::XPathMatcher"* %this1, i32 0, i32 5, !dbg !2082
  store %"class.xercesc_2_7::RefVectorOf"* null, %"class.xercesc_2_7::RefVectorOf"** %fStepIndexes, align 8, !dbg !2082
  %fLocationPaths = getelementptr inbounds %"class.xercesc_2_7::XPathMatcher", %"class.xercesc_2_7::XPathMatcher"* %this1, i32 0, i32 6, !dbg !2083
  store %"class.xercesc_2_7::RefVectorOf.0"* null, %"class.xercesc_2_7::RefVectorOf.0"** %fLocationPaths, align 8, !dbg !2083
  %fIdentityConstraint = getelementptr inbounds %"class.xercesc_2_7::XPathMatcher", %"class.xercesc_2_7::XPathMatcher"* %this1, i32 0, i32 7, !dbg !2084
  %3 = load %"class.xercesc_2_7::IdentityConstraint"*, %"class.xercesc_2_7::IdentityConstraint"** %ic.addr, align 8, !dbg !2085
  store %"class.xercesc_2_7::IdentityConstraint"* %3, %"class.xercesc_2_7::IdentityConstraint"** %fIdentityConstraint, align 8, !dbg !2084
  %fMemoryManager = getelementptr inbounds %"class.xercesc_2_7::XPathMatcher", %"class.xercesc_2_7::XPathMatcher"* %this1, i32 0, i32 8, !dbg !2086
  %4 = load %"class.xercesc_2_7::MemoryManager"*, %"class.xercesc_2_7::MemoryManager"** %manager.addr, align 8, !dbg !2087
  store %"class.xercesc_2_7::MemoryManager"* %4, %"class.xercesc_2_7::MemoryManager"** %fMemoryManager, align 8, !dbg !2086
  call void @llvm.dbg.declare(metadata %"class.xercesc_2_7::JanitorMemFunCall"* %cleanup, metadata !2088, metadata !DIExpression()), !dbg !2090
  store { i64, i64 } { i64 ptrtoint (void (%"class.xercesc_2_7::XPathMatcher"*)* @_ZN11xercesc_2_712XPathMatcher7cleanUpEv to i64), i64 0 }, { i64, i64 }* %coerce, align 8, !dbg !2090
  %5 = getelementptr inbounds { i64, i64 }, { i64, i64 }* %coerce, i32 0, i32 0, !dbg !2090
  %6 = load i64, i64* %5, align 8, !dbg !2090
  %7 = getelementptr inbounds { i64, i64 }, { i64, i64 }* %coerce, i32 0, i32 1, !dbg !2090
  %8 = load i64, i64* %7, align 8, !dbg !2090
  call void @_ZN11xercesc_2_717JanitorMemFunCallINS_12XPathMatcherEEC2EPS1_MS1_FvvE(%"class.xercesc_2_7::JanitorMemFunCall"* %cleanup, %"class.xercesc_2_7::XPathMatcher"* %this1, i64 %6, i64 %8), !dbg !2090
  %9 = load %"class.xercesc_2_7::XercesXPath"*, %"class.xercesc_2_7::XercesXPath"** %xpath.addr, align 8, !dbg !2091
  invoke void @_ZN11xercesc_2_712XPathMatcher4initEPNS_11XercesXPathE(%"class.xercesc_2_7::XPathMatcher"* %this1, %"class.xercesc_2_7::XercesXPath"* %9)
          to label %invoke.cont unwind label %lpad, !dbg !2093

invoke.cont:                                      ; preds = %entry
  br label %try.cont, !dbg !2094

lpad:                                             ; preds = %entry
  %10 = landingpad { i8*, i32 }
          cleanup
          catch i8* bitcast ({ i8*, i8*, i8* }* @_ZTIN11xercesc_2_720OutOfMemoryExceptionE to i8*), !dbg !2095
  %11 = extractvalue { i8*, i32 } %10, 0, !dbg !2095
  store i8* %11, i8** %exn.slot, align 8, !dbg !2095
  %12 = extractvalue { i8*, i32 } %10, 1, !dbg !2095
  store i32 %12, i32* %ehselector.slot, align 4, !dbg !2095
  br label %catch.dispatch, !dbg !2095

catch.dispatch:                                   ; preds = %lpad
  %sel = load i32, i32* %ehselector.slot, align 4, !dbg !2094
  %13 = call i32 @llvm.eh.typeid.for(i8* bitcast ({ i8*, i8*, i8* }* @_ZTIN11xercesc_2_720OutOfMemoryExceptionE to i8*)) #10, !dbg !2094
  %matches = icmp eq i32 %sel, %13, !dbg !2094
  br i1 %matches, label %catch, label %ehcleanup, !dbg !2094

catch:                                            ; preds = %catch.dispatch
  call void @llvm.dbg.declare(metadata %"class.xercesc_2_7::OutOfMemoryException"** %0, metadata !2096, metadata !DIExpression()), !dbg !2097
  %exn = load i8*, i8** %exn.slot, align 8, !dbg !2094
  %14 = call i8* @__cxa_begin_catch(i8* %exn) #10, !dbg !2094
  %exn.byref = bitcast i8* %14 to %"class.xercesc_2_7::OutOfMemoryException"*, !dbg !2094
  store %"class.xercesc_2_7::OutOfMemoryException"* %exn.byref, %"class.xercesc_2_7::OutOfMemoryException"** %0, align 8, !dbg !2094
  invoke void @_ZN11xercesc_2_717JanitorMemFunCallINS_12XPathMatcherEE7releaseEv(%"class.xercesc_2_7::JanitorMemFunCall"* %cleanup)
          to label %invoke.cont3 unwind label %lpad2, !dbg !2098

invoke.cont3:                                     ; preds = %catch
  invoke void @__cxa_rethrow() #13
          to label %unreachable unwind label %lpad2, !dbg !2100

lpad2:                                            ; preds = %invoke.cont3, %catch
  %15 = landingpad { i8*, i32 }
          cleanup, !dbg !2101
  %16 = extractvalue { i8*, i32 } %15, 0, !dbg !2101
  store i8* %16, i8** %exn.slot, align 8, !dbg !2101
  %17 = extractvalue { i8*, i32 } %15, 1, !dbg !2101
  store i32 %17, i32* %ehselector.slot, align 4, !dbg !2101
  invoke void @__cxa_end_catch()
          to label %invoke.cont4 unwind label %terminate.lpad, !dbg !2102

invoke.cont4:                                     ; preds = %lpad2
  br label %ehcleanup, !dbg !2102

try.cont:                                         ; preds = %invoke.cont
  invoke void @_ZN11xercesc_2_717JanitorMemFunCallINS_12XPathMatcherEE7releaseEv(%"class.xercesc_2_7::JanitorMemFunCall"* %cleanup)
          to label %invoke.cont6 unwind label %lpad5, !dbg !2103

invoke.cont6:                                     ; preds = %try.cont
  call void @_ZN11xercesc_2_717JanitorMemFunCallINS_12XPathMatcherEED2Ev(%"class.xercesc_2_7::JanitorMemFunCall"* %cleanup) #10, !dbg !2104
  ret void, !dbg !2104

lpad5:                                            ; preds = %try.cont
  %18 = landingpad { i8*, i32 }
          cleanup, !dbg !2105
  %19 = extractvalue { i8*, i32 } %18, 0, !dbg !2105
  store i8* %19, i8** %exn.slot, align 8, !dbg !2105
  %20 = extractvalue { i8*, i32 } %18, 1, !dbg !2105
  store i32 %20, i32* %ehselector.slot, align 4, !dbg !2105
  br label %ehcleanup, !dbg !2105

ehcleanup:                                        ; preds = %lpad5, %invoke.cont4, %catch.dispatch
  call void @_ZN11xercesc_2_717JanitorMemFunCallINS_12XPathMatcherEED2Ev(%"class.xercesc_2_7::JanitorMemFunCall"* %cleanup) #10, !dbg !2104
  br label %eh.resume, !dbg !2104

eh.resume:                                        ; preds = %ehcleanup
  %exn7 = load i8*, i8** %exn.slot, align 8, !dbg !2104
  %sel8 = load i32, i32* %ehselector.slot, align 4, !dbg !2104
  %lpad.val = insertvalue { i8*, i32 } undef, i8* %exn7, 0, !dbg !2104
  %lpad.val9 = insertvalue { i8*, i32 } %lpad.val, i32 %sel8, 1, !dbg !2104
  resume { i8*, i32 } %lpad.val9, !dbg !2104

terminate.lpad:                                   ; preds = %lpad2
  %21 = landingpad { i8*, i32 }
          catch i8* null, !dbg !2102
  %22 = extractvalue { i8*, i32 } %21, 0, !dbg !2102
  call void @__clang_call_terminate(i8* %22) #12, !dbg !2102
  unreachable, !dbg !2102

unreachable:                                      ; preds = %invoke.cont3
  unreachable
}

; Function Attrs: noinline nounwind uwtable
define dso_local void @_ZN11xercesc_2_712XPathMatcherD2Ev(%"class.xercesc_2_7::XPathMatcher"* %this) unnamed_addr #1 align 2 personality i8* bitcast (i32 (...)* @__gxx_personality_v0 to i8*) !dbg !2106 {
entry:
  %this.addr = alloca %"class.xercesc_2_7::XPathMatcher"*, align 8
  store %"class.xercesc_2_7::XPathMatcher"* %this, %"class.xercesc_2_7::XPathMatcher"** %this.addr, align 8
  call void @llvm.dbg.declare(metadata %"class.xercesc_2_7::XPathMatcher"** %this.addr, metadata !2107, metadata !DIExpression()), !dbg !2108
  %this1 = load %"class.xercesc_2_7::XPathMatcher"*, %"class.xercesc_2_7::XPathMatcher"** %this.addr, align 8
  %0 = bitcast %"class.xercesc_2_7::XPathMatcher"* %this1 to i32 (...)***, !dbg !2109
  store i32 (...)** bitcast (i8** getelementptr inbounds ({ [9 x i8*] }, { [9 x i8*] }* @_ZTVN11xercesc_2_712XPathMatcherE, i32 0, inrange i32 0, i32 2) to i32 (...)**), i32 (...)*** %0, align 8, !dbg !2109
  invoke void @_ZN11xercesc_2_712XPathMatcher7cleanUpEv(%"class.xercesc_2_7::XPathMatcher"* %this1)
          to label %invoke.cont unwind label %terminate.lpad, !dbg !2110

invoke.cont:                                      ; preds = %entry
  ret void, !dbg !2112

terminate.lpad:                                   ; preds = %entry
  %1 = landingpad { i8*, i32 }
          catch i8* null, !dbg !2110
  %2 = extractvalue { i8*, i32 } %1, 0, !dbg !2110
  call void @__clang_call_terminate(i8* %2) #12, !dbg !2110
  unreachable, !dbg !2110
}

; Function Attrs: noinline nounwind uwtable
define dso_local void @_ZN11xercesc_2_712XPathMatcherD0Ev(%"class.xercesc_2_7::XPathMatcher"* %this) unnamed_addr #1 align 2 !dbg !2113 {
entry:
  %this.addr = alloca %"class.xercesc_2_7::XPathMatcher"*, align 8
  store %"class.xercesc_2_7::XPathMatcher"* %this, %"class.xercesc_2_7::XPathMatcher"** %this.addr, align 8
  call void @llvm.dbg.declare(metadata %"class.xercesc_2_7::XPathMatcher"** %this.addr, metadata !2114, metadata !DIExpression()), !dbg !2115
  %this1 = load %"class.xercesc_2_7::XPathMatcher"*, %"class.xercesc_2_7::XPathMatcher"** %this.addr, align 8
  call void @_ZN11xercesc_2_712XPathMatcherD1Ev(%"class.xercesc_2_7::XPathMatcher"* %this1) #10, !dbg !2116
  %0 = bitcast %"class.xercesc_2_7::XPathMatcher"* %this1 to i8*, !dbg !2116
  call void @_ZN11xercesc_2_77XMemorydlEPv(i8* %0) #10, !dbg !2116
  ret void, !dbg !2117
}

; Function Attrs: nounwind
declare dso_local void @_ZN11xercesc_2_77XMemorydlEPv(i8*) #7

; Function Attrs: noinline nounwind uwtable
define linkonce_odr dso_local %"class.xercesc_2_7::RefVectorOf.0"* @_ZNK11xercesc_2_711XercesXPath16getLocationPathsEv(%"class.xercesc_2_7::XercesXPath"* %this) #1 comdat align 2 !dbg !2118 {
entry:
  %this.addr = alloca %"class.xercesc_2_7::XercesXPath"*, align 8
  store %"class.xercesc_2_7::XercesXPath"* %this, %"class.xercesc_2_7::XercesXPath"** %this.addr, align 8
  call void @llvm.dbg.declare(metadata %"class.xercesc_2_7::XercesXPath"** %this.addr, metadata !2124, metadata !DIExpression()), !dbg !2126
  %this1 = load %"class.xercesc_2_7::XercesXPath"*, %"class.xercesc_2_7::XercesXPath"** %this.addr, align 8
  %fLocationPaths = getelementptr inbounds %"class.xercesc_2_7::XercesXPath", %"class.xercesc_2_7::XercesXPath"* %this1, i32 0, i32 3, !dbg !2127
  %0 = load %"class.xercesc_2_7::RefVectorOf.0"*, %"class.xercesc_2_7::RefVectorOf.0"** %fLocationPaths, align 8, !dbg !2127
  ret %"class.xercesc_2_7::RefVectorOf.0"* %0, !dbg !2128
}

; Function Attrs: noinline nounwind uwtable
define linkonce_odr dso_local i32 @_ZNK11xercesc_2_715BaseRefVectorOfINS_18XercesLocationPathEE4sizeEv(%"class.xercesc_2_7::BaseRefVectorOf.1"* %this) #1 comdat align 2 !dbg !2129 {
entry:
  %this.addr = alloca %"class.xercesc_2_7::BaseRefVectorOf.1"*, align 8
  store %"class.xercesc_2_7::BaseRefVectorOf.1"* %this, %"class.xercesc_2_7::BaseRefVectorOf.1"** %this.addr, align 8
  call void @llvm.dbg.declare(metadata %"class.xercesc_2_7::BaseRefVectorOf.1"** %this.addr, metadata !2137, metadata !DIExpression()), !dbg !2139
  %this1 = load %"class.xercesc_2_7::BaseRefVectorOf.1"*, %"class.xercesc_2_7::BaseRefVectorOf.1"** %this.addr, align 8
  %fCurCount = getelementptr inbounds %"class.xercesc_2_7::BaseRefVectorOf.1", %"class.xercesc_2_7::BaseRefVectorOf.1"* %this1, i32 0, i32 2, !dbg !2140
  %0 = load i32, i32* %fCurCount, align 4, !dbg !2140
  ret i32 %0, !dbg !2141
}

declare dso_local i8* @_ZN11xercesc_2_77XMemorynwEmPNS_13MemoryManagerE(i64, %"class.xercesc_2_7::MemoryManager"*) #8

; Function Attrs: noinline uwtable
define linkonce_odr dso_local void @_ZN11xercesc_2_711RefVectorOfINS_12ValueStackOfIiEEEC2EjbPNS_13MemoryManagerE(%"class.xercesc_2_7::RefVectorOf"* %this, i32 %maxElems, i1 zeroext %adoptElems, %"class.xercesc_2_7::MemoryManager"* %manager) unnamed_addr #3 comdat align 2 !dbg !2142 {
entry:
  %this.addr = alloca %"class.xercesc_2_7::RefVectorOf"*, align 8
  %maxElems.addr = alloca i32, align 4
  %adoptElems.addr = alloca i8, align 1
  %manager.addr = alloca %"class.xercesc_2_7::MemoryManager"*, align 8
  store %"class.xercesc_2_7::RefVectorOf"* %this, %"class.xercesc_2_7::RefVectorOf"** %this.addr, align 8
  call void @llvm.dbg.declare(metadata %"class.xercesc_2_7::RefVectorOf"** %this.addr, metadata !2144, metadata !DIExpression()), !dbg !2145
  store i32 %maxElems, i32* %maxElems.addr, align 4
  call void @llvm.dbg.declare(metadata i32* %maxElems.addr, metadata !2146, metadata !DIExpression()), !dbg !2147
  %frombool = zext i1 %adoptElems to i8
  store i8 %frombool, i8* %adoptElems.addr, align 1
  call void @llvm.dbg.declare(metadata i8* %adoptElems.addr, metadata !2148, metadata !DIExpression()), !dbg !2149
  store %"class.xercesc_2_7::MemoryManager"* %manager, %"class.xercesc_2_7::MemoryManager"** %manager.addr, align 8
  call void @llvm.dbg.declare(metadata %"class.xercesc_2_7::MemoryManager"** %manager.addr, metadata !2150, metadata !DIExpression()), !dbg !2151
  %this1 = load %"class.xercesc_2_7::RefVectorOf"*, %"class.xercesc_2_7::RefVectorOf"** %this.addr, align 8
  %0 = bitcast %"class.xercesc_2_7::RefVectorOf"* %this1 to %"class.xercesc_2_7::BaseRefVectorOf"*, !dbg !2152
  %1 = load i32, i32* %maxElems.addr, align 4, !dbg !2153
  %2 = load i8, i8* %adoptElems.addr, align 1, !dbg !2154
  %tobool = trunc i8 %2 to i1, !dbg !2154
  %3 = load %"class.xercesc_2_7::MemoryManager"*, %"class.xercesc_2_7::MemoryManager"** %manager.addr, align 8, !dbg !2155
  call void @_ZN11xercesc_2_715BaseRefVectorOfINS_12ValueStackOfIiEEEC2EjbPNS_13MemoryManagerE(%"class.xercesc_2_7::BaseRefVectorOf"* %0, i32 %1, i1 zeroext %tobool, %"class.xercesc_2_7::MemoryManager"* %3), !dbg !2156
  %4 = bitcast %"class.xercesc_2_7::RefVectorOf"* %this1 to i32 (...)***, !dbg !2152
  store i32 (...)** bitcast (i8** getelementptr inbounds ({ [9 x i8*] }, { [9 x i8*] }* @_ZTVN11xercesc_2_711RefVectorOfINS_12ValueStackOfIiEEEE, i32 0, inrange i32 0, i32 2) to i32 (...)**), i32 (...)*** %4, align 8, !dbg !2152
  ret void, !dbg !2157
}

; Function Attrs: nounwind
declare dso_local void @_ZN11xercesc_2_77XMemorydlEPvPNS_13MemoryManagerE(i8*, %"class.xercesc_2_7::MemoryManager"*) #7

; Function Attrs: noinline uwtable
define linkonce_odr dso_local void @_ZN11xercesc_2_715BaseRefVectorOfINS_12ValueStackOfIiEEE10addElementEPS2_(%"class.xercesc_2_7::BaseRefVectorOf"* %this, %"class.xercesc_2_7::ValueStackOf"* %toAdd) #3 comdat align 2 !dbg !2158 {
entry:
  %this.addr = alloca %"class.xercesc_2_7::BaseRefVectorOf"*, align 8
  %toAdd.addr = alloca %"class.xercesc_2_7::ValueStackOf"*, align 8
  store %"class.xercesc_2_7::BaseRefVectorOf"* %this, %"class.xercesc_2_7::BaseRefVectorOf"** %this.addr, align 8
  call void @llvm.dbg.declare(metadata %"class.xercesc_2_7::BaseRefVectorOf"** %this.addr, metadata !2159, metadata !DIExpression()), !dbg !2161
  store %"class.xercesc_2_7::ValueStackOf"* %toAdd, %"class.xercesc_2_7::ValueStackOf"** %toAdd.addr, align 8
  call void @llvm.dbg.declare(metadata %"class.xercesc_2_7::ValueStackOf"** %toAdd.addr, metadata !2162, metadata !DIExpression()), !dbg !2163
  %this1 = load %"class.xercesc_2_7::BaseRefVectorOf"*, %"class.xercesc_2_7::BaseRefVectorOf"** %this.addr, align 8
  call void @_ZN11xercesc_2_715BaseRefVectorOfINS_12ValueStackOfIiEEE19ensureExtraCapacityEj(%"class.xercesc_2_7::BaseRefVectorOf"* %this1, i32 1), !dbg !2164
  %0 = load %"class.xercesc_2_7::ValueStackOf"*, %"class.xercesc_2_7::ValueStackOf"** %toAdd.addr, align 8, !dbg !2165
  %fElemList = getelementptr inbounds %"class.xercesc_2_7::BaseRefVectorOf", %"class.xercesc_2_7::BaseRefVectorOf"* %this1, i32 0, i32 4, !dbg !2166
  %1 = load %"class.xercesc_2_7::ValueStackOf"**, %"class.xercesc_2_7::ValueStackOf"*** %fElemList, align 8, !dbg !2166
  %fCurCount = getelementptr inbounds %"class.xercesc_2_7::BaseRefVectorOf", %"class.xercesc_2_7::BaseRefVectorOf"* %this1, i32 0, i32 2, !dbg !2167
  %2 = load i32, i32* %fCurCount, align 4, !dbg !2167
  %idxprom = zext i32 %2 to i64, !dbg !2166
  %arrayidx = getelementptr inbounds %"class.xercesc_2_7::ValueStackOf"*, %"class.xercesc_2_7::ValueStackOf"** %1, i64 %idxprom, !dbg !2166
  store %"class.xercesc_2_7::ValueStackOf"* %0, %"class.xercesc_2_7::ValueStackOf"** %arrayidx, align 8, !dbg !2168
  %fCurCount2 = getelementptr inbounds %"class.xercesc_2_7::BaseRefVectorOf", %"class.xercesc_2_7::BaseRefVectorOf"* %this1, i32 0, i32 2, !dbg !2169
  %3 = load i32, i32* %fCurCount2, align 4, !dbg !2170
  %inc = add i32 %3, 1, !dbg !2170
  store i32 %inc, i32* %fCurCount2, align 4, !dbg !2170
  ret void, !dbg !2171
}

; Function Attrs: noinline uwtable
define linkonce_odr dso_local void @_ZN11xercesc_2_712ValueStackOfIiEC2EjPNS_13MemoryManagerEb(%"class.xercesc_2_7::ValueStackOf"* %this, i32 %fInitCapacity, %"class.xercesc_2_7::MemoryManager"* %manager, i1 zeroext %toCallDestructor) unnamed_addr #3 comdat align 2 !dbg !2172 {
entry:
  %this.addr = alloca %"class.xercesc_2_7::ValueStackOf"*, align 8
  %fInitCapacity.addr = alloca i32, align 4
  %manager.addr = alloca %"class.xercesc_2_7::MemoryManager"*, align 8
  %toCallDestructor.addr = alloca i8, align 1
  store %"class.xercesc_2_7::ValueStackOf"* %this, %"class.xercesc_2_7::ValueStackOf"** %this.addr, align 8
  call void @llvm.dbg.declare(metadata %"class.xercesc_2_7::ValueStackOf"** %this.addr, metadata !2174, metadata !DIExpression()), !dbg !2175
  store i32 %fInitCapacity, i32* %fInitCapacity.addr, align 4
  call void @llvm.dbg.declare(metadata i32* %fInitCapacity.addr, metadata !2176, metadata !DIExpression()), !dbg !2177
  store %"class.xercesc_2_7::MemoryManager"* %manager, %"class.xercesc_2_7::MemoryManager"** %manager.addr, align 8
  call void @llvm.dbg.declare(metadata %"class.xercesc_2_7::MemoryManager"** %manager.addr, metadata !2178, metadata !DIExpression()), !dbg !2179
  %frombool = zext i1 %toCallDestructor to i8
  store i8 %frombool, i8* %toCallDestructor.addr, align 1
  call void @llvm.dbg.declare(metadata i8* %toCallDestructor.addr, metadata !2180, metadata !DIExpression()), !dbg !2181
  %this1 = load %"class.xercesc_2_7::ValueStackOf"*, %"class.xercesc_2_7::ValueStackOf"** %this.addr, align 8
  %0 = bitcast %"class.xercesc_2_7::ValueStackOf"* %this1 to %"class.xercesc_2_7::XMemory"*, !dbg !2182
  call void @_ZN11xercesc_2_77XMemoryC2Ev(%"class.xercesc_2_7::XMemory"* %0), !dbg !2183
  %fVector = getelementptr inbounds %"class.xercesc_2_7::ValueStackOf", %"class.xercesc_2_7::ValueStackOf"* %this1, i32 0, i32 1, !dbg !2185
  %1 = load i32, i32* %fInitCapacity.addr, align 4, !dbg !2187
  %2 = load %"class.xercesc_2_7::MemoryManager"*, %"class.xercesc_2_7::MemoryManager"** %manager.addr, align 8, !dbg !2188
  %3 = load i8, i8* %toCallDestructor.addr, align 1, !dbg !2189
  %tobool = trunc i8 %3 to i1, !dbg !2189
  call void @_ZN11xercesc_2_713ValueVectorOfIiEC2EjPNS_13MemoryManagerEb(%"class.xercesc_2_7::ValueVectorOf"* %fVector, i32 %1, %"class.xercesc_2_7::MemoryManager"* %2, i1 zeroext %tobool), !dbg !2185
  ret void, !dbg !2190
}

; Function Attrs: noinline uwtable
define dso_local void @_ZN11xercesc_2_712XPathMatcher21startDocumentFragmentEv(%"class.xercesc_2_7::XPathMatcher"* %this) unnamed_addr #3 align 2 !dbg !2191 {
entry:
  %this.addr = alloca %"class.xercesc_2_7::XPathMatcher"*, align 8
  %i = alloca i32, align 4
  store %"class.xercesc_2_7::XPathMatcher"* %this, %"class.xercesc_2_7::XPathMatcher"** %this.addr, align 8
  call void @llvm.dbg.declare(metadata %"class.xercesc_2_7::XPathMatcher"** %this.addr, metadata !2192, metadata !DIExpression()), !dbg !2193
  %this1 = load %"class.xercesc_2_7::XPathMatcher"*, %"class.xercesc_2_7::XPathMatcher"** %this.addr, align 8
  call void @llvm.dbg.declare(metadata i32* %i, metadata !2194, metadata !DIExpression()), !dbg !2196
  store i32 0, i32* %i, align 4, !dbg !2196
  br label %for.cond, !dbg !2197

for.cond:                                         ; preds = %for.inc, %entry
  %0 = load i32, i32* %i, align 4, !dbg !2198
  %fLocationPathSize = getelementptr inbounds %"class.xercesc_2_7::XPathMatcher", %"class.xercesc_2_7::XPathMatcher"* %this1, i32 0, i32 1, !dbg !2200
  %1 = load i32, i32* %fLocationPathSize, align 8, !dbg !2200
  %cmp = icmp ult i32 %0, %1, !dbg !2201
  br i1 %cmp, label %for.body, label %for.end, !dbg !2202

for.body:                                         ; preds = %for.cond
  %fStepIndexes = getelementptr inbounds %"class.xercesc_2_7::XPathMatcher", %"class.xercesc_2_7::XPathMatcher"* %this1, i32 0, i32 5, !dbg !2203
  %2 = load %"class.xercesc_2_7::RefVectorOf"*, %"class.xercesc_2_7::RefVectorOf"** %fStepIndexes, align 8, !dbg !2203
  %3 = bitcast %"class.xercesc_2_7::RefVectorOf"* %2 to %"class.xercesc_2_7::BaseRefVectorOf"*, !dbg !2205
  %4 = load i32, i32* %i, align 4, !dbg !2206
  %call = call %"class.xercesc_2_7::ValueStackOf"* @_ZN11xercesc_2_715BaseRefVectorOfINS_12ValueStackOfIiEEE9elementAtEj(%"class.xercesc_2_7::BaseRefVectorOf"* %3, i32 %4), !dbg !2205
  call void @_ZN11xercesc_2_712ValueStackOfIiE17removeAllElementsEv(%"class.xercesc_2_7::ValueStackOf"* %call), !dbg !2207
  %fCurrentStep = getelementptr inbounds %"class.xercesc_2_7::XPathMatcher", %"class.xercesc_2_7::XPathMatcher"* %this1, i32 0, i32 4, !dbg !2208
  %5 = load i32*, i32** %fCurrentStep, align 8, !dbg !2208
  %6 = load i32, i32* %i, align 4, !dbg !2209
  %idxprom = zext i32 %6 to i64, !dbg !2208
  %arrayidx = getelementptr inbounds i32, i32* %5, i64 %idxprom, !dbg !2208
  store i32 0, i32* %arrayidx, align 4, !dbg !2210
  %fNoMatchDepth = getelementptr inbounds %"class.xercesc_2_7::XPathMatcher", %"class.xercesc_2_7::XPathMatcher"* %this1, i32 0, i32 3, !dbg !2211
  %7 = load i32*, i32** %fNoMatchDepth, align 8, !dbg !2211
  %8 = load i32, i32* %i, align 4, !dbg !2212
  %idxprom2 = zext i32 %8 to i64, !dbg !2211
  %arrayidx3 = getelementptr inbounds i32, i32* %7, i64 %idxprom2, !dbg !2211
  store i32 0, i32* %arrayidx3, align 4, !dbg !2213
  %fMatched = getelementptr inbounds %"class.xercesc_2_7::XPathMatcher", %"class.xercesc_2_7::XPathMatcher"* %this1, i32 0, i32 2, !dbg !2214
  %9 = load i32*, i32** %fMatched, align 8, !dbg !2214
  %10 = load i32, i32* %i, align 4, !dbg !2215
  %idxprom4 = zext i32 %10 to i64, !dbg !2214
  %arrayidx5 = getelementptr inbounds i32, i32* %9, i64 %idxprom4, !dbg !2214
  store i32 0, i32* %arrayidx5, align 4, !dbg !2216
  br label %for.inc, !dbg !2217

for.inc:                                          ; preds = %for.body
  %11 = load i32, i32* %i, align 4, !dbg !2218
  %inc = add i32 %11, 1, !dbg !2218
  store i32 %inc, i32* %i, align 4, !dbg !2218
  br label %for.cond, !dbg !2219, !llvm.loop !2220

for.end:                                          ; preds = %for.cond
  ret void, !dbg !2222
}

; Function Attrs: noinline uwtable
define linkonce_odr dso_local %"class.xercesc_2_7::ValueStackOf"* @_ZN11xercesc_2_715BaseRefVectorOfINS_12ValueStackOfIiEEE9elementAtEj(%"class.xercesc_2_7::BaseRefVectorOf"* %this, i32 %getAt) #3 comdat align 2 personality i8* bitcast (i32 (...)* @__gxx_personality_v0 to i8*) !dbg !2223 {
entry:
  %this.addr = alloca %"class.xercesc_2_7::BaseRefVectorOf"*, align 8
  %getAt.addr = alloca i32, align 4
  %exn.slot = alloca i8*
  %ehselector.slot = alloca i32
  store %"class.xercesc_2_7::BaseRefVectorOf"* %this, %"class.xercesc_2_7::BaseRefVectorOf"** %this.addr, align 8
  call void @llvm.dbg.declare(metadata %"class.xercesc_2_7::BaseRefVectorOf"** %this.addr, metadata !2224, metadata !DIExpression()), !dbg !2225
  store i32 %getAt, i32* %getAt.addr, align 4
  call void @llvm.dbg.declare(metadata i32* %getAt.addr, metadata !2226, metadata !DIExpression()), !dbg !2227
  %this1 = load %"class.xercesc_2_7::BaseRefVectorOf"*, %"class.xercesc_2_7::BaseRefVectorOf"** %this.addr, align 8
  %0 = load i32, i32* %getAt.addr, align 4, !dbg !2228
  %fCurCount = getelementptr inbounds %"class.xercesc_2_7::BaseRefVectorOf", %"class.xercesc_2_7::BaseRefVectorOf"* %this1, i32 0, i32 2, !dbg !2230
  %1 = load i32, i32* %fCurCount, align 4, !dbg !2230
  %cmp = icmp uge i32 %0, %1, !dbg !2231
  br i1 %cmp, label %if.then, label %if.end, !dbg !2232

if.then:                                          ; preds = %entry
  %exception = call i8* @__cxa_allocate_exception(i64 48) #10, !dbg !2233
  %2 = bitcast i8* %exception to %"class.xercesc_2_7::ArrayIndexOutOfBoundsException"*, !dbg !2233
  %fMemoryManager = getelementptr inbounds %"class.xercesc_2_7::BaseRefVectorOf", %"class.xercesc_2_7::BaseRefVectorOf"* %this1, i32 0, i32 5, !dbg !2233
  %3 = load %"class.xercesc_2_7::MemoryManager"*, %"class.xercesc_2_7::MemoryManager"** %fMemoryManager, align 8, !dbg !2233
  invoke void @_ZN11xercesc_2_730ArrayIndexOutOfBoundsExceptionC2EPKcjNS_10XMLExcepts5CodesEPNS_13MemoryManagerE(%"class.xercesc_2_7::ArrayIndexOutOfBoundsException"* %2, i8* getelementptr inbounds ([33 x i8], [33 x i8]* @.str.1, i64 0, i64 0), i32 249, i32 116, %"class.xercesc_2_7::MemoryManager"* %3)
          to label %invoke.cont unwind label %lpad, !dbg !2233

invoke.cont:                                      ; preds = %if.then
  call void @__cxa_throw(i8* %exception, i8* bitcast ({ i8*, i8*, i8* }* @_ZTIN11xercesc_2_730ArrayIndexOutOfBoundsExceptionE to i8*), i8* bitcast (void (%"class.xercesc_2_7::ArrayIndexOutOfBoundsException"*)* @_ZN11xercesc_2_730ArrayIndexOutOfBoundsExceptionD2Ev to i8*)) #13, !dbg !2233
  unreachable, !dbg !2233

lpad:                                             ; preds = %if.then
  %4 = landingpad { i8*, i32 }
          cleanup, !dbg !2234
  %5 = extractvalue { i8*, i32 } %4, 0, !dbg !2234
  store i8* %5, i8** %exn.slot, align 8, !dbg !2234
  %6 = extractvalue { i8*, i32 } %4, 1, !dbg !2234
  store i32 %6, i32* %ehselector.slot, align 4, !dbg !2234
  call void @__cxa_free_exception(i8* %exception) #10, !dbg !2233
  br label %eh.resume, !dbg !2233

if.end:                                           ; preds = %entry
  %fElemList = getelementptr inbounds %"class.xercesc_2_7::BaseRefVectorOf", %"class.xercesc_2_7::BaseRefVectorOf"* %this1, i32 0, i32 4, !dbg !2235
  %7 = load %"class.xercesc_2_7::ValueStackOf"**, %"class.xercesc_2_7::ValueStackOf"*** %fElemList, align 8, !dbg !2235
  %8 = load i32, i32* %getAt.addr, align 4, !dbg !2236
  %idxprom = zext i32 %8 to i64, !dbg !2235
  %arrayidx = getelementptr inbounds %"class.xercesc_2_7::ValueStackOf"*, %"class.xercesc_2_7::ValueStackOf"** %7, i64 %idxprom, !dbg !2235
  %9 = load %"class.xercesc_2_7::ValueStackOf"*, %"class.xercesc_2_7::ValueStackOf"** %arrayidx, align 8, !dbg !2235
  ret %"class.xercesc_2_7::ValueStackOf"* %9, !dbg !2237

eh.resume:                                        ; preds = %lpad
  %exn = load i8*, i8** %exn.slot, align 8, !dbg !2233
  %sel = load i32, i32* %ehselector.slot, align 4, !dbg !2233
  %lpad.val = insertvalue { i8*, i32 } undef, i8* %exn, 0, !dbg !2233
  %lpad.val2 = insertvalue { i8*, i32 } %lpad.val, i32 %sel, 1, !dbg !2233
  resume { i8*, i32 } %lpad.val2, !dbg !2233
}

; Function Attrs: noinline uwtable
define linkonce_odr dso_local void @_ZN11xercesc_2_712ValueStackOfIiE17removeAllElementsEv(%"class.xercesc_2_7::ValueStackOf"* %this) #3 comdat align 2 !dbg !2238 {
entry:
  %this.addr = alloca %"class.xercesc_2_7::ValueStackOf"*, align 8
  store %"class.xercesc_2_7::ValueStackOf"* %this, %"class.xercesc_2_7::ValueStackOf"** %this.addr, align 8
  call void @llvm.dbg.declare(metadata %"class.xercesc_2_7::ValueStackOf"** %this.addr, metadata !2239, metadata !DIExpression()), !dbg !2240
  %this1 = load %"class.xercesc_2_7::ValueStackOf"*, %"class.xercesc_2_7::ValueStackOf"** %this.addr, align 8
  %fVector = getelementptr inbounds %"class.xercesc_2_7::ValueStackOf", %"class.xercesc_2_7::ValueStackOf"* %this1, i32 0, i32 1, !dbg !2241
  call void @_ZN11xercesc_2_713ValueVectorOfIiE17removeAllElementsEv(%"class.xercesc_2_7::ValueVectorOf"* %fVector), !dbg !2242
  ret void, !dbg !2243
}

; Function Attrs: noinline uwtable
define dso_local void @_ZN11xercesc_2_712XPathMatcher12startElementERKNS_14XMLElementDeclEjPKtRKNS_11RefVectorOfINS_7XMLAttrEEEj(%"class.xercesc_2_7::XPathMatcher"* %this, %"class.xercesc_2_7::XMLElementDecl"* dereferenceable(40) %elemDecl, i32 %urlId, i16* %elemPrefix, %"class.xercesc_2_7::RefVectorOf.6"* dereferenceable(40) %attrList, i32 %attrCount) unnamed_addr #3 align 2 personality i8* bitcast (i32 (...)* @__gxx_personality_v0 to i8*) !dbg !2244 {
entry:
  %this.addr = alloca %"class.xercesc_2_7::XPathMatcher"*, align 8
  %elemDecl.addr = alloca %"class.xercesc_2_7::XMLElementDecl"*, align 8
  %urlId.addr = alloca i32, align 4
  %elemPrefix.addr = alloca i16*, align 8
  %attrList.addr = alloca %"class.xercesc_2_7::RefVectorOf.6"*, align 8
  %attrCount.addr = alloca i32, align 4
  %i = alloca i32, align 4
  %startStep = alloca i32, align 4
  %locPath = alloca %"class.xercesc_2_7::XercesLocationPath"*, align 8
  %stepSize = alloca i32, align 4
  %descendantStep = alloca i32, align 4
  %sawDescendant = alloca i8, align 1
  %step = alloca %"class.xercesc_2_7::XercesStep"*, align 8
  %nodeTest = alloca %"class.xercesc_2_7::XercesNodeTest"*, align 8
  %elemQName = alloca %"class.xercesc_2_7::QName", align 8
  %exn.slot = alloca i8*
  %ehselector.slot = alloca i32
  %cleanup.dest.slot = alloca i32, align 4
  %nodeTest167 = alloca %"class.xercesc_2_7::XercesNodeTest"*, align 8
  %attrIndex = alloca i32, align 4
  %curDef = alloca %"class.xercesc_2_7::XMLAttr"*, align 8
  %j = alloca i32, align 4
  %attDef = alloca %"class.xercesc_2_7::SchemaAttDef"*, align 8
  %dv = alloca %"class.xercesc_2_7::DatatypeValidator"*, align 8
  store %"class.xercesc_2_7::XPathMatcher"* %this, %"class.xercesc_2_7::XPathMatcher"** %this.addr, align 8
  call void @llvm.dbg.declare(metadata %"class.xercesc_2_7::XPathMatcher"** %this.addr, metadata !2245, metadata !DIExpression()), !dbg !2246
  store %"class.xercesc_2_7::XMLElementDecl"* %elemDecl, %"class.xercesc_2_7::XMLElementDecl"** %elemDecl.addr, align 8
  call void @llvm.dbg.declare(metadata %"class.xercesc_2_7::XMLElementDecl"** %elemDecl.addr, metadata !2247, metadata !DIExpression()), !dbg !2248
  store i32 %urlId, i32* %urlId.addr, align 4
  call void @llvm.dbg.declare(metadata i32* %urlId.addr, metadata !2249, metadata !DIExpression()), !dbg !2250
  store i16* %elemPrefix, i16** %elemPrefix.addr, align 8
  call void @llvm.dbg.declare(metadata i16** %elemPrefix.addr, metadata !2251, metadata !DIExpression()), !dbg !2252
  store %"class.xercesc_2_7::RefVectorOf.6"* %attrList, %"class.xercesc_2_7::RefVectorOf.6"** %attrList.addr, align 8
  call void @llvm.dbg.declare(metadata %"class.xercesc_2_7::RefVectorOf.6"** %attrList.addr, metadata !2253, metadata !DIExpression()), !dbg !2254
  store i32 %attrCount, i32* %attrCount.addr, align 4
  call void @llvm.dbg.declare(metadata i32* %attrCount.addr, metadata !2255, metadata !DIExpression()), !dbg !2256
  %this1 = load %"class.xercesc_2_7::XPathMatcher"*, %"class.xercesc_2_7::XPathMatcher"** %this.addr, align 8
  call void @llvm.dbg.declare(metadata i32* %i, metadata !2257, metadata !DIExpression()), !dbg !2259
  store i32 0, i32* %i, align 4, !dbg !2259
  br label %for.cond, !dbg !2260

for.cond:                                         ; preds = %for.inc244, %entry
  %0 = load i32, i32* %i, align 4, !dbg !2261
  %fLocationPathSize = getelementptr inbounds %"class.xercesc_2_7::XPathMatcher", %"class.xercesc_2_7::XPathMatcher"* %this1, i32 0, i32 1, !dbg !2263
  %1 = load i32, i32* %fLocationPathSize, align 8, !dbg !2263
  %cmp = icmp slt i32 %0, %1, !dbg !2264
  br i1 %cmp, label %for.body, label %for.end246, !dbg !2265

for.body:                                         ; preds = %for.cond
  call void @llvm.dbg.declare(metadata i32* %startStep, metadata !2266, metadata !DIExpression()), !dbg !2268
  %fCurrentStep = getelementptr inbounds %"class.xercesc_2_7::XPathMatcher", %"class.xercesc_2_7::XPathMatcher"* %this1, i32 0, i32 4, !dbg !2269
  %2 = load i32*, i32** %fCurrentStep, align 8, !dbg !2269
  %3 = load i32, i32* %i, align 4, !dbg !2270
  %idxprom = sext i32 %3 to i64, !dbg !2269
  %arrayidx = getelementptr inbounds i32, i32* %2, i64 %idxprom, !dbg !2269
  %4 = load i32, i32* %arrayidx, align 4, !dbg !2269
  store i32 %4, i32* %startStep, align 4, !dbg !2268
  %fStepIndexes = getelementptr inbounds %"class.xercesc_2_7::XPathMatcher", %"class.xercesc_2_7::XPathMatcher"* %this1, i32 0, i32 5, !dbg !2271
  %5 = load %"class.xercesc_2_7::RefVectorOf"*, %"class.xercesc_2_7::RefVectorOf"** %fStepIndexes, align 8, !dbg !2271
  %6 = bitcast %"class.xercesc_2_7::RefVectorOf"* %5 to %"class.xercesc_2_7::BaseRefVectorOf"*, !dbg !2272
  %7 = load i32, i32* %i, align 4, !dbg !2273
  %call = call %"class.xercesc_2_7::ValueStackOf"* @_ZN11xercesc_2_715BaseRefVectorOfINS_12ValueStackOfIiEEE9elementAtEj(%"class.xercesc_2_7::BaseRefVectorOf"* %6, i32 %7), !dbg !2272
  call void @_ZN11xercesc_2_712ValueStackOfIiE4pushERKi(%"class.xercesc_2_7::ValueStackOf"* %call, i32* dereferenceable(4) %startStep), !dbg !2274
  %fMatched = getelementptr inbounds %"class.xercesc_2_7::XPathMatcher", %"class.xercesc_2_7::XPathMatcher"* %this1, i32 0, i32 2, !dbg !2275
  %8 = load i32*, i32** %fMatched, align 8, !dbg !2275
  %9 = load i32, i32* %i, align 4, !dbg !2277
  %idxprom2 = sext i32 %9 to i64, !dbg !2275
  %arrayidx3 = getelementptr inbounds i32, i32* %8, i64 %idxprom2, !dbg !2275
  %10 = load i32, i32* %arrayidx3, align 4, !dbg !2275
  %and = and i32 %10, 5, !dbg !2278
  %cmp4 = icmp eq i32 %and, 1, !dbg !2279
  br i1 %cmp4, label %if.then, label %lor.lhs.false, !dbg !2280

lor.lhs.false:                                    ; preds = %for.body
  %fNoMatchDepth = getelementptr inbounds %"class.xercesc_2_7::XPathMatcher", %"class.xercesc_2_7::XPathMatcher"* %this1, i32 0, i32 3, !dbg !2281
  %11 = load i32*, i32** %fNoMatchDepth, align 8, !dbg !2281
  %12 = load i32, i32* %i, align 4, !dbg !2282
  %idxprom5 = sext i32 %12 to i64, !dbg !2281
  %arrayidx6 = getelementptr inbounds i32, i32* %11, i64 %idxprom5, !dbg !2281
  %13 = load i32, i32* %arrayidx6, align 4, !dbg !2281
  %cmp7 = icmp sgt i32 %13, 0, !dbg !2283
  br i1 %cmp7, label %if.then, label %if.end, !dbg !2284

if.then:                                          ; preds = %lor.lhs.false, %for.body
  %fNoMatchDepth8 = getelementptr inbounds %"class.xercesc_2_7::XPathMatcher", %"class.xercesc_2_7::XPathMatcher"* %this1, i32 0, i32 3, !dbg !2285
  %14 = load i32*, i32** %fNoMatchDepth8, align 8, !dbg !2285
  %15 = load i32, i32* %i, align 4, !dbg !2287
  %idxprom9 = sext i32 %15 to i64, !dbg !2285
  %arrayidx10 = getelementptr inbounds i32, i32* %14, i64 %idxprom9, !dbg !2285
  %16 = load i32, i32* %arrayidx10, align 4, !dbg !2288
  %inc = add nsw i32 %16, 1, !dbg !2288
  store i32 %inc, i32* %arrayidx10, align 4, !dbg !2288
  br label %for.inc244, !dbg !2289

if.end:                                           ; preds = %lor.lhs.false
  %fMatched11 = getelementptr inbounds %"class.xercesc_2_7::XPathMatcher", %"class.xercesc_2_7::XPathMatcher"* %this1, i32 0, i32 2, !dbg !2290
  %17 = load i32*, i32** %fMatched11, align 8, !dbg !2290
  %18 = load i32, i32* %i, align 4, !dbg !2292
  %idxprom12 = sext i32 %18 to i64, !dbg !2290
  %arrayidx13 = getelementptr inbounds i32, i32* %17, i64 %idxprom12, !dbg !2290
  %19 = load i32, i32* %arrayidx13, align 4, !dbg !2290
  %and14 = and i32 %19, 5, !dbg !2293
  %cmp15 = icmp eq i32 %and14, 5, !dbg !2294
  br i1 %cmp15, label %if.then16, label %if.end20, !dbg !2295

if.then16:                                        ; preds = %if.end
  %fMatched17 = getelementptr inbounds %"class.xercesc_2_7::XPathMatcher", %"class.xercesc_2_7::XPathMatcher"* %this1, i32 0, i32 2, !dbg !2296
  %20 = load i32*, i32** %fMatched17, align 8, !dbg !2296
  %21 = load i32, i32* %i, align 4, !dbg !2298
  %idxprom18 = sext i32 %21 to i64, !dbg !2296
  %arrayidx19 = getelementptr inbounds i32, i32* %20, i64 %idxprom18, !dbg !2296
  store i32 13, i32* %arrayidx19, align 4, !dbg !2299
  br label %if.end20, !dbg !2300

if.end20:                                         ; preds = %if.then16, %if.end
  call void @llvm.dbg.declare(metadata %"class.xercesc_2_7::XercesLocationPath"** %locPath, metadata !2301, metadata !DIExpression()), !dbg !2304
  %fLocationPaths = getelementptr inbounds %"class.xercesc_2_7::XPathMatcher", %"class.xercesc_2_7::XPathMatcher"* %this1, i32 0, i32 6, !dbg !2305
  %22 = load %"class.xercesc_2_7::RefVectorOf.0"*, %"class.xercesc_2_7::RefVectorOf.0"** %fLocationPaths, align 8, !dbg !2305
  %23 = bitcast %"class.xercesc_2_7::RefVectorOf.0"* %22 to %"class.xercesc_2_7::BaseRefVectorOf.1"*, !dbg !2306
  %24 = load i32, i32* %i, align 4, !dbg !2307
  %call21 = call %"class.xercesc_2_7::XercesLocationPath"* @_ZN11xercesc_2_715BaseRefVectorOfINS_18XercesLocationPathEE9elementAtEj(%"class.xercesc_2_7::BaseRefVectorOf.1"* %23, i32 %24), !dbg !2306
  store %"class.xercesc_2_7::XercesLocationPath"* %call21, %"class.xercesc_2_7::XercesLocationPath"** %locPath, align 8, !dbg !2304
  call void @llvm.dbg.declare(metadata i32* %stepSize, metadata !2308, metadata !DIExpression()), !dbg !2309
  %25 = load %"class.xercesc_2_7::XercesLocationPath"*, %"class.xercesc_2_7::XercesLocationPath"** %locPath, align 8, !dbg !2310
  %call22 = call i32 @_ZNK11xercesc_2_718XercesLocationPath11getStepSizeEv(%"class.xercesc_2_7::XercesLocationPath"* %25), !dbg !2311
  store i32 %call22, i32* %stepSize, align 4, !dbg !2309
  br label %while.cond, !dbg !2312

while.cond:                                       ; preds = %while.body, %if.end20
  %fCurrentStep23 = getelementptr inbounds %"class.xercesc_2_7::XPathMatcher", %"class.xercesc_2_7::XPathMatcher"* %this1, i32 0, i32 4, !dbg !2313
  %26 = load i32*, i32** %fCurrentStep23, align 8, !dbg !2313
  %27 = load i32, i32* %i, align 4, !dbg !2314
  %idxprom24 = sext i32 %27 to i64, !dbg !2313
  %arrayidx25 = getelementptr inbounds i32, i32* %26, i64 %idxprom24, !dbg !2313
  %28 = load i32, i32* %arrayidx25, align 4, !dbg !2313
  %29 = load i32, i32* %stepSize, align 4, !dbg !2315
  %cmp26 = icmp slt i32 %28, %29, !dbg !2316
  br i1 %cmp26, label %land.rhs, label %land.end, !dbg !2317

land.rhs:                                         ; preds = %while.cond
  %30 = load %"class.xercesc_2_7::XercesLocationPath"*, %"class.xercesc_2_7::XercesLocationPath"** %locPath, align 8, !dbg !2318
  %fCurrentStep27 = getelementptr inbounds %"class.xercesc_2_7::XPathMatcher", %"class.xercesc_2_7::XPathMatcher"* %this1, i32 0, i32 4, !dbg !2319
  %31 = load i32*, i32** %fCurrentStep27, align 8, !dbg !2319
  %32 = load i32, i32* %i, align 4, !dbg !2320
  %idxprom28 = sext i32 %32 to i64, !dbg !2319
  %arrayidx29 = getelementptr inbounds i32, i32* %31, i64 %idxprom28, !dbg !2319
  %33 = load i32, i32* %arrayidx29, align 4, !dbg !2319
  %call30 = call %"class.xercesc_2_7::XercesStep"* @_ZNK11xercesc_2_718XercesLocationPath7getStepEj(%"class.xercesc_2_7::XercesLocationPath"* %30, i32 %33), !dbg !2321
  %call31 = call zeroext i16 @_ZNK11xercesc_2_710XercesStep11getAxisTypeEv(%"class.xercesc_2_7::XercesStep"* %call30), !dbg !2322
  %conv = zext i16 %call31 to i32, !dbg !2318
  %cmp32 = icmp eq i32 %conv, 3, !dbg !2323
  br label %land.end

land.end:                                         ; preds = %land.rhs, %while.cond
  %34 = phi i1 [ false, %while.cond ], [ %cmp32, %land.rhs ], !dbg !2324
  br i1 %34, label %while.body, label %while.end, !dbg !2312

while.body:                                       ; preds = %land.end
  %fCurrentStep33 = getelementptr inbounds %"class.xercesc_2_7::XPathMatcher", %"class.xercesc_2_7::XPathMatcher"* %this1, i32 0, i32 4, !dbg !2325
  %35 = load i32*, i32** %fCurrentStep33, align 8, !dbg !2325
  %36 = load i32, i32* %i, align 4, !dbg !2327
  %idxprom34 = sext i32 %36 to i64, !dbg !2325
  %arrayidx35 = getelementptr inbounds i32, i32* %35, i64 %idxprom34, !dbg !2325
  %37 = load i32, i32* %arrayidx35, align 4, !dbg !2328
  %inc36 = add nsw i32 %37, 1, !dbg !2328
  store i32 %inc36, i32* %arrayidx35, align 4, !dbg !2328
  br label %while.cond, !dbg !2312, !llvm.loop !2329

while.end:                                        ; preds = %land.end
  %fCurrentStep37 = getelementptr inbounds %"class.xercesc_2_7::XPathMatcher", %"class.xercesc_2_7::XPathMatcher"* %this1, i32 0, i32 4, !dbg !2331
  %38 = load i32*, i32** %fCurrentStep37, align 8, !dbg !2331
  %39 = load i32, i32* %i, align 4, !dbg !2333
  %idxprom38 = sext i32 %39 to i64, !dbg !2331
  %arrayidx39 = getelementptr inbounds i32, i32* %38, i64 %idxprom38, !dbg !2331
  %40 = load i32, i32* %arrayidx39, align 4, !dbg !2331
  %41 = load i32, i32* %stepSize, align 4, !dbg !2334
  %cmp40 = icmp eq i32 %40, %41, !dbg !2335
  br i1 %cmp40, label %if.then41, label %if.end45, !dbg !2336

if.then41:                                        ; preds = %while.end
  %fMatched42 = getelementptr inbounds %"class.xercesc_2_7::XPathMatcher", %"class.xercesc_2_7::XPathMatcher"* %this1, i32 0, i32 2, !dbg !2337
  %42 = load i32*, i32** %fMatched42, align 8, !dbg !2337
  %43 = load i32, i32* %i, align 4, !dbg !2339
  %idxprom43 = sext i32 %43 to i64, !dbg !2337
  %arrayidx44 = getelementptr inbounds i32, i32* %42, i64 %idxprom43, !dbg !2337
  store i32 1, i32* %arrayidx44, align 4, !dbg !2340
  br label %for.inc244, !dbg !2341

if.end45:                                         ; preds = %while.end
  call void @llvm.dbg.declare(metadata i32* %descendantStep, metadata !2342, metadata !DIExpression()), !dbg !2343
  %fCurrentStep46 = getelementptr inbounds %"class.xercesc_2_7::XPathMatcher", %"class.xercesc_2_7::XPathMatcher"* %this1, i32 0, i32 4, !dbg !2344
  %44 = load i32*, i32** %fCurrentStep46, align 8, !dbg !2344
  %45 = load i32, i32* %i, align 4, !dbg !2345
  %idxprom47 = sext i32 %45 to i64, !dbg !2344
  %arrayidx48 = getelementptr inbounds i32, i32* %44, i64 %idxprom47, !dbg !2344
  %46 = load i32, i32* %arrayidx48, align 4, !dbg !2344
  store i32 %46, i32* %descendantStep, align 4, !dbg !2343
  br label %while.cond49, !dbg !2346

while.cond49:                                     ; preds = %while.body63, %if.end45
  %fCurrentStep50 = getelementptr inbounds %"class.xercesc_2_7::XPathMatcher", %"class.xercesc_2_7::XPathMatcher"* %this1, i32 0, i32 4, !dbg !2347
  %47 = load i32*, i32** %fCurrentStep50, align 8, !dbg !2347
  %48 = load i32, i32* %i, align 4, !dbg !2348
  %idxprom51 = sext i32 %48 to i64, !dbg !2347
  %arrayidx52 = getelementptr inbounds i32, i32* %47, i64 %idxprom51, !dbg !2347
  %49 = load i32, i32* %arrayidx52, align 4, !dbg !2347
  %50 = load i32, i32* %stepSize, align 4, !dbg !2349
  %cmp53 = icmp slt i32 %49, %50, !dbg !2350
  br i1 %cmp53, label %land.rhs54, label %land.end62, !dbg !2351

land.rhs54:                                       ; preds = %while.cond49
  %51 = load %"class.xercesc_2_7::XercesLocationPath"*, %"class.xercesc_2_7::XercesLocationPath"** %locPath, align 8, !dbg !2352
  %fCurrentStep55 = getelementptr inbounds %"class.xercesc_2_7::XPathMatcher", %"class.xercesc_2_7::XPathMatcher"* %this1, i32 0, i32 4, !dbg !2353
  %52 = load i32*, i32** %fCurrentStep55, align 8, !dbg !2353
  %53 = load i32, i32* %i, align 4, !dbg !2354
  %idxprom56 = sext i32 %53 to i64, !dbg !2353
  %arrayidx57 = getelementptr inbounds i32, i32* %52, i64 %idxprom56, !dbg !2353
  %54 = load i32, i32* %arrayidx57, align 4, !dbg !2353
  %call58 = call %"class.xercesc_2_7::XercesStep"* @_ZNK11xercesc_2_718XercesLocationPath7getStepEj(%"class.xercesc_2_7::XercesLocationPath"* %51, i32 %54), !dbg !2355
  %call59 = call zeroext i16 @_ZNK11xercesc_2_710XercesStep11getAxisTypeEv(%"class.xercesc_2_7::XercesStep"* %call58), !dbg !2356
  %conv60 = zext i16 %call59 to i32, !dbg !2352
  %cmp61 = icmp eq i32 %conv60, 4, !dbg !2357
  br label %land.end62

land.end62:                                       ; preds = %land.rhs54, %while.cond49
  %55 = phi i1 [ false, %while.cond49 ], [ %cmp61, %land.rhs54 ], !dbg !2324
  br i1 %55, label %while.body63, label %while.end68, !dbg !2346

while.body63:                                     ; preds = %land.end62
  %fCurrentStep64 = getelementptr inbounds %"class.xercesc_2_7::XPathMatcher", %"class.xercesc_2_7::XPathMatcher"* %this1, i32 0, i32 4, !dbg !2358
  %56 = load i32*, i32** %fCurrentStep64, align 8, !dbg !2358
  %57 = load i32, i32* %i, align 4, !dbg !2360
  %idxprom65 = sext i32 %57 to i64, !dbg !2358
  %arrayidx66 = getelementptr inbounds i32, i32* %56, i64 %idxprom65, !dbg !2358
  %58 = load i32, i32* %arrayidx66, align 4, !dbg !2361
  %inc67 = add nsw i32 %58, 1, !dbg !2361
  store i32 %inc67, i32* %arrayidx66, align 4, !dbg !2361
  br label %while.cond49, !dbg !2346, !llvm.loop !2362

while.end68:                                      ; preds = %land.end62
  call void @llvm.dbg.declare(metadata i8* %sawDescendant, metadata !2364, metadata !DIExpression()), !dbg !2365
  %fCurrentStep69 = getelementptr inbounds %"class.xercesc_2_7::XPathMatcher", %"class.xercesc_2_7::XPathMatcher"* %this1, i32 0, i32 4, !dbg !2366
  %59 = load i32*, i32** %fCurrentStep69, align 8, !dbg !2366
  %60 = load i32, i32* %i, align 4, !dbg !2367
  %idxprom70 = sext i32 %60 to i64, !dbg !2366
  %arrayidx71 = getelementptr inbounds i32, i32* %59, i64 %idxprom70, !dbg !2366
  %61 = load i32, i32* %arrayidx71, align 4, !dbg !2366
  %62 = load i32, i32* %descendantStep, align 4, !dbg !2368
  %cmp72 = icmp sgt i32 %61, %62, !dbg !2369
  %frombool = zext i1 %cmp72 to i8, !dbg !2365
  store i8 %frombool, i8* %sawDescendant, align 1, !dbg !2365
  %fCurrentStep73 = getelementptr inbounds %"class.xercesc_2_7::XPathMatcher", %"class.xercesc_2_7::XPathMatcher"* %this1, i32 0, i32 4, !dbg !2370
  %63 = load i32*, i32** %fCurrentStep73, align 8, !dbg !2370
  %64 = load i32, i32* %i, align 4, !dbg !2372
  %idxprom74 = sext i32 %64 to i64, !dbg !2370
  %arrayidx75 = getelementptr inbounds i32, i32* %63, i64 %idxprom74, !dbg !2370
  %65 = load i32, i32* %arrayidx75, align 4, !dbg !2370
  %66 = load i32, i32* %stepSize, align 4, !dbg !2373
  %cmp76 = icmp eq i32 %65, %66, !dbg !2374
  br i1 %cmp76, label %if.then77, label %if.end82, !dbg !2375

if.then77:                                        ; preds = %while.end68
  %fNoMatchDepth78 = getelementptr inbounds %"class.xercesc_2_7::XPathMatcher", %"class.xercesc_2_7::XPathMatcher"* %this1, i32 0, i32 3, !dbg !2376
  %67 = load i32*, i32** %fNoMatchDepth78, align 8, !dbg !2376
  %68 = load i32, i32* %i, align 4, !dbg !2378
  %idxprom79 = sext i32 %68 to i64, !dbg !2376
  %arrayidx80 = getelementptr inbounds i32, i32* %67, i64 %idxprom79, !dbg !2376
  %69 = load i32, i32* %arrayidx80, align 4, !dbg !2379
  %inc81 = add nsw i32 %69, 1, !dbg !2379
  store i32 %inc81, i32* %arrayidx80, align 4, !dbg !2379
  br label %for.inc244, !dbg !2380

if.end82:                                         ; preds = %while.end68
  %fCurrentStep83 = getelementptr inbounds %"class.xercesc_2_7::XPathMatcher", %"class.xercesc_2_7::XPathMatcher"* %this1, i32 0, i32 4, !dbg !2381
  %70 = load i32*, i32** %fCurrentStep83, align 8, !dbg !2381
  %71 = load i32, i32* %i, align 4, !dbg !2383
  %idxprom84 = sext i32 %71 to i64, !dbg !2381
  %arrayidx85 = getelementptr inbounds i32, i32* %70, i64 %idxprom84, !dbg !2381
  %72 = load i32, i32* %arrayidx85, align 4, !dbg !2381
  %73 = load i32, i32* %startStep, align 4, !dbg !2384
  %cmp86 = icmp eq i32 %72, %73, !dbg !2385
  br i1 %cmp86, label %land.lhs.true, label %lor.lhs.false87, !dbg !2386

lor.lhs.false87:                                  ; preds = %if.end82
  %fCurrentStep88 = getelementptr inbounds %"class.xercesc_2_7::XPathMatcher", %"class.xercesc_2_7::XPathMatcher"* %this1, i32 0, i32 4, !dbg !2387
  %74 = load i32*, i32** %fCurrentStep88, align 8, !dbg !2387
  %75 = load i32, i32* %i, align 4, !dbg !2388
  %idxprom89 = sext i32 %75 to i64, !dbg !2387
  %arrayidx90 = getelementptr inbounds i32, i32* %74, i64 %idxprom89, !dbg !2387
  %76 = load i32, i32* %arrayidx90, align 4, !dbg !2387
  %77 = load i32, i32* %descendantStep, align 4, !dbg !2389
  %cmp91 = icmp sgt i32 %76, %77, !dbg !2390
  br i1 %cmp91, label %land.lhs.true, label %if.end134, !dbg !2391

land.lhs.true:                                    ; preds = %lor.lhs.false87, %if.end82
  %78 = load %"class.xercesc_2_7::XercesLocationPath"*, %"class.xercesc_2_7::XercesLocationPath"** %locPath, align 8, !dbg !2392
  %fCurrentStep92 = getelementptr inbounds %"class.xercesc_2_7::XPathMatcher", %"class.xercesc_2_7::XPathMatcher"* %this1, i32 0, i32 4, !dbg !2393
  %79 = load i32*, i32** %fCurrentStep92, align 8, !dbg !2393
  %80 = load i32, i32* %i, align 4, !dbg !2394
  %idxprom93 = sext i32 %80 to i64, !dbg !2393
  %arrayidx94 = getelementptr inbounds i32, i32* %79, i64 %idxprom93, !dbg !2393
  %81 = load i32, i32* %arrayidx94, align 4, !dbg !2393
  %call95 = call %"class.xercesc_2_7::XercesStep"* @_ZNK11xercesc_2_718XercesLocationPath7getStepEj(%"class.xercesc_2_7::XercesLocationPath"* %78, i32 %81), !dbg !2395
  %call96 = call zeroext i16 @_ZNK11xercesc_2_710XercesStep11getAxisTypeEv(%"class.xercesc_2_7::XercesStep"* %call95), !dbg !2396
  %conv97 = zext i16 %call96 to i32, !dbg !2392
  %cmp98 = icmp eq i32 %conv97, 1, !dbg !2397
  br i1 %cmp98, label %if.then99, label %if.end134, !dbg !2398

if.then99:                                        ; preds = %land.lhs.true
  call void @llvm.dbg.declare(metadata %"class.xercesc_2_7::XercesStep"** %step, metadata !2399, metadata !DIExpression()), !dbg !2402
  %82 = load %"class.xercesc_2_7::XercesLocationPath"*, %"class.xercesc_2_7::XercesLocationPath"** %locPath, align 8, !dbg !2403
  %fCurrentStep100 = getelementptr inbounds %"class.xercesc_2_7::XPathMatcher", %"class.xercesc_2_7::XPathMatcher"* %this1, i32 0, i32 4, !dbg !2404
  %83 = load i32*, i32** %fCurrentStep100, align 8, !dbg !2404
  %84 = load i32, i32* %i, align 4, !dbg !2405
  %idxprom101 = sext i32 %84 to i64, !dbg !2404
  %arrayidx102 = getelementptr inbounds i32, i32* %83, i64 %idxprom101, !dbg !2404
  %85 = load i32, i32* %arrayidx102, align 4, !dbg !2404
  %call103 = call %"class.xercesc_2_7::XercesStep"* @_ZNK11xercesc_2_718XercesLocationPath7getStepEj(%"class.xercesc_2_7::XercesLocationPath"* %82, i32 %85), !dbg !2406
  store %"class.xercesc_2_7::XercesStep"* %call103, %"class.xercesc_2_7::XercesStep"** %step, align 8, !dbg !2402
  call void @llvm.dbg.declare(metadata %"class.xercesc_2_7::XercesNodeTest"** %nodeTest, metadata !2407, metadata !DIExpression()), !dbg !2409
  %86 = load %"class.xercesc_2_7::XercesStep"*, %"class.xercesc_2_7::XercesStep"** %step, align 8, !dbg !2410
  %call104 = call %"class.xercesc_2_7::XercesNodeTest"* @_ZNK11xercesc_2_710XercesStep11getNodeTestEv(%"class.xercesc_2_7::XercesStep"* %86), !dbg !2411
  store %"class.xercesc_2_7::XercesNodeTest"* %call104, %"class.xercesc_2_7::XercesNodeTest"** %nodeTest, align 8, !dbg !2409
  %87 = load %"class.xercesc_2_7::XercesNodeTest"*, %"class.xercesc_2_7::XercesNodeTest"** %nodeTest, align 8, !dbg !2412
  %call105 = call signext i16 @_ZNK11xercesc_2_714XercesNodeTest7getTypeEv(%"class.xercesc_2_7::XercesNodeTest"* %87), !dbg !2414
  %conv106 = sext i16 %call105 to i32, !dbg !2412
  %cmp107 = icmp eq i32 %conv106, 1, !dbg !2415
  br i1 %cmp107, label %if.then108, label %if.end129, !dbg !2416

if.then108:                                       ; preds = %if.then99
  call void @llvm.dbg.declare(metadata %"class.xercesc_2_7::QName"* %elemQName, metadata !2417, metadata !DIExpression()), !dbg !2421
  %88 = load i16*, i16** %elemPrefix.addr, align 8, !dbg !2422
  %89 = load %"class.xercesc_2_7::XMLElementDecl"*, %"class.xercesc_2_7::XMLElementDecl"** %elemDecl.addr, align 8, !dbg !2423
  %call109 = call %"class.xercesc_2_7::QName"* @_ZNK11xercesc_2_714XMLElementDecl14getElementNameEv(%"class.xercesc_2_7::XMLElementDecl"* %89), !dbg !2424
  %call110 = call i16* @_ZNK11xercesc_2_75QName12getLocalPartEv(%"class.xercesc_2_7::QName"* %call109), !dbg !2425
  %90 = load i32, i32* %urlId.addr, align 4, !dbg !2426
  %fMemoryManager = getelementptr inbounds %"class.xercesc_2_7::XPathMatcher", %"class.xercesc_2_7::XPathMatcher"* %this1, i32 0, i32 8, !dbg !2427
  %91 = load %"class.xercesc_2_7::MemoryManager"*, %"class.xercesc_2_7::MemoryManager"** %fMemoryManager, align 8, !dbg !2427
  call void @_ZN11xercesc_2_75QNameC1EPKtS2_jPNS_13MemoryManagerE(%"class.xercesc_2_7::QName"* %elemQName, i16* %88, i16* %call110, i32 %90, %"class.xercesc_2_7::MemoryManager"* %91), !dbg !2421
  %92 = load %"class.xercesc_2_7::XercesNodeTest"*, %"class.xercesc_2_7::XercesNodeTest"** %nodeTest, align 8, !dbg !2428
  %call111 = invoke %"class.xercesc_2_7::QName"* @_ZNK11xercesc_2_714XercesNodeTest7getNameEv(%"class.xercesc_2_7::XercesNodeTest"* %92)
          to label %invoke.cont unwind label %lpad, !dbg !2430

invoke.cont:                                      ; preds = %if.then108
  %call113 = invoke zeroext i1 @_ZNK11xercesc_2_75QNameeqERKS0_(%"class.xercesc_2_7::QName"* %call111, %"class.xercesc_2_7::QName"* dereferenceable(56) %elemQName)
          to label %invoke.cont112 unwind label %lpad, !dbg !2431

invoke.cont112:                                   ; preds = %invoke.cont
  br i1 %call113, label %if.end128, label %if.then114, !dbg !2432

if.then114:                                       ; preds = %invoke.cont112
  %fCurrentStep115 = getelementptr inbounds %"class.xercesc_2_7::XPathMatcher", %"class.xercesc_2_7::XPathMatcher"* %this1, i32 0, i32 4, !dbg !2433
  %93 = load i32*, i32** %fCurrentStep115, align 8, !dbg !2433
  %94 = load i32, i32* %i, align 4, !dbg !2436
  %idxprom116 = sext i32 %94 to i64, !dbg !2433
  %arrayidx117 = getelementptr inbounds i32, i32* %93, i64 %idxprom116, !dbg !2433
  %95 = load i32, i32* %arrayidx117, align 4, !dbg !2433
  %96 = load i32, i32* %descendantStep, align 4, !dbg !2437
  %cmp118 = icmp sgt i32 %95, %96, !dbg !2438
  br i1 %cmp118, label %if.then119, label %if.end123, !dbg !2439

if.then119:                                       ; preds = %if.then114
  %97 = load i32, i32* %descendantStep, align 4, !dbg !2440
  %fCurrentStep120 = getelementptr inbounds %"class.xercesc_2_7::XPathMatcher", %"class.xercesc_2_7::XPathMatcher"* %this1, i32 0, i32 4, !dbg !2442
  %98 = load i32*, i32** %fCurrentStep120, align 8, !dbg !2442
  %99 = load i32, i32* %i, align 4, !dbg !2443
  %idxprom121 = sext i32 %99 to i64, !dbg !2442
  %arrayidx122 = getelementptr inbounds i32, i32* %98, i64 %idxprom121, !dbg !2442
  store i32 %97, i32* %arrayidx122, align 4, !dbg !2444
  store i32 4, i32* %cleanup.dest.slot, align 4
  br label %cleanup, !dbg !2445

lpad:                                             ; preds = %invoke.cont, %if.then108
  %100 = landingpad { i8*, i32 }
          cleanup, !dbg !2446
  %101 = extractvalue { i8*, i32 } %100, 0, !dbg !2446
  store i8* %101, i8** %exn.slot, align 8, !dbg !2446
  %102 = extractvalue { i8*, i32 } %100, 1, !dbg !2446
  store i32 %102, i32* %ehselector.slot, align 4, !dbg !2446
  call void @_ZN11xercesc_2_75QNameD1Ev(%"class.xercesc_2_7::QName"* %elemQName) #10, !dbg !2447
  br label %eh.resume, !dbg !2447

if.end123:                                        ; preds = %if.then114
  %fNoMatchDepth124 = getelementptr inbounds %"class.xercesc_2_7::XPathMatcher", %"class.xercesc_2_7::XPathMatcher"* %this1, i32 0, i32 3, !dbg !2448
  %103 = load i32*, i32** %fNoMatchDepth124, align 8, !dbg !2448
  %104 = load i32, i32* %i, align 4, !dbg !2449
  %idxprom125 = sext i32 %104 to i64, !dbg !2448
  %arrayidx126 = getelementptr inbounds i32, i32* %103, i64 %idxprom125, !dbg !2448
  %105 = load i32, i32* %arrayidx126, align 4, !dbg !2450
  %inc127 = add nsw i32 %105, 1, !dbg !2450
  store i32 %inc127, i32* %arrayidx126, align 4, !dbg !2450
  store i32 4, i32* %cleanup.dest.slot, align 4
  br label %cleanup, !dbg !2451

if.end128:                                        ; preds = %invoke.cont112
  store i32 0, i32* %cleanup.dest.slot, align 4, !dbg !2447
  br label %cleanup, !dbg !2447

cleanup:                                          ; preds = %if.end128, %if.end123, %if.then119
  call void @_ZN11xercesc_2_75QNameD1Ev(%"class.xercesc_2_7::QName"* %elemQName) #10, !dbg !2447
  %cleanup.dest = load i32, i32* %cleanup.dest.slot, align 4
  switch i32 %cleanup.dest, label %unreachable [
    i32 0, label %cleanup.cont
    i32 4, label %for.inc244
  ]

cleanup.cont:                                     ; preds = %cleanup
  br label %if.end129, !dbg !2452

if.end129:                                        ; preds = %cleanup.cont, %if.then99
  %fCurrentStep130 = getelementptr inbounds %"class.xercesc_2_7::XPathMatcher", %"class.xercesc_2_7::XPathMatcher"* %this1, i32 0, i32 4, !dbg !2453
  %106 = load i32*, i32** %fCurrentStep130, align 8, !dbg !2453
  %107 = load i32, i32* %i, align 4, !dbg !2454
  %idxprom131 = sext i32 %107 to i64, !dbg !2453
  %arrayidx132 = getelementptr inbounds i32, i32* %106, i64 %idxprom131, !dbg !2453
  %108 = load i32, i32* %arrayidx132, align 4, !dbg !2455
  %inc133 = add nsw i32 %108, 1, !dbg !2455
  store i32 %inc133, i32* %arrayidx132, align 4, !dbg !2455
  br label %if.end134, !dbg !2456

if.end134:                                        ; preds = %if.end129, %land.lhs.true, %lor.lhs.false87
  %fCurrentStep135 = getelementptr inbounds %"class.xercesc_2_7::XPathMatcher", %"class.xercesc_2_7::XPathMatcher"* %this1, i32 0, i32 4, !dbg !2457
  %109 = load i32*, i32** %fCurrentStep135, align 8, !dbg !2457
  %110 = load i32, i32* %i, align 4, !dbg !2459
  %idxprom136 = sext i32 %110 to i64, !dbg !2457
  %arrayidx137 = getelementptr inbounds i32, i32* %109, i64 %idxprom136, !dbg !2457
  %111 = load i32, i32* %arrayidx137, align 4, !dbg !2457
  %112 = load i32, i32* %stepSize, align 4, !dbg !2460
  %cmp138 = icmp eq i32 %111, %112, !dbg !2461
  br i1 %cmp138, label %if.then139, label %if.end151, !dbg !2462

if.then139:                                       ; preds = %if.end134
  %113 = load i8, i8* %sawDescendant, align 1, !dbg !2463
  %tobool = trunc i8 %113 to i1, !dbg !2463
  br i1 %tobool, label %if.then140, label %if.else, !dbg !2466

if.then140:                                       ; preds = %if.then139
  %114 = load i32, i32* %descendantStep, align 4, !dbg !2467
  %fCurrentStep141 = getelementptr inbounds %"class.xercesc_2_7::XPathMatcher", %"class.xercesc_2_7::XPathMatcher"* %this1, i32 0, i32 4, !dbg !2469
  %115 = load i32*, i32** %fCurrentStep141, align 8, !dbg !2469
  %116 = load i32, i32* %i, align 4, !dbg !2470
  %idxprom142 = sext i32 %116 to i64, !dbg !2469
  %arrayidx143 = getelementptr inbounds i32, i32* %115, i64 %idxprom142, !dbg !2469
  store i32 %114, i32* %arrayidx143, align 4, !dbg !2471
  %fMatched144 = getelementptr inbounds %"class.xercesc_2_7::XPathMatcher", %"class.xercesc_2_7::XPathMatcher"* %this1, i32 0, i32 2, !dbg !2472
  %117 = load i32*, i32** %fMatched144, align 8, !dbg !2472
  %118 = load i32, i32* %i, align 4, !dbg !2473
  %idxprom145 = sext i32 %118 to i64, !dbg !2472
  %arrayidx146 = getelementptr inbounds i32, i32* %117, i64 %idxprom145, !dbg !2472
  store i32 5, i32* %arrayidx146, align 4, !dbg !2474
  br label %if.end150, !dbg !2475

if.else:                                          ; preds = %if.then139
  %fMatched147 = getelementptr inbounds %"class.xercesc_2_7::XPathMatcher", %"class.xercesc_2_7::XPathMatcher"* %this1, i32 0, i32 2, !dbg !2476
  %119 = load i32*, i32** %fMatched147, align 8, !dbg !2476
  %120 = load i32, i32* %i, align 4, !dbg !2478
  %idxprom148 = sext i32 %120 to i64, !dbg !2476
  %arrayidx149 = getelementptr inbounds i32, i32* %119, i64 %idxprom148, !dbg !2476
  store i32 1, i32* %arrayidx149, align 4, !dbg !2479
  br label %if.end150

if.end150:                                        ; preds = %if.else, %if.then140
  br label %for.inc244, !dbg !2480

if.end151:                                        ; preds = %if.end134
  %fCurrentStep152 = getelementptr inbounds %"class.xercesc_2_7::XPathMatcher", %"class.xercesc_2_7::XPathMatcher"* %this1, i32 0, i32 4, !dbg !2481
  %121 = load i32*, i32** %fCurrentStep152, align 8, !dbg !2481
  %122 = load i32, i32* %i, align 4, !dbg !2483
  %idxprom153 = sext i32 %122 to i64, !dbg !2481
  %arrayidx154 = getelementptr inbounds i32, i32* %121, i64 %idxprom153, !dbg !2481
  %123 = load i32, i32* %arrayidx154, align 4, !dbg !2481
  %124 = load i32, i32* %stepSize, align 4, !dbg !2484
  %cmp155 = icmp slt i32 %123, %124, !dbg !2485
  br i1 %cmp155, label %land.lhs.true156, label %if.end243, !dbg !2486

land.lhs.true156:                                 ; preds = %if.end151
  %125 = load %"class.xercesc_2_7::XercesLocationPath"*, %"class.xercesc_2_7::XercesLocationPath"** %locPath, align 8, !dbg !2487
  %fCurrentStep157 = getelementptr inbounds %"class.xercesc_2_7::XPathMatcher", %"class.xercesc_2_7::XPathMatcher"* %this1, i32 0, i32 4, !dbg !2488
  %126 = load i32*, i32** %fCurrentStep157, align 8, !dbg !2488
  %127 = load i32, i32* %i, align 4, !dbg !2489
  %idxprom158 = sext i32 %127 to i64, !dbg !2488
  %arrayidx159 = getelementptr inbounds i32, i32* %126, i64 %idxprom158, !dbg !2488
  %128 = load i32, i32* %arrayidx159, align 4, !dbg !2488
  %call160 = call %"class.xercesc_2_7::XercesStep"* @_ZNK11xercesc_2_718XercesLocationPath7getStepEj(%"class.xercesc_2_7::XercesLocationPath"* %125, i32 %128), !dbg !2490
  %call161 = call zeroext i16 @_ZNK11xercesc_2_710XercesStep11getAxisTypeEv(%"class.xercesc_2_7::XercesStep"* %call160), !dbg !2491
  %conv162 = zext i16 %call161 to i32, !dbg !2487
  %cmp163 = icmp eq i32 %conv162, 2, !dbg !2492
  br i1 %cmp163, label %if.then164, label %if.end243, !dbg !2493

if.then164:                                       ; preds = %land.lhs.true156
  %129 = load i32, i32* %attrCount.addr, align 4, !dbg !2494
  %tobool165 = icmp ne i32 %129, 0, !dbg !2494
  br i1 %tobool165, label %if.then166, label %if.end222, !dbg !2497

if.then166:                                       ; preds = %if.then164
  call void @llvm.dbg.declare(metadata %"class.xercesc_2_7::XercesNodeTest"** %nodeTest167, metadata !2498, metadata !DIExpression()), !dbg !2500
  %130 = load %"class.xercesc_2_7::XercesLocationPath"*, %"class.xercesc_2_7::XercesLocationPath"** %locPath, align 8, !dbg !2501
  %fCurrentStep168 = getelementptr inbounds %"class.xercesc_2_7::XPathMatcher", %"class.xercesc_2_7::XPathMatcher"* %this1, i32 0, i32 4, !dbg !2502
  %131 = load i32*, i32** %fCurrentStep168, align 8, !dbg !2502
  %132 = load i32, i32* %i, align 4, !dbg !2503
  %idxprom169 = sext i32 %132 to i64, !dbg !2502
  %arrayidx170 = getelementptr inbounds i32, i32* %131, i64 %idxprom169, !dbg !2502
  %133 = load i32, i32* %arrayidx170, align 4, !dbg !2502
  %call171 = call %"class.xercesc_2_7::XercesStep"* @_ZNK11xercesc_2_718XercesLocationPath7getStepEj(%"class.xercesc_2_7::XercesLocationPath"* %130, i32 %133), !dbg !2504
  %call172 = call %"class.xercesc_2_7::XercesNodeTest"* @_ZNK11xercesc_2_710XercesStep11getNodeTestEv(%"class.xercesc_2_7::XercesStep"* %call171), !dbg !2505
  store %"class.xercesc_2_7::XercesNodeTest"* %call172, %"class.xercesc_2_7::XercesNodeTest"** %nodeTest167, align 8, !dbg !2500
  call void @llvm.dbg.declare(metadata i32* %attrIndex, metadata !2506, metadata !DIExpression()), !dbg !2508
  store i32 0, i32* %attrIndex, align 4, !dbg !2508
  br label %for.cond173, !dbg !2509

for.cond173:                                      ; preds = %for.inc219, %if.then166
  %134 = load i32, i32* %attrIndex, align 4, !dbg !2510
  %135 = load i32, i32* %attrCount.addr, align 4, !dbg !2512
  %cmp174 = icmp ult i32 %134, %135, !dbg !2513
  br i1 %cmp174, label %for.body175, label %for.end221, !dbg !2514

for.body175:                                      ; preds = %for.cond173
  call void @llvm.dbg.declare(metadata %"class.xercesc_2_7::XMLAttr"** %curDef, metadata !2515, metadata !DIExpression()), !dbg !2601
  %136 = load %"class.xercesc_2_7::RefVectorOf.6"*, %"class.xercesc_2_7::RefVectorOf.6"** %attrList.addr, align 8, !dbg !2602
  %137 = bitcast %"class.xercesc_2_7::RefVectorOf.6"* %136 to %"class.xercesc_2_7::BaseRefVectorOf.7"*, !dbg !2602
  %138 = load i32, i32* %attrIndex, align 4, !dbg !2603
  %call176 = call %"class.xercesc_2_7::XMLAttr"* @_ZNK11xercesc_2_715BaseRefVectorOfINS_7XMLAttrEE9elementAtEj(%"class.xercesc_2_7::BaseRefVectorOf.7"* %137, i32 %138), !dbg !2604
  store %"class.xercesc_2_7::XMLAttr"* %call176, %"class.xercesc_2_7::XMLAttr"** %curDef, align 8, !dbg !2601
  %139 = load %"class.xercesc_2_7::XercesNodeTest"*, %"class.xercesc_2_7::XercesNodeTest"** %nodeTest167, align 8, !dbg !2605
  %call177 = call signext i16 @_ZNK11xercesc_2_714XercesNodeTest7getTypeEv(%"class.xercesc_2_7::XercesNodeTest"* %139), !dbg !2607
  %conv178 = sext i16 %call177 to i32, !dbg !2605
  %cmp179 = icmp ne i32 %conv178, 1, !dbg !2608
  br i1 %cmp179, label %if.then184, label %lor.lhs.false180, !dbg !2609

lor.lhs.false180:                                 ; preds = %for.body175
  %140 = load %"class.xercesc_2_7::XercesNodeTest"*, %"class.xercesc_2_7::XercesNodeTest"** %nodeTest167, align 8, !dbg !2610
  %call181 = call %"class.xercesc_2_7::QName"* @_ZNK11xercesc_2_714XercesNodeTest7getNameEv(%"class.xercesc_2_7::XercesNodeTest"* %140), !dbg !2611
  %141 = load %"class.xercesc_2_7::XMLAttr"*, %"class.xercesc_2_7::XMLAttr"** %curDef, align 8, !dbg !2612
  %call182 = call %"class.xercesc_2_7::QName"* @_ZNK11xercesc_2_77XMLAttr10getAttNameEv(%"class.xercesc_2_7::XMLAttr"* %141), !dbg !2613
  %call183 = call zeroext i1 @_ZNK11xercesc_2_75QNameeqERKS0_(%"class.xercesc_2_7::QName"* %call181, %"class.xercesc_2_7::QName"* dereferenceable(56) %call182), !dbg !2614
  br i1 %call183, label %if.then184, label %if.end218, !dbg !2615

if.then184:                                       ; preds = %lor.lhs.false180, %for.body175
  %fCurrentStep185 = getelementptr inbounds %"class.xercesc_2_7::XPathMatcher", %"class.xercesc_2_7::XPathMatcher"* %this1, i32 0, i32 4, !dbg !2616
  %142 = load i32*, i32** %fCurrentStep185, align 8, !dbg !2616
  %143 = load i32, i32* %i, align 4, !dbg !2618
  %idxprom186 = sext i32 %143 to i64, !dbg !2616
  %arrayidx187 = getelementptr inbounds i32, i32* %142, i64 %idxprom186, !dbg !2616
  %144 = load i32, i32* %arrayidx187, align 4, !dbg !2619
  %inc188 = add nsw i32 %144, 1, !dbg !2619
  store i32 %inc188, i32* %arrayidx187, align 4, !dbg !2619
  %fCurrentStep189 = getelementptr inbounds %"class.xercesc_2_7::XPathMatcher", %"class.xercesc_2_7::XPathMatcher"* %this1, i32 0, i32 4, !dbg !2620
  %145 = load i32*, i32** %fCurrentStep189, align 8, !dbg !2620
  %146 = load i32, i32* %i, align 4, !dbg !2622
  %idxprom190 = sext i32 %146 to i64, !dbg !2620
  %arrayidx191 = getelementptr inbounds i32, i32* %145, i64 %idxprom190, !dbg !2620
  %147 = load i32, i32* %arrayidx191, align 4, !dbg !2620
  %148 = load i32, i32* %stepSize, align 4, !dbg !2623
  %cmp192 = icmp eq i32 %147, %148, !dbg !2624
  br i1 %cmp192, label %if.then193, label %if.end217, !dbg !2625

if.then193:                                       ; preds = %if.then184
  %fMatched194 = getelementptr inbounds %"class.xercesc_2_7::XPathMatcher", %"class.xercesc_2_7::XPathMatcher"* %this1, i32 0, i32 2, !dbg !2626
  %149 = load i32*, i32** %fMatched194, align 8, !dbg !2626
  %150 = load i32, i32* %i, align 4, !dbg !2628
  %idxprom195 = sext i32 %150 to i64, !dbg !2626
  %arrayidx196 = getelementptr inbounds i32, i32* %149, i64 %idxprom195, !dbg !2626
  store i32 3, i32* %arrayidx196, align 4, !dbg !2629
  call void @llvm.dbg.declare(metadata i32* %j, metadata !2630, metadata !DIExpression()), !dbg !2631
  store i32 0, i32* %j, align 4, !dbg !2631
  br label %for.cond197, !dbg !2632

for.cond197:                                      ; preds = %for.inc, %if.then193
  %151 = load i32, i32* %j, align 4, !dbg !2633
  %152 = load i32, i32* %i, align 4, !dbg !2636
  %cmp198 = icmp slt i32 %151, %152, !dbg !2637
  br i1 %cmp198, label %land.rhs199, label %land.end205, !dbg !2638

land.rhs199:                                      ; preds = %for.cond197
  %fMatched200 = getelementptr inbounds %"class.xercesc_2_7::XPathMatcher", %"class.xercesc_2_7::XPathMatcher"* %this1, i32 0, i32 2, !dbg !2639
  %153 = load i32*, i32** %fMatched200, align 8, !dbg !2639
  %154 = load i32, i32* %j, align 4, !dbg !2640
  %idxprom201 = sext i32 %154 to i64, !dbg !2639
  %arrayidx202 = getelementptr inbounds i32, i32* %153, i64 %idxprom201, !dbg !2639
  %155 = load i32, i32* %arrayidx202, align 4, !dbg !2639
  %and203 = and i32 %155, 1, !dbg !2641
  %cmp204 = icmp ne i32 %and203, 1, !dbg !2642
  br label %land.end205

land.end205:                                      ; preds = %land.rhs199, %for.cond197
  %156 = phi i1 [ false, %for.cond197 ], [ %cmp204, %land.rhs199 ], !dbg !2643
  br i1 %156, label %for.body206, label %for.end, !dbg !2644

for.body206:                                      ; preds = %land.end205
  br label %for.inc, !dbg !2644

for.inc:                                          ; preds = %for.body206
  %157 = load i32, i32* %j, align 4, !dbg !2645
  %inc207 = add nsw i32 %157, 1, !dbg !2645
  store i32 %inc207, i32* %j, align 4, !dbg !2645
  br label %for.cond197, !dbg !2646, !llvm.loop !2647

for.end:                                          ; preds = %land.end205
  %158 = load i32, i32* %j, align 4, !dbg !2649
  %159 = load i32, i32* %i, align 4, !dbg !2651
  %cmp208 = icmp eq i32 %158, %159, !dbg !2652
  br i1 %cmp208, label %if.then209, label %if.end216, !dbg !2653

if.then209:                                       ; preds = %for.end
  call void @llvm.dbg.declare(metadata %"class.xercesc_2_7::SchemaAttDef"** %attDef, metadata !2654, metadata !DIExpression()), !dbg !2659
  %160 = load %"class.xercesc_2_7::XMLElementDecl"*, %"class.xercesc_2_7::XMLElementDecl"** %elemDecl.addr, align 8, !dbg !2660
  %161 = bitcast %"class.xercesc_2_7::XMLElementDecl"* %160 to %"class.xercesc_2_7::SchemaElementDecl"*, !dbg !2661
  %162 = load %"class.xercesc_2_7::XMLAttr"*, %"class.xercesc_2_7::XMLAttr"** %curDef, align 8, !dbg !2662
  %call210 = call i16* @_ZNK11xercesc_2_77XMLAttr7getNameEv(%"class.xercesc_2_7::XMLAttr"* %162), !dbg !2663
  %163 = load %"class.xercesc_2_7::XMLAttr"*, %"class.xercesc_2_7::XMLAttr"** %curDef, align 8, !dbg !2664
  %call211 = call i32 @_ZNK11xercesc_2_77XMLAttr8getURIIdEv(%"class.xercesc_2_7::XMLAttr"* %163), !dbg !2665
  %call212 = call %"class.xercesc_2_7::SchemaAttDef"* @_ZN11xercesc_2_717SchemaElementDecl9getAttDefEPKti(%"class.xercesc_2_7::SchemaElementDecl"* %161, i16* %call210, i32 %call211), !dbg !2666
  store %"class.xercesc_2_7::SchemaAttDef"* %call212, %"class.xercesc_2_7::SchemaAttDef"** %attDef, align 8, !dbg !2659
  call void @llvm.dbg.declare(metadata %"class.xercesc_2_7::DatatypeValidator"** %dv, metadata !2667, metadata !DIExpression()), !dbg !2668
  %164 = load %"class.xercesc_2_7::SchemaAttDef"*, %"class.xercesc_2_7::SchemaAttDef"** %attDef, align 8, !dbg !2669
  %tobool213 = icmp ne %"class.xercesc_2_7::SchemaAttDef"* %164, null, !dbg !2670
  br i1 %tobool213, label %cond.true, label %cond.false, !dbg !2670

cond.true:                                        ; preds = %if.then209
  %165 = load %"class.xercesc_2_7::SchemaAttDef"*, %"class.xercesc_2_7::SchemaAttDef"** %attDef, align 8, !dbg !2671
  %call214 = call %"class.xercesc_2_7::DatatypeValidator"* @_ZNK11xercesc_2_712SchemaAttDef20getDatatypeValidatorEv(%"class.xercesc_2_7::SchemaAttDef"* %165), !dbg !2672
  br label %cond.end, !dbg !2670

cond.false:                                       ; preds = %if.then209
  br label %cond.end, !dbg !2670

cond.end:                                         ; preds = %cond.false, %cond.true
  %cond = phi %"class.xercesc_2_7::DatatypeValidator"* [ %call214, %cond.true ], [ null, %cond.false ], !dbg !2670
  store %"class.xercesc_2_7::DatatypeValidator"* %cond, %"class.xercesc_2_7::DatatypeValidator"** %dv, align 8, !dbg !2668
  %166 = load %"class.xercesc_2_7::XMLAttr"*, %"class.xercesc_2_7::XMLAttr"** %curDef, align 8, !dbg !2673
  %call215 = call i16* @_ZNK11xercesc_2_77XMLAttr8getValueEv(%"class.xercesc_2_7::XMLAttr"* %166), !dbg !2674
  %167 = load %"class.xercesc_2_7::DatatypeValidator"*, %"class.xercesc_2_7::DatatypeValidator"** %dv, align 8, !dbg !2675
  %168 = bitcast %"class.xercesc_2_7::XPathMatcher"* %this1 to void (%"class.xercesc_2_7::XPathMatcher"*, i16*, %"class.xercesc_2_7::DatatypeValidator"*, i1)***, !dbg !2676
  %vtable = load void (%"class.xercesc_2_7::XPathMatcher"*, i16*, %"class.xercesc_2_7::DatatypeValidator"*, i1)**, void (%"class.xercesc_2_7::XPathMatcher"*, i16*, %"class.xercesc_2_7::DatatypeValidator"*, i1)*** %168, align 8, !dbg !2676
  %vfn = getelementptr inbounds void (%"class.xercesc_2_7::XPathMatcher"*, i16*, %"class.xercesc_2_7::DatatypeValidator"*, i1)*, void (%"class.xercesc_2_7::XPathMatcher"*, i16*, %"class.xercesc_2_7::DatatypeValidator"*, i1)** %vtable, i64 6, !dbg !2676
  %169 = load void (%"class.xercesc_2_7::XPathMatcher"*, i16*, %"class.xercesc_2_7::DatatypeValidator"*, i1)*, void (%"class.xercesc_2_7::XPathMatcher"*, i16*, %"class.xercesc_2_7::DatatypeValidator"*, i1)** %vfn, align 8, !dbg !2676
  call void %169(%"class.xercesc_2_7::XPathMatcher"* %this1, i16* %call215, %"class.xercesc_2_7::DatatypeValidator"* %167, i1 zeroext false), !dbg !2676
  br label %if.end216, !dbg !2677

if.end216:                                        ; preds = %cond.end, %for.end
  br label %if.end217, !dbg !2678

if.end217:                                        ; preds = %if.end216, %if.then184
  br label %for.end221, !dbg !2679

if.end218:                                        ; preds = %lor.lhs.false180
  br label %for.inc219, !dbg !2680

for.inc219:                                       ; preds = %if.end218
  %170 = load i32, i32* %attrIndex, align 4, !dbg !2681
  %inc220 = add i32 %170, 1, !dbg !2681
  store i32 %inc220, i32* %attrIndex, align 4, !dbg !2681
  br label %for.cond173, !dbg !2682, !llvm.loop !2683

for.end221:                                       ; preds = %if.end217, %for.cond173
  br label %if.end222, !dbg !2685

if.end222:                                        ; preds = %for.end221, %if.then164
  %fMatched223 = getelementptr inbounds %"class.xercesc_2_7::XPathMatcher", %"class.xercesc_2_7::XPathMatcher"* %this1, i32 0, i32 2, !dbg !2686
  %171 = load i32*, i32** %fMatched223, align 8, !dbg !2686
  %172 = load i32, i32* %i, align 4, !dbg !2688
  %idxprom224 = sext i32 %172 to i64, !dbg !2686
  %arrayidx225 = getelementptr inbounds i32, i32* %171, i64 %idxprom224, !dbg !2686
  %173 = load i32, i32* %arrayidx225, align 4, !dbg !2686
  %and226 = and i32 %173, 1, !dbg !2689
  %cmp227 = icmp ne i32 %and226, 1, !dbg !2690
  br i1 %cmp227, label %if.then228, label %if.end242, !dbg !2691

if.then228:                                       ; preds = %if.end222
  %fCurrentStep229 = getelementptr inbounds %"class.xercesc_2_7::XPathMatcher", %"class.xercesc_2_7::XPathMatcher"* %this1, i32 0, i32 4, !dbg !2692
  %174 = load i32*, i32** %fCurrentStep229, align 8, !dbg !2692
  %175 = load i32, i32* %i, align 4, !dbg !2695
  %idxprom230 = sext i32 %175 to i64, !dbg !2692
  %arrayidx231 = getelementptr inbounds i32, i32* %174, i64 %idxprom230, !dbg !2692
  %176 = load i32, i32* %arrayidx231, align 4, !dbg !2692
  %177 = load i32, i32* %descendantStep, align 4, !dbg !2696
  %cmp232 = icmp sgt i32 %176, %177, !dbg !2697
  br i1 %cmp232, label %if.then233, label %if.end237, !dbg !2698

if.then233:                                       ; preds = %if.then228
  %178 = load i32, i32* %descendantStep, align 4, !dbg !2699
  %fCurrentStep234 = getelementptr inbounds %"class.xercesc_2_7::XPathMatcher", %"class.xercesc_2_7::XPathMatcher"* %this1, i32 0, i32 4, !dbg !2701
  %179 = load i32*, i32** %fCurrentStep234, align 8, !dbg !2701
  %180 = load i32, i32* %i, align 4, !dbg !2702
  %idxprom235 = sext i32 %180 to i64, !dbg !2701
  %arrayidx236 = getelementptr inbounds i32, i32* %179, i64 %idxprom235, !dbg !2701
  store i32 %178, i32* %arrayidx236, align 4, !dbg !2703
  br label %for.inc244, !dbg !2704

if.end237:                                        ; preds = %if.then228
  %fNoMatchDepth238 = getelementptr inbounds %"class.xercesc_2_7::XPathMatcher", %"class.xercesc_2_7::XPathMatcher"* %this1, i32 0, i32 3, !dbg !2705
  %181 = load i32*, i32** %fNoMatchDepth238, align 8, !dbg !2705
  %182 = load i32, i32* %i, align 4, !dbg !2706
  %idxprom239 = sext i32 %182 to i64, !dbg !2705
  %arrayidx240 = getelementptr inbounds i32, i32* %181, i64 %idxprom239, !dbg !2705
  %183 = load i32, i32* %arrayidx240, align 4, !dbg !2707
  %inc241 = add nsw i32 %183, 1, !dbg !2707
  store i32 %inc241, i32* %arrayidx240, align 4, !dbg !2707
  br label %if.end242, !dbg !2708

if.end242:                                        ; preds = %if.end237, %if.end222
  br label %if.end243, !dbg !2709

if.end243:                                        ; preds = %if.end242, %land.lhs.true156, %if.end151
  br label %for.inc244, !dbg !2710

for.inc244:                                       ; preds = %if.end243, %if.then233, %if.end150, %cleanup, %if.then77, %if.then41, %if.then
  %184 = load i32, i32* %i, align 4, !dbg !2711
  %inc245 = add nsw i32 %184, 1, !dbg !2711
  store i32 %inc245, i32* %i, align 4, !dbg !2711
  br label %for.cond, !dbg !2712, !llvm.loop !2713

for.end246:                                       ; preds = %for.cond
  ret void, !dbg !2715

eh.resume:                                        ; preds = %lpad
  %exn = load i8*, i8** %exn.slot, align 8, !dbg !2447
  %sel = load i32, i32* %ehselector.slot, align 4, !dbg !2447
  %lpad.val = insertvalue { i8*, i32 } undef, i8* %exn, 0, !dbg !2447
  %lpad.val247 = insertvalue { i8*, i32 } %lpad.val, i32 %sel, 1, !dbg !2447
  resume { i8*, i32 } %lpad.val247, !dbg !2447

unreachable:                                      ; preds = %cleanup
  unreachable
}

; Function Attrs: noinline uwtable
define linkonce_odr dso_local void @_ZN11xercesc_2_712ValueStackOfIiE4pushERKi(%"class.xercesc_2_7::ValueStackOf"* %this, i32* dereferenceable(4) %toPush) #3 comdat align 2 !dbg !2716 {
entry:
  %this.addr = alloca %"class.xercesc_2_7::ValueStackOf"*, align 8
  %toPush.addr = alloca i32*, align 8
  store %"class.xercesc_2_7::ValueStackOf"* %this, %"class.xercesc_2_7::ValueStackOf"** %this.addr, align 8
  call void @llvm.dbg.declare(metadata %"class.xercesc_2_7::ValueStackOf"** %this.addr, metadata !2717, metadata !DIExpression()), !dbg !2718
  store i32* %toPush, i32** %toPush.addr, align 8
  call void @llvm.dbg.declare(metadata i32** %toPush.addr, metadata !2719, metadata !DIExpression()), !dbg !2720
  %this1 = load %"class.xercesc_2_7::ValueStackOf"*, %"class.xercesc_2_7::ValueStackOf"** %this.addr, align 8
  %fVector = getelementptr inbounds %"class.xercesc_2_7::ValueStackOf", %"class.xercesc_2_7::ValueStackOf"* %this1, i32 0, i32 1, !dbg !2721
  %0 = load i32*, i32** %toPush.addr, align 8, !dbg !2722
  call void @_ZN11xercesc_2_713ValueVectorOfIiE10addElementERKi(%"class.xercesc_2_7::ValueVectorOf"* %fVector, i32* dereferenceable(4) %0), !dbg !2723
  ret void, !dbg !2724
}

; Function Attrs: noinline uwtable
define linkonce_odr dso_local %"class.xercesc_2_7::XercesLocationPath"* @_ZN11xercesc_2_715BaseRefVectorOfINS_18XercesLocationPathEE9elementAtEj(%"class.xercesc_2_7::BaseRefVectorOf.1"* %this, i32 %getAt) #3 comdat align 2 personality i8* bitcast (i32 (...)* @__gxx_personality_v0 to i8*) !dbg !2725 {
entry:
  %this.addr = alloca %"class.xercesc_2_7::BaseRefVectorOf.1"*, align 8
  %getAt.addr = alloca i32, align 4
  %exn.slot = alloca i8*
  %ehselector.slot = alloca i32
  store %"class.xercesc_2_7::BaseRefVectorOf.1"* %this, %"class.xercesc_2_7::BaseRefVectorOf.1"** %this.addr, align 8
  call void @llvm.dbg.declare(metadata %"class.xercesc_2_7::BaseRefVectorOf.1"** %this.addr, metadata !2730, metadata !DIExpression()), !dbg !2732
  store i32 %getAt, i32* %getAt.addr, align 4
  call void @llvm.dbg.declare(metadata i32* %getAt.addr, metadata !2733, metadata !DIExpression()), !dbg !2734
  %this1 = load %"class.xercesc_2_7::BaseRefVectorOf.1"*, %"class.xercesc_2_7::BaseRefVectorOf.1"** %this.addr, align 8
  %0 = load i32, i32* %getAt.addr, align 4, !dbg !2735
  %fCurCount = getelementptr inbounds %"class.xercesc_2_7::BaseRefVectorOf.1", %"class.xercesc_2_7::BaseRefVectorOf.1"* %this1, i32 0, i32 2, !dbg !2737
  %1 = load i32, i32* %fCurCount, align 4, !dbg !2737
  %cmp = icmp uge i32 %0, %1, !dbg !2738
  br i1 %cmp, label %if.then, label %if.end, !dbg !2739

if.then:                                          ; preds = %entry
  %exception = call i8* @__cxa_allocate_exception(i64 48) #10, !dbg !2740
  %2 = bitcast i8* %exception to %"class.xercesc_2_7::ArrayIndexOutOfBoundsException"*, !dbg !2740
  %fMemoryManager = getelementptr inbounds %"class.xercesc_2_7::BaseRefVectorOf.1", %"class.xercesc_2_7::BaseRefVectorOf.1"* %this1, i32 0, i32 5, !dbg !2740
  %3 = load %"class.xercesc_2_7::MemoryManager"*, %"class.xercesc_2_7::MemoryManager"** %fMemoryManager, align 8, !dbg !2740
  invoke void @_ZN11xercesc_2_730ArrayIndexOutOfBoundsExceptionC2EPKcjNS_10XMLExcepts5CodesEPNS_13MemoryManagerE(%"class.xercesc_2_7::ArrayIndexOutOfBoundsException"* %2, i8* getelementptr inbounds ([33 x i8], [33 x i8]* @.str.1, i64 0, i64 0), i32 249, i32 116, %"class.xercesc_2_7::MemoryManager"* %3)
          to label %invoke.cont unwind label %lpad, !dbg !2740

invoke.cont:                                      ; preds = %if.then
  call void @__cxa_throw(i8* %exception, i8* bitcast ({ i8*, i8*, i8* }* @_ZTIN11xercesc_2_730ArrayIndexOutOfBoundsExceptionE to i8*), i8* bitcast (void (%"class.xercesc_2_7::ArrayIndexOutOfBoundsException"*)* @_ZN11xercesc_2_730ArrayIndexOutOfBoundsExceptionD2Ev to i8*)) #13, !dbg !2740
  unreachable, !dbg !2740

lpad:                                             ; preds = %if.then
  %4 = landingpad { i8*, i32 }
          cleanup, !dbg !2741
  %5 = extractvalue { i8*, i32 } %4, 0, !dbg !2741
  store i8* %5, i8** %exn.slot, align 8, !dbg !2741
  %6 = extractvalue { i8*, i32 } %4, 1, !dbg !2741
  store i32 %6, i32* %ehselector.slot, align 4, !dbg !2741
  call void @__cxa_free_exception(i8* %exception) #10, !dbg !2740
  br label %eh.resume, !dbg !2740

if.end:                                           ; preds = %entry
  %fElemList = getelementptr inbounds %"class.xercesc_2_7::BaseRefVectorOf.1", %"class.xercesc_2_7::BaseRefVectorOf.1"* %this1, i32 0, i32 4, !dbg !2742
  %7 = load %"class.xercesc_2_7::XercesLocationPath"**, %"class.xercesc_2_7::XercesLocationPath"*** %fElemList, align 8, !dbg !2742
  %8 = load i32, i32* %getAt.addr, align 4, !dbg !2743
  %idxprom = zext i32 %8 to i64, !dbg !2742
  %arrayidx = getelementptr inbounds %"class.xercesc_2_7::XercesLocationPath"*, %"class.xercesc_2_7::XercesLocationPath"** %7, i64 %idxprom, !dbg !2742
  %9 = load %"class.xercesc_2_7::XercesLocationPath"*, %"class.xercesc_2_7::XercesLocationPath"** %arrayidx, align 8, !dbg !2742
  ret %"class.xercesc_2_7::XercesLocationPath"* %9, !dbg !2744

eh.resume:                                        ; preds = %lpad
  %exn = load i8*, i8** %exn.slot, align 8, !dbg !2740
  %sel = load i32, i32* %ehselector.slot, align 4, !dbg !2740
  %lpad.val = insertvalue { i8*, i32 } undef, i8* %exn, 0, !dbg !2740
  %lpad.val2 = insertvalue { i8*, i32 } %lpad.val, i32 %sel, 1, !dbg !2740
  resume { i8*, i32 } %lpad.val2, !dbg !2740
}

; Function Attrs: noinline uwtable
define linkonce_odr dso_local i32 @_ZNK11xercesc_2_718XercesLocationPath11getStepSizeEv(%"class.xercesc_2_7::XercesLocationPath"* %this) #3 comdat align 2 !dbg !2745 {
entry:
  %retval = alloca i32, align 4
  %this.addr = alloca %"class.xercesc_2_7::XercesLocationPath"*, align 8
  store %"class.xercesc_2_7::XercesLocationPath"* %this, %"class.xercesc_2_7::XercesLocationPath"** %this.addr, align 8
  call void @llvm.dbg.declare(metadata %"class.xercesc_2_7::XercesLocationPath"** %this.addr, metadata !2751, metadata !DIExpression()), !dbg !2753
  %this1 = load %"class.xercesc_2_7::XercesLocationPath"*, %"class.xercesc_2_7::XercesLocationPath"** %this.addr, align 8
  %fSteps = getelementptr inbounds %"class.xercesc_2_7::XercesLocationPath", %"class.xercesc_2_7::XercesLocationPath"* %this1, i32 0, i32 1, !dbg !2754
  %0 = load %"class.xercesc_2_7::RefVectorOf.2"*, %"class.xercesc_2_7::RefVectorOf.2"** %fSteps, align 8, !dbg !2754
  %tobool = icmp ne %"class.xercesc_2_7::RefVectorOf.2"* %0, null, !dbg !2754
  br i1 %tobool, label %if.then, label %if.end, !dbg !2756

if.then:                                          ; preds = %entry
  %fSteps2 = getelementptr inbounds %"class.xercesc_2_7::XercesLocationPath", %"class.xercesc_2_7::XercesLocationPath"* %this1, i32 0, i32 1, !dbg !2757
  %1 = load %"class.xercesc_2_7::RefVectorOf.2"*, %"class.xercesc_2_7::RefVectorOf.2"** %fSteps2, align 8, !dbg !2757
  %2 = bitcast %"class.xercesc_2_7::RefVectorOf.2"* %1 to %"class.xercesc_2_7::BaseRefVectorOf.3"*, !dbg !2758
  %call = call i32 @_ZNK11xercesc_2_715BaseRefVectorOfINS_10XercesStepEE4sizeEv(%"class.xercesc_2_7::BaseRefVectorOf.3"* %2), !dbg !2758
  store i32 %call, i32* %retval, align 4, !dbg !2759
  br label %return, !dbg !2759

if.end:                                           ; preds = %entry
  store i32 0, i32* %retval, align 4, !dbg !2760
  br label %return, !dbg !2760

return:                                           ; preds = %if.end, %if.then
  %3 = load i32, i32* %retval, align 4, !dbg !2761
  ret i32 %3, !dbg !2761
}

; Function Attrs: noinline uwtable
define linkonce_odr dso_local %"class.xercesc_2_7::XercesStep"* @_ZNK11xercesc_2_718XercesLocationPath7getStepEj(%"class.xercesc_2_7::XercesLocationPath"* %this, i32 %index) #3 comdat align 2 !dbg !2762 {
entry:
  %retval = alloca %"class.xercesc_2_7::XercesStep"*, align 8
  %this.addr = alloca %"class.xercesc_2_7::XercesLocationPath"*, align 8
  %index.addr = alloca i32, align 4
  store %"class.xercesc_2_7::XercesLocationPath"* %this, %"class.xercesc_2_7::XercesLocationPath"** %this.addr, align 8
  call void @llvm.dbg.declare(metadata %"class.xercesc_2_7::XercesLocationPath"** %this.addr, metadata !2766, metadata !DIExpression()), !dbg !2767
  store i32 %index, i32* %index.addr, align 4
  call void @llvm.dbg.declare(metadata i32* %index.addr, metadata !2768, metadata !DIExpression()), !dbg !2769
  %this1 = load %"class.xercesc_2_7::XercesLocationPath"*, %"class.xercesc_2_7::XercesLocationPath"** %this.addr, align 8
  %fSteps = getelementptr inbounds %"class.xercesc_2_7::XercesLocationPath", %"class.xercesc_2_7::XercesLocationPath"* %this1, i32 0, i32 1, !dbg !2770
  %0 = load %"class.xercesc_2_7::RefVectorOf.2"*, %"class.xercesc_2_7::RefVectorOf.2"** %fSteps, align 8, !dbg !2770
  %tobool = icmp ne %"class.xercesc_2_7::RefVectorOf.2"* %0, null, !dbg !2770
  br i1 %tobool, label %if.then, label %if.end, !dbg !2772

if.then:                                          ; preds = %entry
  %fSteps2 = getelementptr inbounds %"class.xercesc_2_7::XercesLocationPath", %"class.xercesc_2_7::XercesLocationPath"* %this1, i32 0, i32 1, !dbg !2773
  %1 = load %"class.xercesc_2_7::RefVectorOf.2"*, %"class.xercesc_2_7::RefVectorOf.2"** %fSteps2, align 8, !dbg !2773
  %2 = bitcast %"class.xercesc_2_7::RefVectorOf.2"* %1 to %"class.xercesc_2_7::BaseRefVectorOf.3"*, !dbg !2774
  %3 = load i32, i32* %index.addr, align 4, !dbg !2775
  %call = call %"class.xercesc_2_7::XercesStep"* @_ZN11xercesc_2_715BaseRefVectorOfINS_10XercesStepEE9elementAtEj(%"class.xercesc_2_7::BaseRefVectorOf.3"* %2, i32 %3), !dbg !2774
  store %"class.xercesc_2_7::XercesStep"* %call, %"class.xercesc_2_7::XercesStep"** %retval, align 8, !dbg !2776
  br label %return, !dbg !2776

if.end:                                           ; preds = %entry
  store %"class.xercesc_2_7::XercesStep"* null, %"class.xercesc_2_7::XercesStep"** %retval, align 8, !dbg !2777
  br label %return, !dbg !2777

return:                                           ; preds = %if.end, %if.then
  %4 = load %"class.xercesc_2_7::XercesStep"*, %"class.xercesc_2_7::XercesStep"** %retval, align 8, !dbg !2778
  ret %"class.xercesc_2_7::XercesStep"* %4, !dbg !2778
}

; Function Attrs: noinline nounwind uwtable
define linkonce_odr dso_local zeroext i16 @_ZNK11xercesc_2_710XercesStep11getAxisTypeEv(%"class.xercesc_2_7::XercesStep"* %this) #1 comdat align 2 !dbg !2779 {
entry:
  %this.addr = alloca %"class.xercesc_2_7::XercesStep"*, align 8
  store %"class.xercesc_2_7::XercesStep"* %this, %"class.xercesc_2_7::XercesStep"** %this.addr, align 8
  call void @llvm.dbg.declare(metadata %"class.xercesc_2_7::XercesStep"** %this.addr, metadata !2785, metadata !DIExpression()), !dbg !2787
  %this1 = load %"class.xercesc_2_7::XercesStep"*, %"class.xercesc_2_7::XercesStep"** %this.addr, align 8
  %fAxisType = getelementptr inbounds %"class.xercesc_2_7::XercesStep", %"class.xercesc_2_7::XercesStep"* %this1, i32 0, i32 1, !dbg !2788
  %0 = load i16, i16* %fAxisType, align 8, !dbg !2788
  ret i16 %0, !dbg !2789
}

; Function Attrs: noinline nounwind uwtable
define linkonce_odr dso_local %"class.xercesc_2_7::XercesNodeTest"* @_ZNK11xercesc_2_710XercesStep11getNodeTestEv(%"class.xercesc_2_7::XercesStep"* %this) #1 comdat align 2 !dbg !2790 {
entry:
  %this.addr = alloca %"class.xercesc_2_7::XercesStep"*, align 8
  store %"class.xercesc_2_7::XercesStep"* %this, %"class.xercesc_2_7::XercesStep"** %this.addr, align 8
  call void @llvm.dbg.declare(metadata %"class.xercesc_2_7::XercesStep"** %this.addr, metadata !2794, metadata !DIExpression()), !dbg !2795
  %this1 = load %"class.xercesc_2_7::XercesStep"*, %"class.xercesc_2_7::XercesStep"** %this.addr, align 8
  %fNodeTest = getelementptr inbounds %"class.xercesc_2_7::XercesStep", %"class.xercesc_2_7::XercesStep"* %this1, i32 0, i32 2, !dbg !2796
  %0 = load %"class.xercesc_2_7::XercesNodeTest"*, %"class.xercesc_2_7::XercesNodeTest"** %fNodeTest, align 8, !dbg !2796
  ret %"class.xercesc_2_7::XercesNodeTest"* %0, !dbg !2797
}

; Function Attrs: noinline nounwind uwtable
define linkonce_odr dso_local signext i16 @_ZNK11xercesc_2_714XercesNodeTest7getTypeEv(%"class.xercesc_2_7::XercesNodeTest"* %this) #1 comdat align 2 !dbg !2798 {
entry:
  %this.addr = alloca %"class.xercesc_2_7::XercesNodeTest"*, align 8
  store %"class.xercesc_2_7::XercesNodeTest"* %this, %"class.xercesc_2_7::XercesNodeTest"** %this.addr, align 8
  call void @llvm.dbg.declare(metadata %"class.xercesc_2_7::XercesNodeTest"** %this.addr, metadata !2804, metadata !DIExpression()), !dbg !2806
  %this1 = load %"class.xercesc_2_7::XercesNodeTest"*, %"class.xercesc_2_7::XercesNodeTest"** %this.addr, align 8
  %fType = getelementptr inbounds %"class.xercesc_2_7::XercesNodeTest", %"class.xercesc_2_7::XercesNodeTest"* %this1, i32 0, i32 1, !dbg !2807
  %0 = load i16, i16* %fType, align 8, !dbg !2807
  ret i16 %0, !dbg !2808
}

; Function Attrs: noinline nounwind uwtable
define linkonce_odr dso_local %"class.xercesc_2_7::QName"* @_ZNK11xercesc_2_714XMLElementDecl14getElementNameEv(%"class.xercesc_2_7::XMLElementDecl"* %this) #1 comdat align 2 !dbg !2809 {
entry:
  %this.addr = alloca %"class.xercesc_2_7::XMLElementDecl"*, align 8
  store %"class.xercesc_2_7::XMLElementDecl"* %this, %"class.xercesc_2_7::XMLElementDecl"** %this.addr, align 8
  call void @llvm.dbg.declare(metadata %"class.xercesc_2_7::XMLElementDecl"** %this.addr, metadata !2816, metadata !DIExpression()), !dbg !2818
  %this1 = load %"class.xercesc_2_7::XMLElementDecl"*, %"class.xercesc_2_7::XMLElementDecl"** %this.addr, align 8
  %fElementName = getelementptr inbounds %"class.xercesc_2_7::XMLElementDecl", %"class.xercesc_2_7::XMLElementDecl"* %this1, i32 0, i32 2, !dbg !2819
  %0 = load %"class.xercesc_2_7::QName"*, %"class.xercesc_2_7::QName"** %fElementName, align 8, !dbg !2819
  ret %"class.xercesc_2_7::QName"* %0, !dbg !2820
}

; Function Attrs: noinline nounwind uwtable
define linkonce_odr dso_local i16* @_ZNK11xercesc_2_75QName12getLocalPartEv(%"class.xercesc_2_7::QName"* %this) #1 comdat align 2 !dbg !2821 {
entry:
  %this.addr = alloca %"class.xercesc_2_7::QName"*, align 8
  store %"class.xercesc_2_7::QName"* %this, %"class.xercesc_2_7::QName"** %this.addr, align 8
  call void @llvm.dbg.declare(metadata %"class.xercesc_2_7::QName"** %this.addr, metadata !2826, metadata !DIExpression()), !dbg !2827
  %this1 = load %"class.xercesc_2_7::QName"*, %"class.xercesc_2_7::QName"** %this.addr, align 8
  %fLocalPart = getelementptr inbounds %"class.xercesc_2_7::QName", %"class.xercesc_2_7::QName"* %this1, i32 0, i32 6, !dbg !2828
  %0 = load i16*, i16** %fLocalPart, align 8, !dbg !2828
  ret i16* %0, !dbg !2829
}

declare dso_local void @_ZN11xercesc_2_75QNameC1EPKtS2_jPNS_13MemoryManagerE(%"class.xercesc_2_7::QName"*, i16*, i16*, i32, %"class.xercesc_2_7::MemoryManager"*) unnamed_addr #8

; Function Attrs: noinline nounwind uwtable
define linkonce_odr dso_local %"class.xercesc_2_7::QName"* @_ZNK11xercesc_2_714XercesNodeTest7getNameEv(%"class.xercesc_2_7::XercesNodeTest"* %this) #1 comdat align 2 !dbg !2830 {
entry:
  %this.addr = alloca %"class.xercesc_2_7::XercesNodeTest"*, align 8
  store %"class.xercesc_2_7::XercesNodeTest"* %this, %"class.xercesc_2_7::XercesNodeTest"** %this.addr, align 8
  call void @llvm.dbg.declare(metadata %"class.xercesc_2_7::XercesNodeTest"** %this.addr, metadata !2834, metadata !DIExpression()), !dbg !2835
  %this1 = load %"class.xercesc_2_7::XercesNodeTest"*, %"class.xercesc_2_7::XercesNodeTest"** %this.addr, align 8
  %fName = getelementptr inbounds %"class.xercesc_2_7::XercesNodeTest", %"class.xercesc_2_7::XercesNodeTest"* %this1, i32 0, i32 2, !dbg !2836
  %0 = load %"class.xercesc_2_7::QName"*, %"class.xercesc_2_7::QName"** %fName, align 8, !dbg !2836
  ret %"class.xercesc_2_7::QName"* %0, !dbg !2837
}

declare dso_local zeroext i1 @_ZNK11xercesc_2_75QNameeqERKS0_(%"class.xercesc_2_7::QName"*, %"class.xercesc_2_7::QName"* dereferenceable(56)) #8

; Function Attrs: nounwind
declare dso_local void @_ZN11xercesc_2_75QNameD1Ev(%"class.xercesc_2_7::QName"*) unnamed_addr #7

; Function Attrs: noinline uwtable
define linkonce_odr dso_local %"class.xercesc_2_7::XMLAttr"* @_ZNK11xercesc_2_715BaseRefVectorOfINS_7XMLAttrEE9elementAtEj(%"class.xercesc_2_7::BaseRefVectorOf.7"* %this, i32 %getAt) #3 comdat align 2 personality i8* bitcast (i32 (...)* @__gxx_personality_v0 to i8*) !dbg !2838 {
entry:
  %this.addr = alloca %"class.xercesc_2_7::BaseRefVectorOf.7"*, align 8
  %getAt.addr = alloca i32, align 4
  %exn.slot = alloca i8*
  %ehselector.slot = alloca i32
  store %"class.xercesc_2_7::BaseRefVectorOf.7"* %this, %"class.xercesc_2_7::BaseRefVectorOf.7"** %this.addr, align 8
  call void @llvm.dbg.declare(metadata %"class.xercesc_2_7::BaseRefVectorOf.7"** %this.addr, metadata !2845, metadata !DIExpression()), !dbg !2847
  store i32 %getAt, i32* %getAt.addr, align 4
  call void @llvm.dbg.declare(metadata i32* %getAt.addr, metadata !2848, metadata !DIExpression()), !dbg !2849
  %this1 = load %"class.xercesc_2_7::BaseRefVectorOf.7"*, %"class.xercesc_2_7::BaseRefVectorOf.7"** %this.addr, align 8
  %0 = load i32, i32* %getAt.addr, align 4, !dbg !2850
  %fCurCount = getelementptr inbounds %"class.xercesc_2_7::BaseRefVectorOf.7", %"class.xercesc_2_7::BaseRefVectorOf.7"* %this1, i32 0, i32 2, !dbg !2852
  %1 = load i32, i32* %fCurCount, align 4, !dbg !2852
  %cmp = icmp uge i32 %0, %1, !dbg !2853
  br i1 %cmp, label %if.then, label %if.end, !dbg !2854

if.then:                                          ; preds = %entry
  %exception = call i8* @__cxa_allocate_exception(i64 48) #10, !dbg !2855
  %2 = bitcast i8* %exception to %"class.xercesc_2_7::ArrayIndexOutOfBoundsException"*, !dbg !2855
  %fMemoryManager = getelementptr inbounds %"class.xercesc_2_7::BaseRefVectorOf.7", %"class.xercesc_2_7::BaseRefVectorOf.7"* %this1, i32 0, i32 5, !dbg !2855
  %3 = load %"class.xercesc_2_7::MemoryManager"*, %"class.xercesc_2_7::MemoryManager"** %fMemoryManager, align 8, !dbg !2855
  invoke void @_ZN11xercesc_2_730ArrayIndexOutOfBoundsExceptionC2EPKcjNS_10XMLExcepts5CodesEPNS_13MemoryManagerE(%"class.xercesc_2_7::ArrayIndexOutOfBoundsException"* %2, i8* getelementptr inbounds ([33 x i8], [33 x i8]* @.str.1, i64 0, i64 0), i32 241, i32 116, %"class.xercesc_2_7::MemoryManager"* %3)
          to label %invoke.cont unwind label %lpad, !dbg !2855

invoke.cont:                                      ; preds = %if.then
  call void @__cxa_throw(i8* %exception, i8* bitcast ({ i8*, i8*, i8* }* @_ZTIN11xercesc_2_730ArrayIndexOutOfBoundsExceptionE to i8*), i8* bitcast (void (%"class.xercesc_2_7::ArrayIndexOutOfBoundsException"*)* @_ZN11xercesc_2_730ArrayIndexOutOfBoundsExceptionD2Ev to i8*)) #13, !dbg !2855
  unreachable, !dbg !2855

lpad:                                             ; preds = %if.then
  %4 = landingpad { i8*, i32 }
          cleanup, !dbg !2856
  %5 = extractvalue { i8*, i32 } %4, 0, !dbg !2856
  store i8* %5, i8** %exn.slot, align 8, !dbg !2856
  %6 = extractvalue { i8*, i32 } %4, 1, !dbg !2856
  store i32 %6, i32* %ehselector.slot, align 4, !dbg !2856
  call void @__cxa_free_exception(i8* %exception) #10, !dbg !2855
  br label %eh.resume, !dbg !2855

if.end:                                           ; preds = %entry
  %fElemList = getelementptr inbounds %"class.xercesc_2_7::BaseRefVectorOf.7", %"class.xercesc_2_7::BaseRefVectorOf.7"* %this1, i32 0, i32 4, !dbg !2857
  %7 = load %"class.xercesc_2_7::XMLAttr"**, %"class.xercesc_2_7::XMLAttr"*** %fElemList, align 8, !dbg !2857
  %8 = load i32, i32* %getAt.addr, align 4, !dbg !2858
  %idxprom = zext i32 %8 to i64, !dbg !2857
  %arrayidx = getelementptr inbounds %"class.xercesc_2_7::XMLAttr"*, %"class.xercesc_2_7::XMLAttr"** %7, i64 %idxprom, !dbg !2857
  %9 = load %"class.xercesc_2_7::XMLAttr"*, %"class.xercesc_2_7::XMLAttr"** %arrayidx, align 8, !dbg !2857
  ret %"class.xercesc_2_7::XMLAttr"* %9, !dbg !2859

eh.resume:                                        ; preds = %lpad
  %exn = load i8*, i8** %exn.slot, align 8, !dbg !2855
  %sel = load i32, i32* %ehselector.slot, align 4, !dbg !2855
  %lpad.val = insertvalue { i8*, i32 } undef, i8* %exn, 0, !dbg !2855
  %lpad.val2 = insertvalue { i8*, i32 } %lpad.val, i32 %sel, 1, !dbg !2855
  resume { i8*, i32 } %lpad.val2, !dbg !2855
}

; Function Attrs: noinline nounwind uwtable
define linkonce_odr dso_local %"class.xercesc_2_7::QName"* @_ZNK11xercesc_2_77XMLAttr10getAttNameEv(%"class.xercesc_2_7::XMLAttr"* %this) #1 comdat align 2 !dbg !2860 {
entry:
  %this.addr = alloca %"class.xercesc_2_7::XMLAttr"*, align 8
  store %"class.xercesc_2_7::XMLAttr"* %this, %"class.xercesc_2_7::XMLAttr"** %this.addr, align 8
  call void @llvm.dbg.declare(metadata %"class.xercesc_2_7::XMLAttr"** %this.addr, metadata !2861, metadata !DIExpression()), !dbg !2862
  %this1 = load %"class.xercesc_2_7::XMLAttr"*, %"class.xercesc_2_7::XMLAttr"** %this.addr, align 8
  %fAttName = getelementptr inbounds %"class.xercesc_2_7::XMLAttr", %"class.xercesc_2_7::XMLAttr"* %this1, i32 0, i32 6, !dbg !2863
  %0 = load %"class.xercesc_2_7::QName"*, %"class.xercesc_2_7::QName"** %fAttName, align 8, !dbg !2863
  ret %"class.xercesc_2_7::QName"* %0, !dbg !2864
}

declare dso_local %"class.xercesc_2_7::SchemaAttDef"* @_ZN11xercesc_2_717SchemaElementDecl9getAttDefEPKti(%"class.xercesc_2_7::SchemaElementDecl"*, i16*, i32) #8

; Function Attrs: noinline uwtable
define linkonce_odr dso_local i16* @_ZNK11xercesc_2_77XMLAttr7getNameEv(%"class.xercesc_2_7::XMLAttr"* %this) #3 comdat align 2 !dbg !2865 {
entry:
  %this.addr = alloca %"class.xercesc_2_7::XMLAttr"*, align 8
  store %"class.xercesc_2_7::XMLAttr"* %this, %"class.xercesc_2_7::XMLAttr"** %this.addr, align 8
  call void @llvm.dbg.declare(metadata %"class.xercesc_2_7::XMLAttr"** %this.addr, metadata !2866, metadata !DIExpression()), !dbg !2867
  %this1 = load %"class.xercesc_2_7::XMLAttr"*, %"class.xercesc_2_7::XMLAttr"** %this.addr, align 8
  %fAttName = getelementptr inbounds %"class.xercesc_2_7::XMLAttr", %"class.xercesc_2_7::XMLAttr"* %this1, i32 0, i32 6, !dbg !2868
  %0 = load %"class.xercesc_2_7::QName"*, %"class.xercesc_2_7::QName"** %fAttName, align 8, !dbg !2868
  %call = call i16* @_ZN11xercesc_2_75QName12getLocalPartEv(%"class.xercesc_2_7::QName"* %0), !dbg !2869
  ret i16* %call, !dbg !2870
}

; Function Attrs: noinline uwtable
define linkonce_odr dso_local i32 @_ZNK11xercesc_2_77XMLAttr8getURIIdEv(%"class.xercesc_2_7::XMLAttr"* %this) #3 comdat align 2 !dbg !2871 {
entry:
  %this.addr = alloca %"class.xercesc_2_7::XMLAttr"*, align 8
  store %"class.xercesc_2_7::XMLAttr"* %this, %"class.xercesc_2_7::XMLAttr"** %this.addr, align 8
  call void @llvm.dbg.declare(metadata %"class.xercesc_2_7::XMLAttr"** %this.addr, metadata !2872, metadata !DIExpression()), !dbg !2873
  %this1 = load %"class.xercesc_2_7::XMLAttr"*, %"class.xercesc_2_7::XMLAttr"** %this.addr, align 8
  %fAttName = getelementptr inbounds %"class.xercesc_2_7::XMLAttr", %"class.xercesc_2_7::XMLAttr"* %this1, i32 0, i32 6, !dbg !2874
  %0 = load %"class.xercesc_2_7::QName"*, %"class.xercesc_2_7::QName"** %fAttName, align 8, !dbg !2874
  %call = call i32 @_ZNK11xercesc_2_75QName6getURIEv(%"class.xercesc_2_7::QName"* %0), !dbg !2875
  ret i32 %call, !dbg !2876
}

; Function Attrs: noinline nounwind uwtable
define linkonce_odr dso_local %"class.xercesc_2_7::DatatypeValidator"* @_ZNK11xercesc_2_712SchemaAttDef20getDatatypeValidatorEv(%"class.xercesc_2_7::SchemaAttDef"* %this) #1 comdat align 2 !dbg !2877 {
entry:
  %this.addr = alloca %"class.xercesc_2_7::SchemaAttDef"*, align 8
  store %"class.xercesc_2_7::SchemaAttDef"* %this, %"class.xercesc_2_7::SchemaAttDef"** %this.addr, align 8
  call void @llvm.dbg.declare(metadata %"class.xercesc_2_7::SchemaAttDef"** %this.addr, metadata !2883, metadata !DIExpression()), !dbg !2885
  %this1 = load %"class.xercesc_2_7::SchemaAttDef"*, %"class.xercesc_2_7::SchemaAttDef"** %this.addr, align 8
  %fDatatypeValidator = getelementptr inbounds %"class.xercesc_2_7::SchemaAttDef", %"class.xercesc_2_7::SchemaAttDef"* %this1, i32 0, i32 6, !dbg !2886
  %0 = load %"class.xercesc_2_7::DatatypeValidator"*, %"class.xercesc_2_7::DatatypeValidator"** %fDatatypeValidator, align 8, !dbg !2886
  ret %"class.xercesc_2_7::DatatypeValidator"* %0, !dbg !2887
}

; Function Attrs: noinline nounwind uwtable
define linkonce_odr dso_local i16* @_ZNK11xercesc_2_77XMLAttr8getValueEv(%"class.xercesc_2_7::XMLAttr"* %this) #1 comdat align 2 !dbg !2888 {
entry:
  %this.addr = alloca %"class.xercesc_2_7::XMLAttr"*, align 8
  store %"class.xercesc_2_7::XMLAttr"* %this, %"class.xercesc_2_7::XMLAttr"** %this.addr, align 8
  call void @llvm.dbg.declare(metadata %"class.xercesc_2_7::XMLAttr"** %this.addr, metadata !2889, metadata !DIExpression()), !dbg !2890
  %this1 = load %"class.xercesc_2_7::XMLAttr"*, %"class.xercesc_2_7::XMLAttr"** %this.addr, align 8
  %fValue = getelementptr inbounds %"class.xercesc_2_7::XMLAttr", %"class.xercesc_2_7::XMLAttr"* %this1, i32 0, i32 5, !dbg !2891
  %0 = load i16*, i16** %fValue, align 8, !dbg !2891
  ret i16* %0, !dbg !2892
}

; Function Attrs: noinline uwtable
define dso_local void @_ZN11xercesc_2_712XPathMatcher10endElementERKNS_14XMLElementDeclEPKt(%"class.xercesc_2_7::XPathMatcher"* %this, %"class.xercesc_2_7::XMLElementDecl"* dereferenceable(40) %elemDecl, i16* %elemContent) unnamed_addr #3 align 2 !dbg !2893 {
entry:
  %this.addr = alloca %"class.xercesc_2_7::XPathMatcher"*, align 8
  %elemDecl.addr = alloca %"class.xercesc_2_7::XMLElementDecl"*, align 8
  %elemContent.addr = alloca i16*, align 8
  %i = alloca i32, align 4
  %j = alloca i32, align 4
  %dv = alloca %"class.xercesc_2_7::DatatypeValidator"*, align 8
  %isNillable = alloca i8, align 1
  store %"class.xercesc_2_7::XPathMatcher"* %this, %"class.xercesc_2_7::XPathMatcher"** %this.addr, align 8
  call void @llvm.dbg.declare(metadata %"class.xercesc_2_7::XPathMatcher"** %this.addr, metadata !2894, metadata !DIExpression()), !dbg !2895
  store %"class.xercesc_2_7::XMLElementDecl"* %elemDecl, %"class.xercesc_2_7::XMLElementDecl"** %elemDecl.addr, align 8
  call void @llvm.dbg.declare(metadata %"class.xercesc_2_7::XMLElementDecl"** %elemDecl.addr, metadata !2896, metadata !DIExpression()), !dbg !2897
  store i16* %elemContent, i16** %elemContent.addr, align 8
  call void @llvm.dbg.declare(metadata i16** %elemContent.addr, metadata !2898, metadata !DIExpression()), !dbg !2899
  %this1 = load %"class.xercesc_2_7::XPathMatcher"*, %"class.xercesc_2_7::XPathMatcher"** %this.addr, align 8
  call void @llvm.dbg.declare(metadata i32* %i, metadata !2900, metadata !DIExpression()), !dbg !2902
  store i32 0, i32* %i, align 4, !dbg !2902
  br label %for.cond, !dbg !2903

for.cond:                                         ; preds = %for.inc35, %entry
  %0 = load i32, i32* %i, align 4, !dbg !2904
  %fLocationPathSize = getelementptr inbounds %"class.xercesc_2_7::XPathMatcher", %"class.xercesc_2_7::XPathMatcher"* %this1, i32 0, i32 1, !dbg !2906
  %1 = load i32, i32* %fLocationPathSize, align 8, !dbg !2906
  %cmp = icmp slt i32 %0, %1, !dbg !2907
  br i1 %cmp, label %for.body, label %for.end37, !dbg !2908

for.body:                                         ; preds = %for.cond
  %fStepIndexes = getelementptr inbounds %"class.xercesc_2_7::XPathMatcher", %"class.xercesc_2_7::XPathMatcher"* %this1, i32 0, i32 5, !dbg !2909
  %2 = load %"class.xercesc_2_7::RefVectorOf"*, %"class.xercesc_2_7::RefVectorOf"** %fStepIndexes, align 8, !dbg !2909
  %3 = bitcast %"class.xercesc_2_7::RefVectorOf"* %2 to %"class.xercesc_2_7::BaseRefVectorOf"*, !dbg !2911
  %4 = load i32, i32* %i, align 4, !dbg !2912
  %call = call %"class.xercesc_2_7::ValueStackOf"* @_ZN11xercesc_2_715BaseRefVectorOfINS_12ValueStackOfIiEEE9elementAtEj(%"class.xercesc_2_7::BaseRefVectorOf"* %3, i32 %4), !dbg !2911
  %call2 = call i32 @_ZN11xercesc_2_712ValueStackOfIiE3popEv(%"class.xercesc_2_7::ValueStackOf"* %call), !dbg !2913
  %fCurrentStep = getelementptr inbounds %"class.xercesc_2_7::XPathMatcher", %"class.xercesc_2_7::XPathMatcher"* %this1, i32 0, i32 4, !dbg !2914
  %5 = load i32*, i32** %fCurrentStep, align 8, !dbg !2914
  %6 = load i32, i32* %i, align 4, !dbg !2915
  %idxprom = sext i32 %6 to i64, !dbg !2914
  %arrayidx = getelementptr inbounds i32, i32* %5, i64 %idxprom, !dbg !2914
  store i32 %call2, i32* %arrayidx, align 4, !dbg !2916
  %fNoMatchDepth = getelementptr inbounds %"class.xercesc_2_7::XPathMatcher", %"class.xercesc_2_7::XPathMatcher"* %this1, i32 0, i32 3, !dbg !2917
  %7 = load i32*, i32** %fNoMatchDepth, align 8, !dbg !2917
  %8 = load i32, i32* %i, align 4, !dbg !2919
  %idxprom3 = sext i32 %8 to i64, !dbg !2917
  %arrayidx4 = getelementptr inbounds i32, i32* %7, i64 %idxprom3, !dbg !2917
  %9 = load i32, i32* %arrayidx4, align 4, !dbg !2917
  %cmp5 = icmp sgt i32 %9, 0, !dbg !2920
  br i1 %cmp5, label %if.then, label %if.else, !dbg !2921

if.then:                                          ; preds = %for.body
  %fNoMatchDepth6 = getelementptr inbounds %"class.xercesc_2_7::XPathMatcher", %"class.xercesc_2_7::XPathMatcher"* %this1, i32 0, i32 3, !dbg !2922
  %10 = load i32*, i32** %fNoMatchDepth6, align 8, !dbg !2922
  %11 = load i32, i32* %i, align 4, !dbg !2924
  %idxprom7 = sext i32 %11 to i64, !dbg !2922
  %arrayidx8 = getelementptr inbounds i32, i32* %10, i64 %idxprom7, !dbg !2922
  %12 = load i32, i32* %arrayidx8, align 4, !dbg !2925
  %dec = add nsw i32 %12, -1, !dbg !2925
  store i32 %dec, i32* %arrayidx8, align 4, !dbg !2925
  br label %if.end34, !dbg !2926

if.else:                                          ; preds = %for.body
  call void @llvm.dbg.declare(metadata i32* %j, metadata !2927, metadata !DIExpression()), !dbg !2929
  store i32 0, i32* %j, align 4, !dbg !2929
  br label %for.cond9, !dbg !2930

for.cond9:                                        ; preds = %for.inc, %if.else
  %13 = load i32, i32* %j, align 4, !dbg !2931
  %14 = load i32, i32* %i, align 4, !dbg !2934
  %cmp10 = icmp slt i32 %13, %14, !dbg !2935
  br i1 %cmp10, label %land.rhs, label %land.end, !dbg !2936

land.rhs:                                         ; preds = %for.cond9
  %fMatched = getelementptr inbounds %"class.xercesc_2_7::XPathMatcher", %"class.xercesc_2_7::XPathMatcher"* %this1, i32 0, i32 2, !dbg !2937
  %15 = load i32*, i32** %fMatched, align 8, !dbg !2937
  %16 = load i32, i32* %j, align 4, !dbg !2938
  %idxprom11 = sext i32 %16 to i64, !dbg !2937
  %arrayidx12 = getelementptr inbounds i32, i32* %15, i64 %idxprom11, !dbg !2937
  %17 = load i32, i32* %arrayidx12, align 4, !dbg !2937
  %and = and i32 %17, 1, !dbg !2939
  %cmp13 = icmp ne i32 %and, 1, !dbg !2940
  br label %land.end

land.end:                                         ; preds = %land.rhs, %for.cond9
  %18 = phi i1 [ false, %for.cond9 ], [ %cmp13, %land.rhs ], !dbg !2941
  br i1 %18, label %for.body14, label %for.end, !dbg !2942

for.body14:                                       ; preds = %land.end
  br label %for.inc, !dbg !2942

for.inc:                                          ; preds = %for.body14
  %19 = load i32, i32* %j, align 4, !dbg !2943
  %inc = add nsw i32 %19, 1, !dbg !2943
  store i32 %inc, i32* %j, align 4, !dbg !2943
  br label %for.cond9, !dbg !2944, !llvm.loop !2945

for.end:                                          ; preds = %land.end
  %20 = load i32, i32* %j, align 4, !dbg !2947
  %21 = load i32, i32* %i, align 4, !dbg !2949
  %cmp15 = icmp slt i32 %20, %21, !dbg !2950
  br i1 %cmp15, label %if.then26, label %lor.lhs.false, !dbg !2951

lor.lhs.false:                                    ; preds = %for.end
  %fMatched16 = getelementptr inbounds %"class.xercesc_2_7::XPathMatcher", %"class.xercesc_2_7::XPathMatcher"* %this1, i32 0, i32 2, !dbg !2952
  %22 = load i32*, i32** %fMatched16, align 8, !dbg !2952
  %23 = load i32, i32* %j, align 4, !dbg !2953
  %idxprom17 = sext i32 %23 to i64, !dbg !2952
  %arrayidx18 = getelementptr inbounds i32, i32* %22, i64 %idxprom17, !dbg !2952
  %24 = load i32, i32* %arrayidx18, align 4, !dbg !2952
  %cmp19 = icmp eq i32 %24, 0, !dbg !2954
  br i1 %cmp19, label %if.then26, label %lor.lhs.false20, !dbg !2955

lor.lhs.false20:                                  ; preds = %lor.lhs.false
  %fMatched21 = getelementptr inbounds %"class.xercesc_2_7::XPathMatcher", %"class.xercesc_2_7::XPathMatcher"* %this1, i32 0, i32 2, !dbg !2956
  %25 = load i32*, i32** %fMatched21, align 8, !dbg !2956
  %26 = load i32, i32* %j, align 4, !dbg !2957
  %idxprom22 = sext i32 %26 to i64, !dbg !2956
  %arrayidx23 = getelementptr inbounds i32, i32* %25, i64 %idxprom22, !dbg !2956
  %27 = load i32, i32* %arrayidx23, align 4, !dbg !2956
  %and24 = and i32 %27, 3, !dbg !2958
  %cmp25 = icmp eq i32 %and24, 3, !dbg !2959
  br i1 %cmp25, label %if.then26, label %if.end, !dbg !2960

if.then26:                                        ; preds = %lor.lhs.false20, %lor.lhs.false, %for.end
  br label %for.inc35, !dbg !2961

if.end:                                           ; preds = %lor.lhs.false20
  call void @llvm.dbg.declare(metadata %"class.xercesc_2_7::DatatypeValidator"** %dv, metadata !2962, metadata !DIExpression()), !dbg !2963
  %28 = load %"class.xercesc_2_7::XMLElementDecl"*, %"class.xercesc_2_7::XMLElementDecl"** %elemDecl.addr, align 8, !dbg !2964
  %29 = bitcast %"class.xercesc_2_7::XMLElementDecl"* %28 to %"class.xercesc_2_7::SchemaElementDecl"*, !dbg !2965
  %call27 = call %"class.xercesc_2_7::DatatypeValidator"* @_ZNK11xercesc_2_717SchemaElementDecl20getDatatypeValidatorEv(%"class.xercesc_2_7::SchemaElementDecl"* %29), !dbg !2966
  store %"class.xercesc_2_7::DatatypeValidator"* %call27, %"class.xercesc_2_7::DatatypeValidator"** %dv, align 8, !dbg !2963
  call void @llvm.dbg.declare(metadata i8* %isNillable, metadata !2967, metadata !DIExpression()), !dbg !2968
  %30 = load %"class.xercesc_2_7::XMLElementDecl"*, %"class.xercesc_2_7::XMLElementDecl"** %elemDecl.addr, align 8, !dbg !2969
  %31 = bitcast %"class.xercesc_2_7::XMLElementDecl"* %30 to %"class.xercesc_2_7::SchemaElementDecl"*, !dbg !2970
  %call28 = call i32 @_ZNK11xercesc_2_717SchemaElementDecl12getMiscFlagsEv(%"class.xercesc_2_7::SchemaElementDecl"* %31), !dbg !2971
  %and29 = and i32 %call28, 1, !dbg !2972
  %cmp30 = icmp ne i32 %and29, 0, !dbg !2973
  %frombool = zext i1 %cmp30 to i8, !dbg !2968
  store i8 %frombool, i8* %isNillable, align 1, !dbg !2968
  %32 = load i16*, i16** %elemContent.addr, align 8, !dbg !2974
  %33 = load %"class.xercesc_2_7::DatatypeValidator"*, %"class.xercesc_2_7::DatatypeValidator"** %dv, align 8, !dbg !2975
  %34 = load i8, i8* %isNillable, align 1, !dbg !2976
  %tobool = trunc i8 %34 to i1, !dbg !2976
  %35 = bitcast %"class.xercesc_2_7::XPathMatcher"* %this1 to void (%"class.xercesc_2_7::XPathMatcher"*, i16*, %"class.xercesc_2_7::DatatypeValidator"*, i1)***, !dbg !2977
  %vtable = load void (%"class.xercesc_2_7::XPathMatcher"*, i16*, %"class.xercesc_2_7::DatatypeValidator"*, i1)**, void (%"class.xercesc_2_7::XPathMatcher"*, i16*, %"class.xercesc_2_7::DatatypeValidator"*, i1)*** %35, align 8, !dbg !2977
  %vfn = getelementptr inbounds void (%"class.xercesc_2_7::XPathMatcher"*, i16*, %"class.xercesc_2_7::DatatypeValidator"*, i1)*, void (%"class.xercesc_2_7::XPathMatcher"*, i16*, %"class.xercesc_2_7::DatatypeValidator"*, i1)** %vtable, i64 6, !dbg !2977
  %36 = load void (%"class.xercesc_2_7::XPathMatcher"*, i16*, %"class.xercesc_2_7::DatatypeValidator"*, i1)*, void (%"class.xercesc_2_7::XPathMatcher"*, i16*, %"class.xercesc_2_7::DatatypeValidator"*, i1)** %vfn, align 8, !dbg !2977
  call void %36(%"class.xercesc_2_7::XPathMatcher"* %this1, i16* %32, %"class.xercesc_2_7::DatatypeValidator"* %33, i1 zeroext %tobool), !dbg !2977
  %fMatched31 = getelementptr inbounds %"class.xercesc_2_7::XPathMatcher", %"class.xercesc_2_7::XPathMatcher"* %this1, i32 0, i32 2, !dbg !2978
  %37 = load i32*, i32** %fMatched31, align 8, !dbg !2978
  %38 = load i32, i32* %i, align 4, !dbg !2979
  %idxprom32 = sext i32 %38 to i64, !dbg !2978
  %arrayidx33 = getelementptr inbounds i32, i32* %37, i64 %idxprom32, !dbg !2978
  store i32 0, i32* %arrayidx33, align 4, !dbg !2980
  br label %if.end34

if.end34:                                         ; preds = %if.end, %if.then
  br label %for.inc35, !dbg !2981

for.inc35:                                        ; preds = %if.end34, %if.then26
  %39 = load i32, i32* %i, align 4, !dbg !2982
  %inc36 = add nsw i32 %39, 1, !dbg !2982
  store i32 %inc36, i32* %i, align 4, !dbg !2982
  br label %for.cond, !dbg !2983, !llvm.loop !2984

for.end37:                                        ; preds = %for.cond
  ret void, !dbg !2986
}

; Function Attrs: noinline uwtable
define linkonce_odr dso_local i32 @_ZN11xercesc_2_712ValueStackOfIiE3popEv(%"class.xercesc_2_7::ValueStackOf"* %this) #3 comdat align 2 personality i8* bitcast (i32 (...)* @__gxx_personality_v0 to i8*) !dbg !2987 {
entry:
  %this.addr = alloca %"class.xercesc_2_7::ValueStackOf"*, align 8
  %curSize = alloca i32, align 4
  %exn.slot = alloca i8*
  %ehselector.slot = alloca i32
  %retVal = alloca i32, align 4
  store %"class.xercesc_2_7::ValueStackOf"* %this, %"class.xercesc_2_7::ValueStackOf"** %this.addr, align 8
  call void @llvm.dbg.declare(metadata %"class.xercesc_2_7::ValueStackOf"** %this.addr, metadata !2988, metadata !DIExpression()), !dbg !2989
  %this1 = load %"class.xercesc_2_7::ValueStackOf"*, %"class.xercesc_2_7::ValueStackOf"** %this.addr, align 8
  call void @llvm.dbg.declare(metadata i32* %curSize, metadata !2990, metadata !DIExpression()), !dbg !2991
  %fVector = getelementptr inbounds %"class.xercesc_2_7::ValueStackOf", %"class.xercesc_2_7::ValueStackOf"* %this1, i32 0, i32 1, !dbg !2992
  %call = call i32 @_ZNK11xercesc_2_713ValueVectorOfIiE4sizeEv(%"class.xercesc_2_7::ValueVectorOf"* %fVector), !dbg !2993
  store i32 %call, i32* %curSize, align 4, !dbg !2991
  %0 = load i32, i32* %curSize, align 4, !dbg !2994
  %cmp = icmp eq i32 %0, 0, !dbg !2996
  br i1 %cmp, label %if.then, label %if.end, !dbg !2997

if.then:                                          ; preds = %entry
  %exception = call i8* @__cxa_allocate_exception(i64 48) #10, !dbg !2998
  %1 = bitcast i8* %exception to %"class.xercesc_2_7::EmptyStackException"*, !dbg !2998
  %fVector2 = getelementptr inbounds %"class.xercesc_2_7::ValueStackOf", %"class.xercesc_2_7::ValueStackOf"* %this1, i32 0, i32 1, !dbg !2998
  %call3 = invoke %"class.xercesc_2_7::MemoryManager"* @_ZNK11xercesc_2_713ValueVectorOfIiE16getMemoryManagerEv(%"class.xercesc_2_7::ValueVectorOf"* %fVector2)
          to label %invoke.cont unwind label %lpad, !dbg !2998

invoke.cont:                                      ; preds = %if.then
  invoke void @_ZN11xercesc_2_719EmptyStackExceptionC2EPKcjNS_10XMLExcepts5CodesEPNS_13MemoryManagerE(%"class.xercesc_2_7::EmptyStackException"* %1, i8* getelementptr inbounds ([30 x i8], [30 x i8]* @.str.2, i64 0, i64 0), i32 70, i32 80, %"class.xercesc_2_7::MemoryManager"* %call3)
          to label %invoke.cont4 unwind label %lpad, !dbg !2998

invoke.cont4:                                     ; preds = %invoke.cont
  call void @__cxa_throw(i8* %exception, i8* bitcast ({ i8*, i8*, i8* }* @_ZTIN11xercesc_2_719EmptyStackExceptionE to i8*), i8* bitcast (void (%"class.xercesc_2_7::EmptyStackException"*)* @_ZN11xercesc_2_719EmptyStackExceptionD2Ev to i8*)) #13, !dbg !2998
  unreachable, !dbg !2998

lpad:                                             ; preds = %invoke.cont, %if.then
  %2 = landingpad { i8*, i32 }
          cleanup, !dbg !2999
  %3 = extractvalue { i8*, i32 } %2, 0, !dbg !2999
  store i8* %3, i8** %exn.slot, align 8, !dbg !2999
  %4 = extractvalue { i8*, i32 } %2, 1, !dbg !2999
  store i32 %4, i32* %ehselector.slot, align 4, !dbg !2999
  call void @__cxa_free_exception(i8* %exception) #10, !dbg !2998
  br label %eh.resume, !dbg !2998

if.end:                                           ; preds = %entry
  call void @llvm.dbg.declare(metadata i32* %retVal, metadata !3000, metadata !DIExpression()), !dbg !3001
  %fVector5 = getelementptr inbounds %"class.xercesc_2_7::ValueStackOf", %"class.xercesc_2_7::ValueStackOf"* %this1, i32 0, i32 1, !dbg !3002
  %5 = load i32, i32* %curSize, align 4, !dbg !3003
  %sub = sub nsw i32 %5, 1, !dbg !3004
  %call6 = call dereferenceable(4) i32* @_ZN11xercesc_2_713ValueVectorOfIiE9elementAtEj(%"class.xercesc_2_7::ValueVectorOf"* %fVector5, i32 %sub), !dbg !3005
  %6 = load i32, i32* %call6, align 4, !dbg !3005
  store i32 %6, i32* %retVal, align 4, !dbg !3001
  %fVector7 = getelementptr inbounds %"class.xercesc_2_7::ValueStackOf", %"class.xercesc_2_7::ValueStackOf"* %this1, i32 0, i32 1, !dbg !3006
  %7 = load i32, i32* %curSize, align 4, !dbg !3007
  %sub8 = sub nsw i32 %7, 1, !dbg !3008
  call void @_ZN11xercesc_2_713ValueVectorOfIiE15removeElementAtEj(%"class.xercesc_2_7::ValueVectorOf"* %fVector7, i32 %sub8), !dbg !3009
  %8 = load i32, i32* %retVal, align 4, !dbg !3010
  ret i32 %8, !dbg !3011

eh.resume:                                        ; preds = %lpad
  %exn = load i8*, i8** %exn.slot, align 8, !dbg !2998
  %sel = load i32, i32* %ehselector.slot, align 4, !dbg !2998
  %lpad.val = insertvalue { i8*, i32 } undef, i8* %exn, 0, !dbg !2998
  %lpad.val9 = insertvalue { i8*, i32 } %lpad.val, i32 %sel, 1, !dbg !2998
  resume { i8*, i32 } %lpad.val9, !dbg !2998
}

; Function Attrs: noinline nounwind uwtable
define linkonce_odr dso_local %"class.xercesc_2_7::DatatypeValidator"* @_ZNK11xercesc_2_717SchemaElementDecl20getDatatypeValidatorEv(%"class.xercesc_2_7::SchemaElementDecl"* %this) #1 comdat align 2 !dbg !3012 {
entry:
  %this.addr = alloca %"class.xercesc_2_7::SchemaElementDecl"*, align 8
  store %"class.xercesc_2_7::SchemaElementDecl"* %this, %"class.xercesc_2_7::SchemaElementDecl"** %this.addr, align 8
  call void @llvm.dbg.declare(metadata %"class.xercesc_2_7::SchemaElementDecl"** %this.addr, metadata !3018, metadata !DIExpression()), !dbg !3020
  %this1 = load %"class.xercesc_2_7::SchemaElementDecl"*, %"class.xercesc_2_7::SchemaElementDecl"** %this.addr, align 8
  %fDatatypeValidator = getelementptr inbounds %"class.xercesc_2_7::SchemaElementDecl", %"class.xercesc_2_7::SchemaElementDecl"* %this1, i32 0, i32 19, !dbg !3021
  %0 = load %"class.xercesc_2_7::DatatypeValidator"*, %"class.xercesc_2_7::DatatypeValidator"** %fDatatypeValidator, align 8, !dbg !3021
  ret %"class.xercesc_2_7::DatatypeValidator"* %0, !dbg !3022
}

; Function Attrs: noinline nounwind uwtable
define linkonce_odr dso_local i32 @_ZNK11xercesc_2_717SchemaElementDecl12getMiscFlagsEv(%"class.xercesc_2_7::SchemaElementDecl"* %this) #1 comdat align 2 !dbg !3023 {
entry:
  %this.addr = alloca %"class.xercesc_2_7::SchemaElementDecl"*, align 8
  store %"class.xercesc_2_7::SchemaElementDecl"* %this, %"class.xercesc_2_7::SchemaElementDecl"** %this.addr, align 8
  call void @llvm.dbg.declare(metadata %"class.xercesc_2_7::SchemaElementDecl"** %this.addr, metadata !3027, metadata !DIExpression()), !dbg !3028
  %this1 = load %"class.xercesc_2_7::SchemaElementDecl"*, %"class.xercesc_2_7::SchemaElementDecl"** %this.addr, align 8
  %fMiscFlags = getelementptr inbounds %"class.xercesc_2_7::SchemaElementDecl", %"class.xercesc_2_7::SchemaElementDecl"* %this1, i32 0, i32 9, !dbg !3029
  %0 = load i32, i32* %fMiscFlags, align 8, !dbg !3029
  ret i32 %0, !dbg !3030
}

; Function Attrs: noinline nounwind uwtable
define dso_local i32 @_ZN11xercesc_2_712XPathMatcher9isMatchedEv(%"class.xercesc_2_7::XPathMatcher"* %this) #1 align 2 !dbg !3031 {
entry:
  %retval = alloca i32, align 4
  %this.addr = alloca %"class.xercesc_2_7::XPathMatcher"*, align 8
  %i = alloca i32, align 4
  store %"class.xercesc_2_7::XPathMatcher"* %this, %"class.xercesc_2_7::XPathMatcher"** %this.addr, align 8
  call void @llvm.dbg.declare(metadata %"class.xercesc_2_7::XPathMatcher"** %this.addr, metadata !3032, metadata !DIExpression()), !dbg !3033
  %this1 = load %"class.xercesc_2_7::XPathMatcher"*, %"class.xercesc_2_7::XPathMatcher"** %this.addr, align 8
  call void @llvm.dbg.declare(metadata i32* %i, metadata !3034, metadata !DIExpression()), !dbg !3036
  store i32 0, i32* %i, align 4, !dbg !3036
  br label %for.cond, !dbg !3037

for.cond:                                         ; preds = %for.inc, %entry
  %0 = load i32, i32* %i, align 4, !dbg !3038
  %fLocationPathSize = getelementptr inbounds %"class.xercesc_2_7::XPathMatcher", %"class.xercesc_2_7::XPathMatcher"* %this1, i32 0, i32 1, !dbg !3040
  %1 = load i32, i32* %fLocationPathSize, align 8, !dbg !3040
  %cmp = icmp slt i32 %0, %1, !dbg !3041
  br i1 %cmp, label %for.body, label %for.end, !dbg !3042

for.body:                                         ; preds = %for.cond
  %fMatched = getelementptr inbounds %"class.xercesc_2_7::XPathMatcher", %"class.xercesc_2_7::XPathMatcher"* %this1, i32 0, i32 2, !dbg !3043
  %2 = load i32*, i32** %fMatched, align 8, !dbg !3043
  %3 = load i32, i32* %i, align 4, !dbg !3046
  %idxprom = sext i32 %3 to i64, !dbg !3043
  %arrayidx = getelementptr inbounds i32, i32* %2, i64 %idxprom, !dbg !3043
  %4 = load i32, i32* %arrayidx, align 4, !dbg !3043
  %and = and i32 %4, 1, !dbg !3047
  %cmp2 = icmp eq i32 %and, 1, !dbg !3048
  br i1 %cmp2, label %land.lhs.true, label %if.end, !dbg !3049

land.lhs.true:                                    ; preds = %for.body
  %fMatched3 = getelementptr inbounds %"class.xercesc_2_7::XPathMatcher", %"class.xercesc_2_7::XPathMatcher"* %this1, i32 0, i32 2, !dbg !3050
  %5 = load i32*, i32** %fMatched3, align 8, !dbg !3050
  %6 = load i32, i32* %i, align 4, !dbg !3051
  %idxprom4 = sext i32 %6 to i64, !dbg !3050
  %arrayidx5 = getelementptr inbounds i32, i32* %5, i64 %idxprom4, !dbg !3050
  %7 = load i32, i32* %arrayidx5, align 4, !dbg !3050
  %and6 = and i32 %7, 13, !dbg !3052
  %cmp7 = icmp ne i32 %and6, 13, !dbg !3053
  br i1 %cmp7, label %if.then, label %if.end, !dbg !3054

if.then:                                          ; preds = %land.lhs.true
  %fMatched8 = getelementptr inbounds %"class.xercesc_2_7::XPathMatcher", %"class.xercesc_2_7::XPathMatcher"* %this1, i32 0, i32 2, !dbg !3055
  %8 = load i32*, i32** %fMatched8, align 8, !dbg !3055
  %9 = load i32, i32* %i, align 4, !dbg !3056
  %idxprom9 = sext i32 %9 to i64, !dbg !3055
  %arrayidx10 = getelementptr inbounds i32, i32* %8, i64 %idxprom9, !dbg !3055
  %10 = load i32, i32* %arrayidx10, align 4, !dbg !3055
  store i32 %10, i32* %retval, align 4, !dbg !3057
  br label %return, !dbg !3057

if.end:                                           ; preds = %land.lhs.true, %for.body
  br label %for.inc, !dbg !3058

for.inc:                                          ; preds = %if.end
  %11 = load i32, i32* %i, align 4, !dbg !3059
  %inc = add nsw i32 %11, 1, !dbg !3059
  store i32 %inc, i32* %i, align 4, !dbg !3059
  br label %for.cond, !dbg !3060, !llvm.loop !3061

for.end:                                          ; preds = %for.cond
  store i32 0, i32* %retval, align 4, !dbg !3063
  br label %return, !dbg !3063

return:                                           ; preds = %for.end, %if.then
  %12 = load i32, i32* %retval, align 4, !dbg !3064
  ret i32 %12, !dbg !3064
}

; Function Attrs: noinline nounwind uwtable
define dso_local void @_ZN11xercesc_2_712XPathMatcher7matchedEPKtPNS_17DatatypeValidatorEb(%"class.xercesc_2_7::XPathMatcher"* %this, i16* %0, %"class.xercesc_2_7::DatatypeValidator"* %1, i1 zeroext %2) unnamed_addr #1 align 2 !dbg !3065 {
entry:
  %this.addr = alloca %"class.xercesc_2_7::XPathMatcher"*, align 8
  %.addr = alloca i16*, align 8
  %.addr1 = alloca %"class.xercesc_2_7::DatatypeValidator"*, align 8
  %.addr2 = alloca i8, align 1
  store %"class.xercesc_2_7::XPathMatcher"* %this, %"class.xercesc_2_7::XPathMatcher"** %this.addr, align 8
  call void @llvm.dbg.declare(metadata %"class.xercesc_2_7::XPathMatcher"** %this.addr, metadata !3066, metadata !DIExpression()), !dbg !3067
  store i16* %0, i16** %.addr, align 8
  call void @llvm.dbg.declare(metadata i16** %.addr, metadata !3068, metadata !DIExpression()), !dbg !3069
  store %"class.xercesc_2_7::DatatypeValidator"* %1, %"class.xercesc_2_7::DatatypeValidator"** %.addr1, align 8
  call void @llvm.dbg.declare(metadata %"class.xercesc_2_7::DatatypeValidator"** %.addr1, metadata !3070, metadata !DIExpression()), !dbg !3071
  %frombool = zext i1 %2 to i8
  store i8 %frombool, i8* %.addr2, align 1
  call void @llvm.dbg.declare(metadata i8* %.addr2, metadata !3072, metadata !DIExpression()), !dbg !3073
  %this3 = load %"class.xercesc_2_7::XPathMatcher"*, %"class.xercesc_2_7::XPathMatcher"** %this.addr, align 8
  ret void, !dbg !3074
}

; Function Attrs: noinline uwtable
define dso_local i32 @_ZNK11xercesc_2_712XPathMatcher15getInitialDepthEv(%"class.xercesc_2_7::XPathMatcher"* %this) unnamed_addr #3 align 2 personality i8* bitcast (i32 (...)* @__gxx_personality_v0 to i8*) !dbg !3075 {
entry:
  %this.addr = alloca %"class.xercesc_2_7::XPathMatcher"*, align 8
  %exn.slot = alloca i8*
  %ehselector.slot = alloca i32
  store %"class.xercesc_2_7::XPathMatcher"* %this, %"class.xercesc_2_7::XPathMatcher"** %this.addr, align 8
  call void @llvm.dbg.declare(metadata %"class.xercesc_2_7::XPathMatcher"** %this.addr, metadata !3076, metadata !DIExpression()), !dbg !3078
  %this1 = load %"class.xercesc_2_7::XPathMatcher"*, %"class.xercesc_2_7::XPathMatcher"** %this.addr, align 8
  %exception = call i8* @__cxa_allocate_exception(i64 48) #10, !dbg !3079
  %0 = bitcast i8* %exception to %"class.xercesc_2_7::RuntimeException"*, !dbg !3079
  %fMemoryManager = getelementptr inbounds %"class.xercesc_2_7::XPathMatcher", %"class.xercesc_2_7::XPathMatcher"* %this1, i32 0, i32 8, !dbg !3079
  %1 = load %"class.xercesc_2_7::MemoryManager"*, %"class.xercesc_2_7::MemoryManager"** %fMemoryManager, align 8, !dbg !3079
  invoke void @_ZN11xercesc_2_716RuntimeExceptionC2EPKcjNS_10XMLExcepts5CodesEPNS_13MemoryManagerE(%"class.xercesc_2_7::RuntimeException"* %0, i8* getelementptr inbounds ([17 x i8], [17 x i8]* @.str, i64 0, i64 0), i32 352, i32 294, %"class.xercesc_2_7::MemoryManager"* %1)
          to label %invoke.cont unwind label %lpad, !dbg !3079

invoke.cont:                                      ; preds = %entry
  call void @__cxa_throw(i8* %exception, i8* bitcast ({ i8*, i8*, i8* }* @_ZTIN11xercesc_2_716RuntimeExceptionE to i8*), i8* bitcast (void (%"class.xercesc_2_7::RuntimeException"*)* @_ZN11xercesc_2_716RuntimeExceptionD2Ev to i8*)) #13, !dbg !3079
  unreachable, !dbg !3079

lpad:                                             ; preds = %entry
  %2 = landingpad { i8*, i32 }
          cleanup, !dbg !3080
  %3 = extractvalue { i8*, i32 } %2, 0, !dbg !3080
  store i8* %3, i8** %exn.slot, align 8, !dbg !3080
  %4 = extractvalue { i8*, i32 } %2, 1, !dbg !3080
  store i32 %4, i32* %ehselector.slot, align 4, !dbg !3080
  call void @__cxa_free_exception(i8* %exception) #10, !dbg !3079
  br label %eh.resume, !dbg !3079

eh.resume:                                        ; preds = %lpad
  %exn = load i8*, i8** %exn.slot, align 8, !dbg !3079
  %sel = load i32, i32* %ehselector.slot, align 4, !dbg !3079
  %lpad.val = insertvalue { i8*, i32 } undef, i8* %exn, 0, !dbg !3079
  %lpad.val2 = insertvalue { i8*, i32 } %lpad.val, i32 %sel, 1, !dbg !3079
  resume { i8*, i32 } %lpad.val2, !dbg !3079
}

declare dso_local i8* @__cxa_allocate_exception(i64)

; Function Attrs: noinline uwtable
define linkonce_odr dso_local void @_ZN11xercesc_2_716RuntimeExceptionC2EPKcjNS_10XMLExcepts5CodesEPNS_13MemoryManagerE(%"class.xercesc_2_7::RuntimeException"* %this, i8* %srcFile, i32 %srcLine, i32 %toThrow, %"class.xercesc_2_7::MemoryManager"* %memoryManager) unnamed_addr #3 comdat align 2 personality i8* bitcast (i32 (...)* @__gxx_personality_v0 to i8*) !dbg !3081 {
entry:
  %this.addr = alloca %"class.xercesc_2_7::RuntimeException"*, align 8
  %srcFile.addr = alloca i8*, align 8
  %srcLine.addr = alloca i32, align 4
  %toThrow.addr = alloca i32, align 4
  %memoryManager.addr = alloca %"class.xercesc_2_7::MemoryManager"*, align 8
  %exn.slot = alloca i8*
  %ehselector.slot = alloca i32
  store %"class.xercesc_2_7::RuntimeException"* %this, %"class.xercesc_2_7::RuntimeException"** %this.addr, align 8
  call void @llvm.dbg.declare(metadata %"class.xercesc_2_7::RuntimeException"** %this.addr, metadata !3120, metadata !DIExpression()), !dbg !3122
  store i8* %srcFile, i8** %srcFile.addr, align 8
  call void @llvm.dbg.declare(metadata i8** %srcFile.addr, metadata !3123, metadata !DIExpression()), !dbg !3124
  store i32 %srcLine, i32* %srcLine.addr, align 4
  call void @llvm.dbg.declare(metadata i32* %srcLine.addr, metadata !3125, metadata !DIExpression()), !dbg !3124
  store i32 %toThrow, i32* %toThrow.addr, align 4
  call void @llvm.dbg.declare(metadata i32* %toThrow.addr, metadata !3126, metadata !DIExpression()), !dbg !3124
  store %"class.xercesc_2_7::MemoryManager"* %memoryManager, %"class.xercesc_2_7::MemoryManager"** %memoryManager.addr, align 8
  call void @llvm.dbg.declare(metadata %"class.xercesc_2_7::MemoryManager"** %memoryManager.addr, metadata !3127, metadata !DIExpression()), !dbg !3124
  %this1 = load %"class.xercesc_2_7::RuntimeException"*, %"class.xercesc_2_7::RuntimeException"** %this.addr, align 8
  %0 = bitcast %"class.xercesc_2_7::RuntimeException"* %this1 to %"class.xercesc_2_7::XMLException"*, !dbg !3124
  %1 = load i8*, i8** %srcFile.addr, align 8, !dbg !3124
  %2 = load i32, i32* %srcLine.addr, align 4, !dbg !3124
  %3 = load %"class.xercesc_2_7::MemoryManager"*, %"class.xercesc_2_7::MemoryManager"** %memoryManager.addr, align 8, !dbg !3124
  call void @_ZN11xercesc_2_712XMLExceptionC2EPKcjPNS_13MemoryManagerE(%"class.xercesc_2_7::XMLException"* %0, i8* %1, i32 %2, %"class.xercesc_2_7::MemoryManager"* %3), !dbg !3124
  %4 = bitcast %"class.xercesc_2_7::RuntimeException"* %this1 to i32 (...)***, !dbg !3124
  store i32 (...)** bitcast (i8** getelementptr inbounds ({ [6 x i8*] }, { [6 x i8*] }* @_ZTVN11xercesc_2_716RuntimeExceptionE, i32 0, inrange i32 0, i32 2) to i32 (...)**), i32 (...)*** %4, align 8, !dbg !3124
  %5 = bitcast %"class.xercesc_2_7::RuntimeException"* %this1 to %"class.xercesc_2_7::XMLException"*, !dbg !3128
  %6 = load i32, i32* %toThrow.addr, align 4, !dbg !3128
  invoke void @_ZN11xercesc_2_712XMLException14loadExceptTextENS_10XMLExcepts5CodesE(%"class.xercesc_2_7::XMLException"* %5, i32 %6)
          to label %invoke.cont unwind label %lpad, !dbg !3128

invoke.cont:                                      ; preds = %entry
  ret void, !dbg !3124

lpad:                                             ; preds = %entry
  %7 = landingpad { i8*, i32 }
          cleanup, !dbg !3128
  %8 = extractvalue { i8*, i32 } %7, 0, !dbg !3128
  store i8* %8, i8** %exn.slot, align 8, !dbg !3128
  %9 = extractvalue { i8*, i32 } %7, 1, !dbg !3128
  store i32 %9, i32* %ehselector.slot, align 4, !dbg !3128
  %10 = bitcast %"class.xercesc_2_7::RuntimeException"* %this1 to %"class.xercesc_2_7::XMLException"*, !dbg !3128
  call void @_ZN11xercesc_2_712XMLExceptionD2Ev(%"class.xercesc_2_7::XMLException"* %10) #10, !dbg !3128
  br label %eh.resume, !dbg !3128

eh.resume:                                        ; preds = %lpad
  %exn = load i8*, i8** %exn.slot, align 8, !dbg !3128
  %sel = load i32, i32* %ehselector.slot, align 4, !dbg !3128
  %lpad.val = insertvalue { i8*, i32 } undef, i8* %exn, 0, !dbg !3128
  %lpad.val2 = insertvalue { i8*, i32 } %lpad.val, i32 %sel, 1, !dbg !3128
  resume { i8*, i32 } %lpad.val2, !dbg !3128
}

declare dso_local void @__cxa_free_exception(i8*)

; Function Attrs: noinline nounwind uwtable
define linkonce_odr dso_local void @_ZN11xercesc_2_716RuntimeExceptionD2Ev(%"class.xercesc_2_7::RuntimeException"* %this) unnamed_addr #1 comdat align 2 !dbg !3130 {
entry:
  %this.addr = alloca %"class.xercesc_2_7::RuntimeException"*, align 8
  store %"class.xercesc_2_7::RuntimeException"* %this, %"class.xercesc_2_7::RuntimeException"** %this.addr, align 8
  call void @llvm.dbg.declare(metadata %"class.xercesc_2_7::RuntimeException"** %this.addr, metadata !3131, metadata !DIExpression()), !dbg !3132
  %this1 = load %"class.xercesc_2_7::RuntimeException"*, %"class.xercesc_2_7::RuntimeException"** %this.addr, align 8
  %0 = bitcast %"class.xercesc_2_7::RuntimeException"* %this1 to %"class.xercesc_2_7::XMLException"*, !dbg !3133
  call void @_ZN11xercesc_2_712XMLExceptionD2Ev(%"class.xercesc_2_7::XMLException"* %0) #10, !dbg !3133
  ret void, !dbg !3135
}

declare dso_local void @__cxa_throw(i8*, i8*, i8*)

; Function Attrs: noinline nounwind uwtable
define linkonce_odr dso_local void @_ZN11xercesc_2_712XPathScannerD2Ev(%"class.xercesc_2_7::XPathScanner"* %this) unnamed_addr #1 comdat align 2 !dbg !3136 {
entry:
  %this.addr = alloca %"class.xercesc_2_7::XPathScanner"*, align 8
  store %"class.xercesc_2_7::XPathScanner"* %this, %"class.xercesc_2_7::XPathScanner"** %this.addr, align 8
  call void @llvm.dbg.declare(metadata %"class.xercesc_2_7::XPathScanner"** %this.addr, metadata !3137, metadata !DIExpression()), !dbg !3138
  %this1 = load %"class.xercesc_2_7::XPathScanner"*, %"class.xercesc_2_7::XPathScanner"** %this.addr, align 8
  ret void, !dbg !3139
}

; Function Attrs: noinline nounwind uwtable
define linkonce_odr dso_local void @_ZN11xercesc_2_712XPathScannerD0Ev(%"class.xercesc_2_7::XPathScanner"* %this) unnamed_addr #1 comdat align 2 !dbg !3140 {
entry:
  %this.addr = alloca %"class.xercesc_2_7::XPathScanner"*, align 8
  store %"class.xercesc_2_7::XPathScanner"* %this, %"class.xercesc_2_7::XPathScanner"** %this.addr, align 8
  call void @llvm.dbg.declare(metadata %"class.xercesc_2_7::XPathScanner"** %this.addr, metadata !3141, metadata !DIExpression()), !dbg !3142
  %this1 = load %"class.xercesc_2_7::XPathScanner"*, %"class.xercesc_2_7::XPathScanner"** %this.addr, align 8
  call void @_ZN11xercesc_2_712XPathScannerD2Ev(%"class.xercesc_2_7::XPathScanner"* %this1) #10, !dbg !3143
  %0 = bitcast %"class.xercesc_2_7::XPathScanner"* %this1 to i8*, !dbg !3143
  call void @_ZN11xercesc_2_77XMemorydlEPv(i8* %0) #10, !dbg !3143
  ret void, !dbg !3144
}

; Function Attrs: noinline nounwind uwtable
define linkonce_odr dso_local void @_ZN11xercesc_2_713XMLAttDefListD2Ev(%"class.xercesc_2_7::XMLAttDefList"* %this) unnamed_addr #1 comdat align 2 !dbg !3145 {
entry:
  %this.addr = alloca %"class.xercesc_2_7::XMLAttDefList"*, align 8
  store %"class.xercesc_2_7::XMLAttDefList"* %this, %"class.xercesc_2_7::XMLAttDefList"** %this.addr, align 8
  call void @llvm.dbg.declare(metadata %"class.xercesc_2_7::XMLAttDefList"** %this.addr, metadata !3146, metadata !DIExpression()), !dbg !3147
  %this1 = load %"class.xercesc_2_7::XMLAttDefList"*, %"class.xercesc_2_7::XMLAttDefList"** %this.addr, align 8
  %0 = bitcast %"class.xercesc_2_7::XMLAttDefList"* %this1 to %"class.xercesc_2_7::XSerializable"*, !dbg !3148
  call void @_ZN11xercesc_2_713XSerializableD2Ev(%"class.xercesc_2_7::XSerializable"* %0) #10, !dbg !3148
  ret void, !dbg !3150
}

declare dso_local zeroext i1 @_ZNK11xercesc_2_713XMLAttDefList14isSerializableEv(%"class.xercesc_2_7::XMLAttDefList"*) unnamed_addr #8

declare dso_local void @_ZN11xercesc_2_713XMLAttDefList9serializeERNS_16XSerializeEngineE(%"class.xercesc_2_7::XMLAttDefList"*, %"class.xercesc_2_7::XSerializeEngine"* dereferenceable(104)) unnamed_addr #8

declare dso_local %"class.xercesc_2_7::XProtoType"* @_ZNK11xercesc_2_713XMLAttDefList12getProtoTypeEv(%"class.xercesc_2_7::XMLAttDefList"*) unnamed_addr #8

declare dso_local void @__cxa_pure_virtual() unnamed_addr

; Function Attrs: noinline nounwind uwtable
define linkonce_odr dso_local i32 @_ZNK11xercesc_2_715BaseRefVectorOfINS_10XercesStepEE4sizeEv(%"class.xercesc_2_7::BaseRefVectorOf.3"* %this) #1 comdat align 2 !dbg !3151 {
entry:
  %this.addr = alloca %"class.xercesc_2_7::BaseRefVectorOf.3"*, align 8
  store %"class.xercesc_2_7::BaseRefVectorOf.3"* %this, %"class.xercesc_2_7::BaseRefVectorOf.3"** %this.addr, align 8
  call void @llvm.dbg.declare(metadata %"class.xercesc_2_7::BaseRefVectorOf.3"** %this.addr, metadata !3158, metadata !DIExpression()), !dbg !3160
  %this1 = load %"class.xercesc_2_7::BaseRefVectorOf.3"*, %"class.xercesc_2_7::BaseRefVectorOf.3"** %this.addr, align 8
  %fCurCount = getelementptr inbounds %"class.xercesc_2_7::BaseRefVectorOf.3", %"class.xercesc_2_7::BaseRefVectorOf.3"* %this1, i32 0, i32 2, !dbg !3161
  %0 = load i32, i32* %fCurCount, align 4, !dbg !3161
  ret i32 %0, !dbg !3162
}

; Function Attrs: noinline uwtable
define linkonce_odr dso_local %"class.xercesc_2_7::XercesStep"* @_ZN11xercesc_2_715BaseRefVectorOfINS_10XercesStepEE9elementAtEj(%"class.xercesc_2_7::BaseRefVectorOf.3"* %this, i32 %getAt) #3 comdat align 2 personality i8* bitcast (i32 (...)* @__gxx_personality_v0 to i8*) !dbg !3163 {
entry:
  %this.addr = alloca %"class.xercesc_2_7::BaseRefVectorOf.3"*, align 8
  %getAt.addr = alloca i32, align 4
  %exn.slot = alloca i8*
  %ehselector.slot = alloca i32
  store %"class.xercesc_2_7::BaseRefVectorOf.3"* %this, %"class.xercesc_2_7::BaseRefVectorOf.3"** %this.addr, align 8
  call void @llvm.dbg.declare(metadata %"class.xercesc_2_7::BaseRefVectorOf.3"** %this.addr, metadata !3168, metadata !DIExpression()), !dbg !3170
  store i32 %getAt, i32* %getAt.addr, align 4
  call void @llvm.dbg.declare(metadata i32* %getAt.addr, metadata !3171, metadata !DIExpression()), !dbg !3172
  %this1 = load %"class.xercesc_2_7::BaseRefVectorOf.3"*, %"class.xercesc_2_7::BaseRefVectorOf.3"** %this.addr, align 8
  %0 = load i32, i32* %getAt.addr, align 4, !dbg !3173
  %fCurCount = getelementptr inbounds %"class.xercesc_2_7::BaseRefVectorOf.3", %"class.xercesc_2_7::BaseRefVectorOf.3"* %this1, i32 0, i32 2, !dbg !3175
  %1 = load i32, i32* %fCurCount, align 4, !dbg !3175
  %cmp = icmp uge i32 %0, %1, !dbg !3176
  br i1 %cmp, label %if.then, label %if.end, !dbg !3177

if.then:                                          ; preds = %entry
  %exception = call i8* @__cxa_allocate_exception(i64 48) #10, !dbg !3178
  %2 = bitcast i8* %exception to %"class.xercesc_2_7::ArrayIndexOutOfBoundsException"*, !dbg !3178
  %fMemoryManager = getelementptr inbounds %"class.xercesc_2_7::BaseRefVectorOf.3", %"class.xercesc_2_7::BaseRefVectorOf.3"* %this1, i32 0, i32 5, !dbg !3178
  %3 = load %"class.xercesc_2_7::MemoryManager"*, %"class.xercesc_2_7::MemoryManager"** %fMemoryManager, align 8, !dbg !3178
  invoke void @_ZN11xercesc_2_730ArrayIndexOutOfBoundsExceptionC2EPKcjNS_10XMLExcepts5CodesEPNS_13MemoryManagerE(%"class.xercesc_2_7::ArrayIndexOutOfBoundsException"* %2, i8* getelementptr inbounds ([33 x i8], [33 x i8]* @.str.1, i64 0, i64 0), i32 249, i32 116, %"class.xercesc_2_7::MemoryManager"* %3)
          to label %invoke.cont unwind label %lpad, !dbg !3178

invoke.cont:                                      ; preds = %if.then
  call void @__cxa_throw(i8* %exception, i8* bitcast ({ i8*, i8*, i8* }* @_ZTIN11xercesc_2_730ArrayIndexOutOfBoundsExceptionE to i8*), i8* bitcast (void (%"class.xercesc_2_7::ArrayIndexOutOfBoundsException"*)* @_ZN11xercesc_2_730ArrayIndexOutOfBoundsExceptionD2Ev to i8*)) #13, !dbg !3178
  unreachable, !dbg !3178

lpad:                                             ; preds = %if.then
  %4 = landingpad { i8*, i32 }
          cleanup, !dbg !3179
  %5 = extractvalue { i8*, i32 } %4, 0, !dbg !3179
  store i8* %5, i8** %exn.slot, align 8, !dbg !3179
  %6 = extractvalue { i8*, i32 } %4, 1, !dbg !3179
  store i32 %6, i32* %ehselector.slot, align 4, !dbg !3179
  call void @__cxa_free_exception(i8* %exception) #10, !dbg !3178
  br label %eh.resume, !dbg !3178

if.end:                                           ; preds = %entry
  %fElemList = getelementptr inbounds %"class.xercesc_2_7::BaseRefVectorOf.3", %"class.xercesc_2_7::BaseRefVectorOf.3"* %this1, i32 0, i32 4, !dbg !3180
  %7 = load %"class.xercesc_2_7::XercesStep"**, %"class.xercesc_2_7::XercesStep"*** %fElemList, align 8, !dbg !3180
  %8 = load i32, i32* %getAt.addr, align 4, !dbg !3181
  %idxprom = zext i32 %8 to i64, !dbg !3180
  %arrayidx = getelementptr inbounds %"class.xercesc_2_7::XercesStep"*, %"class.xercesc_2_7::XercesStep"** %7, i64 %idxprom, !dbg !3180
  %9 = load %"class.xercesc_2_7::XercesStep"*, %"class.xercesc_2_7::XercesStep"** %arrayidx, align 8, !dbg !3180
  ret %"class.xercesc_2_7::XercesStep"* %9, !dbg !3182

eh.resume:                                        ; preds = %lpad
  %exn = load i8*, i8** %exn.slot, align 8, !dbg !3178
  %sel = load i32, i32* %ehselector.slot, align 4, !dbg !3178
  %lpad.val = insertvalue { i8*, i32 } undef, i8* %exn, 0, !dbg !3178
  %lpad.val2 = insertvalue { i8*, i32 } %lpad.val, i32 %sel, 1, !dbg !3178
  resume { i8*, i32 } %lpad.val2, !dbg !3178
}

; Function Attrs: noinline uwtable
define linkonce_odr dso_local void @_ZN11xercesc_2_730ArrayIndexOutOfBoundsExceptionC2EPKcjNS_10XMLExcepts5CodesEPNS_13MemoryManagerE(%"class.xercesc_2_7::ArrayIndexOutOfBoundsException"* %this, i8* %srcFile, i32 %srcLine, i32 %toThrow, %"class.xercesc_2_7::MemoryManager"* %memoryManager) unnamed_addr #3 comdat align 2 personality i8* bitcast (i32 (...)* @__gxx_personality_v0 to i8*) !dbg !3183 {
entry:
  %this.addr = alloca %"class.xercesc_2_7::ArrayIndexOutOfBoundsException"*, align 8
  %srcFile.addr = alloca i8*, align 8
  %srcLine.addr = alloca i32, align 4
  %toThrow.addr = alloca i32, align 4
  %memoryManager.addr = alloca %"class.xercesc_2_7::MemoryManager"*, align 8
  %exn.slot = alloca i8*
  %ehselector.slot = alloca i32
  store %"class.xercesc_2_7::ArrayIndexOutOfBoundsException"* %this, %"class.xercesc_2_7::ArrayIndexOutOfBoundsException"** %this.addr, align 8
  call void @llvm.dbg.declare(metadata %"class.xercesc_2_7::ArrayIndexOutOfBoundsException"** %this.addr, metadata !3218, metadata !DIExpression()), !dbg !3220
  store i8* %srcFile, i8** %srcFile.addr, align 8
  call void @llvm.dbg.declare(metadata i8** %srcFile.addr, metadata !3221, metadata !DIExpression()), !dbg !3222
  store i32 %srcLine, i32* %srcLine.addr, align 4
  call void @llvm.dbg.declare(metadata i32* %srcLine.addr, metadata !3223, metadata !DIExpression()), !dbg !3222
  store i32 %toThrow, i32* %toThrow.addr, align 4
  call void @llvm.dbg.declare(metadata i32* %toThrow.addr, metadata !3224, metadata !DIExpression()), !dbg !3222
  store %"class.xercesc_2_7::MemoryManager"* %memoryManager, %"class.xercesc_2_7::MemoryManager"** %memoryManager.addr, align 8
  call void @llvm.dbg.declare(metadata %"class.xercesc_2_7::MemoryManager"** %memoryManager.addr, metadata !3225, metadata !DIExpression()), !dbg !3222
  %this1 = load %"class.xercesc_2_7::ArrayIndexOutOfBoundsException"*, %"class.xercesc_2_7::ArrayIndexOutOfBoundsException"** %this.addr, align 8
  %0 = bitcast %"class.xercesc_2_7::ArrayIndexOutOfBoundsException"* %this1 to %"class.xercesc_2_7::XMLException"*, !dbg !3222
  %1 = load i8*, i8** %srcFile.addr, align 8, !dbg !3222
  %2 = load i32, i32* %srcLine.addr, align 4, !dbg !3222
  %3 = load %"class.xercesc_2_7::MemoryManager"*, %"class.xercesc_2_7::MemoryManager"** %memoryManager.addr, align 8, !dbg !3222
  call void @_ZN11xercesc_2_712XMLExceptionC2EPKcjPNS_13MemoryManagerE(%"class.xercesc_2_7::XMLException"* %0, i8* %1, i32 %2, %"class.xercesc_2_7::MemoryManager"* %3), !dbg !3222
  %4 = bitcast %"class.xercesc_2_7::ArrayIndexOutOfBoundsException"* %this1 to i32 (...)***, !dbg !3222
  store i32 (...)** bitcast (i8** getelementptr inbounds ({ [6 x i8*] }, { [6 x i8*] }* @_ZTVN11xercesc_2_730ArrayIndexOutOfBoundsExceptionE, i32 0, inrange i32 0, i32 2) to i32 (...)**), i32 (...)*** %4, align 8, !dbg !3222
  %5 = bitcast %"class.xercesc_2_7::ArrayIndexOutOfBoundsException"* %this1 to %"class.xercesc_2_7::XMLException"*, !dbg !3226
  %6 = load i32, i32* %toThrow.addr, align 4, !dbg !3226
  invoke void @_ZN11xercesc_2_712XMLException14loadExceptTextENS_10XMLExcepts5CodesE(%"class.xercesc_2_7::XMLException"* %5, i32 %6)
          to label %invoke.cont unwind label %lpad, !dbg !3226

invoke.cont:                                      ; preds = %entry
  ret void, !dbg !3222

lpad:                                             ; preds = %entry
  %7 = landingpad { i8*, i32 }
          cleanup, !dbg !3226
  %8 = extractvalue { i8*, i32 } %7, 0, !dbg !3226
  store i8* %8, i8** %exn.slot, align 8, !dbg !3226
  %9 = extractvalue { i8*, i32 } %7, 1, !dbg !3226
  store i32 %9, i32* %ehselector.slot, align 4, !dbg !3226
  %10 = bitcast %"class.xercesc_2_7::ArrayIndexOutOfBoundsException"* %this1 to %"class.xercesc_2_7::XMLException"*, !dbg !3226
  call void @_ZN11xercesc_2_712XMLExceptionD2Ev(%"class.xercesc_2_7::XMLException"* %10) #10, !dbg !3226
  br label %eh.resume, !dbg !3226

eh.resume:                                        ; preds = %lpad
  %exn = load i8*, i8** %exn.slot, align 8, !dbg !3226
  %sel = load i32, i32* %ehselector.slot, align 4, !dbg !3226
  %lpad.val = insertvalue { i8*, i32 } undef, i8* %exn, 0, !dbg !3226
  %lpad.val2 = insertvalue { i8*, i32 } %lpad.val, i32 %sel, 1, !dbg !3226
  resume { i8*, i32 } %lpad.val2, !dbg !3226
}

; Function Attrs: noinline nounwind uwtable
define linkonce_odr dso_local void @_ZN11xercesc_2_730ArrayIndexOutOfBoundsExceptionD2Ev(%"class.xercesc_2_7::ArrayIndexOutOfBoundsException"* %this) unnamed_addr #1 comdat align 2 !dbg !3228 {
entry:
  %this.addr = alloca %"class.xercesc_2_7::ArrayIndexOutOfBoundsException"*, align 8
  store %"class.xercesc_2_7::ArrayIndexOutOfBoundsException"* %this, %"class.xercesc_2_7::ArrayIndexOutOfBoundsException"** %this.addr, align 8
  call void @llvm.dbg.declare(metadata %"class.xercesc_2_7::ArrayIndexOutOfBoundsException"** %this.addr, metadata !3229, metadata !DIExpression()), !dbg !3230
  %this1 = load %"class.xercesc_2_7::ArrayIndexOutOfBoundsException"*, %"class.xercesc_2_7::ArrayIndexOutOfBoundsException"** %this.addr, align 8
  %0 = bitcast %"class.xercesc_2_7::ArrayIndexOutOfBoundsException"* %this1 to %"class.xercesc_2_7::XMLException"*, !dbg !3231
  call void @_ZN11xercesc_2_712XMLExceptionD2Ev(%"class.xercesc_2_7::XMLException"* %0) #10, !dbg !3231
  ret void, !dbg !3233
}

declare dso_local void @_ZN11xercesc_2_712XMLExceptionC2EPKcjPNS_13MemoryManagerE(%"class.xercesc_2_7::XMLException"*, i8*, i32, %"class.xercesc_2_7::MemoryManager"*) unnamed_addr #8

declare dso_local void @_ZN11xercesc_2_712XMLException14loadExceptTextENS_10XMLExcepts5CodesE(%"class.xercesc_2_7::XMLException"*, i32) #8

; Function Attrs: nounwind
declare dso_local void @_ZN11xercesc_2_712XMLExceptionD2Ev(%"class.xercesc_2_7::XMLException"*) unnamed_addr #7

; Function Attrs: noinline nounwind uwtable
define linkonce_odr dso_local void @_ZN11xercesc_2_730ArrayIndexOutOfBoundsExceptionD0Ev(%"class.xercesc_2_7::ArrayIndexOutOfBoundsException"* %this) unnamed_addr #1 comdat align 2 !dbg !3234 {
entry:
  %this.addr = alloca %"class.xercesc_2_7::ArrayIndexOutOfBoundsException"*, align 8
  store %"class.xercesc_2_7::ArrayIndexOutOfBoundsException"* %this, %"class.xercesc_2_7::ArrayIndexOutOfBoundsException"** %this.addr, align 8
  call void @llvm.dbg.declare(metadata %"class.xercesc_2_7::ArrayIndexOutOfBoundsException"** %this.addr, metadata !3235, metadata !DIExpression()), !dbg !3236
  %this1 = load %"class.xercesc_2_7::ArrayIndexOutOfBoundsException"*, %"class.xercesc_2_7::ArrayIndexOutOfBoundsException"** %this.addr, align 8
  call void @_ZN11xercesc_2_730ArrayIndexOutOfBoundsExceptionD2Ev(%"class.xercesc_2_7::ArrayIndexOutOfBoundsException"* %this1) #10, !dbg !3237
  %0 = bitcast %"class.xercesc_2_7::ArrayIndexOutOfBoundsException"* %this1 to i8*, !dbg !3237
  call void @_ZN11xercesc_2_77XMemorydlEPv(i8* %0) #10, !dbg !3237
  ret void, !dbg !3237
}

; Function Attrs: noinline nounwind uwtable
define linkonce_odr dso_local i16* @_ZNK11xercesc_2_730ArrayIndexOutOfBoundsException7getTypeEv(%"class.xercesc_2_7::ArrayIndexOutOfBoundsException"* %this) unnamed_addr #1 comdat align 2 !dbg !3238 {
entry:
  %this.addr = alloca %"class.xercesc_2_7::ArrayIndexOutOfBoundsException"*, align 8
  store %"class.xercesc_2_7::ArrayIndexOutOfBoundsException"* %this, %"class.xercesc_2_7::ArrayIndexOutOfBoundsException"** %this.addr, align 8
  call void @llvm.dbg.declare(metadata %"class.xercesc_2_7::ArrayIndexOutOfBoundsException"** %this.addr, metadata !3239, metadata !DIExpression()), !dbg !3241
  %this1 = load %"class.xercesc_2_7::ArrayIndexOutOfBoundsException"*, %"class.xercesc_2_7::ArrayIndexOutOfBoundsException"** %this.addr, align 8
  ret i16* getelementptr inbounds ([0 x i16], [0 x i16]* @_ZN11xercesc_2_76XMLUni37fgArrayIndexOutOfBoundsException_NameE, i64 0, i64 0), !dbg !3242
}

; Function Attrs: noinline uwtable
define linkonce_odr dso_local %"class.xercesc_2_7::XMLException"* @_ZNK11xercesc_2_730ArrayIndexOutOfBoundsException9duplicateEv(%"class.xercesc_2_7::ArrayIndexOutOfBoundsException"* %this) unnamed_addr #3 comdat align 2 personality i8* bitcast (i32 (...)* @__gxx_personality_v0 to i8*) !dbg !3243 {
entry:
  %this.addr = alloca %"class.xercesc_2_7::ArrayIndexOutOfBoundsException"*, align 8
  %exn.slot = alloca i8*
  %ehselector.slot = alloca i32
  store %"class.xercesc_2_7::ArrayIndexOutOfBoundsException"* %this, %"class.xercesc_2_7::ArrayIndexOutOfBoundsException"** %this.addr, align 8
  call void @llvm.dbg.declare(metadata %"class.xercesc_2_7::ArrayIndexOutOfBoundsException"** %this.addr, metadata !3244, metadata !DIExpression()), !dbg !3245
  %this1 = load %"class.xercesc_2_7::ArrayIndexOutOfBoundsException"*, %"class.xercesc_2_7::ArrayIndexOutOfBoundsException"** %this.addr, align 8
  %0 = bitcast %"class.xercesc_2_7::ArrayIndexOutOfBoundsException"* %this1 to %"class.xercesc_2_7::XMLException"*, !dbg !3246
  %fMemoryManager = getelementptr inbounds %"class.xercesc_2_7::XMLException", %"class.xercesc_2_7::XMLException"* %0, i32 0, i32 5, !dbg !3246
  %1 = load %"class.xercesc_2_7::MemoryManager"*, %"class.xercesc_2_7::MemoryManager"** %fMemoryManager, align 8, !dbg !3246
  %call = call i8* @_ZN11xercesc_2_77XMemorynwEmPNS_13MemoryManagerE(i64 48, %"class.xercesc_2_7::MemoryManager"* %1), !dbg !3246
  %2 = bitcast i8* %call to %"class.xercesc_2_7::ArrayIndexOutOfBoundsException"*, !dbg !3246
  invoke void @_ZN11xercesc_2_730ArrayIndexOutOfBoundsExceptionC2ERKS0_(%"class.xercesc_2_7::ArrayIndexOutOfBoundsException"* %2, %"class.xercesc_2_7::ArrayIndexOutOfBoundsException"* dereferenceable(48) %this1)
          to label %invoke.cont unwind label %lpad, !dbg !3246

invoke.cont:                                      ; preds = %entry
  %3 = bitcast %"class.xercesc_2_7::ArrayIndexOutOfBoundsException"* %2 to %"class.xercesc_2_7::XMLException"*, !dbg !3246
  ret %"class.xercesc_2_7::XMLException"* %3, !dbg !3246

lpad:                                             ; preds = %entry
  %4 = landingpad { i8*, i32 }
          cleanup, !dbg !3246
  %5 = extractvalue { i8*, i32 } %4, 0, !dbg !3246
  store i8* %5, i8** %exn.slot, align 8, !dbg !3246
  %6 = extractvalue { i8*, i32 } %4, 1, !dbg !3246
  store i32 %6, i32* %ehselector.slot, align 4, !dbg !3246
  call void @_ZN11xercesc_2_77XMemorydlEPvPNS_13MemoryManagerE(i8* %call, %"class.xercesc_2_7::MemoryManager"* %1) #10, !dbg !3246
  br label %eh.resume, !dbg !3246

eh.resume:                                        ; preds = %lpad
  %exn = load i8*, i8** %exn.slot, align 8, !dbg !3246
  %sel = load i32, i32* %ehselector.slot, align 4, !dbg !3246
  %lpad.val = insertvalue { i8*, i32 } undef, i8* %exn, 0, !dbg !3246
  %lpad.val2 = insertvalue { i8*, i32 } %lpad.val, i32 %sel, 1, !dbg !3246
  resume { i8*, i32 } %lpad.val2, !dbg !3246
}

; Function Attrs: noinline uwtable
define linkonce_odr dso_local void @_ZN11xercesc_2_730ArrayIndexOutOfBoundsExceptionC2ERKS0_(%"class.xercesc_2_7::ArrayIndexOutOfBoundsException"* %this, %"class.xercesc_2_7::ArrayIndexOutOfBoundsException"* dereferenceable(48) %toCopy) unnamed_addr #3 comdat align 2 !dbg !3247 {
entry:
  %this.addr = alloca %"class.xercesc_2_7::ArrayIndexOutOfBoundsException"*, align 8
  %toCopy.addr = alloca %"class.xercesc_2_7::ArrayIndexOutOfBoundsException"*, align 8
  store %"class.xercesc_2_7::ArrayIndexOutOfBoundsException"* %this, %"class.xercesc_2_7::ArrayIndexOutOfBoundsException"** %this.addr, align 8
  call void @llvm.dbg.declare(metadata %"class.xercesc_2_7::ArrayIndexOutOfBoundsException"** %this.addr, metadata !3248, metadata !DIExpression()), !dbg !3249
  store %"class.xercesc_2_7::ArrayIndexOutOfBoundsException"* %toCopy, %"class.xercesc_2_7::ArrayIndexOutOfBoundsException"** %toCopy.addr, align 8
  call void @llvm.dbg.declare(metadata %"class.xercesc_2_7::ArrayIndexOutOfBoundsException"** %toCopy.addr, metadata !3250, metadata !DIExpression()), !dbg !3251
  %this1 = load %"class.xercesc_2_7::ArrayIndexOutOfBoundsException"*, %"class.xercesc_2_7::ArrayIndexOutOfBoundsException"** %this.addr, align 8
  %0 = bitcast %"class.xercesc_2_7::ArrayIndexOutOfBoundsException"* %this1 to %"class.xercesc_2_7::XMLException"*, !dbg !3251
  %1 = load %"class.xercesc_2_7::ArrayIndexOutOfBoundsException"*, %"class.xercesc_2_7::ArrayIndexOutOfBoundsException"** %toCopy.addr, align 8, !dbg !3251
  %2 = bitcast %"class.xercesc_2_7::ArrayIndexOutOfBoundsException"* %1 to %"class.xercesc_2_7::XMLException"*, !dbg !3251
  call void @_ZN11xercesc_2_712XMLExceptionC2ERKS0_(%"class.xercesc_2_7::XMLException"* %0, %"class.xercesc_2_7::XMLException"* dereferenceable(48) %2), !dbg !3251
  %3 = bitcast %"class.xercesc_2_7::ArrayIndexOutOfBoundsException"* %this1 to i32 (...)***, !dbg !3251
  store i32 (...)** bitcast (i8** getelementptr inbounds ({ [6 x i8*] }, { [6 x i8*] }* @_ZTVN11xercesc_2_730ArrayIndexOutOfBoundsExceptionE, i32 0, inrange i32 0, i32 2) to i32 (...)**), i32 (...)*** %3, align 8, !dbg !3251
  ret void, !dbg !3251
}

declare dso_local void @_ZN11xercesc_2_712XMLExceptionC2ERKS0_(%"class.xercesc_2_7::XMLException"*, %"class.xercesc_2_7::XMLException"* dereferenceable(48)) unnamed_addr #8

; Function Attrs: noinline nounwind uwtable
define linkonce_odr dso_local i16* @_ZN11xercesc_2_75QName12getLocalPartEv(%"class.xercesc_2_7::QName"* %this) #1 comdat align 2 !dbg !3252 {
entry:
  %this.addr = alloca %"class.xercesc_2_7::QName"*, align 8
  store %"class.xercesc_2_7::QName"* %this, %"class.xercesc_2_7::QName"** %this.addr, align 8
  call void @llvm.dbg.declare(metadata %"class.xercesc_2_7::QName"** %this.addr, metadata !3257, metadata !DIExpression()), !dbg !3258
  %this1 = load %"class.xercesc_2_7::QName"*, %"class.xercesc_2_7::QName"** %this.addr, align 8
  %fLocalPart = getelementptr inbounds %"class.xercesc_2_7::QName", %"class.xercesc_2_7::QName"* %this1, i32 0, i32 6, !dbg !3259
  %0 = load i16*, i16** %fLocalPart, align 8, !dbg !3259
  ret i16* %0, !dbg !3260
}

; Function Attrs: noinline nounwind uwtable
define linkonce_odr dso_local i32 @_ZNK11xercesc_2_75QName6getURIEv(%"class.xercesc_2_7::QName"* %this) #1 comdat align 2 !dbg !3261 {
entry:
  %this.addr = alloca %"class.xercesc_2_7::QName"*, align 8
  store %"class.xercesc_2_7::QName"* %this, %"class.xercesc_2_7::QName"** %this.addr, align 8
  call void @llvm.dbg.declare(metadata %"class.xercesc_2_7::QName"** %this.addr, metadata !3265, metadata !DIExpression()), !dbg !3266
  %this1 = load %"class.xercesc_2_7::QName"*, %"class.xercesc_2_7::QName"** %this.addr, align 8
  %fURIId = getelementptr inbounds %"class.xercesc_2_7::QName", %"class.xercesc_2_7::QName"* %this1, i32 0, i32 4, !dbg !3267
  %0 = load i32, i32* %fURIId, align 4, !dbg !3267
  ret i32 %0, !dbg !3268
}

; Function Attrs: noinline nounwind uwtable
define linkonce_odr dso_local void @_ZN11xercesc_2_716RuntimeExceptionD0Ev(%"class.xercesc_2_7::RuntimeException"* %this) unnamed_addr #1 comdat align 2 !dbg !3269 {
entry:
  %this.addr = alloca %"class.xercesc_2_7::RuntimeException"*, align 8
  store %"class.xercesc_2_7::RuntimeException"* %this, %"class.xercesc_2_7::RuntimeException"** %this.addr, align 8
  call void @llvm.dbg.declare(metadata %"class.xercesc_2_7::RuntimeException"** %this.addr, metadata !3270, metadata !DIExpression()), !dbg !3271
  %this1 = load %"class.xercesc_2_7::RuntimeException"*, %"class.xercesc_2_7::RuntimeException"** %this.addr, align 8
  call void @_ZN11xercesc_2_716RuntimeExceptionD2Ev(%"class.xercesc_2_7::RuntimeException"* %this1) #10, !dbg !3272
  %0 = bitcast %"class.xercesc_2_7::RuntimeException"* %this1 to i8*, !dbg !3272
  call void @_ZN11xercesc_2_77XMemorydlEPv(i8* %0) #10, !dbg !3272
  ret void, !dbg !3272
}

; Function Attrs: noinline nounwind uwtable
define linkonce_odr dso_local i16* @_ZNK11xercesc_2_716RuntimeException7getTypeEv(%"class.xercesc_2_7::RuntimeException"* %this) unnamed_addr #1 comdat align 2 !dbg !3273 {
entry:
  %this.addr = alloca %"class.xercesc_2_7::RuntimeException"*, align 8
  store %"class.xercesc_2_7::RuntimeException"* %this, %"class.xercesc_2_7::RuntimeException"** %this.addr, align 8
  call void @llvm.dbg.declare(metadata %"class.xercesc_2_7::RuntimeException"** %this.addr, metadata !3274, metadata !DIExpression()), !dbg !3276
  %this1 = load %"class.xercesc_2_7::RuntimeException"*, %"class.xercesc_2_7::RuntimeException"** %this.addr, align 8
  ret i16* getelementptr inbounds ([0 x i16], [0 x i16]* @_ZN11xercesc_2_76XMLUni23fgRuntimeException_NameE, i64 0, i64 0), !dbg !3277
}

; Function Attrs: noinline uwtable
define linkonce_odr dso_local %"class.xercesc_2_7::XMLException"* @_ZNK11xercesc_2_716RuntimeException9duplicateEv(%"class.xercesc_2_7::RuntimeException"* %this) unnamed_addr #3 comdat align 2 personality i8* bitcast (i32 (...)* @__gxx_personality_v0 to i8*) !dbg !3278 {
entry:
  %this.addr = alloca %"class.xercesc_2_7::RuntimeException"*, align 8
  %exn.slot = alloca i8*
  %ehselector.slot = alloca i32
  store %"class.xercesc_2_7::RuntimeException"* %this, %"class.xercesc_2_7::RuntimeException"** %this.addr, align 8
  call void @llvm.dbg.declare(metadata %"class.xercesc_2_7::RuntimeException"** %this.addr, metadata !3279, metadata !DIExpression()), !dbg !3280
  %this1 = load %"class.xercesc_2_7::RuntimeException"*, %"class.xercesc_2_7::RuntimeException"** %this.addr, align 8
  %0 = bitcast %"class.xercesc_2_7::RuntimeException"* %this1 to %"class.xercesc_2_7::XMLException"*, !dbg !3281
  %fMemoryManager = getelementptr inbounds %"class.xercesc_2_7::XMLException", %"class.xercesc_2_7::XMLException"* %0, i32 0, i32 5, !dbg !3281
  %1 = load %"class.xercesc_2_7::MemoryManager"*, %"class.xercesc_2_7::MemoryManager"** %fMemoryManager, align 8, !dbg !3281
  %call = call i8* @_ZN11xercesc_2_77XMemorynwEmPNS_13MemoryManagerE(i64 48, %"class.xercesc_2_7::MemoryManager"* %1), !dbg !3281
  %2 = bitcast i8* %call to %"class.xercesc_2_7::RuntimeException"*, !dbg !3281
  invoke void @_ZN11xercesc_2_716RuntimeExceptionC2ERKS0_(%"class.xercesc_2_7::RuntimeException"* %2, %"class.xercesc_2_7::RuntimeException"* dereferenceable(48) %this1)
          to label %invoke.cont unwind label %lpad, !dbg !3281

invoke.cont:                                      ; preds = %entry
  %3 = bitcast %"class.xercesc_2_7::RuntimeException"* %2 to %"class.xercesc_2_7::XMLException"*, !dbg !3281
  ret %"class.xercesc_2_7::XMLException"* %3, !dbg !3281

lpad:                                             ; preds = %entry
  %4 = landingpad { i8*, i32 }
          cleanup, !dbg !3281
  %5 = extractvalue { i8*, i32 } %4, 0, !dbg !3281
  store i8* %5, i8** %exn.slot, align 8, !dbg !3281
  %6 = extractvalue { i8*, i32 } %4, 1, !dbg !3281
  store i32 %6, i32* %ehselector.slot, align 4, !dbg !3281
  call void @_ZN11xercesc_2_77XMemorydlEPvPNS_13MemoryManagerE(i8* %call, %"class.xercesc_2_7::MemoryManager"* %1) #10, !dbg !3281
  br label %eh.resume, !dbg !3281

eh.resume:                                        ; preds = %lpad
  %exn = load i8*, i8** %exn.slot, align 8, !dbg !3281
  %sel = load i32, i32* %ehselector.slot, align 4, !dbg !3281
  %lpad.val = insertvalue { i8*, i32 } undef, i8* %exn, 0, !dbg !3281
  %lpad.val2 = insertvalue { i8*, i32 } %lpad.val, i32 %sel, 1, !dbg !3281
  resume { i8*, i32 } %lpad.val2, !dbg !3281
}

; Function Attrs: noinline uwtable
define linkonce_odr dso_local void @_ZN11xercesc_2_716RuntimeExceptionC2ERKS0_(%"class.xercesc_2_7::RuntimeException"* %this, %"class.xercesc_2_7::RuntimeException"* dereferenceable(48) %toCopy) unnamed_addr #3 comdat align 2 !dbg !3282 {
entry:
  %this.addr = alloca %"class.xercesc_2_7::RuntimeException"*, align 8
  %toCopy.addr = alloca %"class.xercesc_2_7::RuntimeException"*, align 8
  store %"class.xercesc_2_7::RuntimeException"* %this, %"class.xercesc_2_7::RuntimeException"** %this.addr, align 8
  call void @llvm.dbg.declare(metadata %"class.xercesc_2_7::RuntimeException"** %this.addr, metadata !3283, metadata !DIExpression()), !dbg !3284
  store %"class.xercesc_2_7::RuntimeException"* %toCopy, %"class.xercesc_2_7::RuntimeException"** %toCopy.addr, align 8
  call void @llvm.dbg.declare(metadata %"class.xercesc_2_7::RuntimeException"** %toCopy.addr, metadata !3285, metadata !DIExpression()), !dbg !3286
  %this1 = load %"class.xercesc_2_7::RuntimeException"*, %"class.xercesc_2_7::RuntimeException"** %this.addr, align 8
  %0 = bitcast %"class.xercesc_2_7::RuntimeException"* %this1 to %"class.xercesc_2_7::XMLException"*, !dbg !3286
  %1 = load %"class.xercesc_2_7::RuntimeException"*, %"class.xercesc_2_7::RuntimeException"** %toCopy.addr, align 8, !dbg !3286
  %2 = bitcast %"class.xercesc_2_7::RuntimeException"* %1 to %"class.xercesc_2_7::XMLException"*, !dbg !3286
  call void @_ZN11xercesc_2_712XMLExceptionC2ERKS0_(%"class.xercesc_2_7::XMLException"* %0, %"class.xercesc_2_7::XMLException"* dereferenceable(48) %2), !dbg !3286
  %3 = bitcast %"class.xercesc_2_7::RuntimeException"* %this1 to i32 (...)***, !dbg !3286
  store i32 (...)** bitcast (i8** getelementptr inbounds ({ [6 x i8*] }, { [6 x i8*] }* @_ZTVN11xercesc_2_716RuntimeExceptionE, i32 0, inrange i32 0, i32 2) to i32 (...)**), i32 (...)*** %3, align 8, !dbg !3286
  ret void, !dbg !3286
}

; Function Attrs: noinline uwtable
define linkonce_odr dso_local void @_ZN11xercesc_2_713ValueVectorOfIiE19ensureExtraCapacityEj(%"class.xercesc_2_7::ValueVectorOf"* %this, i32 %length) #3 comdat align 2 !dbg !3287 {
entry:
  %this.addr = alloca %"class.xercesc_2_7::ValueVectorOf"*, align 8
  %length.addr = alloca i32, align 4
  %newMax = alloca i32, align 4
  %minNewMax = alloca i32, align 4
  %newList = alloca i32*, align 8
  %index = alloca i32, align 4
  store %"class.xercesc_2_7::ValueVectorOf"* %this, %"class.xercesc_2_7::ValueVectorOf"** %this.addr, align 8
  call void @llvm.dbg.declare(metadata %"class.xercesc_2_7::ValueVectorOf"** %this.addr, metadata !3288, metadata !DIExpression()), !dbg !3289
  store i32 %length, i32* %length.addr, align 4
  call void @llvm.dbg.declare(metadata i32* %length.addr, metadata !3290, metadata !DIExpression()), !dbg !3291
  %this1 = load %"class.xercesc_2_7::ValueVectorOf"*, %"class.xercesc_2_7::ValueVectorOf"** %this.addr, align 8
  call void @llvm.dbg.declare(metadata i32* %newMax, metadata !3292, metadata !DIExpression()), !dbg !3293
  %fCurCount = getelementptr inbounds %"class.xercesc_2_7::ValueVectorOf", %"class.xercesc_2_7::ValueVectorOf"* %this1, i32 0, i32 1, !dbg !3294
  %0 = load i32, i32* %fCurCount, align 4, !dbg !3294
  %1 = load i32, i32* %length.addr, align 4, !dbg !3295
  %add = add i32 %0, %1, !dbg !3296
  store i32 %add, i32* %newMax, align 4, !dbg !3293
  %2 = load i32, i32* %newMax, align 4, !dbg !3297
  %fMaxCount = getelementptr inbounds %"class.xercesc_2_7::ValueVectorOf", %"class.xercesc_2_7::ValueVectorOf"* %this1, i32 0, i32 2, !dbg !3299
  %3 = load i32, i32* %fMaxCount, align 8, !dbg !3299
  %cmp = icmp ule i32 %2, %3, !dbg !3300
  br i1 %cmp, label %if.then, label %if.end, !dbg !3301

if.then:                                          ; preds = %entry
  br label %return, !dbg !3302

if.end:                                           ; preds = %entry
  call void @llvm.dbg.declare(metadata i32* %minNewMax, metadata !3303, metadata !DIExpression()), !dbg !3304
  %fCurCount2 = getelementptr inbounds %"class.xercesc_2_7::ValueVectorOf", %"class.xercesc_2_7::ValueVectorOf"* %this1, i32 0, i32 1, !dbg !3305
  %4 = load i32, i32* %fCurCount2, align 4, !dbg !3305
  %conv = uitofp i32 %4 to double, !dbg !3305
  %mul = fmul double %conv, 1.250000e+00, !dbg !3306
  %conv3 = fptoui double %mul to i32, !dbg !3307
  store i32 %conv3, i32* %minNewMax, align 4, !dbg !3304
  %5 = load i32, i32* %newMax, align 4, !dbg !3308
