; ModuleID = 'XalanSourceTreeParserLiaison.cpp'
source_filename = "XalanSourceTreeParserLiaison.cpp"
target datalayout = "e-m:e-p270:32:32-p271:32:32-p272:64:64-i64:64-f80:128-n8:16:32:64-S128"
target triple = "x86_64-unknown-linux-gnu"

%"class.xalanc_1_10::XalanSourceTreeParserLiaison" = type { %"class.xalanc_1_10::XMLParserLiaison", %"class.xalanc_1_10::XercesParserLiaison", %"class.xalanc_1_10::XalanMap.9", i8, %"class.xercesc_2_7::SAX2XMLReader"* }
%"class.xalanc_1_10::XMLParserLiaison" = type { i32 (...)** }
%"class.xalanc_1_10::XercesParserLiaison" = type { %"class.xalanc_1_10::XMLParserLiaison", %"class.xercesc_2_7::ErrorHandler", i32, i8, i8, i8, i8, %"class.xercesc_2_7::EntityResolver"*, %"class.xercesc_2_7::ErrorHandler"*, %"class.xalanc_1_10::XalanDOMString", %"class.xalanc_1_10::XalanDOMString", %"class.xalanc_1_10::XalanMap", i8, i8, i8, i8, %"class.xalanc_1_10::ExecutionContext"*, %"class.xercesc_2_7::SAXParser"*, %"class.xercesc_2_7::XercesDOMParser"* }
%"class.xercesc_2_7::ErrorHandler" = type { i32 (...)** }
%"class.xercesc_2_7::EntityResolver" = type opaque
%"class.xalanc_1_10::XalanDOMString" = type <{ %"class.xalanc_1_10::XalanVector", i32, [4 x i8] }>
%"class.xalanc_1_10::XalanVector" = type { %"class.xercesc_2_7::MemoryManager"*, i64, i64, i16* }
%"class.xalanc_1_10::XalanMap" = type { %"class.xalanc_1_10::XalanHasher", %"struct.std::equal_to", %"class.xercesc_2_7::MemoryManager"*, float, i64, i64, %"class.xalanc_1_10::XalanList", %"class.xalanc_1_10::XalanList", %"class.xalanc_1_10::XalanVector.0", i64, i64 }
%"class.xalanc_1_10::XalanHasher" = type { i8 }
%"struct.std::equal_to" = type { i8 }
%"class.xalanc_1_10::XalanList" = type { %"class.xercesc_2_7::MemoryManager"*, %"struct.xalanc_1_10::XalanList<xalanc_1_10::XalanMap<const xalanc_1_10::XalanDocument *, xalanc_1_10::XercesParserLiaison::DocumentEntry, xalanc_1_10::XalanMapKeyTraits<const xalanc_1_10::XalanDocument *> >::Entry>::Node"*, %"struct.xalanc_1_10::XalanList<xalanc_1_10::XalanMap<const xalanc_1_10::XalanDocument *, xalanc_1_10::XercesParserLiaison::DocumentEntry, xalanc_1_10::XalanMapKeyTraits<const xalanc_1_10::XalanDocument *> >::Entry>::Node"* }
%"struct.xalanc_1_10::XalanList<xalanc_1_10::XalanMap<const xalanc_1_10::XalanDocument *, xalanc_1_10::XercesParserLiaison::DocumentEntry, xalanc_1_10::XalanMapKeyTraits<const xalanc_1_10::XalanDocument *> >::Entry>::Node" = type opaque
%"class.xalanc_1_10::XalanVector.0" = type { %"class.xercesc_2_7::MemoryManager"*, i64, i64, %"class.xalanc_1_10::XalanVector.1"* }
%"class.xalanc_1_10::XalanVector.1" = type { %"class.xercesc_2_7::MemoryManager"*, i64, i64, %"struct.xalanc_1_10::XalanListIteratorBase"* }
%"struct.xalanc_1_10::XalanListIteratorBase" = type opaque
%"class.xalanc_1_10::ExecutionContext" = type opaque
%"class.xercesc_2_7::SAXParser" = type { %"class.xercesc_2_7::Parser", %"class.xercesc_2_7::XMLDocumentHandler", %"class.xercesc_2_7::XMLErrorReporter", %"class.xercesc_2_7::XMLEntityHandler", %"class.xercesc_2_7::DocTypeHandler", i8, i32, i32, i32, %"class.xercesc_2_7::VecAttrListImpl", %"class.xercesc_2_7::DocumentHandler"*, %"class.xercesc_2_7::DTDHandler"*, %"class.xercesc_2_7::EntityResolver"*, %"class.xercesc_2_7::XMLEntityResolver"*, %"class.xercesc_2_7::ErrorHandler"*, %"class.xercesc_2_7::PSVIHandler"*, %"class.xercesc_2_7::XMLDocumentHandler"**, %"class.xercesc_2_7::XMLScanner"*, %"class.xercesc_2_7::GrammarResolver"*, %"class.xercesc_2_7::XMLStringPool"*, %"class.xercesc_2_7::XMLValidator"*, %"class.xercesc_2_7::MemoryManager"*, %"class.xercesc_2_7::XMLGrammarPool"*, %"class.xercesc_2_7::XMLBuffer" }
%"class.xercesc_2_7::Parser" = type { i32 (...)** }
%"class.xercesc_2_7::XMLDocumentHandler" = type { i32 (...)** }
%"class.xercesc_2_7::XMLErrorReporter" = type { i32 (...)** }
%"class.xercesc_2_7::XMLEntityHandler" = type { i32 (...)** }
%"class.xercesc_2_7::DocTypeHandler" = type { i32 (...)** }
%"class.xercesc_2_7::VecAttrListImpl" = type { %"class.xercesc_2_7::AttributeList", i8, i32, %"class.xercesc_2_7::RefVectorOf"* }
%"class.xercesc_2_7::AttributeList" = type { i32 (...)** }
%"class.xercesc_2_7::RefVectorOf" = type opaque
%"class.xercesc_2_7::DocumentHandler" = type { i32 (...)** }
%"class.xercesc_2_7::DTDHandler" = type { i32 (...)** }
%"class.xercesc_2_7::XMLEntityResolver" = type opaque
%"class.xercesc_2_7::PSVIHandler" = type opaque
%"class.xercesc_2_7::XMLScanner" = type { %"class.xercesc_2_7::XMLBufferFullHandler", i64, i8, i8, i8, i8, i8, i8, i8, i8, i8, i8, i8, i8, i8, i8, i8, i8, i8, i8, i8, i8, i8, i8, i8, i32, i32, i32, i32, i32, i32, i32, i32, i32**, i32, i32, i32, i32, i32, %"class.xercesc_2_7::RefVectorOf"*, %"class.xercesc_2_7::RefHash2KeysTableOf"*, %"class.xercesc_2_7::XMLDocumentHandler"*, %"class.xercesc_2_7::DocTypeHandler"*, %"class.xercesc_2_7::XMLEntityHandler"*, %"class.xercesc_2_7::XMLErrorReporter"*, %"class.xercesc_2_7::ErrorHandler"*, %"class.xercesc_2_7::PSVIHandler"*, %"class.xercesc_2_7::ValidationContext"*, i8, %"class.xercesc_2_7::ReaderMgr", %"class.xercesc_2_7::XMLValidator"*, i32, %"class.xercesc_2_7::GrammarResolver"*, %"class.xercesc_2_7::MemoryManager"*, %"class.xercesc_2_7::Grammar"*, %"class.xercesc_2_7::Grammar"*, %"class.xercesc_2_7::XMLStringPool"*, i16*, i16*, i16*, %"class.xercesc_2_7::SecurityManager"*, i32, %"class.xercesc_2_7::MemoryManager"*, %"class.xercesc_2_7::XMLBufferMgr", %"class.xercesc_2_7::XMLBuffer", %"class.xercesc_2_7::XMLBuffer", %"class.xercesc_2_7::XMLBuffer", %"class.xercesc_2_7::XMLBuffer", %"class.xercesc_2_7::XMLBuffer", %"class.xercesc_2_7::XMLBuffer", %"class.xercesc_2_7::XMLBuffer", %"class.xercesc_2_7::ElemStack" }
%"class.xercesc_2_7::XMLBufferFullHandler" = type { i32 (...)** }
%"class.xercesc_2_7::RefHash2KeysTableOf" = type { %"class.xercesc_2_7::MemoryManager"*, i8, %"struct.xercesc_2_7::RefHash2KeysTableBucketElem"**, i32, i32, %"class.xercesc_2_7::HashBase"* }
%"struct.xercesc_2_7::RefHash2KeysTableBucketElem" = type <{ %"class.xercesc_2_7::XMLAttr"*, %"struct.xercesc_2_7::RefHash2KeysTableBucketElem"*, i8*, i32, [4 x i8] }>
%"class.xercesc_2_7::XMLAttr" = type <{ i8, [3 x i8], i32, i32, [4 x i8], i16*, %"class.xercesc_2_7::QName"*, %"class.xercesc_2_7::MemoryManager"*, %"class.xercesc_2_7::DatatypeValidator"*, i8, [7 x i8] }>
%"class.xercesc_2_7::QName" = type { %"class.xercesc_2_7::XSerializable", i32, i32, i32, i32, i16*, i16*, i16*, %"class.xercesc_2_7::MemoryManager"* }
%"class.xercesc_2_7::XSerializable" = type { i32 (...)** }
%"class.xercesc_2_7::DatatypeValidator" = type { %"class.xercesc_2_7::XSerializable", i8, i8, i8, i8, i16, i32, i32, i32, i32, i32, %"class.xercesc_2_7::DatatypeValidator"*, %"class.xercesc_2_7::RefHashTableOf.58"*, i16*, %"class.xercesc_2_7::RegularExpression"*, i16*, i16*, i16*, %"class.xercesc_2_7::MemoryManager"* }
%"class.xercesc_2_7::RefHashTableOf.58" = type opaque
%"class.xercesc_2_7::RegularExpression" = type { i8, i8, i32, i32, i32, i32, %"class.xercesc_2_7::BMPattern"*, i16*, i16*, %"class.xercesc_2_7::Op"*, %"class.xercesc_2_7::Token"*, %"class.xercesc_2_7::RangeToken"*, %"class.xercesc_2_7::OpFactory", %"class.xercesc_2_7::TokenFactory"*, %"class.xercesc_2_7::MemoryManager"* }
%"class.xercesc_2_7::BMPattern" = type { i8, i32, i32*, i16*, i16*, %"class.xercesc_2_7::MemoryManager"* }
%"class.xercesc_2_7::Op" = type { i32 (...)**, %"class.xercesc_2_7::MemoryManager"*, i16, %"class.xercesc_2_7::Op"* }
%"class.xercesc_2_7::Token" = type { i32 (...)**, i16, %"class.xercesc_2_7::MemoryManager"* }
%"class.xercesc_2_7::RangeToken" = type opaque
%"class.xercesc_2_7::OpFactory" = type { %"class.xercesc_2_7::RefVectorOf.59"*, %"class.xercesc_2_7::MemoryManager"* }
%"class.xercesc_2_7::RefVectorOf.59" = type { %"class.xercesc_2_7::BaseRefVectorOf.60" }
%"class.xercesc_2_7::BaseRefVectorOf.60" = type { i32 (...)**, i8, i32, i32, %"class.xercesc_2_7::Op"**, %"class.xercesc_2_7::MemoryManager"* }
%"class.xercesc_2_7::TokenFactory" = type { %"class.xercesc_2_7::RefVectorOf.61"*, %"class.xercesc_2_7::Token"*, %"class.xercesc_2_7::Token"*, %"class.xercesc_2_7::Token"*, %"class.xercesc_2_7::Token"*, %"class.xercesc_2_7::Token"*, %"class.xercesc_2_7::Token"*, %"class.xercesc_2_7::Token"*, %"class.xercesc_2_7::Token"*, %"class.xercesc_2_7::Token"*, %"class.xercesc_2_7::Token"*, %"class.xercesc_2_7::Token"*, %"class.xercesc_2_7::Token"*, %"class.xercesc_2_7::Token"*, %"class.xercesc_2_7::Token"*, %"class.xercesc_2_7::MemoryManager"* }
%"class.xercesc_2_7::RefVectorOf.61" = type opaque
%"class.xercesc_2_7::HashBase" = type { i32 (...)** }
%"class.xercesc_2_7::ValidationContext" = type { i32 (...)**, %"class.xercesc_2_7::MemoryManager"* }
%"class.xercesc_2_7::ReaderMgr" = type { %"class.xercesc_2_7::Locator", %"class.xercesc_2_7::XMLEntityDecl"*, %"class.xercesc_2_7::XMLReader"*, %"class.xercesc_2_7::XMLEntityHandler"*, %"class.xercesc_2_7::RefStackOf"*, i32, %"class.xercesc_2_7::RefStackOf.2"*, i8, i32, i8, %"class.xercesc_2_7::MemoryManager"* }
%"class.xercesc_2_7::Locator" = type { i32 (...)** }
%"class.xercesc_2_7::XMLEntityDecl" = type { %"class.xercesc_2_7::XSerializable", i32, i32, i16*, i16*, i16*, i16*, i16*, i16*, %"class.xercesc_2_7::MemoryManager"* }
%"class.xercesc_2_7::XMLReader" = type { i32, [16384 x i16], i32, [16384 x i8], [16384 x i32], i64, i64, i32, i16*, i8, i8, i16*, i32, [49152 x i8], i32, i32, i32, i8, i32, i32, i8, i8, i16*, %"class.xercesc_2_7::BinInputStream"*, i8, i8, %"class.xercesc_2_7::XMLTranscoder"*, i32, i8*, i8, i32, %"class.xercesc_2_7::MemoryManager"* }
%"class.xercesc_2_7::BinInputStream" = type opaque
%"class.xercesc_2_7::XMLTranscoder" = type opaque
%"class.xercesc_2_7::RefStackOf" = type opaque
%"class.xercesc_2_7::RefStackOf.2" = type opaque
%"class.xercesc_2_7::Grammar" = type { %"class.xercesc_2_7::XSerializable" }
%"class.xercesc_2_7::SecurityManager" = type <{ i32 (...)**, i32, [4 x i8] }>
%"class.xercesc_2_7::XMLBufferMgr" = type { i32, %"class.xercesc_2_7::MemoryManager"*, %"class.xercesc_2_7::XMLBuffer"** }
%"class.xercesc_2_7::ElemStack" = type { i32, i32, %"class.xercesc_2_7::XMLStringPool", %"struct.xercesc_2_7::ElemStack::StackElem"**, i32, i32, i32, i32, i32, i32, i32, %"class.xercesc_2_7::ValueVectorOf.8"*, %"class.xercesc_2_7::MemoryManager"* }
%"class.xercesc_2_7::XMLStringPool" = type { %"class.xercesc_2_7::XSerializable", %"class.xercesc_2_7::MemoryManager"*, %"struct.xercesc_2_7::XMLStringPool::PoolElem"**, %"class.xercesc_2_7::RefHashTableOf"*, i32, i32 }
%"struct.xercesc_2_7::XMLStringPool::PoolElem" = type { i32, i16* }
%"class.xercesc_2_7::RefHashTableOf" = type { %"class.xercesc_2_7::MemoryManager"*, i8, %"struct.xercesc_2_7::RefHashTableBucketElem"**, i32, i32, i32, %"class.xercesc_2_7::HashBase"* }
%"struct.xercesc_2_7::RefHashTableBucketElem" = type { %"struct.xercesc_2_7::XMLStringPool::PoolElem"*, %"struct.xercesc_2_7::RefHashTableBucketElem"*, i8* }
%"struct.xercesc_2_7::ElemStack::StackElem" = type { %"class.xercesc_2_7::XMLElementDecl"*, i32, i32, i32, %"class.xercesc_2_7::QName"**, %"struct.xercesc_2_7::PrefMapElem"*, i32, i32, i8, i8, i8, i32, %"class.xercesc_2_7::Grammar"*, i32, i16*, i32, i32 }
%"class.xercesc_2_7::XMLElementDecl" = type <{ %"class.xercesc_2_7::XSerializable", %"class.xercesc_2_7::MemoryManager"*, %"class.xercesc_2_7::QName"*, i32, i32, i8, [7 x i8] }>
%"struct.xercesc_2_7::PrefMapElem" = type { i32, i32 }
%"class.xercesc_2_7::ValueVectorOf.8" = type opaque
%"class.xercesc_2_7::GrammarResolver" = type { i8, i8, i8, %"class.xercesc_2_7::XMLStringPool"*, %"class.xercesc_2_7::RefHashTableOf.3"*, %"class.xercesc_2_7::RefHashTableOf.3"*, %"class.xercesc_2_7::DatatypeValidatorFactory"*, %"class.xercesc_2_7::MemoryManager"*, %"class.xercesc_2_7::XMLGrammarPool"*, %"class.xercesc_2_7::XSModel"*, %"class.xercesc_2_7::XSModel"*, %"class.xercesc_2_7::ValueVectorOf"* }
%"class.xercesc_2_7::RefHashTableOf.3" = type opaque
%"class.xercesc_2_7::DatatypeValidatorFactory" = type opaque
%"class.xercesc_2_7::XSModel" = type <{ %"class.xercesc_2_7::MemoryManager"*, %"class.xercesc_2_7::RefArrayVectorOf"*, %"class.xercesc_2_7::RefVectorOf.4"*, [14 x %"class.xercesc_2_7::RefVectorOf.5"*], [14 x %"class.xercesc_2_7::XSNamedMap"*], %"class.xercesc_2_7::XMLStringPool"*, %"class.xercesc_2_7::RefVectorOf.6"*, %"class.xercesc_2_7::RefHashTableOf.7"*, %"class.xercesc_2_7::XSObjectFactory"*, %"class.xercesc_2_7::RefVectorOf.4"*, %"class.xercesc_2_7::XSModel"*, i8, i8, [6 x i8] }>
%"class.xercesc_2_7::RefArrayVectorOf" = type { %"class.xercesc_2_7::BaseRefVectorOf" }
%"class.xercesc_2_7::BaseRefVectorOf" = type { i32 (...)**, i8, i32, i32, i16**, %"class.xercesc_2_7::MemoryManager"* }
%"class.xercesc_2_7::RefVectorOf.5" = type opaque
%"class.xercesc_2_7::XSNamedMap" = type opaque
%"class.xercesc_2_7::RefVectorOf.6" = type opaque
%"class.xercesc_2_7::RefHashTableOf.7" = type opaque
%"class.xercesc_2_7::XSObjectFactory" = type opaque
%"class.xercesc_2_7::RefVectorOf.4" = type opaque
%"class.xercesc_2_7::ValueVectorOf" = type opaque
%"class.xercesc_2_7::XMLValidator" = type { i32 (...)**, %"class.xercesc_2_7::XMLBufferMgr"*, %"class.xercesc_2_7::XMLErrorReporter"*, %"class.xercesc_2_7::ReaderMgr"*, %"class.xercesc_2_7::XMLScanner"* }
%"class.xercesc_2_7::XMLGrammarPool" = type <{ i32 (...)**, %"class.xercesc_2_7::MemoryManager"*, i8, [7 x i8] }>
%"class.xercesc_2_7::XMLBuffer" = type { i32, i32, i32, i8, %"class.xercesc_2_7::MemoryManager"*, %"class.xercesc_2_7::XMLBufferFullHandler"*, i16* }
%"class.xercesc_2_7::XercesDOMParser" = type opaque
%"class.xalanc_1_10::XalanMap.9" = type { %"class.xalanc_1_10::XalanHasher", %"struct.std::equal_to", %"class.xercesc_2_7::MemoryManager"*, float, i64, i64, %"class.xalanc_1_10::XalanList.10", %"class.xalanc_1_10::XalanList.10", %"class.xalanc_1_10::XalanVector.50", i64, i64 }
%"class.xalanc_1_10::XalanList.10" = type { %"class.xercesc_2_7::MemoryManager"*, %"struct.xalanc_1_10::XalanList<xalanc_1_10::XalanMap<const xalanc_1_10::XalanDocument *, xalanc_1_10::XalanSourceTreeDocument *, xalanc_1_10::XalanMapKeyTraits<const xalanc_1_10::XalanDocument *> >::Entry>::Node"*, %"struct.xalanc_1_10::XalanList<xalanc_1_10::XalanMap<const xalanc_1_10::XalanDocument *, xalanc_1_10::XalanSourceTreeDocument *, xalanc_1_10::XalanMapKeyTraits<const xalanc_1_10::XalanDocument *> >::Entry>::Node"* }
%"struct.xalanc_1_10::XalanList<xalanc_1_10::XalanMap<const xalanc_1_10::XalanDocument *, xalanc_1_10::XalanSourceTreeDocument *, xalanc_1_10::XalanMapKeyTraits<const xalanc_1_10::XalanDocument *> >::Entry>::Node" = type { %"struct.xalanc_1_10::XalanMap<const xalanc_1_10::XalanDocument *, xalanc_1_10::XalanSourceTreeDocument *, xalanc_1_10::XalanMapKeyTraits<const xalanc_1_10::XalanDocument *> >::Entry", %"struct.xalanc_1_10::XalanList<xalanc_1_10::XalanMap<const xalanc_1_10::XalanDocument *, xalanc_1_10::XalanSourceTreeDocument *, xalanc_1_10::XalanMapKeyTraits<const xalanc_1_10::XalanDocument *> >::Entry>::Node"*, %"struct.xalanc_1_10::XalanList<xalanc_1_10::XalanMap<const xalanc_1_10::XalanDocument *, xalanc_1_10::XalanSourceTreeDocument *, xalanc_1_10::XalanMapKeyTraits<const xalanc_1_10::XalanDocument *> >::Entry>::Node"* }
%"struct.xalanc_1_10::XalanMap<const xalanc_1_10::XalanDocument *, xalanc_1_10::XalanSourceTreeDocument *, xalanc_1_10::XalanMapKeyTraits<const xalanc_1_10::XalanDocument *> >::Entry" = type <{ %"struct.std::pair"*, i8, [7 x i8] }>
%"struct.std::pair" = type { %"class.xalanc_1_10::XalanDocument"*, %"class.xalanc_1_10::XalanSourceTreeDocument"* }
%"class.xalanc_1_10::XalanDocument" = type { %"class.xalanc_1_10::XalanNode" }
%"class.xalanc_1_10::XalanNode" = type { i32 (...)** }
%"class.xalanc_1_10::XalanSourceTreeDocument" = type { %"class.xalanc_1_10::XalanDocument", %"class.xalanc_1_10::XalanNode"*, %"class.xalanc_1_10::XalanSourceTreeElement"*, %"class.xalanc_1_10::XalanSourceTreeAttributeAllocator", %"class.xalanc_1_10::XalanSourceTreeAttributeNSAllocator", %"class.xalanc_1_10::XalanSourceTreeCommentAllocator", %"class.xalanc_1_10::XalanSourceTreeElementAAllocator", %"class.xalanc_1_10::XalanSourceTreeElementANSAllocator", %"class.xalanc_1_10::XalanSourceTreeElementNAAllocator", %"class.xalanc_1_10::XalanSourceTreeElementNANSAllocator", %"class.xalanc_1_10::XalanSourceTreeProcessingInstructionAllocator", %"class.xalanc_1_10::XalanSourceTreeTextAllocator", %"class.xalanc_1_10::XalanSourceTreeTextIWSAllocator", %"class.xalanc_1_10::XalanDOMStringPool", %"class.xalanc_1_10::XalanDOMStringPool", %"class.xalanc_1_10::XalanArrayAllocator", i64, i8, %"class.xalanc_1_10::XalanMap.35", %"class.xalanc_1_10::XalanMap.42", %"class.xalanc_1_10::XalanDOMStringAllocator", %"class.xalanc_1_10::XalanDOMString" }
%"class.xalanc_1_10::XalanSourceTreeElement" = type { %"class.xalanc_1_10::XalanElement", %"class.xalanc_1_10::XalanDOMString"*, %"class.xercesc_2_7::MemoryManager"*, %"class.xalanc_1_10::XalanSourceTreeDocument"*, %"class.xalanc_1_10::XalanNode"*, %"class.xalanc_1_10::XalanNode"*, %"class.xalanc_1_10::XalanNode"*, %"class.xalanc_1_10::XalanNode"*, i64 }
%"class.xalanc_1_10::XalanElement" = type { %"class.xalanc_1_10::XalanNode" }
%"class.xalanc_1_10::XalanSourceTreeAttributeAllocator" = type { %"class.xalanc_1_10::ArenaAllocator" }
%"class.xalanc_1_10::ArenaAllocator" = type { i32 (...)**, i64, %"class.xalanc_1_10::XalanList.11" }
%"class.xalanc_1_10::XalanList.11" = type { %"class.xercesc_2_7::MemoryManager"*, %"struct.xalanc_1_10::XalanList<xalanc_1_10::ArenaBlock<xalanc_1_10::XalanSourceTreeAttr, unsigned long> *>::Node"*, %"struct.xalanc_1_10::XalanList<xalanc_1_10::ArenaBlock<xalanc_1_10::XalanSourceTreeAttr, unsigned long> *>::Node"* }
%"struct.xalanc_1_10::XalanList<xalanc_1_10::ArenaBlock<xalanc_1_10::XalanSourceTreeAttr, unsigned long> *>::Node" = type { %"class.xalanc_1_10::ArenaBlock.62"*, %"struct.xalanc_1_10::XalanList<xalanc_1_10::ArenaBlock<xalanc_1_10::XalanSourceTreeAttr, unsigned long> *>::Node"*, %"struct.xalanc_1_10::XalanList<xalanc_1_10::ArenaBlock<xalanc_1_10::XalanSourceTreeAttr, unsigned long> *>::Node"* }
%"class.xalanc_1_10::ArenaBlock.62" = type { %"class.xalanc_1_10::ArenaBlockBase.63" }
%"class.xalanc_1_10::ArenaBlockBase.63" = type { %"class.xalanc_1_10::XalanAllocator.64", i64, i64, %"class.xalanc_1_10::XalanSourceTreeAttr"* }
%"class.xalanc_1_10::XalanAllocator.64" = type { %"class.xercesc_2_7::MemoryManager"* }
%"class.xalanc_1_10::XalanSourceTreeAttr" = type { %"class.xalanc_1_10::XalanAttr", %"class.xalanc_1_10::XalanDOMString"*, %"class.xalanc_1_10::XalanDOMString"*, %"class.xalanc_1_10::XalanSourceTreeElement"*, i64 }
%"class.xalanc_1_10::XalanAttr" = type { %"class.xalanc_1_10::XalanNode" }
%"class.xalanc_1_10::XalanSourceTreeAttributeNSAllocator" = type { %"class.xalanc_1_10::ArenaAllocator.12" }
%"class.xalanc_1_10::ArenaAllocator.12" = type { i32 (...)**, i64, %"class.xalanc_1_10::XalanList.13" }
%"class.xalanc_1_10::XalanList.13" = type { %"class.xercesc_2_7::MemoryManager"*, %"struct.xalanc_1_10::XalanList<xalanc_1_10::ArenaBlock<xalanc_1_10::XalanSourceTreeAttrNS, unsigned long> *>::Node"*, %"struct.xalanc_1_10::XalanList<xalanc_1_10::ArenaBlock<xalanc_1_10::XalanSourceTreeAttrNS, unsigned long> *>::Node"* }
%"struct.xalanc_1_10::XalanList<xalanc_1_10::ArenaBlock<xalanc_1_10::XalanSourceTreeAttrNS, unsigned long> *>::Node" = type { %"class.xalanc_1_10::ArenaBlock.65"*, %"struct.xalanc_1_10::XalanList<xalanc_1_10::ArenaBlock<xalanc_1_10::XalanSourceTreeAttrNS, unsigned long> *>::Node"*, %"struct.xalanc_1_10::XalanList<xalanc_1_10::ArenaBlock<xalanc_1_10::XalanSourceTreeAttrNS, unsigned long> *>::Node"* }
%"class.xalanc_1_10::ArenaBlock.65" = type { %"class.xalanc_1_10::ArenaBlockBase.66" }
%"class.xalanc_1_10::ArenaBlockBase.66" = type { %"class.xalanc_1_10::XalanAllocator.67", i64, i64, %"class.xalanc_1_10::XalanSourceTreeAttrNS"* }
%"class.xalanc_1_10::XalanAllocator.67" = type { %"class.xercesc_2_7::MemoryManager"* }
%"class.xalanc_1_10::XalanSourceTreeAttrNS" = type { %"class.xalanc_1_10::XalanSourceTreeAttr", %"class.xalanc_1_10::XalanDOMString"*, %"class.xalanc_1_10::XalanDOMString"*, %"class.xalanc_1_10::XalanDOMString"* }
%"class.xalanc_1_10::XalanSourceTreeCommentAllocator" = type { %"class.xalanc_1_10::ArenaAllocator.14" }
%"class.xalanc_1_10::ArenaAllocator.14" = type { i32 (...)**, i64, %"class.xalanc_1_10::XalanList.15" }
%"class.xalanc_1_10::XalanList.15" = type { %"class.xercesc_2_7::MemoryManager"*, %"struct.xalanc_1_10::XalanList<xalanc_1_10::ArenaBlock<xalanc_1_10::XalanSourceTreeComment, unsigned long> *>::Node"*, %"struct.xalanc_1_10::XalanList<xalanc_1_10::ArenaBlock<xalanc_1_10::XalanSourceTreeComment, unsigned long> *>::Node"* }
%"struct.xalanc_1_10::XalanList<xalanc_1_10::ArenaBlock<xalanc_1_10::XalanSourceTreeComment, unsigned long> *>::Node" = type { %"class.xalanc_1_10::ArenaBlock.68"*, %"struct.xalanc_1_10::XalanList<xalanc_1_10::ArenaBlock<xalanc_1_10::XalanSourceTreeComment, unsigned long> *>::Node"*, %"struct.xalanc_1_10::XalanList<xalanc_1_10::ArenaBlock<xalanc_1_10::XalanSourceTreeComment, unsigned long> *>::Node"* }
%"class.xalanc_1_10::ArenaBlock.68" = type { %"class.xalanc_1_10::ArenaBlockBase.69" }
%"class.xalanc_1_10::ArenaBlockBase.69" = type { %"class.xalanc_1_10::XalanAllocator.70", i64, i64, %"class.xalanc_1_10::XalanSourceTreeComment"* }
%"class.xalanc_1_10::XalanAllocator.70" = type { %"class.xercesc_2_7::MemoryManager"* }
%"class.xalanc_1_10::XalanSourceTreeComment" = type { %"class.xalanc_1_10::XalanComment", %"class.xalanc_1_10::XalanDOMString"*, %"class.xalanc_1_10::XalanSourceTreeDocument"*, %"class.xalanc_1_10::XalanNode"*, %"class.xalanc_1_10::XalanNode"*, %"class.xalanc_1_10::XalanNode"*, i64 }
%"class.xalanc_1_10::XalanComment" = type { %"class.xalanc_1_10::XalanCharacterData" }
%"class.xalanc_1_10::XalanCharacterData" = type { %"class.xalanc_1_10::XalanNode" }
%"class.xalanc_1_10::XalanSourceTreeElementAAllocator" = type { %"class.xalanc_1_10::ArenaAllocator.16" }
%"class.xalanc_1_10::ArenaAllocator.16" = type { i32 (...)**, i64, %"class.xalanc_1_10::XalanList.17" }
%"class.xalanc_1_10::XalanList.17" = type { %"class.xercesc_2_7::MemoryManager"*, %"struct.xalanc_1_10::XalanList<xalanc_1_10::ArenaBlock<xalanc_1_10::XalanSourceTreeElementA, unsigned long> *>::Node"*, %"struct.xalanc_1_10::XalanList<xalanc_1_10::ArenaBlock<xalanc_1_10::XalanSourceTreeElementA, unsigned long> *>::Node"* }
%"struct.xalanc_1_10::XalanList<xalanc_1_10::ArenaBlock<xalanc_1_10::XalanSourceTreeElementA, unsigned long> *>::Node" = type { %"class.xalanc_1_10::ArenaBlock.71"*, %"struct.xalanc_1_10::XalanList<xalanc_1_10::ArenaBlock<xalanc_1_10::XalanSourceTreeElementA, unsigned long> *>::Node"*, %"struct.xalanc_1_10::XalanList<xalanc_1_10::ArenaBlock<xalanc_1_10::XalanSourceTreeElementA, unsigned long> *>::Node"* }
%"class.xalanc_1_10::ArenaBlock.71" = type { %"class.xalanc_1_10::ArenaBlockBase.72" }
%"class.xalanc_1_10::ArenaBlockBase.72" = type { %"class.xalanc_1_10::XalanAllocator.73", i64, i64, %"class.xalanc_1_10::XalanSourceTreeElementA"* }
%"class.xalanc_1_10::XalanAllocator.73" = type { %"class.xercesc_2_7::MemoryManager"* }
%"class.xalanc_1_10::XalanSourceTreeElementA" = type { %"class.xalanc_1_10::XalanSourceTreeElement", %"class.xalanc_1_10::XalanNamedNodeMap", %"class.xalanc_1_10::XalanSourceTreeAttr"**, i64 }
%"class.xalanc_1_10::XalanNamedNodeMap" = type { i32 (...)** }
%"class.xalanc_1_10::XalanSourceTreeElementANSAllocator" = type { %"class.xalanc_1_10::ArenaAllocator.18" }
%"class.xalanc_1_10::ArenaAllocator.18" = type { i32 (...)**, i64, %"class.xalanc_1_10::XalanList.19" }
%"class.xalanc_1_10::XalanList.19" = type { %"class.xercesc_2_7::MemoryManager"*, %"struct.xalanc_1_10::XalanList<xalanc_1_10::ArenaBlock<xalanc_1_10::XalanSourceTreeElementANS, unsigned long> *>::Node"*, %"struct.xalanc_1_10::XalanList<xalanc_1_10::ArenaBlock<xalanc_1_10::XalanSourceTreeElementANS, unsigned long> *>::Node"* }
%"struct.xalanc_1_10::XalanList<xalanc_1_10::ArenaBlock<xalanc_1_10::XalanSourceTreeElementANS, unsigned long> *>::Node" = type { %"class.xalanc_1_10::ArenaBlock.74"*, %"struct.xalanc_1_10::XalanList<xalanc_1_10::ArenaBlock<xalanc_1_10::XalanSourceTreeElementANS, unsigned long> *>::Node"*, %"struct.xalanc_1_10::XalanList<xalanc_1_10::ArenaBlock<xalanc_1_10::XalanSourceTreeElementANS, unsigned long> *>::Node"* }
%"class.xalanc_1_10::ArenaBlock.74" = type { %"class.xalanc_1_10::ArenaBlockBase.75" }
%"class.xalanc_1_10::ArenaBlockBase.75" = type { %"class.xalanc_1_10::XalanAllocator.76", i64, i64, %"class.xalanc_1_10::XalanSourceTreeElementANS"* }
%"class.xalanc_1_10::XalanAllocator.76" = type { %"class.xercesc_2_7::MemoryManager"* }
%"class.xalanc_1_10::XalanSourceTreeElementANS" = type { %"class.xalanc_1_10::XalanSourceTreeElementA", %"class.xalanc_1_10::XalanDOMString"*, %"class.xalanc_1_10::XalanDOMString"*, %"class.xalanc_1_10::XalanDOMString"* }
%"class.xalanc_1_10::XalanSourceTreeElementNAAllocator" = type { %"class.xalanc_1_10::ArenaAllocator.20" }
%"class.xalanc_1_10::ArenaAllocator.20" = type { i32 (...)**, i64, %"class.xalanc_1_10::XalanList.21" }
%"class.xalanc_1_10::XalanList.21" = type { %"class.xercesc_2_7::MemoryManager"*, %"struct.xalanc_1_10::XalanList<xalanc_1_10::ArenaBlock<xalanc_1_10::XalanSourceTreeElementNA, unsigned long> *>::Node"*, %"struct.xalanc_1_10::XalanList<xalanc_1_10::ArenaBlock<xalanc_1_10::XalanSourceTreeElementNA, unsigned long> *>::Node"* }
%"struct.xalanc_1_10::XalanList<xalanc_1_10::ArenaBlock<xalanc_1_10::XalanSourceTreeElementNA, unsigned long> *>::Node" = type { %"class.xalanc_1_10::ArenaBlock.77"*, %"struct.xalanc_1_10::XalanList<xalanc_1_10::ArenaBlock<xalanc_1_10::XalanSourceTreeElementNA, unsigned long> *>::Node"*, %"struct.xalanc_1_10::XalanList<xalanc_1_10::ArenaBlock<xalanc_1_10::XalanSourceTreeElementNA, unsigned long> *>::Node"* }
%"class.xalanc_1_10::ArenaBlock.77" = type { %"class.xalanc_1_10::ArenaBlockBase.78" }
%"class.xalanc_1_10::ArenaBlockBase.78" = type { %"class.xalanc_1_10::XalanAllocator.79", i64, i64, %"class.xalanc_1_10::XalanSourceTreeElementNA"* }
%"class.xalanc_1_10::XalanAllocator.79" = type { %"class.xercesc_2_7::MemoryManager"* }
%"class.xalanc_1_10::XalanSourceTreeElementNA" = type { %"class.xalanc_1_10::XalanSourceTreeElement" }
%"class.xalanc_1_10::XalanSourceTreeElementNANSAllocator" = type { %"class.xalanc_1_10::ArenaAllocator.22" }
%"class.xalanc_1_10::ArenaAllocator.22" = type { i32 (...)**, i64, %"class.xalanc_1_10::XalanList.23" }
%"class.xalanc_1_10::XalanList.23" = type { %"class.xercesc_2_7::MemoryManager"*, %"struct.xalanc_1_10::XalanList<xalanc_1_10::ArenaBlock<xalanc_1_10::XalanSourceTreeElementNANS, unsigned long> *>::Node"*, %"struct.xalanc_1_10::XalanList<xalanc_1_10::ArenaBlock<xalanc_1_10::XalanSourceTreeElementNANS, unsigned long> *>::Node"* }
%"struct.xalanc_1_10::XalanList<xalanc_1_10::ArenaBlock<xalanc_1_10::XalanSourceTreeElementNANS, unsigned long> *>::Node" = type { %"class.xalanc_1_10::ArenaBlock.80"*, %"struct.xalanc_1_10::XalanList<xalanc_1_10::ArenaBlock<xalanc_1_10::XalanSourceTreeElementNANS, unsigned long> *>::Node"*, %"struct.xalanc_1_10::XalanList<xalanc_1_10::ArenaBlock<xalanc_1_10::XalanSourceTreeElementNANS, unsigned long> *>::Node"* }
%"class.xalanc_1_10::ArenaBlock.80" = type { %"class.xalanc_1_10::ArenaBlockBase.81" }
%"class.xalanc_1_10::ArenaBlockBase.81" = type { %"class.xalanc_1_10::XalanAllocator.82", i64, i64, %"class.xalanc_1_10::XalanSourceTreeElementNANS"* }
%"class.xalanc_1_10::XalanAllocator.82" = type { %"class.xercesc_2_7::MemoryManager"* }
%"class.xalanc_1_10::XalanSourceTreeElementNANS" = type { %"class.xalanc_1_10::XalanSourceTreeElementNA", %"class.xalanc_1_10::XalanDOMString"*, %"class.xalanc_1_10::XalanDOMString"*, %"class.xalanc_1_10::XalanDOMString"* }
%"class.xalanc_1_10::XalanSourceTreeProcessingInstructionAllocator" = type { %"class.xalanc_1_10::ArenaAllocator.24" }
%"class.xalanc_1_10::ArenaAllocator.24" = type { i32 (...)**, i64, %"class.xalanc_1_10::XalanList.25" }
%"class.xalanc_1_10::XalanList.25" = type { %"class.xercesc_2_7::MemoryManager"*, %"struct.xalanc_1_10::XalanList<xalanc_1_10::ArenaBlock<xalanc_1_10::XalanSourceTreeProcessingInstruction, unsigned long> *>::Node"*, %"struct.xalanc_1_10::XalanList<xalanc_1_10::ArenaBlock<xalanc_1_10::XalanSourceTreeProcessingInstruction, unsigned long> *>::Node"* }
%"struct.xalanc_1_10::XalanList<xalanc_1_10::ArenaBlock<xalanc_1_10::XalanSourceTreeProcessingInstruction, unsigned long> *>::Node" = type { %"class.xalanc_1_10::ArenaBlock.83"*, %"struct.xalanc_1_10::XalanList<xalanc_1_10::ArenaBlock<xalanc_1_10::XalanSourceTreeProcessingInstruction, unsigned long> *>::Node"*, %"struct.xalanc_1_10::XalanList<xalanc_1_10::ArenaBlock<xalanc_1_10::XalanSourceTreeProcessingInstruction, unsigned long> *>::Node"* }
%"class.xalanc_1_10::ArenaBlock.83" = type { %"class.xalanc_1_10::ArenaBlockBase.84" }
%"class.xalanc_1_10::ArenaBlockBase.84" = type { %"class.xalanc_1_10::XalanAllocator.85", i64, i64, %"class.xalanc_1_10::XalanSourceTreeProcessingInstruction"* }
%"class.xalanc_1_10::XalanAllocator.85" = type { %"class.xercesc_2_7::MemoryManager"* }
%"class.xalanc_1_10::XalanSourceTreeProcessingInstruction" = type { %"class.xalanc_1_10::XalanProcessingInstruction", %"class.xalanc_1_10::XalanDOMString"*, %"class.xalanc_1_10::XalanDOMString"*, %"class.xalanc_1_10::XalanSourceTreeDocument"*, %"class.xalanc_1_10::XalanNode"*, %"class.xalanc_1_10::XalanNode"*, %"class.xalanc_1_10::XalanNode"*, i64 }
%"class.xalanc_1_10::XalanProcessingInstruction" = type { %"class.xalanc_1_10::XalanNode" }
%"class.xalanc_1_10::XalanSourceTreeTextAllocator" = type { %"class.xalanc_1_10::ArenaAllocator.26" }
%"class.xalanc_1_10::ArenaAllocator.26" = type { i32 (...)**, i64, %"class.xalanc_1_10::XalanList.27" }
%"class.xalanc_1_10::XalanList.27" = type { %"class.xercesc_2_7::MemoryManager"*, %"struct.xalanc_1_10::XalanList<xalanc_1_10::ArenaBlock<xalanc_1_10::XalanSourceTreeText, unsigned long> *>::Node"*, %"struct.xalanc_1_10::XalanList<xalanc_1_10::ArenaBlock<xalanc_1_10::XalanSourceTreeText, unsigned long> *>::Node"* }
%"struct.xalanc_1_10::XalanList<xalanc_1_10::ArenaBlock<xalanc_1_10::XalanSourceTreeText, unsigned long> *>::Node" = type { %"class.xalanc_1_10::ArenaBlock.86"*, %"struct.xalanc_1_10::XalanList<xalanc_1_10::ArenaBlock<xalanc_1_10::XalanSourceTreeText, unsigned long> *>::Node"*, %"struct.xalanc_1_10::XalanList<xalanc_1_10::ArenaBlock<xalanc_1_10::XalanSourceTreeText, unsigned long> *>::Node"* }
%"class.xalanc_1_10::ArenaBlock.86" = type { %"class.xalanc_1_10::ArenaBlockBase.87" }
%"class.xalanc_1_10::ArenaBlockBase.87" = type { %"class.xalanc_1_10::XalanAllocator.88", i64, i64, %"class.xalanc_1_10::XalanSourceTreeText"* }
%"class.xalanc_1_10::XalanAllocator.88" = type { %"class.xercesc_2_7::MemoryManager"* }
%"class.xalanc_1_10::XalanSourceTreeText" = type { %"class.xalanc_1_10::XalanText", %"class.xalanc_1_10::XalanDOMString"*, %"class.xalanc_1_10::XalanNode"*, %"class.xalanc_1_10::XalanNode"*, %"class.xalanc_1_10::XalanNode"*, i64 }
%"class.xalanc_1_10::XalanText" = type { %"class.xalanc_1_10::XalanCharacterData" }
%"class.xalanc_1_10::XalanSourceTreeTextIWSAllocator" = type { %"class.xalanc_1_10::ArenaAllocator.28" }
%"class.xalanc_1_10::ArenaAllocator.28" = type { i32 (...)**, i64, %"class.xalanc_1_10::XalanList.29" }
%"class.xalanc_1_10::XalanList.29" = type { %"class.xercesc_2_7::MemoryManager"*, %"struct.xalanc_1_10::XalanList<xalanc_1_10::ArenaBlock<xalanc_1_10::XalanSourceTreeTextIWS, unsigned long> *>::Node"*, %"struct.xalanc_1_10::XalanList<xalanc_1_10::ArenaBlock<xalanc_1_10::XalanSourceTreeTextIWS, unsigned long> *>::Node"* }
%"struct.xalanc_1_10::XalanList<xalanc_1_10::ArenaBlock<xalanc_1_10::XalanSourceTreeTextIWS, unsigned long> *>::Node" = type { %"class.xalanc_1_10::ArenaBlock.89"*, %"struct.xalanc_1_10::XalanList<xalanc_1_10::ArenaBlock<xalanc_1_10::XalanSourceTreeTextIWS, unsigned long> *>::Node"*, %"struct.xalanc_1_10::XalanList<xalanc_1_10::ArenaBlock<xalanc_1_10::XalanSourceTreeTextIWS, unsigned long> *>::Node"* }
%"class.xalanc_1_10::ArenaBlock.89" = type { %"class.xalanc_1_10::ArenaBlockBase.90" }
%"class.xalanc_1_10::ArenaBlockBase.90" = type { %"class.xalanc_1_10::XalanAllocator.91", i64, i64, %"class.xalanc_1_10::XalanSourceTreeTextIWS"* }
%"class.xalanc_1_10::XalanAllocator.91" = type { %"class.xercesc_2_7::MemoryManager"* }
%"class.xalanc_1_10::XalanSourceTreeTextIWS" = type { %"class.xalanc_1_10::XalanSourceTreeText" }
%"class.xalanc_1_10::XalanDOMStringPool" = type { i32 (...)**, %"class.xalanc_1_10::XalanDOMStringAllocator", i64, %"class.xalanc_1_10::XalanDOMStringHashTable" }
%"class.xalanc_1_10::XalanDOMStringHashTable" = type <{ i64, i64, %"class.xalanc_1_10::XalanMemMgrAutoPtrArray", i64, i32, [4 x i8] }>
%"class.xalanc_1_10::XalanMemMgrAutoPtrArray" = type { %"class.xalanc_1_10::XalanMemMgrAutoPtrArray<xalanc_1_10::XalanVector<const xalanc_1_10::XalanDOMString *, xalanc_1_10::MemoryManagedConstructionTraits<const xalanc_1_10::XalanDOMString *> > >::MemMgrAutoPtrArrayData" }
%"class.xalanc_1_10::XalanMemMgrAutoPtrArray<xalanc_1_10::XalanVector<const xalanc_1_10::XalanDOMString *, xalanc_1_10::MemoryManagedConstructionTraits<const xalanc_1_10::XalanDOMString *> > >::MemMgrAutoPtrArrayData" = type { %"class.xercesc_2_7::MemoryManager"*, %"class.xalanc_1_10::XalanVector.32"*, i64 }
%"class.xalanc_1_10::XalanVector.32" = type { %"class.xercesc_2_7::MemoryManager"*, i64, i64, %"class.xalanc_1_10::XalanDOMString"** }
%"class.xalanc_1_10::XalanArrayAllocator" = type { %"class.xalanc_1_10::XalanList.33", i64, %"struct.std::pair.34"* }
%"class.xalanc_1_10::XalanList.33" = type { %"class.xercesc_2_7::MemoryManager"*, %"struct.xalanc_1_10::XalanList<std::pair<unsigned long, xalanc_1_10::XalanVector<xalanc_1_10::XalanSourceTreeAttr *, xalanc_1_10::MemoryManagedConstructionTraits<xalanc_1_10::XalanSourceTreeAttr *> > *> >::Node"*, %"struct.xalanc_1_10::XalanList<std::pair<unsigned long, xalanc_1_10::XalanVector<xalanc_1_10::XalanSourceTreeAttr *, xalanc_1_10::MemoryManagedConstructionTraits<xalanc_1_10::XalanSourceTreeAttr *> > *> >::Node"* }
%"struct.xalanc_1_10::XalanList<std::pair<unsigned long, xalanc_1_10::XalanVector<xalanc_1_10::XalanSourceTreeAttr *, xalanc_1_10::MemoryManagedConstructionTraits<xalanc_1_10::XalanSourceTreeAttr *> > *> >::Node" = type opaque
%"struct.std::pair.34" = type opaque
%"class.xalanc_1_10::XalanMap.35" = type { %"struct.xalanc_1_10::hash_null_terminated_arrays", %"struct.xalanc_1_10::equal_null_terminated_arrays", %"class.xercesc_2_7::MemoryManager"*, float, i64, i64, %"class.xalanc_1_10::XalanList.38", %"class.xalanc_1_10::XalanList.38", %"class.xalanc_1_10::XalanVector.39", i64, i64 }
%"struct.xalanc_1_10::hash_null_terminated_arrays" = type { i8 }
%"struct.xalanc_1_10::equal_null_terminated_arrays" = type { i8 }
%"class.xalanc_1_10::XalanList.38" = type { %"class.xercesc_2_7::MemoryManager"*, %"struct.xalanc_1_10::XalanList<xalanc_1_10::XalanMap<const unsigned short *, xalanc_1_10::XalanSourceTreeElement *, xalanc_1_10::XalanMapKeyTraits<const xalanc_1_10::XalanDOMChar *> >::Entry>::Node"*, %"struct.xalanc_1_10::XalanList<xalanc_1_10::XalanMap<const unsigned short *, xalanc_1_10::XalanSourceTreeElement *, xalanc_1_10::XalanMapKeyTraits<const xalanc_1_10::XalanDOMChar *> >::Entry>::Node"* }
%"struct.xalanc_1_10::XalanList<xalanc_1_10::XalanMap<const unsigned short *, xalanc_1_10::XalanSourceTreeElement *, xalanc_1_10::XalanMapKeyTraits<const xalanc_1_10::XalanDOMChar *> >::Entry>::Node" = type opaque
%"class.xalanc_1_10::XalanVector.39" = type { %"class.xercesc_2_7::MemoryManager"*, i64, i64, %"class.xalanc_1_10::XalanVector.40"* }
%"class.xalanc_1_10::XalanVector.40" = type { %"class.xercesc_2_7::MemoryManager"*, i64, i64, %"struct.xalanc_1_10::XalanListIteratorBase.41"* }
%"struct.xalanc_1_10::XalanListIteratorBase.41" = type opaque
%"class.xalanc_1_10::XalanMap.42" = type { %"struct.xalanc_1_10::DOMStringHashFunction", %"struct.std::equal_to.44", %"class.xercesc_2_7::MemoryManager"*, float, i64, i64, %"class.xalanc_1_10::XalanList.46", %"class.xalanc_1_10::XalanList.46", %"class.xalanc_1_10::XalanVector.47", i64, i64 }
%"struct.xalanc_1_10::DOMStringHashFunction" = type { i8 }
%"struct.std::equal_to.44" = type { i8 }
%"class.xalanc_1_10::XalanList.46" = type { %"class.xercesc_2_7::MemoryManager"*, %"struct.xalanc_1_10::XalanList<xalanc_1_10::XalanMap<xalanc_1_10::XalanDOMString, xalanc_1_10::XalanDOMString, xalanc_1_10::XalanMapKeyTraits<xalanc_1_10::XalanDOMString> >::Entry>::Node"*, %"struct.xalanc_1_10::XalanList<xalanc_1_10::XalanMap<xalanc_1_10::XalanDOMString, xalanc_1_10::XalanDOMString, xalanc_1_10::XalanMapKeyTraits<xalanc_1_10::XalanDOMString> >::Entry>::Node"* }
%"struct.xalanc_1_10::XalanList<xalanc_1_10::XalanMap<xalanc_1_10::XalanDOMString, xalanc_1_10::XalanDOMString, xalanc_1_10::XalanMapKeyTraits<xalanc_1_10::XalanDOMString> >::Entry>::Node" = type opaque
%"class.xalanc_1_10::XalanVector.47" = type { %"class.xercesc_2_7::MemoryManager"*, i64, i64, %"class.xalanc_1_10::XalanVector.48"* }
%"class.xalanc_1_10::XalanVector.48" = type { %"class.xercesc_2_7::MemoryManager"*, i64, i64, %"struct.xalanc_1_10::XalanListIteratorBase.49"* }
%"struct.xalanc_1_10::XalanListIteratorBase.49" = type opaque
%"class.xalanc_1_10::XalanDOMStringAllocator" = type { %"class.xalanc_1_10::ArenaAllocator.30" }
%"class.xalanc_1_10::ArenaAllocator.30" = type { i32 (...)**, i64, %"class.xalanc_1_10::XalanList.31" }
%"class.xalanc_1_10::XalanList.31" = type { %"class.xercesc_2_7::MemoryManager"*, %"struct.xalanc_1_10::XalanList<xalanc_1_10::ArenaBlock<xalanc_1_10::XalanDOMString, unsigned long> *>::Node"*, %"struct.xalanc_1_10::XalanList<xalanc_1_10::ArenaBlock<xalanc_1_10::XalanDOMString, unsigned long> *>::Node"* }
%"struct.xalanc_1_10::XalanList<xalanc_1_10::ArenaBlock<xalanc_1_10::XalanDOMString, unsigned long> *>::Node" = type { %"class.xalanc_1_10::ArenaBlock"*, %"struct.xalanc_1_10::XalanList<xalanc_1_10::ArenaBlock<xalanc_1_10::XalanDOMString, unsigned long> *>::Node"*, %"struct.xalanc_1_10::XalanList<xalanc_1_10::ArenaBlock<xalanc_1_10::XalanDOMString, unsigned long> *>::Node"* }
%"class.xalanc_1_10::ArenaBlock" = type { %"class.xalanc_1_10::ArenaBlockBase" }
%"class.xalanc_1_10::ArenaBlockBase" = type { %"class.xalanc_1_10::XalanAllocator", i64, i64, %"class.xalanc_1_10::XalanDOMString"* }
%"class.xalanc_1_10::XalanAllocator" = type { %"class.xercesc_2_7::MemoryManager"* }
%"class.xalanc_1_10::XalanVector.50" = type { %"class.xercesc_2_7::MemoryManager"*, i64, i64, %"class.xalanc_1_10::XalanVector.51"* }
%"class.xalanc_1_10::XalanVector.51" = type { %"class.xercesc_2_7::MemoryManager"*, i64, i64, %"struct.xalanc_1_10::XalanListIteratorBase.52"* }
%"struct.xalanc_1_10::XalanListIteratorBase.52" = type { %"struct.xalanc_1_10::XalanList<xalanc_1_10::XalanMap<const xalanc_1_10::XalanDocument *, xalanc_1_10::XalanSourceTreeDocument *, xalanc_1_10::XalanMapKeyTraits<const xalanc_1_10::XalanDocument *> >::Entry>::Node"* }
%"class.xercesc_2_7::SAX2XMLReader" = type { i32 (...)** }
%"class.xalanc_1_10::XalanSourceTreeDOMSupport" = type { %"class.xalanc_1_10::DOMSupport", %"class.xalanc_1_10::XalanSourceTreeParserLiaison"* }
%"class.xalanc_1_10::DOMSupport" = type { i32 (...)** }
%"class.xercesc_2_7::MemoryManager" = type { i32 (...)** }
%"class.xercesc_2_7::XMLDeleter" = type { i32 (...)** }
%"class.xercesc_2_7::XMLAttDefList" = type { %"class.xercesc_2_7::XSerializable", %"class.xercesc_2_7::MemoryManager"* }
%"class.xercesc_2_7::DTDEntityDecl" = type <{ %"class.xercesc_2_7::XMLEntityDecl", i8, i8, i8, [5 x i8] }>
%"class.xercesc_2_7::XMLRefInfo" = type { %"class.xercesc_2_7::XSerializable", i8, i8, i16*, %"class.xercesc_2_7::MemoryManager"* }
%"struct.xalanc_1_10::XalanMapIterator" = type { %"struct.xalanc_1_10::XalanListIteratorBase.52" }
%"class.xercesc_2_7::InputSource" = type opaque
%"class.xalanc_1_10::XalanSourceTreeContentHandler" = type <{ %"class.xercesc_2_7::ContentHandler", %"class.xercesc_2_7::DTDHandler", %"class.xercesc_2_7::LexicalHandler", %"class.xalanc_1_10::XalanSourceTreeDocument"*, %"class.xalanc_1_10::XalanSourceTreeElement"*, %"class.xalanc_1_10::XalanVector.53", %"class.xalanc_1_10::XalanNode"*, %"class.xalanc_1_10::XalanVector.54", i8, [7 x i8], %"class.xalanc_1_10::XalanDOMString", i8, [7 x i8] }>
%"class.xercesc_2_7::ContentHandler" = type { i32 (...)** }
%"class.xercesc_2_7::LexicalHandler" = type { i32 (...)** }
%"class.xalanc_1_10::XalanVector.53" = type { %"class.xercesc_2_7::MemoryManager"*, i64, i64, %"class.xalanc_1_10::XalanSourceTreeElement"** }
%"class.xalanc_1_10::XalanVector.54" = type { %"class.xercesc_2_7::MemoryManager"*, i64, i64, %"class.xalanc_1_10::XalanNode"** }
%"struct.xalanc_1_10::XalanMapIterator.55" = type { %"struct.xalanc_1_10::XalanListIteratorBase.52" }
%"class.xercesc_2_7::DOMDocument" = type opaque
%"class.xalanc_1_10::XalanAutoPtr" = type { %"class.xercesc_2_7::SAX2XMLReader"* }
%"class.xercesc_2_7::SAX2XMLReaderImpl" = type { %"class.xercesc_2_7::SAX2XMLReader", %"class.xercesc_2_7::XMLDocumentHandler", %"class.xercesc_2_7::XMLErrorReporter", %"class.xercesc_2_7::XMLEntityHandler", %"class.xercesc_2_7::DocTypeHandler", i8, i8, i8, i8, i8, i32, i32, i32, %"class.xercesc_2_7::VecAttributesImpl", %"class.xercesc_2_7::ContentHandler"*, %"class.xercesc_2_7::RefVectorOf"*, %"class.xercesc_2_7::XMLStringPool"*, %"class.xercesc_2_7::ValueStackOf"*, %"class.xercesc_2_7::ValueStackOf"*, %"class.xercesc_2_7::DTDHandler"*, %"class.xercesc_2_7::EntityResolver"*, %"class.xercesc_2_7::XMLEntityResolver"*, %"class.xercesc_2_7::ErrorHandler"*, %"class.xercesc_2_7::PSVIHandler"*, %"class.xercesc_2_7::LexicalHandler"*, %"class.xercesc_2_7::DeclHandler"*, %"class.xercesc_2_7::XMLDocumentHandler"**, %"class.xercesc_2_7::XMLScanner"*, %"class.xercesc_2_7::GrammarResolver"*, %"class.xercesc_2_7::XMLStringPool"*, %"class.xercesc_2_7::XMLValidator"*, %"class.xercesc_2_7::MemoryManager"*, %"class.xercesc_2_7::XMLGrammarPool"* }
%"class.xercesc_2_7::VecAttributesImpl" = type { %"class.xercesc_2_7::Attributes", i8, i32, %"class.xercesc_2_7::RefVectorOf"*, %"class.xercesc_2_7::XMLScanner"* }
%"class.xercesc_2_7::Attributes" = type { i32 (...)** }
%"class.xercesc_2_7::ValueStackOf" = type opaque
%"class.xercesc_2_7::DeclHandler" = type opaque
%"class.xercesc_2_7::XSerializeEngine" = type <{ i16, i16, [4 x i8], %"class.xercesc_2_7::XMLGrammarPool"*, %"class.xercesc_2_7::BinInputStream"*, %"class.xercesc_2_7::BinOutputStream"*, i64, i64, i8*, i8*, i8*, i8*, %"class.xercesc_2_7::RefHashTableOf.56"*, %"class.xercesc_2_7::ValueVectorOf.57"*, i32, [4 x i8] }>
%"class.xercesc_2_7::BinOutputStream" = type opaque
%"class.xercesc_2_7::RefHashTableOf.56" = type opaque
%"class.xercesc_2_7::ValueVectorOf.57" = type opaque
%"class.xercesc_2_7::XProtoType" = type { i8*, %"class.xercesc_2_7::XSerializable"* (%"class.xercesc_2_7::MemoryManager"*)* }
%"struct.std::random_access_iterator_tag" = type { i8 }
%"struct.xalanc_1_10::XalanListIteratorBase.92" = type { %"struct.xalanc_1_10::XalanList<xalanc_1_10::XalanMap<const xalanc_1_10::XalanDocument *, xalanc_1_10::XalanSourceTreeDocument *, xalanc_1_10::XalanMapKeyTraits<const xalanc_1_10::XalanDocument *> >::Entry>::Node"* }

$_ZN11xercesc_2_710XMLDeleterD0Ev = comdat any

$_ZN11xercesc_2_710XMLDeleterD2Ev = comdat any

$_ZN11xercesc_2_713XSerializableD2Ev = comdat any

$_ZN11xercesc_2_713XMLAttDefListD0Ev = comdat any

$_ZN11xercesc_2_713DTDEntityDeclD0Ev = comdat any

$_ZN11xercesc_2_713DTDEntityDeclD2Ev = comdat any

$__clang_call_terminate = comdat any

$_ZN11xercesc_2_710XMLRefInfoD0Ev = comdat any

$_ZN11xercesc_2_710XMLRefInfoD2Ev = comdat any

$_ZN11xercesc_2_713SAX2XMLReader18setInputBufferSizeEm = comdat any

$_ZN11xalanc_1_108XalanMapIPKNS_13XalanDocumentEPNS_23XalanSourceTreeDocumentENS_17XalanMapKeyTraitsIS3_EEEC2ERN11xercesc_2_713MemoryManagerEfmm = comdat any

$_ZN11xalanc_1_108XalanMapIPKNS_13XalanDocumentEPNS_23XalanSourceTreeDocumentENS_17XalanMapKeyTraitsIS3_EEED2Ev = comdat any

$_ZN11xalanc_1_108XalanMapIPKNS_13XalanDocumentEPNS_23XalanSourceTreeDocumentENS_17XalanMapKeyTraitsIS3_EEE5beginEv = comdat any

$_ZNK11xalanc_1_1016XalanMapIteratorINS_22XalanMapIteratorTraitsISt4pairIKPKNS_13XalanDocumentEPNS_23XalanSourceTreeDocumentEEEENS_21XalanListIteratorBaseINS_23XalanListIteratorTraitsINS_8XalanMapIS5_S8_NS_17XalanMapKeyTraitsIS5_EEE5EntryEEENS_9XalanListISH_E4NodeEEEEneERKSN_ = comdat any

$_ZN11xalanc_1_108XalanMapIPKNS_13XalanDocumentEPNS_23XalanSourceTreeDocumentENS_17XalanMapKeyTraitsIS3_EEE3endEv = comdat any

$_ZNK11xalanc_1_1016XalanMapIteratorINS_22XalanMapIteratorTraitsISt4pairIKPKNS_13XalanDocumentEPNS_23XalanSourceTreeDocumentEEEENS_21XalanListIteratorBaseINS_23XalanListIteratorTraitsINS_8XalanMapIS5_S8_NS_17XalanMapKeyTraitsIS5_EEE5EntryEEENS_9XalanListISH_E4NodeEEEEdeEv = comdat any

$_ZN11xalanc_1_1016XalanMapIteratorINS_22XalanMapIteratorTraitsISt4pairIKPKNS_13XalanDocumentEPNS_23XalanSourceTreeDocumentEEEENS_21XalanListIteratorBaseINS_23XalanListIteratorTraitsINS_8XalanMapIS5_S8_NS_17XalanMapKeyTraitsIS5_EEE5EntryEEENS_9XalanListISH_E4NodeEEEEppEv = comdat any

$_ZN11xalanc_1_108XalanMapIPKNS_13XalanDocumentEPNS_23XalanSourceTreeDocumentENS_17XalanMapKeyTraitsIS3_EEE5clearEv = comdat any

$_ZNK11xalanc_1_1029XalanSourceTreeContentHandler11getDocumentEv = comdat any

$_ZN11xalanc_1_108XalanMapIPKNS_13XalanDocumentEPNS_23XalanSourceTreeDocumentENS_17XalanMapKeyTraitsIS3_EEE5eraseERKS3_ = comdat any

$_ZN11xalanc_1_108XalanMapIPKNS_13XalanDocumentEPNS_23XalanSourceTreeDocumentENS_17XalanMapKeyTraitsIS3_EEE16getMemoryManagerEv = comdat any

$_ZN11xalanc_1_1014XalanDOMString6assignEPKc = comdat any

$_ZNK11xalanc_1_108XalanMapIPKNS_13XalanDocumentEPNS_23XalanSourceTreeDocumentENS_17XalanMapKeyTraitsIS3_EEE4findERKS3_ = comdat any

$_ZNK11xalanc_1_1016XalanMapIteratorINS_27XalanMapConstIteratorTraitsISt4pairIKPKNS_13XalanDocumentEPNS_23XalanSourceTreeDocumentEEEENS_21XalanListIteratorBaseINS_23XalanListIteratorTraitsINS_8XalanMapIS5_S8_NS_17XalanMapKeyTraitsIS5_EEE5EntryEEENS_9XalanListISH_E4NodeEEEEneERKSN_ = comdat any

$_ZNK11xalanc_1_108XalanMapIPKNS_13XalanDocumentEPNS_23XalanSourceTreeDocumentENS_17XalanMapKeyTraitsIS3_EEE3endEv = comdat any

$_ZNK11xalanc_1_1016XalanMapIteratorINS_27XalanMapConstIteratorTraitsISt4pairIKPKNS_13XalanDocumentEPNS_23XalanSourceTreeDocumentEEEENS_21XalanListIteratorBaseINS_23XalanListIteratorTraitsINS_8XalanMapIS5_S8_NS_17XalanMapKeyTraitsIS5_EEE5EntryEEENS_9XalanListISH_E4NodeEEEEdeEv = comdat any

$_ZN11xalanc_1_108XalanMapIPKNS_13XalanDocumentEPNS_23XalanSourceTreeDocumentENS_17XalanMapKeyTraitsIS3_EEEixERKS3_ = comdat any

$_ZN11xercesc_2_716XMLReaderFactory15createXMLReaderEPNS_13MemoryManagerEPNS_14XMLGrammarPoolE = comdat any

$_ZN11xalanc_1_1012XalanAutoPtrIN11xercesc_2_713SAX2XMLReaderEEC2EPS2_ = comdat any

$_ZNK11xalanc_1_1012XalanAutoPtrIN11xercesc_2_713SAX2XMLReaderEEptEv = comdat any

$_ZN11xalanc_1_1012XalanAutoPtrIN11xercesc_2_713SAX2XMLReaderEE7releaseEv = comdat any

$_ZN11xalanc_1_1012XalanAutoPtrIN11xercesc_2_713SAX2XMLReaderEED2Ev = comdat any

$_ZN11xercesc_2_713XMLAttDefListD2Ev = comdat any

$_ZNK11xercesc_2_713DTDEntityDecl22getDeclaredInIntSubsetEv = comdat any

$_ZNK11xercesc_2_713DTDEntityDecl14getIsParameterEv = comdat any

$_ZNK11xercesc_2_713DTDEntityDecl16getIsSpecialCharEv = comdat any

$_ZN11xercesc_2_713SAX2XMLReaderD2Ev = comdat any

$_ZN11xercesc_2_713SAX2XMLReaderD0Ev = comdat any

$_ZN11xalanc_1_1028XalanSourceTreeParserLiaison16getMemoryManagerEv = comdat any

$_ZNK11xalanc_1_1014XalanDOMString10invariantsEv = comdat any

$_ZN11xalanc_1_1014XalanDOMString6appendEPKc = comdat any

$_ZN11xalanc_1_109XalanListINS_8XalanMapIPKNS_13XalanDocumentEPNS_23XalanSourceTreeDocumentENS_17XalanMapKeyTraitsIS4_EEE5EntryEEC2ERN11xercesc_2_713MemoryManagerE = comdat any

$_ZN11xalanc_1_1011XalanVectorINS0_INS_21XalanListIteratorBaseINS_23XalanListIteratorTraitsINS_8XalanMapIPKNS_13XalanDocumentEPNS_23XalanSourceTreeDocumentENS_17XalanMapKeyTraitsIS6_EEE5EntryEEENS_9XalanListISC_E4NodeEEENS_31MemoryManagedConstructionTraitsISH_EEEENS_32ConstructWithMemoryManagerTraitsISK_EEEC2ERN11xercesc_2_713MemoryManagerEm = comdat any

$_ZN11xalanc_1_109XalanListINS_8XalanMapIPKNS_13XalanDocumentEPNS_23XalanSourceTreeDocumentENS_17XalanMapKeyTraitsIS4_EEE5EntryEED2Ev = comdat any

$_ZN11xalanc_1_1011XalanVectorINS0_INS_21XalanListIteratorBaseINS_23XalanListIteratorTraitsINS_8XalanMapIPKNS_13XalanDocumentEPNS_23XalanSourceTreeDocumentENS_17XalanMapKeyTraitsIS6_EEE5EntryEEENS_9XalanListISC_E4NodeEEENS_31MemoryManagedConstructionTraitsISH_EEEENS_32ConstructWithMemoryManagerTraitsISK_EEE8allocateEm = comdat any

$_ZNK11xalanc_1_1011XalanVectorINS0_INS_21XalanListIteratorBaseINS_23XalanListIteratorTraitsINS_8XalanMapIPKNS_13XalanDocumentEPNS_23XalanSourceTreeDocumentENS_17XalanMapKeyTraitsIS6_EEE5EntryEEENS_9XalanListISC_E4NodeEEENS_31MemoryManagedConstructionTraitsISH_EEEENS_32ConstructWithMemoryManagerTraitsISK_EEE10invariantsEv = comdat any

$_ZN11xalanc_1_109XalanListINS_8XalanMapIPKNS_13XalanDocumentEPNS_23XalanSourceTreeDocumentENS_17XalanMapKeyTraitsIS4_EEE5EntryEE5beginEv = comdat any

$_ZNK11xalanc_1_1021XalanListIteratorBaseINS_23XalanListIteratorTraitsINS_8XalanMapIPKNS_13XalanDocumentEPNS_23XalanSourceTreeDocumentENS_17XalanMapKeyTraitsIS5_EEE5EntryEEENS_9XalanListISB_E4NodeEEneERKSG_ = comdat any

$_ZN11xalanc_1_109XalanListINS_8XalanMapIPKNS_13XalanDocumentEPNS_23XalanSourceTreeDocumentENS_17XalanMapKeyTraitsIS4_EEE5EntryEE3endEv = comdat any

$_ZN11xalanc_1_109XalanListINS_8XalanMapIPKNS_13XalanDocumentEPNS_23XalanSourceTreeDocumentENS_17XalanMapKeyTraitsIS4_EEE5EntryEE11destroyNodeERNSB_4NodeE = comdat any

$_ZN11xalanc_1_1021XalanListIteratorBaseINS_23XalanListIteratorTraitsINS_8XalanMapIPKNS_13XalanDocumentEPNS_23XalanSourceTreeDocumentENS_17XalanMapKeyTraitsIS5_EEE5EntryEEENS_9XalanListISB_E4NodeEEppEi = comdat any

$_ZN11xalanc_1_1021XalanListIteratorBaseINS_23XalanListIteratorTraitsINS_8XalanMapIPKNS_13XalanDocumentEPNS_23XalanSourceTreeDocumentENS_17XalanMapKeyTraitsIS5_EEE5EntryEEENS_9XalanListISB_E4NodeEE4nodeEv = comdat any

$_ZN11xalanc_1_109XalanListINS_8XalanMapIPKNS_13XalanDocumentEPNS_23XalanSourceTreeDocumentENS_17XalanMapKeyTraitsIS4_EEE5EntryEE10deallocateEPNSB_4NodeE = comdat any

$_ZN11xalanc_1_109XalanListINS_8XalanMapIPKNS_13XalanDocumentEPNS_23XalanSourceTreeDocumentENS_17XalanMapKeyTraitsIS4_EEE5EntryEE11getListHeadEv = comdat any

$_ZN11xalanc_1_1021XalanListIteratorBaseINS_23XalanListIteratorTraitsINS_8XalanMapIPKNS_13XalanDocumentEPNS_23XalanSourceTreeDocumentENS_17XalanMapKeyTraitsIS5_EEE5EntryEEENS_9XalanListISB_E4NodeEEC2ERSF_ = comdat any

$_ZN11xalanc_1_109XalanListINS_8XalanMapIPKNS_13XalanDocumentEPNS_23XalanSourceTreeDocumentENS_17XalanMapKeyTraitsIS4_EEE5EntryEE8allocateEm = comdat any

$_ZNK11xalanc_1_1021XalanListIteratorBaseINS_23XalanListIteratorTraitsINS_8XalanMapIPKNS_13XalanDocumentEPNS_23XalanSourceTreeDocumentENS_17XalanMapKeyTraitsIS5_EEE5EntryEEENS_9XalanListISB_E4NodeEEeqERKSG_ = comdat any

$_ZN11xalanc_1_108XalanMapIPKNS_13XalanDocumentEPNS_23XalanSourceTreeDocumentENS_17XalanMapKeyTraitsIS3_EEE15doRemoveEntriesEv = comdat any

$_ZNK11xalanc_1_1011XalanVectorINS0_INS_21XalanListIteratorBaseINS_23XalanListIteratorTraitsINS_8XalanMapIPKNS_13XalanDocumentEPNS_23XalanSourceTreeDocumentENS_17XalanMapKeyTraitsIS6_EEE5EntryEEENS_9XalanListISC_E4NodeEEENS_31MemoryManagedConstructionTraitsISH_EEEENS_32ConstructWithMemoryManagerTraitsISK_EEE5emptyEv = comdat any

$_ZN11xalanc_1_108XalanMapIPKNS_13XalanDocumentEPNS_23XalanSourceTreeDocumentENS_17XalanMapKeyTraitsIS3_EEE10deallocateEPSt4pairIKS3_S5_E = comdat any

$_ZNK11xalanc_1_1021XalanListIteratorBaseINS_23XalanListIteratorTraitsINS_8XalanMapIPKNS_13XalanDocumentEPNS_23XalanSourceTreeDocumentENS_17XalanMapKeyTraitsIS5_EEE5EntryEEENS_9XalanListISB_E4NodeEEptEv = comdat any

$_ZN11xalanc_1_1021XalanListIteratorBaseINS_23XalanListIteratorTraitsINS_8XalanMapIPKNS_13XalanDocumentEPNS_23XalanSourceTreeDocumentENS_17XalanMapKeyTraitsIS5_EEE5EntryEEENS_9XalanListISB_E4NodeEEppEv = comdat any

$_ZN11xalanc_1_1011XalanVectorINS0_INS_21XalanListIteratorBaseINS_23XalanListIteratorTraitsINS_8XalanMapIPKNS_13XalanDocumentEPNS_23XalanSourceTreeDocumentENS_17XalanMapKeyTraitsIS6_EEE5EntryEEENS_9XalanListISC_E4NodeEEENS_31MemoryManagedConstructionTraitsISH_EEEENS_32ConstructWithMemoryManagerTraitsISK_EEED2Ev = comdat any

$_ZNK11xalanc_1_108XalanMapIPKNS_13XalanDocumentEPNS_23XalanSourceTreeDocumentENS_17XalanMapKeyTraitsIS3_EEE4sizeEv = comdat any

$_ZN11xalanc_1_108XalanMapIPKNS_13XalanDocumentEPNS_23XalanSourceTreeDocumentENS_17XalanMapKeyTraitsIS3_EEE13doRemoveEntryERKNS_16XalanMapIteratorINS_22XalanMapIteratorTraitsISt4pairIKS3_S5_EEENS_21XalanListIteratorBaseINS_23XalanListIteratorTraitsINS8_5EntryEEENS_9XalanListISH_E4NodeEEEEE = comdat any

$_ZN11xalanc_1_109XalanListINS_8XalanMapIPKNS_13XalanDocumentEPNS_23XalanSourceTreeDocumentENS_17XalanMapKeyTraitsIS4_EEE5EntryEE6spliceENS_21XalanListIteratorBaseINS_23XalanListIteratorTraitsISA_EENSB_4NodeEEERSB_SG_ = comdat any

$_ZN11xalanc_1_1021XalanListIteratorBaseINS_23XalanListIteratorTraitsINS_8XalanMapIPKNS_13XalanDocumentEPNS_23XalanSourceTreeDocumentENS_17XalanMapKeyTraitsIS5_EEE5EntryEEENS_9XalanListISB_E4NodeEEC2ERKSG_ = comdat any

$_ZN11xalanc_1_1011XalanVectorINS0_INS_21XalanListIteratorBaseINS_23XalanListIteratorTraitsINS_8XalanMapIPKNS_13XalanDocumentEPNS_23XalanSourceTreeDocumentENS_17XalanMapKeyTraitsIS6_EEE5EntryEEENS_9XalanListISC_E4NodeEEENS_31MemoryManagedConstructionTraitsISH_EEEENS_32ConstructWithMemoryManagerTraitsISK_EEE7destroyEPSK_SO_ = comdat any

$_ZN11xalanc_1_1011XalanVectorINS0_INS_21XalanListIteratorBaseINS_23XalanListIteratorTraitsINS_8XalanMapIPKNS_13XalanDocumentEPNS_23XalanSourceTreeDocumentENS_17XalanMapKeyTraitsIS6_EEE5EntryEEENS_9XalanListISC_E4NodeEEENS_31MemoryManagedConstructionTraitsISH_EEEENS_32ConstructWithMemoryManagerTraitsISK_EEE5beginEv = comdat any

$_ZN11xalanc_1_1011XalanVectorINS0_INS_21XalanListIteratorBaseINS_23XalanListIteratorTraitsINS_8XalanMapIPKNS_13XalanDocumentEPNS_23XalanSourceTreeDocumentENS_17XalanMapKeyTraitsIS6_EEE5EntryEEENS_9XalanListISC_E4NodeEEENS_31MemoryManagedConstructionTraitsISH_EEEENS_32ConstructWithMemoryManagerTraitsISK_EEE3endEv = comdat any

$_ZN11xalanc_1_1011XalanVectorINS0_INS_21XalanListIteratorBaseINS_23XalanListIteratorTraitsINS_8XalanMapIPKNS_13XalanDocumentEPNS_23XalanSourceTreeDocumentENS_17XalanMapKeyTraitsIS6_EEE5EntryEEENS_9XalanListISC_E4NodeEEENS_31MemoryManagedConstructionTraitsISH_EEEENS_32ConstructWithMemoryManagerTraitsISK_EEE10deallocateEPSK_ = comdat any

$_ZN11xalanc_1_1011XalanVectorINS0_INS_21XalanListIteratorBaseINS_23XalanListIteratorTraitsINS_8XalanMapIPKNS_13XalanDocumentEPNS_23XalanSourceTreeDocumentENS_17XalanMapKeyTraitsIS6_EEE5EntryEEENS_9XalanListISC_E4NodeEEENS_31MemoryManagedConstructionTraitsISH_EEEENS_32ConstructWithMemoryManagerTraitsISK_EEE7destroyERSK_ = comdat any

$_ZN11xalanc_1_1011XalanVectorINS_21XalanListIteratorBaseINS_23XalanListIteratorTraitsINS_8XalanMapIPKNS_13XalanDocumentEPNS_23XalanSourceTreeDocumentENS_17XalanMapKeyTraitsIS6_EEE5EntryEEENS_9XalanListISC_E4NodeEEENS_31MemoryManagedConstructionTraitsISH_EEED2Ev = comdat any

$_ZNK11xalanc_1_1011XalanVectorINS_21XalanListIteratorBaseINS_23XalanListIteratorTraitsINS_8XalanMapIPKNS_13XalanDocumentEPNS_23XalanSourceTreeDocumentENS_17XalanMapKeyTraitsIS6_EEE5EntryEEENS_9XalanListISC_E4NodeEEENS_31MemoryManagedConstructionTraitsISH_EEE10invariantsEv = comdat any

$_ZN11xalanc_1_1011XalanVectorINS_21XalanListIteratorBaseINS_23XalanListIteratorTraitsINS_8XalanMapIPKNS_13XalanDocumentEPNS_23XalanSourceTreeDocumentENS_17XalanMapKeyTraitsIS6_EEE5EntryEEENS_9XalanListISC_E4NodeEEENS_31MemoryManagedConstructionTraitsISH_EEE7destroyEPSH_SL_ = comdat any

$_ZN11xalanc_1_1011XalanVectorINS_21XalanListIteratorBaseINS_23XalanListIteratorTraitsINS_8XalanMapIPKNS_13XalanDocumentEPNS_23XalanSourceTreeDocumentENS_17XalanMapKeyTraitsIS6_EEE5EntryEEENS_9XalanListISC_E4NodeEEENS_31MemoryManagedConstructionTraitsISH_EEE5beginEv = comdat any

$_ZN11xalanc_1_1011XalanVectorINS_21XalanListIteratorBaseINS_23XalanListIteratorTraitsINS_8XalanMapIPKNS_13XalanDocumentEPNS_23XalanSourceTreeDocumentENS_17XalanMapKeyTraitsIS6_EEE5EntryEEENS_9XalanListISC_E4NodeEEENS_31MemoryManagedConstructionTraitsISH_EEE3endEv = comdat any

$_ZN11xalanc_1_1011XalanVectorINS_21XalanListIteratorBaseINS_23XalanListIteratorTraitsINS_8XalanMapIPKNS_13XalanDocumentEPNS_23XalanSourceTreeDocumentENS_17XalanMapKeyTraitsIS6_EEE5EntryEEENS_9XalanListISC_E4NodeEEENS_31MemoryManagedConstructionTraitsISH_EEE10deallocateEPSH_ = comdat any

$_ZN11xalanc_1_1011XalanVectorINS_21XalanListIteratorBaseINS_23XalanListIteratorTraitsINS_8XalanMapIPKNS_13XalanDocumentEPNS_23XalanSourceTreeDocumentENS_17XalanMapKeyTraitsIS6_EEE5EntryEEENS_9XalanListISC_E4NodeEEENS_31MemoryManagedConstructionTraitsISH_EEE7destroyERSH_ = comdat any

$_ZN11xalanc_1_1011XalanVectorINS_21XalanListIteratorBaseINS_23XalanListIteratorTraitsINS_8XalanMapIPKNS_13XalanDocumentEPNS_23XalanSourceTreeDocumentENS_17XalanMapKeyTraitsIS6_EEE5EntryEEENS_9XalanListISC_E4NodeEEENS_31MemoryManagedConstructionTraitsISH_EEE10endPointerEv = comdat any

$_ZN11xalanc_1_1011XalanVectorINS0_INS_21XalanListIteratorBaseINS_23XalanListIteratorTraitsINS_8XalanMapIPKNS_13XalanDocumentEPNS_23XalanSourceTreeDocumentENS_17XalanMapKeyTraitsIS6_EEE5EntryEEENS_9XalanListISC_E4NodeEEENS_31MemoryManagedConstructionTraitsISH_EEEENS_32ConstructWithMemoryManagerTraitsISK_EEE10endPointerEv = comdat any

$_ZN11xalanc_1_1016XalanMapIteratorINS_22XalanMapIteratorTraitsISt4pairIKPKNS_13XalanDocumentEPNS_23XalanSourceTreeDocumentEEEENS_21XalanListIteratorBaseINS_23XalanListIteratorTraitsINS_8XalanMapIS5_S8_NS_17XalanMapKeyTraitsIS5_EEE5EntryEEENS_9XalanListISH_E4NodeEEEEC2ERKSM_ = comdat any

$_ZNK11xalanc_1_1016XalanMapIteratorINS_22XalanMapIteratorTraitsISt4pairIKPKNS_13XalanDocumentEPNS_23XalanSourceTreeDocumentEEEENS_21XalanListIteratorBaseINS_23XalanListIteratorTraitsINS_8XalanMapIS5_S8_NS_17XalanMapKeyTraitsIS5_EEE5EntryEEENS_9XalanListISH_E4NodeEEEEeqERKSN_ = comdat any

$_ZN11xalanc_1_1011XalanVectorINS_21XalanListIteratorBaseINS_23XalanListIteratorTraitsINS_8XalanMapIPKNS_13XalanDocumentEPNS_23XalanSourceTreeDocumentENS_17XalanMapKeyTraitsIS6_EEE5EntryEEENS_9XalanListISC_E4NodeEEENS_31MemoryManagedConstructionTraitsISH_EEE5clearEv = comdat any

$_ZN11xalanc_1_1011XalanVectorINS_21XalanListIteratorBaseINS_23XalanListIteratorTraitsINS_8XalanMapIPKNS_13XalanDocumentEPNS_23XalanSourceTreeDocumentENS_17XalanMapKeyTraitsIS6_EEE5EntryEEENS_9XalanListISC_E4NodeEEENS_31MemoryManagedConstructionTraitsISH_EEE12shrinkToSizeEm = comdat any

$_ZN11xalanc_1_1011XalanVectorINS_21XalanListIteratorBaseINS_23XalanListIteratorTraitsINS_8XalanMapIPKNS_13XalanDocumentEPNS_23XalanSourceTreeDocumentENS_17XalanMapKeyTraitsIS6_EEE5EntryEEENS_9XalanListISC_E4NodeEEENS_31MemoryManagedConstructionTraitsISH_EEE8pop_backEv = comdat any

$_ZN11xalanc_1_108XalanMapIPKNS_13XalanDocumentEPNS_23XalanSourceTreeDocumentENS_17XalanMapKeyTraitsIS3_EEE4findERKS3_ = comdat any

$_ZN11xalanc_1_108XalanMapIPKNS_13XalanDocumentEPNS_23XalanSourceTreeDocumentENS_17XalanMapKeyTraitsIS3_EEE7doEraseENS_16XalanMapIteratorINS_22XalanMapIteratorTraitsISt4pairIKS3_S5_EEENS_21XalanListIteratorBaseINS_23XalanListIteratorTraitsINS8_5EntryEEENS_9XalanListISH_E4NodeEEEEE = comdat any

$_ZN11xalanc_1_1016XalanMapIteratorINS_22XalanMapIteratorTraitsISt4pairIKPKNS_13XalanDocumentEPNS_23XalanSourceTreeDocumentEEEENS_21XalanListIteratorBaseINS_23XalanListIteratorTraitsINS_8XalanMapIS5_S8_NS_17XalanMapKeyTraitsIS5_EEE5EntryEEENS_9XalanListISH_E4NodeEEEEC2ERKSN_ = comdat any

$_ZNK11xalanc_1_108XalanMapIPKNS_13XalanDocumentEPNS_23XalanSourceTreeDocumentENS_17XalanMapKeyTraitsIS3_EEE6doHashERKS3_ = comdat any

$_ZN11xalanc_1_1011XalanVectorINS0_INS_21XalanListIteratorBaseINS_23XalanListIteratorTraitsINS_8XalanMapIPKNS_13XalanDocumentEPNS_23XalanSourceTreeDocumentENS_17XalanMapKeyTraitsIS6_EEE5EntryEEENS_9XalanListISC_E4NodeEEENS_31MemoryManagedConstructionTraitsISH_EEEENS_32ConstructWithMemoryManagerTraitsISK_EEEixEm = comdat any

$_ZNKSt8equal_toIPKN11xalanc_1_1013XalanDocumentEEclERKS3_S6_ = comdat any

$_ZNK11xalanc_1_108XalanMapIPKNS_13XalanDocumentEPNS_23XalanSourceTreeDocumentENS_17XalanMapKeyTraitsIS3_EEE6doHashERKS3_m = comdat any

$_ZNK11xalanc_1_1011XalanVectorINS0_INS_21XalanListIteratorBaseINS_23XalanListIteratorTraitsINS_8XalanMapIPKNS_13XalanDocumentEPNS_23XalanSourceTreeDocumentENS_17XalanMapKeyTraitsIS6_EEE5EntryEEENS_9XalanListISC_E4NodeEEENS_31MemoryManagedConstructionTraitsISH_EEEENS_32ConstructWithMemoryManagerTraitsISK_EEE4sizeEv = comdat any

$_ZNK11xalanc_1_1011XalanHasherIPKNS_13XalanDocumentEEclERKS3_ = comdat any

$_ZN11xalanc_1_108XalanMapIPKNS_13XalanDocumentEPNS_23XalanSourceTreeDocumentENS_17XalanMapKeyTraitsIS3_EEE14compactBucketsEv = comdat any

$_ZN11xalanc_1_1011XalanVectorINS_21XalanListIteratorBaseINS_23XalanListIteratorTraitsINS_8XalanMapIPKNS_13XalanDocumentEPNS_23XalanSourceTreeDocumentENS_17XalanMapKeyTraitsIS6_EEE5EntryEEENS_9XalanListISC_E4NodeEEENS_31MemoryManagedConstructionTraitsISH_EEE5eraseEPSH_ = comdat any

$_ZNK11xalanc_1_1011XalanVectorINS_21XalanListIteratorBaseINS_23XalanListIteratorTraitsINS_8XalanMapIPKNS_13XalanDocumentEPNS_23XalanSourceTreeDocumentENS_17XalanMapKeyTraitsIS6_EEE5EntryEEENS_9XalanListISC_E4NodeEEENS_31MemoryManagedConstructionTraitsISH_EEE4sizeEv = comdat any

$_ZNK11xalanc_1_1011XalanVectorINS_21XalanListIteratorBaseINS_23XalanListIteratorTraitsINS_8XalanMapIPKNS_13XalanDocumentEPNS_23XalanSourceTreeDocumentENS_17XalanMapKeyTraitsIS6_EEE5EntryEEENS_9XalanListISC_E4NodeEEENS_31MemoryManagedConstructionTraitsISH_EEE8capacityEv = comdat any

$_ZN11xalanc_1_108XalanMapIPKNS_13XalanDocumentEPNS_23XalanSourceTreeDocumentENS_17XalanMapKeyTraitsIS3_EEE26calculateNewBucketCapacityEmm = comdat any

$_ZN11xalanc_1_1011XalanVectorINS_21XalanListIteratorBaseINS_23XalanListIteratorTraitsINS_8XalanMapIPKNS_13XalanDocumentEPNS_23XalanSourceTreeDocumentENS_17XalanMapKeyTraitsIS6_EEE5EntryEEENS_9XalanListISC_E4NodeEEENS_31MemoryManagedConstructionTraitsISH_EEEC2ERKSK_RN11xercesc_2_713MemoryManagerEm = comdat any

$_ZN11xalanc_1_1011XalanVectorINS_21XalanListIteratorBaseINS_23XalanListIteratorTraitsINS_8XalanMapIPKNS_13XalanDocumentEPNS_23XalanSourceTreeDocumentENS_17XalanMapKeyTraitsIS6_EEE5EntryEEENS_9XalanListISC_E4NodeEEENS_31MemoryManagedConstructionTraitsISH_EEE4swapERSK_ = comdat any

$_ZN11xalanc_1_1011XalanVectorINS_21XalanListIteratorBaseINS_23XalanListIteratorTraitsINS_8XalanMapIPKNS_13XalanDocumentEPNS_23XalanSourceTreeDocumentENS_17XalanMapKeyTraitsIS6_EEE5EntryEEENS_9XalanListISC_E4NodeEEENS_31MemoryManagedConstructionTraitsISH_EEE5eraseEPSH_SL_ = comdat any

$_ZSt4copyIPN11xalanc_1_1021XalanListIteratorBaseINS0_23XalanListIteratorTraitsINS0_8XalanMapIPKNS0_13XalanDocumentEPNS0_23XalanSourceTreeDocumentENS0_17XalanMapKeyTraitsIS6_EEE5EntryEEENS0_9XalanListISC_E4NodeEEESI_ET0_T_SK_SJ_ = comdat any

$_ZN11xalanc_1_1011XalanVectorINS_21XalanListIteratorBaseINS_23XalanListIteratorTraitsINS_8XalanMapIPKNS_13XalanDocumentEPNS_23XalanSourceTreeDocumentENS_17XalanMapKeyTraitsIS6_EEE5EntryEEENS_9XalanListISC_E4NodeEEENS_31MemoryManagedConstructionTraitsISH_EEE11shrinkCountEm = comdat any

$_ZN11xalanc_1_1011XalanVectorINS_21XalanListIteratorBaseINS_23XalanListIteratorTraitsINS_8XalanMapIPKNS_13XalanDocumentEPNS_23XalanSourceTreeDocumentENS_17XalanMapKeyTraitsIS6_EEE5EntryEEENS_9XalanListISC_E4NodeEEENS_31MemoryManagedConstructionTraitsISH_EEE14local_distanceEPKSH_SM_ = comdat any

$_ZSt13__copy_move_aILb0EPN11xalanc_1_1021XalanListIteratorBaseINS0_23XalanListIteratorTraitsINS0_8XalanMapIPKNS0_13XalanDocumentEPNS0_23XalanSourceTreeDocumentENS0_17XalanMapKeyTraitsIS6_EEE5EntryEEENS0_9XalanListISC_E4NodeEEESI_ET1_T0_SK_SJ_ = comdat any

$_ZSt12__miter_baseIPN11xalanc_1_1021XalanListIteratorBaseINS0_23XalanListIteratorTraitsINS0_8XalanMapIPKNS0_13XalanDocumentEPNS0_23XalanSourceTreeDocumentENS0_17XalanMapKeyTraitsIS6_EEE5EntryEEENS0_9XalanListISC_E4NodeEEEET_SJ_ = comdat any

$_ZSt12__niter_wrapIPN11xalanc_1_1021XalanListIteratorBaseINS0_23XalanListIteratorTraitsINS0_8XalanMapIPKNS0_13XalanDocumentEPNS0_23XalanSourceTreeDocumentENS0_17XalanMapKeyTraitsIS6_EEE5EntryEEENS0_9XalanListISC_E4NodeEEEET_RKSJ_SJ_ = comdat any

$_ZSt14__copy_move_a1ILb0EPN11xalanc_1_1021XalanListIteratorBaseINS0_23XalanListIteratorTraitsINS0_8XalanMapIPKNS0_13XalanDocumentEPNS0_23XalanSourceTreeDocumentENS0_17XalanMapKeyTraitsIS6_EEE5EntryEEENS0_9XalanListISC_E4NodeEEESI_ET1_T0_SK_SJ_ = comdat any

$_ZSt12__niter_baseIPN11xalanc_1_1021XalanListIteratorBaseINS0_23XalanListIteratorTraitsINS0_8XalanMapIPKNS0_13XalanDocumentEPNS0_23XalanSourceTreeDocumentENS0_17XalanMapKeyTraitsIS6_EEE5EntryEEENS0_9XalanListISC_E4NodeEEEET_SJ_ = comdat any

$_ZSt14__copy_move_a2ILb0EPN11xalanc_1_1021XalanListIteratorBaseINS0_23XalanListIteratorTraitsINS0_8XalanMapIPKNS0_13XalanDocumentEPNS0_23XalanSourceTreeDocumentENS0_17XalanMapKeyTraitsIS6_EEE5EntryEEENS0_9XalanListISC_E4NodeEEESI_ET1_T0_SK_SJ_ = comdat any

$_ZNSt11__copy_moveILb0ELb0ESt26random_access_iterator_tagE8__copy_mIPN11xalanc_1_1021XalanListIteratorBaseINS3_23XalanListIteratorTraitsINS3_8XalanMapIPKNS3_13XalanDocumentEPNS3_23XalanSourceTreeDocumentENS3_17XalanMapKeyTraitsIS9_EEE5EntryEEENS3_9XalanListISF_E4NodeEEESL_EET0_T_SN_SM_ = comdat any

$_ZN11xalanc_1_1021XalanListIteratorBaseINS_23XalanListIteratorTraitsINS_8XalanMapIPKNS_13XalanDocumentEPNS_23XalanSourceTreeDocumentENS_17XalanMapKeyTraitsIS5_EEE5EntryEEENS_9XalanListISB_E4NodeEEaSERKSG_ = comdat any

$_ZSt8distanceIPKN11xalanc_1_1021XalanListIteratorBaseINS0_23XalanListIteratorTraitsINS0_8XalanMapIPKNS0_13XalanDocumentEPNS0_23XalanSourceTreeDocumentENS0_17XalanMapKeyTraitsIS6_EEE5EntryEEENS0_9XalanListISC_E4NodeEEEENSt15iterator_traitsIT_E15difference_typeESL_SL_ = comdat any

$_ZSt10__distanceIPKN11xalanc_1_1021XalanListIteratorBaseINS0_23XalanListIteratorTraitsINS0_8XalanMapIPKNS0_13XalanDocumentEPNS0_23XalanSourceTreeDocumentENS0_17XalanMapKeyTraitsIS6_EEE5EntryEEENS0_9XalanListISC_E4NodeEEEENSt15iterator_traitsIT_E15difference_typeESL_SL_St26random_access_iterator_tag = comdat any

$_ZSt19__iterator_categoryIPKN11xalanc_1_1021XalanListIteratorBaseINS0_23XalanListIteratorTraitsINS0_8XalanMapIPKNS0_13XalanDocumentEPNS0_23XalanSourceTreeDocumentENS0_17XalanMapKeyTraitsIS6_EEE5EntryEEENS0_9XalanListISC_E4NodeEEEENSt15iterator_traitsIT_E17iterator_categoryERKSL_ = comdat any

$_ZN11xalanc_1_1011XalanVectorINS_21XalanListIteratorBaseINS_23XalanListIteratorTraitsINS_8XalanMapIPKNS_13XalanDocumentEPNS_23XalanSourceTreeDocumentENS_17XalanMapKeyTraitsIS6_EEE5EntryEEENS_9XalanListISC_E4NodeEEENS_31MemoryManagedConstructionTraitsISH_EEE9local_maxEmm = comdat any

$_ZN11xalanc_1_1011XalanVectorINS_21XalanListIteratorBaseINS_23XalanListIteratorTraitsINS_8XalanMapIPKNS_13XalanDocumentEPNS_23XalanSourceTreeDocumentENS_17XalanMapKeyTraitsIS6_EEE5EntryEEENS_9XalanListISC_E4NodeEEENS_31MemoryManagedConstructionTraitsISH_EEEC2ERN11xercesc_2_713MemoryManagerEm = comdat any

$_ZN11xalanc_1_1011XalanVectorINS_21XalanListIteratorBaseINS_23XalanListIteratorTraitsINS_8XalanMapIPKNS_13XalanDocumentEPNS_23XalanSourceTreeDocumentENS_17XalanMapKeyTraitsIS6_EEE5EntryEEENS_9XalanListISC_E4NodeEEENS_31MemoryManagedConstructionTraitsISH_EEE6insertEPSH_PKSH_SN_ = comdat any

$_ZNK11xalanc_1_1011XalanVectorINS_21XalanListIteratorBaseINS_23XalanListIteratorTraitsINS_8XalanMapIPKNS_13XalanDocumentEPNS_23XalanSourceTreeDocumentENS_17XalanMapKeyTraitsIS6_EEE5EntryEEENS_9XalanListISC_E4NodeEEENS_31MemoryManagedConstructionTraitsISH_EEE5beginEv = comdat any

$_ZNK11xalanc_1_1011XalanVectorINS_21XalanListIteratorBaseINS_23XalanListIteratorTraitsINS_8XalanMapIPKNS_13XalanDocumentEPNS_23XalanSourceTreeDocumentENS_17XalanMapKeyTraitsIS6_EEE5EntryEEENS_9XalanListISC_E4NodeEEENS_31MemoryManagedConstructionTraitsISH_EEE3endEv = comdat any

$_ZN11xalanc_1_1011XalanVectorINS_21XalanListIteratorBaseINS_23XalanListIteratorTraitsINS_8XalanMapIPKNS_13XalanDocumentEPNS_23XalanSourceTreeDocumentENS_17XalanMapKeyTraitsIS6_EEE5EntryEEENS_9XalanListISC_E4NodeEEENS_31MemoryManagedConstructionTraitsISH_EEE8allocateEm = comdat any

$_ZN11xalanc_1_1011XalanVectorINS_21XalanListIteratorBaseINS_23XalanListIteratorTraitsINS_8XalanMapIPKNS_13XalanDocumentEPNS_23XalanSourceTreeDocumentENS_17XalanMapKeyTraitsIS6_EEE5EntryEEENS_9XalanListISC_E4NodeEEENS_31MemoryManagedConstructionTraitsISH_EEE14ensureCapacityEm = comdat any

$_ZN11xalanc_1_1028ConstructWithNoMemoryManagerINS_21XalanListIteratorBaseINS_23XalanListIteratorTraitsINS_8XalanMapIPKNS_13XalanDocumentEPNS_23XalanSourceTreeDocumentENS_17XalanMapKeyTraitsIS6_EEE5EntryEEENS_9XalanListISC_E4NodeEEEE9constructEPSH_RKSH_RN11xercesc_2_713MemoryManagerE = comdat any

$_ZN11xalanc_1_1011XalanVectorINS_21XalanListIteratorBaseINS_23XalanListIteratorTraitsINS_8XalanMapIPKNS_13XalanDocumentEPNS_23XalanSourceTreeDocumentENS_17XalanMapKeyTraitsIS6_EEE5EntryEEENS_9XalanListISC_E4NodeEEENS_31MemoryManagedConstructionTraitsISH_EEE10doPushBackERKSH_ = comdat any

$_ZSt4copyIPKN11xalanc_1_1021XalanListIteratorBaseINS0_23XalanListIteratorTraitsINS0_8XalanMapIPKNS0_13XalanDocumentEPNS0_23XalanSourceTreeDocumentENS0_17XalanMapKeyTraitsIS6_EEE5EntryEEENS0_9XalanListISC_E4NodeEEEPSH_ET0_T_SM_SL_ = comdat any

$_ZSt13copy_backwardIPN11xalanc_1_1021XalanListIteratorBaseINS0_23XalanListIteratorTraitsINS0_8XalanMapIPKNS0_13XalanDocumentEPNS0_23XalanSourceTreeDocumentENS0_17XalanMapKeyTraitsIS6_EEE5EntryEEENS0_9XalanListISC_E4NodeEEESI_ET0_T_SK_SJ_ = comdat any

$_ZN11xalanc_1_1011XalanVectorINS_21XalanListIteratorBaseINS_23XalanListIteratorTraitsINS_8XalanMapIPKNS_13XalanDocumentEPNS_23XalanSourceTreeDocumentENS_17XalanMapKeyTraitsIS6_EEE5EntryEEENS_9XalanListISC_E4NodeEEENS_31MemoryManagedConstructionTraitsISH_EEE9doReserveEm = comdat any

$_ZSt13__copy_move_aILb0EPKN11xalanc_1_1021XalanListIteratorBaseINS0_23XalanListIteratorTraitsINS0_8XalanMapIPKNS0_13XalanDocumentEPNS0_23XalanSourceTreeDocumentENS0_17XalanMapKeyTraitsIS6_EEE5EntryEEENS0_9XalanListISC_E4NodeEEEPSH_ET1_T0_SM_SL_ = comdat any

$_ZSt12__miter_baseIPKN11xalanc_1_1021XalanListIteratorBaseINS0_23XalanListIteratorTraitsINS0_8XalanMapIPKNS0_13XalanDocumentEPNS0_23XalanSourceTreeDocumentENS0_17XalanMapKeyTraitsIS6_EEE5EntryEEENS0_9XalanListISC_E4NodeEEEET_SK_ = comdat any

$_ZSt14__copy_move_a1ILb0EPKN11xalanc_1_1021XalanListIteratorBaseINS0_23XalanListIteratorTraitsINS0_8XalanMapIPKNS0_13XalanDocumentEPNS0_23XalanSourceTreeDocumentENS0_17XalanMapKeyTraitsIS6_EEE5EntryEEENS0_9XalanListISC_E4NodeEEEPSH_ET1_T0_SM_SL_ = comdat any

$_ZSt12__niter_baseIPKN11xalanc_1_1021XalanListIteratorBaseINS0_23XalanListIteratorTraitsINS0_8XalanMapIPKNS0_13XalanDocumentEPNS0_23XalanSourceTreeDocumentENS0_17XalanMapKeyTraitsIS6_EEE5EntryEEENS0_9XalanListISC_E4NodeEEEET_SK_ = comdat any

$_ZSt14__copy_move_a2ILb0EPKN11xalanc_1_1021XalanListIteratorBaseINS0_23XalanListIteratorTraitsINS0_8XalanMapIPKNS0_13XalanDocumentEPNS0_23XalanSourceTreeDocumentENS0_17XalanMapKeyTraitsIS6_EEE5EntryEEENS0_9XalanListISC_E4NodeEEEPSH_ET1_T0_SM_SL_ = comdat any

$_ZNSt11__copy_moveILb0ELb0ESt26random_access_iterator_tagE8__copy_mIPKN11xalanc_1_1021XalanListIteratorBaseINS3_23XalanListIteratorTraitsINS3_8XalanMapIPKNS3_13XalanDocumentEPNS3_23XalanSourceTreeDocumentENS3_17XalanMapKeyTraitsIS9_EEE5EntryEEENS3_9XalanListISF_E4NodeEEEPSK_EET0_T_SP_SO_ = comdat any

$_ZSt22__copy_move_backward_aILb0EPN11xalanc_1_1021XalanListIteratorBaseINS0_23XalanListIteratorTraitsINS0_8XalanMapIPKNS0_13XalanDocumentEPNS0_23XalanSourceTreeDocumentENS0_17XalanMapKeyTraitsIS6_EEE5EntryEEENS0_9XalanListISC_E4NodeEEESI_ET1_T0_SK_SJ_ = comdat any

$_ZSt23__copy_move_backward_a1ILb0EPN11xalanc_1_1021XalanListIteratorBaseINS0_23XalanListIteratorTraitsINS0_8XalanMapIPKNS0_13XalanDocumentEPNS0_23XalanSourceTreeDocumentENS0_17XalanMapKeyTraitsIS6_EEE5EntryEEENS0_9XalanListISC_E4NodeEEESI_ET1_T0_SK_SJ_ = comdat any

$_ZSt23__copy_move_backward_a2ILb0EPN11xalanc_1_1021XalanListIteratorBaseINS0_23XalanListIteratorTraitsINS0_8XalanMapIPKNS0_13XalanDocumentEPNS0_23XalanSourceTreeDocumentENS0_17XalanMapKeyTraitsIS6_EEE5EntryEEENS0_9XalanListISC_E4NodeEEESI_ET1_T0_SK_SJ_ = comdat any

$_ZNSt20__copy_move_backwardILb0ELb0ESt26random_access_iterator_tagE13__copy_move_bIPN11xalanc_1_1021XalanListIteratorBaseINS3_23XalanListIteratorTraitsINS3_8XalanMapIPKNS3_13XalanDocumentEPNS3_23XalanSourceTreeDocumentENS3_17XalanMapKeyTraitsIS9_EEE5EntryEEENS3_9XalanListISF_E4NodeEEESL_EET0_T_SN_SM_ = comdat any

$_ZNK11xalanc_1_1011XalanVectorINS_21XalanListIteratorBaseINS_23XalanListIteratorTraitsINS_8XalanMapIPKNS_13XalanDocumentEPNS_23XalanSourceTreeDocumentENS_17XalanMapKeyTraitsIS6_EEE5EntryEEENS_9XalanListISC_E4NodeEEENS_31MemoryManagedConstructionTraitsISH_EEE10endPointerEv = comdat any

$_ZN11xalanc_1_1016XalanMapIteratorINS_27XalanMapConstIteratorTraitsISt4pairIKPKNS_13XalanDocumentEPNS_23XalanSourceTreeDocumentEEEENS_21XalanListIteratorBaseINS_23XalanListIteratorTraitsINS_8XalanMapIS5_S8_NS_17XalanMapKeyTraitsIS5_EEE5EntryEEENS_9XalanListISH_E4NodeEEEEC2ERKNS0_INS_22XalanMapIteratorTraitsIS9_EESM_EE = comdat any

$_ZNK11xalanc_1_1016XalanMapIteratorINS_27XalanMapConstIteratorTraitsISt4pairIKPKNS_13XalanDocumentEPNS_23XalanSourceTreeDocumentEEEENS_21XalanListIteratorBaseINS_23XalanListIteratorTraitsINS_8XalanMapIS5_S8_NS_17XalanMapKeyTraitsIS5_EEE5EntryEEENS_9XalanListISH_E4NodeEEEEeqERKSN_ = comdat any

$_ZN11xalanc_1_108XalanMapIPKNS_13XalanDocumentEPNS_23XalanSourceTreeDocumentENS_17XalanMapKeyTraitsIS3_EEE13doCreateEntryERKS3_PKS5_ = comdat any

$_ZN11xalanc_1_1016XalanMapIteratorINS_22XalanMapIteratorTraitsISt4pairIKPKNS_13XalanDocumentEPNS_23XalanSourceTreeDocumentEEEENS_21XalanListIteratorBaseINS_23XalanListIteratorTraitsINS_8XalanMapIS5_S8_NS_17XalanMapKeyTraitsIS5_EEE5EntryEEENS_9XalanListISH_E4NodeEEEEaSERKSN_ = comdat any

$_ZN11xalanc_1_1011XalanVectorINS0_INS_21XalanListIteratorBaseINS_23XalanListIteratorTraitsINS_8XalanMapIPKNS_13XalanDocumentEPNS_23XalanSourceTreeDocumentENS_17XalanMapKeyTraitsIS6_EEE5EntryEEENS_9XalanListISC_E4NodeEEENS_31MemoryManagedConstructionTraitsISH_EEEENS_32ConstructWithMemoryManagerTraitsISK_EEE6insertEPSK_mRKSK_ = comdat any

$_ZN11xalanc_1_108XalanMapIPKNS_13XalanDocumentEPNS_23XalanSourceTreeDocumentENS_17XalanMapKeyTraitsIS3_EEE6rehashEv = comdat any

$_ZNK11xalanc_1_109XalanListINS_8XalanMapIPKNS_13XalanDocumentEPNS_23XalanSourceTreeDocumentENS_17XalanMapKeyTraitsIS4_EEE5EntryEE5emptyEv = comdat any

$_ZN11xalanc_1_109XalanListINS_8XalanMapIPKNS_13XalanDocumentEPNS_23XalanSourceTreeDocumentENS_17XalanMapKeyTraitsIS4_EEE5EntryEE9push_backERKSA_ = comdat any

$_ZN11xalanc_1_108XalanMapIPKNS_13XalanDocumentEPNS_23XalanSourceTreeDocumentENS_17XalanMapKeyTraitsIS3_EEE8allocateEm = comdat any

$_ZN11xalanc_1_108XalanMapIPKNS_13XalanDocumentEPNS_23XalanSourceTreeDocumentENS_17XalanMapKeyTraitsIS3_EEE5EntryC2EPSt4pairIKS3_S5_E = comdat any

$_ZN11xalanc_1_109XalanListINS_8XalanMapIPKNS_13XalanDocumentEPNS_23XalanSourceTreeDocumentENS_17XalanMapKeyTraitsIS4_EEE5EntryEE4backEv = comdat any

$_ZN11xalanc_1_1028ConstructWithNoMemoryManagerIPKNS_13XalanDocumentEE9constructEPS3_RKS3_RN11xercesc_2_713MemoryManagerE = comdat any

$_ZN11xalanc_1_1028ConstructWithNoMemoryManagerIPNS_23XalanSourceTreeDocumentEE9constructEPS2_RKS2_RN11xercesc_2_713MemoryManagerE = comdat any

$_ZN11xalanc_1_1028ConstructWithNoMemoryManagerIPNS_23XalanSourceTreeDocumentEE9constructEPS2_RN11xercesc_2_713MemoryManagerE = comdat any

$_ZN11xalanc_1_1021XalanListIteratorBaseINS_23XalanListIteratorTraitsINS_8XalanMapIPKNS_13XalanDocumentEPNS_23XalanSourceTreeDocumentENS_17XalanMapKeyTraitsIS5_EEE5EntryEEENS_9XalanListISB_E4NodeEEmmEv = comdat any

$_ZN11xalanc_1_1011XalanVectorINS_21XalanListIteratorBaseINS_23XalanListIteratorTraitsINS_8XalanMapIPKNS_13XalanDocumentEPNS_23XalanSourceTreeDocumentENS_17XalanMapKeyTraitsIS6_EEE5EntryEEENS_9XalanListISC_E4NodeEEENS_31MemoryManagedConstructionTraitsISH_EEE9push_backERKSH_ = comdat any

$_ZN11xalanc_1_1011XalanVectorINS0_INS_21XalanListIteratorBaseINS_23XalanListIteratorTraitsINS_8XalanMapIPKNS_13XalanDocumentEPNS_23XalanSourceTreeDocumentENS_17XalanMapKeyTraitsIS6_EEE5EntryEEENS_9XalanListISC_E4NodeEEENS_31MemoryManagedConstructionTraitsISH_EEEENS_32ConstructWithMemoryManagerTraitsISK_EEE14ensureCapacityEm = comdat any

$_ZN11xalanc_1_1026ConstructWithMemoryManagerINS_11XalanVectorINS_21XalanListIteratorBaseINS_23XalanListIteratorTraitsINS_8XalanMapIPKNS_13XalanDocumentEPNS_23XalanSourceTreeDocumentENS_17XalanMapKeyTraitsIS7_EEE5EntryEEENS_9XalanListISD_E4NodeEEENS_31MemoryManagedConstructionTraitsISI_EEEEE9constructEPSL_RKSL_RN11xercesc_2_713MemoryManagerE = comdat any

$_ZNK11xalanc_1_1011XalanVectorINS0_INS_21XalanListIteratorBaseINS_23XalanListIteratorTraitsINS_8XalanMapIPKNS_13XalanDocumentEPNS_23XalanSourceTreeDocumentENS_17XalanMapKeyTraitsIS6_EEE5EntryEEENS_9XalanListISC_E4NodeEEENS_31MemoryManagedConstructionTraitsISH_EEEENS_32ConstructWithMemoryManagerTraitsISK_EEE8capacityEv = comdat any

$_ZN11xalanc_1_1011XalanVectorINS0_INS_21XalanListIteratorBaseINS_23XalanListIteratorTraitsINS_8XalanMapIPKNS_13XalanDocumentEPNS_23XalanSourceTreeDocumentENS_17XalanMapKeyTraitsIS6_EEE5EntryEEENS_9XalanListISC_E4NodeEEENS_31MemoryManagedConstructionTraitsISH_EEEENS_32ConstructWithMemoryManagerTraitsISK_EEE6insertEPSK_PKSK_SQ_ = comdat any

$_ZN11xalanc_1_1011XalanVectorINS0_INS_21XalanListIteratorBaseINS_23XalanListIteratorTraitsINS_8XalanMapIPKNS_13XalanDocumentEPNS_23XalanSourceTreeDocumentENS_17XalanMapKeyTraitsIS6_EEE5EntryEEENS_9XalanListISC_E4NodeEEENS_31MemoryManagedConstructionTraitsISH_EEEENS_32ConstructWithMemoryManagerTraitsISK_EEE4swapERSN_ = comdat any

$_ZN11xalanc_1_1011XalanVectorINS0_INS_21XalanListIteratorBaseINS_23XalanListIteratorTraitsINS_8XalanMapIPKNS_13XalanDocumentEPNS_23XalanSourceTreeDocumentENS_17XalanMapKeyTraitsIS6_EEE5EntryEEENS_9XalanListISC_E4NodeEEENS_31MemoryManagedConstructionTraitsISH_EEEENS_32ConstructWithMemoryManagerTraitsISK_EEE14local_distanceEPKSK_SP_ = comdat any

$_ZN11xalanc_1_1011XalanVectorINS0_INS_21XalanListIteratorBaseINS_23XalanListIteratorTraitsINS_8XalanMapIPKNS_13XalanDocumentEPNS_23XalanSourceTreeDocumentENS_17XalanMapKeyTraitsIS6_EEE5EntryEEENS_9XalanListISC_E4NodeEEENS_31MemoryManagedConstructionTraitsISH_EEEENS_32ConstructWithMemoryManagerTraitsISK_EEE10doPushBackERKSK_ = comdat any

$_ZSt4fillIPN11xalanc_1_1011XalanVectorINS0_21XalanListIteratorBaseINS0_23XalanListIteratorTraitsINS0_8XalanMapIPKNS0_13XalanDocumentEPNS0_23XalanSourceTreeDocumentENS0_17XalanMapKeyTraitsIS7_EEE5EntryEEENS0_9XalanListISD_E4NodeEEENS0_31MemoryManagedConstructionTraitsISI_EEEESL_EvT_SN_RKT0_ = comdat any

$_ZSt13copy_backwardIPN11xalanc_1_1011XalanVectorINS0_21XalanListIteratorBaseINS0_23XalanListIteratorTraitsINS0_8XalanMapIPKNS0_13XalanDocumentEPNS0_23XalanSourceTreeDocumentENS0_17XalanMapKeyTraitsIS7_EEE5EntryEEENS0_9XalanListISD_E4NodeEEENS0_31MemoryManagedConstructionTraitsISI_EEEESM_ET0_T_SO_SN_ = comdat any

$_ZN11xalanc_1_1011XalanVectorINS0_INS_21XalanListIteratorBaseINS_23XalanListIteratorTraitsINS_8XalanMapIPKNS_13XalanDocumentEPNS_23XalanSourceTreeDocumentENS_17XalanMapKeyTraitsIS6_EEE5EntryEEENS_9XalanListISC_E4NodeEEENS_31MemoryManagedConstructionTraitsISH_EEEENS_32ConstructWithMemoryManagerTraitsISK_EEE9doReserveEm = comdat any

$_ZN11xalanc_1_1011XalanVectorINS0_INS_21XalanListIteratorBaseINS_23XalanListIteratorTraitsINS_8XalanMapIPKNS_13XalanDocumentEPNS_23XalanSourceTreeDocumentENS_17XalanMapKeyTraitsIS6_EEE5EntryEEENS_9XalanListISC_E4NodeEEENS_31MemoryManagedConstructionTraitsISH_EEEENS_32ConstructWithMemoryManagerTraitsISK_EEEC2ERKSN_RN11xercesc_2_713MemoryManagerEm = comdat any

$_ZN11xalanc_1_1011XalanVectorINS0_INS_21XalanListIteratorBaseINS_23XalanListIteratorTraitsINS_8XalanMapIPKNS_13XalanDocumentEPNS_23XalanSourceTreeDocumentENS_17XalanMapKeyTraitsIS6_EEE5EntryEEENS_9XalanListISC_E4NodeEEENS_31MemoryManagedConstructionTraitsISH_EEEENS_32ConstructWithMemoryManagerTraitsISK_EEE9local_maxEmm = comdat any

$_ZNK11xalanc_1_1011XalanVectorINS0_INS_21XalanListIteratorBaseINS_23XalanListIteratorTraitsINS_8XalanMapIPKNS_13XalanDocumentEPNS_23XalanSourceTreeDocumentENS_17XalanMapKeyTraitsIS6_EEE5EntryEEENS_9XalanListISC_E4NodeEEENS_31MemoryManagedConstructionTraitsISH_EEEENS_32ConstructWithMemoryManagerTraitsISK_EEE5beginEv = comdat any

$_ZNK11xalanc_1_1011XalanVectorINS0_INS_21XalanListIteratorBaseINS_23XalanListIteratorTraitsINS_8XalanMapIPKNS_13XalanDocumentEPNS_23XalanSourceTreeDocumentENS_17XalanMapKeyTraitsIS6_EEE5EntryEEENS_9XalanListISC_E4NodeEEENS_31MemoryManagedConstructionTraitsISH_EEEENS_32ConstructWithMemoryManagerTraitsISK_EEE3endEv = comdat any

$_ZNK11xalanc_1_1011XalanVectorINS0_INS_21XalanListIteratorBaseINS_23XalanListIteratorTraitsINS_8XalanMapIPKNS_13XalanDocumentEPNS_23XalanSourceTreeDocumentENS_17XalanMapKeyTraitsIS6_EEE5EntryEEENS_9XalanListISC_E4NodeEEENS_31MemoryManagedConstructionTraitsISH_EEEENS_32ConstructWithMemoryManagerTraitsISK_EEE10endPointerEv = comdat any

$_ZSt4copyIPKN11xalanc_1_1011XalanVectorINS0_21XalanListIteratorBaseINS0_23XalanListIteratorTraitsINS0_8XalanMapIPKNS0_13XalanDocumentEPNS0_23XalanSourceTreeDocumentENS0_17XalanMapKeyTraitsIS7_EEE5EntryEEENS0_9XalanListISD_E4NodeEEENS0_31MemoryManagedConstructionTraitsISI_EEEEPSL_ET0_T_SQ_SP_ = comdat any

$_ZSt13__copy_move_aILb0EPKN11xalanc_1_1011XalanVectorINS0_21XalanListIteratorBaseINS0_23XalanListIteratorTraitsINS0_8XalanMapIPKNS0_13XalanDocumentEPNS0_23XalanSourceTreeDocumentENS0_17XalanMapKeyTraitsIS7_EEE5EntryEEENS0_9XalanListISD_E4NodeEEENS0_31MemoryManagedConstructionTraitsISI_EEEEPSL_ET1_T0_SQ_SP_ = comdat any

$_ZSt12__miter_baseIPKN11xalanc_1_1011XalanVectorINS0_21XalanListIteratorBaseINS0_23XalanListIteratorTraitsINS0_8XalanMapIPKNS0_13XalanDocumentEPNS0_23XalanSourceTreeDocumentENS0_17XalanMapKeyTraitsIS7_EEE5EntryEEENS0_9XalanListISD_E4NodeEEENS0_31MemoryManagedConstructionTraitsISI_EEEEET_SO_ = comdat any

$_ZSt12__niter_wrapIPN11xalanc_1_1011XalanVectorINS0_21XalanListIteratorBaseINS0_23XalanListIteratorTraitsINS0_8XalanMapIPKNS0_13XalanDocumentEPNS0_23XalanSourceTreeDocumentENS0_17XalanMapKeyTraitsIS7_EEE5EntryEEENS0_9XalanListISD_E4NodeEEENS0_31MemoryManagedConstructionTraitsISI_EEEEET_RKSN_SN_ = comdat any

$_ZSt14__copy_move_a1ILb0EPKN11xalanc_1_1011XalanVectorINS0_21XalanListIteratorBaseINS0_23XalanListIteratorTraitsINS0_8XalanMapIPKNS0_13XalanDocumentEPNS0_23XalanSourceTreeDocumentENS0_17XalanMapKeyTraitsIS7_EEE5EntryEEENS0_9XalanListISD_E4NodeEEENS0_31MemoryManagedConstructionTraitsISI_EEEEPSL_ET1_T0_SQ_SP_ = comdat any

$_ZSt12__niter_baseIPKN11xalanc_1_1011XalanVectorINS0_21XalanListIteratorBaseINS0_23XalanListIteratorTraitsINS0_8XalanMapIPKNS0_13XalanDocumentEPNS0_23XalanSourceTreeDocumentENS0_17XalanMapKeyTraitsIS7_EEE5EntryEEENS0_9XalanListISD_E4NodeEEENS0_31MemoryManagedConstructionTraitsISI_EEEEET_SO_ = comdat any

$_ZSt12__niter_baseIPN11xalanc_1_1011XalanVectorINS0_21XalanListIteratorBaseINS0_23XalanListIteratorTraitsINS0_8XalanMapIPKNS0_13XalanDocumentEPNS0_23XalanSourceTreeDocumentENS0_17XalanMapKeyTraitsIS7_EEE5EntryEEENS0_9XalanListISD_E4NodeEEENS0_31MemoryManagedConstructionTraitsISI_EEEEET_SN_ = comdat any

$_ZSt14__copy_move_a2ILb0EPKN11xalanc_1_1011XalanVectorINS0_21XalanListIteratorBaseINS0_23XalanListIteratorTraitsINS0_8XalanMapIPKNS0_13XalanDocumentEPNS0_23XalanSourceTreeDocumentENS0_17XalanMapKeyTraitsIS7_EEE5EntryEEENS0_9XalanListISD_E4NodeEEENS0_31MemoryManagedConstructionTraitsISI_EEEEPSL_ET1_T0_SQ_SP_ = comdat any

$_ZNSt11__copy_moveILb0ELb0ESt26random_access_iterator_tagE8__copy_mIPKN11xalanc_1_1011XalanVectorINS3_21XalanListIteratorBaseINS3_23XalanListIteratorTraitsINS3_8XalanMapIPKNS3_13XalanDocumentEPNS3_23XalanSourceTreeDocumentENS3_17XalanMapKeyTraitsISA_EEE5EntryEEENS3_9XalanListISG_E4NodeEEENS3_31MemoryManagedConstructionTraitsISL_EEEEPSO_EET0_T_ST_SS_ = comdat any

$_ZN11xalanc_1_1011XalanVectorINS_21XalanListIteratorBaseINS_23XalanListIteratorTraitsINS_8XalanMapIPKNS_13XalanDocumentEPNS_23XalanSourceTreeDocumentENS_17XalanMapKeyTraitsIS6_EEE5EntryEEENS_9XalanListISC_E4NodeEEENS_31MemoryManagedConstructionTraitsISH_EEEaSERKSK_ = comdat any

$_ZSt8distanceIPKN11xalanc_1_1011XalanVectorINS0_21XalanListIteratorBaseINS0_23XalanListIteratorTraitsINS0_8XalanMapIPKNS0_13XalanDocumentEPNS0_23XalanSourceTreeDocumentENS0_17XalanMapKeyTraitsIS7_EEE5EntryEEENS0_9XalanListISD_E4NodeEEENS0_31MemoryManagedConstructionTraitsISI_EEEEENSt15iterator_traitsIT_E15difference_typeESP_SP_ = comdat any

$_ZSt10__distanceIPKN11xalanc_1_1011XalanVectorINS0_21XalanListIteratorBaseINS0_23XalanListIteratorTraitsINS0_8XalanMapIPKNS0_13XalanDocumentEPNS0_23XalanSourceTreeDocumentENS0_17XalanMapKeyTraitsIS7_EEE5EntryEEENS0_9XalanListISD_E4NodeEEENS0_31MemoryManagedConstructionTraitsISI_EEEEENSt15iterator_traitsIT_E15difference_typeESP_SP_St26random_access_iterator_tag = comdat any

$_ZSt19__iterator_categoryIPKN11xalanc_1_1011XalanVectorINS0_21XalanListIteratorBaseINS0_23XalanListIteratorTraitsINS0_8XalanMapIPKNS0_13XalanDocumentEPNS0_23XalanSourceTreeDocumentENS0_17XalanMapKeyTraitsIS7_EEE5EntryEEENS0_9XalanListISD_E4NodeEEENS0_31MemoryManagedConstructionTraitsISI_EEEEENSt15iterator_traitsIT_E17iterator_categoryERKSP_ = comdat any

$_ZSt8__fill_aIPN11xalanc_1_1011XalanVectorINS0_21XalanListIteratorBaseINS0_23XalanListIteratorTraitsINS0_8XalanMapIPKNS0_13XalanDocumentEPNS0_23XalanSourceTreeDocumentENS0_17XalanMapKeyTraitsIS7_EEE5EntryEEENS0_9XalanListISD_E4NodeEEENS0_31MemoryManagedConstructionTraitsISI_EEEESL_EvT_SN_RKT0_ = comdat any

$_ZSt9__fill_a1IPN11xalanc_1_1011XalanVectorINS0_21XalanListIteratorBaseINS0_23XalanListIteratorTraitsINS0_8XalanMapIPKNS0_13XalanDocumentEPNS0_23XalanSourceTreeDocumentENS0_17XalanMapKeyTraitsIS7_EEE5EntryEEENS0_9XalanListISD_E4NodeEEENS0_31MemoryManagedConstructionTraitsISI_EEEESL_EN9__gnu_cxx11__enable_ifIXntsr11__is_scalarIT0_EE7__valueEvE6__typeET_SS_RKSP_ = comdat any

$_ZSt22__copy_move_backward_aILb0EPN11xalanc_1_1011XalanVectorINS0_21XalanListIteratorBaseINS0_23XalanListIteratorTraitsINS0_8XalanMapIPKNS0_13XalanDocumentEPNS0_23XalanSourceTreeDocumentENS0_17XalanMapKeyTraitsIS7_EEE5EntryEEENS0_9XalanListISD_E4NodeEEENS0_31MemoryManagedConstructionTraitsISI_EEEESM_ET1_T0_SO_SN_ = comdat any

$_ZSt12__miter_baseIPN11xalanc_1_1011XalanVectorINS0_21XalanListIteratorBaseINS0_23XalanListIteratorTraitsINS0_8XalanMapIPKNS0_13XalanDocumentEPNS0_23XalanSourceTreeDocumentENS0_17XalanMapKeyTraitsIS7_EEE5EntryEEENS0_9XalanListISD_E4NodeEEENS0_31MemoryManagedConstructionTraitsISI_EEEEET_SN_ = comdat any

$_ZSt23__copy_move_backward_a1ILb0EPN11xalanc_1_1011XalanVectorINS0_21XalanListIteratorBaseINS0_23XalanListIteratorTraitsINS0_8XalanMapIPKNS0_13XalanDocumentEPNS0_23XalanSourceTreeDocumentENS0_17XalanMapKeyTraitsIS7_EEE5EntryEEENS0_9XalanListISD_E4NodeEEENS0_31MemoryManagedConstructionTraitsISI_EEEESM_ET1_T0_SO_SN_ = comdat any

$_ZSt23__copy_move_backward_a2ILb0EPN11xalanc_1_1011XalanVectorINS0_21XalanListIteratorBaseINS0_23XalanListIteratorTraitsINS0_8XalanMapIPKNS0_13XalanDocumentEPNS0_23XalanSourceTreeDocumentENS0_17XalanMapKeyTraitsIS7_EEE5EntryEEENS0_9XalanListISD_E4NodeEEENS0_31MemoryManagedConstructionTraitsISI_EEEESM_ET1_T0_SO_SN_ = comdat any

$_ZNSt20__copy_move_backwardILb0ELb0ESt26random_access_iterator_tagE13__copy_move_bIPN11xalanc_1_1011XalanVectorINS3_21XalanListIteratorBaseINS3_23XalanListIteratorTraitsINS3_8XalanMapIPKNS3_13XalanDocumentEPNS3_23XalanSourceTreeDocumentENS3_17XalanMapKeyTraitsISA_EEE5EntryEEENS3_9XalanListISG_E4NodeEEENS3_31MemoryManagedConstructionTraitsISL_EEEESP_EET0_T_SR_SQ_ = comdat any

$_ZN11xalanc_1_1011XalanVectorINS0_INS_21XalanListIteratorBaseINS_23XalanListIteratorTraitsINS_8XalanMapIPKNS_13XalanDocumentEPNS_23XalanSourceTreeDocumentENS_17XalanMapKeyTraitsIS6_EEE5EntryEEENS_9XalanListISC_E4NodeEEENS_31MemoryManagedConstructionTraitsISH_EEEENS_32ConstructWithMemoryManagerTraitsISK_EEEC2EmRKSK_RN11xercesc_2_713MemoryManagerE = comdat any

$_ZNK11xalanc_1_109XalanListINS_8XalanMapIPKNS_13XalanDocumentEPNS_23XalanSourceTreeDocumentENS_17XalanMapKeyTraitsIS4_EEE5EntryEE5beginEv = comdat any

$_ZNK11xalanc_1_1021XalanListIteratorBaseINS_28XalanListConstIteratorTraitsINS_8XalanMapIPKNS_13XalanDocumentEPNS_23XalanSourceTreeDocumentENS_17XalanMapKeyTraitsIS5_EEE5EntryEEENS_9XalanListISB_E4NodeEEeqERKSG_ = comdat any

$_ZNK11xalanc_1_109XalanListINS_8XalanMapIPKNS_13XalanDocumentEPNS_23XalanSourceTreeDocumentENS_17XalanMapKeyTraitsIS4_EEE5EntryEE3endEv = comdat any

$_ZNK11xalanc_1_109XalanListINS_8XalanMapIPKNS_13XalanDocumentEPNS_23XalanSourceTreeDocumentENS_17XalanMapKeyTraitsIS4_EEE5EntryEE11getListHeadEv = comdat any

$_ZN11xalanc_1_1021XalanListIteratorBaseINS_28XalanListConstIteratorTraitsINS_8XalanMapIPKNS_13XalanDocumentEPNS_23XalanSourceTreeDocumentENS_17XalanMapKeyTraitsIS5_EEE5EntryEEENS_9XalanListISB_E4NodeEEC2ERSF_ = comdat any

$_ZN11xalanc_1_109XalanListINS_8XalanMapIPKNS_13XalanDocumentEPNS_23XalanSourceTreeDocumentENS_17XalanMapKeyTraitsIS4_EEE5EntryEE13constructNodeERKSA_NS_21XalanListIteratorBaseINS_23XalanListIteratorTraitsISA_EENSB_4NodeEEE = comdat any

$_ZN11xalanc_1_1028ConstructWithNoMemoryManagerINS_8XalanMapIPKNS_13XalanDocumentEPNS_23XalanSourceTreeDocumentENS_17XalanMapKeyTraitsIS4_EEE5EntryEE9constructEPSA_RKSA_RN11xercesc_2_713MemoryManagerE = comdat any

$_ZNK11xalanc_1_1021XalanListIteratorBaseINS_23XalanListIteratorTraitsINS_8XalanMapIPKNS_13XalanDocumentEPNS_23XalanSourceTreeDocumentENS_17XalanMapKeyTraitsIS5_EEE5EntryEEENS_9XalanListISB_E4NodeEEdeEv = comdat any

$_ZTVN11xercesc_2_710XMLRefInfoE = comdat any

$_ZTVN11xercesc_2_710XMLDeleterE = comdat any

$_ZTSN11xercesc_2_710XMLDeleterE = comdat any

$_ZTIN11xercesc_2_710XMLDeleterE = comdat any

$_ZTVN11xercesc_2_713XMLAttDefListE = comdat any

$_ZTSN11xercesc_2_713XMLAttDefListE = comdat any

$_ZTSN11xercesc_2_713XSerializableE = comdat any

$_ZTIN11xercesc_2_713XSerializableE = comdat any

$_ZTSN11xercesc_2_77XMemoryE = comdat any

$_ZTIN11xercesc_2_77XMemoryE = comdat any

$_ZTIN11xercesc_2_713XMLAttDefListE = comdat any

$_ZTVN11xercesc_2_713DTDEntityDeclE = comdat any

$_ZTSN11xercesc_2_713DTDEntityDeclE = comdat any

$_ZTIN11xercesc_2_713DTDEntityDeclE = comdat any

$_ZTSN11xercesc_2_710XMLRefInfoE = comdat any

$_ZTIN11xercesc_2_710XMLRefInfoE = comdat any

$_ZTVN11xercesc_2_713SAX2XMLReaderE = comdat any

$_ZTSN11xercesc_2_713SAX2XMLReaderE = comdat any

$_ZTIN11xercesc_2_713SAX2XMLReaderE = comdat any

@_ZTVN11xercesc_2_710XMLRefInfoE = linkonce_odr dso_local unnamed_addr constant { [7 x i8*] } { [7 x i8*] [i8* null, i8* bitcast ({ i8*, i8*, i32, i32, i8*, i64, i8*, i64 }* @_ZTIN11xercesc_2_710XMLRefInfoE to i8*), i8* bitcast (void (%"class.xercesc_2_7::XMLRefInfo"*)* @_ZN11xercesc_2_710XMLRefInfoD2Ev to i8*), i8* bitcast (void (%"class.xercesc_2_7::XMLRefInfo"*)* @_ZN11xercesc_2_710XMLRefInfoD0Ev to i8*), i8* bitcast (i1 (%"class.xercesc_2_7::XMLRefInfo"*)* @_ZNK11xercesc_2_710XMLRefInfo14isSerializableEv to i8*), i8* bitcast (void (%"class.xercesc_2_7::XMLRefInfo"*, %"class.xercesc_2_7::XSerializeEngine"*)* @_ZN11xercesc_2_710XMLRefInfo9serializeERNS_16XSerializeEngineE to i8*), i8* bitcast (%"class.xercesc_2_7::XProtoType"* (%"class.xercesc_2_7::XMLRefInfo"*)* @_ZNK11xercesc_2_710XMLRefInfo12getProtoTypeEv to i8*)] }, comdat, align 8
@_ZN11xalanc_1_1028XalanSourceTreeParserLiaison18s_validationStringE = dso_local constant [39 x i16] [i16 104, i16 116, i16 116, i16 112, i16 58, i16 47, i16 47, i16 120, i16 109, i16 108, i16 46, i16 111, i16 114, i16 103, i16 47, i16 115, i16 97, i16 120, i16 47, i16 102, i16 101, i16 97, i16 116, i16 117, i16 114, i16 101, i16 115, i16 47, i16 118, i16 97, i16 108, i16 105, i16 100, i16 97, i16 116, i16 105, i16 111, i16 110, i16 0], align 16, !dbg !0
@_ZN11xalanc_1_1028XalanSourceTreeParserLiaison25s_dynamicValidationStringE = dso_local constant [50 x i16] [i16 104, i16 116, i16 116, i16 112, i16 58, i16 47, i16 47, i16 97, i16 112, i16 97, i16 99, i16 104, i16 101, i16 46, i16 111, i16 114, i16 103, i16 47, i16 120, i16 109, i16 108, i16 47, i16 102, i16 101, i16 97, i16 116, i16 117, i16 114, i16 101, i16 115, i16 47, i16 118, i16 97, i16 108, i16 105, i16 100, i16 97, i16 116, i16 105, i16 111, i16 110, i16 47, i16 100, i16 121, i16 110, i16 97, i16 109, i16 105, i16 99, i16 0], align 16, !dbg !2106
@_ZN11xalanc_1_1028XalanSourceTreeParserLiaison18s_namespacesStringE = dso_local constant [39 x i16] [i16 104, i16 116, i16 116, i16 112, i16 58, i16 47, i16 47, i16 120, i16 109, i16 108, i16 46, i16 111, i16 114, i16 103, i16 47, i16 115, i16 97, i16 120, i16 47, i16 102, i16 101, i16 97, i16 116, i16 117, i16 114, i16 101, i16 115, i16 47, i16 110, i16 97, i16 109, i16 101, i16 115, i16 112, i16 97, i16 99, i16 101, i16 115, i16 0], align 16, !dbg !2111
@_ZN11xalanc_1_1028XalanSourceTreeParserLiaison25s_namespacePrefixesStringE = dso_local constant [47 x i16] [i16 104, i16 116, i16 116, i16 112, i16 58, i16 47, i16 47, i16 120, i16 109, i16 108, i16 46, i16 111, i16 114, i16 103, i16 47, i16 115, i16 97, i16 120, i16 47, i16 102, i16 101, i16 97, i16 116, i16 117, i16 114, i16 101, i16 115, i16 47, i16 110, i16 97, i16 109, i16 101, i16 115, i16 112, i16 97, i16 99, i16 101, i16 45, i16 112, i16 114, i16 101, i16 102, i16 105, i16 120, i16 101, i16 115, i16 0], align 16, !dbg !2113
@_ZN11xalanc_1_1028XalanSourceTreeParserLiaison14s_schemaStringE = dso_local constant [49 x i16] [i16 104, i16 116, i16 116, i16 112, i16 58, i16 47, i16 47, i16 97, i16 112, i16 97, i16 99, i16 104, i16 101, i16 46, i16 111, i16 114, i16 103, i16 47, i16 120, i16 109, i16 108, i16 47, i16 102, i16 101, i16 97, i16 116, i16 117, i16 114, i16 101, i16 115, i16 47, i16 118, i16 97, i16 108, i16 105, i16 100, i16 97, i16 116, i16 105, i16 111, i16 110, i16 47, i16 115, i16 99, i16 104, i16 101, i16 109, i16 97, i16 0], align 16, !dbg !2118
@_ZN11xalanc_1_1028XalanSourceTreeParserLiaison30s_externalSchemaLocationStringE = dso_local constant [64 x i16] [i16 104, i16 116, i16 116, i16 112, i16 58, i16 47, i16 47, i16 97, i16 112, i16 97, i16 99, i16 104, i16 101, i16 46, i16 111, i16 114, i16 103, i16 47, i16 120, i16 109, i16 108, i16 47, i16 112, i16 114, i16 111, i16 112, i16 101, i16 114, i16 116, i16 105, i16 101, i16 115, i16 47, i16 115, i16 99, i16 104, i16 101, i16 109, i16 97, i16 47, i16 101, i16 120, i16 116, i16 101, i16 114, i16 110, i16 97, i16 108, i16 45, i16 115, i16 99, i16 104, i16 101, i16 109, i16 97, i16 76, i16 111, i16 99, i16 97, i16 116, i16 105, i16 111, i16 110, i16 0], align 16, !dbg !2123
@_ZN11xalanc_1_1028XalanSourceTreeParserLiaison41s_externalNoNamespaceSchemaLocationStringE = dso_local constant [75 x i16] [i16 104, i16 116, i16 116, i16 112, i16 58, i16 47, i16 47, i16 97, i16 112, i16 97, i16 99, i16 104, i16 101, i16 46, i16 111, i16 114, i16 103, i16 47, i16 120, i16 109, i16 108, i16 47, i16 112, i16 114, i16 111, i16 112, i16 101, i16 114, i16 116, i16 105, i16 101, i16 115, i16 47, i16 115, i16 99, i16 104, i16 101, i16 109, i16 97, i16 47, i16 101, i16 120, i16 116, i16 101, i16 114, i16 110, i16 97, i16 108, i16 45, i16 110, i16 111, i16 78, i16 97, i16 109, i16 101, i16 115, i16 112, i16 97, i16 99, i16 101, i16 83, i16 99, i16 104, i16 101, i16 109, i16 97, i16 76, i16 111, i16 99, i16 97, i16 116, i16 105, i16 111, i16 110, i16 0], align 16, !dbg !2128
@_ZTVN11xalanc_1_1028XalanSourceTreeParserLiaisonE = dso_local unnamed_addr constant { [34 x i8*] } { [34 x i8*] [i8* null, i8* bitcast ({ i8*, i8*, i8* }* @_ZTIN11xalanc_1_1028XalanSourceTreeParserLiaisonE to i8*), i8* bitcast (void (%"class.xalanc_1_10::XalanSourceTreeParserLiaison"*)* @_ZN11xalanc_1_1028XalanSourceTreeParserLiaisonD1Ev to i8*), i8* bitcast (void (%"class.xalanc_1_10::XalanSourceTreeParserLiaison"*)* @_ZN11xalanc_1_1028XalanSourceTreeParserLiaisonD0Ev to i8*), i8* bitcast (void (%"class.xalanc_1_10::XalanSourceTreeParserLiaison"*)* @_ZN11xalanc_1_1028XalanSourceTreeParserLiaison5resetEv to i8*), i8* bitcast (%"class.xalanc_1_10::ExecutionContext"* (%"class.xalanc_1_10::XalanSourceTreeParserLiaison"*)* @_ZNK11xalanc_1_1028XalanSourceTreeParserLiaison19getExecutionContextEv to i8*), i8* bitcast (%"class.xercesc_2_7::MemoryManager"* (%"class.xalanc_1_10::XalanSourceTreeParserLiaison"*)* @_ZN11xalanc_1_1028XalanSourceTreeParserLiaison16getMemoryManagerEv to i8*), i8* bitcast (void (%"class.xalanc_1_10::XalanSourceTreeParserLiaison"*, %"class.xalanc_1_10::ExecutionContext"*)* @_ZN11xalanc_1_1028XalanSourceTreeParserLiaison19setExecutionContextERNS_16ExecutionContextE to i8*), i8* bitcast (%"class.xalanc_1_10::XalanDocument"* (%"class.xalanc_1_10::XalanSourceTreeParserLiaison"*, %"class.xercesc_2_7::InputSource"*, %"class.xalanc_1_10::XalanDOMString"*)* @_ZN11xalanc_1_1028XalanSourceTreeParserLiaison14parseXMLStreamERKN11xercesc_2_711InputSourceERKNS_14XalanDOMStringE to i8*), i8* bitcast (void (%"class.xalanc_1_10::XalanSourceTreeParserLiaison"*, %"class.xercesc_2_7::InputSource"*, %"class.xercesc_2_7::DocumentHandler"*, %"class.xalanc_1_10::XalanDOMString"*)* @_ZN11xalanc_1_1028XalanSourceTreeParserLiaison14parseXMLStreamERKN11xercesc_2_711InputSourceERNS1_15DocumentHandlerERKNS_14XalanDOMStringE to i8*), i8* bitcast (void (%"class.xalanc_1_10::XalanSourceTreeParserLiaison"*, %"class.xalanc_1_10::XalanDocument"*)* @_ZN11xalanc_1_1028XalanSourceTreeParserLiaison15destroyDocumentEPNS_13XalanDocumentE to i8*), i8* bitcast (i32 (%"class.xalanc_1_10::XalanSourceTreeParserLiaison"*)* @_ZNK11xalanc_1_1028XalanSourceTreeParserLiaison9getIndentEv to i8*), i8* bitcast (void (%"class.xalanc_1_10::XalanSourceTreeParserLiaison"*, i32)* @_ZN11xalanc_1_1028XalanSourceTreeParserLiaison9setIndentEi to i8*), i8* bitcast (i1 (%"class.xalanc_1_10::XalanSourceTreeParserLiaison"*)* @_ZNK11xalanc_1_1028XalanSourceTreeParserLiaison16getUseValidationEv to i8*), i8* bitcast (void (%"class.xalanc_1_10::XalanSourceTreeParserLiaison"*, i1)* @_ZN11xalanc_1_1028XalanSourceTreeParserLiaison16setUseValidationEb to i8*), i8* bitcast (%"class.xalanc_1_10::XalanDOMString"* (%"class.xalanc_1_10::XalanSourceTreeParserLiaison"*, %"class.xalanc_1_10::XalanDOMString"*)* @_ZNK11xalanc_1_1028XalanSourceTreeParserLiaison20getParserDescriptionERNS_14XalanDOMStringE to i8*), i8* bitcast (%"class.xercesc_2_7::EntityResolver"* (%"class.xalanc_1_10::XalanSourceTreeParserLiaison"*)* @_ZNK11xalanc_1_1028XalanSourceTreeParserLiaison17getEntityResolverEv to i8*), i8* bitcast (void (%"class.xalanc_1_10::XalanSourceTreeParserLiaison"*, %"class.xercesc_2_7::EntityResolver"*)* @_ZN11xalanc_1_1028XalanSourceTreeParserLiaison17setEntityResolverEPN11xercesc_2_714EntityResolverE to i8*), i8* bitcast (%"class.xercesc_2_7::ErrorHandler"* (%"class.xalanc_1_10::XalanSourceTreeParserLiaison"*)* @_ZNK11xalanc_1_1028XalanSourceTreeParserLiaison15getErrorHandlerEv to i8*), i8* bitcast (void (%"class.xalanc_1_10::XalanSourceTreeParserLiaison"*, %"class.xercesc_2_7::ErrorHandler"*)* @_ZN11xalanc_1_1028XalanSourceTreeParserLiaison15setErrorHandlerEPN11xercesc_2_712ErrorHandlerE to i8*), i8* bitcast (void (%"class.xalanc_1_10::XalanSourceTreeParserLiaison"*, %"class.xercesc_2_7::InputSource"*, %"class.xercesc_2_7::ContentHandler"*, %"class.xalanc_1_10::XalanDOMString"*, %"class.xercesc_2_7::DTDHandler"*, %"class.xercesc_2_7::LexicalHandler"*)* @_ZN11xalanc_1_1028XalanSourceTreeParserLiaison14parseXMLStreamERKN11xercesc_2_711InputSourceERNS1_14ContentHandlerERKNS_14XalanDOMStringEPNS1_10DTDHandlerEPNS1_14LexicalHandlerE to i8*), i8* bitcast (%"class.xercesc_2_7::DOMDocument"* (%"class.xalanc_1_10::XalanSourceTreeParserLiaison"*)* @_ZN11xalanc_1_1028XalanSourceTreeParserLiaison16createDOMFactoryEv to i8*), i8* bitcast (void (%"class.xalanc_1_10::XalanSourceTreeParserLiaison"*, %"class.xercesc_2_7::DOMDocument"*)* @_ZN11xalanc_1_1028XalanSourceTreeParserLiaison15destroyDocumentEPN11xercesc_2_711DOMDocumentE to i8*), i8* bitcast (i1 (%"class.xalanc_1_10::XalanSourceTreeParserLiaison"*)* @_ZNK11xalanc_1_1028XalanSourceTreeParserLiaison29getIncludeIgnorableWhitespaceEv to i8*), i8* bitcast (void (%"class.xalanc_1_10::XalanSourceTreeParserLiaison"*, i1)* @_ZN11xalanc_1_1028XalanSourceTreeParserLiaison29setIncludeIgnorableWhitespaceEb to i8*), i8* bitcast (i1 (%"class.xalanc_1_10::XalanSourceTreeParserLiaison"*)* @_ZNK11xalanc_1_1028XalanSourceTreeParserLiaison15getDoNamespacesEv to i8*), i8* bitcast (void (%"class.xalanc_1_10::XalanSourceTreeParserLiaison"*, i1)* @_ZN11xalanc_1_1028XalanSourceTreeParserLiaison15setDoNamespacesEb to i8*), i8* bitcast (i1 (%"class.xalanc_1_10::XalanSourceTreeParserLiaison"*)* @_ZNK11xalanc_1_1028XalanSourceTreeParserLiaison24getExitOnFirstFatalErrorEv to i8*), i8* bitcast (void (%"class.xalanc_1_10::XalanSourceTreeParserLiaison"*, i1)* @_ZN11xalanc_1_1028XalanSourceTreeParserLiaison24setExitOnFirstFatalErrorEb to i8*), i8* bitcast (i16* (%"class.xalanc_1_10::XalanSourceTreeParserLiaison"*)* @_ZNK11xalanc_1_1028XalanSourceTreeParserLiaison25getExternalSchemaLocationEv to i8*), i8* bitcast (void (%"class.xalanc_1_10::XalanSourceTreeParserLiaison"*, i16*)* @_ZN11xalanc_1_1028XalanSourceTreeParserLiaison25setExternalSchemaLocationEPKt to i8*), i8* bitcast (i16* (%"class.xalanc_1_10::XalanSourceTreeParserLiaison"*)* @_ZNK11xalanc_1_1028XalanSourceTreeParserLiaison36getExternalNoNamespaceSchemaLocationEv to i8*), i8* bitcast (void (%"class.xalanc_1_10::XalanSourceTreeParserLiaison"*, i16*)* @_ZN11xalanc_1_1028XalanSourceTreeParserLiaison36setExternalNoNamespaceSchemaLocationEPKt to i8*), i8* bitcast (%"class.xercesc_2_7::SAX2XMLReader"* (%"class.xalanc_1_10::XalanSourceTreeParserLiaison"*)* @_ZN11xalanc_1_1028XalanSourceTreeParserLiaison12createReaderEv to i8*)] }, align 8
@.str = private unnamed_addr constant [16 x i8] c"XalanSourceTree\00", align 1
@_ZTVN11xercesc_2_710XMLDeleterE = linkonce_odr dso_local unnamed_addr constant { [4 x i8*] } { [4 x i8*] [i8* null, i8* bitcast ({ i8*, i8* }* @_ZTIN11xercesc_2_710XMLDeleterE to i8*), i8* bitcast (void (%"class.xercesc_2_7::XMLDeleter"*)* @_ZN11xercesc_2_710XMLDeleterD2Ev to i8*), i8* bitcast (void (%"class.xercesc_2_7::XMLDeleter"*)* @_ZN11xercesc_2_710XMLDeleterD0Ev to i8*)] }, comdat, align 8
@_ZTVN10__cxxabiv117__class_type_infoE = external dso_local global i8*
@_ZTSN11xercesc_2_710XMLDeleterE = linkonce_odr dso_local constant [28 x i8] c"N11xercesc_2_710XMLDeleterE\00", comdat, align 1
@_ZTIN11xercesc_2_710XMLDeleterE = linkonce_odr dso_local constant { i8*, i8* } { i8* bitcast (i8** getelementptr inbounds (i8*, i8** @_ZTVN10__cxxabiv117__class_type_infoE, i64 2) to i8*), i8* getelementptr inbounds ([28 x i8], [28 x i8]* @_ZTSN11xercesc_2_710XMLDeleterE, i32 0, i32 0) }, comdat, align 8
@_ZTVN11xercesc_2_713XMLAttDefListE = linkonce_odr dso_local unnamed_addr constant { [18 x i8*] } { [18 x i8*] [i8* null, i8* bitcast ({ i8*, i8*, i32, i32, i8*, i64, i8*, i64 }* @_ZTIN11xercesc_2_713XMLAttDefListE to i8*), i8* bitcast (void (%"class.xercesc_2_7::XMLAttDefList"*)* @_ZN11xercesc_2_713XMLAttDefListD2Ev to i8*), i8* bitcast (void (%"class.xercesc_2_7::XMLAttDefList"*)* @_ZN11xercesc_2_713XMLAttDefListD0Ev to i8*), i8* bitcast (i1 (%"class.xercesc_2_7::XMLAttDefList"*)* @_ZNK11xercesc_2_713XMLAttDefList14isSerializableEv to i8*), i8* bitcast (void (%"class.xercesc_2_7::XMLAttDefList"*, %"class.xercesc_2_7::XSerializeEngine"*)* @_ZN11xercesc_2_713XMLAttDefList9serializeERNS_16XSerializeEngineE to i8*), i8* bitcast (%"class.xercesc_2_7::XProtoType"* (%"class.xercesc_2_7::XMLAttDefList"*)* @_ZNK11xercesc_2_713XMLAttDefList12getProtoTypeEv to i8*), i8* bitcast (void ()* @__cxa_pure_virtual to i8*), i8* bitcast (void ()* @__cxa_pure_virtual to i8*), i8* bitcast (void ()* @__cxa_pure_virtual to i8*), i8* bitcast (void ()* @__cxa_pure_virtual to i8*), i8* bitcast (void ()* @__cxa_pure_virtual to i8*), i8* bitcast (void ()* @__cxa_pure_virtual to i8*), i8* bitcast (void ()* @__cxa_pure_virtual to i8*), i8* bitcast (void ()* @__cxa_pure_virtual to i8*), i8* bitcast (void ()* @__cxa_pure_virtual to i8*), i8* bitcast (void ()* @__cxa_pure_virtual to i8*), i8* bitcast (void ()* @__cxa_pure_virtual to i8*)] }, comdat, align 8
@_ZTVN10__cxxabiv121__vmi_class_type_infoE = external dso_local global i8*
@_ZTSN11xercesc_2_713XMLAttDefListE = linkonce_odr dso_local constant [31 x i8] c"N11xercesc_2_713XMLAttDefListE\00", comdat, align 1
@_ZTSN11xercesc_2_713XSerializableE = linkonce_odr dso_local constant [31 x i8] c"N11xercesc_2_713XSerializableE\00", comdat, align 1
@_ZTIN11xercesc_2_713XSerializableE = linkonce_odr dso_local constant { i8*, i8* } { i8* bitcast (i8** getelementptr inbounds (i8*, i8** @_ZTVN10__cxxabiv117__class_type_infoE, i64 2) to i8*), i8* getelementptr inbounds ([31 x i8], [31 x i8]* @_ZTSN11xercesc_2_713XSerializableE, i32 0, i32 0) }, comdat, align 8
@_ZTSN11xercesc_2_77XMemoryE = linkonce_odr dso_local constant [24 x i8] c"N11xercesc_2_77XMemoryE\00", comdat, align 1
@_ZTIN11xercesc_2_77XMemoryE = linkonce_odr dso_local constant { i8*, i8* } { i8* bitcast (i8** getelementptr inbounds (i8*, i8** @_ZTVN10__cxxabiv117__class_type_infoE, i64 2) to i8*), i8* getelementptr inbounds ([24 x i8], [24 x i8]* @_ZTSN11xercesc_2_77XMemoryE, i32 0, i32 0) }, comdat, align 8
@_ZTIN11xercesc_2_713XMLAttDefListE = linkonce_odr dso_local constant { i8*, i8*, i32, i32, i8*, i64, i8*, i64 } { i8* bitcast (i8** getelementptr inbounds (i8*, i8** @_ZTVN10__cxxabiv121__vmi_class_type_infoE, i64 2) to i8*), i8* getelementptr inbounds ([31 x i8], [31 x i8]* @_ZTSN11xercesc_2_713XMLAttDefListE, i32 0, i32 0), i32 0, i32 2, i8* bitcast ({ i8*, i8* }* @_ZTIN11xercesc_2_713XSerializableE to i8*), i64 2, i8* bitcast ({ i8*, i8* }* @_ZTIN11xercesc_2_77XMemoryE to i8*), i64 2 }, comdat, align 8
@_ZTVN11xercesc_2_713DTDEntityDeclE = linkonce_odr dso_local unnamed_addr constant { [10 x i8*] } { [10 x i8*] [i8* null, i8* bitcast ({ i8*, i8*, i8* }* @_ZTIN11xercesc_2_713DTDEntityDeclE to i8*), i8* bitcast (void (%"class.xercesc_2_7::DTDEntityDecl"*)* @_ZN11xercesc_2_713DTDEntityDeclD2Ev to i8*), i8* bitcast (void (%"class.xercesc_2_7::DTDEntityDecl"*)* @_ZN11xercesc_2_713DTDEntityDeclD0Ev to i8*), i8* bitcast (i1 (%"class.xercesc_2_7::DTDEntityDecl"*)* @_ZNK11xercesc_2_713DTDEntityDecl14isSerializableEv to i8*), i8* bitcast (void (%"class.xercesc_2_7::DTDEntityDecl"*, %"class.xercesc_2_7::XSerializeEngine"*)* @_ZN11xercesc_2_713DTDEntityDecl9serializeERNS_16XSerializeEngineE to i8*), i8* bitcast (%"class.xercesc_2_7::XProtoType"* (%"class.xercesc_2_7::DTDEntityDecl"*)* @_ZNK11xercesc_2_713DTDEntityDecl12getProtoTypeEv to i8*), i8* bitcast (i1 (%"class.xercesc_2_7::DTDEntityDecl"*)* @_ZNK11xercesc_2_713DTDEntityDecl22getDeclaredInIntSubsetEv to i8*), i8* bitcast (i1 (%"class.xercesc_2_7::DTDEntityDecl"*)* @_ZNK11xercesc_2_713DTDEntityDecl14getIsParameterEv to i8*), i8* bitcast (i1 (%"class.xercesc_2_7::DTDEntityDecl"*)* @_ZNK11xercesc_2_713DTDEntityDecl16getIsSpecialCharEv to i8*)] }, comdat, align 8
@_ZTVN10__cxxabiv120__si_class_type_infoE = external dso_local global i8*
@_ZTSN11xercesc_2_713DTDEntityDeclE = linkonce_odr dso_local constant [31 x i8] c"N11xercesc_2_713DTDEntityDeclE\00", comdat, align 1
@_ZTIN11xercesc_2_713XMLEntityDeclE = external dso_local constant i8*
@_ZTIN11xercesc_2_713DTDEntityDeclE = linkonce_odr dso_local constant { i8*, i8*, i8* } { i8* bitcast (i8** getelementptr inbounds (i8*, i8** @_ZTVN10__cxxabiv120__si_class_type_infoE, i64 2) to i8*), i8* getelementptr inbounds ([31 x i8], [31 x i8]* @_ZTSN11xercesc_2_713DTDEntityDeclE, i32 0, i32 0), i8* bitcast (i8** @_ZTIN11xercesc_2_713XMLEntityDeclE to i8*) }, comdat, align 8
@_ZTSN11xercesc_2_710XMLRefInfoE = linkonce_odr dso_local constant [28 x i8] c"N11xercesc_2_710XMLRefInfoE\00", comdat, align 1
@_ZTIN11xercesc_2_710XMLRefInfoE = linkonce_odr dso_local constant { i8*, i8*, i32, i32, i8*, i64, i8*, i64 } { i8* bitcast (i8** getelementptr inbounds (i8*, i8** @_ZTVN10__cxxabiv121__vmi_class_type_infoE, i64 2) to i8*), i8* getelementptr inbounds ([28 x i8], [28 x i8]* @_ZTSN11xercesc_2_710XMLRefInfoE, i32 0, i32 0), i32 0, i32 2, i8* bitcast ({ i8*, i8* }* @_ZTIN11xercesc_2_713XSerializableE to i8*), i64 2, i8* bitcast ({ i8*, i8* }* @_ZTIN11xercesc_2_77XMemoryE to i8*), i64 2 }, comdat, align 8
@_ZTVN11xercesc_2_713SAX2XMLReaderE = linkonce_odr dso_local unnamed_addr constant { [46 x i8*] } { [46 x i8*] [i8* null, i8* bitcast ({ i8*, i8* }* @_ZTIN11xercesc_2_713SAX2XMLReaderE to i8*), i8* bitcast (void (%"class.xercesc_2_7::SAX2XMLReader"*)* @_ZN11xercesc_2_713SAX2XMLReaderD2Ev to i8*), i8* bitcast (void (%"class.xercesc_2_7::SAX2XMLReader"*)* @_ZN11xercesc_2_713SAX2XMLReaderD0Ev to i8*), i8* bitcast (void ()* @__cxa_pure_virtual to i8*), i8* bitcast (void ()* @__cxa_pure_virtual to i8*), i8* bitcast (void ()* @__cxa_pure_virtual to i8*), i8* bitcast (void ()* @__cxa_pure_virtual to i8*), i8* bitcast (void ()* @__cxa_pure_virtual to i8*), i8* bitcast (void ()* @__cxa_pure_virtual to i8*), i8* bitcast (void ()* @__cxa_pure_virtual to i8*), i8* bitcast (void ()* @__cxa_pure_virtual to i8*), i8* bitcast (void ()* @__cxa_pure_virtual to i8*), i8* bitcast (void ()* @__cxa_pure_virtual to i8*), i8* bitcast (void ()* @__cxa_pure_virtual to i8*), i8* bitcast (void ()* @__cxa_pure_virtual to i8*), i8* bitcast (void ()* @__cxa_pure_virtual to i8*), i8* bitcast (void ()* @__cxa_pure_virtual to i8*), i8* bitcast (void ()* @__cxa_pure_virtual to i8*), i8* bitcast (void ()* @__cxa_pure_virtual to i8*), i8* bitcast (void ()* @__cxa_pure_virtual to i8*), i8* bitcast (void ()* @__cxa_pure_virtual to i8*), i8* bitcast (void ()* @__cxa_pure_virtual to i8*), i8* bitcast (void ()* @__cxa_pure_virtual to i8*), i8* bitcast (void ()* @__cxa_pure_virtual to i8*), i8* bitcast (void ()* @__cxa_pure_virtual to i8*), i8* bitcast (void ()* @__cxa_pure_virtual to i8*), i8* bitcast (void ()* @__cxa_pure_virtual to i8*), i8* bitcast (void ()* @__cxa_pure_virtual to i8*), i8* bitcast (void ()* @__cxa_pure_virtual to i8*), i8* bitcast (void ()* @__cxa_pure_virtual to i8*), i8* bitcast (void ()* @__cxa_pure_virtual to i8*), i8* bitcast (void ()* @__cxa_pure_virtual to i8*), i8* bitcast (void ()* @__cxa_pure_virtual to i8*), i8* bitcast (void ()* @__cxa_pure_virtual to i8*), i8* bitcast (void ()* @__cxa_pure_virtual to i8*), i8* bitcast (void ()* @__cxa_pure_virtual to i8*), i8* bitcast (void ()* @__cxa_pure_virtual to i8*), i8* bitcast (void ()* @__cxa_pure_virtual to i8*), i8* bitcast (void ()* @__cxa_pure_virtual to i8*), i8* bitcast (void ()* @__cxa_pure_virtual to i8*), i8* bitcast (void ()* @__cxa_pure_virtual to i8*), i8* bitcast (void ()* @__cxa_pure_virtual to i8*), i8* bitcast (void (%"class.xercesc_2_7::SAX2XMLReader"*, i64)* @_ZN11xercesc_2_713SAX2XMLReader18setInputBufferSizeEm to i8*), i8* bitcast (void ()* @__cxa_pure_virtual to i8*), i8* bitcast (void ()* @__cxa_pure_virtual to i8*)] }, comdat, align 8
@_ZTSN11xercesc_2_713SAX2XMLReaderE = linkonce_odr dso_local constant [31 x i8] c"N11xercesc_2_713SAX2XMLReaderE\00", comdat, align 1
@_ZTIN11xercesc_2_713SAX2XMLReaderE = linkonce_odr dso_local constant { i8*, i8* } { i8* bitcast (i8** getelementptr inbounds (i8*, i8** @_ZTVN10__cxxabiv117__class_type_infoE, i64 2) to i8*), i8* getelementptr inbounds ([31 x i8], [31 x i8]* @_ZTSN11xercesc_2_713SAX2XMLReaderE, i32 0, i32 0) }, comdat, align 8
@_ZTSN11xalanc_1_1028XalanSourceTreeParserLiaisonE = dso_local constant [46 x i8] c"N11xalanc_1_1028XalanSourceTreeParserLiaisonE\00", align 1
@_ZTIN11xalanc_1_1016XMLParserLiaisonE = external dso_local constant i8*
@_ZTIN11xalanc_1_1028XalanSourceTreeParserLiaisonE = dso_local constant { i8*, i8*, i8* } { i8* bitcast (i8** getelementptr inbounds (i8*, i8** @_ZTVN10__cxxabiv120__si_class_type_infoE, i64 2) to i8*), i8* getelementptr inbounds ([46 x i8], [46 x i8]* @_ZTSN11xalanc_1_1028XalanSourceTreeParserLiaisonE, i32 0, i32 0), i8* bitcast (i8** @_ZTIN11xalanc_1_1016XMLParserLiaisonE to i8*) }, align 8

@_ZN11xalanc_1_1028XalanSourceTreeParserLiaisonC1ERNS_25XalanSourceTreeDOMSupportERN11xercesc_2_713MemoryManagerE = dso_local unnamed_addr alias void (%"class.xalanc_1_10::XalanSourceTreeParserLiaison"*, %"class.xalanc_1_10::XalanSourceTreeDOMSupport"*, %"class.xercesc_2_7::MemoryManager"*), void (%"class.xalanc_1_10::XalanSourceTreeParserLiaison"*, %"class.xalanc_1_10::XalanSourceTreeDOMSupport"*, %"class.xercesc_2_7::MemoryManager"*)* @_ZN11xalanc_1_1028XalanSourceTreeParserLiaisonC2ERNS_25XalanSourceTreeDOMSupportERN11xercesc_2_713MemoryManagerE
@_ZN11xalanc_1_1028XalanSourceTreeParserLiaisonC1ERN11xercesc_2_713MemoryManagerE = dso_local unnamed_addr alias void (%"class.xalanc_1_10::XalanSourceTreeParserLiaison"*, %"class.xercesc_2_7::MemoryManager"*), void (%"class.xalanc_1_10::XalanSourceTreeParserLiaison"*, %"class.xercesc_2_7::MemoryManager"*)* @_ZN11xalanc_1_1028XalanSourceTreeParserLiaisonC2ERN11xercesc_2_713MemoryManagerE
@_ZN11xalanc_1_1028XalanSourceTreeParserLiaisonD1Ev = dso_local unnamed_addr alias void (%"class.xalanc_1_10::XalanSourceTreeParserLiaison"*), void (%"class.xalanc_1_10::XalanSourceTreeParserLiaison"*)* @_ZN11xalanc_1_1028XalanSourceTreeParserLiaisonD2Ev

; Function Attrs: nounwind readnone speculatable willreturn
declare void @llvm.dbg.declare(metadata, metadata, metadata) #0

; Function Attrs: noinline nounwind uwtable
define linkonce_odr dso_local void @_ZN11xercesc_2_710XMLDeleterD0Ev(%"class.xercesc_2_7::XMLDeleter"* %this) unnamed_addr #1 comdat align 2 !dbg !3508 {
entry:
  %this.addr = alloca %"class.xercesc_2_7::XMLDeleter"*, align 8
  store %"class.xercesc_2_7::XMLDeleter"* %this, %"class.xercesc_2_7::XMLDeleter"** %this.addr, align 8
  call void @llvm.dbg.declare(metadata %"class.xercesc_2_7::XMLDeleter"** %this.addr, metadata !3527, metadata !DIExpression()), !dbg !3529
  %this1 = load %"class.xercesc_2_7::XMLDeleter"*, %"class.xercesc_2_7::XMLDeleter"** %this.addr, align 8
  call void @_ZN11xercesc_2_710XMLDeleterD2Ev(%"class.xercesc_2_7::XMLDeleter"* %this1) #9, !dbg !3530
  %0 = bitcast %"class.xercesc_2_7::XMLDeleter"* %this1 to i8*, !dbg !3530
  call void @_ZdlPv(i8* %0) #10, !dbg !3530
  ret void, !dbg !3531
}

; Function Attrs: noinline nounwind uwtable
define linkonce_odr dso_local void @_ZN11xercesc_2_710XMLDeleterD2Ev(%"class.xercesc_2_7::XMLDeleter"* %this) unnamed_addr #1 comdat align 2 !dbg !3532 {
entry:
  %this.addr = alloca %"class.xercesc_2_7::XMLDeleter"*, align 8
  store %"class.xercesc_2_7::XMLDeleter"* %this, %"class.xercesc_2_7::XMLDeleter"** %this.addr, align 8
  call void @llvm.dbg.declare(metadata %"class.xercesc_2_7::XMLDeleter"** %this.addr, metadata !3533, metadata !DIExpression()), !dbg !3534
  %this1 = load %"class.xercesc_2_7::XMLDeleter"*, %"class.xercesc_2_7::XMLDeleter"** %this.addr, align 8
  ret void, !dbg !3535
}

; Function Attrs: nobuiltin nounwind
declare dso_local void @_ZdlPv(i8*) #2

; Function Attrs: noinline nounwind uwtable
define linkonce_odr dso_local void @_ZN11xercesc_2_713XSerializableD2Ev(%"class.xercesc_2_7::XSerializable"* %this) unnamed_addr #1 comdat align 2 !dbg !3536 {
entry:
  %this.addr = alloca %"class.xercesc_2_7::XSerializable"*, align 8
  store %"class.xercesc_2_7::XSerializable"* %this, %"class.xercesc_2_7::XSerializable"** %this.addr, align 8
  call void @llvm.dbg.declare(metadata %"class.xercesc_2_7::XSerializable"** %this.addr, metadata !3543, metadata !DIExpression()), !dbg !3545
  %this1 = load %"class.xercesc_2_7::XSerializable"*, %"class.xercesc_2_7::XSerializable"** %this.addr, align 8
  ret void, !dbg !3546
}

; Function Attrs: noinline nounwind uwtable
define linkonce_odr dso_local void @_ZN11xercesc_2_713XMLAttDefListD0Ev(%"class.xercesc_2_7::XMLAttDefList"* %this) unnamed_addr #1 comdat align 2 !dbg !3547 {
entry:
  %this.addr = alloca %"class.xercesc_2_7::XMLAttDefList"*, align 8
  store %"class.xercesc_2_7::XMLAttDefList"* %this, %"class.xercesc_2_7::XMLAttDefList"** %this.addr, align 8
  call void @llvm.dbg.declare(metadata %"class.xercesc_2_7::XMLAttDefList"** %this.addr, metadata !3907, metadata !DIExpression()), !dbg !3909
  %this1 = load %"class.xercesc_2_7::XMLAttDefList"*, %"class.xercesc_2_7::XMLAttDefList"** %this.addr, align 8
  call void @llvm.trap() #11, !dbg !3910
  unreachable, !dbg !3910
}

; Function Attrs: cold noreturn nounwind
declare void @llvm.trap() #3

; Function Attrs: nounwind
declare dso_local void @_ZN11xercesc_2_713XMLEntityDeclD2Ev(%"class.xercesc_2_7::XMLEntityDecl"*) unnamed_addr #4

; Function Attrs: noinline nounwind uwtable
define linkonce_odr dso_local void @_ZN11xercesc_2_713DTDEntityDeclD0Ev(%"class.xercesc_2_7::DTDEntityDecl"* %this) unnamed_addr #1 comdat align 2 !dbg !3911 {
entry:
  %this.addr = alloca %"class.xercesc_2_7::DTDEntityDecl"*, align 8
  store %"class.xercesc_2_7::DTDEntityDecl"* %this, %"class.xercesc_2_7::DTDEntityDecl"** %this.addr, align 8
  call void @llvm.dbg.declare(metadata %"class.xercesc_2_7::DTDEntityDecl"** %this.addr, metadata !3966, metadata !DIExpression()), !dbg !3968
  %this1 = load %"class.xercesc_2_7::DTDEntityDecl"*, %"class.xercesc_2_7::DTDEntityDecl"** %this.addr, align 8
  call void @_ZN11xercesc_2_713DTDEntityDeclD2Ev(%"class.xercesc_2_7::DTDEntityDecl"* %this1) #9, !dbg !3969
  %0 = bitcast %"class.xercesc_2_7::DTDEntityDecl"* %this1 to i8*, !dbg !3969
  call void @_ZN11xercesc_2_77XMemorydlEPv(i8* %0) #9, !dbg !3969
  ret void, !dbg !3970
}

; Function Attrs: noinline nounwind uwtable
define linkonce_odr dso_local void @_ZN11xercesc_2_713DTDEntityDeclD2Ev(%"class.xercesc_2_7::DTDEntityDecl"* %this) unnamed_addr #1 comdat align 2 !dbg !3971 {
entry:
  %this.addr = alloca %"class.xercesc_2_7::DTDEntityDecl"*, align 8
  store %"class.xercesc_2_7::DTDEntityDecl"* %this, %"class.xercesc_2_7::DTDEntityDecl"** %this.addr, align 8
  call void @llvm.dbg.declare(metadata %"class.xercesc_2_7::DTDEntityDecl"** %this.addr, metadata !3972, metadata !DIExpression()), !dbg !3973
  %this1 = load %"class.xercesc_2_7::DTDEntityDecl"*, %"class.xercesc_2_7::DTDEntityDecl"** %this.addr, align 8
  %0 = bitcast %"class.xercesc_2_7::DTDEntityDecl"* %this1 to %"class.xercesc_2_7::XMLEntityDecl"*, !dbg !3974
  call void @_ZN11xercesc_2_713XMLEntityDeclD2Ev(%"class.xercesc_2_7::XMLEntityDecl"* %0) #9, !dbg !3974
  ret void, !dbg !3976
}

; Function Attrs: nounwind
declare dso_local void @_ZN11xercesc_2_77XMemorydlEPv(i8*) #4

declare dso_local i32 @__gxx_personality_v0(...)

; Function Attrs: noinline noreturn nounwind
define linkonce_odr hidden void @__clang_call_terminate(i8* %0) #5 comdat {
  %2 = call i8* @__cxa_begin_catch(i8* %0) #9
  call void @_ZSt9terminatev() #11
  unreachable
}

declare dso_local i8* @__cxa_begin_catch(i8*)

declare dso_local void @_ZSt9terminatev()

; Function Attrs: noinline nounwind uwtable
define linkonce_odr dso_local void @_ZN11xercesc_2_710XMLRefInfoD0Ev(%"class.xercesc_2_7::XMLRefInfo"* %this) unnamed_addr #1 comdat align 2 !dbg !3977 {
entry:
  %this.addr = alloca %"class.xercesc_2_7::XMLRefInfo"*, align 8
  store %"class.xercesc_2_7::XMLRefInfo"* %this, %"class.xercesc_2_7::XMLRefInfo"** %this.addr, align 8
  call void @llvm.dbg.declare(metadata %"class.xercesc_2_7::XMLRefInfo"** %this.addr, metadata !4027, metadata !DIExpression()), !dbg !4029
  %this1 = load %"class.xercesc_2_7::XMLRefInfo"*, %"class.xercesc_2_7::XMLRefInfo"** %this.addr, align 8
  call void @_ZN11xercesc_2_710XMLRefInfoD2Ev(%"class.xercesc_2_7::XMLRefInfo"* %this1) #9, !dbg !4030
  %0 = bitcast %"class.xercesc_2_7::XMLRefInfo"* %this1 to i8*, !dbg !4030
  call void @_ZN11xercesc_2_77XMemorydlEPv(i8* %0) #9, !dbg !4030
  ret void, !dbg !4031
}

; Function Attrs: noinline nounwind uwtable
define linkonce_odr dso_local void @_ZN11xercesc_2_710XMLRefInfoD2Ev(%"class.xercesc_2_7::XMLRefInfo"* %this) unnamed_addr #1 comdat align 2 personality i8* bitcast (i32 (...)* @__gxx_personality_v0 to i8*) !dbg !4032 {
entry:
  %this.addr = alloca %"class.xercesc_2_7::XMLRefInfo"*, align 8
  %exn.slot = alloca i8*
  %ehselector.slot = alloca i32
  store %"class.xercesc_2_7::XMLRefInfo"* %this, %"class.xercesc_2_7::XMLRefInfo"** %this.addr, align 8
  call void @llvm.dbg.declare(metadata %"class.xercesc_2_7::XMLRefInfo"** %this.addr, metadata !4033, metadata !DIExpression()), !dbg !4034
  %this1 = load %"class.xercesc_2_7::XMLRefInfo"*, %"class.xercesc_2_7::XMLRefInfo"** %this.addr, align 8
  %0 = bitcast %"class.xercesc_2_7::XMLRefInfo"* %this1 to i32 (...)***, !dbg !4035
  store i32 (...)** bitcast (i8** getelementptr inbounds ({ [7 x i8*] }, { [7 x i8*] }* @_ZTVN11xercesc_2_710XMLRefInfoE, i32 0, inrange i32 0, i32 2) to i32 (...)**), i32 (...)*** %0, align 8, !dbg !4035
  %fMemoryManager = getelementptr inbounds %"class.xercesc_2_7::XMLRefInfo", %"class.xercesc_2_7::XMLRefInfo"* %this1, i32 0, i32 4, !dbg !4036
  %1 = load %"class.xercesc_2_7::MemoryManager"*, %"class.xercesc_2_7::MemoryManager"** %fMemoryManager, align 8, !dbg !4036
  %fRefName = getelementptr inbounds %"class.xercesc_2_7::XMLRefInfo", %"class.xercesc_2_7::XMLRefInfo"* %this1, i32 0, i32 3, !dbg !4038
  %2 = load i16*, i16** %fRefName, align 8, !dbg !4038
  %3 = bitcast i16* %2 to i8*, !dbg !4038
  %4 = bitcast %"class.xercesc_2_7::MemoryManager"* %1 to void (%"class.xercesc_2_7::MemoryManager"*, i8*)***, !dbg !4039
  %vtable = load void (%"class.xercesc_2_7::MemoryManager"*, i8*)**, void (%"class.xercesc_2_7::MemoryManager"*, i8*)*** %4, align 8, !dbg !4039
  %vfn = getelementptr inbounds void (%"class.xercesc_2_7::MemoryManager"*, i8*)*, void (%"class.xercesc_2_7::MemoryManager"*, i8*)** %vtable, i64 3, !dbg !4039
  %5 = load void (%"class.xercesc_2_7::MemoryManager"*, i8*)*, void (%"class.xercesc_2_7::MemoryManager"*, i8*)** %vfn, align 8, !dbg !4039
  invoke void %5(%"class.xercesc_2_7::MemoryManager"* %1, i8* %3)
          to label %invoke.cont unwind label %lpad, !dbg !4039

invoke.cont:                                      ; preds = %entry
  %6 = bitcast %"class.xercesc_2_7::XMLRefInfo"* %this1 to %"class.xercesc_2_7::XSerializable"*, !dbg !4040
  call void @_ZN11xercesc_2_713XSerializableD2Ev(%"class.xercesc_2_7::XSerializable"* %6) #9, !dbg !4040
  ret void, !dbg !4041

lpad:                                             ; preds = %entry
  %7 = landingpad { i8*, i32 }
          catch i8* null, !dbg !4040
  %8 = extractvalue { i8*, i32 } %7, 0, !dbg !4040
  store i8* %8, i8** %exn.slot, align 8, !dbg !4040
  %9 = extractvalue { i8*, i32 } %7, 1, !dbg !4040
  store i32 %9, i32* %ehselector.slot, align 4, !dbg !4040
  %10 = bitcast %"class.xercesc_2_7::XMLRefInfo"* %this1 to %"class.xercesc_2_7::XSerializable"*, !dbg !4040
  call void @_ZN11xercesc_2_713XSerializableD2Ev(%"class.xercesc_2_7::XSerializable"* %10) #9, !dbg !4040
  br label %terminate.handler, !dbg !4040

terminate.handler:                                ; preds = %lpad
  %exn = load i8*, i8** %exn.slot, align 8, !dbg !4040
  call void @__clang_call_terminate(i8* %exn) #11, !dbg !4040
  unreachable, !dbg !4040
}

; Function Attrs: noinline nounwind uwtable
define linkonce_odr dso_local void @_ZN11xercesc_2_713SAX2XMLReader18setInputBufferSizeEm(%"class.xercesc_2_7::SAX2XMLReader"* %this, i64 %0) unnamed_addr #1 comdat align 2 !dbg !4042 {
entry:
  %this.addr = alloca %"class.xercesc_2_7::SAX2XMLReader"*, align 8
  %.addr = alloca i64, align 8
  store %"class.xercesc_2_7::SAX2XMLReader"* %this, %"class.xercesc_2_7::SAX2XMLReader"** %this.addr, align 8
  call void @llvm.dbg.declare(metadata %"class.xercesc_2_7::SAX2XMLReader"** %this.addr, metadata !4043, metadata !DIExpression()), !dbg !4044
  store i64 %0, i64* %.addr, align 8
  call void @llvm.dbg.declare(metadata i64* %.addr, metadata !4045, metadata !DIExpression()), !dbg !4046
  %this1 = load %"class.xercesc_2_7::SAX2XMLReader"*, %"class.xercesc_2_7::SAX2XMLReader"** %this.addr, align 8
  ret void, !dbg !4047
}

; Function Attrs: noinline uwtable
define dso_local void @_ZN11xalanc_1_1028XalanSourceTreeParserLiaisonC2ERNS_25XalanSourceTreeDOMSupportERN11xercesc_2_713MemoryManagerE(%"class.xalanc_1_10::XalanSourceTreeParserLiaison"* %this, %"class.xalanc_1_10::XalanSourceTreeDOMSupport"* dereferenceable(16) %0, %"class.xercesc_2_7::MemoryManager"* dereferenceable(8) %theManager) unnamed_addr #6 align 2 personality i8* bitcast (i32 (...)* @__gxx_personality_v0 to i8*) !dbg !4048 {
entry:
  %this.addr = alloca %"class.xalanc_1_10::XalanSourceTreeParserLiaison"*, align 8
  %.addr = alloca %"class.xalanc_1_10::XalanSourceTreeDOMSupport"*, align 8
  %theManager.addr = alloca %"class.xercesc_2_7::MemoryManager"*, align 8
  %exn.slot = alloca i8*
  %ehselector.slot = alloca i32
  store %"class.xalanc_1_10::XalanSourceTreeParserLiaison"* %this, %"class.xalanc_1_10::XalanSourceTreeParserLiaison"** %this.addr, align 8
  call void @llvm.dbg.declare(metadata %"class.xalanc_1_10::XalanSourceTreeParserLiaison"** %this.addr, metadata !4049, metadata !DIExpression()), !dbg !4051
  store %"class.xalanc_1_10::XalanSourceTreeDOMSupport"* %0, %"class.xalanc_1_10::XalanSourceTreeDOMSupport"** %.addr, align 8
  call void @llvm.dbg.declare(metadata %"class.xalanc_1_10::XalanSourceTreeDOMSupport"** %.addr, metadata !4052, metadata !DIExpression()), !dbg !4053
  store %"class.xercesc_2_7::MemoryManager"* %theManager, %"class.xercesc_2_7::MemoryManager"** %theManager.addr, align 8
  call void @llvm.dbg.declare(metadata %"class.xercesc_2_7::MemoryManager"** %theManager.addr, metadata !4054, metadata !DIExpression()), !dbg !4055
  %this1 = load %"class.xalanc_1_10::XalanSourceTreeParserLiaison"*, %"class.xalanc_1_10::XalanSourceTreeParserLiaison"** %this.addr, align 8
  %1 = bitcast %"class.xalanc_1_10::XalanSourceTreeParserLiaison"* %this1 to %"class.xalanc_1_10::XMLParserLiaison"*, !dbg !4056
  call void @_ZN11xalanc_1_1016XMLParserLiaisonC2Ev(%"class.xalanc_1_10::XMLParserLiaison"* %1), !dbg !4057
  %2 = bitcast %"class.xalanc_1_10::XalanSourceTreeParserLiaison"* %this1 to i32 (...)***, !dbg !4056
  store i32 (...)** bitcast (i8** getelementptr inbounds ({ [34 x i8*] }, { [34 x i8*] }* @_ZTVN11xalanc_1_1028XalanSourceTreeParserLiaisonE, i32 0, inrange i32 0, i32 2) to i32 (...)**), i32 (...)*** %2, align 8, !dbg !4056
  %m_xercesParserLiaison = getelementptr inbounds %"class.xalanc_1_10::XalanSourceTreeParserLiaison", %"class.xalanc_1_10::XalanSourceTreeParserLiaison"* %this1, i32 0, i32 1, !dbg !4058
  %3 = load %"class.xercesc_2_7::MemoryManager"*, %"class.xercesc_2_7::MemoryManager"** %theManager.addr, align 8, !dbg !4059
  invoke void @_ZN11xalanc_1_1019XercesParserLiaisonC1ERN11xercesc_2_713MemoryManagerE(%"class.xalanc_1_10::XercesParserLiaison"* %m_xercesParserLiaison, %"class.xercesc_2_7::MemoryManager"* dereferenceable(8) %3)
          to label %invoke.cont unwind label %lpad, !dbg !4058

invoke.cont:                                      ; preds = %entry
  %m_documentMap = getelementptr inbounds %"class.xalanc_1_10::XalanSourceTreeParserLiaison", %"class.xalanc_1_10::XalanSourceTreeParserLiaison"* %this1, i32 0, i32 2, !dbg !4060
  %4 = load %"class.xercesc_2_7::MemoryManager"*, %"class.xercesc_2_7::MemoryManager"** %theManager.addr, align 8, !dbg !4061
  invoke void @_ZN11xalanc_1_108XalanMapIPKNS_13XalanDocumentEPNS_23XalanSourceTreeDocumentENS_17XalanMapKeyTraitsIS3_EEEC2ERN11xercesc_2_713MemoryManagerEfmm(%"class.xalanc_1_10::XalanMap.9"* %m_documentMap, %"class.xercesc_2_7::MemoryManager"* dereferenceable(8) %4, float 7.500000e-01, i64 29, i64 50)
          to label %invoke.cont3 unwind label %lpad2, !dbg !4060

invoke.cont3:                                     ; preds = %invoke.cont
  %m_poolAllText = getelementptr inbounds %"class.xalanc_1_10::XalanSourceTreeParserLiaison", %"class.xalanc_1_10::XalanSourceTreeParserLiaison"* %this1, i32 0, i32 3, !dbg !4062
  store i8 1, i8* %m_poolAllText, align 8, !dbg !4062
  %m_xmlReader = getelementptr inbounds %"class.xalanc_1_10::XalanSourceTreeParserLiaison", %"class.xalanc_1_10::XalanSourceTreeParserLiaison"* %this1, i32 0, i32 4, !dbg !4063
  store %"class.xercesc_2_7::SAX2XMLReader"* null, %"class.xercesc_2_7::SAX2XMLReader"** %m_xmlReader, align 8, !dbg !4063
  ret void, !dbg !4064

lpad:                                             ; preds = %entry
  %5 = landingpad { i8*, i32 }
          cleanup, !dbg !4064
  %6 = extractvalue { i8*, i32 } %5, 0, !dbg !4064
  store i8* %6, i8** %exn.slot, align 8, !dbg !4064
  %7 = extractvalue { i8*, i32 } %5, 1, !dbg !4064
  store i32 %7, i32* %ehselector.slot, align 4, !dbg !4064
  br label %ehcleanup, !dbg !4064

lpad2:                                            ; preds = %invoke.cont
  %8 = landingpad { i8*, i32 }
          cleanup, !dbg !4064
  %9 = extractvalue { i8*, i32 } %8, 0, !dbg !4064
  store i8* %9, i8** %exn.slot, align 8, !dbg !4064
  %10 = extractvalue { i8*, i32 } %8, 1, !dbg !4064
  store i32 %10, i32* %ehselector.slot, align 4, !dbg !4064
  call void @_ZN11xalanc_1_1019XercesParserLiaisonD1Ev(%"class.xalanc_1_10::XercesParserLiaison"* %m_xercesParserLiaison) #9, !dbg !4065
  br label %ehcleanup, !dbg !4065

ehcleanup:                                        ; preds = %lpad2, %lpad
  %11 = bitcast %"class.xalanc_1_10::XalanSourceTreeParserLiaison"* %this1 to %"class.xalanc_1_10::XMLParserLiaison"*, !dbg !4065
  call void @_ZN11xalanc_1_1016XMLParserLiaisonD2Ev(%"class.xalanc_1_10::XMLParserLiaison"* %11) #9, !dbg !4065
  br label %eh.resume, !dbg !4065

eh.resume:                                        ; preds = %ehcleanup
  %exn = load i8*, i8** %exn.slot, align 8, !dbg !4065
  %sel = load i32, i32* %ehselector.slot, align 4, !dbg !4065
  %lpad.val = insertvalue { i8*, i32 } undef, i8* %exn, 0, !dbg !4065
  %lpad.val4 = insertvalue { i8*, i32 } %lpad.val, i32 %sel, 1, !dbg !4065
  resume { i8*, i32 } %lpad.val4, !dbg !4065
}

declare dso_local void @_ZN11xalanc_1_1016XMLParserLiaisonC2Ev(%"class.xalanc_1_10::XMLParserLiaison"*) unnamed_addr #7

declare dso_local void @_ZN11xalanc_1_1019XercesParserLiaisonC1ERN11xercesc_2_713MemoryManagerE(%"class.xalanc_1_10::XercesParserLiaison"*, %"class.xercesc_2_7::MemoryManager"* dereferenceable(8)) unnamed_addr #7

; Function Attrs: noinline uwtable
define linkonce_odr dso_local void @_ZN11xalanc_1_108XalanMapIPKNS_13XalanDocumentEPNS_23XalanSourceTreeDocumentENS_17XalanMapKeyTraitsIS3_EEEC2ERN11xercesc_2_713MemoryManagerEfmm(%"class.xalanc_1_10::XalanMap.9"* %this, %"class.xercesc_2_7::MemoryManager"* dereferenceable(8) %theMemoryManager, float %loadFactor, i64 %minBuckets, i64 %eraseThreshold) unnamed_addr #6 comdat align 2 personality i8* bitcast (i32 (...)* @__gxx_personality_v0 to i8*) !dbg !4067 {
entry:
  %this.addr = alloca %"class.xalanc_1_10::XalanMap.9"*, align 8
  %theMemoryManager.addr = alloca %"class.xercesc_2_7::MemoryManager"*, align 8
  %loadFactor.addr = alloca float, align 4
  %minBuckets.addr = alloca i64, align 8
  %eraseThreshold.addr = alloca i64, align 8
  %exn.slot = alloca i8*
  %ehselector.slot = alloca i32
  store %"class.xalanc_1_10::XalanMap.9"* %this, %"class.xalanc_1_10::XalanMap.9"** %this.addr, align 8
  call void @llvm.dbg.declare(metadata %"class.xalanc_1_10::XalanMap.9"** %this.addr, metadata !4068, metadata !DIExpression()), !dbg !4069
  store %"class.xercesc_2_7::MemoryManager"* %theMemoryManager, %"class.xercesc_2_7::MemoryManager"** %theMemoryManager.addr, align 8
  call void @llvm.dbg.declare(metadata %"class.xercesc_2_7::MemoryManager"** %theMemoryManager.addr, metadata !4070, metadata !DIExpression()), !dbg !4071
  store float %loadFactor, float* %loadFactor.addr, align 4
  call void @llvm.dbg.declare(metadata float* %loadFactor.addr, metadata !4072, metadata !DIExpression()), !dbg !4073
  store i64 %minBuckets, i64* %minBuckets.addr, align 8
  call void @llvm.dbg.declare(metadata i64* %minBuckets.addr, metadata !4074, metadata !DIExpression()), !dbg !4075
  store i64 %eraseThreshold, i64* %eraseThreshold.addr, align 8
  call void @llvm.dbg.declare(metadata i64* %eraseThreshold.addr, metadata !4076, metadata !DIExpression()), !dbg !4077
  %this1 = load %"class.xalanc_1_10::XalanMap.9"*, %"class.xalanc_1_10::XalanMap.9"** %this.addr, align 8
  %m_hash = getelementptr inbounds %"class.xalanc_1_10::XalanMap.9", %"class.xalanc_1_10::XalanMap.9"* %this1, i32 0, i32 0, !dbg !4078
  %m_equals = getelementptr inbounds %"class.xalanc_1_10::XalanMap.9", %"class.xalanc_1_10::XalanMap.9"* %this1, i32 0, i32 1, !dbg !4078
  %m_memoryManager = getelementptr inbounds %"class.xalanc_1_10::XalanMap.9", %"class.xalanc_1_10::XalanMap.9"* %this1, i32 0, i32 2, !dbg !4079
  %0 = load %"class.xercesc_2_7::MemoryManager"*, %"class.xercesc_2_7::MemoryManager"** %theMemoryManager.addr, align 8, !dbg !4080
  store %"class.xercesc_2_7::MemoryManager"* %0, %"class.xercesc_2_7::MemoryManager"** %m_memoryManager, align 8, !dbg !4079
  %m_loadFactor = getelementptr inbounds %"class.xalanc_1_10::XalanMap.9", %"class.xalanc_1_10::XalanMap.9"* %this1, i32 0, i32 3, !dbg !4081
  %1 = load float, float* %loadFactor.addr, align 4, !dbg !4082
  store float %1, float* %m_loadFactor, align 8, !dbg !4081
  %m_minBuckets = getelementptr inbounds %"class.xalanc_1_10::XalanMap.9", %"class.xalanc_1_10::XalanMap.9"* %this1, i32 0, i32 4, !dbg !4083
  %2 = load i64, i64* %minBuckets.addr, align 8, !dbg !4084
  store i64 %2, i64* %m_minBuckets, align 8, !dbg !4083
  %m_size = getelementptr inbounds %"class.xalanc_1_10::XalanMap.9", %"class.xalanc_1_10::XalanMap.9"* %this1, i32 0, i32 5, !dbg !4085
  store i64 0, i64* %m_size, align 8, !dbg !4085
  %m_entries = getelementptr inbounds %"class.xalanc_1_10::XalanMap.9", %"class.xalanc_1_10::XalanMap.9"* %this1, i32 0, i32 6, !dbg !4086
  %3 = load %"class.xercesc_2_7::MemoryManager"*, %"class.xercesc_2_7::MemoryManager"** %theMemoryManager.addr, align 8, !dbg !4087
  call void @_ZN11xalanc_1_109XalanListINS_8XalanMapIPKNS_13XalanDocumentEPNS_23XalanSourceTreeDocumentENS_17XalanMapKeyTraitsIS4_EEE5EntryEEC2ERN11xercesc_2_713MemoryManagerE(%"class.xalanc_1_10::XalanList.10"* %m_entries, %"class.xercesc_2_7::MemoryManager"* dereferenceable(8) %3), !dbg !4086
  %m_freeEntries = getelementptr inbounds %"class.xalanc_1_10::XalanMap.9", %"class.xalanc_1_10::XalanMap.9"* %this1, i32 0, i32 7, !dbg !4088
  %4 = load %"class.xercesc_2_7::MemoryManager"*, %"class.xercesc_2_7::MemoryManager"** %theMemoryManager.addr, align 8, !dbg !4089
  invoke void @_ZN11xalanc_1_109XalanListINS_8XalanMapIPKNS_13XalanDocumentEPNS_23XalanSourceTreeDocumentENS_17XalanMapKeyTraitsIS4_EEE5EntryEEC2ERN11xercesc_2_713MemoryManagerE(%"class.xalanc_1_10::XalanList.10"* %m_freeEntries, %"class.xercesc_2_7::MemoryManager"* dereferenceable(8) %4)
          to label %invoke.cont unwind label %lpad, !dbg !4088

invoke.cont:                                      ; preds = %entry
  %m_buckets = getelementptr inbounds %"class.xalanc_1_10::XalanMap.9", %"class.xalanc_1_10::XalanMap.9"* %this1, i32 0, i32 8, !dbg !4090
  %5 = load %"class.xercesc_2_7::MemoryManager"*, %"class.xercesc_2_7::MemoryManager"** %theMemoryManager.addr, align 8, !dbg !4091
  invoke void @_ZN11xalanc_1_1011XalanVectorINS0_INS_21XalanListIteratorBaseINS_23XalanListIteratorTraitsINS_8XalanMapIPKNS_13XalanDocumentEPNS_23XalanSourceTreeDocumentENS_17XalanMapKeyTraitsIS6_EEE5EntryEEENS_9XalanListISC_E4NodeEEENS_31MemoryManagedConstructionTraitsISH_EEEENS_32ConstructWithMemoryManagerTraitsISK_EEEC2ERN11xercesc_2_713MemoryManagerEm(%"class.xalanc_1_10::XalanVector.50"* %m_buckets, %"class.xercesc_2_7::MemoryManager"* dereferenceable(8) %5, i64 0)
          to label %invoke.cont3 unwind label %lpad2, !dbg !4090

invoke.cont3:                                     ; preds = %invoke.cont
  %m_eraseCount = getelementptr inbounds %"class.xalanc_1_10::XalanMap.9", %"class.xalanc_1_10::XalanMap.9"* %this1, i32 0, i32 9, !dbg !4092
  store i64 0, i64* %m_eraseCount, align 8, !dbg !4092
  %m_eraseThreshold = getelementptr inbounds %"class.xalanc_1_10::XalanMap.9", %"class.xalanc_1_10::XalanMap.9"* %this1, i32 0, i32 10, !dbg !4093
  %6 = load i64, i64* %eraseThreshold.addr, align 8, !dbg !4094
  store i64 %6, i64* %m_eraseThreshold, align 8, !dbg !4093
  ret void, !dbg !4095

lpad:                                             ; preds = %entry
  %7 = landingpad { i8*, i32 }
          cleanup, !dbg !4095
  %8 = extractvalue { i8*, i32 } %7, 0, !dbg !4095
  store i8* %8, i8** %exn.slot, align 8, !dbg !4095
  %9 = extractvalue { i8*, i32 } %7, 1, !dbg !4095
  store i32 %9, i32* %ehselector.slot, align 4, !dbg !4095
  br label %ehcleanup, !dbg !4095

lpad2:                                            ; preds = %invoke.cont
  %10 = landingpad { i8*, i32 }
          cleanup, !dbg !4095
  %11 = extractvalue { i8*, i32 } %10, 0, !dbg !4095
  store i8* %11, i8** %exn.slot, align 8, !dbg !4095
  %12 = extractvalue { i8*, i32 } %10, 1, !dbg !4095
  store i32 %12, i32* %ehselector.slot, align 4, !dbg !4095
  call void @_ZN11xalanc_1_109XalanListINS_8XalanMapIPKNS_13XalanDocumentEPNS_23XalanSourceTreeDocumentENS_17XalanMapKeyTraitsIS4_EEE5EntryEED2Ev(%"class.xalanc_1_10::XalanList.10"* %m_freeEntries) #9, !dbg !4096
  br label %ehcleanup, !dbg !4096

ehcleanup:                                        ; preds = %lpad2, %lpad
  call void @_ZN11xalanc_1_109XalanListINS_8XalanMapIPKNS_13XalanDocumentEPNS_23XalanSourceTreeDocumentENS_17XalanMapKeyTraitsIS4_EEE5EntryEED2Ev(%"class.xalanc_1_10::XalanList.10"* %m_entries) #9, !dbg !4096
  br label %eh.resume, !dbg !4096

eh.resume:                                        ; preds = %ehcleanup
  %exn = load i8*, i8** %exn.slot, align 8, !dbg !4096
  %sel = load i32, i32* %ehselector.slot, align 4, !dbg !4096
  %lpad.val = insertvalue { i8*, i32 } undef, i8* %exn, 0, !dbg !4096
  %lpad.val4 = insertvalue { i8*, i32 } %lpad.val, i32 %sel, 1, !dbg !4096
  resume { i8*, i32 } %lpad.val4, !dbg !4096
}

; Function Attrs: nounwind
declare dso_local void @_ZN11xalanc_1_1019XercesParserLiaisonD1Ev(%"class.xalanc_1_10::XercesParserLiaison"*) unnamed_addr #4

; Function Attrs: nounwind
declare dso_local void @_ZN11xalanc_1_1016XMLParserLiaisonD2Ev(%"class.xalanc_1_10::XMLParserLiaison"*) unnamed_addr #4

; Function Attrs: noinline uwtable
define dso_local void @_ZN11xalanc_1_1028XalanSourceTreeParserLiaisonC2ERN11xercesc_2_713MemoryManagerE(%"class.xalanc_1_10::XalanSourceTreeParserLiaison"* %this, %"class.xercesc_2_7::MemoryManager"* dereferenceable(8) %theManager) unnamed_addr #6 align 2 personality i8* bitcast (i32 (...)* @__gxx_personality_v0 to i8*) !dbg !4098 {
entry:
  %this.addr = alloca %"class.xalanc_1_10::XalanSourceTreeParserLiaison"*, align 8
  %theManager.addr = alloca %"class.xercesc_2_7::MemoryManager"*, align 8
  %exn.slot = alloca i8*
  %ehselector.slot = alloca i32
  store %"class.xalanc_1_10::XalanSourceTreeParserLiaison"* %this, %"class.xalanc_1_10::XalanSourceTreeParserLiaison"** %this.addr, align 8
  call void @llvm.dbg.declare(metadata %"class.xalanc_1_10::XalanSourceTreeParserLiaison"** %this.addr, metadata !4099, metadata !DIExpression()), !dbg !4100
  store %"class.xercesc_2_7::MemoryManager"* %theManager, %"class.xercesc_2_7::MemoryManager"** %theManager.addr, align 8
  call void @llvm.dbg.declare(metadata %"class.xercesc_2_7::MemoryManager"** %theManager.addr, metadata !4101, metadata !DIExpression()), !dbg !4102
  %this1 = load %"class.xalanc_1_10::XalanSourceTreeParserLiaison"*, %"class.xalanc_1_10::XalanSourceTreeParserLiaison"** %this.addr, align 8
  %0 = bitcast %"class.xalanc_1_10::XalanSourceTreeParserLiaison"* %this1 to %"class.xalanc_1_10::XMLParserLiaison"*, !dbg !4103
  call void @_ZN11xalanc_1_1016XMLParserLiaisonC2Ev(%"class.xalanc_1_10::XMLParserLiaison"* %0), !dbg !4104
  %1 = bitcast %"class.xalanc_1_10::XalanSourceTreeParserLiaison"* %this1 to i32 (...)***, !dbg !4103
  store i32 (...)** bitcast (i8** getelementptr inbounds ({ [34 x i8*] }, { [34 x i8*] }* @_ZTVN11xalanc_1_1028XalanSourceTreeParserLiaisonE, i32 0, inrange i32 0, i32 2) to i32 (...)**), i32 (...)*** %1, align 8, !dbg !4103
  %m_xercesParserLiaison = getelementptr inbounds %"class.xalanc_1_10::XalanSourceTreeParserLiaison", %"class.xalanc_1_10::XalanSourceTreeParserLiaison"* %this1, i32 0, i32 1, !dbg !4105
  %2 = load %"class.xercesc_2_7::MemoryManager"*, %"class.xercesc_2_7::MemoryManager"** %theManager.addr, align 8, !dbg !4106
  invoke void @_ZN11xalanc_1_1019XercesParserLiaisonC1ERN11xercesc_2_713MemoryManagerE(%"class.xalanc_1_10::XercesParserLiaison"* %m_xercesParserLiaison, %"class.xercesc_2_7::MemoryManager"* dereferenceable(8) %2)
          to label %invoke.cont unwind label %lpad, !dbg !4105

invoke.cont:                                      ; preds = %entry
  %m_documentMap = getelementptr inbounds %"class.xalanc_1_10::XalanSourceTreeParserLiaison", %"class.xalanc_1_10::XalanSourceTreeParserLiaison"* %this1, i32 0, i32 2, !dbg !4107
  %3 = load %"class.xercesc_2_7::MemoryManager"*, %"class.xercesc_2_7::MemoryManager"** %theManager.addr, align 8, !dbg !4108
  invoke void @_ZN11xalanc_1_108XalanMapIPKNS_13XalanDocumentEPNS_23XalanSourceTreeDocumentENS_17XalanMapKeyTraitsIS3_EEEC2ERN11xercesc_2_713MemoryManagerEfmm(%"class.xalanc_1_10::XalanMap.9"* %m_documentMap, %"class.xercesc_2_7::MemoryManager"* dereferenceable(8) %3, float 7.500000e-01, i64 29, i64 50)
          to label %invoke.cont3 unwind label %lpad2, !dbg !4107

invoke.cont3:                                     ; preds = %invoke.cont
  %m_poolAllText = getelementptr inbounds %"class.xalanc_1_10::XalanSourceTreeParserLiaison", %"class.xalanc_1_10::XalanSourceTreeParserLiaison"* %this1, i32 0, i32 3, !dbg !4109
  store i8 1, i8* %m_poolAllText, align 8, !dbg !4109
  %m_xmlReader = getelementptr inbounds %"class.xalanc_1_10::XalanSourceTreeParserLiaison", %"class.xalanc_1_10::XalanSourceTreeParserLiaison"* %this1, i32 0, i32 4, !dbg !4110
  store %"class.xercesc_2_7::SAX2XMLReader"* null, %"class.xercesc_2_7::SAX2XMLReader"** %m_xmlReader, align 8, !dbg !4110
  ret void, !dbg !4111

lpad:                                             ; preds = %entry
  %4 = landingpad { i8*, i32 }
          cleanup, !dbg !4111
  %5 = extractvalue { i8*, i32 } %4, 0, !dbg !4111
  store i8* %5, i8** %exn.slot, align 8, !dbg !4111
  %6 = extractvalue { i8*, i32 } %4, 1, !dbg !4111
  store i32 %6, i32* %ehselector.slot, align 4, !dbg !4111
  br label %ehcleanup, !dbg !4111

lpad2:                                            ; preds = %invoke.cont
  %7 = landingpad { i8*, i32 }
          cleanup, !dbg !4111
  %8 = extractvalue { i8*, i32 } %7, 0, !dbg !4111
  store i8* %8, i8** %exn.slot, align 8, !dbg !4111
  %9 = extractvalue { i8*, i32 } %7, 1, !dbg !4111
  store i32 %9, i32* %ehselector.slot, align 4, !dbg !4111
  call void @_ZN11xalanc_1_1019XercesParserLiaisonD1Ev(%"class.xalanc_1_10::XercesParserLiaison"* %m_xercesParserLiaison) #9, !dbg !4112
  br label %ehcleanup, !dbg !4112

ehcleanup:                                        ; preds = %lpad2, %lpad
  %10 = bitcast %"class.xalanc_1_10::XalanSourceTreeParserLiaison"* %this1 to %"class.xalanc_1_10::XMLParserLiaison"*, !dbg !4112
  call void @_ZN11xalanc_1_1016XMLParserLiaisonD2Ev(%"class.xalanc_1_10::XMLParserLiaison"* %10) #9, !dbg !4112
  br label %eh.resume, !dbg !4112

eh.resume:                                        ; preds = %ehcleanup
  %exn = load i8*, i8** %exn.slot, align 8, !dbg !4112
  %sel = load i32, i32* %ehselector.slot, align 4, !dbg !4112
  %lpad.val = insertvalue { i8*, i32 } undef, i8* %exn, 0, !dbg !4112
  %lpad.val4 = insertvalue { i8*, i32 } %lpad.val, i32 %sel, 1, !dbg !4112
  resume { i8*, i32 } %lpad.val4, !dbg !4112
}

; Function Attrs: noinline nounwind uwtable
define dso_local void @_ZN11xalanc_1_1028XalanSourceTreeParserLiaisonD2Ev(%"class.xalanc_1_10::XalanSourceTreeParserLiaison"* %this) unnamed_addr #1 align 2 personality i8* bitcast (i32 (...)* @__gxx_personality_v0 to i8*) !dbg !4114 {
entry:
  %this.addr = alloca %"class.xalanc_1_10::XalanSourceTreeParserLiaison"*, align 8
  %exn.slot = alloca i8*
  %ehselector.slot = alloca i32
  store %"class.xalanc_1_10::XalanSourceTreeParserLiaison"* %this, %"class.xalanc_1_10::XalanSourceTreeParserLiaison"** %this.addr, align 8
  call void @llvm.dbg.declare(metadata %"class.xalanc_1_10::XalanSourceTreeParserLiaison"** %this.addr, metadata !4115, metadata !DIExpression()), !dbg !4116
  %this1 = load %"class.xalanc_1_10::XalanSourceTreeParserLiaison"*, %"class.xalanc_1_10::XalanSourceTreeParserLiaison"** %this.addr, align 8
  %0 = bitcast %"class.xalanc_1_10::XalanSourceTreeParserLiaison"* %this1 to i32 (...)***, !dbg !4117
  store i32 (...)** bitcast (i8** getelementptr inbounds ({ [34 x i8*] }, { [34 x i8*] }* @_ZTVN11xalanc_1_1028XalanSourceTreeParserLiaisonE, i32 0, inrange i32 0, i32 2) to i32 (...)**), i32 (...)*** %0, align 8, !dbg !4117
  %1 = bitcast %"class.xalanc_1_10::XalanSourceTreeParserLiaison"* %this1 to void (%"class.xalanc_1_10::XalanSourceTreeParserLiaison"*)***, !dbg !4118
  %vtable = load void (%"class.xalanc_1_10::XalanSourceTreeParserLiaison"*)**, void (%"class.xalanc_1_10::XalanSourceTreeParserLiaison"*)*** %1, align 8, !dbg !4118
  %vfn = getelementptr inbounds void (%"class.xalanc_1_10::XalanSourceTreeParserLiaison"*)*, void (%"class.xalanc_1_10::XalanSourceTreeParserLiaison"*)** %vtable, i64 2, !dbg !4118
  %2 = load void (%"class.xalanc_1_10::XalanSourceTreeParserLiaison"*)*, void (%"class.xalanc_1_10::XalanSourceTreeParserLiaison"*)** %vfn, align 8, !dbg !4118
  invoke void %2(%"class.xalanc_1_10::XalanSourceTreeParserLiaison"* %this1)
          to label %invoke.cont unwind label %lpad, !dbg !4118

invoke.cont:                                      ; preds = %entry
  %m_xmlReader = getelementptr inbounds %"class.xalanc_1_10::XalanSourceTreeParserLiaison", %"class.xalanc_1_10::XalanSourceTreeParserLiaison"* %this1, i32 0, i32 4, !dbg !4120
  %3 = load %"class.xercesc_2_7::SAX2XMLReader"*, %"class.xercesc_2_7::SAX2XMLReader"** %m_xmlReader, align 8, !dbg !4120
  %isnull = icmp eq %"class.xercesc_2_7::SAX2XMLReader"* %3, null, !dbg !4121
  br i1 %isnull, label %delete.end, label %delete.notnull, !dbg !4121

delete.notnull:                                   ; preds = %invoke.cont
  %4 = bitcast %"class.xercesc_2_7::SAX2XMLReader"* %3 to void (%"class.xercesc_2_7::SAX2XMLReader"*)***, !dbg !4121
  %vtable2 = load void (%"class.xercesc_2_7::SAX2XMLReader"*)**, void (%"class.xercesc_2_7::SAX2XMLReader"*)*** %4, align 8, !dbg !4121
  %vfn3 = getelementptr inbounds void (%"class.xercesc_2_7::SAX2XMLReader"*)*, void (%"class.xercesc_2_7::SAX2XMLReader"*)** %vtable2, i64 1, !dbg !4121
  %5 = load void (%"class.xercesc_2_7::SAX2XMLReader"*)*, void (%"class.xercesc_2_7::SAX2XMLReader"*)** %vfn3, align 8, !dbg !4121
  call void %5(%"class.xercesc_2_7::SAX2XMLReader"* %3) #9, !dbg !4121
  br label %delete.end, !dbg !4121

delete.end:                                       ; preds = %delete.notnull, %invoke.cont
  %m_documentMap = getelementptr inbounds %"class.xalanc_1_10::XalanSourceTreeParserLiaison", %"class.xalanc_1_10::XalanSourceTreeParserLiaison"* %this1, i32 0, i32 2, !dbg !4122
  call void @_ZN11xalanc_1_108XalanMapIPKNS_13XalanDocumentEPNS_23XalanSourceTreeDocumentENS_17XalanMapKeyTraitsIS3_EEED2Ev(%"class.xalanc_1_10::XalanMap.9"* %m_documentMap) #9, !dbg !4122
  %m_xercesParserLiaison = getelementptr inbounds %"class.xalanc_1_10::XalanSourceTreeParserLiaison", %"class.xalanc_1_10::XalanSourceTreeParserLiaison"* %this1, i32 0, i32 1, !dbg !4122
  call void @_ZN11xalanc_1_1019XercesParserLiaisonD1Ev(%"class.xalanc_1_10::XercesParserLiaison"* %m_xercesParserLiaison) #9, !dbg !4122
  %6 = bitcast %"class.xalanc_1_10::XalanSourceTreeParserLiaison"* %this1 to %"class.xalanc_1_10::XMLParserLiaison"*, !dbg !4122
  call void @_ZN11xalanc_1_1016XMLParserLiaisonD2Ev(%"class.xalanc_1_10::XMLParserLiaison"* %6) #9, !dbg !4122
  ret void, !dbg !4123

lpad:                                             ; preds = %entry
  %7 = landingpad { i8*, i32 }
          catch i8* null, !dbg !4122
  %8 = extractvalue { i8*, i32 } %7, 0, !dbg !4122
  store i8* %8, i8** %exn.slot, align 8, !dbg !4122
  %9 = extractvalue { i8*, i32 } %7, 1, !dbg !4122
  store i32 %9, i32* %ehselector.slot, align 4, !dbg !4122
  %m_documentMap4 = getelementptr inbounds %"class.xalanc_1_10::XalanSourceTreeParserLiaison", %"class.xalanc_1_10::XalanSourceTreeParserLiaison"* %this1, i32 0, i32 2, !dbg !4122
  call void @_ZN11xalanc_1_108XalanMapIPKNS_13XalanDocumentEPNS_23XalanSourceTreeDocumentENS_17XalanMapKeyTraitsIS3_EEED2Ev(%"class.xalanc_1_10::XalanMap.9"* %m_documentMap4) #9, !dbg !4122
  %m_xercesParserLiaison5 = getelementptr inbounds %"class.xalanc_1_10::XalanSourceTreeParserLiaison", %"class.xalanc_1_10::XalanSourceTreeParserLiaison"* %this1, i32 0, i32 1, !dbg !4122
  call void @_ZN11xalanc_1_1019XercesParserLiaisonD1Ev(%"class.xalanc_1_10::XercesParserLiaison"* %m_xercesParserLiaison5) #9, !dbg !4122
  %10 = bitcast %"class.xalanc_1_10::XalanSourceTreeParserLiaison"* %this1 to %"class.xalanc_1_10::XMLParserLiaison"*, !dbg !4122
  call void @_ZN11xalanc_1_1016XMLParserLiaisonD2Ev(%"class.xalanc_1_10::XMLParserLiaison"* %10) #9, !dbg !4122
  br label %terminate.handler, !dbg !4122

terminate.handler:                                ; preds = %lpad
  %exn = load i8*, i8** %exn.slot, align 8, !dbg !4122
  call void @__clang_call_terminate(i8* %exn) #11, !dbg !4122
  unreachable, !dbg !4122
}

; Function Attrs: noinline nounwind uwtable
define linkonce_odr dso_local void @_ZN11xalanc_1_108XalanMapIPKNS_13XalanDocumentEPNS_23XalanSourceTreeDocumentENS_17XalanMapKeyTraitsIS3_EEED2Ev(%"class.xalanc_1_10::XalanMap.9"* %this) unnamed_addr #1 comdat align 2 personality i8* bitcast (i32 (...)* @__gxx_personality_v0 to i8*) !dbg !4124 {
entry:
  %this.addr = alloca %"class.xalanc_1_10::XalanMap.9"*, align 8
  %exn.slot = alloca i8*
  %ehselector.slot = alloca i32
  %toRemove = alloca %"struct.xalanc_1_10::XalanListIteratorBase.52", align 8
  %ref.tmp = alloca %"struct.xalanc_1_10::XalanListIteratorBase.52", align 8
  %tmp = alloca %"struct.xalanc_1_10::XalanListIteratorBase.52", align 8
  store %"class.xalanc_1_10::XalanMap.9"* %this, %"class.xalanc_1_10::XalanMap.9"** %this.addr, align 8
  call void @llvm.dbg.declare(metadata %"class.xalanc_1_10::XalanMap.9"** %this.addr, metadata !4125, metadata !DIExpression()), !dbg !4126
  %this1 = load %"class.xalanc_1_10::XalanMap.9"*, %"class.xalanc_1_10::XalanMap.9"** %this.addr, align 8
  invoke void @_ZN11xalanc_1_108XalanMapIPKNS_13XalanDocumentEPNS_23XalanSourceTreeDocumentENS_17XalanMapKeyTraitsIS3_EEE15doRemoveEntriesEv(%"class.xalanc_1_10::XalanMap.9"* %this1)
          to label %invoke.cont unwind label %lpad, !dbg !4127

invoke.cont:                                      ; preds = %entry
  %m_buckets = getelementptr inbounds %"class.xalanc_1_10::XalanMap.9", %"class.xalanc_1_10::XalanMap.9"* %this1, i32 0, i32 8, !dbg !4129
  %call = invoke zeroext i1 @_ZNK11xalanc_1_1011XalanVectorINS0_INS_21XalanListIteratorBaseINS_23XalanListIteratorTraitsINS_8XalanMapIPKNS_13XalanDocumentEPNS_23XalanSourceTreeDocumentENS_17XalanMapKeyTraitsIS6_EEE5EntryEEENS_9XalanListISC_E4NodeEEENS_31MemoryManagedConstructionTraitsISH_EEEENS_32ConstructWithMemoryManagerTraitsISK_EEE5emptyEv(%"class.xalanc_1_10::XalanVector.50"* %m_buckets)
          to label %invoke.cont2 unwind label %lpad, !dbg !4131

invoke.cont2:                                     ; preds = %invoke.cont
  br i1 %call, label %if.end, label %if.then, !dbg !4132

if.then:                                          ; preds = %invoke.cont2
  call void @llvm.dbg.declare(metadata %"struct.xalanc_1_10::XalanListIteratorBase.52"* %toRemove, metadata !4133, metadata !DIExpression()), !dbg !4136
  %m_freeEntries = getelementptr inbounds %"class.xalanc_1_10::XalanMap.9", %"class.xalanc_1_10::XalanMap.9"* %this1, i32 0, i32 7, !dbg !4137
  invoke void @_ZN11xalanc_1_109XalanListINS_8XalanMapIPKNS_13XalanDocumentEPNS_23XalanSourceTreeDocumentENS_17XalanMapKeyTraitsIS4_EEE5EntryEE5beginEv(%"struct.xalanc_1_10::XalanListIteratorBase.52"* sret %toRemove, %"class.xalanc_1_10::XalanList.10"* %m_freeEntries)
          to label %invoke.cont3 unwind label %lpad, !dbg !4138

invoke.cont3:                                     ; preds = %if.then
  br label %while.cond, !dbg !4139

while.cond:                                       ; preds = %invoke.cont11, %invoke.cont3
  %m_freeEntries4 = getelementptr inbounds %"class.xalanc_1_10::XalanMap.9", %"class.xalanc_1_10::XalanMap.9"* %this1, i32 0, i32 7, !dbg !4140
  invoke void @_ZN11xalanc_1_109XalanListINS_8XalanMapIPKNS_13XalanDocumentEPNS_23XalanSourceTreeDocumentENS_17XalanMapKeyTraitsIS4_EEE5EntryEE3endEv(%"struct.xalanc_1_10::XalanListIteratorBase.52"* sret %ref.tmp, %"class.xalanc_1_10::XalanList.10"* %m_freeEntries4)
          to label %invoke.cont5 unwind label %lpad, !dbg !4141

invoke.cont5:                                     ; preds = %while.cond
  %call7 = invoke zeroext i1 @_ZNK11xalanc_1_1021XalanListIteratorBaseINS_23XalanListIteratorTraitsINS_8XalanMapIPKNS_13XalanDocumentEPNS_23XalanSourceTreeDocumentENS_17XalanMapKeyTraitsIS5_EEE5EntryEEENS_9XalanListISB_E4NodeEEneERKSG_(%"struct.xalanc_1_10::XalanListIteratorBase.52"* %toRemove, %"struct.xalanc_1_10::XalanListIteratorBase.52"* dereferenceable(8) %ref.tmp)
          to label %invoke.cont6 unwind label %lpad, !dbg !4142

invoke.cont6:                                     ; preds = %invoke.cont5
  br i1 %call7, label %while.body, label %while.end, !dbg !4139

while.body:                                       ; preds = %invoke.cont6
  %call9 = invoke %"struct.xalanc_1_10::XalanMap<const xalanc_1_10::XalanDocument *, xalanc_1_10::XalanSourceTreeDocument *, xalanc_1_10::XalanMapKeyTraits<const xalanc_1_10::XalanDocument *> >::Entry"* @_ZNK11xalanc_1_1021XalanListIteratorBaseINS_23XalanListIteratorTraitsINS_8XalanMapIPKNS_13XalanDocumentEPNS_23XalanSourceTreeDocumentENS_17XalanMapKeyTraitsIS5_EEE5EntryEEENS_9XalanListISB_E4NodeEEptEv(%"struct.xalanc_1_10::XalanListIteratorBase.52"* %toRemove)
          to label %invoke.cont8 unwind label %lpad, !dbg !4143

invoke.cont8:                                     ; preds = %while.body
  %value = getelementptr inbounds %"struct.xalanc_1_10::XalanMap<const xalanc_1_10::XalanDocument *, xalanc_1_10::XalanSourceTreeDocument *, xalanc_1_10::XalanMapKeyTraits<const xalanc_1_10::XalanDocument *> >::Entry", %"struct.xalanc_1_10::XalanMap<const xalanc_1_10::XalanDocument *, xalanc_1_10::XalanSourceTreeDocument *, xalanc_1_10::XalanMapKeyTraits<const xalanc_1_10::XalanDocument *> >::Entry"* %call9, i32 0, i32 0, !dbg !4145
  %0 = load %"struct.std::pair"*, %"struct.std::pair"** %value, align 8, !dbg !4145
  invoke void @_ZN11xalanc_1_108XalanMapIPKNS_13XalanDocumentEPNS_23XalanSourceTreeDocumentENS_17XalanMapKeyTraitsIS3_EEE10deallocateEPSt4pairIKS3_S5_E(%"class.xalanc_1_10::XalanMap.9"* %this1, %"struct.std::pair"* %0)
          to label %invoke.cont10 unwind label %lpad, !dbg !4146

invoke.cont10:                                    ; preds = %invoke.cont8
  invoke void @_ZN11xalanc_1_1021XalanListIteratorBaseINS_23XalanListIteratorTraitsINS_8XalanMapIPKNS_13XalanDocumentEPNS_23XalanSourceTreeDocumentENS_17XalanMapKeyTraitsIS5_EEE5EntryEEENS_9XalanListISB_E4NodeEEppEv(%"struct.xalanc_1_10::XalanListIteratorBase.52"* sret %tmp, %"struct.xalanc_1_10::XalanListIteratorBase.52"* %toRemove)
          to label %invoke.cont11 unwind label %lpad, !dbg !4147

invoke.cont11:                                    ; preds = %invoke.cont10
  br label %while.cond, !dbg !4139, !llvm.loop !4148

lpad:                                             ; preds = %invoke.cont10, %invoke.cont8, %while.body, %invoke.cont5, %while.cond, %if.then, %invoke.cont, %entry
  %1 = landingpad { i8*, i32 }
          catch i8* null, !dbg !4150
  %2 = extractvalue { i8*, i32 } %1, 0, !dbg !4150
  store i8* %2, i8** %exn.slot, align 8, !dbg !4150
  %3 = extractvalue { i8*, i32 } %1, 1, !dbg !4150
  store i32 %3, i32* %ehselector.slot, align 4, !dbg !4150
  %m_buckets13 = getelementptr inbounds %"class.xalanc_1_10::XalanMap.9", %"class.xalanc_1_10::XalanMap.9"* %this1, i32 0, i32 8, !dbg !4150
  call void @_ZN11xalanc_1_1011XalanVectorINS0_INS_21XalanListIteratorBaseINS_23XalanListIteratorTraitsINS_8XalanMapIPKNS_13XalanDocumentEPNS_23XalanSourceTreeDocumentENS_17XalanMapKeyTraitsIS6_EEE5EntryEEENS_9XalanListISC_E4NodeEEENS_31MemoryManagedConstructionTraitsISH_EEEENS_32ConstructWithMemoryManagerTraitsISK_EEED2Ev(%"class.xalanc_1_10::XalanVector.50"* %m_buckets13) #9, !dbg !4150
  %m_freeEntries15 = getelementptr inbounds %"class.xalanc_1_10::XalanMap.9", %"class.xalanc_1_10::XalanMap.9"* %this1, i32 0, i32 7, !dbg !4150
  call void @_ZN11xalanc_1_109XalanListINS_8XalanMapIPKNS_13XalanDocumentEPNS_23XalanSourceTreeDocumentENS_17XalanMapKeyTraitsIS4_EEE5EntryEED2Ev(%"class.xalanc_1_10::XalanList.10"* %m_freeEntries15) #9, !dbg !4150
  %m_entries16 = getelementptr inbounds %"class.xalanc_1_10::XalanMap.9", %"class.xalanc_1_10::XalanMap.9"* %this1, i32 0, i32 6, !dbg !4150
  call void @_ZN11xalanc_1_109XalanListINS_8XalanMapIPKNS_13XalanDocumentEPNS_23XalanSourceTreeDocumentENS_17XalanMapKeyTraitsIS4_EEE5EntryEED2Ev(%"class.xalanc_1_10::XalanList.10"* %m_entries16) #9, !dbg !4150
  br label %terminate.handler, !dbg !4150

while.end:                                        ; preds = %invoke.cont6
  br label %if.end, !dbg !4151

if.end:                                           ; preds = %while.end, %invoke.cont2
  %m_buckets12 = getelementptr inbounds %"class.xalanc_1_10::XalanMap.9", %"class.xalanc_1_10::XalanMap.9"* %this1, i32 0, i32 8, !dbg !4150
  call void @_ZN11xalanc_1_1011XalanVectorINS0_INS_21XalanListIteratorBaseINS_23XalanListIteratorTraitsINS_8XalanMapIPKNS_13XalanDocumentEPNS_23XalanSourceTreeDocumentENS_17XalanMapKeyTraitsIS6_EEE5EntryEEENS_9XalanListISC_E4NodeEEENS_31MemoryManagedConstructionTraitsISH_EEEENS_32ConstructWithMemoryManagerTraitsISK_EEED2Ev(%"class.xalanc_1_10::XalanVector.50"* %m_buckets12) #9, !dbg !4150
  %m_freeEntries14 = getelementptr inbounds %"class.xalanc_1_10::XalanMap.9", %"class.xalanc_1_10::XalanMap.9"* %this1, i32 0, i32 7, !dbg !4150
  call void @_ZN11xalanc_1_109XalanListINS_8XalanMapIPKNS_13XalanDocumentEPNS_23XalanSourceTreeDocumentENS_17XalanMapKeyTraitsIS4_EEE5EntryEED2Ev(%"class.xalanc_1_10::XalanList.10"* %m_freeEntries14) #9, !dbg !4150
  %m_entries = getelementptr inbounds %"class.xalanc_1_10::XalanMap.9", %"class.xalanc_1_10::XalanMap.9"* %this1, i32 0, i32 6, !dbg !4150
  call void @_ZN11xalanc_1_109XalanListINS_8XalanMapIPKNS_13XalanDocumentEPNS_23XalanSourceTreeDocumentENS_17XalanMapKeyTraitsIS4_EEE5EntryEED2Ev(%"class.xalanc_1_10::XalanList.10"* %m_entries) #9, !dbg !4150
  ret void, !dbg !4152

terminate.handler:                                ; preds = %lpad
  %exn = load i8*, i8** %exn.slot, align 8, !dbg !4150
  call void @__clang_call_terminate(i8* %exn) #11, !dbg !4150
  unreachable, !dbg !4150
}

; Function Attrs: noinline nounwind uwtable
define dso_local void @_ZN11xalanc_1_1028XalanSourceTreeParserLiaisonD0Ev(%"class.xalanc_1_10::XalanSourceTreeParserLiaison"* %this) unnamed_addr #1 align 2 !dbg !4153 {
entry:
  %this.addr = alloca %"class.xalanc_1_10::XalanSourceTreeParserLiaison"*, align 8
  store %"class.xalanc_1_10::XalanSourceTreeParserLiaison"* %this, %"class.xalanc_1_10::XalanSourceTreeParserLiaison"** %this.addr, align 8
  call void @llvm.dbg.declare(metadata %"class.xalanc_1_10::XalanSourceTreeParserLiaison"** %this.addr, metadata !4154, metadata !DIExpression()), !dbg !4155
  %this1 = load %"class.xalanc_1_10::XalanSourceTreeParserLiaison"*, %"class.xalanc_1_10::XalanSourceTreeParserLiaison"** %this.addr, align 8
  call void @_ZN11xalanc_1_1028XalanSourceTreeParserLiaisonD1Ev(%"class.xalanc_1_10::XalanSourceTreeParserLiaison"* %this1) #9, !dbg !4156
  %0 = bitcast %"class.xalanc_1_10::XalanSourceTreeParserLiaison"* %this1 to i8*, !dbg !4156
  call void @_ZdlPv(i8* %0) #10, !dbg !4156
  ret void, !dbg !4157
}

; Function Attrs: noinline uwtable
define dso_local void @_ZN11xalanc_1_1028XalanSourceTreeParserLiaison5resetEv(%"class.xalanc_1_10::XalanSourceTreeParserLiaison"* %this) unnamed_addr #6 align 2 !dbg !4158 {
entry:
  %this.addr = alloca %"class.xalanc_1_10::XalanSourceTreeParserLiaison"*, align 8
  %theManager = alloca %"class.xercesc_2_7::MemoryManager"*, align 8
  %i = alloca %"struct.xalanc_1_10::XalanMapIterator", align 8
  %ref.tmp = alloca %"struct.xalanc_1_10::XalanMapIterator", align 8
  store %"class.xalanc_1_10::XalanSourceTreeParserLiaison"* %this, %"class.xalanc_1_10::XalanSourceTreeParserLiaison"** %this.addr, align 8
  call void @llvm.dbg.declare(metadata %"class.xalanc_1_10::XalanSourceTreeParserLiaison"** %this.addr, metadata !4159, metadata !DIExpression()), !dbg !4160
  %this1 = load %"class.xalanc_1_10::XalanSourceTreeParserLiaison"*, %"class.xalanc_1_10::XalanSourceTreeParserLiaison"** %this.addr, align 8
  call void @llvm.dbg.declare(metadata %"class.xercesc_2_7::MemoryManager"** %theManager, metadata !4161, metadata !DIExpression()), !dbg !4162
  %0 = bitcast %"class.xalanc_1_10::XalanSourceTreeParserLiaison"* %this1 to %"class.xercesc_2_7::MemoryManager"* (%"class.xalanc_1_10::XalanSourceTreeParserLiaison"*)***, !dbg !4163
  %vtable = load %"class.xercesc_2_7::MemoryManager"* (%"class.xalanc_1_10::XalanSourceTreeParserLiaison"*)**, %"class.xercesc_2_7::MemoryManager"* (%"class.xalanc_1_10::XalanSourceTreeParserLiaison"*)*** %0, align 8, !dbg !4163
  %vfn = getelementptr inbounds %"class.xercesc_2_7::MemoryManager"* (%"class.xalanc_1_10::XalanSourceTreeParserLiaison"*)*, %"class.xercesc_2_7::MemoryManager"* (%"class.xalanc_1_10::XalanSourceTreeParserLiaison"*)** %vtable, i64 4, !dbg !4163
  %1 = load %"class.xercesc_2_7::MemoryManager"* (%"class.xalanc_1_10::XalanSourceTreeParserLiaison"*)*, %"class.xercesc_2_7::MemoryManager"* (%"class.xalanc_1_10::XalanSourceTreeParserLiaison"*)** %vfn, align 8, !dbg !4163
  %call = call dereferenceable(8) %"class.xercesc_2_7::MemoryManager"* %1(%"class.xalanc_1_10::XalanSourceTreeParserLiaison"* %this1), !dbg !4163
  store %"class.xercesc_2_7::MemoryManager"* %call, %"class.xercesc_2_7::MemoryManager"** %theManager, align 8, !dbg !4162
  call void @llvm.dbg.declare(metadata %"struct.xalanc_1_10::XalanMapIterator"* %i, metadata !4164, metadata !DIExpression()), !dbg !4167
  %m_documentMap = getelementptr inbounds %"class.xalanc_1_10::XalanSourceTreeParserLiaison", %"class.xalanc_1_10::XalanSourceTreeParserLiaison"* %this1, i32 0, i32 2, !dbg !4168
  call void @_ZN11xalanc_1_108XalanMapIPKNS_13XalanDocumentEPNS_23XalanSourceTreeDocumentENS_17XalanMapKeyTraitsIS3_EEE5beginEv(%"struct.xalanc_1_10::XalanMapIterator"* sret %i, %"class.xalanc_1_10::XalanMap.9"* %m_documentMap), !dbg !4169
  br label %for.cond, !dbg !4170

for.cond:                                         ; preds = %for.inc, %entry
  %m_documentMap2 = getelementptr inbounds %"class.xalanc_1_10::XalanSourceTreeParserLiaison", %"class.xalanc_1_10::XalanSourceTreeParserLiaison"* %this1, i32 0, i32 2, !dbg !4171
  call void @_ZN11xalanc_1_108XalanMapIPKNS_13XalanDocumentEPNS_23XalanSourceTreeDocumentENS_17XalanMapKeyTraitsIS3_EEE3endEv(%"struct.xalanc_1_10::XalanMapIterator"* sret %ref.tmp, %"class.xalanc_1_10::XalanMap.9"* %m_documentMap2), !dbg !4173
  %call3 = call zeroext i1 @_ZNK11xalanc_1_1016XalanMapIteratorINS_22XalanMapIteratorTraitsISt4pairIKPKNS_13XalanDocumentEPNS_23XalanSourceTreeDocumentEEEENS_21XalanListIteratorBaseINS_23XalanListIteratorTraitsINS_8XalanMapIS5_S8_NS_17XalanMapKeyTraitsIS5_EEE5EntryEEENS_9XalanListISH_E4NodeEEEEneERKSN_(%"struct.xalanc_1_10::XalanMapIterator"* %i, %"struct.xalanc_1_10::XalanMapIterator"* dereferenceable(8) %ref.tmp), !dbg !4174
  br i1 %call3, label %for.body, label %for.end, !dbg !4175

for.body:                                         ; preds = %for.cond
  %call4 = call dereferenceable(16) %"struct.std::pair"* @_ZNK11xalanc_1_1016XalanMapIteratorINS_22XalanMapIteratorTraitsISt4pairIKPKNS_13XalanDocumentEPNS_23XalanSourceTreeDocumentEEEENS_21XalanListIteratorBaseINS_23XalanListIteratorTraitsINS_8XalanMapIS5_S8_NS_17XalanMapKeyTraitsIS5_EEE5EntryEEENS_9XalanListISH_E4NodeEEEEdeEv(%"struct.xalanc_1_10::XalanMapIterator"* %i), !dbg !4176
  %second = getelementptr inbounds %"struct.std::pair", %"struct.std::pair"* %call4, i32 0, i32 1, !dbg !4178
  %2 = load %"class.xalanc_1_10::XalanSourceTreeDocument"*, %"class.xalanc_1_10::XalanSourceTreeDocument"** %second, align 8, !dbg !4178
  %3 = bitcast %"class.xalanc_1_10::XalanSourceTreeDocument"* %2 to void (%"class.xalanc_1_10::XalanSourceTreeDocument"*)***, !dbg !4179
  %vtable5 = load void (%"class.xalanc_1_10::XalanSourceTreeDocument"*)**, void (%"class.xalanc_1_10::XalanSourceTreeDocument"*)*** %3, align 8, !dbg !4179
  %vfn6 = getelementptr inbounds void (%"class.xalanc_1_10::XalanSourceTreeDocument"*)*, void (%"class.xalanc_1_10::XalanSourceTreeDocument"*)** %vtable5, i64 0, !dbg !4179
  %4 = load void (%"class.xalanc_1_10::XalanSourceTreeDocument"*)*, void (%"class.xalanc_1_10::XalanSourceTreeDocument"*)** %vfn6, align 8, !dbg !4179
  call void %4(%"class.xalanc_1_10::XalanSourceTreeDocument"* %2) #9, !dbg !4179
  %5 = load %"class.xercesc_2_7::MemoryManager"*, %"class.xercesc_2_7::MemoryManager"** %theManager, align 8, !dbg !4180
  %call7 = call dereferenceable(16) %"struct.std::pair"* @_ZNK11xalanc_1_1016XalanMapIteratorINS_22XalanMapIteratorTraitsISt4pairIKPKNS_13XalanDocumentEPNS_23XalanSourceTreeDocumentEEEENS_21XalanListIteratorBaseINS_23XalanListIteratorTraitsINS_8XalanMapIS5_S8_NS_17XalanMapKeyTraitsIS5_EEE5EntryEEENS_9XalanListISH_E4NodeEEEEdeEv(%"struct.xalanc_1_10::XalanMapIterator"* %i), !dbg !4181
  %second8 = getelementptr inbounds %"struct.std::pair", %"struct.std::pair"* %call7, i32 0, i32 1, !dbg !4182
  %6 = load %"class.xalanc_1_10::XalanSourceTreeDocument"*, %"class.xalanc_1_10::XalanSourceTreeDocument"** %second8, align 8, !dbg !4182
  %7 = bitcast %"class.xalanc_1_10::XalanSourceTreeDocument"* %6 to i8*, !dbg !4183
  %8 = bitcast %"class.xercesc_2_7::MemoryManager"* %5 to void (%"class.xercesc_2_7::MemoryManager"*, i8*)***, !dbg !4184
  %vtable9 = load void (%"class.xercesc_2_7::MemoryManager"*, i8*)**, void (%"class.xercesc_2_7::MemoryManager"*, i8*)*** %8, align 8, !dbg !4184
  %vfn10 = getelementptr inbounds void (%"class.xercesc_2_7::MemoryManager"*, i8*)*, void (%"class.xercesc_2_7::MemoryManager"*, i8*)** %vtable9, i64 3, !dbg !4184
  %9 = load void (%"class.xercesc_2_7::MemoryManager"*, i8*)*, void (%"class.xercesc_2_7::MemoryManager"*, i8*)** %vfn10, align 8, !dbg !4184
  call void %9(%"class.xercesc_2_7::MemoryManager"* %5, i8* %7), !dbg !4184
  %call11 = call dereferenceable(16) %"struct.std::pair"* @_ZNK11xalanc_1_1016XalanMapIteratorINS_22XalanMapIteratorTraitsISt4pairIKPKNS_13XalanDocumentEPNS_23XalanSourceTreeDocumentEEEENS_21XalanListIteratorBaseINS_23XalanListIteratorTraitsINS_8XalanMapIS5_S8_NS_17XalanMapKeyTraitsIS5_EEE5EntryEEENS_9XalanListISH_E4NodeEEEEdeEv(%"struct.xalanc_1_10::XalanMapIterator"* %i), !dbg !4185
  %second12 = getelementptr inbounds %"struct.std::pair", %"struct.std::pair"* %call11, i32 0, i32 1, !dbg !4186
  store %"class.xalanc_1_10::XalanSourceTreeDocument"* null, %"class.xalanc_1_10::XalanSourceTreeDocument"** %second12, align 8, !dbg !4187
  br label %for.inc, !dbg !4188

for.inc:                                          ; preds = %for.body
  %call13 = call dereferenceable(8) %"struct.xalanc_1_10::XalanMapIterator"* @_ZN11xalanc_1_1016XalanMapIteratorINS_22XalanMapIteratorTraitsISt4pairIKPKNS_13XalanDocumentEPNS_23XalanSourceTreeDocumentEEEENS_21XalanListIteratorBaseINS_23XalanListIteratorTraitsINS_8XalanMapIS5_S8_NS_17XalanMapKeyTraitsIS5_EEE5EntryEEENS_9XalanListISH_E4NodeEEEEppEv(%"struct.xalanc_1_10::XalanMapIterator"* %i), !dbg !4189
  br label %for.cond, !dbg !4190, !llvm.loop !4191

for.end:                                          ; preds = %for.cond
  %m_documentMap14 = getelementptr inbounds %"class.xalanc_1_10::XalanSourceTreeParserLiaison", %"class.xalanc_1_10::XalanSourceTreeParserLiaison"* %this1, i32 0, i32 2, !dbg !4193
  call void @_ZN11xalanc_1_108XalanMapIPKNS_13XalanDocumentEPNS_23XalanSourceTreeDocumentENS_17XalanMapKeyTraitsIS3_EEE5clearEv(%"class.xalanc_1_10::XalanMap.9"* %m_documentMap14), !dbg !4194
  %m_xercesParserLiaison = getelementptr inbounds %"class.xalanc_1_10::XalanSourceTreeParserLiaison", %"class.xalanc_1_10::XalanSourceTreeParserLiaison"* %this1, i32 0, i32 1, !dbg !4195
  call void @_ZN11xalanc_1_1019XercesParserLiaison5resetEv(%"class.xalanc_1_10::XercesParserLiaison"* %m_xercesParserLiaison), !dbg !4196
  ret void, !dbg !4197
}

; Function Attrs: noinline uwtable
define linkonce_odr dso_local void @_ZN11xalanc_1_108XalanMapIPKNS_13XalanDocumentEPNS_23XalanSourceTreeDocumentENS_17XalanMapKeyTraitsIS3_EEE5beginEv(%"struct.xalanc_1_10::XalanMapIterator"* noalias sret %agg.result, %"class.xalanc_1_10::XalanMap.9"* %this) #6 comdat align 2 !dbg !4198 {
entry:
  %result.ptr = alloca i8*, align 8
  %this.addr = alloca %"class.xalanc_1_10::XalanMap.9"*, align 8
  %ref.tmp = alloca %"struct.xalanc_1_10::XalanListIteratorBase.52", align 8
  %0 = bitcast %"struct.xalanc_1_10::XalanMapIterator"* %agg.result to i8*
  store i8* %0, i8** %result.ptr, align 8
  store %"class.xalanc_1_10::XalanMap.9"* %this, %"class.xalanc_1_10::XalanMap.9"** %this.addr, align 8
  call void @llvm.dbg.declare(metadata %"class.xalanc_1_10::XalanMap.9"** %this.addr, metadata !4199, metadata !DIExpression()), !dbg !4200
  %this1 = load %"class.xalanc_1_10::XalanMap.9"*, %"class.xalanc_1_10::XalanMap.9"** %this.addr, align 8
  %m_entries = getelementptr inbounds %"class.xalanc_1_10::XalanMap.9", %"class.xalanc_1_10::XalanMap.9"* %this1, i32 0, i32 6, !dbg !4201
  call void @_ZN11xalanc_1_109XalanListINS_8XalanMapIPKNS_13XalanDocumentEPNS_23XalanSourceTreeDocumentENS_17XalanMapKeyTraitsIS4_EEE5EntryEE5beginEv(%"struct.xalanc_1_10::XalanListIteratorBase.52"* sret %ref.tmp, %"class.xalanc_1_10::XalanList.10"* %m_entries), !dbg !4202
  call void @_ZN11xalanc_1_1016XalanMapIteratorINS_22XalanMapIteratorTraitsISt4pairIKPKNS_13XalanDocumentEPNS_23XalanSourceTreeDocumentEEEENS_21XalanListIteratorBaseINS_23XalanListIteratorTraitsINS_8XalanMapIS5_S8_NS_17XalanMapKeyTraitsIS5_EEE5EntryEEENS_9XalanListISH_E4NodeEEEEC2ERKSM_(%"struct.xalanc_1_10::XalanMapIterator"* %agg.result, %"struct.xalanc_1_10::XalanListIteratorBase.52"* dereferenceable(8) %ref.tmp), !dbg !4201
  ret void, !dbg !4203
}

; Function Attrs: noinline uwtable
define linkonce_odr dso_local zeroext i1 @_ZNK11xalanc_1_1016XalanMapIteratorINS_22XalanMapIteratorTraitsISt4pairIKPKNS_13XalanDocumentEPNS_23XalanSourceTreeDocumentEEEENS_21XalanListIteratorBaseINS_23XalanListIteratorTraitsINS_8XalanMapIS5_S8_NS_17XalanMapKeyTraitsIS5_EEE5EntryEEENS_9XalanListISH_E4NodeEEEEneERKSN_(%"struct.xalanc_1_10::XalanMapIterator"* %this, %"struct.xalanc_1_10::XalanMapIterator"* dereferenceable(8) %theRhs) #6 comdat align 2 !dbg !4204 {
entry:
  %this.addr = alloca %"struct.xalanc_1_10::XalanMapIterator"*, align 8
  %theRhs.addr = alloca %"struct.xalanc_1_10::XalanMapIterator"*, align 8
  store %"struct.xalanc_1_10::XalanMapIterator"* %this, %"struct.xalanc_1_10::XalanMapIterator"** %this.addr, align 8
  call void @llvm.dbg.declare(metadata %"struct.xalanc_1_10::XalanMapIterator"** %this.addr, metadata !4205, metadata !DIExpression()), !dbg !4207
  store %"struct.xalanc_1_10::XalanMapIterator"* %theRhs, %"struct.xalanc_1_10::XalanMapIterator"** %theRhs.addr, align 8
  call void @llvm.dbg.declare(metadata %"struct.xalanc_1_10::XalanMapIterator"** %theRhs.addr, metadata !4208, metadata !DIExpression()), !dbg !4209
  %this1 = load %"struct.xalanc_1_10::XalanMapIterator"*, %"struct.xalanc_1_10::XalanMapIterator"** %this.addr, align 8
  %0 = load %"struct.xalanc_1_10::XalanMapIterator"*, %"struct.xalanc_1_10::XalanMapIterator"** %theRhs.addr, align 8, !dbg !4210
  %call = call zeroext i1 @_ZNK11xalanc_1_1016XalanMapIteratorINS_22XalanMapIteratorTraitsISt4pairIKPKNS_13XalanDocumentEPNS_23XalanSourceTreeDocumentEEEENS_21XalanListIteratorBaseINS_23XalanListIteratorTraitsINS_8XalanMapIS5_S8_NS_17XalanMapKeyTraitsIS5_EEE5EntryEEENS_9XalanListISH_E4NodeEEEEeqERKSN_(%"struct.xalanc_1_10::XalanMapIterator"* %0, %"struct.xalanc_1_10::XalanMapIterator"* dereferenceable(8) %this1), !dbg !4211
  %lnot = xor i1 %call, true, !dbg !4212
  ret i1 %lnot, !dbg !4213
}

; Function Attrs: noinline uwtable
define linkonce_odr dso_local void @_ZN11xalanc_1_108XalanMapIPKNS_13XalanDocumentEPNS_23XalanSourceTreeDocumentENS_17XalanMapKeyTraitsIS3_EEE3endEv(%"struct.xalanc_1_10::XalanMapIterator"* noalias sret %agg.result, %"class.xalanc_1_10::XalanMap.9"* %this) #6 comdat align 2 !dbg !4214 {
entry:
  %result.ptr = alloca i8*, align 8
  %this.addr = alloca %"class.xalanc_1_10::XalanMap.9"*, align 8
  %ref.tmp = alloca %"struct.xalanc_1_10::XalanListIteratorBase.52", align 8
  %0 = bitcast %"struct.xalanc_1_10::XalanMapIterator"* %agg.result to i8*
  store i8* %0, i8** %result.ptr, align 8
  store %"class.xalanc_1_10::XalanMap.9"* %this, %"class.xalanc_1_10::XalanMap.9"** %this.addr, align 8
  call void @llvm.dbg.declare(metadata %"class.xalanc_1_10::XalanMap.9"** %this.addr, metadata !4215, metadata !DIExpression()), !dbg !4216
  %this1 = load %"class.xalanc_1_10::XalanMap.9"*, %"class.xalanc_1_10::XalanMap.9"** %this.addr, align 8
  %m_entries = getelementptr inbounds %"class.xalanc_1_10::XalanMap.9", %"class.xalanc_1_10::XalanMap.9"* %this1, i32 0, i32 6, !dbg !4217
  call void @_ZN11xalanc_1_109XalanListINS_8XalanMapIPKNS_13XalanDocumentEPNS_23XalanSourceTreeDocumentENS_17XalanMapKeyTraitsIS4_EEE5EntryEE3endEv(%"struct.xalanc_1_10::XalanListIteratorBase.52"* sret %ref.tmp, %"class.xalanc_1_10::XalanList.10"* %m_entries), !dbg !4218
  call void @_ZN11xalanc_1_1016XalanMapIteratorINS_22XalanMapIteratorTraitsISt4pairIKPKNS_13XalanDocumentEPNS_23XalanSourceTreeDocumentEEEENS_21XalanListIteratorBaseINS_23XalanListIteratorTraitsINS_8XalanMapIS5_S8_NS_17XalanMapKeyTraitsIS5_EEE5EntryEEENS_9XalanListISH_E4NodeEEEEC2ERKSM_(%"struct.xalanc_1_10::XalanMapIterator"* %agg.result, %"struct.xalanc_1_10::XalanListIteratorBase.52"* dereferenceable(8) %ref.tmp), !dbg !4217
  ret void, !dbg !4219
}

; Function Attrs: noinline nounwind uwtable
define linkonce_odr dso_local dereferenceable(16) %"struct.std::pair"* @_ZNK11xalanc_1_1016XalanMapIteratorINS_22XalanMapIteratorTraitsISt4pairIKPKNS_13XalanDocumentEPNS_23XalanSourceTreeDocumentEEEENS_21XalanListIteratorBaseINS_23XalanListIteratorTraitsINS_8XalanMapIS5_S8_NS_17XalanMapKeyTraitsIS5_EEE5EntryEEENS_9XalanListISH_E4NodeEEEEdeEv(%"struct.xalanc_1_10::XalanMapIterator"* %this) #1 comdat align 2 !dbg !4220 {
entry:
  %this.addr = alloca %"struct.xalanc_1_10::XalanMapIterator"*, align 8
  store %"struct.xalanc_1_10::XalanMapIterator"* %this, %"struct.xalanc_1_10::XalanMapIterator"** %this.addr, align 8
  call void @llvm.dbg.declare(metadata %"struct.xalanc_1_10::XalanMapIterator"** %this.addr, metadata !4221, metadata !DIExpression()), !dbg !4222
  %this1 = load %"struct.xalanc_1_10::XalanMapIterator"*, %"struct.xalanc_1_10::XalanMapIterator"** %this.addr, align 8
  %baseIterator = getelementptr inbounds %"struct.xalanc_1_10::XalanMapIterator", %"struct.xalanc_1_10::XalanMapIterator"* %this1, i32 0, i32 0, !dbg !4223
  %call = call %"struct.xalanc_1_10::XalanMap<const xalanc_1_10::XalanDocument *, xalanc_1_10::XalanSourceTreeDocument *, xalanc_1_10::XalanMapKeyTraits<const xalanc_1_10::XalanDocument *> >::Entry"* @_ZNK11xalanc_1_1021XalanListIteratorBaseINS_23XalanListIteratorTraitsINS_8XalanMapIPKNS_13XalanDocumentEPNS_23XalanSourceTreeDocumentENS_17XalanMapKeyTraitsIS5_EEE5EntryEEENS_9XalanListISB_E4NodeEEptEv(%"struct.xalanc_1_10::XalanListIteratorBase.52"* %baseIterator), !dbg !4223
  %value = getelementptr inbounds %"struct.xalanc_1_10::XalanMap<const xalanc_1_10::XalanDocument *, xalanc_1_10::XalanSourceTreeDocument *, xalanc_1_10::XalanMapKeyTraits<const xalanc_1_10::XalanDocument *> >::Entry", %"struct.xalanc_1_10::XalanMap<const xalanc_1_10::XalanDocument *, xalanc_1_10::XalanSourceTreeDocument *, xalanc_1_10::XalanMapKeyTraits<const xalanc_1_10::XalanDocument *> >::Entry"* %call, i32 0, i32 0, !dbg !4224
  %0 = load %"struct.std::pair"*, %"struct.std::pair"** %value, align 8, !dbg !4224
  ret %"struct.std::pair"* %0, !dbg !4225
}

; Function Attrs: noinline uwtable
define linkonce_odr dso_local dereferenceable(8) %"struct.xalanc_1_10::XalanMapIterator"* @_ZN11xalanc_1_1016XalanMapIteratorINS_22XalanMapIteratorTraitsISt4pairIKPKNS_13XalanDocumentEPNS_23XalanSourceTreeDocumentEEEENS_21XalanListIteratorBaseINS_23XalanListIteratorTraitsINS_8XalanMapIS5_S8_NS_17XalanMapKeyTraitsIS5_EEE5EntryEEENS_9XalanListISH_E4NodeEEEEppEv(%"struct.xalanc_1_10::XalanMapIterator"* %this) #6 comdat align 2 !dbg !4226 {
entry:
  %this.addr = alloca %"struct.xalanc_1_10::XalanMapIterator"*, align 8
  %tmp = alloca %"struct.xalanc_1_10::XalanListIteratorBase.52", align 8
  store %"struct.xalanc_1_10::XalanMapIterator"* %this, %"struct.xalanc_1_10::XalanMapIterator"** %this.addr, align 8
  call void @llvm.dbg.declare(metadata %"struct.xalanc_1_10::XalanMapIterator"** %this.addr, metadata !4227, metadata !DIExpression()), !dbg !4229
  %this1 = load %"struct.xalanc_1_10::XalanMapIterator"*, %"struct.xalanc_1_10::XalanMapIterator"** %this.addr, align 8
  %baseIterator = getelementptr inbounds %"struct.xalanc_1_10::XalanMapIterator", %"struct.xalanc_1_10::XalanMapIterator"* %this1, i32 0, i32 0, !dbg !4230
  call void @_ZN11xalanc_1_1021XalanListIteratorBaseINS_23XalanListIteratorTraitsINS_8XalanMapIPKNS_13XalanDocumentEPNS_23XalanSourceTreeDocumentENS_17XalanMapKeyTraitsIS5_EEE5EntryEEENS_9XalanListISB_E4NodeEEppEv(%"struct.xalanc_1_10::XalanListIteratorBase.52"* sret %tmp, %"struct.xalanc_1_10::XalanListIteratorBase.52"* %baseIterator), !dbg !4231
  ret %"struct.xalanc_1_10::XalanMapIterator"* %this1, !dbg !4232
}

; Function Attrs: noinline uwtable
define linkonce_odr dso_local void @_ZN11xalanc_1_108XalanMapIPKNS_13XalanDocumentEPNS_23XalanSourceTreeDocumentENS_17XalanMapKeyTraitsIS3_EEE5clearEv(%"class.xalanc_1_10::XalanMap.9"* %this) #6 comdat align 2 !dbg !4233 {
entry:
  %this.addr = alloca %"class.xalanc_1_10::XalanMap.9"*, align 8
  %bucketPos = alloca %"class.xalanc_1_10::XalanVector.51"*, align 8
  store %"class.xalanc_1_10::XalanMap.9"* %this, %"class.xalanc_1_10::XalanMap.9"** %this.addr, align 8
  call void @llvm.dbg.declare(metadata %"class.xalanc_1_10::XalanMap.9"** %this.addr, metadata !4234, metadata !DIExpression()), !dbg !4235
  %this1 = load %"class.xalanc_1_10::XalanMap.9"*, %"class.xalanc_1_10::XalanMap.9"** %this.addr, align 8
  call void @_ZN11xalanc_1_108XalanMapIPKNS_13XalanDocumentEPNS_23XalanSourceTreeDocumentENS_17XalanMapKeyTraitsIS3_EEE15doRemoveEntriesEv(%"class.xalanc_1_10::XalanMap.9"* %this1), !dbg !4236
  call void @llvm.dbg.declare(metadata %"class.xalanc_1_10::XalanVector.51"** %bucketPos, metadata !4237, metadata !DIExpression()), !dbg !4239
  %m_buckets = getelementptr inbounds %"class.xalanc_1_10::XalanMap.9", %"class.xalanc_1_10::XalanMap.9"* %this1, i32 0, i32 8, !dbg !4240
  %call = call %"class.xalanc_1_10::XalanVector.51"* @_ZN11xalanc_1_1011XalanVectorINS0_INS_21XalanListIteratorBaseINS_23XalanListIteratorTraitsINS_8XalanMapIPKNS_13XalanDocumentEPNS_23XalanSourceTreeDocumentENS_17XalanMapKeyTraitsIS6_EEE5EntryEEENS_9XalanListISC_E4NodeEEENS_31MemoryManagedConstructionTraitsISH_EEEENS_32ConstructWithMemoryManagerTraitsISK_EEE5beginEv(%"class.xalanc_1_10::XalanVector.50"* %m_buckets), !dbg !4241
  store %"class.xalanc_1_10::XalanVector.51"* %call, %"class.xalanc_1_10::XalanVector.51"** %bucketPos, align 8, !dbg !4239
  br label %while.cond, !dbg !4242

while.cond:                                       ; preds = %while.body, %entry
  %0 = load %"class.xalanc_1_10::XalanVector.51"*, %"class.xalanc_1_10::XalanVector.51"** %bucketPos, align 8, !dbg !4243
  %m_buckets2 = getelementptr inbounds %"class.xalanc_1_10::XalanMap.9", %"class.xalanc_1_10::XalanMap.9"* %this1, i32 0, i32 8, !dbg !4244
  %call3 = call %"class.xalanc_1_10::XalanVector.51"* @_ZN11xalanc_1_1011XalanVectorINS0_INS_21XalanListIteratorBaseINS_23XalanListIteratorTraitsINS_8XalanMapIPKNS_13XalanDocumentEPNS_23XalanSourceTreeDocumentENS_17XalanMapKeyTraitsIS6_EEE5EntryEEENS_9XalanListISC_E4NodeEEENS_31MemoryManagedConstructionTraitsISH_EEEENS_32ConstructWithMemoryManagerTraitsISK_EEE3endEv(%"class.xalanc_1_10::XalanVector.50"* %m_buckets2), !dbg !4245
  %cmp = icmp ne %"class.xalanc_1_10::XalanVector.51"* %0, %call3, !dbg !4246
  br i1 %cmp, label %while.body, label %while.end, !dbg !4242

while.body:                                       ; preds = %while.cond
  %1 = load %"class.xalanc_1_10::XalanVector.51"*, %"class.xalanc_1_10::XalanVector.51"** %bucketPos, align 8, !dbg !4247
  call void @_ZN11xalanc_1_1011XalanVectorINS_21XalanListIteratorBaseINS_23XalanListIteratorTraitsINS_8XalanMapIPKNS_13XalanDocumentEPNS_23XalanSourceTreeDocumentENS_17XalanMapKeyTraitsIS6_EEE5EntryEEENS_9XalanListISC_E4NodeEEENS_31MemoryManagedConstructionTraitsISH_EEE5clearEv(%"class.xalanc_1_10::XalanVector.51"* %1), !dbg !4249
  %2 = load %"class.xalanc_1_10::XalanVector.51"*, %"class.xalanc_1_10::XalanVector.51"** %bucketPos, align 8, !dbg !4250
  %incdec.ptr = getelementptr inbounds %"class.xalanc_1_10::XalanVector.51", %"class.xalanc_1_10::XalanVector.51"* %2, i32 1, !dbg !4250
  store %"class.xalanc_1_10::XalanVector.51"* %incdec.ptr, %"class.xalanc_1_10::XalanVector.51"** %bucketPos, align 8, !dbg !4250
  br label %while.cond, !dbg !4242, !llvm.loop !4251

while.end:                                        ; preds = %while.cond
  %m_eraseCount = getelementptr inbounds %"class.xalanc_1_10::XalanMap.9", %"class.xalanc_1_10::XalanMap.9"* %this1, i32 0, i32 9, !dbg !4253
  store i64 0, i64* %m_eraseCount, align 8, !dbg !4254
  ret void, !dbg !4255
}

declare dso_local void @_ZN11xalanc_1_1019XercesParserLiaison5resetEv(%"class.xalanc_1_10::XercesParserLiaison"*) unnamed_addr #7

; Function Attrs: noinline uwtable
define dso_local %"class.xalanc_1_10::ExecutionContext"* @_ZNK11xalanc_1_1028XalanSourceTreeParserLiaison19getExecutionContextEv(%"class.xalanc_1_10::XalanSourceTreeParserLiaison"* %this) unnamed_addr #6 align 2 !dbg !4256 {
entry:
  %this.addr = alloca %"class.xalanc_1_10::XalanSourceTreeParserLiaison"*, align 8
  store %"class.xalanc_1_10::XalanSourceTreeParserLiaison"* %this, %"class.xalanc_1_10::XalanSourceTreeParserLiaison"** %this.addr, align 8
  call void @llvm.dbg.declare(metadata %"class.xalanc_1_10::XalanSourceTreeParserLiaison"** %this.addr, metadata !4257, metadata !DIExpression()), !dbg !4259
  %this1 = load %"class.xalanc_1_10::XalanSourceTreeParserLiaison"*, %"class.xalanc_1_10::XalanSourceTreeParserLiaison"** %this.addr, align 8
  %m_xercesParserLiaison = getelementptr inbounds %"class.xalanc_1_10::XalanSourceTreeParserLiaison", %"class.xalanc_1_10::XalanSourceTreeParserLiaison"* %this1, i32 0, i32 1, !dbg !4260
  %call = call %"class.xalanc_1_10::ExecutionContext"* @_ZNK11xalanc_1_1019XercesParserLiaison19getExecutionContextEv(%"class.xalanc_1_10::XercesParserLiaison"* %m_xercesParserLiaison), !dbg !4261
  ret %"class.xalanc_1_10::ExecutionContext"* %call, !dbg !4262
}

declare dso_local %"class.xalanc_1_10::ExecutionContext"* @_ZNK11xalanc_1_1019XercesParserLiaison19getExecutionContextEv(%"class.xalanc_1_10::XercesParserLiaison"*) unnamed_addr #7

; Function Attrs: noinline uwtable
define dso_local void @_ZN11xalanc_1_1028XalanSourceTreeParserLiaison19setExecutionContextERNS_16ExecutionContextE(%"class.xalanc_1_10::XalanSourceTreeParserLiaison"* %this, %"class.xalanc_1_10::ExecutionContext"* nonnull %theContext) unnamed_addr #6 align 2 !dbg !4263 {
entry:
  %this.addr = alloca %"class.xalanc_1_10::XalanSourceTreeParserLiaison"*, align 8
  %theContext.addr = alloca %"class.xalanc_1_10::ExecutionContext"*, align 8
  store %"class.xalanc_1_10::XalanSourceTreeParserLiaison"* %this, %"class.xalanc_1_10::XalanSourceTreeParserLiaison"** %this.addr, align 8
  call void @llvm.dbg.declare(metadata %"class.xalanc_1_10::XalanSourceTreeParserLiaison"** %this.addr, metadata !4264, metadata !DIExpression()), !dbg !4265
  store %"class.xalanc_1_10::ExecutionContext"* %theContext, %"class.xalanc_1_10::ExecutionContext"** %theContext.addr, align 8
  call void @llvm.dbg.declare(metadata %"class.xalanc_1_10::ExecutionContext"** %theContext.addr, metadata !4266, metadata !DIExpression()), !dbg !4267
  %this1 = load %"class.xalanc_1_10::XalanSourceTreeParserLiaison"*, %"class.xalanc_1_10::XalanSourceTreeParserLiaison"** %this.addr, align 8
  %m_xercesParserLiaison = getelementptr inbounds %"class.xalanc_1_10::XalanSourceTreeParserLiaison", %"class.xalanc_1_10::XalanSourceTreeParserLiaison"* %this1, i32 0, i32 1, !dbg !4268
  %0 = load %"class.xalanc_1_10::ExecutionContext"*, %"class.xalanc_1_10::ExecutionContext"** %theContext.addr, align 8, !dbg !4269
  call void @_ZN11xalanc_1_1019XercesParserLiaison19setExecutionContextERNS_16ExecutionContextE(%"class.xalanc_1_10::XercesParserLiaison"* %m_xercesParserLiaison, %"class.xalanc_1_10::ExecutionContext"* nonnull %0), !dbg !4270
  ret void, !dbg !4271
}

declare dso_local void @_ZN11xalanc_1_1019XercesParserLiaison19setExecutionContextERNS_16ExecutionContextE(%"class.xalanc_1_10::XercesParserLiaison"*, %"class.xalanc_1_10::ExecutionContext"* nonnull) unnamed_addr #7

; Function Attrs: noinline uwtable
define dso_local void @_ZN11xalanc_1_1028XalanSourceTreeParserLiaison14parseXMLStreamERKN11xercesc_2_711InputSourceERNS1_15DocumentHandlerERKNS_14XalanDOMStringE(%"class.xalanc_1_10::XalanSourceTreeParserLiaison"* %this, %"class.xercesc_2_7::InputSource"* nonnull %inputSource, %"class.xercesc_2_7::DocumentHandler"* dereferenceable(8) %handler, %"class.xalanc_1_10::XalanDOMString"* dereferenceable(40) %identifier) unnamed_addr #6 align 2 !dbg !4272 {
entry:
  %this.addr = alloca %"class.xalanc_1_10::XalanSourceTreeParserLiaison"*, align 8
  %inputSource.addr = alloca %"class.xercesc_2_7::InputSource"*, align 8
  %handler.addr = alloca %"class.xercesc_2_7::DocumentHandler"*, align 8
  %identifier.addr = alloca %"class.xalanc_1_10::XalanDOMString"*, align 8
  store %"class.xalanc_1_10::XalanSourceTreeParserLiaison"* %this, %"class.xalanc_1_10::XalanSourceTreeParserLiaison"** %this.addr, align 8
  call void @llvm.dbg.declare(metadata %"class.xalanc_1_10::XalanSourceTreeParserLiaison"** %this.addr, metadata !4273, metadata !DIExpression()), !dbg !4274
  store %"class.xercesc_2_7::InputSource"* %inputSource, %"class.xercesc_2_7::InputSource"** %inputSource.addr, align 8
  call void @llvm.dbg.declare(metadata %"class.xercesc_2_7::InputSource"** %inputSource.addr, metadata !4275, metadata !DIExpression()), !dbg !4276
  store %"class.xercesc_2_7::DocumentHandler"* %handler, %"class.xercesc_2_7::DocumentHandler"** %handler.addr, align 8
  call void @llvm.dbg.declare(metadata %"class.xercesc_2_7::DocumentHandler"** %handler.addr, metadata !4277, metadata !DIExpression()), !dbg !4278
  store %"class.xalanc_1_10::XalanDOMString"* %identifier, %"class.xalanc_1_10::XalanDOMString"** %identifier.addr, align 8
  call void @llvm.dbg.declare(metadata %"class.xalanc_1_10::XalanDOMString"** %identifier.addr, metadata !4279, metadata !DIExpression()), !dbg !4280
  %this1 = load %"class.xalanc_1_10::XalanSourceTreeParserLiaison"*, %"class.xalanc_1_10::XalanSourceTreeParserLiaison"** %this.addr, align 8
  %m_xercesParserLiaison = getelementptr inbounds %"class.xalanc_1_10::XalanSourceTreeParserLiaison", %"class.xalanc_1_10::XalanSourceTreeParserLiaison"* %this1, i32 0, i32 1, !dbg !4281
  %0 = load %"class.xercesc_2_7::InputSource"*, %"class.xercesc_2_7::InputSource"** %inputSource.addr, align 8, !dbg !4282
  %1 = load %"class.xercesc_2_7::DocumentHandler"*, %"class.xercesc_2_7::DocumentHandler"** %handler.addr, align 8, !dbg !4283
  %2 = load %"class.xalanc_1_10::XalanDOMString"*, %"class.xalanc_1_10::XalanDOMString"** %identifier.addr, align 8, !dbg !4284
  call void @_ZN11xalanc_1_1019XercesParserLiaison14parseXMLStreamERKN11xercesc_2_711InputSourceERNS1_15DocumentHandlerERKNS_14XalanDOMStringE(%"class.xalanc_1_10::XercesParserLiaison"* %m_xercesParserLiaison, %"class.xercesc_2_7::InputSource"* nonnull %0, %"class.xercesc_2_7::DocumentHandler"* dereferenceable(8) %1, %"class.xalanc_1_10::XalanDOMString"* dereferenceable(40) %2), !dbg !4285
  ret void, !dbg !4286
}

declare dso_local void @_ZN11xalanc_1_1019XercesParserLiaison14parseXMLStreamERKN11xercesc_2_711InputSourceERNS1_15DocumentHandlerERKNS_14XalanDOMStringE(%"class.xalanc_1_10::XercesParserLiaison"*, %"class.xercesc_2_7::InputSource"* nonnull, %"class.xercesc_2_7::DocumentHandler"* dereferenceable(8), %"class.xalanc_1_10::XalanDOMString"* dereferenceable(40)) unnamed_addr #7

; Function Attrs: noinline uwtable
define dso_local void @_ZN11xalanc_1_1028XalanSourceTreeParserLiaison12ensureReaderEv(%"class.xalanc_1_10::XalanSourceTreeParserLiaison"* %this) #6 align 2 !dbg !4287 {
entry:
  %this.addr = alloca %"class.xalanc_1_10::XalanSourceTreeParserLiaison"*, align 8
  %fValidate = alloca i8, align 1
  %theHandler = alloca %"class.xercesc_2_7::ErrorHandler"*, align 8
  %theLocation = alloca i16*, align 8
  %theLocation48 = alloca i16*, align 8
  store %"class.xalanc_1_10::XalanSourceTreeParserLiaison"* %this, %"class.xalanc_1_10::XalanSourceTreeParserLiaison"** %this.addr, align 8
  call void @llvm.dbg.declare(metadata %"class.xalanc_1_10::XalanSourceTreeParserLiaison"** %this.addr, metadata !4288, metadata !DIExpression()), !dbg !4289
  %this1 = load %"class.xalanc_1_10::XalanSourceTreeParserLiaison"*, %"class.xalanc_1_10::XalanSourceTreeParserLiaison"** %this.addr, align 8
  %m_xmlReader = getelementptr inbounds %"class.xalanc_1_10::XalanSourceTreeParserLiaison", %"class.xalanc_1_10::XalanSourceTreeParserLiaison"* %this1, i32 0, i32 4, !dbg !4290
  %0 = load %"class.xercesc_2_7::SAX2XMLReader"*, %"class.xercesc_2_7::SAX2XMLReader"** %m_xmlReader, align 8, !dbg !4290
  %cmp = icmp eq %"class.xercesc_2_7::SAX2XMLReader"* %0, null, !dbg !4292
  br i1 %cmp, label %if.then, label %if.end, !dbg !4293

if.then:                                          ; preds = %entry
  %1 = bitcast %"class.xalanc_1_10::XalanSourceTreeParserLiaison"* %this1 to %"class.xercesc_2_7::SAX2XMLReader"* (%"class.xalanc_1_10::XalanSourceTreeParserLiaison"*)***, !dbg !4294
  %vtable = load %"class.xercesc_2_7::SAX2XMLReader"* (%"class.xalanc_1_10::XalanSourceTreeParserLiaison"*)**, %"class.xercesc_2_7::SAX2XMLReader"* (%"class.xalanc_1_10::XalanSourceTreeParserLiaison"*)*** %1, align 8, !dbg !4294
  %vfn = getelementptr inbounds %"class.xercesc_2_7::SAX2XMLReader"* (%"class.xalanc_1_10::XalanSourceTreeParserLiaison"*)*, %"class.xercesc_2_7::SAX2XMLReader"* (%"class.xalanc_1_10::XalanSourceTreeParserLiaison"*)** %vtable, i64 31, !dbg !4294
  %2 = load %"class.xercesc_2_7::SAX2XMLReader"* (%"class.xalanc_1_10::XalanSourceTreeParserLiaison"*)*, %"class.xercesc_2_7::SAX2XMLReader"* (%"class.xalanc_1_10::XalanSourceTreeParserLiaison"*)** %vfn, align 8, !dbg !4294
  %call = call %"class.xercesc_2_7::SAX2XMLReader"* %2(%"class.xalanc_1_10::XalanSourceTreeParserLiaison"* %this1), !dbg !4294
  %m_xmlReader2 = getelementptr inbounds %"class.xalanc_1_10::XalanSourceTreeParserLiaison", %"class.xalanc_1_10::XalanSourceTreeParserLiaison"* %this1, i32 0, i32 4, !dbg !4296
  store %"class.xercesc_2_7::SAX2XMLReader"* %call, %"class.xercesc_2_7::SAX2XMLReader"** %m_xmlReader2, align 8, !dbg !4297
  br label %if.end, !dbg !4298

if.end:                                           ; preds = %if.then, %entry
  call void @llvm.dbg.declare(metadata i8* %fValidate, metadata !4299, metadata !DIExpression()), !dbg !4300
  %m_xercesParserLiaison = getelementptr inbounds %"class.xalanc_1_10::XalanSourceTreeParserLiaison", %"class.xalanc_1_10::XalanSourceTreeParserLiaison"* %this1, i32 0, i32 1, !dbg !4301
  %call3 = call zeroext i1 @_ZNK11xalanc_1_1019XercesParserLiaison16getUseValidationEv(%"class.xalanc_1_10::XercesParserLiaison"* %m_xercesParserLiaison), !dbg !4302
  %frombool = zext i1 %call3 to i8, !dbg !4300
  store i8 %frombool, i8* %fValidate, align 1, !dbg !4300
  %3 = load i8, i8* %fValidate, align 1, !dbg !4303
  %tobool = trunc i8 %3 to i1, !dbg !4303
  %conv = zext i1 %tobool to i32, !dbg !4303
  %cmp4 = icmp eq i32 %conv, 0, !dbg !4305
  br i1 %cmp4, label %if.then5, label %if.else, !dbg !4306

if.then5:                                         ; preds = %if.end
  %m_xmlReader6 = getelementptr inbounds %"class.xalanc_1_10::XalanSourceTreeParserLiaison", %"class.xalanc_1_10::XalanSourceTreeParserLiaison"* %this1, i32 0, i32 4, !dbg !4307
  %4 = load %"class.xercesc_2_7::SAX2XMLReader"*, %"class.xercesc_2_7::SAX2XMLReader"** %m_xmlReader6, align 8, !dbg !4307
  %5 = bitcast %"class.xercesc_2_7::SAX2XMLReader"* %4 to void (%"class.xercesc_2_7::SAX2XMLReader"*, i16*, i1)***, !dbg !4309
  %vtable7 = load void (%"class.xercesc_2_7::SAX2XMLReader"*, i16*, i1)**, void (%"class.xercesc_2_7::SAX2XMLReader"*, i16*, i1)*** %5, align 8, !dbg !4309
  %vfn8 = getelementptr inbounds void (%"class.xercesc_2_7::SAX2XMLReader"*, i16*, i1)*, void (%"class.xercesc_2_7::SAX2XMLReader"*, i16*, i1)** %vtable7, i64 12, !dbg !4309
  %6 = load void (%"class.xercesc_2_7::SAX2XMLReader"*, i16*, i1)*, void (%"class.xercesc_2_7::SAX2XMLReader"*, i16*, i1)** %vfn8, align 8, !dbg !4309
  call void %6(%"class.xercesc_2_7::SAX2XMLReader"* %4, i16* getelementptr inbounds ([39 x i16], [39 x i16]* @_ZN11xalanc_1_1028XalanSourceTreeParserLiaison18s_validationStringE, i64 0, i64 0), i1 zeroext false), !dbg !4309
  %m_xmlReader9 = getelementptr inbounds %"class.xalanc_1_10::XalanSourceTreeParserLiaison", %"class.xalanc_1_10::XalanSourceTreeParserLiaison"* %this1, i32 0, i32 4, !dbg !4310
  %7 = load %"class.xercesc_2_7::SAX2XMLReader"*, %"class.xercesc_2_7::SAX2XMLReader"** %m_xmlReader9, align 8, !dbg !4310
  %8 = bitcast %"class.xercesc_2_7::SAX2XMLReader"* %7 to void (%"class.xercesc_2_7::SAX2XMLReader"*, i16*, i1)***, !dbg !4311
  %vtable10 = load void (%"class.xercesc_2_7::SAX2XMLReader"*, i16*, i1)**, void (%"class.xercesc_2_7::SAX2XMLReader"*, i16*, i1)*** %8, align 8, !dbg !4311
  %vfn11 = getelementptr inbounds void (%"class.xercesc_2_7::SAX2XMLReader"*, i16*, i1)*, void (%"class.xercesc_2_7::SAX2XMLReader"*, i16*, i1)** %vtable10, i64 12, !dbg !4311
  %9 = load void (%"class.xercesc_2_7::SAX2XMLReader"*, i16*, i1)*, void (%"class.xercesc_2_7::SAX2XMLReader"*, i16*, i1)** %vfn11, align 8, !dbg !4311
  call void %9(%"class.xercesc_2_7::SAX2XMLReader"* %7, i16* getelementptr inbounds ([49 x i16], [49 x i16]* @_ZN11xalanc_1_1028XalanSourceTreeParserLiaison14s_schemaStringE, i64 0, i64 0), i1 zeroext false), !dbg !4311
  br label %if.end18, !dbg !4312

if.else:                                          ; preds = %if.end
  %m_xmlReader12 = getelementptr inbounds %"class.xalanc_1_10::XalanSourceTreeParserLiaison", %"class.xalanc_1_10::XalanSourceTreeParserLiaison"* %this1, i32 0, i32 4, !dbg !4313
  %10 = load %"class.xercesc_2_7::SAX2XMLReader"*, %"class.xercesc_2_7::SAX2XMLReader"** %m_xmlReader12, align 8, !dbg !4313
  %11 = bitcast %"class.xercesc_2_7::SAX2XMLReader"* %10 to void (%"class.xercesc_2_7::SAX2XMLReader"*, i16*, i1)***, !dbg !4315
  %vtable13 = load void (%"class.xercesc_2_7::SAX2XMLReader"*, i16*, i1)**, void (%"class.xercesc_2_7::SAX2XMLReader"*, i16*, i1)*** %11, align 8, !dbg !4315
  %vfn14 = getelementptr inbounds void (%"class.xercesc_2_7::SAX2XMLReader"*, i16*, i1)*, void (%"class.xercesc_2_7::SAX2XMLReader"*, i16*, i1)** %vtable13, i64 12, !dbg !4315
  %12 = load void (%"class.xercesc_2_7::SAX2XMLReader"*, i16*, i1)*, void (%"class.xercesc_2_7::SAX2XMLReader"*, i16*, i1)** %vfn14, align 8, !dbg !4315
  call void %12(%"class.xercesc_2_7::SAX2XMLReader"* %10, i16* getelementptr inbounds ([50 x i16], [50 x i16]* @_ZN11xalanc_1_1028XalanSourceTreeParserLiaison25s_dynamicValidationStringE, i64 0, i64 0), i1 zeroext true), !dbg !4315
  %m_xmlReader15 = getelementptr inbounds %"class.xalanc_1_10::XalanSourceTreeParserLiaison", %"class.xalanc_1_10::XalanSourceTreeParserLiaison"* %this1, i32 0, i32 4, !dbg !4316
  %13 = load %"class.xercesc_2_7::SAX2XMLReader"*, %"class.xercesc_2_7::SAX2XMLReader"** %m_xmlReader15, align 8, !dbg !4316
  %14 = bitcast %"class.xercesc_2_7::SAX2XMLReader"* %13 to void (%"class.xercesc_2_7::SAX2XMLReader"*, i16*, i1)***, !dbg !4317
  %vtable16 = load void (%"class.xercesc_2_7::SAX2XMLReader"*, i16*, i1)**, void (%"class.xercesc_2_7::SAX2XMLReader"*, i16*, i1)*** %14, align 8, !dbg !4317
  %vfn17 = getelementptr inbounds void (%"class.xercesc_2_7::SAX2XMLReader"*, i16*, i1)*, void (%"class.xercesc_2_7::SAX2XMLReader"*, i16*, i1)** %vtable16, i64 12, !dbg !4317
  %15 = load void (%"class.xercesc_2_7::SAX2XMLReader"*, i16*, i1)*, void (%"class.xercesc_2_7::SAX2XMLReader"*, i16*, i1)** %vfn17, align 8, !dbg !4317
  call void %15(%"class.xercesc_2_7::SAX2XMLReader"* %13, i16* getelementptr inbounds ([49 x i16], [49 x i16]* @_ZN11xalanc_1_1028XalanSourceTreeParserLiaison14s_schemaStringE, i64 0, i64 0), i1 zeroext true), !dbg !4317
  br label %if.end18

if.end18:                                         ; preds = %if.else, %if.then5
  call void @llvm.dbg.declare(metadata %"class.xercesc_2_7::ErrorHandler"** %theHandler, metadata !4318, metadata !DIExpression()), !dbg !4320
  %16 = bitcast %"class.xalanc_1_10::XalanSourceTreeParserLiaison"* %this1 to %"class.xercesc_2_7::ErrorHandler"* (%"class.xalanc_1_10::XalanSourceTreeParserLiaison"*)***, !dbg !4321
  %vtable19 = load %"class.xercesc_2_7::ErrorHandler"* (%"class.xalanc_1_10::XalanSourceTreeParserLiaison"*)**, %"class.xercesc_2_7::ErrorHandler"* (%"class.xalanc_1_10::XalanSourceTreeParserLiaison"*)*** %16, align 8, !dbg !4321
  %vfn20 = getelementptr inbounds %"class.xercesc_2_7::ErrorHandler"* (%"class.xalanc_1_10::XalanSourceTreeParserLiaison"*)*, %"class.xercesc_2_7::ErrorHandler"* (%"class.xalanc_1_10::XalanSourceTreeParserLiaison"*)** %vtable19, i64 16, !dbg !4321
  %17 = load %"class.xercesc_2_7::ErrorHandler"* (%"class.xalanc_1_10::XalanSourceTreeParserLiaison"*)*, %"class.xercesc_2_7::ErrorHandler"* (%"class.xalanc_1_10::XalanSourceTreeParserLiaison"*)** %vfn20, align 8, !dbg !4321
  %call21 = call %"class.xercesc_2_7::ErrorHandler"* %17(%"class.xalanc_1_10::XalanSourceTreeParserLiaison"* %this1), !dbg !4321
  store %"class.xercesc_2_7::ErrorHandler"* %call21, %"class.xercesc_2_7::ErrorHandler"** %theHandler, align 8, !dbg !4320
  %18 = load %"class.xercesc_2_7::ErrorHandler"*, %"class.xercesc_2_7::ErrorHandler"** %theHandler, align 8, !dbg !4322
  %cmp22 = icmp eq %"class.xercesc_2_7::ErrorHandler"* %18, null, !dbg !4324
  br i1 %cmp22, label %if.then23, label %if.else28, !dbg !4325

if.then23:                                        ; preds = %if.end18
  %m_xmlReader24 = getelementptr inbounds %"class.xalanc_1_10::XalanSourceTreeParserLiaison", %"class.xalanc_1_10::XalanSourceTreeParserLiaison"* %this1, i32 0, i32 4, !dbg !4326
  %19 = load %"class.xercesc_2_7::SAX2XMLReader"*, %"class.xercesc_2_7::SAX2XMLReader"** %m_xmlReader24, align 8, !dbg !4326
  %m_xercesParserLiaison25 = getelementptr inbounds %"class.xalanc_1_10::XalanSourceTreeParserLiaison", %"class.xalanc_1_10::XalanSourceTreeParserLiaison"* %this1, i32 0, i32 1, !dbg !4328
  %20 = icmp eq %"class.xalanc_1_10::XercesParserLiaison"* %m_xercesParserLiaison25, null, !dbg !4329
  br i1 %20, label %cast.end, label %cast.notnull, !dbg !4329

cast.notnull:                                     ; preds = %if.then23
  %21 = bitcast %"class.xalanc_1_10::XercesParserLiaison"* %m_xercesParserLiaison25 to i8*, !dbg !4329
  %add.ptr = getelementptr inbounds i8, i8* %21, i64 8, !dbg !4329
  %22 = bitcast i8* %add.ptr to %"class.xercesc_2_7::ErrorHandler"*, !dbg !4329
  br label %cast.end, !dbg !4329

cast.end:                                         ; preds = %cast.notnull, %if.then23
  %cast.result = phi %"class.xercesc_2_7::ErrorHandler"* [ %22, %cast.notnull ], [ null, %if.then23 ], !dbg !4329
  %23 = bitcast %"class.xercesc_2_7::SAX2XMLReader"* %19 to void (%"class.xercesc_2_7::SAX2XMLReader"*, %"class.xercesc_2_7::ErrorHandler"*)***, !dbg !4330
  %vtable26 = load void (%"class.xercesc_2_7::SAX2XMLReader"*, %"class.xercesc_2_7::ErrorHandler"*)**, void (%"class.xercesc_2_7::SAX2XMLReader"*, %"class.xercesc_2_7::ErrorHandler"*)*** %23, align 8, !dbg !4330
  %vfn27 = getelementptr inbounds void (%"class.xercesc_2_7::SAX2XMLReader"*, %"class.xercesc_2_7::ErrorHandler"*)*, void (%"class.xercesc_2_7::SAX2XMLReader"*, %"class.xercesc_2_7::ErrorHandler"*)** %vtable26, i64 11, !dbg !4330
  %24 = load void (%"class.xercesc_2_7::SAX2XMLReader"*, %"class.xercesc_2_7::ErrorHandler"*)*, void (%"class.xercesc_2_7::SAX2XMLReader"*, %"class.xercesc_2_7::ErrorHandler"*)** %vfn27, align 8, !dbg !4330
  call void %24(%"class.xercesc_2_7::SAX2XMLReader"* %19, %"class.xercesc_2_7::ErrorHandler"* %cast.result), !dbg !4330
  br label %if.end32, !dbg !4331

if.else28:                                        ; preds = %if.end18
  %m_xmlReader29 = getelementptr inbounds %"class.xalanc_1_10::XalanSourceTreeParserLiaison", %"class.xalanc_1_10::XalanSourceTreeParserLiaison"* %this1, i32 0, i32 4, !dbg !4332
  %25 = load %"class.xercesc_2_7::SAX2XMLReader"*, %"class.xercesc_2_7::SAX2XMLReader"** %m_xmlReader29, align 8, !dbg !4332
  %26 = load %"class.xercesc_2_7::ErrorHandler"*, %"class.xercesc_2_7::ErrorHandler"** %theHandler, align 8, !dbg !4334
  %27 = bitcast %"class.xercesc_2_7::SAX2XMLReader"* %25 to void (%"class.xercesc_2_7::SAX2XMLReader"*, %"class.xercesc_2_7::ErrorHandler"*)***, !dbg !4335
  %vtable30 = load void (%"class.xercesc_2_7::SAX2XMLReader"*, %"class.xercesc_2_7::ErrorHandler"*)**, void (%"class.xercesc_2_7::SAX2XMLReader"*, %"class.xercesc_2_7::ErrorHandler"*)*** %27, align 8, !dbg !4335
  %vfn31 = getelementptr inbounds void (%"class.xercesc_2_7::SAX2XMLReader"*, %"class.xercesc_2_7::ErrorHandler"*)*, void (%"class.xercesc_2_7::SAX2XMLReader"*, %"class.xercesc_2_7::ErrorHandler"*)** %vtable30, i64 11, !dbg !4335
  %28 = load void (%"class.xercesc_2_7::SAX2XMLReader"*, %"class.xercesc_2_7::ErrorHandler"*)*, void (%"class.xercesc_2_7::SAX2XMLReader"*, %"class.xercesc_2_7::ErrorHandler"*)** %vfn31, align 8, !dbg !4335
  call void %28(%"class.xercesc_2_7::SAX2XMLReader"* %25, %"class.xercesc_2_7::ErrorHandler"* %26), !dbg !4335
  br label %if.end32

if.end32:                                         ; preds = %if.else28, %cast.end
  %m_xmlReader33 = getelementptr inbounds %"class.xalanc_1_10::XalanSourceTreeParserLiaison", %"class.xalanc_1_10::XalanSourceTreeParserLiaison"* %this1, i32 0, i32 4, !dbg !4336
  %29 = load %"class.xercesc_2_7::SAX2XMLReader"*, %"class.xercesc_2_7::SAX2XMLReader"** %m_xmlReader33, align 8, !dbg !4336
  %30 = bitcast %"class.xalanc_1_10::XalanSourceTreeParserLiaison"* %this1 to %"class.xercesc_2_7::EntityResolver"* (%"class.xalanc_1_10::XalanSourceTreeParserLiaison"*)***, !dbg !4337
  %vtable34 = load %"class.xercesc_2_7::EntityResolver"* (%"class.xalanc_1_10::XalanSourceTreeParserLiaison"*)**, %"class.xercesc_2_7::EntityResolver"* (%"class.xalanc_1_10::XalanSourceTreeParserLiaison"*)*** %30, align 8, !dbg !4337
  %vfn35 = getelementptr inbounds %"class.xercesc_2_7::EntityResolver"* (%"class.xalanc_1_10::XalanSourceTreeParserLiaison"*)*, %"class.xercesc_2_7::EntityResolver"* (%"class.xalanc_1_10::XalanSourceTreeParserLiaison"*)** %vtable34, i64 14, !dbg !4337
  %31 = load %"class.xercesc_2_7::EntityResolver"* (%"class.xalanc_1_10::XalanSourceTreeParserLiaison"*)*, %"class.xercesc_2_7::EntityResolver"* (%"class.xalanc_1_10::XalanSourceTreeParserLiaison"*)** %vfn35, align 8, !dbg !4337
  %call36 = call %"class.xercesc_2_7::EntityResolver"* %31(%"class.xalanc_1_10::XalanSourceTreeParserLiaison"* %this1), !dbg !4337
  %32 = bitcast %"class.xercesc_2_7::SAX2XMLReader"* %29 to void (%"class.xercesc_2_7::SAX2XMLReader"*, %"class.xercesc_2_7::EntityResolver"*)***, !dbg !4338
  %vtable37 = load void (%"class.xercesc_2_7::SAX2XMLReader"*, %"class.xercesc_2_7::EntityResolver"*)**, void (%"class.xercesc_2_7::SAX2XMLReader"*, %"class.xercesc_2_7::EntityResolver"*)*** %32, align 8, !dbg !4338
  %vfn38 = getelementptr inbounds void (%"class.xercesc_2_7::SAX2XMLReader"*, %"class.xercesc_2_7::EntityResolver"*)*, void (%"class.xercesc_2_7::SAX2XMLReader"*, %"class.xercesc_2_7::EntityResolver"*)** %vtable37, i64 10, !dbg !4338
  %33 = load void (%"class.xercesc_2_7::SAX2XMLReader"*, %"class.xercesc_2_7::EntityResolver"*)*, void (%"class.xercesc_2_7::SAX2XMLReader"*, %"class.xercesc_2_7::EntityResolver"*)** %vfn38, align 8, !dbg !4338
  call void %33(%"class.xercesc_2_7::SAX2XMLReader"* %29, %"class.xercesc_2_7::EntityResolver"* %call36), !dbg !4338
  call void @llvm.dbg.declare(metadata i16** %theLocation, metadata !4339, metadata !DIExpression()), !dbg !4342
  %34 = bitcast %"class.xalanc_1_10::XalanSourceTreeParserLiaison"* %this1 to i16* (%"class.xalanc_1_10::XalanSourceTreeParserLiaison"*)***, !dbg !4343
  %vtable39 = load i16* (%"class.xalanc_1_10::XalanSourceTreeParserLiaison"*)**, i16* (%"class.xalanc_1_10::XalanSourceTreeParserLiaison"*)*** %34, align 8, !dbg !4343
  %vfn40 = getelementptr inbounds i16* (%"class.xalanc_1_10::XalanSourceTreeParserLiaison"*)*, i16* (%"class.xalanc_1_10::XalanSourceTreeParserLiaison"*)** %vtable39, i64 27, !dbg !4343
  %35 = load i16* (%"class.xalanc_1_10::XalanSourceTreeParserLiaison"*)*, i16* (%"class.xalanc_1_10::XalanSourceTreeParserLiaison"*)** %vfn40, align 8, !dbg !4343
  %call41 = call i16* %35(%"class.xalanc_1_10::XalanSourceTreeParserLiaison"* %this1), !dbg !4343
  store i16* %call41, i16** %theLocation, align 8, !dbg !4342
  %36 = load i16*, i16** %theLocation, align 8, !dbg !4344
  %cmp42 = icmp ne i16* %36, null, !dbg !4346
  br i1 %cmp42, label %if.then43, label %if.end47, !dbg !4347

if.then43:                                        ; preds = %if.end32
  %m_xmlReader44 = getelementptr inbounds %"class.xalanc_1_10::XalanSourceTreeParserLiaison", %"class.xalanc_1_10::XalanSourceTreeParserLiaison"* %this1, i32 0, i32 4, !dbg !4348
  %37 = load %"class.xercesc_2_7::SAX2XMLReader"*, %"class.xercesc_2_7::SAX2XMLReader"** %m_xmlReader44, align 8, !dbg !4348
  %38 = load i16*, i16** %theLocation, align 8, !dbg !4350
  %39 = bitcast i16* %38 to i8*, !dbg !4351
  %40 = bitcast %"class.xercesc_2_7::SAX2XMLReader"* %37 to void (%"class.xercesc_2_7::SAX2XMLReader"*, i16*, i8*)***, !dbg !4352
  %vtable45 = load void (%"class.xercesc_2_7::SAX2XMLReader"*, i16*, i8*)**, void (%"class.xercesc_2_7::SAX2XMLReader"*, i16*, i8*)*** %40, align 8, !dbg !4352
  %vfn46 = getelementptr inbounds void (%"class.xercesc_2_7::SAX2XMLReader"*, i16*, i8*)*, void (%"class.xercesc_2_7::SAX2XMLReader"*, i16*, i8*)** %vtable45, i64 13, !dbg !4352
  %41 = load void (%"class.xercesc_2_7::SAX2XMLReader"*, i16*, i8*)*, void (%"class.xercesc_2_7::SAX2XMLReader"*, i16*, i8*)** %vfn46, align 8, !dbg !4352
  call void %41(%"class.xercesc_2_7::SAX2XMLReader"* %37, i16* getelementptr inbounds ([64 x i16], [64 x i16]* @_ZN11xalanc_1_1028XalanSourceTreeParserLiaison30s_externalSchemaLocationStringE, i64 0, i64 0), i8* %39), !dbg !4352
  br label %if.end47, !dbg !4353

if.end47:                                         ; preds = %if.then43, %if.end32
  call void @llvm.dbg.declare(metadata i16** %theLocation48, metadata !4354, metadata !DIExpression()), !dbg !4356
  %42 = bitcast %"class.xalanc_1_10::XalanSourceTreeParserLiaison"* %this1 to i16* (%"class.xalanc_1_10::XalanSourceTreeParserLiaison"*)***, !dbg !4357
  %vtable49 = load i16* (%"class.xalanc_1_10::XalanSourceTreeParserLiaison"*)**, i16* (%"class.xalanc_1_10::XalanSourceTreeParserLiaison"*)*** %42, align 8, !dbg !4357
  %vfn50 = getelementptr inbounds i16* (%"class.xalanc_1_10::XalanSourceTreeParserLiaison"*)*, i16* (%"class.xalanc_1_10::XalanSourceTreeParserLiaison"*)** %vtable49, i64 29, !dbg !4357
  %43 = load i16* (%"class.xalanc_1_10::XalanSourceTreeParserLiaison"*)*, i16* (%"class.xalanc_1_10::XalanSourceTreeParserLiaison"*)** %vfn50, align 8, !dbg !4357
  %call51 = call i16* %43(%"class.xalanc_1_10::XalanSourceTreeParserLiaison"* %this1), !dbg !4357
  store i16* %call51, i16** %theLocation48, align 8, !dbg !4356
  %44 = load i16*, i16** %theLocation48, align 8, !dbg !4358
  %cmp52 = icmp ne i16* %44, null, !dbg !4360
  br i1 %cmp52, label %if.then53, label %if.end57, !dbg !4361

if.then53:                                        ; preds = %if.end47
  %m_xmlReader54 = getelementptr inbounds %"class.xalanc_1_10::XalanSourceTreeParserLiaison", %"class.xalanc_1_10::XalanSourceTreeParserLiaison"* %this1, i32 0, i32 4, !dbg !4362
  %45 = load %"class.xercesc_2_7::SAX2XMLReader"*, %"class.xercesc_2_7::SAX2XMLReader"** %m_xmlReader54, align 8, !dbg !4362
  %46 = load i16*, i16** %theLocation48, align 8, !dbg !4364
  %47 = bitcast i16* %46 to i8*, !dbg !4365
  %48 = bitcast %"class.xercesc_2_7::SAX2XMLReader"* %45 to void (%"class.xercesc_2_7::SAX2XMLReader"*, i16*, i8*)***, !dbg !4366
  %vtable55 = load void (%"class.xercesc_2_7::SAX2XMLReader"*, i16*, i8*)**, void (%"class.xercesc_2_7::SAX2XMLReader"*, i16*, i8*)*** %48, align 8, !dbg !4366
  %vfn56 = getelementptr inbounds void (%"class.xercesc_2_7::SAX2XMLReader"*, i16*, i8*)*, void (%"class.xercesc_2_7::SAX2XMLReader"*, i16*, i8*)** %vtable55, i64 13, !dbg !4366
  %49 = load void (%"class.xercesc_2_7::SAX2XMLReader"*, i16*, i8*)*, void (%"class.xercesc_2_7::SAX2XMLReader"*, i16*, i8*)** %vfn56, align 8, !dbg !4366
  call void %49(%"class.xercesc_2_7::SAX2XMLReader"* %45, i16* getelementptr inbounds ([75 x i16], [75 x i16]* @_ZN11xalanc_1_1028XalanSourceTreeParserLiaison41s_externalNoNamespaceSchemaLocationStringE, i64 0, i64 0), i8* %47), !dbg !4366
  br label %if.end57, !dbg !4367

if.end57:                                         ; preds = %if.then53, %if.end47
  ret void, !dbg !4368
}

declare dso_local zeroext i1 @_ZNK11xalanc_1_1019XercesParserLiaison16getUseValidationEv(%"class.xalanc_1_10::XercesParserLiaison"*) unnamed_addr #7

; Function Attrs: noinline uwtable
define dso_local %"class.xalanc_1_10::XalanDocument"* @_ZN11xalanc_1_1028XalanSourceTreeParserLiaison14parseXMLStreamERKN11xercesc_2_711InputSourceERKNS_14XalanDOMStringE(%"class.xalanc_1_10::XalanSourceTreeParserLiaison"* %this, %"class.xercesc_2_7::InputSource"* nonnull %inputSource, %"class.xalanc_1_10::XalanDOMString"* dereferenceable(40) %identifier) unnamed_addr #6 align 2 personality i8* bitcast (i32 (...)* @__gxx_personality_v0 to i8*) !dbg !4369 {
entry:
  %this.addr = alloca %"class.xalanc_1_10::XalanSourceTreeParserLiaison"*, align 8
  %inputSource.addr = alloca %"class.xercesc_2_7::InputSource"*, align 8
  %identifier.addr = alloca %"class.xalanc_1_10::XalanDOMString"*, align 8
  %theContentHandler = alloca %"class.xalanc_1_10::XalanSourceTreeContentHandler", align 8
  %exn.slot = alloca i8*
  %ehselector.slot = alloca i32
  store %"class.xalanc_1_10::XalanSourceTreeParserLiaison"* %this, %"class.xalanc_1_10::XalanSourceTreeParserLiaison"** %this.addr, align 8
  call void @llvm.dbg.declare(metadata %"class.xalanc_1_10::XalanSourceTreeParserLiaison"** %this.addr, metadata !4370, metadata !DIExpression()), !dbg !4371
  store %"class.xercesc_2_7::InputSource"* %inputSource, %"class.xercesc_2_7::InputSource"** %inputSource.addr, align 8
  call void @llvm.dbg.declare(metadata %"class.xercesc_2_7::InputSource"** %inputSource.addr, metadata !4372, metadata !DIExpression()), !dbg !4373
  store %"class.xalanc_1_10::XalanDOMString"* %identifier, %"class.xalanc_1_10::XalanDOMString"** %identifier.addr, align 8
  call void @llvm.dbg.declare(metadata %"class.xalanc_1_10::XalanDOMString"** %identifier.addr, metadata !4374, metadata !DIExpression()), !dbg !4375
  %this1 = load %"class.xalanc_1_10::XalanSourceTreeParserLiaison"*, %"class.xalanc_1_10::XalanSourceTreeParserLiaison"** %this.addr, align 8
  call void @llvm.dbg.declare(metadata %"class.xalanc_1_10::XalanSourceTreeContentHandler"* %theContentHandler, metadata !4376, metadata !DIExpression()), !dbg !4379
  %0 = bitcast %"class.xalanc_1_10::XalanSourceTreeParserLiaison"* %this1 to %"class.xercesc_2_7::MemoryManager"* (%"class.xalanc_1_10::XalanSourceTreeParserLiaison"*)***, !dbg !4380
  %vtable = load %"class.xercesc_2_7::MemoryManager"* (%"class.xalanc_1_10::XalanSourceTreeParserLiaison"*)**, %"class.xercesc_2_7::MemoryManager"* (%"class.xalanc_1_10::XalanSourceTreeParserLiaison"*)*** %0, align 8, !dbg !4380
  %vfn = getelementptr inbounds %"class.xercesc_2_7::MemoryManager"* (%"class.xalanc_1_10::XalanSourceTreeParserLiaison"*)*, %"class.xercesc_2_7::MemoryManager"* (%"class.xalanc_1_10::XalanSourceTreeParserLiaison"*)** %vtable, i64 4, !dbg !4380
  %1 = load %"class.xercesc_2_7::MemoryManager"* (%"class.xalanc_1_10::XalanSourceTreeParserLiaison"*)*, %"class.xercesc_2_7::MemoryManager"* (%"class.xalanc_1_10::XalanSourceTreeParserLiaison"*)** %vfn, align 8, !dbg !4380
  %call = call dereferenceable(8) %"class.xercesc_2_7::MemoryManager"* %1(%"class.xalanc_1_10::XalanSourceTreeParserLiaison"* %this1), !dbg !4380
  %call2 = call %"class.xalanc_1_10::XalanSourceTreeDocument"* @_ZN11xalanc_1_1028XalanSourceTreeParserLiaison29createXalanSourceTreeDocumentEv(%"class.xalanc_1_10::XalanSourceTreeParserLiaison"* %this1), !dbg !4381
  call void @_ZN11xalanc_1_1029XalanSourceTreeContentHandlerC1ERN11xercesc_2_713MemoryManagerEPNS_23XalanSourceTreeDocumentEb(%"class.xalanc_1_10::XalanSourceTreeContentHandler"* %theContentHandler, %"class.xercesc_2_7::MemoryManager"* dereferenceable(8) %call, %"class.xalanc_1_10::XalanSourceTreeDocument"* %call2, i1 zeroext true), !dbg !4379
  %2 = load %"class.xercesc_2_7::InputSource"*, %"class.xercesc_2_7::InputSource"** %inputSource.addr, align 8, !dbg !4382
  %3 = bitcast %"class.xalanc_1_10::XalanSourceTreeContentHandler"* %theContentHandler to %"class.xercesc_2_7::ContentHandler"*, !dbg !4383
  %4 = load %"class.xalanc_1_10::XalanDOMString"*, %"class.xalanc_1_10::XalanDOMString"** %identifier.addr, align 8, !dbg !4384
  %5 = icmp eq %"class.xalanc_1_10::XalanSourceTreeContentHandler"* %theContentHandler, null, !dbg !4385
  br i1 %5, label %cast.end, label %cast.notnull, !dbg !4385

cast.notnull:                                     ; preds = %entry
  %6 = bitcast %"class.xalanc_1_10::XalanSourceTreeContentHandler"* %theContentHandler to i8*, !dbg !4385
  %add.ptr = getelementptr inbounds i8, i8* %6, i64 8, !dbg !4385
  %7 = bitcast i8* %add.ptr to %"class.xercesc_2_7::DTDHandler"*, !dbg !4385
  br label %cast.end, !dbg !4385

cast.end:                                         ; preds = %cast.notnull, %entry
  %cast.result = phi %"class.xercesc_2_7::DTDHandler"* [ %7, %cast.notnull ], [ null, %entry ], !dbg !4385
  %8 = icmp eq %"class.xalanc_1_10::XalanSourceTreeContentHandler"* %theContentHandler, null, !dbg !4386
  br i1 %8, label %cast.end5, label %cast.notnull3, !dbg !4386

cast.notnull3:                                    ; preds = %cast.end
  %9 = bitcast %"class.xalanc_1_10::XalanSourceTreeContentHandler"* %theContentHandler to i8*, !dbg !4386
  %add.ptr4 = getelementptr inbounds i8, i8* %9, i64 16, !dbg !4386
  %10 = bitcast i8* %add.ptr4 to %"class.xercesc_2_7::LexicalHandler"*, !dbg !4386
  br label %cast.end5, !dbg !4386

cast.end5:                                        ; preds = %cast.notnull3, %cast.end
  %cast.result6 = phi %"class.xercesc_2_7::LexicalHandler"* [ %10, %cast.notnull3 ], [ null, %cast.end ], !dbg !4386
  %11 = bitcast %"class.xalanc_1_10::XalanSourceTreeParserLiaison"* %this1 to void (%"class.xalanc_1_10::XalanSourceTreeParserLiaison"*, %"class.xercesc_2_7::InputSource"*, %"class.xercesc_2_7::ContentHandler"*, %"class.xalanc_1_10::XalanDOMString"*, %"class.xercesc_2_7::DTDHandler"*, %"class.xercesc_2_7::LexicalHandler"*)***, !dbg !4387
  %vtable7 = load void (%"class.xalanc_1_10::XalanSourceTreeParserLiaison"*, %"class.xercesc_2_7::InputSource"*, %"class.xercesc_2_7::ContentHandler"*, %"class.xalanc_1_10::XalanDOMString"*, %"class.xercesc_2_7::DTDHandler"*, %"class.xercesc_2_7::LexicalHandler"*)**, void (%"class.xalanc_1_10::XalanSourceTreeParserLiaison"*, %"class.xercesc_2_7::InputSource"*, %"class.xercesc_2_7::ContentHandler"*, %"class.xalanc_1_10::XalanDOMString"*, %"class.xercesc_2_7::DTDHandler"*, %"class.xercesc_2_7::LexicalHandler"*)*** %11, align 8, !dbg !4387
  %vfn8 = getelementptr inbounds void (%"class.xalanc_1_10::XalanSourceTreeParserLiaison"*, %"class.xercesc_2_7::InputSource"*, %"class.xercesc_2_7::ContentHandler"*, %"class.xalanc_1_10::XalanDOMString"*, %"class.xercesc_2_7::DTDHandler"*, %"class.xercesc_2_7::LexicalHandler"*)*, void (%"class.xalanc_1_10::XalanSourceTreeParserLiaison"*, %"class.xercesc_2_7::InputSource"*, %"class.xercesc_2_7::ContentHandler"*, %"class.xalanc_1_10::XalanDOMString"*, %"class.xercesc_2_7::DTDHandler"*, %"class.xercesc_2_7::LexicalHandler"*)** %vtable7, i64 18, !dbg !4387
  %12 = load void (%"class.xalanc_1_10::XalanSourceTreeParserLiaison"*, %"class.xercesc_2_7::InputSource"*, %"class.xercesc_2_7::ContentHandler"*, %"class.xalanc_1_10::XalanDOMString"*, %"class.xercesc_2_7::DTDHandler"*, %"class.xercesc_2_7::LexicalHandler"*)*, void (%"class.xalanc_1_10::XalanSourceTreeParserLiaison"*, %"class.xercesc_2_7::InputSource"*, %"class.xercesc_2_7::ContentHandler"*, %"class.xalanc_1_10::XalanDOMString"*, %"class.xercesc_2_7::DTDHandler"*, %"class.xercesc_2_7::LexicalHandler"*)** %vfn8, align 8, !dbg !4387
  invoke void %12(%"class.xalanc_1_10::XalanSourceTreeParserLiaison"* %this1, %"class.xercesc_2_7::InputSource"* nonnull %2, %"class.xercesc_2_7::ContentHandler"* dereferenceable(8) %3, %"class.xalanc_1_10::XalanDOMString"* dereferenceable(40) %4, %"class.xercesc_2_7::DTDHandler"* %cast.result, %"class.xercesc_2_7::LexicalHandler"* %cast.result6)
          to label %invoke.cont unwind label %lpad, !dbg !4387

invoke.cont:                                      ; preds = %cast.end5
  %call10 = invoke %"class.xalanc_1_10::XalanSourceTreeDocument"* @_ZNK11xalanc_1_1029XalanSourceTreeContentHandler11getDocumentEv(%"class.xalanc_1_10::XalanSourceTreeContentHandler"* %theContentHandler)
          to label %invoke.cont9 unwind label %lpad, !dbg !4388

invoke.cont9:                                     ; preds = %invoke.cont
  %13 = bitcast %"class.xalanc_1_10::XalanSourceTreeDocument"* %call10 to %"class.xalanc_1_10::XalanDocument"*, !dbg !4389
  call void @_ZN11xalanc_1_1029XalanSourceTreeContentHandlerD1Ev(%"class.xalanc_1_10::XalanSourceTreeContentHandler"* %theContentHandler) #9, !dbg !4390
  ret %"class.xalanc_1_10::XalanDocument"* %13, !dbg !4390

lpad:                                             ; preds = %invoke.cont, %cast.end5
  %14 = landingpad { i8*, i32 }
          cleanup, !dbg !4390
  %15 = extractvalue { i8*, i32 } %14, 0, !dbg !4390
  store i8* %15, i8** %exn.slot, align 8, !dbg !4390
  %16 = extractvalue { i8*, i32 } %14, 1, !dbg !4390
  store i32 %16, i32* %ehselector.slot, align 4, !dbg !4390
  call void @_ZN11xalanc_1_1029XalanSourceTreeContentHandlerD1Ev(%"class.xalanc_1_10::XalanSourceTreeContentHandler"* %theContentHandler) #9, !dbg !4390
  br label %eh.resume, !dbg !4390

eh.resume:                                        ; preds = %lpad
  %exn = load i8*, i8** %exn.slot, align 8, !dbg !4390
  %sel = load i32, i32* %ehselector.slot, align 4, !dbg !4390
  %lpad.val = insertvalue { i8*, i32 } undef, i8* %exn, 0, !dbg !4390
  %lpad.val11 = insertvalue { i8*, i32 } %lpad.val, i32 %sel, 1, !dbg !4390
  resume { i8*, i32 } %lpad.val11, !dbg !4390
}

; Function Attrs: noinline uwtable
define dso_local %"class.xalanc_1_10::XalanSourceTreeDocument"* @_ZN11xalanc_1_1028XalanSourceTreeParserLiaison29createXalanSourceTreeDocumentEv(%"class.xalanc_1_10::XalanSourceTreeParserLiaison"* %this) #6 align 2 !dbg !4391 {
entry:
  %this.addr = alloca %"class.xalanc_1_10::XalanSourceTreeParserLiaison"*, align 8
  %theNewDocument = alloca %"class.xalanc_1_10::XalanSourceTreeDocument"*, align 8
  %ref.tmp = alloca %"class.xalanc_1_10::XalanDocument"*, align 8
  store %"class.xalanc_1_10::XalanSourceTreeParserLiaison"* %this, %"class.xalanc_1_10::XalanSourceTreeParserLiaison"** %this.addr, align 8
  call void @llvm.dbg.declare(metadata %"class.xalanc_1_10::XalanSourceTreeParserLiaison"** %this.addr, metadata !4392, metadata !DIExpression()), !dbg !4393
  %this1 = load %"class.xalanc_1_10::XalanSourceTreeParserLiaison"*, %"class.xalanc_1_10::XalanSourceTreeParserLiaison"** %this.addr, align 8
  call void @llvm.dbg.declare(metadata %"class.xalanc_1_10::XalanSourceTreeDocument"** %theNewDocument, metadata !4394, metadata !DIExpression()), !dbg !4396
  %0 = bitcast %"class.xalanc_1_10::XalanSourceTreeParserLiaison"* %this1 to %"class.xercesc_2_7::MemoryManager"* (%"class.xalanc_1_10::XalanSourceTreeParserLiaison"*)***, !dbg !4397
  %vtable = load %"class.xercesc_2_7::MemoryManager"* (%"class.xalanc_1_10::XalanSourceTreeParserLiaison"*)**, %"class.xercesc_2_7::MemoryManager"* (%"class.xalanc_1_10::XalanSourceTreeParserLiaison"*)*** %0, align 8, !dbg !4397
  %vfn = getelementptr inbounds %"class.xercesc_2_7::MemoryManager"* (%"class.xalanc_1_10::XalanSourceTreeParserLiaison"*)*, %"class.xercesc_2_7::MemoryManager"* (%"class.xalanc_1_10::XalanSourceTreeParserLiaison"*)** %vtable, i64 4, !dbg !4397
  %1 = load %"class.xercesc_2_7::MemoryManager"* (%"class.xalanc_1_10::XalanSourceTreeParserLiaison"*)*, %"class.xercesc_2_7::MemoryManager"* (%"class.xalanc_1_10::XalanSourceTreeParserLiaison"*)** %vfn, align 8, !dbg !4397
  %call = call dereferenceable(8) %"class.xercesc_2_7::MemoryManager"* %1(%"class.xalanc_1_10::XalanSourceTreeParserLiaison"* %this1), !dbg !4397
  %m_poolAllText = getelementptr inbounds %"class.xalanc_1_10::XalanSourceTreeParserLiaison", %"class.xalanc_1_10::XalanSourceTreeParserLiaison"* %this1, i32 0, i32 3, !dbg !4398
  %2 = load i8, i8* %m_poolAllText, align 8, !dbg !4398
  %tobool = trunc i8 %2 to i1, !dbg !4398
  %call2 = call %"class.xalanc_1_10::XalanSourceTreeDocument"* @_ZN11xalanc_1_1023XalanSourceTreeDocument6createERN11xercesc_2_713MemoryManagerEbmmmmmm(%"class.xercesc_2_7::MemoryManager"* dereferenceable(8) %call, i1 zeroext %tobool, i64 32, i64 101, i64 15, i64 32, i64 997, i64 15), !dbg !4399
  store %"class.xalanc_1_10::XalanSourceTreeDocument"* %call2, %"class.xalanc_1_10::XalanSourceTreeDocument"** %theNewDocument, align 8, !dbg !4396
  %3 = load %"class.xalanc_1_10::XalanSourceTreeDocument"*, %"class.xalanc_1_10::XalanSourceTreeDocument"** %theNewDocument, align 8, !dbg !4400
  %m_documentMap = getelementptr inbounds %"class.xalanc_1_10::XalanSourceTreeParserLiaison", %"class.xalanc_1_10::XalanSourceTreeParserLiaison"* %this1, i32 0, i32 2, !dbg !4401
  %4 = load %"class.xalanc_1_10::XalanSourceTreeDocument"*, %"class.xalanc_1_10::XalanSourceTreeDocument"** %theNewDocument, align 8, !dbg !4402
  %5 = bitcast %"class.xalanc_1_10::XalanSourceTreeDocument"* %4 to %"class.xalanc_1_10::XalanDocument"*, !dbg !4402
  store %"class.xalanc_1_10::XalanDocument"* %5, %"class.xalanc_1_10::XalanDocument"** %ref.tmp, align 8, !dbg !4402
  %call3 = call dereferenceable(8) %"class.xalanc_1_10::XalanSourceTreeDocument"** @_ZN11xalanc_1_108XalanMapIPKNS_13XalanDocumentEPNS_23XalanSourceTreeDocumentENS_17XalanMapKeyTraitsIS3_EEEixERKS3_(%"class.xalanc_1_10::XalanMap.9"* %m_documentMap, %"class.xalanc_1_10::XalanDocument"** dereferenceable(8) %ref.tmp), !dbg !4401
  store %"class.xalanc_1_10::XalanSourceTreeDocument"* %3, %"class.xalanc_1_10::XalanSourceTreeDocument"** %call3, align 8, !dbg !4403
  %6 = load %"class.xalanc_1_10::XalanSourceTreeDocument"*, %"class.xalanc_1_10::XalanSourceTreeDocument"** %theNewDocument, align 8, !dbg !4404
  ret %"class.xalanc_1_10::XalanSourceTreeDocument"* %6, !dbg !4405
}

declare dso_local void @_ZN11xalanc_1_1029XalanSourceTreeContentHandlerC1ERN11xercesc_2_713MemoryManagerEPNS_23XalanSourceTreeDocumentEb(%"class.xalanc_1_10::XalanSourceTreeContentHandler"*, %"class.xercesc_2_7::MemoryManager"* dereferenceable(8), %"class.xalanc_1_10::XalanSourceTreeDocument"*, i1 zeroext) unnamed_addr #7

; Function Attrs: noinline nounwind uwtable
define linkonce_odr dso_local %"class.xalanc_1_10::XalanSourceTreeDocument"* @_ZNK11xalanc_1_1029XalanSourceTreeContentHandler11getDocumentEv(%"class.xalanc_1_10::XalanSourceTreeContentHandler"* %this) #1 comdat align 2 !dbg !4406 {
entry:
  %this.addr = alloca %"class.xalanc_1_10::XalanSourceTreeContentHandler"*, align 8
  store %"class.xalanc_1_10::XalanSourceTreeContentHandler"* %this, %"class.xalanc_1_10::XalanSourceTreeContentHandler"** %this.addr, align 8
  call void @llvm.dbg.declare(metadata %"class.xalanc_1_10::XalanSourceTreeContentHandler"** %this.addr, metadata !4412, metadata !DIExpression()), !dbg !4414
  %this1 = load %"class.xalanc_1_10::XalanSourceTreeContentHandler"*, %"class.xalanc_1_10::XalanSourceTreeContentHandler"** %this.addr, align 8
  %m_document = getelementptr inbounds %"class.xalanc_1_10::XalanSourceTreeContentHandler", %"class.xalanc_1_10::XalanSourceTreeContentHandler"* %this1, i32 0, i32 3, !dbg !4415
  %0 = load %"class.xalanc_1_10::XalanSourceTreeDocument"*, %"class.xalanc_1_10::XalanSourceTreeDocument"** %m_document, align 8, !dbg !4415
  ret %"class.xalanc_1_10::XalanSourceTreeDocument"* %0, !dbg !4416
}

; Function Attrs: nounwind
declare dso_local void @_ZN11xalanc_1_1029XalanSourceTreeContentHandlerD1Ev(%"class.xalanc_1_10::XalanSourceTreeContentHandler"*) unnamed_addr #4

; Function Attrs: noinline uwtable
define dso_local void @_ZN11xalanc_1_1028XalanSourceTreeParserLiaison15destroyDocumentEPNS_13XalanDocumentE(%"class.xalanc_1_10::XalanSourceTreeParserLiaison"* %this, %"class.xalanc_1_10::XalanDocument"* %theDocument) unnamed_addr #6 align 2 !dbg !4417 {
entry:
  %this.addr = alloca %"class.xalanc_1_10::XalanSourceTreeParserLiaison"*, align 8
  %theDocument.addr = alloca %"class.xalanc_1_10::XalanDocument"*, align 8
  %theManager = alloca %"class.xercesc_2_7::MemoryManager"*, align 8
  store %"class.xalanc_1_10::XalanSourceTreeParserLiaison"* %this, %"class.xalanc_1_10::XalanSourceTreeParserLiaison"** %this.addr, align 8
  call void @llvm.dbg.declare(metadata %"class.xalanc_1_10::XalanSourceTreeParserLiaison"** %this.addr, metadata !4418, metadata !DIExpression()), !dbg !4419
  store %"class.xalanc_1_10::XalanDocument"* %theDocument, %"class.xalanc_1_10::XalanDocument"** %theDocument.addr, align 8
  call void @llvm.dbg.declare(metadata %"class.xalanc_1_10::XalanDocument"** %theDocument.addr, metadata !4420, metadata !DIExpression()), !dbg !4421
  %this1 = load %"class.xalanc_1_10::XalanSourceTreeParserLiaison"*, %"class.xalanc_1_10::XalanSourceTreeParserLiaison"** %this.addr, align 8
  %0 = load %"class.xalanc_1_10::XalanDocument"*, %"class.xalanc_1_10::XalanDocument"** %theDocument.addr, align 8, !dbg !4422
  %call = call %"class.xalanc_1_10::XalanSourceTreeDocument"* @_ZNK11xalanc_1_1028XalanSourceTreeParserLiaison11mapDocumentEPKNS_13XalanDocumentE(%"class.xalanc_1_10::XalanSourceTreeParserLiaison"* %this1, %"class.xalanc_1_10::XalanDocument"* %0), !dbg !4424
  %cmp = icmp ne %"class.xalanc_1_10::XalanSourceTreeDocument"* %call, null, !dbg !4425
  br i1 %cmp, label %if.then, label %if.else, !dbg !4426

if.then:                                          ; preds = %entry
  %m_documentMap = getelementptr inbounds %"class.xalanc_1_10::XalanSourceTreeParserLiaison", %"class.xalanc_1_10::XalanSourceTreeParserLiaison"* %this1, i32 0, i32 2, !dbg !4427
  %call2 = call i64 @_ZN11xalanc_1_108XalanMapIPKNS_13XalanDocumentEPNS_23XalanSourceTreeDocumentENS_17XalanMapKeyTraitsIS3_EEE5eraseERKS3_(%"class.xalanc_1_10::XalanMap.9"* %m_documentMap, %"class.xalanc_1_10::XalanDocument"** dereferenceable(8) %theDocument.addr), !dbg !4429
  %1 = load %"class.xalanc_1_10::XalanDocument"*, %"class.xalanc_1_10::XalanDocument"** %theDocument.addr, align 8, !dbg !4430
  %cmp3 = icmp ne %"class.xalanc_1_10::XalanDocument"* %1, null, !dbg !4432
  br i1 %cmp3, label %if.then4, label %if.end, !dbg !4433

if.then4:                                         ; preds = %if.then
  %2 = load %"class.xalanc_1_10::XalanDocument"*, %"class.xalanc_1_10::XalanDocument"** %theDocument.addr, align 8, !dbg !4434
  %3 = bitcast %"class.xalanc_1_10::XalanDocument"* %2 to void (%"class.xalanc_1_10::XalanDocument"*)***, !dbg !4436
  %vtable = load void (%"class.xalanc_1_10::XalanDocument"*)**, void (%"class.xalanc_1_10::XalanDocument"*)*** %3, align 8, !dbg !4436
  %vfn = getelementptr inbounds void (%"class.xalanc_1_10::XalanDocument"*)*, void (%"class.xalanc_1_10::XalanDocument"*)** %vtable, i64 0, !dbg !4436
  %4 = load void (%"class.xalanc_1_10::XalanDocument"*)*, void (%"class.xalanc_1_10::XalanDocument"*)** %vfn, align 8, !dbg !4436
  call void %4(%"class.xalanc_1_10::XalanDocument"* %2) #9, !dbg !4436
  call void @llvm.dbg.declare(metadata %"class.xercesc_2_7::MemoryManager"** %theManager, metadata !4437, metadata !DIExpression()), !dbg !4438
  %m_documentMap5 = getelementptr inbounds %"class.xalanc_1_10::XalanSourceTreeParserLiaison", %"class.xalanc_1_10::XalanSourceTreeParserLiaison"* %this1, i32 0, i32 2, !dbg !4439
  %call6 = call dereferenceable(8) %"class.xercesc_2_7::MemoryManager"* @_ZN11xalanc_1_108XalanMapIPKNS_13XalanDocumentEPNS_23XalanSourceTreeDocumentENS_17XalanMapKeyTraitsIS3_EEE16getMemoryManagerEv(%"class.xalanc_1_10::XalanMap.9"* %m_documentMap5), !dbg !4440
  store %"class.xercesc_2_7::MemoryManager"* %call6, %"class.xercesc_2_7::MemoryManager"** %theManager, align 8, !dbg !4438
  %5 = load %"class.xercesc_2_7::MemoryManager"*, %"class.xercesc_2_7::MemoryManager"** %theManager, align 8, !dbg !4441
  %6 = load %"class.xalanc_1_10::XalanDocument"*, %"class.xalanc_1_10::XalanDocument"** %theDocument.addr, align 8, !dbg !4442
  %7 = bitcast %"class.xalanc_1_10::XalanDocument"* %6 to i8*, !dbg !4442
  %8 = bitcast %"class.xercesc_2_7::MemoryManager"* %5 to void (%"class.xercesc_2_7::MemoryManager"*, i8*)***, !dbg !4443
  %vtable7 = load void (%"class.xercesc_2_7::MemoryManager"*, i8*)**, void (%"class.xercesc_2_7::MemoryManager"*, i8*)*** %8, align 8, !dbg !4443
  %vfn8 = getelementptr inbounds void (%"class.xercesc_2_7::MemoryManager"*, i8*)*, void (%"class.xercesc_2_7::MemoryManager"*, i8*)** %vtable7, i64 3, !dbg !4443
  %9 = load void (%"class.xercesc_2_7::MemoryManager"*, i8*)*, void (%"class.xercesc_2_7::MemoryManager"*, i8*)** %vfn8, align 8, !dbg !4443
  call void %9(%"class.xercesc_2_7::MemoryManager"* %5, i8* %7), !dbg !4443
  br label %if.end, !dbg !4444

if.end:                                           ; preds = %if.then4, %if.then
  br label %if.end9, !dbg !4445

if.else:                                          ; preds = %entry
  %m_xercesParserLiaison = getelementptr inbounds %"class.xalanc_1_10::XalanSourceTreeParserLiaison", %"class.xalanc_1_10::XalanSourceTreeParserLiaison"* %this1, i32 0, i32 1, !dbg !4446
  %10 = load %"class.xalanc_1_10::XalanDocument"*, %"class.xalanc_1_10::XalanDocument"** %theDocument.addr, align 8, !dbg !4448
  call void @_ZN11xalanc_1_1019XercesParserLiaison15destroyDocumentEPNS_13XalanDocumentE(%"class.xalanc_1_10::XercesParserLiaison"* %m_xercesParserLiaison, %"class.xalanc_1_10::XalanDocument"* %10), !dbg !4449
  br label %if.end9

if.end9:                                          ; preds = %if.else, %if.end
  ret void, !dbg !4450
}

; Function Attrs: noinline uwtable
define dso_local %"class.xalanc_1_10::XalanSourceTreeDocument"* @_ZNK11xalanc_1_1028XalanSourceTreeParserLiaison11mapDocumentEPKNS_13XalanDocumentE(%"class.xalanc_1_10::XalanSourceTreeParserLiaison"* %this, %"class.xalanc_1_10::XalanDocument"* %theDocument) #6 align 2 !dbg !4451 {
entry:
  %this.addr = alloca %"class.xalanc_1_10::XalanSourceTreeParserLiaison"*, align 8
  %theDocument.addr = alloca %"class.xalanc_1_10::XalanDocument"*, align 8
  %i = alloca %"struct.xalanc_1_10::XalanMapIterator.55", align 8
  %ref.tmp = alloca %"struct.xalanc_1_10::XalanMapIterator.55", align 8
  store %"class.xalanc_1_10::XalanSourceTreeParserLiaison"* %this, %"class.xalanc_1_10::XalanSourceTreeParserLiaison"** %this.addr, align 8
  call void @llvm.dbg.declare(metadata %"class.xalanc_1_10::XalanSourceTreeParserLiaison"** %this.addr, metadata !4452, metadata !DIExpression()), !dbg !4453
  store %"class.xalanc_1_10::XalanDocument"* %theDocument, %"class.xalanc_1_10::XalanDocument"** %theDocument.addr, align 8
  call void @llvm.dbg.declare(metadata %"class.xalanc_1_10::XalanDocument"** %theDocument.addr, metadata !4454, metadata !DIExpression()), !dbg !4455
  %this1 = load %"class.xalanc_1_10::XalanSourceTreeParserLiaison"*, %"class.xalanc_1_10::XalanSourceTreeParserLiaison"** %this.addr, align 8
  call void @llvm.dbg.declare(metadata %"struct.xalanc_1_10::XalanMapIterator.55"* %i, metadata !4456, metadata !DIExpression()), !dbg !4457
  %m_documentMap = getelementptr inbounds %"class.xalanc_1_10::XalanSourceTreeParserLiaison", %"class.xalanc_1_10::XalanSourceTreeParserLiaison"* %this1, i32 0, i32 2, !dbg !4458
  call void @_ZNK11xalanc_1_108XalanMapIPKNS_13XalanDocumentEPNS_23XalanSourceTreeDocumentENS_17XalanMapKeyTraitsIS3_EEE4findERKS3_(%"struct.xalanc_1_10::XalanMapIterator.55"* sret %i, %"class.xalanc_1_10::XalanMap.9"* %m_documentMap, %"class.xalanc_1_10::XalanDocument"** dereferenceable(8) %theDocument.addr), !dbg !4459
  %m_documentMap2 = getelementptr inbounds %"class.xalanc_1_10::XalanSourceTreeParserLiaison", %"class.xalanc_1_10::XalanSourceTreeParserLiaison"* %this1, i32 0, i32 2, !dbg !4460
  call void @_ZNK11xalanc_1_108XalanMapIPKNS_13XalanDocumentEPNS_23XalanSourceTreeDocumentENS_17XalanMapKeyTraitsIS3_EEE3endEv(%"struct.xalanc_1_10::XalanMapIterator.55"* sret %ref.tmp, %"class.xalanc_1_10::XalanMap.9"* %m_documentMap2), !dbg !4461
  %call = call zeroext i1 @_ZNK11xalanc_1_1016XalanMapIteratorINS_27XalanMapConstIteratorTraitsISt4pairIKPKNS_13XalanDocumentEPNS_23XalanSourceTreeDocumentEEEENS_21XalanListIteratorBaseINS_23XalanListIteratorTraitsINS_8XalanMapIS5_S8_NS_17XalanMapKeyTraitsIS5_EEE5EntryEEENS_9XalanListISH_E4NodeEEEEneERKSN_(%"struct.xalanc_1_10::XalanMapIterator.55"* %i, %"struct.xalanc_1_10::XalanMapIterator.55"* dereferenceable(8) %ref.tmp), !dbg !4462
  br i1 %call, label %cond.true, label %cond.false, !dbg !4463

cond.true:                                        ; preds = %entry
  %call3 = call dereferenceable(16) %"struct.std::pair"* @_ZNK11xalanc_1_1016XalanMapIteratorINS_27XalanMapConstIteratorTraitsISt4pairIKPKNS_13XalanDocumentEPNS_23XalanSourceTreeDocumentEEEENS_21XalanListIteratorBaseINS_23XalanListIteratorTraitsINS_8XalanMapIS5_S8_NS_17XalanMapKeyTraitsIS5_EEE5EntryEEENS_9XalanListISH_E4NodeEEEEdeEv(%"struct.xalanc_1_10::XalanMapIterator.55"* %i), !dbg !4464
  %second = getelementptr inbounds %"struct.std::pair", %"struct.std::pair"* %call3, i32 0, i32 1, !dbg !4465
  %0 = load %"class.xalanc_1_10::XalanSourceTreeDocument"*, %"class.xalanc_1_10::XalanSourceTreeDocument"** %second, align 8, !dbg !4465
  br label %cond.end, !dbg !4463

cond.false:                                       ; preds = %entry
  br label %cond.end, !dbg !4463

cond.end:                                         ; preds = %cond.false, %cond.true
  %cond = phi %"class.xalanc_1_10::XalanSourceTreeDocument"* [ %0, %cond.true ], [ null, %cond.false ], !dbg !4463
  ret %"class.xalanc_1_10::XalanSourceTreeDocument"* %cond, !dbg !4466
}

; Function Attrs: noinline uwtable
define linkonce_odr dso_local i64 @_ZN11xalanc_1_108XalanMapIPKNS_13XalanDocumentEPNS_23XalanSourceTreeDocumentENS_17XalanMapKeyTraitsIS3_EEE5eraseERKS3_(%"class.xalanc_1_10::XalanMap.9"* %this, %"class.xalanc_1_10::XalanDocument"** dereferenceable(8) %key) #6 comdat align 2 !dbg !4467 {
entry:
  %retval = alloca i64, align 8
  %this.addr = alloca %"class.xalanc_1_10::XalanMap.9"*, align 8
  %key.addr = alloca %"class.xalanc_1_10::XalanDocument"**, align 8
  %pos = alloca %"struct.xalanc_1_10::XalanMapIterator", align 8
  %ref.tmp = alloca %"struct.xalanc_1_10::XalanMapIterator", align 8
  %agg.tmp = alloca %"struct.xalanc_1_10::XalanMapIterator", align 8
  store %"class.xalanc_1_10::XalanMap.9"* %this, %"class.xalanc_1_10::XalanMap.9"** %this.addr, align 8
  call void @llvm.dbg.declare(metadata %"class.xalanc_1_10::XalanMap.9"** %this.addr, metadata !4468, metadata !DIExpression()), !dbg !4469
  store %"class.xalanc_1_10::XalanDocument"** %key, %"class.xalanc_1_10::XalanDocument"*** %key.addr, align 8
  call void @llvm.dbg.declare(metadata %"class.xalanc_1_10::XalanDocument"*** %key.addr, metadata !4470, metadata !DIExpression()), !dbg !4471
  %this1 = load %"class.xalanc_1_10::XalanMap.9"*, %"class.xalanc_1_10::XalanMap.9"** %this.addr, align 8
  call void @llvm.dbg.declare(metadata %"struct.xalanc_1_10::XalanMapIterator"* %pos, metadata !4472, metadata !DIExpression()), !dbg !4473
  %0 = load %"class.xalanc_1_10::XalanDocument"**, %"class.xalanc_1_10::XalanDocument"*** %key.addr, align 8, !dbg !4474
  call void @_ZN11xalanc_1_108XalanMapIPKNS_13XalanDocumentEPNS_23XalanSourceTreeDocumentENS_17XalanMapKeyTraitsIS3_EEE4findERKS3_(%"struct.xalanc_1_10::XalanMapIterator"* sret %pos, %"class.xalanc_1_10::XalanMap.9"* %this1, %"class.xalanc_1_10::XalanDocument"** dereferenceable(8) %0), !dbg !4475
  call void @_ZN11xalanc_1_108XalanMapIPKNS_13XalanDocumentEPNS_23XalanSourceTreeDocumentENS_17XalanMapKeyTraitsIS3_EEE3endEv(%"struct.xalanc_1_10::XalanMapIterator"* sret %ref.tmp, %"class.xalanc_1_10::XalanMap.9"* %this1), !dbg !4476
  %call = call zeroext i1 @_ZNK11xalanc_1_1016XalanMapIteratorINS_22XalanMapIteratorTraitsISt4pairIKPKNS_13XalanDocumentEPNS_23XalanSourceTreeDocumentEEEENS_21XalanListIteratorBaseINS_23XalanListIteratorTraitsINS_8XalanMapIS5_S8_NS_17XalanMapKeyTraitsIS5_EEE5EntryEEENS_9XalanListISH_E4NodeEEEEneERKSN_(%"struct.xalanc_1_10::XalanMapIterator"* %pos, %"struct.xalanc_1_10::XalanMapIterator"* dereferenceable(8) %ref.tmp), !dbg !4478
  br i1 %call, label %if.then, label %if.else, !dbg !4479

if.then:                                          ; preds = %entry
  call void @_ZN11xalanc_1_1016XalanMapIteratorINS_22XalanMapIteratorTraitsISt4pairIKPKNS_13XalanDocumentEPNS_23XalanSourceTreeDocumentEEEENS_21XalanListIteratorBaseINS_23XalanListIteratorTraitsINS_8XalanMapIS5_S8_NS_17XalanMapKeyTraitsIS5_EEE5EntryEEENS_9XalanListISH_E4NodeEEEEC2ERKSN_(%"struct.xalanc_1_10::XalanMapIterator"* %agg.tmp, %"struct.xalanc_1_10::XalanMapIterator"* dereferenceable(8) %pos), !dbg !4480
  call void @_ZN11xalanc_1_108XalanMapIPKNS_13XalanDocumentEPNS_23XalanSourceTreeDocumentENS_17XalanMapKeyTraitsIS3_EEE7doEraseENS_16XalanMapIteratorINS_22XalanMapIteratorTraitsISt4pairIKS3_S5_EEENS_21XalanListIteratorBaseINS_23XalanListIteratorTraitsINS8_5EntryEEENS_9XalanListISH_E4NodeEEEEE(%"class.xalanc_1_10::XalanMap.9"* %this1, %"struct.xalanc_1_10::XalanMapIterator"* %agg.tmp), !dbg !4482
  store i64 1, i64* %retval, align 8, !dbg !4483
  br label %return, !dbg !4483

if.else:                                          ; preds = %entry
  store i64 0, i64* %retval, align 8, !dbg !4484
  br label %return, !dbg !4484

return:                                           ; preds = %if.else, %if.then
  %1 = load i64, i64* %retval, align 8, !dbg !4486
  ret i64 %1, !dbg !4486
}

; Function Attrs: noinline nounwind uwtable
define linkonce_odr dso_local dereferenceable(8) %"class.xercesc_2_7::MemoryManager"* @_ZN11xalanc_1_108XalanMapIPKNS_13XalanDocumentEPNS_23XalanSourceTreeDocumentENS_17XalanMapKeyTraitsIS3_EEE16getMemoryManagerEv(%"class.xalanc_1_10::XalanMap.9"* %this) #1 comdat align 2 !dbg !4487 {
entry:
  %this.addr = alloca %"class.xalanc_1_10::XalanMap.9"*, align 8
  store %"class.xalanc_1_10::XalanMap.9"* %this, %"class.xalanc_1_10::XalanMap.9"** %this.addr, align 8
  call void @llvm.dbg.declare(metadata %"class.xalanc_1_10::XalanMap.9"** %this.addr, metadata !4488, metadata !DIExpression()), !dbg !4489
  %this1 = load %"class.xalanc_1_10::XalanMap.9"*, %"class.xalanc_1_10::XalanMap.9"** %this.addr, align 8
  %m_memoryManager = getelementptr inbounds %"class.xalanc_1_10::XalanMap.9", %"class.xalanc_1_10::XalanMap.9"* %this1, i32 0, i32 2, !dbg !4490
  %0 = load %"class.xercesc_2_7::MemoryManager"*, %"class.xercesc_2_7::MemoryManager"** %m_memoryManager, align 8, !dbg !4490
  ret %"class.xercesc_2_7::MemoryManager"* %0, !dbg !4491
}

declare dso_local void @_ZN11xalanc_1_1019XercesParserLiaison15destroyDocumentEPNS_13XalanDocumentE(%"class.xalanc_1_10::XercesParserLiaison"*, %"class.xalanc_1_10::XalanDocument"*) unnamed_addr #7

; Function Attrs: noinline uwtable
define dso_local i32 @_ZNK11xalanc_1_1028XalanSourceTreeParserLiaison9getIndentEv(%"class.xalanc_1_10::XalanSourceTreeParserLiaison"* %this) unnamed_addr #6 align 2 !dbg !4492 {
entry:
  %this.addr = alloca %"class.xalanc_1_10::XalanSourceTreeParserLiaison"*, align 8
  store %"class.xalanc_1_10::XalanSourceTreeParserLiaison"* %this, %"class.xalanc_1_10::XalanSourceTreeParserLiaison"** %this.addr, align 8
  call void @llvm.dbg.declare(metadata %"class.xalanc_1_10::XalanSourceTreeParserLiaison"** %this.addr, metadata !4493, metadata !DIExpression()), !dbg !4494
  %this1 = load %"class.xalanc_1_10::XalanSourceTreeParserLiaison"*, %"class.xalanc_1_10::XalanSourceTreeParserLiaison"** %this.addr, align 8
  %m_xercesParserLiaison = getelementptr inbounds %"class.xalanc_1_10::XalanSourceTreeParserLiaison", %"class.xalanc_1_10::XalanSourceTreeParserLiaison"* %this1, i32 0, i32 1, !dbg !4495
  %call = call i32 @_ZNK11xalanc_1_1019XercesParserLiaison9getIndentEv(%"class.xalanc_1_10::XercesParserLiaison"* %m_xercesParserLiaison), !dbg !4496
  ret i32 %call, !dbg !4497
}

declare dso_local i32 @_ZNK11xalanc_1_1019XercesParserLiaison9getIndentEv(%"class.xalanc_1_10::XercesParserLiaison"*) unnamed_addr #7

; Function Attrs: noinline uwtable
define dso_local void @_ZN11xalanc_1_1028XalanSourceTreeParserLiaison9setIndentEi(%"class.xalanc_1_10::XalanSourceTreeParserLiaison"* %this, i32 %i) unnamed_addr #6 align 2 !dbg !4498 {
entry:
  %this.addr = alloca %"class.xalanc_1_10::XalanSourceTreeParserLiaison"*, align 8
  %i.addr = alloca i32, align 4
  store %"class.xalanc_1_10::XalanSourceTreeParserLiaison"* %this, %"class.xalanc_1_10::XalanSourceTreeParserLiaison"** %this.addr, align 8
  call void @llvm.dbg.declare(metadata %"class.xalanc_1_10::XalanSourceTreeParserLiaison"** %this.addr, metadata !4499, metadata !DIExpression()), !dbg !4500
  store i32 %i, i32* %i.addr, align 4
  call void @llvm.dbg.declare(metadata i32* %i.addr, metadata !4501, metadata !DIExpression()), !dbg !4502
  %this1 = load %"class.xalanc_1_10::XalanSourceTreeParserLiaison"*, %"class.xalanc_1_10::XalanSourceTreeParserLiaison"** %this.addr, align 8
  %m_xercesParserLiaison = getelementptr inbounds %"class.xalanc_1_10::XalanSourceTreeParserLiaison", %"class.xalanc_1_10::XalanSourceTreeParserLiaison"* %this1, i32 0, i32 1, !dbg !4503
  %0 = load i32, i32* %i.addr, align 4, !dbg !4504
  call void @_ZN11xalanc_1_1019XercesParserLiaison9setIndentEi(%"class.xalanc_1_10::XercesParserLiaison"* %m_xercesParserLiaison, i32 %0), !dbg !4505
  ret void, !dbg !4506
}

declare dso_local void @_ZN11xalanc_1_1019XercesParserLiaison9setIndentEi(%"class.xalanc_1_10::XercesParserLiaison"*, i32) unnamed_addr #7

; Function Attrs: noinline uwtable
define dso_local zeroext i1 @_ZNK11xalanc_1_1028XalanSourceTreeParserLiaison16getUseValidationEv(%"class.xalanc_1_10::XalanSourceTreeParserLiaison"* %this) unnamed_addr #6 align 2 !dbg !4507 {
entry:
  %this.addr = alloca %"class.xalanc_1_10::XalanSourceTreeParserLiaison"*, align 8
  store %"class.xalanc_1_10::XalanSourceTreeParserLiaison"* %this, %"class.xalanc_1_10::XalanSourceTreeParserLiaison"** %this.addr, align 8
  call void @llvm.dbg.declare(metadata %"class.xalanc_1_10::XalanSourceTreeParserLiaison"** %this.addr, metadata !4508, metadata !DIExpression()), !dbg !4509
  %this1 = load %"class.xalanc_1_10::XalanSourceTreeParserLiaison"*, %"class.xalanc_1_10::XalanSourceTreeParserLiaison"** %this.addr, align 8
  %m_xercesParserLiaison = getelementptr inbounds %"class.xalanc_1_10::XalanSourceTreeParserLiaison", %"class.xalanc_1_10::XalanSourceTreeParserLiaison"* %this1, i32 0, i32 1, !dbg !4510
  %call = call zeroext i1 @_ZNK11xalanc_1_1019XercesParserLiaison16getUseValidationEv(%"class.xalanc_1_10::XercesParserLiaison"* %m_xercesParserLiaison), !dbg !4511
  ret i1 %call, !dbg !4512
}

; Function Attrs: noinline uwtable
define dso_local void @_ZN11xalanc_1_1028XalanSourceTreeParserLiaison16setUseValidationEb(%"class.xalanc_1_10::XalanSourceTreeParserLiaison"* %this, i1 zeroext %b) unnamed_addr #6 align 2 !dbg !4513 {
entry:
  %this.addr = alloca %"class.xalanc_1_10::XalanSourceTreeParserLiaison"*, align 8
  %b.addr = alloca i8, align 1
  store %"class.xalanc_1_10::XalanSourceTreeParserLiaison"* %this, %"class.xalanc_1_10::XalanSourceTreeParserLiaison"** %this.addr, align 8
  call void @llvm.dbg.declare(metadata %"class.xalanc_1_10::XalanSourceTreeParserLiaison"** %this.addr, metadata !4514, metadata !DIExpression()), !dbg !4515
  %frombool = zext i1 %b to i8
  store i8 %frombool, i8* %b.addr, align 1
  call void @llvm.dbg.declare(metadata i8* %b.addr, metadata !4516, metadata !DIExpression()), !dbg !4517
  %this1 = load %"class.xalanc_1_10::XalanSourceTreeParserLiaison"*, %"class.xalanc_1_10::XalanSourceTreeParserLiaison"** %this.addr, align 8
  %m_xercesParserLiaison = getelementptr inbounds %"class.xalanc_1_10::XalanSourceTreeParserLiaison", %"class.xalanc_1_10::XalanSourceTreeParserLiaison"* %this1, i32 0, i32 1, !dbg !4518
  %0 = load i8, i8* %b.addr, align 1, !dbg !4519
  %tobool = trunc i8 %0 to i1, !dbg !4519
  call void @_ZN11xalanc_1_1019XercesParserLiaison16setUseValidationEb(%"class.xalanc_1_10::XercesParserLiaison"* %m_xercesParserLiaison, i1 zeroext %tobool), !dbg !4520
  ret void, !dbg !4521
}

declare dso_local void @_ZN11xalanc_1_1019XercesParserLiaison16setUseValidationEb(%"class.xalanc_1_10::XercesParserLiaison"*, i1 zeroext) unnamed_addr #7

; Function Attrs: noinline uwtable
define dso_local dereferenceable(40) %"class.xalanc_1_10::XalanDOMString"* @_ZNK11xalanc_1_1028XalanSourceTreeParserLiaison20getParserDescriptionERNS_14XalanDOMStringE(%"class.xalanc_1_10::XalanSourceTreeParserLiaison"* %this, %"class.xalanc_1_10::XalanDOMString"* dereferenceable(40) %theResult) unnamed_addr #6 align 2 !dbg !4522 {
entry:
  %this.addr = alloca %"class.xalanc_1_10::XalanSourceTreeParserLiaison"*, align 8
  %theResult.addr = alloca %"class.xalanc_1_10::XalanDOMString"*, align 8
  store %"class.xalanc_1_10::XalanSourceTreeParserLiaison"* %this, %"class.xalanc_1_10::XalanSourceTreeParserLiaison"** %this.addr, align 8
  call void @llvm.dbg.declare(metadata %"class.xalanc_1_10::XalanSourceTreeParserLiaison"** %this.addr, metadata !4523, metadata !DIExpression()), !dbg !4524
  store %"class.xalanc_1_10::XalanDOMString"* %theResult, %"class.xalanc_1_10::XalanDOMString"** %theResult.addr, align 8
  call void @llvm.dbg.declare(metadata %"class.xalanc_1_10::XalanDOMString"** %theResult.addr, metadata !4525, metadata !DIExpression()), !dbg !4526
  %this1 = load %"class.xalanc_1_10::XalanSourceTreeParserLiaison"*, %"class.xalanc_1_10::XalanSourceTreeParserLiaison"** %this.addr, align 8
  %0 = load %"class.xalanc_1_10::XalanDOMString"*, %"class.xalanc_1_10::XalanDOMString"** %theResult.addr, align 8, !dbg !4527
  %call = call dereferenceable(40) %"class.xalanc_1_10::XalanDOMString"* @_ZN11xalanc_1_1014XalanDOMString6assignEPKc(%"class.xalanc_1_10::XalanDOMString"* %0, i8* getelementptr inbounds ([16 x i8], [16 x i8]* @.str, i64 0, i64 0)), !dbg !4528
  %1 = load %"class.xalanc_1_10::XalanDOMString"*, %"class.xalanc_1_10::XalanDOMString"** %theResult.addr, align 8, !dbg !4529
  ret %"class.xalanc_1_10::XalanDOMString"* %1, !dbg !4530
}

; Function Attrs: noinline uwtable
define linkonce_odr dso_local dereferenceable(40) %"class.xalanc_1_10::XalanDOMString"* @_ZN11xalanc_1_1014XalanDOMString6assignEPKc(%"class.xalanc_1_10::XalanDOMString"* %this, i8* %theSource) #6 comdat align 2 !dbg !4531 {
entry:
  %this.addr = alloca %"class.xalanc_1_10::XalanDOMString"*, align 8
  %theSource.addr = alloca i8*, align 8
  store %"class.xalanc_1_10::XalanDOMString"* %this, %"class.xalanc_1_10::XalanDOMString"** %this.addr, align 8
  call void @llvm.dbg.declare(metadata %"class.xalanc_1_10::XalanDOMString"** %this.addr, metadata !4532, metadata !DIExpression()), !dbg !4533
  store i8* %theSource, i8** %theSource.addr, align 8
  call void @llvm.dbg.declare(metadata i8** %theSource.addr, metadata !4534, metadata !DIExpression()), !dbg !4535
  %this1 = load %"class.xalanc_1_10::XalanDOMString"*, %"class.xalanc_1_10::XalanDOMString"** %this.addr, align 8
  call void @_ZNK11xalanc_1_1014XalanDOMString10invariantsEv(%"class.xalanc_1_10::XalanDOMString"* %this1), !dbg !4536
  call void @_ZN11xalanc_1_1014XalanDOMString5eraseEjj(%"class.xalanc_1_10::XalanDOMString"* %this1, i32 0, i32 -1), !dbg !4537
  call void @_ZNK11xalanc_1_1014XalanDOMString10invariantsEv(%"class.xalanc_1_10::XalanDOMString"* %this1), !dbg !4538
  %0 = load i8*, i8** %theSource.addr, align 8, !dbg !4539
  %call = call dereferenceable(40) %"class.xalanc_1_10::XalanDOMString"* @_ZN11xalanc_1_1014XalanDOMString6appendEPKc(%"class.xalanc_1_10::XalanDOMString"* %this1, i8* %0), !dbg !4540
  ret %"class.xalanc_1_10::XalanDOMString"* %call, !dbg !4541
}

; Function Attrs: noinline uwtable
define dso_local void @_ZN11xalanc_1_1028XalanSourceTreeParserLiaison14parseXMLStreamERKN11xercesc_2_711InputSourceERNS1_14ContentHandlerERKNS_14XalanDOMStringEPNS1_10DTDHandlerEPNS1_14LexicalHandlerE(%"class.xalanc_1_10::XalanSourceTreeParserLiaison"* %this, %"class.xercesc_2_7::InputSource"* nonnull %theInputSource, %"class.xercesc_2_7::ContentHandler"* dereferenceable(8) %theContentHandler, %"class.xalanc_1_10::XalanDOMString"* dereferenceable(40) %0, %"class.xercesc_2_7::DTDHandler"* %theDTDHandler, %"class.xercesc_2_7::LexicalHandler"* %theLexicalHandler) unnamed_addr #6 align 2 !dbg !4542 {
entry:
  %this.addr = alloca %"class.xalanc_1_10::XalanSourceTreeParserLiaison"*, align 8
  %theInputSource.addr = alloca %"class.xercesc_2_7::InputSource"*, align 8
  %theContentHandler.addr = alloca %"class.xercesc_2_7::ContentHandler"*, align 8
  %.addr = alloca %"class.xalanc_1_10::XalanDOMString"*, align 8
  %theDTDHandler.addr = alloca %"class.xercesc_2_7::DTDHandler"*, align 8
  %theLexicalHandler.addr = alloca %"class.xercesc_2_7::LexicalHandler"*, align 8
  store %"class.xalanc_1_10::XalanSourceTreeParserLiaison"* %this, %"class.xalanc_1_10::XalanSourceTreeParserLiaison"** %this.addr, align 8
  call void @llvm.dbg.declare(metadata %"class.xalanc_1_10::XalanSourceTreeParserLiaison"** %this.addr, metadata !4551, metadata !DIExpression()), !dbg !4552
  store %"class.xercesc_2_7::InputSource"* %theInputSource, %"class.xercesc_2_7::InputSource"** %theInputSource.addr, align 8
  call void @llvm.dbg.declare(metadata %"class.xercesc_2_7::InputSource"** %theInputSource.addr, metadata !4553, metadata !DIExpression()), !dbg !4554
  store %"class.xercesc_2_7::ContentHandler"* %theContentHandler, %"class.xercesc_2_7::ContentHandler"** %theContentHandler.addr, align 8
  call void @llvm.dbg.declare(metadata %"class.xercesc_2_7::ContentHandler"** %theContentHandler.addr, metadata !4555, metadata !DIExpression()), !dbg !4556
  store %"class.xalanc_1_10::XalanDOMString"* %0, %"class.xalanc_1_10::XalanDOMString"** %.addr, align 8
  call void @llvm.dbg.declare(metadata %"class.xalanc_1_10::XalanDOMString"** %.addr, metadata !4557, metadata !DIExpression()), !dbg !4558
  store %"class.xercesc_2_7::DTDHandler"* %theDTDHandler, %"class.xercesc_2_7::DTDHandler"** %theDTDHandler.addr, align 8
  call void @llvm.dbg.declare(metadata %"class.xercesc_2_7::DTDHandler"** %theDTDHandler.addr, metadata !4559, metadata !DIExpression()), !dbg !4560
  store %"class.xercesc_2_7::LexicalHandler"* %theLexicalHandler, %"class.xercesc_2_7::LexicalHandler"** %theLexicalHandler.addr, align 8
  call void @llvm.dbg.declare(metadata %"class.xercesc_2_7::LexicalHandler"** %theLexicalHandler.addr, metadata !4561, metadata !DIExpression()), !dbg !4562
  %this1 = load %"class.xalanc_1_10::XalanSourceTreeParserLiaison"*, %"class.xalanc_1_10::XalanSourceTreeParserLiaison"** %this.addr, align 8
  call void @_ZN11xalanc_1_1028XalanSourceTreeParserLiaison12ensureReaderEv(%"class.xalanc_1_10::XalanSourceTreeParserLiaison"* %this1), !dbg !4563
  %m_xmlReader = getelementptr inbounds %"class.xalanc_1_10::XalanSourceTreeParserLiaison", %"class.xalanc_1_10::XalanSourceTreeParserLiaison"* %this1, i32 0, i32 4, !dbg !4564
  %1 = load %"class.xercesc_2_7::SAX2XMLReader"*, %"class.xercesc_2_7::SAX2XMLReader"** %m_xmlReader, align 8, !dbg !4564
  %2 = load %"class.xercesc_2_7::ContentHandler"*, %"class.xercesc_2_7::ContentHandler"** %theContentHandler.addr, align 8, !dbg !4565
  %3 = bitcast %"class.xercesc_2_7::SAX2XMLReader"* %1 to void (%"class.xercesc_2_7::SAX2XMLReader"*, %"class.xercesc_2_7::ContentHandler"*)***, !dbg !4566
  %vtable = load void (%"class.xercesc_2_7::SAX2XMLReader"*, %"class.xercesc_2_7::ContentHandler"*)**, void (%"class.xercesc_2_7::SAX2XMLReader"*, %"class.xercesc_2_7::ContentHandler"*)*** %3, align 8, !dbg !4566
  %vfn = getelementptr inbounds void (%"class.xercesc_2_7::SAX2XMLReader"*, %"class.xercesc_2_7::ContentHandler"*)*, void (%"class.xercesc_2_7::SAX2XMLReader"*, %"class.xercesc_2_7::ContentHandler"*)** %vtable, i64 8, !dbg !4566
  %4 = load void (%"class.xercesc_2_7::SAX2XMLReader"*, %"class.xercesc_2_7::ContentHandler"*)*, void (%"class.xercesc_2_7::SAX2XMLReader"*, %"class.xercesc_2_7::ContentHandler"*)** %vfn, align 8, !dbg !4566
  call void %4(%"class.xercesc_2_7::SAX2XMLReader"* %1, %"class.xercesc_2_7::ContentHandler"* %2), !dbg !4566
  %m_xmlReader2 = getelementptr inbounds %"class.xalanc_1_10::XalanSourceTreeParserLiaison", %"class.xalanc_1_10::XalanSourceTreeParserLiaison"* %this1, i32 0, i32 4, !dbg !4567
  %5 = load %"class.xercesc_2_7::SAX2XMLReader"*, %"class.xercesc_2_7::SAX2XMLReader"** %m_xmlReader2, align 8, !dbg !4567
  %6 = load %"class.xercesc_2_7::DTDHandler"*, %"class.xercesc_2_7::DTDHandler"** %theDTDHandler.addr, align 8, !dbg !4568
  %7 = bitcast %"class.xercesc_2_7::SAX2XMLReader"* %5 to void (%"class.xercesc_2_7::SAX2XMLReader"*, %"class.xercesc_2_7::DTDHandler"*)***, !dbg !4569
  %vtable3 = load void (%"class.xercesc_2_7::SAX2XMLReader"*, %"class.xercesc_2_7::DTDHandler"*)**, void (%"class.xercesc_2_7::SAX2XMLReader"*, %"class.xercesc_2_7::DTDHandler"*)*** %7, align 8, !dbg !4569
  %vfn4 = getelementptr inbounds void (%"class.xercesc_2_7::SAX2XMLReader"*, %"class.xercesc_2_7::DTDHandler"*)*, void (%"class.xercesc_2_7::SAX2XMLReader"*, %"class.xercesc_2_7::DTDHandler"*)** %vtable3, i64 9, !dbg !4569
  %8 = load void (%"class.xercesc_2_7::SAX2XMLReader"*, %"class.xercesc_2_7::DTDHandler"*)*, void (%"class.xercesc_2_7::SAX2XMLReader"*, %"class.xercesc_2_7::DTDHandler"*)** %vfn4, align 8, !dbg !4569
  call void %8(%"class.xercesc_2_7::SAX2XMLReader"* %5, %"class.xercesc_2_7::DTDHandler"* %6), !dbg !4569
  %m_xmlReader5 = getelementptr inbounds %"class.xalanc_1_10::XalanSourceTreeParserLiaison", %"class.xalanc_1_10::XalanSourceTreeParserLiaison"* %this1, i32 0, i32 4, !dbg !4570
  %9 = load %"class.xercesc_2_7::SAX2XMLReader"*, %"class.xercesc_2_7::SAX2XMLReader"** %m_xmlReader5, align 8, !dbg !4570
  %10 = load %"class.xercesc_2_7::LexicalHandler"*, %"class.xercesc_2_7::LexicalHandler"** %theLexicalHandler.addr, align 8, !dbg !4571
  %11 = bitcast %"class.xercesc_2_7::SAX2XMLReader"* %9 to void (%"class.xercesc_2_7::SAX2XMLReader"*, %"class.xercesc_2_7::LexicalHandler"*)***, !dbg !4572
  %vtable6 = load void (%"class.xercesc_2_7::SAX2XMLReader"*, %"class.xercesc_2_7::LexicalHandler"*)**, void (%"class.xercesc_2_7::SAX2XMLReader"*, %"class.xercesc_2_7::LexicalHandler"*)*** %11, align 8, !dbg !4572
  %vfn7 = getelementptr inbounds void (%"class.xercesc_2_7::SAX2XMLReader"*, %"class.xercesc_2_7::LexicalHandler"*)*, void (%"class.xercesc_2_7::SAX2XMLReader"*, %"class.xercesc_2_7::LexicalHandler"*)** %vtable6, i64 20, !dbg !4572
  %12 = load void (%"class.xercesc_2_7::SAX2XMLReader"*, %"class.xercesc_2_7::LexicalHandler"*)*, void (%"class.xercesc_2_7::SAX2XMLReader"*, %"class.xercesc_2_7::LexicalHandler"*)** %vfn7, align 8, !dbg !4572
  call void %12(%"class.xercesc_2_7::SAX2XMLReader"* %9, %"class.xercesc_2_7::LexicalHandler"* %10), !dbg !4572
  %m_xmlReader8 = getelementptr inbounds %"class.xalanc_1_10::XalanSourceTreeParserLiaison", %"class.xalanc_1_10::XalanSourceTreeParserLiaison"* %this1, i32 0, i32 4, !dbg !4573
  %13 = load %"class.xercesc_2_7::SAX2XMLReader"*, %"class.xercesc_2_7::SAX2XMLReader"** %m_xmlReader8, align 8, !dbg !4573
  %14 = load %"class.xercesc_2_7::InputSource"*, %"class.xercesc_2_7::InputSource"** %theInputSource.addr, align 8, !dbg !4574
  %15 = bitcast %"class.xercesc_2_7::SAX2XMLReader"* %13 to void (%"class.xercesc_2_7::SAX2XMLReader"*, %"class.xercesc_2_7::InputSource"*)***, !dbg !4575
  %vtable9 = load void (%"class.xercesc_2_7::SAX2XMLReader"*, %"class.xercesc_2_7::InputSource"*)**, void (%"class.xercesc_2_7::SAX2XMLReader"*, %"class.xercesc_2_7::InputSource"*)*** %15, align 8, !dbg !4575
  %vfn10 = getelementptr inbounds void (%"class.xercesc_2_7::SAX2XMLReader"*, %"class.xercesc_2_7::InputSource"*)*, void (%"class.xercesc_2_7::SAX2XMLReader"*, %"class.xercesc_2_7::InputSource"*)** %vtable9, i64 14, !dbg !4575
  %16 = load void (%"class.xercesc_2_7::SAX2XMLReader"*, %"class.xercesc_2_7::InputSource"*)*, void (%"class.xercesc_2_7::SAX2XMLReader"*, %"class.xercesc_2_7::InputSource"*)** %vfn10, align 8, !dbg !4575
  call void %16(%"class.xercesc_2_7::SAX2XMLReader"* %13, %"class.xercesc_2_7::InputSource"* nonnull %14), !dbg !4575
  ret void, !dbg !4576
}

; Function Attrs: noinline uwtable
define dso_local %"class.xercesc_2_7::DOMDocument"* @_ZN11xalanc_1_1028XalanSourceTreeParserLiaison16createDOMFactoryEv(%"class.xalanc_1_10::XalanSourceTreeParserLiaison"* %this) unnamed_addr #6 align 2 !dbg !4577 {
entry:
  %this.addr = alloca %"class.xalanc_1_10::XalanSourceTreeParserLiaison"*, align 8
  store %"class.xalanc_1_10::XalanSourceTreeParserLiaison"* %this, %"class.xalanc_1_10::XalanSourceTreeParserLiaison"** %this.addr, align 8
  call void @llvm.dbg.declare(metadata %"class.xalanc_1_10::XalanSourceTreeParserLiaison"** %this.addr, metadata !4578, metadata !DIExpression()), !dbg !4579
  %this1 = load %"class.xalanc_1_10::XalanSourceTreeParserLiaison"*, %"class.xalanc_1_10::XalanSourceTreeParserLiaison"** %this.addr, align 8
  %m_xercesParserLiaison = getelementptr inbounds %"class.xalanc_1_10::XalanSourceTreeParserLiaison", %"class.xalanc_1_10::XalanSourceTreeParserLiaison"* %this1, i32 0, i32 1, !dbg !4580
  %call = call %"class.xercesc_2_7::DOMDocument"* @_ZN11xalanc_1_1019XercesParserLiaison16createDOMFactoryEv(%"class.xalanc_1_10::XercesParserLiaison"* %m_xercesParserLiaison), !dbg !4581
  ret %"class.xercesc_2_7::DOMDocument"* %call, !dbg !4582
}

declare dso_local %"class.xercesc_2_7::DOMDocument"* @_ZN11xalanc_1_1019XercesParserLiaison16createDOMFactoryEv(%"class.xalanc_1_10::XercesParserLiaison"*) unnamed_addr #7

; Function Attrs: noinline uwtable
define dso_local void @_ZN11xalanc_1_1028XalanSourceTreeParserLiaison15destroyDocumentEPN11xercesc_2_711DOMDocumentE(%"class.xalanc_1_10::XalanSourceTreeParserLiaison"* %this, %"class.xercesc_2_7::DOMDocument"* %theDocument) unnamed_addr #6 align 2 !dbg !4583 {
entry:
  %this.addr = alloca %"class.xalanc_1_10::XalanSourceTreeParserLiaison"*, align 8
  %theDocument.addr = alloca %"class.xercesc_2_7::DOMDocument"*, align 8
  store %"class.xalanc_1_10::XalanSourceTreeParserLiaison"* %this, %"class.xalanc_1_10::XalanSourceTreeParserLiaison"** %this.addr, align 8
  call void @llvm.dbg.declare(metadata %"class.xalanc_1_10::XalanSourceTreeParserLiaison"** %this.addr, metadata !4584, metadata !DIExpression()), !dbg !4585
  store %"class.xercesc_2_7::DOMDocument"* %theDocument, %"class.xercesc_2_7::DOMDocument"** %theDocument.addr, align 8
  call void @llvm.dbg.declare(metadata %"class.xercesc_2_7::DOMDocument"** %theDocument.addr, metadata !4586, metadata !DIExpression()), !dbg !4587
  %this1 = load %"class.xalanc_1_10::XalanSourceTreeParserLiaison"*, %"class.xalanc_1_10::XalanSourceTreeParserLiaison"** %this.addr, align 8
  %m_xercesParserLiaison = getelementptr inbounds %"class.xalanc_1_10::XalanSourceTreeParserLiaison", %"class.xalanc_1_10::XalanSourceTreeParserLiaison"* %this1, i32 0, i32 1, !dbg !4588
  %0 = load %"class.xercesc_2_7::DOMDocument"*, %"class.xercesc_2_7::DOMDocument"** %theDocument.addr, align 8, !dbg !4589
  call void @_ZN11xalanc_1_1019XercesParserLiaison15destroyDocumentEPN11xercesc_2_711DOMDocumentE(%"class.xalanc_1_10::XercesParserLiaison"* %m_xercesParserLiaison, %"class.xercesc_2_7::DOMDocument"* %0), !dbg !4590
  ret void, !dbg !4591
}

declare dso_local void @_ZN11xalanc_1_1019XercesParserLiaison15destroyDocumentEPN11xercesc_2_711DOMDocumentE(%"class.xalanc_1_10::XercesParserLiaison"*, %"class.xercesc_2_7::DOMDocument"*) unnamed_addr #7

; Function Attrs: noinline uwtable
define dso_local zeroext i1 @_ZNK11xalanc_1_1028XalanSourceTreeParserLiaison29getIncludeIgnorableWhitespaceEv(%"class.xalanc_1_10::XalanSourceTreeParserLiaison"* %this) unnamed_addr #6 align 2 !dbg !4592 {
entry:
  %this.addr = alloca %"class.xalanc_1_10::XalanSourceTreeParserLiaison"*, align 8
  store %"class.xalanc_1_10::XalanSourceTreeParserLiaison"* %this, %"class.xalanc_1_10::XalanSourceTreeParserLiaison"** %this.addr, align 8
  call void @llvm.dbg.declare(metadata %"class.xalanc_1_10::XalanSourceTreeParserLiaison"** %this.addr, metadata !4593, metadata !DIExpression()), !dbg !4594
  %this1 = load %"class.xalanc_1_10::XalanSourceTreeParserLiaison"*, %"class.xalanc_1_10::XalanSourceTreeParserLiaison"** %this.addr, align 8
  %m_xercesParserLiaison = getelementptr inbounds %"class.xalanc_1_10::XalanSourceTreeParserLiaison", %"class.xalanc_1_10::XalanSourceTreeParserLiaison"* %this1, i32 0, i32 1, !dbg !4595
  %call = call zeroext i1 @_ZNK11xalanc_1_1019XercesParserLiaison29getIncludeIgnorableWhitespaceEv(%"class.xalanc_1_10::XercesParserLiaison"* %m_xercesParserLiaison), !dbg !4596
  ret i1 %call, !dbg !4597
}

declare dso_local zeroext i1 @_ZNK11xalanc_1_1019XercesParserLiaison29getIncludeIgnorableWhitespaceEv(%"class.xalanc_1_10::XercesParserLiaison"*) unnamed_addr #7

; Function Attrs: noinline uwtable
define dso_local void @_ZN11xalanc_1_1028XalanSourceTreeParserLiaison29setIncludeIgnorableWhitespaceEb(%"class.xalanc_1_10::XalanSourceTreeParserLiaison"* %this, i1 zeroext %include) unnamed_addr #6 align 2 !dbg !4598 {
entry:
  %this.addr = alloca %"class.xalanc_1_10::XalanSourceTreeParserLiaison"*, align 8
  %include.addr = alloca i8, align 1
  store %"class.xalanc_1_10::XalanSourceTreeParserLiaison"* %this, %"class.xalanc_1_10::XalanSourceTreeParserLiaison"** %this.addr, align 8
  call void @llvm.dbg.declare(metadata %"class.xalanc_1_10::XalanSourceTreeParserLiaison"** %this.addr, metadata !4599, metadata !DIExpression()), !dbg !4600
  %frombool = zext i1 %include to i8
  store i8 %frombool, i8* %include.addr, align 1
  call void @llvm.dbg.declare(metadata i8* %include.addr, metadata !4601, metadata !DIExpression()), !dbg !4602
  %this1 = load %"class.xalanc_1_10::XalanSourceTreeParserLiaison"*, %"class.xalanc_1_10::XalanSourceTreeParserLiaison"** %this.addr, align 8
  %m_xercesParserLiaison = getelementptr inbounds %"class.xalanc_1_10::XalanSourceTreeParserLiaison", %"class.xalanc_1_10::XalanSourceTreeParserLiaison"* %this1, i32 0, i32 1, !dbg !4603
  %0 = load i8, i8* %include.addr, align 1, !dbg !4604
  %tobool = trunc i8 %0 to i1, !dbg !4604
  call void @_ZN11xalanc_1_1019XercesParserLiaison29setIncludeIgnorableWhitespaceEb(%"class.xalanc_1_10::XercesParserLiaison"* %m_xercesParserLiaison, i1 zeroext %tobool), !dbg !4605
  ret void, !dbg !4606
}

declare dso_local void @_ZN11xalanc_1_1019XercesParserLiaison29setIncludeIgnorableWhitespaceEb(%"class.xalanc_1_10::XercesParserLiaison"*, i1 zeroext) unnamed_addr #7

; Function Attrs: noinline uwtable
define dso_local %"class.xercesc_2_7::ErrorHandler"* @_ZNK11xalanc_1_1028XalanSourceTreeParserLiaison15getErrorHandlerEv(%"class.xalanc_1_10::XalanSourceTreeParserLiaison"* %this) unnamed_addr #6 align 2 !dbg !4607 {
entry:
  %this.addr = alloca %"class.xalanc_1_10::XalanSourceTreeParserLiaison"*, align 8
  store %"class.xalanc_1_10::XalanSourceTreeParserLiaison"* %this, %"class.xalanc_1_10::XalanSourceTreeParserLiaison"** %this.addr, align 8
  call void @llvm.dbg.declare(metadata %"class.xalanc_1_10::XalanSourceTreeParserLiaison"** %this.addr, metadata !4608, metadata !DIExpression()), !dbg !4609
  %this1 = load %"class.xalanc_1_10::XalanSourceTreeParserLiaison"*, %"class.xalanc_1_10::XalanSourceTreeParserLiaison"** %this.addr, align 8
  %m_xercesParserLiaison = getelementptr inbounds %"class.xalanc_1_10::XalanSourceTreeParserLiaison", %"class.xalanc_1_10::XalanSourceTreeParserLiaison"* %this1, i32 0, i32 1, !dbg !4610
  %call = call %"class.xercesc_2_7::ErrorHandler"* @_ZNK11xalanc_1_1019XercesParserLiaison15getErrorHandlerEv(%"class.xalanc_1_10::XercesParserLiaison"* %m_xercesParserLiaison), !dbg !4611
  ret %"class.xercesc_2_7::ErrorHandler"* %call, !dbg !4612
}

declare dso_local %"class.xercesc_2_7::ErrorHandler"* @_ZNK11xalanc_1_1019XercesParserLiaison15getErrorHandlerEv(%"class.xalanc_1_10::XercesParserLiaison"*) unnamed_addr #7

; Function Attrs: noinline uwtable
define dso_local void @_ZN11xalanc_1_1028XalanSourceTreeParserLiaison15setErrorHandlerEPN11xercesc_2_712ErrorHandlerE(%"class.xalanc_1_10::XalanSourceTreeParserLiaison"* %this, %"class.xercesc_2_7::ErrorHandler"* %handler) unnamed_addr #6 align 2 !dbg !4613 {
entry:
  %this.addr = alloca %"class.xalanc_1_10::XalanSourceTreeParserLiaison"*, align 8
  %handler.addr = alloca %"class.xercesc_2_7::ErrorHandler"*, align 8
  store %"class.xalanc_1_10::XalanSourceTreeParserLiaison"* %this, %"class.xalanc_1_10::XalanSourceTreeParserLiaison"** %this.addr, align 8
  call void @llvm.dbg.declare(metadata %"class.xalanc_1_10::XalanSourceTreeParserLiaison"** %this.addr, metadata !4614, metadata !DIExpression()), !dbg !4615
  store %"class.xercesc_2_7::ErrorHandler"* %handler, %"class.xercesc_2_7::ErrorHandler"** %handler.addr, align 8
  call void @llvm.dbg.declare(metadata %"class.xercesc_2_7::ErrorHandler"** %handler.addr, metadata !4616, metadata !DIExpression()), !dbg !4617
  %this1 = load %"class.xalanc_1_10::XalanSourceTreeParserLiaison"*, %"class.xalanc_1_10::XalanSourceTreeParserLiaison"** %this.addr, align 8
  %m_xercesParserLiaison = getelementptr inbounds %"class.xalanc_1_10::XalanSourceTreeParserLiaison", %"class.xalanc_1_10::XalanSourceTreeParserLiaison"* %this1, i32 0, i32 1, !dbg !4618
  %0 = load %"class.xercesc_2_7::ErrorHandler"*, %"class.xercesc_2_7::ErrorHandler"** %handler.addr, align 8, !dbg !4619
  call void @_ZN11xalanc_1_1019XercesParserLiaison15setErrorHandlerEPN11xercesc_2_712ErrorHandlerE(%"class.xalanc_1_10::XercesParserLiaison"* %m_xercesParserLiaison, %"class.xercesc_2_7::ErrorHandler"* %0), !dbg !4620
  ret void, !dbg !4621
}

declare dso_local void @_ZN11xalanc_1_1019XercesParserLiaison15setErrorHandlerEPN11xercesc_2_712ErrorHandlerE(%"class.xalanc_1_10::XercesParserLiaison"*, %"class.xercesc_2_7::ErrorHandler"*) unnamed_addr #7

; Function Attrs: noinline uwtable
define dso_local zeroext i1 @_ZNK11xalanc_1_1028XalanSourceTreeParserLiaison15getDoNamespacesEv(%"class.xalanc_1_10::XalanSourceTreeParserLiaison"* %this) unnamed_addr #6 align 2 !dbg !4622 {
entry:
  %this.addr = alloca %"class.xalanc_1_10::XalanSourceTreeParserLiaison"*, align 8
  store %"class.xalanc_1_10::XalanSourceTreeParserLiaison"* %this, %"class.xalanc_1_10::XalanSourceTreeParserLiaison"** %this.addr, align 8
  call void @llvm.dbg.declare(metadata %"class.xalanc_1_10::XalanSourceTreeParserLiaison"** %this.addr, metadata !4623, metadata !DIExpression()), !dbg !4624
  %this1 = load %"class.xalanc_1_10::XalanSourceTreeParserLiaison"*, %"class.xalanc_1_10::XalanSourceTreeParserLiaison"** %this.addr, align 8
  %m_xercesParserLiaison = getelementptr inbounds %"class.xalanc_1_10::XalanSourceTreeParserLiaison", %"class.xalanc_1_10::XalanSourceTreeParserLiaison"* %this1, i32 0, i32 1, !dbg !4625
  %call = call zeroext i1 @_ZNK11xalanc_1_1019XercesParserLiaison15getDoNamespacesEv(%"class.xalanc_1_10::XercesParserLiaison"* %m_xercesParserLiaison), !dbg !4626
  ret i1 %call, !dbg !4627
}

declare dso_local zeroext i1 @_ZNK11xalanc_1_1019XercesParserLiaison15getDoNamespacesEv(%"class.xalanc_1_10::XercesParserLiaison"*) unnamed_addr #7

; Function Attrs: noinline uwtable
define dso_local void @_ZN11xalanc_1_1028XalanSourceTreeParserLiaison15setDoNamespacesEb(%"class.xalanc_1_10::XalanSourceTreeParserLiaison"* %this, i1 zeroext %newState) unnamed_addr #6 align 2 !dbg !4628 {
entry:
  %this.addr = alloca %"class.xalanc_1_10::XalanSourceTreeParserLiaison"*, align 8
  %newState.addr = alloca i8, align 1
  store %"class.xalanc_1_10::XalanSourceTreeParserLiaison"* %this, %"class.xalanc_1_10::XalanSourceTreeParserLiaison"** %this.addr, align 8
  call void @llvm.dbg.declare(metadata %"class.xalanc_1_10::XalanSourceTreeParserLiaison"** %this.addr, metadata !4629, metadata !DIExpression()), !dbg !4630
  %frombool = zext i1 %newState to i8
  store i8 %frombool, i8* %newState.addr, align 1
  call void @llvm.dbg.declare(metadata i8* %newState.addr, metadata !4631, metadata !DIExpression()), !dbg !4632
  %this1 = load %"class.xalanc_1_10::XalanSourceTreeParserLiaison"*, %"class.xalanc_1_10::XalanSourceTreeParserLiaison"** %this.addr, align 8
  %m_xercesParserLiaison = getelementptr inbounds %"class.xalanc_1_10::XalanSourceTreeParserLiaison", %"class.xalanc_1_10::XalanSourceTreeParserLiaison"* %this1, i32 0, i32 1, !dbg !4633
  %0 = load i8, i8* %newState.addr, align 1, !dbg !4634
  %tobool = trunc i8 %0 to i1, !dbg !4634
  call void @_ZN11xalanc_1_1019XercesParserLiaison15setDoNamespacesEb(%"class.xalanc_1_10::XercesParserLiaison"* %m_xercesParserLiaison, i1 zeroext %tobool), !dbg !4635
  ret void, !dbg !4636
}

declare dso_local void @_ZN11xalanc_1_1019XercesParserLiaison15setDoNamespacesEb(%"class.xalanc_1_10::XercesParserLiaison"*, i1 zeroext) unnamed_addr #7

; Function Attrs: noinline uwtable
define dso_local zeroext i1 @_ZNK11xalanc_1_1028XalanSourceTreeParserLiaison24getExitOnFirstFatalErrorEv(%"class.xalanc_1_10::XalanSourceTreeParserLiaison"* %this) unnamed_addr #6 align 2 !dbg !4637 {
entry:
  %this.addr = alloca %"class.xalanc_1_10::XalanSourceTreeParserLiaison"*, align 8
  store %"class.xalanc_1_10::XalanSourceTreeParserLiaison"* %this, %"class.xalanc_1_10::XalanSourceTreeParserLiaison"** %this.addr, align 8
  call void @llvm.dbg.declare(metadata %"class.xalanc_1_10::XalanSourceTreeParserLiaison"** %this.addr, metadata !4638, metadata !DIExpression()), !dbg !4639
  %this1 = load %"class.xalanc_1_10::XalanSourceTreeParserLiaison"*, %"class.xalanc_1_10::XalanSourceTreeParserLiaison"** %this.addr, align 8
  %m_xercesParserLiaison = getelementptr inbounds %"class.xalanc_1_10::XalanSourceTreeParserLiaison", %"class.xalanc_1_10::XalanSourceTreeParserLiaison"* %this1, i32 0, i32 1, !dbg !4640
  %call = call zeroext i1 @_ZNK11xalanc_1_1019XercesParserLiaison24getExitOnFirstFatalErrorEv(%"class.xalanc_1_10::XercesParserLiaison"* %m_xercesParserLiaison), !dbg !4641
  ret i1 %call, !dbg !4642
}

declare dso_local zeroext i1 @_ZNK11xalanc_1_1019XercesParserLiaison24getExitOnFirstFatalErrorEv(%"class.xalanc_1_10::XercesParserLiaison"*) unnamed_addr #7

; Function Attrs: noinline uwtable
define dso_local void @_ZN11xalanc_1_1028XalanSourceTreeParserLiaison24setExitOnFirstFatalErrorEb(%"class.xalanc_1_10::XalanSourceTreeParserLiaison"* %this, i1 zeroext %newState) unnamed_addr #6 align 2 !dbg !4643 {
entry:
  %this.addr = alloca %"class.xalanc_1_10::XalanSourceTreeParserLiaison"*, align 8
  %newState.addr = alloca i8, align 1
  store %"class.xalanc_1_10::XalanSourceTreeParserLiaison"* %this, %"class.xalanc_1_10::XalanSourceTreeParserLiaison"** %this.addr, align 8
  call void @llvm.dbg.declare(metadata %"class.xalanc_1_10::XalanSourceTreeParserLiaison"** %this.addr, metadata !4644, metadata !DIExpression()), !dbg !4645
  %frombool = zext i1 %newState to i8
  store i8 %frombool, i8* %newState.addr, align 1
  call void @llvm.dbg.declare(metadata i8* %newState.addr, metadata !4646, metadata !DIExpression()), !dbg !4647
  %this1 = load %"class.xalanc_1_10::XalanSourceTreeParserLiaison"*, %"class.xalanc_1_10::XalanSourceTreeParserLiaison"** %this.addr, align 8
  %m_xercesParserLiaison = getelementptr inbounds %"class.xalanc_1_10::XalanSourceTreeParserLiaison", %"class.xalanc_1_10::XalanSourceTreeParserLiaison"* %this1, i32 0, i32 1, !dbg !4648
  %0 = load i8, i8* %newState.addr, align 1, !dbg !4649
  %tobool = trunc i8 %0 to i1, !dbg !4649
  call void @_ZN11xalanc_1_1019XercesParserLiaison24setExitOnFirstFatalErrorEb(%"class.xalanc_1_10::XercesParserLiaison"* %m_xercesParserLiaison, i1 zeroext %tobool), !dbg !4650
  ret void, !dbg !4651
}

declare dso_local void @_ZN11xalanc_1_1019XercesParserLiaison24setExitOnFirstFatalErrorEb(%"class.xalanc_1_10::XercesParserLiaison"*, i1 zeroext) unnamed_addr #7

; Function Attrs: noinline uwtable
define dso_local %"class.xercesc_2_7::EntityResolver"* @_ZNK11xalanc_1_1028XalanSourceTreeParserLiaison17getEntityResolverEv(%"class.xalanc_1_10::XalanSourceTreeParserLiaison"* %this) unnamed_addr #6 align 2 !dbg !4652 {
entry:
  %this.addr = alloca %"class.xalanc_1_10::XalanSourceTreeParserLiaison"*, align 8
  store %"class.xalanc_1_10::XalanSourceTreeParserLiaison"* %this, %"class.xalanc_1_10::XalanSourceTreeParserLiaison"** %this.addr, align 8
  call void @llvm.dbg.declare(metadata %"class.xalanc_1_10::XalanSourceTreeParserLiaison"** %this.addr, metadata !4653, metadata !DIExpression()), !dbg !4654
  %this1 = load %"class.xalanc_1_10::XalanSourceTreeParserLiaison"*, %"class.xalanc_1_10::XalanSourceTreeParserLiaison"** %this.addr, align 8
  %m_xercesParserLiaison = getelementptr inbounds %"class.xalanc_1_10::XalanSourceTreeParserLiaison", %"class.xalanc_1_10::XalanSourceTreeParserLiaison"* %this1, i32 0, i32 1, !dbg !4655
  %call = call %"class.xercesc_2_7::EntityResolver"* @_ZNK11xalanc_1_1019XercesParserLiaison17getEntityResolverEv(%"class.xalanc_1_10::XercesParserLiaison"* %m_xercesParserLiaison), !dbg !4656
  ret %"class.xercesc_2_7::EntityResolver"* %call, !dbg !4657
}

declare dso_local %"class.xercesc_2_7::EntityResolver"* @_ZNK11xalanc_1_1019XercesParserLiaison17getEntityResolverEv(%"class.xalanc_1_10::XercesParserLiaison"*) unnamed_addr #7

; Function Attrs: noinline uwtable
define dso_local void @_ZN11xalanc_1_1028XalanSourceTreeParserLiaison17setEntityResolverEPN11xercesc_2_714EntityResolverE(%"class.xalanc_1_10::XalanSourceTreeParserLiaison"* %this, %"class.xercesc_2_7::EntityResolver"* %resolver) unnamed_addr #6 align 2 !dbg !4658 {
entry:
  %this.addr = alloca %"class.xalanc_1_10::XalanSourceTreeParserLiaison"*, align 8
  %resolver.addr = alloca %"class.xercesc_2_7::EntityResolver"*, align 8
  store %"class.xalanc_1_10::XalanSourceTreeParserLiaison"* %this, %"class.xalanc_1_10::XalanSourceTreeParserLiaison"** %this.addr, align 8
  call void @llvm.dbg.declare(metadata %"class.xalanc_1_10::XalanSourceTreeParserLiaison"** %this.addr, metadata !4659, metadata !DIExpression()), !dbg !4660
  store %"class.xercesc_2_7::EntityResolver"* %resolver, %"class.xercesc_2_7::EntityResolver"** %resolver.addr, align 8
  call void @llvm.dbg.declare(metadata %"class.xercesc_2_7::EntityResolver"** %resolver.addr, metadata !4661, metadata !DIExpression()), !dbg !4662
  %this1 = load %"class.xalanc_1_10::XalanSourceTreeParserLiaison"*, %"class.xalanc_1_10::XalanSourceTreeParserLiaison"** %this.addr, align 8
  %m_xercesParserLiaison = getelementptr inbounds %"class.xalanc_1_10::XalanSourceTreeParserLiaison", %"class.xalanc_1_10::XalanSourceTreeParserLiaison"* %this1, i32 0, i32 1, !dbg !4663
  %0 = load %"class.xercesc_2_7::EntityResolver"*, %"class.xercesc_2_7::EntityResolver"** %resolver.addr, align 8, !dbg !4664
  call void @_ZN11xalanc_1_1019XercesParserLiaison17setEntityResolverEPN11xercesc_2_714EntityResolverE(%"class.xalanc_1_10::XercesParserLiaison"* %m_xercesParserLiaison, %"class.xercesc_2_7::EntityResolver"* %0), !dbg !4665
  ret void, !dbg !4666
}

declare dso_local void @_ZN11xalanc_1_1019XercesParserLiaison17setEntityResolverEPN11xercesc_2_714EntityResolverE(%"class.xalanc_1_10::XercesParserLiaison"*, %"class.xercesc_2_7::EntityResolver"*) unnamed_addr #7

; Function Attrs: noinline uwtable
define dso_local i16* @_ZNK11xalanc_1_1028XalanSourceTreeParserLiaison25getExternalSchemaLocationEv(%"class.xalanc_1_10::XalanSourceTreeParserLiaison"* %this) unnamed_addr #6 align 2 !dbg !4667 {
entry:
  %this.addr = alloca %"class.xalanc_1_10::XalanSourceTreeParserLiaison"*, align 8
  store %"class.xalanc_1_10::XalanSourceTreeParserLiaison"* %this, %"class.xalanc_1_10::XalanSourceTreeParserLiaison"** %this.addr, align 8
  call void @llvm.dbg.declare(metadata %"class.xalanc_1_10::XalanSourceTreeParserLiaison"** %this.addr, metadata !4668, metadata !DIExpression()), !dbg !4669
  %this1 = load %"class.xalanc_1_10::XalanSourceTreeParserLiaison"*, %"class.xalanc_1_10::XalanSourceTreeParserLiaison"** %this.addr, align 8
  %m_xercesParserLiaison = getelementptr inbounds %"class.xalanc_1_10::XalanSourceTreeParserLiaison", %"class.xalanc_1_10::XalanSourceTreeParserLiaison"* %this1, i32 0, i32 1, !dbg !4670
  %call = call i16* @_ZNK11xalanc_1_1019XercesParserLiaison25getExternalSchemaLocationEv(%"class.xalanc_1_10::XercesParserLiaison"* %m_xercesParserLiaison), !dbg !4671
  ret i16* %call, !dbg !4672
}

declare dso_local i16* @_ZNK11xalanc_1_1019XercesParserLiaison25getExternalSchemaLocationEv(%"class.xalanc_1_10::XercesParserLiaison"*) unnamed_addr #7

; Function Attrs: noinline uwtable
define dso_local void @_ZN11xalanc_1_1028XalanSourceTreeParserLiaison25setExternalSchemaLocationEPKt(%"class.xalanc_1_10::XalanSourceTreeParserLiaison"* %this, i16* %location) unnamed_addr #6 align 2 !dbg !4673 {
entry:
  %this.addr = alloca %"class.xalanc_1_10::XalanSourceTreeParserLiaison"*, align 8
  %location.addr = alloca i16*, align 8
  store %"class.xalanc_1_10::XalanSourceTreeParserLiaison"* %this, %"class.xalanc_1_10::XalanSourceTreeParserLiaison"** %this.addr, align 8
  call void @llvm.dbg.declare(metadata %"class.xalanc_1_10::XalanSourceTreeParserLiaison"** %this.addr, metadata !4674, metadata !DIExpression()), !dbg !4675
  store i16* %location, i16** %location.addr, align 8
  call void @llvm.dbg.declare(metadata i16** %location.addr, metadata !4676, metadata !DIExpression()), !dbg !4677
  %this1 = load %"class.xalanc_1_10::XalanSourceTreeParserLiaison"*, %"class.xalanc_1_10::XalanSourceTreeParserLiaison"** %this.addr, align 8
  %m_xercesParserLiaison = getelementptr inbounds %"class.xalanc_1_10::XalanSourceTreeParserLiaison", %"class.xalanc_1_10::XalanSourceTreeParserLiaison"* %this1, i32 0, i32 1, !dbg !4678
  %0 = load i16*, i16** %location.addr, align 8, !dbg !4679
  call void @_ZN11xalanc_1_1019XercesParserLiaison25setExternalSchemaLocationEPKt(%"class.xalanc_1_10::XercesParserLiaison"* %m_xercesParserLiaison, i16* %0), !dbg !4680
  ret void, !dbg !4681
}

declare dso_local void @_ZN11xalanc_1_1019XercesParserLiaison25setExternalSchemaLocationEPKt(%"class.xalanc_1_10::XercesParserLiaison"*, i16*) unnamed_addr #7

; Function Attrs: noinline uwtable
define dso_local i16* @_ZNK11xalanc_1_1028XalanSourceTreeParserLiaison36getExternalNoNamespaceSchemaLocationEv(%"class.xalanc_1_10::XalanSourceTreeParserLiaison"* %this) unnamed_addr #6 align 2 !dbg !4682 {
entry:
  %this.addr = alloca %"class.xalanc_1_10::XalanSourceTreeParserLiaison"*, align 8
  store %"class.xalanc_1_10::XalanSourceTreeParserLiaison"* %this, %"class.xalanc_1_10::XalanSourceTreeParserLiaison"** %this.addr, align 8
  call void @llvm.dbg.declare(metadata %"class.xalanc_1_10::XalanSourceTreeParserLiaison"** %this.addr, metadata !4683, metadata !DIExpression()), !dbg !4684
  %this1 = load %"class.xalanc_1_10::XalanSourceTreeParserLiaison"*, %"class.xalanc_1_10::XalanSourceTreeParserLiaison"** %this.addr, align 8
  %m_xercesParserLiaison = getelementptr inbounds %"class.xalanc_1_10::XalanSourceTreeParserLiaison", %"class.xalanc_1_10::XalanSourceTreeParserLiaison"* %this1, i32 0, i32 1, !dbg !4685
  %call = call i16* @_ZNK11xalanc_1_1019XercesParserLiaison36getExternalNoNamespaceSchemaLocationEv(%"class.xalanc_1_10::XercesParserLiaison"* %m_xercesParserLiaison), !dbg !4686
  ret i16* %call, !dbg !4687
}

declare dso_local i16* @_ZNK11xalanc_1_1019XercesParserLiaison36getExternalNoNamespaceSchemaLocationEv(%"class.xalanc_1_10::XercesParserLiaison"*) unnamed_addr #7

; Function Attrs: noinline uwtable
define dso_local void @_ZN11xalanc_1_1028XalanSourceTreeParserLiaison36setExternalNoNamespaceSchemaLocationEPKt(%"class.xalanc_1_10::XalanSourceTreeParserLiaison"* %this, i16* %location) unnamed_addr #6 align 2 !dbg !4688 {
entry:
  %this.addr = alloca %"class.xalanc_1_10::XalanSourceTreeParserLiaison"*, align 8
  %location.addr = alloca i16*, align 8
  store %"class.xalanc_1_10::XalanSourceTreeParserLiaison"* %this, %"class.xalanc_1_10::XalanSourceTreeParserLiaison"** %this.addr, align 8
  call void @llvm.dbg.declare(metadata %"class.xalanc_1_10::XalanSourceTreeParserLiaison"** %this.addr, metadata !4689, metadata !DIExpression()), !dbg !4690
  store i16* %location, i16** %location.addr, align 8
  call void @llvm.dbg.declare(metadata i16** %location.addr, metadata !4691, metadata !DIExpression()), !dbg !4692
  %this1 = load %"class.xalanc_1_10::XalanSourceTreeParserLiaison"*, %"class.xalanc_1_10::XalanSourceTreeParserLiaison"** %this.addr, align 8
  %m_xercesParserLiaison = getelementptr inbounds %"class.xalanc_1_10::XalanSourceTreeParserLiaison", %"class.xalanc_1_10::XalanSourceTreeParserLiaison"* %this1, i32 0, i32 1, !dbg !4693
  %0 = load i16*, i16** %location.addr, align 8, !dbg !4694
  call void @_ZN11xalanc_1_1019XercesParserLiaison36setExternalNoNamespaceSchemaLocationEPKt(%"class.xalanc_1_10::XercesParserLiaison"* %m_xercesParserLiaison, i16* %0), !dbg !4695
  ret void, !dbg !4696
}

declare dso_local void @_ZN11xalanc_1_1019XercesParserLiaison36setExternalNoNamespaceSchemaLocationEPKt(%"class.xalanc_1_10::XercesParserLiaison"*, i16*) unnamed_addr #7

; Function Attrs: noinline uwtable
define linkonce_odr dso_local void @_ZNK11xalanc_1_108XalanMapIPKNS_13XalanDocumentEPNS_23XalanSourceTreeDocumentENS_17XalanMapKeyTraitsIS3_EEE4findERKS3_(%"struct.xalanc_1_10::XalanMapIterator.55"* noalias sret %agg.result, %"class.xalanc_1_10::XalanMap.9"* %this, %"class.xalanc_1_10::XalanDocument"** dereferenceable(8) %key) #6 comdat align 2 !dbg !4697 {
entry:
  %result.ptr = alloca i8*, align 8
  %this.addr = alloca %"class.xalanc_1_10::XalanMap.9"*, align 8
  %key.addr = alloca %"class.xalanc_1_10::XalanDocument"**, align 8
  %ref.tmp = alloca %"struct.xalanc_1_10::XalanMapIterator", align 8
  %0 = bitcast %"struct.xalanc_1_10::XalanMapIterator.55"* %agg.result to i8*
  store i8* %0, i8** %result.ptr, align 8
  store %"class.xalanc_1_10::XalanMap.9"* %this, %"class.xalanc_1_10::XalanMap.9"** %this.addr, align 8
  call void @llvm.dbg.declare(metadata %"class.xalanc_1_10::XalanMap.9"** %this.addr, metadata !4698, metadata !DIExpression()), !dbg !4700
  store %"class.xalanc_1_10::XalanDocument"** %key, %"class.xalanc_1_10::XalanDocument"*** %key.addr, align 8
  call void @llvm.dbg.declare(metadata %"class.xalanc_1_10::XalanDocument"*** %key.addr, metadata !4701, metadata !DIExpression()), !dbg !4702
  %this1 = load %"class.xalanc_1_10::XalanMap.9"*, %"class.xalanc_1_10::XalanMap.9"** %this.addr, align 8
  %1 = load %"class.xalanc_1_10::XalanDocument"**, %"class.xalanc_1_10::XalanDocument"*** %key.addr, align 8, !dbg !4703
  call void @_ZN11xalanc_1_108XalanMapIPKNS_13XalanDocumentEPNS_23XalanSourceTreeDocumentENS_17XalanMapKeyTraitsIS3_EEE4findERKS3_(%"struct.xalanc_1_10::XalanMapIterator"* sret %ref.tmp, %"class.xalanc_1_10::XalanMap.9"* %this1, %"class.xalanc_1_10::XalanDocument"** dereferenceable(8) %1), !dbg !4704
  call void @_ZN11xalanc_1_1016XalanMapIteratorINS_27XalanMapConstIteratorTraitsISt4pairIKPKNS_13XalanDocumentEPNS_23XalanSourceTreeDocumentEEEENS_21XalanListIteratorBaseINS_23XalanListIteratorTraitsINS_8XalanMapIS5_S8_NS_17XalanMapKeyTraitsIS5_EEE5EntryEEENS_9XalanListISH_E4NodeEEEEC2ERKNS0_INS_22XalanMapIteratorTraitsIS9_EESM_EE(%"struct.xalanc_1_10::XalanMapIterator.55"* %agg.result, %"struct.xalanc_1_10::XalanMapIterator"* dereferenceable(8) %ref.tmp), !dbg !4705
  ret void, !dbg !4706
}

; Function Attrs: noinline uwtable
define linkonce_odr dso_local zeroext i1 @_ZNK11xalanc_1_1016XalanMapIteratorINS_27XalanMapConstIteratorTraitsISt4pairIKPKNS_13XalanDocumentEPNS_23XalanSourceTreeDocumentEEEENS_21XalanListIteratorBaseINS_23XalanListIteratorTraitsINS_8XalanMapIS5_S8_NS_17XalanMapKeyTraitsIS5_EEE5EntryEEENS_9XalanListISH_E4NodeEEEEneERKSN_(%"struct.xalanc_1_10::XalanMapIterator.55"* %this, %"struct.xalanc_1_10::XalanMapIterator.55"* dereferenceable(8) %theRhs) #6 comdat align 2 !dbg !4707 {
entry:
  %this.addr = alloca %"struct.xalanc_1_10::XalanMapIterator.55"*, align 8
  %theRhs.addr = alloca %"struct.xalanc_1_10::XalanMapIterator.55"*, align 8
  store %"struct.xalanc_1_10::XalanMapIterator.55"* %this, %"struct.xalanc_1_10::XalanMapIterator.55"** %this.addr, align 8
  call void @llvm.dbg.declare(metadata %"struct.xalanc_1_10::XalanMapIterator.55"** %this.addr, metadata !4708, metadata !DIExpression()), !dbg !4710
  store %"struct.xalanc_1_10::XalanMapIterator.55"* %theRhs, %"struct.xalanc_1_10::XalanMapIterator.55"** %theRhs.addr, align 8
  call void @llvm.dbg.declare(metadata %"struct.xalanc_1_10::XalanMapIterator.55"** %theRhs.addr, metadata !4711, metadata !DIExpression()), !dbg !4712
  %this1 = load %"struct.xalanc_1_10::XalanMapIterator.55"*, %"struct.xalanc_1_10::XalanMapIterator.55"** %this.addr, align 8
  %0 = load %"struct.xalanc_1_10::XalanMapIterator.55"*, %"struct.xalanc_1_10::XalanMapIterator.55"** %theRhs.addr, align 8, !dbg !4713
  %call = call zeroext i1 @_ZNK11xalanc_1_1016XalanMapIteratorINS_27XalanMapConstIteratorTraitsISt4pairIKPKNS_13XalanDocumentEPNS_23XalanSourceTreeDocumentEEEENS_21XalanListIteratorBaseINS_23XalanListIteratorTraitsINS_8XalanMapIS5_S8_NS_17XalanMapKeyTraitsIS5_EEE5EntryEEENS_9XalanListISH_E4NodeEEEEeqERKSN_(%"struct.xalanc_1_10::XalanMapIterator.55"* %0, %"struct.xalanc_1_10::XalanMapIterator.55"* dereferenceable(8) %this1), !dbg !4714
  %lnot = xor i1 %call, true, !dbg !4715
  ret i1 %lnot, !dbg !4716
}

; Function Attrs: noinline uwtable
define linkonce_odr dso_local void @_ZNK11xalanc_1_108XalanMapIPKNS_13XalanDocumentEPNS_23XalanSourceTreeDocumentENS_17XalanMapKeyTraitsIS3_EEE3endEv(%"struct.xalanc_1_10::XalanMapIterator.55"* noalias sret %agg.result, %"class.xalanc_1_10::XalanMap.9"* %this) #6 comdat align 2 !dbg !4717 {
entry:
  %result.ptr = alloca i8*, align 8
  %this.addr = alloca %"class.xalanc_1_10::XalanMap.9"*, align 8
  %ref.tmp = alloca %"struct.xalanc_1_10::XalanMapIterator", align 8
  %0 = bitcast %"struct.xalanc_1_10::XalanMapIterator.55"* %agg.result to i8*
  store i8* %0, i8** %result.ptr, align 8
  store %"class.xalanc_1_10::XalanMap.9"* %this, %"class.xalanc_1_10::XalanMap.9"** %this.addr, align 8
  call void @llvm.dbg.declare(metadata %"class.xalanc_1_10::XalanMap.9"** %this.addr, metadata !4718, metadata !DIExpression()), !dbg !4719
  %this1 = load %"class.xalanc_1_10::XalanMap.9"*, %"class.xalanc_1_10::XalanMap.9"** %this.addr, align 8
  call void @_ZN11xalanc_1_108XalanMapIPKNS_13XalanDocumentEPNS_23XalanSourceTreeDocumentENS_17XalanMapKeyTraitsIS3_EEE3endEv(%"struct.xalanc_1_10::XalanMapIterator"* sret %ref.tmp, %"class.xalanc_1_10::XalanMap.9"* %this1), !dbg !4720
  call void @_ZN11xalanc_1_1016XalanMapIteratorINS_27XalanMapConstIteratorTraitsISt4pairIKPKNS_13XalanDocumentEPNS_23XalanSourceTreeDocumentEEEENS_21XalanListIteratorBaseINS_23XalanListIteratorTraitsINS_8XalanMapIS5_S8_NS_17XalanMapKeyTraitsIS5_EEE5EntryEEENS_9XalanListISH_E4NodeEEEEC2ERKNS0_INS_22XalanMapIteratorTraitsIS9_EESM_EE(%"struct.xalanc_1_10::XalanMapIterator.55"* %agg.result, %"struct.xalanc_1_10::XalanMapIterator"* dereferenceable(8) %ref.tmp), !dbg !4721
  ret void, !dbg !4722
}

; Function Attrs: noinline nounwind uwtable
define linkonce_odr dso_local dereferenceable(16) %"struct.std::pair"* @_ZNK11xalanc_1_1016XalanMapIteratorINS_27XalanMapConstIteratorTraitsISt4pairIKPKNS_13XalanDocumentEPNS_23XalanSourceTreeDocumentEEEENS_21XalanListIteratorBaseINS_23XalanListIteratorTraitsINS_8XalanMapIS5_S8_NS_17XalanMapKeyTraitsIS5_EEE5EntryEEENS_9XalanListISH_E4NodeEEEEdeEv(%"struct.xalanc_1_10::XalanMapIterator.55"* %this) #1 comdat align 2 !dbg !4723 {
entry:
  %this.addr = alloca %"struct.xalanc_1_10::XalanMapIterator.55"*, align 8
  store %"struct.xalanc_1_10::XalanMapIterator.55"* %this, %"struct.xalanc_1_10::XalanMapIterator.55"** %this.addr, align 8
  call void @llvm.dbg.declare(metadata %"struct.xalanc_1_10::XalanMapIterator.55"** %this.addr, metadata !4724, metadata !DIExpression()), !dbg !4725
  %this1 = load %"struct.xalanc_1_10::XalanMapIterator.55"*, %"struct.xalanc_1_10::XalanMapIterator.55"** %this.addr, align 8
  %baseIterator = getelementptr inbounds %"struct.xalanc_1_10::XalanMapIterator.55", %"struct.xalanc_1_10::XalanMapIterator.55"* %this1, i32 0, i32 0, !dbg !4726
  %call = call %"struct.xalanc_1_10::XalanMap<const xalanc_1_10::XalanDocument *, xalanc_1_10::XalanSourceTreeDocument *, xalanc_1_10::XalanMapKeyTraits<const xalanc_1_10::XalanDocument *> >::Entry"* @_ZNK11xalanc_1_1021XalanListIteratorBaseINS_23XalanListIteratorTraitsINS_8XalanMapIPKNS_13XalanDocumentEPNS_23XalanSourceTreeDocumentENS_17XalanMapKeyTraitsIS5_EEE5EntryEEENS_9XalanListISB_E4NodeEEptEv(%"struct.xalanc_1_10::XalanListIteratorBase.52"* %baseIterator), !dbg !4726
  %value = getelementptr inbounds %"struct.xalanc_1_10::XalanMap<const xalanc_1_10::XalanDocument *, xalanc_1_10::XalanSourceTreeDocument *, xalanc_1_10::XalanMapKeyTraits<const xalanc_1_10::XalanDocument *> >::Entry", %"struct.xalanc_1_10::XalanMap<const xalanc_1_10::XalanDocument *, xalanc_1_10::XalanSourceTreeDocument *, xalanc_1_10::XalanMapKeyTraits<const xalanc_1_10::XalanDocument *> >::Entry"* %call, i32 0, i32 0, !dbg !4727
  %0 = load %"struct.std::pair"*, %"struct.std::pair"** %value, align 8, !dbg !4727
  ret %"struct.std::pair"* %0, !dbg !4728
}

declare dso_local %"class.xalanc_1_10::XalanSourceTreeDocument"* @_ZN11xalanc_1_1023XalanSourceTreeDocument6createERN11xercesc_2_713MemoryManagerEbmmmmmm(%"class.xercesc_2_7::MemoryManager"* dereferenceable(8), i1 zeroext, i64, i64, i64, i64, i64, i64) #7

; Function Attrs: noinline uwtable
define linkonce_odr dso_local dereferenceable(8) %"class.xalanc_1_10::XalanSourceTreeDocument"** @_ZN11xalanc_1_108XalanMapIPKNS_13XalanDocumentEPNS_23XalanSourceTreeDocumentENS_17XalanMapKeyTraitsIS3_EEEixERKS3_(%"class.xalanc_1_10::XalanMap.9"* %this, %"class.xalanc_1_10::XalanDocument"** dereferenceable(8) %key) #6 comdat align 2 !dbg !4729 {
entry:
  %this.addr = alloca %"class.xalanc_1_10::XalanMap.9"*, align 8
  %key.addr = alloca %"class.xalanc_1_10::XalanDocument"**, align 8
  %pos = alloca %"struct.xalanc_1_10::XalanMapIterator", align 8
  %ref.tmp = alloca %"struct.xalanc_1_10::XalanMapIterator", align 8
  %ref.tmp2 = alloca %"struct.xalanc_1_10::XalanMapIterator", align 8
  store %"class.xalanc_1_10::XalanMap.9"* %this, %"class.xalanc_1_10::XalanMap.9"** %this.addr, align 8
  call void @llvm.dbg.declare(metadata %"class.xalanc_1_10::XalanMap.9"** %this.addr, metadata !4730, metadata !DIExpression()), !dbg !4731
  store %"class.xalanc_1_10::XalanDocument"** %key, %"class.xalanc_1_10::XalanDocument"*** %key.addr, align 8
  call void @llvm.dbg.declare(metadata %"class.xalanc_1_10::XalanDocument"*** %key.addr, metadata !4732, metadata !DIExpression()), !dbg !4733
  %this1 = load %"class.xalanc_1_10::XalanMap.9"*, %"class.xalanc_1_10::XalanMap.9"** %this.addr, align 8
  call void @llvm.dbg.declare(metadata %"struct.xalanc_1_10::XalanMapIterator"* %pos, metadata !4734, metadata !DIExpression()), !dbg !4735
  %0 = load %"class.xalanc_1_10::XalanDocument"**, %"class.xalanc_1_10::XalanDocument"*** %key.addr, align 8, !dbg !4736
  call void @_ZN11xalanc_1_108XalanMapIPKNS_13XalanDocumentEPNS_23XalanSourceTreeDocumentENS_17XalanMapKeyTraitsIS3_EEE4findERKS3_(%"struct.xalanc_1_10::XalanMapIterator"* sret %pos, %"class.xalanc_1_10::XalanMap.9"* %this1, %"class.xalanc_1_10::XalanDocument"** dereferenceable(8) %0), !dbg !4737
  call void @_ZN11xalanc_1_108XalanMapIPKNS_13XalanDocumentEPNS_23XalanSourceTreeDocumentENS_17XalanMapKeyTraitsIS3_EEE3endEv(%"struct.xalanc_1_10::XalanMapIterator"* sret %ref.tmp, %"class.xalanc_1_10::XalanMap.9"* %this1), !dbg !4738
  %call = call zeroext i1 @_ZNK11xalanc_1_1016XalanMapIteratorINS_22XalanMapIteratorTraitsISt4pairIKPKNS_13XalanDocumentEPNS_23XalanSourceTreeDocumentEEEENS_21XalanListIteratorBaseINS_23XalanListIteratorTraitsINS_8XalanMapIS5_S8_NS_17XalanMapKeyTraitsIS5_EEE5EntryEEENS_9XalanListISH_E4NodeEEEEeqERKSN_(%"struct.xalanc_1_10::XalanMapIterator"* %pos, %"struct.xalanc_1_10::XalanMapIterator"* dereferenceable(8) %ref.tmp), !dbg !4740
  br i1 %call, label %if.then, label %if.end, !dbg !4741

if.then:                                          ; preds = %entry
  %1 = load %"class.xalanc_1_10::XalanDocument"**, %"class.xalanc_1_10::XalanDocument"*** %key.addr, align 8, !dbg !4742
  call void @_ZN11xalanc_1_108XalanMapIPKNS_13XalanDocumentEPNS_23XalanSourceTreeDocumentENS_17XalanMapKeyTraitsIS3_EEE13doCreateEntryERKS3_PKS5_(%"struct.xalanc_1_10::XalanMapIterator"* sret %ref.tmp2, %"class.xalanc_1_10::XalanMap.9"* %this1, %"class.xalanc_1_10::XalanDocument"** dereferenceable(8) %1, %"class.xalanc_1_10::XalanSourceTreeDocument"** null), !dbg !4744
  %call3 = call dereferenceable(8) %"struct.xalanc_1_10::XalanMapIterator"* @_ZN11xalanc_1_1016XalanMapIteratorINS_22XalanMapIteratorTraitsISt4pairIKPKNS_13XalanDocumentEPNS_23XalanSourceTreeDocumentEEEENS_21XalanListIteratorBaseINS_23XalanListIteratorTraitsINS_8XalanMapIS5_S8_NS_17XalanMapKeyTraitsIS5_EEE5EntryEEENS_9XalanListISH_E4NodeEEEEaSERKSN_(%"struct.xalanc_1_10::XalanMapIterator"* %pos, %"struct.xalanc_1_10::XalanMapIterator"* dereferenceable(8) %ref.tmp2), !dbg !4745
  br label %if.end, !dbg !4746

if.end:                                           ; preds = %if.then, %entry
  %call4 = call dereferenceable(16) %"struct.std::pair"* @_ZNK11xalanc_1_1016XalanMapIteratorINS_22XalanMapIteratorTraitsISt4pairIKPKNS_13XalanDocumentEPNS_23XalanSourceTreeDocumentEEEENS_21XalanListIteratorBaseINS_23XalanListIteratorTraitsINS_8XalanMapIS5_S8_NS_17XalanMapKeyTraitsIS5_EEE5EntryEEENS_9XalanListISH_E4NodeEEEEdeEv(%"struct.xalanc_1_10::XalanMapIterator"* %pos), !dbg !4747
  %second = getelementptr inbounds %"struct.std::pair", %"struct.std::pair"* %call4, i32 0, i32 1, !dbg !4748
  ret %"class.xalanc_1_10::XalanSourceTreeDocument"** %second, !dbg !4749
}

; Function Attrs: noinline uwtable
define dso_local %"class.xercesc_2_7::SAX2XMLReader"* @_ZN11xalanc_1_1028XalanSourceTreeParserLiaison12createReaderEv(%"class.xalanc_1_10::XalanSourceTreeParserLiaison"* %this) unnamed_addr #6 align 2 personality i8* bitcast (i32 (...)* @__gxx_personality_v0 to i8*) !dbg !4750 {
entry:
  %this.addr = alloca %"class.xalanc_1_10::XalanSourceTreeParserLiaison"*, align 8
  %theReader = alloca %"class.xalanc_1_10::XalanAutoPtr", align 8
  %exn.slot = alloca i8*
  %ehselector.slot = alloca i32
  store %"class.xalanc_1_10::XalanSourceTreeParserLiaison"* %this, %"class.xalanc_1_10::XalanSourceTreeParserLiaison"** %this.addr, align 8
  call void @llvm.dbg.declare(metadata %"class.xalanc_1_10::XalanSourceTreeParserLiaison"** %this.addr, metadata !4751, metadata !DIExpression()), !dbg !4752
  %this1 = load %"class.xalanc_1_10::XalanSourceTreeParserLiaison"*, %"class.xalanc_1_10::XalanSourceTreeParserLiaison"** %this.addr, align 8
  call void @llvm.dbg.declare(metadata %"class.xalanc_1_10::XalanAutoPtr"* %theReader, metadata !4753, metadata !DIExpression()), !dbg !4788
  %0 = bitcast %"class.xalanc_1_10::XalanSourceTreeParserLiaison"* %this1 to %"class.xercesc_2_7::MemoryManager"* (%"class.xalanc_1_10::XalanSourceTreeParserLiaison"*)***, !dbg !4789
  %vtable = load %"class.xercesc_2_7::MemoryManager"* (%"class.xalanc_1_10::XalanSourceTreeParserLiaison"*)**, %"class.xercesc_2_7::MemoryManager"* (%"class.xalanc_1_10::XalanSourceTreeParserLiaison"*)*** %0, align 8, !dbg !4789
  %vfn = getelementptr inbounds %"class.xercesc_2_7::MemoryManager"* (%"class.xalanc_1_10::XalanSourceTreeParserLiaison"*)*, %"class.xercesc_2_7::MemoryManager"* (%"class.xalanc_1_10::XalanSourceTreeParserLiaison"*)** %vtable, i64 4, !dbg !4789
  %1 = load %"class.xercesc_2_7::MemoryManager"* (%"class.xalanc_1_10::XalanSourceTreeParserLiaison"*)*, %"class.xercesc_2_7::MemoryManager"* (%"class.xalanc_1_10::XalanSourceTreeParserLiaison"*)** %vfn, align 8, !dbg !4789
  %call = call dereferenceable(8) %"class.xercesc_2_7::MemoryManager"* %1(%"class.xalanc_1_10::XalanSourceTreeParserLiaison"* %this1), !dbg !4789
  %call2 = call %"class.xercesc_2_7::SAX2XMLReader"* @_ZN11xercesc_2_716XMLReaderFactory15createXMLReaderEPNS_13MemoryManagerEPNS_14XMLGrammarPoolE(%"class.xercesc_2_7::MemoryManager"* %call, %"class.xercesc_2_7::XMLGrammarPool"* null), !dbg !4790
  call void @_ZN11xalanc_1_1012XalanAutoPtrIN11xercesc_2_713SAX2XMLReaderEEC2EPS2_(%"class.xalanc_1_10::XalanAutoPtr"* %theReader, %"class.xercesc_2_7::SAX2XMLReader"* %call2), !dbg !4788
  %call3 = invoke %"class.xercesc_2_7::SAX2XMLReader"* @_ZNK11xalanc_1_1012XalanAutoPtrIN11xercesc_2_713SAX2XMLReaderEEptEv(%"class.xalanc_1_10::XalanAutoPtr"* %theReader)
          to label %invoke.cont unwind label %lpad, !dbg !4791

invoke.cont:                                      ; preds = %entry
  %2 = bitcast %"class.xercesc_2_7::SAX2XMLReader"* %call3 to void (%"class.xercesc_2_7::SAX2XMLReader"*, i16*, i1)***, !dbg !4792
  %vtable4 = load void (%"class.xercesc_2_7::SAX2XMLReader"*, i16*, i1)**, void (%"class.xercesc_2_7::SAX2XMLReader"*, i16*, i1)*** %2, align 8, !dbg !4792
  %vfn5 = getelementptr inbounds void (%"class.xercesc_2_7::SAX2XMLReader"*, i16*, i1)*, void (%"class.xercesc_2_7::SAX2XMLReader"*, i16*, i1)** %vtable4, i64 12, !dbg !4792
  %3 = load void (%"class.xercesc_2_7::SAX2XMLReader"*, i16*, i1)*, void (%"class.xercesc_2_7::SAX2XMLReader"*, i16*, i1)** %vfn5, align 8, !dbg !4792
  invoke void %3(%"class.xercesc_2_7::SAX2XMLReader"* %call3, i16* getelementptr inbounds ([39 x i16], [39 x i16]* @_ZN11xalanc_1_1028XalanSourceTreeParserLiaison18s_namespacesStringE, i64 0, i64 0), i1 zeroext true)
          to label %invoke.cont6 unwind label %lpad, !dbg !4792

invoke.cont6:                                     ; preds = %invoke.cont
  %call8 = invoke %"class.xercesc_2_7::SAX2XMLReader"* @_ZNK11xalanc_1_1012XalanAutoPtrIN11xercesc_2_713SAX2XMLReaderEEptEv(%"class.xalanc_1_10::XalanAutoPtr"* %theReader)
          to label %invoke.cont7 unwind label %lpad, !dbg !4793

invoke.cont7:                                     ; preds = %invoke.cont6
  %4 = bitcast %"class.xercesc_2_7::SAX2XMLReader"* %call8 to void (%"class.xercesc_2_7::SAX2XMLReader"*, i16*, i1)***, !dbg !4794
  %vtable9 = load void (%"class.xercesc_2_7::SAX2XMLReader"*, i16*, i1)**, void (%"class.xercesc_2_7::SAX2XMLReader"*, i16*, i1)*** %4, align 8, !dbg !4794
  %vfn10 = getelementptr inbounds void (%"class.xercesc_2_7::SAX2XMLReader"*, i16*, i1)*, void (%"class.xercesc_2_7::SAX2XMLReader"*, i16*, i1)** %vtable9, i64 12, !dbg !4794
  %5 = load void (%"class.xercesc_2_7::SAX2XMLReader"*, i16*, i1)*, void (%"class.xercesc_2_7::SAX2XMLReader"*, i16*, i1)** %vfn10, align 8, !dbg !4794
  invoke void %5(%"class.xercesc_2_7::SAX2XMLReader"* %call8, i16* getelementptr inbounds ([47 x i16], [47 x i16]* @_ZN11xalanc_1_1028XalanSourceTreeParserLiaison25s_namespacePrefixesStringE, i64 0, i64 0), i1 zeroext true)
          to label %invoke.cont11 unwind label %lpad, !dbg !4794

invoke.cont11:                                    ; preds = %invoke.cont7
  %call13 = invoke %"class.xercesc_2_7::SAX2XMLReader"* @_ZN11xalanc_1_1012XalanAutoPtrIN11xercesc_2_713SAX2XMLReaderEE7releaseEv(%"class.xalanc_1_10::XalanAutoPtr"* %theReader)
          to label %invoke.cont12 unwind label %lpad, !dbg !4795

invoke.cont12:                                    ; preds = %invoke.cont11
  call void @_ZN11xalanc_1_1012XalanAutoPtrIN11xercesc_2_713SAX2XMLReaderEED2Ev(%"class.xalanc_1_10::XalanAutoPtr"* %theReader) #9, !dbg !4796
  ret %"class.xercesc_2_7::SAX2XMLReader"* %call13, !dbg !4796

lpad:                                             ; preds = %invoke.cont11, %invoke.cont7, %invoke.cont6, %invoke.cont, %entry
  %6 = landingpad { i8*, i32 }
          cleanup, !dbg !4796
  %7 = extractvalue { i8*, i32 } %6, 0, !dbg !4796
  store i8* %7, i8** %exn.slot, align 8, !dbg !4796
  %8 = extractvalue { i8*, i32 } %6, 1, !dbg !4796
  store i32 %8, i32* %ehselector.slot, align 4, !dbg !4796
  call void @_ZN11xalanc_1_1012XalanAutoPtrIN11xercesc_2_713SAX2XMLReaderEED2Ev(%"class.xalanc_1_10::XalanAutoPtr"* %theReader) #9, !dbg !4796
  br label %eh.resume, !dbg !4796

eh.resume:                                        ; preds = %lpad
  %exn = load i8*, i8** %exn.slot, align 8, !dbg !4796
  %sel = load i32, i32* %ehselector.slot, align 4, !dbg !4796
  %lpad.val = insertvalue { i8*, i32 } undef, i8* %exn, 0, !dbg !4796
  %lpad.val14 = insertvalue { i8*, i32 } %lpad.val, i32 %sel, 1, !dbg !4796
  resume { i8*, i32 } %lpad.val14, !dbg !4796
}

; Function Attrs: noinline uwtable
define linkonce_odr dso_local %"class.xercesc_2_7::SAX2XMLReader"* @_ZN11xercesc_2_716XMLReaderFactory15createXMLReaderEPNS_13MemoryManagerEPNS_14XMLGrammarPoolE(%"class.xercesc_2_7::MemoryManager"* %manager, %"class.xercesc_2_7::XMLGrammarPool"* %gramPool) #6 comdat align 2 personality i8* bitcast (i32 (...)* @__gxx_personality_v0 to i8*) !dbg !4797 {
entry:
  %manager.addr = alloca %"class.xercesc_2_7::MemoryManager"*, align 8
  %gramPool.addr = alloca %"class.xercesc_2_7::XMLGrammarPool"*, align 8
  %exn.slot = alloca i8*
  %ehselector.slot = alloca i32
  store %"class.xercesc_2_7::MemoryManager"* %manager, %"class.xercesc_2_7::MemoryManager"** %manager.addr, align 8
  call void @llvm.dbg.declare(metadata %"class.xercesc_2_7::MemoryManager"** %manager.addr, metadata !4821, metadata !DIExpression()), !dbg !4822
  store %"class.xercesc_2_7::XMLGrammarPool"* %gramPool, %"class.xercesc_2_7::XMLGrammarPool"** %gramPool.addr, align 8
  call void @llvm.dbg.declare(metadata %"class.xercesc_2_7::XMLGrammarPool"** %gramPool.addr, metadata !4823, metadata !DIExpression()), !dbg !4824
  %0 = load %"class.xercesc_2_7::MemoryManager"*, %"class.xercesc_2_7::MemoryManager"** %manager.addr, align 8, !dbg !4825
  %call = call i8* @_ZN11xercesc_2_77XMemorynwEmPNS_13MemoryManagerE(i64 248, %"class.xercesc_2_7::MemoryManager"* %0), !dbg !4826
  %1 = bitcast i8* %call to %"class.xercesc_2_7::SAX2XMLReaderImpl"*, !dbg !4826
  %2 = load %"class.xercesc_2_7::MemoryManager"*, %"class.xercesc_2_7::MemoryManager"** %manager.addr, align 8, !dbg !4827
  %3 = load %"class.xercesc_2_7::XMLGrammarPool"*, %"class.xercesc_2_7::XMLGrammarPool"** %gramPool.addr, align 8, !dbg !4828
  invoke void @_ZN11xercesc_2_717SAX2XMLReaderImplC1EPNS_13MemoryManagerEPNS_14XMLGrammarPoolE(%"class.xercesc_2_7::SAX2XMLReaderImpl"* %1, %"class.xercesc_2_7::MemoryManager"* %2, %"class.xercesc_2_7::XMLGrammarPool"* %3)
          to label %invoke.cont unwind label %lpad, !dbg !4829

invoke.cont:                                      ; preds = %entry
  %4 = bitcast %"class.xercesc_2_7::SAX2XMLReaderImpl"* %1 to %"class.xercesc_2_7::SAX2XMLReader"*, !dbg !4830
  ret %"class.xercesc_2_7::SAX2XMLReader"* %4, !dbg !4831

lpad:                                             ; preds = %entry
  %5 = landingpad { i8*, i32 }
          cleanup, !dbg !4832
  %6 = extractvalue { i8*, i32 } %5, 0, !dbg !4832
  store i8* %6, i8** %exn.slot, align 8, !dbg !4832
  %7 = extractvalue { i8*, i32 } %5, 1, !dbg !4832
  store i32 %7, i32* %ehselector.slot, align 4, !dbg !4832
  call void @_ZN11xercesc_2_77XMemorydlEPvPNS_13MemoryManagerE(i8* %call, %"class.xercesc_2_7::MemoryManager"* %0) #9, !dbg !4826
  br label %eh.resume, !dbg !4826

eh.resume:                                        ; preds = %lpad
  %exn = load i8*, i8** %exn.slot, align 8, !dbg !4826
  %sel = load i32, i32* %ehselector.slot, align 4, !dbg !4826
  %lpad.val = insertvalue { i8*, i32 } undef, i8* %exn, 0, !dbg !4826
  %lpad.val1 = insertvalue { i8*, i32 } %lpad.val, i32 %sel, 1, !dbg !4826
  resume { i8*, i32 } %lpad.val1, !dbg !4826
}

; Function Attrs: noinline nounwind uwtable
define linkonce_odr dso_local void @_ZN11xalanc_1_1012XalanAutoPtrIN11xercesc_2_713SAX2XMLReaderEEC2EPS2_(%"class.xalanc_1_10::XalanAutoPtr"* %this, %"class.xercesc_2_7::SAX2XMLReader"* %thePointer) unnamed_addr #1 comdat align 2 !dbg !4833 {
entry:
  %this.addr = alloca %"class.xalanc_1_10::XalanAutoPtr"*, align 8
  %thePointer.addr = alloca %"class.xercesc_2_7::SAX2XMLReader"*, align 8
  store %"class.xalanc_1_10::XalanAutoPtr"* %this, %"class.xalanc_1_10::XalanAutoPtr"** %this.addr, align 8
  call void @llvm.dbg.declare(metadata %"class.xalanc_1_10::XalanAutoPtr"** %this.addr, metadata !4834, metadata !DIExpression()), !dbg !4836
  store %"class.xercesc_2_7::SAX2XMLReader"* %thePointer, %"class.xercesc_2_7::SAX2XMLReader"** %thePointer.addr, align 8
  call void @llvm.dbg.declare(metadata %"class.xercesc_2_7::SAX2XMLReader"** %thePointer.addr, metadata !4837, metadata !DIExpression()), !dbg !4838
  %this1 = load %"class.xalanc_1_10::XalanAutoPtr"*, %"class.xalanc_1_10::XalanAutoPtr"** %this.addr, align 8
  %m_pointer = getelementptr inbounds %"class.xalanc_1_10::XalanAutoPtr", %"class.xalanc_1_10::XalanAutoPtr"* %this1, i32 0, i32 0, !dbg !4839
  %0 = load %"class.xercesc_2_7::SAX2XMLReader"*, %"class.xercesc_2_7::SAX2XMLReader"** %thePointer.addr, align 8, !dbg !4840
  store %"class.xercesc_2_7::SAX2XMLReader"* %0, %"class.xercesc_2_7::SAX2XMLReader"** %m_pointer, align 8, !dbg !4839
  ret void, !dbg !4841
}

; Function Attrs: noinline nounwind uwtable
define linkonce_odr dso_local %"class.xercesc_2_7::SAX2XMLReader"* @_ZNK11xalanc_1_1012XalanAutoPtrIN11xercesc_2_713SAX2XMLReaderEEptEv(%"class.xalanc_1_10::XalanAutoPtr"* %this) #1 comdat align 2 !dbg !4842 {
entry:
  %this.addr = alloca %"class.xalanc_1_10::XalanAutoPtr"*, align 8
  store %"class.xalanc_1_10::XalanAutoPtr"* %this, %"class.xalanc_1_10::XalanAutoPtr"** %this.addr, align 8
  call void @llvm.dbg.declare(metadata %"class.xalanc_1_10::XalanAutoPtr"** %this.addr, metadata !4843, metadata !DIExpression()), !dbg !4845
  %this1 = load %"class.xalanc_1_10::XalanAutoPtr"*, %"class.xalanc_1_10::XalanAutoPtr"** %this.addr, align 8
  %m_pointer = getelementptr inbounds %"class.xalanc_1_10::XalanAutoPtr", %"class.xalanc_1_10::XalanAutoPtr"* %this1, i32 0, i32 0, !dbg !4846
  %0 = load %"class.xercesc_2_7::SAX2XMLReader"*, %"class.xercesc_2_7::SAX2XMLReader"** %m_pointer, align 8, !dbg !4846
  ret %"class.xercesc_2_7::SAX2XMLReader"* %0, !dbg !4847
}

; Function Attrs: noinline nounwind uwtable
define linkonce_odr dso_local %"class.xercesc_2_7::SAX2XMLReader"* @_ZN11xalanc_1_1012XalanAutoPtrIN11xercesc_2_713SAX2XMLReaderEE7releaseEv(%"class.xalanc_1_10::XalanAutoPtr"* %this) #1 comdat align 2 !dbg !4848 {
entry:
  %this.addr = alloca %"class.xalanc_1_10::XalanAutoPtr"*, align 8
  %temp = alloca %"class.xercesc_2_7::SAX2XMLReader"*, align 8
  store %"class.xalanc_1_10::XalanAutoPtr"* %this, %"class.xalanc_1_10::XalanAutoPtr"** %this.addr, align 8
  call void @llvm.dbg.declare(metadata %"class.xalanc_1_10::XalanAutoPtr"** %this.addr, metadata !4849, metadata !DIExpression()), !dbg !4850
  %this1 = load %"class.xalanc_1_10::XalanAutoPtr"*, %"class.xalanc_1_10::XalanAutoPtr"** %this.addr, align 8
  call void @llvm.dbg.declare(metadata %"class.xercesc_2_7::SAX2XMLReader"** %temp, metadata !4851, metadata !DIExpression()), !dbg !4853
  %m_pointer = getelementptr inbounds %"class.xalanc_1_10::XalanAutoPtr", %"class.xalanc_1_10::XalanAutoPtr"* %this1, i32 0, i32 0, !dbg !4854
  %0 = load %"class.xercesc_2_7::SAX2XMLReader"*, %"class.xercesc_2_7::SAX2XMLReader"** %m_pointer, align 8, !dbg !4854
  store %"class.xercesc_2_7::SAX2XMLReader"* %0, %"class.xercesc_2_7::SAX2XMLReader"** %temp, align 8, !dbg !4853
  %m_pointer2 = getelementptr inbounds %"class.xalanc_1_10::XalanAutoPtr", %"class.xalanc_1_10::XalanAutoPtr"* %this1, i32 0, i32 0, !dbg !4855
  store %"class.xercesc_2_7::SAX2XMLReader"* null, %"class.xercesc_2_7::SAX2XMLReader"** %m_pointer2, align 8, !dbg !4856
  %1 = load %"class.xercesc_2_7::SAX2XMLReader"*, %"class.xercesc_2_7::SAX2XMLReader"** %temp, align 8, !dbg !4857
  ret %"class.xercesc_2_7::SAX2XMLReader"* %1, !dbg !4858
}

; Function Attrs: noinline nounwind uwtable
define linkonce_odr dso_local void @_ZN11xalanc_1_1012XalanAutoPtrIN11xercesc_2_713SAX2XMLReaderEED2Ev(%"class.xalanc_1_10::XalanAutoPtr"* %this) unnamed_addr #1 comdat align 2 !dbg !4859 {
entry:
  %this.addr = alloca %"class.xalanc_1_10::XalanAutoPtr"*, align 8
  store %"class.xalanc_1_10::XalanAutoPtr"* %this, %"class.xalanc_1_10::XalanAutoPtr"** %this.addr, align 8
  call void @llvm.dbg.declare(metadata %"class.xalanc_1_10::XalanAutoPtr"** %this.addr, metadata !4860, metadata !DIExpression()), !dbg !4861
  %this1 = load %"class.xalanc_1_10::XalanAutoPtr"*, %"class.xalanc_1_10::XalanAutoPtr"** %this.addr, align 8
  %m_pointer = getelementptr inbounds %"class.xalanc_1_10::XalanAutoPtr", %"class.xalanc_1_10::XalanAutoPtr"* %this1, i32 0, i32 0, !dbg !4862
  %0 = load %"class.xercesc_2_7::SAX2XMLReader"*, %"class.xercesc_2_7::SAX2XMLReader"** %m_pointer, align 8, !dbg !4862
  %cmp = icmp ne %"class.xercesc_2_7::SAX2XMLReader"* %0, null, !dbg !4865
  br i1 %cmp, label %if.then, label %if.end, !dbg !4866

if.then:                                          ; preds = %entry
  %m_pointer2 = getelementptr inbounds %"class.xalanc_1_10::XalanAutoPtr", %"class.xalanc_1_10::XalanAutoPtr"* %this1, i32 0, i32 0, !dbg !4867
  %1 = load %"class.xercesc_2_7::SAX2XMLReader"*, %"class.xercesc_2_7::SAX2XMLReader"** %m_pointer2, align 8, !dbg !4867
  %isnull = icmp eq %"class.xercesc_2_7::SAX2XMLReader"* %1, null, !dbg !4869
  br i1 %isnull, label %delete.end, label %delete.notnull, !dbg !4869

delete.notnull:                                   ; preds = %if.then
  %2 = bitcast %"class.xercesc_2_7::SAX2XMLReader"* %1 to void (%"class.xercesc_2_7::SAX2XMLReader"*)***, !dbg !4869
  %vtable = load void (%"class.xercesc_2_7::SAX2XMLReader"*)**, void (%"class.xercesc_2_7::SAX2XMLReader"*)*** %2, align 8, !dbg !4869
  %vfn = getelementptr inbounds void (%"class.xercesc_2_7::SAX2XMLReader"*)*, void (%"class.xercesc_2_7::SAX2XMLReader"*)** %vtable, i64 1, !dbg !4869
  %3 = load void (%"class.xercesc_2_7::SAX2XMLReader"*)*, void (%"class.xercesc_2_7::SAX2XMLReader"*)** %vfn, align 8, !dbg !4869
  call void %3(%"class.xercesc_2_7::SAX2XMLReader"* %1) #9, !dbg !4869
  br label %delete.end, !dbg !4869

delete.end:                                       ; preds = %delete.notnull, %if.then
  br label %if.end, !dbg !4870

if.end:                                           ; preds = %delete.end, %entry
  ret void, !dbg !4871
}

; Function Attrs: noinline nounwind uwtable
define linkonce_odr dso_local void @_ZN11xercesc_2_713XMLAttDefListD2Ev(%"class.xercesc_2_7::XMLAttDefList"* %this) unnamed_addr #1 comdat align 2 !dbg !4872 {
entry:
  %this.addr = alloca %"class.xercesc_2_7::XMLAttDefList"*, align 8
  store %"class.xercesc_2_7::XMLAttDefList"* %this, %"class.xercesc_2_7::XMLAttDefList"** %this.addr, align 8
  call void @llvm.dbg.declare(metadata %"class.xercesc_2_7::XMLAttDefList"** %this.addr, metadata !4873, metadata !DIExpression()), !dbg !4874
  %this1 = load %"class.xercesc_2_7::XMLAttDefList"*, %"class.xercesc_2_7::XMLAttDefList"** %this.addr, align 8
  %0 = bitcast %"class.xercesc_2_7::XMLAttDefList"* %this1 to %"class.xercesc_2_7::XSerializable"*, !dbg !4875
  call void @_ZN11xercesc_2_713XSerializableD2Ev(%"class.xercesc_2_7::XSerializable"* %0) #9, !dbg !4875
  ret void, !dbg !4877
}

declare dso_local zeroext i1 @_ZNK11xercesc_2_713XMLAttDefList14isSerializableEv(%"class.xercesc_2_7::XMLAttDefList"*) unnamed_addr #7

declare dso_local void @_ZN11xercesc_2_713XMLAttDefList9serializeERNS_16XSerializeEngineE(%"class.xercesc_2_7::XMLAttDefList"*, %"class.xercesc_2_7::XSerializeEngine"* dereferenceable(104)) unnamed_addr #7

declare dso_local %"class.xercesc_2_7::XProtoType"* @_ZNK11xercesc_2_713XMLAttDefList12getProtoTypeEv(%"class.xercesc_2_7::XMLAttDefList"*) unnamed_addr #7

declare dso_local void @__cxa_pure_virtual() unnamed_addr

declare dso_local zeroext i1 @_ZNK11xercesc_2_713DTDEntityDecl14isSerializableEv(%"class.xercesc_2_7::DTDEntityDecl"*) unnamed_addr #7

declare dso_local void @_ZN11xercesc_2_713DTDEntityDecl9serializeERNS_16XSerializeEngineE(%"class.xercesc_2_7::DTDEntityDecl"*, %"class.xercesc_2_7::XSerializeEngine"* dereferenceable(104)) unnamed_addr #7

declare dso_local %"class.xercesc_2_7::XProtoType"* @_ZNK11xercesc_2_713DTDEntityDecl12getProtoTypeEv(%"class.xercesc_2_7::DTDEntityDecl"*) unnamed_addr #7

; Function Attrs: noinline nounwind uwtable
define linkonce_odr dso_local zeroext i1 @_ZNK11xercesc_2_713DTDEntityDecl22getDeclaredInIntSubsetEv(%"class.xercesc_2_7::DTDEntityDecl"* %this) unnamed_addr #1 comdat align 2 !dbg !4878 {
entry:
  %this.addr = alloca %"class.xercesc_2_7::DTDEntityDecl"*, align 8
  store %"class.xercesc_2_7::DTDEntityDecl"* %this, %"class.xercesc_2_7::DTDEntityDecl"** %this.addr, align 8
  call void @llvm.dbg.declare(metadata %"class.xercesc_2_7::DTDEntityDecl"** %this.addr, metadata !4879, metadata !DIExpression()), !dbg !4881
  %this1 = load %"class.xercesc_2_7::DTDEntityDecl"*, %"class.xercesc_2_7::DTDEntityDecl"** %this.addr, align 8
  %fDeclaredInIntSubset = getelementptr inbounds %"class.xercesc_2_7::DTDEntityDecl", %"class.xercesc_2_7::DTDEntityDecl"* %this1, i32 0, i32 1, !dbg !4882
  %0 = load i8, i8* %fDeclaredInIntSubset, align 8, !dbg !4882
  %tobool = trunc i8 %0 to i1, !dbg !4882
  ret i1 %tobool, !dbg !4883
}

; Function Attrs: noinline nounwind uwtable
define linkonce_odr dso_local zeroext i1 @_ZNK11xercesc_2_713DTDEntityDecl14getIsParameterEv(%"class.xercesc_2_7::DTDEntityDecl"* %this) unnamed_addr #1 comdat align 2 !dbg !4884 {
entry:
  %this.addr = alloca %"class.xercesc_2_7::DTDEntityDecl"*, align 8
  store %"class.xercesc_2_7::DTDEntityDecl"* %this, %"class.xercesc_2_7::DTDEntityDecl"** %this.addr, align 8
  call void @llvm.dbg.declare(metadata %"class.xercesc_2_7::DTDEntityDecl"** %this.addr, metadata !4885, metadata !DIExpression()), !dbg !4886
  %this1 = load %"class.xercesc_2_7::DTDEntityDecl"*, %"class.xercesc_2_7::DTDEntityDecl"** %this.addr, align 8
  %fIsParameter = getelementptr inbounds %"class.xercesc_2_7::DTDEntityDecl", %"class.xercesc_2_7::DTDEntityDecl"* %this1, i32 0, i32 2, !dbg !4887
  %0 = load i8, i8* %fIsParameter, align 1, !dbg !4887
  %tobool = trunc i8 %0 to i1, !dbg !4887
  ret i1 %tobool, !dbg !4888
}

; Function Attrs: noinline nounwind uwtable
define linkonce_odr dso_local zeroext i1 @_ZNK11xercesc_2_713DTDEntityDecl16getIsSpecialCharEv(%"class.xercesc_2_7::DTDEntityDecl"* %this) unnamed_addr #1 comdat align 2 !dbg !4889 {
entry:
  %this.addr = alloca %"class.xercesc_2_7::DTDEntityDecl"*, align 8
  store %"class.xercesc_2_7::DTDEntityDecl"* %this, %"class.xercesc_2_7::DTDEntityDecl"** %this.addr, align 8
  call void @llvm.dbg.declare(metadata %"class.xercesc_2_7::DTDEntityDecl"** %this.addr, metadata !4890, metadata !DIExpression()), !dbg !4891
  %this1 = load %"class.xercesc_2_7::DTDEntityDecl"*, %"class.xercesc_2_7::DTDEntityDecl"** %this.addr, align 8
  %fIsSpecialChar = getelementptr inbounds %"class.xercesc_2_7::DTDEntityDecl", %"class.xercesc_2_7::DTDEntityDecl"* %this1, i32 0, i32 3, !dbg !4892
  %0 = load i8, i8* %fIsSpecialChar, align 2, !dbg !4892
  %tobool = trunc i8 %0 to i1, !dbg !4892
  ret i1 %tobool, !dbg !4893
}

declare dso_local zeroext i1 @_ZNK11xercesc_2_710XMLRefInfo14isSerializableEv(%"class.xercesc_2_7::XMLRefInfo"*) unnamed_addr #7

declare dso_local void @_ZN11xercesc_2_710XMLRefInfo9serializeERNS_16XSerializeEngineE(%"class.xercesc_2_7::XMLRefInfo"*, %"class.xercesc_2_7::XSerializeEngine"* dereferenceable(104)) unnamed_addr #7

declare dso_local %"class.xercesc_2_7::XProtoType"* @_ZNK11xercesc_2_710XMLRefInfo12getProtoTypeEv(%"class.xercesc_2_7::XMLRefInfo"*) unnamed_addr #7

; Function Attrs: noinline nounwind uwtable
define linkonce_odr dso_local void @_ZN11xercesc_2_713SAX2XMLReaderD2Ev(%"class.xercesc_2_7::SAX2XMLReader"* %this) unnamed_addr #1 comdat align 2 !dbg !4894 {
entry:
  %this.addr = alloca %"class.xercesc_2_7::SAX2XMLReader"*, align 8
  store %"class.xercesc_2_7::SAX2XMLReader"* %this, %"class.xercesc_2_7::SAX2XMLReader"** %this.addr, align 8
  call void @llvm.dbg.declare(metadata %"class.xercesc_2_7::SAX2XMLReader"** %this.addr, metadata !4895, metadata !DIExpression()), !dbg !4896
  %this1 = load %"class.xercesc_2_7::SAX2XMLReader"*, %"class.xercesc_2_7::SAX2XMLReader"** %this.addr, align 8
  ret void, !dbg !4897
}

; Function Attrs: noinline nounwind uwtable
define linkonce_odr dso_local void @_ZN11xercesc_2_713SAX2XMLReaderD0Ev(%"class.xercesc_2_7::SAX2XMLReader"* %this) unnamed_addr #1 comdat align 2 !dbg !4898 {
entry:
  %this.addr = alloca %"class.xercesc_2_7::SAX2XMLReader"*, align 8
  store %"class.xercesc_2_7::SAX2XMLReader"* %this, %"class.xercesc_2_7::SAX2XMLReader"** %this.addr, align 8
  call void @llvm.dbg.declare(metadata %"class.xercesc_2_7::SAX2XMLReader"** %this.addr, metadata !4899, metadata !DIExpression()), !dbg !4900
  %this1 = load %"class.xercesc_2_7::SAX2XMLReader"*, %"class.xercesc_2_7::SAX2XMLReader"** %this.addr, align 8
  call void @llvm.trap() #11, !dbg !4901
  unreachable, !dbg !4901
}

; Function Attrs: noinline uwtable
define linkonce_odr dso_local dereferenceable(8) %"class.xercesc_2_7::MemoryManager"* @_ZN11xalanc_1_1028XalanSourceTreeParserLiaison16getMemoryManagerEv(%"class.xalanc_1_10::XalanSourceTreeParserLiaison"* %this) unnamed_addr #6 comdat align 2 !dbg !4902 {
entry:
  %this.addr = alloca %"class.xalanc_1_10::XalanSourceTreeParserLiaison"*, align 8
  store %"class.xalanc_1_10::XalanSourceTreeParserLiaison"* %this, %"class.xalanc_1_10::XalanSourceTreeParserLiaison"** %this.addr, align 8
  call void @llvm.dbg.declare(metadata %"class.xalanc_1_10::XalanSourceTreeParserLiaison"** %this.addr, metadata !4903, metadata !DIExpression()), !dbg !4904
  %this1 = load %"class.xalanc_1_10::XalanSourceTreeParserLiaison"*, %"class.xalanc_1_10::XalanSourceTreeParserLiaison"** %this.addr, align 8
  %m_documentMap = getelementptr inbounds %"class.xalanc_1_10::XalanSourceTreeParserLiaison", %"class.xalanc_1_10::XalanSourceTreeParserLiaison"* %this1, i32 0, i32 2, !dbg !4905
  %call = call dereferenceable(8) %"class.xercesc_2_7::MemoryManager"* @_ZN11xalanc_1_108XalanMapIPKNS_13XalanDocumentEPNS_23XalanSourceTreeDocumentENS_17XalanMapKeyTraitsIS3_EEE16getMemoryManagerEv(%"class.xalanc_1_10::XalanMap.9"* %m_documentMap), !dbg !4906
  ret %"class.xercesc_2_7::MemoryManager"* %call, !dbg !4907
}

; Function Attrs: noinline nounwind uwtable
define linkonce_odr dso_local void @_ZNK11xalanc_1_1014XalanDOMString10invariantsEv(%"class.xalanc_1_10::XalanDOMString"* %this) #1 comdat align 2 !dbg !4908 {
entry:
  %this.addr = alloca %"class.xalanc_1_10::XalanDOMString"*, align 8
  store %"class.xalanc_1_10::XalanDOMString"* %this, %"class.xalanc_1_10::XalanDOMString"** %this.addr, align 8
  call void @llvm.dbg.declare(metadata %"class.xalanc_1_10::XalanDOMString"** %this.addr, metadata !4909, metadata !DIExpression()), !dbg !4911
  %this1 = load %"class.xalanc_1_10::XalanDOMString"*, %"class.xalanc_1_10::XalanDOMString"** %this.addr, align 8
  ret void, !dbg !4912
}

declare dso_local void @_ZN11xalanc_1_1014XalanDOMString5eraseEjj(%"class.xalanc_1_10::XalanDOMString"*, i32, i32) #7

; Function Attrs: noinline uwtable
define linkonce_odr dso_local dereferenceable(40) %"class.xalanc_1_10::XalanDOMString"* @_ZN11xalanc_1_1014XalanDOMString6appendEPKc(%"class.xalanc_1_10::XalanDOMString"* %this, i8* %theString) #6 comdat align 2 !dbg !4913 {
entry:
  %this.addr = alloca %"class.xalanc_1_10::XalanDOMString"*, align 8
  %theString.addr = alloca i8*, align 8
  store %"class.xalanc_1_10::XalanDOMString"* %this, %"class.xalanc_1_10::XalanDOMString"** %this.addr, align 8
  call void @llvm.dbg.declare(metadata %"class.xalanc_1_10::XalanDOMString"** %this.addr, metadata !4914, metadata !DIExpression()), !dbg !4915
  store i8* %theString, i8** %theString.addr, align 8
  call void @llvm.dbg.declare(metadata i8** %theString.addr, metadata !4916, metadata !DIExpression()), !dbg !4917
  %this1 = load %"class.xalanc_1_10::XalanDOMString"*, %"class.xalanc_1_10::XalanDOMString"** %this.addr, align 8
  %0 = load i8*, i8** %theString.addr, align 8, !dbg !4918
  %1 = load i8*, i8** %theString.addr, align 8, !dbg !4919
  %call = call i32 @_ZN11xalanc_1_1014XalanDOMString6lengthEPKc(i8* %1), !dbg !4920
  %call2 = call dereferenceable(40) %"class.xalanc_1_10::XalanDOMString"* @_ZN11xalanc_1_1014XalanDOMString6appendEPKcj(%"class.xalanc_1_10::XalanDOMString"* %this1, i8* %0, i32 %call), !dbg !4921
  ret %"class.xalanc_1_10::XalanDOMString"* %call2, !dbg !4922
}

declare dso_local dereferenceable(40) %"class.xalanc_1_10::XalanDOMString"* @_ZN11xalanc_1_1014XalanDOMString6appendEPKcj(%"class.xalanc_1_10::XalanDOMString"*, i8*, i32) #7

declare dso_local i32 @_ZN11xalanc_1_1014XalanDOMString6lengthEPKc(i8*) #7

declare dso_local i8* @_ZN11xercesc_2_77XMemorynwEmPNS_13MemoryManagerE(i64, %"class.xercesc_2_7::MemoryManager"*) #7

declare dso_local void @_ZN11xercesc_2_717SAX2XMLReaderImplC1EPNS_13MemoryManagerEPNS_14XMLGrammarPoolE(%"class.xercesc_2_7::SAX2XMLReaderImpl"*, %"class.xercesc_2_7::MemoryManager"*, %"class.xercesc_2_7::XMLGrammarPool"*) unnamed_addr #7

; Function Attrs: nounwind
declare dso_local void @_ZN11xercesc_2_77XMemorydlEPvPNS_13MemoryManagerE(i8*, %"class.xercesc_2_7::MemoryManager"*) #4

; Function Attrs: noinline nounwind uwtable
define linkonce_odr dso_local void @_ZN11xalanc_1_109XalanListINS_8XalanMapIPKNS_13XalanDocumentEPNS_23XalanSourceTreeDocumentENS_17XalanMapKeyTraitsIS4_EEE5EntryEEC2ERN11xercesc_2_713MemoryManagerE(%"class.xalanc_1_10::XalanList.10"* %this, %"class.xercesc_2_7::MemoryManager"* dereferenceable(8) %theManager) unnamed_addr #1 comdat align 2 !dbg !4923 {
entry:
  %this.addr = alloca %"class.xalanc_1_10::XalanList.10"*, align 8
  %theManager.addr = alloca %"class.xercesc_2_7::MemoryManager"*, align 8
  store %"class.xalanc_1_10::XalanList.10"* %this, %"class.xalanc_1_10::XalanList.10"** %this.addr, align 8
  call void @llvm.dbg.declare(metadata %"class.xalanc_1_10::XalanList.10"** %this.addr, metadata !4924, metadata !DIExpression()), !dbg !4925
  store %"class.xercesc_2_7::MemoryManager"* %theManager, %"class.xercesc_2_7::MemoryManager"** %theManager.addr, align 8
  call void @llvm.dbg.declare(metadata %"class.xercesc_2_7::MemoryManager"** %theManager.addr, metadata !4926, metadata !DIExpression()), !dbg !4927
  %this1 = load %"class.xalanc_1_10::XalanList.10"*, %"class.xalanc_1_10::XalanList.10"** %this.addr, align 8
  %m_memoryManager = getelementptr inbounds %"class.xalanc_1_10::XalanList.10", %"class.xalanc_1_10::XalanList.10"* %this1, i32 0, i32 0, !dbg !4928
  %0 = load %"class.xercesc_2_7::MemoryManager"*, %"class.xercesc_2_7::MemoryManager"** %theManager.addr, align 8, !dbg !4929
  store %"class.xercesc_2_7::MemoryManager"* %0, %"class.xercesc_2_7::MemoryManager"** %m_memoryManager, align 8, !dbg !4928
  %m_listHead = getelementptr inbounds %"class.xalanc_1_10::XalanList.10", %"class.xalanc_1_10::XalanList.10"* %this1, i32 0, i32 1, !dbg !4930
  store %"struct.xalanc_1_10::XalanList<xalanc_1_10::XalanMap<const xalanc_1_10::XalanDocument *, xalanc_1_10::XalanSourceTreeDocument *, xalanc_1_10::XalanMapKeyTraits<const xalanc_1_10::XalanDocument *> >::Entry>::Node"* null, %"struct.xalanc_1_10::XalanList<xalanc_1_10::XalanMap<const xalanc_1_10::XalanDocument *, xalanc_1_10::XalanSourceTreeDocument *, xalanc_1_10::XalanMapKeyTraits<const xalanc_1_10::XalanDocument *> >::Entry>::Node"** %m_listHead, align 8, !dbg !4930
  %m_freeListHeadPtr = getelementptr inbounds %"class.xalanc_1_10::XalanList.10", %"class.xalanc_1_10::XalanList.10"* %this1, i32 0, i32 2, !dbg !4931
  store %"struct.xalanc_1_10::XalanList<xalanc_1_10::XalanMap<const xalanc_1_10::XalanDocument *, xalanc_1_10::XalanSourceTreeDocument *, xalanc_1_10::XalanMapKeyTraits<const xalanc_1_10::XalanDocument *> >::Entry>::Node"* null, %"struct.xalanc_1_10::XalanList<xalanc_1_10::XalanMap<const xalanc_1_10::XalanDocument *, xalanc_1_10::XalanSourceTreeDocument *, xalanc_1_10::XalanMapKeyTraits<const xalanc_1_10::XalanDocument *> >::Entry>::Node"** %m_freeListHeadPtr, align 8, !dbg !4931
  ret void, !dbg !4932
}

; Function Attrs: noinline uwtable
define linkonce_odr dso_local void @_ZN11xalanc_1_1011XalanVectorINS0_INS_21XalanListIteratorBaseINS_23XalanListIteratorTraitsINS_8XalanMapIPKNS_13XalanDocumentEPNS_23XalanSourceTreeDocumentENS_17XalanMapKeyTraitsIS6_EEE5EntryEEENS_9XalanListISC_E4NodeEEENS_31MemoryManagedConstructionTraitsISH_EEEENS_32ConstructWithMemoryManagerTraitsISK_EEEC2ERN11xercesc_2_713MemoryManagerEm(%"class.xalanc_1_10::XalanVector.50"* %this, %"class.xercesc_2_7::MemoryManager"* dereferenceable(8) %theManager, i64 %initialAllocation) unnamed_addr #6 comdat align 2 !dbg !4933 {
entry:
  %this.addr = alloca %"class.xalanc_1_10::XalanVector.50"*, align 8
  %theManager.addr = alloca %"class.xercesc_2_7::MemoryManager"*, align 8
  %initialAllocation.addr = alloca i64, align 8
  store %"class.xalanc_1_10::XalanVector.50"* %this, %"class.xalanc_1_10::XalanVector.50"** %this.addr, align 8
  call void @llvm.dbg.declare(metadata %"class.xalanc_1_10::XalanVector.50"** %this.addr, metadata !4934, metadata !DIExpression()), !dbg !4935
  store %"class.xercesc_2_7::MemoryManager"* %theManager, %"class.xercesc_2_7::MemoryManager"** %theManager.addr, align 8
  call void @llvm.dbg.declare(metadata %"class.xercesc_2_7::MemoryManager"** %theManager.addr, metadata !4936, metadata !DIExpression()), !dbg !4937
  store i64 %initialAllocation, i64* %initialAllocation.addr, align 8
  call void @llvm.dbg.declare(metadata i64* %initialAllocation.addr, metadata !4938, metadata !DIExpression()), !dbg !4939
  %this1 = load %"class.xalanc_1_10::XalanVector.50"*, %"class.xalanc_1_10::XalanVector.50"** %this.addr, align 8
  %m_memoryManager = getelementptr inbounds %"class.xalanc_1_10::XalanVector.50", %"class.xalanc_1_10::XalanVector.50"* %this1, i32 0, i32 0, !dbg !4940
  %0 = load %"class.xercesc_2_7::MemoryManager"*, %"class.xercesc_2_7::MemoryManager"** %theManager.addr, align 8, !dbg !4941
  store %"class.xercesc_2_7::MemoryManager"* %0, %"class.xercesc_2_7::MemoryManager"** %m_memoryManager, align 8, !dbg !4940
  %m_size = getelementptr inbounds %"class.xalanc_1_10::XalanVector.50", %"class.xalanc_1_10::XalanVector.50"* %this1, i32 0, i32 1, !dbg !4942
  store i64 0, i64* %m_size, align 8, !dbg !4942
  %m_allocation = getelementptr inbounds %"class.xalanc_1_10::XalanVector.50", %"class.xalanc_1_10::XalanVector.50"* %this1, i32 0, i32 2, !dbg !4943
  %1 = load i64, i64* %initialAllocation.addr, align 8, !dbg !4944
  store i64 %1, i64* %m_allocation, align 8, !dbg !4943
  %m_data = getelementptr inbounds %"class.xalanc_1_10::XalanVector.50", %"class.xalanc_1_10::XalanVector.50"* %this1, i32 0, i32 3, !dbg !4945
  %2 = load i64, i64* %initialAllocation.addr, align 8, !dbg !4946
  %cmp = icmp ugt i64 %2, 0, !dbg !4947
  br i1 %cmp, label %cond.true, label %cond.false, !dbg !4946

cond.true:                                        ; preds = %entry
  %3 = load i64, i64* %initialAllocation.addr, align 8, !dbg !4948
  %call = call %"class.xalanc_1_10::XalanVector.51"* @_ZN11xalanc_1_1011XalanVectorINS0_INS_21XalanListIteratorBaseINS_23XalanListIteratorTraitsINS_8XalanMapIPKNS_13XalanDocumentEPNS_23XalanSourceTreeDocumentENS_17XalanMapKeyTraitsIS6_EEE5EntryEEENS_9XalanListISC_E4NodeEEENS_31MemoryManagedConstructionTraitsISH_EEEENS_32ConstructWithMemoryManagerTraitsISK_EEE8allocateEm(%"class.xalanc_1_10::XalanVector.50"* %this1, i64 %3), !dbg !4949
  br label %cond.end, !dbg !4946

cond.false:                                       ; preds = %entry
  br label %cond.end, !dbg !4946

cond.end:                                         ; preds = %cond.false, %cond.true
  %cond = phi %"class.xalanc_1_10::XalanVector.51"* [ %call, %cond.true ], [ null, %cond.false ], !dbg !4946
  store %"class.xalanc_1_10::XalanVector.51"* %cond, %"class.xalanc_1_10::XalanVector.51"** %m_data, align 8, !dbg !4945
  call void @_ZNK11xalanc_1_1011XalanVectorINS0_INS_21XalanListIteratorBaseINS_23XalanListIteratorTraitsINS_8XalanMapIPKNS_13XalanDocumentEPNS_23XalanSourceTreeDocumentENS_17XalanMapKeyTraitsIS6_EEE5EntryEEENS_9XalanListISC_E4NodeEEENS_31MemoryManagedConstructionTraitsISH_EEEENS_32ConstructWithMemoryManagerTraitsISK_EEE10invariantsEv(%"class.xalanc_1_10::XalanVector.50"* %this1), !dbg !4950
  ret void, !dbg !4952
}

; Function Attrs: noinline nounwind uwtable
define linkonce_odr dso_local void @_ZN11xalanc_1_109XalanListINS_8XalanMapIPKNS_13XalanDocumentEPNS_23XalanSourceTreeDocumentENS_17XalanMapKeyTraitsIS4_EEE5EntryEED2Ev(%"class.xalanc_1_10::XalanList.10"* %this) unnamed_addr #1 comdat align 2 personality i8* bitcast (i32 (...)* @__gxx_personality_v0 to i8*) !dbg !4953 {
entry:
  %this.addr = alloca %"class.xalanc_1_10::XalanList.10"*, align 8
  %pos = alloca %"struct.xalanc_1_10::XalanListIteratorBase.52", align 8
  %ref.tmp = alloca %"struct.xalanc_1_10::XalanListIteratorBase.52", align 8
  %ref.tmp4 = alloca %"struct.xalanc_1_10::XalanListIteratorBase.52", align 8
  %freeNode = alloca %"struct.xalanc_1_10::XalanList<xalanc_1_10::XalanMap<const xalanc_1_10::XalanDocument *, xalanc_1_10::XalanSourceTreeDocument *, xalanc_1_10::XalanMapKeyTraits<const xalanc_1_10::XalanDocument *> >::Entry>::Node"*, align 8
  %nextNode = alloca %"struct.xalanc_1_10::XalanList<xalanc_1_10::XalanMap<const xalanc_1_10::XalanDocument *, xalanc_1_10::XalanSourceTreeDocument *, xalanc_1_10::XalanMapKeyTraits<const xalanc_1_10::XalanDocument *> >::Entry>::Node"*, align 8
  store %"class.xalanc_1_10::XalanList.10"* %this, %"class.xalanc_1_10::XalanList.10"** %this.addr, align 8
  call void @llvm.dbg.declare(metadata %"class.xalanc_1_10::XalanList.10"** %this.addr, metadata !4954, metadata !DIExpression()), !dbg !4955
  %this1 = load %"class.xalanc_1_10::XalanList.10"*, %"class.xalanc_1_10::XalanList.10"** %this.addr, align 8
  %m_listHead = getelementptr inbounds %"class.xalanc_1_10::XalanList.10", %"class.xalanc_1_10::XalanList.10"* %this1, i32 0, i32 1, !dbg !4956
  %0 = load %"struct.xalanc_1_10::XalanList<xalanc_1_10::XalanMap<const xalanc_1_10::XalanDocument *, xalanc_1_10::XalanSourceTreeDocument *, xalanc_1_10::XalanMapKeyTraits<const xalanc_1_10::XalanDocument *> >::Entry>::Node"*, %"struct.xalanc_1_10::XalanList<xalanc_1_10::XalanMap<const xalanc_1_10::XalanDocument *, xalanc_1_10::XalanSourceTreeDocument *, xalanc_1_10::XalanMapKeyTraits<const xalanc_1_10::XalanDocument *> >::Entry>::Node"** %m_listHead, align 8, !dbg !4956
  %cmp = icmp ne %"struct.xalanc_1_10::XalanList<xalanc_1_10::XalanMap<const xalanc_1_10::XalanDocument *, xalanc_1_10::XalanSourceTreeDocument *, xalanc_1_10::XalanMapKeyTraits<const xalanc_1_10::XalanDocument *> >::Entry>::Node"* %0, null, !dbg !4959
  br i1 %cmp, label %if.then, label %if.end, !dbg !4960

if.then:                                          ; preds = %entry
  call void @llvm.dbg.declare(metadata %"struct.xalanc_1_10::XalanListIteratorBase.52"* %pos, metadata !4961, metadata !DIExpression()), !dbg !4963
  invoke void @_ZN11xalanc_1_109XalanListINS_8XalanMapIPKNS_13XalanDocumentEPNS_23XalanSourceTreeDocumentENS_17XalanMapKeyTraitsIS4_EEE5EntryEE5beginEv(%"struct.xalanc_1_10::XalanListIteratorBase.52"* sret %pos, %"class.xalanc_1_10::XalanList.10"* %this1)
          to label %invoke.cont unwind label %terminate.lpad, !dbg !4964

invoke.cont:                                      ; preds = %if.then
  br label %while.cond, !dbg !4965

while.cond:                                       ; preds = %invoke.cont8, %invoke.cont
  invoke void @_ZN11xalanc_1_109XalanListINS_8XalanMapIPKNS_13XalanDocumentEPNS_23XalanSourceTreeDocumentENS_17XalanMapKeyTraitsIS4_EEE5EntryEE3endEv(%"struct.xalanc_1_10::XalanListIteratorBase.52"* sret %ref.tmp, %"class.xalanc_1_10::XalanList.10"* %this1)
          to label %invoke.cont2 unwind label %terminate.lpad, !dbg !4966

invoke.cont2:                                     ; preds = %while.cond
  %call = invoke zeroext i1 @_ZNK11xalanc_1_1021XalanListIteratorBaseINS_23XalanListIteratorTraitsINS_8XalanMapIPKNS_13XalanDocumentEPNS_23XalanSourceTreeDocumentENS_17XalanMapKeyTraitsIS5_EEE5EntryEEENS_9XalanListISB_E4NodeEEneERKSG_(%"struct.xalanc_1_10::XalanListIteratorBase.52"* %pos, %"struct.xalanc_1_10::XalanListIteratorBase.52"* dereferenceable(8) %ref.tmp)
          to label %invoke.cont3 unwind label %terminate.lpad, !dbg !4967

invoke.cont3:                                     ; preds = %invoke.cont2
  br i1 %call, label %while.body, label %while.end, !dbg !4965

while.body:                                       ; preds = %invoke.cont3
  invoke void @_ZN11xalanc_1_1021XalanListIteratorBaseINS_23XalanListIteratorTraitsINS_8XalanMapIPKNS_13XalanDocumentEPNS_23XalanSourceTreeDocumentENS_17XalanMapKeyTraitsIS5_EEE5EntryEEENS_9XalanListISB_E4NodeEEppEi(%"struct.xalanc_1_10::XalanListIteratorBase.52"* sret %ref.tmp4, %"struct.xalanc_1_10::XalanListIteratorBase.52"* %pos, i32 0)
          to label %invoke.cont5 unwind label %terminate.lpad, !dbg !4968

invoke.cont5:                                     ; preds = %while.body
  %call7 = invoke dereferenceable(32) %"struct.xalanc_1_10::XalanList<xalanc_1_10::XalanMap<const xalanc_1_10::XalanDocument *, xalanc_1_10::XalanSourceTreeDocument *, xalanc_1_10::XalanMapKeyTraits<const xalanc_1_10::XalanDocument *> >::Entry>::Node"* @_ZN11xalanc_1_1021XalanListIteratorBaseINS_23XalanListIteratorTraitsINS_8XalanMapIPKNS_13XalanDocumentEPNS_23XalanSourceTreeDocumentENS_17XalanMapKeyTraitsIS5_EEE5EntryEEENS_9XalanListISB_E4NodeEE4nodeEv(%"struct.xalanc_1_10::XalanListIteratorBase.52"* %ref.tmp4)
          to label %invoke.cont6 unwind label %terminate.lpad, !dbg !4970

invoke.cont6:                                     ; preds = %invoke.cont5
  invoke void @_ZN11xalanc_1_109XalanListINS_8XalanMapIPKNS_13XalanDocumentEPNS_23XalanSourceTreeDocumentENS_17XalanMapKeyTraitsIS4_EEE5EntryEE11destroyNodeERNSB_4NodeE(%"class.xalanc_1_10::XalanList.10"* %this1, %"struct.xalanc_1_10::XalanList<xalanc_1_10::XalanMap<const xalanc_1_10::XalanDocument *, xalanc_1_10::XalanSourceTreeDocument *, xalanc_1_10::XalanMapKeyTraits<const xalanc_1_10::XalanDocument *> >::Entry>::Node"* dereferenceable(32) %call7)
          to label %invoke.cont8 unwind label %terminate.lpad, !dbg !4971

invoke.cont8:                                     ; preds = %invoke.cont6
  br label %while.cond, !dbg !4965, !llvm.loop !4972

while.end:                                        ; preds = %invoke.cont3
  call void @llvm.dbg.declare(metadata %"struct.xalanc_1_10::XalanList<xalanc_1_10::XalanMap<const xalanc_1_10::XalanDocument *, xalanc_1_10::XalanSourceTreeDocument *, xalanc_1_10::XalanMapKeyTraits<const xalanc_1_10::XalanDocument *> >::Entry>::Node"** %freeNode, metadata !4974, metadata !DIExpression()), !dbg !4975
  %m_freeListHeadPtr = getelementptr inbounds %"class.xalanc_1_10::XalanList.10", %"class.xalanc_1_10::XalanList.10"* %this1, i32 0, i32 2, !dbg !4976
  %1 = load %"struct.xalanc_1_10::XalanList<xalanc_1_10::XalanMap<const xalanc_1_10::XalanDocument *, xalanc_1_10::XalanSourceTreeDocument *, xalanc_1_10::XalanMapKeyTraits<const xalanc_1_10::XalanDocument *> >::Entry>::Node"*, %"struct.xalanc_1_10::XalanList<xalanc_1_10::XalanMap<const xalanc_1_10::XalanDocument *, xalanc_1_10::XalanSourceTreeDocument *, xalanc_1_10::XalanMapKeyTraits<const xalanc_1_10::XalanDocument *> >::Entry>::Node"** %m_freeListHeadPtr, align 8, !dbg !4976
  store %"struct.xalanc_1_10::XalanList<xalanc_1_10::XalanMap<const xalanc_1_10::XalanDocument *, xalanc_1_10::XalanSourceTreeDocument *, xalanc_1_10::XalanMapKeyTraits<const xalanc_1_10::XalanDocument *> >::Entry>::Node"* %1, %"struct.xalanc_1_10::XalanList<xalanc_1_10::XalanMap<const xalanc_1_10::XalanDocument *, xalanc_1_10::XalanSourceTreeDocument *, xalanc_1_10::XalanMapKeyTraits<const xalanc_1_10::XalanDocument *> >::Entry>::Node"** %freeNode, align 8, !dbg !4975
  br label %while.cond9, !dbg !4977

while.cond9:                                      ; preds = %invoke.cont12, %while.end
  %2 = load %"struct.xalanc_1_10::XalanList<xalanc_1_10::XalanMap<const xalanc_1_10::XalanDocument *, xalanc_1_10::XalanSourceTreeDocument *, xalanc_1_10::XalanMapKeyTraits<const xalanc_1_10::XalanDocument *> >::Entry>::Node"*, %"struct.xalanc_1_10::XalanList<xalanc_1_10::XalanMap<const xalanc_1_10::XalanDocument *, xalanc_1_10::XalanSourceTreeDocument *, xalanc_1_10::XalanMapKeyTraits<const xalanc_1_10::XalanDocument *> >::Entry>::Node"** %freeNode, align 8, !dbg !4978
  %cmp10 = icmp ne %"struct.xalanc_1_10::XalanList<xalanc_1_10::XalanMap<const xalanc_1_10::XalanDocument *, xalanc_1_10::XalanSourceTreeDocument *, xalanc_1_10::XalanMapKeyTraits<const xalanc_1_10::XalanDocument *> >::Entry>::Node"* %2, null, !dbg !4979
  br i1 %cmp10, label %while.body11, label %while.end13, !dbg !4977

while.body11:                                     ; preds = %while.cond9
  call void @llvm.dbg.declare(metadata %"struct.xalanc_1_10::XalanList<xalanc_1_10::XalanMap<const xalanc_1_10::XalanDocument *, xalanc_1_10::XalanSourceTreeDocument *, xalanc_1_10::XalanMapKeyTraits<const xalanc_1_10::XalanDocument *> >::Entry>::Node"** %nextNode, metadata !4980, metadata !DIExpression()), !dbg !4982
  %3 = load %"struct.xalanc_1_10::XalanList<xalanc_1_10::XalanMap<const xalanc_1_10::XalanDocument *, xalanc_1_10::XalanSourceTreeDocument *, xalanc_1_10::XalanMapKeyTraits<const xalanc_1_10::XalanDocument *> >::Entry>::Node"*, %"struct.xalanc_1_10::XalanList<xalanc_1_10::XalanMap<const xalanc_1_10::XalanDocument *, xalanc_1_10::XalanSourceTreeDocument *, xalanc_1_10::XalanMapKeyTraits<const xalanc_1_10::XalanDocument *> >::Entry>::Node"** %freeNode, align 8, !dbg !4983
  %next = getelementptr inbounds %"struct.xalanc_1_10::XalanList<xalanc_1_10::XalanMap<const xalanc_1_10::XalanDocument *, xalanc_1_10::XalanSourceTreeDocument *, xalanc_1_10::XalanMapKeyTraits<const xalanc_1_10::XalanDocument *> >::Entry>::Node", %"struct.xalanc_1_10::XalanList<xalanc_1_10::XalanMap<const xalanc_1_10::XalanDocument *, xalanc_1_10::XalanSourceTreeDocument *, xalanc_1_10::XalanMapKeyTraits<const xalanc_1_10::XalanDocument *> >::Entry>::Node"* %3, i32 0, i32 2, !dbg !4984
  %4 = load %"struct.xalanc_1_10::XalanList<xalanc_1_10::XalanMap<const xalanc_1_10::XalanDocument *, xalanc_1_10::XalanSourceTreeDocument *, xalanc_1_10::XalanMapKeyTraits<const xalanc_1_10::XalanDocument *> >::Entry>::Node"*, %"struct.xalanc_1_10::XalanList<xalanc_1_10::XalanMap<const xalanc_1_10::XalanDocument *, xalanc_1_10::XalanSourceTreeDocument *, xalanc_1_10::XalanMapKeyTraits<const xalanc_1_10::XalanDocument *> >::Entry>::Node"** %next, align 8, !dbg !4984
  store %"struct.xalanc_1_10::XalanList<xalanc_1_10::XalanMap<const xalanc_1_10::XalanDocument *, xalanc_1_10::XalanSourceTreeDocument *, xalanc_1_10::XalanMapKeyTraits<const xalanc_1_10::XalanDocument *> >::Entry>::Node"* %4, %"struct.xalanc_1_10::XalanList<xalanc_1_10::XalanMap<const xalanc_1_10::XalanDocument *, xalanc_1_10::XalanSourceTreeDocument *, xalanc_1_10::XalanMapKeyTraits<const xalanc_1_10::XalanDocument *> >::Entry>::Node"** %nextNode, align 8, !dbg !4982
  %5 = load %"struct.xalanc_1_10::XalanList<xalanc_1_10::XalanMap<const xalanc_1_10::XalanDocument *, xalanc_1_10::XalanSourceTreeDocument *, xalanc_1_10::XalanMapKeyTraits<const xalanc_1_10::XalanDocument *> >::Entry>::Node"*, %"struct.xalanc_1_10::XalanList<xalanc_1_10::XalanMap<const xalanc_1_10::XalanDocument *, xalanc_1_10::XalanSourceTreeDocument *, xalanc_1_10::XalanMapKeyTraits<const xalanc_1_10::XalanDocument *> >::Entry>::Node"** %freeNode, align 8, !dbg !4985
  invoke void @_ZN11xalanc_1_109XalanListINS_8XalanMapIPKNS_13XalanDocumentEPNS_23XalanSourceTreeDocumentENS_17XalanMapKeyTraitsIS4_EEE5EntryEE10deallocateEPNSB_4NodeE(%"class.xalanc_1_10::XalanList.10"* %this1, %"struct.xalanc_1_10::XalanList<xalanc_1_10::XalanMap<const xalanc_1_10::XalanDocument *, xalanc_1_10::XalanSourceTreeDocument *, xalanc_1_10::XalanMapKeyTraits<const xalanc_1_10::XalanDocument *> >::Entry>::Node"* %5)
          to label %invoke.cont12 unwind label %terminate.lpad, !dbg !4986

invoke.cont12:                                    ; preds = %while.body11
  %6 = load %"struct.xalanc_1_10::XalanList<xalanc_1_10::XalanMap<const xalanc_1_10::XalanDocument *, xalanc_1_10::XalanSourceTreeDocument *, xalanc_1_10::XalanMapKeyTraits<const xalanc_1_10::XalanDocument *> >::Entry>::Node"*, %"struct.xalanc_1_10::XalanList<xalanc_1_10::XalanMap<const xalanc_1_10::XalanDocument *, xalanc_1_10::XalanSourceTreeDocument *, xalanc_1_10::XalanMapKeyTraits<const xalanc_1_10::XalanDocument *> >::Entry>::Node"** %nextNode, align 8, !dbg !4987
  store %"struct.xalanc_1_10::XalanList<xalanc_1_10::XalanMap<const xalanc_1_10::XalanDocument *, xalanc_1_10::XalanSourceTreeDocument *, xalanc_1_10::XalanMapKeyTraits<const xalanc_1_10::XalanDocument *> >::Entry>::Node"* %6, %"struct.xalanc_1_10::XalanList<xalanc_1_10::XalanMap<const xalanc_1_10::XalanDocument *, xalanc_1_10::XalanSourceTreeDocument *, xalanc_1_10::XalanMapKeyTraits<const xalanc_1_10::XalanDocument *> >::Entry>::Node"** %freeNode, align 8, !dbg !4988
  br label %while.cond9, !dbg !4977, !llvm.loop !4989

while.end13:                                      ; preds = %while.cond9
  %m_listHead14 = getelementptr inbounds %"class.xalanc_1_10::XalanList.10", %"class.xalanc_1_10::XalanList.10"* %this1, i32 0, i32 1, !dbg !4991
  %7 = load %"struct.xalanc_1_10::XalanList<xalanc_1_10::XalanMap<const xalanc_1_10::XalanDocument *, xalanc_1_10::XalanSourceTreeDocument *, xalanc_1_10::XalanMapKeyTraits<const xalanc_1_10::XalanDocument *> >::Entry>::Node"*, %"struct.xalanc_1_10::XalanList<xalanc_1_10::XalanMap<const xalanc_1_10::XalanDocument *, xalanc_1_10::XalanSourceTreeDocument *, xalanc_1_10::XalanMapKeyTraits<const xalanc_1_10::XalanDocument *> >::Entry>::Node"** %m_listHead14, align 8, !dbg !4991
  invoke void @_ZN11xalanc_1_109XalanListINS_8XalanMapIPKNS_13XalanDocumentEPNS_23XalanSourceTreeDocumentENS_17XalanMapKeyTraitsIS4_EEE5EntryEE10deallocateEPNSB_4NodeE(%"class.xalanc_1_10::XalanList.10"* %this1, %"struct.xalanc_1_10::XalanList<xalanc_1_10::XalanMap<const xalanc_1_10::XalanDocument *, xalanc_1_10::XalanSourceTreeDocument *, xalanc_1_10::XalanMapKeyTraits<const xalanc_1_10::XalanDocument *> >::Entry>::Node"* %7)
          to label %invoke.cont15 unwind label %terminate.lpad, !dbg !4992

invoke.cont15:                                    ; preds = %while.end13
  br label %if.end, !dbg !4993

if.end:                                           ; preds = %invoke.cont15, %entry
  ret void, !dbg !4994

terminate.lpad:                                   ; preds = %while.end13, %while.body11, %invoke.cont6, %invoke.cont5, %while.body, %invoke.cont2, %while.cond, %if.then
  %8 = landingpad { i8*, i32 }
          catch i8* null, !dbg !4964
  %9 = extractvalue { i8*, i32 } %8, 0, !dbg !4964
  call void @__clang_call_terminate(i8* %9) #11, !dbg !4964
  unreachable, !dbg !4964
}

; Function Attrs: noinline uwtable
define linkonce_odr dso_local %"class.xalanc_1_10::XalanVector.51"* @_ZN11xalanc_1_1011XalanVectorINS0_INS_21XalanListIteratorBaseINS_23XalanListIteratorTraitsINS_8XalanMapIPKNS_13XalanDocumentEPNS_23XalanSourceTreeDocumentENS_17XalanMapKeyTraitsIS6_EEE5EntryEEENS_9XalanListISC_E4NodeEEENS_31MemoryManagedConstructionTraitsISH_EEEENS_32ConstructWithMemoryManagerTraitsISK_EEE8allocateEm(%"class.xalanc_1_10::XalanVector.50"* %this, i64 %size) #6 comdat align 2 !dbg !4995 {
entry:
  %this.addr = alloca %"class.xalanc_1_10::XalanVector.50"*, align 8
  %size.addr = alloca i64, align 8
  %theBytesNeeded = alloca i64, align 8
  %pointer = alloca i8*, align 8
  store %"class.xalanc_1_10::XalanVector.50"* %this, %"class.xalanc_1_10::XalanVector.50"** %this.addr, align 8
  call void @llvm.dbg.declare(metadata %"class.xalanc_1_10::XalanVector.50"** %this.addr, metadata !4996, metadata !DIExpression()), !dbg !4997
  store i64 %size, i64* %size.addr, align 8
  call void @llvm.dbg.declare(metadata i64* %size.addr, metadata !4998, metadata !DIExpression()), !dbg !4999
  %this1 = load %"class.xalanc_1_10::XalanVector.50"*, %"class.xalanc_1_10::XalanVector.50"** %this.addr, align 8
  call void @llvm.dbg.declare(metadata i64* %theBytesNeeded, metadata !5000, metadata !DIExpression()), !dbg !5002
  %0 = load i64, i64* %size.addr, align 8, !dbg !5003
  %mul = mul i64 %0, 32, !dbg !5004
  store i64 %mul, i64* %theBytesNeeded, align 8, !dbg !5002
  call void @llvm.dbg.declare(metadata i8** %pointer, metadata !5005, metadata !DIExpression()), !dbg !5006
  %m_memoryManager = getelementptr inbounds %"class.xalanc_1_10::XalanVector.50", %"class.xalanc_1_10::XalanVector.50"* %this1, i32 0, i32 0, !dbg !5007
  %1 = load %"class.xercesc_2_7::MemoryManager"*, %"class.xercesc_2_7::MemoryManager"** %m_memoryManager, align 8, !dbg !5007
  %2 = load i64, i64* %theBytesNeeded, align 8, !dbg !5008
  %3 = bitcast %"class.xercesc_2_7::MemoryManager"* %1 to i8* (%"class.xercesc_2_7::MemoryManager"*, i64)***, !dbg !5009
  %vtable = load i8* (%"class.xercesc_2_7::MemoryManager"*, i64)**, i8* (%"class.xercesc_2_7::MemoryManager"*, i64)*** %3, align 8, !dbg !5009
  %vfn = getelementptr inbounds i8* (%"class.xercesc_2_7::MemoryManager"*, i64)*, i8* (%"class.xercesc_2_7::MemoryManager"*, i64)** %vtable, i64 2, !dbg !5009
  %4 = load i8* (%"class.xercesc_2_7::MemoryManager"*, i64)*, i8* (%"class.xercesc_2_7::MemoryManager"*, i64)** %vfn, align 8, !dbg !5009
  %call = call i8* %4(%"class.xercesc_2_7::MemoryManager"* %1, i64 %2), !dbg !5009
  store i8* %call, i8** %pointer, align 8, !dbg !5006
  %5 = load i8*, i8** %pointer, align 8, !dbg !5010
  %6 = bitcast i8* %5 to %"class.xalanc_1_10::XalanVector.51"*, !dbg !5011
  ret %"class.xalanc_1_10::XalanVector.51"* %6, !dbg !5012
}

; Function Attrs: noinline nounwind uwtable
define linkonce_odr dso_local void @_ZNK11xalanc_1_1011XalanVectorINS0_INS_21XalanListIteratorBaseINS_23XalanListIteratorTraitsINS_8XalanMapIPKNS_13XalanDocumentEPNS_23XalanSourceTreeDocumentENS_17XalanMapKeyTraitsIS6_EEE5EntryEEENS_9XalanListISC_E4NodeEEENS_31MemoryManagedConstructionTraitsISH_EEEENS_32ConstructWithMemoryManagerTraitsISK_EEE10invariantsEv(%"class.xalanc_1_10::XalanVector.50"* %this) #1 comdat align 2 !dbg !5013 {
entry:
  %this.addr = alloca %"class.xalanc_1_10::XalanVector.50"*, align 8
  store %"class.xalanc_1_10::XalanVector.50"* %this, %"class.xalanc_1_10::XalanVector.50"** %this.addr, align 8
  call void @llvm.dbg.declare(metadata %"class.xalanc_1_10::XalanVector.50"** %this.addr, metadata !5014, metadata !DIExpression()), !dbg !5016
  %this1 = load %"class.xalanc_1_10::XalanVector.50"*, %"class.xalanc_1_10::XalanVector.50"** %this.addr, align 8
  ret void, !dbg !5017
}

; Function Attrs: noinline uwtable
define linkonce_odr dso_local void @_ZN11xalanc_1_109XalanListINS_8XalanMapIPKNS_13XalanDocumentEPNS_23XalanSourceTreeDocumentENS_17XalanMapKeyTraitsIS4_EEE5EntryEE5beginEv(%"struct.xalanc_1_10::XalanListIteratorBase.52"* noalias sret %agg.result, %"class.xalanc_1_10::XalanList.10"* %this) #6 comdat align 2 !dbg !5018 {
entry:
  %result.ptr = alloca i8*, align 8
  %this.addr = alloca %"class.xalanc_1_10::XalanList.10"*, align 8
  %0 = bitcast %"struct.xalanc_1_10::XalanListIteratorBase.52"* %agg.result to i8*
  store i8* %0, i8** %result.ptr, align 8
  store %"class.xalanc_1_10::XalanList.10"* %this, %"class.xalanc_1_10::XalanList.10"** %this.addr, align 8
  call void @llvm.dbg.declare(metadata %"class.xalanc_1_10::XalanList.10"** %this.addr, metadata !5019, metadata !DIExpression()), !dbg !5020
  %this1 = load %"class.xalanc_1_10::XalanList.10"*, %"class.xalanc_1_10::XalanList.10"** %this.addr, align 8
  %call = call dereferenceable(32) %"struct.xalanc_1_10::XalanList<xalanc_1_10::XalanMap<const xalanc_1_10::XalanDocument *, xalanc_1_10::XalanSourceTreeDocument *, xalanc_1_10::XalanMapKeyTraits<const xalanc_1_10::XalanDocument *> >::Entry>::Node"* @_ZN11xalanc_1_109XalanListINS_8XalanMapIPKNS_13XalanDocumentEPNS_23XalanSourceTreeDocumentENS_17XalanMapKeyTraitsIS4_EEE5EntryEE11getListHeadEv(%"class.xalanc_1_10::XalanList.10"* %this1), !dbg !5021
  %next = getelementptr inbounds %"struct.xalanc_1_10::XalanList<xalanc_1_10::XalanMap<const xalanc_1_10::XalanDocument *, xalanc_1_10::XalanSourceTreeDocument *, xalanc_1_10::XalanMapKeyTraits<const xalanc_1_10::XalanDocument *> >::Entry>::Node", %"struct.xalanc_1_10::XalanList<xalanc_1_10::XalanMap<const xalanc_1_10::XalanDocument *, xalanc_1_10::XalanSourceTreeDocument *, xalanc_1_10::XalanMapKeyTraits<const xalanc_1_10::XalanDocument *> >::Entry>::Node"* %call, i32 0, i32 2, !dbg !5022
  %1 = load %"struct.xalanc_1_10::XalanList<xalanc_1_10::XalanMap<const xalanc_1_10::XalanDocument *, xalanc_1_10::XalanSourceTreeDocument *, xalanc_1_10::XalanMapKeyTraits<const xalanc_1_10::XalanDocument *> >::Entry>::Node"*, %"struct.xalanc_1_10::XalanList<xalanc_1_10::XalanMap<const xalanc_1_10::XalanDocument *, xalanc_1_10::XalanSourceTreeDocument *, xalanc_1_10::XalanMapKeyTraits<const xalanc_1_10::XalanDocument *> >::Entry>::Node"** %next, align 8, !dbg !5022
  call void @_ZN11xalanc_1_1021XalanListIteratorBaseINS_23XalanListIteratorTraitsINS_8XalanMapIPKNS_13XalanDocumentEPNS_23XalanSourceTreeDocumentENS_17XalanMapKeyTraitsIS5_EEE5EntryEEENS_9XalanListISB_E4NodeEEC2ERSF_(%"struct.xalanc_1_10::XalanListIteratorBase.52"* %agg.result, %"struct.xalanc_1_10::XalanList<xalanc_1_10::XalanMap<const xalanc_1_10::XalanDocument *, xalanc_1_10::XalanSourceTreeDocument *, xalanc_1_10::XalanMapKeyTraits<const xalanc_1_10::XalanDocument *> >::Entry>::Node"* dereferenceable(32) %1), !dbg !5023
  ret void, !dbg !5024
}

; Function Attrs: noinline uwtable
define linkonce_odr dso_local zeroext i1 @_ZNK11xalanc_1_1021XalanListIteratorBaseINS_23XalanListIteratorTraitsINS_8XalanMapIPKNS_13XalanDocumentEPNS_23XalanSourceTreeDocumentENS_17XalanMapKeyTraitsIS5_EEE5EntryEEENS_9XalanListISB_E4NodeEEneERKSG_(%"struct.xalanc_1_10::XalanListIteratorBase.52"* %this, %"struct.xalanc_1_10::XalanListIteratorBase.52"* dereferenceable(8) %theRhs) #6 comdat align 2 !dbg !5025 {
entry:
  %this.addr = alloca %"struct.xalanc_1_10::XalanListIteratorBase.52"*, align 8
  %theRhs.addr = alloca %"struct.xalanc_1_10::XalanListIteratorBase.52"*, align 8
  store %"struct.xalanc_1_10::XalanListIteratorBase.52"* %this, %"struct.xalanc_1_10::XalanListIteratorBase.52"** %this.addr, align 8
  call void @llvm.dbg.declare(metadata %"struct.xalanc_1_10::XalanListIteratorBase.52"** %this.addr, metadata !5026, metadata !DIExpression()), !dbg !5028
  store %"struct.xalanc_1_10::XalanListIteratorBase.52"* %theRhs, %"struct.xalanc_1_10::XalanListIteratorBase.52"** %theRhs.addr, align 8
  call void @llvm.dbg.declare(metadata %"struct.xalanc_1_10::XalanListIteratorBase.52"** %theRhs.addr, metadata !5029, metadata !DIExpression()), !dbg !5030
  %this1 = load %"struct.xalanc_1_10::XalanListIteratorBase.52"*, %"struct.xalanc_1_10::XalanListIteratorBase.52"** %this.addr, align 8
  %0 = load %"struct.xalanc_1_10::XalanListIteratorBase.52"*, %"struct.xalanc_1_10::XalanListIteratorBase.52"** %theRhs.addr, align 8, !dbg !5031
  %call = call zeroext i1 @_ZNK11xalanc_1_1021XalanListIteratorBaseINS_23XalanListIteratorTraitsINS_8XalanMapIPKNS_13XalanDocumentEPNS_23XalanSourceTreeDocumentENS_17XalanMapKeyTraitsIS5_EEE5EntryEEENS_9XalanListISB_E4NodeEEeqERKSG_(%"struct.xalanc_1_10::XalanListIteratorBase.52"* %this1, %"struct.xalanc_1_10::XalanListIteratorBase.52"* dereferenceable(8) %0), !dbg !5032
  %lnot = xor i1 %call, true, !dbg !5033
  ret i1 %lnot, !dbg !5034
}

; Function Attrs: noinline uwtable
define linkonce_odr dso_local void @_ZN11xalanc_1_109XalanListINS_8XalanMapIPKNS_13XalanDocumentEPNS_23XalanSourceTreeDocumentENS_17XalanMapKeyTraitsIS4_EEE5EntryEE3endEv(%"struct.xalanc_1_10::XalanListIteratorBase.52"* noalias sret %agg.result, %"class.xalanc_1_10::XalanList.10"* %this) #6 comdat align 2 !dbg !5035 {
entry:
  %result.ptr = alloca i8*, align 8
  %this.addr = alloca %"class.xalanc_1_10::XalanList.10"*, align 8
  %0 = bitcast %"struct.xalanc_1_10::XalanListIteratorBase.52"* %agg.result to i8*
  store i8* %0, i8** %result.ptr, align 8
  store %"class.xalanc_1_10::XalanList.10"* %this, %"class.xalanc_1_10::XalanList.10"** %this.addr, align 8
  call void @llvm.dbg.declare(metadata %"class.xalanc_1_10::XalanList.10"** %this.addr, metadata !5036, metadata !DIExpression()), !dbg !5037
  %this1 = load %"class.xalanc_1_10::XalanList.10"*, %"class.xalanc_1_10::XalanList.10"** %this.addr, align 8
  %call = call dereferenceable(32) %"struct.xalanc_1_10::XalanList<xalanc_1_10::XalanMap<const xalanc_1_10::XalanDocument *, xalanc_1_10::XalanSourceTreeDocument *, xalanc_1_10::XalanMapKeyTraits<const xalanc_1_10::XalanDocument *> >::Entry>::Node"* @_ZN11xalanc_1_109XalanListINS_8XalanMapIPKNS_13XalanDocumentEPNS_23XalanSourceTreeDocumentENS_17XalanMapKeyTraitsIS4_EEE5EntryEE11getListHeadEv(%"class.xalanc_1_10::XalanList.10"* %this1), !dbg !5038
  call void @_ZN11xalanc_1_1021XalanListIteratorBaseINS_23XalanListIteratorTraitsINS_8XalanMapIPKNS_13XalanDocumentEPNS_23XalanSourceTreeDocumentENS_17XalanMapKeyTraitsIS5_EEE5EntryEEENS_9XalanListISB_E4NodeEEC2ERSF_(%"struct.xalanc_1_10::XalanListIteratorBase.52"* %agg.result, %"struct.xalanc_1_10::XalanList<xalanc_1_10::XalanMap<const xalanc_1_10::XalanDocument *, xalanc_1_10::XalanSourceTreeDocument *, xalanc_1_10::XalanMapKeyTraits<const xalanc_1_10::XalanDocument *> >::Entry>::Node"* dereferenceable(32) %call), !dbg !5039
  ret void, !dbg !5040
}

; Function Attrs: noinline uwtable
define linkonce_odr dso_local void @_ZN11xalanc_1_109XalanListINS_8XalanMapIPKNS_13XalanDocumentEPNS_23XalanSourceTreeDocumentENS_17XalanMapKeyTraitsIS4_EEE5EntryEE11destroyNodeERNSB_4NodeE(%"class.xalanc_1_10::XalanList.10"* %this, %"struct.xalanc_1_10::XalanList<xalanc_1_10::XalanMap<const xalanc_1_10::XalanDocument *, xalanc_1_10::XalanSourceTreeDocument *, xalanc_1_10::XalanMapKeyTraits<const xalanc_1_10::XalanDocument *> >::Entry>::Node"* dereferenceable(32) %node) #6 comdat align 2 !dbg !5041 {
entry:
  %this.addr = alloca %"class.xalanc_1_10::XalanList.10"*, align 8
  %node.addr = alloca %"struct.xalanc_1_10::XalanList<xalanc_1_10::XalanMap<const xalanc_1_10::XalanDocument *, xalanc_1_10::XalanSourceTreeDocument *, xalanc_1_10::XalanMapKeyTraits<const xalanc_1_10::XalanDocument *> >::Entry>::Node"*, align 8
  store %"class.xalanc_1_10::XalanList.10"* %this, %"class.xalanc_1_10::XalanList.10"** %this.addr, align 8
  call void @llvm.dbg.declare(metadata %"class.xalanc_1_10::XalanList.10"** %this.addr, metadata !5042, metadata !DIExpression()), !dbg !5043
  store %"struct.xalanc_1_10::XalanList<xalanc_1_10::XalanMap<const xalanc_1_10::XalanDocument *, xalanc_1_10::XalanSourceTreeDocument *, xalanc_1_10::XalanMapKeyTraits<const xalanc_1_10::XalanDocument *> >::Entry>::Node"* %node, %"struct.xalanc_1_10::XalanList<xalanc_1_10::XalanMap<const xalanc_1_10::XalanDocument *, xalanc_1_10::XalanSourceTreeDocument *, xalanc_1_10::XalanMapKeyTraits<const xalanc_1_10::XalanDocument *> >::Entry>::Node"** %node.addr, align 8
  call void @llvm.dbg.declare(metadata %"struct.xalanc_1_10::XalanList<xalanc_1_10::XalanMap<const xalanc_1_10::XalanDocument *, xalanc_1_10::XalanSourceTreeDocument *, xalanc_1_10::XalanMapKeyTraits<const xalanc_1_10::XalanDocument *> >::Entry>::Node"** %node.addr, metadata !5044, metadata !DIExpression()), !dbg !5045
  %this1 = load %"class.xalanc_1_10::XalanList.10"*, %"class.xalanc_1_10::XalanList.10"** %this.addr, align 8
  %0 = load %"struct.xalanc_1_10::XalanList<xalanc_1_10::XalanMap<const xalanc_1_10::XalanDocument *, xalanc_1_10::XalanSourceTreeDocument *, xalanc_1_10::XalanMapKeyTraits<const xalanc_1_10::XalanDocument *> >::Entry>::Node"*, %"struct.xalanc_1_10::XalanList<xalanc_1_10::XalanMap<const xalanc_1_10::XalanDocument *, xalanc_1_10::XalanSourceTreeDocument *, xalanc_1_10::XalanMapKeyTraits<const xalanc_1_10::XalanDocument *> >::Entry>::Node"** %node.addr, align 8, !dbg !5046
  %1 = load %"struct.xalanc_1_10::XalanList<xalanc_1_10::XalanMap<const xalanc_1_10::XalanDocument *, xalanc_1_10::XalanSourceTreeDocument *, xalanc_1_10::XalanMapKeyTraits<const xalanc_1_10::XalanDocument *> >::Entry>::Node"*, %"struct.xalanc_1_10::XalanList<xalanc_1_10::XalanMap<const xalanc_1_10::XalanDocument *, xalanc_1_10::XalanSourceTreeDocument *, xalanc_1_10::XalanMapKeyTraits<const xalanc_1_10::XalanDocument *> >::Entry>::Node"** %node.addr, align 8, !dbg !5047
  call void @_ZN11xalanc_1_109XalanListINS_8XalanMapIPKNS_13XalanDocumentEPNS_23XalanSourceTreeDocumentENS_17XalanMapKeyTraitsIS4_EEE5EntryEE10deallocateEPNSB_4NodeE(%"class.xalanc_1_10::XalanList.10"* %this1, %"struct.xalanc_1_10::XalanList<xalanc_1_10::XalanMap<const xalanc_1_10::XalanDocument *, xalanc_1_10::XalanSourceTreeDocument *, xalanc_1_10::XalanMapKeyTraits<const xalanc_1_10::XalanDocument *> >::Entry>::Node"* %1), !dbg !5048
  ret void, !dbg !5049
}

; Function Attrs: noinline uwtable
define linkonce_odr dso_local void @_ZN11xalanc_1_1021XalanListIteratorBaseINS_23XalanListIteratorTraitsINS_8XalanMapIPKNS_13XalanDocumentEPNS_23XalanSourceTreeDocumentENS_17XalanMapKeyTraitsIS5_EEE5EntryEEENS_9XalanListISB_E4NodeEEppEi(%"struct.xalanc_1_10::XalanListIteratorBase.52"* noalias sret %agg.result, %"struct.xalanc_1_10::XalanListIteratorBase.52"* %this, i32 %0) #6 comdat align 2 !dbg !5050 {
entry:
  %result.ptr = alloca i8*, align 8
  %this.addr = alloca %"struct.xalanc_1_10::XalanListIteratorBase.52"*, align 8
  %.addr = alloca i32, align 4
  %origNode = alloca %"struct.xalanc_1_10::XalanList<xalanc_1_10::XalanMap<const xalanc_1_10::XalanDocument *, xalanc_1_10::XalanSourceTreeDocument *, xalanc_1_10::XalanMapKeyTraits<const xalanc_1_10::XalanDocument *> >::Entry>::Node"*, align 8
  %1 = bitcast %"struct.xalanc_1_10::XalanListIteratorBase.52"* %agg.result to i8*
  store i8* %1, i8** %result.ptr, align 8
  store %"struct.xalanc_1_10::XalanListIteratorBase.52"* %this, %"struct.xalanc_1_10::XalanListIteratorBase.52"** %this.addr, align 8
  call void @llvm.dbg.declare(metadata %"struct.xalanc_1_10::XalanListIteratorBase.52"** %this.addr, metadata !5051, metadata !DIExpression()), !dbg !5052
  store i32 %0, i32* %.addr, align 4
  call void @llvm.dbg.declare(metadata i32* %.addr, metadata !5053, metadata !DIExpression()), !dbg !5054
  %this1 = load %"struct.xalanc_1_10::XalanListIteratorBase.52"*, %"struct.xalanc_1_10::XalanListIteratorBase.52"** %this.addr, align 8
  call void @llvm.dbg.declare(metadata %"struct.xalanc_1_10::XalanList<xalanc_1_10::XalanMap<const xalanc_1_10::XalanDocument *, xalanc_1_10::XalanSourceTreeDocument *, xalanc_1_10::XalanMapKeyTraits<const xalanc_1_10::XalanDocument *> >::Entry>::Node"** %origNode, metadata !5055, metadata !DIExpression()), !dbg !5056
  %currentNode = getelementptr inbounds %"struct.xalanc_1_10::XalanListIteratorBase.52", %"struct.xalanc_1_10::XalanListIteratorBase.52"* %this1, i32 0, i32 0, !dbg !5057
  %2 = load %"struct.xalanc_1_10::XalanList<xalanc_1_10::XalanMap<const xalanc_1_10::XalanDocument *, xalanc_1_10::XalanSourceTreeDocument *, xalanc_1_10::XalanMapKeyTraits<const xalanc_1_10::XalanDocument *> >::Entry>::Node"*, %"struct.xalanc_1_10::XalanList<xalanc_1_10::XalanMap<const xalanc_1_10::XalanDocument *, xalanc_1_10::XalanSourceTreeDocument *, xalanc_1_10::XalanMapKeyTraits<const xalanc_1_10::XalanDocument *> >::Entry>::Node"** %currentNode, align 8, !dbg !5057
  store %"struct.xalanc_1_10::XalanList<xalanc_1_10::XalanMap<const xalanc_1_10::XalanDocument *, xalanc_1_10::XalanSourceTreeDocument *, xalanc_1_10::XalanMapKeyTraits<const xalanc_1_10::XalanDocument *> >::Entry>::Node"* %2, %"struct.xalanc_1_10::XalanList<xalanc_1_10::XalanMap<const xalanc_1_10::XalanDocument *, xalanc_1_10::XalanSourceTreeDocument *, xalanc_1_10::XalanMapKeyTraits<const xalanc_1_10::XalanDocument *> >::Entry>::Node"** %origNode, align 8, !dbg !5056
  %currentNode2 = getelementptr inbounds %"struct.xalanc_1_10::XalanListIteratorBase.52", %"struct.xalanc_1_10::XalanListIteratorBase.52"* %this1, i32 0, i32 0, !dbg !5058
  %3 = load %"struct.xalanc_1_10::XalanList<xalanc_1_10::XalanMap<const xalanc_1_10::XalanDocument *, xalanc_1_10::XalanSourceTreeDocument *, xalanc_1_10::XalanMapKeyTraits<const xalanc_1_10::XalanDocument *> >::Entry>::Node"*, %"struct.xalanc_1_10::XalanList<xalanc_1_10::XalanMap<const xalanc_1_10::XalanDocument *, xalanc_1_10::XalanSourceTreeDocument *, xalanc_1_10::XalanMapKeyTraits<const xalanc_1_10::XalanDocument *> >::Entry>::Node"** %currentNode2, align 8, !dbg !5058
  %next = getelementptr inbounds %"struct.xalanc_1_10::XalanList<xalanc_1_10::XalanMap<const xalanc_1_10::XalanDocument *, xalanc_1_10::XalanSourceTreeDocument *, xalanc_1_10::XalanMapKeyTraits<const xalanc_1_10::XalanDocument *> >::Entry>::Node", %"struct.xalanc_1_10::XalanList<xalanc_1_10::XalanMap<const xalanc_1_10::XalanDocument *, xalanc_1_10::XalanSourceTreeDocument *, xalanc_1_10::XalanMapKeyTraits<const xalanc_1_10::XalanDocument *> >::Entry>::Node"* %3, i32 0, i32 2, !dbg !5059
  %4 = load %"struct.xalanc_1_10::XalanList<xalanc_1_10::XalanMap<const xalanc_1_10::XalanDocument *, xalanc_1_10::XalanSourceTreeDocument *, xalanc_1_10::XalanMapKeyTraits<const xalanc_1_10::XalanDocument *> >::Entry>::Node"*, %"struct.xalanc_1_10::XalanList<xalanc_1_10::XalanMap<const xalanc_1_10::XalanDocument *, xalanc_1_10::XalanSourceTreeDocument *, xalanc_1_10::XalanMapKeyTraits<const xalanc_1_10::XalanDocument *> >::Entry>::Node"** %next, align 8, !dbg !5059
  %currentNode3 = getelementptr inbounds %"struct.xalanc_1_10::XalanListIteratorBase.52", %"struct.xalanc_1_10::XalanListIteratorBase.52"* %this1, i32 0, i32 0, !dbg !5060
  store %"struct.xalanc_1_10::XalanList<xalanc_1_10::XalanMap<const xalanc_1_10::XalanDocument *, xalanc_1_10::XalanSourceTreeDocument *, xalanc_1_10::XalanMapKeyTraits<const xalanc_1_10::XalanDocument *> >::Entry>::Node"* %4, %"struct.xalanc_1_10::XalanList<xalanc_1_10::XalanMap<const xalanc_1_10::XalanDocument *, xalanc_1_10::XalanSourceTreeDocument *, xalanc_1_10::XalanMapKeyTraits<const xalanc_1_10::XalanDocument *> >::Entry>::Node"** %currentNode3, align 8, !dbg !5061
  %5 = load %"struct.xalanc_1_10::XalanList<xalanc_1_10::XalanMap<const xalanc_1_10::XalanDocument *, xalanc_1_10::XalanSourceTreeDocument *, xalanc_1_10::XalanMapKeyTraits<const xalanc_1_10::XalanDocument *> >::Entry>::Node"*, %"struct.xalanc_1_10::XalanList<xalanc_1_10::XalanMap<const xalanc_1_10::XalanDocument *, xalanc_1_10::XalanSourceTreeDocument *, xalanc_1_10::XalanMapKeyTraits<const xalanc_1_10::XalanDocument *> >::Entry>::Node"** %origNode, align 8, !dbg !5062
  call void @_ZN11xalanc_1_1021XalanListIteratorBaseINS_23XalanListIteratorTraitsINS_8XalanMapIPKNS_13XalanDocumentEPNS_23XalanSourceTreeDocumentENS_17XalanMapKeyTraitsIS5_EEE5EntryEEENS_9XalanListISB_E4NodeEEC2ERSF_(%"struct.xalanc_1_10::XalanListIteratorBase.52"* %agg.result, %"struct.xalanc_1_10::XalanList<xalanc_1_10::XalanMap<const xalanc_1_10::XalanDocument *, xalanc_1_10::XalanSourceTreeDocument *, xalanc_1_10::XalanMapKeyTraits<const xalanc_1_10::XalanDocument *> >::Entry>::Node"* dereferenceable(32) %5), !dbg !5063
  ret void, !dbg !5064
}

; Function Attrs: noinline nounwind uwtable
define linkonce_odr dso_local dereferenceable(32) %"struct.xalanc_1_10::XalanList<xalanc_1_10::XalanMap<const xalanc_1_10::XalanDocument *, xalanc_1_10::XalanSourceTreeDocument *, xalanc_1_10::XalanMapKeyTraits<const xalanc_1_10::XalanDocument *> >::Entry>::Node"* @_ZN11xalanc_1_1021XalanListIteratorBaseINS_23XalanListIteratorTraitsINS_8XalanMapIPKNS_13XalanDocumentEPNS_23XalanSourceTreeDocumentENS_17XalanMapKeyTraitsIS5_EEE5EntryEEENS_9XalanListISB_E4NodeEE4nodeEv(%"struct.xalanc_1_10::XalanListIteratorBase.52"* %this) #1 comdat align 2 !dbg !5065 {
entry:
  %this.addr = alloca %"struct.xalanc_1_10::XalanListIteratorBase.52"*, align 8
  store %"struct.xalanc_1_10::XalanListIteratorBase.52"* %this, %"struct.xalanc_1_10::XalanListIteratorBase.52"** %this.addr, align 8
  call void @llvm.dbg.declare(metadata %"struct.xalanc_1_10::XalanListIteratorBase.52"** %this.addr, metadata !5066, metadata !DIExpression()), !dbg !5067
  %this1 = load %"struct.xalanc_1_10::XalanListIteratorBase.52"*, %"struct.xalanc_1_10::XalanListIteratorBase.52"** %this.addr, align 8
  %currentNode = getelementptr inbounds %"struct.xalanc_1_10::XalanListIteratorBase.52", %"struct.xalanc_1_10::XalanListIteratorBase.52"* %this1, i32 0, i32 0, !dbg !5068
  %0 = load %"struct.xalanc_1_10::XalanList<xalanc_1_10::XalanMap<const xalanc_1_10::XalanDocument *, xalanc_1_10::XalanSourceTreeDocument *, xalanc_1_10::XalanMapKeyTraits<const xalanc_1_10::XalanDocument *> >::Entry>::Node"*, %"struct.xalanc_1_10::XalanList<xalanc_1_10::XalanMap<const xalanc_1_10::XalanDocument *, xalanc_1_10::XalanSourceTreeDocument *, xalanc_1_10::XalanMapKeyTraits<const xalanc_1_10::XalanDocument *> >::Entry>::Node"** %currentNode, align 8, !dbg !5068
  ret %"struct.xalanc_1_10::XalanList<xalanc_1_10::XalanMap<const xalanc_1_10::XalanDocument *, xalanc_1_10::XalanSourceTreeDocument *, xalanc_1_10::XalanMapKeyTraits<const xalanc_1_10::XalanDocument *> >::Entry>::Node"* %0, !dbg !5069
}

; Function Attrs: noinline uwtable
define linkonce_odr dso_local void @_ZN11xalanc_1_109XalanListINS_8XalanMapIPKNS_13XalanDocumentEPNS_23XalanSourceTreeDocumentENS_17XalanMapKeyTraitsIS4_EEE5EntryEE10deallocateEPNSB_4NodeE(%"class.xalanc_1_10::XalanList.10"* %this, %"struct.xalanc_1_10::XalanList<xalanc_1_10::XalanMap<const xalanc_1_10::XalanDocument *, xalanc_1_10::XalanSourceTreeDocument *, xalanc_1_10::XalanMapKeyTraits<const xalanc_1_10::XalanDocument *> >::Entry>::Node"* %pointer) #6 comdat align 2 !dbg !5070 {
entry:
  %this.addr = alloca %"class.xalanc_1_10::XalanList.10"*, align 8
  %pointer.addr = alloca %"struct.xalanc_1_10::XalanList<xalanc_1_10::XalanMap<const xalanc_1_10::XalanDocument *, xalanc_1_10::XalanSourceTreeDocument *, xalanc_1_10::XalanMapKeyTraits<const xalanc_1_10::XalanDocument *> >::Entry>::Node"*, align 8
  store %"class.xalanc_1_10::XalanList.10"* %this, %"class.xalanc_1_10::XalanList.10"** %this.addr, align 8
  call void @llvm.dbg.declare(metadata %"class.xalanc_1_10::XalanList.10"** %this.addr, metadata !5071, metadata !DIExpression()), !dbg !5072
  store %"struct.xalanc_1_10::XalanList<xalanc_1_10::XalanMap<const xalanc_1_10::XalanDocument *, xalanc_1_10::XalanSourceTreeDocument *, xalanc_1_10::XalanMapKeyTraits<const xalanc_1_10::XalanDocument *> >::Entry>::Node"* %pointer, %"struct.xalanc_1_10::XalanList<xalanc_1_10::XalanMap<const xalanc_1_10::XalanDocument *, xalanc_1_10::XalanSourceTreeDocument *, xalanc_1_10::XalanMapKeyTraits<const xalanc_1_10::XalanDocument *> >::Entry>::Node"** %pointer.addr, align 8
  call void @llvm.dbg.declare(metadata %"struct.xalanc_1_10::XalanList<xalanc_1_10::XalanMap<const xalanc_1_10::XalanDocument *, xalanc_1_10::XalanSourceTreeDocument *, xalanc_1_10::XalanMapKeyTraits<const xalanc_1_10::XalanDocument *> >::Entry>::Node"** %pointer.addr, metadata !5073, metadata !DIExpression()), !dbg !5074
  %this1 = load %"class.xalanc_1_10::XalanList.10"*, %"class.xalanc_1_10::XalanList.10"** %this.addr, align 8
  %m_memoryManager = getelementptr inbounds %"class.xalanc_1_10::XalanList.10", %"class.xalanc_1_10::XalanList.10"* %this1, i32 0, i32 0, !dbg !5075
  %0 = load %"class.xercesc_2_7::MemoryManager"*, %"class.xercesc_2_7::MemoryManager"** %m_memoryManager, align 8, !dbg !5075
  %1 = load %"struct.xalanc_1_10::XalanList<xalanc_1_10::XalanMap<const xalanc_1_10::XalanDocument *, xalanc_1_10::XalanSourceTreeDocument *, xalanc_1_10::XalanMapKeyTraits<const xalanc_1_10::XalanDocument *> >::Entry>::Node"*, %"struct.xalanc_1_10::XalanList<xalanc_1_10::XalanMap<const xalanc_1_10::XalanDocument *, xalanc_1_10::XalanSourceTreeDocument *, xalanc_1_10::XalanMapKeyTraits<const xalanc_1_10::XalanDocument *> >::Entry>::Node"** %pointer.addr, align 8, !dbg !5076
  %2 = bitcast %"struct.xalanc_1_10::XalanList<xalanc_1_10::XalanMap<const xalanc_1_10::XalanDocument *, xalanc_1_10::XalanSourceTreeDocument *, xalanc_1_10::XalanMapKeyTraits<const xalanc_1_10::XalanDocument *> >::Entry>::Node"* %1 to i8*, !dbg !5076
  %3 = bitcast %"class.xercesc_2_7::MemoryManager"* %0 to void (%"class.xercesc_2_7::MemoryManager"*, i8*)***, !dbg !5077
  %vtable = load void (%"class.xercesc_2_7::MemoryManager"*, i8*)**, void (%"class.xercesc_2_7::MemoryManager"*, i8*)*** %3, align 8, !dbg !5077
  %vfn = getelementptr inbounds void (%"class.xercesc_2_7::MemoryManager"*, i8*)*, void (%"class.xercesc_2_7::MemoryManager"*, i8*)** %vtable, i64 3, !dbg !5077
  %4 = load void (%"class.xercesc_2_7::MemoryManager"*, i8*)*, void (%"class.xercesc_2_7::MemoryManager"*, i8*)** %vfn, align 8, !dbg !5077
  call void %4(%"class.xercesc_2_7::MemoryManager"* %0, i8* %2), !dbg !5077
  ret void, !dbg !5078
}

; Function Attrs: noinline uwtable
define linkonce_odr dso_local dereferenceable(32) %"struct.xalanc_1_10::XalanList<xalanc_1_10::XalanMap<const xalanc_1_10::XalanDocument *, xalanc_1_10::XalanSourceTreeDocument *, xalanc_1_10::XalanMapKeyTraits<const xalanc_1_10::XalanDocument *> >::Entry>::Node"* @_ZN11xalanc_1_109XalanListINS_8XalanMapIPKNS_13XalanDocumentEPNS_23XalanSourceTreeDocumentENS_17XalanMapKeyTraitsIS4_EEE5EntryEE11getListHeadEv(%"class.xalanc_1_10::XalanList.10"* %this) #6 comdat align 2 !dbg !5079 {
entry:
  %this.addr = alloca %"class.xalanc_1_10::XalanList.10"*, align 8
  store %"class.xalanc_1_10::XalanList.10"* %this, %"class.xalanc_1_10::XalanList.10"** %this.addr, align 8
  call void @llvm.dbg.declare(metadata %"class.xalanc_1_10::XalanList.10"** %this.addr, metadata !5080, metadata !DIExpression()), !dbg !5081
  %this1 = load %"class.xalanc_1_10::XalanList.10"*, %"class.xalanc_1_10::XalanList.10"** %this.addr, align 8
  %m_listHead = getelementptr inbounds %"class.xalanc_1_10::XalanList.10", %"class.xalanc_1_10::XalanList.10"* %this1, i32 0, i32 1, !dbg !5082
  %0 = load %"struct.xalanc_1_10::XalanList<xalanc_1_10::XalanMap<const xalanc_1_10::XalanDocument *, xalanc_1_10::XalanSourceTreeDocument *, xalanc_1_10::XalanMapKeyTraits<const xalanc_1_10::XalanDocument *> >::Entry>::Node"*, %"struct.xalanc_1_10::XalanList<xalanc_1_10::XalanMap<const xalanc_1_10::XalanDocument *, xalanc_1_10::XalanSourceTreeDocument *, xalanc_1_10::XalanMapKeyTraits<const xalanc_1_10::XalanDocument *> >::Entry>::Node"** %m_listHead, align 8, !dbg !5082
  %cmp = icmp eq %"struct.xalanc_1_10::XalanList<xalanc_1_10::XalanMap<const xalanc_1_10::XalanDocument *, xalanc_1_10::XalanSourceTreeDocument *, xalanc_1_10::XalanMapKeyTraits<const xalanc_1_10::XalanDocument *> >::Entry>::Node"* null, %0, !dbg !5084
  br i1 %cmp, label %if.then, label %if.end, !dbg !5085

if.then:                                          ; preds = %entry
  %call = call %"struct.xalanc_1_10::XalanList<xalanc_1_10::XalanMap<const xalanc_1_10::XalanDocument *, xalanc_1_10::XalanSourceTreeDocument *, xalanc_1_10::XalanMapKeyTraits<const xalanc_1_10::XalanDocument *> >::Entry>::Node"* @_ZN11xalanc_1_109XalanListINS_8XalanMapIPKNS_13XalanDocumentEPNS_23XalanSourceTreeDocumentENS_17XalanMapKeyTraitsIS4_EEE5EntryEE8allocateEm(%"class.xalanc_1_10::XalanList.10"* %this1, i64 1), !dbg !5086
  %m_listHead2 = getelementptr inbounds %"class.xalanc_1_10::XalanList.10", %"class.xalanc_1_10::XalanList.10"* %this1, i32 0, i32 1, !dbg !5088
  store %"struct.xalanc_1_10::XalanList<xalanc_1_10::XalanMap<const xalanc_1_10::XalanDocument *, xalanc_1_10::XalanSourceTreeDocument *, xalanc_1_10::XalanMapKeyTraits<const xalanc_1_10::XalanDocument *> >::Entry>::Node"* %call, %"struct.xalanc_1_10::XalanList<xalanc_1_10::XalanMap<const xalanc_1_10::XalanDocument *, xalanc_1_10::XalanSourceTreeDocument *, xalanc_1_10::XalanMapKeyTraits<const xalanc_1_10::XalanDocument *> >::Entry>::Node"** %m_listHead2, align 8, !dbg !5089
  %m_listHead3 = getelementptr inbounds %"class.xalanc_1_10::XalanList.10", %"class.xalanc_1_10::XalanList.10"* %this1, i32 0, i32 1, !dbg !5090
  %1 = load %"struct.xalanc_1_10::XalanList<xalanc_1_10::XalanMap<const xalanc_1_10::XalanDocument *, xalanc_1_10::XalanSourceTreeDocument *, xalanc_1_10::XalanMapKeyTraits<const xalanc_1_10::XalanDocument *> >::Entry>::Node"*, %"struct.xalanc_1_10::XalanList<xalanc_1_10::XalanMap<const xalanc_1_10::XalanDocument *, xalanc_1_10::XalanSourceTreeDocument *, xalanc_1_10::XalanMapKeyTraits<const xalanc_1_10::XalanDocument *> >::Entry>::Node"** %m_listHead3, align 8, !dbg !5090
  %m_listHead4 = getelementptr inbounds %"class.xalanc_1_10::XalanList.10", %"class.xalanc_1_10::XalanList.10"* %this1, i32 0, i32 1, !dbg !5091
  %2 = load %"struct.xalanc_1_10::XalanList<xalanc_1_10::XalanMap<const xalanc_1_10::XalanDocument *, xalanc_1_10::XalanSourceTreeDocument *, xalanc_1_10::XalanMapKeyTraits<const xalanc_1_10::XalanDocument *> >::Entry>::Node"*, %"struct.xalanc_1_10::XalanList<xalanc_1_10::XalanMap<const xalanc_1_10::XalanDocument *, xalanc_1_10::XalanSourceTreeDocument *, xalanc_1_10::XalanMapKeyTraits<const xalanc_1_10::XalanDocument *> >::Entry>::Node"** %m_listHead4, align 8, !dbg !5091
  %next = getelementptr inbounds %"struct.xalanc_1_10::XalanList<xalanc_1_10::XalanMap<const xalanc_1_10::XalanDocument *, xalanc_1_10::XalanSourceTreeDocument *, xalanc_1_10::XalanMapKeyTraits<const xalanc_1_10::XalanDocument *> >::Entry>::Node", %"struct.xalanc_1_10::XalanList<xalanc_1_10::XalanMap<const xalanc_1_10::XalanDocument *, xalanc_1_10::XalanSourceTreeDocument *, xalanc_1_10::XalanMapKeyTraits<const xalanc_1_10::XalanDocument *> >::Entry>::Node"* %2, i32 0, i32 2, !dbg !5092
  store %"struct.xalanc_1_10::XalanList<xalanc_1_10::XalanMap<const xalanc_1_10::XalanDocument *, xalanc_1_10::XalanSourceTreeDocument *, xalanc_1_10::XalanMapKeyTraits<const xalanc_1_10::XalanDocument *> >::Entry>::Node"* %1, %"struct.xalanc_1_10::XalanList<xalanc_1_10::XalanMap<const xalanc_1_10::XalanDocument *, xalanc_1_10::XalanSourceTreeDocument *, xalanc_1_10::XalanMapKeyTraits<const xalanc_1_10::XalanDocument *> >::Entry>::Node"** %next, align 8, !dbg !5093
  %m_listHead5 = getelementptr inbounds %"class.xalanc_1_10::XalanList.10", %"class.xalanc_1_10::XalanList.10"* %this1, i32 0, i32 1, !dbg !5094
  %3 = load %"struct.xalanc_1_10::XalanList<xalanc_1_10::XalanMap<const xalanc_1_10::XalanDocument *, xalanc_1_10::XalanSourceTreeDocument *, xalanc_1_10::XalanMapKeyTraits<const xalanc_1_10::XalanDocument *> >::Entry>::Node"*, %"struct.xalanc_1_10::XalanList<xalanc_1_10::XalanMap<const xalanc_1_10::XalanDocument *, xalanc_1_10::XalanSourceTreeDocument *, xalanc_1_10::XalanMapKeyTraits<const xalanc_1_10::XalanDocument *> >::Entry>::Node"** %m_listHead5, align 8, !dbg !5094
  %m_listHead6 = getelementptr inbounds %"class.xalanc_1_10::XalanList.10", %"class.xalanc_1_10::XalanList.10"* %this1, i32 0, i32 1, !dbg !5095
  %4 = load %"struct.xalanc_1_10::XalanList<xalanc_1_10::XalanMap<const xalanc_1_10::XalanDocument *, xalanc_1_10::XalanSourceTreeDocument *, xalanc_1_10::XalanMapKeyTraits<const xalanc_1_10::XalanDocument *> >::Entry>::Node"*, %"struct.xalanc_1_10::XalanList<xalanc_1_10::XalanMap<const xalanc_1_10::XalanDocument *, xalanc_1_10::XalanSourceTreeDocument *, xalanc_1_10::XalanMapKeyTraits<const xalanc_1_10::XalanDocument *> >::Entry>::Node"** %m_listHead6, align 8, !dbg !5095
  %prev = getelementptr inbounds %"struct.xalanc_1_10::XalanList<xalanc_1_10::XalanMap<const xalanc_1_10::XalanDocument *, xalanc_1_10::XalanSourceTreeDocument *, xalanc_1_10::XalanMapKeyTraits<const xalanc_1_10::XalanDocument *> >::Entry>::Node", %"struct.xalanc_1_10::XalanList<xalanc_1_10::XalanMap<const xalanc_1_10::XalanDocument *, xalanc_1_10::XalanSourceTreeDocument *, xalanc_1_10::XalanMapKeyTraits<const xalanc_1_10::XalanDocument *> >::Entry>::Node"* %4, i32 0, i32 1, !dbg !5096
  store %"struct.xalanc_1_10::XalanList<xalanc_1_10::XalanMap<const xalanc_1_10::XalanDocument *, xalanc_1_10::XalanSourceTreeDocument *, xalanc_1_10::XalanMapKeyTraits<const xalanc_1_10::XalanDocument *> >::Entry>::Node"* %3, %"struct.xalanc_1_10::XalanList<xalanc_1_10::XalanMap<const xalanc_1_10::XalanDocument *, xalanc_1_10::XalanSourceTreeDocument *, xalanc_1_10::XalanMapKeyTraits<const xalanc_1_10::XalanDocument *> >::Entry>::Node"** %prev, align 8, !dbg !5097
  br label %if.end, !dbg !5098

if.end:                                           ; preds = %if.then, %entry
  %m_listHead7 = getelementptr inbounds %"class.xalanc_1_10::XalanList.10", %"class.xalanc_1_10::XalanList.10"* %this1, i32 0, i32 1, !dbg !5099
  %5 = load %"struct.xalanc_1_10::XalanList<xalanc_1_10::XalanMap<const xalanc_1_10::XalanDocument *, xalanc_1_10::XalanSourceTreeDocument *, xalanc_1_10::XalanMapKeyTraits<const xalanc_1_10::XalanDocument *> >::Entry>::Node"*, %"struct.xalanc_1_10::XalanList<xalanc_1_10::XalanMap<const xalanc_1_10::XalanDocument *, xalanc_1_10::XalanSourceTreeDocument *, xalanc_1_10::XalanMapKeyTraits<const xalanc_1_10::XalanDocument *> >::Entry>::Node"** %m_listHead7, align 8, !dbg !5099
  ret %"struct.xalanc_1_10::XalanList<xalanc_1_10::XalanMap<const xalanc_1_10::XalanDocument *, xalanc_1_10::XalanSourceTreeDocument *, xalanc_1_10::XalanMapKeyTraits<const xalanc_1_10::XalanDocument *> >::Entry>::Node"* %5, !dbg !5100
}

; Function Attrs: noinline nounwind uwtable
define linkonce_odr dso_local void @_ZN11xalanc_1_1021XalanListIteratorBaseINS_23XalanListIteratorTraitsINS_8XalanMapIPKNS_13XalanDocumentEPNS_23XalanSourceTreeDocumentENS_17XalanMapKeyTraitsIS5_EEE5EntryEEENS_9XalanListISB_E4NodeEEC2ERSF_(%"struct.xalanc_1_10::XalanListIteratorBase.52"* %this, %"struct.xalanc_1_10::XalanList<xalanc_1_10::XalanMap<const xalanc_1_10::XalanDocument *, xalanc_1_10::XalanSourceTreeDocument *, xalanc_1_10::XalanMapKeyTraits<const xalanc_1_10::XalanDocument *> >::Entry>::Node"* dereferenceable(32) %node) unnamed_addr #1 comdat align 2 !dbg !5101 {
entry:
  %this.addr = alloca %"struct.xalanc_1_10::XalanListIteratorBase.52"*, align 8
  %node.addr = alloca %"struct.xalanc_1_10::XalanList<xalanc_1_10::XalanMap<const xalanc_1_10::XalanDocument *, xalanc_1_10::XalanSourceTreeDocument *, xalanc_1_10::XalanMapKeyTraits<const xalanc_1_10::XalanDocument *> >::Entry>::Node"*, align 8
  store %"struct.xalanc_1_10::XalanListIteratorBase.52"* %this, %"struct.xalanc_1_10::XalanListIteratorBase.52"** %this.addr, align 8
  call void @llvm.dbg.declare(metadata %"struct.xalanc_1_10::XalanListIteratorBase.52"** %this.addr, metadata !5102, metadata !DIExpression()), !dbg !5103
  store %"struct.xalanc_1_10::XalanList<xalanc_1_10::XalanMap<const xalanc_1_10::XalanDocument *, xalanc_1_10::XalanSourceTreeDocument *, xalanc_1_10::XalanMapKeyTraits<const xalanc_1_10::XalanDocument *> >::Entry>::Node"* %node, %"struct.xalanc_1_10::XalanList<xalanc_1_10::XalanMap<const xalanc_1_10::XalanDocument *, xalanc_1_10::XalanSourceTreeDocument *, xalanc_1_10::XalanMapKeyTraits<const xalanc_1_10::XalanDocument *> >::Entry>::Node"** %node.addr, align 8
  call void @llvm.dbg.declare(metadata %"struct.xalanc_1_10::XalanList<xalanc_1_10::XalanMap<const xalanc_1_10::XalanDocument *, xalanc_1_10::XalanSourceTreeDocument *, xalanc_1_10::XalanMapKeyTraits<const xalanc_1_10::XalanDocument *> >::Entry>::Node"** %node.addr, metadata !5104, metadata !DIExpression()), !dbg !5105
  %this1 = load %"struct.xalanc_1_10::XalanListIteratorBase.52"*, %"struct.xalanc_1_10::XalanListIteratorBase.52"** %this.addr, align 8
  %currentNode = getelementptr inbounds %"struct.xalanc_1_10::XalanListIteratorBase.52", %"struct.xalanc_1_10::XalanListIteratorBase.52"* %this1, i32 0, i32 0, !dbg !5106
  %0 = load %"struct.xalanc_1_10::XalanList<xalanc_1_10::XalanMap<const xalanc_1_10::XalanDocument *, xalanc_1_10::XalanSourceTreeDocument *, xalanc_1_10::XalanMapKeyTraits<const xalanc_1_10::XalanDocument *> >::Entry>::Node"*, %"struct.xalanc_1_10::XalanList<xalanc_1_10::XalanMap<const xalanc_1_10::XalanDocument *, xalanc_1_10::XalanSourceTreeDocument *, xalanc_1_10::XalanMapKeyTraits<const xalanc_1_10::XalanDocument *> >::Entry>::Node"** %node.addr, align 8, !dbg !5107
  store %"struct.xalanc_1_10::XalanList<xalanc_1_10::XalanMap<const xalanc_1_10::XalanDocument *, xalanc_1_10::XalanSourceTreeDocument *, xalanc_1_10::XalanMapKeyTraits<const xalanc_1_10::XalanDocument *> >::Entry>::Node"* %0, %"struct.xalanc_1_10::XalanList<xalanc_1_10::XalanMap<const xalanc_1_10::XalanDocument *, xalanc_1_10::XalanSourceTreeDocument *, xalanc_1_10::XalanMapKeyTraits<const xalanc_1_10::XalanDocument *> >::Entry>::Node"** %currentNode, align 8, !dbg !5106
  ret void, !dbg !5108
}

; Function Attrs: noinline uwtable
define linkonce_odr dso_local %"struct.xalanc_1_10::XalanList<xalanc_1_10::XalanMap<const xalanc_1_10::XalanDocument *, xalanc_1_10::XalanSourceTreeDocument *, xalanc_1_10::XalanMapKeyTraits<const xalanc_1_10::XalanDocument *> >::Entry>::Node"* @_ZN11xalanc_1_109XalanListINS_8XalanMapIPKNS_13XalanDocumentEPNS_23XalanSourceTreeDocumentENS_17XalanMapKeyTraitsIS4_EEE5EntryEE8allocateEm(%"class.xalanc_1_10::XalanList.10"* %this, i64 %size) #6 comdat align 2 !dbg !5109 {
entry:
  %this.addr = alloca %"class.xalanc_1_10::XalanList.10"*, align 8
  %size.addr = alloca i64, align 8
  %theBytesNeeded = alloca i64, align 8
  %pointer = alloca i8*, align 8
  store %"class.xalanc_1_10::XalanList.10"* %this, %"class.xalanc_1_10::XalanList.10"** %this.addr, align 8
  call void @llvm.dbg.declare(metadata %"class.xalanc_1_10::XalanList.10"** %this.addr, metadata !5110, metadata !DIExpression()), !dbg !5111
  store i64 %size, i64* %size.addr, align 8
  call void @llvm.dbg.declare(metadata i64* %size.addr, metadata !5112, metadata !DIExpression()), !dbg !5113
  %this1 = load %"class.xalanc_1_10::XalanList.10"*, %"class.xalanc_1_10::XalanList.10"** %this.addr, align 8
  call void @llvm.dbg.declare(metadata i64* %theBytesNeeded, metadata !5114, metadata !DIExpression()), !dbg !5116
  %0 = load i64, i64* %size.addr, align 8, !dbg !5117
  %mul = mul i64 %0, 32, !dbg !5118
  store i64 %mul, i64* %theBytesNeeded, align 8, !dbg !5116
  call void @llvm.dbg.declare(metadata i8** %pointer, metadata !5119, metadata !DIExpression()), !dbg !5120
  %m_memoryManager = getelementptr inbounds %"class.xalanc_1_10::XalanList.10", %"class.xalanc_1_10::XalanList.10"* %this1, i32 0, i32 0, !dbg !5121
  %1 = load %"class.xercesc_2_7::MemoryManager"*, %"class.xercesc_2_7::MemoryManager"** %m_memoryManager, align 8, !dbg !5121
  %2 = load i64, i64* %theBytesNeeded, align 8, !dbg !5122
  %3 = bitcast %"class.xercesc_2_7::MemoryManager"* %1 to i8* (%"class.xercesc_2_7::MemoryManager"*, i64)***, !dbg !5123
  %vtable = load i8* (%"class.xercesc_2_7::MemoryManager"*, i64)**, i8* (%"class.xercesc_2_7::MemoryManager"*, i64)*** %3, align 8, !dbg !5123
  %vfn = getelementptr inbounds i8* (%"class.xercesc_2_7::MemoryManager"*, i64)*, i8* (%"class.xercesc_2_7::MemoryManager"*, i64)** %vtable, i64 2, !dbg !5123
  %4 = load i8* (%"class.xercesc_2_7::MemoryManager"*, i64)*, i8* (%"class.xercesc_2_7::MemoryManager"*, i64)** %vfn, align 8, !dbg !5123
  %call = call i8* %4(%"class.xercesc_2_7::MemoryManager"* %1, i64 %2), !dbg !5123
  store i8* %call, i8** %pointer, align 8, !dbg !5120
  %5 = load i8*, i8** %pointer, align 8, !dbg !5124
  %6 = bitcast i8* %5 to %"struct.xalanc_1_10::XalanList<xalanc_1_10::XalanMap<const xalanc_1_10::XalanDocument *, xalanc_1_10::XalanSourceTreeDocument *, xalanc_1_10::XalanMapKeyTraits<const xalanc_1_10::XalanDocument *> >::Entry>::Node"*, !dbg !5125
  ret %"struct.xalanc_1_10::XalanList<xalanc_1_10::XalanMap<const xalanc_1_10::XalanDocument *, xalanc_1_10::XalanSourceTreeDocument *, xalanc_1_10::XalanMapKeyTraits<const xalanc_1_10::XalanDocument *> >::Entry>::Node"* %6, !dbg !5126
}

; Function Attrs: noinline nounwind uwtable
define linkonce_odr dso_local zeroext i1 @_ZNK11xalanc_1_1021XalanListIteratorBaseINS_23XalanListIteratorTraitsINS_8XalanMapIPKNS_13XalanDocumentEPNS_23XalanSourceTreeDocumentENS_17XalanMapKeyTraitsIS5_EEE5EntryEEENS_9XalanListISB_E4NodeEEeqERKSG_(%"struct.xalanc_1_10::XalanListIteratorBase.52"* %this, %"struct.xalanc_1_10::XalanListIteratorBase.52"* dereferenceable(8) %theRhs) #1 comdat align 2 !dbg !5127 {
entry:
  %this.addr = alloca %"struct.xalanc_1_10::XalanListIteratorBase.52"*, align 8
  %theRhs.addr = alloca %"struct.xalanc_1_10::XalanListIteratorBase.52"*, align 8
  store %"struct.xalanc_1_10::XalanListIteratorBase.52"* %this, %"struct.xalanc_1_10::XalanListIteratorBase.52"** %this.addr, align 8
  call void @llvm.dbg.declare(metadata %"struct.xalanc_1_10::XalanListIteratorBase.52"** %this.addr, metadata !5128, metadata !DIExpression()), !dbg !5129
  store %"struct.xalanc_1_10::XalanListIteratorBase.52"* %theRhs, %"struct.xalanc_1_10::XalanListIteratorBase.52"** %theRhs.addr, align 8
  call void @llvm.dbg.declare(metadata %"struct.xalanc_1_10::XalanListIteratorBase.52"** %theRhs.addr, metadata !5130, metadata !DIExpression()), !dbg !5131
  %this1 = load %"struct.xalanc_1_10::XalanListIteratorBase.52"*, %"struct.xalanc_1_10::XalanListIteratorBase.52"** %this.addr, align 8
  %currentNode = getelementptr inbounds %"struct.xalanc_1_10::XalanListIteratorBase.52", %"struct.xalanc_1_10::XalanListIteratorBase.52"* %this1, i32 0, i32 0, !dbg !5132
  %0 = load %"struct.xalanc_1_10::XalanList<xalanc_1_10::XalanMap<const xalanc_1_10::XalanDocument *, xalanc_1_10::XalanSourceTreeDocument *, xalanc_1_10::XalanMapKeyTraits<const xalanc_1_10::XalanDocument *> >::Entry>::Node"*, %"struct.xalanc_1_10::XalanList<xalanc_1_10::XalanMap<const xalanc_1_10::XalanDocument *, xalanc_1_10::XalanSourceTreeDocument *, xalanc_1_10::XalanMapKeyTraits<const xalanc_1_10::XalanDocument *> >::Entry>::Node"** %currentNode, align 8, !dbg !5132
  %1 = load %"struct.xalanc_1_10::XalanListIteratorBase.52"*, %"struct.xalanc_1_10::XalanListIteratorBase.52"** %theRhs.addr, align 8, !dbg !5133
  %currentNode2 = getelementptr inbounds %"struct.xalanc_1_10::XalanListIteratorBase.52", %"struct.xalanc_1_10::XalanListIteratorBase.52"* %1, i32 0, i32 0, !dbg !5134
  %2 = load %"struct.xalanc_1_10::XalanList<xalanc_1_10::XalanMap<const xalanc_1_10::XalanDocument *, xalanc_1_10::XalanSourceTreeDocument *, xalanc_1_10::XalanMapKeyTraits<const xalanc_1_10::XalanDocument *> >::Entry>::Node"*, %"struct.xalanc_1_10::XalanList<xalanc_1_10::XalanMap<const xalanc_1_10::XalanDocument *, xalanc_1_10::XalanSourceTreeDocument *, xalanc_1_10::XalanMapKeyTraits<const xalanc_1_10::XalanDocument *> >::Entry>::Node"** %currentNode2, align 8, !dbg !5134
  %cmp = icmp eq %"struct.xalanc_1_10::XalanList<xalanc_1_10::XalanMap<const xalanc_1_10::XalanDocument *, xalanc_1_10::XalanSourceTreeDocument *, xalanc_1_10::XalanMapKeyTraits<const xalanc_1_10::XalanDocument *> >::Entry>::Node"* %0, %2, !dbg !5135
  ret i1 %cmp, !dbg !5136
}

; Function Attrs: noinline uwtable
define linkonce_odr dso_local void @_ZN11xalanc_1_108XalanMapIPKNS_13XalanDocumentEPNS_23XalanSourceTreeDocumentENS_17XalanMapKeyTraitsIS3_EEE15doRemoveEntriesEv(%"class.xalanc_1_10::XalanMap.9"* %this) #6 comdat align 2 !dbg !5137 {
entry:
  %this.addr = alloca %"class.xalanc_1_10::XalanMap.9"*, align 8
  %ref.tmp = alloca %"struct.xalanc_1_10::XalanMapIterator", align 8
  store %"class.xalanc_1_10::XalanMap.9"* %this, %"class.xalanc_1_10::XalanMap.9"** %this.addr, align 8
  call void @llvm.dbg.declare(metadata %"class.xalanc_1_10::XalanMap.9"** %this.addr, metadata !5138, metadata !DIExpression()), !dbg !5139
  %this1 = load %"class.xalanc_1_10::XalanMap.9"*, %"class.xalanc_1_10::XalanMap.9"** %this.addr, align 8
  br label %while.cond, !dbg !5140

while.cond:                                       ; preds = %while.body, %entry
  %call = call i64 @_ZNK11xalanc_1_108XalanMapIPKNS_13XalanDocumentEPNS_23XalanSourceTreeDocumentENS_17XalanMapKeyTraitsIS3_EEE4sizeEv(%"class.xalanc_1_10::XalanMap.9"* %this1), !dbg !5141
  %cmp = icmp ugt i64 %call, 0, !dbg !5142
  br i1 %cmp, label %while.body, label %while.end, !dbg !5140

while.body:                                       ; preds = %while.cond
  call void @_ZN11xalanc_1_108XalanMapIPKNS_13XalanDocumentEPNS_23XalanSourceTreeDocumentENS_17XalanMapKeyTraitsIS3_EEE5beginEv(%"struct.xalanc_1_10::XalanMapIterator"* sret %ref.tmp, %"class.xalanc_1_10::XalanMap.9"* %this1), !dbg !5143
  call void @_ZN11xalanc_1_108XalanMapIPKNS_13XalanDocumentEPNS_23XalanSourceTreeDocumentENS_17XalanMapKeyTraitsIS3_EEE13doRemoveEntryERKNS_16XalanMapIteratorINS_22XalanMapIteratorTraitsISt4pairIKS3_S5_EEENS_21XalanListIteratorBaseINS_23XalanListIteratorTraitsINS8_5EntryEEENS_9XalanListISH_E4NodeEEEEE(%"class.xalanc_1_10::XalanMap.9"* %this1, %"struct.xalanc_1_10::XalanMapIterator"* dereferenceable(8) %ref.tmp), !dbg !5145
  br label %while.cond, !dbg !5140, !llvm.loop !5146

while.end:                                        ; preds = %while.cond
  ret void, !dbg !5148
}

; Function Attrs: noinline nounwind uwtable
define linkonce_odr dso_local zeroext i1 @_ZNK11xalanc_1_1011XalanVectorINS0_INS_21XalanListIteratorBaseINS_23XalanListIteratorTraitsINS_8XalanMapIPKNS_13XalanDocumentEPNS_23XalanSourceTreeDocumentENS_17XalanMapKeyTraitsIS6_EEE5EntryEEENS_9XalanListISC_E4NodeEEENS_31MemoryManagedConstructionTraitsISH_EEEENS_32ConstructWithMemoryManagerTraitsISK_EEE5emptyEv(%"class.xalanc_1_10::XalanVector.50"* %this) #1 comdat align 2 !dbg !5149 {
entry:
  %this.addr = alloca %"class.xalanc_1_10::XalanVector.50"*, align 8
  store %"class.xalanc_1_10::XalanVector.50"* %this, %"class.xalanc_1_10::XalanVector.50"** %this.addr, align 8
  call void @llvm.dbg.declare(metadata %"class.xalanc_1_10::XalanVector.50"** %this.addr, metadata !5150, metadata !DIExpression()), !dbg !5151
  %this1 = load %"class.xalanc_1_10::XalanVector.50"*, %"class.xalanc_1_10::XalanVector.50"** %this.addr, align 8
  call void @_ZNK11xalanc_1_1011XalanVectorINS0_INS_21XalanListIteratorBaseINS_23XalanListIteratorTraitsINS_8XalanMapIPKNS_13XalanDocumentEPNS_23XalanSourceTreeDocumentENS_17XalanMapKeyTraitsIS6_EEE5EntryEEENS_9XalanListISC_E4NodeEEENS_31MemoryManagedConstructionTraitsISH_EEEENS_32ConstructWithMemoryManagerTraitsISK_EEE10invariantsEv(%"class.xalanc_1_10::XalanVector.50"* %this1), !dbg !5152
  %m_size = getelementptr inbounds %"class.xalanc_1_10::XalanVector.50", %"class.xalanc_1_10::XalanVector.50"* %this1, i32 0, i32 1, !dbg !5153
  %0 = load i64, i64* %m_size, align 8, !dbg !5153
  %cmp = icmp eq i64 %0, 0, !dbg !5154
  %1 = zext i1 %cmp to i64, !dbg !5153
  %cond = select i1 %cmp, i1 true, i1 false, !dbg !5153
  ret i1 %cond, !dbg !5155
}

; Function Attrs: noinline uwtable
define linkonce_odr dso_local void @_ZN11xalanc_1_108XalanMapIPKNS_13XalanDocumentEPNS_23XalanSourceTreeDocumentENS_17XalanMapKeyTraitsIS3_EEE10deallocateEPSt4pairIKS3_S5_E(%"class.xalanc_1_10::XalanMap.9"* %this, %"struct.std::pair"* %pointer) #6 comdat align 2 !dbg !5156 {
entry:
  %this.addr = alloca %"class.xalanc_1_10::XalanMap.9"*, align 8
  %pointer.addr = alloca %"struct.std::pair"*, align 8
  store %"class.xalanc_1_10::XalanMap.9"* %this, %"class.xalanc_1_10::XalanMap.9"** %this.addr, align 8
  call void @llvm.dbg.declare(metadata %"class.xalanc_1_10::XalanMap.9"** %this.addr, metadata !5157, metadata !DIExpression()), !dbg !5158
  store %"struct.std::pair"* %pointer, %"struct.std::pair"** %pointer.addr, align 8
  call void @llvm.dbg.declare(metadata %"struct.std::pair"** %pointer.addr, metadata !5159, metadata !DIExpression()), !dbg !5160
  %this1 = load %"class.xalanc_1_10::XalanMap.9"*, %"class.xalanc_1_10::XalanMap.9"** %this.addr, align 8
  %m_memoryManager = getelementptr inbounds %"class.xalanc_1_10::XalanMap.9", %"class.xalanc_1_10::XalanMap.9"* %this1, i32 0, i32 2, !dbg !5161
  %0 = load %"class.xercesc_2_7::MemoryManager"*, %"class.xercesc_2_7::MemoryManager"** %m_memoryManager, align 8, !dbg !5161
  %1 = load %"struct.std::pair"*, %"struct.std::pair"** %pointer.addr, align 8, !dbg !5162
  %2 = bitcast %"struct.std::pair"* %1 to i8*, !dbg !5162
  %3 = bitcast %"class.xercesc_2_7::MemoryManager"* %0 to void (%"class.xercesc_2_7::MemoryManager"*, i8*)***, !dbg !5163
  %vtable = load void (%"class.xercesc_2_7::MemoryManager"*, i8*)**, void (%"class.xercesc_2_7::MemoryManager"*, i8*)*** %3, align 8, !dbg !5163
  %vfn = getelementptr inbounds void (%"class.xercesc_2_7::MemoryManager"*, i8*)*, void (%"class.xercesc_2_7::MemoryManager"*, i8*)** %vtable, i64 3, !dbg !5163
  %4 = load void (%"class.xercesc_2_7::MemoryManager"*, i8*)*, void (%"class.xercesc_2_7::MemoryManager"*, i8*)** %vfn, align 8, !dbg !5163
  call void %4(%"class.xercesc_2_7::MemoryManager"* %0, i8* %2), !dbg !5163
  ret void, !dbg !5164
}

; Function Attrs: noinline nounwind uwtable
define linkonce_odr dso_local %"struct.xalanc_1_10::XalanMap<const xalanc_1_10::XalanDocument *, xalanc_1_10::XalanSourceTreeDocument *, xalanc_1_10::XalanMapKeyTraits<const xalanc_1_10::XalanDocument *> >::Entry"* @_ZNK11xalanc_1_1021XalanListIteratorBaseINS_23XalanListIteratorTraitsINS_8XalanMapIPKNS_13XalanDocumentEPNS_23XalanSourceTreeDocumentENS_17XalanMapKeyTraitsIS5_EEE5EntryEEENS_9XalanListISB_E4NodeEEptEv(%"struct.xalanc_1_10::XalanListIteratorBase.52"* %this) #1 comdat align 2 !dbg !5165 {
entry:
  %this.addr = alloca %"struct.xalanc_1_10::XalanListIteratorBase.52"*, align 8
  store %"struct.xalanc_1_10::XalanListIteratorBase.52"* %this, %"struct.xalanc_1_10::XalanListIteratorBase.52"** %this.addr, align 8
  call void @llvm.dbg.declare(metadata %"struct.xalanc_1_10::XalanListIteratorBase.52"** %this.addr, metadata !5166, metadata !DIExpression()), !dbg !5167
  %this1 = load %"struct.xalanc_1_10::XalanListIteratorBase.52"*, %"struct.xalanc_1_10::XalanListIteratorBase.52"** %this.addr, align 8
  %currentNode = getelementptr inbounds %"struct.xalanc_1_10::XalanListIteratorBase.52", %"struct.xalanc_1_10::XalanListIteratorBase.52"* %this1, i32 0, i32 0, !dbg !5168
  %0 = load %"struct.xalanc_1_10::XalanList<xalanc_1_10::XalanMap<const xalanc_1_10::XalanDocument *, xalanc_1_10::XalanSourceTreeDocument *, xalanc_1_10::XalanMapKeyTraits<const xalanc_1_10::XalanDocument *> >::Entry>::Node"*, %"struct.xalanc_1_10::XalanList<xalanc_1_10::XalanMap<const xalanc_1_10::XalanDocument *, xalanc_1_10::XalanSourceTreeDocument *, xalanc_1_10::XalanMapKeyTraits<const xalanc_1_10::XalanDocument *> >::Entry>::Node"** %currentNode, align 8, !dbg !5168
  %value = getelementptr inbounds %"struct.xalanc_1_10::XalanList<xalanc_1_10::XalanMap<const xalanc_1_10::XalanDocument *, xalanc_1_10::XalanSourceTreeDocument *, xalanc_1_10::XalanMapKeyTraits<const xalanc_1_10::XalanDocument *> >::Entry>::Node", %"struct.xalanc_1_10::XalanList<xalanc_1_10::XalanMap<const xalanc_1_10::XalanDocument *, xalanc_1_10::XalanSourceTreeDocument *, xalanc_1_10::XalanMapKeyTraits<const xalanc_1_10::XalanDocument *> >::Entry>::Node"* %0, i32 0, i32 0, !dbg !5169
  ret %"struct.xalanc_1_10::XalanMap<const xalanc_1_10::XalanDocument *, xalanc_1_10::XalanSourceTreeDocument *, xalanc_1_10::XalanMapKeyTraits<const xalanc_1_10::XalanDocument *> >::Entry"* %value, !dbg !5170
}

; Function Attrs: noinline uwtable
define linkonce_odr dso_local void @_ZN11xalanc_1_1021XalanListIteratorBaseINS_23XalanListIteratorTraitsINS_8XalanMapIPKNS_13XalanDocumentEPNS_23XalanSourceTreeDocumentENS_17XalanMapKeyTraitsIS5_EEE5EntryEEENS_9XalanListISB_E4NodeEEppEv(%"struct.xalanc_1_10::XalanListIteratorBase.52"* noalias sret %agg.result, %"struct.xalanc_1_10::XalanListIteratorBase.52"* %this) #6 comdat align 2 !dbg !5171 {
entry:
  %result.ptr = alloca i8*, align 8
  %this.addr = alloca %"struct.xalanc_1_10::XalanListIteratorBase.52"*, align 8
  %0 = bitcast %"struct.xalanc_1_10::XalanListIteratorBase.52"* %agg.result to i8*
  store i8* %0, i8** %result.ptr, align 8
  store %"struct.xalanc_1_10::XalanListIteratorBase.52"* %this, %"struct.xalanc_1_10::XalanListIteratorBase.52"** %this.addr, align 8
  call void @llvm.dbg.declare(metadata %"struct.xalanc_1_10::XalanListIteratorBase.52"** %this.addr, metadata !5172, metadata !DIExpression()), !dbg !5173
  %this1 = load %"struct.xalanc_1_10::XalanListIteratorBase.52"*, %"struct.xalanc_1_10::XalanListIteratorBase.52"** %this.addr, align 8
  %currentNode = getelementptr inbounds %"struct.xalanc_1_10::XalanListIteratorBase.52", %"struct.xalanc_1_10::XalanListIteratorBase.52"* %this1, i32 0, i32 0, !dbg !5174
  %1 = load %"struct.xalanc_1_10::XalanList<xalanc_1_10::XalanMap<const xalanc_1_10::XalanDocument *, xalanc_1_10::XalanSourceTreeDocument *, xalanc_1_10::XalanMapKeyTraits<const xalanc_1_10::XalanDocument *> >::Entry>::Node"*, %"struct.xalanc_1_10::XalanList<xalanc_1_10::XalanMap<const xalanc_1_10::XalanDocument *, xalanc_1_10::XalanSourceTreeDocument *, xalanc_1_10::XalanMapKeyTraits<const xalanc_1_10::XalanDocument *> >::Entry>::Node"** %currentNode, align 8, !dbg !5174
  %next = getelementptr inbounds %"struct.xalanc_1_10::XalanList<xalanc_1_10::XalanMap<const xalanc_1_10::XalanDocument *, xalanc_1_10::XalanSourceTreeDocument *, xalanc_1_10::XalanMapKeyTraits<const xalanc_1_10::XalanDocument *> >::Entry>::Node", %"struct.xalanc_1_10::XalanList<xalanc_1_10::XalanMap<const xalanc_1_10::XalanDocument *, xalanc_1_10::XalanSourceTreeDocument *, xalanc_1_10::XalanMapKeyTraits<const xalanc_1_10::XalanDocument *> >::Entry>::Node"* %1, i32 0, i32 2, !dbg !5175
  %2 = load %"struct.xalanc_1_10::XalanList<xalanc_1_10::XalanMap<const xalanc_1_10::XalanDocument *, xalanc_1_10::XalanSourceTreeDocument *, xalanc_1_10::XalanMapKeyTraits<const xalanc_1_10::XalanDocument *> >::Entry>::Node"*, %"struct.xalanc_1_10::XalanList<xalanc_1_10::XalanMap<const xalanc_1_10::XalanDocument *, xalanc_1_10::XalanSourceTreeDocument *, xalanc_1_10::XalanMapKeyTraits<const xalanc_1_10::XalanDocument *> >::Entry>::Node"** %next, align 8, !dbg !5175
  %currentNode2 = getelementptr inbounds %"struct.xalanc_1_10::XalanListIteratorBase.52", %"struct.xalanc_1_10::XalanListIteratorBase.52"* %this1, i32 0, i32 0, !dbg !5176
  store %"struct.xalanc_1_10::XalanList<xalanc_1_10::XalanMap<const xalanc_1_10::XalanDocument *, xalanc_1_10::XalanSourceTreeDocument *, xalanc_1_10::XalanMapKeyTraits<const xalanc_1_10::XalanDocument *> >::Entry>::Node"* %2, %"struct.xalanc_1_10::XalanList<xalanc_1_10::XalanMap<const xalanc_1_10::XalanDocument *, xalanc_1_10::XalanSourceTreeDocument *, xalanc_1_10::XalanMapKeyTraits<const xalanc_1_10::XalanDocument *> >::Entry>::Node"** %currentNode2, align 8, !dbg !5177
  call void @_ZN11xalanc_1_1021XalanListIteratorBaseINS_23XalanListIteratorTraitsINS_8XalanMapIPKNS_13XalanDocumentEPNS_23XalanSourceTreeDocumentENS_17XalanMapKeyTraitsIS5_EEE5EntryEEENS_9XalanListISB_E4NodeEEC2ERKSG_(%"struct.xalanc_1_10::XalanListIteratorBase.52"* %agg.result, %"struct.xalanc_1_10::XalanListIteratorBase.52"* dereferenceable(8) %this1), !dbg !5178
  ret void, !dbg !5179
}

; Function Attrs: noinline nounwind uwtable
define linkonce_odr dso_local void @_ZN11xalanc_1_1011XalanVectorINS0_INS_21XalanListIteratorBaseINS_23XalanListIteratorTraitsINS_8XalanMapIPKNS_13XalanDocumentEPNS_23XalanSourceTreeDocumentENS_17XalanMapKeyTraitsIS6_EEE5EntryEEENS_9XalanListISC_E4NodeEEENS_31MemoryManagedConstructionTraitsISH_EEEENS_32ConstructWithMemoryManagerTraitsISK_EEED2Ev(%"class.xalanc_1_10::XalanVector.50"* %this) unnamed_addr #1 comdat align 2 personality i8* bitcast (i32 (...)* @__gxx_personality_v0 to i8*) !dbg !5180 {
entry:
  %this.addr = alloca %"class.xalanc_1_10::XalanVector.50"*, align 8
  store %"class.xalanc_1_10::XalanVector.50"* %this, %"class.xalanc_1_10::XalanVector.50"** %this.addr, align 8
  call void @llvm.dbg.declare(metadata %"class.xalanc_1_10::XalanVector.50"** %this.addr, metadata !5181, metadata !DIExpression()), !dbg !5182
  %this1 = load %"class.xalanc_1_10::XalanVector.50"*, %"class.xalanc_1_10::XalanVector.50"** %this.addr, align 8
  invoke void @_ZNK11xalanc_1_1011XalanVectorINS0_INS_21XalanListIteratorBaseINS_23XalanListIteratorTraitsINS_8XalanMapIPKNS_13XalanDocumentEPNS_23XalanSourceTreeDocumentENS_17XalanMapKeyTraitsIS6_EEE5EntryEEENS_9XalanListISC_E4NodeEEENS_31MemoryManagedConstructionTraitsISH_EEEENS_32ConstructWithMemoryManagerTraitsISK_EEE10invariantsEv(%"class.xalanc_1_10::XalanVector.50"* %this1)
          to label %invoke.cont unwind label %terminate.lpad, !dbg !5183

invoke.cont:                                      ; preds = %entry
  %m_allocation = getelementptr inbounds %"class.xalanc_1_10::XalanVector.50", %"class.xalanc_1_10::XalanVector.50"* %this1, i32 0, i32 2, !dbg !5185
  %0 = load i64, i64* %m_allocation, align 8, !dbg !5185
  %cmp = icmp ne i64 %0, 0, !dbg !5187
  br i1 %cmp, label %if.then, label %if.end, !dbg !5188

if.then:                                          ; preds = %invoke.cont
  %call = invoke %"class.xalanc_1_10::XalanVector.51"* @_ZN11xalanc_1_1011XalanVectorINS0_INS_21XalanListIteratorBaseINS_23XalanListIteratorTraitsINS_8XalanMapIPKNS_13XalanDocumentEPNS_23XalanSourceTreeDocumentENS_17XalanMapKeyTraitsIS6_EEE5EntryEEENS_9XalanListISC_E4NodeEEENS_31MemoryManagedConstructionTraitsISH_EEEENS_32ConstructWithMemoryManagerTraitsISK_EEE5beginEv(%"class.xalanc_1_10::XalanVector.50"* %this1)
          to label %invoke.cont2 unwind label %terminate.lpad, !dbg !5189

invoke.cont2:                                     ; preds = %if.then
  %call4 = invoke %"class.xalanc_1_10::XalanVector.51"* @_ZN11xalanc_1_1011XalanVectorINS0_INS_21XalanListIteratorBaseINS_23XalanListIteratorTraitsINS_8XalanMapIPKNS_13XalanDocumentEPNS_23XalanSourceTreeDocumentENS_17XalanMapKeyTraitsIS6_EEE5EntryEEENS_9XalanListISC_E4NodeEEENS_31MemoryManagedConstructionTraitsISH_EEEENS_32ConstructWithMemoryManagerTraitsISK_EEE3endEv(%"class.xalanc_1_10::XalanVector.50"* %this1)
          to label %invoke.cont3 unwind label %terminate.lpad, !dbg !5191

invoke.cont3:                                     ; preds = %invoke.cont2
  invoke void @_ZN11xalanc_1_1011XalanVectorINS0_INS_21XalanListIteratorBaseINS_23XalanListIteratorTraitsINS_8XalanMapIPKNS_13XalanDocumentEPNS_23XalanSourceTreeDocumentENS_17XalanMapKeyTraitsIS6_EEE5EntryEEENS_9XalanListISC_E4NodeEEENS_31MemoryManagedConstructionTraitsISH_EEEENS_32ConstructWithMemoryManagerTraitsISK_EEE7destroyEPSK_SO_(%"class.xalanc_1_10::XalanVector.51"* %call, %"class.xalanc_1_10::XalanVector.51"* %call4)
          to label %invoke.cont5 unwind label %terminate.lpad, !dbg !5192

invoke.cont5:                                     ; preds = %invoke.cont3
  %m_data = getelementptr inbounds %"class.xalanc_1_10::XalanVector.50", %"class.xalanc_1_10::XalanVector.50"* %this1, i32 0, i32 3, !dbg !5193
  %1 = load %"class.xalanc_1_10::XalanVector.51"*, %"class.xalanc_1_10::XalanVector.51"** %m_data, align 8, !dbg !5193
  invoke void @_ZN11xalanc_1_1011XalanVectorINS0_INS_21XalanListIteratorBaseINS_23XalanListIteratorTraitsINS_8XalanMapIPKNS_13XalanDocumentEPNS_23XalanSourceTreeDocumentENS_17XalanMapKeyTraitsIS6_EEE5EntryEEENS_9XalanListISC_E4NodeEEENS_31MemoryManagedConstructionTraitsISH_EEEENS_32ConstructWithMemoryManagerTraitsISK_EEE10deallocateEPSK_(%"class.xalanc_1_10::XalanVector.50"* %this1, %"class.xalanc_1_10::XalanVector.51"* %1)
          to label %invoke.cont6 unwind label %terminate.lpad, !dbg !5194

invoke.cont6:                                     ; preds = %invoke.cont5
  br label %if.end, !dbg !5195

if.end:                                           ; preds = %invoke.cont6, %invoke.cont
  ret void, !dbg !5196

terminate.lpad:                                   ; preds = %invoke.cont5, %invoke.cont3, %invoke.cont2, %if.then, %entry
  %2 = landingpad { i8*, i32 }
          catch i8* null, !dbg !5183
  %3 = extractvalue { i8*, i32 } %2, 0, !dbg !5183
  call void @__clang_call_terminate(i8* %3) #11, !dbg !5183
  unreachable, !dbg !5183
}

; Function Attrs: noinline nounwind uwtable
define linkonce_odr dso_local i64 @_ZNK11xalanc_1_108XalanMapIPKNS_13XalanDocumentEPNS_23XalanSourceTreeDocumentENS_17XalanMapKeyTraitsIS3_EEE4sizeEv(%"class.xalanc_1_10::XalanMap.9"* %this) #1 comdat align 2 !dbg !5197 {
entry:
  %this.addr = alloca %"class.xalanc_1_10::XalanMap.9"*, align 8
  store %"class.xalanc_1_10::XalanMap.9"* %this, %"class.xalanc_1_10::XalanMap.9"** %this.addr, align 8
  call void @llvm.dbg.declare(metadata %"class.xalanc_1_10::XalanMap.9"** %this.addr, metadata !5198, metadata !DIExpression()), !dbg !5199
  %this1 = load %"class.xalanc_1_10::XalanMap.9"*, %"class.xalanc_1_10::XalanMap.9"** %this.addr, align 8
  %m_size = getelementptr inbounds %"class.xalanc_1_10::XalanMap.9", %"class.xalanc_1_10::XalanMap.9"* %this1, i32 0, i32 5, !dbg !5200
  %0 = load i64, i64* %m_size, align 8, !dbg !5200
  ret i64 %0, !dbg !5201
}

; Function Attrs: noinline uwtable
define linkonce_odr dso_local void @_ZN11xalanc_1_108XalanMapIPKNS_13XalanDocumentEPNS_23XalanSourceTreeDocumentENS_17XalanMapKeyTraitsIS3_EEE13doRemoveEntryERKNS_16XalanMapIteratorINS_22XalanMapIteratorTraitsISt4pairIKS3_S5_EEENS_21XalanListIteratorBaseINS_23XalanListIteratorTraitsINS8_5EntryEEENS_9XalanListISH_E4NodeEEEEE(%"class.xalanc_1_10::XalanMap.9"* %this, %"struct.xalanc_1_10::XalanMapIterator"* dereferenceable(8) %toRemovePos) #6 comdat align 2 !dbg !5202 {
entry:
  %this.addr = alloca %"class.xalanc_1_10::XalanMap.9"*, align 8
  %toRemovePos.addr = alloca %"struct.xalanc_1_10::XalanMapIterator"*, align 8
  %toRemove = alloca %"struct.std::pair"*, align 8
  %agg.tmp = alloca %"struct.xalanc_1_10::XalanListIteratorBase.52", align 8
  %agg.tmp3 = alloca %"struct.xalanc_1_10::XalanListIteratorBase.52", align 8
  store %"class.xalanc_1_10::XalanMap.9"* %this, %"class.xalanc_1_10::XalanMap.9"** %this.addr, align 8
  call void @llvm.dbg.declare(metadata %"class.xalanc_1_10::XalanMap.9"** %this.addr, metadata !5203, metadata !DIExpression()), !dbg !5204
  store %"struct.xalanc_1_10::XalanMapIterator"* %toRemovePos, %"struct.xalanc_1_10::XalanMapIterator"** %toRemovePos.addr, align 8
  call void @llvm.dbg.declare(metadata %"struct.xalanc_1_10::XalanMapIterator"** %toRemovePos.addr, metadata !5205, metadata !DIExpression()), !dbg !5206
  %this1 = load %"class.xalanc_1_10::XalanMap.9"*, %"class.xalanc_1_10::XalanMap.9"** %this.addr, align 8
  call void @llvm.dbg.declare(metadata %"struct.std::pair"** %toRemove, metadata !5207, metadata !DIExpression()), !dbg !5209
  %0 = load %"struct.xalanc_1_10::XalanMapIterator"*, %"struct.xalanc_1_10::XalanMapIterator"** %toRemovePos.addr, align 8, !dbg !5210
  %call = call dereferenceable(16) %"struct.std::pair"* @_ZNK11xalanc_1_1016XalanMapIteratorINS_22XalanMapIteratorTraitsISt4pairIKPKNS_13XalanDocumentEPNS_23XalanSourceTreeDocumentEEEENS_21XalanListIteratorBaseINS_23XalanListIteratorTraitsINS_8XalanMapIS5_S8_NS_17XalanMapKeyTraitsIS5_EEE5EntryEEENS_9XalanListISH_E4NodeEEEEdeEv(%"struct.xalanc_1_10::XalanMapIterator"* %0), !dbg !5211
  store %"struct.std::pair"* %call, %"struct.std::pair"** %toRemove, align 8, !dbg !5209
  %1 = load %"struct.std::pair"*, %"struct.std::pair"** %toRemove, align 8, !dbg !5212
  %m_freeEntries = getelementptr inbounds %"class.xalanc_1_10::XalanMap.9", %"class.xalanc_1_10::XalanMap.9"* %this1, i32 0, i32 7, !dbg !5213
  %m_freeEntries2 = getelementptr inbounds %"class.xalanc_1_10::XalanMap.9", %"class.xalanc_1_10::XalanMap.9"* %this1, i32 0, i32 7, !dbg !5214
  call void @_ZN11xalanc_1_109XalanListINS_8XalanMapIPKNS_13XalanDocumentEPNS_23XalanSourceTreeDocumentENS_17XalanMapKeyTraitsIS4_EEE5EntryEE3endEv(%"struct.xalanc_1_10::XalanListIteratorBase.52"* sret %agg.tmp, %"class.xalanc_1_10::XalanList.10"* %m_freeEntries2), !dbg !5215
  %m_entries = getelementptr inbounds %"class.xalanc_1_10::XalanMap.9", %"class.xalanc_1_10::XalanMap.9"* %this1, i32 0, i32 6, !dbg !5216
  %2 = load %"struct.xalanc_1_10::XalanMapIterator"*, %"struct.xalanc_1_10::XalanMapIterator"** %toRemovePos.addr, align 8, !dbg !5217
  %baseIterator = getelementptr inbounds %"struct.xalanc_1_10::XalanMapIterator", %"struct.xalanc_1_10::XalanMapIterator"* %2, i32 0, i32 0, !dbg !5218
  call void @_ZN11xalanc_1_1021XalanListIteratorBaseINS_23XalanListIteratorTraitsINS_8XalanMapIPKNS_13XalanDocumentEPNS_23XalanSourceTreeDocumentENS_17XalanMapKeyTraitsIS5_EEE5EntryEEENS_9XalanListISB_E4NodeEEC2ERKSG_(%"struct.xalanc_1_10::XalanListIteratorBase.52"* %agg.tmp3, %"struct.xalanc_1_10::XalanListIteratorBase.52"* dereferenceable(8) %baseIterator), !dbg !5217
  call void @_ZN11xalanc_1_109XalanListINS_8XalanMapIPKNS_13XalanDocumentEPNS_23XalanSourceTreeDocumentENS_17XalanMapKeyTraitsIS4_EEE5EntryEE6spliceENS_21XalanListIteratorBaseINS_23XalanListIteratorTraitsISA_EENSB_4NodeEEERSB_SG_(%"class.xalanc_1_10::XalanList.10"* %m_freeEntries, %"struct.xalanc_1_10::XalanListIteratorBase.52"* %agg.tmp, %"class.xalanc_1_10::XalanList.10"* dereferenceable(24) %m_entries, %"struct.xalanc_1_10::XalanListIteratorBase.52"* %agg.tmp3), !dbg !5219
  %3 = load %"struct.xalanc_1_10::XalanMapIterator"*, %"struct.xalanc_1_10::XalanMapIterator"** %toRemovePos.addr, align 8, !dbg !5220
  %baseIterator4 = getelementptr inbounds %"struct.xalanc_1_10::XalanMapIterator", %"struct.xalanc_1_10::XalanMapIterator"* %3, i32 0, i32 0, !dbg !5221
  %call5 = call %"struct.xalanc_1_10::XalanMap<const xalanc_1_10::XalanDocument *, xalanc_1_10::XalanSourceTreeDocument *, xalanc_1_10::XalanMapKeyTraits<const xalanc_1_10::XalanDocument *> >::Entry"* @_ZNK11xalanc_1_1021XalanListIteratorBaseINS_23XalanListIteratorTraitsINS_8XalanMapIPKNS_13XalanDocumentEPNS_23XalanSourceTreeDocumentENS_17XalanMapKeyTraitsIS5_EEE5EntryEEENS_9XalanListISB_E4NodeEEptEv(%"struct.xalanc_1_10::XalanListIteratorBase.52"* %baseIterator4), !dbg !5220
  %erased = getelementptr inbounds %"struct.xalanc_1_10::XalanMap<const xalanc_1_10::XalanDocument *, xalanc_1_10::XalanSourceTreeDocument *, xalanc_1_10::XalanMapKeyTraits<const xalanc_1_10::XalanDocument *> >::Entry", %"struct.xalanc_1_10::XalanMap<const xalanc_1_10::XalanDocument *, xalanc_1_10::XalanSourceTreeDocument *, xalanc_1_10::XalanMapKeyTraits<const xalanc_1_10::XalanDocument *> >::Entry"* %call5, i32 0, i32 1, !dbg !5222
  store i8 1, i8* %erased, align 8, !dbg !5223
  %m_size = getelementptr inbounds %"class.xalanc_1_10::XalanMap.9", %"class.xalanc_1_10::XalanMap.9"* %this1, i32 0, i32 5, !dbg !5224
  %4 = load i64, i64* %m_size, align 8, !dbg !5225
  %dec = add i64 %4, -1, !dbg !5225
  store i64 %dec, i64* %m_size, align 8, !dbg !5225
  ret void, !dbg !5226
}

; Function Attrs: noinline uwtable
define linkonce_odr dso_local void @_ZN11xalanc_1_109XalanListINS_8XalanMapIPKNS_13XalanDocumentEPNS_23XalanSourceTreeDocumentENS_17XalanMapKeyTraitsIS4_EEE5EntryEE6spliceENS_21XalanListIteratorBaseINS_23XalanListIteratorTraitsISA_EENSB_4NodeEEERSB_SG_(%"class.xalanc_1_10::XalanList.10"* %this, %"struct.xalanc_1_10::XalanListIteratorBase.52"* %pos, %"class.xalanc_1_10::XalanList.10"* dereferenceable(24) %0, %"struct.xalanc_1_10::XalanListIteratorBase.52"* %toInsert) #6 comdat align 2 !dbg !5227 {
entry:
  %this.addr = alloca %"class.xalanc_1_10::XalanList.10"*, align 8
  %.addr = alloca %"class.xalanc_1_10::XalanList.10"*, align 8
  %posNode = alloca %"struct.xalanc_1_10::XalanList<xalanc_1_10::XalanMap<const xalanc_1_10::XalanDocument *, xalanc_1_10::XalanSourceTreeDocument *, xalanc_1_10::XalanMapKeyTraits<const xalanc_1_10::XalanDocument *> >::Entry>::Node"*, align 8
  %toInsertNode = alloca %"struct.xalanc_1_10::XalanList<xalanc_1_10::XalanMap<const xalanc_1_10::XalanDocument *, xalanc_1_10::XalanSourceTreeDocument *, xalanc_1_10::XalanMapKeyTraits<const xalanc_1_10::XalanDocument *> >::Entry>::Node"*, align 8
  store %"class.xalanc_1_10::XalanList.10"* %this, %"class.xalanc_1_10::XalanList.10"** %this.addr, align 8
  call void @llvm.dbg.declare(metadata %"class.xalanc_1_10::XalanList.10"** %this.addr, metadata !5228, metadata !DIExpression()), !dbg !5229
  call void @llvm.dbg.declare(metadata %"struct.xalanc_1_10::XalanListIteratorBase.52"* %pos, metadata !5230, metadata !DIExpression()), !dbg !5231
  store %"class.xalanc_1_10::XalanList.10"* %0, %"class.xalanc_1_10::XalanList.10"** %.addr, align 8
  call void @llvm.dbg.declare(metadata %"class.xalanc_1_10::XalanList.10"** %.addr, metadata !5232, metadata !DIExpression()), !dbg !5233
  call void @llvm.dbg.declare(metadata %"struct.xalanc_1_10::XalanListIteratorBase.52"* %toInsert, metadata !5234, metadata !DIExpression()), !dbg !5235
  %this1 = load %"class.xalanc_1_10::XalanList.10"*, %"class.xalanc_1_10::XalanList.10"** %this.addr, align 8
  %call = call zeroext i1 @_ZNK11xalanc_1_1021XalanListIteratorBaseINS_23XalanListIteratorTraitsINS_8XalanMapIPKNS_13XalanDocumentEPNS_23XalanSourceTreeDocumentENS_17XalanMapKeyTraitsIS5_EEE5EntryEEENS_9XalanListISB_E4NodeEEneERKSG_(%"struct.xalanc_1_10::XalanListIteratorBase.52"* %pos, %"struct.xalanc_1_10::XalanListIteratorBase.52"* dereferenceable(8) %toInsert), !dbg !5236
  br i1 %call, label %if.then, label %if.end, !dbg !5238

if.then:                                          ; preds = %entry
  call void @llvm.dbg.declare(metadata %"struct.xalanc_1_10::XalanList<xalanc_1_10::XalanMap<const xalanc_1_10::XalanDocument *, xalanc_1_10::XalanSourceTreeDocument *, xalanc_1_10::XalanMapKeyTraits<const xalanc_1_10::XalanDocument *> >::Entry>::Node"** %posNode, metadata !5239, metadata !DIExpression()), !dbg !5241
  %call2 = call dereferenceable(32) %"struct.xalanc_1_10::XalanList<xalanc_1_10::XalanMap<const xalanc_1_10::XalanDocument *, xalanc_1_10::XalanSourceTreeDocument *, xalanc_1_10::XalanMapKeyTraits<const xalanc_1_10::XalanDocument *> >::Entry>::Node"* @_ZN11xalanc_1_1021XalanListIteratorBaseINS_23XalanListIteratorTraitsINS_8XalanMapIPKNS_13XalanDocumentEPNS_23XalanSourceTreeDocumentENS_17XalanMapKeyTraitsIS5_EEE5EntryEEENS_9XalanListISB_E4NodeEE4nodeEv(%"struct.xalanc_1_10::XalanListIteratorBase.52"* %pos), !dbg !5242
  store %"struct.xalanc_1_10::XalanList<xalanc_1_10::XalanMap<const xalanc_1_10::XalanDocument *, xalanc_1_10::XalanSourceTreeDocument *, xalanc_1_10::XalanMapKeyTraits<const xalanc_1_10::XalanDocument *> >::Entry>::Node"* %call2, %"struct.xalanc_1_10::XalanList<xalanc_1_10::XalanMap<const xalanc_1_10::XalanDocument *, xalanc_1_10::XalanSourceTreeDocument *, xalanc_1_10::XalanMapKeyTraits<const xalanc_1_10::XalanDocument *> >::Entry>::Node"** %posNode, align 8, !dbg !5241
  call void @llvm.dbg.declare(metadata %"struct.xalanc_1_10::XalanList<xalanc_1_10::XalanMap<const xalanc_1_10::XalanDocument *, xalanc_1_10::XalanSourceTreeDocument *, xalanc_1_10::XalanMapKeyTraits<const xalanc_1_10::XalanDocument *> >::Entry>::Node"** %toInsertNode, metadata !5243, metadata !DIExpression()), !dbg !5244
  %call3 = call dereferenceable(32) %"struct.xalanc_1_10::XalanList<xalanc_1_10::XalanMap<const xalanc_1_10::XalanDocument *, xalanc_1_10::XalanSourceTreeDocument *, xalanc_1_10::XalanMapKeyTraits<const xalanc_1_10::XalanDocument *> >::Entry>::Node"* @_ZN11xalanc_1_1021XalanListIteratorBaseINS_23XalanListIteratorTraitsINS_8XalanMapIPKNS_13XalanDocumentEPNS_23XalanSourceTreeDocumentENS_17XalanMapKeyTraitsIS5_EEE5EntryEEENS_9XalanListISB_E4NodeEE4nodeEv(%"struct.xalanc_1_10::XalanListIteratorBase.52"* %toInsert), !dbg !5245
  store %"struct.xalanc_1_10::XalanList<xalanc_1_10::XalanMap<const xalanc_1_10::XalanDocument *, xalanc_1_10::XalanSourceTreeDocument *, xalanc_1_10::XalanMapKeyTraits<const xalanc_1_10::XalanDocument *> >::Entry>::Node"* %call3, %"struct.xalanc_1_10::XalanList<xalanc_1_10::XalanMap<const xalanc_1_10::XalanDocument *, xalanc_1_10::XalanSourceTreeDocument *, xalanc_1_10::XalanMapKeyTraits<const xalanc_1_10::XalanDocument *> >::Entry>::Node"** %toInsertNode, align 8, !dbg !5244
  %1 = load %"struct.xalanc_1_10::XalanList<xalanc_1_10::XalanMap<const xalanc_1_10::XalanDocument *, xalanc_1_10::XalanSourceTreeDocument *, xalanc_1_10::XalanMapKeyTraits<const xalanc_1_10::XalanDocument *> >::Entry>::Node"*, %"struct.xalanc_1_10::XalanList<xalanc_1_10::XalanMap<const xalanc_1_10::XalanDocument *, xalanc_1_10::XalanSourceTreeDocument *, xalanc_1_10::XalanMapKeyTraits<const xalanc_1_10::XalanDocument *> >::Entry>::Node"** %toInsertNode, align 8, !dbg !5246
  %next = getelementptr inbounds %"struct.xalanc_1_10::XalanList<xalanc_1_10::XalanMap<const xalanc_1_10::XalanDocument *, xalanc_1_10::XalanSourceTreeDocument *, xalanc_1_10::XalanMapKeyTraits<const xalanc_1_10::XalanDocument *> >::Entry>::Node", %"struct.xalanc_1_10::XalanList<xalanc_1_10::XalanMap<const xalanc_1_10::XalanDocument *, xalanc_1_10::XalanSourceTreeDocument *, xalanc_1_10::XalanMapKeyTraits<const xalanc_1_10::XalanDocument *> >::Entry>::Node"* %1, i32 0, i32 2, !dbg !5247
  %2 = load %"struct.xalanc_1_10::XalanList<xalanc_1_10::XalanMap<const xalanc_1_10::XalanDocument *, xalanc_1_10::XalanSourceTreeDocument *, xalanc_1_10::XalanMapKeyTraits<const xalanc_1_10::XalanDocument *> >::Entry>::Node"*, %"struct.xalanc_1_10::XalanList<xalanc_1_10::XalanMap<const xalanc_1_10::XalanDocument *, xalanc_1_10::XalanSourceTreeDocument *, xalanc_1_10::XalanMapKeyTraits<const xalanc_1_10::XalanDocument *> >::Entry>::Node"** %next, align 8, !dbg !5247
  %3 = load %"struct.xalanc_1_10::XalanList<xalanc_1_10::XalanMap<const xalanc_1_10::XalanDocument *, xalanc_1_10::XalanSourceTreeDocument *, xalanc_1_10::XalanMapKeyTraits<const xalanc_1_10::XalanDocument *> >::Entry>::Node"*, %"struct.xalanc_1_10::XalanList<xalanc_1_10::XalanMap<const xalanc_1_10::XalanDocument *, xalanc_1_10::XalanSourceTreeDocument *, xalanc_1_10::XalanMapKeyTraits<const xalanc_1_10::XalanDocument *> >::Entry>::Node"** %toInsertNode, align 8, !dbg !5248
  %prev = getelementptr inbounds %"struct.xalanc_1_10::XalanList<xalanc_1_10::XalanMap<const xalanc_1_10::XalanDocument *, xalanc_1_10::XalanSourceTreeDocument *, xalanc_1_10::XalanMapKeyTraits<const xalanc_1_10::XalanDocument *> >::Entry>::Node", %"struct.xalanc_1_10::XalanList<xalanc_1_10::XalanMap<const xalanc_1_10::XalanDocument *, xalanc_1_10::XalanSourceTreeDocument *, xalanc_1_10::XalanMapKeyTraits<const xalanc_1_10::XalanDocument *> >::Entry>::Node"* %3, i32 0, i32 1, !dbg !5249
  %4 = load %"struct.xalanc_1_10::XalanList<xalanc_1_10::XalanMap<const xalanc_1_10::XalanDocument *, xalanc_1_10::XalanSourceTreeDocument *, xalanc_1_10::XalanMapKeyTraits<const xalanc_1_10::XalanDocument *> >::Entry>::Node"*, %"struct.xalanc_1_10::XalanList<xalanc_1_10::XalanMap<const xalanc_1_10::XalanDocument *, xalanc_1_10::XalanSourceTreeDocument *, xalanc_1_10::XalanMapKeyTraits<const xalanc_1_10::XalanDocument *> >::Entry>::Node"** %prev, align 8, !dbg !5249
  %next4 = getelementptr inbounds %"struct.xalanc_1_10::XalanList<xalanc_1_10::XalanMap<const xalanc_1_10::XalanDocument *, xalanc_1_10::XalanSourceTreeDocument *, xalanc_1_10::XalanMapKeyTraits<const xalanc_1_10::XalanDocument *> >::Entry>::Node", %"struct.xalanc_1_10::XalanList<xalanc_1_10::XalanMap<const xalanc_1_10::XalanDocument *, xalanc_1_10::XalanSourceTreeDocument *, xalanc_1_10::XalanMapKeyTraits<const xalanc_1_10::XalanDocument *> >::Entry>::Node"* %4, i32 0, i32 2, !dbg !5250
  store %"struct.xalanc_1_10::XalanList<xalanc_1_10::XalanMap<const xalanc_1_10::XalanDocument *, xalanc_1_10::XalanSourceTreeDocument *, xalanc_1_10::XalanMapKeyTraits<const xalanc_1_10::XalanDocument *> >::Entry>::Node"* %2, %"struct.xalanc_1_10::XalanList<xalanc_1_10::XalanMap<const xalanc_1_10::XalanDocument *, xalanc_1_10::XalanSourceTreeDocument *, xalanc_1_10::XalanMapKeyTraits<const xalanc_1_10::XalanDocument *> >::Entry>::Node"** %next4, align 8, !dbg !5251
  %5 = load %"struct.xalanc_1_10::XalanList<xalanc_1_10::XalanMap<const xalanc_1_10::XalanDocument *, xalanc_1_10::XalanSourceTreeDocument *, xalanc_1_10::XalanMapKeyTraits<const xalanc_1_10::XalanDocument *> >::Entry>::Node"*, %"struct.xalanc_1_10::XalanList<xalanc_1_10::XalanMap<const xalanc_1_10::XalanDocument *, xalanc_1_10::XalanSourceTreeDocument *, xalanc_1_10::XalanMapKeyTraits<const xalanc_1_10::XalanDocument *> >::Entry>::Node"** %toInsertNode, align 8, !dbg !5252
  %prev5 = getelementptr inbounds %"struct.xalanc_1_10::XalanList<xalanc_1_10::XalanMap<const xalanc_1_10::XalanDocument *, xalanc_1_10::XalanSourceTreeDocument *, xalanc_1_10::XalanMapKeyTraits<const xalanc_1_10::XalanDocument *> >::Entry>::Node", %"struct.xalanc_1_10::XalanList<xalanc_1_10::XalanMap<const xalanc_1_10::XalanDocument *, xalanc_1_10::XalanSourceTreeDocument *, xalanc_1_10::XalanMapKeyTraits<const xalanc_1_10::XalanDocument *> >::Entry>::Node"* %5, i32 0, i32 1, !dbg !5253
  %6 = load %"struct.xalanc_1_10::XalanList<xalanc_1_10::XalanMap<const xalanc_1_10::XalanDocument *, xalanc_1_10::XalanSourceTreeDocument *, xalanc_1_10::XalanMapKeyTraits<const xalanc_1_10::XalanDocument *> >::Entry>::Node"*, %"struct.xalanc_1_10::XalanList<xalanc_1_10::XalanMap<const xalanc_1_10::XalanDocument *, xalanc_1_10::XalanSourceTreeDocument *, xalanc_1_10::XalanMapKeyTraits<const xalanc_1_10::XalanDocument *> >::Entry>::Node"** %prev5, align 8, !dbg !5253
  %7 = load %"struct.xalanc_1_10::XalanList<xalanc_1_10::XalanMap<const xalanc_1_10::XalanDocument *, xalanc_1_10::XalanSourceTreeDocument *, xalanc_1_10::XalanMapKeyTraits<const xalanc_1_10::XalanDocument *> >::Entry>::Node"*, %"struct.xalanc_1_10::XalanList<xalanc_1_10::XalanMap<const xalanc_1_10::XalanDocument *, xalanc_1_10::XalanSourceTreeDocument *, xalanc_1_10::XalanMapKeyTraits<const xalanc_1_10::XalanDocument *> >::Entry>::Node"** %toInsertNode, align 8, !dbg !5254
  %next6 = getelementptr inbounds %"struct.xalanc_1_10::XalanList<xalanc_1_10::XalanMap<const xalanc_1_10::XalanDocument *, xalanc_1_10::XalanSourceTreeDocument *, xalanc_1_10::XalanMapKeyTraits<const xalanc_1_10::XalanDocument *> >::Entry>::Node", %"struct.xalanc_1_10::XalanList<xalanc_1_10::XalanMap<const xalanc_1_10::XalanDocument *, xalanc_1_10::XalanSourceTreeDocument *, xalanc_1_10::XalanMapKeyTraits<const xalanc_1_10::XalanDocument *> >::Entry>::Node"* %7, i32 0, i32 2, !dbg !5255
  %8 = load %"struct.xalanc_1_10::XalanList<xalanc_1_10::XalanMap<const xalanc_1_10::XalanDocument *, xalanc_1_10::XalanSourceTreeDocument *, xalanc_1_10::XalanMapKeyTraits<const xalanc_1_10::XalanDocument *> >::Entry>::Node"*, %"struct.xalanc_1_10::XalanList<xalanc_1_10::XalanMap<const xalanc_1_10::XalanDocument *, xalanc_1_10::XalanSourceTreeDocument *, xalanc_1_10::XalanMapKeyTraits<const xalanc_1_10::XalanDocument *> >::Entry>::Node"** %next6, align 8, !dbg !5255
  %prev7 = getelementptr inbounds %"struct.xalanc_1_10::XalanList<xalanc_1_10::XalanMap<const xalanc_1_10::XalanDocument *, xalanc_1_10::XalanSourceTreeDocument *, xalanc_1_10::XalanMapKeyTraits<const xalanc_1_10::XalanDocument *> >::Entry>::Node", %"struct.xalanc_1_10::XalanList<xalanc_1_10::XalanMap<const xalanc_1_10::XalanDocument *, xalanc_1_10::XalanSourceTreeDocument *, xalanc_1_10::XalanMapKeyTraits<const xalanc_1_10::XalanDocument *> >::Entry>::Node"* %8, i32 0, i32 1, !dbg !5256
  store %"struct.xalanc_1_10::XalanList<xalanc_1_10::XalanMap<const xalanc_1_10::XalanDocument *, xalanc_1_10::XalanSourceTreeDocument *, xalanc_1_10::XalanMapKeyTraits<const xalanc_1_10::XalanDocument *> >::Entry>::Node"* %6, %"struct.xalanc_1_10::XalanList<xalanc_1_10::XalanMap<const xalanc_1_10::XalanDocument *, xalanc_1_10::XalanSourceTreeDocument *, xalanc_1_10::XalanMapKeyTraits<const xalanc_1_10::XalanDocument *> >::Entry>::Node"** %prev7, align 8, !dbg !5257
  %9 = load %"struct.xalanc_1_10::XalanList<xalanc_1_10::XalanMap<const xalanc_1_10::XalanDocument *, xalanc_1_10::XalanSourceTreeDocument *, xalanc_1_10::XalanMapKeyTraits<const xalanc_1_10::XalanDocument *> >::Entry>::Node"*, %"struct.xalanc_1_10::XalanList<xalanc_1_10::XalanMap<const xalanc_1_10::XalanDocument *, xalanc_1_10::XalanSourceTreeDocument *, xalanc_1_10::XalanMapKeyTraits<const xalanc_1_10::XalanDocument *> >::Entry>::Node"** %posNode, align 8, !dbg !5258
  %prev8 = getelementptr inbounds %"struct.xalanc_1_10::XalanList<xalanc_1_10::XalanMap<const xalanc_1_10::XalanDocument *, xalanc_1_10::XalanSourceTreeDocument *, xalanc_1_10::XalanMapKeyTraits<const xalanc_1_10::XalanDocument *> >::Entry>::Node", %"struct.xalanc_1_10::XalanList<xalanc_1_10::XalanMap<const xalanc_1_10::XalanDocument *, xalanc_1_10::XalanSourceTreeDocument *, xalanc_1_10::XalanMapKeyTraits<const xalanc_1_10::XalanDocument *> >::Entry>::Node"* %9, i32 0, i32 1, !dbg !5259
  %10 = load %"struct.xalanc_1_10::XalanList<xalanc_1_10::XalanMap<const xalanc_1_10::XalanDocument *, xalanc_1_10::XalanSourceTreeDocument *, xalanc_1_10::XalanMapKeyTraits<const xalanc_1_10::XalanDocument *> >::Entry>::Node"*, %"struct.xalanc_1_10::XalanList<xalanc_1_10::XalanMap<const xalanc_1_10::XalanDocument *, xalanc_1_10::XalanSourceTreeDocument *, xalanc_1_10::XalanMapKeyTraits<const xalanc_1_10::XalanDocument *> >::Entry>::Node"** %prev8, align 8, !dbg !5259
  %11 = load %"struct.xalanc_1_10::XalanList<xalanc_1_10::XalanMap<const xalanc_1_10::XalanDocument *, xalanc_1_10::XalanSourceTreeDocument *, xalanc_1_10::XalanMapKeyTraits<const xalanc_1_10::XalanDocument *> >::Entry>::Node"*, %"struct.xalanc_1_10::XalanList<xalanc_1_10::XalanMap<const xalanc_1_10::XalanDocument *, xalanc_1_10::XalanSourceTreeDocument *, xalanc_1_10::XalanMapKeyTraits<const xalanc_1_10::XalanDocument *> >::Entry>::Node"** %toInsertNode, align 8, !dbg !5260
  %prev9 = getelementptr inbounds %"struct.xalanc_1_10::XalanList<xalanc_1_10::XalanMap<const xalanc_1_10::XalanDocument *, xalanc_1_10::XalanSourceTreeDocument *, xalanc_1_10::XalanMapKeyTraits<const xalanc_1_10::XalanDocument *> >::Entry>::Node", %"struct.xalanc_1_10::XalanList<xalanc_1_10::XalanMap<const xalanc_1_10::XalanDocument *, xalanc_1_10::XalanSourceTreeDocument *, xalanc_1_10::XalanMapKeyTraits<const xalanc_1_10::XalanDocument *> >::Entry>::Node"* %11, i32 0, i32 1, !dbg !5261
  store %"struct.xalanc_1_10::XalanList<xalanc_1_10::XalanMap<const xalanc_1_10::XalanDocument *, xalanc_1_10::XalanSourceTreeDocument *, xalanc_1_10::XalanMapKeyTraits<const xalanc_1_10::XalanDocument *> >::Entry>::Node"* %10, %"struct.xalanc_1_10::XalanList<xalanc_1_10::XalanMap<const xalanc_1_10::XalanDocument *, xalanc_1_10::XalanSourceTreeDocument *, xalanc_1_10::XalanMapKeyTraits<const xalanc_1_10::XalanDocument *> >::Entry>::Node"** %prev9, align 8, !dbg !5262
  %12 = load %"struct.xalanc_1_10::XalanList<xalanc_1_10::XalanMap<const xalanc_1_10::XalanDocument *, xalanc_1_10::XalanSourceTreeDocument *, xalanc_1_10::XalanMapKeyTraits<const xalanc_1_10::XalanDocument *> >::Entry>::Node"*, %"struct.xalanc_1_10::XalanList<xalanc_1_10::XalanMap<const xalanc_1_10::XalanDocument *, xalanc_1_10::XalanSourceTreeDocument *, xalanc_1_10::XalanMapKeyTraits<const xalanc_1_10::XalanDocument *> >::Entry>::Node"** %posNode, align 8, !dbg !5263
  %13 = load %"struct.xalanc_1_10::XalanList<xalanc_1_10::XalanMap<const xalanc_1_10::XalanDocument *, xalanc_1_10::XalanSourceTreeDocument *, xalanc_1_10::XalanMapKeyTraits<const xalanc_1_10::XalanDocument *> >::Entry>::Node"*, %"struct.xalanc_1_10::XalanList<xalanc_1_10::XalanMap<const xalanc_1_10::XalanDocument *, xalanc_1_10::XalanSourceTreeDocument *, xalanc_1_10::XalanMapKeyTraits<const xalanc_1_10::XalanDocument *> >::Entry>::Node"** %toInsertNode, align 8, !dbg !5264
  %next10 = getelementptr inbounds %"struct.xalanc_1_10::XalanList<xalanc_1_10::XalanMap<const xalanc_1_10::XalanDocument *, xalanc_1_10::XalanSourceTreeDocument *, xalanc_1_10::XalanMapKeyTraits<const xalanc_1_10::XalanDocument *> >::Entry>::Node", %"struct.xalanc_1_10::XalanList<xalanc_1_10::XalanMap<const xalanc_1_10::XalanDocument *, xalanc_1_10::XalanSourceTreeDocument *, xalanc_1_10::XalanMapKeyTraits<const xalanc_1_10::XalanDocument *> >::Entry>::Node"* %13, i32 0, i32 2, !dbg !5265
  store %"struct.xalanc_1_10::XalanList<xalanc_1_10::XalanMap<const xalanc_1_10::XalanDocument *, xalanc_1_10::XalanSourceTreeDocument *, xalanc_1_10::XalanMapKeyTraits<const xalanc_1_10::XalanDocument *> >::Entry>::Node"* %12, %"struct.xalanc_1_10::XalanList<xalanc_1_10::XalanMap<const xalanc_1_10::XalanDocument *, xalanc_1_10::XalanSourceTreeDocument *, xalanc_1_10::XalanMapKeyTraits<const xalanc_1_10::XalanDocument *> >::Entry>::Node"** %next10, align 8, !dbg !5266
  %14 = load %"struct.xalanc_1_10::XalanList<xalanc_1_10::XalanMap<const xalanc_1_10::XalanDocument *, xalanc_1_10::XalanSourceTreeDocument *, xalanc_1_10::XalanMapKeyTraits<const xalanc_1_10::XalanDocument *> >::Entry>::Node"*, %"struct.xalanc_1_10::XalanList<xalanc_1_10::XalanMap<const xalanc_1_10::XalanDocument *, xalanc_1_10::XalanSourceTreeDocument *, xalanc_1_10::XalanMapKeyTraits<const xalanc_1_10::XalanDocument *> >::Entry>::Node"** %toInsertNode, align 8, !dbg !5267
  %15 = load %"struct.xalanc_1_10::XalanList<xalanc_1_10::XalanMap<const xalanc_1_10::XalanDocument *, xalanc_1_10::XalanSourceTreeDocument *, xalanc_1_10::XalanMapKeyTraits<const xalanc_1_10::XalanDocument *> >::Entry>::Node"*, %"struct.xalanc_1_10::XalanList<xalanc_1_10::XalanMap<const xalanc_1_10::XalanDocument *, xalanc_1_10::XalanSourceTreeDocument *, xalanc_1_10::XalanMapKeyTraits<const xalanc_1_10::XalanDocument *> >::Entry>::Node"** %posNode, align 8, !dbg !5268
  %prev11 = getelementptr inbounds %"struct.xalanc_1_10::XalanList<xalanc_1_10::XalanMap<const xalanc_1_10::XalanDocument *, xalanc_1_10::XalanSourceTreeDocument *, xalanc_1_10::XalanMapKeyTraits<const xalanc_1_10::XalanDocument *> >::Entry>::Node", %"struct.xalanc_1_10::XalanList<xalanc_1_10::XalanMap<const xalanc_1_10::XalanDocument *, xalanc_1_10::XalanSourceTreeDocument *, xalanc_1_10::XalanMapKeyTraits<const xalanc_1_10::XalanDocument *> >::Entry>::Node"* %15, i32 0, i32 1, !dbg !5269
  %16 = load %"struct.xalanc_1_10::XalanList<xalanc_1_10::XalanMap<const xalanc_1_10::XalanDocument *, xalanc_1_10::XalanSourceTreeDocument *, xalanc_1_10::XalanMapKeyTraits<const xalanc_1_10::XalanDocument *> >::Entry>::Node"*, %"struct.xalanc_1_10::XalanList<xalanc_1_10::XalanMap<const xalanc_1_10::XalanDocument *, xalanc_1_10::XalanSourceTreeDocument *, xalanc_1_10::XalanMapKeyTraits<const xalanc_1_10::XalanDocument *> >::Entry>::Node"** %prev11, align 8, !dbg !5269
  %next12 = getelementptr inbounds %"struct.xalanc_1_10::XalanList<xalanc_1_10::XalanMap<const xalanc_1_10::XalanDocument *, xalanc_1_10::XalanSourceTreeDocument *, xalanc_1_10::XalanMapKeyTraits<const xalanc_1_10::XalanDocument *> >::Entry>::Node", %"struct.xalanc_1_10::XalanList<xalanc_1_10::XalanMap<const xalanc_1_10::XalanDocument *, xalanc_1_10::XalanSourceTreeDocument *, xalanc_1_10::XalanMapKeyTraits<const xalanc_1_10::XalanDocument *> >::Entry>::Node"* %16, i32 0, i32 2, !dbg !5270
  store %"struct.xalanc_1_10::XalanList<xalanc_1_10::XalanMap<const xalanc_1_10::XalanDocument *, xalanc_1_10::XalanSourceTreeDocument *, xalanc_1_10::XalanMapKeyTraits<const xalanc_1_10::XalanDocument *> >::Entry>::Node"* %14, %"struct.xalanc_1_10::XalanList<xalanc_1_10::XalanMap<const xalanc_1_10::XalanDocument *, xalanc_1_10::XalanSourceTreeDocument *, xalanc_1_10::XalanMapKeyTraits<const xalanc_1_10::XalanDocument *> >::Entry>::Node"** %next12, align 8, !dbg !5271
  %17 = load %"struct.xalanc_1_10::XalanList<xalanc_1_10::XalanMap<const xalanc_1_10::XalanDocument *, xalanc_1_10::XalanSourceTreeDocument *, xalanc_1_10::XalanMapKeyTraits<const xalanc_1_10::XalanDocument *> >::Entry>::Node"*, %"struct.xalanc_1_10::XalanList<xalanc_1_10::XalanMap<const xalanc_1_10::XalanDocument *, xalanc_1_10::XalanSourceTreeDocument *, xalanc_1_10::XalanMapKeyTraits<const xalanc_1_10::XalanDocument *> >::Entry>::Node"** %toInsertNode, align 8, !dbg !5272
  %18 = load %"struct.xalanc_1_10::XalanList<xalanc_1_10::XalanMap<const xalanc_1_10::XalanDocument *, xalanc_1_10::XalanSourceTreeDocument *, xalanc_1_10::XalanMapKeyTraits<const xalanc_1_10::XalanDocument *> >::Entry>::Node"*, %"struct.xalanc_1_10::XalanList<xalanc_1_10::XalanMap<const xalanc_1_10::XalanDocument *, xalanc_1_10::XalanSourceTreeDocument *, xalanc_1_10::XalanMapKeyTraits<const xalanc_1_10::XalanDocument *> >::Entry>::Node"** %posNode, align 8, !dbg !5273
  %prev13 = getelementptr inbounds %"struct.xalanc_1_10::XalanList<xalanc_1_10::XalanMap<const xalanc_1_10::XalanDocument *, xalanc_1_10::XalanSourceTreeDocument *, xalanc_1_10::XalanMapKeyTraits<const xalanc_1_10::XalanDocument *> >::Entry>::Node", %"struct.xalanc_1_10::XalanList<xalanc_1_10::XalanMap<const xalanc_1_10::XalanDocument *, xalanc_1_10::XalanSourceTreeDocument *, xalanc_1_10::XalanMapKeyTraits<const xalanc_1_10::XalanDocument *> >::Entry>::Node"* %18, i32 0, i32 1, !dbg !5274
  store %"struct.xalanc_1_10::XalanList<xalanc_1_10::XalanMap<const xalanc_1_10::XalanDocument *, xalanc_1_10::XalanSourceTreeDocument *, xalanc_1_10::XalanMapKeyTraits<const xalanc_1_10::XalanDocument *> >::Entry>::Node"* %17, %"struct.xalanc_1_10::XalanList<xalanc_1_10::XalanMap<const xalanc_1_10::XalanDocument *, xalanc_1_10::XalanSourceTreeDocument *, xalanc_1_10::XalanMapKeyTraits<const xalanc_1_10::XalanDocument *> >::Entry>::Node"** %prev13, align 8, !dbg !5275
  br label %if.end, !dbg !5276

if.end:                                           ; preds = %if.then, %entry
  ret void, !dbg !5277
}

; Function Attrs: noinline nounwind uwtable
define linkonce_odr dso_local void @_ZN11xalanc_1_1021XalanListIteratorBaseINS_23XalanListIteratorTraitsINS_8XalanMapIPKNS_13XalanDocumentEPNS_23XalanSourceTreeDocumentENS_17XalanMapKeyTraitsIS5_EEE5EntryEEENS_9XalanListISB_E4NodeEEC2ERKSG_(%"struct.xalanc_1_10::XalanListIteratorBase.52"* %this, %"struct.xalanc_1_10::XalanListIteratorBase.52"* dereferenceable(8) %theRhs) unnamed_addr #1 comdat align 2 !dbg !5278 {
entry:
  %this.addr = alloca %"struct.xalanc_1_10::XalanListIteratorBase.52"*, align 8
  %theRhs.addr = alloca %"struct.xalanc_1_10::XalanListIteratorBase.52"*, align 8
  store %"struct.xalanc_1_10::XalanListIteratorBase.52"* %this, %"struct.xalanc_1_10::XalanListIteratorBase.52"** %this.addr, align 8
  call void @llvm.dbg.declare(metadata %"struct.xalanc_1_10::XalanListIteratorBase.52"** %this.addr, metadata !5279, metadata !DIExpression()), !dbg !5280
  store %"struct.xalanc_1_10::XalanListIteratorBase.52"* %theRhs, %"struct.xalanc_1_10::XalanListIteratorBase.52"** %theRhs.addr, align 8
  call void @llvm.dbg.declare(metadata %"struct.xalanc_1_10::XalanListIteratorBase.52"** %theRhs.addr, metadata !5281, metadata !DIExpression()), !dbg !5282
  %this1 = load %"struct.xalanc_1_10::XalanListIteratorBase.52"*, %"struct.xalanc_1_10::XalanListIteratorBase.52"** %this.addr, align 8
  %currentNode = getelementptr inbounds %"struct.xalanc_1_10::XalanListIteratorBase.52", %"struct.xalanc_1_10::XalanListIteratorBase.52"* %this1, i32 0, i32 0, !dbg !5283
  %0 = load %"struct.xalanc_1_10::XalanListIteratorBase.52"*, %"struct.xalanc_1_10::XalanListIteratorBase.52"** %theRhs.addr, align 8, !dbg !5284
  %currentNode2 = getelementptr inbounds %"struct.xalanc_1_10::XalanListIteratorBase.52", %"struct.xalanc_1_10::XalanListIteratorBase.52"* %0, i32 0, i32 0, !dbg !5285
  %1 = load %"struct.xalanc_1_10::XalanList<xalanc_1_10::XalanMap<const xalanc_1_10::XalanDocument *, xalanc_1_10::XalanSourceTreeDocument *, xalanc_1_10::XalanMapKeyTraits<const xalanc_1_10::XalanDocument *> >::Entry>::Node"*, %"struct.xalanc_1_10::XalanList<xalanc_1_10::XalanMap<const xalanc_1_10::XalanDocument *, xalanc_1_10::XalanSourceTreeDocument *, xalanc_1_10::XalanMapKeyTraits<const xalanc_1_10::XalanDocument *> >::Entry>::Node"** %currentNode2, align 8, !dbg !5285
  store %"struct.xalanc_1_10::XalanList<xalanc_1_10::XalanMap<const xalanc_1_10::XalanDocument *, xalanc_1_10::XalanSourceTreeDocument *, xalanc_1_10::XalanMapKeyTraits<const xalanc_1_10::XalanDocument *> >::Entry>::Node"* %1, %"struct.xalanc_1_10::XalanList<xalanc_1_10::XalanMap<const xalanc_1_10::XalanDocument *, xalanc_1_10::XalanSourceTreeDocument *, xalanc_1_10::XalanMapKeyTraits<const xalanc_1_10::XalanDocument *> >::Entry>::Node"** %currentNode, align 8, !dbg !5283
  ret void, !dbg !5286
}

; Function Attrs: noinline uwtable
define linkonce_odr dso_local void @_ZN11xalanc_1_1011XalanVectorINS0_INS_21XalanListIteratorBaseINS_23XalanListIteratorTraitsINS_8XalanMapIPKNS_13XalanDocumentEPNS_23XalanSourceTreeDocumentENS_17XalanMapKeyTraitsIS6_EEE5EntryEEENS_9XalanListISC_E4NodeEEENS_31MemoryManagedConstructionTraitsISH_EEEENS_32ConstructWithMemoryManagerTraitsISK_EEE7destroyEPSK_SO_(%"class.xalanc_1_10::XalanVector.51"* %theFirst, %"class.xalanc_1_10::XalanVector.51"* %theLast) #6 comdat align 2 !dbg !5287 {
entry:
  %theFirst.addr = alloca %"class.xalanc_1_10::XalanVector.51"*, align 8
  %theLast.addr = alloca %"class.xalanc_1_10::XalanVector.51"*, align 8
  store %"class.xalanc_1_10::XalanVector.51"* %theFirst, %"class.xalanc_1_10::XalanVector.51"** %theFirst.addr, align 8
  call void @llvm.dbg.declare(metadata %"class.xalanc_1_10::XalanVector.51"** %theFirst.addr, metadata !5288, metadata !DIExpression()), !dbg !5289
  store %"class.xalanc_1_10::XalanVector.51"* %theLast, %"class.xalanc_1_10::XalanVector.51"** %theLast.addr, align 8
  call void @llvm.dbg.declare(metadata %"class.xalanc_1_10::XalanVector.51"** %theLast.addr, metadata !5290, metadata !DIExpression()), !dbg !5291
  br label %for.cond, !dbg !5292

for.cond:                                         ; preds = %for.inc, %entry
  %0 = load %"class.xalanc_1_10::XalanVector.51"*, %"class.xalanc_1_10::XalanVector.51"** %theFirst.addr, align 8, !dbg !5293
  %1 = load %"class.xalanc_1_10::XalanVector.51"*, %"class.xalanc_1_10::XalanVector.51"** %theLast.addr, align 8, !dbg !5296
  %cmp = icmp ne %"class.xalanc_1_10::XalanVector.51"* %0, %1, !dbg !5297
  br i1 %cmp, label %for.body, label %for.end, !dbg !5298

for.body:                                         ; preds = %for.cond
  %2 = load %"class.xalanc_1_10::XalanVector.51"*, %"class.xalanc_1_10::XalanVector.51"** %theFirst.addr, align 8, !dbg !5299
  call void @_ZN11xalanc_1_1011XalanVectorINS0_INS_21XalanListIteratorBaseINS_23XalanListIteratorTraitsINS_8XalanMapIPKNS_13XalanDocumentEPNS_23XalanSourceTreeDocumentENS_17XalanMapKeyTraitsIS6_EEE5EntryEEENS_9XalanListISC_E4NodeEEENS_31MemoryManagedConstructionTraitsISH_EEEENS_32ConstructWithMemoryManagerTraitsISK_EEE7destroyERSK_(%"class.xalanc_1_10::XalanVector.51"* dereferenceable(32) %2), !dbg !5301
  br label %for.inc, !dbg !5302

for.inc:                                          ; preds = %for.body
  %3 = load %"class.xalanc_1_10::XalanVector.51"*, %"class.xalanc_1_10::XalanVector.51"** %theFirst.addr, align 8, !dbg !5303
  %incdec.ptr = getelementptr inbounds %"class.xalanc_1_10::XalanVector.51", %"class.xalanc_1_10::XalanVector.51"* %3, i32 1, !dbg !5303
  store %"class.xalanc_1_10::XalanVector.51"* %incdec.ptr, %"class.xalanc_1_10::XalanVector.51"** %theFirst.addr, align 8, !dbg !5303
  br label %for.cond, !dbg !5304, !llvm.loop !5305

for.end:                                          ; preds = %for.cond
  ret void, !dbg !5307
}

; Function Attrs: noinline nounwind uwtable
define linkonce_odr dso_local %"class.xalanc_1_10::XalanVector.51"* @_ZN11xalanc_1_1011XalanVectorINS0_INS_21XalanListIteratorBaseINS_23XalanListIteratorTraitsINS_8XalanMapIPKNS_13XalanDocumentEPNS_23XalanSourceTreeDocumentENS_17XalanMapKeyTraitsIS6_EEE5EntryEEENS_9XalanListISC_E4NodeEEENS_31MemoryManagedConstructionTraitsISH_EEEENS_32ConstructWithMemoryManagerTraitsISK_EEE5beginEv(%"class.xalanc_1_10::XalanVector.50"* %this) #1 comdat align 2 !dbg !5308 {
entry:
  %this.addr = alloca %"class.xalanc_1_10::XalanVector.50"*, align 8
  store %"class.xalanc_1_10::XalanVector.50"* %this, %"class.xalanc_1_10::XalanVector.50"** %this.addr, align 8
  call void @llvm.dbg.declare(metadata %"class.xalanc_1_10::XalanVector.50"** %this.addr, metadata !5309, metadata !DIExpression()), !dbg !5310
  %this1 = load %"class.xalanc_1_10::XalanVector.50"*, %"class.xalanc_1_10::XalanVector.50"** %this.addr, align 8
  call void @_ZNK11xalanc_1_1011XalanVectorINS0_INS_21XalanListIteratorBaseINS_23XalanListIteratorTraitsINS_8XalanMapIPKNS_13XalanDocumentEPNS_23XalanSourceTreeDocumentENS_17XalanMapKeyTraitsIS6_EEE5EntryEEENS_9XalanListISC_E4NodeEEENS_31MemoryManagedConstructionTraitsISH_EEEENS_32ConstructWithMemoryManagerTraitsISK_EEE10invariantsEv(%"class.xalanc_1_10::XalanVector.50"* %this1), !dbg !5311
  %m_data = getelementptr inbounds %"class.xalanc_1_10::XalanVector.50", %"class.xalanc_1_10::XalanVector.50"* %this1, i32 0, i32 3, !dbg !5312
  %0 = load %"class.xalanc_1_10::XalanVector.51"*, %"class.xalanc_1_10::XalanVector.51"** %m_data, align 8, !dbg !5312
  ret %"class.xalanc_1_10::XalanVector.51"* %0, !dbg !5313
}

; Function Attrs: noinline uwtable
define linkonce_odr dso_local %"class.xalanc_1_10::XalanVector.51"* @_ZN11xalanc_1_1011XalanVectorINS0_INS_21XalanListIteratorBaseINS_23XalanListIteratorTraitsINS_8XalanMapIPKNS_13XalanDocumentEPNS_23XalanSourceTreeDocumentENS_17XalanMapKeyTraitsIS6_EEE5EntryEEENS_9XalanListISC_E4NodeEEENS_31MemoryManagedConstructionTraitsISH_EEEENS_32ConstructWithMemoryManagerTraitsISK_EEE3endEv(%"class.xalanc_1_10::XalanVector.50"* %this) #6 comdat align 2 !dbg !5314 {
entry:
  %this.addr = alloca %"class.xalanc_1_10::XalanVector.50"*, align 8
  store %"class.xalanc_1_10::XalanVector.50"* %this, %"class.xalanc_1_10::XalanVector.50"** %this.addr, align 8
  call void @llvm.dbg.declare(metadata %"class.xalanc_1_10::XalanVector.50"** %this.addr, metadata !5315, metadata !DIExpression()), !dbg !5316
  %this1 = load %"class.xalanc_1_10::XalanVector.50"*, %"class.xalanc_1_10::XalanVector.50"** %this.addr, align 8
  call void @_ZNK11xalanc_1_1011XalanVectorINS0_INS_21XalanListIteratorBaseINS_23XalanListIteratorTraitsINS_8XalanMapIPKNS_13XalanDocumentEPNS_23XalanSourceTreeDocumentENS_17XalanMapKeyTraitsIS6_EEE5EntryEEENS_9XalanListISC_E4NodeEEENS_31MemoryManagedConstructionTraitsISH_EEEENS_32ConstructWithMemoryManagerTraitsISK_EEE10invariantsEv(%"class.xalanc_1_10::XalanVector.50"* %this1), !dbg !5317
  %call = call %"class.xalanc_1_10::XalanVector.51"* @_ZN11xalanc_1_1011XalanVectorINS0_INS_21XalanListIteratorBaseINS_23XalanListIteratorTraitsINS_8XalanMapIPKNS_13XalanDocumentEPNS_23XalanSourceTreeDocumentENS_17XalanMapKeyTraitsIS6_EEE5EntryEEENS_9XalanListISC_E4NodeEEENS_31MemoryManagedConstructionTraitsISH_EEEENS_32ConstructWithMemoryManagerTraitsISK_EEE10endPointerEv(%"class.xalanc_1_10::XalanVector.50"* %this1), !dbg !5318
  ret %"class.xalanc_1_10::XalanVector.51"* %call, !dbg !5319
}

; Function Attrs: noinline uwtable
define linkonce_odr dso_local void @_ZN11xalanc_1_1011XalanVectorINS0_INS_21XalanListIteratorBaseINS_23XalanListIteratorTraitsINS_8XalanMapIPKNS_13XalanDocumentEPNS_23XalanSourceTreeDocumentENS_17XalanMapKeyTraitsIS6_EEE5EntryEEENS_9XalanListISC_E4NodeEEENS_31MemoryManagedConstructionTraitsISH_EEEENS_32ConstructWithMemoryManagerTraitsISK_EEE10deallocateEPSK_(%"class.xalanc_1_10::XalanVector.50"* %this, %"class.xalanc_1_10::XalanVector.51"* %pointer) #6 comdat align 2 !dbg !5320 {
entry:
  %this.addr = alloca %"class.xalanc_1_10::XalanVector.50"*, align 8
  %pointer.addr = alloca %"class.xalanc_1_10::XalanVector.51"*, align 8
  store %"class.xalanc_1_10::XalanVector.50"* %this, %"class.xalanc_1_10::XalanVector.50"** %this.addr, align 8
  call void @llvm.dbg.declare(metadata %"class.xalanc_1_10::XalanVector.50"** %this.addr, metadata !5321, metadata !DIExpression()), !dbg !5322
  store %"class.xalanc_1_10::XalanVector.51"* %pointer, %"class.xalanc_1_10::XalanVector.51"** %pointer.addr, align 8
  call void @llvm.dbg.declare(metadata %"class.xalanc_1_10::XalanVector.51"** %pointer.addr, metadata !5323, metadata !DIExpression()), !dbg !5324
  %this1 = load %"class.xalanc_1_10::XalanVector.50"*, %"class.xalanc_1_10::XalanVector.50"** %this.addr, align 8
  %m_memoryManager = getelementptr inbounds %"class.xalanc_1_10::XalanVector.50", %"class.xalanc_1_10::XalanVector.50"* %this1, i32 0, i32 0, !dbg !5325
  %0 = load %"class.xercesc_2_7::MemoryManager"*, %"class.xercesc_2_7::MemoryManager"** %m_memoryManager, align 8, !dbg !5325
  %1 = load %"class.xalanc_1_10::XalanVector.51"*, %"class.xalanc_1_10::XalanVector.51"** %pointer.addr, align 8, !dbg !5326
  %2 = bitcast %"class.xalanc_1_10::XalanVector.51"* %1 to i8*, !dbg !5326
  %3 = bitcast %"class.xercesc_2_7::MemoryManager"* %0 to void (%"class.xercesc_2_7::MemoryManager"*, i8*)***, !dbg !5327
  %vtable = load void (%"class.xercesc_2_7::MemoryManager"*, i8*)**, void (%"class.xercesc_2_7::MemoryManager"*, i8*)*** %3, align 8, !dbg !5327
  %vfn = getelementptr inbounds void (%"class.xercesc_2_7::MemoryManager"*, i8*)*, void (%"class.xercesc_2_7::MemoryManager"*, i8*)** %vtable, i64 3, !dbg !5327
  %4 = load void (%"class.xercesc_2_7::MemoryManager"*, i8*)*, void (%"class.xercesc_2_7::MemoryManager"*, i8*)** %vfn, align 8, !dbg !5327
  call void %4(%"class.xercesc_2_7::MemoryManager"* %0, i8* %2), !dbg !5327
  ret void, !dbg !5328
}

; Function Attrs: noinline nounwind uwtable
define linkonce_odr dso_local void @_ZN11xalanc_1_1011XalanVectorINS0_INS_21XalanListIteratorBaseINS_23XalanListIteratorTraitsINS_8XalanMapIPKNS_13XalanDocumentEPNS_23XalanSourceTreeDocumentENS_17XalanMapKeyTraitsIS6_EEE5EntryEEENS_9XalanListISC_E4NodeEEENS_31MemoryManagedConstructionTraitsISH_EEEENS_32ConstructWithMemoryManagerTraitsISK_EEE7destroyERSK_(%"class.xalanc_1_10::XalanVector.51"* dereferenceable(32) %theValue) #1 comdat align 2 !dbg !5329 {
entry:
  %theValue.addr = alloca %"class.xalanc_1_10::XalanVector.51"*, align 8
  store %"class.xalanc_1_10::XalanVector.51"* %theValue, %"class.xalanc_1_10::XalanVector.51"** %theValue.addr, align 8
  call void @llvm.dbg.declare(metadata %"class.xalanc_1_10::XalanVector.51"** %theValue.addr, metadata !5330, metadata !DIExpression()), !dbg !5331
  %0 = load %"class.xalanc_1_10::XalanVector.51"*, %"class.xalanc_1_10::XalanVector.51"** %theValue.addr, align 8, !dbg !5332
  call void @_ZN11xalanc_1_1011XalanVectorINS_21XalanListIteratorBaseINS_23XalanListIteratorTraitsINS_8XalanMapIPKNS_13XalanDocumentEPNS_23XalanSourceTreeDocumentENS_17XalanMapKeyTraitsIS6_EEE5EntryEEENS_9XalanListISC_E4NodeEEENS_31MemoryManagedConstructionTraitsISH_EEED2Ev(%"class.xalanc_1_10::XalanVector.51"* %0) #9, !dbg !5333
  ret void, !dbg !5334
}

; Function Attrs: noinline nounwind uwtable
define linkonce_odr dso_local void @_ZN11xalanc_1_1011XalanVectorINS_21XalanListIteratorBaseINS_23XalanListIteratorTraitsINS_8XalanMapIPKNS_13XalanDocumentEPNS_23XalanSourceTreeDocumentENS_17XalanMapKeyTraitsIS6_EEE5EntryEEENS_9XalanListISC_E4NodeEEENS_31MemoryManagedConstructionTraitsISH_EEED2Ev(%"class.xalanc_1_10::XalanVector.51"* %this) unnamed_addr #1 comdat align 2 personality i8* bitcast (i32 (...)* @__gxx_personality_v0 to i8*) !dbg !5335 {
entry:
  %this.addr = alloca %"class.xalanc_1_10::XalanVector.51"*, align 8
  store %"class.xalanc_1_10::XalanVector.51"* %this, %"class.xalanc_1_10::XalanVector.51"** %this.addr, align 8
  call void @llvm.dbg.declare(metadata %"class.xalanc_1_10::XalanVector.51"** %this.addr, metadata !5336, metadata !DIExpression()), !dbg !5337
  %this1 = load %"class.xalanc_1_10::XalanVector.51"*, %"class.xalanc_1_10::XalanVector.51"** %this.addr, align 8
  invoke void @_ZNK11xalanc_1_1011XalanVectorINS_21XalanListIteratorBaseINS_23XalanListIteratorTraitsINS_8XalanMapIPKNS_13XalanDocumentEPNS_23XalanSourceTreeDocumentENS_17XalanMapKeyTraitsIS6_EEE5EntryEEENS_9XalanListISC_E4NodeEEENS_31MemoryManagedConstructionTraitsISH_EEE10invariantsEv(%"class.xalanc_1_10::XalanVector.51"* %this1)
          to label %invoke.cont unwind label %terminate.lpad, !dbg !5338

invoke.cont:                                      ; preds = %entry
  %m_allocation = getelementptr inbounds %"class.xalanc_1_10::XalanVector.51", %"class.xalanc_1_10::XalanVector.51"* %this1, i32 0, i32 2, !dbg !5340
  %0 = load i64, i64* %m_allocation, align 8, !dbg !5340
  %cmp = icmp ne i64 %0, 0, !dbg !5342
  br i1 %cmp, label %if.then, label %if.end, !dbg !5343

if.then:                                          ; preds = %invoke.cont
  %call = invoke %"struct.xalanc_1_10::XalanListIteratorBase.52"* @_ZN11xalanc_1_1011XalanVectorINS_21XalanListIteratorBaseINS_23XalanListIteratorTraitsINS_8XalanMapIPKNS_13XalanDocumentEPNS_23XalanSourceTreeDocumentENS_17XalanMapKeyTraitsIS6_EEE5EntryEEENS_9XalanListISC_E4NodeEEENS_31MemoryManagedConstructionTraitsISH_EEE5beginEv(%"class.xalanc_1_10::XalanVector.51"* %this1)
          to label %invoke.cont2 unwind label %terminate.lpad, !dbg !5344

invoke.cont2:                                     ; preds = %if.then
  %call4 = invoke %"struct.xalanc_1_10::XalanListIteratorBase.52"* @_ZN11xalanc_1_1011XalanVectorINS_21XalanListIteratorBaseINS_23XalanListIteratorTraitsINS_8XalanMapIPKNS_13XalanDocumentEPNS_23XalanSourceTreeDocumentENS_17XalanMapKeyTraitsIS6_EEE5EntryEEENS_9XalanListISC_E4NodeEEENS_31MemoryManagedConstructionTraitsISH_EEE3endEv(%"class.xalanc_1_10::XalanVector.51"* %this1)
          to label %invoke.cont3 unwind label %terminate.lpad, !dbg !5346

invoke.cont3:                                     ; preds = %invoke.cont2
  invoke void @_ZN11xalanc_1_1011XalanVectorINS_21XalanListIteratorBaseINS_23XalanListIteratorTraitsINS_8XalanMapIPKNS_13XalanDocumentEPNS_23XalanSourceTreeDocumentENS_17XalanMapKeyTraitsIS6_EEE5EntryEEENS_9XalanListISC_E4NodeEEENS_31MemoryManagedConstructionTraitsISH_EEE7destroyEPSH_SL_(%"struct.xalanc_1_10::XalanListIteratorBase.52"* %call, %"struct.xalanc_1_10::XalanListIteratorBase.52"* %call4)
          to label %invoke.cont5 unwind label %terminate.lpad, !dbg !5347

invoke.cont5:                                     ; preds = %invoke.cont3
  %m_data = getelementptr inbounds %"class.xalanc_1_10::XalanVector.51", %"class.xalanc_1_10::XalanVector.51"* %this1, i32 0, i32 3, !dbg !5348
  %1 = load %"struct.xalanc_1_10::XalanListIteratorBase.52"*, %"struct.xalanc_1_10::XalanListIteratorBase.52"** %m_data, align 8, !dbg !5348
  invoke void @_ZN11xalanc_1_1011XalanVectorINS_21XalanListIteratorBaseINS_23XalanListIteratorTraitsINS_8XalanMapIPKNS_13XalanDocumentEPNS_23XalanSourceTreeDocumentENS_17XalanMapKeyTraitsIS6_EEE5EntryEEENS_9XalanListISC_E4NodeEEENS_31MemoryManagedConstructionTraitsISH_EEE10deallocateEPSH_(%"class.xalanc_1_10::XalanVector.51"* %this1, %"struct.xalanc_1_10::XalanListIteratorBase.52"* %1)
          to label %invoke.cont6 unwind label %terminate.lpad, !dbg !5349

invoke.cont6:                                     ; preds = %invoke.cont5
  br label %if.end, !dbg !5350

if.end:                                           ; preds = %invoke.cont6, %invoke.cont
  ret void, !dbg !5351

terminate.lpad:                                   ; preds = %invoke.cont5, %invoke.cont3, %invoke.cont2, %if.then, %entry
  %2 = landingpad { i8*, i32 }
          catch i8* null, !dbg !5338
  %3 = extractvalue { i8*, i32 } %2, 0, !dbg !5338
  call void @__clang_call_terminate(i8* %3) #11, !dbg !5338
  unreachable, !dbg !5338
}

; Function Attrs: noinline nounwind uwtable
define linkonce_odr dso_local void @_ZNK11xalanc_1_1011XalanVectorINS_21XalanListIteratorBaseINS_23XalanListIteratorTraitsINS_8XalanMapIPKNS_13XalanDocumentEPNS_23XalanSourceTreeDocumentENS_17XalanMapKeyTraitsIS6_EEE5EntryEEENS_9XalanListISC_E4NodeEEENS_31MemoryManagedConstructionTraitsISH_EEE10invariantsEv(%"class.xalanc_1_10::XalanVector.51"* %this) #1 comdat align 2 !dbg !5352 {
entry:
  %this.addr = alloca %"class.xalanc_1_10::XalanVector.51"*, align 8
  store %"class.xalanc_1_10::XalanVector.51"* %this, %"class.xalanc_1_10::XalanVector.51"** %this.addr, align 8
  call void @llvm.dbg.declare(metadata %"class.xalanc_1_10::XalanVector.51"** %this.addr, metadata !5353, metadata !DIExpression()), !dbg !5355
  %this1 = load %"class.xalanc_1_10::XalanVector.51"*, %"class.xalanc_1_10::XalanVector.51"** %this.addr, align 8
  ret void, !dbg !5356
}

; Function Attrs: noinline uwtable
define linkonce_odr dso_local void @_ZN11xalanc_1_1011XalanVectorINS_21XalanListIteratorBaseINS_23XalanListIteratorTraitsINS_8XalanMapIPKNS_13XalanDocumentEPNS_23XalanSourceTreeDocumentENS_17XalanMapKeyTraitsIS6_EEE5EntryEEENS_9XalanListISC_E4NodeEEENS_31MemoryManagedConstructionTraitsISH_EEE7destroyEPSH_SL_(%"struct.xalanc_1_10::XalanListIteratorBase.52"* %theFirst, %"struct.xalanc_1_10::XalanListIteratorBase.52"* %theLast) #6 comdat align 2 !dbg !5357 {
entry:
  %theFirst.addr = alloca %"struct.xalanc_1_10::XalanListIteratorBase.52"*, align 8
  %theLast.addr = alloca %"struct.xalanc_1_10::XalanListIteratorBase.52"*, align 8
  store %"struct.xalanc_1_10::XalanListIteratorBase.52"* %theFirst, %"struct.xalanc_1_10::XalanListIteratorBase.52"** %theFirst.addr, align 8
  call void @llvm.dbg.declare(metadata %"struct.xalanc_1_10::XalanListIteratorBase.52"** %theFirst.addr, metadata !5358, metadata !DIExpression()), !dbg !5359
  store %"struct.xalanc_1_10::XalanListIteratorBase.52"* %theLast, %"struct.xalanc_1_10::XalanListIteratorBase.52"** %theLast.addr, align 8
  call void @llvm.dbg.declare(metadata %"struct.xalanc_1_10::XalanListIteratorBase.52"** %theLast.addr, metadata !5360, metadata !DIExpression()), !dbg !5361
  br label %for.cond, !dbg !5362

for.cond:                                         ; preds = %for.inc, %entry
  %0 = load %"struct.xalanc_1_10::XalanListIteratorBase.52"*, %"struct.xalanc_1_10::XalanListIteratorBase.52"** %theFirst.addr, align 8, !dbg !5363
  %1 = load %"struct.xalanc_1_10::XalanListIteratorBase.52"*, %"struct.xalanc_1_10::XalanListIteratorBase.52"** %theLast.addr, align 8, !dbg !5366
  %cmp = icmp ne %"struct.xalanc_1_10::XalanListIteratorBase.52"* %0, %1, !dbg !5367
  br i1 %cmp, label %for.body, label %for.end, !dbg !5368

for.body:                                         ; preds = %for.cond
  %2 = load %"struct.xalanc_1_10::XalanListIteratorBase.52"*, %"struct.xalanc_1_10::XalanListIteratorBase.52"** %theFirst.addr, align 8, !dbg !5369
  call void @_ZN11xalanc_1_1011XalanVectorINS_21XalanListIteratorBaseINS_23XalanListIteratorTraitsINS_8XalanMapIPKNS_13XalanDocumentEPNS_23XalanSourceTreeDocumentENS_17XalanMapKeyTraitsIS6_EEE5EntryEEENS_9XalanListISC_E4NodeEEENS_31MemoryManagedConstructionTraitsISH_EEE7destroyERSH_(%"struct.xalanc_1_10::XalanListIteratorBase.52"* dereferenceable(8) %2), !dbg !5371
  br label %for.inc, !dbg !5372

for.inc:                                          ; preds = %for.body
  %3 = load %"struct.xalanc_1_10::XalanListIteratorBase.52"*, %"struct.xalanc_1_10::XalanListIteratorBase.52"** %theFirst.addr, align 8, !dbg !5373
  %incdec.ptr = getelementptr inbounds %"struct.xalanc_1_10::XalanListIteratorBase.52", %"struct.xalanc_1_10::XalanListIteratorBase.52"* %3, i32 1, !dbg !5373
  store %"struct.xalanc_1_10::XalanListIteratorBase.52"* %incdec.ptr, %"struct.xalanc_1_10::XalanListIteratorBase.52"** %theFirst.addr, align 8, !dbg !5373
  br label %for.cond, !dbg !5374, !llvm.loop !5375

for.end:                                          ; preds = %for.cond
  ret void, !dbg !5377
}

; Function Attrs: noinline nounwind uwtable
define linkonce_odr dso_local %"struct.xalanc_1_10::XalanListIteratorBase.52"* @_ZN11xalanc_1_1011XalanVectorINS_21XalanListIteratorBaseINS_23XalanListIteratorTraitsINS_8XalanMapIPKNS_13XalanDocumentEPNS_23XalanSourceTreeDocumentENS_17XalanMapKeyTraitsIS6_EEE5EntryEEENS_9XalanListISC_E4NodeEEENS_31MemoryManagedConstructionTraitsISH_EEE5beginEv(%"class.xalanc_1_10::XalanVector.51"* %this) #1 comdat align 2 !dbg !5378 {
entry:
  %this.addr = alloca %"class.xalanc_1_10::XalanVector.51"*, align 8
  store %"class.xalanc_1_10::XalanVector.51"* %this, %"class.xalanc_1_10::XalanVector.51"** %this.addr, align 8
  call void @llvm.dbg.declare(metadata %"class.xalanc_1_10::XalanVector.51"** %this.addr, metadata !5379, metadata !DIExpression()), !dbg !5380
  %this1 = load %"class.xalanc_1_10::XalanVector.51"*, %"class.xalanc_1_10::XalanVector.51"** %this.addr, align 8
  call void @_ZNK11xalanc_1_1011XalanVectorINS_21XalanListIteratorBaseINS_23XalanListIteratorTraitsINS_8XalanMapIPKNS_13XalanDocumentEPNS_23XalanSourceTreeDocumentENS_17XalanMapKeyTraitsIS6_EEE5EntryEEENS_9XalanListISC_E4NodeEEENS_31MemoryManagedConstructionTraitsISH_EEE10invariantsEv(%"class.xalanc_1_10::XalanVector.51"* %this1), !dbg !5381
  %m_data = getelementptr inbounds %"class.xalanc_1_10::XalanVector.51", %"class.xalanc_1_10::XalanVector.51"* %this1, i32 0, i32 3, !dbg !5382
  %0 = load %"struct.xalanc_1_10::XalanListIteratorBase.52"*, %"struct.xalanc_1_10::XalanListIteratorBase.52"** %m_data, align 8, !dbg !5382
  ret %"struct.xalanc_1_10::XalanListIteratorBase.52"* %0, !dbg !5383
}

; Function Attrs: noinline uwtable
define linkonce_odr dso_local %"struct.xalanc_1_10::XalanListIteratorBase.52"* @_ZN11xalanc_1_1011XalanVectorINS_21XalanListIteratorBaseINS_23XalanListIteratorTraitsINS_8XalanMapIPKNS_13XalanDocumentEPNS_23XalanSourceTreeDocumentENS_17XalanMapKeyTraitsIS6_EEE5EntryEEENS_9XalanListISC_E4NodeEEENS_31MemoryManagedConstructionTraitsISH_EEE3endEv(%"class.xalanc_1_10::XalanVector.51"* %this) #6 comdat align 2 !dbg !5384 {
entry:
  %this.addr = alloca %"class.xalanc_1_10::XalanVector.51"*, align 8
  store %"class.xalanc_1_10::XalanVector.51"* %this, %"class.xalanc_1_10::XalanVector.51"** %this.addr, align 8
  call void @llvm.dbg.declare(metadata %"class.xalanc_1_10::XalanVector.51"** %this.addr, metadata !5385, metadata !DIExpression()), !dbg !5386
  %this1 = load %"class.xalanc_1_10::XalanVector.51"*, %"class.xalanc_1_10::XalanVector.51"** %this.addr, align 8
  call void @_ZNK11xalanc_1_1011XalanVectorINS_21XalanListIteratorBaseINS_23XalanListIteratorTraitsINS_8XalanMapIPKNS_13XalanDocumentEPNS_23XalanSourceTreeDocumentENS_17XalanMapKeyTraitsIS6_EEE5EntryEEENS_9XalanListISC_E4NodeEEENS_31MemoryManagedConstructionTraitsISH_EEE10invariantsEv(%"class.xalanc_1_10::XalanVector.51"* %this1), !dbg !5387
  %call = call %"struct.xalanc_1_10::XalanListIteratorBase.52"* @_ZN11xalanc_1_1011XalanVectorINS_21XalanListIteratorBaseINS_23XalanListIteratorTraitsINS_8XalanMapIPKNS_13XalanDocumentEPNS_23XalanSourceTreeDocumentENS_17XalanMapKeyTraitsIS6_EEE5EntryEEENS_9XalanListISC_E4NodeEEENS_31MemoryManagedConstructionTraitsISH_EEE10endPointerEv(%"class.xalanc_1_10::XalanVector.51"* %this1), !dbg !5388
  ret %"struct.xalanc_1_10::XalanListIteratorBase.52"* %call, !dbg !5389
}

; Function Attrs: noinline uwtable
define linkonce_odr dso_local void @_ZN11xalanc_1_1011XalanVectorINS_21XalanListIteratorBaseINS_23XalanListIteratorTraitsINS_8XalanMapIPKNS_13XalanDocumentEPNS_23XalanSourceTreeDocumentENS_17XalanMapKeyTraitsIS6_EEE5EntryEEENS_9XalanListISC_E4NodeEEENS_31MemoryManagedConstructionTraitsISH_EEE10deallocateEPSH_(%"class.xalanc_1_10::XalanVector.51"* %this, %"struct.xalanc_1_10::XalanListIteratorBase.52"* %pointer) #6 comdat align 2 !dbg !5390 {
entry:
  %this.addr = alloca %"class.xalanc_1_10::XalanVector.51"*, align 8
  %pointer.addr = alloca %"struct.xalanc_1_10::XalanListIteratorBase.52"*, align 8
  store %"class.xalanc_1_10::XalanVector.51"* %this, %"class.xalanc_1_10::XalanVector.51"** %this.addr, align 8
  call void @llvm.dbg.declare(metadata %"class.xalanc_1_10::XalanVector.51"** %this.addr, metadata !5391, metadata !DIExpression()), !dbg !5392
  store %"struct.xalanc_1_10::XalanListIteratorBase.52"* %pointer, %"struct.xalanc_1_10::XalanListIteratorBase.52"** %pointer.addr, align 8
  call void @llvm.dbg.declare(metadata %"struct.xalanc_1_10::XalanListIteratorBase.52"** %pointer.addr, metadata !5393, metadata !DIExpression()), !dbg !5394
  %this1 = load %"class.xalanc_1_10::XalanVector.51"*, %"class.xalanc_1_10::XalanVector.51"** %this.addr, align 8
  %m_memoryManager = getelementptr inbounds %"class.xalanc_1_10::XalanVector.51", %"class.xalanc_1_10::XalanVector.51"* %this1, i32 0, i32 0, !dbg !5395
  %0 = load %"class.xercesc_2_7::MemoryManager"*, %"class.xercesc_2_7::MemoryManager"** %m_memoryManager, align 8, !dbg !5395
  %1 = load %"struct.xalanc_1_10::XalanListIteratorBase.52"*, %"struct.xalanc_1_10::XalanListIteratorBase.52"** %pointer.addr, align 8, !dbg !5396
  %2 = bitcast %"struct.xalanc_1_10::XalanListIteratorBase.52"* %1 to i8*, !dbg !5396
  %3 = bitcast %"class.xercesc_2_7::MemoryManager"* %0 to void (%"class.xercesc_2_7::MemoryManager"*, i8*)***, !dbg !5397
  %vtable = load void (%"class.xercesc_2_7::MemoryManager"*, i8*)**, void (%"class.xercesc_2_7::MemoryManager"*, i8*)*** %3, align 8, !dbg !5397
  %vfn = getelementptr inbounds void (%"class.xercesc_2_7::MemoryManager"*, i8*)*, void (%"class.xercesc_2_7::MemoryManager"*, i8*)** %vtable, i64 3, !dbg !5397
  %4 = load void (%"class.xercesc_2_7::MemoryManager"*, i8*)*, void (%"class.xercesc_2_7::MemoryManager"*, i8*)** %vfn, align 8, !dbg !5397
  call void %4(%"class.xercesc_2_7::MemoryManager"* %0, i8* %2), !dbg !5397
  ret void, !dbg !5398
}

; Function Attrs: noinline nounwind uwtable
define linkonce_odr dso_local void @_ZN11xalanc_1_1011XalanVectorINS_21XalanListIteratorBaseINS_23XalanListIteratorTraitsINS_8XalanMapIPKNS_13XalanDocumentEPNS_23XalanSourceTreeDocumentENS_17XalanMapKeyTraitsIS6_EEE5EntryEEENS_9XalanListISC_E4NodeEEENS_31MemoryManagedConstructionTraitsISH_EEE7destroyERSH_(%"struct.xalanc_1_10::XalanListIteratorBase.52"* dereferenceable(8) %theValue) #1 comdat align 2 !dbg !5399 {
entry:
  %theValue.addr = alloca %"struct.xalanc_1_10::XalanListIteratorBase.52"*, align 8
  store %"struct.xalanc_1_10::XalanListIteratorBase.52"* %theValue, %"struct.xalanc_1_10::XalanListIteratorBase.52"** %theValue.addr, align 8
  call void @llvm.dbg.declare(metadata %"struct.xalanc_1_10::XalanListIteratorBase.52"** %theValue.addr, metadata !5400, metadata !DIExpression()), !dbg !5401
  %0 = load %"struct.xalanc_1_10::XalanListIteratorBase.52"*, %"struct.xalanc_1_10::XalanListIteratorBase.52"** %theValue.addr, align 8, !dbg !5402
  ret void, !dbg !5403
}

; Function Attrs: noinline nounwind uwtable
define linkonce_odr dso_local %"struct.xalanc_1_10::XalanListIteratorBase.52"* @_ZN11xalanc_1_1011XalanVectorINS_21XalanListIteratorBaseINS_23XalanListIteratorTraitsINS_8XalanMapIPKNS_13XalanDocumentEPNS_23XalanSourceTreeDocumentENS_17XalanMapKeyTraitsIS6_EEE5EntryEEENS_9XalanListISC_E4NodeEEENS_31MemoryManagedConstructionTraitsISH_EEE10endPointerEv(%"class.xalanc_1_10::XalanVector.51"* %this) #1 comdat align 2 !dbg !5404 {
entry:
  %this.addr = alloca %"class.xalanc_1_10::XalanVector.51"*, align 8
  store %"class.xalanc_1_10::XalanVector.51"* %this, %"class.xalanc_1_10::XalanVector.51"** %this.addr, align 8
  call void @llvm.dbg.declare(metadata %"class.xalanc_1_10::XalanVector.51"** %this.addr, metadata !5405, metadata !DIExpression()), !dbg !5406
  %this1 = load %"class.xalanc_1_10::XalanVector.51"*, %"class.xalanc_1_10::XalanVector.51"** %this.addr, align 8
  %m_data = getelementptr inbounds %"class.xalanc_1_10::XalanVector.51", %"class.xalanc_1_10::XalanVector.51"* %this1, i32 0, i32 3, !dbg !5407
  %0 = load %"struct.xalanc_1_10::XalanListIteratorBase.52"*, %"struct.xalanc_1_10::XalanListIteratorBase.52"** %m_data, align 8, !dbg !5407
  %m_size = getelementptr inbounds %"class.xalanc_1_10::XalanVector.51", %"class.xalanc_1_10::XalanVector.51"* %this1, i32 0, i32 1, !dbg !5408
  %1 = load i64, i64* %m_size, align 8, !dbg !5408
  %add.ptr = getelementptr inbounds %"struct.xalanc_1_10::XalanListIteratorBase.52", %"struct.xalanc_1_10::XalanListIteratorBase.52"* %0, i64 %1, !dbg !5409
  ret %"struct.xalanc_1_10::XalanListIteratorBase.52"* %add.ptr, !dbg !5410
}

; Function Attrs: noinline nounwind uwtable
define linkonce_odr dso_local %"class.xalanc_1_10::XalanVector.51"* @_ZN11xalanc_1_1011XalanVectorINS0_INS_21XalanListIteratorBaseINS_23XalanListIteratorTraitsINS_8XalanMapIPKNS_13XalanDocumentEPNS_23XalanSourceTreeDocumentENS_17XalanMapKeyTraitsIS6_EEE5EntryEEENS_9XalanListISC_E4NodeEEENS_31MemoryManagedConstructionTraitsISH_EEEENS_32ConstructWithMemoryManagerTraitsISK_EEE10endPointerEv(%"class.xalanc_1_10::XalanVector.50"* %this) #1 comdat align 2 !dbg !5411 {
entry:
  %this.addr = alloca %"class.xalanc_1_10::XalanVector.50"*, align 8
  store %"class.xalanc_1_10::XalanVector.50"* %this, %"class.xalanc_1_10::XalanVector.50"** %this.addr, align 8
  call void @llvm.dbg.declare(metadata %"class.xalanc_1_10::XalanVector.50"** %this.addr, metadata !5412, metadata !DIExpression()), !dbg !5413
  %this1 = load %"class.xalanc_1_10::XalanVector.50"*, %"class.xalanc_1_10::XalanVector.50"** %this.addr, align 8
  %m_data = getelementptr inbounds %"class.xalanc_1_10::XalanVector.50", %"class.xalanc_1_10::XalanVector.50"* %this1, i32 0, i32 3, !dbg !5414
  %0 = load %"class.xalanc_1_10::XalanVector.51"*, %"class.xalanc_1_10::XalanVector.51"** %m_data, align 8, !dbg !5414
  %m_size = getelementptr inbounds %"class.xalanc_1_10::XalanVector.50", %"class.xalanc_1_10::XalanVector.50"* %this1, i32 0, i32 1, !dbg !5415
  %1 = load i64, i64* %m_size, align 8, !dbg !5415
  %add.ptr = getelementptr inbounds %"class.xalanc_1_10::XalanVector.51", %"class.xalanc_1_10::XalanVector.51"* %0, i64 %1, !dbg !5416
  ret %"class.xalanc_1_10::XalanVector.51"* %add.ptr, !dbg !5417
}

; Function Attrs: noinline uwtable
define linkonce_odr dso_local void @_ZN11xalanc_1_1016XalanMapIteratorINS_22XalanMapIteratorTraitsISt4pairIKPKNS_13XalanDocumentEPNS_23XalanSourceTreeDocumentEEEENS_21XalanListIteratorBaseINS_23XalanListIteratorTraitsINS_8XalanMapIS5_S8_NS_17XalanMapKeyTraitsIS5_EEE5EntryEEENS_9XalanListISH_E4NodeEEEEC2ERKSM_(%"struct.xalanc_1_10::XalanMapIterator"* %this, %"struct.xalanc_1_10::XalanListIteratorBase.52"* dereferenceable(8) %theRhs) unnamed_addr #6 comdat align 2 !dbg !5418 {
entry:
  %this.addr = alloca %"struct.xalanc_1_10::XalanMapIterator"*, align 8
  %theRhs.addr = alloca %"struct.xalanc_1_10::XalanListIteratorBase.52"*, align 8
  store %"struct.xalanc_1_10::XalanMapIterator"* %this, %"struct.xalanc_1_10::XalanMapIterator"** %this.addr, align 8
  call void @llvm.dbg.declare(metadata %"struct.xalanc_1_10::XalanMapIterator"** %this.addr, metadata !5419, metadata !DIExpression()), !dbg !5420
  store %"struct.xalanc_1_10::XalanListIteratorBase.52"* %theRhs, %"struct.xalanc_1_10::XalanListIteratorBase.52"** %theRhs.addr, align 8
  call void @llvm.dbg.declare(metadata %"struct.xalanc_1_10::XalanListIteratorBase.52"** %theRhs.addr, metadata !5421, metadata !DIExpression()), !dbg !5422
  %this1 = load %"struct.xalanc_1_10::XalanMapIterator"*, %"struct.xalanc_1_10::XalanMapIterator"** %this.addr, align 8
  %baseIterator = getelementptr inbounds %"struct.xalanc_1_10::XalanMapIterator", %"struct.xalanc_1_10::XalanMapIterator"* %this1, i32 0, i32 0, !dbg !5423
  %0 = load %"struct.xalanc_1_10::XalanListIteratorBase.52"*, %"struct.xalanc_1_10::XalanListIteratorBase.52"** %theRhs.addr, align 8, !dbg !5424
  call void @_ZN11xalanc_1_1021XalanListIteratorBaseINS_23XalanListIteratorTraitsINS_8XalanMapIPKNS_13XalanDocumentEPNS_23XalanSourceTreeDocumentENS_17XalanMapKeyTraitsIS5_EEE5EntryEEENS_9XalanListISB_E4NodeEEC2ERKSG_(%"struct.xalanc_1_10::XalanListIteratorBase.52"* %baseIterator, %"struct.xalanc_1_10::XalanListIteratorBase.52"* dereferenceable(8) %0), !dbg !5423
  ret void, !dbg !5425
}

; Function Attrs: noinline nounwind uwtable
define linkonce_odr dso_local zeroext i1 @_ZNK11xalanc_1_1016XalanMapIteratorINS_22XalanMapIteratorTraitsISt4pairIKPKNS_13XalanDocumentEPNS_23XalanSourceTreeDocumentEEEENS_21XalanListIteratorBaseINS_23XalanListIteratorTraitsINS_8XalanMapIS5_S8_NS_17XalanMapKeyTraitsIS5_EEE5EntryEEENS_9XalanListISH_E4NodeEEEEeqERKSN_(%"struct.xalanc_1_10::XalanMapIterator"* %this, %"struct.xalanc_1_10::XalanMapIterator"* dereferenceable(8) %theRhs) #1 comdat align 2 !dbg !5426 {
entry:
  %this.addr = alloca %"struct.xalanc_1_10::XalanMapIterator"*, align 8
  %theRhs.addr = alloca %"struct.xalanc_1_10::XalanMapIterator"*, align 8
  store %"struct.xalanc_1_10::XalanMapIterator"* %this, %"struct.xalanc_1_10::XalanMapIterator"** %this.addr, align 8
  call void @llvm.dbg.declare(metadata %"struct.xalanc_1_10::XalanMapIterator"** %this.addr, metadata !5427, metadata !DIExpression()), !dbg !5428
  store %"struct.xalanc_1_10::XalanMapIterator"* %theRhs, %"struct.xalanc_1_10::XalanMapIterator"** %theRhs.addr, align 8
  call void @llvm.dbg.declare(metadata %"struct.xalanc_1_10::XalanMapIterator"** %theRhs.addr, metadata !5429, metadata !DIExpression()), !dbg !5430
  %this1 = load %"struct.xalanc_1_10::XalanMapIterator"*, %"struct.xalanc_1_10::XalanMapIterator"** %this.addr, align 8
  %0 = load %"struct.xalanc_1_10::XalanMapIterator"*, %"struct.xalanc_1_10::XalanMapIterator"** %theRhs.addr, align 8, !dbg !5431
  %baseIterator = getelementptr inbounds %"struct.xalanc_1_10::XalanMapIterator", %"struct.xalanc_1_10::XalanMapIterator"* %0, i32 0, i32 0, !dbg !5432
  %baseIterator2 = getelementptr inbounds %"struct.xalanc_1_10::XalanMapIterator", %"struct.xalanc_1_10::XalanMapIterator"* %this1, i32 0, i32 0, !dbg !5433
  %call = call zeroext i1 @_ZNK11xalanc_1_1021XalanListIteratorBaseINS_23XalanListIteratorTraitsINS_8XalanMapIPKNS_13XalanDocumentEPNS_23XalanSourceTreeDocumentENS_17XalanMapKeyTraitsIS5_EEE5EntryEEENS_9XalanListISB_E4NodeEEeqERKSG_(%"struct.xalanc_1_10::XalanListIteratorBase.52"* %baseIterator, %"struct.xalanc_1_10::XalanListIteratorBase.52"* dereferenceable(8) %baseIterator2), !dbg !5434
  ret i1 %call, !dbg !5435
}

; Function Attrs: noinline uwtable
define linkonce_odr dso_local void @_ZN11xalanc_1_1011XalanVectorINS_21XalanListIteratorBaseINS_23XalanListIteratorTraitsINS_8XalanMapIPKNS_13XalanDocumentEPNS_23XalanSourceTreeDocumentENS_17XalanMapKeyTraitsIS6_EEE5EntryEEENS_9XalanListISC_E4NodeEEENS_31MemoryManagedConstructionTraitsISH_EEE5clearEv(%"class.xalanc_1_10::XalanVector.51"* %this) #6 comdat align 2 !dbg !5436 {
entry:
  %this.addr = alloca %"class.xalanc_1_10::XalanVector.51"*, align 8
  store %"class.xalanc_1_10::XalanVector.51"* %this, %"class.xalanc_1_10::XalanVector.51"** %this.addr, align 8
  call void @llvm.dbg.declare(metadata %"class.xalanc_1_10::XalanVector.51"** %this.addr, metadata !5437, metadata !DIExpression()), !dbg !5438
  %this1 = load %"class.xalanc_1_10::XalanVector.51"*, %"class.xalanc_1_10::XalanVector.51"** %this.addr, align 8
  call void @_ZNK11xalanc_1_1011XalanVectorINS_21XalanListIteratorBaseINS_23XalanListIteratorTraitsINS_8XalanMapIPKNS_13XalanDocumentEPNS_23XalanSourceTreeDocumentENS_17XalanMapKeyTraitsIS6_EEE5EntryEEENS_9XalanListISC_E4NodeEEENS_31MemoryManagedConstructionTraitsISH_EEE10invariantsEv(%"class.xalanc_1_10::XalanVector.51"* %this1), !dbg !5439
  %m_size = getelementptr inbounds %"class.xalanc_1_10::XalanVector.51", %"class.xalanc_1_10::XalanVector.51"* %this1, i32 0, i32 1, !dbg !5440
  %0 = load i64, i64* %m_size, align 8, !dbg !5440
  %cmp = icmp ugt i64 %0, 0, !dbg !5442
  br i1 %cmp, label %if.then, label %if.end, !dbg !5443

if.then:                                          ; preds = %entry
  call void @_ZN11xalanc_1_1011XalanVectorINS_21XalanListIteratorBaseINS_23XalanListIteratorTraitsINS_8XalanMapIPKNS_13XalanDocumentEPNS_23XalanSourceTreeDocumentENS_17XalanMapKeyTraitsIS6_EEE5EntryEEENS_9XalanListISC_E4NodeEEENS_31MemoryManagedConstructionTraitsISH_EEE12shrinkToSizeEm(%"class.xalanc_1_10::XalanVector.51"* %this1, i64 0), !dbg !5444
  br label %if.end, !dbg !5446

if.end:                                           ; preds = %if.then, %entry
  call void @_ZNK11xalanc_1_1011XalanVectorINS_21XalanListIteratorBaseINS_23XalanListIteratorTraitsINS_8XalanMapIPKNS_13XalanDocumentEPNS_23XalanSourceTreeDocumentENS_17XalanMapKeyTraitsIS6_EEE5EntryEEENS_9XalanListISC_E4NodeEEENS_31MemoryManagedConstructionTraitsISH_EEE10invariantsEv(%"class.xalanc_1_10::XalanVector.51"* %this1), !dbg !5447
  ret void, !dbg !5448
}

; Function Attrs: noinline uwtable
define linkonce_odr dso_local void @_ZN11xalanc_1_1011XalanVectorINS_21XalanListIteratorBaseINS_23XalanListIteratorTraitsINS_8XalanMapIPKNS_13XalanDocumentEPNS_23XalanSourceTreeDocumentENS_17XalanMapKeyTraitsIS6_EEE5EntryEEENS_9XalanListISC_E4NodeEEENS_31MemoryManagedConstructionTraitsISH_EEE12shrinkToSizeEm(%"class.xalanc_1_10::XalanVector.51"* %this, i64 %theSize) #6 comdat align 2 !dbg !5449 {
entry:
  %this.addr = alloca %"class.xalanc_1_10::XalanVector.51"*, align 8
  %theSize.addr = alloca i64, align 8
  store %"class.xalanc_1_10::XalanVector.51"* %this, %"class.xalanc_1_10::XalanVector.51"** %this.addr, align 8
  call void @llvm.dbg.declare(metadata %"class.xalanc_1_10::XalanVector.51"** %this.addr, metadata !5450, metadata !DIExpression()), !dbg !5451
  store i64 %theSize, i64* %theSize.addr, align 8
  call void @llvm.dbg.declare(metadata i64* %theSize.addr, metadata !5452, metadata !DIExpression()), !dbg !5453
  %this1 = load %"class.xalanc_1_10::XalanVector.51"*, %"class.xalanc_1_10::XalanVector.51"** %this.addr, align 8
  br label %do.body, !dbg !5454

do.body:                                          ; preds = %do.cond, %entry
  call void @_ZN11xalanc_1_1011XalanVectorINS_21XalanListIteratorBaseINS_23XalanListIteratorTraitsINS_8XalanMapIPKNS_13XalanDocumentEPNS_23XalanSourceTreeDocumentENS_17XalanMapKeyTraitsIS6_EEE5EntryEEENS_9XalanListISC_E4NodeEEENS_31MemoryManagedConstructionTraitsISH_EEE8pop_backEv(%"class.xalanc_1_10::XalanVector.51"* %this1), !dbg !5455
  br label %do.cond, !dbg !5457

do.cond:                                          ; preds = %do.body
  %m_size = getelementptr inbounds %"class.xalanc_1_10::XalanVector.51", %"class.xalanc_1_10::XalanVector.51"* %this1, i32 0, i32 1, !dbg !5458
  %0 = load i64, i64* %m_size, align 8, !dbg !5458
  %1 = load i64, i64* %theSize.addr, align 8, !dbg !5459
  %cmp = icmp ugt i64 %0, %1, !dbg !5460
  br i1 %cmp, label %do.body, label %do.end, !dbg !5457, !llvm.loop !5461

do.end:                                           ; preds = %do.cond
  ret void, !dbg !5463
}

; Function Attrs: noinline nounwind uwtable
define linkonce_odr dso_local void @_ZN11xalanc_1_1011XalanVectorINS_21XalanListIteratorBaseINS_23XalanListIteratorTraitsINS_8XalanMapIPKNS_13XalanDocumentEPNS_23XalanSourceTreeDocumentENS_17XalanMapKeyTraitsIS6_EEE5EntryEEENS_9XalanListISC_E4NodeEEENS_31MemoryManagedConstructionTraitsISH_EEE8pop_backEv(%"class.xalanc_1_10::XalanVector.51"* %this) #1 comdat align 2 !dbg !5464 {
entry:
  %this.addr = alloca %"class.xalanc_1_10::XalanVector.51"*, align 8
  store %"class.xalanc_1_10::XalanVector.51"* %this, %"class.xalanc_1_10::XalanVector.51"** %this.addr, align 8
  call void @llvm.dbg.declare(metadata %"class.xalanc_1_10::XalanVector.51"** %this.addr, metadata !5465, metadata !DIExpression()), !dbg !5466
  %this1 = load %"class.xalanc_1_10::XalanVector.51"*, %"class.xalanc_1_10::XalanVector.51"** %this.addr, align 8
  call void @_ZNK11xalanc_1_1011XalanVectorINS_21XalanListIteratorBaseINS_23XalanListIteratorTraitsINS_8XalanMapIPKNS_13XalanDocumentEPNS_23XalanSourceTreeDocumentENS_17XalanMapKeyTraitsIS6_EEE5EntryEEENS_9XalanListISC_E4NodeEEENS_31MemoryManagedConstructionTraitsISH_EEE10invariantsEv(%"class.xalanc_1_10::XalanVector.51"* %this1), !dbg !5467
  %m_size = getelementptr inbounds %"class.xalanc_1_10::XalanVector.51", %"class.xalanc_1_10::XalanVector.51"* %this1, i32 0, i32 1, !dbg !5468
  %0 = load i64, i64* %m_size, align 8, !dbg !5469
  %dec = add i64 %0, -1, !dbg !5469
  store i64 %dec, i64* %m_size, align 8, !dbg !5469
  %m_data = getelementptr inbounds %"class.xalanc_1_10::XalanVector.51", %"class.xalanc_1_10::XalanVector.51"* %this1, i32 0, i32 3, !dbg !5470
  %1 = load %"struct.xalanc_1_10::XalanListIteratorBase.52"*, %"struct.xalanc_1_10::XalanListIteratorBase.52"** %m_data, align 8, !dbg !5470
  %m_size2 = getelementptr inbounds %"class.xalanc_1_10::XalanVector.51", %"class.xalanc_1_10::XalanVector.51"* %this1, i32 0, i32 1, !dbg !5471
  %2 = load i64, i64* %m_size2, align 8, !dbg !5471
  %arrayidx = getelementptr inbounds %"struct.xalanc_1_10::XalanListIteratorBase.52", %"struct.xalanc_1_10::XalanListIteratorBase.52"* %1, i64 %2, !dbg !5470
  call void @_ZN11xalanc_1_1011XalanVectorINS_21XalanListIteratorBaseINS_23XalanListIteratorTraitsINS_8XalanMapIPKNS_13XalanDocumentEPNS_23XalanSourceTreeDocumentENS_17XalanMapKeyTraitsIS6_EEE5EntryEEENS_9XalanListISC_E4NodeEEENS_31MemoryManagedConstructionTraitsISH_EEE7destroyERSH_(%"struct.xalanc_1_10::XalanListIteratorBase.52"* dereferenceable(8) %arrayidx), !dbg !5472
  call void @_ZNK11xalanc_1_1011XalanVectorINS_21XalanListIteratorBaseINS_23XalanListIteratorTraitsINS_8XalanMapIPKNS_13XalanDocumentEPNS_23XalanSourceTreeDocumentENS_17XalanMapKeyTraitsIS6_EEE5EntryEEENS_9XalanListISC_E4NodeEEENS_31MemoryManagedConstructionTraitsISH_EEE10invariantsEv(%"class.xalanc_1_10::XalanVector.51"* %this1), !dbg !5473
  ret void, !dbg !5474
}

; Function Attrs: noinline uwtable
define linkonce_odr dso_local void @_ZN11xalanc_1_108XalanMapIPKNS_13XalanDocumentEPNS_23XalanSourceTreeDocumentENS_17XalanMapKeyTraitsIS3_EEE4findERKS3_(%"struct.xalanc_1_10::XalanMapIterator"* noalias sret %agg.result, %"class.xalanc_1_10::XalanMap.9"* %this, %"class.xalanc_1_10::XalanDocument"** dereferenceable(8) %key) #6 comdat align 2 !dbg !5475 {
entry:
  %result.ptr = alloca i8*, align 8
  %this.addr = alloca %"class.xalanc_1_10::XalanMap.9"*, align 8
  %key.addr = alloca %"class.xalanc_1_10::XalanDocument"**, align 8
  %index = alloca i64, align 8
  %bucket = alloca %"class.xalanc_1_10::XalanVector.51"*, align 8
  %pos = alloca %"struct.xalanc_1_10::XalanListIteratorBase.52"*, align 8
  %0 = bitcast %"struct.xalanc_1_10::XalanMapIterator"* %agg.result to i8*
  store i8* %0, i8** %result.ptr, align 8
  store %"class.xalanc_1_10::XalanMap.9"* %this, %"class.xalanc_1_10::XalanMap.9"** %this.addr, align 8
  call void @llvm.dbg.declare(metadata %"class.xalanc_1_10::XalanMap.9"** %this.addr, metadata !5476, metadata !DIExpression()), !dbg !5477
  store %"class.xalanc_1_10::XalanDocument"** %key, %"class.xalanc_1_10::XalanDocument"*** %key.addr, align 8
  call void @llvm.dbg.declare(metadata %"class.xalanc_1_10::XalanDocument"*** %key.addr, metadata !5478, metadata !DIExpression()), !dbg !5479
  %this1 = load %"class.xalanc_1_10::XalanMap.9"*, %"class.xalanc_1_10::XalanMap.9"** %this.addr, align 8
  %m_size = getelementptr inbounds %"class.xalanc_1_10::XalanMap.9", %"class.xalanc_1_10::XalanMap.9"* %this1, i32 0, i32 5, !dbg !5480
  %1 = load i64, i64* %m_size, align 8, !dbg !5480
  %cmp = icmp ne i64 %1, 0, !dbg !5482
  br i1 %cmp, label %if.then, label %if.end10, !dbg !5483

if.then:                                          ; preds = %entry
  call void @llvm.dbg.declare(metadata i64* %index, metadata !5484, metadata !DIExpression()), !dbg !5486
  %2 = load %"class.xalanc_1_10::XalanDocument"**, %"class.xalanc_1_10::XalanDocument"*** %key.addr, align 8, !dbg !5487
  %call = call i64 @_ZNK11xalanc_1_108XalanMapIPKNS_13XalanDocumentEPNS_23XalanSourceTreeDocumentENS_17XalanMapKeyTraitsIS3_EEE6doHashERKS3_(%"class.xalanc_1_10::XalanMap.9"* %this1, %"class.xalanc_1_10::XalanDocument"** dereferenceable(8) %2), !dbg !5488
  store i64 %call, i64* %index, align 8, !dbg !5486
  call void @llvm.dbg.declare(metadata %"class.xalanc_1_10::XalanVector.51"** %bucket, metadata !5489, metadata !DIExpression()), !dbg !5491
  %m_buckets = getelementptr inbounds %"class.xalanc_1_10::XalanMap.9", %"class.xalanc_1_10::XalanMap.9"* %this1, i32 0, i32 8, !dbg !5492
  %3 = load i64, i64* %index, align 8, !dbg !5493
  %call2 = call dereferenceable(32) %"class.xalanc_1_10::XalanVector.51"* @_ZN11xalanc_1_1011XalanVectorINS0_INS_21XalanListIteratorBaseINS_23XalanListIteratorTraitsINS_8XalanMapIPKNS_13XalanDocumentEPNS_23XalanSourceTreeDocumentENS_17XalanMapKeyTraitsIS6_EEE5EntryEEENS_9XalanListISC_E4NodeEEENS_31MemoryManagedConstructionTraitsISH_EEEENS_32ConstructWithMemoryManagerTraitsISK_EEEixEm(%"class.xalanc_1_10::XalanVector.50"* %m_buckets, i64 %3), !dbg !5492
  store %"class.xalanc_1_10::XalanVector.51"* %call2, %"class.xalanc_1_10::XalanVector.51"** %bucket, align 8, !dbg !5491
  call void @llvm.dbg.declare(metadata %"struct.xalanc_1_10::XalanListIteratorBase.52"** %pos, metadata !5494, metadata !DIExpression()), !dbg !5496
  %4 = load %"class.xalanc_1_10::XalanVector.51"*, %"class.xalanc_1_10::XalanVector.51"** %bucket, align 8, !dbg !5497
  %call3 = call %"struct.xalanc_1_10::XalanListIteratorBase.52"* @_ZN11xalanc_1_1011XalanVectorINS_21XalanListIteratorBaseINS_23XalanListIteratorTraitsINS_8XalanMapIPKNS_13XalanDocumentEPNS_23XalanSourceTreeDocumentENS_17XalanMapKeyTraitsIS6_EEE5EntryEEENS_9XalanListISC_E4NodeEEENS_31MemoryManagedConstructionTraitsISH_EEE5beginEv(%"class.xalanc_1_10::XalanVector.51"* %4), !dbg !5498
  store %"struct.xalanc_1_10::XalanListIteratorBase.52"* %call3, %"struct.xalanc_1_10::XalanListIteratorBase.52"** %pos, align 8, !dbg !5496
  br label %while.cond, !dbg !5499

while.cond:                                       ; preds = %if.end, %if.then
  %5 = load %"struct.xalanc_1_10::XalanListIteratorBase.52"*, %"struct.xalanc_1_10::XalanListIteratorBase.52"** %pos, align 8, !dbg !5500
  %6 = load %"class.xalanc_1_10::XalanVector.51"*, %"class.xalanc_1_10::XalanVector.51"** %bucket, align 8, !dbg !5501
  %call4 = call %"struct.xalanc_1_10::XalanListIteratorBase.52"* @_ZN11xalanc_1_1011XalanVectorINS_21XalanListIteratorBaseINS_23XalanListIteratorTraitsINS_8XalanMapIPKNS_13XalanDocumentEPNS_23XalanSourceTreeDocumentENS_17XalanMapKeyTraitsIS6_EEE5EntryEEENS_9XalanListISC_E4NodeEEENS_31MemoryManagedConstructionTraitsISH_EEE3endEv(%"class.xalanc_1_10::XalanVector.51"* %6), !dbg !5502
  %cmp5 = icmp ne %"struct.xalanc_1_10::XalanListIteratorBase.52"* %5, %call4, !dbg !5503
  br i1 %cmp5, label %while.body, label %while.end, !dbg !5499

while.body:                                       ; preds = %while.cond
  %7 = load %"struct.xalanc_1_10::XalanListIteratorBase.52"*, %"struct.xalanc_1_10::XalanListIteratorBase.52"** %pos, align 8, !dbg !5504
  %call6 = call %"struct.xalanc_1_10::XalanMap<const xalanc_1_10::XalanDocument *, xalanc_1_10::XalanSourceTreeDocument *, xalanc_1_10::XalanMapKeyTraits<const xalanc_1_10::XalanDocument *> >::Entry"* @_ZNK11xalanc_1_1021XalanListIteratorBaseINS_23XalanListIteratorTraitsINS_8XalanMapIPKNS_13XalanDocumentEPNS_23XalanSourceTreeDocumentENS_17XalanMapKeyTraitsIS5_EEE5EntryEEENS_9XalanListISB_E4NodeEEptEv(%"struct.xalanc_1_10::XalanListIteratorBase.52"* %7), !dbg !5507
  %erased = getelementptr inbounds %"struct.xalanc_1_10::XalanMap<const xalanc_1_10::XalanDocument *, xalanc_1_10::XalanSourceTreeDocument *, xalanc_1_10::XalanMapKeyTraits<const xalanc_1_10::XalanDocument *> >::Entry", %"struct.xalanc_1_10::XalanMap<const xalanc_1_10::XalanDocument *, xalanc_1_10::XalanSourceTreeDocument *, xalanc_1_10::XalanMapKeyTraits<const xalanc_1_10::XalanDocument *> >::Entry"* %call6, i32 0, i32 1, !dbg !5508
  %8 = load i8, i8* %erased, align 8, !dbg !5508
  %tobool = trunc i8 %8 to i1, !dbg !5508
  br i1 %tobool, label %if.end, label %land.lhs.true, !dbg !5509

land.lhs.true:                                    ; preds = %while.body
  %m_equals = getelementptr inbounds %"class.xalanc_1_10::XalanMap.9", %"class.xalanc_1_10::XalanMap.9"* %this1, i32 0, i32 1, !dbg !5510
  %9 = load %"class.xalanc_1_10::XalanDocument"**, %"class.xalanc_1_10::XalanDocument"*** %key.addr, align 8, !dbg !5511
  %10 = load %"struct.xalanc_1_10::XalanListIteratorBase.52"*, %"struct.xalanc_1_10::XalanListIteratorBase.52"** %pos, align 8, !dbg !5512
  %call7 = call %"struct.xalanc_1_10::XalanMap<const xalanc_1_10::XalanDocument *, xalanc_1_10::XalanSourceTreeDocument *, xalanc_1_10::XalanMapKeyTraits<const xalanc_1_10::XalanDocument *> >::Entry"* @_ZNK11xalanc_1_1021XalanListIteratorBaseINS_23XalanListIteratorTraitsINS_8XalanMapIPKNS_13XalanDocumentEPNS_23XalanSourceTreeDocumentENS_17XalanMapKeyTraitsIS5_EEE5EntryEEENS_9XalanListISB_E4NodeEEptEv(%"struct.xalanc_1_10::XalanListIteratorBase.52"* %10), !dbg !5513
  %value = getelementptr inbounds %"struct.xalanc_1_10::XalanMap<const xalanc_1_10::XalanDocument *, xalanc_1_10::XalanSourceTreeDocument *, xalanc_1_10::XalanMapKeyTraits<const xalanc_1_10::XalanDocument *> >::Entry", %"struct.xalanc_1_10::XalanMap<const xalanc_1_10::XalanDocument *, xalanc_1_10::XalanSourceTreeDocument *, xalanc_1_10::XalanMapKeyTraits<const xalanc_1_10::XalanDocument *> >::Entry"* %call7, i32 0, i32 0, !dbg !5514
  %11 = load %"struct.std::pair"*, %"struct.std::pair"** %value, align 8, !dbg !5514
  %first = getelementptr inbounds %"struct.std::pair", %"struct.std::pair"* %11, i32 0, i32 0, !dbg !5515
  %call8 = call zeroext i1 @_ZNKSt8equal_toIPKN11xalanc_1_1013XalanDocumentEEclERKS3_S6_(%"struct.std::equal_to"* %m_equals, %"class.xalanc_1_10::XalanDocument"** dereferenceable(8) %9, %"class.xalanc_1_10::XalanDocument"** dereferenceable(8) %first), !dbg !5510
  br i1 %call8, label %if.then9, label %if.end, !dbg !5516

if.then9:                                         ; preds = %land.lhs.true
  %12 = load %"struct.xalanc_1_10::XalanListIteratorBase.52"*, %"struct.xalanc_1_10::XalanListIteratorBase.52"** %pos, align 8, !dbg !5517
  call void @_ZN11xalanc_1_1016XalanMapIteratorINS_22XalanMapIteratorTraitsISt4pairIKPKNS_13XalanDocumentEPNS_23XalanSourceTreeDocumentEEEENS_21XalanListIteratorBaseINS_23XalanListIteratorTraitsINS_8XalanMapIS5_S8_NS_17XalanMapKeyTraitsIS5_EEE5EntryEEENS_9XalanListISH_E4NodeEEEEC2ERKSM_(%"struct.xalanc_1_10::XalanMapIterator"* %agg.result, %"struct.xalanc_1_10::XalanListIteratorBase.52"* dereferenceable(8) %12), !dbg !5519
  br label %return, !dbg !5520

if.end:                                           ; preds = %land.lhs.true, %while.body
  %13 = load %"struct.xalanc_1_10::XalanListIteratorBase.52"*, %"struct.xalanc_1_10::XalanListIteratorBase.52"** %pos, align 8, !dbg !5521
  %incdec.ptr = getelementptr inbounds %"struct.xalanc_1_10::XalanListIteratorBase.52", %"struct.xalanc_1_10::XalanListIteratorBase.52"* %13, i32 1, !dbg !5521
  store %"struct.xalanc_1_10::XalanListIteratorBase.52"* %incdec.ptr, %"struct.xalanc_1_10::XalanListIteratorBase.52"** %pos, align 8, !dbg !5521
  br label %while.cond, !dbg !5499, !llvm.loop !5522

while.end:                                        ; preds = %while.cond
  br label %if.end10, !dbg !5524

if.end10:                                         ; preds = %while.end, %entry
  call void @_ZN11xalanc_1_108XalanMapIPKNS_13XalanDocumentEPNS_23XalanSourceTreeDocumentENS_17XalanMapKeyTraitsIS3_EEE3endEv(%"struct.xalanc_1_10::XalanMapIterator"* sret %agg.result, %"class.xalanc_1_10::XalanMap.9"* %this1), !dbg !5525
  br label %return, !dbg !5526

return:                                           ; preds = %if.end10, %if.then9
  ret void, !dbg !5527
}

; Function Attrs: noinline uwtable
define linkonce_odr dso_local void @_ZN11xalanc_1_108XalanMapIPKNS_13XalanDocumentEPNS_23XalanSourceTreeDocumentENS_17XalanMapKeyTraitsIS3_EEE7doEraseENS_16XalanMapIteratorINS_22XalanMapIteratorTraitsISt4pairIKS3_S5_EEENS_21XalanListIteratorBaseINS_23XalanListIteratorTraitsINS8_5EntryEEENS_9XalanListISH_E4NodeEEEEE(%"class.xalanc_1_10::XalanMap.9"* %this, %"struct.xalanc_1_10::XalanMapIterator"* %pos) #6 comdat align 2 !dbg !5528 {
entry:
  %this.addr = alloca %"class.xalanc_1_10::XalanMap.9"*, align 8
  store %"class.xalanc_1_10::XalanMap.9"* %this, %"class.xalanc_1_10::XalanMap.9"** %this.addr, align 8
  call void @llvm.dbg.declare(metadata %"class.xalanc_1_10::XalanMap.9"** %this.addr, metadata !5529, metadata !DIExpression()), !dbg !5530
  call void @llvm.dbg.declare(metadata %"struct.xalanc_1_10::XalanMapIterator"* %pos, metadata !5531, metadata !DIExpression()), !dbg !5532
  %this1 = load %"class.xalanc_1_10::XalanMap.9"*, %"class.xalanc_1_10::XalanMap.9"** %this.addr, align 8
  call void @_ZN11xalanc_1_108XalanMapIPKNS_13XalanDocumentEPNS_23XalanSourceTreeDocumentENS_17XalanMapKeyTraitsIS3_EEE13doRemoveEntryERKNS_16XalanMapIteratorINS_22XalanMapIteratorTraitsISt4pairIKS3_S5_EEENS_21XalanListIteratorBaseINS_23XalanListIteratorTraitsINS8_5EntryEEENS_9XalanListISH_E4NodeEEEEE(%"class.xalanc_1_10::XalanMap.9"* %this1, %"struct.xalanc_1_10::XalanMapIterator"* dereferenceable(8) %pos), !dbg !5533
  %m_eraseCount = getelementptr inbounds %"class.xalanc_1_10::XalanMap.9", %"class.xalanc_1_10::XalanMap.9"* %this1, i32 0, i32 9, !dbg !5534
  %0 = load i64, i64* %m_eraseCount, align 8, !dbg !5535
  %inc = add i64 %0, 1, !dbg !5535
  store i64 %inc, i64* %m_eraseCount, align 8, !dbg !5535
  %m_eraseCount2 = getelementptr inbounds %"class.xalanc_1_10::XalanMap.9", %"class.xalanc_1_10::XalanMap.9"* %this1, i32 0, i32 9, !dbg !5536
  %1 = load i64, i64* %m_eraseCount2, align 8, !dbg !5536
  %m_eraseThreshold = getelementptr inbounds %"class.xalanc_1_10::XalanMap.9", %"class.xalanc_1_10::XalanMap.9"* %this1, i32 0, i32 10, !dbg !5538
  %2 = load i64, i64* %m_eraseThreshold, align 8, !dbg !5538
  %cmp = icmp eq i64 %1, %2, !dbg !5539
  br i1 %cmp, label %if.then, label %if.end, !dbg !5540

if.then:                                          ; preds = %entry
  call void @_ZN11xalanc_1_108XalanMapIPKNS_13XalanDocumentEPNS_23XalanSourceTreeDocumentENS_17XalanMapKeyTraitsIS3_EEE14compactBucketsEv(%"class.xalanc_1_10::XalanMap.9"* %this1), !dbg !5541
  %m_eraseCount3 = getelementptr inbounds %"class.xalanc_1_10::XalanMap.9", %"class.xalanc_1_10::XalanMap.9"* %this1, i32 0, i32 9, !dbg !5543
  store i64 0, i64* %m_eraseCount3, align 8, !dbg !5544
  br label %if.end, !dbg !5545

if.end:                                           ; preds = %if.then, %entry
  ret void, !dbg !5546
}

; Function Attrs: noinline uwtable
define linkonce_odr dso_local void @_ZN11xalanc_1_1016XalanMapIteratorINS_22XalanMapIteratorTraitsISt4pairIKPKNS_13XalanDocumentEPNS_23XalanSourceTreeDocumentEEEENS_21XalanListIteratorBaseINS_23XalanListIteratorTraitsINS_8XalanMapIS5_S8_NS_17XalanMapKeyTraitsIS5_EEE5EntryEEENS_9XalanListISH_E4NodeEEEEC2ERKSN_(%"struct.xalanc_1_10::XalanMapIterator"* %this, %"struct.xalanc_1_10::XalanMapIterator"* dereferenceable(8) %theRhs) unnamed_addr #6 comdat align 2 !dbg !5547 {
entry:
  %this.addr = alloca %"struct.xalanc_1_10::XalanMapIterator"*, align 8
  %theRhs.addr = alloca %"struct.xalanc_1_10::XalanMapIterator"*, align 8
  store %"struct.xalanc_1_10::XalanMapIterator"* %this, %"struct.xalanc_1_10::XalanMapIterator"** %this.addr, align 8
  call void @llvm.dbg.declare(metadata %"struct.xalanc_1_10::XalanMapIterator"** %this.addr, metadata !5548, metadata !DIExpression()), !dbg !5549
  store %"struct.xalanc_1_10::XalanMapIterator"* %theRhs, %"struct.xalanc_1_10::XalanMapIterator"** %theRhs.addr, align 8
  call void @llvm.dbg.declare(metadata %"struct.xalanc_1_10::XalanMapIterator"** %theRhs.addr, metadata !5550, metadata !DIExpression()), !dbg !5551
  %this1 = load %"struct.xalanc_1_10::XalanMapIterator"*, %"struct.xalanc_1_10::XalanMapIterator"** %this.addr, align 8
  %baseIterator = getelementptr inbounds %"struct.xalanc_1_10::XalanMapIterator", %"struct.xalanc_1_10::XalanMapIterator"* %this1, i32 0, i32 0, !dbg !5552
  %0 = load %"struct.xalanc_1_10::XalanMapIterator"*, %"struct.xalanc_1_10::XalanMapIterator"** %theRhs.addr, align 8, !dbg !5553
  %baseIterator2 = getelementptr inbounds %"struct.xalanc_1_10::XalanMapIterator", %"struct.xalanc_1_10::XalanMapIterator"* %0, i32 0, i32 0, !dbg !5554
  call void @_ZN11xalanc_1_1021XalanListIteratorBaseINS_23XalanListIteratorTraitsINS_8XalanMapIPKNS_13XalanDocumentEPNS_23XalanSourceTreeDocumentENS_17XalanMapKeyTraitsIS5_EEE5EntryEEENS_9XalanListISB_E4NodeEEC2ERKSG_(%"struct.xalanc_1_10::XalanListIteratorBase.52"* %baseIterator, %"struct.xalanc_1_10::XalanListIteratorBase.52"* dereferenceable(8) %baseIterator2), !dbg !5552
  ret void, !dbg !5555
}

; Function Attrs: noinline uwtable
define linkonce_odr dso_local i64 @_ZNK11xalanc_1_108XalanMapIPKNS_13XalanDocumentEPNS_23XalanSourceTreeDocumentENS_17XalanMapKeyTraitsIS3_EEE6doHashERKS3_(%"class.xalanc_1_10::XalanMap.9"* %this, %"class.xalanc_1_10::XalanDocument"** dereferenceable(8) %key) #6 comdat align 2 !dbg !5556 {
entry:
  %this.addr = alloca %"class.xalanc_1_10::XalanMap.9"*, align 8
  %key.addr = alloca %"class.xalanc_1_10::XalanDocument"**, align 8
  store %"class.xalanc_1_10::XalanMap.9"* %this, %"class.xalanc_1_10::XalanMap.9"** %this.addr, align 8
  call void @llvm.dbg.declare(metadata %"class.xalanc_1_10::XalanMap.9"** %this.addr, metadata !5557, metadata !DIExpression()), !dbg !5558
  store %"class.xalanc_1_10::XalanDocument"** %key, %"class.xalanc_1_10::XalanDocument"*** %key.addr, align 8
  call void @llvm.dbg.declare(metadata %"class.xalanc_1_10::XalanDocument"*** %key.addr, metadata !5559, metadata !DIExpression()), !dbg !5560
  %this1 = load %"class.xalanc_1_10::XalanMap.9"*, %"class.xalanc_1_10::XalanMap.9"** %this.addr, align 8
  %0 = load %"class.xalanc_1_10::XalanDocument"**, %"class.xalanc_1_10::XalanDocument"*** %key.addr, align 8, !dbg !5561
  %m_buckets = getelementptr inbounds %"class.xalanc_1_10::XalanMap.9", %"class.xalanc_1_10::XalanMap.9"* %this1, i32 0, i32 8, !dbg !5562
  %call = call i64 @_ZNK11xalanc_1_1011XalanVectorINS0_INS_21XalanListIteratorBaseINS_23XalanListIteratorTraitsINS_8XalanMapIPKNS_13XalanDocumentEPNS_23XalanSourceTreeDocumentENS_17XalanMapKeyTraitsIS6_EEE5EntryEEENS_9XalanListISC_E4NodeEEENS_31MemoryManagedConstructionTraitsISH_EEEENS_32ConstructWithMemoryManagerTraitsISK_EEE4sizeEv(%"class.xalanc_1_10::XalanVector.50"* %m_buckets), !dbg !5563
  %call2 = call i64 @_ZNK11xalanc_1_108XalanMapIPKNS_13XalanDocumentEPNS_23XalanSourceTreeDocumentENS_17XalanMapKeyTraitsIS3_EEE6doHashERKS3_m(%"class.xalanc_1_10::XalanMap.9"* %this1, %"class.xalanc_1_10::XalanDocument"** dereferenceable(8) %0, i64 %call), !dbg !5564
  ret i64 %call2, !dbg !5565
}

; Function Attrs: noinline nounwind uwtable
define linkonce_odr dso_local dereferenceable(32) %"class.xalanc_1_10::XalanVector.51"* @_ZN11xalanc_1_1011XalanVectorINS0_INS_21XalanListIteratorBaseINS_23XalanListIteratorTraitsINS_8XalanMapIPKNS_13XalanDocumentEPNS_23XalanSourceTreeDocumentENS_17XalanMapKeyTraitsIS6_EEE5EntryEEENS_9XalanListISC_E4NodeEEENS_31MemoryManagedConstructionTraitsISH_EEEENS_32ConstructWithMemoryManagerTraitsISK_EEEixEm(%"class.xalanc_1_10::XalanVector.50"* %this, i64 %theIndex) #1 comdat align 2 !dbg !5566 {
entry:
  %this.addr = alloca %"class.xalanc_1_10::XalanVector.50"*, align 8
  %theIndex.addr = alloca i64, align 8
  store %"class.xalanc_1_10::XalanVector.50"* %this, %"class.xalanc_1_10::XalanVector.50"** %this.addr, align 8
  call void @llvm.dbg.declare(metadata %"class.xalanc_1_10::XalanVector.50"** %this.addr, metadata !5567, metadata !DIExpression()), !dbg !5568
  store i64 %theIndex, i64* %theIndex.addr, align 8
  call void @llvm.dbg.declare(metadata i64* %theIndex.addr, metadata !5569, metadata !DIExpression()), !dbg !5570
  %this1 = load %"class.xalanc_1_10::XalanVector.50"*, %"class.xalanc_1_10::XalanVector.50"** %this.addr, align 8
  %m_data = getelementptr inbounds %"class.xalanc_1_10::XalanVector.50", %"class.xalanc_1_10::XalanVector.50"* %this1, i32 0, i32 3, !dbg !5571
  %0 = load %"class.xalanc_1_10::XalanVector.51"*, %"class.xalanc_1_10::XalanVector.51"** %m_data, align 8, !dbg !5571
  %1 = load i64, i64* %theIndex.addr, align 8, !dbg !5572
  %arrayidx = getelementptr inbounds %"class.xalanc_1_10::XalanVector.51", %"class.xalanc_1_10::XalanVector.51"* %0, i64 %1, !dbg !5571
  ret %"class.xalanc_1_10::XalanVector.51"* %arrayidx, !dbg !5573
}

; Function Attrs: noinline nounwind uwtable
define linkonce_odr dso_local zeroext i1 @_ZNKSt8equal_toIPKN11xalanc_1_1013XalanDocumentEEclERKS3_S6_(%"struct.std::equal_to"* %this, %"class.xalanc_1_10::XalanDocument"** dereferenceable(8) %__x, %"class.xalanc_1_10::XalanDocument"** dereferenceable(8) %__y) #1 comdat align 2 !dbg !5574 {
entry:
  %this.addr = alloca %"struct.std::equal_to"*, align 8
  %__x.addr = alloca %"class.xalanc_1_10::XalanDocument"**, align 8
  %__y.addr = alloca %"class.xalanc_1_10::XalanDocument"**, align 8
  store %"struct.std::equal_to"* %this, %"struct.std::equal_to"** %this.addr, align 8
  call void @llvm.dbg.declare(metadata %"struct.std::equal_to"** %this.addr, metadata !5575, metadata !DIExpression()), !dbg !5577
  store %"class.xalanc_1_10::XalanDocument"** %__x, %"class.xalanc_1_10::XalanDocument"*** %__x.addr, align 8
  call void @llvm.dbg.declare(metadata %"class.xalanc_1_10::XalanDocument"*** %__x.addr, metadata !5578, metadata !DIExpression()), !dbg !5579
  store %"class.xalanc_1_10::XalanDocument"** %__y, %"class.xalanc_1_10::XalanDocument"*** %__y.addr, align 8
  call void @llvm.dbg.declare(metadata %"class.xalanc_1_10::XalanDocument"*** %__y.addr, metadata !5580, metadata !DIExpression()), !dbg !5581
  %this1 = load %"struct.std::equal_to"*, %"struct.std::equal_to"** %this.addr, align 8
  %0 = load %"class.xalanc_1_10::XalanDocument"**, %"class.xalanc_1_10::XalanDocument"*** %__x.addr, align 8, !dbg !5582
  %1 = load %"class.xalanc_1_10::XalanDocument"*, %"class.xalanc_1_10::XalanDocument"** %0, align 8, !dbg !5582
  %2 = load %"class.xalanc_1_10::XalanDocument"**, %"class.xalanc_1_10::XalanDocument"*** %__y.addr, align 8, !dbg !5583
  %3 = load %"class.xalanc_1_10::XalanDocument"*, %"class.xalanc_1_10::XalanDocument"** %2, align 8, !dbg !5583
  %cmp = icmp eq %"class.xalanc_1_10::XalanDocument"* %1, %3, !dbg !5584
  ret i1 %cmp, !dbg !5585
}

; Function Attrs: noinline uwtable
define linkonce_odr dso_local i64 @_ZNK11xalanc_1_108XalanMapIPKNS_13XalanDocumentEPNS_23XalanSourceTreeDocumentENS_17XalanMapKeyTraitsIS3_EEE6doHashERKS3_m(%"class.xalanc_1_10::XalanMap.9"* %this, %"class.xalanc_1_10::XalanDocument"** dereferenceable(8) %key, i64 %modulus) #6 comdat align 2 !dbg !5586 {
entry:
  %this.addr = alloca %"class.xalanc_1_10::XalanMap.9"*, align 8
  %key.addr = alloca %"class.xalanc_1_10::XalanDocument"**, align 8
  %modulus.addr = alloca i64, align 8
