; ModuleID = 'XMLURL.cpp'
source_filename = "XMLURL.cpp"
target datalayout = "e-m:e-p270:32:32-p271:32:32-p272:64:64-i64:64-f80:128-n8:16:32:64-S128"
target triple = "x86_64-unknown-linux-gnu"

%"struct.xercesc_2_7::ProtoEntry" = type { i32, i16*, i32 }
%"class.xercesc_2_7::XMLNetAccessor" = type { i32 (...)** }
%"class.xercesc_2_7::XMLURL" = type <{ i32 (...)**, %"class.xercesc_2_7::MemoryManager"*, i16*, i16*, i16*, i16*, i32, i32, i16*, i16*, i16*, i8, [7 x i8] }>
%"class.xercesc_2_7::MemoryManager" = type { i32 (...)** }
%"class.xercesc_2_7::XMLDeleter" = type { i32 (...)** }
%"class.xercesc_2_7::XMemory" = type { i8 }
%"class.xercesc_2_7::JanitorMemFunCall" = type { %"class.xercesc_2_7::XMLURL"*, { i64, i64 } }
%"class.xercesc_2_7::OutOfMemoryException" = type { i8 }
%"class.xercesc_2_7::MalformedURLException" = type { %"class.xercesc_2_7::XMLException" }
%"class.xercesc_2_7::XMLException" = type { i32 (...)**, i32, i8*, i32, i16*, %"class.xercesc_2_7::MemoryManager"* }
%"class.xercesc_2_7::ArrayJanitor" = type { i16*, %"class.xercesc_2_7::MemoryManager"* }
%"class.xercesc_2_7::BinInputStream" = type { i32 (...)** }
%"class.xercesc_2_7::BinFileInputStream" = type { %"class.xercesc_2_7::BinInputStream", i8*, %"class.xercesc_2_7::MemoryManager"* }
%"class.xercesc_2_7::XMLNetHTTPInfo" = type <{ i32, [4 x i8], i8*, i32, [4 x i8], i8*, i32, [4 x i8] }>

$_ZN11xercesc_2_710XMLDeleterD0Ev = comdat any

$_ZN11xercesc_2_710XMLDeleterD2Ev = comdat any

$_ZN11xercesc_2_77XMemoryC2Ev = comdat any

$_ZN11xercesc_2_717JanitorMemFunCallINS_6XMLURLEEC2EPS1_MS1_FvvE = comdat any

$_ZN11xercesc_2_717JanitorMemFunCallINS_6XMLURLEE7releaseEv = comdat any

$__clang_call_terminate = comdat any

$_ZN11xercesc_2_717JanitorMemFunCallINS_6XMLURLEED2Ev = comdat any

$_ZN11xercesc_2_712ArrayJanitorItEC2EPtPNS_13MemoryManagerE = comdat any

$_ZN11xercesc_2_712ArrayJanitorItED2Ev = comdat any

$_ZN11xercesc_2_79XMLString9replicateEPKtPNS_13MemoryManagerE = comdat any

$_ZN11xercesc_2_79XMLString6equalsEPKtS2_ = comdat any

$_ZNK11xercesc_2_76XMLURL10getURLTextEv = comdat any

$_ZN11xercesc_2_721MalformedURLExceptionC2EPKcjNS_10XMLExcepts5CodesEPNS_13MemoryManagerE = comdat any

$_ZN11xercesc_2_721MalformedURLExceptionD2Ev = comdat any

$_ZN11xercesc_2_79XMLString9stringLenEPKt = comdat any

$_ZN11xercesc_2_79XMLString9moveCharsEPtPKtj = comdat any

$_ZN11xercesc_2_721MalformedURLExceptionC2EPKcjNS_10XMLExcepts5CodesEPKtS6_S6_S6_PNS_13MemoryManagerE = comdat any

$_ZNK11xercesc_2_718BinFileInputStream9getIsOpenEv = comdat any

$_ZN11xercesc_2_710XMLChar1_012isWhitespaceEt = comdat any

$_ZN11xercesc_2_721MalformedURLExceptionD0Ev = comdat any

$_ZNK11xercesc_2_721MalformedURLException7getTypeEv = comdat any

$_ZNK11xercesc_2_721MalformedURLException9duplicateEv = comdat any

$_ZN11xercesc_2_721MalformedURLExceptionC2ERKS0_ = comdat any

$_ZN11xercesc_2_712ArrayJanitorItE5resetEPt = comdat any

$_ZTSN11xercesc_2_720OutOfMemoryExceptionE = comdat any

$_ZTSN11xercesc_2_77XMemoryE = comdat any

$_ZTIN11xercesc_2_77XMemoryE = comdat any

$_ZTIN11xercesc_2_720OutOfMemoryExceptionE = comdat any

$_ZTSN11xercesc_2_721MalformedURLExceptionE = comdat any

$_ZTIN11xercesc_2_721MalformedURLExceptionE = comdat any

$_ZTVN11xercesc_2_710XMLDeleterE = comdat any

$_ZTSN11xercesc_2_710XMLDeleterE = comdat any

$_ZTIN11xercesc_2_710XMLDeleterE = comdat any

$_ZTVN11xercesc_2_721MalformedURLExceptionE = comdat any

@_ZN11xercesc_2_7L10gProtoListE = internal global [3 x %"struct.xercesc_2_7::ProtoEntry"] [%"struct.xercesc_2_7::ProtoEntry" { i32 0, i16* getelementptr inbounds ([5 x i16], [5 x i16]* @_ZN11xercesc_2_7L11gFileStringE, i32 0, i32 0), i32 0 }, %"struct.xercesc_2_7::ProtoEntry" { i32 1, i16* getelementptr inbounds ([5 x i16], [5 x i16]* @_ZN11xercesc_2_7L11gHTTPStringE, i32 0, i32 0), i32 80 }, %"struct.xercesc_2_7::ProtoEntry" { i32 2, i16* getelementptr inbounds ([4 x i16], [4 x i16]* @_ZN11xercesc_2_7L10gFTPStringE, i32 0, i32 0), i32 21 }], align 16, !dbg !0
@_ZTVN11xercesc_2_76XMLURLE = dso_local unnamed_addr constant { [4 x i8*] } { [4 x i8*] [i8* null, i8* bitcast ({ i8*, i8*, i8* }* @_ZTIN11xercesc_2_76XMLURLE to i8*), i8* bitcast (void (%"class.xercesc_2_7::XMLURL"*)* @_ZN11xercesc_2_76XMLURLD1Ev to i8*), i8* bitcast (void (%"class.xercesc_2_7::XMLURL"*)* @_ZN11xercesc_2_76XMLURLD0Ev to i8*)] }, align 8
@_ZTVN10__cxxabiv120__si_class_type_infoE = external dso_local global i8*
@_ZTSN11xercesc_2_720OutOfMemoryExceptionE = linkonce_odr dso_local constant [38 x i8] c"N11xercesc_2_720OutOfMemoryExceptionE\00", comdat, align 1
@_ZTVN10__cxxabiv117__class_type_infoE = external dso_local global i8*
@_ZTSN11xercesc_2_77XMemoryE = linkonce_odr dso_local constant [24 x i8] c"N11xercesc_2_77XMemoryE\00", comdat, align 1
@_ZTIN11xercesc_2_77XMemoryE = linkonce_odr dso_local constant { i8*, i8* } { i8* bitcast (i8** getelementptr inbounds (i8*, i8** @_ZTVN10__cxxabiv117__class_type_infoE, i64 2) to i8*), i8* getelementptr inbounds ([24 x i8], [24 x i8]* @_ZTSN11xercesc_2_77XMemoryE, i32 0, i32 0) }, comdat, align 8
@_ZTIN11xercesc_2_720OutOfMemoryExceptionE = linkonce_odr dso_local constant { i8*, i8*, i8* } { i8* bitcast (i8** getelementptr inbounds (i8*, i8** @_ZTVN10__cxxabiv120__si_class_type_infoE, i64 2) to i8*), i8* getelementptr inbounds ([38 x i8], [38 x i8]* @_ZTSN11xercesc_2_720OutOfMemoryExceptionE, i32 0, i32 0), i8* bitcast ({ i8*, i8* }* @_ZTIN11xercesc_2_77XMemoryE to i8*) }, comdat, align 8
@.str = private unnamed_addr constant [11 x i8] c"XMLURL.cpp\00", align 1
@_ZTSN11xercesc_2_721MalformedURLExceptionE = linkonce_odr dso_local constant [39 x i8] c"N11xercesc_2_721MalformedURLExceptionE\00", comdat, align 1
@_ZTIN11xercesc_2_712XMLExceptionE = external dso_local constant i8*
@_ZTIN11xercesc_2_721MalformedURLExceptionE = linkonce_odr dso_local constant { i8*, i8*, i8* } { i8* bitcast (i8** getelementptr inbounds (i8*, i8** @_ZTVN10__cxxabiv120__si_class_type_infoE, i64 2) to i8*), i8* getelementptr inbounds ([39 x i8], [39 x i8]* @_ZTSN11xercesc_2_721MalformedURLExceptionE, i32 0, i32 0), i8* bitcast (i8** @_ZTIN11xercesc_2_712XMLExceptionE to i8*) }, comdat, align 8
@_ZN11xercesc_2_76XMLUni17fgLocalHostStringE = external dso_local constant [0 x i16], align 2
@_ZN11xercesc_2_716XMLPlatformUtils13fgNetAccessorE = external dso_local global %"class.xercesc_2_7::XMLNetAccessor"*, align 8
@_ZN11xercesc_2_7L8gListOneE = internal constant [3 x i16] [i16 58, i16 47, i16 0], align 2, !dbg !178
@_ZN11xercesc_2_7L9gListFourE = internal constant [2 x i16] [i16 47, i16 0], align 2, !dbg !181
@_ZN11xercesc_2_7L8gListTwoE = internal constant [2 x i16] [i16 64, i16 0], align 2, !dbg !186
@_ZN11xercesc_2_7L10gListThreeE = internal constant [2 x i16] [i16 58, i16 0], align 2, !dbg !188
@_ZN11xercesc_2_7L9gListFiveE = internal constant [3 x i16] [i16 35, i16 63, i16 0], align 2, !dbg !190
@_ZN11xercesc_2_7L8gListSixE = internal constant [2 x i16] [i16 35, i16 0], align 2, !dbg !192
@_ZTVN11xercesc_2_710XMLDeleterE = linkonce_odr dso_local unnamed_addr constant { [4 x i8*] } { [4 x i8*] [i8* null, i8* bitcast ({ i8*, i8* }* @_ZTIN11xercesc_2_710XMLDeleterE to i8*), i8* bitcast (void (%"class.xercesc_2_7::XMLDeleter"*)* @_ZN11xercesc_2_710XMLDeleterD2Ev to i8*), i8* bitcast (void (%"class.xercesc_2_7::XMLDeleter"*)* @_ZN11xercesc_2_710XMLDeleterD0Ev to i8*)] }, comdat, align 8
@_ZTSN11xercesc_2_710XMLDeleterE = linkonce_odr dso_local constant [28 x i8] c"N11xercesc_2_710XMLDeleterE\00", comdat, align 1
@_ZTIN11xercesc_2_710XMLDeleterE = linkonce_odr dso_local constant { i8*, i8* } { i8* bitcast (i8** getelementptr inbounds (i8*, i8** @_ZTVN10__cxxabiv117__class_type_infoE, i64 2) to i8*), i8* getelementptr inbounds ([28 x i8], [28 x i8]* @_ZTSN11xercesc_2_710XMLDeleterE, i32 0, i32 0) }, comdat, align 8
@_ZTSN11xercesc_2_76XMLURLE = dso_local constant [23 x i8] c"N11xercesc_2_76XMLURLE\00", align 1
@_ZTIN11xercesc_2_76XMLURLE = dso_local constant { i8*, i8*, i8* } { i8* bitcast (i8** getelementptr inbounds (i8*, i8** @_ZTVN10__cxxabiv120__si_class_type_infoE, i64 2) to i8*), i8* getelementptr inbounds ([23 x i8], [23 x i8]* @_ZTSN11xercesc_2_76XMLURLE, i32 0, i32 0), i8* bitcast ({ i8*, i8* }* @_ZTIN11xercesc_2_77XMemoryE to i8*) }, align 8
@_ZN11xercesc_2_7L11gFileStringE = internal constant [5 x i16] [i16 102, i16 105, i16 108, i16 101, i16 0], align 2, !dbg !194
@_ZN11xercesc_2_7L11gHTTPStringE = internal constant [5 x i16] [i16 104, i16 116, i16 116, i16 112, i16 0], align 2, !dbg !199
@_ZN11xercesc_2_7L10gFTPStringE = internal constant [4 x i16] [i16 102, i16 116, i16 112, i16 0], align 2, !dbg !201
@_ZTVN11xercesc_2_721MalformedURLExceptionE = linkonce_odr dso_local unnamed_addr constant { [6 x i8*] } { [6 x i8*] [i8* null, i8* bitcast ({ i8*, i8*, i8* }* @_ZTIN11xercesc_2_721MalformedURLExceptionE to i8*), i8* bitcast (void (%"class.xercesc_2_7::MalformedURLException"*)* @_ZN11xercesc_2_721MalformedURLExceptionD2Ev to i8*), i8* bitcast (void (%"class.xercesc_2_7::MalformedURLException"*)* @_ZN11xercesc_2_721MalformedURLExceptionD0Ev to i8*), i8* bitcast (i16* (%"class.xercesc_2_7::MalformedURLException"*)* @_ZNK11xercesc_2_721MalformedURLException7getTypeEv to i8*), i8* bitcast (%"class.xercesc_2_7::XMLException"* (%"class.xercesc_2_7::MalformedURLException"*)* @_ZNK11xercesc_2_721MalformedURLException9duplicateEv to i8*)] }, comdat, align 8
@_ZN11xercesc_2_76XMLUni28fgMalformedURLException_NameE = external dso_local constant [0 x i16], align 2
@_ZN11xercesc_2_710XMLChar1_019fgCharCharsTable1_0E = external dso_local global [65536 x i8], align 16

@_ZN11xercesc_2_76XMLURLC1EPNS_13MemoryManagerE = dso_local unnamed_addr alias void (%"class.xercesc_2_7::XMLURL"*, %"class.xercesc_2_7::MemoryManager"*), void (%"class.xercesc_2_7::XMLURL"*, %"class.xercesc_2_7::MemoryManager"*)* @_ZN11xercesc_2_76XMLURLC2EPNS_13MemoryManagerE
@_ZN11xercesc_2_76XMLURLC1EPKtS2_PNS_13MemoryManagerE = dso_local unnamed_addr alias void (%"class.xercesc_2_7::XMLURL"*, i16*, i16*, %"class.xercesc_2_7::MemoryManager"*), void (%"class.xercesc_2_7::XMLURL"*, i16*, i16*, %"class.xercesc_2_7::MemoryManager"*)* @_ZN11xercesc_2_76XMLURLC2EPKtS2_PNS_13MemoryManagerE
@_ZN11xercesc_2_76XMLURLC1EPKtPKcPNS_13MemoryManagerE = dso_local unnamed_addr alias void (%"class.xercesc_2_7::XMLURL"*, i16*, i8*, %"class.xercesc_2_7::MemoryManager"*), void (%"class.xercesc_2_7::XMLURL"*, i16*, i8*, %"class.xercesc_2_7::MemoryManager"*)* @_ZN11xercesc_2_76XMLURLC2EPKtPKcPNS_13MemoryManagerE
@_ZN11xercesc_2_76XMLURLC1ERKS0_PKt = dso_local unnamed_addr alias void (%"class.xercesc_2_7::XMLURL"*, %"class.xercesc_2_7::XMLURL"*, i16*), void (%"class.xercesc_2_7::XMLURL"*, %"class.xercesc_2_7::XMLURL"*, i16*)* @_ZN11xercesc_2_76XMLURLC2ERKS0_PKt
@_ZN11xercesc_2_76XMLURLC1ERKS0_PKc = dso_local unnamed_addr alias void (%"class.xercesc_2_7::XMLURL"*, %"class.xercesc_2_7::XMLURL"*, i8*), void (%"class.xercesc_2_7::XMLURL"*, %"class.xercesc_2_7::XMLURL"*, i8*)* @_ZN11xercesc_2_76XMLURLC2ERKS0_PKc
@_ZN11xercesc_2_76XMLURLC1EPKtPNS_13MemoryManagerE = dso_local unnamed_addr alias void (%"class.xercesc_2_7::XMLURL"*, i16*, %"class.xercesc_2_7::MemoryManager"*), void (%"class.xercesc_2_7::XMLURL"*, i16*, %"class.xercesc_2_7::MemoryManager"*)* @_ZN11xercesc_2_76XMLURLC2EPKtPNS_13MemoryManagerE
@_ZN11xercesc_2_76XMLURLC1EPKcPNS_13MemoryManagerE = dso_local unnamed_addr alias void (%"class.xercesc_2_7::XMLURL"*, i8*, %"class.xercesc_2_7::MemoryManager"*), void (%"class.xercesc_2_7::XMLURL"*, i8*, %"class.xercesc_2_7::MemoryManager"*)* @_ZN11xercesc_2_76XMLURLC2EPKcPNS_13MemoryManagerE
@_ZN11xercesc_2_76XMLURLC1ERKS0_ = dso_local unnamed_addr alias void (%"class.xercesc_2_7::XMLURL"*, %"class.xercesc_2_7::XMLURL"*), void (%"class.xercesc_2_7::XMLURL"*, %"class.xercesc_2_7::XMLURL"*)* @_ZN11xercesc_2_76XMLURLC2ERKS0_
@_ZN11xercesc_2_76XMLURLD1Ev = dso_local unnamed_addr alias void (%"class.xercesc_2_7::XMLURL"*), void (%"class.xercesc_2_7::XMLURL"*)* @_ZN11xercesc_2_76XMLURLD2Ev

; Function Attrs: nounwind readnone speculatable willreturn
declare void @llvm.dbg.declare(metadata, metadata, metadata) #0

; Function Attrs: noinline nounwind uwtable
define linkonce_odr dso_local void @_ZN11xercesc_2_710XMLDeleterD0Ev(%"class.xercesc_2_7::XMLDeleter"* %this) unnamed_addr #1 comdat align 2 !dbg !1042 {
entry:
  %this.addr = alloca %"class.xercesc_2_7::XMLDeleter"*, align 8
  store %"class.xercesc_2_7::XMLDeleter"* %this, %"class.xercesc_2_7::XMLDeleter"** %this.addr, align 8
  call void @llvm.dbg.declare(metadata %"class.xercesc_2_7::XMLDeleter"** %this.addr, metadata !1062, metadata !DIExpression()), !dbg !1064
  %this1 = load %"class.xercesc_2_7::XMLDeleter"*, %"class.xercesc_2_7::XMLDeleter"** %this.addr, align 8
  call void @_ZN11xercesc_2_710XMLDeleterD2Ev(%"class.xercesc_2_7::XMLDeleter"* %this1) #9, !dbg !1065
  %0 = bitcast %"class.xercesc_2_7::XMLDeleter"* %this1 to i8*, !dbg !1065
  call void @_ZdlPv(i8* %0) #10, !dbg !1065
  ret void, !dbg !1066
}

; Function Attrs: noinline nounwind uwtable
define linkonce_odr dso_local void @_ZN11xercesc_2_710XMLDeleterD2Ev(%"class.xercesc_2_7::XMLDeleter"* %this) unnamed_addr #1 comdat align 2 !dbg !1067 {
entry:
  %this.addr = alloca %"class.xercesc_2_7::XMLDeleter"*, align 8
  store %"class.xercesc_2_7::XMLDeleter"* %this, %"class.xercesc_2_7::XMLDeleter"** %this.addr, align 8
  call void @llvm.dbg.declare(metadata %"class.xercesc_2_7::XMLDeleter"** %this.addr, metadata !1068, metadata !DIExpression()), !dbg !1069
  %this1 = load %"class.xercesc_2_7::XMLDeleter"*, %"class.xercesc_2_7::XMLDeleter"** %this.addr, align 8
  ret void, !dbg !1070
}

; Function Attrs: nobuiltin nounwind
declare dso_local void @_ZdlPv(i8*) #2

; Function Attrs: noinline uwtable
define dso_local i32 @_ZN11xercesc_2_76XMLURL12lookupByNameEPKt(i16* %protoName) #3 align 2 !dbg !1071 {
entry:
  %retval = alloca i32, align 4
  %protoName.addr = alloca i16*, align 8
  %index = alloca i32, align 4
  store i16* %protoName, i16** %protoName.addr, align 8
  call void @llvm.dbg.declare(metadata i16** %protoName.addr, metadata !1072, metadata !DIExpression()), !dbg !1073
  call void @llvm.dbg.declare(metadata i32* %index, metadata !1074, metadata !DIExpression()), !dbg !1076
  store i32 0, i32* %index, align 4, !dbg !1076
  br label %for.cond, !dbg !1077

for.cond:                                         ; preds = %for.inc, %entry
  %0 = load i32, i32* %index, align 4, !dbg !1078
  %cmp = icmp ult i32 %0, 3, !dbg !1080
  br i1 %cmp, label %for.body, label %for.end, !dbg !1081

for.body:                                         ; preds = %for.cond
  %1 = load i16*, i16** %protoName.addr, align 8, !dbg !1082
  %2 = load i32, i32* %index, align 4, !dbg !1085
  %idxprom = zext i32 %2 to i64, !dbg !1086
  %arrayidx = getelementptr inbounds [3 x %"struct.xercesc_2_7::ProtoEntry"], [3 x %"struct.xercesc_2_7::ProtoEntry"]* @_ZN11xercesc_2_7L10gProtoListE, i64 0, i64 %idxprom, !dbg !1086
  %prefix = getelementptr inbounds %"struct.xercesc_2_7::ProtoEntry", %"struct.xercesc_2_7::ProtoEntry"* %arrayidx, i32 0, i32 1, !dbg !1087
  %3 = load i16*, i16** %prefix, align 8, !dbg !1087
  %call = call i32 @_ZN11xercesc_2_79XMLString19compareIStringASCIIEPKtS2_(i16* %1, i16* %3), !dbg !1088
  %tobool = icmp ne i32 %call, 0, !dbg !1088
  br i1 %tobool, label %if.end, label %if.then, !dbg !1089

if.then:                                          ; preds = %for.body
  %4 = load i32, i32* %index, align 4, !dbg !1090
  %idxprom1 = zext i32 %4 to i64, !dbg !1091
  %arrayidx2 = getelementptr inbounds [3 x %"struct.xercesc_2_7::ProtoEntry"], [3 x %"struct.xercesc_2_7::ProtoEntry"]* @_ZN11xercesc_2_7L10gProtoListE, i64 0, i64 %idxprom1, !dbg !1091
  %protocol = getelementptr inbounds %"struct.xercesc_2_7::ProtoEntry", %"struct.xercesc_2_7::ProtoEntry"* %arrayidx2, i32 0, i32 0, !dbg !1092
  %5 = load i32, i32* %protocol, align 8, !dbg !1092
  store i32 %5, i32* %retval, align 4, !dbg !1093
  br label %return, !dbg !1093

if.end:                                           ; preds = %for.body
  br label %for.inc, !dbg !1094

for.inc:                                          ; preds = %if.end
  %6 = load i32, i32* %index, align 4, !dbg !1095
  %inc = add i32 %6, 1, !dbg !1095
  store i32 %inc, i32* %index, align 4, !dbg !1095
  br label %for.cond, !dbg !1096, !llvm.loop !1097

for.end:                                          ; preds = %for.cond
  store i32 4, i32* %retval, align 4, !dbg !1099
  br label %return, !dbg !1099

return:                                           ; preds = %for.end, %if.then
  %7 = load i32, i32* %retval, align 4, !dbg !1100
  ret i32 %7, !dbg !1100
}

declare dso_local i32 @_ZN11xercesc_2_79XMLString19compareIStringASCIIEPKtS2_(i16*, i16*) #4

; Function Attrs: noinline uwtable
define dso_local void @_ZN11xercesc_2_76XMLURLC2EPNS_13MemoryManagerE(%"class.xercesc_2_7::XMLURL"* %this, %"class.xercesc_2_7::MemoryManager"* %manager) unnamed_addr #3 align 2 !dbg !1101 {
entry:
  %this.addr = alloca %"class.xercesc_2_7::XMLURL"*, align 8
  %manager.addr = alloca %"class.xercesc_2_7::MemoryManager"*, align 8
  store %"class.xercesc_2_7::XMLURL"* %this, %"class.xercesc_2_7::XMLURL"** %this.addr, align 8
  call void @llvm.dbg.declare(metadata %"class.xercesc_2_7::XMLURL"** %this.addr, metadata !1102, metadata !DIExpression()), !dbg !1103
  store %"class.xercesc_2_7::MemoryManager"* %manager, %"class.xercesc_2_7::MemoryManager"** %manager.addr, align 8
  call void @llvm.dbg.declare(metadata %"class.xercesc_2_7::MemoryManager"** %manager.addr, metadata !1104, metadata !DIExpression()), !dbg !1105
  %this1 = load %"class.xercesc_2_7::XMLURL"*, %"class.xercesc_2_7::XMLURL"** %this.addr, align 8
  %0 = bitcast %"class.xercesc_2_7::XMLURL"* %this1 to %"class.xercesc_2_7::XMemory"*, !dbg !1106
  call void @_ZN11xercesc_2_77XMemoryC2Ev(%"class.xercesc_2_7::XMemory"* %0), !dbg !1107
  %1 = bitcast %"class.xercesc_2_7::XMLURL"* %this1 to i32 (...)***, !dbg !1106
  store i32 (...)** bitcast (i8** getelementptr inbounds ({ [4 x i8*] }, { [4 x i8*] }* @_ZTVN11xercesc_2_76XMLURLE, i32 0, inrange i32 0, i32 2) to i32 (...)**), i32 (...)*** %1, align 8, !dbg !1106
  %fMemoryManager = getelementptr inbounds %"class.xercesc_2_7::XMLURL", %"class.xercesc_2_7::XMLURL"* %this1, i32 0, i32 1, !dbg !1108
  %2 = load %"class.xercesc_2_7::MemoryManager"*, %"class.xercesc_2_7::MemoryManager"** %manager.addr, align 8, !dbg !1109
  store %"class.xercesc_2_7::MemoryManager"* %2, %"class.xercesc_2_7::MemoryManager"** %fMemoryManager, align 8, !dbg !1108
  %fFragment = getelementptr inbounds %"class.xercesc_2_7::XMLURL", %"class.xercesc_2_7::XMLURL"* %this1, i32 0, i32 2, !dbg !1110
  store i16* null, i16** %fFragment, align 8, !dbg !1110
  %fHost = getelementptr inbounds %"class.xercesc_2_7::XMLURL", %"class.xercesc_2_7::XMLURL"* %this1, i32 0, i32 3, !dbg !1111
  store i16* null, i16** %fHost, align 8, !dbg !1111
  %fPassword = getelementptr inbounds %"class.xercesc_2_7::XMLURL", %"class.xercesc_2_7::XMLURL"* %this1, i32 0, i32 4, !dbg !1112
  store i16* null, i16** %fPassword, align 8, !dbg !1112
  %fPath = getelementptr inbounds %"class.xercesc_2_7::XMLURL", %"class.xercesc_2_7::XMLURL"* %this1, i32 0, i32 5, !dbg !1113
  store i16* null, i16** %fPath, align 8, !dbg !1113
  %fPortNum = getelementptr inbounds %"class.xercesc_2_7::XMLURL", %"class.xercesc_2_7::XMLURL"* %this1, i32 0, i32 6, !dbg !1114
  store i32 0, i32* %fPortNum, align 8, !dbg !1114
  %fProtocol = getelementptr inbounds %"class.xercesc_2_7::XMLURL", %"class.xercesc_2_7::XMLURL"* %this1, i32 0, i32 7, !dbg !1115
  store i32 4, i32* %fProtocol, align 4, !dbg !1115
  %fQuery = getelementptr inbounds %"class.xercesc_2_7::XMLURL", %"class.xercesc_2_7::XMLURL"* %this1, i32 0, i32 8, !dbg !1116
  store i16* null, i16** %fQuery, align 8, !dbg !1116
  %fUser = getelementptr inbounds %"class.xercesc_2_7::XMLURL", %"class.xercesc_2_7::XMLURL"* %this1, i32 0, i32 9, !dbg !1117
  store i16* null, i16** %fUser, align 8, !dbg !1117
  %fURLText = getelementptr inbounds %"class.xercesc_2_7::XMLURL", %"class.xercesc_2_7::XMLURL"* %this1, i32 0, i32 10, !dbg !1118
  store i16* null, i16** %fURLText, align 8, !dbg !1118
  %fHasInvalidChar = getelementptr inbounds %"class.xercesc_2_7::XMLURL", %"class.xercesc_2_7::XMLURL"* %this1, i32 0, i32 11, !dbg !1119
  store i8 0, i8* %fHasInvalidChar, align 8, !dbg !1119
  ret void, !dbg !1120
}

; Function Attrs: noinline nounwind uwtable
define linkonce_odr dso_local void @_ZN11xercesc_2_77XMemoryC2Ev(%"class.xercesc_2_7::XMemory"* %this) unnamed_addr #1 comdat align 2 !dbg !1121 {
entry:
  %this.addr = alloca %"class.xercesc_2_7::XMemory"*, align 8
  store %"class.xercesc_2_7::XMemory"* %this, %"class.xercesc_2_7::XMemory"** %this.addr, align 8
  call void @llvm.dbg.declare(metadata %"class.xercesc_2_7::XMemory"** %this.addr, metadata !1122, metadata !DIExpression()), !dbg !1124
  %this1 = load %"class.xercesc_2_7::XMemory"*, %"class.xercesc_2_7::XMemory"** %this.addr, align 8
  ret void, !dbg !1125
}

; Function Attrs: noinline uwtable
define dso_local void @_ZN11xercesc_2_76XMLURLC2EPKtS2_PNS_13MemoryManagerE(%"class.xercesc_2_7::XMLURL"* %this, i16* %baseURL, i16* %relativeURL, %"class.xercesc_2_7::MemoryManager"* %manager) unnamed_addr #3 align 2 personality i8* bitcast (i32 (...)* @__gxx_personality_v0 to i8*) !dbg !1126 {
entry:
  %this.addr = alloca %"class.xercesc_2_7::XMLURL"*, align 8
  %baseURL.addr = alloca i16*, align 8
  %relativeURL.addr = alloca i16*, align 8
  %manager.addr = alloca %"class.xercesc_2_7::MemoryManager"*, align 8
  %cleanup = alloca %"class.xercesc_2_7::JanitorMemFunCall", align 8
  %coerce = alloca { i64, i64 }, align 8
  %exn.slot = alloca i8*
  %ehselector.slot = alloca i32
  %0 = alloca %"class.xercesc_2_7::OutOfMemoryException"*, align 8
  store %"class.xercesc_2_7::XMLURL"* %this, %"class.xercesc_2_7::XMLURL"** %this.addr, align 8
  call void @llvm.dbg.declare(metadata %"class.xercesc_2_7::XMLURL"** %this.addr, metadata !1127, metadata !DIExpression()), !dbg !1128
  store i16* %baseURL, i16** %baseURL.addr, align 8
  call void @llvm.dbg.declare(metadata i16** %baseURL.addr, metadata !1129, metadata !DIExpression()), !dbg !1130
  store i16* %relativeURL, i16** %relativeURL.addr, align 8
  call void @llvm.dbg.declare(metadata i16** %relativeURL.addr, metadata !1131, metadata !DIExpression()), !dbg !1132
  store %"class.xercesc_2_7::MemoryManager"* %manager, %"class.xercesc_2_7::MemoryManager"** %manager.addr, align 8
  call void @llvm.dbg.declare(metadata %"class.xercesc_2_7::MemoryManager"** %manager.addr, metadata !1133, metadata !DIExpression()), !dbg !1134
  %this1 = load %"class.xercesc_2_7::XMLURL"*, %"class.xercesc_2_7::XMLURL"** %this.addr, align 8
  %1 = bitcast %"class.xercesc_2_7::XMLURL"* %this1 to %"class.xercesc_2_7::XMemory"*, !dbg !1135
  call void @_ZN11xercesc_2_77XMemoryC2Ev(%"class.xercesc_2_7::XMemory"* %1), !dbg !1136
  %2 = bitcast %"class.xercesc_2_7::XMLURL"* %this1 to i32 (...)***, !dbg !1135
  store i32 (...)** bitcast (i8** getelementptr inbounds ({ [4 x i8*] }, { [4 x i8*] }* @_ZTVN11xercesc_2_76XMLURLE, i32 0, inrange i32 0, i32 2) to i32 (...)**), i32 (...)*** %2, align 8, !dbg !1135
  %fMemoryManager = getelementptr inbounds %"class.xercesc_2_7::XMLURL", %"class.xercesc_2_7::XMLURL"* %this1, i32 0, i32 1, !dbg !1137
  %3 = load %"class.xercesc_2_7::MemoryManager"*, %"class.xercesc_2_7::MemoryManager"** %manager.addr, align 8, !dbg !1138
  store %"class.xercesc_2_7::MemoryManager"* %3, %"class.xercesc_2_7::MemoryManager"** %fMemoryManager, align 8, !dbg !1137
  %fFragment = getelementptr inbounds %"class.xercesc_2_7::XMLURL", %"class.xercesc_2_7::XMLURL"* %this1, i32 0, i32 2, !dbg !1139
  store i16* null, i16** %fFragment, align 8, !dbg !1139
  %fHost = getelementptr inbounds %"class.xercesc_2_7::XMLURL", %"class.xercesc_2_7::XMLURL"* %this1, i32 0, i32 3, !dbg !1140
  store i16* null, i16** %fHost, align 8, !dbg !1140
  %fPassword = getelementptr inbounds %"class.xercesc_2_7::XMLURL", %"class.xercesc_2_7::XMLURL"* %this1, i32 0, i32 4, !dbg !1141
  store i16* null, i16** %fPassword, align 8, !dbg !1141
  %fPath = getelementptr inbounds %"class.xercesc_2_7::XMLURL", %"class.xercesc_2_7::XMLURL"* %this1, i32 0, i32 5, !dbg !1142
  store i16* null, i16** %fPath, align 8, !dbg !1142
  %fPortNum = getelementptr inbounds %"class.xercesc_2_7::XMLURL", %"class.xercesc_2_7::XMLURL"* %this1, i32 0, i32 6, !dbg !1143
  store i32 0, i32* %fPortNum, align 8, !dbg !1143
  %fProtocol = getelementptr inbounds %"class.xercesc_2_7::XMLURL", %"class.xercesc_2_7::XMLURL"* %this1, i32 0, i32 7, !dbg !1144
  store i32 4, i32* %fProtocol, align 4, !dbg !1144
  %fQuery = getelementptr inbounds %"class.xercesc_2_7::XMLURL", %"class.xercesc_2_7::XMLURL"* %this1, i32 0, i32 8, !dbg !1145
  store i16* null, i16** %fQuery, align 8, !dbg !1145
  %fUser = getelementptr inbounds %"class.xercesc_2_7::XMLURL", %"class.xercesc_2_7::XMLURL"* %this1, i32 0, i32 9, !dbg !1146
  store i16* null, i16** %fUser, align 8, !dbg !1146
  %fURLText = getelementptr inbounds %"class.xercesc_2_7::XMLURL", %"class.xercesc_2_7::XMLURL"* %this1, i32 0, i32 10, !dbg !1147
  store i16* null, i16** %fURLText, align 8, !dbg !1147
  %fHasInvalidChar = getelementptr inbounds %"class.xercesc_2_7::XMLURL", %"class.xercesc_2_7::XMLURL"* %this1, i32 0, i32 11, !dbg !1148
  store i8 0, i8* %fHasInvalidChar, align 8, !dbg !1148
  call void @llvm.dbg.declare(metadata %"class.xercesc_2_7::JanitorMemFunCall"* %cleanup, metadata !1149, metadata !DIExpression()), !dbg !1179
  store { i64, i64 } { i64 ptrtoint (void (%"class.xercesc_2_7::XMLURL"*)* @_ZN11xercesc_2_76XMLURL7cleanUpEv to i64), i64 0 }, { i64, i64 }* %coerce, align 8, !dbg !1179
  %4 = getelementptr inbounds { i64, i64 }, { i64, i64 }* %coerce, i32 0, i32 0, !dbg !1179
  %5 = load i64, i64* %4, align 8, !dbg !1179
  %6 = getelementptr inbounds { i64, i64 }, { i64, i64 }* %coerce, i32 0, i32 1, !dbg !1179
  %7 = load i64, i64* %6, align 8, !dbg !1179
  call void @_ZN11xercesc_2_717JanitorMemFunCallINS_6XMLURLEEC2EPS1_MS1_FvvE(%"class.xercesc_2_7::JanitorMemFunCall"* %cleanup, %"class.xercesc_2_7::XMLURL"* %this1, i64 %5, i64 %7), !dbg !1179
  %8 = load i16*, i16** %baseURL.addr, align 8, !dbg !1180
  %9 = load i16*, i16** %relativeURL.addr, align 8, !dbg !1182
  invoke void @_ZN11xercesc_2_76XMLURL6setURLEPKtS2_(%"class.xercesc_2_7::XMLURL"* %this1, i16* %8, i16* %9)
          to label %invoke.cont unwind label %lpad, !dbg !1183

invoke.cont:                                      ; preds = %entry
  br label %try.cont, !dbg !1184

lpad:                                             ; preds = %entry
  %10 = landingpad { i8*, i32 }
          cleanup
          catch i8* bitcast ({ i8*, i8*, i8* }* @_ZTIN11xercesc_2_720OutOfMemoryExceptionE to i8*), !dbg !1185
  %11 = extractvalue { i8*, i32 } %10, 0, !dbg !1185
  store i8* %11, i8** %exn.slot, align 8, !dbg !1185
  %12 = extractvalue { i8*, i32 } %10, 1, !dbg !1185
  store i32 %12, i32* %ehselector.slot, align 4, !dbg !1185
  br label %catch.dispatch, !dbg !1185

catch.dispatch:                                   ; preds = %lpad
  %sel = load i32, i32* %ehselector.slot, align 4, !dbg !1184
  %13 = call i32 @llvm.eh.typeid.for(i8* bitcast ({ i8*, i8*, i8* }* @_ZTIN11xercesc_2_720OutOfMemoryExceptionE to i8*)) #9, !dbg !1184
  %matches = icmp eq i32 %sel, %13, !dbg !1184
  br i1 %matches, label %catch, label %ehcleanup, !dbg !1184

catch:                                            ; preds = %catch.dispatch
  call void @llvm.dbg.declare(metadata %"class.xercesc_2_7::OutOfMemoryException"** %0, metadata !1186, metadata !DIExpression()), !dbg !1219
  %exn = load i8*, i8** %exn.slot, align 8, !dbg !1184
  %14 = call i8* @__cxa_begin_catch(i8* %exn) #9, !dbg !1184
  %exn.byref = bitcast i8* %14 to %"class.xercesc_2_7::OutOfMemoryException"*, !dbg !1184
  store %"class.xercesc_2_7::OutOfMemoryException"* %exn.byref, %"class.xercesc_2_7::OutOfMemoryException"** %0, align 8, !dbg !1184
  invoke void @_ZN11xercesc_2_717JanitorMemFunCallINS_6XMLURLEE7releaseEv(%"class.xercesc_2_7::JanitorMemFunCall"* %cleanup)
          to label %invoke.cont3 unwind label %lpad2, !dbg !1220

invoke.cont3:                                     ; preds = %catch
  invoke void @__cxa_rethrow() #11
          to label %unreachable unwind label %lpad2, !dbg !1222

lpad2:                                            ; preds = %invoke.cont3, %catch
  %15 = landingpad { i8*, i32 }
          cleanup, !dbg !1223
  %16 = extractvalue { i8*, i32 } %15, 0, !dbg !1223
  store i8* %16, i8** %exn.slot, align 8, !dbg !1223
  %17 = extractvalue { i8*, i32 } %15, 1, !dbg !1223
  store i32 %17, i32* %ehselector.slot, align 4, !dbg !1223
  invoke void @__cxa_end_catch()
          to label %invoke.cont4 unwind label %terminate.lpad, !dbg !1224

invoke.cont4:                                     ; preds = %lpad2
  br label %ehcleanup, !dbg !1224

try.cont:                                         ; preds = %invoke.cont
  invoke void @_ZN11xercesc_2_717JanitorMemFunCallINS_6XMLURLEE7releaseEv(%"class.xercesc_2_7::JanitorMemFunCall"* %cleanup)
          to label %invoke.cont6 unwind label %lpad5, !dbg !1225

invoke.cont6:                                     ; preds = %try.cont
  call void @_ZN11xercesc_2_717JanitorMemFunCallINS_6XMLURLEED2Ev(%"class.xercesc_2_7::JanitorMemFunCall"* %cleanup) #9, !dbg !1226
  ret void, !dbg !1226

lpad5:                                            ; preds = %try.cont
  %18 = landingpad { i8*, i32 }
          cleanup, !dbg !1227
  %19 = extractvalue { i8*, i32 } %18, 0, !dbg !1227
  store i8* %19, i8** %exn.slot, align 8, !dbg !1227
  %20 = extractvalue { i8*, i32 } %18, 1, !dbg !1227
  store i32 %20, i32* %ehselector.slot, align 4, !dbg !1227
  br label %ehcleanup, !dbg !1227

ehcleanup:                                        ; preds = %lpad5, %invoke.cont4, %catch.dispatch
  call void @_ZN11xercesc_2_717JanitorMemFunCallINS_6XMLURLEED2Ev(%"class.xercesc_2_7::JanitorMemFunCall"* %cleanup) #9, !dbg !1226
  br label %eh.resume, !dbg !1226

eh.resume:                                        ; preds = %ehcleanup
  %exn7 = load i8*, i8** %exn.slot, align 8, !dbg !1226
  %sel8 = load i32, i32* %ehselector.slot, align 4, !dbg !1226
  %lpad.val = insertvalue { i8*, i32 } undef, i8* %exn7, 0, !dbg !1226
  %lpad.val9 = insertvalue { i8*, i32 } %lpad.val, i32 %sel8, 1, !dbg !1226
  resume { i8*, i32 } %lpad.val9, !dbg !1226

terminate.lpad:                                   ; preds = %lpad2
  %21 = landingpad { i8*, i32 }
          catch i8* null, !dbg !1224
  %22 = extractvalue { i8*, i32 } %21, 0, !dbg !1224
  call void @__clang_call_terminate(i8* %22) #12, !dbg !1224
  unreachable, !dbg !1224

unreachable:                                      ; preds = %invoke.cont3
  unreachable
}

; Function Attrs: noinline uwtable
define dso_local void @_ZN11xercesc_2_76XMLURL7cleanUpEv(%"class.xercesc_2_7::XMLURL"* %this) #3 align 2 !dbg !1228 {
entry:
  %this.addr = alloca %"class.xercesc_2_7::XMLURL"*, align 8
  store %"class.xercesc_2_7::XMLURL"* %this, %"class.xercesc_2_7::XMLURL"** %this.addr, align 8
  call void @llvm.dbg.declare(metadata %"class.xercesc_2_7::XMLURL"** %this.addr, metadata !1229, metadata !DIExpression()), !dbg !1230
  %this1 = load %"class.xercesc_2_7::XMLURL"*, %"class.xercesc_2_7::XMLURL"** %this.addr, align 8
  %fMemoryManager = getelementptr inbounds %"class.xercesc_2_7::XMLURL", %"class.xercesc_2_7::XMLURL"* %this1, i32 0, i32 1, !dbg !1231
  %0 = load %"class.xercesc_2_7::MemoryManager"*, %"class.xercesc_2_7::MemoryManager"** %fMemoryManager, align 8, !dbg !1231
  %fFragment = getelementptr inbounds %"class.xercesc_2_7::XMLURL", %"class.xercesc_2_7::XMLURL"* %this1, i32 0, i32 2, !dbg !1232
  %1 = load i16*, i16** %fFragment, align 8, !dbg !1232
  %2 = bitcast i16* %1 to i8*, !dbg !1232
  %3 = bitcast %"class.xercesc_2_7::MemoryManager"* %0 to void (%"class.xercesc_2_7::MemoryManager"*, i8*)***, !dbg !1233
  %vtable = load void (%"class.xercesc_2_7::MemoryManager"*, i8*)**, void (%"class.xercesc_2_7::MemoryManager"*, i8*)*** %3, align 8, !dbg !1233
  %vfn = getelementptr inbounds void (%"class.xercesc_2_7::MemoryManager"*, i8*)*, void (%"class.xercesc_2_7::MemoryManager"*, i8*)** %vtable, i64 3, !dbg !1233
  %4 = load void (%"class.xercesc_2_7::MemoryManager"*, i8*)*, void (%"class.xercesc_2_7::MemoryManager"*, i8*)** %vfn, align 8, !dbg !1233
  call void %4(%"class.xercesc_2_7::MemoryManager"* %0, i8* %2), !dbg !1233
  %fMemoryManager2 = getelementptr inbounds %"class.xercesc_2_7::XMLURL", %"class.xercesc_2_7::XMLURL"* %this1, i32 0, i32 1, !dbg !1234
  %5 = load %"class.xercesc_2_7::MemoryManager"*, %"class.xercesc_2_7::MemoryManager"** %fMemoryManager2, align 8, !dbg !1234
  %fHost = getelementptr inbounds %"class.xercesc_2_7::XMLURL", %"class.xercesc_2_7::XMLURL"* %this1, i32 0, i32 3, !dbg !1235
  %6 = load i16*, i16** %fHost, align 8, !dbg !1235
  %7 = bitcast i16* %6 to i8*, !dbg !1235
  %8 = bitcast %"class.xercesc_2_7::MemoryManager"* %5 to void (%"class.xercesc_2_7::MemoryManager"*, i8*)***, !dbg !1236
  %vtable3 = load void (%"class.xercesc_2_7::MemoryManager"*, i8*)**, void (%"class.xercesc_2_7::MemoryManager"*, i8*)*** %8, align 8, !dbg !1236
  %vfn4 = getelementptr inbounds void (%"class.xercesc_2_7::MemoryManager"*, i8*)*, void (%"class.xercesc_2_7::MemoryManager"*, i8*)** %vtable3, i64 3, !dbg !1236
  %9 = load void (%"class.xercesc_2_7::MemoryManager"*, i8*)*, void (%"class.xercesc_2_7::MemoryManager"*, i8*)** %vfn4, align 8, !dbg !1236
  call void %9(%"class.xercesc_2_7::MemoryManager"* %5, i8* %7), !dbg !1236
  %fMemoryManager5 = getelementptr inbounds %"class.xercesc_2_7::XMLURL", %"class.xercesc_2_7::XMLURL"* %this1, i32 0, i32 1, !dbg !1237
  %10 = load %"class.xercesc_2_7::MemoryManager"*, %"class.xercesc_2_7::MemoryManager"** %fMemoryManager5, align 8, !dbg !1237
  %fPassword = getelementptr inbounds %"class.xercesc_2_7::XMLURL", %"class.xercesc_2_7::XMLURL"* %this1, i32 0, i32 4, !dbg !1238
  %11 = load i16*, i16** %fPassword, align 8, !dbg !1238
  %12 = bitcast i16* %11 to i8*, !dbg !1238
  %13 = bitcast %"class.xercesc_2_7::MemoryManager"* %10 to void (%"class.xercesc_2_7::MemoryManager"*, i8*)***, !dbg !1239
  %vtable6 = load void (%"class.xercesc_2_7::MemoryManager"*, i8*)**, void (%"class.xercesc_2_7::MemoryManager"*, i8*)*** %13, align 8, !dbg !1239
  %vfn7 = getelementptr inbounds void (%"class.xercesc_2_7::MemoryManager"*, i8*)*, void (%"class.xercesc_2_7::MemoryManager"*, i8*)** %vtable6, i64 3, !dbg !1239
  %14 = load void (%"class.xercesc_2_7::MemoryManager"*, i8*)*, void (%"class.xercesc_2_7::MemoryManager"*, i8*)** %vfn7, align 8, !dbg !1239
  call void %14(%"class.xercesc_2_7::MemoryManager"* %10, i8* %12), !dbg !1239
  %fMemoryManager8 = getelementptr inbounds %"class.xercesc_2_7::XMLURL", %"class.xercesc_2_7::XMLURL"* %this1, i32 0, i32 1, !dbg !1240
  %15 = load %"class.xercesc_2_7::MemoryManager"*, %"class.xercesc_2_7::MemoryManager"** %fMemoryManager8, align 8, !dbg !1240
  %fPath = getelementptr inbounds %"class.xercesc_2_7::XMLURL", %"class.xercesc_2_7::XMLURL"* %this1, i32 0, i32 5, !dbg !1241
  %16 = load i16*, i16** %fPath, align 8, !dbg !1241
  %17 = bitcast i16* %16 to i8*, !dbg !1241
  %18 = bitcast %"class.xercesc_2_7::MemoryManager"* %15 to void (%"class.xercesc_2_7::MemoryManager"*, i8*)***, !dbg !1242
  %vtable9 = load void (%"class.xercesc_2_7::MemoryManager"*, i8*)**, void (%"class.xercesc_2_7::MemoryManager"*, i8*)*** %18, align 8, !dbg !1242
  %vfn10 = getelementptr inbounds void (%"class.xercesc_2_7::MemoryManager"*, i8*)*, void (%"class.xercesc_2_7::MemoryManager"*, i8*)** %vtable9, i64 3, !dbg !1242
  %19 = load void (%"class.xercesc_2_7::MemoryManager"*, i8*)*, void (%"class.xercesc_2_7::MemoryManager"*, i8*)** %vfn10, align 8, !dbg !1242
  call void %19(%"class.xercesc_2_7::MemoryManager"* %15, i8* %17), !dbg !1242
  %fMemoryManager11 = getelementptr inbounds %"class.xercesc_2_7::XMLURL", %"class.xercesc_2_7::XMLURL"* %this1, i32 0, i32 1, !dbg !1243
  %20 = load %"class.xercesc_2_7::MemoryManager"*, %"class.xercesc_2_7::MemoryManager"** %fMemoryManager11, align 8, !dbg !1243
  %fQuery = getelementptr inbounds %"class.xercesc_2_7::XMLURL", %"class.xercesc_2_7::XMLURL"* %this1, i32 0, i32 8, !dbg !1244
  %21 = load i16*, i16** %fQuery, align 8, !dbg !1244
  %22 = bitcast i16* %21 to i8*, !dbg !1244
  %23 = bitcast %"class.xercesc_2_7::MemoryManager"* %20 to void (%"class.xercesc_2_7::MemoryManager"*, i8*)***, !dbg !1245
  %vtable12 = load void (%"class.xercesc_2_7::MemoryManager"*, i8*)**, void (%"class.xercesc_2_7::MemoryManager"*, i8*)*** %23, align 8, !dbg !1245
  %vfn13 = getelementptr inbounds void (%"class.xercesc_2_7::MemoryManager"*, i8*)*, void (%"class.xercesc_2_7::MemoryManager"*, i8*)** %vtable12, i64 3, !dbg !1245
  %24 = load void (%"class.xercesc_2_7::MemoryManager"*, i8*)*, void (%"class.xercesc_2_7::MemoryManager"*, i8*)** %vfn13, align 8, !dbg !1245
  call void %24(%"class.xercesc_2_7::MemoryManager"* %20, i8* %22), !dbg !1245
  %fMemoryManager14 = getelementptr inbounds %"class.xercesc_2_7::XMLURL", %"class.xercesc_2_7::XMLURL"* %this1, i32 0, i32 1, !dbg !1246
  %25 = load %"class.xercesc_2_7::MemoryManager"*, %"class.xercesc_2_7::MemoryManager"** %fMemoryManager14, align 8, !dbg !1246
  %fUser = getelementptr inbounds %"class.xercesc_2_7::XMLURL", %"class.xercesc_2_7::XMLURL"* %this1, i32 0, i32 9, !dbg !1247
  %26 = load i16*, i16** %fUser, align 8, !dbg !1247
  %27 = bitcast i16* %26 to i8*, !dbg !1247
  %28 = bitcast %"class.xercesc_2_7::MemoryManager"* %25 to void (%"class.xercesc_2_7::MemoryManager"*, i8*)***, !dbg !1248
  %vtable15 = load void (%"class.xercesc_2_7::MemoryManager"*, i8*)**, void (%"class.xercesc_2_7::MemoryManager"*, i8*)*** %28, align 8, !dbg !1248
  %vfn16 = getelementptr inbounds void (%"class.xercesc_2_7::MemoryManager"*, i8*)*, void (%"class.xercesc_2_7::MemoryManager"*, i8*)** %vtable15, i64 3, !dbg !1248
  %29 = load void (%"class.xercesc_2_7::MemoryManager"*, i8*)*, void (%"class.xercesc_2_7::MemoryManager"*, i8*)** %vfn16, align 8, !dbg !1248
  call void %29(%"class.xercesc_2_7::MemoryManager"* %25, i8* %27), !dbg !1248
  %fMemoryManager17 = getelementptr inbounds %"class.xercesc_2_7::XMLURL", %"class.xercesc_2_7::XMLURL"* %this1, i32 0, i32 1, !dbg !1249
  %30 = load %"class.xercesc_2_7::MemoryManager"*, %"class.xercesc_2_7::MemoryManager"** %fMemoryManager17, align 8, !dbg !1249
  %fURLText = getelementptr inbounds %"class.xercesc_2_7::XMLURL", %"class.xercesc_2_7::XMLURL"* %this1, i32 0, i32 10, !dbg !1250
  %31 = load i16*, i16** %fURLText, align 8, !dbg !1250
  %32 = bitcast i16* %31 to i8*, !dbg !1250
  %33 = bitcast %"class.xercesc_2_7::MemoryManager"* %30 to void (%"class.xercesc_2_7::MemoryManager"*, i8*)***, !dbg !1251
  %vtable18 = load void (%"class.xercesc_2_7::MemoryManager"*, i8*)**, void (%"class.xercesc_2_7::MemoryManager"*, i8*)*** %33, align 8, !dbg !1251
  %vfn19 = getelementptr inbounds void (%"class.xercesc_2_7::MemoryManager"*, i8*)*, void (%"class.xercesc_2_7::MemoryManager"*, i8*)** %vtable18, i64 3, !dbg !1251
  %34 = load void (%"class.xercesc_2_7::MemoryManager"*, i8*)*, void (%"class.xercesc_2_7::MemoryManager"*, i8*)** %vfn19, align 8, !dbg !1251
  call void %34(%"class.xercesc_2_7::MemoryManager"* %30, i8* %32), !dbg !1251
  %fFragment20 = getelementptr inbounds %"class.xercesc_2_7::XMLURL", %"class.xercesc_2_7::XMLURL"* %this1, i32 0, i32 2, !dbg !1252
  store i16* null, i16** %fFragment20, align 8, !dbg !1253
  %fHost21 = getelementptr inbounds %"class.xercesc_2_7::XMLURL", %"class.xercesc_2_7::XMLURL"* %this1, i32 0, i32 3, !dbg !1254
  store i16* null, i16** %fHost21, align 8, !dbg !1255
  %fPassword22 = getelementptr inbounds %"class.xercesc_2_7::XMLURL", %"class.xercesc_2_7::XMLURL"* %this1, i32 0, i32 4, !dbg !1256
  store i16* null, i16** %fPassword22, align 8, !dbg !1257
  %fPath23 = getelementptr inbounds %"class.xercesc_2_7::XMLURL", %"class.xercesc_2_7::XMLURL"* %this1, i32 0, i32 5, !dbg !1258
  store i16* null, i16** %fPath23, align 8, !dbg !1259
  %fQuery24 = getelementptr inbounds %"class.xercesc_2_7::XMLURL", %"class.xercesc_2_7::XMLURL"* %this1, i32 0, i32 8, !dbg !1260
  store i16* null, i16** %fQuery24, align 8, !dbg !1261
  %fUser25 = getelementptr inbounds %"class.xercesc_2_7::XMLURL", %"class.xercesc_2_7::XMLURL"* %this1, i32 0, i32 9, !dbg !1262
  store i16* null, i16** %fUser25, align 8, !dbg !1263
  %fURLText26 = getelementptr inbounds %"class.xercesc_2_7::XMLURL", %"class.xercesc_2_7::XMLURL"* %this1, i32 0, i32 10, !dbg !1264
  store i16* null, i16** %fURLText26, align 8, !dbg !1265
  %fProtocol = getelementptr inbounds %"class.xercesc_2_7::XMLURL", %"class.xercesc_2_7::XMLURL"* %this1, i32 0, i32 7, !dbg !1266
  store i32 4, i32* %fProtocol, align 4, !dbg !1267
  %fPortNum = getelementptr inbounds %"class.xercesc_2_7::XMLURL", %"class.xercesc_2_7::XMLURL"* %this1, i32 0, i32 6, !dbg !1268
  store i32 0, i32* %fPortNum, align 8, !dbg !1269
  %fHasInvalidChar = getelementptr inbounds %"class.xercesc_2_7::XMLURL", %"class.xercesc_2_7::XMLURL"* %this1, i32 0, i32 11, !dbg !1270
  store i8 0, i8* %fHasInvalidChar, align 8, !dbg !1271
  ret void, !dbg !1272
}

; Function Attrs: noinline nounwind uwtable
define linkonce_odr dso_local void @_ZN11xercesc_2_717JanitorMemFunCallINS_6XMLURLEEC2EPS1_MS1_FvvE(%"class.xercesc_2_7::JanitorMemFunCall"* %this, %"class.xercesc_2_7::XMLURL"* %object, i64 %toCall.coerce0, i64 %toCall.coerce1) unnamed_addr #1 comdat align 2 !dbg !1273 {
entry:
  %toCall = alloca { i64, i64 }, align 8
  %this.addr = alloca %"class.xercesc_2_7::JanitorMemFunCall"*, align 8
  %object.addr = alloca %"class.xercesc_2_7::XMLURL"*, align 8
  %toCall.addr = alloca { i64, i64 }, align 8
  %0 = getelementptr inbounds { i64, i64 }, { i64, i64 }* %toCall, i32 0, i32 0
  store i64 %toCall.coerce0, i64* %0, align 8
  %1 = getelementptr inbounds { i64, i64 }, { i64, i64 }* %toCall, i32 0, i32 1
  store i64 %toCall.coerce1, i64* %1, align 8
  %toCall1 = load { i64, i64 }, { i64, i64 }* %toCall, align 8
  store %"class.xercesc_2_7::JanitorMemFunCall"* %this, %"class.xercesc_2_7::JanitorMemFunCall"** %this.addr, align 8
  call void @llvm.dbg.declare(metadata %"class.xercesc_2_7::JanitorMemFunCall"** %this.addr, metadata !1275, metadata !DIExpression()), !dbg !1277
  store %"class.xercesc_2_7::XMLURL"* %object, %"class.xercesc_2_7::XMLURL"** %object.addr, align 8
  call void @llvm.dbg.declare(metadata %"class.xercesc_2_7::XMLURL"** %object.addr, metadata !1278, metadata !DIExpression()), !dbg !1279
  store { i64, i64 } %toCall1, { i64, i64 }* %toCall.addr, align 8
  call void @llvm.dbg.declare(metadata { i64, i64 }* %toCall.addr, metadata !1280, metadata !DIExpression()), !dbg !1281
  %this2 = load %"class.xercesc_2_7::JanitorMemFunCall"*, %"class.xercesc_2_7::JanitorMemFunCall"** %this.addr, align 8
  %fObject = getelementptr inbounds %"class.xercesc_2_7::JanitorMemFunCall", %"class.xercesc_2_7::JanitorMemFunCall"* %this2, i32 0, i32 0, !dbg !1282
  %2 = load %"class.xercesc_2_7::XMLURL"*, %"class.xercesc_2_7::XMLURL"** %object.addr, align 8, !dbg !1283
  store %"class.xercesc_2_7::XMLURL"* %2, %"class.xercesc_2_7::XMLURL"** %fObject, align 8, !dbg !1282
  %fToCall = getelementptr inbounds %"class.xercesc_2_7::JanitorMemFunCall", %"class.xercesc_2_7::JanitorMemFunCall"* %this2, i32 0, i32 1, !dbg !1284
  %3 = load { i64, i64 }, { i64, i64 }* %toCall.addr, align 8, !dbg !1285
  store { i64, i64 } %3, { i64, i64 }* %fToCall, align 8, !dbg !1284
  ret void, !dbg !1286
}

; Function Attrs: noinline uwtable
define dso_local void @_ZN11xercesc_2_76XMLURL6setURLEPKtS2_(%"class.xercesc_2_7::XMLURL"* %this, i16* %baseURL, i16* %relativeURL) #3 align 2 personality i8* bitcast (i32 (...)* @__gxx_personality_v0 to i8*) !dbg !1287 {
entry:
  %this.addr = alloca %"class.xercesc_2_7::XMLURL"*, align 8
  %baseURL.addr = alloca i16*, align 8
  %relativeURL.addr = alloca i16*, align 8
  %basePart = alloca %"class.xercesc_2_7::XMLURL", align 8
  %exn.slot = alloca i8*
  %ehselector.slot = alloca i32
  store %"class.xercesc_2_7::XMLURL"* %this, %"class.xercesc_2_7::XMLURL"** %this.addr, align 8
  call void @llvm.dbg.declare(metadata %"class.xercesc_2_7::XMLURL"** %this.addr, metadata !1288, metadata !DIExpression()), !dbg !1289
  store i16* %baseURL, i16** %baseURL.addr, align 8
  call void @llvm.dbg.declare(metadata i16** %baseURL.addr, metadata !1290, metadata !DIExpression()), !dbg !1291
  store i16* %relativeURL, i16** %relativeURL.addr, align 8
  call void @llvm.dbg.declare(metadata i16** %relativeURL.addr, metadata !1292, metadata !DIExpression()), !dbg !1293
  %this1 = load %"class.xercesc_2_7::XMLURL"*, %"class.xercesc_2_7::XMLURL"** %this.addr, align 8
  call void @_ZN11xercesc_2_76XMLURL7cleanUpEv(%"class.xercesc_2_7::XMLURL"* %this1), !dbg !1294
  %0 = load i16*, i16** %relativeURL.addr, align 8, !dbg !1295
  call void @_ZN11xercesc_2_76XMLURL5parseEPKt(%"class.xercesc_2_7::XMLURL"* %this1, i16* %0), !dbg !1296
  %call = call zeroext i1 @_ZNK11xercesc_2_76XMLURL10isRelativeEv(%"class.xercesc_2_7::XMLURL"* %this1), !dbg !1297
  br i1 %call, label %land.lhs.true, label %if.end11, !dbg !1299

land.lhs.true:                                    ; preds = %entry
  %1 = load i16*, i16** %baseURL.addr, align 8, !dbg !1300
  %tobool = icmp ne i16* %1, null, !dbg !1300
  br i1 %tobool, label %if.then, label %if.end11, !dbg !1301

if.then:                                          ; preds = %land.lhs.true
  %2 = load i16*, i16** %baseURL.addr, align 8, !dbg !1302
  %3 = load i16, i16* %2, align 2, !dbg !1305
  %tobool2 = icmp ne i16 %3, 0, !dbg !1305
  br i1 %tobool2, label %if.then3, label %if.end10, !dbg !1306

if.then3:                                         ; preds = %if.then
  call void @llvm.dbg.declare(metadata %"class.xercesc_2_7::XMLURL"* %basePart, metadata !1307, metadata !DIExpression()), !dbg !1309
  %4 = load i16*, i16** %baseURL.addr, align 8, !dbg !1310
  %fMemoryManager = getelementptr inbounds %"class.xercesc_2_7::XMLURL", %"class.xercesc_2_7::XMLURL"* %this1, i32 0, i32 1, !dbg !1311
  %5 = load %"class.xercesc_2_7::MemoryManager"*, %"class.xercesc_2_7::MemoryManager"** %fMemoryManager, align 8, !dbg !1311
  call void @_ZN11xercesc_2_76XMLURLC1EPKtPNS_13MemoryManagerE(%"class.xercesc_2_7::XMLURL"* %basePart, i16* %4, %"class.xercesc_2_7::MemoryManager"* %5), !dbg !1309
  %call4 = invoke zeroext i1 @_ZN11xercesc_2_76XMLURL20conglomerateWithBaseERKS0_b(%"class.xercesc_2_7::XMLURL"* %this1, %"class.xercesc_2_7::XMLURL"* dereferenceable(88) %basePart, i1 zeroext false)
          to label %invoke.cont unwind label %lpad, !dbg !1312

invoke.cont:                                      ; preds = %if.then3
  br i1 %call4, label %if.end, label %if.then5, !dbg !1314

if.then5:                                         ; preds = %invoke.cont
  invoke void @_ZN11xercesc_2_76XMLURL7cleanUpEv(%"class.xercesc_2_7::XMLURL"* %this1)
          to label %invoke.cont6 unwind label %lpad, !dbg !1315

invoke.cont6:                                     ; preds = %if.then5
  %exception = call i8* @__cxa_allocate_exception(i64 48) #9, !dbg !1317
  %6 = bitcast i8* %exception to %"class.xercesc_2_7::MalformedURLException"*, !dbg !1317
  %fMemoryManager7 = getelementptr inbounds %"class.xercesc_2_7::XMLURL", %"class.xercesc_2_7::XMLURL"* %this1, i32 0, i32 1, !dbg !1317
  %7 = load %"class.xercesc_2_7::MemoryManager"*, %"class.xercesc_2_7::MemoryManager"** %fMemoryManager7, align 8, !dbg !1317
  invoke void @_ZN11xercesc_2_721MalformedURLExceptionC2EPKcjNS_10XMLExcepts5CodesEPNS_13MemoryManagerE(%"class.xercesc_2_7::MalformedURLException"* %6, i8* getelementptr inbounds ([11 x i8], [11 x i8]* @.str, i64 0, i64 0), i32 509, i32 107, %"class.xercesc_2_7::MemoryManager"* %7)
          to label %invoke.cont9 unwind label %lpad8, !dbg !1317

invoke.cont9:                                     ; preds = %invoke.cont6
  invoke void @__cxa_throw(i8* %exception, i8* bitcast ({ i8*, i8*, i8* }* @_ZTIN11xercesc_2_721MalformedURLExceptionE to i8*), i8* bitcast (void (%"class.xercesc_2_7::MalformedURLException"*)* @_ZN11xercesc_2_721MalformedURLExceptionD2Ev to i8*)) #11
          to label %unreachable unwind label %lpad, !dbg !1317

lpad:                                             ; preds = %invoke.cont9, %if.then5, %if.then3
  %8 = landingpad { i8*, i32 }
          cleanup, !dbg !1318
  %9 = extractvalue { i8*, i32 } %8, 0, !dbg !1318
  store i8* %9, i8** %exn.slot, align 8, !dbg !1318
  %10 = extractvalue { i8*, i32 } %8, 1, !dbg !1318
  store i32 %10, i32* %ehselector.slot, align 4, !dbg !1318
  br label %ehcleanup, !dbg !1318

lpad8:                                            ; preds = %invoke.cont6
  %11 = landingpad { i8*, i32 }
          cleanup, !dbg !1319
  %12 = extractvalue { i8*, i32 } %11, 0, !dbg !1319
  store i8* %12, i8** %exn.slot, align 8, !dbg !1319
  %13 = extractvalue { i8*, i32 } %11, 1, !dbg !1319
  store i32 %13, i32* %ehselector.slot, align 4, !dbg !1319
  call void @__cxa_free_exception(i8* %exception) #9, !dbg !1317
  br label %ehcleanup, !dbg !1317

if.end:                                           ; preds = %invoke.cont
  call void @_ZN11xercesc_2_76XMLURLD1Ev(%"class.xercesc_2_7::XMLURL"* %basePart) #9, !dbg !1320
  br label %if.end10, !dbg !1321

ehcleanup:                                        ; preds = %lpad8, %lpad
  call void @_ZN11xercesc_2_76XMLURLD1Ev(%"class.xercesc_2_7::XMLURL"* %basePart) #9, !dbg !1320
  br label %eh.resume, !dbg !1320

if.end10:                                         ; preds = %if.end, %if.then
  br label %if.end11, !dbg !1322

if.end11:                                         ; preds = %if.end10, %land.lhs.true, %entry
  ret void, !dbg !1323

eh.resume:                                        ; preds = %ehcleanup
  %exn = load i8*, i8** %exn.slot, align 8, !dbg !1320
  %sel = load i32, i32* %ehselector.slot, align 4, !dbg !1320
  %lpad.val = insertvalue { i8*, i32 } undef, i8* %exn, 0, !dbg !1320
  %lpad.val12 = insertvalue { i8*, i32 } %lpad.val, i32 %sel, 1, !dbg !1320
  resume { i8*, i32 } %lpad.val12, !dbg !1320

unreachable:                                      ; preds = %invoke.cont9
  unreachable
}

declare dso_local i32 @__gxx_personality_v0(...)

; Function Attrs: nounwind readnone
declare i32 @llvm.eh.typeid.for(i8*) #5

declare dso_local i8* @__cxa_begin_catch(i8*)

; Function Attrs: noinline nounwind uwtable
define linkonce_odr dso_local void @_ZN11xercesc_2_717JanitorMemFunCallINS_6XMLURLEE7releaseEv(%"class.xercesc_2_7::JanitorMemFunCall"* %this) #1 comdat align 2 !dbg !1324 {
entry:
  %this.addr = alloca %"class.xercesc_2_7::JanitorMemFunCall"*, align 8
  store %"class.xercesc_2_7::JanitorMemFunCall"* %this, %"class.xercesc_2_7::JanitorMemFunCall"** %this.addr, align 8
  call void @llvm.dbg.declare(metadata %"class.xercesc_2_7::JanitorMemFunCall"** %this.addr, metadata !1325, metadata !DIExpression()), !dbg !1326
  %this1 = load %"class.xercesc_2_7::JanitorMemFunCall"*, %"class.xercesc_2_7::JanitorMemFunCall"** %this.addr, align 8
  %fObject = getelementptr inbounds %"class.xercesc_2_7::JanitorMemFunCall", %"class.xercesc_2_7::JanitorMemFunCall"* %this1, i32 0, i32 0, !dbg !1327
  store %"class.xercesc_2_7::XMLURL"* null, %"class.xercesc_2_7::XMLURL"** %fObject, align 8, !dbg !1328
  %fToCall = getelementptr inbounds %"class.xercesc_2_7::JanitorMemFunCall", %"class.xercesc_2_7::JanitorMemFunCall"* %this1, i32 0, i32 1, !dbg !1329
  store { i64, i64 } zeroinitializer, { i64, i64 }* %fToCall, align 8, !dbg !1330
  ret void, !dbg !1331
}

declare dso_local void @__cxa_rethrow()

declare dso_local void @__cxa_end_catch()

; Function Attrs: noinline noreturn nounwind
define linkonce_odr hidden void @__clang_call_terminate(i8* %0) #6 comdat {
  %2 = call i8* @__cxa_begin_catch(i8* %0) #9
  call void @_ZSt9terminatev() #12
  unreachable
}

declare dso_local void @_ZSt9terminatev()

; Function Attrs: noinline nounwind uwtable
define linkonce_odr dso_local void @_ZN11xercesc_2_717JanitorMemFunCallINS_6XMLURLEED2Ev(%"class.xercesc_2_7::JanitorMemFunCall"* %this) unnamed_addr #1 comdat align 2 personality i8* bitcast (i32 (...)* @__gxx_personality_v0 to i8*) !dbg !1332 {
entry:
  %this.addr = alloca %"class.xercesc_2_7::JanitorMemFunCall"*, align 8
  store %"class.xercesc_2_7::JanitorMemFunCall"* %this, %"class.xercesc_2_7::JanitorMemFunCall"** %this.addr, align 8
  call void @llvm.dbg.declare(metadata %"class.xercesc_2_7::JanitorMemFunCall"** %this.addr, metadata !1333, metadata !DIExpression()), !dbg !1334
  %this1 = load %"class.xercesc_2_7::JanitorMemFunCall"*, %"class.xercesc_2_7::JanitorMemFunCall"** %this.addr, align 8
  %fObject = getelementptr inbounds %"class.xercesc_2_7::JanitorMemFunCall", %"class.xercesc_2_7::JanitorMemFunCall"* %this1, i32 0, i32 0, !dbg !1335
  %0 = load %"class.xercesc_2_7::XMLURL"*, %"class.xercesc_2_7::XMLURL"** %fObject, align 8, !dbg !1335
  %cmp = icmp ne %"class.xercesc_2_7::XMLURL"* %0, null, !dbg !1338
  br i1 %cmp, label %land.lhs.true, label %if.end, !dbg !1339

land.lhs.true:                                    ; preds = %entry
  %fToCall = getelementptr inbounds %"class.xercesc_2_7::JanitorMemFunCall", %"class.xercesc_2_7::JanitorMemFunCall"* %this1, i32 0, i32 1, !dbg !1340
  %1 = load { i64, i64 }, { i64, i64 }* %fToCall, align 8, !dbg !1340
  %lhs.memptr.ptr = extractvalue { i64, i64 } %1, 0, !dbg !1341
  %cmp.ptr = icmp ne i64 %lhs.memptr.ptr, 0, !dbg !1341
  %cmp.ptr.null = icmp ne i64 %lhs.memptr.ptr, 0, !dbg !1341
  %lhs.memptr.adj = extractvalue { i64, i64 } %1, 1, !dbg !1341
  %cmp.adj = icmp ne i64 %lhs.memptr.adj, 0, !dbg !1341
  %2 = and i1 %cmp.ptr.null, %cmp.adj, !dbg !1341
  %memptr.ne = or i1 %cmp.ptr, %2, !dbg !1341
  br i1 %memptr.ne, label %if.then, label %if.end, !dbg !1342

if.then:                                          ; preds = %land.lhs.true
  %fObject2 = getelementptr inbounds %"class.xercesc_2_7::JanitorMemFunCall", %"class.xercesc_2_7::JanitorMemFunCall"* %this1, i32 0, i32 0, !dbg !1343
  %3 = load %"class.xercesc_2_7::XMLURL"*, %"class.xercesc_2_7::XMLURL"** %fObject2, align 8, !dbg !1343
  %fToCall3 = getelementptr inbounds %"class.xercesc_2_7::JanitorMemFunCall", %"class.xercesc_2_7::JanitorMemFunCall"* %this1, i32 0, i32 1, !dbg !1345
  %4 = load { i64, i64 }, { i64, i64 }* %fToCall3, align 8, !dbg !1345
  %memptr.adj = extractvalue { i64, i64 } %4, 1, !dbg !1346
  %5 = bitcast %"class.xercesc_2_7::XMLURL"* %3 to i8*, !dbg !1346
  %6 = getelementptr inbounds i8, i8* %5, i64 %memptr.adj, !dbg !1346
  %this.adjusted = bitcast i8* %6 to %"class.xercesc_2_7::XMLURL"*, !dbg !1346
  %memptr.ptr = extractvalue { i64, i64 } %4, 0, !dbg !1346
  %7 = and i64 %memptr.ptr, 1, !dbg !1346
  %memptr.isvirtual = icmp ne i64 %7, 0, !dbg !1346
  br i1 %memptr.isvirtual, label %memptr.virtual, label %memptr.nonvirtual, !dbg !1346

memptr.virtual:                                   ; preds = %if.then
  %8 = bitcast %"class.xercesc_2_7::XMLURL"* %this.adjusted to i8**, !dbg !1346
  %vtable = load i8*, i8** %8, align 8, !dbg !1346
  %9 = sub i64 %memptr.ptr, 1, !dbg !1346
  %10 = getelementptr i8, i8* %vtable, i64 %9, !dbg !1346, !nosanitize !1061
  %11 = bitcast i8* %10 to void (%"class.xercesc_2_7::XMLURL"*)**, !dbg !1346, !nosanitize !1061
  %memptr.virtualfn = load void (%"class.xercesc_2_7::XMLURL"*)*, void (%"class.xercesc_2_7::XMLURL"*)** %11, align 8, !dbg !1346, !nosanitize !1061
  br label %memptr.end, !dbg !1346

memptr.nonvirtual:                                ; preds = %if.then
  %memptr.nonvirtualfn = inttoptr i64 %memptr.ptr to void (%"class.xercesc_2_7::XMLURL"*)*, !dbg !1346
  br label %memptr.end, !dbg !1346

memptr.end:                                       ; preds = %memptr.nonvirtual, %memptr.virtual
  %12 = phi void (%"class.xercesc_2_7::XMLURL"*)* [ %memptr.virtualfn, %memptr.virtual ], [ %memptr.nonvirtualfn, %memptr.nonvirtual ], !dbg !1346
  invoke void %12(%"class.xercesc_2_7::XMLURL"* %this.adjusted)
          to label %invoke.cont unwind label %terminate.lpad, !dbg !1346

invoke.cont:                                      ; preds = %memptr.end
  br label %if.end, !dbg !1347

if.end:                                           ; preds = %invoke.cont, %land.lhs.true, %entry
  ret void, !dbg !1348

terminate.lpad:                                   ; preds = %memptr.end
  %13 = landingpad { i8*, i32 }
          catch i8* null, !dbg !1346
  %14 = extractvalue { i8*, i32 } %13, 0, !dbg !1346
  call void @__clang_call_terminate(i8* %14) #12, !dbg !1346
  unreachable, !dbg !1346
}

; Function Attrs: noinline uwtable
define dso_local void @_ZN11xercesc_2_76XMLURLC2EPKtPKcPNS_13MemoryManagerE(%"class.xercesc_2_7::XMLURL"* %this, i16* %baseURL, i8* %relativeURL, %"class.xercesc_2_7::MemoryManager"* %manager) unnamed_addr #3 align 2 personality i8* bitcast (i32 (...)* @__gxx_personality_v0 to i8*) !dbg !1349 {
entry:
  %this.addr = alloca %"class.xercesc_2_7::XMLURL"*, align 8
  %baseURL.addr = alloca i16*, align 8
  %relativeURL.addr = alloca i8*, align 8
  %manager.addr = alloca %"class.xercesc_2_7::MemoryManager"*, align 8
  %cleanup = alloca %"class.xercesc_2_7::JanitorMemFunCall", align 8
  %coerce = alloca { i64, i64 }, align 8
  %tmpRel = alloca i16*, align 8
  %exn.slot = alloca i8*
  %ehselector.slot = alloca i32
  %janRel = alloca %"class.xercesc_2_7::ArrayJanitor", align 8
  %0 = alloca %"class.xercesc_2_7::OutOfMemoryException"*, align 8
  store %"class.xercesc_2_7::XMLURL"* %this, %"class.xercesc_2_7::XMLURL"** %this.addr, align 8
  call void @llvm.dbg.declare(metadata %"class.xercesc_2_7::XMLURL"** %this.addr, metadata !1350, metadata !DIExpression()), !dbg !1351
  store i16* %baseURL, i16** %baseURL.addr, align 8
  call void @llvm.dbg.declare(metadata i16** %baseURL.addr, metadata !1352, metadata !DIExpression()), !dbg !1353
  store i8* %relativeURL, i8** %relativeURL.addr, align 8
  call void @llvm.dbg.declare(metadata i8** %relativeURL.addr, metadata !1354, metadata !DIExpression()), !dbg !1355
  store %"class.xercesc_2_7::MemoryManager"* %manager, %"class.xercesc_2_7::MemoryManager"** %manager.addr, align 8
  call void @llvm.dbg.declare(metadata %"class.xercesc_2_7::MemoryManager"** %manager.addr, metadata !1356, metadata !DIExpression()), !dbg !1357
  %this1 = load %"class.xercesc_2_7::XMLURL"*, %"class.xercesc_2_7::XMLURL"** %this.addr, align 8
  %1 = bitcast %"class.xercesc_2_7::XMLURL"* %this1 to %"class.xercesc_2_7::XMemory"*, !dbg !1358
  call void @_ZN11xercesc_2_77XMemoryC2Ev(%"class.xercesc_2_7::XMemory"* %1), !dbg !1359
  %2 = bitcast %"class.xercesc_2_7::XMLURL"* %this1 to i32 (...)***, !dbg !1358
  store i32 (...)** bitcast (i8** getelementptr inbounds ({ [4 x i8*] }, { [4 x i8*] }* @_ZTVN11xercesc_2_76XMLURLE, i32 0, inrange i32 0, i32 2) to i32 (...)**), i32 (...)*** %2, align 8, !dbg !1358
  %fMemoryManager = getelementptr inbounds %"class.xercesc_2_7::XMLURL", %"class.xercesc_2_7::XMLURL"* %this1, i32 0, i32 1, !dbg !1360
  %3 = load %"class.xercesc_2_7::MemoryManager"*, %"class.xercesc_2_7::MemoryManager"** %manager.addr, align 8, !dbg !1361
  store %"class.xercesc_2_7::MemoryManager"* %3, %"class.xercesc_2_7::MemoryManager"** %fMemoryManager, align 8, !dbg !1360
  %fFragment = getelementptr inbounds %"class.xercesc_2_7::XMLURL", %"class.xercesc_2_7::XMLURL"* %this1, i32 0, i32 2, !dbg !1362
  store i16* null, i16** %fFragment, align 8, !dbg !1362
  %fHost = getelementptr inbounds %"class.xercesc_2_7::XMLURL", %"class.xercesc_2_7::XMLURL"* %this1, i32 0, i32 3, !dbg !1363
  store i16* null, i16** %fHost, align 8, !dbg !1363
  %fPassword = getelementptr inbounds %"class.xercesc_2_7::XMLURL", %"class.xercesc_2_7::XMLURL"* %this1, i32 0, i32 4, !dbg !1364
  store i16* null, i16** %fPassword, align 8, !dbg !1364
  %fPath = getelementptr inbounds %"class.xercesc_2_7::XMLURL", %"class.xercesc_2_7::XMLURL"* %this1, i32 0, i32 5, !dbg !1365
  store i16* null, i16** %fPath, align 8, !dbg !1365
  %fPortNum = getelementptr inbounds %"class.xercesc_2_7::XMLURL", %"class.xercesc_2_7::XMLURL"* %this1, i32 0, i32 6, !dbg !1366
  store i32 0, i32* %fPortNum, align 8, !dbg !1366
  %fProtocol = getelementptr inbounds %"class.xercesc_2_7::XMLURL", %"class.xercesc_2_7::XMLURL"* %this1, i32 0, i32 7, !dbg !1367
  store i32 4, i32* %fProtocol, align 4, !dbg !1367
  %fQuery = getelementptr inbounds %"class.xercesc_2_7::XMLURL", %"class.xercesc_2_7::XMLURL"* %this1, i32 0, i32 8, !dbg !1368
  store i16* null, i16** %fQuery, align 8, !dbg !1368
  %fUser = getelementptr inbounds %"class.xercesc_2_7::XMLURL", %"class.xercesc_2_7::XMLURL"* %this1, i32 0, i32 9, !dbg !1369
  store i16* null, i16** %fUser, align 8, !dbg !1369
  %fURLText = getelementptr inbounds %"class.xercesc_2_7::XMLURL", %"class.xercesc_2_7::XMLURL"* %this1, i32 0, i32 10, !dbg !1370
  store i16* null, i16** %fURLText, align 8, !dbg !1370
  %fHasInvalidChar = getelementptr inbounds %"class.xercesc_2_7::XMLURL", %"class.xercesc_2_7::XMLURL"* %this1, i32 0, i32 11, !dbg !1371
  store i8 0, i8* %fHasInvalidChar, align 8, !dbg !1371
  call void @llvm.dbg.declare(metadata %"class.xercesc_2_7::JanitorMemFunCall"* %cleanup, metadata !1372, metadata !DIExpression()), !dbg !1374
  store { i64, i64 } { i64 ptrtoint (void (%"class.xercesc_2_7::XMLURL"*)* @_ZN11xercesc_2_76XMLURL7cleanUpEv to i64), i64 0 }, { i64, i64 }* %coerce, align 8, !dbg !1374
  %4 = getelementptr inbounds { i64, i64 }, { i64, i64 }* %coerce, i32 0, i32 0, !dbg !1374
  %5 = load i64, i64* %4, align 8, !dbg !1374
  %6 = getelementptr inbounds { i64, i64 }, { i64, i64 }* %coerce, i32 0, i32 1, !dbg !1374
  %7 = load i64, i64* %6, align 8, !dbg !1374
  call void @_ZN11xercesc_2_717JanitorMemFunCallINS_6XMLURLEEC2EPS1_MS1_FvvE(%"class.xercesc_2_7::JanitorMemFunCall"* %cleanup, %"class.xercesc_2_7::XMLURL"* %this1, i64 %5, i64 %7), !dbg !1374
  call void @llvm.dbg.declare(metadata i16** %tmpRel, metadata !1375, metadata !DIExpression()), !dbg !1376
  %8 = load i8*, i8** %relativeURL.addr, align 8, !dbg !1377
  %fMemoryManager2 = getelementptr inbounds %"class.xercesc_2_7::XMLURL", %"class.xercesc_2_7::XMLURL"* %this1, i32 0, i32 1, !dbg !1378
  %9 = load %"class.xercesc_2_7::MemoryManager"*, %"class.xercesc_2_7::MemoryManager"** %fMemoryManager2, align 8, !dbg !1378
  %call = invoke i16* @_ZN11xercesc_2_79XMLString9transcodeEPKcPNS_13MemoryManagerE(i8* %8, %"class.xercesc_2_7::MemoryManager"* %9)
          to label %invoke.cont unwind label %lpad, !dbg !1379

invoke.cont:                                      ; preds = %entry
  store i16* %call, i16** %tmpRel, align 8, !dbg !1376
  call void @llvm.dbg.declare(metadata %"class.xercesc_2_7::ArrayJanitor"* %janRel, metadata !1380, metadata !DIExpression()), !dbg !1428
  %10 = load i16*, i16** %tmpRel, align 8, !dbg !1429
  %fMemoryManager3 = getelementptr inbounds %"class.xercesc_2_7::XMLURL", %"class.xercesc_2_7::XMLURL"* %this1, i32 0, i32 1, !dbg !1430
  %11 = load %"class.xercesc_2_7::MemoryManager"*, %"class.xercesc_2_7::MemoryManager"** %fMemoryManager3, align 8, !dbg !1430
  invoke void @_ZN11xercesc_2_712ArrayJanitorItEC2EPtPNS_13MemoryManagerE(%"class.xercesc_2_7::ArrayJanitor"* %janRel, i16* %10, %"class.xercesc_2_7::MemoryManager"* %11)
          to label %invoke.cont4 unwind label %lpad, !dbg !1428

invoke.cont4:                                     ; preds = %invoke.cont
  %12 = load i16*, i16** %baseURL.addr, align 8, !dbg !1431
  %13 = load i16*, i16** %tmpRel, align 8, !dbg !1433
  invoke void @_ZN11xercesc_2_76XMLURL6setURLEPKtS2_(%"class.xercesc_2_7::XMLURL"* %this1, i16* %12, i16* %13)
          to label %invoke.cont6 unwind label %lpad5, !dbg !1434

invoke.cont6:                                     ; preds = %invoke.cont4
  br label %try.cont, !dbg !1435

lpad:                                             ; preds = %invoke.cont, %entry
  %14 = landingpad { i8*, i32 }
          cleanup, !dbg !1436
  %15 = extractvalue { i8*, i32 } %14, 0, !dbg !1436
  store i8* %15, i8** %exn.slot, align 8, !dbg !1436
  %16 = extractvalue { i8*, i32 } %14, 1, !dbg !1436
  store i32 %16, i32* %ehselector.slot, align 4, !dbg !1436
  br label %ehcleanup12, !dbg !1436

lpad5:                                            ; preds = %invoke.cont4
  %17 = landingpad { i8*, i32 }
          cleanup
          catch i8* bitcast ({ i8*, i8*, i8* }* @_ZTIN11xercesc_2_720OutOfMemoryExceptionE to i8*), !dbg !1437
  %18 = extractvalue { i8*, i32 } %17, 0, !dbg !1437
  store i8* %18, i8** %exn.slot, align 8, !dbg !1437
  %19 = extractvalue { i8*, i32 } %17, 1, !dbg !1437
  store i32 %19, i32* %ehselector.slot, align 4, !dbg !1437
  br label %catch.dispatch, !dbg !1437

catch.dispatch:                                   ; preds = %lpad5
  %sel = load i32, i32* %ehselector.slot, align 4, !dbg !1435
  %20 = call i32 @llvm.eh.typeid.for(i8* bitcast ({ i8*, i8*, i8* }* @_ZTIN11xercesc_2_720OutOfMemoryExceptionE to i8*)) #9, !dbg !1435
  %matches = icmp eq i32 %sel, %20, !dbg !1435
  br i1 %matches, label %catch, label %ehcleanup, !dbg !1435

catch:                                            ; preds = %catch.dispatch
  call void @llvm.dbg.declare(metadata %"class.xercesc_2_7::OutOfMemoryException"** %0, metadata !1438, metadata !DIExpression()), !dbg !1439
  %exn = load i8*, i8** %exn.slot, align 8, !dbg !1435
  %21 = call i8* @__cxa_begin_catch(i8* %exn) #9, !dbg !1435
  %exn.byref = bitcast i8* %21 to %"class.xercesc_2_7::OutOfMemoryException"*, !dbg !1435
  store %"class.xercesc_2_7::OutOfMemoryException"* %exn.byref, %"class.xercesc_2_7::OutOfMemoryException"** %0, align 8, !dbg !1435
  invoke void @_ZN11xercesc_2_717JanitorMemFunCallINS_6XMLURLEE7releaseEv(%"class.xercesc_2_7::JanitorMemFunCall"* %cleanup)
          to label %invoke.cont8 unwind label %lpad7, !dbg !1440

invoke.cont8:                                     ; preds = %catch
  invoke void @__cxa_rethrow() #11
          to label %unreachable unwind label %lpad7, !dbg !1442

lpad7:                                            ; preds = %invoke.cont8, %catch
  %22 = landingpad { i8*, i32 }
          cleanup, !dbg !1443
  %23 = extractvalue { i8*, i32 } %22, 0, !dbg !1443
  store i8* %23, i8** %exn.slot, align 8, !dbg !1443
  %24 = extractvalue { i8*, i32 } %22, 1, !dbg !1443
  store i32 %24, i32* %ehselector.slot, align 4, !dbg !1443
  invoke void @__cxa_end_catch()
          to label %invoke.cont9 unwind label %terminate.lpad, !dbg !1444

invoke.cont9:                                     ; preds = %lpad7
  br label %ehcleanup, !dbg !1444

try.cont:                                         ; preds = %invoke.cont6
  invoke void @_ZN11xercesc_2_717JanitorMemFunCallINS_6XMLURLEE7releaseEv(%"class.xercesc_2_7::JanitorMemFunCall"* %cleanup)
          to label %invoke.cont11 unwind label %lpad10, !dbg !1445

invoke.cont11:                                    ; preds = %try.cont
  call void @_ZN11xercesc_2_712ArrayJanitorItED2Ev(%"class.xercesc_2_7::ArrayJanitor"* %janRel) #9, !dbg !1446
  call void @_ZN11xercesc_2_717JanitorMemFunCallINS_6XMLURLEED2Ev(%"class.xercesc_2_7::JanitorMemFunCall"* %cleanup) #9, !dbg !1446
  ret void, !dbg !1446

lpad10:                                           ; preds = %try.cont
  %25 = landingpad { i8*, i32 }
          cleanup, !dbg !1436
  %26 = extractvalue { i8*, i32 } %25, 0, !dbg !1436
  store i8* %26, i8** %exn.slot, align 8, !dbg !1436
  %27 = extractvalue { i8*, i32 } %25, 1, !dbg !1436
  store i32 %27, i32* %ehselector.slot, align 4, !dbg !1436
  br label %ehcleanup, !dbg !1436

ehcleanup:                                        ; preds = %lpad10, %invoke.cont9, %catch.dispatch
  call void @_ZN11xercesc_2_712ArrayJanitorItED2Ev(%"class.xercesc_2_7::ArrayJanitor"* %janRel) #9, !dbg !1446
  br label %ehcleanup12, !dbg !1446

ehcleanup12:                                      ; preds = %ehcleanup, %lpad
  call void @_ZN11xercesc_2_717JanitorMemFunCallINS_6XMLURLEED2Ev(%"class.xercesc_2_7::JanitorMemFunCall"* %cleanup) #9, !dbg !1446
  br label %eh.resume, !dbg !1446

eh.resume:                                        ; preds = %ehcleanup12
  %exn13 = load i8*, i8** %exn.slot, align 8, !dbg !1446
  %sel14 = load i32, i32* %ehselector.slot, align 4, !dbg !1446
  %lpad.val = insertvalue { i8*, i32 } undef, i8* %exn13, 0, !dbg !1446
  %lpad.val15 = insertvalue { i8*, i32 } %lpad.val, i32 %sel14, 1, !dbg !1446
  resume { i8*, i32 } %lpad.val15, !dbg !1446

terminate.lpad:                                   ; preds = %lpad7
  %28 = landingpad { i8*, i32 }
          catch i8* null, !dbg !1444
  %29 = extractvalue { i8*, i32 } %28, 0, !dbg !1444
  call void @__clang_call_terminate(i8* %29) #12, !dbg !1444
  unreachable, !dbg !1444

unreachable:                                      ; preds = %invoke.cont8
  unreachable
}

declare dso_local i16* @_ZN11xercesc_2_79XMLString9transcodeEPKcPNS_13MemoryManagerE(i8*, %"class.xercesc_2_7::MemoryManager"*) #4

; Function Attrs: noinline nounwind uwtable
define linkonce_odr dso_local void @_ZN11xercesc_2_712ArrayJanitorItEC2EPtPNS_13MemoryManagerE(%"class.xercesc_2_7::ArrayJanitor"* %this, i16* %toDelete, %"class.xercesc_2_7::MemoryManager"* %manager) unnamed_addr #1 comdat align 2 !dbg !1447 {
entry:
  %this.addr = alloca %"class.xercesc_2_7::ArrayJanitor"*, align 8
  %toDelete.addr = alloca i16*, align 8
  %manager.addr = alloca %"class.xercesc_2_7::MemoryManager"*, align 8
  store %"class.xercesc_2_7::ArrayJanitor"* %this, %"class.xercesc_2_7::ArrayJanitor"** %this.addr, align 8
  call void @llvm.dbg.declare(metadata %"class.xercesc_2_7::ArrayJanitor"** %this.addr, metadata !1448, metadata !DIExpression()), !dbg !1450
  store i16* %toDelete, i16** %toDelete.addr, align 8
  call void @llvm.dbg.declare(metadata i16** %toDelete.addr, metadata !1451, metadata !DIExpression()), !dbg !1452
  store %"class.xercesc_2_7::MemoryManager"* %manager, %"class.xercesc_2_7::MemoryManager"** %manager.addr, align 8
  call void @llvm.dbg.declare(metadata %"class.xercesc_2_7::MemoryManager"** %manager.addr, metadata !1453, metadata !DIExpression()), !dbg !1454
  %this1 = load %"class.xercesc_2_7::ArrayJanitor"*, %"class.xercesc_2_7::ArrayJanitor"** %this.addr, align 8
  %0 = bitcast %"class.xercesc_2_7::ArrayJanitor"* %this1 to %"class.xercesc_2_7::XMemory"*, !dbg !1455
  call void @_ZN11xercesc_2_77XMemoryC2Ev(%"class.xercesc_2_7::XMemory"* %0), !dbg !1456
  %fData = getelementptr inbounds %"class.xercesc_2_7::ArrayJanitor", %"class.xercesc_2_7::ArrayJanitor"* %this1, i32 0, i32 0, !dbg !1458
  %1 = load i16*, i16** %toDelete.addr, align 8, !dbg !1460
  store i16* %1, i16** %fData, align 8, !dbg !1458
  %fMemoryManager = getelementptr inbounds %"class.xercesc_2_7::ArrayJanitor", %"class.xercesc_2_7::ArrayJanitor"* %this1, i32 0, i32 1, !dbg !1461
  %2 = load %"class.xercesc_2_7::MemoryManager"*, %"class.xercesc_2_7::MemoryManager"** %manager.addr, align 8, !dbg !1462
  store %"class.xercesc_2_7::MemoryManager"* %2, %"class.xercesc_2_7::MemoryManager"** %fMemoryManager, align 8, !dbg !1461
  ret void, !dbg !1463
}

; Function Attrs: noinline nounwind uwtable
define linkonce_odr dso_local void @_ZN11xercesc_2_712ArrayJanitorItED2Ev(%"class.xercesc_2_7::ArrayJanitor"* %this) unnamed_addr #1 comdat align 2 personality i8* bitcast (i32 (...)* @__gxx_personality_v0 to i8*) !dbg !1464 {
entry:
  %this.addr = alloca %"class.xercesc_2_7::ArrayJanitor"*, align 8
  store %"class.xercesc_2_7::ArrayJanitor"* %this, %"class.xercesc_2_7::ArrayJanitor"** %this.addr, align 8
  call void @llvm.dbg.declare(metadata %"class.xercesc_2_7::ArrayJanitor"** %this.addr, metadata !1465, metadata !DIExpression()), !dbg !1466
  %this1 = load %"class.xercesc_2_7::ArrayJanitor"*, %"class.xercesc_2_7::ArrayJanitor"** %this.addr, align 8
  invoke void @_ZN11xercesc_2_712ArrayJanitorItE5resetEPt(%"class.xercesc_2_7::ArrayJanitor"* %this1, i16* null)
          to label %invoke.cont unwind label %terminate.lpad, !dbg !1467

invoke.cont:                                      ; preds = %entry
  ret void, !dbg !1469

terminate.lpad:                                   ; preds = %entry
  %0 = landingpad { i8*, i32 }
          catch i8* null, !dbg !1467
  %1 = extractvalue { i8*, i32 } %0, 0, !dbg !1467
  call void @__clang_call_terminate(i8* %1) #12, !dbg !1467
  unreachable, !dbg !1467
}

; Function Attrs: noinline uwtable
define dso_local void @_ZN11xercesc_2_76XMLURLC2ERKS0_PKt(%"class.xercesc_2_7::XMLURL"* %this, %"class.xercesc_2_7::XMLURL"* dereferenceable(88) %baseURL, i16* %relativeURL) unnamed_addr #3 align 2 personality i8* bitcast (i32 (...)* @__gxx_personality_v0 to i8*) !dbg !1470 {
entry:
  %this.addr = alloca %"class.xercesc_2_7::XMLURL"*, align 8
  %baseURL.addr = alloca %"class.xercesc_2_7::XMLURL"*, align 8
  %relativeURL.addr = alloca i16*, align 8
  %cleanup = alloca %"class.xercesc_2_7::JanitorMemFunCall", align 8
  %coerce = alloca { i64, i64 }, align 8
  %exn.slot = alloca i8*
  %ehselector.slot = alloca i32
  %0 = alloca %"class.xercesc_2_7::OutOfMemoryException"*, align 8
  store %"class.xercesc_2_7::XMLURL"* %this, %"class.xercesc_2_7::XMLURL"** %this.addr, align 8
  call void @llvm.dbg.declare(metadata %"class.xercesc_2_7::XMLURL"** %this.addr, metadata !1471, metadata !DIExpression()), !dbg !1472
  store %"class.xercesc_2_7::XMLURL"* %baseURL, %"class.xercesc_2_7::XMLURL"** %baseURL.addr, align 8
  call void @llvm.dbg.declare(metadata %"class.xercesc_2_7::XMLURL"** %baseURL.addr, metadata !1473, metadata !DIExpression()), !dbg !1474
  store i16* %relativeURL, i16** %relativeURL.addr, align 8
  call void @llvm.dbg.declare(metadata i16** %relativeURL.addr, metadata !1475, metadata !DIExpression()), !dbg !1476
  %this1 = load %"class.xercesc_2_7::XMLURL"*, %"class.xercesc_2_7::XMLURL"** %this.addr, align 8
  %1 = bitcast %"class.xercesc_2_7::XMLURL"* %this1 to %"class.xercesc_2_7::XMemory"*, !dbg !1477
  call void @_ZN11xercesc_2_77XMemoryC2Ev(%"class.xercesc_2_7::XMemory"* %1), !dbg !1478
  %2 = bitcast %"class.xercesc_2_7::XMLURL"* %this1 to i32 (...)***, !dbg !1477
  store i32 (...)** bitcast (i8** getelementptr inbounds ({ [4 x i8*] }, { [4 x i8*] }* @_ZTVN11xercesc_2_76XMLURLE, i32 0, inrange i32 0, i32 2) to i32 (...)**), i32 (...)*** %2, align 8, !dbg !1477
  %fMemoryManager = getelementptr inbounds %"class.xercesc_2_7::XMLURL", %"class.xercesc_2_7::XMLURL"* %this1, i32 0, i32 1, !dbg !1479
  %3 = load %"class.xercesc_2_7::XMLURL"*, %"class.xercesc_2_7::XMLURL"** %baseURL.addr, align 8, !dbg !1480
  %fMemoryManager2 = getelementptr inbounds %"class.xercesc_2_7::XMLURL", %"class.xercesc_2_7::XMLURL"* %3, i32 0, i32 1, !dbg !1481
  %4 = load %"class.xercesc_2_7::MemoryManager"*, %"class.xercesc_2_7::MemoryManager"** %fMemoryManager2, align 8, !dbg !1481
  store %"class.xercesc_2_7::MemoryManager"* %4, %"class.xercesc_2_7::MemoryManager"** %fMemoryManager, align 8, !dbg !1479
  %fFragment = getelementptr inbounds %"class.xercesc_2_7::XMLURL", %"class.xercesc_2_7::XMLURL"* %this1, i32 0, i32 2, !dbg !1482
  store i16* null, i16** %fFragment, align 8, !dbg !1482
  %fHost = getelementptr inbounds %"class.xercesc_2_7::XMLURL", %"class.xercesc_2_7::XMLURL"* %this1, i32 0, i32 3, !dbg !1483
  store i16* null, i16** %fHost, align 8, !dbg !1483
  %fPassword = getelementptr inbounds %"class.xercesc_2_7::XMLURL", %"class.xercesc_2_7::XMLURL"* %this1, i32 0, i32 4, !dbg !1484
  store i16* null, i16** %fPassword, align 8, !dbg !1484
  %fPath = getelementptr inbounds %"class.xercesc_2_7::XMLURL", %"class.xercesc_2_7::XMLURL"* %this1, i32 0, i32 5, !dbg !1485
  store i16* null, i16** %fPath, align 8, !dbg !1485
  %fPortNum = getelementptr inbounds %"class.xercesc_2_7::XMLURL", %"class.xercesc_2_7::XMLURL"* %this1, i32 0, i32 6, !dbg !1486
  store i32 0, i32* %fPortNum, align 8, !dbg !1486
  %fProtocol = getelementptr inbounds %"class.xercesc_2_7::XMLURL", %"class.xercesc_2_7::XMLURL"* %this1, i32 0, i32 7, !dbg !1487
  store i32 4, i32* %fProtocol, align 4, !dbg !1487
  %fQuery = getelementptr inbounds %"class.xercesc_2_7::XMLURL", %"class.xercesc_2_7::XMLURL"* %this1, i32 0, i32 8, !dbg !1488
  store i16* null, i16** %fQuery, align 8, !dbg !1488
  %fUser = getelementptr inbounds %"class.xercesc_2_7::XMLURL", %"class.xercesc_2_7::XMLURL"* %this1, i32 0, i32 9, !dbg !1489
  store i16* null, i16** %fUser, align 8, !dbg !1489
  %fURLText = getelementptr inbounds %"class.xercesc_2_7::XMLURL", %"class.xercesc_2_7::XMLURL"* %this1, i32 0, i32 10, !dbg !1490
  store i16* null, i16** %fURLText, align 8, !dbg !1490
  %fHasInvalidChar = getelementptr inbounds %"class.xercesc_2_7::XMLURL", %"class.xercesc_2_7::XMLURL"* %this1, i32 0, i32 11, !dbg !1491
  store i8 0, i8* %fHasInvalidChar, align 8, !dbg !1491
  call void @llvm.dbg.declare(metadata %"class.xercesc_2_7::JanitorMemFunCall"* %cleanup, metadata !1492, metadata !DIExpression()), !dbg !1494
  store { i64, i64 } { i64 ptrtoint (void (%"class.xercesc_2_7::XMLURL"*)* @_ZN11xercesc_2_76XMLURL7cleanUpEv to i64), i64 0 }, { i64, i64 }* %coerce, align 8, !dbg !1494
  %5 = getelementptr inbounds { i64, i64 }, { i64, i64 }* %coerce, i32 0, i32 0, !dbg !1494
  %6 = load i64, i64* %5, align 8, !dbg !1494
  %7 = getelementptr inbounds { i64, i64 }, { i64, i64 }* %coerce, i32 0, i32 1, !dbg !1494
  %8 = load i64, i64* %7, align 8, !dbg !1494
  call void @_ZN11xercesc_2_717JanitorMemFunCallINS_6XMLURLEEC2EPS1_MS1_FvvE(%"class.xercesc_2_7::JanitorMemFunCall"* %cleanup, %"class.xercesc_2_7::XMLURL"* %this1, i64 %6, i64 %8), !dbg !1494
  %9 = load %"class.xercesc_2_7::XMLURL"*, %"class.xercesc_2_7::XMLURL"** %baseURL.addr, align 8, !dbg !1495
  %10 = load i16*, i16** %relativeURL.addr, align 8, !dbg !1497
  invoke void @_ZN11xercesc_2_76XMLURL6setURLERKS0_PKt(%"class.xercesc_2_7::XMLURL"* %this1, %"class.xercesc_2_7::XMLURL"* dereferenceable(88) %9, i16* %10)
          to label %invoke.cont unwind label %lpad, !dbg !1498

invoke.cont:                                      ; preds = %entry
  br label %try.cont, !dbg !1499

lpad:                                             ; preds = %entry
  %11 = landingpad { i8*, i32 }
          cleanup
          catch i8* bitcast ({ i8*, i8*, i8* }* @_ZTIN11xercesc_2_720OutOfMemoryExceptionE to i8*), !dbg !1500
  %12 = extractvalue { i8*, i32 } %11, 0, !dbg !1500
  store i8* %12, i8** %exn.slot, align 8, !dbg !1500
  %13 = extractvalue { i8*, i32 } %11, 1, !dbg !1500
  store i32 %13, i32* %ehselector.slot, align 4, !dbg !1500
  br label %catch.dispatch, !dbg !1500

catch.dispatch:                                   ; preds = %lpad
  %sel = load i32, i32* %ehselector.slot, align 4, !dbg !1499
  %14 = call i32 @llvm.eh.typeid.for(i8* bitcast ({ i8*, i8*, i8* }* @_ZTIN11xercesc_2_720OutOfMemoryExceptionE to i8*)) #9, !dbg !1499
  %matches = icmp eq i32 %sel, %14, !dbg !1499
  br i1 %matches, label %catch, label %ehcleanup, !dbg !1499

catch:                                            ; preds = %catch.dispatch
  call void @llvm.dbg.declare(metadata %"class.xercesc_2_7::OutOfMemoryException"** %0, metadata !1501, metadata !DIExpression()), !dbg !1502
  %exn = load i8*, i8** %exn.slot, align 8, !dbg !1499
  %15 = call i8* @__cxa_begin_catch(i8* %exn) #9, !dbg !1499
  %exn.byref = bitcast i8* %15 to %"class.xercesc_2_7::OutOfMemoryException"*, !dbg !1499
  store %"class.xercesc_2_7::OutOfMemoryException"* %exn.byref, %"class.xercesc_2_7::OutOfMemoryException"** %0, align 8, !dbg !1499
  invoke void @_ZN11xercesc_2_717JanitorMemFunCallINS_6XMLURLEE7releaseEv(%"class.xercesc_2_7::JanitorMemFunCall"* %cleanup)
          to label %invoke.cont4 unwind label %lpad3, !dbg !1503

invoke.cont4:                                     ; preds = %catch
  invoke void @__cxa_rethrow() #11
          to label %unreachable unwind label %lpad3, !dbg !1505

lpad3:                                            ; preds = %invoke.cont4, %catch
  %16 = landingpad { i8*, i32 }
          cleanup, !dbg !1506
  %17 = extractvalue { i8*, i32 } %16, 0, !dbg !1506
  store i8* %17, i8** %exn.slot, align 8, !dbg !1506
  %18 = extractvalue { i8*, i32 } %16, 1, !dbg !1506
  store i32 %18, i32* %ehselector.slot, align 4, !dbg !1506
  invoke void @__cxa_end_catch()
          to label %invoke.cont5 unwind label %terminate.lpad, !dbg !1507

invoke.cont5:                                     ; preds = %lpad3
  br label %ehcleanup, !dbg !1507

try.cont:                                         ; preds = %invoke.cont
  invoke void @_ZN11xercesc_2_717JanitorMemFunCallINS_6XMLURLEE7releaseEv(%"class.xercesc_2_7::JanitorMemFunCall"* %cleanup)
          to label %invoke.cont7 unwind label %lpad6, !dbg !1508

invoke.cont7:                                     ; preds = %try.cont
  call void @_ZN11xercesc_2_717JanitorMemFunCallINS_6XMLURLEED2Ev(%"class.xercesc_2_7::JanitorMemFunCall"* %cleanup) #9, !dbg !1509
  ret void, !dbg !1509

lpad6:                                            ; preds = %try.cont
  %19 = landingpad { i8*, i32 }
          cleanup, !dbg !1510
  %20 = extractvalue { i8*, i32 } %19, 0, !dbg !1510
  store i8* %20, i8** %exn.slot, align 8, !dbg !1510
  %21 = extractvalue { i8*, i32 } %19, 1, !dbg !1510
  store i32 %21, i32* %ehselector.slot, align 4, !dbg !1510
  br label %ehcleanup, !dbg !1510

ehcleanup:                                        ; preds = %lpad6, %invoke.cont5, %catch.dispatch
  call void @_ZN11xercesc_2_717JanitorMemFunCallINS_6XMLURLEED2Ev(%"class.xercesc_2_7::JanitorMemFunCall"* %cleanup) #9, !dbg !1509
  br label %eh.resume, !dbg !1509

eh.resume:                                        ; preds = %ehcleanup
  %exn8 = load i8*, i8** %exn.slot, align 8, !dbg !1509
  %sel9 = load i32, i32* %ehselector.slot, align 4, !dbg !1509
  %lpad.val = insertvalue { i8*, i32 } undef, i8* %exn8, 0, !dbg !1509
  %lpad.val10 = insertvalue { i8*, i32 } %lpad.val, i32 %sel9, 1, !dbg !1509
  resume { i8*, i32 } %lpad.val10, !dbg !1509

terminate.lpad:                                   ; preds = %lpad3
  %22 = landingpad { i8*, i32 }
          catch i8* null, !dbg !1507
  %23 = extractvalue { i8*, i32 } %22, 0, !dbg !1507
  call void @__clang_call_terminate(i8* %23) #12, !dbg !1507
  unreachable, !dbg !1507

unreachable:                                      ; preds = %invoke.cont4
  unreachable
}

; Function Attrs: noinline uwtable
define dso_local void @_ZN11xercesc_2_76XMLURL6setURLERKS0_PKt(%"class.xercesc_2_7::XMLURL"* %this, %"class.xercesc_2_7::XMLURL"* dereferenceable(88) %baseURL, i16* %relativeURL) #3 align 2 !dbg !1511 {
entry:
  %this.addr = alloca %"class.xercesc_2_7::XMLURL"*, align 8
  %baseURL.addr = alloca %"class.xercesc_2_7::XMLURL"*, align 8
  %relativeURL.addr = alloca i16*, align 8
  store %"class.xercesc_2_7::XMLURL"* %this, %"class.xercesc_2_7::XMLURL"** %this.addr, align 8
  call void @llvm.dbg.declare(metadata %"class.xercesc_2_7::XMLURL"** %this.addr, metadata !1512, metadata !DIExpression()), !dbg !1513
  store %"class.xercesc_2_7::XMLURL"* %baseURL, %"class.xercesc_2_7::XMLURL"** %baseURL.addr, align 8
  call void @llvm.dbg.declare(metadata %"class.xercesc_2_7::XMLURL"** %baseURL.addr, metadata !1514, metadata !DIExpression()), !dbg !1515
  store i16* %relativeURL, i16** %relativeURL.addr, align 8
  call void @llvm.dbg.declare(metadata i16** %relativeURL.addr, metadata !1516, metadata !DIExpression()), !dbg !1517
  %this1 = load %"class.xercesc_2_7::XMLURL"*, %"class.xercesc_2_7::XMLURL"** %this.addr, align 8
  call void @_ZN11xercesc_2_76XMLURL7cleanUpEv(%"class.xercesc_2_7::XMLURL"* %this1), !dbg !1518
  %0 = load i16*, i16** %relativeURL.addr, align 8, !dbg !1519
  call void @_ZN11xercesc_2_76XMLURL5parseEPKt(%"class.xercesc_2_7::XMLURL"* %this1, i16* %0), !dbg !1520
  %call = call zeroext i1 @_ZNK11xercesc_2_76XMLURL10isRelativeEv(%"class.xercesc_2_7::XMLURL"* %this1), !dbg !1521
  br i1 %call, label %if.then, label %if.end, !dbg !1523

if.then:                                          ; preds = %entry
  %1 = load %"class.xercesc_2_7::XMLURL"*, %"class.xercesc_2_7::XMLURL"** %baseURL.addr, align 8, !dbg !1524
  %call2 = call zeroext i1 @_ZN11xercesc_2_76XMLURL20conglomerateWithBaseERKS0_b(%"class.xercesc_2_7::XMLURL"* %this1, %"class.xercesc_2_7::XMLURL"* dereferenceable(88) %1, i1 zeroext true), !dbg !1525
  br label %if.end, !dbg !1525

if.end:                                           ; preds = %if.then, %entry
  ret void, !dbg !1526
}

; Function Attrs: noinline uwtable
define dso_local void @_ZN11xercesc_2_76XMLURLC2ERKS0_PKc(%"class.xercesc_2_7::XMLURL"* %this, %"class.xercesc_2_7::XMLURL"* dereferenceable(88) %baseURL, i8* %relativeURL) unnamed_addr #3 align 2 personality i8* bitcast (i32 (...)* @__gxx_personality_v0 to i8*) !dbg !1527 {
entry:
  %this.addr = alloca %"class.xercesc_2_7::XMLURL"*, align 8
  %baseURL.addr = alloca %"class.xercesc_2_7::XMLURL"*, align 8
  %relativeURL.addr = alloca i8*, align 8
  %cleanup = alloca %"class.xercesc_2_7::JanitorMemFunCall", align 8
  %coerce = alloca { i64, i64 }, align 8
  %tmpRel = alloca i16*, align 8
  %exn.slot = alloca i8*
  %ehselector.slot = alloca i32
  %janRel = alloca %"class.xercesc_2_7::ArrayJanitor", align 8
  %0 = alloca %"class.xercesc_2_7::OutOfMemoryException"*, align 8
  store %"class.xercesc_2_7::XMLURL"* %this, %"class.xercesc_2_7::XMLURL"** %this.addr, align 8
  call void @llvm.dbg.declare(metadata %"class.xercesc_2_7::XMLURL"** %this.addr, metadata !1528, metadata !DIExpression()), !dbg !1529
  store %"class.xercesc_2_7::XMLURL"* %baseURL, %"class.xercesc_2_7::XMLURL"** %baseURL.addr, align 8
  call void @llvm.dbg.declare(metadata %"class.xercesc_2_7::XMLURL"** %baseURL.addr, metadata !1530, metadata !DIExpression()), !dbg !1531
  store i8* %relativeURL, i8** %relativeURL.addr, align 8
  call void @llvm.dbg.declare(metadata i8** %relativeURL.addr, metadata !1532, metadata !DIExpression()), !dbg !1533
  %this1 = load %"class.xercesc_2_7::XMLURL"*, %"class.xercesc_2_7::XMLURL"** %this.addr, align 8
  %1 = bitcast %"class.xercesc_2_7::XMLURL"* %this1 to %"class.xercesc_2_7::XMemory"*, !dbg !1534
  call void @_ZN11xercesc_2_77XMemoryC2Ev(%"class.xercesc_2_7::XMemory"* %1), !dbg !1535
  %2 = bitcast %"class.xercesc_2_7::XMLURL"* %this1 to i32 (...)***, !dbg !1534
  store i32 (...)** bitcast (i8** getelementptr inbounds ({ [4 x i8*] }, { [4 x i8*] }* @_ZTVN11xercesc_2_76XMLURLE, i32 0, inrange i32 0, i32 2) to i32 (...)**), i32 (...)*** %2, align 8, !dbg !1534
  %fMemoryManager = getelementptr inbounds %"class.xercesc_2_7::XMLURL", %"class.xercesc_2_7::XMLURL"* %this1, i32 0, i32 1, !dbg !1536
  %3 = load %"class.xercesc_2_7::XMLURL"*, %"class.xercesc_2_7::XMLURL"** %baseURL.addr, align 8, !dbg !1537
  %fMemoryManager2 = getelementptr inbounds %"class.xercesc_2_7::XMLURL", %"class.xercesc_2_7::XMLURL"* %3, i32 0, i32 1, !dbg !1538
  %4 = load %"class.xercesc_2_7::MemoryManager"*, %"class.xercesc_2_7::MemoryManager"** %fMemoryManager2, align 8, !dbg !1538
  store %"class.xercesc_2_7::MemoryManager"* %4, %"class.xercesc_2_7::MemoryManager"** %fMemoryManager, align 8, !dbg !1536
  %fFragment = getelementptr inbounds %"class.xercesc_2_7::XMLURL", %"class.xercesc_2_7::XMLURL"* %this1, i32 0, i32 2, !dbg !1539
  store i16* null, i16** %fFragment, align 8, !dbg !1539
  %fHost = getelementptr inbounds %"class.xercesc_2_7::XMLURL", %"class.xercesc_2_7::XMLURL"* %this1, i32 0, i32 3, !dbg !1540
  store i16* null, i16** %fHost, align 8, !dbg !1540
  %fPassword = getelementptr inbounds %"class.xercesc_2_7::XMLURL", %"class.xercesc_2_7::XMLURL"* %this1, i32 0, i32 4, !dbg !1541
  store i16* null, i16** %fPassword, align 8, !dbg !1541
  %fPath = getelementptr inbounds %"class.xercesc_2_7::XMLURL", %"class.xercesc_2_7::XMLURL"* %this1, i32 0, i32 5, !dbg !1542
  store i16* null, i16** %fPath, align 8, !dbg !1542
  %fPortNum = getelementptr inbounds %"class.xercesc_2_7::XMLURL", %"class.xercesc_2_7::XMLURL"* %this1, i32 0, i32 6, !dbg !1543
  store i32 0, i32* %fPortNum, align 8, !dbg !1543
  %fProtocol = getelementptr inbounds %"class.xercesc_2_7::XMLURL", %"class.xercesc_2_7::XMLURL"* %this1, i32 0, i32 7, !dbg !1544
  store i32 4, i32* %fProtocol, align 4, !dbg !1544
  %fQuery = getelementptr inbounds %"class.xercesc_2_7::XMLURL", %"class.xercesc_2_7::XMLURL"* %this1, i32 0, i32 8, !dbg !1545
  store i16* null, i16** %fQuery, align 8, !dbg !1545
  %fUser = getelementptr inbounds %"class.xercesc_2_7::XMLURL", %"class.xercesc_2_7::XMLURL"* %this1, i32 0, i32 9, !dbg !1546
  store i16* null, i16** %fUser, align 8, !dbg !1546
  %fURLText = getelementptr inbounds %"class.xercesc_2_7::XMLURL", %"class.xercesc_2_7::XMLURL"* %this1, i32 0, i32 10, !dbg !1547
  store i16* null, i16** %fURLText, align 8, !dbg !1547
  %fHasInvalidChar = getelementptr inbounds %"class.xercesc_2_7::XMLURL", %"class.xercesc_2_7::XMLURL"* %this1, i32 0, i32 11, !dbg !1548
  store i8 0, i8* %fHasInvalidChar, align 8, !dbg !1548
  call void @llvm.dbg.declare(metadata %"class.xercesc_2_7::JanitorMemFunCall"* %cleanup, metadata !1549, metadata !DIExpression()), !dbg !1551
  store { i64, i64 } { i64 ptrtoint (void (%"class.xercesc_2_7::XMLURL"*)* @_ZN11xercesc_2_76XMLURL7cleanUpEv to i64), i64 0 }, { i64, i64 }* %coerce, align 8, !dbg !1551
  %5 = getelementptr inbounds { i64, i64 }, { i64, i64 }* %coerce, i32 0, i32 0, !dbg !1551
  %6 = load i64, i64* %5, align 8, !dbg !1551
  %7 = getelementptr inbounds { i64, i64 }, { i64, i64 }* %coerce, i32 0, i32 1, !dbg !1551
  %8 = load i64, i64* %7, align 8, !dbg !1551
  call void @_ZN11xercesc_2_717JanitorMemFunCallINS_6XMLURLEEC2EPS1_MS1_FvvE(%"class.xercesc_2_7::JanitorMemFunCall"* %cleanup, %"class.xercesc_2_7::XMLURL"* %this1, i64 %6, i64 %8), !dbg !1551
  call void @llvm.dbg.declare(metadata i16** %tmpRel, metadata !1552, metadata !DIExpression()), !dbg !1553
  %9 = load i8*, i8** %relativeURL.addr, align 8, !dbg !1554
  %fMemoryManager3 = getelementptr inbounds %"class.xercesc_2_7::XMLURL", %"class.xercesc_2_7::XMLURL"* %this1, i32 0, i32 1, !dbg !1555
  %10 = load %"class.xercesc_2_7::MemoryManager"*, %"class.xercesc_2_7::MemoryManager"** %fMemoryManager3, align 8, !dbg !1555
  %call = invoke i16* @_ZN11xercesc_2_79XMLString9transcodeEPKcPNS_13MemoryManagerE(i8* %9, %"class.xercesc_2_7::MemoryManager"* %10)
          to label %invoke.cont unwind label %lpad, !dbg !1556

invoke.cont:                                      ; preds = %entry
  store i16* %call, i16** %tmpRel, align 8, !dbg !1553
  call void @llvm.dbg.declare(metadata %"class.xercesc_2_7::ArrayJanitor"* %janRel, metadata !1557, metadata !DIExpression()), !dbg !1558
  %11 = load i16*, i16** %tmpRel, align 8, !dbg !1559
  %fMemoryManager4 = getelementptr inbounds %"class.xercesc_2_7::XMLURL", %"class.xercesc_2_7::XMLURL"* %this1, i32 0, i32 1, !dbg !1560
  %12 = load %"class.xercesc_2_7::MemoryManager"*, %"class.xercesc_2_7::MemoryManager"** %fMemoryManager4, align 8, !dbg !1560
  invoke void @_ZN11xercesc_2_712ArrayJanitorItEC2EPtPNS_13MemoryManagerE(%"class.xercesc_2_7::ArrayJanitor"* %janRel, i16* %11, %"class.xercesc_2_7::MemoryManager"* %12)
          to label %invoke.cont5 unwind label %lpad, !dbg !1558

invoke.cont5:                                     ; preds = %invoke.cont
  %13 = load %"class.xercesc_2_7::XMLURL"*, %"class.xercesc_2_7::XMLURL"** %baseURL.addr, align 8, !dbg !1561
  %14 = load i16*, i16** %tmpRel, align 8, !dbg !1563
  invoke void @_ZN11xercesc_2_76XMLURL6setURLERKS0_PKt(%"class.xercesc_2_7::XMLURL"* %this1, %"class.xercesc_2_7::XMLURL"* dereferenceable(88) %13, i16* %14)
          to label %invoke.cont7 unwind label %lpad6, !dbg !1564

invoke.cont7:                                     ; preds = %invoke.cont5
  br label %try.cont, !dbg !1565

lpad:                                             ; preds = %invoke.cont, %entry
  %15 = landingpad { i8*, i32 }
          cleanup, !dbg !1566
  %16 = extractvalue { i8*, i32 } %15, 0, !dbg !1566
  store i8* %16, i8** %exn.slot, align 8, !dbg !1566
  %17 = extractvalue { i8*, i32 } %15, 1, !dbg !1566
  store i32 %17, i32* %ehselector.slot, align 4, !dbg !1566
  br label %ehcleanup13, !dbg !1566

lpad6:                                            ; preds = %invoke.cont5
  %18 = landingpad { i8*, i32 }
          cleanup
          catch i8* bitcast ({ i8*, i8*, i8* }* @_ZTIN11xercesc_2_720OutOfMemoryExceptionE to i8*), !dbg !1567
  %19 = extractvalue { i8*, i32 } %18, 0, !dbg !1567
  store i8* %19, i8** %exn.slot, align 8, !dbg !1567
  %20 = extractvalue { i8*, i32 } %18, 1, !dbg !1567
  store i32 %20, i32* %ehselector.slot, align 4, !dbg !1567
  br label %catch.dispatch, !dbg !1567

catch.dispatch:                                   ; preds = %lpad6
  %sel = load i32, i32* %ehselector.slot, align 4, !dbg !1565
  %21 = call i32 @llvm.eh.typeid.for(i8* bitcast ({ i8*, i8*, i8* }* @_ZTIN11xercesc_2_720OutOfMemoryExceptionE to i8*)) #9, !dbg !1565
  %matches = icmp eq i32 %sel, %21, !dbg !1565
  br i1 %matches, label %catch, label %ehcleanup, !dbg !1565

catch:                                            ; preds = %catch.dispatch
  call void @llvm.dbg.declare(metadata %"class.xercesc_2_7::OutOfMemoryException"** %0, metadata !1568, metadata !DIExpression()), !dbg !1569
  %exn = load i8*, i8** %exn.slot, align 8, !dbg !1565
  %22 = call i8* @__cxa_begin_catch(i8* %exn) #9, !dbg !1565
  %exn.byref = bitcast i8* %22 to %"class.xercesc_2_7::OutOfMemoryException"*, !dbg !1565
  store %"class.xercesc_2_7::OutOfMemoryException"* %exn.byref, %"class.xercesc_2_7::OutOfMemoryException"** %0, align 8, !dbg !1565
  invoke void @_ZN11xercesc_2_717JanitorMemFunCallINS_6XMLURLEE7releaseEv(%"class.xercesc_2_7::JanitorMemFunCall"* %cleanup)
          to label %invoke.cont9 unwind label %lpad8, !dbg !1570

invoke.cont9:                                     ; preds = %catch
  invoke void @__cxa_rethrow() #11
          to label %unreachable unwind label %lpad8, !dbg !1572

lpad8:                                            ; preds = %invoke.cont9, %catch
  %23 = landingpad { i8*, i32 }
          cleanup, !dbg !1573
  %24 = extractvalue { i8*, i32 } %23, 0, !dbg !1573
  store i8* %24, i8** %exn.slot, align 8, !dbg !1573
  %25 = extractvalue { i8*, i32 } %23, 1, !dbg !1573
  store i32 %25, i32* %ehselector.slot, align 4, !dbg !1573
  invoke void @__cxa_end_catch()
          to label %invoke.cont10 unwind label %terminate.lpad, !dbg !1574

invoke.cont10:                                    ; preds = %lpad8
  br label %ehcleanup, !dbg !1574

try.cont:                                         ; preds = %invoke.cont7
  invoke void @_ZN11xercesc_2_717JanitorMemFunCallINS_6XMLURLEE7releaseEv(%"class.xercesc_2_7::JanitorMemFunCall"* %cleanup)
          to label %invoke.cont12 unwind label %lpad11, !dbg !1575

invoke.cont12:                                    ; preds = %try.cont
  call void @_ZN11xercesc_2_712ArrayJanitorItED2Ev(%"class.xercesc_2_7::ArrayJanitor"* %janRel) #9, !dbg !1576
  call void @_ZN11xercesc_2_717JanitorMemFunCallINS_6XMLURLEED2Ev(%"class.xercesc_2_7::JanitorMemFunCall"* %cleanup) #9, !dbg !1576
  ret void, !dbg !1576

lpad11:                                           ; preds = %try.cont
  %26 = landingpad { i8*, i32 }
          cleanup, !dbg !1566
  %27 = extractvalue { i8*, i32 } %26, 0, !dbg !1566
  store i8* %27, i8** %exn.slot, align 8, !dbg !1566
  %28 = extractvalue { i8*, i32 } %26, 1, !dbg !1566
  store i32 %28, i32* %ehselector.slot, align 4, !dbg !1566
  br label %ehcleanup, !dbg !1566

ehcleanup:                                        ; preds = %lpad11, %invoke.cont10, %catch.dispatch
  call void @_ZN11xercesc_2_712ArrayJanitorItED2Ev(%"class.xercesc_2_7::ArrayJanitor"* %janRel) #9, !dbg !1576
  br label %ehcleanup13, !dbg !1576

ehcleanup13:                                      ; preds = %ehcleanup, %lpad
  call void @_ZN11xercesc_2_717JanitorMemFunCallINS_6XMLURLEED2Ev(%"class.xercesc_2_7::JanitorMemFunCall"* %cleanup) #9, !dbg !1576
  br label %eh.resume, !dbg !1576

eh.resume:                                        ; preds = %ehcleanup13
  %exn14 = load i8*, i8** %exn.slot, align 8, !dbg !1576
  %sel15 = load i32, i32* %ehselector.slot, align 4, !dbg !1576
  %lpad.val = insertvalue { i8*, i32 } undef, i8* %exn14, 0, !dbg !1576
  %lpad.val16 = insertvalue { i8*, i32 } %lpad.val, i32 %sel15, 1, !dbg !1576
  resume { i8*, i32 } %lpad.val16, !dbg !1576

terminate.lpad:                                   ; preds = %lpad8
  %29 = landingpad { i8*, i32 }
          catch i8* null, !dbg !1574
  %30 = extractvalue { i8*, i32 } %29, 0, !dbg !1574
  call void @__clang_call_terminate(i8* %30) #12, !dbg !1574
  unreachable, !dbg !1574

unreachable:                                      ; preds = %invoke.cont9
  unreachable
}

; Function Attrs: noinline uwtable
define dso_local void @_ZN11xercesc_2_76XMLURLC2EPKtPNS_13MemoryManagerE(%"class.xercesc_2_7::XMLURL"* %this, i16* %urlText, %"class.xercesc_2_7::MemoryManager"* %manager) unnamed_addr #3 align 2 personality i8* bitcast (i32 (...)* @__gxx_personality_v0 to i8*) !dbg !1577 {
entry:
  %this.addr = alloca %"class.xercesc_2_7::XMLURL"*, align 8
  %urlText.addr = alloca i16*, align 8
  %manager.addr = alloca %"class.xercesc_2_7::MemoryManager"*, align 8
  %cleanup = alloca %"class.xercesc_2_7::JanitorMemFunCall", align 8
  %coerce = alloca { i64, i64 }, align 8
  %exn.slot = alloca i8*
  %ehselector.slot = alloca i32
  %0 = alloca %"class.xercesc_2_7::OutOfMemoryException"*, align 8
  store %"class.xercesc_2_7::XMLURL"* %this, %"class.xercesc_2_7::XMLURL"** %this.addr, align 8
  call void @llvm.dbg.declare(metadata %"class.xercesc_2_7::XMLURL"** %this.addr, metadata !1578, metadata !DIExpression()), !dbg !1579
  store i16* %urlText, i16** %urlText.addr, align 8
  call void @llvm.dbg.declare(metadata i16** %urlText.addr, metadata !1580, metadata !DIExpression()), !dbg !1581
  store %"class.xercesc_2_7::MemoryManager"* %manager, %"class.xercesc_2_7::MemoryManager"** %manager.addr, align 8
  call void @llvm.dbg.declare(metadata %"class.xercesc_2_7::MemoryManager"** %manager.addr, metadata !1582, metadata !DIExpression()), !dbg !1583
  %this1 = load %"class.xercesc_2_7::XMLURL"*, %"class.xercesc_2_7::XMLURL"** %this.addr, align 8
  %1 = bitcast %"class.xercesc_2_7::XMLURL"* %this1 to %"class.xercesc_2_7::XMemory"*, !dbg !1584
  call void @_ZN11xercesc_2_77XMemoryC2Ev(%"class.xercesc_2_7::XMemory"* %1), !dbg !1585
  %2 = bitcast %"class.xercesc_2_7::XMLURL"* %this1 to i32 (...)***, !dbg !1584
  store i32 (...)** bitcast (i8** getelementptr inbounds ({ [4 x i8*] }, { [4 x i8*] }* @_ZTVN11xercesc_2_76XMLURLE, i32 0, inrange i32 0, i32 2) to i32 (...)**), i32 (...)*** %2, align 8, !dbg !1584
  %fMemoryManager = getelementptr inbounds %"class.xercesc_2_7::XMLURL", %"class.xercesc_2_7::XMLURL"* %this1, i32 0, i32 1, !dbg !1586
  %3 = load %"class.xercesc_2_7::MemoryManager"*, %"class.xercesc_2_7::MemoryManager"** %manager.addr, align 8, !dbg !1587
  store %"class.xercesc_2_7::MemoryManager"* %3, %"class.xercesc_2_7::MemoryManager"** %fMemoryManager, align 8, !dbg !1586
  %fFragment = getelementptr inbounds %"class.xercesc_2_7::XMLURL", %"class.xercesc_2_7::XMLURL"* %this1, i32 0, i32 2, !dbg !1588
  store i16* null, i16** %fFragment, align 8, !dbg !1588
  %fHost = getelementptr inbounds %"class.xercesc_2_7::XMLURL", %"class.xercesc_2_7::XMLURL"* %this1, i32 0, i32 3, !dbg !1589
  store i16* null, i16** %fHost, align 8, !dbg !1589
  %fPassword = getelementptr inbounds %"class.xercesc_2_7::XMLURL", %"class.xercesc_2_7::XMLURL"* %this1, i32 0, i32 4, !dbg !1590
  store i16* null, i16** %fPassword, align 8, !dbg !1590
  %fPath = getelementptr inbounds %"class.xercesc_2_7::XMLURL", %"class.xercesc_2_7::XMLURL"* %this1, i32 0, i32 5, !dbg !1591
  store i16* null, i16** %fPath, align 8, !dbg !1591
  %fPortNum = getelementptr inbounds %"class.xercesc_2_7::XMLURL", %"class.xercesc_2_7::XMLURL"* %this1, i32 0, i32 6, !dbg !1592
  store i32 0, i32* %fPortNum, align 8, !dbg !1592
  %fProtocol = getelementptr inbounds %"class.xercesc_2_7::XMLURL", %"class.xercesc_2_7::XMLURL"* %this1, i32 0, i32 7, !dbg !1593
  store i32 4, i32* %fProtocol, align 4, !dbg !1593
  %fQuery = getelementptr inbounds %"class.xercesc_2_7::XMLURL", %"class.xercesc_2_7::XMLURL"* %this1, i32 0, i32 8, !dbg !1594
  store i16* null, i16** %fQuery, align 8, !dbg !1594
  %fUser = getelementptr inbounds %"class.xercesc_2_7::XMLURL", %"class.xercesc_2_7::XMLURL"* %this1, i32 0, i32 9, !dbg !1595
  store i16* null, i16** %fUser, align 8, !dbg !1595
  %fURLText = getelementptr inbounds %"class.xercesc_2_7::XMLURL", %"class.xercesc_2_7::XMLURL"* %this1, i32 0, i32 10, !dbg !1596
  store i16* null, i16** %fURLText, align 8, !dbg !1596
  %fHasInvalidChar = getelementptr inbounds %"class.xercesc_2_7::XMLURL", %"class.xercesc_2_7::XMLURL"* %this1, i32 0, i32 11, !dbg !1597
  store i8 0, i8* %fHasInvalidChar, align 8, !dbg !1597
  call void @llvm.dbg.declare(metadata %"class.xercesc_2_7::JanitorMemFunCall"* %cleanup, metadata !1598, metadata !DIExpression()), !dbg !1600
  store { i64, i64 } { i64 ptrtoint (void (%"class.xercesc_2_7::XMLURL"*)* @_ZN11xercesc_2_76XMLURL7cleanUpEv to i64), i64 0 }, { i64, i64 }* %coerce, align 8, !dbg !1600
  %4 = getelementptr inbounds { i64, i64 }, { i64, i64 }* %coerce, i32 0, i32 0, !dbg !1600
  %5 = load i64, i64* %4, align 8, !dbg !1600
  %6 = getelementptr inbounds { i64, i64 }, { i64, i64 }* %coerce, i32 0, i32 1, !dbg !1600
  %7 = load i64, i64* %6, align 8, !dbg !1600
  call void @_ZN11xercesc_2_717JanitorMemFunCallINS_6XMLURLEEC2EPS1_MS1_FvvE(%"class.xercesc_2_7::JanitorMemFunCall"* %cleanup, %"class.xercesc_2_7::XMLURL"* %this1, i64 %5, i64 %7), !dbg !1600
  %8 = load i16*, i16** %urlText.addr, align 8, !dbg !1601
  invoke void @_ZN11xercesc_2_76XMLURL6setURLEPKt(%"class.xercesc_2_7::XMLURL"* %this1, i16* %8)
          to label %invoke.cont unwind label %lpad, !dbg !1603

invoke.cont:                                      ; preds = %entry
  br label %try.cont, !dbg !1604

lpad:                                             ; preds = %entry
  %9 = landingpad { i8*, i32 }
          cleanup
          catch i8* bitcast ({ i8*, i8*, i8* }* @_ZTIN11xercesc_2_720OutOfMemoryExceptionE to i8*), !dbg !1605
  %10 = extractvalue { i8*, i32 } %9, 0, !dbg !1605
  store i8* %10, i8** %exn.slot, align 8, !dbg !1605
  %11 = extractvalue { i8*, i32 } %9, 1, !dbg !1605
  store i32 %11, i32* %ehselector.slot, align 4, !dbg !1605
  br label %catch.dispatch, !dbg !1605

catch.dispatch:                                   ; preds = %lpad
  %sel = load i32, i32* %ehselector.slot, align 4, !dbg !1604
  %12 = call i32 @llvm.eh.typeid.for(i8* bitcast ({ i8*, i8*, i8* }* @_ZTIN11xercesc_2_720OutOfMemoryExceptionE to i8*)) #9, !dbg !1604
  %matches = icmp eq i32 %sel, %12, !dbg !1604
  br i1 %matches, label %catch, label %ehcleanup, !dbg !1604

catch:                                            ; preds = %catch.dispatch
  call void @llvm.dbg.declare(metadata %"class.xercesc_2_7::OutOfMemoryException"** %0, metadata !1606, metadata !DIExpression()), !dbg !1607
  %exn = load i8*, i8** %exn.slot, align 8, !dbg !1604
  %13 = call i8* @__cxa_begin_catch(i8* %exn) #9, !dbg !1604
  %exn.byref = bitcast i8* %13 to %"class.xercesc_2_7::OutOfMemoryException"*, !dbg !1604
  store %"class.xercesc_2_7::OutOfMemoryException"* %exn.byref, %"class.xercesc_2_7::OutOfMemoryException"** %0, align 8, !dbg !1604
  invoke void @_ZN11xercesc_2_717JanitorMemFunCallINS_6XMLURLEE7releaseEv(%"class.xercesc_2_7::JanitorMemFunCall"* %cleanup)
          to label %invoke.cont3 unwind label %lpad2, !dbg !1608

invoke.cont3:                                     ; preds = %catch
  invoke void @__cxa_rethrow() #11
          to label %unreachable unwind label %lpad2, !dbg !1610

lpad2:                                            ; preds = %invoke.cont3, %catch
  %14 = landingpad { i8*, i32 }
          cleanup, !dbg !1611
  %15 = extractvalue { i8*, i32 } %14, 0, !dbg !1611
  store i8* %15, i8** %exn.slot, align 8, !dbg !1611
  %16 = extractvalue { i8*, i32 } %14, 1, !dbg !1611
  store i32 %16, i32* %ehselector.slot, align 4, !dbg !1611
  invoke void @__cxa_end_catch()
          to label %invoke.cont4 unwind label %terminate.lpad, !dbg !1612

invoke.cont4:                                     ; preds = %lpad2
  br label %ehcleanup, !dbg !1612

try.cont:                                         ; preds = %invoke.cont
  invoke void @_ZN11xercesc_2_717JanitorMemFunCallINS_6XMLURLEE7releaseEv(%"class.xercesc_2_7::JanitorMemFunCall"* %cleanup)
          to label %invoke.cont6 unwind label %lpad5, !dbg !1613

invoke.cont6:                                     ; preds = %try.cont
  call void @_ZN11xercesc_2_717JanitorMemFunCallINS_6XMLURLEED2Ev(%"class.xercesc_2_7::JanitorMemFunCall"* %cleanup) #9, !dbg !1614
  ret void, !dbg !1614

lpad5:                                            ; preds = %try.cont
  %17 = landingpad { i8*, i32 }
          cleanup, !dbg !1615
  %18 = extractvalue { i8*, i32 } %17, 0, !dbg !1615
  store i8* %18, i8** %exn.slot, align 8, !dbg !1615
  %19 = extractvalue { i8*, i32 } %17, 1, !dbg !1615
  store i32 %19, i32* %ehselector.slot, align 4, !dbg !1615
  br label %ehcleanup, !dbg !1615

ehcleanup:                                        ; preds = %lpad5, %invoke.cont4, %catch.dispatch
  call void @_ZN11xercesc_2_717JanitorMemFunCallINS_6XMLURLEED2Ev(%"class.xercesc_2_7::JanitorMemFunCall"* %cleanup) #9, !dbg !1614
  br label %eh.resume, !dbg !1614

eh.resume:                                        ; preds = %ehcleanup
  %exn7 = load i8*, i8** %exn.slot, align 8, !dbg !1614
  %sel8 = load i32, i32* %ehselector.slot, align 4, !dbg !1614
  %lpad.val = insertvalue { i8*, i32 } undef, i8* %exn7, 0, !dbg !1614
  %lpad.val9 = insertvalue { i8*, i32 } %lpad.val, i32 %sel8, 1, !dbg !1614
  resume { i8*, i32 } %lpad.val9, !dbg !1614

terminate.lpad:                                   ; preds = %lpad2
  %20 = landingpad { i8*, i32 }
          catch i8* null, !dbg !1612
  %21 = extractvalue { i8*, i32 } %20, 0, !dbg !1612
  call void @__clang_call_terminate(i8* %21) #12, !dbg !1612
  unreachable, !dbg !1612

unreachable:                                      ; preds = %invoke.cont3
  unreachable
}

; Function Attrs: noinline uwtable
define dso_local void @_ZN11xercesc_2_76XMLURL6setURLEPKt(%"class.xercesc_2_7::XMLURL"* %this, i16* %urlText) #3 align 2 !dbg !1616 {
entry:
  %this.addr = alloca %"class.xercesc_2_7::XMLURL"*, align 8
  %urlText.addr = alloca i16*, align 8
  store %"class.xercesc_2_7::XMLURL"* %this, %"class.xercesc_2_7::XMLURL"** %this.addr, align 8
  call void @llvm.dbg.declare(metadata %"class.xercesc_2_7::XMLURL"** %this.addr, metadata !1617, metadata !DIExpression()), !dbg !1618
  store i16* %urlText, i16** %urlText.addr, align 8
  call void @llvm.dbg.declare(metadata i16** %urlText.addr, metadata !1619, metadata !DIExpression()), !dbg !1620
  %this1 = load %"class.xercesc_2_7::XMLURL"*, %"class.xercesc_2_7::XMLURL"** %this.addr, align 8
  call void @_ZN11xercesc_2_76XMLURL7cleanUpEv(%"class.xercesc_2_7::XMLURL"* %this1), !dbg !1621
  %0 = load i16*, i16** %urlText.addr, align 8, !dbg !1622
  call void @_ZN11xercesc_2_76XMLURL5parseEPKt(%"class.xercesc_2_7::XMLURL"* %this1, i16* %0), !dbg !1623
  ret void, !dbg !1624
}

; Function Attrs: noinline uwtable
define dso_local void @_ZN11xercesc_2_76XMLURLC2EPKcPNS_13MemoryManagerE(%"class.xercesc_2_7::XMLURL"* %this, i8* %urlText, %"class.xercesc_2_7::MemoryManager"* %manager) unnamed_addr #3 align 2 personality i8* bitcast (i32 (...)* @__gxx_personality_v0 to i8*) !dbg !1625 {
entry:
  %this.addr = alloca %"class.xercesc_2_7::XMLURL"*, align 8
  %urlText.addr = alloca i8*, align 8
  %manager.addr = alloca %"class.xercesc_2_7::MemoryManager"*, align 8
  %cleanup = alloca %"class.xercesc_2_7::JanitorMemFunCall", align 8
  %coerce = alloca { i64, i64 }, align 8
  %tmpText = alloca i16*, align 8
  %exn.slot = alloca i8*
  %ehselector.slot = alloca i32
  %janRel = alloca %"class.xercesc_2_7::ArrayJanitor", align 8
  %0 = alloca %"class.xercesc_2_7::OutOfMemoryException"*, align 8
  store %"class.xercesc_2_7::XMLURL"* %this, %"class.xercesc_2_7::XMLURL"** %this.addr, align 8
  call void @llvm.dbg.declare(metadata %"class.xercesc_2_7::XMLURL"** %this.addr, metadata !1626, metadata !DIExpression()), !dbg !1627
  store i8* %urlText, i8** %urlText.addr, align 8
  call void @llvm.dbg.declare(metadata i8** %urlText.addr, metadata !1628, metadata !DIExpression()), !dbg !1629
  store %"class.xercesc_2_7::MemoryManager"* %manager, %"class.xercesc_2_7::MemoryManager"** %manager.addr, align 8
  call void @llvm.dbg.declare(metadata %"class.xercesc_2_7::MemoryManager"** %manager.addr, metadata !1630, metadata !DIExpression()), !dbg !1631
  %this1 = load %"class.xercesc_2_7::XMLURL"*, %"class.xercesc_2_7::XMLURL"** %this.addr, align 8
  %1 = bitcast %"class.xercesc_2_7::XMLURL"* %this1 to %"class.xercesc_2_7::XMemory"*, !dbg !1632
  call void @_ZN11xercesc_2_77XMemoryC2Ev(%"class.xercesc_2_7::XMemory"* %1), !dbg !1633
  %2 = bitcast %"class.xercesc_2_7::XMLURL"* %this1 to i32 (...)***, !dbg !1632
  store i32 (...)** bitcast (i8** getelementptr inbounds ({ [4 x i8*] }, { [4 x i8*] }* @_ZTVN11xercesc_2_76XMLURLE, i32 0, inrange i32 0, i32 2) to i32 (...)**), i32 (...)*** %2, align 8, !dbg !1632
  %fMemoryManager = getelementptr inbounds %"class.xercesc_2_7::XMLURL", %"class.xercesc_2_7::XMLURL"* %this1, i32 0, i32 1, !dbg !1634
  %3 = load %"class.xercesc_2_7::MemoryManager"*, %"class.xercesc_2_7::MemoryManager"** %manager.addr, align 8, !dbg !1635
  store %"class.xercesc_2_7::MemoryManager"* %3, %"class.xercesc_2_7::MemoryManager"** %fMemoryManager, align 8, !dbg !1634
  %fFragment = getelementptr inbounds %"class.xercesc_2_7::XMLURL", %"class.xercesc_2_7::XMLURL"* %this1, i32 0, i32 2, !dbg !1636
  store i16* null, i16** %fFragment, align 8, !dbg !1636
  %fHost = getelementptr inbounds %"class.xercesc_2_7::XMLURL", %"class.xercesc_2_7::XMLURL"* %this1, i32 0, i32 3, !dbg !1637
  store i16* null, i16** %fHost, align 8, !dbg !1637
  %fPassword = getelementptr inbounds %"class.xercesc_2_7::XMLURL", %"class.xercesc_2_7::XMLURL"* %this1, i32 0, i32 4, !dbg !1638
  store i16* null, i16** %fPassword, align 8, !dbg !1638
  %fPath = getelementptr inbounds %"class.xercesc_2_7::XMLURL", %"class.xercesc_2_7::XMLURL"* %this1, i32 0, i32 5, !dbg !1639
  store i16* null, i16** %fPath, align 8, !dbg !1639
  %fPortNum = getelementptr inbounds %"class.xercesc_2_7::XMLURL", %"class.xercesc_2_7::XMLURL"* %this1, i32 0, i32 6, !dbg !1640
  store i32 0, i32* %fPortNum, align 8, !dbg !1640
  %fProtocol = getelementptr inbounds %"class.xercesc_2_7::XMLURL", %"class.xercesc_2_7::XMLURL"* %this1, i32 0, i32 7, !dbg !1641
  store i32 4, i32* %fProtocol, align 4, !dbg !1641
  %fQuery = getelementptr inbounds %"class.xercesc_2_7::XMLURL", %"class.xercesc_2_7::XMLURL"* %this1, i32 0, i32 8, !dbg !1642
  store i16* null, i16** %fQuery, align 8, !dbg !1642
  %fUser = getelementptr inbounds %"class.xercesc_2_7::XMLURL", %"class.xercesc_2_7::XMLURL"* %this1, i32 0, i32 9, !dbg !1643
  store i16* null, i16** %fUser, align 8, !dbg !1643
  %fURLText = getelementptr inbounds %"class.xercesc_2_7::XMLURL", %"class.xercesc_2_7::XMLURL"* %this1, i32 0, i32 10, !dbg !1644
  store i16* null, i16** %fURLText, align 8, !dbg !1644
  %fHasInvalidChar = getelementptr inbounds %"class.xercesc_2_7::XMLURL", %"class.xercesc_2_7::XMLURL"* %this1, i32 0, i32 11, !dbg !1645
  store i8 0, i8* %fHasInvalidChar, align 8, !dbg !1645
  call void @llvm.dbg.declare(metadata %"class.xercesc_2_7::JanitorMemFunCall"* %cleanup, metadata !1646, metadata !DIExpression()), !dbg !1648
  store { i64, i64 } { i64 ptrtoint (void (%"class.xercesc_2_7::XMLURL"*)* @_ZN11xercesc_2_76XMLURL7cleanUpEv to i64), i64 0 }, { i64, i64 }* %coerce, align 8, !dbg !1648
  %4 = getelementptr inbounds { i64, i64 }, { i64, i64 }* %coerce, i32 0, i32 0, !dbg !1648
  %5 = load i64, i64* %4, align 8, !dbg !1648
  %6 = getelementptr inbounds { i64, i64 }, { i64, i64 }* %coerce, i32 0, i32 1, !dbg !1648
  %7 = load i64, i64* %6, align 8, !dbg !1648
  call void @_ZN11xercesc_2_717JanitorMemFunCallINS_6XMLURLEEC2EPS1_MS1_FvvE(%"class.xercesc_2_7::JanitorMemFunCall"* %cleanup, %"class.xercesc_2_7::XMLURL"* %this1, i64 %5, i64 %7), !dbg !1648
  call void @llvm.dbg.declare(metadata i16** %tmpText, metadata !1649, metadata !DIExpression()), !dbg !1650
  %8 = load i8*, i8** %urlText.addr, align 8, !dbg !1651
  %fMemoryManager2 = getelementptr inbounds %"class.xercesc_2_7::XMLURL", %"class.xercesc_2_7::XMLURL"* %this1, i32 0, i32 1, !dbg !1652
  %9 = load %"class.xercesc_2_7::MemoryManager"*, %"class.xercesc_2_7::MemoryManager"** %fMemoryManager2, align 8, !dbg !1652
  %call = invoke i16* @_ZN11xercesc_2_79XMLString9transcodeEPKcPNS_13MemoryManagerE(i8* %8, %"class.xercesc_2_7::MemoryManager"* %9)
          to label %invoke.cont unwind label %lpad, !dbg !1653

invoke.cont:                                      ; preds = %entry
  store i16* %call, i16** %tmpText, align 8, !dbg !1650
  call void @llvm.dbg.declare(metadata %"class.xercesc_2_7::ArrayJanitor"* %janRel, metadata !1654, metadata !DIExpression()), !dbg !1655
  %10 = load i16*, i16** %tmpText, align 8, !dbg !1656
  %fMemoryManager3 = getelementptr inbounds %"class.xercesc_2_7::XMLURL", %"class.xercesc_2_7::XMLURL"* %this1, i32 0, i32 1, !dbg !1657
  %11 = load %"class.xercesc_2_7::MemoryManager"*, %"class.xercesc_2_7::MemoryManager"** %fMemoryManager3, align 8, !dbg !1657
  invoke void @_ZN11xercesc_2_712ArrayJanitorItEC2EPtPNS_13MemoryManagerE(%"class.xercesc_2_7::ArrayJanitor"* %janRel, i16* %10, %"class.xercesc_2_7::MemoryManager"* %11)
          to label %invoke.cont4 unwind label %lpad, !dbg !1655

invoke.cont4:                                     ; preds = %invoke.cont
  %12 = load i16*, i16** %tmpText, align 8, !dbg !1658
  invoke void @_ZN11xercesc_2_76XMLURL6setURLEPKt(%"class.xercesc_2_7::XMLURL"* %this1, i16* %12)
          to label %invoke.cont6 unwind label %lpad5, !dbg !1660

invoke.cont6:                                     ; preds = %invoke.cont4
  br label %try.cont, !dbg !1661

lpad:                                             ; preds = %invoke.cont, %entry
  %13 = landingpad { i8*, i32 }
          cleanup, !dbg !1662
  %14 = extractvalue { i8*, i32 } %13, 0, !dbg !1662
  store i8* %14, i8** %exn.slot, align 8, !dbg !1662
  %15 = extractvalue { i8*, i32 } %13, 1, !dbg !1662
  store i32 %15, i32* %ehselector.slot, align 4, !dbg !1662
  br label %ehcleanup12, !dbg !1662

lpad5:                                            ; preds = %invoke.cont4
  %16 = landingpad { i8*, i32 }
          cleanup
          catch i8* bitcast ({ i8*, i8*, i8* }* @_ZTIN11xercesc_2_720OutOfMemoryExceptionE to i8*), !dbg !1663
  %17 = extractvalue { i8*, i32 } %16, 0, !dbg !1663
  store i8* %17, i8** %exn.slot, align 8, !dbg !1663
  %18 = extractvalue { i8*, i32 } %16, 1, !dbg !1663
  store i32 %18, i32* %ehselector.slot, align 4, !dbg !1663
  br label %catch.dispatch, !dbg !1663

catch.dispatch:                                   ; preds = %lpad5
  %sel = load i32, i32* %ehselector.slot, align 4, !dbg !1661
  %19 = call i32 @llvm.eh.typeid.for(i8* bitcast ({ i8*, i8*, i8* }* @_ZTIN11xercesc_2_720OutOfMemoryExceptionE to i8*)) #9, !dbg !1661
  %matches = icmp eq i32 %sel, %19, !dbg !1661
  br i1 %matches, label %catch, label %ehcleanup, !dbg !1661

catch:                                            ; preds = %catch.dispatch
  call void @llvm.dbg.declare(metadata %"class.xercesc_2_7::OutOfMemoryException"** %0, metadata !1664, metadata !DIExpression()), !dbg !1665
  %exn = load i8*, i8** %exn.slot, align 8, !dbg !1661
  %20 = call i8* @__cxa_begin_catch(i8* %exn) #9, !dbg !1661
  %exn.byref = bitcast i8* %20 to %"class.xercesc_2_7::OutOfMemoryException"*, !dbg !1661
  store %"class.xercesc_2_7::OutOfMemoryException"* %exn.byref, %"class.xercesc_2_7::OutOfMemoryException"** %0, align 8, !dbg !1661
  invoke void @_ZN11xercesc_2_717JanitorMemFunCallINS_6XMLURLEE7releaseEv(%"class.xercesc_2_7::JanitorMemFunCall"* %cleanup)
          to label %invoke.cont8 unwind label %lpad7, !dbg !1666

invoke.cont8:                                     ; preds = %catch
  invoke void @__cxa_rethrow() #11
          to label %unreachable unwind label %lpad7, !dbg !1668

lpad7:                                            ; preds = %invoke.cont8, %catch
  %21 = landingpad { i8*, i32 }
          cleanup, !dbg !1669
  %22 = extractvalue { i8*, i32 } %21, 0, !dbg !1669
  store i8* %22, i8** %exn.slot, align 8, !dbg !1669
  %23 = extractvalue { i8*, i32 } %21, 1, !dbg !1669
  store i32 %23, i32* %ehselector.slot, align 4, !dbg !1669
  invoke void @__cxa_end_catch()
          to label %invoke.cont9 unwind label %terminate.lpad, !dbg !1670

invoke.cont9:                                     ; preds = %lpad7
  br label %ehcleanup, !dbg !1670

try.cont:                                         ; preds = %invoke.cont6
  invoke void @_ZN11xercesc_2_717JanitorMemFunCallINS_6XMLURLEE7releaseEv(%"class.xercesc_2_7::JanitorMemFunCall"* %cleanup)
          to label %invoke.cont11 unwind label %lpad10, !dbg !1671

invoke.cont11:                                    ; preds = %try.cont
  call void @_ZN11xercesc_2_712ArrayJanitorItED2Ev(%"class.xercesc_2_7::ArrayJanitor"* %janRel) #9, !dbg !1672
  call void @_ZN11xercesc_2_717JanitorMemFunCallINS_6XMLURLEED2Ev(%"class.xercesc_2_7::JanitorMemFunCall"* %cleanup) #9, !dbg !1672
  ret void, !dbg !1672

lpad10:                                           ; preds = %try.cont
  %24 = landingpad { i8*, i32 }
          cleanup, !dbg !1662
  %25 = extractvalue { i8*, i32 } %24, 0, !dbg !1662
  store i8* %25, i8** %exn.slot, align 8, !dbg !1662
  %26 = extractvalue { i8*, i32 } %24, 1, !dbg !1662
  store i32 %26, i32* %ehselector.slot, align 4, !dbg !1662
  br label %ehcleanup, !dbg !1662

ehcleanup:                                        ; preds = %lpad10, %invoke.cont9, %catch.dispatch
  call void @_ZN11xercesc_2_712ArrayJanitorItED2Ev(%"class.xercesc_2_7::ArrayJanitor"* %janRel) #9, !dbg !1672
  br label %ehcleanup12, !dbg !1672

ehcleanup12:                                      ; preds = %ehcleanup, %lpad
  call void @_ZN11xercesc_2_717JanitorMemFunCallINS_6XMLURLEED2Ev(%"class.xercesc_2_7::JanitorMemFunCall"* %cleanup) #9, !dbg !1672
  br label %eh.resume, !dbg !1672

eh.resume:                                        ; preds = %ehcleanup12
  %exn13 = load i8*, i8** %exn.slot, align 8, !dbg !1672
  %sel14 = load i32, i32* %ehselector.slot, align 4, !dbg !1672
  %lpad.val = insertvalue { i8*, i32 } undef, i8* %exn13, 0, !dbg !1672
  %lpad.val15 = insertvalue { i8*, i32 } %lpad.val, i32 %sel14, 1, !dbg !1672
  resume { i8*, i32 } %lpad.val15, !dbg !1672

terminate.lpad:                                   ; preds = %lpad7
  %27 = landingpad { i8*, i32 }
          catch i8* null, !dbg !1670
  %28 = extractvalue { i8*, i32 } %27, 0, !dbg !1670
  call void @__clang_call_terminate(i8* %28) #12, !dbg !1670
  unreachable, !dbg !1670

unreachable:                                      ; preds = %invoke.cont8
  unreachable
}

; Function Attrs: noinline uwtable
define dso_local void @_ZN11xercesc_2_76XMLURLC2ERKS0_(%"class.xercesc_2_7::XMLURL"* %this, %"class.xercesc_2_7::XMLURL"* dereferenceable(88) %toCopy) unnamed_addr #3 align 2 personality i8* bitcast (i32 (...)* @__gxx_personality_v0 to i8*) !dbg !1673 {
entry:
  %this.addr = alloca %"class.xercesc_2_7::XMLURL"*, align 8
  %toCopy.addr = alloca %"class.xercesc_2_7::XMLURL"*, align 8
  %cleanup = alloca %"class.xercesc_2_7::JanitorMemFunCall", align 8
  %coerce = alloca { i64, i64 }, align 8
  %exn.slot = alloca i8*
  %ehselector.slot = alloca i32
  %0 = alloca %"class.xercesc_2_7::OutOfMemoryException"*, align 8
  store %"class.xercesc_2_7::XMLURL"* %this, %"class.xercesc_2_7::XMLURL"** %this.addr, align 8
  call void @llvm.dbg.declare(metadata %"class.xercesc_2_7::XMLURL"** %this.addr, metadata !1674, metadata !DIExpression()), !dbg !1675
  store %"class.xercesc_2_7::XMLURL"* %toCopy, %"class.xercesc_2_7::XMLURL"** %toCopy.addr, align 8
  call void @llvm.dbg.declare(metadata %"class.xercesc_2_7::XMLURL"** %toCopy.addr, metadata !1676, metadata !DIExpression()), !dbg !1677
  %this1 = load %"class.xercesc_2_7::XMLURL"*, %"class.xercesc_2_7::XMLURL"** %this.addr, align 8
  %1 = bitcast %"class.xercesc_2_7::XMLURL"* %this1 to %"class.xercesc_2_7::XMemory"*, !dbg !1678
  %2 = load %"class.xercesc_2_7::XMLURL"*, %"class.xercesc_2_7::XMLURL"** %toCopy.addr, align 8, !dbg !1679
  %3 = bitcast %"class.xercesc_2_7::XMLURL"* %2 to %"class.xercesc_2_7::XMemory"*, !dbg !1679
  %4 = bitcast %"class.xercesc_2_7::XMLURL"* %this1 to i32 (...)***, !dbg !1678
  store i32 (...)** bitcast (i8** getelementptr inbounds ({ [4 x i8*] }, { [4 x i8*] }* @_ZTVN11xercesc_2_76XMLURLE, i32 0, inrange i32 0, i32 2) to i32 (...)**), i32 (...)*** %4, align 8, !dbg !1678
  %fMemoryManager = getelementptr inbounds %"class.xercesc_2_7::XMLURL", %"class.xercesc_2_7::XMLURL"* %this1, i32 0, i32 1, !dbg !1680
  %5 = load %"class.xercesc_2_7::XMLURL"*, %"class.xercesc_2_7::XMLURL"** %toCopy.addr, align 8, !dbg !1681
  %fMemoryManager2 = getelementptr inbounds %"class.xercesc_2_7::XMLURL", %"class.xercesc_2_7::XMLURL"* %5, i32 0, i32 1, !dbg !1682
  %6 = load %"class.xercesc_2_7::MemoryManager"*, %"class.xercesc_2_7::MemoryManager"** %fMemoryManager2, align 8, !dbg !1682
  store %"class.xercesc_2_7::MemoryManager"* %6, %"class.xercesc_2_7::MemoryManager"** %fMemoryManager, align 8, !dbg !1680
  %fFragment = getelementptr inbounds %"class.xercesc_2_7::XMLURL", %"class.xercesc_2_7::XMLURL"* %this1, i32 0, i32 2, !dbg !1683
  store i16* null, i16** %fFragment, align 8, !dbg !1683
  %fHost = getelementptr inbounds %"class.xercesc_2_7::XMLURL", %"class.xercesc_2_7::XMLURL"* %this1, i32 0, i32 3, !dbg !1684
  store i16* null, i16** %fHost, align 8, !dbg !1684
  %fPassword = getelementptr inbounds %"class.xercesc_2_7::XMLURL", %"class.xercesc_2_7::XMLURL"* %this1, i32 0, i32 4, !dbg !1685
  store i16* null, i16** %fPassword, align 8, !dbg !1685
  %fPath = getelementptr inbounds %"class.xercesc_2_7::XMLURL", %"class.xercesc_2_7::XMLURL"* %this1, i32 0, i32 5, !dbg !1686
  store i16* null, i16** %fPath, align 8, !dbg !1686
  %fPortNum = getelementptr inbounds %"class.xercesc_2_7::XMLURL", %"class.xercesc_2_7::XMLURL"* %this1, i32 0, i32 6, !dbg !1687
  %7 = load %"class.xercesc_2_7::XMLURL"*, %"class.xercesc_2_7::XMLURL"** %toCopy.addr, align 8, !dbg !1688
  %fPortNum3 = getelementptr inbounds %"class.xercesc_2_7::XMLURL", %"class.xercesc_2_7::XMLURL"* %7, i32 0, i32 6, !dbg !1689
  %8 = load i32, i32* %fPortNum3, align 8, !dbg !1689
  store i32 %8, i32* %fPortNum, align 8, !dbg !1687
  %fProtocol = getelementptr inbounds %"class.xercesc_2_7::XMLURL", %"class.xercesc_2_7::XMLURL"* %this1, i32 0, i32 7, !dbg !1690
  %9 = load %"class.xercesc_2_7::XMLURL"*, %"class.xercesc_2_7::XMLURL"** %toCopy.addr, align 8, !dbg !1691
  %fProtocol4 = getelementptr inbounds %"class.xercesc_2_7::XMLURL", %"class.xercesc_2_7::XMLURL"* %9, i32 0, i32 7, !dbg !1692
  %10 = load i32, i32* %fProtocol4, align 4, !dbg !1692
  store i32 %10, i32* %fProtocol, align 4, !dbg !1690
  %fQuery = getelementptr inbounds %"class.xercesc_2_7::XMLURL", %"class.xercesc_2_7::XMLURL"* %this1, i32 0, i32 8, !dbg !1693
  store i16* null, i16** %fQuery, align 8, !dbg !1693
  %fUser = getelementptr inbounds %"class.xercesc_2_7::XMLURL", %"class.xercesc_2_7::XMLURL"* %this1, i32 0, i32 9, !dbg !1694
  store i16* null, i16** %fUser, align 8, !dbg !1694
  %fURLText = getelementptr inbounds %"class.xercesc_2_7::XMLURL", %"class.xercesc_2_7::XMLURL"* %this1, i32 0, i32 10, !dbg !1695
  store i16* null, i16** %fURLText, align 8, !dbg !1695
  %fHasInvalidChar = getelementptr inbounds %"class.xercesc_2_7::XMLURL", %"class.xercesc_2_7::XMLURL"* %this1, i32 0, i32 11, !dbg !1696
  %11 = load %"class.xercesc_2_7::XMLURL"*, %"class.xercesc_2_7::XMLURL"** %toCopy.addr, align 8, !dbg !1697
  %fHasInvalidChar5 = getelementptr inbounds %"class.xercesc_2_7::XMLURL", %"class.xercesc_2_7::XMLURL"* %11, i32 0, i32 11, !dbg !1698
  %12 = load i8, i8* %fHasInvalidChar5, align 8, !dbg !1698
  %tobool = trunc i8 %12 to i1, !dbg !1698
  %frombool = zext i1 %tobool to i8, !dbg !1696
  store i8 %frombool, i8* %fHasInvalidChar, align 8, !dbg !1696
  call void @llvm.dbg.declare(metadata %"class.xercesc_2_7::JanitorMemFunCall"* %cleanup, metadata !1699, metadata !DIExpression()), !dbg !1701
  store { i64, i64 } { i64 ptrtoint (void (%"class.xercesc_2_7::XMLURL"*)* @_ZN11xercesc_2_76XMLURL7cleanUpEv to i64), i64 0 }, { i64, i64 }* %coerce, align 8, !dbg !1701
  %13 = getelementptr inbounds { i64, i64 }, { i64, i64 }* %coerce, i32 0, i32 0, !dbg !1701
  %14 = load i64, i64* %13, align 8, !dbg !1701
  %15 = getelementptr inbounds { i64, i64 }, { i64, i64 }* %coerce, i32 0, i32 1, !dbg !1701
  %16 = load i64, i64* %15, align 8, !dbg !1701
  call void @_ZN11xercesc_2_717JanitorMemFunCallINS_6XMLURLEEC2EPS1_MS1_FvvE(%"class.xercesc_2_7::JanitorMemFunCall"* %cleanup, %"class.xercesc_2_7::XMLURL"* %this1, i64 %14, i64 %16), !dbg !1701
  %17 = load %"class.xercesc_2_7::XMLURL"*, %"class.xercesc_2_7::XMLURL"** %toCopy.addr, align 8, !dbg !1702
  %fFragment6 = getelementptr inbounds %"class.xercesc_2_7::XMLURL", %"class.xercesc_2_7::XMLURL"* %17, i32 0, i32 2, !dbg !1704
  %18 = load i16*, i16** %fFragment6, align 8, !dbg !1704
  %fMemoryManager7 = getelementptr inbounds %"class.xercesc_2_7::XMLURL", %"class.xercesc_2_7::XMLURL"* %this1, i32 0, i32 1, !dbg !1705
  %19 = load %"class.xercesc_2_7::MemoryManager"*, %"class.xercesc_2_7::MemoryManager"** %fMemoryManager7, align 8, !dbg !1705
  %call = invoke i16* @_ZN11xercesc_2_79XMLString9replicateEPKtPNS_13MemoryManagerE(i16* %18, %"class.xercesc_2_7::MemoryManager"* %19)
          to label %invoke.cont unwind label %lpad, !dbg !1706

invoke.cont:                                      ; preds = %entry
  %fFragment8 = getelementptr inbounds %"class.xercesc_2_7::XMLURL", %"class.xercesc_2_7::XMLURL"* %this1, i32 0, i32 2, !dbg !1707
  store i16* %call, i16** %fFragment8, align 8, !dbg !1708
  %20 = load %"class.xercesc_2_7::XMLURL"*, %"class.xercesc_2_7::XMLURL"** %toCopy.addr, align 8, !dbg !1709
  %fHost9 = getelementptr inbounds %"class.xercesc_2_7::XMLURL", %"class.xercesc_2_7::XMLURL"* %20, i32 0, i32 3, !dbg !1710
  %21 = load i16*, i16** %fHost9, align 8, !dbg !1710
  %fMemoryManager10 = getelementptr inbounds %"class.xercesc_2_7::XMLURL", %"class.xercesc_2_7::XMLURL"* %this1, i32 0, i32 1, !dbg !1711
  %22 = load %"class.xercesc_2_7::MemoryManager"*, %"class.xercesc_2_7::MemoryManager"** %fMemoryManager10, align 8, !dbg !1711
  %call12 = invoke i16* @_ZN11xercesc_2_79XMLString9replicateEPKtPNS_13MemoryManagerE(i16* %21, %"class.xercesc_2_7::MemoryManager"* %22)
          to label %invoke.cont11 unwind label %lpad, !dbg !1712

invoke.cont11:                                    ; preds = %invoke.cont
  %fHost13 = getelementptr inbounds %"class.xercesc_2_7::XMLURL", %"class.xercesc_2_7::XMLURL"* %this1, i32 0, i32 3, !dbg !1713
  store i16* %call12, i16** %fHost13, align 8, !dbg !1714
  %23 = load %"class.xercesc_2_7::XMLURL"*, %"class.xercesc_2_7::XMLURL"** %toCopy.addr, align 8, !dbg !1715
  %fPassword14 = getelementptr inbounds %"class.xercesc_2_7::XMLURL", %"class.xercesc_2_7::XMLURL"* %23, i32 0, i32 4, !dbg !1716
  %24 = load i16*, i16** %fPassword14, align 8, !dbg !1716
  %fMemoryManager15 = getelementptr inbounds %"class.xercesc_2_7::XMLURL", %"class.xercesc_2_7::XMLURL"* %this1, i32 0, i32 1, !dbg !1717
  %25 = load %"class.xercesc_2_7::MemoryManager"*, %"class.xercesc_2_7::MemoryManager"** %fMemoryManager15, align 8, !dbg !1717
  %call17 = invoke i16* @_ZN11xercesc_2_79XMLString9replicateEPKtPNS_13MemoryManagerE(i16* %24, %"class.xercesc_2_7::MemoryManager"* %25)
          to label %invoke.cont16 unwind label %lpad, !dbg !1718

invoke.cont16:                                    ; preds = %invoke.cont11
  %fPassword18 = getelementptr inbounds %"class.xercesc_2_7::XMLURL", %"class.xercesc_2_7::XMLURL"* %this1, i32 0, i32 4, !dbg !1719
  store i16* %call17, i16** %fPassword18, align 8, !dbg !1720
  %26 = load %"class.xercesc_2_7::XMLURL"*, %"class.xercesc_2_7::XMLURL"** %toCopy.addr, align 8, !dbg !1721
  %fPath19 = getelementptr inbounds %"class.xercesc_2_7::XMLURL", %"class.xercesc_2_7::XMLURL"* %26, i32 0, i32 5, !dbg !1722
  %27 = load i16*, i16** %fPath19, align 8, !dbg !1722
  %fMemoryManager20 = getelementptr inbounds %"class.xercesc_2_7::XMLURL", %"class.xercesc_2_7::XMLURL"* %this1, i32 0, i32 1, !dbg !1723
  %28 = load %"class.xercesc_2_7::MemoryManager"*, %"class.xercesc_2_7::MemoryManager"** %fMemoryManager20, align 8, !dbg !1723
  %call22 = invoke i16* @_ZN11xercesc_2_79XMLString9replicateEPKtPNS_13MemoryManagerE(i16* %27, %"class.xercesc_2_7::MemoryManager"* %28)
          to label %invoke.cont21 unwind label %lpad, !dbg !1724

invoke.cont21:                                    ; preds = %invoke.cont16
  %fPath23 = getelementptr inbounds %"class.xercesc_2_7::XMLURL", %"class.xercesc_2_7::XMLURL"* %this1, i32 0, i32 5, !dbg !1725
  store i16* %call22, i16** %fPath23, align 8, !dbg !1726
  %29 = load %"class.xercesc_2_7::XMLURL"*, %"class.xercesc_2_7::XMLURL"** %toCopy.addr, align 8, !dbg !1727
  %fQuery24 = getelementptr inbounds %"class.xercesc_2_7::XMLURL", %"class.xercesc_2_7::XMLURL"* %29, i32 0, i32 8, !dbg !1728
  %30 = load i16*, i16** %fQuery24, align 8, !dbg !1728
  %fMemoryManager25 = getelementptr inbounds %"class.xercesc_2_7::XMLURL", %"class.xercesc_2_7::XMLURL"* %this1, i32 0, i32 1, !dbg !1729
  %31 = load %"class.xercesc_2_7::MemoryManager"*, %"class.xercesc_2_7::MemoryManager"** %fMemoryManager25, align 8, !dbg !1729
  %call27 = invoke i16* @_ZN11xercesc_2_79XMLString9replicateEPKtPNS_13MemoryManagerE(i16* %30, %"class.xercesc_2_7::MemoryManager"* %31)
          to label %invoke.cont26 unwind label %lpad, !dbg !1730

invoke.cont26:                                    ; preds = %invoke.cont21
  %fQuery28 = getelementptr inbounds %"class.xercesc_2_7::XMLURL", %"class.xercesc_2_7::XMLURL"* %this1, i32 0, i32 8, !dbg !1731
  store i16* %call27, i16** %fQuery28, align 8, !dbg !1732
  %32 = load %"class.xercesc_2_7::XMLURL"*, %"class.xercesc_2_7::XMLURL"** %toCopy.addr, align 8, !dbg !1733
  %fUser29 = getelementptr inbounds %"class.xercesc_2_7::XMLURL", %"class.xercesc_2_7::XMLURL"* %32, i32 0, i32 9, !dbg !1734
  %33 = load i16*, i16** %fUser29, align 8, !dbg !1734
  %fMemoryManager30 = getelementptr inbounds %"class.xercesc_2_7::XMLURL", %"class.xercesc_2_7::XMLURL"* %this1, i32 0, i32 1, !dbg !1735
  %34 = load %"class.xercesc_2_7::MemoryManager"*, %"class.xercesc_2_7::MemoryManager"** %fMemoryManager30, align 8, !dbg !1735
  %call32 = invoke i16* @_ZN11xercesc_2_79XMLString9replicateEPKtPNS_13MemoryManagerE(i16* %33, %"class.xercesc_2_7::MemoryManager"* %34)
          to label %invoke.cont31 unwind label %lpad, !dbg !1736

invoke.cont31:                                    ; preds = %invoke.cont26
  %fUser33 = getelementptr inbounds %"class.xercesc_2_7::XMLURL", %"class.xercesc_2_7::XMLURL"* %this1, i32 0, i32 9, !dbg !1737
  store i16* %call32, i16** %fUser33, align 8, !dbg !1738
  %35 = load %"class.xercesc_2_7::XMLURL"*, %"class.xercesc_2_7::XMLURL"** %toCopy.addr, align 8, !dbg !1739
  %fURLText34 = getelementptr inbounds %"class.xercesc_2_7::XMLURL", %"class.xercesc_2_7::XMLURL"* %35, i32 0, i32 10, !dbg !1740
  %36 = load i16*, i16** %fURLText34, align 8, !dbg !1740
  %fMemoryManager35 = getelementptr inbounds %"class.xercesc_2_7::XMLURL", %"class.xercesc_2_7::XMLURL"* %this1, i32 0, i32 1, !dbg !1741
  %37 = load %"class.xercesc_2_7::MemoryManager"*, %"class.xercesc_2_7::MemoryManager"** %fMemoryManager35, align 8, !dbg !1741
  %call37 = invoke i16* @_ZN11xercesc_2_79XMLString9replicateEPKtPNS_13MemoryManagerE(i16* %36, %"class.xercesc_2_7::MemoryManager"* %37)
          to label %invoke.cont36 unwind label %lpad, !dbg !1742

invoke.cont36:                                    ; preds = %invoke.cont31
  %fURLText38 = getelementptr inbounds %"class.xercesc_2_7::XMLURL", %"class.xercesc_2_7::XMLURL"* %this1, i32 0, i32 10, !dbg !1743
  store i16* %call37, i16** %fURLText38, align 8, !dbg !1744
  br label %try.cont, !dbg !1745

lpad:                                             ; preds = %invoke.cont31, %invoke.cont26, %invoke.cont21, %invoke.cont16, %invoke.cont11, %invoke.cont, %entry
  %38 = landingpad { i8*, i32 }
          cleanup
          catch i8* bitcast ({ i8*, i8*, i8* }* @_ZTIN11xercesc_2_720OutOfMemoryExceptionE to i8*), !dbg !1746
  %39 = extractvalue { i8*, i32 } %38, 0, !dbg !1746
  store i8* %39, i8** %exn.slot, align 8, !dbg !1746
  %40 = extractvalue { i8*, i32 } %38, 1, !dbg !1746
  store i32 %40, i32* %ehselector.slot, align 4, !dbg !1746
  br label %catch.dispatch, !dbg !1746

catch.dispatch:                                   ; preds = %lpad
  %sel = load i32, i32* %ehselector.slot, align 4, !dbg !1745
  %41 = call i32 @llvm.eh.typeid.for(i8* bitcast ({ i8*, i8*, i8* }* @_ZTIN11xercesc_2_720OutOfMemoryExceptionE to i8*)) #9, !dbg !1745
  %matches = icmp eq i32 %sel, %41, !dbg !1745
  br i1 %matches, label %catch, label %ehcleanup, !dbg !1745

catch:                                            ; preds = %catch.dispatch
  call void @llvm.dbg.declare(metadata %"class.xercesc_2_7::OutOfMemoryException"** %0, metadata !1747, metadata !DIExpression()), !dbg !1748
  %exn = load i8*, i8** %exn.slot, align 8, !dbg !1745
  %42 = call i8* @__cxa_begin_catch(i8* %exn) #9, !dbg !1745
  %exn.byref = bitcast i8* %42 to %"class.xercesc_2_7::OutOfMemoryException"*, !dbg !1745
  store %"class.xercesc_2_7::OutOfMemoryException"* %exn.byref, %"class.xercesc_2_7::OutOfMemoryException"** %0, align 8, !dbg !1745
  invoke void @_ZN11xercesc_2_717JanitorMemFunCallINS_6XMLURLEE7releaseEv(%"class.xercesc_2_7::JanitorMemFunCall"* %cleanup)
          to label %invoke.cont40 unwind label %lpad39, !dbg !1749

invoke.cont40:                                    ; preds = %catch
  invoke void @__cxa_rethrow() #11
          to label %unreachable unwind label %lpad39, !dbg !1751

lpad39:                                           ; preds = %invoke.cont40, %catch
  %43 = landingpad { i8*, i32 }
          cleanup, !dbg !1752
  %44 = extractvalue { i8*, i32 } %43, 0, !dbg !1752
  store i8* %44, i8** %exn.slot, align 8, !dbg !1752
  %45 = extractvalue { i8*, i32 } %43, 1, !dbg !1752
  store i32 %45, i32* %ehselector.slot, align 4, !dbg !1752
  invoke void @__cxa_end_catch()
          to label %invoke.cont41 unwind label %terminate.lpad, !dbg !1753

invoke.cont41:                                    ; preds = %lpad39
  br label %ehcleanup, !dbg !1753

try.cont:                                         ; preds = %invoke.cont36
  invoke void @_ZN11xercesc_2_717JanitorMemFunCallINS_6XMLURLEE7releaseEv(%"class.xercesc_2_7::JanitorMemFunCall"* %cleanup)
          to label %invoke.cont43 unwind label %lpad42, !dbg !1754

invoke.cont43:                                    ; preds = %try.cont
  call void @_ZN11xercesc_2_717JanitorMemFunCallINS_6XMLURLEED2Ev(%"class.xercesc_2_7::JanitorMemFunCall"* %cleanup) #9, !dbg !1755
  ret void, !dbg !1755

lpad42:                                           ; preds = %try.cont
  %46 = landingpad { i8*, i32 }
          cleanup, !dbg !1756
  %47 = extractvalue { i8*, i32 } %46, 0, !dbg !1756
  store i8* %47, i8** %exn.slot, align 8, !dbg !1756
  %48 = extractvalue { i8*, i32 } %46, 1, !dbg !1756
  store i32 %48, i32* %ehselector.slot, align 4, !dbg !1756
  br label %ehcleanup, !dbg !1756

ehcleanup:                                        ; preds = %lpad42, %invoke.cont41, %catch.dispatch
  call void @_ZN11xercesc_2_717JanitorMemFunCallINS_6XMLURLEED2Ev(%"class.xercesc_2_7::JanitorMemFunCall"* %cleanup) #9, !dbg !1755
  br label %eh.resume, !dbg !1755

eh.resume:                                        ; preds = %ehcleanup
  %exn44 = load i8*, i8** %exn.slot, align 8, !dbg !1755
  %sel45 = load i32, i32* %ehselector.slot, align 4, !dbg !1755
  %lpad.val = insertvalue { i8*, i32 } undef, i8* %exn44, 0, !dbg !1755
  %lpad.val46 = insertvalue { i8*, i32 } %lpad.val, i32 %sel45, 1, !dbg !1755
  resume { i8*, i32 } %lpad.val46, !dbg !1755

terminate.lpad:                                   ; preds = %lpad39
  %49 = landingpad { i8*, i32 }
          catch i8* null, !dbg !1753
  %50 = extractvalue { i8*, i32 } %49, 0, !dbg !1753
  call void @__clang_call_terminate(i8* %50) #12, !dbg !1753
  unreachable, !dbg !1753

unreachable:                                      ; preds = %invoke.cont40
  unreachable
}

; Function Attrs: noinline uwtable
define linkonce_odr dso_local i16* @_ZN11xercesc_2_79XMLString9replicateEPKtPNS_13MemoryManagerE(i16* %toRep, %"class.xercesc_2_7::MemoryManager"* %manager) #3 comdat align 2 !dbg !1757 {
entry:
  %toRep.addr = alloca i16*, align 8
  %manager.addr = alloca %"class.xercesc_2_7::MemoryManager"*, align 8
  %ret = alloca i16*, align 8
  %len = alloca i32, align 4
  store i16* %toRep, i16** %toRep.addr, align 8
  call void @llvm.dbg.declare(metadata i16** %toRep.addr, metadata !2073, metadata !DIExpression()), !dbg !2074
  store %"class.xercesc_2_7::MemoryManager"* %manager, %"class.xercesc_2_7::MemoryManager"** %manager.addr, align 8
  call void @llvm.dbg.declare(metadata %"class.xercesc_2_7::MemoryManager"** %manager.addr, metadata !2075, metadata !DIExpression()), !dbg !2076
  call void @llvm.dbg.declare(metadata i16** %ret, metadata !2077, metadata !DIExpression()), !dbg !2078
  store i16* null, i16** %ret, align 8, !dbg !2078
  %0 = load i16*, i16** %toRep.addr, align 8, !dbg !2079
  %tobool = icmp ne i16* %0, null, !dbg !2079
  br i1 %tobool, label %if.then, label %if.end, !dbg !2081

if.then:                                          ; preds = %entry
  call void @llvm.dbg.declare(metadata i32* %len, metadata !2082, metadata !DIExpression()), !dbg !2084
  %1 = load i16*, i16** %toRep.addr, align 8, !dbg !2085
  %call = call i32 @_ZN11xercesc_2_79XMLString9stringLenEPKt(i16* %1), !dbg !2086
  store i32 %call, i32* %len, align 4, !dbg !2084
  %2 = load %"class.xercesc_2_7::MemoryManager"*, %"class.xercesc_2_7::MemoryManager"** %manager.addr, align 8, !dbg !2087
  %3 = load i32, i32* %len, align 4, !dbg !2088
  %add = add i32 %3, 1, !dbg !2089
  %conv = zext i32 %add to i64, !dbg !2090
  %mul = mul i64 %conv, 2, !dbg !2091
  %4 = bitcast %"class.xercesc_2_7::MemoryManager"* %2 to i8* (%"class.xercesc_2_7::MemoryManager"*, i64)***, !dbg !2092
  %vtable = load i8* (%"class.xercesc_2_7::MemoryManager"*, i64)**, i8* (%"class.xercesc_2_7::MemoryManager"*, i64)*** %4, align 8, !dbg !2092
  %vfn = getelementptr inbounds i8* (%"class.xercesc_2_7::MemoryManager"*, i64)*, i8* (%"class.xercesc_2_7::MemoryManager"*, i64)** %vtable, i64 2, !dbg !2092
  %5 = load i8* (%"class.xercesc_2_7::MemoryManager"*, i64)*, i8* (%"class.xercesc_2_7::MemoryManager"*, i64)** %vfn, align 8, !dbg !2092
  %call1 = call i8* %5(%"class.xercesc_2_7::MemoryManager"* %2, i64 %mul), !dbg !2092
  %6 = bitcast i8* %call1 to i16*, !dbg !2093
  store i16* %6, i16** %ret, align 8, !dbg !2094
  %7 = load i16*, i16** %ret, align 8, !dbg !2095
  %8 = bitcast i16* %7 to i8*, !dbg !2096
  %9 = load i16*, i16** %toRep.addr, align 8, !dbg !2097
  %10 = bitcast i16* %9 to i8*, !dbg !2096
  %11 = load i32, i32* %len, align 4, !dbg !2098
  %add2 = add i32 %11, 1, !dbg !2099
  %conv3 = zext i32 %add2 to i64, !dbg !2100
  %mul4 = mul i64 %conv3, 2, !dbg !2101
  call void @llvm.memcpy.p0i8.p0i8.i64(i8* align 2 %8, i8* align 2 %10, i64 %mul4, i1 false), !dbg !2096
  br label %if.end, !dbg !2102

if.end:                                           ; preds = %if.then, %entry
  %12 = load i16*, i16** %ret, align 8, !dbg !2103
  ret i16* %12, !dbg !2104
}

; Function Attrs: noinline nounwind uwtable
define dso_local void @_ZN11xercesc_2_76XMLURLD2Ev(%"class.xercesc_2_7::XMLURL"* %this) unnamed_addr #1 align 2 personality i8* bitcast (i32 (...)* @__gxx_personality_v0 to i8*) !dbg !2105 {
entry:
  %this.addr = alloca %"class.xercesc_2_7::XMLURL"*, align 8
  store %"class.xercesc_2_7::XMLURL"* %this, %"class.xercesc_2_7::XMLURL"** %this.addr, align 8
  call void @llvm.dbg.declare(metadata %"class.xercesc_2_7::XMLURL"** %this.addr, metadata !2106, metadata !DIExpression()), !dbg !2107
  %this1 = load %"class.xercesc_2_7::XMLURL"*, %"class.xercesc_2_7::XMLURL"** %this.addr, align 8
  %0 = bitcast %"class.xercesc_2_7::XMLURL"* %this1 to i32 (...)***, !dbg !2108
  store i32 (...)** bitcast (i8** getelementptr inbounds ({ [4 x i8*] }, { [4 x i8*] }* @_ZTVN11xercesc_2_76XMLURLE, i32 0, inrange i32 0, i32 2) to i32 (...)**), i32 (...)*** %0, align 8, !dbg !2108
  invoke void @_ZN11xercesc_2_76XMLURL7cleanUpEv(%"class.xercesc_2_7::XMLURL"* %this1)
          to label %invoke.cont unwind label %terminate.lpad, !dbg !2109

invoke.cont:                                      ; preds = %entry
  ret void, !dbg !2111

terminate.lpad:                                   ; preds = %entry
  %1 = landingpad { i8*, i32 }
          catch i8* null, !dbg !2109
  %2 = extractvalue { i8*, i32 } %1, 0, !dbg !2109
  call void @__clang_call_terminate(i8* %2) #12, !dbg !2109
  unreachable, !dbg !2109
}

; Function Attrs: noinline nounwind uwtable
define dso_local void @_ZN11xercesc_2_76XMLURLD0Ev(%"class.xercesc_2_7::XMLURL"* %this) unnamed_addr #1 align 2 !dbg !2112 {
entry:
  %this.addr = alloca %"class.xercesc_2_7::XMLURL"*, align 8
  store %"class.xercesc_2_7::XMLURL"* %this, %"class.xercesc_2_7::XMLURL"** %this.addr, align 8
  call void @llvm.dbg.declare(metadata %"class.xercesc_2_7::XMLURL"** %this.addr, metadata !2113, metadata !DIExpression()), !dbg !2114
  %this1 = load %"class.xercesc_2_7::XMLURL"*, %"class.xercesc_2_7::XMLURL"** %this.addr, align 8
  call void @_ZN11xercesc_2_76XMLURLD1Ev(%"class.xercesc_2_7::XMLURL"* %this1) #9, !dbg !2115
  %0 = bitcast %"class.xercesc_2_7::XMLURL"* %this1 to i8*, !dbg !2115
  call void @_ZN11xercesc_2_77XMemorydlEPv(i8* %0) #9, !dbg !2115
  ret void, !dbg !2116
}

; Function Attrs: nounwind
declare dso_local void @_ZN11xercesc_2_77XMemorydlEPv(i8*) #7

; Function Attrs: noinline uwtable
define dso_local dereferenceable(88) %"class.xercesc_2_7::XMLURL"* @_ZN11xercesc_2_76XMLURLaSERKS0_(%"class.xercesc_2_7::XMLURL"* %this, %"class.xercesc_2_7::XMLURL"* dereferenceable(88) %toAssign) #3 align 2 !dbg !2117 {
entry:
  %retval = alloca %"class.xercesc_2_7::XMLURL"*, align 8
  %this.addr = alloca %"class.xercesc_2_7::XMLURL"*, align 8
  %toAssign.addr = alloca %"class.xercesc_2_7::XMLURL"*, align 8
  store %"class.xercesc_2_7::XMLURL"* %this, %"class.xercesc_2_7::XMLURL"** %this.addr, align 8
  call void @llvm.dbg.declare(metadata %"class.xercesc_2_7::XMLURL"** %this.addr, metadata !2118, metadata !DIExpression()), !dbg !2119
  store %"class.xercesc_2_7::XMLURL"* %toAssign, %"class.xercesc_2_7::XMLURL"** %toAssign.addr, align 8
  call void @llvm.dbg.declare(metadata %"class.xercesc_2_7::XMLURL"** %toAssign.addr, metadata !2120, metadata !DIExpression()), !dbg !2121
  %this1 = load %"class.xercesc_2_7::XMLURL"*, %"class.xercesc_2_7::XMLURL"** %this.addr, align 8
  %0 = load %"class.xercesc_2_7::XMLURL"*, %"class.xercesc_2_7::XMLURL"** %toAssign.addr, align 8, !dbg !2122
  %cmp = icmp eq %"class.xercesc_2_7::XMLURL"* %this1, %0, !dbg !2124
  br i1 %cmp, label %if.then, label %if.end, !dbg !2125

if.then:                                          ; preds = %entry
  store %"class.xercesc_2_7::XMLURL"* %this1, %"class.xercesc_2_7::XMLURL"** %retval, align 8, !dbg !2126
  br label %return, !dbg !2126

if.end:                                           ; preds = %entry
  call void @_ZN11xercesc_2_76XMLURL7cleanUpEv(%"class.xercesc_2_7::XMLURL"* %this1), !dbg !2127
  %1 = load %"class.xercesc_2_7::XMLURL"*, %"class.xercesc_2_7::XMLURL"** %toAssign.addr, align 8, !dbg !2128
  %fMemoryManager = getelementptr inbounds %"class.xercesc_2_7::XMLURL", %"class.xercesc_2_7::XMLURL"* %1, i32 0, i32 1, !dbg !2129
  %2 = load %"class.xercesc_2_7::MemoryManager"*, %"class.xercesc_2_7::MemoryManager"** %fMemoryManager, align 8, !dbg !2129
  %fMemoryManager2 = getelementptr inbounds %"class.xercesc_2_7::XMLURL", %"class.xercesc_2_7::XMLURL"* %this1, i32 0, i32 1, !dbg !2130
  store %"class.xercesc_2_7::MemoryManager"* %2, %"class.xercesc_2_7::MemoryManager"** %fMemoryManager2, align 8, !dbg !2131
  %3 = load %"class.xercesc_2_7::XMLURL"*, %"class.xercesc_2_7::XMLURL"** %toAssign.addr, align 8, !dbg !2132
  %fFragment = getelementptr inbounds %"class.xercesc_2_7::XMLURL", %"class.xercesc_2_7::XMLURL"* %3, i32 0, i32 2, !dbg !2133
  %4 = load i16*, i16** %fFragment, align 8, !dbg !2133
  %fMemoryManager3 = getelementptr inbounds %"class.xercesc_2_7::XMLURL", %"class.xercesc_2_7::XMLURL"* %this1, i32 0, i32 1, !dbg !2134
  %5 = load %"class.xercesc_2_7::MemoryManager"*, %"class.xercesc_2_7::MemoryManager"** %fMemoryManager3, align 8, !dbg !2134
  %call = call i16* @_ZN11xercesc_2_79XMLString9replicateEPKtPNS_13MemoryManagerE(i16* %4, %"class.xercesc_2_7::MemoryManager"* %5), !dbg !2135
  %fFragment4 = getelementptr inbounds %"class.xercesc_2_7::XMLURL", %"class.xercesc_2_7::XMLURL"* %this1, i32 0, i32 2, !dbg !2136
  store i16* %call, i16** %fFragment4, align 8, !dbg !2137
  %6 = load %"class.xercesc_2_7::XMLURL"*, %"class.xercesc_2_7::XMLURL"** %toAssign.addr, align 8, !dbg !2138
  %fHost = getelementptr inbounds %"class.xercesc_2_7::XMLURL", %"class.xercesc_2_7::XMLURL"* %6, i32 0, i32 3, !dbg !2139
  %7 = load i16*, i16** %fHost, align 8, !dbg !2139
  %fMemoryManager5 = getelementptr inbounds %"class.xercesc_2_7::XMLURL", %"class.xercesc_2_7::XMLURL"* %this1, i32 0, i32 1, !dbg !2140
  %8 = load %"class.xercesc_2_7::MemoryManager"*, %"class.xercesc_2_7::MemoryManager"** %fMemoryManager5, align 8, !dbg !2140
  %call6 = call i16* @_ZN11xercesc_2_79XMLString9replicateEPKtPNS_13MemoryManagerE(i16* %7, %"class.xercesc_2_7::MemoryManager"* %8), !dbg !2141
  %fHost7 = getelementptr inbounds %"class.xercesc_2_7::XMLURL", %"class.xercesc_2_7::XMLURL"* %this1, i32 0, i32 3, !dbg !2142
  store i16* %call6, i16** %fHost7, align 8, !dbg !2143
  %9 = load %"class.xercesc_2_7::XMLURL"*, %"class.xercesc_2_7::XMLURL"** %toAssign.addr, align 8, !dbg !2144
  %fPassword = getelementptr inbounds %"class.xercesc_2_7::XMLURL", %"class.xercesc_2_7::XMLURL"* %9, i32 0, i32 4, !dbg !2145
  %10 = load i16*, i16** %fPassword, align 8, !dbg !2145
  %fMemoryManager8 = getelementptr inbounds %"class.xercesc_2_7::XMLURL", %"class.xercesc_2_7::XMLURL"* %this1, i32 0, i32 1, !dbg !2146
  %11 = load %"class.xercesc_2_7::MemoryManager"*, %"class.xercesc_2_7::MemoryManager"** %fMemoryManager8, align 8, !dbg !2146
  %call9 = call i16* @_ZN11xercesc_2_79XMLString9replicateEPKtPNS_13MemoryManagerE(i16* %10, %"class.xercesc_2_7::MemoryManager"* %11), !dbg !2147
  %fPassword10 = getelementptr inbounds %"class.xercesc_2_7::XMLURL", %"class.xercesc_2_7::XMLURL"* %this1, i32 0, i32 4, !dbg !2148
  store i16* %call9, i16** %fPassword10, align 8, !dbg !2149
  %12 = load %"class.xercesc_2_7::XMLURL"*, %"class.xercesc_2_7::XMLURL"** %toAssign.addr, align 8, !dbg !2150
  %fPath = getelementptr inbounds %"class.xercesc_2_7::XMLURL", %"class.xercesc_2_7::XMLURL"* %12, i32 0, i32 5, !dbg !2151
  %13 = load i16*, i16** %fPath, align 8, !dbg !2151
  %fMemoryManager11 = getelementptr inbounds %"class.xercesc_2_7::XMLURL", %"class.xercesc_2_7::XMLURL"* %this1, i32 0, i32 1, !dbg !2152
  %14 = load %"class.xercesc_2_7::MemoryManager"*, %"class.xercesc_2_7::MemoryManager"** %fMemoryManager11, align 8, !dbg !2152
  %call12 = call i16* @_ZN11xercesc_2_79XMLString9replicateEPKtPNS_13MemoryManagerE(i16* %13, %"class.xercesc_2_7::MemoryManager"* %14), !dbg !2153
  %fPath13 = getelementptr inbounds %"class.xercesc_2_7::XMLURL", %"class.xercesc_2_7::XMLURL"* %this1, i32 0, i32 5, !dbg !2154
  store i16* %call12, i16** %fPath13, align 8, !dbg !2155
  %15 = load %"class.xercesc_2_7::XMLURL"*, %"class.xercesc_2_7::XMLURL"** %toAssign.addr, align 8, !dbg !2156
  %fPortNum = getelementptr inbounds %"class.xercesc_2_7::XMLURL", %"class.xercesc_2_7::XMLURL"* %15, i32 0, i32 6, !dbg !2157
  %16 = load i32, i32* %fPortNum, align 8, !dbg !2157
  %fPortNum14 = getelementptr inbounds %"class.xercesc_2_7::XMLURL", %"class.xercesc_2_7::XMLURL"* %this1, i32 0, i32 6, !dbg !2158
  store i32 %16, i32* %fPortNum14, align 8, !dbg !2159
  %17 = load %"class.xercesc_2_7::XMLURL"*, %"class.xercesc_2_7::XMLURL"** %toAssign.addr, align 8, !dbg !2160
  %fProtocol = getelementptr inbounds %"class.xercesc_2_7::XMLURL", %"class.xercesc_2_7::XMLURL"* %17, i32 0, i32 7, !dbg !2161
  %18 = load i32, i32* %fProtocol, align 4, !dbg !2161
  %fProtocol15 = getelementptr inbounds %"class.xercesc_2_7::XMLURL", %"class.xercesc_2_7::XMLURL"* %this1, i32 0, i32 7, !dbg !2162
  store i32 %18, i32* %fProtocol15, align 4, !dbg !2163
  %19 = load %"class.xercesc_2_7::XMLURL"*, %"class.xercesc_2_7::XMLURL"** %toAssign.addr, align 8, !dbg !2164
  %fQuery = getelementptr inbounds %"class.xercesc_2_7::XMLURL", %"class.xercesc_2_7::XMLURL"* %19, i32 0, i32 8, !dbg !2165
  %20 = load i16*, i16** %fQuery, align 8, !dbg !2165
  %fMemoryManager16 = getelementptr inbounds %"class.xercesc_2_7::XMLURL", %"class.xercesc_2_7::XMLURL"* %this1, i32 0, i32 1, !dbg !2166
  %21 = load %"class.xercesc_2_7::MemoryManager"*, %"class.xercesc_2_7::MemoryManager"** %fMemoryManager16, align 8, !dbg !2166
  %call17 = call i16* @_ZN11xercesc_2_79XMLString9replicateEPKtPNS_13MemoryManagerE(i16* %20, %"class.xercesc_2_7::MemoryManager"* %21), !dbg !2167
  %fQuery18 = getelementptr inbounds %"class.xercesc_2_7::XMLURL", %"class.xercesc_2_7::XMLURL"* %this1, i32 0, i32 8, !dbg !2168
  store i16* %call17, i16** %fQuery18, align 8, !dbg !2169
  %22 = load %"class.xercesc_2_7::XMLURL"*, %"class.xercesc_2_7::XMLURL"** %toAssign.addr, align 8, !dbg !2170
  %fUser = getelementptr inbounds %"class.xercesc_2_7::XMLURL", %"class.xercesc_2_7::XMLURL"* %22, i32 0, i32 9, !dbg !2171
  %23 = load i16*, i16** %fUser, align 8, !dbg !2171
  %fMemoryManager19 = getelementptr inbounds %"class.xercesc_2_7::XMLURL", %"class.xercesc_2_7::XMLURL"* %this1, i32 0, i32 1, !dbg !2172
  %24 = load %"class.xercesc_2_7::MemoryManager"*, %"class.xercesc_2_7::MemoryManager"** %fMemoryManager19, align 8, !dbg !2172
  %call20 = call i16* @_ZN11xercesc_2_79XMLString9replicateEPKtPNS_13MemoryManagerE(i16* %23, %"class.xercesc_2_7::MemoryManager"* %24), !dbg !2173
  %fUser21 = getelementptr inbounds %"class.xercesc_2_7::XMLURL", %"class.xercesc_2_7::XMLURL"* %this1, i32 0, i32 9, !dbg !2174
  store i16* %call20, i16** %fUser21, align 8, !dbg !2175
  %25 = load %"class.xercesc_2_7::XMLURL"*, %"class.xercesc_2_7::XMLURL"** %toAssign.addr, align 8, !dbg !2176
  %fURLText = getelementptr inbounds %"class.xercesc_2_7::XMLURL", %"class.xercesc_2_7::XMLURL"* %25, i32 0, i32 10, !dbg !2177
  %26 = load i16*, i16** %fURLText, align 8, !dbg !2177
  %fMemoryManager22 = getelementptr inbounds %"class.xercesc_2_7::XMLURL", %"class.xercesc_2_7::XMLURL"* %this1, i32 0, i32 1, !dbg !2178
  %27 = load %"class.xercesc_2_7::MemoryManager"*, %"class.xercesc_2_7::MemoryManager"** %fMemoryManager22, align 8, !dbg !2178
  %call23 = call i16* @_ZN11xercesc_2_79XMLString9replicateEPKtPNS_13MemoryManagerE(i16* %26, %"class.xercesc_2_7::MemoryManager"* %27), !dbg !2179
  %fURLText24 = getelementptr inbounds %"class.xercesc_2_7::XMLURL", %"class.xercesc_2_7::XMLURL"* %this1, i32 0, i32 10, !dbg !2180
  store i16* %call23, i16** %fURLText24, align 8, !dbg !2181
  %28 = load %"class.xercesc_2_7::XMLURL"*, %"class.xercesc_2_7::XMLURL"** %toAssign.addr, align 8, !dbg !2182
  %fHasInvalidChar = getelementptr inbounds %"class.xercesc_2_7::XMLURL", %"class.xercesc_2_7::XMLURL"* %28, i32 0, i32 11, !dbg !2183
  %29 = load i8, i8* %fHasInvalidChar, align 8, !dbg !2183
  %tobool = trunc i8 %29 to i1, !dbg !2183
  %fHasInvalidChar25 = getelementptr inbounds %"class.xercesc_2_7::XMLURL", %"class.xercesc_2_7::XMLURL"* %this1, i32 0, i32 11, !dbg !2184
  %frombool = zext i1 %tobool to i8, !dbg !2185
  store i8 %frombool, i8* %fHasInvalidChar25, align 8, !dbg !2185
  store %"class.xercesc_2_7::XMLURL"* %this1, %"class.xercesc_2_7::XMLURL"** %retval, align 8, !dbg !2186
  br label %return, !dbg !2186

return:                                           ; preds = %if.end, %if.then
  %30 = load %"class.xercesc_2_7::XMLURL"*, %"class.xercesc_2_7::XMLURL"** %retval, align 8, !dbg !2187
  ret %"class.xercesc_2_7::XMLURL"* %30, !dbg !2187
}

; Function Attrs: noinline uwtable
define dso_local zeroext i1 @_ZNK11xercesc_2_76XMLURLeqERKS0_(%"class.xercesc_2_7::XMLURL"* %this, %"class.xercesc_2_7::XMLURL"* dereferenceable(88) %toCompare) #3 align 2 !dbg !2188 {
entry:
  %retval = alloca i1, align 1
  %this.addr = alloca %"class.xercesc_2_7::XMLURL"*, align 8
  %toCompare.addr = alloca %"class.xercesc_2_7::XMLURL"*, align 8
  store %"class.xercesc_2_7::XMLURL"* %this, %"class.xercesc_2_7::XMLURL"** %this.addr, align 8
  call void @llvm.dbg.declare(metadata %"class.xercesc_2_7::XMLURL"** %this.addr, metadata !2189, metadata !DIExpression()), !dbg !2191
  store %"class.xercesc_2_7::XMLURL"* %toCompare, %"class.xercesc_2_7::XMLURL"** %toCompare.addr, align 8
  call void @llvm.dbg.declare(metadata %"class.xercesc_2_7::XMLURL"** %toCompare.addr, metadata !2192, metadata !DIExpression()), !dbg !2193
  %this1 = load %"class.xercesc_2_7::XMLURL"*, %"class.xercesc_2_7::XMLURL"** %this.addr, align 8
  %call = call i16* @_ZNK11xercesc_2_76XMLURL10getURLTextEv(%"class.xercesc_2_7::XMLURL"* %this1), !dbg !2194
  %0 = load %"class.xercesc_2_7::XMLURL"*, %"class.xercesc_2_7::XMLURL"** %toCompare.addr, align 8, !dbg !2196
  %call2 = call i16* @_ZNK11xercesc_2_76XMLURL10getURLTextEv(%"class.xercesc_2_7::XMLURL"* %0), !dbg !2197
  %call3 = call zeroext i1 @_ZN11xercesc_2_79XMLString6equalsEPKtS2_(i16* %call, i16* %call2), !dbg !2198
  br i1 %call3, label %if.end, label %if.then, !dbg !2199

if.then:                                          ; preds = %entry
  store i1 false, i1* %retval, align 1, !dbg !2200
  br label %return, !dbg !2200

if.end:                                           ; preds = %entry
  store i1 true, i1* %retval, align 1, !dbg !2201
  br label %return, !dbg !2201

return:                                           ; preds = %if.end, %if.then
  %1 = load i1, i1* %retval, align 1, !dbg !2202
  ret i1 %1, !dbg !2202
}

; Function Attrs: noinline nounwind uwtable
define linkonce_odr dso_local zeroext i1 @_ZN11xercesc_2_79XMLString6equalsEPKtS2_(i16* %str1, i16* %str2) #1 comdat align 2 !dbg !2203 {
entry:
  %retval = alloca i1, align 1
  %str1.addr = alloca i16*, align 8
  %str2.addr = alloca i16*, align 8
  %psz1 = alloca i16*, align 8
  %psz2 = alloca i16*, align 8
  store i16* %str1, i16** %str1.addr, align 8
  call void @llvm.dbg.declare(metadata i16** %str1.addr, metadata !2204, metadata !DIExpression()), !dbg !2205
  store i16* %str2, i16** %str2.addr, align 8
  call void @llvm.dbg.declare(metadata i16** %str2.addr, metadata !2206, metadata !DIExpression()), !dbg !2207
  call void @llvm.dbg.declare(metadata i16** %psz1, metadata !2208, metadata !DIExpression()), !dbg !2209
  %0 = load i16*, i16** %str1.addr, align 8, !dbg !2210
  store i16* %0, i16** %psz1, align 8, !dbg !2209
  call void @llvm.dbg.declare(metadata i16** %psz2, metadata !2211, metadata !DIExpression()), !dbg !2212
  %1 = load i16*, i16** %str2.addr, align 8, !dbg !2213
  store i16* %1, i16** %psz2, align 8, !dbg !2212
  %2 = load i16*, i16** %psz1, align 8, !dbg !2214
  %cmp = icmp eq i16* %2, null, !dbg !2216
  br i1 %cmp, label %if.then, label %lor.lhs.false, !dbg !2217

lor.lhs.false:                                    ; preds = %entry
  %3 = load i16*, i16** %psz2, align 8, !dbg !2218
  %cmp1 = icmp eq i16* %3, null, !dbg !2219
  br i1 %cmp1, label %if.then, label %if.end, !dbg !2220

if.then:                                          ; preds = %lor.lhs.false, %entry
  %4 = load i16*, i16** %psz1, align 8, !dbg !2221
  %cmp2 = icmp ne i16* %4, null, !dbg !2224
  br i1 %cmp2, label %land.lhs.true, label %lor.lhs.false3, !dbg !2225

land.lhs.true:                                    ; preds = %if.then
  %5 = load i16*, i16** %psz1, align 8, !dbg !2226
  %6 = load i16, i16* %5, align 2, !dbg !2227
  %tobool = icmp ne i16 %6, 0, !dbg !2227
  br i1 %tobool, label %if.then7, label %lor.lhs.false3, !dbg !2228

lor.lhs.false3:                                   ; preds = %land.lhs.true, %if.then
  %7 = load i16*, i16** %psz2, align 8, !dbg !2229
  %cmp4 = icmp ne i16* %7, null, !dbg !2230
  br i1 %cmp4, label %land.lhs.true5, label %if.else, !dbg !2231

land.lhs.true5:                                   ; preds = %lor.lhs.false3
  %8 = load i16*, i16** %psz2, align 8, !dbg !2232
  %9 = load i16, i16* %8, align 2, !dbg !2233
  %tobool6 = icmp ne i16 %9, 0, !dbg !2233
  br i1 %tobool6, label %if.then7, label %if.else, !dbg !2234

if.then7:                                         ; preds = %land.lhs.true5, %land.lhs.true
  store i1 false, i1* %retval, align 1, !dbg !2235
  br label %return, !dbg !2235

if.else:                                          ; preds = %land.lhs.true5, %lor.lhs.false3
  store i1 true, i1* %retval, align 1, !dbg !2236
  br label %return, !dbg !2236

if.end:                                           ; preds = %lor.lhs.false
  br label %while.cond, !dbg !2237

while.cond:                                       ; preds = %if.end12, %if.end
  %10 = load i16*, i16** %psz1, align 8, !dbg !2238
  %11 = load i16, i16* %10, align 2, !dbg !2239
  %conv = zext i16 %11 to i32, !dbg !2239
  %12 = load i16*, i16** %psz2, align 8, !dbg !2240
  %13 = load i16, i16* %12, align 2, !dbg !2241
  %conv8 = zext i16 %13 to i32, !dbg !2241
  %cmp9 = icmp eq i32 %conv, %conv8, !dbg !2242
  br i1 %cmp9, label %while.body, label %while.end, !dbg !2237

while.body:                                       ; preds = %while.cond
  %14 = load i16*, i16** %psz1, align 8, !dbg !2243
  %15 = load i16, i16* %14, align 2, !dbg !2246
  %tobool10 = icmp ne i16 %15, 0, !dbg !2246
  br i1 %tobool10, label %if.end12, label %if.then11, !dbg !2247

if.then11:                                        ; preds = %while.body
  store i1 true, i1* %retval, align 1, !dbg !2248
  br label %return, !dbg !2248

if.end12:                                         ; preds = %while.body
  %16 = load i16*, i16** %psz1, align 8, !dbg !2249
  %incdec.ptr = getelementptr inbounds i16, i16* %16, i32 1, !dbg !2249
  store i16* %incdec.ptr, i16** %psz1, align 8, !dbg !2249
  %17 = load i16*, i16** %psz2, align 8, !dbg !2250
  %incdec.ptr13 = getelementptr inbounds i16, i16* %17, i32 1, !dbg !2250
  store i16* %incdec.ptr13, i16** %psz2, align 8, !dbg !2250
  br label %while.cond, !dbg !2237, !llvm.loop !2251

while.end:                                        ; preds = %while.cond
  store i1 false, i1* %retval, align 1, !dbg !2253
  br label %return, !dbg !2253

return:                                           ; preds = %while.end, %if.then11, %if.else, %if.then7
  %18 = load i1, i1* %retval, align 1, !dbg !2254
  ret i1 %18, !dbg !2254
}

; Function Attrs: noinline uwtable
define linkonce_odr dso_local i16* @_ZNK11xercesc_2_76XMLURL10getURLTextEv(%"class.xercesc_2_7::XMLURL"* %this) #3 comdat align 2 !dbg !2255 {
entry:
  %this.addr = alloca %"class.xercesc_2_7::XMLURL"*, align 8
  store %"class.xercesc_2_7::XMLURL"* %this, %"class.xercesc_2_7::XMLURL"** %this.addr, align 8
  call void @llvm.dbg.declare(metadata %"class.xercesc_2_7::XMLURL"** %this.addr, metadata !2256, metadata !DIExpression()), !dbg !2257
  %this1 = load %"class.xercesc_2_7::XMLURL"*, %"class.xercesc_2_7::XMLURL"** %this.addr, align 8
  %fURLText = getelementptr inbounds %"class.xercesc_2_7::XMLURL", %"class.xercesc_2_7::XMLURL"* %this1, i32 0, i32 10, !dbg !2258
  %0 = load i16*, i16** %fURLText, align 8, !dbg !2258
  %tobool = icmp ne i16* %0, null, !dbg !2258
  br i1 %tobool, label %if.end, label %if.then, !dbg !2260

if.then:                                          ; preds = %entry
  call void @_ZN11xercesc_2_76XMLURL13buildFullTextEv(%"class.xercesc_2_7::XMLURL"* %this1), !dbg !2261
  br label %if.end, !dbg !2262

if.end:                                           ; preds = %if.then, %entry
  %fURLText2 = getelementptr inbounds %"class.xercesc_2_7::XMLURL", %"class.xercesc_2_7::XMLURL"* %this1, i32 0, i32 10, !dbg !2263
  %1 = load i16*, i16** %fURLText2, align 8, !dbg !2263
  ret i16* %1, !dbg !2264
}

; Function Attrs: noinline nounwind uwtable
define dso_local i32 @_ZNK11xercesc_2_76XMLURL10getPortNumEv(%"class.xercesc_2_7::XMLURL"* %this) #1 align 2 !dbg !2265 {
entry:
  %retval = alloca i32, align 4
  %this.addr = alloca %"class.xercesc_2_7::XMLURL"*, align 8
  store %"class.xercesc_2_7::XMLURL"* %this, %"class.xercesc_2_7::XMLURL"** %this.addr, align 8
  call void @llvm.dbg.declare(metadata %"class.xercesc_2_7::XMLURL"** %this.addr, metadata !2266, metadata !DIExpression()), !dbg !2267
  %this1 = load %"class.xercesc_2_7::XMLURL"*, %"class.xercesc_2_7::XMLURL"** %this.addr, align 8
  %fPortNum = getelementptr inbounds %"class.xercesc_2_7::XMLURL", %"class.xercesc_2_7::XMLURL"* %this1, i32 0, i32 6, !dbg !2268
  %0 = load i32, i32* %fPortNum, align 8, !dbg !2268
  %tobool = icmp ne i32 %0, 0, !dbg !2268
  br i1 %tobool, label %if.end4, label %if.then, !dbg !2270

if.then:                                          ; preds = %entry
  %fProtocol = getelementptr inbounds %"class.xercesc_2_7::XMLURL", %"class.xercesc_2_7::XMLURL"* %this1, i32 0, i32 7, !dbg !2271
  %1 = load i32, i32* %fProtocol, align 4, !dbg !2271
  %cmp = icmp eq i32 %1, 4, !dbg !2274
  br i1 %cmp, label %if.then2, label %if.end, !dbg !2275

if.then2:                                         ; preds = %if.then
  store i32 0, i32* %retval, align 4, !dbg !2276
  br label %return, !dbg !2276

if.end:                                           ; preds = %if.then
  %fProtocol3 = getelementptr inbounds %"class.xercesc_2_7::XMLURL", %"class.xercesc_2_7::XMLURL"* %this1, i32 0, i32 7, !dbg !2277
  %2 = load i32, i32* %fProtocol3, align 4, !dbg !2277
  %idxprom = zext i32 %2 to i64, !dbg !2278
  %arrayidx = getelementptr inbounds [3 x %"struct.xercesc_2_7::ProtoEntry"], [3 x %"struct.xercesc_2_7::ProtoEntry"]* @_ZN11xercesc_2_7L10gProtoListE, i64 0, i64 %idxprom, !dbg !2278
  %defPort = getelementptr inbounds %"struct.xercesc_2_7::ProtoEntry", %"struct.xercesc_2_7::ProtoEntry"* %arrayidx, i32 0, i32 2, !dbg !2279
  %3 = load i32, i32* %defPort, align 8, !dbg !2279
  store i32 %3, i32* %retval, align 4, !dbg !2280
  br label %return, !dbg !2280

if.end4:                                          ; preds = %entry
  %fPortNum5 = getelementptr inbounds %"class.xercesc_2_7::XMLURL", %"class.xercesc_2_7::XMLURL"* %this1, i32 0, i32 6, !dbg !2281
  %4 = load i32, i32* %fPortNum5, align 8, !dbg !2281
  store i32 %4, i32* %retval, align 4, !dbg !2282
  br label %return, !dbg !2282

return:                                           ; preds = %if.end4, %if.end, %if.then2
  %5 = load i32, i32* %retval, align 4, !dbg !2283
  ret i32 %5, !dbg !2283
}

; Function Attrs: noinline uwtable
define dso_local i16* @_ZNK11xercesc_2_76XMLURL15getProtocolNameEv(%"class.xercesc_2_7::XMLURL"* %this) #3 align 2 personality i8* bitcast (i32 (...)* @__gxx_personality_v0 to i8*) !dbg !2284 {
entry:
  %this.addr = alloca %"class.xercesc_2_7::XMLURL"*, align 8
  %exn.slot = alloca i8*
  %ehselector.slot = alloca i32
  store %"class.xercesc_2_7::XMLURL"* %this, %"class.xercesc_2_7::XMLURL"** %this.addr, align 8
  call void @llvm.dbg.declare(metadata %"class.xercesc_2_7::XMLURL"** %this.addr, metadata !2285, metadata !DIExpression()), !dbg !2286
  %this1 = load %"class.xercesc_2_7::XMLURL"*, %"class.xercesc_2_7::XMLURL"** %this.addr, align 8
  %fProtocol = getelementptr inbounds %"class.xercesc_2_7::XMLURL", %"class.xercesc_2_7::XMLURL"* %this1, i32 0, i32 7, !dbg !2287
  %0 = load i32, i32* %fProtocol, align 4, !dbg !2287
  %cmp = icmp eq i32 %0, 4, !dbg !2289
  br i1 %cmp, label %if.then, label %if.end, !dbg !2290

if.then:                                          ; preds = %entry
  %exception = call i8* @__cxa_allocate_exception(i64 48) #9, !dbg !2291
  %1 = bitcast i8* %exception to %"class.xercesc_2_7::MalformedURLException"*, !dbg !2291
  %fMemoryManager = getelementptr inbounds %"class.xercesc_2_7::XMLURL", %"class.xercesc_2_7::XMLURL"* %this1, i32 0, i32 1, !dbg !2291
  %2 = load %"class.xercesc_2_7::MemoryManager"*, %"class.xercesc_2_7::MemoryManager"** %fMemoryManager, align 8, !dbg !2291
  invoke void @_ZN11xercesc_2_721MalformedURLExceptionC2EPKcjNS_10XMLExcepts5CodesEPNS_13MemoryManagerE(%"class.xercesc_2_7::MalformedURLException"* %1, i8* getelementptr inbounds ([11 x i8], [11 x i8]* @.str, i64 0, i64 0), i32 471, i32 103, %"class.xercesc_2_7::MemoryManager"* %2)
          to label %invoke.cont unwind label %lpad, !dbg !2291

invoke.cont:                                      ; preds = %if.then
  call void @__cxa_throw(i8* %exception, i8* bitcast ({ i8*, i8*, i8* }* @_ZTIN11xercesc_2_721MalformedURLExceptionE to i8*), i8* bitcast (void (%"class.xercesc_2_7::MalformedURLException"*)* @_ZN11xercesc_2_721MalformedURLExceptionD2Ev to i8*)) #11, !dbg !2291
  unreachable, !dbg !2291

lpad:                                             ; preds = %if.then
  %3 = landingpad { i8*, i32 }
          cleanup, !dbg !2292
  %4 = extractvalue { i8*, i32 } %3, 0, !dbg !2292
  store i8* %4, i8** %exn.slot, align 8, !dbg !2292
  %5 = extractvalue { i8*, i32 } %3, 1, !dbg !2292
  store i32 %5, i32* %ehselector.slot, align 4, !dbg !2292
  call void @__cxa_free_exception(i8* %exception) #9, !dbg !2291
  br label %eh.resume, !dbg !2291

if.end:                                           ; preds = %entry
  %fProtocol2 = getelementptr inbounds %"class.xercesc_2_7::XMLURL", %"class.xercesc_2_7::XMLURL"* %this1, i32 0, i32 7, !dbg !2293
  %6 = load i32, i32* %fProtocol2, align 4, !dbg !2293
  %idxprom = zext i32 %6 to i64, !dbg !2294
  %arrayidx = getelementptr inbounds [3 x %"struct.xercesc_2_7::ProtoEntry"], [3 x %"struct.xercesc_2_7::ProtoEntry"]* @_ZN11xercesc_2_7L10gProtoListE, i64 0, i64 %idxprom, !dbg !2294
  %prefix = getelementptr inbounds %"struct.xercesc_2_7::ProtoEntry", %"struct.xercesc_2_7::ProtoEntry"* %arrayidx, i32 0, i32 1, !dbg !2295
  %7 = load i16*, i16** %prefix, align 8, !dbg !2295
  ret i16* %7, !dbg !2296

eh.resume:                                        ; preds = %lpad
  %exn = load i8*, i8** %exn.slot, align 8, !dbg !2291
  %sel = load i32, i32* %ehselector.slot, align 4, !dbg !2291
  %lpad.val = insertvalue { i8*, i32 } undef, i8* %exn, 0, !dbg !2291
  %lpad.val3 = insertvalue { i8*, i32 } %lpad.val, i32 %sel, 1, !dbg !2291
  resume { i8*, i32 } %lpad.val3, !dbg !2291
}

declare dso_local i8* @__cxa_allocate_exception(i64)

; Function Attrs: noinline uwtable
define linkonce_odr dso_local void @_ZN11xercesc_2_721MalformedURLExceptionC2EPKcjNS_10XMLExcepts5CodesEPNS_13MemoryManagerE(%"class.xercesc_2_7::MalformedURLException"* %this, i8* %srcFile, i32 %srcLine, i32 %toThrow, %"class.xercesc_2_7::MemoryManager"* %memoryManager) unnamed_addr #3 comdat align 2 personality i8* bitcast (i32 (...)* @__gxx_personality_v0 to i8*) !dbg !2297 {
entry:
  %this.addr = alloca %"class.xercesc_2_7::MalformedURLException"*, align 8
  %srcFile.addr = alloca i8*, align 8
  %srcLine.addr = alloca i32, align 4
  %toThrow.addr = alloca i32, align 4
  %memoryManager.addr = alloca %"class.xercesc_2_7::MemoryManager"*, align 8
  %exn.slot = alloca i8*
  %ehselector.slot = alloca i32
  store %"class.xercesc_2_7::MalformedURLException"* %this, %"class.xercesc_2_7::MalformedURLException"** %this.addr, align 8
  call void @llvm.dbg.declare(metadata %"class.xercesc_2_7::MalformedURLException"** %this.addr, metadata !2335, metadata !DIExpression()), !dbg !2337
  store i8* %srcFile, i8** %srcFile.addr, align 8
  call void @llvm.dbg.declare(metadata i8** %srcFile.addr, metadata !2338, metadata !DIExpression()), !dbg !2339
  store i32 %srcLine, i32* %srcLine.addr, align 4
  call void @llvm.dbg.declare(metadata i32* %srcLine.addr, metadata !2340, metadata !DIExpression()), !dbg !2339
  store i32 %toThrow, i32* %toThrow.addr, align 4
  call void @llvm.dbg.declare(metadata i32* %toThrow.addr, metadata !2341, metadata !DIExpression()), !dbg !2339
  store %"class.xercesc_2_7::MemoryManager"* %memoryManager, %"class.xercesc_2_7::MemoryManager"** %memoryManager.addr, align 8
  call void @llvm.dbg.declare(metadata %"class.xercesc_2_7::MemoryManager"** %memoryManager.addr, metadata !2342, metadata !DIExpression()), !dbg !2339
  %this1 = load %"class.xercesc_2_7::MalformedURLException"*, %"class.xercesc_2_7::MalformedURLException"** %this.addr, align 8
  %0 = bitcast %"class.xercesc_2_7::MalformedURLException"* %this1 to %"class.xercesc_2_7::XMLException"*, !dbg !2339
  %1 = load i8*, i8** %srcFile.addr, align 8, !dbg !2339
  %2 = load i32, i32* %srcLine.addr, align 4, !dbg !2339
  %3 = load %"class.xercesc_2_7::MemoryManager"*, %"class.xercesc_2_7::MemoryManager"** %memoryManager.addr, align 8, !dbg !2339
  call void @_ZN11xercesc_2_712XMLExceptionC2EPKcjPNS_13MemoryManagerE(%"class.xercesc_2_7::XMLException"* %0, i8* %1, i32 %2, %"class.xercesc_2_7::MemoryManager"* %3), !dbg !2339
  %4 = bitcast %"class.xercesc_2_7::MalformedURLException"* %this1 to i32 (...)***, !dbg !2339
  store i32 (...)** bitcast (i8** getelementptr inbounds ({ [6 x i8*] }, { [6 x i8*] }* @_ZTVN11xercesc_2_721MalformedURLExceptionE, i32 0, inrange i32 0, i32 2) to i32 (...)**), i32 (...)*** %4, align 8, !dbg !2339
  %5 = bitcast %"class.xercesc_2_7::MalformedURLException"* %this1 to %"class.xercesc_2_7::XMLException"*, !dbg !2343
  %6 = load i32, i32* %toThrow.addr, align 4, !dbg !2343
  invoke void @_ZN11xercesc_2_712XMLException14loadExceptTextENS_10XMLExcepts5CodesE(%"class.xercesc_2_7::XMLException"* %5, i32 %6)
          to label %invoke.cont unwind label %lpad, !dbg !2343

invoke.cont:                                      ; preds = %entry
  ret void, !dbg !2339

lpad:                                             ; preds = %entry
  %7 = landingpad { i8*, i32 }
          cleanup, !dbg !2343
  %8 = extractvalue { i8*, i32 } %7, 0, !dbg !2343
  store i8* %8, i8** %exn.slot, align 8, !dbg !2343
  %9 = extractvalue { i8*, i32 } %7, 1, !dbg !2343
  store i32 %9, i32* %ehselector.slot, align 4, !dbg !2343
  %10 = bitcast %"class.xercesc_2_7::MalformedURLException"* %this1 to %"class.xercesc_2_7::XMLException"*, !dbg !2343
  call void @_ZN11xercesc_2_712XMLExceptionD2Ev(%"class.xercesc_2_7::XMLException"* %10) #9, !dbg !2343
  br label %eh.resume, !dbg !2343

eh.resume:                                        ; preds = %lpad
  %exn = load i8*, i8** %exn.slot, align 8, !dbg !2343
  %sel = load i32, i32* %ehselector.slot, align 4, !dbg !2343
  %lpad.val = insertvalue { i8*, i32 } undef, i8* %exn, 0, !dbg !2343
  %lpad.val2 = insertvalue { i8*, i32 } %lpad.val, i32 %sel, 1, !dbg !2343
  resume { i8*, i32 } %lpad.val2, !dbg !2343
}

declare dso_local void @__cxa_free_exception(i8*)

; Function Attrs: noinline nounwind uwtable
define linkonce_odr dso_local void @_ZN11xercesc_2_721MalformedURLExceptionD2Ev(%"class.xercesc_2_7::MalformedURLException"* %this) unnamed_addr #1 comdat align 2 !dbg !2345 {
entry:
  %this.addr = alloca %"class.xercesc_2_7::MalformedURLException"*, align 8
  store %"class.xercesc_2_7::MalformedURLException"* %this, %"class.xercesc_2_7::MalformedURLException"** %this.addr, align 8
  call void @llvm.dbg.declare(metadata %"class.xercesc_2_7::MalformedURLException"** %this.addr, metadata !2346, metadata !DIExpression()), !dbg !2347
  %this1 = load %"class.xercesc_2_7::MalformedURLException"*, %"class.xercesc_2_7::MalformedURLException"** %this.addr, align 8
  %0 = bitcast %"class.xercesc_2_7::MalformedURLException"* %this1 to %"class.xercesc_2_7::XMLException"*, !dbg !2348
  call void @_ZN11xercesc_2_712XMLExceptionD2Ev(%"class.xercesc_2_7::XMLException"* %0) #9, !dbg !2348
  ret void, !dbg !2350
}

declare dso_local void @__cxa_throw(i8*, i8*, i8*)

; Function Attrs: noinline uwtable
define dso_local void @_ZN11xercesc_2_76XMLURL5parseEPKt(%"class.xercesc_2_7::XMLURL"* %this, i16* %urlText) #3 align 2 personality i8* bitcast (i32 (...)* @__gxx_personality_v0 to i8*) !dbg !2351 {
entry:
  %this.addr = alloca %"class.xercesc_2_7::XMLURL"*, align 8
  %urlText.addr = alloca i16*, align 8
  %exn.slot = alloca i8*
  %ehselector.slot = alloca i32
  %srcCpy = alloca i16*, align 8
  %janSrcCopy = alloca %"class.xercesc_2_7::ArrayJanitor", align 8
  %srcPtr = alloca i16*, align 8
  %ptr1 = alloca i16*, align 8
  %ptr2 = alloca i16*, align 8
  %cleanup.dest.slot = alloca i32, align 4
  store %"class.xercesc_2_7::XMLURL"* %this, %"class.xercesc_2_7::XMLURL"** %this.addr, align 8
  call void @llvm.dbg.declare(metadata %"class.xercesc_2_7::XMLURL"** %this.addr, metadata !2352, metadata !DIExpression()), !dbg !2353
  store i16* %urlText, i16** %urlText.addr, align 8
  call void @llvm.dbg.declare(metadata i16** %urlText.addr, metadata !2354, metadata !DIExpression()), !dbg !2355
  %this1 = load %"class.xercesc_2_7::XMLURL"*, %"class.xercesc_2_7::XMLURL"** %this.addr, align 8
  %0 = load i16*, i16** %urlText.addr, align 8, !dbg !2356
  %1 = load i16, i16* %0, align 2, !dbg !2358
  %tobool = icmp ne i16 %1, 0, !dbg !2358
  br i1 %tobool, label %if.end, label %if.then, !dbg !2359

if.then:                                          ; preds = %entry
  %exception = call i8* @__cxa_allocate_exception(i64 48) #9, !dbg !2360
  %2 = bitcast i8* %exception to %"class.xercesc_2_7::MalformedURLException"*, !dbg !2360
  %fMemoryManager = getelementptr inbounds %"class.xercesc_2_7::XMLURL", %"class.xercesc_2_7::XMLURL"* %this1, i32 0, i32 1, !dbg !2360
  %3 = load %"class.xercesc_2_7::MemoryManager"*, %"class.xercesc_2_7::MemoryManager"** %fMemoryManager, align 8, !dbg !2360
  invoke void @_ZN11xercesc_2_721MalformedURLExceptionC2EPKcjNS_10XMLExcepts5CodesEPNS_13MemoryManagerE(%"class.xercesc_2_7::MalformedURLException"* %2, i8* getelementptr inbounds ([11 x i8], [11 x i8]* @.str, i64 0, i64 0), i32 915, i32 103, %"class.xercesc_2_7::MemoryManager"* %3)
          to label %invoke.cont unwind label %lpad, !dbg !2360

invoke.cont:                                      ; preds = %if.then
  call void @__cxa_throw(i8* %exception, i8* bitcast ({ i8*, i8*, i8* }* @_ZTIN11xercesc_2_721MalformedURLExceptionE to i8*), i8* bitcast (void (%"class.xercesc_2_7::MalformedURLException"*)* @_ZN11xercesc_2_721MalformedURLExceptionD2Ev to i8*)) #11, !dbg !2360
  unreachable, !dbg !2360

lpad:                                             ; preds = %if.then
  %4 = landingpad { i8*, i32 }
          cleanup, !dbg !2361
  %5 = extractvalue { i8*, i32 } %4, 0, !dbg !2361
  store i8* %5, i8** %exn.slot, align 8, !dbg !2361
  %6 = extractvalue { i8*, i32 } %4, 1, !dbg !2361
  store i32 %6, i32* %ehselector.slot, align 4, !dbg !2361
  call void @__cxa_free_exception(i8* %exception) #9, !dbg !2360
  br label %eh.resume, !dbg !2360

if.end:                                           ; preds = %entry
  %7 = load i16*, i16** %urlText.addr, align 8, !dbg !2362
  %call = call zeroext i1 @_ZN11xercesc_2_76XMLUri11isURIStringEPKt(i16* %7), !dbg !2364
  br i1 %call, label %if.else, label %if.then2, !dbg !2365

if.then2:                                         ; preds = %if.end
  %fHasInvalidChar = getelementptr inbounds %"class.xercesc_2_7::XMLURL", %"class.xercesc_2_7::XMLURL"* %this1, i32 0, i32 11, !dbg !2366
  store i8 1, i8* %fHasInvalidChar, align 8, !dbg !2367
  br label %if.end4, !dbg !2366

if.else:                                          ; preds = %if.end
  %fHasInvalidChar3 = getelementptr inbounds %"class.xercesc_2_7::XMLURL", %"class.xercesc_2_7::XMLURL"* %this1, i32 0, i32 11, !dbg !2368
  store i8 0, i8* %fHasInvalidChar3, align 8, !dbg !2369
  br label %if.end4

if.end4:                                          ; preds = %if.else, %if.then2
  %8 = load i16*, i16** %urlText.addr, align 8, !dbg !2370
  %9 = load i16, i16* %8, align 2, !dbg !2372
  %conv = zext i16 %9 to i32, !dbg !2372
  %cmp = icmp sge i32 %conv, 65, !dbg !2373
  br i1 %cmp, label %land.lhs.true, label %lor.lhs.false, !dbg !2374

land.lhs.true:                                    ; preds = %if.end4
  %10 = load i16*, i16** %urlText.addr, align 8, !dbg !2375
  %11 = load i16, i16* %10, align 2, !dbg !2376
  %conv5 = zext i16 %11 to i32, !dbg !2376
  %cmp6 = icmp sle i32 %conv5, 90, !dbg !2377
  br i1 %cmp6, label %if.then12, label %lor.lhs.false, !dbg !2378

lor.lhs.false:                                    ; preds = %land.lhs.true, %if.end4
  %12 = load i16*, i16** %urlText.addr, align 8, !dbg !2379
  %13 = load i16, i16* %12, align 2, !dbg !2380
  %conv7 = zext i16 %13 to i32, !dbg !2380
  %cmp8 = icmp sge i32 %conv7, 97, !dbg !2381
  br i1 %cmp8, label %land.lhs.true9, label %if.end30, !dbg !2382

land.lhs.true9:                                   ; preds = %lor.lhs.false
  %14 = load i16*, i16** %urlText.addr, align 8, !dbg !2383
  %15 = load i16, i16* %14, align 2, !dbg !2384
  %conv10 = zext i16 %15 to i32, !dbg !2384
  %cmp11 = icmp sle i32 %conv10, 122, !dbg !2385
  br i1 %cmp11, label %if.then12, label %if.end30, !dbg !2386

if.then12:                                        ; preds = %land.lhs.true9, %land.lhs.true
  %16 = load i16*, i16** %urlText.addr, align 8, !dbg !2387
  %add.ptr = getelementptr inbounds i16, i16* %16, i64 1, !dbg !2390
  %17 = load i16, i16* %add.ptr, align 2, !dbg !2391
  %conv13 = zext i16 %17 to i32, !dbg !2391
  %cmp14 = icmp eq i32 %conv13, 58, !dbg !2392
  br i1 %cmp14, label %if.then15, label %if.end29, !dbg !2393

if.then15:                                        ; preds = %if.then12
  %18 = load i16*, i16** %urlText.addr, align 8, !dbg !2394
  %add.ptr16 = getelementptr inbounds i16, i16* %18, i64 2, !dbg !2397
  %19 = load i16, i16* %add.ptr16, align 2, !dbg !2398
  %conv17 = zext i16 %19 to i32, !dbg !2398
  %cmp18 = icmp eq i32 %conv17, 47, !dbg !2399
  br i1 %cmp18, label %if.then23, label %lor.lhs.false19, !dbg !2400

lor.lhs.false19:                                  ; preds = %if.then15
  %20 = load i16*, i16** %urlText.addr, align 8, !dbg !2401
  %add.ptr20 = getelementptr inbounds i16, i16* %20, i64 2, !dbg !2402
  %21 = load i16, i16* %add.ptr20, align 2, !dbg !2403
  %conv21 = zext i16 %21 to i32, !dbg !2403
  %cmp22 = icmp eq i32 %conv21, 92, !dbg !2404
  br i1 %cmp22, label %if.then23, label %if.end28, !dbg !2405

if.then23:                                        ; preds = %lor.lhs.false19, %if.then15
  %exception24 = call i8* @__cxa_allocate_exception(i64 48) #9, !dbg !2406
  %22 = bitcast i8* %exception24 to %"class.xercesc_2_7::MalformedURLException"*, !dbg !2406
  %fMemoryManager25 = getelementptr inbounds %"class.xercesc_2_7::XMLURL", %"class.xercesc_2_7::XMLURL"* %this1, i32 0, i32 1, !dbg !2406
  %23 = load %"class.xercesc_2_7::MemoryManager"*, %"class.xercesc_2_7::MemoryManager"** %fMemoryManager25, align 8, !dbg !2406
  invoke void @_ZN11xercesc_2_721MalformedURLExceptionC2EPKcjNS_10XMLExcepts5CodesEPNS_13MemoryManagerE(%"class.xercesc_2_7::MalformedURLException"* %22, i8* getelementptr inbounds ([11 x i8], [11 x i8]* @.str, i64 0, i64 0), i32 936, i32 103, %"class.xercesc_2_7::MemoryManager"* %23)
          to label %invoke.cont27 unwind label %lpad26, !dbg !2406

invoke.cont27:                                    ; preds = %if.then23
  call void @__cxa_throw(i8* %exception24, i8* bitcast ({ i8*, i8*, i8* }* @_ZTIN11xercesc_2_721MalformedURLExceptionE to i8*), i8* bitcast (void (%"class.xercesc_2_7::MalformedURLException"*)* @_ZN11xercesc_2_721MalformedURLExceptionD2Ev to i8*)) #11, !dbg !2406
  unreachable, !dbg !2406

lpad26:                                           ; preds = %if.then23
  %24 = landingpad { i8*, i32 }
          cleanup, !dbg !2408
  %25 = extractvalue { i8*, i32 } %24, 0, !dbg !2408
  store i8* %25, i8** %exn.slot, align 8, !dbg !2408
  %26 = extractvalue { i8*, i32 } %24, 1, !dbg !2408
  store i32 %26, i32* %ehselector.slot, align 4, !dbg !2408
  call void @__cxa_free_exception(i8* %exception24) #9, !dbg !2406
  br label %eh.resume, !dbg !2406

if.end28:                                         ; preds = %lor.lhs.false19
  br label %if.end29, !dbg !2409

if.end29:                                         ; preds = %if.end28, %if.then12
  br label %if.end30, !dbg !2410

if.end30:                                         ; preds = %if.end29, %land.lhs.true9, %lor.lhs.false
  call void @llvm.dbg.declare(metadata i16** %srcCpy, metadata !2411, metadata !DIExpression()), !dbg !2412
  %27 = load i16*, i16** %urlText.addr, align 8, !dbg !2413
  %fMemoryManager31 = getelementptr inbounds %"class.xercesc_2_7::XMLURL", %"class.xercesc_2_7::XMLURL"* %this1, i32 0, i32 1, !dbg !2414
  %28 = load %"class.xercesc_2_7::MemoryManager"*, %"class.xercesc_2_7::MemoryManager"** %fMemoryManager31, align 8, !dbg !2414
  %call32 = call i16* @_ZN11xercesc_2_79XMLString9replicateEPKtPNS_13MemoryManagerE(i16* %27, %"class.xercesc_2_7::MemoryManager"* %28), !dbg !2415
  store i16* %call32, i16** %srcCpy, align 8, !dbg !2412
  call void @llvm.dbg.declare(metadata %"class.xercesc_2_7::ArrayJanitor"* %janSrcCopy, metadata !2416, metadata !DIExpression()), !dbg !2417
  %29 = load i16*, i16** %srcCpy, align 8, !dbg !2418
  %fMemoryManager33 = getelementptr inbounds %"class.xercesc_2_7::XMLURL", %"class.xercesc_2_7::XMLURL"* %this1, i32 0, i32 1, !dbg !2419
  %30 = load %"class.xercesc_2_7::MemoryManager"*, %"class.xercesc_2_7::MemoryManager"** %fMemoryManager33, align 8, !dbg !2419
  call void @_ZN11xercesc_2_712ArrayJanitorItEC2EPtPNS_13MemoryManagerE(%"class.xercesc_2_7::ArrayJanitor"* %janSrcCopy, i16* %29, %"class.xercesc_2_7::MemoryManager"* %30), !dbg !2417
  call void @llvm.dbg.declare(metadata i16** %srcPtr, metadata !2420, metadata !DIExpression()), !dbg !2421
  %31 = load i16*, i16** %srcCpy, align 8, !dbg !2422
  store i16* %31, i16** %srcPtr, align 8, !dbg !2421
  br label %while.cond, !dbg !2423

while.cond:                                       ; preds = %if.end39, %if.end30
  %32 = load i16*, i16** %srcPtr, align 8, !dbg !2424
  %33 = load i16, i16* %32, align 2, !dbg !2425
  %tobool34 = icmp ne i16 %33, 0, !dbg !2425
  br i1 %tobool34, label %while.body, label %while.end, !dbg !2423

while.body:                                       ; preds = %while.cond
  %34 = load i16*, i16** %srcPtr, align 8, !dbg !2426
  %35 = load i16, i16* %34, align 2, !dbg !2429
  %call37 = invoke zeroext i1 @_ZN11xercesc_2_710XMLChar1_012isWhitespaceEt(i16 zeroext %35)
          to label %invoke.cont36 unwind label %lpad35, !dbg !2430

invoke.cont36:                                    ; preds = %while.body
  br i1 %call37, label %if.end39, label %if.then38, !dbg !2431

if.then38:                                        ; preds = %invoke.cont36
  br label %while.end, !dbg !2432

lpad35:                                           ; preds = %invoke.cont292, %if.then286, %if.else263, %if.then258, %invoke.cont251, %if.end249, %invoke.cont244, %if.then239, %invoke.cont216, %if.then211, %invoke.cont204, %if.then200, %if.end196, %if.then185, %invoke.cont180, %if.then171, %if.end166, %invoke.cont160, %if.then155, %invoke.cont150, %invoke.cont139, %invoke.cont136, %if.then132, %if.then127, %invoke.cont122, %invoke.cont106, %invoke.cont104, %if.else99, %invoke.cont84, %if.then82, %if.then76, %invoke.cont62, %if.then53, %if.end46, %invoke.cont45, %while.body
  %36 = landingpad { i8*, i32 }
          cleanup, !dbg !2433
  %37 = extractvalue { i8*, i32 } %36, 0, !dbg !2433
  store i8* %37, i8** %exn.slot, align 8, !dbg !2433
  %38 = extractvalue { i8*, i32 } %36, 1, !dbg !2433
  store i32 %38, i32* %ehselector.slot, align 4, !dbg !2433
  br label %ehcleanup, !dbg !2433

if.end39:                                         ; preds = %invoke.cont36
  %39 = load i16*, i16** %srcPtr, align 8, !dbg !2434
  %incdec.ptr = getelementptr inbounds i16, i16* %39, i32 1, !dbg !2434
  store i16* %incdec.ptr, i16** %srcPtr, align 8, !dbg !2434
  br label %while.cond, !dbg !2423, !llvm.loop !2435

while.end:                                        ; preds = %if.then38, %while.cond
  %40 = load i16*, i16** %srcPtr, align 8, !dbg !2437
  %41 = load i16, i16* %40, align 2, !dbg !2439
  %tobool40 = icmp ne i16 %41, 0, !dbg !2439
  br i1 %tobool40, label %if.end46, label %if.then41, !dbg !2440

if.then41:                                        ; preds = %while.end
  %exception42 = call i8* @__cxa_allocate_exception(i64 48) #9, !dbg !2441
  %42 = bitcast i8* %exception42 to %"class.xercesc_2_7::MalformedURLException"*, !dbg !2441
  %fMemoryManager43 = getelementptr inbounds %"class.xercesc_2_7::XMLURL", %"class.xercesc_2_7::XMLURL"* %this1, i32 0, i32 1, !dbg !2441
  %43 = load %"class.xercesc_2_7::MemoryManager"*, %"class.xercesc_2_7::MemoryManager"** %fMemoryManager43, align 8, !dbg !2441
  invoke void @_ZN11xercesc_2_721MalformedURLExceptionC2EPKcjNS_10XMLExcepts5CodesEPNS_13MemoryManagerE(%"class.xercesc_2_7::MalformedURLException"* %42, i8* getelementptr inbounds ([11 x i8], [11 x i8]* @.str, i64 0, i64 0), i32 961, i32 103, %"class.xercesc_2_7::MemoryManager"* %43)
          to label %invoke.cont45 unwind label %lpad44, !dbg !2441

invoke.cont45:                                    ; preds = %if.then41
  invoke void @__cxa_throw(i8* %exception42, i8* bitcast ({ i8*, i8*, i8* }* @_ZTIN11xercesc_2_721MalformedURLExceptionE to i8*), i8* bitcast (void (%"class.xercesc_2_7::MalformedURLException"*)* @_ZN11xercesc_2_721MalformedURLExceptionD2Ev to i8*)) #11
          to label %unreachable unwind label %lpad35, !dbg !2441

lpad44:                                           ; preds = %if.then41
  %44 = landingpad { i8*, i32 }
          cleanup, !dbg !2442
  %45 = extractvalue { i8*, i32 } %44, 0, !dbg !2442
  store i8* %45, i8** %exn.slot, align 8, !dbg !2442
  %46 = extractvalue { i8*, i32 } %44, 1, !dbg !2442
  store i32 %46, i32* %ehselector.slot, align 4, !dbg !2442
  call void @__cxa_free_exception(i8* %exception42) #9, !dbg !2441
  br label %ehcleanup, !dbg !2441

if.end46:                                         ; preds = %while.end
  call void @llvm.dbg.declare(metadata i16** %ptr1, metadata !2443, metadata !DIExpression()), !dbg !2444
  %47 = load i16*, i16** %srcPtr, align 8, !dbg !2445
  %call48 = invoke i16* @_ZN11xercesc_2_79XMLString7findAnyEPtPKt(i16* %47, i16* getelementptr inbounds ([3 x i16], [3 x i16]* @_ZN11xercesc_2_7L8gListOneE, i64 0, i64 0))
          to label %invoke.cont47 unwind label %lpad35, !dbg !2446

invoke.cont47:                                    ; preds = %if.end46
  store i16* %call48, i16** %ptr1, align 8, !dbg !2444
  call void @llvm.dbg.declare(metadata i16** %ptr2, metadata !2447, metadata !DIExpression()), !dbg !2448
  %48 = load i16*, i16** %ptr1, align 8, !dbg !2449
  %tobool49 = icmp ne i16* %48, null, !dbg !2449
  br i1 %tobool49, label %if.then50, label %if.end66, !dbg !2451

if.then50:                                        ; preds = %invoke.cont47
  %49 = load i16*, i16** %ptr1, align 8, !dbg !2452
  %50 = load i16, i16* %49, align 2, !dbg !2455
  %conv51 = zext i16 %50 to i32, !dbg !2455
  %cmp52 = icmp eq i32 %conv51, 58, !dbg !2456
  br i1 %cmp52, label %if.then53, label %if.end65, !dbg !2457

if.then53:                                        ; preds = %if.then50
  %51 = load i16*, i16** %ptr1, align 8, !dbg !2458
  store i16 0, i16* %51, align 2, !dbg !2460
  %52 = load i16*, i16** %srcPtr, align 8, !dbg !2461
  %call55 = invoke i32 @_ZN11xercesc_2_76XMLURL12lookupByNameEPKt(i16* %52)
          to label %invoke.cont54 unwind label %lpad35, !dbg !2462

invoke.cont54:                                    ; preds = %if.then53
  %fProtocol = getelementptr inbounds %"class.xercesc_2_7::XMLURL", %"class.xercesc_2_7::XMLURL"* %this1, i32 0, i32 7, !dbg !2463
  store i32 %call55, i32* %fProtocol, align 4, !dbg !2464
  %fProtocol56 = getelementptr inbounds %"class.xercesc_2_7::XMLURL", %"class.xercesc_2_7::XMLURL"* %this1, i32 0, i32 7, !dbg !2465
  %53 = load i32, i32* %fProtocol56, align 4, !dbg !2465
  %cmp57 = icmp eq i32 %53, 4, !dbg !2467
  br i1 %cmp57, label %if.then58, label %if.end63, !dbg !2468

if.then58:                                        ; preds = %invoke.cont54
  %exception59 = call i8* @__cxa_allocate_exception(i64 48) #9, !dbg !2469
  %54 = bitcast i8* %exception59 to %"class.xercesc_2_7::MalformedURLException"*, !dbg !2469
  %55 = load i16*, i16** %srcPtr, align 8, !dbg !2469
  %fMemoryManager60 = getelementptr inbounds %"class.xercesc_2_7::XMLURL", %"class.xercesc_2_7::XMLURL"* %this1, i32 0, i32 1, !dbg !2469
  %56 = load %"class.xercesc_2_7::MemoryManager"*, %"class.xercesc_2_7::MemoryManager"** %fMemoryManager60, align 8, !dbg !2469
  invoke void @_ZN11xercesc_2_721MalformedURLExceptionC2EPKcjNS_10XMLExcepts5CodesEPKtS6_S6_S6_PNS_13MemoryManagerE(%"class.xercesc_2_7::MalformedURLException"* %54, i8* getelementptr inbounds ([11 x i8], [11 x i8]* @.str, i64 0, i64 0), i32 990, i32 101, i16* %55, i16* null, i16* null, i16* null, %"class.xercesc_2_7::MemoryManager"* %56)
          to label %invoke.cont62 unwind label %lpad61, !dbg !2469

invoke.cont62:                                    ; preds = %if.then58
  invoke void @__cxa_throw(i8* %exception59, i8* bitcast ({ i8*, i8*, i8* }* @_ZTIN11xercesc_2_721MalformedURLExceptionE to i8*), i8* bitcast (void (%"class.xercesc_2_7::MalformedURLException"*)* @_ZN11xercesc_2_721MalformedURLExceptionD2Ev to i8*)) #11
          to label %unreachable unwind label %lpad35, !dbg !2469

lpad61:                                           ; preds = %if.then58
  %57 = landingpad { i8*, i32 }
          cleanup, !dbg !2471
  %58 = extractvalue { i8*, i32 } %57, 0, !dbg !2471
  store i8* %58, i8** %exn.slot, align 8, !dbg !2471
  %59 = extractvalue { i8*, i32 } %57, 1, !dbg !2471
  store i32 %59, i32* %ehselector.slot, align 4, !dbg !2471
  call void @__cxa_free_exception(i8* %exception59) #9, !dbg !2469
  br label %ehcleanup, !dbg !2469

if.end63:                                         ; preds = %invoke.cont54
  %60 = load i16*, i16** %ptr1, align 8, !dbg !2472
  %add.ptr64 = getelementptr inbounds i16, i16* %60, i64 1, !dbg !2473
  store i16* %add.ptr64, i16** %srcPtr, align 8, !dbg !2474
  br label %if.end65, !dbg !2475

if.end65:                                         ; preds = %if.end63, %if.then50
  br label %if.end66, !dbg !2476

if.end66:                                         ; preds = %if.end65, %invoke.cont47
  %61 = load i16*, i16** %srcPtr, align 8, !dbg !2477
  %62 = load i16, i16* %61, align 2, !dbg !2479
  %conv67 = zext i16 %62 to i32, !dbg !2479
  %cmp68 = icmp eq i32 %conv67, 47, !dbg !2480
  br i1 %cmp68, label %land.lhs.true69, label %if.else115, !dbg !2481

land.lhs.true69:                                  ; preds = %if.end66
  %63 = load i16*, i16** %srcPtr, align 8, !dbg !2482
  %add.ptr70 = getelementptr inbounds i16, i16* %63, i64 1, !dbg !2483
  %64 = load i16, i16* %add.ptr70, align 2, !dbg !2484
  %conv71 = zext i16 %64 to i32, !dbg !2484
  %cmp72 = icmp eq i32 %conv71, 47, !dbg !2485
  br i1 %cmp72, label %if.then73, label %if.else115, !dbg !2486

if.then73:                                        ; preds = %land.lhs.true69
  %65 = load i16*, i16** %srcPtr, align 8, !dbg !2487
  %add.ptr74 = getelementptr inbounds i16, i16* %65, i64 2, !dbg !2487
  store i16* %add.ptr74, i16** %srcPtr, align 8, !dbg !2487
  %66 = load i16*, i16** %srcPtr, align 8, !dbg !2489
  %67 = load i16, i16* %66, align 2, !dbg !2491
  %tobool75 = icmp ne i16 %67, 0, !dbg !2491
  br i1 %tobool75, label %if.then76, label %if.end114, !dbg !2492

if.then76:                                        ; preds = %if.then73
  %68 = load i16*, i16** %srcPtr, align 8, !dbg !2493
  %call78 = invoke i16* @_ZN11xercesc_2_79XMLString7findAnyEPtPKt(i16* %68, i16* getelementptr inbounds ([2 x i16], [2 x i16]* @_ZN11xercesc_2_7L9gListFourE, i64 0, i64 0))
          to label %invoke.cont77 unwind label %lpad35, !dbg !2495

invoke.cont77:                                    ; preds = %if.then76
  store i16* %call78, i16** %ptr1, align 8, !dbg !2496
  %69 = load i16*, i16** %ptr1, align 8, !dbg !2497
  %tobool79 = icmp ne i16* %69, null, !dbg !2497
  br i1 %tobool79, label %if.then80, label %if.else99, !dbg !2499

if.then80:                                        ; preds = %invoke.cont77
  %70 = load i16*, i16** %ptr1, align 8, !dbg !2500
  %71 = load i16*, i16** %srcPtr, align 8, !dbg !2503
  %cmp81 = icmp ne i16* %70, %71, !dbg !2504
  br i1 %cmp81, label %if.then82, label %if.end98, !dbg !2505

if.then82:                                        ; preds = %if.then80
  %fMemoryManager83 = getelementptr inbounds %"class.xercesc_2_7::XMLURL", %"class.xercesc_2_7::XMLURL"* %this1, i32 0, i32 1, !dbg !2506
  %72 = load %"class.xercesc_2_7::MemoryManager"*, %"class.xercesc_2_7::MemoryManager"** %fMemoryManager83, align 8, !dbg !2506
  %fHost = getelementptr inbounds %"class.xercesc_2_7::XMLURL", %"class.xercesc_2_7::XMLURL"* %this1, i32 0, i32 3, !dbg !2508
  %73 = load i16*, i16** %fHost, align 8, !dbg !2508
  %74 = bitcast i16* %73 to i8*, !dbg !2508
  %75 = bitcast %"class.xercesc_2_7::MemoryManager"* %72 to void (%"class.xercesc_2_7::MemoryManager"*, i8*)***, !dbg !2509
  %vtable = load void (%"class.xercesc_2_7::MemoryManager"*, i8*)**, void (%"class.xercesc_2_7::MemoryManager"*, i8*)*** %75, align 8, !dbg !2509
  %vfn = getelementptr inbounds void (%"class.xercesc_2_7::MemoryManager"*, i8*)*, void (%"class.xercesc_2_7::MemoryManager"*, i8*)** %vtable, i64 3, !dbg !2509
  %76 = load void (%"class.xercesc_2_7::MemoryManager"*, i8*)*, void (%"class.xercesc_2_7::MemoryManager"*, i8*)** %vfn, align 8, !dbg !2509
  invoke void %76(%"class.xercesc_2_7::MemoryManager"* %72, i8* %74)
          to label %invoke.cont84 unwind label %lpad35, !dbg !2509

invoke.cont84:                                    ; preds = %if.then82
  %fMemoryManager85 = getelementptr inbounds %"class.xercesc_2_7::XMLURL", %"class.xercesc_2_7::XMLURL"* %this1, i32 0, i32 1, !dbg !2510
  %77 = load %"class.xercesc_2_7::MemoryManager"*, %"class.xercesc_2_7::MemoryManager"** %fMemoryManager85, align 8, !dbg !2510
  %78 = load i16*, i16** %ptr1, align 8, !dbg !2511
  %79 = load i16*, i16** %srcPtr, align 8, !dbg !2512
  %sub.ptr.lhs.cast = ptrtoint i16* %78 to i64, !dbg !2513
  %sub.ptr.rhs.cast = ptrtoint i16* %79 to i64, !dbg !2513
  %sub.ptr.sub = sub i64 %sub.ptr.lhs.cast, %sub.ptr.rhs.cast, !dbg !2513
  %sub.ptr.div = sdiv exact i64 %sub.ptr.sub, 2, !dbg !2513
  %add = add nsw i64 %sub.ptr.div, 1, !dbg !2514
  %mul = mul i64 %add, 2, !dbg !2515
  %80 = bitcast %"class.xercesc_2_7::MemoryManager"* %77 to i8* (%"class.xercesc_2_7::MemoryManager"*, i64)***, !dbg !2516
  %vtable86 = load i8* (%"class.xercesc_2_7::MemoryManager"*, i64)**, i8* (%"class.xercesc_2_7::MemoryManager"*, i64)*** %80, align 8, !dbg !2516
  %vfn87 = getelementptr inbounds i8* (%"class.xercesc_2_7::MemoryManager"*, i64)*, i8* (%"class.xercesc_2_7::MemoryManager"*, i64)** %vtable86, i64 2, !dbg !2516
  %81 = load i8* (%"class.xercesc_2_7::MemoryManager"*, i64)*, i8* (%"class.xercesc_2_7::MemoryManager"*, i64)** %vfn87, align 8, !dbg !2516
  %call89 = invoke i8* %81(%"class.xercesc_2_7::MemoryManager"* %77, i64 %mul)
          to label %invoke.cont88 unwind label %lpad35, !dbg !2516

invoke.cont88:                                    ; preds = %invoke.cont84
  %82 = bitcast i8* %call89 to i16*, !dbg !2517
  %fHost90 = getelementptr inbounds %"class.xercesc_2_7::XMLURL", %"class.xercesc_2_7::XMLURL"* %this1, i32 0, i32 3, !dbg !2518
  store i16* %82, i16** %fHost90, align 8, !dbg !2519
  %fHost91 = getelementptr inbounds %"class.xercesc_2_7::XMLURL", %"class.xercesc_2_7::XMLURL"* %this1, i32 0, i32 3, !dbg !2520
  %83 = load i16*, i16** %fHost91, align 8, !dbg !2520
  store i16* %83, i16** %ptr2, align 8, !dbg !2521
  br label %while.cond92, !dbg !2522

while.cond92:                                     ; preds = %while.body94, %invoke.cont88
  %84 = load i16*, i16** %srcPtr, align 8, !dbg !2523
  %85 = load i16*, i16** %ptr1, align 8, !dbg !2524
  %cmp93 = icmp ult i16* %84, %85, !dbg !2525
  br i1 %cmp93, label %while.body94, label %while.end97, !dbg !2522

while.body94:                                     ; preds = %while.cond92
  %86 = load i16*, i16** %srcPtr, align 8, !dbg !2526
  %incdec.ptr95 = getelementptr inbounds i16, i16* %86, i32 1, !dbg !2526
  store i16* %incdec.ptr95, i16** %srcPtr, align 8, !dbg !2526
  %87 = load i16, i16* %86, align 2, !dbg !2527
  %88 = load i16*, i16** %ptr2, align 8, !dbg !2528
  %incdec.ptr96 = getelementptr inbounds i16, i16* %88, i32 1, !dbg !2528
  store i16* %incdec.ptr96, i16** %ptr2, align 8, !dbg !2528
  store i16 %87, i16* %88, align 2, !dbg !2529
  br label %while.cond92, !dbg !2522, !llvm.loop !2530

while.end97:                                      ; preds = %while.cond92
  %89 = load i16*, i16** %ptr2, align 8, !dbg !2531
  store i16 0, i16* %89, align 2, !dbg !2532
  br label %if.end98, !dbg !2533

if.end98:                                         ; preds = %while.end97, %if.then80
  br label %if.end113, !dbg !2534

if.else99:                                        ; preds = %invoke.cont77
  %fMemoryManager100 = getelementptr inbounds %"class.xercesc_2_7::XMLURL", %"class.xercesc_2_7::XMLURL"* %this1, i32 0, i32 1, !dbg !2535
  %90 = load %"class.xercesc_2_7::MemoryManager"*, %"class.xercesc_2_7::MemoryManager"** %fMemoryManager100, align 8, !dbg !2535
  %fHost101 = getelementptr inbounds %"class.xercesc_2_7::XMLURL", %"class.xercesc_2_7::XMLURL"* %this1, i32 0, i32 3, !dbg !2537
  %91 = load i16*, i16** %fHost101, align 8, !dbg !2537
  %92 = bitcast i16* %91 to i8*, !dbg !2537
  %93 = bitcast %"class.xercesc_2_7::MemoryManager"* %90 to void (%"class.xercesc_2_7::MemoryManager"*, i8*)***, !dbg !2538
  %vtable102 = load void (%"class.xercesc_2_7::MemoryManager"*, i8*)**, void (%"class.xercesc_2_7::MemoryManager"*, i8*)*** %93, align 8, !dbg !2538
  %vfn103 = getelementptr inbounds void (%"class.xercesc_2_7::MemoryManager"*, i8*)*, void (%"class.xercesc_2_7::MemoryManager"*, i8*)** %vtable102, i64 3, !dbg !2538
  %94 = load void (%"class.xercesc_2_7::MemoryManager"*, i8*)*, void (%"class.xercesc_2_7::MemoryManager"*, i8*)** %vfn103, align 8, !dbg !2538
  invoke void %94(%"class.xercesc_2_7::MemoryManager"* %90, i8* %92)
          to label %invoke.cont104 unwind label %lpad35, !dbg !2538

invoke.cont104:                                   ; preds = %if.else99
  %95 = load i16*, i16** %srcPtr, align 8, !dbg !2539
  %fMemoryManager105 = getelementptr inbounds %"class.xercesc_2_7::XMLURL", %"class.xercesc_2_7::XMLURL"* %this1, i32 0, i32 1, !dbg !2540
  %96 = load %"class.xercesc_2_7::MemoryManager"*, %"class.xercesc_2_7::MemoryManager"** %fMemoryManager105, align 8, !dbg !2540
  %call107 = invoke i16* @_ZN11xercesc_2_79XMLString9replicateEPKtPNS_13MemoryManagerE(i16* %95, %"class.xercesc_2_7::MemoryManager"* %96)
          to label %invoke.cont106 unwind label %lpad35, !dbg !2541

invoke.cont106:                                   ; preds = %invoke.cont104
  %fHost108 = getelementptr inbounds %"class.xercesc_2_7::XMLURL", %"class.xercesc_2_7::XMLURL"* %this1, i32 0, i32 3, !dbg !2542
  store i16* %call107, i16** %fHost108, align 8, !dbg !2543
  %fHost109 = getelementptr inbounds %"class.xercesc_2_7::XMLURL", %"class.xercesc_2_7::XMLURL"* %this1, i32 0, i32 3, !dbg !2544
  %97 = load i16*, i16** %fHost109, align 8, !dbg !2544
  %call111 = invoke i32 @_ZN11xercesc_2_79XMLString9stringLenEPKt(i16* %97)
          to label %invoke.cont110 unwind label %lpad35, !dbg !2545

invoke.cont110:                                   ; preds = %invoke.cont106
  %98 = load i16*, i16** %srcPtr, align 8, !dbg !2546
  %idx.ext = zext i32 %call111 to i64, !dbg !2546
  %add.ptr112 = getelementptr inbounds i16, i16* %98, i64 %idx.ext, !dbg !2546
  store i16* %add.ptr112, i16** %srcPtr, align 8, !dbg !2546
  br label %if.end113

if.end113:                                        ; preds = %invoke.cont110, %if.end98
  br label %if.end114, !dbg !2547

if.end114:                                        ; preds = %if.end113, %if.then73
  br label %if.end124, !dbg !2548

if.else115:                                       ; preds = %land.lhs.true69, %if.end66
  %fProtocol116 = getelementptr inbounds %"class.xercesc_2_7::XMLURL", %"class.xercesc_2_7::XMLURL"* %this1, i32 0, i32 7, !dbg !2549
  %99 = load i32, i32* %fProtocol116, align 4, !dbg !2549
  %cmp117 = icmp eq i32 %99, 1, !dbg !2552
  br i1 %cmp117, label %if.then118, label %if.end123, !dbg !2553

if.then118:                                       ; preds = %if.else115
  %exception119 = call i8* @__cxa_allocate_exception(i64 48) #9, !dbg !2554
  %100 = bitcast i8* %exception119 to %"class.xercesc_2_7::MalformedURLException"*, !dbg !2554
  %fMemoryManager120 = getelementptr inbounds %"class.xercesc_2_7::XMLURL", %"class.xercesc_2_7::XMLURL"* %this1, i32 0, i32 1, !dbg !2554
  %101 = load %"class.xercesc_2_7::MemoryManager"*, %"class.xercesc_2_7::MemoryManager"** %fMemoryManager120, align 8, !dbg !2554
  invoke void @_ZN11xercesc_2_721MalformedURLExceptionC2EPKcjNS_10XMLExcepts5CodesEPNS_13MemoryManagerE(%"class.xercesc_2_7::MalformedURLException"* %100, i8* getelementptr inbounds ([11 x i8], [11 x i8]* @.str, i64 0, i64 0), i32 1059, i32 104, %"class.xercesc_2_7::MemoryManager"* %101)
          to label %invoke.cont122 unwind label %lpad121, !dbg !2554

invoke.cont122:                                   ; preds = %if.then118
  invoke void @__cxa_throw(i8* %exception119, i8* bitcast ({ i8*, i8*, i8* }* @_ZTIN11xercesc_2_721MalformedURLExceptionE to i8*), i8* bitcast (void (%"class.xercesc_2_7::MalformedURLException"*)* @_ZN11xercesc_2_721MalformedURLExceptionD2Ev to i8*)) #11
          to label %unreachable unwind label %lpad35, !dbg !2554

lpad121:                                          ; preds = %if.then118
  %102 = landingpad { i8*, i32 }
          cleanup, !dbg !2556
  %103 = extractvalue { i8*, i32 } %102, 0, !dbg !2556
  store i8* %103, i8** %exn.slot, align 8, !dbg !2556
  %104 = extractvalue { i8*, i32 } %102, 1, !dbg !2556
  store i32 %104, i32* %ehselector.slot, align 4, !dbg !2556
  call void @__cxa_free_exception(i8* %exception119) #9, !dbg !2554
  br label %ehcleanup, !dbg !2554

if.end123:                                        ; preds = %if.else115
  br label %if.end124

if.end124:                                        ; preds = %if.end123, %if.end114
  %fHost125 = getelementptr inbounds %"class.xercesc_2_7::XMLURL", %"class.xercesc_2_7::XMLURL"* %this1, i32 0, i32 3, !dbg !2557
  %105 = load i16*, i16** %fHost125, align 8, !dbg !2557
  %tobool126 = icmp ne i16* %105, null, !dbg !2557
  br i1 %tobool126, label %if.then127, label %if.end193, !dbg !2559

if.then127:                                       ; preds = %if.end124
  %fHost128 = getelementptr inbounds %"class.xercesc_2_7::XMLURL", %"class.xercesc_2_7::XMLURL"* %this1, i32 0, i32 3, !dbg !2560
  %106 = load i16*, i16** %fHost128, align 8, !dbg !2560
  %call130 = invoke i16* @_ZN11xercesc_2_79XMLString7findAnyEPtPKt(i16* %106, i16* getelementptr inbounds ([2 x i16], [2 x i16]* @_ZN11xercesc_2_7L8gListTwoE, i64 0, i64 0))
          to label %invoke.cont129 unwind label %lpad35, !dbg !2562

invoke.cont129:                                   ; preds = %if.then127
  store i16* %call130, i16** %ptr1, align 8, !dbg !2563
  %107 = load i16*, i16** %ptr1, align 8, !dbg !2564
  %tobool131 = icmp ne i16* %107, null, !dbg !2564
  br i1 %tobool131, label %if.then132, label %if.end166, !dbg !2566

if.then132:                                       ; preds = %invoke.cont129
  %108 = load i16*, i16** %ptr1, align 8, !dbg !2567
  store i16 0, i16* %108, align 2, !dbg !2569
  %fMemoryManager133 = getelementptr inbounds %"class.xercesc_2_7::XMLURL", %"class.xercesc_2_7::XMLURL"* %this1, i32 0, i32 1, !dbg !2570
  %109 = load %"class.xercesc_2_7::MemoryManager"*, %"class.xercesc_2_7::MemoryManager"** %fMemoryManager133, align 8, !dbg !2570
  %fUser = getelementptr inbounds %"class.xercesc_2_7::XMLURL", %"class.xercesc_2_7::XMLURL"* %this1, i32 0, i32 9, !dbg !2571
  %110 = load i16*, i16** %fUser, align 8, !dbg !2571
  %111 = bitcast i16* %110 to i8*, !dbg !2571
  %112 = bitcast %"class.xercesc_2_7::MemoryManager"* %109 to void (%"class.xercesc_2_7::MemoryManager"*, i8*)***, !dbg !2572
  %vtable134 = load void (%"class.xercesc_2_7::MemoryManager"*, i8*)**, void (%"class.xercesc_2_7::MemoryManager"*, i8*)*** %112, align 8, !dbg !2572
  %vfn135 = getelementptr inbounds void (%"class.xercesc_2_7::MemoryManager"*, i8*)*, void (%"class.xercesc_2_7::MemoryManager"*, i8*)** %vtable134, i64 3, !dbg !2572
  %113 = load void (%"class.xercesc_2_7::MemoryManager"*, i8*)*, void (%"class.xercesc_2_7::MemoryManager"*, i8*)** %vfn135, align 8, !dbg !2572
  invoke void %113(%"class.xercesc_2_7::MemoryManager"* %109, i8* %111)
          to label %invoke.cont136 unwind label %lpad35, !dbg !2572

invoke.cont136:                                   ; preds = %if.then132
  %fHost137 = getelementptr inbounds %"class.xercesc_2_7::XMLURL", %"class.xercesc_2_7::XMLURL"* %this1, i32 0, i32 3, !dbg !2573
  %114 = load i16*, i16** %fHost137, align 8, !dbg !2573
  %fMemoryManager138 = getelementptr inbounds %"class.xercesc_2_7::XMLURL", %"class.xercesc_2_7::XMLURL"* %this1, i32 0, i32 1, !dbg !2574
  %115 = load %"class.xercesc_2_7::MemoryManager"*, %"class.xercesc_2_7::MemoryManager"** %fMemoryManager138, align 8, !dbg !2574
  %call140 = invoke i16* @_ZN11xercesc_2_79XMLString9replicateEPKtPNS_13MemoryManagerE(i16* %114, %"class.xercesc_2_7::MemoryManager"* %115)
          to label %invoke.cont139 unwind label %lpad35, !dbg !2575

invoke.cont139:                                   ; preds = %invoke.cont136
  %fUser141 = getelementptr inbounds %"class.xercesc_2_7::XMLURL", %"class.xercesc_2_7::XMLURL"* %this1, i32 0, i32 9, !dbg !2576
  store i16* %call140, i16** %fUser141, align 8, !dbg !2577
  %116 = load i16*, i16** %ptr1, align 8, !dbg !2578
  %incdec.ptr142 = getelementptr inbounds i16, i16* %116, i32 1, !dbg !2578
  store i16* %incdec.ptr142, i16** %ptr1, align 8, !dbg !2578
  %fHost143 = getelementptr inbounds %"class.xercesc_2_7::XMLURL", %"class.xercesc_2_7::XMLURL"* %this1, i32 0, i32 3, !dbg !2579
  %117 = load i16*, i16** %fHost143, align 8, !dbg !2579
  %118 = load i16*, i16** %ptr1, align 8, !dbg !2580
  %fHost144 = getelementptr inbounds %"class.xercesc_2_7::XMLURL", %"class.xercesc_2_7::XMLURL"* %this1, i32 0, i32 3, !dbg !2581
  %119 = load i16*, i16** %fHost144, align 8, !dbg !2581
  %sub.ptr.lhs.cast145 = ptrtoint i16* %118 to i64, !dbg !2582
  %sub.ptr.rhs.cast146 = ptrtoint i16* %119 to i64, !dbg !2582
  %sub.ptr.sub147 = sub i64 %sub.ptr.lhs.cast145, %sub.ptr.rhs.cast146, !dbg !2582
  %sub.ptr.div148 = sdiv exact i64 %sub.ptr.sub147, 2, !dbg !2582
  %conv149 = trunc i64 %sub.ptr.div148 to i32, !dbg !2580
  invoke void @_ZN11xercesc_2_79XMLString3cutEPtj(i16* %117, i32 %conv149)
          to label %invoke.cont150 unwind label %lpad35, !dbg !2583

invoke.cont150:                                   ; preds = %invoke.cont139
  %fUser151 = getelementptr inbounds %"class.xercesc_2_7::XMLURL", %"class.xercesc_2_7::XMLURL"* %this1, i32 0, i32 9, !dbg !2584
  %120 = load i16*, i16** %fUser151, align 8, !dbg !2584
  %call153 = invoke i16* @_ZN11xercesc_2_79XMLString7findAnyEPtPKt(i16* %120, i16* getelementptr inbounds ([2 x i16], [2 x i16]* @_ZN11xercesc_2_7L10gListThreeE, i64 0, i64 0))
          to label %invoke.cont152 unwind label %lpad35, !dbg !2585

invoke.cont152:                                   ; preds = %invoke.cont150
  store i16* %call153, i16** %ptr2, align 8, !dbg !2586
  %121 = load i16*, i16** %ptr2, align 8, !dbg !2587
  %tobool154 = icmp ne i16* %121, null, !dbg !2587
  br i1 %tobool154, label %if.then155, label %if.end165, !dbg !2589

if.then155:                                       ; preds = %invoke.cont152
  %122 = load i16*, i16** %ptr2, align 8, !dbg !2590
  store i16 0, i16* %122, align 2, !dbg !2592
  %123 = load i16*, i16** %ptr2, align 8, !dbg !2593
  %incdec.ptr156 = getelementptr inbounds i16, i16* %123, i32 1, !dbg !2593
  store i16* %incdec.ptr156, i16** %ptr2, align 8, !dbg !2593
  %fMemoryManager157 = getelementptr inbounds %"class.xercesc_2_7::XMLURL", %"class.xercesc_2_7::XMLURL"* %this1, i32 0, i32 1, !dbg !2594
  %124 = load %"class.xercesc_2_7::MemoryManager"*, %"class.xercesc_2_7::MemoryManager"** %fMemoryManager157, align 8, !dbg !2594
  %fPassword = getelementptr inbounds %"class.xercesc_2_7::XMLURL", %"class.xercesc_2_7::XMLURL"* %this1, i32 0, i32 4, !dbg !2595
  %125 = load i16*, i16** %fPassword, align 8, !dbg !2595
  %126 = bitcast i16* %125 to i8*, !dbg !2595
  %127 = bitcast %"class.xercesc_2_7::MemoryManager"* %124 to void (%"class.xercesc_2_7::MemoryManager"*, i8*)***, !dbg !2596
  %vtable158 = load void (%"class.xercesc_2_7::MemoryManager"*, i8*)**, void (%"class.xercesc_2_7::MemoryManager"*, i8*)*** %127, align 8, !dbg !2596
  %vfn159 = getelementptr inbounds void (%"class.xercesc_2_7::MemoryManager"*, i8*)*, void (%"class.xercesc_2_7::MemoryManager"*, i8*)** %vtable158, i64 3, !dbg !2596
  %128 = load void (%"class.xercesc_2_7::MemoryManager"*, i8*)*, void (%"class.xercesc_2_7::MemoryManager"*, i8*)** %vfn159, align 8, !dbg !2596
  invoke void %128(%"class.xercesc_2_7::MemoryManager"* %124, i8* %126)
          to label %invoke.cont160 unwind label %lpad35, !dbg !2596

invoke.cont160:                                   ; preds = %if.then155
  %129 = load i16*, i16** %ptr2, align 8, !dbg !2597
  %fMemoryManager161 = getelementptr inbounds %"class.xercesc_2_7::XMLURL", %"class.xercesc_2_7::XMLURL"* %this1, i32 0, i32 1, !dbg !2598
  %130 = load %"class.xercesc_2_7::MemoryManager"*, %"class.xercesc_2_7::MemoryManager"** %fMemoryManager161, align 8, !dbg !2598
  %call163 = invoke i16* @_ZN11xercesc_2_79XMLString9replicateEPKtPNS_13MemoryManagerE(i16* %129, %"class.xercesc_2_7::MemoryManager"* %130)
          to label %invoke.cont162 unwind label %lpad35, !dbg !2599

invoke.cont162:                                   ; preds = %invoke.cont160
  %fPassword164 = getelementptr inbounds %"class.xercesc_2_7::XMLURL", %"class.xercesc_2_7::XMLURL"* %this1, i32 0, i32 4, !dbg !2600
  store i16* %call163, i16** %fPassword164, align 8, !dbg !2601
  br label %if.end165, !dbg !2602

if.end165:                                        ; preds = %invoke.cont162, %invoke.cont152
  br label %if.end166, !dbg !2603

if.end166:                                        ; preds = %if.end165, %invoke.cont129
  %fHost167 = getelementptr inbounds %"class.xercesc_2_7::XMLURL", %"class.xercesc_2_7::XMLURL"* %this1, i32 0, i32 3, !dbg !2604
  %131 = load i16*, i16** %fHost167, align 8, !dbg !2604
  %call169 = invoke i16* @_ZN11xercesc_2_79XMLString7findAnyEPtPKt(i16* %131, i16* getelementptr inbounds ([2 x i16], [2 x i16]* @_ZN11xercesc_2_7L10gListThreeE, i64 0, i64 0))
          to label %invoke.cont168 unwind label %lpad35, !dbg !2605

invoke.cont168:                                   ; preds = %if.end166
  store i16* %call169, i16** %ptr1, align 8, !dbg !2606
  %132 = load i16*, i16** %ptr1, align 8, !dbg !2607
  %tobool170 = icmp ne i16* %132, null, !dbg !2607
  br i1 %tobool170, label %if.then171, label %if.end182, !dbg !2609

if.then171:                                       ; preds = %invoke.cont168
  %133 = load i16*, i16** %ptr1, align 8, !dbg !2610
  store i16 0, i16* %133, align 2, !dbg !2612
  %134 = load i16*, i16** %ptr1, align 8, !dbg !2613
  %incdec.ptr172 = getelementptr inbounds i16, i16* %134, i32 1, !dbg !2613
  store i16* %incdec.ptr172, i16** %ptr1, align 8, !dbg !2613
  %135 = load i16*, i16** %ptr1, align 8, !dbg !2614
  %fPortNum = getelementptr inbounds %"class.xercesc_2_7::XMLURL", %"class.xercesc_2_7::XMLURL"* %this1, i32 0, i32 6, !dbg !2616
  %fMemoryManager173 = getelementptr inbounds %"class.xercesc_2_7::XMLURL", %"class.xercesc_2_7::XMLURL"* %this1, i32 0, i32 1, !dbg !2617
  %136 = load %"class.xercesc_2_7::MemoryManager"*, %"class.xercesc_2_7::MemoryManager"** %fMemoryManager173, align 8, !dbg !2617
  %call175 = invoke zeroext i1 @_ZN11xercesc_2_79XMLString9textToBinEPKtRjPNS_13MemoryManagerE(i16* %135, i32* dereferenceable(4) %fPortNum, %"class.xercesc_2_7::MemoryManager"* %136)
          to label %invoke.cont174 unwind label %lpad35, !dbg !2618

invoke.cont174:                                   ; preds = %if.then171
  br i1 %call175, label %if.end181, label %if.then176, !dbg !2619

if.then176:                                       ; preds = %invoke.cont174
  %exception177 = call i8* @__cxa_allocate_exception(i64 48) #9, !dbg !2620
  %137 = bitcast i8* %exception177 to %"class.xercesc_2_7::MalformedURLException"*, !dbg !2620
  %fMemoryManager178 = getelementptr inbounds %"class.xercesc_2_7::XMLURL", %"class.xercesc_2_7::XMLURL"* %this1, i32 0, i32 1, !dbg !2620
  %138 = load %"class.xercesc_2_7::MemoryManager"*, %"class.xercesc_2_7::MemoryManager"** %fMemoryManager178, align 8, !dbg !2620
  invoke void @_ZN11xercesc_2_721MalformedURLExceptionC2EPKcjNS_10XMLExcepts5CodesEPNS_13MemoryManagerE(%"class.xercesc_2_7::MalformedURLException"* %137, i8* getelementptr inbounds ([11 x i8], [11 x i8]* @.str, i64 0, i64 0), i32 1114, i32 109, %"class.xercesc_2_7::MemoryManager"* %138)
          to label %invoke.cont180 unwind label %lpad179, !dbg !2620

invoke.cont180:                                   ; preds = %if.then176
  invoke void @__cxa_throw(i8* %exception177, i8* bitcast ({ i8*, i8*, i8* }* @_ZTIN11xercesc_2_721MalformedURLExceptionE to i8*), i8* bitcast (void (%"class.xercesc_2_7::MalformedURLException"*)* @_ZN11xercesc_2_721MalformedURLExceptionD2Ev to i8*)) #11
          to label %unreachable unwind label %lpad35, !dbg !2620

lpad179:                                          ; preds = %if.then176
  %139 = landingpad { i8*, i32 }
          cleanup, !dbg !2621
  %140 = extractvalue { i8*, i32 } %139, 0, !dbg !2621
  store i8* %140, i8** %exn.slot, align 8, !dbg !2621
  %141 = extractvalue { i8*, i32 } %139, 1, !dbg !2621
  store i32 %141, i32* %ehselector.slot, align 4, !dbg !2621
  call void @__cxa_free_exception(i8* %exception177) #9, !dbg !2620
  br label %ehcleanup, !dbg !2620

if.end181:                                        ; preds = %invoke.cont174
  br label %if.end182, !dbg !2622

if.end182:                                        ; preds = %if.end181, %invoke.cont168
  %fHost183 = getelementptr inbounds %"class.xercesc_2_7::XMLURL", %"class.xercesc_2_7::XMLURL"* %this1, i32 0, i32 3, !dbg !2623
  %142 = load i16*, i16** %fHost183, align 8, !dbg !2623
  %143 = load i16, i16* %142, align 2, !dbg !2625
  %tobool184 = icmp ne i16 %143, 0, !dbg !2625
  br i1 %tobool184, label %if.end192, label %if.then185, !dbg !2626

if.then185:                                       ; preds = %if.end182
  %fMemoryManager186 = getelementptr inbounds %"class.xercesc_2_7::XMLURL", %"class.xercesc_2_7::XMLURL"* %this1, i32 0, i32 1, !dbg !2627
  %144 = load %"class.xercesc_2_7::MemoryManager"*, %"class.xercesc_2_7::MemoryManager"** %fMemoryManager186, align 8, !dbg !2627
  %fHost187 = getelementptr inbounds %"class.xercesc_2_7::XMLURL", %"class.xercesc_2_7::XMLURL"* %this1, i32 0, i32 3, !dbg !2629
  %145 = load i16*, i16** %fHost187, align 8, !dbg !2629
  %146 = bitcast i16* %145 to i8*, !dbg !2629
  %147 = bitcast %"class.xercesc_2_7::MemoryManager"* %144 to void (%"class.xercesc_2_7::MemoryManager"*, i8*)***, !dbg !2630
  %vtable188 = load void (%"class.xercesc_2_7::MemoryManager"*, i8*)**, void (%"class.xercesc_2_7::MemoryManager"*, i8*)*** %147, align 8, !dbg !2630
  %vfn189 = getelementptr inbounds void (%"class.xercesc_2_7::MemoryManager"*, i8*)*, void (%"class.xercesc_2_7::MemoryManager"*, i8*)** %vtable188, i64 3, !dbg !2630
  %148 = load void (%"class.xercesc_2_7::MemoryManager"*, i8*)*, void (%"class.xercesc_2_7::MemoryManager"*, i8*)** %vfn189, align 8, !dbg !2630
  invoke void %148(%"class.xercesc_2_7::MemoryManager"* %144, i8* %146)
          to label %invoke.cont190 unwind label %lpad35, !dbg !2630

invoke.cont190:                                   ; preds = %if.then185
  %fHost191 = getelementptr inbounds %"class.xercesc_2_7::XMLURL", %"class.xercesc_2_7::XMLURL"* %this1, i32 0, i32 3, !dbg !2631
  store i16* null, i16** %fHost191, align 8, !dbg !2632
  br label %if.end192, !dbg !2633

if.end192:                                        ; preds = %invoke.cont190, %if.end182
  br label %if.end193, !dbg !2634

if.end193:                                        ; preds = %if.end192, %if.end124
  %149 = load i16*, i16** %srcPtr, align 8, !dbg !2635
  %150 = load i16, i16* %149, align 2, !dbg !2637
  %tobool194 = icmp ne i16 %150, 0, !dbg !2637
  br i1 %tobool194, label %if.end196, label %if.then195, !dbg !2638

if.then195:                                       ; preds = %if.end193
  store i32 1, i32* %cleanup.dest.slot, align 4
  br label %cleanup, !dbg !2639

if.end196:                                        ; preds = %if.end193
  %151 = load i16*, i16** %srcPtr, align 8, !dbg !2641
  %call198 = invoke i16* @_ZN11xercesc_2_79XMLString7findAnyEPtPKt(i16* %151, i16* getelementptr inbounds ([3 x i16], [3 x i16]* @_ZN11xercesc_2_7L9gListFiveE, i64 0, i64 0))
          to label %invoke.cont197 unwind label %lpad35, !dbg !2642

invoke.cont197:                                   ; preds = %if.end196
  store i16* %call198, i16** %ptr1, align 8, !dbg !2643
  %152 = load i16*, i16** %ptr1, align 8, !dbg !2644
  %tobool199 = icmp ne i16* %152, null, !dbg !2644
  br i1 %tobool199, label %if.end209, label %if.then200, !dbg !2646

if.then200:                                       ; preds = %invoke.cont197
  %fMemoryManager201 = getelementptr inbounds %"class.xercesc_2_7::XMLURL", %"class.xercesc_2_7::XMLURL"* %this1, i32 0, i32 1, !dbg !2647
  %153 = load %"class.xercesc_2_7::MemoryManager"*, %"class.xercesc_2_7::MemoryManager"** %fMemoryManager201, align 8, !dbg !2647
  %fPath = getelementptr inbounds %"class.xercesc_2_7::XMLURL", %"class.xercesc_2_7::XMLURL"* %this1, i32 0, i32 5, !dbg !2649
  %154 = load i16*, i16** %fPath, align 8, !dbg !2649
  %155 = bitcast i16* %154 to i8*, !dbg !2649
  %156 = bitcast %"class.xercesc_2_7::MemoryManager"* %153 to void (%"class.xercesc_2_7::MemoryManager"*, i8*)***, !dbg !2650
  %vtable202 = load void (%"class.xercesc_2_7::MemoryManager"*, i8*)**, void (%"class.xercesc_2_7::MemoryManager"*, i8*)*** %156, align 8, !dbg !2650
  %vfn203 = getelementptr inbounds void (%"class.xercesc_2_7::MemoryManager"*, i8*)*, void (%"class.xercesc_2_7::MemoryManager"*, i8*)** %vtable202, i64 3, !dbg !2650
  %157 = load void (%"class.xercesc_2_7::MemoryManager"*, i8*)*, void (%"class.xercesc_2_7::MemoryManager"*, i8*)** %vfn203, align 8, !dbg !2650
  invoke void %157(%"class.xercesc_2_7::MemoryManager"* %153, i8* %155)
          to label %invoke.cont204 unwind label %lpad35, !dbg !2650

invoke.cont204:                                   ; preds = %if.then200
  %158 = load i16*, i16** %srcPtr, align 8, !dbg !2651
  %fMemoryManager205 = getelementptr inbounds %"class.xercesc_2_7::XMLURL", %"class.xercesc_2_7::XMLURL"* %this1, i32 0, i32 1, !dbg !2652
  %159 = load %"class.xercesc_2_7::MemoryManager"*, %"class.xercesc_2_7::MemoryManager"** %fMemoryManager205, align 8, !dbg !2652
  %call207 = invoke i16* @_ZN11xercesc_2_79XMLString9replicateEPKtPNS_13MemoryManagerE(i16* %158, %"class.xercesc_2_7::MemoryManager"* %159)
          to label %invoke.cont206 unwind label %lpad35, !dbg !2653

invoke.cont206:                                   ; preds = %invoke.cont204
  %fPath208 = getelementptr inbounds %"class.xercesc_2_7::XMLURL", %"class.xercesc_2_7::XMLURL"* %this1, i32 0, i32 5, !dbg !2654
  store i16* %call207, i16** %fPath208, align 8, !dbg !2655
  store i32 1, i32* %cleanup.dest.slot, align 4
  br label %cleanup, !dbg !2656

if.end209:                                        ; preds = %invoke.cont197
  %160 = load i16*, i16** %ptr1, align 8, !dbg !2657
  %161 = load i16*, i16** %srcPtr, align 8, !dbg !2659
  %cmp210 = icmp ugt i16* %160, %161, !dbg !2660
  br i1 %cmp210, label %if.then211, label %if.end236, !dbg !2661

if.then211:                                       ; preds = %if.end209
  %fMemoryManager212 = getelementptr inbounds %"class.xercesc_2_7::XMLURL", %"class.xercesc_2_7::XMLURL"* %this1, i32 0, i32 1, !dbg !2662
  %162 = load %"class.xercesc_2_7::MemoryManager"*, %"class.xercesc_2_7::MemoryManager"** %fMemoryManager212, align 8, !dbg !2662
  %fPath213 = getelementptr inbounds %"class.xercesc_2_7::XMLURL", %"class.xercesc_2_7::XMLURL"* %this1, i32 0, i32 5, !dbg !2664
  %163 = load i16*, i16** %fPath213, align 8, !dbg !2664
  %164 = bitcast i16* %163 to i8*, !dbg !2664
  %165 = bitcast %"class.xercesc_2_7::MemoryManager"* %162 to void (%"class.xercesc_2_7::MemoryManager"*, i8*)***, !dbg !2665
  %vtable214 = load void (%"class.xercesc_2_7::MemoryManager"*, i8*)**, void (%"class.xercesc_2_7::MemoryManager"*, i8*)*** %165, align 8, !dbg !2665
  %vfn215 = getelementptr inbounds void (%"class.xercesc_2_7::MemoryManager"*, i8*)*, void (%"class.xercesc_2_7::MemoryManager"*, i8*)** %vtable214, i64 3, !dbg !2665
  %166 = load void (%"class.xercesc_2_7::MemoryManager"*, i8*)*, void (%"class.xercesc_2_7::MemoryManager"*, i8*)** %vfn215, align 8, !dbg !2665
  invoke void %166(%"class.xercesc_2_7::MemoryManager"* %162, i8* %164)
          to label %invoke.cont216 unwind label %lpad35, !dbg !2665

invoke.cont216:                                   ; preds = %if.then211
  %fMemoryManager217 = getelementptr inbounds %"class.xercesc_2_7::XMLURL", %"class.xercesc_2_7::XMLURL"* %this1, i32 0, i32 1, !dbg !2666
  %167 = load %"class.xercesc_2_7::MemoryManager"*, %"class.xercesc_2_7::MemoryManager"** %fMemoryManager217, align 8, !dbg !2666
  %168 = load i16*, i16** %ptr1, align 8, !dbg !2667
  %169 = load i16*, i16** %srcPtr, align 8, !dbg !2668
  %sub.ptr.lhs.cast218 = ptrtoint i16* %168 to i64, !dbg !2669
  %sub.ptr.rhs.cast219 = ptrtoint i16* %169 to i64, !dbg !2669
  %sub.ptr.sub220 = sub i64 %sub.ptr.lhs.cast218, %sub.ptr.rhs.cast219, !dbg !2669
  %sub.ptr.div221 = sdiv exact i64 %sub.ptr.sub220, 2, !dbg !2669
  %add222 = add nsw i64 %sub.ptr.div221, 1, !dbg !2670
  %mul223 = mul i64 %add222, 2, !dbg !2671
  %170 = bitcast %"class.xercesc_2_7::MemoryManager"* %167 to i8* (%"class.xercesc_2_7::MemoryManager"*, i64)***, !dbg !2672
  %vtable224 = load i8* (%"class.xercesc_2_7::MemoryManager"*, i64)**, i8* (%"class.xercesc_2_7::MemoryManager"*, i64)*** %170, align 8, !dbg !2672
  %vfn225 = getelementptr inbounds i8* (%"class.xercesc_2_7::MemoryManager"*, i64)*, i8* (%"class.xercesc_2_7::MemoryManager"*, i64)** %vtable224, i64 2, !dbg !2672
  %171 = load i8* (%"class.xercesc_2_7::MemoryManager"*, i64)*, i8* (%"class.xercesc_2_7::MemoryManager"*, i64)** %vfn225, align 8, !dbg !2672
  %call227 = invoke i8* %171(%"class.xercesc_2_7::MemoryManager"* %167, i64 %mul223)
          to label %invoke.cont226 unwind label %lpad35, !dbg !2672

invoke.cont226:                                   ; preds = %invoke.cont216
  %172 = bitcast i8* %call227 to i16*, !dbg !2673
  %fPath228 = getelementptr inbounds %"class.xercesc_2_7::XMLURL", %"class.xercesc_2_7::XMLURL"* %this1, i32 0, i32 5, !dbg !2674
  store i16* %172, i16** %fPath228, align 8, !dbg !2675
  %fPath229 = getelementptr inbounds %"class.xercesc_2_7::XMLURL", %"class.xercesc_2_7::XMLURL"* %this1, i32 0, i32 5, !dbg !2676
  %173 = load i16*, i16** %fPath229, align 8, !dbg !2676
  store i16* %173, i16** %ptr2, align 8, !dbg !2677
  br label %while.cond230, !dbg !2678

while.cond230:                                    ; preds = %while.body232, %invoke.cont226
  %174 = load i16*, i16** %srcPtr, align 8, !dbg !2679
  %175 = load i16*, i16** %ptr1, align 8, !dbg !2680
  %cmp231 = icmp ult i16* %174, %175, !dbg !2681
  br i1 %cmp231, label %while.body232, label %while.end235, !dbg !2678

while.body232:                                    ; preds = %while.cond230
  %176 = load i16*, i16** %srcPtr, align 8, !dbg !2682
  %incdec.ptr233 = getelementptr inbounds i16, i16* %176, i32 1, !dbg !2682
  store i16* %incdec.ptr233, i16** %srcPtr, align 8, !dbg !2682
  %177 = load i16, i16* %176, align 2, !dbg !2683
  %178 = load i16*, i16** %ptr2, align 8, !dbg !2684
  %incdec.ptr234 = getelementptr inbounds i16, i16* %178, i32 1, !dbg !2684
  store i16* %incdec.ptr234, i16** %ptr2, align 8, !dbg !2684
  store i16 %177, i16* %178, align 2, !dbg !2685
  br label %while.cond230, !dbg !2678, !llvm.loop !2686

while.end235:                                     ; preds = %while.cond230
  %179 = load i16*, i16** %ptr2, align 8, !dbg !2687
  store i16 0, i16* %179, align 2, !dbg !2688
  br label %if.end236, !dbg !2689

if.end236:                                        ; preds = %while.end235, %if.end209
  %180 = load i16*, i16** %srcPtr, align 8, !dbg !2690
  %181 = load i16, i16* %180, align 2, !dbg !2692
  %conv237 = zext i16 %181 to i32, !dbg !2692
  %cmp238 = icmp eq i32 %conv237, 35, !dbg !2693
  br i1 %cmp238, label %if.then239, label %if.end249, !dbg !2694

if.then239:                                       ; preds = %if.end236
  %182 = load i16*, i16** %srcPtr, align 8, !dbg !2695
  %incdec.ptr240 = getelementptr inbounds i16, i16* %182, i32 1, !dbg !2695
  store i16* %incdec.ptr240, i16** %srcPtr, align 8, !dbg !2695
  %fMemoryManager241 = getelementptr inbounds %"class.xercesc_2_7::XMLURL", %"class.xercesc_2_7::XMLURL"* %this1, i32 0, i32 1, !dbg !2697
  %183 = load %"class.xercesc_2_7::MemoryManager"*, %"class.xercesc_2_7::MemoryManager"** %fMemoryManager241, align 8, !dbg !2697
  %fFragment = getelementptr inbounds %"class.xercesc_2_7::XMLURL", %"class.xercesc_2_7::XMLURL"* %this1, i32 0, i32 2, !dbg !2698
  %184 = load i16*, i16** %fFragment, align 8, !dbg !2698
  %185 = bitcast i16* %184 to i8*, !dbg !2698
  %186 = bitcast %"class.xercesc_2_7::MemoryManager"* %183 to void (%"class.xercesc_2_7::MemoryManager"*, i8*)***, !dbg !2699
  %vtable242 = load void (%"class.xercesc_2_7::MemoryManager"*, i8*)**, void (%"class.xercesc_2_7::MemoryManager"*, i8*)*** %186, align 8, !dbg !2699
  %vfn243 = getelementptr inbounds void (%"class.xercesc_2_7::MemoryManager"*, i8*)*, void (%"class.xercesc_2_7::MemoryManager"*, i8*)** %vtable242, i64 3, !dbg !2699
  %187 = load void (%"class.xercesc_2_7::MemoryManager"*, i8*)*, void (%"class.xercesc_2_7::MemoryManager"*, i8*)** %vfn243, align 8, !dbg !2699
  invoke void %187(%"class.xercesc_2_7::MemoryManager"* %183, i8* %185)
          to label %invoke.cont244 unwind label %lpad35, !dbg !2699

invoke.cont244:                                   ; preds = %if.then239
  %188 = load i16*, i16** %srcPtr, align 8, !dbg !2700
  %fMemoryManager245 = getelementptr inbounds %"class.xercesc_2_7::XMLURL", %"class.xercesc_2_7::XMLURL"* %this1, i32 0, i32 1, !dbg !2701
  %189 = load %"class.xercesc_2_7::MemoryManager"*, %"class.xercesc_2_7::MemoryManager"** %fMemoryManager245, align 8, !dbg !2701
  %call247 = invoke i16* @_ZN11xercesc_2_79XMLString9replicateEPKtPNS_13MemoryManagerE(i16* %188, %"class.xercesc_2_7::MemoryManager"* %189)
          to label %invoke.cont246 unwind label %lpad35, !dbg !2702

invoke.cont246:                                   ; preds = %invoke.cont244
  %fFragment248 = getelementptr inbounds %"class.xercesc_2_7::XMLURL", %"class.xercesc_2_7::XMLURL"* %this1, i32 0, i32 2, !dbg !2703
  store i16* %call247, i16** %fFragment248, align 8, !dbg !2704
  store i32 1, i32* %cleanup.dest.slot, align 4
  br label %cleanup, !dbg !2705

if.end249:                                        ; preds = %if.end236
  %190 = load i16*, i16** %srcPtr, align 8, !dbg !2706
  %incdec.ptr250 = getelementptr inbounds i16, i16* %190, i32 1, !dbg !2706
  store i16* %incdec.ptr250, i16** %srcPtr, align 8, !dbg !2706
  %191 = load i16*, i16** %srcPtr, align 8, !dbg !2707
  %call252 = invoke i16* @_ZN11xercesc_2_79XMLString7findAnyEPtPKt(i16* %191, i16* getelementptr inbounds ([2 x i16], [2 x i16]* @_ZN11xercesc_2_7L8gListSixE, i64 0, i64 0))
          to label %invoke.cont251 unwind label %lpad35, !dbg !2708

invoke.cont251:                                   ; preds = %if.end249
  store i16* %call252, i16** %ptr1, align 8, !dbg !2709
  %fMemoryManager253 = getelementptr inbounds %"class.xercesc_2_7::XMLURL", %"class.xercesc_2_7::XMLURL"* %this1, i32 0, i32 1, !dbg !2710
  %192 = load %"class.xercesc_2_7::MemoryManager"*, %"class.xercesc_2_7::MemoryManager"** %fMemoryManager253, align 8, !dbg !2710
  %fQuery = getelementptr inbounds %"class.xercesc_2_7::XMLURL", %"class.xercesc_2_7::XMLURL"* %this1, i32 0, i32 8, !dbg !2711
  %193 = load i16*, i16** %fQuery, align 8, !dbg !2711
  %194 = bitcast i16* %193 to i8*, !dbg !2711
  %195 = bitcast %"class.xercesc_2_7::MemoryManager"* %192 to void (%"class.xercesc_2_7::MemoryManager"*, i8*)***, !dbg !2712
  %vtable254 = load void (%"class.xercesc_2_7::MemoryManager"*, i8*)**, void (%"class.xercesc_2_7::MemoryManager"*, i8*)*** %195, align 8, !dbg !2712
  %vfn255 = getelementptr inbounds void (%"class.xercesc_2_7::MemoryManager"*, i8*)*, void (%"class.xercesc_2_7::MemoryManager"*, i8*)** %vtable254, i64 3, !dbg !2712
  %196 = load void (%"class.xercesc_2_7::MemoryManager"*, i8*)*, void (%"class.xercesc_2_7::MemoryManager"*, i8*)** %vfn255, align 8, !dbg !2712
  invoke void %196(%"class.xercesc_2_7::MemoryManager"* %192, i8* %194)
          to label %invoke.cont256 unwind label %lpad35, !dbg !2712

invoke.cont256:                                   ; preds = %invoke.cont251
  %197 = load i16*, i16** %ptr1, align 8, !dbg !2713
  %tobool257 = icmp ne i16* %197, null, !dbg !2713
  br i1 %tobool257, label %if.else263, label %if.then258, !dbg !2715

if.then258:                                       ; preds = %invoke.cont256
  %198 = load i16*, i16** %srcPtr, align 8, !dbg !2716
  %fMemoryManager259 = getelementptr inbounds %"class.xercesc_2_7::XMLURL", %"class.xercesc_2_7::XMLURL"* %this1, i32 0, i32 1, !dbg !2718
  %199 = load %"class.xercesc_2_7::MemoryManager"*, %"class.xercesc_2_7::MemoryManager"** %fMemoryManager259, align 8, !dbg !2718
  %call261 = invoke i16* @_ZN11xercesc_2_79XMLString9replicateEPKtPNS_13MemoryManagerE(i16* %198, %"class.xercesc_2_7::MemoryManager"* %199)
          to label %invoke.cont260 unwind label %lpad35, !dbg !2719

invoke.cont260:                                   ; preds = %if.then258
  %fQuery262 = getelementptr inbounds %"class.xercesc_2_7::XMLURL", %"class.xercesc_2_7::XMLURL"* %this1, i32 0, i32 8, !dbg !2720
  store i16* %call261, i16** %fQuery262, align 8, !dbg !2721
  store i32 1, i32* %cleanup.dest.slot, align 4
  br label %cleanup, !dbg !2722

if.else263:                                       ; preds = %invoke.cont256
  %fMemoryManager264 = getelementptr inbounds %"class.xercesc_2_7::XMLURL", %"class.xercesc_2_7::XMLURL"* %this1, i32 0, i32 1, !dbg !2723
  %200 = load %"class.xercesc_2_7::MemoryManager"*, %"class.xercesc_2_7::MemoryManager"** %fMemoryManager264, align 8, !dbg !2723
  %201 = load i16*, i16** %ptr1, align 8, !dbg !2725
  %202 = load i16*, i16** %srcPtr, align 8, !dbg !2726
  %sub.ptr.lhs.cast265 = ptrtoint i16* %201 to i64, !dbg !2727
  %sub.ptr.rhs.cast266 = ptrtoint i16* %202 to i64, !dbg !2727
  %sub.ptr.sub267 = sub i64 %sub.ptr.lhs.cast265, %sub.ptr.rhs.cast266, !dbg !2727
  %sub.ptr.div268 = sdiv exact i64 %sub.ptr.sub267, 2, !dbg !2727
  %add269 = add nsw i64 %sub.ptr.div268, 1, !dbg !2728
  %mul270 = mul i64 %add269, 2, !dbg !2729
  %203 = bitcast %"class.xercesc_2_7::MemoryManager"* %200 to i8* (%"class.xercesc_2_7::MemoryManager"*, i64)***, !dbg !2730
  %vtable271 = load i8* (%"class.xercesc_2_7::MemoryManager"*, i64)**, i8* (%"class.xercesc_2_7::MemoryManager"*, i64)*** %203, align 8, !dbg !2730
  %vfn272 = getelementptr inbounds i8* (%"class.xercesc_2_7::MemoryManager"*, i64)*, i8* (%"class.xercesc_2_7::MemoryManager"*, i64)** %vtable271, i64 2, !dbg !2730
  %204 = load i8* (%"class.xercesc_2_7::MemoryManager"*, i64)*, i8* (%"class.xercesc_2_7::MemoryManager"*, i64)** %vfn272, align 8, !dbg !2730
  %call274 = invoke i8* %204(%"class.xercesc_2_7::MemoryManager"* %200, i64 %mul270)
          to label %invoke.cont273 unwind label %lpad35, !dbg !2730

invoke.cont273:                                   ; preds = %if.else263
  %205 = bitcast i8* %call274 to i16*, !dbg !2731
  %fQuery275 = getelementptr inbounds %"class.xercesc_2_7::XMLURL", %"class.xercesc_2_7::XMLURL"* %this1, i32 0, i32 8, !dbg !2732
  store i16* %205, i16** %fQuery275, align 8, !dbg !2733
  %fQuery276 = getelementptr inbounds %"class.xercesc_2_7::XMLURL", %"class.xercesc_2_7::XMLURL"* %this1, i32 0, i32 8, !dbg !2734
  %206 = load i16*, i16** %fQuery276, align 8, !dbg !2734
  store i16* %206, i16** %ptr2, align 8, !dbg !2735
  br label %while.cond277, !dbg !2736

while.cond277:                                    ; preds = %while.body279, %invoke.cont273
  %207 = load i16*, i16** %srcPtr, align 8, !dbg !2737
  %208 = load i16*, i16** %ptr1, align 8, !dbg !2738
  %cmp278 = icmp ult i16* %207, %208, !dbg !2739
  br i1 %cmp278, label %while.body279, label %while.end282, !dbg !2736

while.body279:                                    ; preds = %while.cond277
  %209 = load i16*, i16** %srcPtr, align 8, !dbg !2740
  %incdec.ptr280 = getelementptr inbounds i16, i16* %209, i32 1, !dbg !2740
  store i16* %incdec.ptr280, i16** %srcPtr, align 8, !dbg !2740
  %210 = load i16, i16* %209, align 2, !dbg !2741
  %211 = load i16*, i16** %ptr2, align 8, !dbg !2742
  %incdec.ptr281 = getelementptr inbounds i16, i16* %211, i32 1, !dbg !2742
  store i16* %incdec.ptr281, i16** %ptr2, align 8, !dbg !2742
  store i16 %210, i16* %211, align 2, !dbg !2743
  br label %while.cond277, !dbg !2736, !llvm.loop !2744

while.end282:                                     ; preds = %while.cond277
  %212 = load i16*, i16** %ptr2, align 8, !dbg !2745
  store i16 0, i16* %212, align 2, !dbg !2746
  br label %if.end283

if.end283:                                        ; preds = %while.end282
  %213 = load i16*, i16** %srcPtr, align 8, !dbg !2747
  %214 = load i16, i16* %213, align 2, !dbg !2749
  %conv284 = zext i16 %214 to i32, !dbg !2749
  %cmp285 = icmp eq i32 %conv284, 35, !dbg !2750
  br i1 %cmp285, label %if.then286, label %if.end297, !dbg !2751

if.then286:                                       ; preds = %if.end283
  %215 = load i16*, i16** %srcPtr, align 8, !dbg !2752
  %incdec.ptr287 = getelementptr inbounds i16, i16* %215, i32 1, !dbg !2752
  store i16* %incdec.ptr287, i16** %srcPtr, align 8, !dbg !2752
  %fMemoryManager288 = getelementptr inbounds %"class.xercesc_2_7::XMLURL", %"class.xercesc_2_7::XMLURL"* %this1, i32 0, i32 1, !dbg !2754
  %216 = load %"class.xercesc_2_7::MemoryManager"*, %"class.xercesc_2_7::MemoryManager"** %fMemoryManager288, align 8, !dbg !2754
  %fFragment289 = getelementptr inbounds %"class.xercesc_2_7::XMLURL", %"class.xercesc_2_7::XMLURL"* %this1, i32 0, i32 2, !dbg !2755
  %217 = load i16*, i16** %fFragment289, align 8, !dbg !2755
  %218 = bitcast i16* %217 to i8*, !dbg !2755
  %219 = bitcast %"class.xercesc_2_7::MemoryManager"* %216 to void (%"class.xercesc_2_7::MemoryManager"*, i8*)***, !dbg !2756
  %vtable290 = load void (%"class.xercesc_2_7::MemoryManager"*, i8*)**, void (%"class.xercesc_2_7::MemoryManager"*, i8*)*** %219, align 8, !dbg !2756
  %vfn291 = getelementptr inbounds void (%"class.xercesc_2_7::MemoryManager"*, i8*)*, void (%"class.xercesc_2_7::MemoryManager"*, i8*)** %vtable290, i64 3, !dbg !2756
  %220 = load void (%"class.xercesc_2_7::MemoryManager"*, i8*)*, void (%"class.xercesc_2_7::MemoryManager"*, i8*)** %vfn291, align 8, !dbg !2756
  invoke void %220(%"class.xercesc_2_7::MemoryManager"* %216, i8* %218)
          to label %invoke.cont292 unwind label %lpad35, !dbg !2756

invoke.cont292:                                   ; preds = %if.then286
  %221 = load i16*, i16** %srcPtr, align 8, !dbg !2757
  %fMemoryManager293 = getelementptr inbounds %"class.xercesc_2_7::XMLURL", %"class.xercesc_2_7::XMLURL"* %this1, i32 0, i32 1, !dbg !2758
  %222 = load %"class.xercesc_2_7::MemoryManager"*, %"class.xercesc_2_7::MemoryManager"** %fMemoryManager293, align 8, !dbg !2758
  %call295 = invoke i16* @_ZN11xercesc_2_79XMLString9replicateEPKtPNS_13MemoryManagerE(i16* %221, %"class.xercesc_2_7::MemoryManager"* %222)
          to label %invoke.cont294 unwind label %lpad35, !dbg !2759

invoke.cont294:                                   ; preds = %invoke.cont292
  %fFragment296 = getelementptr inbounds %"class.xercesc_2_7::XMLURL", %"class.xercesc_2_7::XMLURL"* %this1, i32 0, i32 2, !dbg !2760
  store i16* %call295, i16** %fFragment296, align 8, !dbg !2761
  br label %if.end297, !dbg !2762

if.end297:                                        ; preds = %invoke.cont294, %if.end283
  store i32 0, i32* %cleanup.dest.slot, align 4, !dbg !2763
  br label %cleanup, !dbg !2763

cleanup:                                          ; preds = %if.end297, %invoke.cont260, %invoke.cont246, %invoke.cont206, %if.then195
  call void @_ZN11xercesc_2_712ArrayJanitorItED2Ev(%"class.xercesc_2_7::ArrayJanitor"* %janSrcCopy) #9, !dbg !2763
  %cleanup.dest = load i32, i32* %cleanup.dest.slot, align 4
  switch i32 %cleanup.dest, label %unreachable [
    i32 0, label %cleanup.cont
    i32 1, label %cleanup.cont
  ]

cleanup.cont:                                     ; preds = %cleanup, %cleanup
  ret void, !dbg !2763

ehcleanup:                                        ; preds = %lpad179, %lpad121, %lpad61, %lpad44, %lpad35
  call void @_ZN11xercesc_2_712ArrayJanitorItED2Ev(%"class.xercesc_2_7::ArrayJanitor"* %janSrcCopy) #9, !dbg !2763
  br label %eh.resume, !dbg !2763

eh.resume:                                        ; preds = %ehcleanup, %lpad26, %lpad
  %exn = load i8*, i8** %exn.slot, align 8, !dbg !2360
  %sel = load i32, i32* %ehselector.slot, align 4, !dbg !2360
  %lpad.val = insertvalue { i8*, i32 } undef, i8* %exn, 0, !dbg !2360
  %lpad.val298 = insertvalue { i8*, i32 } %lpad.val, i32 %sel, 1, !dbg !2360
  resume { i8*, i32 } %lpad.val298, !dbg !2360

unreachable:                                      ; preds = %cleanup, %invoke.cont180, %invoke.cont122, %invoke.cont62, %invoke.cont45
  unreachable
}

; Function Attrs: noinline nounwind uwtable
define dso_local zeroext i1 @_ZNK11xercesc_2_76XMLURL10isRelativeEv(%"class.xercesc_2_7::XMLURL"* %this) #1 align 2 !dbg !2764 {
entry:
  %retval = alloca i1, align 1
  %this.addr = alloca %"class.xercesc_2_7::XMLURL"*, align 8
  store %"class.xercesc_2_7::XMLURL"* %this, %"class.xercesc_2_7::XMLURL"** %this.addr, align 8
  call void @llvm.dbg.declare(metadata %"class.xercesc_2_7::XMLURL"** %this.addr, metadata !2765, metadata !DIExpression()), !dbg !2766
  %this1 = load %"class.xercesc_2_7::XMLURL"*, %"class.xercesc_2_7::XMLURL"** %this.addr, align 8
  %fProtocol = getelementptr inbounds %"class.xercesc_2_7::XMLURL", %"class.xercesc_2_7::XMLURL"* %this1, i32 0, i32 7, !dbg !2767
  %0 = load i32, i32* %fProtocol, align 4, !dbg !2767
  %cmp = icmp eq i32 %0, 4, !dbg !2769
  br i1 %cmp, label %if.then, label %if.end, !dbg !2770

if.then:                                          ; preds = %entry
  store i1 true, i1* %retval, align 1, !dbg !2771
  br label %return, !dbg !2771

if.end:                                           ; preds = %entry
  %fPath = getelementptr inbounds %"class.xercesc_2_7::XMLURL", %"class.xercesc_2_7::XMLURL"* %this1, i32 0, i32 5, !dbg !2772
  %1 = load i16*, i16** %fPath, align 8, !dbg !2772
  %tobool = icmp ne i16* %1, null, !dbg !2772
  br i1 %tobool, label %if.end3, label %if.then2, !dbg !2774

if.then2:                                         ; preds = %if.end
  store i1 true, i1* %retval, align 1, !dbg !2775
  br label %return, !dbg !2775

if.end3:                                          ; preds = %if.end
  %fPath4 = getelementptr inbounds %"class.xercesc_2_7::XMLURL", %"class.xercesc_2_7::XMLURL"* %this1, i32 0, i32 5, !dbg !2776
  %2 = load i16*, i16** %fPath4, align 8, !dbg !2776
  %3 = load i16, i16* %2, align 2, !dbg !2778
  %conv = zext i16 %3 to i32, !dbg !2778
  %cmp5 = icmp ne i32 %conv, 47, !dbg !2779
  br i1 %cmp5, label %if.then6, label %if.end7, !dbg !2780

if.then6:                                         ; preds = %if.end3
  store i1 true, i1* %retval, align 1, !dbg !2781
  br label %return, !dbg !2781

if.end7:                                          ; preds = %if.end3
  store i1 false, i1* %retval, align 1, !dbg !2782
  br label %return, !dbg !2782

return:                                           ; preds = %if.end7, %if.then6, %if.then2, %if.then
  %4 = load i1, i1* %retval, align 1, !dbg !2783
  ret i1 %4, !dbg !2783
}

; Function Attrs: noinline uwtable
define dso_local zeroext i1 @_ZN11xercesc_2_76XMLURL20conglomerateWithBaseERKS0_b(%"class.xercesc_2_7::XMLURL"* %this, %"class.xercesc_2_7::XMLURL"* dereferenceable(88) %baseURL, i1 zeroext %useExceptions) #3 align 2 personality i8* bitcast (i32 (...)* @__gxx_personality_v0 to i8*) !dbg !2784 {
entry:
  %retval = alloca i1, align 1
  %this.addr = alloca %"class.xercesc_2_7::XMLURL"*, align 8
  %baseURL.addr = alloca %"class.xercesc_2_7::XMLURL"*, align 8
  %useExceptions.addr = alloca i8, align 1
  %exn.slot = alloca i8*
  %ehselector.slot = alloca i32
  %hadPath = alloca i8, align 1
  %temp = alloca i16*, align 8
  store %"class.xercesc_2_7::XMLURL"* %this, %"class.xercesc_2_7::XMLURL"** %this.addr, align 8
  call void @llvm.dbg.declare(metadata %"class.xercesc_2_7::XMLURL"** %this.addr, metadata !2785, metadata !DIExpression()), !dbg !2786
  store %"class.xercesc_2_7::XMLURL"* %baseURL, %"class.xercesc_2_7::XMLURL"** %baseURL.addr, align 8
  call void @llvm.dbg.declare(metadata %"class.xercesc_2_7::XMLURL"** %baseURL.addr, metadata !2787, metadata !DIExpression()), !dbg !2788
  %frombool = zext i1 %useExceptions to i8
  store i8 %frombool, i8* %useExceptions.addr, align 1
  call void @llvm.dbg.declare(metadata i8* %useExceptions.addr, metadata !2789, metadata !DIExpression()), !dbg !2790
  %this1 = load %"class.xercesc_2_7::XMLURL"*, %"class.xercesc_2_7::XMLURL"** %this.addr, align 8
  %0 = load %"class.xercesc_2_7::XMLURL"*, %"class.xercesc_2_7::XMLURL"** %baseURL.addr, align 8, !dbg !2791
  %call = call zeroext i1 @_ZNK11xercesc_2_76XMLURL10isRelativeEv(%"class.xercesc_2_7::XMLURL"* %0), !dbg !2793
  br i1 %call, label %if.then, label %if.end, !dbg !2794

if.then:                                          ; preds = %entry
  %1 = load i8, i8* %useExceptions.addr, align 1, !dbg !2795
  %tobool = trunc i8 %1 to i1, !dbg !2795
  br i1 %tobool, label %if.then2, label %if.else, !dbg !2798

if.then2:                                         ; preds = %if.then
  %exception = call i8* @__cxa_allocate_exception(i64 48) #9, !dbg !2799
  %2 = bitcast i8* %exception to %"class.xercesc_2_7::MalformedURLException"*, !dbg !2799
  %fMemoryManager = getelementptr inbounds %"class.xercesc_2_7::XMLURL", %"class.xercesc_2_7::XMLURL"* %this1, i32 0, i32 1, !dbg !2799
  %3 = load %"class.xercesc_2_7::MemoryManager"*, %"class.xercesc_2_7::MemoryManager"** %fMemoryManager, align 8, !dbg !2799
  invoke void @_ZN11xercesc_2_721MalformedURLExceptionC2EPKcjNS_10XMLExcepts5CodesEPNS_13MemoryManagerE(%"class.xercesc_2_7::MalformedURLException"* %2, i8* getelementptr inbounds ([11 x i8], [11 x i8]* @.str, i64 0, i64 0), i32 811, i32 107, %"class.xercesc_2_7::MemoryManager"* %3)
          to label %invoke.cont unwind label %lpad, !dbg !2799

invoke.cont:                                      ; preds = %if.then2
  call void @__cxa_throw(i8* %exception, i8* bitcast ({ i8*, i8*, i8* }* @_ZTIN11xercesc_2_721MalformedURLExceptionE to i8*), i8* bitcast (void (%"class.xercesc_2_7::MalformedURLException"*)* @_ZN11xercesc_2_721MalformedURLExceptionD2Ev to i8*)) #11, !dbg !2799
  unreachable, !dbg !2799

lpad:                                             ; preds = %if.then2
  %4 = landingpad { i8*, i32 }
          cleanup, !dbg !2800
  %5 = extractvalue { i8*, i32 } %4, 0, !dbg !2800
  store i8* %5, i8** %exn.slot, align 8, !dbg !2800
  %6 = extractvalue { i8*, i32 } %4, 1, !dbg !2800
  store i32 %6, i32* %ehselector.slot, align 4, !dbg !2800
  call void @__cxa_free_exception(i8* %exception) #9, !dbg !2799
  br label %eh.resume, !dbg !2799

if.else:                                          ; preds = %if.then
  store i1 false, i1* %retval, align 1, !dbg !2801
  br label %return, !dbg !2801

if.end:                                           ; preds = %entry
  %fProtocol = getelementptr inbounds %"class.xercesc_2_7::XMLURL", %"class.xercesc_2_7::XMLURL"* %this1, i32 0, i32 7, !dbg !2802
  %7 = load i32, i32* %fProtocol, align 4, !dbg !2802
  %cmp = icmp eq i32 %7, 4, !dbg !2804
  br i1 %cmp, label %land.lhs.true, label %if.end34, !dbg !2805

land.lhs.true:                                    ; preds = %if.end
  %fHost = getelementptr inbounds %"class.xercesc_2_7::XMLURL", %"class.xercesc_2_7::XMLURL"* %this1, i32 0, i32 3, !dbg !2806
  %8 = load i16*, i16** %fHost, align 8, !dbg !2806
  %tobool3 = icmp ne i16* %8, null, !dbg !2806
  br i1 %tobool3, label %if.end34, label %land.lhs.true4, !dbg !2807

land.lhs.true4:                                   ; preds = %land.lhs.true
  %fPath = getelementptr inbounds %"class.xercesc_2_7::XMLURL", %"class.xercesc_2_7::XMLURL"* %this1, i32 0, i32 5, !dbg !2808
  %9 = load i16*, i16** %fPath, align 8, !dbg !2808
  %tobool5 = icmp ne i16* %9, null, !dbg !2808
  br i1 %tobool5, label %if.end34, label %land.lhs.true6, !dbg !2809

land.lhs.true6:                                   ; preds = %land.lhs.true4
  %fFragment = getelementptr inbounds %"class.xercesc_2_7::XMLURL", %"class.xercesc_2_7::XMLURL"* %this1, i32 0, i32 2, !dbg !2810
  %10 = load i16*, i16** %fFragment, align 8, !dbg !2810
  %tobool7 = icmp ne i16* %10, null, !dbg !2810
  br i1 %tobool7, label %if.then8, label %if.end34, !dbg !2811

if.then8:                                         ; preds = %land.lhs.true6
  %fMemoryManager9 = getelementptr inbounds %"class.xercesc_2_7::XMLURL", %"class.xercesc_2_7::XMLURL"* %this1, i32 0, i32 1, !dbg !2812
  %11 = load %"class.xercesc_2_7::MemoryManager"*, %"class.xercesc_2_7::MemoryManager"** %fMemoryManager9, align 8, !dbg !2812
  %fUser = getelementptr inbounds %"class.xercesc_2_7::XMLURL", %"class.xercesc_2_7::XMLURL"* %this1, i32 0, i32 9, !dbg !2814
  %12 = load i16*, i16** %fUser, align 8, !dbg !2814
  %13 = bitcast i16* %12 to i8*, !dbg !2814
  %14 = bitcast %"class.xercesc_2_7::MemoryManager"* %11 to void (%"class.xercesc_2_7::MemoryManager"*, i8*)***, !dbg !2815
  %vtable = load void (%"class.xercesc_2_7::MemoryManager"*, i8*)**, void (%"class.xercesc_2_7::MemoryManager"*, i8*)*** %14, align 8, !dbg !2815
  %vfn = getelementptr inbounds void (%"class.xercesc_2_7::MemoryManager"*, i8*)*, void (%"class.xercesc_2_7::MemoryManager"*, i8*)** %vtable, i64 3, !dbg !2815
  %15 = load void (%"class.xercesc_2_7::MemoryManager"*, i8*)*, void (%"class.xercesc_2_7::MemoryManager"*, i8*)** %vfn, align 8, !dbg !2815
  call void %15(%"class.xercesc_2_7::MemoryManager"* %11, i8* %13), !dbg !2815
  %fUser10 = getelementptr inbounds %"class.xercesc_2_7::XMLURL", %"class.xercesc_2_7::XMLURL"* %this1, i32 0, i32 9, !dbg !2816
  store i16* null, i16** %fUser10, align 8, !dbg !2817
  %fMemoryManager11 = getelementptr inbounds %"class.xercesc_2_7::XMLURL", %"class.xercesc_2_7::XMLURL"* %this1, i32 0, i32 1, !dbg !2818
  %16 = load %"class.xercesc_2_7::MemoryManager"*, %"class.xercesc_2_7::MemoryManager"** %fMemoryManager11, align 8, !dbg !2818
  %fPassword = getelementptr inbounds %"class.xercesc_2_7::XMLURL", %"class.xercesc_2_7::XMLURL"* %this1, i32 0, i32 4, !dbg !2819
  %17 = load i16*, i16** %fPassword, align 8, !dbg !2819
  %18 = bitcast i16* %17 to i8*, !dbg !2819
  %19 = bitcast %"class.xercesc_2_7::MemoryManager"* %16 to void (%"class.xercesc_2_7::MemoryManager"*, i8*)***, !dbg !2820
  %vtable12 = load void (%"class.xercesc_2_7::MemoryManager"*, i8*)**, void (%"class.xercesc_2_7::MemoryManager"*, i8*)*** %19, align 8, !dbg !2820
  %vfn13 = getelementptr inbounds void (%"class.xercesc_2_7::MemoryManager"*, i8*)*, void (%"class.xercesc_2_7::MemoryManager"*, i8*)** %vtable12, i64 3, !dbg !2820
  %20 = load void (%"class.xercesc_2_7::MemoryManager"*, i8*)*, void (%"class.xercesc_2_7::MemoryManager"*, i8*)** %vfn13, align 8, !dbg !2820
  call void %20(%"class.xercesc_2_7::MemoryManager"* %16, i8* %18), !dbg !2820
  %fPassword14 = getelementptr inbounds %"class.xercesc_2_7::XMLURL", %"class.xercesc_2_7::XMLURL"* %this1, i32 0, i32 4, !dbg !2821
  store i16* null, i16** %fPassword14, align 8, !dbg !2822
  %21 = load %"class.xercesc_2_7::XMLURL"*, %"class.xercesc_2_7::XMLURL"** %baseURL.addr, align 8, !dbg !2823
  %fProtocol15 = getelementptr inbounds %"class.xercesc_2_7::XMLURL", %"class.xercesc_2_7::XMLURL"* %21, i32 0, i32 7, !dbg !2824
  %22 = load i32, i32* %fProtocol15, align 4, !dbg !2824
  %fProtocol16 = getelementptr inbounds %"class.xercesc_2_7::XMLURL", %"class.xercesc_2_7::XMLURL"* %this1, i32 0, i32 7, !dbg !2825
  store i32 %22, i32* %fProtocol16, align 4, !dbg !2826
