; ModuleID = 'XMLDateTime.cpp'
source_filename = "XMLDateTime.cpp"
target datalayout = "e-m:e-p270:32:32-p271:32:32-p272:64:64-i64:64-f80:128-n8:16:32:64-S128"
target triple = "x86_64-unknown-linux-gnu"

%"class.xercesc_2_7::MemoryManager" = type { i32 (...)** }
%"class.xercesc_2_7::XProtoType" = type { i8*, %"class.xercesc_2_7::XSerializable"* (%"class.xercesc_2_7::MemoryManager"*)* }
%"class.xercesc_2_7::XSerializable" = type { i32 (...)** }
%"class.xercesc_2_7::XMLDateTime" = type { %"class.xercesc_2_7::XMLNumber", [8 x i32], [2 x i32], i32, i32, i32, double, i8, i16*, %"class.xercesc_2_7::MemoryManager"* }
%"class.xercesc_2_7::XMLNumber" = type { %"class.xercesc_2_7::XSerializable" }
%"class.xercesc_2_7::XMLDeleter" = type { i32 (...)** }
%struct.div_t = type { i32, i32 }
%"class.xercesc_2_7::SchemaDateTimeException" = type { %"class.xercesc_2_7::XMLException" }
%"class.xercesc_2_7::XMLException" = type { i32 (...)**, i32, i8*, i32, i16*, %"class.xercesc_2_7::MemoryManager"* }
%"class.xercesc_2_7::NumberFormatException" = type { %"class.xercesc_2_7::XMLException" }
%"class.xercesc_2_7::XSerializeEngine" = type <{ i16, i16, [4 x i8], %"class.xercesc_2_7::XMLGrammarPool"*, %"class.xercesc_2_7::BinInputStream"*, %"class.xercesc_2_7::BinOutputStream"*, i64, i64, i8*, i8*, i8*, i8*, %"class.xercesc_2_7::RefHashTableOf"*, %"class.xercesc_2_7::ValueVectorOf"*, i32, [4 x i8] }>
%"class.xercesc_2_7::XMLGrammarPool" = type opaque
%"class.xercesc_2_7::BinInputStream" = type opaque
%"class.xercesc_2_7::BinOutputStream" = type opaque
%"class.xercesc_2_7::RefHashTableOf" = type opaque
%"class.xercesc_2_7::ValueVectorOf" = type opaque

$_ZN11xercesc_2_710XMLDeleterD0Ev = comdat any

$_ZN11xercesc_2_710XMLDeleterD2Ev = comdat any

$_ZN11xercesc_2_711XMLDateTime5resetEv = comdat any

$_ZNK11xercesc_2_711XMLDateTime12isNormalizedEv = comdat any

$_ZN11xercesc_2_711XMLDateTime9getRetValEii = comdat any

$__clang_call_terminate = comdat any

$_ZN11xercesc_2_711XMLDateTime9setBufferEPKt = comdat any

$_ZN11xercesc_2_711XMLDateTime4copyERKS0_ = comdat any

$_ZNK11xercesc_2_711XMLDateTime12assertBufferEv = comdat any

$_ZN11xercesc_2_711XMLDateTime10initParserEv = comdat any

$_ZN11xercesc_2_723SchemaDateTimeExceptionC2EPKcjNS_10XMLExcepts5CodesEPKtS6_S6_S6_PNS_13MemoryManagerE = comdat any

$_ZN11xercesc_2_723SchemaDateTimeExceptionD2Ev = comdat any

$_ZN11xercesc_2_721NumberFormatExceptionC2EPKcjNS_10XMLExcepts5CodesEPNS_13MemoryManagerE = comdat any

$_ZN11xercesc_2_721NumberFormatExceptionD2Ev = comdat any

$_ZN11xercesc_2_79XMLString9moveCharsEPtPKtj = comdat any

$_ZN11xercesc_2_79XMLString9stringLenEPKt = comdat any

$_ZNK11xercesc_2_716XSerializeEngine9isStoringEv = comdat any

$_ZN11xercesc_2_723SchemaDateTimeExceptionC2EPKcjNS_10XMLExcepts5CodesEPNS_13MemoryManagerE = comdat any

$_ZN11xercesc_2_723SchemaDateTimeExceptionD0Ev = comdat any

$_ZNK11xercesc_2_723SchemaDateTimeException7getTypeEv = comdat any

$_ZNK11xercesc_2_723SchemaDateTimeException9duplicateEv = comdat any

$_ZN11xercesc_2_723SchemaDateTimeExceptionC2ERKS0_ = comdat any

$_ZN11xercesc_2_721NumberFormatExceptionD0Ev = comdat any

$_ZNK11xercesc_2_721NumberFormatException7getTypeEv = comdat any

$_ZNK11xercesc_2_721NumberFormatException9duplicateEv = comdat any

$_ZN11xercesc_2_721NumberFormatExceptionC2ERKS0_ = comdat any

$_ZTSN11xercesc_2_723SchemaDateTimeExceptionE = comdat any

$_ZTIN11xercesc_2_723SchemaDateTimeExceptionE = comdat any

$_ZTSN11xercesc_2_721NumberFormatExceptionE = comdat any

$_ZTIN11xercesc_2_721NumberFormatExceptionE = comdat any

$_ZTVN11xercesc_2_710XMLDeleterE = comdat any

$_ZTSN11xercesc_2_710XMLDeleterE = comdat any

$_ZTIN11xercesc_2_710XMLDeleterE = comdat any

$_ZTVN11xercesc_2_723SchemaDateTimeExceptionE = comdat any

$_ZTVN11xercesc_2_721NumberFormatExceptionE = comdat any

@_ZN11xercesc_2_716XMLPlatformUtils15fgMemoryManagerE = external dso_local global %"class.xercesc_2_7::MemoryManager"*, align 8
@_ZN11xercesc_2_7L9DATETIMESE = internal constant [4 x [8 x i32]] [[8 x i32] [i32 1696, i32 9, i32 1, i32 0, i32 0, i32 0, i32 0, i32 1], [8 x i32] [i32 1697, i32 2, i32 1, i32 0, i32 0, i32 0, i32 0, i32 1], [8 x i32] [i32 1903, i32 3, i32 1, i32 0, i32 0, i32 0, i32 0, i32 1], [8 x i32] [i32 1903, i32 7, i32 1, i32 0, i32 0, i32 0, i32 0, i32 1]], align 16, !dbg !0
@_ZTVN11xercesc_2_711XMLDateTimeE = dso_local unnamed_addr constant { [11 x i8*] } { [11 x i8*] [i8* null, i8* bitcast ({ i8*, i8*, i8* }* @_ZTIN11xercesc_2_711XMLDateTimeE to i8*), i8* bitcast (void (%"class.xercesc_2_7::XMLDateTime"*)* @_ZN11xercesc_2_711XMLDateTimeD1Ev to i8*), i8* bitcast (void (%"class.xercesc_2_7::XMLDateTime"*)* @_ZN11xercesc_2_711XMLDateTimeD0Ev to i8*), i8* bitcast (i1 (%"class.xercesc_2_7::XMLDateTime"*)* @_ZNK11xercesc_2_711XMLDateTime14isSerializableEv to i8*), i8* bitcast (void (%"class.xercesc_2_7::XMLDateTime"*, %"class.xercesc_2_7::XSerializeEngine"*)* @_ZN11xercesc_2_711XMLDateTime9serializeERNS_16XSerializeEngineE to i8*), i8* bitcast (%"class.xercesc_2_7::XProtoType"* (%"class.xercesc_2_7::XMLDateTime"*)* @_ZNK11xercesc_2_711XMLDateTime12getProtoTypeEv to i8*), i8* bitcast (i16* (%"class.xercesc_2_7::XMLDateTime"*)* @_ZNK11xercesc_2_711XMLDateTime8toStringEv to i8*), i8* bitcast (i16* (%"class.xercesc_2_7::XMLDateTime"*)* @_ZNK11xercesc_2_711XMLDateTime10getRawDataEv to i8*), i8* bitcast (i16* (%"class.xercesc_2_7::XMLDateTime"*)* @_ZNK11xercesc_2_711XMLDateTime18getFormattedStringEv to i8*), i8* bitcast (i32 (%"class.xercesc_2_7::XMLDateTime"*)* @_ZNK11xercesc_2_711XMLDateTime7getSignEv to i8*)] }, align 8
@.str = private unnamed_addr constant [16 x i8] c"XMLDateTime.cpp\00", align 1
@_ZTVN10__cxxabiv120__si_class_type_infoE = external dso_local global i8*
@_ZTSN11xercesc_2_723SchemaDateTimeExceptionE = linkonce_odr dso_local constant [41 x i8] c"N11xercesc_2_723SchemaDateTimeExceptionE\00", comdat, align 1
@_ZTIN11xercesc_2_712XMLExceptionE = external dso_local constant i8*
@_ZTIN11xercesc_2_723SchemaDateTimeExceptionE = linkonce_odr dso_local constant { i8*, i8*, i8* } { i8* bitcast (i8** getelementptr inbounds (i8*, i8** @_ZTVN10__cxxabiv120__si_class_type_infoE, i64 2) to i8*), i8* getelementptr inbounds ([41 x i8], [41 x i8]* @_ZTSN11xercesc_2_723SchemaDateTimeExceptionE, i32 0, i32 0), i8* bitcast (i8** @_ZTIN11xercesc_2_712XMLExceptionE to i8*) }, comdat, align 8
@_ZN11xercesc_2_7L7UTC_SETE = internal constant [4 x i16] [i16 90, i16 43, i16 45, i16 0], align 2, !dbg !10
@_ZTSN11xercesc_2_721NumberFormatExceptionE = linkonce_odr dso_local constant [39 x i8] c"N11xercesc_2_721NumberFormatExceptionE\00", comdat, align 1
@_ZTIN11xercesc_2_721NumberFormatExceptionE = linkonce_odr dso_local constant { i8*, i8*, i8* } { i8* bitcast (i8** getelementptr inbounds (i8*, i8** @_ZTVN10__cxxabiv120__si_class_type_infoE, i64 2) to i8*), i8* getelementptr inbounds ([39 x i8], [39 x i8]* @_ZTSN11xercesc_2_721NumberFormatExceptionE, i32 0, i32 0), i8* bitcast (i8** @_ZTIN11xercesc_2_712XMLExceptionE to i8*) }, comdat, align 8
@.str.1 = private unnamed_addr constant [12 x i8] c"XMLDateTime\00", align 1
@_ZN11xercesc_2_711XMLDateTime16classXMLDateTimeE = dso_local global %"class.xercesc_2_7::XProtoType" { i8* getelementptr inbounds ([12 x i8], [12 x i8]* @.str.1, i32 0, i32 0), %"class.xercesc_2_7::XSerializable"* (%"class.xercesc_2_7::MemoryManager"*)* @_ZN11xercesc_2_711XMLDateTime12createObjectEPNS_13MemoryManagerE }, align 8, !dbg !18
@_ZN11xercesc_2_716XSerializeEngine16toWriteBufferLenE = external dso_local constant i8, align 1
@_ZN11xercesc_2_716XSerializeEngine15toReadBufferLenE = external dso_local constant i8, align 1
@_ZTVN11xercesc_2_710XMLDeleterE = linkonce_odr dso_local unnamed_addr constant { [4 x i8*] } { [4 x i8*] [i8* null, i8* bitcast ({ i8*, i8* }* @_ZTIN11xercesc_2_710XMLDeleterE to i8*), i8* bitcast (void (%"class.xercesc_2_7::XMLDeleter"*)* @_ZN11xercesc_2_710XMLDeleterD2Ev to i8*), i8* bitcast (void (%"class.xercesc_2_7::XMLDeleter"*)* @_ZN11xercesc_2_710XMLDeleterD0Ev to i8*)] }, comdat, align 8
@_ZTVN10__cxxabiv117__class_type_infoE = external dso_local global i8*
@_ZTSN11xercesc_2_710XMLDeleterE = linkonce_odr dso_local constant [28 x i8] c"N11xercesc_2_710XMLDeleterE\00", comdat, align 1
@_ZTIN11xercesc_2_710XMLDeleterE = linkonce_odr dso_local constant { i8*, i8* } { i8* bitcast (i8** getelementptr inbounds (i8*, i8** @_ZTVN10__cxxabiv117__class_type_infoE, i64 2) to i8*), i8* getelementptr inbounds ([28 x i8], [28 x i8]* @_ZTSN11xercesc_2_710XMLDeleterE, i32 0, i32 0) }, comdat, align 8
@_ZTSN11xercesc_2_711XMLDateTimeE = dso_local constant [29 x i8] c"N11xercesc_2_711XMLDateTimeE\00", align 1
@_ZTIN11xercesc_2_79XMLNumberE = external dso_local constant i8*
@_ZTIN11xercesc_2_711XMLDateTimeE = dso_local constant { i8*, i8*, i8* } { i8* bitcast (i8** getelementptr inbounds (i8*, i8** @_ZTVN10__cxxabiv120__si_class_type_infoE, i64 2) to i8*), i8* getelementptr inbounds ([29 x i8], [29 x i8]* @_ZTSN11xercesc_2_711XMLDateTimeE, i32 0, i32 0), i8* bitcast (i8** @_ZTIN11xercesc_2_79XMLNumberE to i8*) }, align 8
@.str.2 = private unnamed_addr constant [31 x i8] c"./xercesc/util/XMLDateTime.hpp\00", align 1
@_ZTVN11xercesc_2_723SchemaDateTimeExceptionE = linkonce_odr dso_local unnamed_addr constant { [6 x i8*] } { [6 x i8*] [i8* null, i8* bitcast ({ i8*, i8*, i8* }* @_ZTIN11xercesc_2_723SchemaDateTimeExceptionE to i8*), i8* bitcast (void (%"class.xercesc_2_7::SchemaDateTimeException"*)* @_ZN11xercesc_2_723SchemaDateTimeExceptionD2Ev to i8*), i8* bitcast (void (%"class.xercesc_2_7::SchemaDateTimeException"*)* @_ZN11xercesc_2_723SchemaDateTimeExceptionD0Ev to i8*), i8* bitcast (i16* (%"class.xercesc_2_7::SchemaDateTimeException"*)* @_ZNK11xercesc_2_723SchemaDateTimeException7getTypeEv to i8*), i8* bitcast (%"class.xercesc_2_7::XMLException"* (%"class.xercesc_2_7::SchemaDateTimeException"*)* @_ZNK11xercesc_2_723SchemaDateTimeException9duplicateEv to i8*)] }, comdat, align 8
@_ZN11xercesc_2_76XMLUni30fgSchemaDateTimeException_NameE = external dso_local constant [0 x i16], align 2
@_ZTVN11xercesc_2_721NumberFormatExceptionE = linkonce_odr dso_local unnamed_addr constant { [6 x i8*] } { [6 x i8*] [i8* null, i8* bitcast ({ i8*, i8*, i8* }* @_ZTIN11xercesc_2_721NumberFormatExceptionE to i8*), i8* bitcast (void (%"class.xercesc_2_7::NumberFormatException"*)* @_ZN11xercesc_2_721NumberFormatExceptionD2Ev to i8*), i8* bitcast (void (%"class.xercesc_2_7::NumberFormatException"*)* @_ZN11xercesc_2_721NumberFormatExceptionD0Ev to i8*), i8* bitcast (i16* (%"class.xercesc_2_7::NumberFormatException"*)* @_ZNK11xercesc_2_721NumberFormatException7getTypeEv to i8*), i8* bitcast (%"class.xercesc_2_7::XMLException"* (%"class.xercesc_2_7::NumberFormatException"*)* @_ZNK11xercesc_2_721NumberFormatException9duplicateEv to i8*)] }, comdat, align 8
@_ZN11xercesc_2_76XMLUni28fgNumberFormatException_NameE = external dso_local constant [0 x i16], align 2

@_ZN11xercesc_2_711XMLDateTimeD1Ev = dso_local unnamed_addr alias void (%"class.xercesc_2_7::XMLDateTime"*), void (%"class.xercesc_2_7::XMLDateTime"*)* @_ZN11xercesc_2_711XMLDateTimeD2Ev
@_ZN11xercesc_2_711XMLDateTimeC1EPNS_13MemoryManagerE = dso_local unnamed_addr alias void (%"class.xercesc_2_7::XMLDateTime"*, %"class.xercesc_2_7::MemoryManager"*), void (%"class.xercesc_2_7::XMLDateTime"*, %"class.xercesc_2_7::MemoryManager"*)* @_ZN11xercesc_2_711XMLDateTimeC2EPNS_13MemoryManagerE
@_ZN11xercesc_2_711XMLDateTimeC1EPKtPNS_13MemoryManagerE = dso_local unnamed_addr alias void (%"class.xercesc_2_7::XMLDateTime"*, i16*, %"class.xercesc_2_7::MemoryManager"*), void (%"class.xercesc_2_7::XMLDateTime"*, i16*, %"class.xercesc_2_7::MemoryManager"*)* @_ZN11xercesc_2_711XMLDateTimeC2EPKtPNS_13MemoryManagerE
@_ZN11xercesc_2_711XMLDateTimeC1ERKS0_ = dso_local unnamed_addr alias void (%"class.xercesc_2_7::XMLDateTime"*, %"class.xercesc_2_7::XMLDateTime"*), void (%"class.xercesc_2_7::XMLDateTime"*, %"class.xercesc_2_7::XMLDateTime"*)* @_ZN11xercesc_2_711XMLDateTimeC2ERKS0_

; Function Attrs: nounwind readnone speculatable willreturn
declare void @llvm.dbg.declare(metadata, metadata, metadata) #0

; Function Attrs: noinline nounwind uwtable
define linkonce_odr dso_local void @_ZN11xercesc_2_710XMLDeleterD0Ev(%"class.xercesc_2_7::XMLDeleter"* %this) unnamed_addr #1 comdat align 2 !dbg !1376 {
entry:
  %this.addr = alloca %"class.xercesc_2_7::XMLDeleter"*, align 8
  store %"class.xercesc_2_7::XMLDeleter"* %this, %"class.xercesc_2_7::XMLDeleter"** %this.addr, align 8
  call void @llvm.dbg.declare(metadata %"class.xercesc_2_7::XMLDeleter"** %this.addr, metadata !1398, metadata !DIExpression()), !dbg !1400
  %this1 = load %"class.xercesc_2_7::XMLDeleter"*, %"class.xercesc_2_7::XMLDeleter"** %this.addr, align 8
  call void @_ZN11xercesc_2_710XMLDeleterD2Ev(%"class.xercesc_2_7::XMLDeleter"* %this1) #9, !dbg !1401
  %0 = bitcast %"class.xercesc_2_7::XMLDeleter"* %this1 to i8*, !dbg !1401
  call void @_ZdlPv(i8* %0) #10, !dbg !1401
  ret void, !dbg !1402
}

; Function Attrs: noinline nounwind uwtable
define linkonce_odr dso_local void @_ZN11xercesc_2_710XMLDeleterD2Ev(%"class.xercesc_2_7::XMLDeleter"* %this) unnamed_addr #1 comdat align 2 !dbg !1403 {
entry:
  %this.addr = alloca %"class.xercesc_2_7::XMLDeleter"*, align 8
  store %"class.xercesc_2_7::XMLDeleter"* %this, %"class.xercesc_2_7::XMLDeleter"** %this.addr, align 8
  call void @llvm.dbg.declare(metadata %"class.xercesc_2_7::XMLDeleter"** %this.addr, metadata !1404, metadata !DIExpression()), !dbg !1405
  %this1 = load %"class.xercesc_2_7::XMLDeleter"*, %"class.xercesc_2_7::XMLDeleter"** %this.addr, align 8
  ret void, !dbg !1406
}

; Function Attrs: nobuiltin nounwind
declare dso_local void @_ZdlPv(i8*) #2

; Function Attrs: noinline uwtable
define dso_local i32 @_ZN11xercesc_2_711XMLDateTime7compareEPKS0_S2_b(%"class.xercesc_2_7::XMLDateTime"* %pDate1, %"class.xercesc_2_7::XMLDateTime"* %pDate2, i1 zeroext %strict) #3 align 2 personality i8* bitcast (i32 (...)* @__gxx_personality_v0 to i8*) !dbg !1407 {
entry:
  %retval = alloca i32, align 4
  %pDate1.addr = alloca %"class.xercesc_2_7::XMLDateTime"*, align 8
  %pDate2.addr = alloca %"class.xercesc_2_7::XMLDateTime"*, align 8
  %strict.addr = alloca i8, align 1
  %resultA = alloca i32, align 4
  %resultB = alloca i32, align 4
  %tempA = alloca %"class.xercesc_2_7::XMLDateTime", align 8
  %pTempA = alloca %"class.xercesc_2_7::XMLDateTime"*, align 8
  %tempB = alloca %"class.xercesc_2_7::XMLDateTime", align 8
  %exn.slot = alloca i8*
  %ehselector.slot = alloca i32
  %pTempB = alloca %"class.xercesc_2_7::XMLDateTime"*, align 8
  %cleanup.dest.slot = alloca i32, align 4
  store %"class.xercesc_2_7::XMLDateTime"* %pDate1, %"class.xercesc_2_7::XMLDateTime"** %pDate1.addr, align 8
  call void @llvm.dbg.declare(metadata %"class.xercesc_2_7::XMLDateTime"** %pDate1.addr, metadata !1408, metadata !DIExpression()), !dbg !1409
  store %"class.xercesc_2_7::XMLDateTime"* %pDate2, %"class.xercesc_2_7::XMLDateTime"** %pDate2.addr, align 8
  call void @llvm.dbg.declare(metadata %"class.xercesc_2_7::XMLDateTime"** %pDate2.addr, metadata !1410, metadata !DIExpression()), !dbg !1411
  %frombool = zext i1 %strict to i8
  store i8 %frombool, i8* %strict.addr, align 1
  call void @llvm.dbg.declare(metadata i8* %strict.addr, metadata !1412, metadata !DIExpression()), !dbg !1413
  call void @llvm.dbg.declare(metadata i32* %resultA, metadata !1414, metadata !DIExpression()), !dbg !1415
  call void @llvm.dbg.declare(metadata i32* %resultB, metadata !1416, metadata !DIExpression()), !dbg !1417
  store i32 2, i32* %resultB, align 4, !dbg !1417
  %0 = load %"class.xercesc_2_7::XMLDateTime"*, %"class.xercesc_2_7::XMLDateTime"** %pDate1.addr, align 8, !dbg !1418
  %1 = load %"class.xercesc_2_7::XMLDateTime"*, %"class.xercesc_2_7::XMLDateTime"** %pDate2.addr, align 8, !dbg !1420
  %call = call i32 @_ZN11xercesc_2_711XMLDateTime12compareOrderEPKS0_S2_(%"class.xercesc_2_7::XMLDateTime"* %0, %"class.xercesc_2_7::XMLDateTime"* %1), !dbg !1421
  store i32 %call, i32* %resultA, align 4, !dbg !1422
  %cmp = icmp eq i32 %call, 0, !dbg !1423
  br i1 %cmp, label %if.then, label %if.end, !dbg !1424

if.then:                                          ; preds = %entry
  store i32 0, i32* %retval, align 4, !dbg !1425
  br label %return, !dbg !1425

if.end:                                           ; preds = %entry
  call void @llvm.dbg.declare(metadata %"class.xercesc_2_7::XMLDateTime"* %tempA, metadata !1426, metadata !DIExpression()), !dbg !1427
  %2 = load %"class.xercesc_2_7::MemoryManager"*, %"class.xercesc_2_7::MemoryManager"** @_ZN11xercesc_2_716XMLPlatformUtils15fgMemoryManagerE, align 8, !dbg !1428
  call void @_ZN11xercesc_2_711XMLDateTimeC1EPNS_13MemoryManagerE(%"class.xercesc_2_7::XMLDateTime"* %tempA, %"class.xercesc_2_7::MemoryManager"* %2), !dbg !1427
  call void @llvm.dbg.declare(metadata %"class.xercesc_2_7::XMLDateTime"** %pTempA, metadata !1429, metadata !DIExpression()), !dbg !1430
  store %"class.xercesc_2_7::XMLDateTime"* %tempA, %"class.xercesc_2_7::XMLDateTime"** %pTempA, align 8, !dbg !1430
  call void @llvm.dbg.declare(metadata %"class.xercesc_2_7::XMLDateTime"* %tempB, metadata !1431, metadata !DIExpression()), !dbg !1432
  %3 = load %"class.xercesc_2_7::MemoryManager"*, %"class.xercesc_2_7::MemoryManager"** @_ZN11xercesc_2_716XMLPlatformUtils15fgMemoryManagerE, align 8, !dbg !1433
  invoke void @_ZN11xercesc_2_711XMLDateTimeC1EPNS_13MemoryManagerE(%"class.xercesc_2_7::XMLDateTime"* %tempB, %"class.xercesc_2_7::MemoryManager"* %3)
          to label %invoke.cont unwind label %lpad, !dbg !1432

invoke.cont:                                      ; preds = %if.end
  call void @llvm.dbg.declare(metadata %"class.xercesc_2_7::XMLDateTime"** %pTempB, metadata !1434, metadata !DIExpression()), !dbg !1435
  store %"class.xercesc_2_7::XMLDateTime"* %tempB, %"class.xercesc_2_7::XMLDateTime"** %pTempB, align 8, !dbg !1435
  %4 = load %"class.xercesc_2_7::XMLDateTime"*, %"class.xercesc_2_7::XMLDateTime"** %pTempA, align 8, !dbg !1436
  %5 = load %"class.xercesc_2_7::XMLDateTime"*, %"class.xercesc_2_7::XMLDateTime"** %pDate1.addr, align 8, !dbg !1437
  invoke void @_ZN11xercesc_2_711XMLDateTime11addDurationEPS0_PKS0_i(%"class.xercesc_2_7::XMLDateTime"* %4, %"class.xercesc_2_7::XMLDateTime"* %5, i32 0)
          to label %invoke.cont2 unwind label %lpad1, !dbg !1438

invoke.cont2:                                     ; preds = %invoke.cont
  %6 = load %"class.xercesc_2_7::XMLDateTime"*, %"class.xercesc_2_7::XMLDateTime"** %pTempB, align 8, !dbg !1439
  %7 = load %"class.xercesc_2_7::XMLDateTime"*, %"class.xercesc_2_7::XMLDateTime"** %pDate2.addr, align 8, !dbg !1440
  invoke void @_ZN11xercesc_2_711XMLDateTime11addDurationEPS0_PKS0_i(%"class.xercesc_2_7::XMLDateTime"* %6, %"class.xercesc_2_7::XMLDateTime"* %7, i32 0)
          to label %invoke.cont3 unwind label %lpad1, !dbg !1441

invoke.cont3:                                     ; preds = %invoke.cont2
  %8 = load %"class.xercesc_2_7::XMLDateTime"*, %"class.xercesc_2_7::XMLDateTime"** %pTempA, align 8, !dbg !1442
  %9 = load %"class.xercesc_2_7::XMLDateTime"*, %"class.xercesc_2_7::XMLDateTime"** %pTempB, align 8, !dbg !1443
  %call5 = invoke i32 @_ZN11xercesc_2_711XMLDateTime12compareOrderEPKS0_S2_(%"class.xercesc_2_7::XMLDateTime"* %8, %"class.xercesc_2_7::XMLDateTime"* %9)
          to label %invoke.cont4 unwind label %lpad1, !dbg !1444

invoke.cont4:                                     ; preds = %invoke.cont3
  store i32 %call5, i32* %resultA, align 4, !dbg !1445
  %10 = load i32, i32* %resultA, align 4, !dbg !1446
  %cmp6 = icmp eq i32 %10, 2, !dbg !1448
  br i1 %cmp6, label %if.then7, label %if.end8, !dbg !1449

if.then7:                                         ; preds = %invoke.cont4
  store i32 2, i32* %retval, align 4, !dbg !1450
  store i32 1, i32* %cleanup.dest.slot, align 4
  br label %cleanup, !dbg !1450

lpad:                                             ; preds = %if.end
  %11 = landingpad { i8*, i32 }
          cleanup, !dbg !1451
  %12 = extractvalue { i8*, i32 } %11, 0, !dbg !1451
  store i8* %12, i8** %exn.slot, align 8, !dbg !1451
  %13 = extractvalue { i8*, i32 } %11, 1, !dbg !1451
  store i32 %13, i32* %ehselector.slot, align 4, !dbg !1451
  br label %ehcleanup, !dbg !1451

lpad1:                                            ; preds = %invoke.cont30, %invoke.cont29, %invoke.cont28, %if.end27, %invoke.cont20, %invoke.cont19, %invoke.cont18, %if.end17, %invoke.cont11, %invoke.cont10, %invoke.cont9, %if.end8, %invoke.cont3, %invoke.cont2, %invoke.cont
  %14 = landingpad { i8*, i32 }
          cleanup, !dbg !1451
  %15 = extractvalue { i8*, i32 } %14, 0, !dbg !1451
  store i8* %15, i8** %exn.slot, align 8, !dbg !1451
  %16 = extractvalue { i8*, i32 } %14, 1, !dbg !1451
  store i32 %16, i32* %ehselector.slot, align 4, !dbg !1451
  call void @_ZN11xercesc_2_711XMLDateTimeD1Ev(%"class.xercesc_2_7::XMLDateTime"* %tempB) #9, !dbg !1451
  br label %ehcleanup, !dbg !1451

if.end8:                                          ; preds = %invoke.cont4
  %17 = load %"class.xercesc_2_7::XMLDateTime"*, %"class.xercesc_2_7::XMLDateTime"** %pTempA, align 8, !dbg !1452
  %18 = load %"class.xercesc_2_7::XMLDateTime"*, %"class.xercesc_2_7::XMLDateTime"** %pDate1.addr, align 8, !dbg !1453
  invoke void @_ZN11xercesc_2_711XMLDateTime11addDurationEPS0_PKS0_i(%"class.xercesc_2_7::XMLDateTime"* %17, %"class.xercesc_2_7::XMLDateTime"* %18, i32 1)
          to label %invoke.cont9 unwind label %lpad1, !dbg !1454

invoke.cont9:                                     ; preds = %if.end8
  %19 = load %"class.xercesc_2_7::XMLDateTime"*, %"class.xercesc_2_7::XMLDateTime"** %pTempB, align 8, !dbg !1455
  %20 = load %"class.xercesc_2_7::XMLDateTime"*, %"class.xercesc_2_7::XMLDateTime"** %pDate2.addr, align 8, !dbg !1456
  invoke void @_ZN11xercesc_2_711XMLDateTime11addDurationEPS0_PKS0_i(%"class.xercesc_2_7::XMLDateTime"* %19, %"class.xercesc_2_7::XMLDateTime"* %20, i32 1)
          to label %invoke.cont10 unwind label %lpad1, !dbg !1457

invoke.cont10:                                    ; preds = %invoke.cont9
  %21 = load %"class.xercesc_2_7::XMLDateTime"*, %"class.xercesc_2_7::XMLDateTime"** %pTempA, align 8, !dbg !1458
  %22 = load %"class.xercesc_2_7::XMLDateTime"*, %"class.xercesc_2_7::XMLDateTime"** %pTempB, align 8, !dbg !1459
  %call12 = invoke i32 @_ZN11xercesc_2_711XMLDateTime12compareOrderEPKS0_S2_(%"class.xercesc_2_7::XMLDateTime"* %21, %"class.xercesc_2_7::XMLDateTime"* %22)
          to label %invoke.cont11 unwind label %lpad1, !dbg !1460

invoke.cont11:                                    ; preds = %invoke.cont10
  store i32 %call12, i32* %resultB, align 4, !dbg !1461
  %23 = load i32, i32* %resultA, align 4, !dbg !1462
  %24 = load i32, i32* %resultB, align 4, !dbg !1463
  %25 = load i8, i8* %strict.addr, align 1, !dbg !1464
  %tobool = trunc i8 %25 to i1, !dbg !1464
  %call14 = invoke i32 @_ZN11xercesc_2_711XMLDateTime13compareResultEiib(i32 %23, i32 %24, i1 zeroext %tobool)
          to label %invoke.cont13 unwind label %lpad1, !dbg !1465

invoke.cont13:                                    ; preds = %invoke.cont11
  store i32 %call14, i32* %resultA, align 4, !dbg !1466
  %26 = load i32, i32* %resultA, align 4, !dbg !1467
  %cmp15 = icmp eq i32 %26, 2, !dbg !1469
  br i1 %cmp15, label %if.then16, label %if.end17, !dbg !1470

if.then16:                                        ; preds = %invoke.cont13
  store i32 2, i32* %retval, align 4, !dbg !1471
  store i32 1, i32* %cleanup.dest.slot, align 4
  br label %cleanup, !dbg !1471

if.end17:                                         ; preds = %invoke.cont13
  %27 = load %"class.xercesc_2_7::XMLDateTime"*, %"class.xercesc_2_7::XMLDateTime"** %pTempA, align 8, !dbg !1472
  %28 = load %"class.xercesc_2_7::XMLDateTime"*, %"class.xercesc_2_7::XMLDateTime"** %pDate1.addr, align 8, !dbg !1473
  invoke void @_ZN11xercesc_2_711XMLDateTime11addDurationEPS0_PKS0_i(%"class.xercesc_2_7::XMLDateTime"* %27, %"class.xercesc_2_7::XMLDateTime"* %28, i32 2)
          to label %invoke.cont18 unwind label %lpad1, !dbg !1474

invoke.cont18:                                    ; preds = %if.end17
  %29 = load %"class.xercesc_2_7::XMLDateTime"*, %"class.xercesc_2_7::XMLDateTime"** %pTempB, align 8, !dbg !1475
  %30 = load %"class.xercesc_2_7::XMLDateTime"*, %"class.xercesc_2_7::XMLDateTime"** %pDate2.addr, align 8, !dbg !1476
  invoke void @_ZN11xercesc_2_711XMLDateTime11addDurationEPS0_PKS0_i(%"class.xercesc_2_7::XMLDateTime"* %29, %"class.xercesc_2_7::XMLDateTime"* %30, i32 2)
          to label %invoke.cont19 unwind label %lpad1, !dbg !1477

invoke.cont19:                                    ; preds = %invoke.cont18
  %31 = load %"class.xercesc_2_7::XMLDateTime"*, %"class.xercesc_2_7::XMLDateTime"** %pTempA, align 8, !dbg !1478
  %32 = load %"class.xercesc_2_7::XMLDateTime"*, %"class.xercesc_2_7::XMLDateTime"** %pTempB, align 8, !dbg !1479
  %call21 = invoke i32 @_ZN11xercesc_2_711XMLDateTime12compareOrderEPKS0_S2_(%"class.xercesc_2_7::XMLDateTime"* %31, %"class.xercesc_2_7::XMLDateTime"* %32)
          to label %invoke.cont20 unwind label %lpad1, !dbg !1480

invoke.cont20:                                    ; preds = %invoke.cont19
  store i32 %call21, i32* %resultB, align 4, !dbg !1481
  %33 = load i32, i32* %resultA, align 4, !dbg !1482
  %34 = load i32, i32* %resultB, align 4, !dbg !1483
  %35 = load i8, i8* %strict.addr, align 1, !dbg !1484
  %tobool22 = trunc i8 %35 to i1, !dbg !1484
  %call24 = invoke i32 @_ZN11xercesc_2_711XMLDateTime13compareResultEiib(i32 %33, i32 %34, i1 zeroext %tobool22)
          to label %invoke.cont23 unwind label %lpad1, !dbg !1485

invoke.cont23:                                    ; preds = %invoke.cont20
  store i32 %call24, i32* %resultA, align 4, !dbg !1486
  %36 = load i32, i32* %resultA, align 4, !dbg !1487
  %cmp25 = icmp eq i32 %36, 2, !dbg !1489
  br i1 %cmp25, label %if.then26, label %if.end27, !dbg !1490

if.then26:                                        ; preds = %invoke.cont23
  store i32 2, i32* %retval, align 4, !dbg !1491
  store i32 1, i32* %cleanup.dest.slot, align 4
  br label %cleanup, !dbg !1491

if.end27:                                         ; preds = %invoke.cont23
  %37 = load %"class.xercesc_2_7::XMLDateTime"*, %"class.xercesc_2_7::XMLDateTime"** %pTempA, align 8, !dbg !1492
  %38 = load %"class.xercesc_2_7::XMLDateTime"*, %"class.xercesc_2_7::XMLDateTime"** %pDate1.addr, align 8, !dbg !1493
  invoke void @_ZN11xercesc_2_711XMLDateTime11addDurationEPS0_PKS0_i(%"class.xercesc_2_7::XMLDateTime"* %37, %"class.xercesc_2_7::XMLDateTime"* %38, i32 3)
          to label %invoke.cont28 unwind label %lpad1, !dbg !1494

invoke.cont28:                                    ; preds = %if.end27
  %39 = load %"class.xercesc_2_7::XMLDateTime"*, %"class.xercesc_2_7::XMLDateTime"** %pTempB, align 8, !dbg !1495
  %40 = load %"class.xercesc_2_7::XMLDateTime"*, %"class.xercesc_2_7::XMLDateTime"** %pDate2.addr, align 8, !dbg !1496
  invoke void @_ZN11xercesc_2_711XMLDateTime11addDurationEPS0_PKS0_i(%"class.xercesc_2_7::XMLDateTime"* %39, %"class.xercesc_2_7::XMLDateTime"* %40, i32 3)
          to label %invoke.cont29 unwind label %lpad1, !dbg !1497

invoke.cont29:                                    ; preds = %invoke.cont28
  %41 = load %"class.xercesc_2_7::XMLDateTime"*, %"class.xercesc_2_7::XMLDateTime"** %pTempA, align 8, !dbg !1498
  %42 = load %"class.xercesc_2_7::XMLDateTime"*, %"class.xercesc_2_7::XMLDateTime"** %pTempB, align 8, !dbg !1499
  %call31 = invoke i32 @_ZN11xercesc_2_711XMLDateTime12compareOrderEPKS0_S2_(%"class.xercesc_2_7::XMLDateTime"* %41, %"class.xercesc_2_7::XMLDateTime"* %42)
          to label %invoke.cont30 unwind label %lpad1, !dbg !1500

invoke.cont30:                                    ; preds = %invoke.cont29
  store i32 %call31, i32* %resultB, align 4, !dbg !1501
  %43 = load i32, i32* %resultA, align 4, !dbg !1502
  %44 = load i32, i32* %resultB, align 4, !dbg !1503
  %45 = load i8, i8* %strict.addr, align 1, !dbg !1504
  %tobool32 = trunc i8 %45 to i1, !dbg !1504
  %call34 = invoke i32 @_ZN11xercesc_2_711XMLDateTime13compareResultEiib(i32 %43, i32 %44, i1 zeroext %tobool32)
          to label %invoke.cont33 unwind label %lpad1, !dbg !1505

invoke.cont33:                                    ; preds = %invoke.cont30
  store i32 %call34, i32* %resultA, align 4, !dbg !1506
  %46 = load i32, i32* %resultA, align 4, !dbg !1507
  store i32 %46, i32* %retval, align 4, !dbg !1508
  store i32 1, i32* %cleanup.dest.slot, align 4
  br label %cleanup, !dbg !1508

cleanup:                                          ; preds = %invoke.cont33, %if.then26, %if.then16, %if.then7
  call void @_ZN11xercesc_2_711XMLDateTimeD1Ev(%"class.xercesc_2_7::XMLDateTime"* %tempB) #9, !dbg !1451
  call void @_ZN11xercesc_2_711XMLDateTimeD1Ev(%"class.xercesc_2_7::XMLDateTime"* %tempA) #9, !dbg !1451
  br label %return

ehcleanup:                                        ; preds = %lpad1, %lpad
  call void @_ZN11xercesc_2_711XMLDateTimeD1Ev(%"class.xercesc_2_7::XMLDateTime"* %tempA) #9, !dbg !1451
  br label %eh.resume, !dbg !1451

return:                                           ; preds = %cleanup, %if.then
  %47 = load i32, i32* %retval, align 4, !dbg !1451
  ret i32 %47, !dbg !1451

eh.resume:                                        ; preds = %ehcleanup
  %exn = load i8*, i8** %exn.slot, align 8, !dbg !1451
  %sel = load i32, i32* %ehselector.slot, align 4, !dbg !1451
  %lpad.val = insertvalue { i8*, i32 } undef, i8* %exn, 0, !dbg !1451
  %lpad.val36 = insertvalue { i8*, i32 } %lpad.val, i32 %sel, 1, !dbg !1451
  resume { i8*, i32 } %lpad.val36, !dbg !1451
}

; Function Attrs: noinline uwtable
define dso_local i32 @_ZN11xercesc_2_711XMLDateTime12compareOrderEPKS0_S2_(%"class.xercesc_2_7::XMLDateTime"* %lValue, %"class.xercesc_2_7::XMLDateTime"* %rValue) #3 align 2 personality i8* bitcast (i32 (...)* @__gxx_personality_v0 to i8*) !dbg !1509 {
entry:
  %retval = alloca i32, align 4
  %lValue.addr = alloca %"class.xercesc_2_7::XMLDateTime"*, align 8
  %rValue.addr = alloca %"class.xercesc_2_7::XMLDateTime"*, align 8
  %lTemp = alloca %"class.xercesc_2_7::XMLDateTime", align 8
  %rTemp = alloca %"class.xercesc_2_7::XMLDateTime", align 8
  %exn.slot = alloca i8*
  %ehselector.slot = alloca i32
  %i = alloca i32, align 4
  %cleanup.dest.slot = alloca i32, align 4
  store %"class.xercesc_2_7::XMLDateTime"* %lValue, %"class.xercesc_2_7::XMLDateTime"** %lValue.addr, align 8
  call void @llvm.dbg.declare(metadata %"class.xercesc_2_7::XMLDateTime"** %lValue.addr, metadata !1510, metadata !DIExpression()), !dbg !1511
  store %"class.xercesc_2_7::XMLDateTime"* %rValue, %"class.xercesc_2_7::XMLDateTime"** %rValue.addr, align 8
  call void @llvm.dbg.declare(metadata %"class.xercesc_2_7::XMLDateTime"** %rValue.addr, metadata !1512, metadata !DIExpression()), !dbg !1513
  call void @llvm.dbg.declare(metadata %"class.xercesc_2_7::XMLDateTime"* %lTemp, metadata !1514, metadata !DIExpression()), !dbg !1515
  %0 = load %"class.xercesc_2_7::XMLDateTime"*, %"class.xercesc_2_7::XMLDateTime"** %lValue.addr, align 8, !dbg !1516
  call void @_ZN11xercesc_2_711XMLDateTimeC1ERKS0_(%"class.xercesc_2_7::XMLDateTime"* %lTemp, %"class.xercesc_2_7::XMLDateTime"* dereferenceable(96) %0), !dbg !1517
  call void @llvm.dbg.declare(metadata %"class.xercesc_2_7::XMLDateTime"* %rTemp, metadata !1518, metadata !DIExpression()), !dbg !1519
  %1 = load %"class.xercesc_2_7::XMLDateTime"*, %"class.xercesc_2_7::XMLDateTime"** %rValue.addr, align 8, !dbg !1520
  invoke void @_ZN11xercesc_2_711XMLDateTimeC1ERKS0_(%"class.xercesc_2_7::XMLDateTime"* %rTemp, %"class.xercesc_2_7::XMLDateTime"* dereferenceable(96) %1)
          to label %invoke.cont unwind label %lpad, !dbg !1521

invoke.cont:                                      ; preds = %entry
  invoke void @_ZN11xercesc_2_711XMLDateTime9normalizeEv(%"class.xercesc_2_7::XMLDateTime"* %lTemp)
          to label %invoke.cont2 unwind label %lpad1, !dbg !1522

invoke.cont2:                                     ; preds = %invoke.cont
  invoke void @_ZN11xercesc_2_711XMLDateTime9normalizeEv(%"class.xercesc_2_7::XMLDateTime"* %rTemp)
          to label %invoke.cont3 unwind label %lpad1, !dbg !1523

invoke.cont3:                                     ; preds = %invoke.cont2
  call void @llvm.dbg.declare(metadata i32* %i, metadata !1524, metadata !DIExpression()), !dbg !1526
  store i32 0, i32* %i, align 4, !dbg !1526
  br label %for.cond, !dbg !1527

for.cond:                                         ; preds = %for.inc, %invoke.cont3
  %2 = load i32, i32* %i, align 4, !dbg !1528
  %cmp = icmp slt i32 %2, 8, !dbg !1530
  br i1 %cmp, label %for.body, label %for.end, !dbg !1531

for.body:                                         ; preds = %for.cond
  %fValue = getelementptr inbounds %"class.xercesc_2_7::XMLDateTime", %"class.xercesc_2_7::XMLDateTime"* %lTemp, i32 0, i32 1, !dbg !1532
  %3 = load i32, i32* %i, align 4, !dbg !1535
  %idxprom = sext i32 %3 to i64, !dbg !1536
  %arrayidx = getelementptr inbounds [8 x i32], [8 x i32]* %fValue, i64 0, i64 %idxprom, !dbg !1536
  %4 = load i32, i32* %arrayidx, align 4, !dbg !1536
  %fValue4 = getelementptr inbounds %"class.xercesc_2_7::XMLDateTime", %"class.xercesc_2_7::XMLDateTime"* %rTemp, i32 0, i32 1, !dbg !1537
  %5 = load i32, i32* %i, align 4, !dbg !1538
  %idxprom5 = sext i32 %5 to i64, !dbg !1539
  %arrayidx6 = getelementptr inbounds [8 x i32], [8 x i32]* %fValue4, i64 0, i64 %idxprom5, !dbg !1539
  %6 = load i32, i32* %arrayidx6, align 4, !dbg !1539
  %cmp7 = icmp slt i32 %4, %6, !dbg !1540
  br i1 %cmp7, label %if.then, label %if.else, !dbg !1541

if.then:                                          ; preds = %for.body
  store i32 -1, i32* %retval, align 4, !dbg !1542
  store i32 1, i32* %cleanup.dest.slot, align 4
  br label %cleanup, !dbg !1542

lpad:                                             ; preds = %entry
  %7 = landingpad { i8*, i32 }
          cleanup, !dbg !1544
  %8 = extractvalue { i8*, i32 } %7, 0, !dbg !1544
  store i8* %8, i8** %exn.slot, align 8, !dbg !1544
  %9 = extractvalue { i8*, i32 } %7, 1, !dbg !1544
  store i32 %9, i32* %ehselector.slot, align 4, !dbg !1544
  br label %ehcleanup, !dbg !1544

lpad1:                                            ; preds = %invoke.cont2, %invoke.cont
  %10 = landingpad { i8*, i32 }
          cleanup, !dbg !1544
  %11 = extractvalue { i8*, i32 } %10, 0, !dbg !1544
  store i8* %11, i8** %exn.slot, align 8, !dbg !1544
  %12 = extractvalue { i8*, i32 } %10, 1, !dbg !1544
  store i32 %12, i32* %ehselector.slot, align 4, !dbg !1544
  call void @_ZN11xercesc_2_711XMLDateTimeD1Ev(%"class.xercesc_2_7::XMLDateTime"* %rTemp) #9, !dbg !1544
  br label %ehcleanup, !dbg !1544

if.else:                                          ; preds = %for.body
  %fValue8 = getelementptr inbounds %"class.xercesc_2_7::XMLDateTime", %"class.xercesc_2_7::XMLDateTime"* %lTemp, i32 0, i32 1, !dbg !1545
  %13 = load i32, i32* %i, align 4, !dbg !1547
  %idxprom9 = sext i32 %13 to i64, !dbg !1548
  %arrayidx10 = getelementptr inbounds [8 x i32], [8 x i32]* %fValue8, i64 0, i64 %idxprom9, !dbg !1548
  %14 = load i32, i32* %arrayidx10, align 4, !dbg !1548
  %fValue11 = getelementptr inbounds %"class.xercesc_2_7::XMLDateTime", %"class.xercesc_2_7::XMLDateTime"* %rTemp, i32 0, i32 1, !dbg !1549
  %15 = load i32, i32* %i, align 4, !dbg !1550
  %idxprom12 = sext i32 %15 to i64, !dbg !1551
  %arrayidx13 = getelementptr inbounds [8 x i32], [8 x i32]* %fValue11, i64 0, i64 %idxprom12, !dbg !1551
  %16 = load i32, i32* %arrayidx13, align 4, !dbg !1551
  %cmp14 = icmp sgt i32 %14, %16, !dbg !1552
  br i1 %cmp14, label %if.then15, label %if.end, !dbg !1553

if.then15:                                        ; preds = %if.else
  store i32 1, i32* %retval, align 4, !dbg !1554
  store i32 1, i32* %cleanup.dest.slot, align 4
  br label %cleanup, !dbg !1554

if.end:                                           ; preds = %if.else
  br label %if.end16

if.end16:                                         ; preds = %if.end
  br label %for.inc, !dbg !1556

for.inc:                                          ; preds = %if.end16
  %17 = load i32, i32* %i, align 4, !dbg !1557
  %inc = add nsw i32 %17, 1, !dbg !1557
  store i32 %inc, i32* %i, align 4, !dbg !1557
  br label %for.cond, !dbg !1558, !llvm.loop !1559

for.end:                                          ; preds = %for.cond
  %fHasTime = getelementptr inbounds %"class.xercesc_2_7::XMLDateTime", %"class.xercesc_2_7::XMLDateTime"* %lTemp, i32 0, i32 7, !dbg !1561
  %18 = load i8, i8* %fHasTime, align 8, !dbg !1561
  %tobool = trunc i8 %18 to i1, !dbg !1561
  br i1 %tobool, label %if.then17, label %if.end28, !dbg !1563

if.then17:                                        ; preds = %for.end
  %fMiliSecond = getelementptr inbounds %"class.xercesc_2_7::XMLDateTime", %"class.xercesc_2_7::XMLDateTime"* %lTemp, i32 0, i32 6, !dbg !1564
  %19 = load double, double* %fMiliSecond, align 8, !dbg !1564
  %fMiliSecond18 = getelementptr inbounds %"class.xercesc_2_7::XMLDateTime", %"class.xercesc_2_7::XMLDateTime"* %rTemp, i32 0, i32 6, !dbg !1567
  %20 = load double, double* %fMiliSecond18, align 8, !dbg !1567
  %cmp19 = fcmp olt double %19, %20, !dbg !1568
  br i1 %cmp19, label %if.then20, label %if.else21, !dbg !1569

if.then20:                                        ; preds = %if.then17
  store i32 -1, i32* %retval, align 4, !dbg !1570
  store i32 1, i32* %cleanup.dest.slot, align 4
  br label %cleanup, !dbg !1570

if.else21:                                        ; preds = %if.then17
  %fMiliSecond22 = getelementptr inbounds %"class.xercesc_2_7::XMLDateTime", %"class.xercesc_2_7::XMLDateTime"* %lTemp, i32 0, i32 6, !dbg !1572
  %21 = load double, double* %fMiliSecond22, align 8, !dbg !1572
  %fMiliSecond23 = getelementptr inbounds %"class.xercesc_2_7::XMLDateTime", %"class.xercesc_2_7::XMLDateTime"* %rTemp, i32 0, i32 6, !dbg !1574
  %22 = load double, double* %fMiliSecond23, align 8, !dbg !1574
  %cmp24 = fcmp ogt double %21, %22, !dbg !1575
  br i1 %cmp24, label %if.then25, label %if.end26, !dbg !1576

if.then25:                                        ; preds = %if.else21
  store i32 1, i32* %retval, align 4, !dbg !1577
  store i32 1, i32* %cleanup.dest.slot, align 4
  br label %cleanup, !dbg !1577

if.end26:                                         ; preds = %if.else21
  br label %if.end27

if.end27:                                         ; preds = %if.end26
  br label %if.end28, !dbg !1579

if.end28:                                         ; preds = %if.end27, %for.end
  store i32 0, i32* %retval, align 4, !dbg !1580
  store i32 1, i32* %cleanup.dest.slot, align 4
  br label %cleanup, !dbg !1580

cleanup:                                          ; preds = %if.end28, %if.then25, %if.then20, %if.then15, %if.then
  call void @_ZN11xercesc_2_711XMLDateTimeD1Ev(%"class.xercesc_2_7::XMLDateTime"* %rTemp) #9, !dbg !1544
  call void @_ZN11xercesc_2_711XMLDateTimeD1Ev(%"class.xercesc_2_7::XMLDateTime"* %lTemp) #9, !dbg !1544
  %23 = load i32, i32* %retval, align 4, !dbg !1544
  ret i32 %23, !dbg !1544

ehcleanup:                                        ; preds = %lpad1, %lpad
  call void @_ZN11xercesc_2_711XMLDateTimeD1Ev(%"class.xercesc_2_7::XMLDateTime"* %lTemp) #9, !dbg !1544
  br label %eh.resume, !dbg !1544

eh.resume:                                        ; preds = %ehcleanup
  %exn = load i8*, i8** %exn.slot, align 8, !dbg !1544
  %sel = load i32, i32* %ehselector.slot, align 4, !dbg !1544
  %lpad.val = insertvalue { i8*, i32 } undef, i8* %exn, 0, !dbg !1544
  %lpad.val30 = insertvalue { i8*, i32 } %lpad.val, i32 %sel, 1, !dbg !1544
  resume { i8*, i32 } %lpad.val30, !dbg !1544
}

declare dso_local i32 @__gxx_personality_v0(...)

; Function Attrs: noinline uwtable
define dso_local void @_ZN11xercesc_2_711XMLDateTime11addDurationEPS0_PKS0_i(%"class.xercesc_2_7::XMLDateTime"* %fNewDate, %"class.xercesc_2_7::XMLDateTime"* %fDuration, i32 %index) #3 align 2 !dbg !1581 {
entry:
  %fNewDate.addr = alloca %"class.xercesc_2_7::XMLDateTime"*, align 8
  %fDuration.addr = alloca %"class.xercesc_2_7::XMLDateTime"*, align 8
  %index.addr = alloca i32, align 4
  %temp = alloca i32, align 4
  %carry = alloca i32, align 4
  store %"class.xercesc_2_7::XMLDateTime"* %fNewDate, %"class.xercesc_2_7::XMLDateTime"** %fNewDate.addr, align 8
  call void @llvm.dbg.declare(metadata %"class.xercesc_2_7::XMLDateTime"** %fNewDate.addr, metadata !1582, metadata !DIExpression()), !dbg !1583
  store %"class.xercesc_2_7::XMLDateTime"* %fDuration, %"class.xercesc_2_7::XMLDateTime"** %fDuration.addr, align 8
  call void @llvm.dbg.declare(metadata %"class.xercesc_2_7::XMLDateTime"** %fDuration.addr, metadata !1584, metadata !DIExpression()), !dbg !1585
  store i32 %index, i32* %index.addr, align 4
  call void @llvm.dbg.declare(metadata i32* %index.addr, metadata !1586, metadata !DIExpression()), !dbg !1587
  %0 = load %"class.xercesc_2_7::XMLDateTime"*, %"class.xercesc_2_7::XMLDateTime"** %fNewDate.addr, align 8, !dbg !1588
  call void @_ZN11xercesc_2_711XMLDateTime5resetEv(%"class.xercesc_2_7::XMLDateTime"* %0), !dbg !1589
  call void @llvm.dbg.declare(metadata i32* %temp, metadata !1590, metadata !DIExpression()), !dbg !1591
  %1 = load i32, i32* %index.addr, align 4, !dbg !1592
  %idxprom = sext i32 %1 to i64, !dbg !1593
  %arrayidx = getelementptr inbounds [4 x [8 x i32]], [4 x [8 x i32]]* @_ZN11xercesc_2_7L9DATETIMESE, i64 0, i64 %idxprom, !dbg !1593
  %arrayidx1 = getelementptr inbounds [8 x i32], [8 x i32]* %arrayidx, i64 0, i64 1, !dbg !1593
  %2 = load i32, i32* %arrayidx1, align 4, !dbg !1593
  %3 = load %"class.xercesc_2_7::XMLDateTime"*, %"class.xercesc_2_7::XMLDateTime"** %fDuration.addr, align 8, !dbg !1594
  %fValue = getelementptr inbounds %"class.xercesc_2_7::XMLDateTime", %"class.xercesc_2_7::XMLDateTime"* %3, i32 0, i32 1, !dbg !1595
  %arrayidx2 = getelementptr inbounds [8 x i32], [8 x i32]* %fValue, i64 0, i64 1, !dbg !1594
  %4 = load i32, i32* %arrayidx2, align 4, !dbg !1594
  %add = add nsw i32 %2, %4, !dbg !1596
  store i32 %add, i32* %temp, align 4, !dbg !1591
  %5 = load i32, i32* %temp, align 4, !dbg !1597
  %call = call i32 @_ZN11xercesc_2_7L6moduloEiii(i32 %5, i32 1, i32 13), !dbg !1598
  %6 = load %"class.xercesc_2_7::XMLDateTime"*, %"class.xercesc_2_7::XMLDateTime"** %fNewDate.addr, align 8, !dbg !1599
  %fValue3 = getelementptr inbounds %"class.xercesc_2_7::XMLDateTime", %"class.xercesc_2_7::XMLDateTime"* %6, i32 0, i32 1, !dbg !1600
  %arrayidx4 = getelementptr inbounds [8 x i32], [8 x i32]* %fValue3, i64 0, i64 1, !dbg !1599
  store i32 %call, i32* %arrayidx4, align 4, !dbg !1601
  call void @llvm.dbg.declare(metadata i32* %carry, metadata !1602, metadata !DIExpression()), !dbg !1603
  %7 = load i32, i32* %temp, align 4, !dbg !1604
  %call5 = call i32 @_ZN11xercesc_2_7L9fQuotientEiii(i32 %7, i32 1, i32 13), !dbg !1605
  store i32 %call5, i32* %carry, align 4, !dbg !1603
  %8 = load %"class.xercesc_2_7::XMLDateTime"*, %"class.xercesc_2_7::XMLDateTime"** %fNewDate.addr, align 8, !dbg !1606
  %fValue6 = getelementptr inbounds %"class.xercesc_2_7::XMLDateTime", %"class.xercesc_2_7::XMLDateTime"* %8, i32 0, i32 1, !dbg !1608
  %arrayidx7 = getelementptr inbounds [8 x i32], [8 x i32]* %fValue6, i64 0, i64 1, !dbg !1606
  %9 = load i32, i32* %arrayidx7, align 4, !dbg !1606
  %cmp = icmp sle i32 %9, 0, !dbg !1609
  br i1 %cmp, label %if.then, label %if.end, !dbg !1610

if.then:                                          ; preds = %entry
  %10 = load %"class.xercesc_2_7::XMLDateTime"*, %"class.xercesc_2_7::XMLDateTime"** %fNewDate.addr, align 8, !dbg !1611
  %fValue8 = getelementptr inbounds %"class.xercesc_2_7::XMLDateTime", %"class.xercesc_2_7::XMLDateTime"* %10, i32 0, i32 1, !dbg !1613
  %arrayidx9 = getelementptr inbounds [8 x i32], [8 x i32]* %fValue8, i64 0, i64 1, !dbg !1611
  %11 = load i32, i32* %arrayidx9, align 4, !dbg !1614
  %add10 = add nsw i32 %11, 12, !dbg !1614
  store i32 %add10, i32* %arrayidx9, align 4, !dbg !1614
  %12 = load i32, i32* %carry, align 4, !dbg !1615
  %dec = add nsw i32 %12, -1, !dbg !1615
  store i32 %dec, i32* %carry, align 4, !dbg !1615
  br label %if.end, !dbg !1616

if.end:                                           ; preds = %if.then, %entry
  %13 = load i32, i32* %index.addr, align 4, !dbg !1617
  %idxprom11 = sext i32 %13 to i64, !dbg !1618
  %arrayidx12 = getelementptr inbounds [4 x [8 x i32]], [4 x [8 x i32]]* @_ZN11xercesc_2_7L9DATETIMESE, i64 0, i64 %idxprom11, !dbg !1618
  %arrayidx13 = getelementptr inbounds [8 x i32], [8 x i32]* %arrayidx12, i64 0, i64 0, !dbg !1618
  %14 = load i32, i32* %arrayidx13, align 16, !dbg !1618
  %15 = load %"class.xercesc_2_7::XMLDateTime"*, %"class.xercesc_2_7::XMLDateTime"** %fDuration.addr, align 8, !dbg !1619
  %fValue14 = getelementptr inbounds %"class.xercesc_2_7::XMLDateTime", %"class.xercesc_2_7::XMLDateTime"* %15, i32 0, i32 1, !dbg !1620
  %arrayidx15 = getelementptr inbounds [8 x i32], [8 x i32]* %fValue14, i64 0, i64 0, !dbg !1619
  %16 = load i32, i32* %arrayidx15, align 8, !dbg !1619
  %add16 = add nsw i32 %14, %16, !dbg !1621
  %17 = load i32, i32* %carry, align 4, !dbg !1622
  %add17 = add nsw i32 %add16, %17, !dbg !1623
  %18 = load %"class.xercesc_2_7::XMLDateTime"*, %"class.xercesc_2_7::XMLDateTime"** %fNewDate.addr, align 8, !dbg !1624
  %fValue18 = getelementptr inbounds %"class.xercesc_2_7::XMLDateTime", %"class.xercesc_2_7::XMLDateTime"* %18, i32 0, i32 1, !dbg !1625
  %arrayidx19 = getelementptr inbounds [8 x i32], [8 x i32]* %fValue18, i64 0, i64 0, !dbg !1624
  store i32 %add17, i32* %arrayidx19, align 8, !dbg !1626
  %19 = load i32, i32* %index.addr, align 4, !dbg !1627
  %idxprom20 = sext i32 %19 to i64, !dbg !1628
  %arrayidx21 = getelementptr inbounds [4 x [8 x i32]], [4 x [8 x i32]]* @_ZN11xercesc_2_7L9DATETIMESE, i64 0, i64 %idxprom20, !dbg !1628
  %arrayidx22 = getelementptr inbounds [8 x i32], [8 x i32]* %arrayidx21, i64 0, i64 5, !dbg !1628
  %20 = load i32, i32* %arrayidx22, align 4, !dbg !1628
  %21 = load %"class.xercesc_2_7::XMLDateTime"*, %"class.xercesc_2_7::XMLDateTime"** %fDuration.addr, align 8, !dbg !1629
  %fValue23 = getelementptr inbounds %"class.xercesc_2_7::XMLDateTime", %"class.xercesc_2_7::XMLDateTime"* %21, i32 0, i32 1, !dbg !1630
  %arrayidx24 = getelementptr inbounds [8 x i32], [8 x i32]* %fValue23, i64 0, i64 5, !dbg !1629
  %22 = load i32, i32* %arrayidx24, align 4, !dbg !1629
  %add25 = add nsw i32 %20, %22, !dbg !1631
  store i32 %add25, i32* %temp, align 4, !dbg !1632
  %23 = load i32, i32* %temp, align 4, !dbg !1633
  %call26 = call i32 @_ZN11xercesc_2_7L9fQuotientEii(i32 %23, i32 60), !dbg !1634
  store i32 %call26, i32* %carry, align 4, !dbg !1635
  %24 = load i32, i32* %temp, align 4, !dbg !1636
  %25 = load i32, i32* %carry, align 4, !dbg !1637
  %call27 = call i32 @_ZN11xercesc_2_7L3modEiii(i32 %24, i32 60, i32 %25), !dbg !1638
  %26 = load %"class.xercesc_2_7::XMLDateTime"*, %"class.xercesc_2_7::XMLDateTime"** %fNewDate.addr, align 8, !dbg !1639
  %fValue28 = getelementptr inbounds %"class.xercesc_2_7::XMLDateTime", %"class.xercesc_2_7::XMLDateTime"* %26, i32 0, i32 1, !dbg !1640
  %arrayidx29 = getelementptr inbounds [8 x i32], [8 x i32]* %fValue28, i64 0, i64 5, !dbg !1639
  store i32 %call27, i32* %arrayidx29, align 4, !dbg !1641
  %27 = load %"class.xercesc_2_7::XMLDateTime"*, %"class.xercesc_2_7::XMLDateTime"** %fNewDate.addr, align 8, !dbg !1642
  %fValue30 = getelementptr inbounds %"class.xercesc_2_7::XMLDateTime", %"class.xercesc_2_7::XMLDateTime"* %27, i32 0, i32 1, !dbg !1644
  %arrayidx31 = getelementptr inbounds [8 x i32], [8 x i32]* %fValue30, i64 0, i64 5, !dbg !1642
  %28 = load i32, i32* %arrayidx31, align 4, !dbg !1642
  %cmp32 = icmp slt i32 %28, 0, !dbg !1645
  br i1 %cmp32, label %if.then33, label %if.end38, !dbg !1646

if.then33:                                        ; preds = %if.end
  %29 = load %"class.xercesc_2_7::XMLDateTime"*, %"class.xercesc_2_7::XMLDateTime"** %fNewDate.addr, align 8, !dbg !1647
  %fValue34 = getelementptr inbounds %"class.xercesc_2_7::XMLDateTime", %"class.xercesc_2_7::XMLDateTime"* %29, i32 0, i32 1, !dbg !1649
  %arrayidx35 = getelementptr inbounds [8 x i32], [8 x i32]* %fValue34, i64 0, i64 5, !dbg !1647
  %30 = load i32, i32* %arrayidx35, align 4, !dbg !1650
  %add36 = add nsw i32 %30, 60, !dbg !1650
  store i32 %add36, i32* %arrayidx35, align 4, !dbg !1650
  %31 = load i32, i32* %carry, align 4, !dbg !1651
  %dec37 = add nsw i32 %31, -1, !dbg !1651
  store i32 %dec37, i32* %carry, align 4, !dbg !1651
  br label %if.end38, !dbg !1652

if.end38:                                         ; preds = %if.then33, %if.end
  %32 = load i32, i32* %index.addr, align 4, !dbg !1653
  %idxprom39 = sext i32 %32 to i64, !dbg !1654
  %arrayidx40 = getelementptr inbounds [4 x [8 x i32]], [4 x [8 x i32]]* @_ZN11xercesc_2_7L9DATETIMESE, i64 0, i64 %idxprom39, !dbg !1654
  %arrayidx41 = getelementptr inbounds [8 x i32], [8 x i32]* %arrayidx40, i64 0, i64 4, !dbg !1654
  %33 = load i32, i32* %arrayidx41, align 16, !dbg !1654
  %34 = load %"class.xercesc_2_7::XMLDateTime"*, %"class.xercesc_2_7::XMLDateTime"** %fDuration.addr, align 8, !dbg !1655
  %fValue42 = getelementptr inbounds %"class.xercesc_2_7::XMLDateTime", %"class.xercesc_2_7::XMLDateTime"* %34, i32 0, i32 1, !dbg !1656
  %arrayidx43 = getelementptr inbounds [8 x i32], [8 x i32]* %fValue42, i64 0, i64 4, !dbg !1655
  %35 = load i32, i32* %arrayidx43, align 8, !dbg !1655
  %add44 = add nsw i32 %33, %35, !dbg !1657
  %36 = load i32, i32* %carry, align 4, !dbg !1658
  %add45 = add nsw i32 %add44, %36, !dbg !1659
  store i32 %add45, i32* %temp, align 4, !dbg !1660
  %37 = load i32, i32* %temp, align 4, !dbg !1661
  %call46 = call i32 @_ZN11xercesc_2_7L9fQuotientEii(i32 %37, i32 60), !dbg !1662
  store i32 %call46, i32* %carry, align 4, !dbg !1663
  %38 = load i32, i32* %temp, align 4, !dbg !1664
  %39 = load i32, i32* %carry, align 4, !dbg !1665
  %call47 = call i32 @_ZN11xercesc_2_7L3modEiii(i32 %38, i32 60, i32 %39), !dbg !1666
  %40 = load %"class.xercesc_2_7::XMLDateTime"*, %"class.xercesc_2_7::XMLDateTime"** %fNewDate.addr, align 8, !dbg !1667
  %fValue48 = getelementptr inbounds %"class.xercesc_2_7::XMLDateTime", %"class.xercesc_2_7::XMLDateTime"* %40, i32 0, i32 1, !dbg !1668
  %arrayidx49 = getelementptr inbounds [8 x i32], [8 x i32]* %fValue48, i64 0, i64 4, !dbg !1667
  store i32 %call47, i32* %arrayidx49, align 8, !dbg !1669
  %41 = load %"class.xercesc_2_7::XMLDateTime"*, %"class.xercesc_2_7::XMLDateTime"** %fNewDate.addr, align 8, !dbg !1670
  %fValue50 = getelementptr inbounds %"class.xercesc_2_7::XMLDateTime", %"class.xercesc_2_7::XMLDateTime"* %41, i32 0, i32 1, !dbg !1672
  %arrayidx51 = getelementptr inbounds [8 x i32], [8 x i32]* %fValue50, i64 0, i64 4, !dbg !1670
  %42 = load i32, i32* %arrayidx51, align 8, !dbg !1670
  %cmp52 = icmp slt i32 %42, 0, !dbg !1673
  br i1 %cmp52, label %if.then53, label %if.end58, !dbg !1674

if.then53:                                        ; preds = %if.end38
  %43 = load %"class.xercesc_2_7::XMLDateTime"*, %"class.xercesc_2_7::XMLDateTime"** %fNewDate.addr, align 8, !dbg !1675
  %fValue54 = getelementptr inbounds %"class.xercesc_2_7::XMLDateTime", %"class.xercesc_2_7::XMLDateTime"* %43, i32 0, i32 1, !dbg !1677
  %arrayidx55 = getelementptr inbounds [8 x i32], [8 x i32]* %fValue54, i64 0, i64 4, !dbg !1675
  %44 = load i32, i32* %arrayidx55, align 8, !dbg !1678
  %add56 = add nsw i32 %44, 60, !dbg !1678
  store i32 %add56, i32* %arrayidx55, align 8, !dbg !1678
  %45 = load i32, i32* %carry, align 4, !dbg !1679
  %dec57 = add nsw i32 %45, -1, !dbg !1679
  store i32 %dec57, i32* %carry, align 4, !dbg !1679
  br label %if.end58, !dbg !1680

if.end58:                                         ; preds = %if.then53, %if.end38
  %46 = load i32, i32* %index.addr, align 4, !dbg !1681
  %idxprom59 = sext i32 %46 to i64, !dbg !1682
  %arrayidx60 = getelementptr inbounds [4 x [8 x i32]], [4 x [8 x i32]]* @_ZN11xercesc_2_7L9DATETIMESE, i64 0, i64 %idxprom59, !dbg !1682
  %arrayidx61 = getelementptr inbounds [8 x i32], [8 x i32]* %arrayidx60, i64 0, i64 3, !dbg !1682
  %47 = load i32, i32* %arrayidx61, align 4, !dbg !1682
  %48 = load %"class.xercesc_2_7::XMLDateTime"*, %"class.xercesc_2_7::XMLDateTime"** %fDuration.addr, align 8, !dbg !1683
  %fValue62 = getelementptr inbounds %"class.xercesc_2_7::XMLDateTime", %"class.xercesc_2_7::XMLDateTime"* %48, i32 0, i32 1, !dbg !1684
  %arrayidx63 = getelementptr inbounds [8 x i32], [8 x i32]* %fValue62, i64 0, i64 3, !dbg !1683
  %49 = load i32, i32* %arrayidx63, align 4, !dbg !1683
  %add64 = add nsw i32 %47, %49, !dbg !1685
  %50 = load i32, i32* %carry, align 4, !dbg !1686
  %add65 = add nsw i32 %add64, %50, !dbg !1687
  store i32 %add65, i32* %temp, align 4, !dbg !1688
  %51 = load i32, i32* %temp, align 4, !dbg !1689
  %call66 = call i32 @_ZN11xercesc_2_7L9fQuotientEii(i32 %51, i32 24), !dbg !1690
  store i32 %call66, i32* %carry, align 4, !dbg !1691
  %52 = load i32, i32* %temp, align 4, !dbg !1692
  %53 = load i32, i32* %carry, align 4, !dbg !1693
  %call67 = call i32 @_ZN11xercesc_2_7L3modEiii(i32 %52, i32 24, i32 %53), !dbg !1694
  %54 = load %"class.xercesc_2_7::XMLDateTime"*, %"class.xercesc_2_7::XMLDateTime"** %fNewDate.addr, align 8, !dbg !1695
  %fValue68 = getelementptr inbounds %"class.xercesc_2_7::XMLDateTime", %"class.xercesc_2_7::XMLDateTime"* %54, i32 0, i32 1, !dbg !1696
  %arrayidx69 = getelementptr inbounds [8 x i32], [8 x i32]* %fValue68, i64 0, i64 3, !dbg !1695
  store i32 %call67, i32* %arrayidx69, align 4, !dbg !1697
  %55 = load %"class.xercesc_2_7::XMLDateTime"*, %"class.xercesc_2_7::XMLDateTime"** %fNewDate.addr, align 8, !dbg !1698
  %fValue70 = getelementptr inbounds %"class.xercesc_2_7::XMLDateTime", %"class.xercesc_2_7::XMLDateTime"* %55, i32 0, i32 1, !dbg !1700
  %arrayidx71 = getelementptr inbounds [8 x i32], [8 x i32]* %fValue70, i64 0, i64 3, !dbg !1698
  %56 = load i32, i32* %arrayidx71, align 4, !dbg !1698
  %cmp72 = icmp slt i32 %56, 0, !dbg !1701
  br i1 %cmp72, label %if.then73, label %if.end78, !dbg !1702

if.then73:                                        ; preds = %if.end58
  %57 = load %"class.xercesc_2_7::XMLDateTime"*, %"class.xercesc_2_7::XMLDateTime"** %fNewDate.addr, align 8, !dbg !1703
  %fValue74 = getelementptr inbounds %"class.xercesc_2_7::XMLDateTime", %"class.xercesc_2_7::XMLDateTime"* %57, i32 0, i32 1, !dbg !1705
  %arrayidx75 = getelementptr inbounds [8 x i32], [8 x i32]* %fValue74, i64 0, i64 3, !dbg !1703
  %58 = load i32, i32* %arrayidx75, align 4, !dbg !1706
  %add76 = add nsw i32 %58, 24, !dbg !1706
  store i32 %add76, i32* %arrayidx75, align 4, !dbg !1706
  %59 = load i32, i32* %carry, align 4, !dbg !1707
  %dec77 = add nsw i32 %59, -1, !dbg !1707
  store i32 %dec77, i32* %carry, align 4, !dbg !1707
  br label %if.end78, !dbg !1708

if.end78:                                         ; preds = %if.then73, %if.end58
  %60 = load i32, i32* %index.addr, align 4, !dbg !1709
  %idxprom79 = sext i32 %60 to i64, !dbg !1710
  %arrayidx80 = getelementptr inbounds [4 x [8 x i32]], [4 x [8 x i32]]* @_ZN11xercesc_2_7L9DATETIMESE, i64 0, i64 %idxprom79, !dbg !1710
  %arrayidx81 = getelementptr inbounds [8 x i32], [8 x i32]* %arrayidx80, i64 0, i64 2, !dbg !1710
  %61 = load i32, i32* %arrayidx81, align 8, !dbg !1710
  %62 = load %"class.xercesc_2_7::XMLDateTime"*, %"class.xercesc_2_7::XMLDateTime"** %fDuration.addr, align 8, !dbg !1711
  %fValue82 = getelementptr inbounds %"class.xercesc_2_7::XMLDateTime", %"class.xercesc_2_7::XMLDateTime"* %62, i32 0, i32 1, !dbg !1712
  %arrayidx83 = getelementptr inbounds [8 x i32], [8 x i32]* %fValue82, i64 0, i64 2, !dbg !1711
  %63 = load i32, i32* %arrayidx83, align 8, !dbg !1711
  %add84 = add nsw i32 %61, %63, !dbg !1713
  %64 = load i32, i32* %carry, align 4, !dbg !1714
  %add85 = add nsw i32 %add84, %64, !dbg !1715
  %65 = load %"class.xercesc_2_7::XMLDateTime"*, %"class.xercesc_2_7::XMLDateTime"** %fNewDate.addr, align 8, !dbg !1716
  %fValue86 = getelementptr inbounds %"class.xercesc_2_7::XMLDateTime", %"class.xercesc_2_7::XMLDateTime"* %65, i32 0, i32 1, !dbg !1717
  %arrayidx87 = getelementptr inbounds [8 x i32], [8 x i32]* %fValue86, i64 0, i64 2, !dbg !1716
  store i32 %add85, i32* %arrayidx87, align 8, !dbg !1718
  br label %while.body, !dbg !1719

while.body:                                       ; preds = %if.end78, %if.end131
  %66 = load %"class.xercesc_2_7::XMLDateTime"*, %"class.xercesc_2_7::XMLDateTime"** %fNewDate.addr, align 8, !dbg !1720
  %fValue88 = getelementptr inbounds %"class.xercesc_2_7::XMLDateTime", %"class.xercesc_2_7::XMLDateTime"* %66, i32 0, i32 1, !dbg !1722
  %arrayidx89 = getelementptr inbounds [8 x i32], [8 x i32]* %fValue88, i64 0, i64 0, !dbg !1720
  %67 = load i32, i32* %arrayidx89, align 8, !dbg !1720
  %68 = load %"class.xercesc_2_7::XMLDateTime"*, %"class.xercesc_2_7::XMLDateTime"** %fNewDate.addr, align 8, !dbg !1723
  %fValue90 = getelementptr inbounds %"class.xercesc_2_7::XMLDateTime", %"class.xercesc_2_7::XMLDateTime"* %68, i32 0, i32 1, !dbg !1724
  %arrayidx91 = getelementptr inbounds [8 x i32], [8 x i32]* %fValue90, i64 0, i64 1, !dbg !1723
  %69 = load i32, i32* %arrayidx91, align 4, !dbg !1723
  %call92 = call i32 @_ZN11xercesc_2_7L16maxDayInMonthForEii(i32 %67, i32 %69), !dbg !1725
  store i32 %call92, i32* %temp, align 4, !dbg !1726
  %70 = load %"class.xercesc_2_7::XMLDateTime"*, %"class.xercesc_2_7::XMLDateTime"** %fNewDate.addr, align 8, !dbg !1727
  %fValue93 = getelementptr inbounds %"class.xercesc_2_7::XMLDateTime", %"class.xercesc_2_7::XMLDateTime"* %70, i32 0, i32 1, !dbg !1729
  %arrayidx94 = getelementptr inbounds [8 x i32], [8 x i32]* %fValue93, i64 0, i64 2, !dbg !1727
  %71 = load i32, i32* %arrayidx94, align 8, !dbg !1727
  %cmp95 = icmp slt i32 %71, 1, !dbg !1730
  br i1 %cmp95, label %if.then96, label %if.else, !dbg !1731

if.then96:                                        ; preds = %while.body
  %72 = load %"class.xercesc_2_7::XMLDateTime"*, %"class.xercesc_2_7::XMLDateTime"** %fNewDate.addr, align 8, !dbg !1732
  %fValue97 = getelementptr inbounds %"class.xercesc_2_7::XMLDateTime", %"class.xercesc_2_7::XMLDateTime"* %72, i32 0, i32 1, !dbg !1734
  %arrayidx98 = getelementptr inbounds [8 x i32], [8 x i32]* %fValue97, i64 0, i64 0, !dbg !1732
  %73 = load i32, i32* %arrayidx98, align 8, !dbg !1732
  %74 = load %"class.xercesc_2_7::XMLDateTime"*, %"class.xercesc_2_7::XMLDateTime"** %fNewDate.addr, align 8, !dbg !1735
  %fValue99 = getelementptr inbounds %"class.xercesc_2_7::XMLDateTime", %"class.xercesc_2_7::XMLDateTime"* %74, i32 0, i32 1, !dbg !1736
  %arrayidx100 = getelementptr inbounds [8 x i32], [8 x i32]* %fValue99, i64 0, i64 1, !dbg !1735
  %75 = load i32, i32* %arrayidx100, align 4, !dbg !1735
  %sub = sub nsw i32 %75, 1, !dbg !1737
  %call101 = call i32 @_ZN11xercesc_2_7L16maxDayInMonthForEii(i32 %73, i32 %sub), !dbg !1738
  %76 = load %"class.xercesc_2_7::XMLDateTime"*, %"class.xercesc_2_7::XMLDateTime"** %fNewDate.addr, align 8, !dbg !1739
  %fValue102 = getelementptr inbounds %"class.xercesc_2_7::XMLDateTime", %"class.xercesc_2_7::XMLDateTime"* %76, i32 0, i32 1, !dbg !1740
  %arrayidx103 = getelementptr inbounds [8 x i32], [8 x i32]* %fValue102, i64 0, i64 2, !dbg !1739
  %77 = load i32, i32* %arrayidx103, align 8, !dbg !1741
  %add104 = add nsw i32 %77, %call101, !dbg !1741
  store i32 %add104, i32* %arrayidx103, align 8, !dbg !1741
  store i32 -1, i32* %carry, align 4, !dbg !1742
  br label %if.end114, !dbg !1743

if.else:                                          ; preds = %while.body
  %78 = load %"class.xercesc_2_7::XMLDateTime"*, %"class.xercesc_2_7::XMLDateTime"** %fNewDate.addr, align 8, !dbg !1744
  %fValue105 = getelementptr inbounds %"class.xercesc_2_7::XMLDateTime", %"class.xercesc_2_7::XMLDateTime"* %78, i32 0, i32 1, !dbg !1746
  %arrayidx106 = getelementptr inbounds [8 x i32], [8 x i32]* %fValue105, i64 0, i64 2, !dbg !1744
  %79 = load i32, i32* %arrayidx106, align 8, !dbg !1744
  %80 = load i32, i32* %temp, align 4, !dbg !1747
  %cmp107 = icmp sgt i32 %79, %80, !dbg !1748
  br i1 %cmp107, label %if.then108, label %if.else112, !dbg !1749

if.then108:                                       ; preds = %if.else
  %81 = load i32, i32* %temp, align 4, !dbg !1750
  %82 = load %"class.xercesc_2_7::XMLDateTime"*, %"class.xercesc_2_7::XMLDateTime"** %fNewDate.addr, align 8, !dbg !1752
  %fValue109 = getelementptr inbounds %"class.xercesc_2_7::XMLDateTime", %"class.xercesc_2_7::XMLDateTime"* %82, i32 0, i32 1, !dbg !1753
  %arrayidx110 = getelementptr inbounds [8 x i32], [8 x i32]* %fValue109, i64 0, i64 2, !dbg !1752
  %83 = load i32, i32* %arrayidx110, align 8, !dbg !1754
  %sub111 = sub nsw i32 %83, %81, !dbg !1754
  store i32 %sub111, i32* %arrayidx110, align 8, !dbg !1754
  store i32 1, i32* %carry, align 4, !dbg !1755
  br label %if.end113, !dbg !1756

if.else112:                                       ; preds = %if.else
  br label %while.end, !dbg !1757

if.end113:                                        ; preds = %if.then108
  br label %if.end114

if.end114:                                        ; preds = %if.end113, %if.then96
  %84 = load %"class.xercesc_2_7::XMLDateTime"*, %"class.xercesc_2_7::XMLDateTime"** %fNewDate.addr, align 8, !dbg !1759
  %fValue115 = getelementptr inbounds %"class.xercesc_2_7::XMLDateTime", %"class.xercesc_2_7::XMLDateTime"* %84, i32 0, i32 1, !dbg !1760
  %arrayidx116 = getelementptr inbounds [8 x i32], [8 x i32]* %fValue115, i64 0, i64 1, !dbg !1759
  %85 = load i32, i32* %arrayidx116, align 4, !dbg !1759
  %86 = load i32, i32* %carry, align 4, !dbg !1761
  %add117 = add nsw i32 %85, %86, !dbg !1762
  store i32 %add117, i32* %temp, align 4, !dbg !1763
  %87 = load i32, i32* %temp, align 4, !dbg !1764
  %call118 = call i32 @_ZN11xercesc_2_7L6moduloEiii(i32 %87, i32 1, i32 13), !dbg !1765
  %88 = load %"class.xercesc_2_7::XMLDateTime"*, %"class.xercesc_2_7::XMLDateTime"** %fNewDate.addr, align 8, !dbg !1766
  %fValue119 = getelementptr inbounds %"class.xercesc_2_7::XMLDateTime", %"class.xercesc_2_7::XMLDateTime"* %88, i32 0, i32 1, !dbg !1767
  %arrayidx120 = getelementptr inbounds [8 x i32], [8 x i32]* %fValue119, i64 0, i64 1, !dbg !1766
  store i32 %call118, i32* %arrayidx120, align 4, !dbg !1768
  %89 = load %"class.xercesc_2_7::XMLDateTime"*, %"class.xercesc_2_7::XMLDateTime"** %fNewDate.addr, align 8, !dbg !1769
  %fValue121 = getelementptr inbounds %"class.xercesc_2_7::XMLDateTime", %"class.xercesc_2_7::XMLDateTime"* %89, i32 0, i32 1, !dbg !1771
  %arrayidx122 = getelementptr inbounds [8 x i32], [8 x i32]* %fValue121, i64 0, i64 1, !dbg !1769
  %90 = load i32, i32* %arrayidx122, align 4, !dbg !1769
  %cmp123 = icmp sle i32 %90, 0, !dbg !1772
  br i1 %cmp123, label %if.then124, label %if.end131, !dbg !1773

if.then124:                                       ; preds = %if.end114
  %91 = load %"class.xercesc_2_7::XMLDateTime"*, %"class.xercesc_2_7::XMLDateTime"** %fNewDate.addr, align 8, !dbg !1774
  %fValue125 = getelementptr inbounds %"class.xercesc_2_7::XMLDateTime", %"class.xercesc_2_7::XMLDateTime"* %91, i32 0, i32 1, !dbg !1776
  %arrayidx126 = getelementptr inbounds [8 x i32], [8 x i32]* %fValue125, i64 0, i64 1, !dbg !1774
  %92 = load i32, i32* %arrayidx126, align 4, !dbg !1777
  %add127 = add nsw i32 %92, 12, !dbg !1777
  store i32 %add127, i32* %arrayidx126, align 4, !dbg !1777
  %93 = load %"class.xercesc_2_7::XMLDateTime"*, %"class.xercesc_2_7::XMLDateTime"** %fNewDate.addr, align 8, !dbg !1778
  %fValue128 = getelementptr inbounds %"class.xercesc_2_7::XMLDateTime", %"class.xercesc_2_7::XMLDateTime"* %93, i32 0, i32 1, !dbg !1779
  %arrayidx129 = getelementptr inbounds [8 x i32], [8 x i32]* %fValue128, i64 0, i64 0, !dbg !1778
  %94 = load i32, i32* %arrayidx129, align 8, !dbg !1780
  %dec130 = add nsw i32 %94, -1, !dbg !1780
  store i32 %dec130, i32* %arrayidx129, align 8, !dbg !1780
  br label %if.end131, !dbg !1781

if.end131:                                        ; preds = %if.then124, %if.end114
  %95 = load i32, i32* %temp, align 4, !dbg !1782
  %call132 = call i32 @_ZN11xercesc_2_7L9fQuotientEiii(i32 %95, i32 1, i32 13), !dbg !1783
  %96 = load %"class.xercesc_2_7::XMLDateTime"*, %"class.xercesc_2_7::XMLDateTime"** %fNewDate.addr, align 8, !dbg !1784
  %fValue133 = getelementptr inbounds %"class.xercesc_2_7::XMLDateTime", %"class.xercesc_2_7::XMLDateTime"* %96, i32 0, i32 1, !dbg !1785
  %arrayidx134 = getelementptr inbounds [8 x i32], [8 x i32]* %fValue133, i64 0, i64 0, !dbg !1784
  %97 = load i32, i32* %arrayidx134, align 8, !dbg !1786
  %add135 = add nsw i32 %97, %call132, !dbg !1786
  store i32 %add135, i32* %arrayidx134, align 8, !dbg !1786
  br label %while.body, !dbg !1719, !llvm.loop !1787

while.end:                                        ; preds = %if.else112
  %98 = load %"class.xercesc_2_7::XMLDateTime"*, %"class.xercesc_2_7::XMLDateTime"** %fNewDate.addr, align 8, !dbg !1789
  %fValue136 = getelementptr inbounds %"class.xercesc_2_7::XMLDateTime", %"class.xercesc_2_7::XMLDateTime"* %98, i32 0, i32 1, !dbg !1790
  %arrayidx137 = getelementptr inbounds [8 x i32], [8 x i32]* %fValue136, i64 0, i64 7, !dbg !1789
  store i32 1, i32* %arrayidx137, align 4, !dbg !1791
  ret void, !dbg !1792
}

; Function Attrs: noinline nounwind uwtable
define dso_local i32 @_ZN11xercesc_2_711XMLDateTime13compareResultEiib(i32 %resultA, i32 %resultB, i1 zeroext %strict) #1 align 2 !dbg !1793 {
entry:
  %retval = alloca i32, align 4
  %resultA.addr = alloca i32, align 4
  %resultB.addr = alloca i32, align 4
  %strict.addr = alloca i8, align 1
  store i32 %resultA, i32* %resultA.addr, align 4
  call void @llvm.dbg.declare(metadata i32* %resultA.addr, metadata !1794, metadata !DIExpression()), !dbg !1795
  store i32 %resultB, i32* %resultB.addr, align 4
  call void @llvm.dbg.declare(metadata i32* %resultB.addr, metadata !1796, metadata !DIExpression()), !dbg !1797
  %frombool = zext i1 %strict to i8
  store i8 %frombool, i8* %strict.addr, align 1
  call void @llvm.dbg.declare(metadata i8* %strict.addr, metadata !1798, metadata !DIExpression()), !dbg !1799
  %0 = load i32, i32* %resultB.addr, align 4, !dbg !1800
  %cmp = icmp eq i32 %0, 2, !dbg !1802
  br i1 %cmp, label %if.then, label %if.else, !dbg !1803

if.then:                                          ; preds = %entry
  store i32 2, i32* %retval, align 4, !dbg !1804
  br label %return, !dbg !1804

if.else:                                          ; preds = %entry
  %1 = load i32, i32* %resultA.addr, align 4, !dbg !1806
  %2 = load i32, i32* %resultB.addr, align 4, !dbg !1808
  %cmp1 = icmp ne i32 %1, %2, !dbg !1809
  br i1 %cmp1, label %land.lhs.true, label %if.else3, !dbg !1810

land.lhs.true:                                    ; preds = %if.else
  %3 = load i8, i8* %strict.addr, align 1, !dbg !1811
  %tobool = trunc i8 %3 to i1, !dbg !1811
  br i1 %tobool, label %if.then2, label %if.else3, !dbg !1812

if.then2:                                         ; preds = %land.lhs.true
  store i32 2, i32* %retval, align 4, !dbg !1813
  br label %return, !dbg !1813

if.else3:                                         ; preds = %land.lhs.true, %if.else
  %4 = load i32, i32* %resultA.addr, align 4, !dbg !1815
  %5 = load i32, i32* %resultB.addr, align 4, !dbg !1817
  %cmp4 = icmp ne i32 %4, %5, !dbg !1818
  br i1 %cmp4, label %land.lhs.true5, label %if.end, !dbg !1819

land.lhs.true5:                                   ; preds = %if.else3
  %6 = load i8, i8* %strict.addr, align 1, !dbg !1820
  %tobool6 = trunc i8 %6 to i1, !dbg !1820
  br i1 %tobool6, label %if.end, label %if.then7, !dbg !1821

if.then7:                                         ; preds = %land.lhs.true5
  %7 = load i32, i32* %resultA.addr, align 4, !dbg !1822
  %cmp8 = icmp ne i32 %7, 0, !dbg !1825
  br i1 %cmp8, label %land.lhs.true9, label %if.else12, !dbg !1826

land.lhs.true9:                                   ; preds = %if.then7
  %8 = load i32, i32* %resultB.addr, align 4, !dbg !1827
  %cmp10 = icmp ne i32 %8, 0, !dbg !1828
  br i1 %cmp10, label %if.then11, label %if.else12, !dbg !1829

if.then11:                                        ; preds = %land.lhs.true9
  store i32 2, i32* %retval, align 4, !dbg !1830
  br label %return, !dbg !1830

if.else12:                                        ; preds = %land.lhs.true9, %if.then7
  %9 = load i32, i32* %resultA.addr, align 4, !dbg !1832
  %cmp13 = icmp ne i32 %9, 0, !dbg !1834
  br i1 %cmp13, label %cond.true, label %cond.false, !dbg !1835

cond.true:                                        ; preds = %if.else12
  %10 = load i32, i32* %resultA.addr, align 4, !dbg !1836
  br label %cond.end, !dbg !1835

cond.false:                                       ; preds = %if.else12
  %11 = load i32, i32* %resultB.addr, align 4, !dbg !1837
  br label %cond.end, !dbg !1835

cond.end:                                         ; preds = %cond.false, %cond.true
  %cond = phi i32 [ %10, %cond.true ], [ %11, %cond.false ], !dbg !1835
  store i32 %cond, i32* %retval, align 4, !dbg !1838
  br label %return, !dbg !1838

if.end:                                           ; preds = %land.lhs.true5, %if.else3
  br label %if.end14

if.end14:                                         ; preds = %if.end
  br label %if.end15

if.end15:                                         ; preds = %if.end14
  %12 = load i32, i32* %resultA.addr, align 4, !dbg !1839
  store i32 %12, i32* %retval, align 4, !dbg !1840
  br label %return, !dbg !1840

return:                                           ; preds = %if.end15, %cond.end, %if.then11, %if.then2, %if.then
  %13 = load i32, i32* %retval, align 4, !dbg !1841
  ret i32 %13, !dbg !1841
}

; Function Attrs: noinline nounwind uwtable
define linkonce_odr dso_local void @_ZN11xercesc_2_711XMLDateTime5resetEv(%"class.xercesc_2_7::XMLDateTime"* %this) #1 comdat align 2 !dbg !1842 {
entry:
  %this.addr = alloca %"class.xercesc_2_7::XMLDateTime"*, align 8
  %i = alloca i32, align 4
  store %"class.xercesc_2_7::XMLDateTime"* %this, %"class.xercesc_2_7::XMLDateTime"** %this.addr, align 8
  call void @llvm.dbg.declare(metadata %"class.xercesc_2_7::XMLDateTime"** %this.addr, metadata !1843, metadata !DIExpression()), !dbg !1844
  %this1 = load %"class.xercesc_2_7::XMLDateTime"*, %"class.xercesc_2_7::XMLDateTime"** %this.addr, align 8
  call void @llvm.dbg.declare(metadata i32* %i, metadata !1845, metadata !DIExpression()), !dbg !1847
  store i32 0, i32* %i, align 4, !dbg !1847
  br label %for.cond, !dbg !1848

for.cond:                                         ; preds = %for.inc, %entry
  %0 = load i32, i32* %i, align 4, !dbg !1849
  %cmp = icmp slt i32 %0, 8, !dbg !1851
  br i1 %cmp, label %for.body, label %for.end, !dbg !1852

for.body:                                         ; preds = %for.cond
  %fValue = getelementptr inbounds %"class.xercesc_2_7::XMLDateTime", %"class.xercesc_2_7::XMLDateTime"* %this1, i32 0, i32 1, !dbg !1853
  %1 = load i32, i32* %i, align 4, !dbg !1854
  %idxprom = sext i32 %1 to i64, !dbg !1853
  %arrayidx = getelementptr inbounds [8 x i32], [8 x i32]* %fValue, i64 0, i64 %idxprom, !dbg !1853
  store i32 0, i32* %arrayidx, align 4, !dbg !1855
  br label %for.inc, !dbg !1853

for.inc:                                          ; preds = %for.body
  %2 = load i32, i32* %i, align 4, !dbg !1856
  %inc = add nsw i32 %2, 1, !dbg !1856
  store i32 %inc, i32* %i, align 4, !dbg !1856
  br label %for.cond, !dbg !1857, !llvm.loop !1858

for.end:                                          ; preds = %for.cond
  %fMiliSecond = getelementptr inbounds %"class.xercesc_2_7::XMLDateTime", %"class.xercesc_2_7::XMLDateTime"* %this1, i32 0, i32 6, !dbg !1860
  store double 0.000000e+00, double* %fMiliSecond, align 8, !dbg !1861
  %fHasTime = getelementptr inbounds %"class.xercesc_2_7::XMLDateTime", %"class.xercesc_2_7::XMLDateTime"* %this1, i32 0, i32 7, !dbg !1862
  store i8 0, i8* %fHasTime, align 8, !dbg !1863
  %fTimeZone = getelementptr inbounds %"class.xercesc_2_7::XMLDateTime", %"class.xercesc_2_7::XMLDateTime"* %this1, i32 0, i32 2, !dbg !1864
  %arrayidx2 = getelementptr inbounds [2 x i32], [2 x i32]* %fTimeZone, i64 0, i64 1, !dbg !1864
  store i32 0, i32* %arrayidx2, align 4, !dbg !1865
  %fTimeZone3 = getelementptr inbounds %"class.xercesc_2_7::XMLDateTime", %"class.xercesc_2_7::XMLDateTime"* %this1, i32 0, i32 2, !dbg !1866
  %arrayidx4 = getelementptr inbounds [2 x i32], [2 x i32]* %fTimeZone3, i64 0, i64 0, !dbg !1866
  store i32 0, i32* %arrayidx4, align 8, !dbg !1867
  %fEnd = getelementptr inbounds %"class.xercesc_2_7::XMLDateTime", %"class.xercesc_2_7::XMLDateTime"* %this1, i32 0, i32 4, !dbg !1868
  store i32 0, i32* %fEnd, align 4, !dbg !1869
  %fStart = getelementptr inbounds %"class.xercesc_2_7::XMLDateTime", %"class.xercesc_2_7::XMLDateTime"* %this1, i32 0, i32 3, !dbg !1870
  store i32 0, i32* %fStart, align 8, !dbg !1871
  %fBuffer = getelementptr inbounds %"class.xercesc_2_7::XMLDateTime", %"class.xercesc_2_7::XMLDateTime"* %this1, i32 0, i32 8, !dbg !1872
  %3 = load i16*, i16** %fBuffer, align 8, !dbg !1872
  %tobool = icmp ne i16* %3, null, !dbg !1872
  br i1 %tobool, label %if.then, label %if.end, !dbg !1874

if.then:                                          ; preds = %for.end
  %fBuffer5 = getelementptr inbounds %"class.xercesc_2_7::XMLDateTime", %"class.xercesc_2_7::XMLDateTime"* %this1, i32 0, i32 8, !dbg !1875
  %4 = load i16*, i16** %fBuffer5, align 8, !dbg !1875
  store i16 0, i16* %4, align 2, !dbg !1876
  br label %if.end, !dbg !1877

if.end:                                           ; preds = %if.then, %for.end
  ret void, !dbg !1878
}

; Function Attrs: noinline uwtable
define internal i32 @_ZN11xercesc_2_7L6moduloEiii(i32 %temp, i32 %low, i32 %high) #3 !dbg !1879 {
entry:
  %temp.addr = alloca i32, align 4
  %low.addr = alloca i32, align 4
  %high.addr = alloca i32, align 4
  %a = alloca i32, align 4
  %b = alloca i32, align 4
  store i32 %temp, i32* %temp.addr, align 4
  call void @llvm.dbg.declare(metadata i32* %temp.addr, metadata !1882, metadata !DIExpression()), !dbg !1883
  store i32 %low, i32* %low.addr, align 4
  call void @llvm.dbg.declare(metadata i32* %low.addr, metadata !1884, metadata !DIExpression()), !dbg !1885
  store i32 %high, i32* %high.addr, align 4
  call void @llvm.dbg.declare(metadata i32* %high.addr, metadata !1886, metadata !DIExpression()), !dbg !1887
  call void @llvm.dbg.declare(metadata i32* %a, metadata !1888, metadata !DIExpression()), !dbg !1889
  %0 = load i32, i32* %temp.addr, align 4, !dbg !1890
  %1 = load i32, i32* %low.addr, align 4, !dbg !1891
  %sub = sub nsw i32 %0, %1, !dbg !1892
  store i32 %sub, i32* %a, align 4, !dbg !1889
  call void @llvm.dbg.declare(metadata i32* %b, metadata !1893, metadata !DIExpression()), !dbg !1894
  %2 = load i32, i32* %high.addr, align 4, !dbg !1895
  %3 = load i32, i32* %low.addr, align 4, !dbg !1896
  %sub1 = sub nsw i32 %2, %3, !dbg !1897
  store i32 %sub1, i32* %b, align 4, !dbg !1894
  %4 = load i32, i32* %a, align 4, !dbg !1898
  %5 = load i32, i32* %b, align 4, !dbg !1899
  %6 = load i32, i32* %a, align 4, !dbg !1900
  %7 = load i32, i32* %b, align 4, !dbg !1901
  %call = call i32 @_ZN11xercesc_2_7L9fQuotientEii(i32 %6, i32 %7), !dbg !1902
  %call2 = call i32 @_ZN11xercesc_2_7L3modEiii(i32 %4, i32 %5, i32 %call), !dbg !1903
  %8 = load i32, i32* %low.addr, align 4, !dbg !1904
  %add = add nsw i32 %call2, %8, !dbg !1905
  ret i32 %add, !dbg !1906
}

; Function Attrs: noinline uwtable
define internal i32 @_ZN11xercesc_2_7L9fQuotientEiii(i32 %temp, i32 %low, i32 %high) #3 !dbg !1907 {
entry:
  %temp.addr = alloca i32, align 4
  %low.addr = alloca i32, align 4
  %high.addr = alloca i32, align 4
  store i32 %temp, i32* %temp.addr, align 4
  call void @llvm.dbg.declare(metadata i32* %temp.addr, metadata !1908, metadata !DIExpression()), !dbg !1909
  store i32 %low, i32* %low.addr, align 4
  call void @llvm.dbg.declare(metadata i32* %low.addr, metadata !1910, metadata !DIExpression()), !dbg !1911
  store i32 %high, i32* %high.addr, align 4
  call void @llvm.dbg.declare(metadata i32* %high.addr, metadata !1912, metadata !DIExpression()), !dbg !1913
  %0 = load i32, i32* %temp.addr, align 4, !dbg !1914
  %1 = load i32, i32* %low.addr, align 4, !dbg !1915
  %sub = sub nsw i32 %0, %1, !dbg !1916
  %2 = load i32, i32* %high.addr, align 4, !dbg !1917
  %3 = load i32, i32* %low.addr, align 4, !dbg !1918
  %sub1 = sub nsw i32 %2, %3, !dbg !1919
  %call = call i32 @_ZN11xercesc_2_7L9fQuotientEii(i32 %sub, i32 %sub1), !dbg !1920
  ret i32 %call, !dbg !1921
}

; Function Attrs: noinline nounwind uwtable
define internal i32 @_ZN11xercesc_2_7L9fQuotientEii(i32 %a, i32 %b) #1 !dbg !1922 {
entry:
  %a.addr = alloca i32, align 4
  %b.addr = alloca i32, align 4
  %div_result = alloca %struct.div_t, align 4
  store i32 %a, i32* %a.addr, align 4
  call void @llvm.dbg.declare(metadata i32* %a.addr, metadata !1923, metadata !DIExpression()), !dbg !1924
  store i32 %b, i32* %b.addr, align 4
  call void @llvm.dbg.declare(metadata i32* %b.addr, metadata !1925, metadata !DIExpression()), !dbg !1926
  call void @llvm.dbg.declare(metadata %struct.div_t* %div_result, metadata !1927, metadata !DIExpression()), !dbg !1928
  %0 = load i32, i32* %a.addr, align 4, !dbg !1929
  %1 = load i32, i32* %b.addr, align 4, !dbg !1930
  %call = call i64 @div(i32 %0, i32 %1) #11, !dbg !1931
  %2 = bitcast %struct.div_t* %div_result to i64*, !dbg !1931
  store i64 %call, i64* %2, align 4, !dbg !1931
  %quot = getelementptr inbounds %struct.div_t, %struct.div_t* %div_result, i32 0, i32 0, !dbg !1932
  %3 = load i32, i32* %quot, align 4, !dbg !1932
  ret i32 %3, !dbg !1933
}

; Function Attrs: noinline nounwind uwtable
define internal i32 @_ZN11xercesc_2_7L3modEiii(i32 %a, i32 %b, i32 %quotient) #1 !dbg !1934 {
entry:
  %a.addr = alloca i32, align 4
  %b.addr = alloca i32, align 4
  %quotient.addr = alloca i32, align 4
  store i32 %a, i32* %a.addr, align 4
  call void @llvm.dbg.declare(metadata i32* %a.addr, metadata !1935, metadata !DIExpression()), !dbg !1936
  store i32 %b, i32* %b.addr, align 4
  call void @llvm.dbg.declare(metadata i32* %b.addr, metadata !1937, metadata !DIExpression()), !dbg !1938
  store i32 %quotient, i32* %quotient.addr, align 4
  call void @llvm.dbg.declare(metadata i32* %quotient.addr, metadata !1939, metadata !DIExpression()), !dbg !1940
  %0 = load i32, i32* %a.addr, align 4, !dbg !1941
  %1 = load i32, i32* %quotient.addr, align 4, !dbg !1942
  %2 = load i32, i32* %b.addr, align 4, !dbg !1943
  %mul = mul nsw i32 %1, %2, !dbg !1944
  %sub = sub nsw i32 %0, %mul, !dbg !1945
  ret i32 %sub, !dbg !1946
}

; Function Attrs: noinline uwtable
define internal i32 @_ZN11xercesc_2_7L16maxDayInMonthForEii(i32 %year, i32 %month) #3 !dbg !1947 {
entry:
  %retval = alloca i32, align 4
  %year.addr = alloca i32, align 4
  %month.addr = alloca i32, align 4
  store i32 %year, i32* %year.addr, align 4
  call void @llvm.dbg.declare(metadata i32* %year.addr, metadata !1948, metadata !DIExpression()), !dbg !1949
  store i32 %month, i32* %month.addr, align 4
  call void @llvm.dbg.declare(metadata i32* %month.addr, metadata !1950, metadata !DIExpression()), !dbg !1951
  %0 = load i32, i32* %month.addr, align 4, !dbg !1952
  %cmp = icmp eq i32 %0, 4, !dbg !1954
  br i1 %cmp, label %if.then, label %lor.lhs.false, !dbg !1955

lor.lhs.false:                                    ; preds = %entry
  %1 = load i32, i32* %month.addr, align 4, !dbg !1956
  %cmp1 = icmp eq i32 %1, 6, !dbg !1957
  br i1 %cmp1, label %if.then, label %lor.lhs.false2, !dbg !1958

lor.lhs.false2:                                   ; preds = %lor.lhs.false
  %2 = load i32, i32* %month.addr, align 4, !dbg !1959
  %cmp3 = icmp eq i32 %2, 9, !dbg !1960
  br i1 %cmp3, label %if.then, label %lor.lhs.false4, !dbg !1961

lor.lhs.false4:                                   ; preds = %lor.lhs.false2
  %3 = load i32, i32* %month.addr, align 4, !dbg !1962
  %cmp5 = icmp eq i32 %3, 11, !dbg !1963
  br i1 %cmp5, label %if.then, label %if.else, !dbg !1964

if.then:                                          ; preds = %lor.lhs.false4, %lor.lhs.false2, %lor.lhs.false, %entry
  store i32 30, i32* %retval, align 4, !dbg !1965
  br label %return, !dbg !1965

if.else:                                          ; preds = %lor.lhs.false4
  %4 = load i32, i32* %month.addr, align 4, !dbg !1967
  %cmp6 = icmp eq i32 %4, 2, !dbg !1969
  br i1 %cmp6, label %if.then7, label %if.else10, !dbg !1970

if.then7:                                         ; preds = %if.else
  %5 = load i32, i32* %year.addr, align 4, !dbg !1971
  %call = call zeroext i1 @_ZN11xercesc_2_7L10isLeapYearEi(i32 %5), !dbg !1974
  br i1 %call, label %if.then8, label %if.else9, !dbg !1975

if.then8:                                         ; preds = %if.then7
  store i32 29, i32* %retval, align 4, !dbg !1976
  br label %return, !dbg !1976

if.else9:                                         ; preds = %if.then7
  store i32 28, i32* %retval, align 4, !dbg !1977
  br label %return, !dbg !1977

if.else10:                                        ; preds = %if.else
  store i32 31, i32* %retval, align 4, !dbg !1978
  br label %return, !dbg !1978

return:                                           ; preds = %if.else10, %if.else9, %if.then8, %if.then
  %6 = load i32, i32* %retval, align 4, !dbg !1980
  ret i32 %6, !dbg !1980
}

; Function Attrs: noinline uwtable
define dso_local i32 @_ZN11xercesc_2_711XMLDateTime7compareEPKS0_S2_(%"class.xercesc_2_7::XMLDateTime"* %pDate1, %"class.xercesc_2_7::XMLDateTime"* %pDate2) #3 align 2 !dbg !1981 {
entry:
  %retval = alloca i32, align 4
  %pDate1.addr = alloca %"class.xercesc_2_7::XMLDateTime"*, align 8
  %pDate2.addr = alloca %"class.xercesc_2_7::XMLDateTime"*, align 8
  %c1 = alloca i32, align 4
  %c2 = alloca i32, align 4
  store %"class.xercesc_2_7::XMLDateTime"* %pDate1, %"class.xercesc_2_7::XMLDateTime"** %pDate1.addr, align 8
  call void @llvm.dbg.declare(metadata %"class.xercesc_2_7::XMLDateTime"** %pDate1.addr, metadata !1982, metadata !DIExpression()), !dbg !1983
  store %"class.xercesc_2_7::XMLDateTime"* %pDate2, %"class.xercesc_2_7::XMLDateTime"** %pDate2.addr, align 8
  call void @llvm.dbg.declare(metadata %"class.xercesc_2_7::XMLDateTime"** %pDate2.addr, metadata !1984, metadata !DIExpression()), !dbg !1985
  %0 = load %"class.xercesc_2_7::XMLDateTime"*, %"class.xercesc_2_7::XMLDateTime"** %pDate1.addr, align 8, !dbg !1986
  %fValue = getelementptr inbounds %"class.xercesc_2_7::XMLDateTime", %"class.xercesc_2_7::XMLDateTime"* %0, i32 0, i32 1, !dbg !1988
  %arrayidx = getelementptr inbounds [8 x i32], [8 x i32]* %fValue, i64 0, i64 7, !dbg !1986
  %1 = load i32, i32* %arrayidx, align 4, !dbg !1986
  %2 = load %"class.xercesc_2_7::XMLDateTime"*, %"class.xercesc_2_7::XMLDateTime"** %pDate2.addr, align 8, !dbg !1989
  %fValue1 = getelementptr inbounds %"class.xercesc_2_7::XMLDateTime", %"class.xercesc_2_7::XMLDateTime"* %2, i32 0, i32 1, !dbg !1990
  %arrayidx2 = getelementptr inbounds [8 x i32], [8 x i32]* %fValue1, i64 0, i64 7, !dbg !1989
  %3 = load i32, i32* %arrayidx2, align 4, !dbg !1989
  %cmp = icmp eq i32 %1, %3, !dbg !1991
  br i1 %cmp, label %if.then, label %if.end, !dbg !1992

if.then:                                          ; preds = %entry
  %4 = load %"class.xercesc_2_7::XMLDateTime"*, %"class.xercesc_2_7::XMLDateTime"** %pDate1.addr, align 8, !dbg !1993
  %5 = load %"class.xercesc_2_7::XMLDateTime"*, %"class.xercesc_2_7::XMLDateTime"** %pDate2.addr, align 8, !dbg !1995
  %call = call i32 @_ZN11xercesc_2_711XMLDateTime12compareOrderEPKS0_S2_(%"class.xercesc_2_7::XMLDateTime"* %4, %"class.xercesc_2_7::XMLDateTime"* %5), !dbg !1996
  store i32 %call, i32* %retval, align 4, !dbg !1997
  br label %return, !dbg !1997

if.end:                                           ; preds = %entry
  call void @llvm.dbg.declare(metadata i32* %c1, metadata !1998, metadata !DIExpression()), !dbg !1999
  call void @llvm.dbg.declare(metadata i32* %c2, metadata !2000, metadata !DIExpression()), !dbg !2001
  %6 = load %"class.xercesc_2_7::XMLDateTime"*, %"class.xercesc_2_7::XMLDateTime"** %pDate1.addr, align 8, !dbg !2002
  %call3 = call zeroext i1 @_ZNK11xercesc_2_711XMLDateTime12isNormalizedEv(%"class.xercesc_2_7::XMLDateTime"* %6), !dbg !2004
  br i1 %call3, label %if.then4, label %if.else, !dbg !2005

if.then4:                                         ; preds = %if.end
  %7 = load %"class.xercesc_2_7::XMLDateTime"*, %"class.xercesc_2_7::XMLDateTime"** %pDate1.addr, align 8, !dbg !2006
  %8 = load %"class.xercesc_2_7::XMLDateTime"*, %"class.xercesc_2_7::XMLDateTime"** %pDate2.addr, align 8, !dbg !2008
  %call5 = call i32 @_ZN11xercesc_2_711XMLDateTime13compareResultEPKS0_S2_bi(%"class.xercesc_2_7::XMLDateTime"* %7, %"class.xercesc_2_7::XMLDateTime"* %8, i1 zeroext false, i32 2), !dbg !2009
  store i32 %call5, i32* %c1, align 4, !dbg !2010
  %9 = load %"class.xercesc_2_7::XMLDateTime"*, %"class.xercesc_2_7::XMLDateTime"** %pDate1.addr, align 8, !dbg !2011
  %10 = load %"class.xercesc_2_7::XMLDateTime"*, %"class.xercesc_2_7::XMLDateTime"** %pDate2.addr, align 8, !dbg !2012
  %call6 = call i32 @_ZN11xercesc_2_711XMLDateTime13compareResultEPKS0_S2_bi(%"class.xercesc_2_7::XMLDateTime"* %9, %"class.xercesc_2_7::XMLDateTime"* %10, i1 zeroext false, i32 3), !dbg !2013
  store i32 %call6, i32* %c2, align 4, !dbg !2014
  %11 = load i32, i32* %c1, align 4, !dbg !2015
  %12 = load i32, i32* %c2, align 4, !dbg !2016
  %call7 = call i32 @_ZN11xercesc_2_711XMLDateTime9getRetValEii(i32 %11, i32 %12), !dbg !2017
  store i32 %call7, i32* %retval, align 4, !dbg !2018
  br label %return, !dbg !2018

if.else:                                          ; preds = %if.end
  %13 = load %"class.xercesc_2_7::XMLDateTime"*, %"class.xercesc_2_7::XMLDateTime"** %pDate2.addr, align 8, !dbg !2019
  %call8 = call zeroext i1 @_ZNK11xercesc_2_711XMLDateTime12isNormalizedEv(%"class.xercesc_2_7::XMLDateTime"* %13), !dbg !2021
  br i1 %call8, label %if.then9, label %if.end13, !dbg !2022

if.then9:                                         ; preds = %if.else
  %14 = load %"class.xercesc_2_7::XMLDateTime"*, %"class.xercesc_2_7::XMLDateTime"** %pDate1.addr, align 8, !dbg !2023
  %15 = load %"class.xercesc_2_7::XMLDateTime"*, %"class.xercesc_2_7::XMLDateTime"** %pDate2.addr, align 8, !dbg !2025
  %call10 = call i32 @_ZN11xercesc_2_711XMLDateTime13compareResultEPKS0_S2_bi(%"class.xercesc_2_7::XMLDateTime"* %14, %"class.xercesc_2_7::XMLDateTime"* %15, i1 zeroext true, i32 2), !dbg !2026
  store i32 %call10, i32* %c1, align 4, !dbg !2027
  %16 = load %"class.xercesc_2_7::XMLDateTime"*, %"class.xercesc_2_7::XMLDateTime"** %pDate1.addr, align 8, !dbg !2028
  %17 = load %"class.xercesc_2_7::XMLDateTime"*, %"class.xercesc_2_7::XMLDateTime"** %pDate2.addr, align 8, !dbg !2029
  %call11 = call i32 @_ZN11xercesc_2_711XMLDateTime13compareResultEPKS0_S2_bi(%"class.xercesc_2_7::XMLDateTime"* %16, %"class.xercesc_2_7::XMLDateTime"* %17, i1 zeroext true, i32 3), !dbg !2030
  store i32 %call11, i32* %c2, align 4, !dbg !2031
  %18 = load i32, i32* %c1, align 4, !dbg !2032
  %19 = load i32, i32* %c2, align 4, !dbg !2033
  %call12 = call i32 @_ZN11xercesc_2_711XMLDateTime9getRetValEii(i32 %18, i32 %19), !dbg !2034
  store i32 %call12, i32* %retval, align 4, !dbg !2035
  br label %return, !dbg !2035

if.end13:                                         ; preds = %if.else
  br label %if.end14

if.end14:                                         ; preds = %if.end13
  store i32 2, i32* %retval, align 4, !dbg !2036
  br label %return, !dbg !2036

return:                                           ; preds = %if.end14, %if.then9, %if.then4, %if.then
  %20 = load i32, i32* %retval, align 4, !dbg !2037
  ret i32 %20, !dbg !2037
}

; Function Attrs: noinline nounwind uwtable
define linkonce_odr dso_local zeroext i1 @_ZNK11xercesc_2_711XMLDateTime12isNormalizedEv(%"class.xercesc_2_7::XMLDateTime"* %this) #1 comdat align 2 !dbg !2038 {
entry:
  %this.addr = alloca %"class.xercesc_2_7::XMLDateTime"*, align 8
  store %"class.xercesc_2_7::XMLDateTime"* %this, %"class.xercesc_2_7::XMLDateTime"** %this.addr, align 8
  call void @llvm.dbg.declare(metadata %"class.xercesc_2_7::XMLDateTime"** %this.addr, metadata !2039, metadata !DIExpression()), !dbg !2040
  %this1 = load %"class.xercesc_2_7::XMLDateTime"*, %"class.xercesc_2_7::XMLDateTime"** %this.addr, align 8
  %fValue = getelementptr inbounds %"class.xercesc_2_7::XMLDateTime", %"class.xercesc_2_7::XMLDateTime"* %this1, i32 0, i32 1, !dbg !2041
  %arrayidx = getelementptr inbounds [8 x i32], [8 x i32]* %fValue, i64 0, i64 7, !dbg !2041
  %0 = load i32, i32* %arrayidx, align 4, !dbg !2041
  %cmp = icmp eq i32 %0, 1, !dbg !2042
  %1 = zext i1 %cmp to i64, !dbg !2041
  %cond = select i1 %cmp, i1 true, i1 false, !dbg !2041
  ret i1 %cond, !dbg !2043
}

; Function Attrs: noinline uwtable
define dso_local i32 @_ZN11xercesc_2_711XMLDateTime13compareResultEPKS0_S2_bi(%"class.xercesc_2_7::XMLDateTime"* %pDate1, %"class.xercesc_2_7::XMLDateTime"* %pDate2, i1 zeroext %set2Left, i32 %utc_type) #3 align 2 personality i8* bitcast (i32 (...)* @__gxx_personality_v0 to i8*) !dbg !2044 {
entry:
  %pDate1.addr = alloca %"class.xercesc_2_7::XMLDateTime"*, align 8
  %pDate2.addr = alloca %"class.xercesc_2_7::XMLDateTime"*, align 8
  %set2Left.addr = alloca i8, align 1
  %utc_type.addr = alloca i32, align 4
  %tmpDate = alloca %"class.xercesc_2_7::XMLDateTime", align 8
  %exn.slot = alloca i8*
  %ehselector.slot = alloca i32
  store %"class.xercesc_2_7::XMLDateTime"* %pDate1, %"class.xercesc_2_7::XMLDateTime"** %pDate1.addr, align 8
  call void @llvm.dbg.declare(metadata %"class.xercesc_2_7::XMLDateTime"** %pDate1.addr, metadata !2045, metadata !DIExpression()), !dbg !2046
  store %"class.xercesc_2_7::XMLDateTime"* %pDate2, %"class.xercesc_2_7::XMLDateTime"** %pDate2.addr, align 8
  call void @llvm.dbg.declare(metadata %"class.xercesc_2_7::XMLDateTime"** %pDate2.addr, metadata !2047, metadata !DIExpression()), !dbg !2048
  %frombool = zext i1 %set2Left to i8
  store i8 %frombool, i8* %set2Left.addr, align 1
  call void @llvm.dbg.declare(metadata i8* %set2Left.addr, metadata !2049, metadata !DIExpression()), !dbg !2050
  store i32 %utc_type, i32* %utc_type.addr, align 4
  call void @llvm.dbg.declare(metadata i32* %utc_type.addr, metadata !2051, metadata !DIExpression()), !dbg !2052
  call void @llvm.dbg.declare(metadata %"class.xercesc_2_7::XMLDateTime"* %tmpDate, metadata !2053, metadata !DIExpression()), !dbg !2054
  %0 = load i8, i8* %set2Left.addr, align 1, !dbg !2055
  %tobool = trunc i8 %0 to i1, !dbg !2055
  br i1 %tobool, label %cond.true, label %cond.false, !dbg !2055

cond.true:                                        ; preds = %entry
  %1 = load %"class.xercesc_2_7::XMLDateTime"*, %"class.xercesc_2_7::XMLDateTime"** %pDate1.addr, align 8, !dbg !2056
  br label %cond.end, !dbg !2055

cond.false:                                       ; preds = %entry
  %2 = load %"class.xercesc_2_7::XMLDateTime"*, %"class.xercesc_2_7::XMLDateTime"** %pDate2.addr, align 8, !dbg !2057
  br label %cond.end, !dbg !2055

cond.end:                                         ; preds = %cond.false, %cond.true
  %cond-lvalue = phi %"class.xercesc_2_7::XMLDateTime"* [ %1, %cond.true ], [ %2, %cond.false ], !dbg !2055
  call void @_ZN11xercesc_2_711XMLDateTimeC1ERKS0_(%"class.xercesc_2_7::XMLDateTime"* %tmpDate, %"class.xercesc_2_7::XMLDateTime"* dereferenceable(96) %cond-lvalue), !dbg !2058
  %fTimeZone = getelementptr inbounds %"class.xercesc_2_7::XMLDateTime", %"class.xercesc_2_7::XMLDateTime"* %tmpDate, i32 0, i32 2, !dbg !2059
  %arrayidx = getelementptr inbounds [2 x i32], [2 x i32]* %fTimeZone, i64 0, i64 0, !dbg !2060
  store i32 14, i32* %arrayidx, align 8, !dbg !2061
  %fTimeZone1 = getelementptr inbounds %"class.xercesc_2_7::XMLDateTime", %"class.xercesc_2_7::XMLDateTime"* %tmpDate, i32 0, i32 2, !dbg !2062
  %arrayidx2 = getelementptr inbounds [2 x i32], [2 x i32]* %fTimeZone1, i64 0, i64 1, !dbg !2063
  store i32 0, i32* %arrayidx2, align 4, !dbg !2064
  %3 = load i32, i32* %utc_type.addr, align 4, !dbg !2065
  %fValue = getelementptr inbounds %"class.xercesc_2_7::XMLDateTime", %"class.xercesc_2_7::XMLDateTime"* %tmpDate, i32 0, i32 1, !dbg !2066
  %arrayidx3 = getelementptr inbounds [8 x i32], [8 x i32]* %fValue, i64 0, i64 7, !dbg !2067
  store i32 %3, i32* %arrayidx3, align 4, !dbg !2068
  invoke void @_ZN11xercesc_2_711XMLDateTime9normalizeEv(%"class.xercesc_2_7::XMLDateTime"* %tmpDate)
          to label %invoke.cont unwind label %lpad, !dbg !2069

invoke.cont:                                      ; preds = %cond.end
  %4 = load i8, i8* %set2Left.addr, align 1, !dbg !2070
  %tobool4 = trunc i8 %4 to i1, !dbg !2070
  br i1 %tobool4, label %cond.true5, label %cond.false7, !dbg !2070

cond.true5:                                       ; preds = %invoke.cont
  %5 = load %"class.xercesc_2_7::XMLDateTime"*, %"class.xercesc_2_7::XMLDateTime"** %pDate2.addr, align 8, !dbg !2071
  %call = invoke i32 @_ZN11xercesc_2_711XMLDateTime12compareOrderEPKS0_S2_(%"class.xercesc_2_7::XMLDateTime"* %tmpDate, %"class.xercesc_2_7::XMLDateTime"* %5)
          to label %invoke.cont6 unwind label %lpad, !dbg !2072

invoke.cont6:                                     ; preds = %cond.true5
  br label %cond.end10, !dbg !2070

cond.false7:                                      ; preds = %invoke.cont
  %6 = load %"class.xercesc_2_7::XMLDateTime"*, %"class.xercesc_2_7::XMLDateTime"** %pDate1.addr, align 8, !dbg !2073
  %call9 = invoke i32 @_ZN11xercesc_2_711XMLDateTime12compareOrderEPKS0_S2_(%"class.xercesc_2_7::XMLDateTime"* %6, %"class.xercesc_2_7::XMLDateTime"* %tmpDate)
          to label %invoke.cont8 unwind label %lpad, !dbg !2074

invoke.cont8:                                     ; preds = %cond.false7
  br label %cond.end10, !dbg !2070

cond.end10:                                       ; preds = %invoke.cont8, %invoke.cont6
  %cond = phi i32 [ %call, %invoke.cont6 ], [ %call9, %invoke.cont8 ], !dbg !2070
  call void @_ZN11xercesc_2_711XMLDateTimeD1Ev(%"class.xercesc_2_7::XMLDateTime"* %tmpDate) #9, !dbg !2075
  ret i32 %cond, !dbg !2075

lpad:                                             ; preds = %cond.false7, %cond.true5, %cond.end
  %7 = landingpad { i8*, i32 }
          cleanup, !dbg !2075
  %8 = extractvalue { i8*, i32 } %7, 0, !dbg !2075
  store i8* %8, i8** %exn.slot, align 8, !dbg !2075
  %9 = extractvalue { i8*, i32 } %7, 1, !dbg !2075
  store i32 %9, i32* %ehselector.slot, align 4, !dbg !2075
  call void @_ZN11xercesc_2_711XMLDateTimeD1Ev(%"class.xercesc_2_7::XMLDateTime"* %tmpDate) #9, !dbg !2075
  br label %eh.resume, !dbg !2075

eh.resume:                                        ; preds = %lpad
  %exn = load i8*, i8** %exn.slot, align 8, !dbg !2075
  %sel = load i32, i32* %ehselector.slot, align 4, !dbg !2075
  %lpad.val = insertvalue { i8*, i32 } undef, i8* %exn, 0, !dbg !2075
  %lpad.val11 = insertvalue { i8*, i32 } %lpad.val, i32 %sel, 1, !dbg !2075
  resume { i8*, i32 } %lpad.val11, !dbg !2075
}

; Function Attrs: noinline nounwind uwtable
define linkonce_odr dso_local i32 @_ZN11xercesc_2_711XMLDateTime9getRetValEii(i32 %c1, i32 %c2) #1 comdat align 2 !dbg !2076 {
entry:
  %retval = alloca i32, align 4
  %c1.addr = alloca i32, align 4
  %c2.addr = alloca i32, align 4
  store i32 %c1, i32* %c1.addr, align 4
  call void @llvm.dbg.declare(metadata i32* %c1.addr, metadata !2077, metadata !DIExpression()), !dbg !2078
  store i32 %c2, i32* %c2.addr, align 4
  call void @llvm.dbg.declare(metadata i32* %c2.addr, metadata !2079, metadata !DIExpression()), !dbg !2080
  %0 = load i32, i32* %c1.addr, align 4, !dbg !2081
  %cmp = icmp eq i32 %0, -1, !dbg !2083
  br i1 %cmp, label %land.lhs.true, label %lor.lhs.false, !dbg !2084

land.lhs.true:                                    ; preds = %entry
  %1 = load i32, i32* %c2.addr, align 4, !dbg !2085
  %cmp1 = icmp eq i32 %1, 1, !dbg !2086
  br i1 %cmp1, label %if.then, label %lor.lhs.false, !dbg !2087

lor.lhs.false:                                    ; preds = %land.lhs.true, %entry
  %2 = load i32, i32* %c1.addr, align 4, !dbg !2088
  %cmp2 = icmp eq i32 %2, 1, !dbg !2089
  br i1 %cmp2, label %land.lhs.true3, label %if.end, !dbg !2090

land.lhs.true3:                                   ; preds = %lor.lhs.false
  %3 = load i32, i32* %c2.addr, align 4, !dbg !2091
  %cmp4 = icmp eq i32 %3, -1, !dbg !2092
  br i1 %cmp4, label %if.then, label %if.end, !dbg !2093

if.then:                                          ; preds = %land.lhs.true3, %land.lhs.true
  store i32 2, i32* %retval, align 4, !dbg !2094
  br label %return, !dbg !2094

if.end:                                           ; preds = %land.lhs.true3, %lor.lhs.false
  %4 = load i32, i32* %c1.addr, align 4, !dbg !2096
  %cmp5 = icmp ne i32 %4, 2, !dbg !2097
  br i1 %cmp5, label %cond.true, label %cond.false, !dbg !2098

cond.true:                                        ; preds = %if.end
  %5 = load i32, i32* %c1.addr, align 4, !dbg !2099
  br label %cond.end, !dbg !2098

cond.false:                                       ; preds = %if.end
  %6 = load i32, i32* %c2.addr, align 4, !dbg !2100
  br label %cond.end, !dbg !2098

cond.end:                                         ; preds = %cond.false, %cond.true
  %cond = phi i32 [ %5, %cond.true ], [ %6, %cond.false ], !dbg !2098
  store i32 %cond, i32* %retval, align 4, !dbg !2101
  br label %return, !dbg !2101

return:                                           ; preds = %cond.end, %if.then
  %7 = load i32, i32* %retval, align 4, !dbg !2102
  ret i32 %7, !dbg !2102
}

; Function Attrs: noinline uwtable
define dso_local void @_ZN11xercesc_2_711XMLDateTime9normalizeEv(%"class.xercesc_2_7::XMLDateTime"* %this) #3 align 2 !dbg !2103 {
entry:
  %this.addr = alloca %"class.xercesc_2_7::XMLDateTime"*, align 8
  %negate = alloca i32, align 4
  %temp = alloca i32, align 4
  %carry = alloca i32, align 4
  store %"class.xercesc_2_7::XMLDateTime"* %this, %"class.xercesc_2_7::XMLDateTime"** %this.addr, align 8
  call void @llvm.dbg.declare(metadata %"class.xercesc_2_7::XMLDateTime"** %this.addr, metadata !2104, metadata !DIExpression()), !dbg !2105
  %this1 = load %"class.xercesc_2_7::XMLDateTime"*, %"class.xercesc_2_7::XMLDateTime"** %this.addr, align 8
  %fValue = getelementptr inbounds %"class.xercesc_2_7::XMLDateTime", %"class.xercesc_2_7::XMLDateTime"* %this1, i32 0, i32 1, !dbg !2106
  %arrayidx = getelementptr inbounds [8 x i32], [8 x i32]* %fValue, i64 0, i64 7, !dbg !2106
  %0 = load i32, i32* %arrayidx, align 4, !dbg !2106
  %cmp = icmp eq i32 %0, 0, !dbg !2108
  br i1 %cmp, label %if.then, label %lor.lhs.false, !dbg !2109

lor.lhs.false:                                    ; preds = %entry
  %fValue2 = getelementptr inbounds %"class.xercesc_2_7::XMLDateTime", %"class.xercesc_2_7::XMLDateTime"* %this1, i32 0, i32 1, !dbg !2110
  %arrayidx3 = getelementptr inbounds [8 x i32], [8 x i32]* %fValue2, i64 0, i64 7, !dbg !2110
  %1 = load i32, i32* %arrayidx3, align 4, !dbg !2110
  %cmp4 = icmp eq i32 %1, 1, !dbg !2111
  br i1 %cmp4, label %if.then, label %if.end, !dbg !2112

if.then:                                          ; preds = %lor.lhs.false, %entry
  br label %return, !dbg !2113

if.end:                                           ; preds = %lor.lhs.false
  call void @llvm.dbg.declare(metadata i32* %negate, metadata !2114, metadata !DIExpression()), !dbg !2115
  %fValue5 = getelementptr inbounds %"class.xercesc_2_7::XMLDateTime", %"class.xercesc_2_7::XMLDateTime"* %this1, i32 0, i32 1, !dbg !2116
  %arrayidx6 = getelementptr inbounds [8 x i32], [8 x i32]* %fValue5, i64 0, i64 7, !dbg !2116
  %2 = load i32, i32* %arrayidx6, align 4, !dbg !2116
  %cmp7 = icmp eq i32 %2, 2, !dbg !2117
  %3 = zext i1 %cmp7 to i64, !dbg !2118
  %cond = select i1 %cmp7, i32 -1, i32 1, !dbg !2118
  store i32 %cond, i32* %negate, align 4, !dbg !2115
  call void @llvm.dbg.declare(metadata i32* %temp, metadata !2119, metadata !DIExpression()), !dbg !2120
  call void @llvm.dbg.declare(metadata i32* %carry, metadata !2121, metadata !DIExpression()), !dbg !2122
  %fValue8 = getelementptr inbounds %"class.xercesc_2_7::XMLDateTime", %"class.xercesc_2_7::XMLDateTime"* %this1, i32 0, i32 1, !dbg !2123
  %arrayidx9 = getelementptr inbounds [8 x i32], [8 x i32]* %fValue8, i64 0, i64 1, !dbg !2123
  %4 = load i32, i32* %arrayidx9, align 4, !dbg !2123
  store i32 %4, i32* %temp, align 4, !dbg !2124
  %5 = load i32, i32* %temp, align 4, !dbg !2125
  %call = call i32 @_ZN11xercesc_2_7L6moduloEiii(i32 %5, i32 1, i32 13), !dbg !2126
  %fValue10 = getelementptr inbounds %"class.xercesc_2_7::XMLDateTime", %"class.xercesc_2_7::XMLDateTime"* %this1, i32 0, i32 1, !dbg !2127
  %arrayidx11 = getelementptr inbounds [8 x i32], [8 x i32]* %fValue10, i64 0, i64 1, !dbg !2127
  store i32 %call, i32* %arrayidx11, align 4, !dbg !2128
  %6 = load i32, i32* %temp, align 4, !dbg !2129
  %call12 = call i32 @_ZN11xercesc_2_7L9fQuotientEiii(i32 %6, i32 1, i32 13), !dbg !2130
  store i32 %call12, i32* %carry, align 4, !dbg !2131
  %fValue13 = getelementptr inbounds %"class.xercesc_2_7::XMLDateTime", %"class.xercesc_2_7::XMLDateTime"* %this1, i32 0, i32 1, !dbg !2132
  %arrayidx14 = getelementptr inbounds [8 x i32], [8 x i32]* %fValue13, i64 0, i64 1, !dbg !2132
  %7 = load i32, i32* %arrayidx14, align 4, !dbg !2132
  %cmp15 = icmp sle i32 %7, 0, !dbg !2134
  br i1 %cmp15, label %if.then16, label %if.end19, !dbg !2135

if.then16:                                        ; preds = %if.end
  %fValue17 = getelementptr inbounds %"class.xercesc_2_7::XMLDateTime", %"class.xercesc_2_7::XMLDateTime"* %this1, i32 0, i32 1, !dbg !2136
  %arrayidx18 = getelementptr inbounds [8 x i32], [8 x i32]* %fValue17, i64 0, i64 1, !dbg !2136
  %8 = load i32, i32* %arrayidx18, align 4, !dbg !2138
  %add = add nsw i32 %8, 12, !dbg !2138
  store i32 %add, i32* %arrayidx18, align 4, !dbg !2138
  %9 = load i32, i32* %carry, align 4, !dbg !2139
  %dec = add nsw i32 %9, -1, !dbg !2139
  store i32 %dec, i32* %carry, align 4, !dbg !2139
  br label %if.end19, !dbg !2140

if.end19:                                         ; preds = %if.then16, %if.end
  %10 = load i32, i32* %carry, align 4, !dbg !2141
  %fValue20 = getelementptr inbounds %"class.xercesc_2_7::XMLDateTime", %"class.xercesc_2_7::XMLDateTime"* %this1, i32 0, i32 1, !dbg !2142
  %arrayidx21 = getelementptr inbounds [8 x i32], [8 x i32]* %fValue20, i64 0, i64 0, !dbg !2142
  %11 = load i32, i32* %arrayidx21, align 8, !dbg !2143
  %add22 = add nsw i32 %11, %10, !dbg !2143
  store i32 %add22, i32* %arrayidx21, align 8, !dbg !2143
  %fValue23 = getelementptr inbounds %"class.xercesc_2_7::XMLDateTime", %"class.xercesc_2_7::XMLDateTime"* %this1, i32 0, i32 1, !dbg !2144
  %arrayidx24 = getelementptr inbounds [8 x i32], [8 x i32]* %fValue23, i64 0, i64 4, !dbg !2144
  %12 = load i32, i32* %arrayidx24, align 8, !dbg !2144
  %13 = load i32, i32* %negate, align 4, !dbg !2145
  %fTimeZone = getelementptr inbounds %"class.xercesc_2_7::XMLDateTime", %"class.xercesc_2_7::XMLDateTime"* %this1, i32 0, i32 2, !dbg !2146
  %arrayidx25 = getelementptr inbounds [2 x i32], [2 x i32]* %fTimeZone, i64 0, i64 1, !dbg !2146
  %14 = load i32, i32* %arrayidx25, align 4, !dbg !2146
  %mul = mul nsw i32 %13, %14, !dbg !2147
  %add26 = add nsw i32 %12, %mul, !dbg !2148
  store i32 %add26, i32* %temp, align 4, !dbg !2149
  %15 = load i32, i32* %temp, align 4, !dbg !2150
  %call27 = call i32 @_ZN11xercesc_2_7L9fQuotientEii(i32 %15, i32 60), !dbg !2151
  store i32 %call27, i32* %carry, align 4, !dbg !2152
  %16 = load i32, i32* %temp, align 4, !dbg !2153
  %17 = load i32, i32* %carry, align 4, !dbg !2154
  %call28 = call i32 @_ZN11xercesc_2_7L3modEiii(i32 %16, i32 60, i32 %17), !dbg !2155
  %fValue29 = getelementptr inbounds %"class.xercesc_2_7::XMLDateTime", %"class.xercesc_2_7::XMLDateTime"* %this1, i32 0, i32 1, !dbg !2156
  %arrayidx30 = getelementptr inbounds [8 x i32], [8 x i32]* %fValue29, i64 0, i64 4, !dbg !2156
  store i32 %call28, i32* %arrayidx30, align 8, !dbg !2157
  %fValue31 = getelementptr inbounds %"class.xercesc_2_7::XMLDateTime", %"class.xercesc_2_7::XMLDateTime"* %this1, i32 0, i32 1, !dbg !2158
  %arrayidx32 = getelementptr inbounds [8 x i32], [8 x i32]* %fValue31, i64 0, i64 4, !dbg !2158
  %18 = load i32, i32* %arrayidx32, align 8, !dbg !2158
  %cmp33 = icmp slt i32 %18, 0, !dbg !2160
  br i1 %cmp33, label %if.then34, label %if.end39, !dbg !2161

if.then34:                                        ; preds = %if.end19
  %fValue35 = getelementptr inbounds %"class.xercesc_2_7::XMLDateTime", %"class.xercesc_2_7::XMLDateTime"* %this1, i32 0, i32 1, !dbg !2162
  %arrayidx36 = getelementptr inbounds [8 x i32], [8 x i32]* %fValue35, i64 0, i64 4, !dbg !2162
  %19 = load i32, i32* %arrayidx36, align 8, !dbg !2164
  %add37 = add nsw i32 %19, 60, !dbg !2164
  store i32 %add37, i32* %arrayidx36, align 8, !dbg !2164
  %20 = load i32, i32* %carry, align 4, !dbg !2165
  %dec38 = add nsw i32 %20, -1, !dbg !2165
  store i32 %dec38, i32* %carry, align 4, !dbg !2165
  br label %if.end39, !dbg !2166

if.end39:                                         ; preds = %if.then34, %if.end19
  %fValue40 = getelementptr inbounds %"class.xercesc_2_7::XMLDateTime", %"class.xercesc_2_7::XMLDateTime"* %this1, i32 0, i32 1, !dbg !2167
  %arrayidx41 = getelementptr inbounds [8 x i32], [8 x i32]* %fValue40, i64 0, i64 3, !dbg !2167
  %21 = load i32, i32* %arrayidx41, align 4, !dbg !2167
  %22 = load i32, i32* %negate, align 4, !dbg !2168
  %fTimeZone42 = getelementptr inbounds %"class.xercesc_2_7::XMLDateTime", %"class.xercesc_2_7::XMLDateTime"* %this1, i32 0, i32 2, !dbg !2169
  %arrayidx43 = getelementptr inbounds [2 x i32], [2 x i32]* %fTimeZone42, i64 0, i64 0, !dbg !2169
  %23 = load i32, i32* %arrayidx43, align 8, !dbg !2169
  %mul44 = mul nsw i32 %22, %23, !dbg !2170
  %add45 = add nsw i32 %21, %mul44, !dbg !2171
  %24 = load i32, i32* %carry, align 4, !dbg !2172
  %add46 = add nsw i32 %add45, %24, !dbg !2173
  store i32 %add46, i32* %temp, align 4, !dbg !2174
  %25 = load i32, i32* %temp, align 4, !dbg !2175
  %call47 = call i32 @_ZN11xercesc_2_7L9fQuotientEii(i32 %25, i32 24), !dbg !2176
  store i32 %call47, i32* %carry, align 4, !dbg !2177
  %26 = load i32, i32* %temp, align 4, !dbg !2178
  %27 = load i32, i32* %carry, align 4, !dbg !2179
  %call48 = call i32 @_ZN11xercesc_2_7L3modEiii(i32 %26, i32 24, i32 %27), !dbg !2180
  %fValue49 = getelementptr inbounds %"class.xercesc_2_7::XMLDateTime", %"class.xercesc_2_7::XMLDateTime"* %this1, i32 0, i32 1, !dbg !2181
  %arrayidx50 = getelementptr inbounds [8 x i32], [8 x i32]* %fValue49, i64 0, i64 3, !dbg !2181
  store i32 %call48, i32* %arrayidx50, align 4, !dbg !2182
  %fValue51 = getelementptr inbounds %"class.xercesc_2_7::XMLDateTime", %"class.xercesc_2_7::XMLDateTime"* %this1, i32 0, i32 1, !dbg !2183
  %arrayidx52 = getelementptr inbounds [8 x i32], [8 x i32]* %fValue51, i64 0, i64 3, !dbg !2183
  %28 = load i32, i32* %arrayidx52, align 4, !dbg !2183
  %cmp53 = icmp slt i32 %28, 0, !dbg !2185
  br i1 %cmp53, label %if.then54, label %if.end59, !dbg !2186

if.then54:                                        ; preds = %if.end39
  %fValue55 = getelementptr inbounds %"class.xercesc_2_7::XMLDateTime", %"class.xercesc_2_7::XMLDateTime"* %this1, i32 0, i32 1, !dbg !2187
  %arrayidx56 = getelementptr inbounds [8 x i32], [8 x i32]* %fValue55, i64 0, i64 3, !dbg !2187
  %29 = load i32, i32* %arrayidx56, align 4, !dbg !2189
  %add57 = add nsw i32 %29, 24, !dbg !2189
  store i32 %add57, i32* %arrayidx56, align 4, !dbg !2189
  %30 = load i32, i32* %carry, align 4, !dbg !2190
  %dec58 = add nsw i32 %30, -1, !dbg !2190
  store i32 %dec58, i32* %carry, align 4, !dbg !2190
  br label %if.end59, !dbg !2191

if.end59:                                         ; preds = %if.then54, %if.end39
  %31 = load i32, i32* %carry, align 4, !dbg !2192
  %fValue60 = getelementptr inbounds %"class.xercesc_2_7::XMLDateTime", %"class.xercesc_2_7::XMLDateTime"* %this1, i32 0, i32 1, !dbg !2193
  %arrayidx61 = getelementptr inbounds [8 x i32], [8 x i32]* %fValue60, i64 0, i64 2, !dbg !2193
  %32 = load i32, i32* %arrayidx61, align 8, !dbg !2194
  %add62 = add nsw i32 %32, %31, !dbg !2194
  store i32 %add62, i32* %arrayidx61, align 8, !dbg !2194
  br label %while.body, !dbg !2195

while.body:                                       ; preds = %if.end59, %if.end106
  %fValue63 = getelementptr inbounds %"class.xercesc_2_7::XMLDateTime", %"class.xercesc_2_7::XMLDateTime"* %this1, i32 0, i32 1, !dbg !2196
  %arrayidx64 = getelementptr inbounds [8 x i32], [8 x i32]* %fValue63, i64 0, i64 0, !dbg !2196
  %33 = load i32, i32* %arrayidx64, align 8, !dbg !2196
  %fValue65 = getelementptr inbounds %"class.xercesc_2_7::XMLDateTime", %"class.xercesc_2_7::XMLDateTime"* %this1, i32 0, i32 1, !dbg !2198
  %arrayidx66 = getelementptr inbounds [8 x i32], [8 x i32]* %fValue65, i64 0, i64 1, !dbg !2198
  %34 = load i32, i32* %arrayidx66, align 4, !dbg !2198
  %call67 = call i32 @_ZN11xercesc_2_7L16maxDayInMonthForEii(i32 %33, i32 %34), !dbg !2199
  store i32 %call67, i32* %temp, align 4, !dbg !2200
  %fValue68 = getelementptr inbounds %"class.xercesc_2_7::XMLDateTime", %"class.xercesc_2_7::XMLDateTime"* %this1, i32 0, i32 1, !dbg !2201
  %arrayidx69 = getelementptr inbounds [8 x i32], [8 x i32]* %fValue68, i64 0, i64 2, !dbg !2201
  %35 = load i32, i32* %arrayidx69, align 8, !dbg !2201
  %cmp70 = icmp slt i32 %35, 1, !dbg !2203
  br i1 %cmp70, label %if.then71, label %if.else, !dbg !2204

if.then71:                                        ; preds = %while.body
  %fValue72 = getelementptr inbounds %"class.xercesc_2_7::XMLDateTime", %"class.xercesc_2_7::XMLDateTime"* %this1, i32 0, i32 1, !dbg !2205
  %arrayidx73 = getelementptr inbounds [8 x i32], [8 x i32]* %fValue72, i64 0, i64 0, !dbg !2205
  %36 = load i32, i32* %arrayidx73, align 8, !dbg !2205
  %fValue74 = getelementptr inbounds %"class.xercesc_2_7::XMLDateTime", %"class.xercesc_2_7::XMLDateTime"* %this1, i32 0, i32 1, !dbg !2207
  %arrayidx75 = getelementptr inbounds [8 x i32], [8 x i32]* %fValue74, i64 0, i64 1, !dbg !2207
  %37 = load i32, i32* %arrayidx75, align 4, !dbg !2207
  %sub = sub nsw i32 %37, 1, !dbg !2208
  %call76 = call i32 @_ZN11xercesc_2_7L16maxDayInMonthForEii(i32 %36, i32 %sub), !dbg !2209
  %fValue77 = getelementptr inbounds %"class.xercesc_2_7::XMLDateTime", %"class.xercesc_2_7::XMLDateTime"* %this1, i32 0, i32 1, !dbg !2210
  %arrayidx78 = getelementptr inbounds [8 x i32], [8 x i32]* %fValue77, i64 0, i64 2, !dbg !2210
  %38 = load i32, i32* %arrayidx78, align 8, !dbg !2211
  %add79 = add nsw i32 %38, %call76, !dbg !2211
  store i32 %add79, i32* %arrayidx78, align 8, !dbg !2211
  store i32 -1, i32* %carry, align 4, !dbg !2212
  br label %if.end89, !dbg !2213

if.else:                                          ; preds = %while.body
  %fValue80 = getelementptr inbounds %"class.xercesc_2_7::XMLDateTime", %"class.xercesc_2_7::XMLDateTime"* %this1, i32 0, i32 1, !dbg !2214
  %arrayidx81 = getelementptr inbounds [8 x i32], [8 x i32]* %fValue80, i64 0, i64 2, !dbg !2214
  %39 = load i32, i32* %arrayidx81, align 8, !dbg !2214
  %40 = load i32, i32* %temp, align 4, !dbg !2216
  %cmp82 = icmp sgt i32 %39, %40, !dbg !2217
  br i1 %cmp82, label %if.then83, label %if.else87, !dbg !2218

if.then83:                                        ; preds = %if.else
  %41 = load i32, i32* %temp, align 4, !dbg !2219
  %fValue84 = getelementptr inbounds %"class.xercesc_2_7::XMLDateTime", %"class.xercesc_2_7::XMLDateTime"* %this1, i32 0, i32 1, !dbg !2221
  %arrayidx85 = getelementptr inbounds [8 x i32], [8 x i32]* %fValue84, i64 0, i64 2, !dbg !2221
  %42 = load i32, i32* %arrayidx85, align 8, !dbg !2222
  %sub86 = sub nsw i32 %42, %41, !dbg !2222
  store i32 %sub86, i32* %arrayidx85, align 8, !dbg !2222
  store i32 1, i32* %carry, align 4, !dbg !2223
  br label %if.end88, !dbg !2224

if.else87:                                        ; preds = %if.else
  br label %while.end, !dbg !2225

if.end88:                                         ; preds = %if.then83
  br label %if.end89

if.end89:                                         ; preds = %if.end88, %if.then71
  %fValue90 = getelementptr inbounds %"class.xercesc_2_7::XMLDateTime", %"class.xercesc_2_7::XMLDateTime"* %this1, i32 0, i32 1, !dbg !2227
  %arrayidx91 = getelementptr inbounds [8 x i32], [8 x i32]* %fValue90, i64 0, i64 1, !dbg !2227
  %43 = load i32, i32* %arrayidx91, align 4, !dbg !2227
  %44 = load i32, i32* %carry, align 4, !dbg !2228
  %add92 = add nsw i32 %43, %44, !dbg !2229
  store i32 %add92, i32* %temp, align 4, !dbg !2230
  %45 = load i32, i32* %temp, align 4, !dbg !2231
  %call93 = call i32 @_ZN11xercesc_2_7L6moduloEiii(i32 %45, i32 1, i32 13), !dbg !2232
  %fValue94 = getelementptr inbounds %"class.xercesc_2_7::XMLDateTime", %"class.xercesc_2_7::XMLDateTime"* %this1, i32 0, i32 1, !dbg !2233
  %arrayidx95 = getelementptr inbounds [8 x i32], [8 x i32]* %fValue94, i64 0, i64 1, !dbg !2233
  store i32 %call93, i32* %arrayidx95, align 4, !dbg !2234
  %fValue96 = getelementptr inbounds %"class.xercesc_2_7::XMLDateTime", %"class.xercesc_2_7::XMLDateTime"* %this1, i32 0, i32 1, !dbg !2235
  %arrayidx97 = getelementptr inbounds [8 x i32], [8 x i32]* %fValue96, i64 0, i64 1, !dbg !2235
  %46 = load i32, i32* %arrayidx97, align 4, !dbg !2235
  %cmp98 = icmp sle i32 %46, 0, !dbg !2237
  br i1 %cmp98, label %if.then99, label %if.end106, !dbg !2238

if.then99:                                        ; preds = %if.end89
  %fValue100 = getelementptr inbounds %"class.xercesc_2_7::XMLDateTime", %"class.xercesc_2_7::XMLDateTime"* %this1, i32 0, i32 1, !dbg !2239
  %arrayidx101 = getelementptr inbounds [8 x i32], [8 x i32]* %fValue100, i64 0, i64 1, !dbg !2239
  %47 = load i32, i32* %arrayidx101, align 4, !dbg !2241
  %add102 = add nsw i32 %47, 12, !dbg !2241
  store i32 %add102, i32* %arrayidx101, align 4, !dbg !2241
  %fValue103 = getelementptr inbounds %"class.xercesc_2_7::XMLDateTime", %"class.xercesc_2_7::XMLDateTime"* %this1, i32 0, i32 1, !dbg !2242
  %arrayidx104 = getelementptr inbounds [8 x i32], [8 x i32]* %fValue103, i64 0, i64 0, !dbg !2242
  %48 = load i32, i32* %arrayidx104, align 8, !dbg !2243
  %dec105 = add nsw i32 %48, -1, !dbg !2243
  store i32 %dec105, i32* %arrayidx104, align 8, !dbg !2243
  br label %if.end106, !dbg !2244

if.end106:                                        ; preds = %if.then99, %if.end89
  %49 = load i32, i32* %temp, align 4, !dbg !2245
  %call107 = call i32 @_ZN11xercesc_2_7L9fQuotientEiii(i32 %49, i32 1, i32 13), !dbg !2246
  %fValue108 = getelementptr inbounds %"class.xercesc_2_7::XMLDateTime", %"class.xercesc_2_7::XMLDateTime"* %this1, i32 0, i32 1, !dbg !2247
  %arrayidx109 = getelementptr inbounds [8 x i32], [8 x i32]* %fValue108, i64 0, i64 0, !dbg !2247
  %50 = load i32, i32* %arrayidx109, align 8, !dbg !2248
  %add110 = add nsw i32 %50, %call107, !dbg !2248
  store i32 %add110, i32* %arrayidx109, align 8, !dbg !2248
  br label %while.body, !dbg !2195, !llvm.loop !2249

while.end:                                        ; preds = %if.else87
  %fValue111 = getelementptr inbounds %"class.xercesc_2_7::XMLDateTime", %"class.xercesc_2_7::XMLDateTime"* %this1, i32 0, i32 1, !dbg !2251
  %arrayidx112 = getelementptr inbounds [8 x i32], [8 x i32]* %fValue111, i64 0, i64 7, !dbg !2251
  store i32 1, i32* %arrayidx112, align 4, !dbg !2252
  br label %return, !dbg !2253

return:                                           ; preds = %while.end, %if.then
  ret void, !dbg !2254
}

; Function Attrs: noinline nounwind uwtable
define dso_local void @_ZN11xercesc_2_711XMLDateTimeD2Ev(%"class.xercesc_2_7::XMLDateTime"* %this) unnamed_addr #1 align 2 personality i8* bitcast (i32 (...)* @__gxx_personality_v0 to i8*) !dbg !2255 {
entry:
  %this.addr = alloca %"class.xercesc_2_7::XMLDateTime"*, align 8
  %exn.slot = alloca i8*
  %ehselector.slot = alloca i32
  store %"class.xercesc_2_7::XMLDateTime"* %this, %"class.xercesc_2_7::XMLDateTime"** %this.addr, align 8
  call void @llvm.dbg.declare(metadata %"class.xercesc_2_7::XMLDateTime"** %this.addr, metadata !2256, metadata !DIExpression()), !dbg !2257
  %this1 = load %"class.xercesc_2_7::XMLDateTime"*, %"class.xercesc_2_7::XMLDateTime"** %this.addr, align 8
  %0 = bitcast %"class.xercesc_2_7::XMLDateTime"* %this1 to i32 (...)***, !dbg !2258
  store i32 (...)** bitcast (i8** getelementptr inbounds ({ [11 x i8*] }, { [11 x i8*] }* @_ZTVN11xercesc_2_711XMLDateTimeE, i32 0, inrange i32 0, i32 2) to i32 (...)**), i32 (...)*** %0, align 8, !dbg !2258
  %fBuffer = getelementptr inbounds %"class.xercesc_2_7::XMLDateTime", %"class.xercesc_2_7::XMLDateTime"* %this1, i32 0, i32 8, !dbg !2259
  %1 = load i16*, i16** %fBuffer, align 8, !dbg !2259
  %tobool = icmp ne i16* %1, null, !dbg !2259
  br i1 %tobool, label %if.then, label %if.end, !dbg !2262

if.then:                                          ; preds = %entry
  %fMemoryManager = getelementptr inbounds %"class.xercesc_2_7::XMLDateTime", %"class.xercesc_2_7::XMLDateTime"* %this1, i32 0, i32 9, !dbg !2263
  %2 = load %"class.xercesc_2_7::MemoryManager"*, %"class.xercesc_2_7::MemoryManager"** %fMemoryManager, align 8, !dbg !2263
  %fBuffer2 = getelementptr inbounds %"class.xercesc_2_7::XMLDateTime", %"class.xercesc_2_7::XMLDateTime"* %this1, i32 0, i32 8, !dbg !2264
  %3 = load i16*, i16** %fBuffer2, align 8, !dbg !2264
  %4 = bitcast i16* %3 to i8*, !dbg !2264
  %5 = bitcast %"class.xercesc_2_7::MemoryManager"* %2 to void (%"class.xercesc_2_7::MemoryManager"*, i8*)***, !dbg !2265
  %vtable = load void (%"class.xercesc_2_7::MemoryManager"*, i8*)**, void (%"class.xercesc_2_7::MemoryManager"*, i8*)*** %5, align 8, !dbg !2265
  %vfn = getelementptr inbounds void (%"class.xercesc_2_7::MemoryManager"*, i8*)*, void (%"class.xercesc_2_7::MemoryManager"*, i8*)** %vtable, i64 3, !dbg !2265
  %6 = load void (%"class.xercesc_2_7::MemoryManager"*, i8*)*, void (%"class.xercesc_2_7::MemoryManager"*, i8*)** %vfn, align 8, !dbg !2265
  invoke void %6(%"class.xercesc_2_7::MemoryManager"* %2, i8* %4)
          to label %invoke.cont unwind label %lpad, !dbg !2265

invoke.cont:                                      ; preds = %if.then
  br label %if.end, !dbg !2263

lpad:                                             ; preds = %if.then
  %7 = landingpad { i8*, i32 }
          catch i8* null, !dbg !2266
  %8 = extractvalue { i8*, i32 } %7, 0, !dbg !2266
  store i8* %8, i8** %exn.slot, align 8, !dbg !2266
  %9 = extractvalue { i8*, i32 } %7, 1, !dbg !2266
  store i32 %9, i32* %ehselector.slot, align 4, !dbg !2266
  %10 = bitcast %"class.xercesc_2_7::XMLDateTime"* %this1 to %"class.xercesc_2_7::XMLNumber"*, !dbg !2267
  call void @_ZN11xercesc_2_79XMLNumberD2Ev(%"class.xercesc_2_7::XMLNumber"* %10) #9, !dbg !2267
  br label %terminate.handler, !dbg !2267

if.end:                                           ; preds = %invoke.cont, %entry
  %11 = bitcast %"class.xercesc_2_7::XMLDateTime"* %this1 to %"class.xercesc_2_7::XMLNumber"*, !dbg !2267
  call void @_ZN11xercesc_2_79XMLNumberD2Ev(%"class.xercesc_2_7::XMLNumber"* %11) #9, !dbg !2267
  ret void, !dbg !2268

terminate.handler:                                ; preds = %lpad
  %exn = load i8*, i8** %exn.slot, align 8, !dbg !2267
  call void @__clang_call_terminate(i8* %exn) #12, !dbg !2267
  unreachable, !dbg !2267
}

; Function Attrs: nounwind
declare dso_local void @_ZN11xercesc_2_79XMLNumberD2Ev(%"class.xercesc_2_7::XMLNumber"*) unnamed_addr #4

; Function Attrs: noinline noreturn nounwind
define linkonce_odr hidden void @__clang_call_terminate(i8* %0) #5 comdat {
  %2 = call i8* @__cxa_begin_catch(i8* %0) #9
  call void @_ZSt9terminatev() #12
  unreachable
}

declare dso_local i8* @__cxa_begin_catch(i8*)

declare dso_local void @_ZSt9terminatev()

; Function Attrs: noinline nounwind uwtable
define dso_local void @_ZN11xercesc_2_711XMLDateTimeD0Ev(%"class.xercesc_2_7::XMLDateTime"* %this) unnamed_addr #1 align 2 !dbg !2269 {
entry:
  %this.addr = alloca %"class.xercesc_2_7::XMLDateTime"*, align 8
  store %"class.xercesc_2_7::XMLDateTime"* %this, %"class.xercesc_2_7::XMLDateTime"** %this.addr, align 8
  call void @llvm.dbg.declare(metadata %"class.xercesc_2_7::XMLDateTime"** %this.addr, metadata !2270, metadata !DIExpression()), !dbg !2271
  %this1 = load %"class.xercesc_2_7::XMLDateTime"*, %"class.xercesc_2_7::XMLDateTime"** %this.addr, align 8
  call void @_ZN11xercesc_2_711XMLDateTimeD1Ev(%"class.xercesc_2_7::XMLDateTime"* %this1) #9, !dbg !2272
  %0 = bitcast %"class.xercesc_2_7::XMLDateTime"* %this1 to i8*, !dbg !2272
  call void @_ZN11xercesc_2_77XMemorydlEPv(i8* %0) #9, !dbg !2272
  ret void, !dbg !2273
}

; Function Attrs: nounwind
declare dso_local void @_ZN11xercesc_2_77XMemorydlEPv(i8*) #4

; Function Attrs: noinline uwtable
define dso_local void @_ZN11xercesc_2_711XMLDateTimeC2EPNS_13MemoryManagerE(%"class.xercesc_2_7::XMLDateTime"* %this, %"class.xercesc_2_7::MemoryManager"* %manager) unnamed_addr #3 align 2 personality i8* bitcast (i32 (...)* @__gxx_personality_v0 to i8*) !dbg !2274 {
entry:
  %this.addr = alloca %"class.xercesc_2_7::XMLDateTime"*, align 8
  %manager.addr = alloca %"class.xercesc_2_7::MemoryManager"*, align 8
  %exn.slot = alloca i8*
  %ehselector.slot = alloca i32
  store %"class.xercesc_2_7::XMLDateTime"* %this, %"class.xercesc_2_7::XMLDateTime"** %this.addr, align 8
  call void @llvm.dbg.declare(metadata %"class.xercesc_2_7::XMLDateTime"** %this.addr, metadata !2275, metadata !DIExpression()), !dbg !2276
  store %"class.xercesc_2_7::MemoryManager"* %manager, %"class.xercesc_2_7::MemoryManager"** %manager.addr, align 8
  call void @llvm.dbg.declare(metadata %"class.xercesc_2_7::MemoryManager"** %manager.addr, metadata !2277, metadata !DIExpression()), !dbg !2278
  %this1 = load %"class.xercesc_2_7::XMLDateTime"*, %"class.xercesc_2_7::XMLDateTime"** %this.addr, align 8
  %0 = bitcast %"class.xercesc_2_7::XMLDateTime"* %this1 to %"class.xercesc_2_7::XMLNumber"*, !dbg !2279
  call void @_ZN11xercesc_2_79XMLNumberC2Ev(%"class.xercesc_2_7::XMLNumber"* %0), !dbg !2280
  %1 = bitcast %"class.xercesc_2_7::XMLDateTime"* %this1 to i32 (...)***, !dbg !2279
  store i32 (...)** bitcast (i8** getelementptr inbounds ({ [11 x i8*] }, { [11 x i8*] }* @_ZTVN11xercesc_2_711XMLDateTimeE, i32 0, inrange i32 0, i32 2) to i32 (...)**), i32 (...)*** %1, align 8, !dbg !2279
  %fStart = getelementptr inbounds %"class.xercesc_2_7::XMLDateTime", %"class.xercesc_2_7::XMLDateTime"* %this1, i32 0, i32 3, !dbg !2281
  store i32 0, i32* %fStart, align 8, !dbg !2281
  %fEnd = getelementptr inbounds %"class.xercesc_2_7::XMLDateTime", %"class.xercesc_2_7::XMLDateTime"* %this1, i32 0, i32 4, !dbg !2282
  store i32 0, i32* %fEnd, align 4, !dbg !2282
  %fBufferMaxLen = getelementptr inbounds %"class.xercesc_2_7::XMLDateTime", %"class.xercesc_2_7::XMLDateTime"* %this1, i32 0, i32 5, !dbg !2283
  store i32 0, i32* %fBufferMaxLen, align 8, !dbg !2283
  %fMiliSecond = getelementptr inbounds %"class.xercesc_2_7::XMLDateTime", %"class.xercesc_2_7::XMLDateTime"* %this1, i32 0, i32 6, !dbg !2284
  store double 0.000000e+00, double* %fMiliSecond, align 8, !dbg !2284
  %fHasTime = getelementptr inbounds %"class.xercesc_2_7::XMLDateTime", %"class.xercesc_2_7::XMLDateTime"* %this1, i32 0, i32 7, !dbg !2285
  store i8 0, i8* %fHasTime, align 8, !dbg !2285
  %fBuffer = getelementptr inbounds %"class.xercesc_2_7::XMLDateTime", %"class.xercesc_2_7::XMLDateTime"* %this1, i32 0, i32 8, !dbg !2286
  store i16* null, i16** %fBuffer, align 8, !dbg !2286
  %fMemoryManager = getelementptr inbounds %"class.xercesc_2_7::XMLDateTime", %"class.xercesc_2_7::XMLDateTime"* %this1, i32 0, i32 9, !dbg !2287
  %2 = load %"class.xercesc_2_7::MemoryManager"*, %"class.xercesc_2_7::MemoryManager"** %manager.addr, align 8, !dbg !2288
  store %"class.xercesc_2_7::MemoryManager"* %2, %"class.xercesc_2_7::MemoryManager"** %fMemoryManager, align 8, !dbg !2287
  invoke void @_ZN11xercesc_2_711XMLDateTime5resetEv(%"class.xercesc_2_7::XMLDateTime"* %this1)
          to label %invoke.cont unwind label %lpad, !dbg !2289

invoke.cont:                                      ; preds = %entry
  ret void, !dbg !2291

lpad:                                             ; preds = %entry
  %3 = landingpad { i8*, i32 }
          cleanup, !dbg !2292
  %4 = extractvalue { i8*, i32 } %3, 0, !dbg !2292
  store i8* %4, i8** %exn.slot, align 8, !dbg !2292
  %5 = extractvalue { i8*, i32 } %3, 1, !dbg !2292
  store i32 %5, i32* %ehselector.slot, align 4, !dbg !2292
  %6 = bitcast %"class.xercesc_2_7::XMLDateTime"* %this1 to %"class.xercesc_2_7::XMLNumber"*, !dbg !2292
  call void @_ZN11xercesc_2_79XMLNumberD2Ev(%"class.xercesc_2_7::XMLNumber"* %6) #9, !dbg !2292
  br label %eh.resume, !dbg !2292

eh.resume:                                        ; preds = %lpad
  %exn = load i8*, i8** %exn.slot, align 8, !dbg !2292
  %sel = load i32, i32* %ehselector.slot, align 4, !dbg !2292
  %lpad.val = insertvalue { i8*, i32 } undef, i8* %exn, 0, !dbg !2292
  %lpad.val2 = insertvalue { i8*, i32 } %lpad.val, i32 %sel, 1, !dbg !2292
  resume { i8*, i32 } %lpad.val2, !dbg !2292
}

declare dso_local void @_ZN11xercesc_2_79XMLNumberC2Ev(%"class.xercesc_2_7::XMLNumber"*) unnamed_addr #6

; Function Attrs: noinline uwtable
define dso_local void @_ZN11xercesc_2_711XMLDateTimeC2EPKtPNS_13MemoryManagerE(%"class.xercesc_2_7::XMLDateTime"* %this, i16* %aString, %"class.xercesc_2_7::MemoryManager"* %manager) unnamed_addr #3 align 2 personality i8* bitcast (i32 (...)* @__gxx_personality_v0 to i8*) !dbg !2293 {
entry:
  %this.addr = alloca %"class.xercesc_2_7::XMLDateTime"*, align 8
  %aString.addr = alloca i16*, align 8
  %manager.addr = alloca %"class.xercesc_2_7::MemoryManager"*, align 8
  %exn.slot = alloca i8*
  %ehselector.slot = alloca i32
  store %"class.xercesc_2_7::XMLDateTime"* %this, %"class.xercesc_2_7::XMLDateTime"** %this.addr, align 8
  call void @llvm.dbg.declare(metadata %"class.xercesc_2_7::XMLDateTime"** %this.addr, metadata !2294, metadata !DIExpression()), !dbg !2295
  store i16* %aString, i16** %aString.addr, align 8
  call void @llvm.dbg.declare(metadata i16** %aString.addr, metadata !2296, metadata !DIExpression()), !dbg !2297
  store %"class.xercesc_2_7::MemoryManager"* %manager, %"class.xercesc_2_7::MemoryManager"** %manager.addr, align 8
  call void @llvm.dbg.declare(metadata %"class.xercesc_2_7::MemoryManager"** %manager.addr, metadata !2298, metadata !DIExpression()), !dbg !2299
  %this1 = load %"class.xercesc_2_7::XMLDateTime"*, %"class.xercesc_2_7::XMLDateTime"** %this.addr, align 8
  %0 = bitcast %"class.xercesc_2_7::XMLDateTime"* %this1 to %"class.xercesc_2_7::XMLNumber"*, !dbg !2300
  call void @_ZN11xercesc_2_79XMLNumberC2Ev(%"class.xercesc_2_7::XMLNumber"* %0), !dbg !2301
  %1 = bitcast %"class.xercesc_2_7::XMLDateTime"* %this1 to i32 (...)***, !dbg !2300
  store i32 (...)** bitcast (i8** getelementptr inbounds ({ [11 x i8*] }, { [11 x i8*] }* @_ZTVN11xercesc_2_711XMLDateTimeE, i32 0, inrange i32 0, i32 2) to i32 (...)**), i32 (...)*** %1, align 8, !dbg !2300
  %fStart = getelementptr inbounds %"class.xercesc_2_7::XMLDateTime", %"class.xercesc_2_7::XMLDateTime"* %this1, i32 0, i32 3, !dbg !2302
  store i32 0, i32* %fStart, align 8, !dbg !2302
  %fEnd = getelementptr inbounds %"class.xercesc_2_7::XMLDateTime", %"class.xercesc_2_7::XMLDateTime"* %this1, i32 0, i32 4, !dbg !2303
  store i32 0, i32* %fEnd, align 4, !dbg !2303
  %fBufferMaxLen = getelementptr inbounds %"class.xercesc_2_7::XMLDateTime", %"class.xercesc_2_7::XMLDateTime"* %this1, i32 0, i32 5, !dbg !2304
  store i32 0, i32* %fBufferMaxLen, align 8, !dbg !2304
  %fMiliSecond = getelementptr inbounds %"class.xercesc_2_7::XMLDateTime", %"class.xercesc_2_7::XMLDateTime"* %this1, i32 0, i32 6, !dbg !2305
  store double 0.000000e+00, double* %fMiliSecond, align 8, !dbg !2305
  %fHasTime = getelementptr inbounds %"class.xercesc_2_7::XMLDateTime", %"class.xercesc_2_7::XMLDateTime"* %this1, i32 0, i32 7, !dbg !2306
  store i8 0, i8* %fHasTime, align 8, !dbg !2306
  %fBuffer = getelementptr inbounds %"class.xercesc_2_7::XMLDateTime", %"class.xercesc_2_7::XMLDateTime"* %this1, i32 0, i32 8, !dbg !2307
  store i16* null, i16** %fBuffer, align 8, !dbg !2307
  %fMemoryManager = getelementptr inbounds %"class.xercesc_2_7::XMLDateTime", %"class.xercesc_2_7::XMLDateTime"* %this1, i32 0, i32 9, !dbg !2308
  %2 = load %"class.xercesc_2_7::MemoryManager"*, %"class.xercesc_2_7::MemoryManager"** %manager.addr, align 8, !dbg !2309
  store %"class.xercesc_2_7::MemoryManager"* %2, %"class.xercesc_2_7::MemoryManager"** %fMemoryManager, align 8, !dbg !2308
  %3 = load i16*, i16** %aString.addr, align 8, !dbg !2310
  invoke void @_ZN11xercesc_2_711XMLDateTime9setBufferEPKt(%"class.xercesc_2_7::XMLDateTime"* %this1, i16* %3)
          to label %invoke.cont unwind label %lpad, !dbg !2312

invoke.cont:                                      ; preds = %entry
  ret void, !dbg !2313

lpad:                                             ; preds = %entry
  %4 = landingpad { i8*, i32 }
          cleanup, !dbg !2314
  %5 = extractvalue { i8*, i32 } %4, 0, !dbg !2314
  store i8* %5, i8** %exn.slot, align 8, !dbg !2314
  %6 = extractvalue { i8*, i32 } %4, 1, !dbg !2314
  store i32 %6, i32* %ehselector.slot, align 4, !dbg !2314
  %7 = bitcast %"class.xercesc_2_7::XMLDateTime"* %this1 to %"class.xercesc_2_7::XMLNumber"*, !dbg !2314
  call void @_ZN11xercesc_2_79XMLNumberD2Ev(%"class.xercesc_2_7::XMLNumber"* %7) #9, !dbg !2314
  br label %eh.resume, !dbg !2314

eh.resume:                                        ; preds = %lpad
  %exn = load i8*, i8** %exn.slot, align 8, !dbg !2314
  %sel = load i32, i32* %ehselector.slot, align 4, !dbg !2314
  %lpad.val = insertvalue { i8*, i32 } undef, i8* %exn, 0, !dbg !2314
  %lpad.val2 = insertvalue { i8*, i32 } %lpad.val, i32 %sel, 1, !dbg !2314
  resume { i8*, i32 } %lpad.val2, !dbg !2314
}

; Function Attrs: noinline uwtable
define linkonce_odr dso_local void @_ZN11xercesc_2_711XMLDateTime9setBufferEPKt(%"class.xercesc_2_7::XMLDateTime"* %this, i16* %aString) #3 comdat align 2 !dbg !2315 {
entry:
  %this.addr = alloca %"class.xercesc_2_7::XMLDateTime"*, align 8
  %aString.addr = alloca i16*, align 8
  store %"class.xercesc_2_7::XMLDateTime"* %this, %"class.xercesc_2_7::XMLDateTime"** %this.addr, align 8
  call void @llvm.dbg.declare(metadata %"class.xercesc_2_7::XMLDateTime"** %this.addr, metadata !2316, metadata !DIExpression()), !dbg !2317
  store i16* %aString, i16** %aString.addr, align 8
  call void @llvm.dbg.declare(metadata i16** %aString.addr, metadata !2318, metadata !DIExpression()), !dbg !2319
  %this1 = load %"class.xercesc_2_7::XMLDateTime"*, %"class.xercesc_2_7::XMLDateTime"** %this.addr, align 8
  call void @_ZN11xercesc_2_711XMLDateTime5resetEv(%"class.xercesc_2_7::XMLDateTime"* %this1), !dbg !2320
  %0 = load i16*, i16** %aString.addr, align 8, !dbg !2321
  %call = call i32 @_ZN11xercesc_2_79XMLString9stringLenEPKt(i16* %0), !dbg !2322
  %fEnd = getelementptr inbounds %"class.xercesc_2_7::XMLDateTime", %"class.xercesc_2_7::XMLDateTime"* %this1, i32 0, i32 4, !dbg !2323
  store i32 %call, i32* %fEnd, align 4, !dbg !2324
  %fEnd2 = getelementptr inbounds %"class.xercesc_2_7::XMLDateTime", %"class.xercesc_2_7::XMLDateTime"* %this1, i32 0, i32 4, !dbg !2325
  %1 = load i32, i32* %fEnd2, align 4, !dbg !2325
  %cmp = icmp sgt i32 %1, 0, !dbg !2327
  br i1 %cmp, label %if.then, label %if.end20, !dbg !2328

if.then:                                          ; preds = %entry
  %fEnd3 = getelementptr inbounds %"class.xercesc_2_7::XMLDateTime", %"class.xercesc_2_7::XMLDateTime"* %this1, i32 0, i32 4, !dbg !2329
  %2 = load i32, i32* %fEnd3, align 4, !dbg !2329
  %fBufferMaxLen = getelementptr inbounds %"class.xercesc_2_7::XMLDateTime", %"class.xercesc_2_7::XMLDateTime"* %this1, i32 0, i32 5, !dbg !2332
  %3 = load i32, i32* %fBufferMaxLen, align 8, !dbg !2332
  %cmp4 = icmp sgt i32 %2, %3, !dbg !2333
  br i1 %cmp4, label %if.then5, label %if.end, !dbg !2334

if.then5:                                         ; preds = %if.then
  %fMemoryManager = getelementptr inbounds %"class.xercesc_2_7::XMLDateTime", %"class.xercesc_2_7::XMLDateTime"* %this1, i32 0, i32 9, !dbg !2335
  %4 = load %"class.xercesc_2_7::MemoryManager"*, %"class.xercesc_2_7::MemoryManager"** %fMemoryManager, align 8, !dbg !2335
  %fBuffer = getelementptr inbounds %"class.xercesc_2_7::XMLDateTime", %"class.xercesc_2_7::XMLDateTime"* %this1, i32 0, i32 8, !dbg !2337
  %5 = load i16*, i16** %fBuffer, align 8, !dbg !2337
  %6 = bitcast i16* %5 to i8*, !dbg !2337
  %7 = bitcast %"class.xercesc_2_7::MemoryManager"* %4 to void (%"class.xercesc_2_7::MemoryManager"*, i8*)***, !dbg !2338
  %vtable = load void (%"class.xercesc_2_7::MemoryManager"*, i8*)**, void (%"class.xercesc_2_7::MemoryManager"*, i8*)*** %7, align 8, !dbg !2338
  %vfn = getelementptr inbounds void (%"class.xercesc_2_7::MemoryManager"*, i8*)*, void (%"class.xercesc_2_7::MemoryManager"*, i8*)** %vtable, i64 3, !dbg !2338
  %8 = load void (%"class.xercesc_2_7::MemoryManager"*, i8*)*, void (%"class.xercesc_2_7::MemoryManager"*, i8*)** %vfn, align 8, !dbg !2338
  call void %8(%"class.xercesc_2_7::MemoryManager"* %4, i8* %6), !dbg !2338
  %fEnd6 = getelementptr inbounds %"class.xercesc_2_7::XMLDateTime", %"class.xercesc_2_7::XMLDateTime"* %this1, i32 0, i32 4, !dbg !2339
  %9 = load i32, i32* %fEnd6, align 4, !dbg !2339
  %add = add nsw i32 %9, 8, !dbg !2340
  %fBufferMaxLen7 = getelementptr inbounds %"class.xercesc_2_7::XMLDateTime", %"class.xercesc_2_7::XMLDateTime"* %this1, i32 0, i32 5, !dbg !2341
  store i32 %add, i32* %fBufferMaxLen7, align 8, !dbg !2342
  %fMemoryManager8 = getelementptr inbounds %"class.xercesc_2_7::XMLDateTime", %"class.xercesc_2_7::XMLDateTime"* %this1, i32 0, i32 9, !dbg !2343
  %10 = load %"class.xercesc_2_7::MemoryManager"*, %"class.xercesc_2_7::MemoryManager"** %fMemoryManager8, align 8, !dbg !2343
  %fBufferMaxLen9 = getelementptr inbounds %"class.xercesc_2_7::XMLDateTime", %"class.xercesc_2_7::XMLDateTime"* %this1, i32 0, i32 5, !dbg !2344
  %11 = load i32, i32* %fBufferMaxLen9, align 8, !dbg !2344
  %add10 = add nsw i32 %11, 1, !dbg !2345
  %conv = sext i32 %add10 to i64, !dbg !2346
  %mul = mul i64 %conv, 2, !dbg !2347
  %12 = bitcast %"class.xercesc_2_7::MemoryManager"* %10 to i8* (%"class.xercesc_2_7::MemoryManager"*, i64)***, !dbg !2348
  %vtable11 = load i8* (%"class.xercesc_2_7::MemoryManager"*, i64)**, i8* (%"class.xercesc_2_7::MemoryManager"*, i64)*** %12, align 8, !dbg !2348
  %vfn12 = getelementptr inbounds i8* (%"class.xercesc_2_7::MemoryManager"*, i64)*, i8* (%"class.xercesc_2_7::MemoryManager"*, i64)** %vtable11, i64 2, !dbg !2348
  %13 = load i8* (%"class.xercesc_2_7::MemoryManager"*, i64)*, i8* (%"class.xercesc_2_7::MemoryManager"*, i64)** %vfn12, align 8, !dbg !2348
  %call13 = call i8* %13(%"class.xercesc_2_7::MemoryManager"* %10, i64 %mul), !dbg !2348
  %14 = bitcast i8* %call13 to i16*, !dbg !2349
  %fBuffer14 = getelementptr inbounds %"class.xercesc_2_7::XMLDateTime", %"class.xercesc_2_7::XMLDateTime"* %this1, i32 0, i32 8, !dbg !2350
  store i16* %14, i16** %fBuffer14, align 8, !dbg !2351
  br label %if.end, !dbg !2352

if.end:                                           ; preds = %if.then5, %if.then
  %fBuffer15 = getelementptr inbounds %"class.xercesc_2_7::XMLDateTime", %"class.xercesc_2_7::XMLDateTime"* %this1, i32 0, i32 8, !dbg !2353
  %15 = load i16*, i16** %fBuffer15, align 8, !dbg !2353
  %16 = bitcast i16* %15 to i8*, !dbg !2354
  %17 = load i16*, i16** %aString.addr, align 8, !dbg !2355
  %18 = bitcast i16* %17 to i8*, !dbg !2354
  %fEnd16 = getelementptr inbounds %"class.xercesc_2_7::XMLDateTime", %"class.xercesc_2_7::XMLDateTime"* %this1, i32 0, i32 4, !dbg !2356
  %19 = load i32, i32* %fEnd16, align 4, !dbg !2356
  %add17 = add nsw i32 %19, 1, !dbg !2357
  %conv18 = sext i32 %add17 to i64, !dbg !2358
  %mul19 = mul i64 %conv18, 2, !dbg !2359
  call void @llvm.memcpy.p0i8.p0i8.i64(i8* align 2 %16, i8* align 2 %18, i64 %mul19, i1 false), !dbg !2354
  br label %if.end20, !dbg !2360

if.end20:                                         ; preds = %if.end, %entry
  ret void, !dbg !2361
}

; Function Attrs: noinline uwtable
define dso_local void @_ZN11xercesc_2_711XMLDateTimeC2ERKS0_(%"class.xercesc_2_7::XMLDateTime"* %this, %"class.xercesc_2_7::XMLDateTime"* dereferenceable(96) %toCopy) unnamed_addr #3 align 2 personality i8* bitcast (i32 (...)* @__gxx_personality_v0 to i8*) !dbg !2362 {
entry:
  %this.addr = alloca %"class.xercesc_2_7::XMLDateTime"*, align 8
  %toCopy.addr = alloca %"class.xercesc_2_7::XMLDateTime"*, align 8
  %exn.slot = alloca i8*
  %ehselector.slot = alloca i32
  store %"class.xercesc_2_7::XMLDateTime"* %this, %"class.xercesc_2_7::XMLDateTime"** %this.addr, align 8
  call void @llvm.dbg.declare(metadata %"class.xercesc_2_7::XMLDateTime"** %this.addr, metadata !2363, metadata !DIExpression()), !dbg !2364
  store %"class.xercesc_2_7::XMLDateTime"* %toCopy, %"class.xercesc_2_7::XMLDateTime"** %toCopy.addr, align 8
  call void @llvm.dbg.declare(metadata %"class.xercesc_2_7::XMLDateTime"** %toCopy.addr, metadata !2365, metadata !DIExpression()), !dbg !2366
  %this1 = load %"class.xercesc_2_7::XMLDateTime"*, %"class.xercesc_2_7::XMLDateTime"** %this.addr, align 8
  %0 = bitcast %"class.xercesc_2_7::XMLDateTime"* %this1 to %"class.xercesc_2_7::XMLNumber"*, !dbg !2367
  %1 = load %"class.xercesc_2_7::XMLDateTime"*, %"class.xercesc_2_7::XMLDateTime"** %toCopy.addr, align 8, !dbg !2368
  %2 = bitcast %"class.xercesc_2_7::XMLDateTime"* %1 to %"class.xercesc_2_7::XMLNumber"*, !dbg !2368
  call void @_ZN11xercesc_2_79XMLNumberC2ERKS0_(%"class.xercesc_2_7::XMLNumber"* %0, %"class.xercesc_2_7::XMLNumber"* dereferenceable(8) %2), !dbg !2369
  %3 = bitcast %"class.xercesc_2_7::XMLDateTime"* %this1 to i32 (...)***, !dbg !2367
  store i32 (...)** bitcast (i8** getelementptr inbounds ({ [11 x i8*] }, { [11 x i8*] }* @_ZTVN11xercesc_2_711XMLDateTimeE, i32 0, inrange i32 0, i32 2) to i32 (...)**), i32 (...)*** %3, align 8, !dbg !2367
  %fBufferMaxLen = getelementptr inbounds %"class.xercesc_2_7::XMLDateTime", %"class.xercesc_2_7::XMLDateTime"* %this1, i32 0, i32 5, !dbg !2370
  store i32 0, i32* %fBufferMaxLen, align 8, !dbg !2370
  %fBuffer = getelementptr inbounds %"class.xercesc_2_7::XMLDateTime", %"class.xercesc_2_7::XMLDateTime"* %this1, i32 0, i32 8, !dbg !2371
  store i16* null, i16** %fBuffer, align 8, !dbg !2371
  %fMemoryManager = getelementptr inbounds %"class.xercesc_2_7::XMLDateTime", %"class.xercesc_2_7::XMLDateTime"* %this1, i32 0, i32 9, !dbg !2372
  %4 = load %"class.xercesc_2_7::XMLDateTime"*, %"class.xercesc_2_7::XMLDateTime"** %toCopy.addr, align 8, !dbg !2373
  %fMemoryManager2 = getelementptr inbounds %"class.xercesc_2_7::XMLDateTime", %"class.xercesc_2_7::XMLDateTime"* %4, i32 0, i32 9, !dbg !2374
  %5 = load %"class.xercesc_2_7::MemoryManager"*, %"class.xercesc_2_7::MemoryManager"** %fMemoryManager2, align 8, !dbg !2374
  store %"class.xercesc_2_7::MemoryManager"* %5, %"class.xercesc_2_7::MemoryManager"** %fMemoryManager, align 8, !dbg !2372
  %6 = load %"class.xercesc_2_7::XMLDateTime"*, %"class.xercesc_2_7::XMLDateTime"** %toCopy.addr, align 8, !dbg !2375
  invoke void @_ZN11xercesc_2_711XMLDateTime4copyERKS0_(%"class.xercesc_2_7::XMLDateTime"* %this1, %"class.xercesc_2_7::XMLDateTime"* dereferenceable(96) %6)
          to label %invoke.cont unwind label %lpad, !dbg !2377

invoke.cont:                                      ; preds = %entry
  ret void, !dbg !2378

lpad:                                             ; preds = %entry
  %7 = landingpad { i8*, i32 }
          cleanup, !dbg !2379
  %8 = extractvalue { i8*, i32 } %7, 0, !dbg !2379
  store i8* %8, i8** %exn.slot, align 8, !dbg !2379
  %9 = extractvalue { i8*, i32 } %7, 1, !dbg !2379
  store i32 %9, i32* %ehselector.slot, align 4, !dbg !2379
  %10 = bitcast %"class.xercesc_2_7::XMLDateTime"* %this1 to %"class.xercesc_2_7::XMLNumber"*, !dbg !2379
  call void @_ZN11xercesc_2_79XMLNumberD2Ev(%"class.xercesc_2_7::XMLNumber"* %10) #9, !dbg !2379
  br label %eh.resume, !dbg !2379

eh.resume:                                        ; preds = %lpad
  %exn = load i8*, i8** %exn.slot, align 8, !dbg !2379
  %sel = load i32, i32* %ehselector.slot, align 4, !dbg !2379
  %lpad.val = insertvalue { i8*, i32 } undef, i8* %exn, 0, !dbg !2379
  %lpad.val3 = insertvalue { i8*, i32 } %lpad.val, i32 %sel, 1, !dbg !2379
  resume { i8*, i32 } %lpad.val3, !dbg !2379
}

declare dso_local void @_ZN11xercesc_2_79XMLNumberC2ERKS0_(%"class.xercesc_2_7::XMLNumber"*, %"class.xercesc_2_7::XMLNumber"* dereferenceable(8)) unnamed_addr #6

; Function Attrs: noinline uwtable
define linkonce_odr dso_local void @_ZN11xercesc_2_711XMLDateTime4copyERKS0_(%"class.xercesc_2_7::XMLDateTime"* %this, %"class.xercesc_2_7::XMLDateTime"* dereferenceable(96) %rhs) #3 comdat align 2 !dbg !2380 {
entry:
  %this.addr = alloca %"class.xercesc_2_7::XMLDateTime"*, align 8
  %rhs.addr = alloca %"class.xercesc_2_7::XMLDateTime"*, align 8
  %i = alloca i32, align 4
  store %"class.xercesc_2_7::XMLDateTime"* %this, %"class.xercesc_2_7::XMLDateTime"** %this.addr, align 8
  call void @llvm.dbg.declare(metadata %"class.xercesc_2_7::XMLDateTime"** %this.addr, metadata !2381, metadata !DIExpression()), !dbg !2382
  store %"class.xercesc_2_7::XMLDateTime"* %rhs, %"class.xercesc_2_7::XMLDateTime"** %rhs.addr, align 8
  call void @llvm.dbg.declare(metadata %"class.xercesc_2_7::XMLDateTime"** %rhs.addr, metadata !2383, metadata !DIExpression()), !dbg !2384
  %this1 = load %"class.xercesc_2_7::XMLDateTime"*, %"class.xercesc_2_7::XMLDateTime"** %this.addr, align 8
  call void @llvm.dbg.declare(metadata i32* %i, metadata !2385, metadata !DIExpression()), !dbg !2387
  store i32 0, i32* %i, align 4, !dbg !2387
  br label %for.cond, !dbg !2388

for.cond:                                         ; preds = %for.inc, %entry
  %0 = load i32, i32* %i, align 4, !dbg !2389
  %cmp = icmp slt i32 %0, 8, !dbg !2391
  br i1 %cmp, label %for.body, label %for.end, !dbg !2392

for.body:                                         ; preds = %for.cond
  %1 = load %"class.xercesc_2_7::XMLDateTime"*, %"class.xercesc_2_7::XMLDateTime"** %rhs.addr, align 8, !dbg !2393
  %fValue = getelementptr inbounds %"class.xercesc_2_7::XMLDateTime", %"class.xercesc_2_7::XMLDateTime"* %1, i32 0, i32 1, !dbg !2394
  %2 = load i32, i32* %i, align 4, !dbg !2395
  %idxprom = sext i32 %2 to i64, !dbg !2393
  %arrayidx = getelementptr inbounds [8 x i32], [8 x i32]* %fValue, i64 0, i64 %idxprom, !dbg !2393
  %3 = load i32, i32* %arrayidx, align 4, !dbg !2393
  %fValue2 = getelementptr inbounds %"class.xercesc_2_7::XMLDateTime", %"class.xercesc_2_7::XMLDateTime"* %this1, i32 0, i32 1, !dbg !2396
  %4 = load i32, i32* %i, align 4, !dbg !2397
  %idxprom3 = sext i32 %4 to i64, !dbg !2396
  %arrayidx4 = getelementptr inbounds [8 x i32], [8 x i32]* %fValue2, i64 0, i64 %idxprom3, !dbg !2396
  store i32 %3, i32* %arrayidx4, align 4, !dbg !2398
  br label %for.inc, !dbg !2396

for.inc:                                          ; preds = %for.body
  %5 = load i32, i32* %i, align 4, !dbg !2399
  %inc = add nsw i32 %5, 1, !dbg !2399
  store i32 %inc, i32* %i, align 4, !dbg !2399
  br label %for.cond, !dbg !2400, !llvm.loop !2401

for.end:                                          ; preds = %for.cond
  %6 = load %"class.xercesc_2_7::XMLDateTime"*, %"class.xercesc_2_7::XMLDateTime"** %rhs.addr, align 8, !dbg !2403
  %fMiliSecond = getelementptr inbounds %"class.xercesc_2_7::XMLDateTime", %"class.xercesc_2_7::XMLDateTime"* %6, i32 0, i32 6, !dbg !2404
  %7 = load double, double* %fMiliSecond, align 8, !dbg !2404
  %fMiliSecond5 = getelementptr inbounds %"class.xercesc_2_7::XMLDateTime", %"class.xercesc_2_7::XMLDateTime"* %this1, i32 0, i32 6, !dbg !2405
  store double %7, double* %fMiliSecond5, align 8, !dbg !2406
  %8 = load %"class.xercesc_2_7::XMLDateTime"*, %"class.xercesc_2_7::XMLDateTime"** %rhs.addr, align 8, !dbg !2407
  %fHasTime = getelementptr inbounds %"class.xercesc_2_7::XMLDateTime", %"class.xercesc_2_7::XMLDateTime"* %8, i32 0, i32 7, !dbg !2408
  %9 = load i8, i8* %fHasTime, align 8, !dbg !2408
  %tobool = trunc i8 %9 to i1, !dbg !2408
  %fHasTime6 = getelementptr inbounds %"class.xercesc_2_7::XMLDateTime", %"class.xercesc_2_7::XMLDateTime"* %this1, i32 0, i32 7, !dbg !2409
  %frombool = zext i1 %tobool to i8, !dbg !2410
  store i8 %frombool, i8* %fHasTime6, align 8, !dbg !2410
  %10 = load %"class.xercesc_2_7::XMLDateTime"*, %"class.xercesc_2_7::XMLDateTime"** %rhs.addr, align 8, !dbg !2411
  %fTimeZone = getelementptr inbounds %"class.xercesc_2_7::XMLDateTime", %"class.xercesc_2_7::XMLDateTime"* %10, i32 0, i32 2, !dbg !2412
  %arrayidx7 = getelementptr inbounds [2 x i32], [2 x i32]* %fTimeZone, i64 0, i64 0, !dbg !2411
  %11 = load i32, i32* %arrayidx7, align 8, !dbg !2411
  %fTimeZone8 = getelementptr inbounds %"class.xercesc_2_7::XMLDateTime", %"class.xercesc_2_7::XMLDateTime"* %this1, i32 0, i32 2, !dbg !2413
  %arrayidx9 = getelementptr inbounds [2 x i32], [2 x i32]* %fTimeZone8, i64 0, i64 0, !dbg !2413
  store i32 %11, i32* %arrayidx9, align 8, !dbg !2414
  %12 = load %"class.xercesc_2_7::XMLDateTime"*, %"class.xercesc_2_7::XMLDateTime"** %rhs.addr, align 8, !dbg !2415
  %fTimeZone10 = getelementptr inbounds %"class.xercesc_2_7::XMLDateTime", %"class.xercesc_2_7::XMLDateTime"* %12, i32 0, i32 2, !dbg !2416
  %arrayidx11 = getelementptr inbounds [2 x i32], [2 x i32]* %fTimeZone10, i64 0, i64 1, !dbg !2415
  %13 = load i32, i32* %arrayidx11, align 4, !dbg !2415
  %fTimeZone12 = getelementptr inbounds %"class.xercesc_2_7::XMLDateTime", %"class.xercesc_2_7::XMLDateTime"* %this1, i32 0, i32 2, !dbg !2417
  %arrayidx13 = getelementptr inbounds [2 x i32], [2 x i32]* %fTimeZone12, i64 0, i64 1, !dbg !2417
  store i32 %13, i32* %arrayidx13, align 4, !dbg !2418
  %14 = load %"class.xercesc_2_7::XMLDateTime"*, %"class.xercesc_2_7::XMLDateTime"** %rhs.addr, align 8, !dbg !2419
  %fStart = getelementptr inbounds %"class.xercesc_2_7::XMLDateTime", %"class.xercesc_2_7::XMLDateTime"* %14, i32 0, i32 3, !dbg !2420
  %15 = load i32, i32* %fStart, align 8, !dbg !2420
  %fStart14 = getelementptr inbounds %"class.xercesc_2_7::XMLDateTime", %"class.xercesc_2_7::XMLDateTime"* %this1, i32 0, i32 3, !dbg !2421
  store i32 %15, i32* %fStart14, align 8, !dbg !2422
  %16 = load %"class.xercesc_2_7::XMLDateTime"*, %"class.xercesc_2_7::XMLDateTime"** %rhs.addr, align 8, !dbg !2423
  %fEnd = getelementptr inbounds %"class.xercesc_2_7::XMLDateTime", %"class.xercesc_2_7::XMLDateTime"* %16, i32 0, i32 4, !dbg !2424
  %17 = load i32, i32* %fEnd, align 4, !dbg !2424
  %fEnd15 = getelementptr inbounds %"class.xercesc_2_7::XMLDateTime", %"class.xercesc_2_7::XMLDateTime"* %this1, i32 0, i32 4, !dbg !2425
  store i32 %17, i32* %fEnd15, align 4, !dbg !2426
  %fEnd16 = getelementptr inbounds %"class.xercesc_2_7::XMLDateTime", %"class.xercesc_2_7::XMLDateTime"* %this1, i32 0, i32 4, !dbg !2427
  %18 = load i32, i32* %fEnd16, align 4, !dbg !2427
  %cmp17 = icmp sgt i32 %18, 0, !dbg !2429
  br i1 %cmp17, label %if.then, label %if.end34, !dbg !2430

if.then:                                          ; preds = %for.end
  %fEnd18 = getelementptr inbounds %"class.xercesc_2_7::XMLDateTime", %"class.xercesc_2_7::XMLDateTime"* %this1, i32 0, i32 4, !dbg !2431
  %19 = load i32, i32* %fEnd18, align 4, !dbg !2431
  %fBufferMaxLen = getelementptr inbounds %"class.xercesc_2_7::XMLDateTime", %"class.xercesc_2_7::XMLDateTime"* %this1, i32 0, i32 5, !dbg !2434
  %20 = load i32, i32* %fBufferMaxLen, align 8, !dbg !2434
  %cmp19 = icmp sgt i32 %19, %20, !dbg !2435
  br i1 %cmp19, label %if.then20, label %if.end, !dbg !2436

if.then20:                                        ; preds = %if.then
  %fMemoryManager = getelementptr inbounds %"class.xercesc_2_7::XMLDateTime", %"class.xercesc_2_7::XMLDateTime"* %this1, i32 0, i32 9, !dbg !2437
  %21 = load %"class.xercesc_2_7::MemoryManager"*, %"class.xercesc_2_7::MemoryManager"** %fMemoryManager, align 8, !dbg !2437
  %fBuffer = getelementptr inbounds %"class.xercesc_2_7::XMLDateTime", %"class.xercesc_2_7::XMLDateTime"* %this1, i32 0, i32 8, !dbg !2439
  %22 = load i16*, i16** %fBuffer, align 8, !dbg !2439
  %23 = bitcast i16* %22 to i8*, !dbg !2439
  %24 = bitcast %"class.xercesc_2_7::MemoryManager"* %21 to void (%"class.xercesc_2_7::MemoryManager"*, i8*)***, !dbg !2440
  %vtable = load void (%"class.xercesc_2_7::MemoryManager"*, i8*)**, void (%"class.xercesc_2_7::MemoryManager"*, i8*)*** %24, align 8, !dbg !2440
  %vfn = getelementptr inbounds void (%"class.xercesc_2_7::MemoryManager"*, i8*)*, void (%"class.xercesc_2_7::MemoryManager"*, i8*)** %vtable, i64 3, !dbg !2440
  %25 = load void (%"class.xercesc_2_7::MemoryManager"*, i8*)*, void (%"class.xercesc_2_7::MemoryManager"*, i8*)** %vfn, align 8, !dbg !2440
  call void %25(%"class.xercesc_2_7::MemoryManager"* %21, i8* %23), !dbg !2440
  %26 = load %"class.xercesc_2_7::XMLDateTime"*, %"class.xercesc_2_7::XMLDateTime"** %rhs.addr, align 8, !dbg !2441
  %fBufferMaxLen21 = getelementptr inbounds %"class.xercesc_2_7::XMLDateTime", %"class.xercesc_2_7::XMLDateTime"* %26, i32 0, i32 5, !dbg !2442
  %27 = load i32, i32* %fBufferMaxLen21, align 8, !dbg !2442
  %fBufferMaxLen22 = getelementptr inbounds %"class.xercesc_2_7::XMLDateTime", %"class.xercesc_2_7::XMLDateTime"* %this1, i32 0, i32 5, !dbg !2443
  store i32 %27, i32* %fBufferMaxLen22, align 8, !dbg !2444
  %fMemoryManager23 = getelementptr inbounds %"class.xercesc_2_7::XMLDateTime", %"class.xercesc_2_7::XMLDateTime"* %this1, i32 0, i32 9, !dbg !2445
  %28 = load %"class.xercesc_2_7::MemoryManager"*, %"class.xercesc_2_7::MemoryManager"** %fMemoryManager23, align 8, !dbg !2445
  %fBufferMaxLen24 = getelementptr inbounds %"class.xercesc_2_7::XMLDateTime", %"class.xercesc_2_7::XMLDateTime"* %this1, i32 0, i32 5, !dbg !2446
  %29 = load i32, i32* %fBufferMaxLen24, align 8, !dbg !2446
  %add = add nsw i32 %29, 1, !dbg !2447
  %conv = sext i32 %add to i64, !dbg !2448
  %mul = mul i64 %conv, 2, !dbg !2449
  %30 = bitcast %"class.xercesc_2_7::MemoryManager"* %28 to i8* (%"class.xercesc_2_7::MemoryManager"*, i64)***, !dbg !2450
  %vtable25 = load i8* (%"class.xercesc_2_7::MemoryManager"*, i64)**, i8* (%"class.xercesc_2_7::MemoryManager"*, i64)*** %30, align 8, !dbg !2450
  %vfn26 = getelementptr inbounds i8* (%"class.xercesc_2_7::MemoryManager"*, i64)*, i8* (%"class.xercesc_2_7::MemoryManager"*, i64)** %vtable25, i64 2, !dbg !2450
  %31 = load i8* (%"class.xercesc_2_7::MemoryManager"*, i64)*, i8* (%"class.xercesc_2_7::MemoryManager"*, i64)** %vfn26, align 8, !dbg !2450
  %call = call i8* %31(%"class.xercesc_2_7::MemoryManager"* %28, i64 %mul), !dbg !2450
  %32 = bitcast i8* %call to i16*, !dbg !2451
  %fBuffer27 = getelementptr inbounds %"class.xercesc_2_7::XMLDateTime", %"class.xercesc_2_7::XMLDateTime"* %this1, i32 0, i32 8, !dbg !2452
  store i16* %32, i16** %fBuffer27, align 8, !dbg !2453
  br label %if.end, !dbg !2454

if.end:                                           ; preds = %if.then20, %if.then
  %fBuffer28 = getelementptr inbounds %"class.xercesc_2_7::XMLDateTime", %"class.xercesc_2_7::XMLDateTime"* %this1, i32 0, i32 8, !dbg !2455
  %33 = load i16*, i16** %fBuffer28, align 8, !dbg !2455
  %34 = bitcast i16* %33 to i8*, !dbg !2456
  %35 = load %"class.xercesc_2_7::XMLDateTime"*, %"class.xercesc_2_7::XMLDateTime"** %rhs.addr, align 8, !dbg !2457
  %fBuffer29 = getelementptr inbounds %"class.xercesc_2_7::XMLDateTime", %"class.xercesc_2_7::XMLDateTime"* %35, i32 0, i32 8, !dbg !2458
  %36 = load i16*, i16** %fBuffer29, align 8, !dbg !2458
  %37 = bitcast i16* %36 to i8*, !dbg !2456
  %fEnd30 = getelementptr inbounds %"class.xercesc_2_7::XMLDateTime", %"class.xercesc_2_7::XMLDateTime"* %this1, i32 0, i32 4, !dbg !2459
  %38 = load i32, i32* %fEnd30, align 4, !dbg !2459
  %add31 = add nsw i32 %38, 1, !dbg !2460
  %conv32 = sext i32 %add31 to i64, !dbg !2461
  %mul33 = mul i64 %conv32, 2, !dbg !2462
  call void @llvm.memcpy.p0i8.p0i8.i64(i8* align 2 %34, i8* align 2 %37, i64 %mul33, i1 false), !dbg !2456
  br label %if.end34, !dbg !2463

if.end34:                                         ; preds = %if.end, %for.end
  ret void, !dbg !2464
}

; Function Attrs: noinline uwtable
define dso_local dereferenceable(96) %"class.xercesc_2_7::XMLDateTime"* @_ZN11xercesc_2_711XMLDateTimeaSERKS0_(%"class.xercesc_2_7::XMLDateTime"* %this, %"class.xercesc_2_7::XMLDateTime"* dereferenceable(96) %rhs) #3 align 2 !dbg !2465 {
entry:
  %retval = alloca %"class.xercesc_2_7::XMLDateTime"*, align 8
  %this.addr = alloca %"class.xercesc_2_7::XMLDateTime"*, align 8
  %rhs.addr = alloca %"class.xercesc_2_7::XMLDateTime"*, align 8
  store %"class.xercesc_2_7::XMLDateTime"* %this, %"class.xercesc_2_7::XMLDateTime"** %this.addr, align 8
  call void @llvm.dbg.declare(metadata %"class.xercesc_2_7::XMLDateTime"** %this.addr, metadata !2466, metadata !DIExpression()), !dbg !2467
  store %"class.xercesc_2_7::XMLDateTime"* %rhs, %"class.xercesc_2_7::XMLDateTime"** %rhs.addr, align 8
  call void @llvm.dbg.declare(metadata %"class.xercesc_2_7::XMLDateTime"** %rhs.addr, metadata !2468, metadata !DIExpression()), !dbg !2469
  %this1 = load %"class.xercesc_2_7::XMLDateTime"*, %"class.xercesc_2_7::XMLDateTime"** %this.addr, align 8
  %0 = load %"class.xercesc_2_7::XMLDateTime"*, %"class.xercesc_2_7::XMLDateTime"** %rhs.addr, align 8, !dbg !2470
  %cmp = icmp eq %"class.xercesc_2_7::XMLDateTime"* %this1, %0, !dbg !2472
  br i1 %cmp, label %if.then, label %if.end, !dbg !2473

if.then:                                          ; preds = %entry
  store %"class.xercesc_2_7::XMLDateTime"* %this1, %"class.xercesc_2_7::XMLDateTime"** %retval, align 8, !dbg !2474
  br label %return, !dbg !2474

if.end:                                           ; preds = %entry
  %1 = load %"class.xercesc_2_7::XMLDateTime"*, %"class.xercesc_2_7::XMLDateTime"** %rhs.addr, align 8, !dbg !2475
  call void @_ZN11xercesc_2_711XMLDateTime4copyERKS0_(%"class.xercesc_2_7::XMLDateTime"* %this1, %"class.xercesc_2_7::XMLDateTime"* dereferenceable(96) %1), !dbg !2476
  store %"class.xercesc_2_7::XMLDateTime"* %this1, %"class.xercesc_2_7::XMLDateTime"** %retval, align 8, !dbg !2477
  br label %return, !dbg !2477

return:                                           ; preds = %if.end, %if.then
  %2 = load %"class.xercesc_2_7::XMLDateTime"*, %"class.xercesc_2_7::XMLDateTime"** %retval, align 8, !dbg !2478
  ret %"class.xercesc_2_7::XMLDateTime"* %2, !dbg !2478
}

; Function Attrs: noinline uwtable
define dso_local i16* @_ZNK11xercesc_2_711XMLDateTime8toStringEv(%"class.xercesc_2_7::XMLDateTime"* %this) unnamed_addr #3 align 2 !dbg !2479 {
entry:
  %this.addr = alloca %"class.xercesc_2_7::XMLDateTime"*, align 8
  %retBuf = alloca i16*, align 8
  store %"class.xercesc_2_7::XMLDateTime"* %this, %"class.xercesc_2_7::XMLDateTime"** %this.addr, align 8
  call void @llvm.dbg.declare(metadata %"class.xercesc_2_7::XMLDateTime"** %this.addr, metadata !2480, metadata !DIExpression()), !dbg !2481
  %this1 = load %"class.xercesc_2_7::XMLDateTime"*, %"class.xercesc_2_7::XMLDateTime"** %this.addr, align 8
  call void @_ZNK11xercesc_2_711XMLDateTime12assertBufferEv(%"class.xercesc_2_7::XMLDateTime"* %this1), !dbg !2482
  call void @llvm.dbg.declare(metadata i16** %retBuf, metadata !2483, metadata !DIExpression()), !dbg !2484
  %fBuffer = getelementptr inbounds %"class.xercesc_2_7::XMLDateTime", %"class.xercesc_2_7::XMLDateTime"* %this1, i32 0, i32 8, !dbg !2485
  %0 = load i16*, i16** %fBuffer, align 8, !dbg !2485
  %call = call i16* @_ZN11xercesc_2_79XMLString9replicateEPKt(i16* %0), !dbg !2486
  store i16* %call, i16** %retBuf, align 8, !dbg !2484
  %1 = load i16*, i16** %retBuf, align 8, !dbg !2487
  ret i16* %1, !dbg !2488
}

; Function Attrs: noinline uwtable
define linkonce_odr dso_local void @_ZNK11xercesc_2_711XMLDateTime12assertBufferEv(%"class.xercesc_2_7::XMLDateTime"* %this) #3 comdat align 2 personality i8* bitcast (i32 (...)* @__gxx_personality_v0 to i8*) !dbg !2489 {
entry:
  %this.addr = alloca %"class.xercesc_2_7::XMLDateTime"*, align 8
  %exn.slot = alloca i8*
  %ehselector.slot = alloca i32
  store %"class.xercesc_2_7::XMLDateTime"* %this, %"class.xercesc_2_7::XMLDateTime"** %this.addr, align 8
  call void @llvm.dbg.declare(metadata %"class.xercesc_2_7::XMLDateTime"** %this.addr, metadata !2490, metadata !DIExpression()), !dbg !2491
  %this1 = load %"class.xercesc_2_7::XMLDateTime"*, %"class.xercesc_2_7::XMLDateTime"** %this.addr, align 8
  %fBuffer = getelementptr inbounds %"class.xercesc_2_7::XMLDateTime", %"class.xercesc_2_7::XMLDateTime"* %this1, i32 0, i32 8, !dbg !2492
  %0 = load i16*, i16** %fBuffer, align 8, !dbg !2492
  %tobool = icmp ne i16* %0, null, !dbg !2492
  br i1 %tobool, label %lor.lhs.false, label %if.then, !dbg !2494

lor.lhs.false:                                    ; preds = %entry
  %fBuffer2 = getelementptr inbounds %"class.xercesc_2_7::XMLDateTime", %"class.xercesc_2_7::XMLDateTime"* %this1, i32 0, i32 8, !dbg !2495
  %1 = load i16*, i16** %fBuffer2, align 8, !dbg !2495
  %arrayidx = getelementptr inbounds i16, i16* %1, i64 0, !dbg !2495
  %2 = load i16, i16* %arrayidx, align 2, !dbg !2495
  %conv = zext i16 %2 to i32, !dbg !2495
  %cmp = icmp eq i32 %conv, 0, !dbg !2496
  br i1 %cmp, label %if.then, label %if.end, !dbg !2497

if.then:                                          ; preds = %lor.lhs.false, %entry
  %exception = call i8* @__cxa_allocate_exception(i64 48) #9, !dbg !2498
  %3 = bitcast i8* %exception to %"class.xercesc_2_7::SchemaDateTimeException"*, !dbg !2498
  %fMemoryManager = getelementptr inbounds %"class.xercesc_2_7::XMLDateTime", %"class.xercesc_2_7::XMLDateTime"* %this1, i32 0, i32 9, !dbg !2498
  %4 = load %"class.xercesc_2_7::MemoryManager"*, %"class.xercesc_2_7::MemoryManager"** %fMemoryManager, align 8, !dbg !2498
  invoke void @_ZN11xercesc_2_723SchemaDateTimeExceptionC2EPKcjNS_10XMLExcepts5CodesEPNS_13MemoryManagerE(%"class.xercesc_2_7::SchemaDateTimeException"* %3, i8* getelementptr inbounds ([31 x i8], [31 x i8]* @.str.2, i64 0, i64 0), i32 341, i32 321, %"class.xercesc_2_7::MemoryManager"* %4)
          to label %invoke.cont unwind label %lpad, !dbg !2498

invoke.cont:                                      ; preds = %if.then
  call void @__cxa_throw(i8* %exception, i8* bitcast ({ i8*, i8*, i8* }* @_ZTIN11xercesc_2_723SchemaDateTimeExceptionE to i8*), i8* bitcast (void (%"class.xercesc_2_7::SchemaDateTimeException"*)* @_ZN11xercesc_2_723SchemaDateTimeExceptionD2Ev to i8*)) #13, !dbg !2498
  unreachable, !dbg !2498

lpad:                                             ; preds = %if.then
  %5 = landingpad { i8*, i32 }
          cleanup, !dbg !2500
  %6 = extractvalue { i8*, i32 } %5, 0, !dbg !2500
  store i8* %6, i8** %exn.slot, align 8, !dbg !2500
  %7 = extractvalue { i8*, i32 } %5, 1, !dbg !2500
  store i32 %7, i32* %ehselector.slot, align 4, !dbg !2500
  call void @__cxa_free_exception(i8* %exception) #9, !dbg !2498
  br label %eh.resume, !dbg !2498

if.end:                                           ; preds = %lor.lhs.false
  ret void, !dbg !2501

eh.resume:                                        ; preds = %lpad
  %exn = load i8*, i8** %exn.slot, align 8, !dbg !2498
  %sel = load i32, i32* %ehselector.slot, align 4, !dbg !2498
  %lpad.val = insertvalue { i8*, i32 } undef, i8* %exn, 0, !dbg !2498
  %lpad.val3 = insertvalue { i8*, i32 } %lpad.val, i32 %sel, 1, !dbg !2498
  resume { i8*, i32 } %lpad.val3, !dbg !2498
}

declare dso_local i16* @_ZN11xercesc_2_79XMLString9replicateEPKt(i16*) #6

; Function Attrs: noinline uwtable
define dso_local i16* @_ZNK11xercesc_2_711XMLDateTime10getRawDataEv(%"class.xercesc_2_7::XMLDateTime"* %this) unnamed_addr #3 align 2 !dbg !2502 {
entry:
  %this.addr = alloca %"class.xercesc_2_7::XMLDateTime"*, align 8
  store %"class.xercesc_2_7::XMLDateTime"* %this, %"class.xercesc_2_7::XMLDateTime"** %this.addr, align 8
  call void @llvm.dbg.declare(metadata %"class.xercesc_2_7::XMLDateTime"** %this.addr, metadata !2503, metadata !DIExpression()), !dbg !2504
  %this1 = load %"class.xercesc_2_7::XMLDateTime"*, %"class.xercesc_2_7::XMLDateTime"** %this.addr, align 8
  call void @_ZNK11xercesc_2_711XMLDateTime12assertBufferEv(%"class.xercesc_2_7::XMLDateTime"* %this1), !dbg !2505
  %fBuffer = getelementptr inbounds %"class.xercesc_2_7::XMLDateTime", %"class.xercesc_2_7::XMLDateTime"* %this1, i32 0, i32 8, !dbg !2506
  %0 = load i16*, i16** %fBuffer, align 8, !dbg !2506
  ret i16* %0, !dbg !2507
}

; Function Attrs: noinline uwtable
define dso_local i16* @_ZNK11xercesc_2_711XMLDateTime18getFormattedStringEv(%"class.xercesc_2_7::XMLDateTime"* %this) unnamed_addr #3 align 2 !dbg !2508 {
entry:
  %this.addr = alloca %"class.xercesc_2_7::XMLDateTime"*, align 8
  store %"class.xercesc_2_7::XMLDateTime"* %this, %"class.xercesc_2_7::XMLDateTime"** %this.addr, align 8
  call void @llvm.dbg.declare(metadata %"class.xercesc_2_7::XMLDateTime"** %this.addr, metadata !2509, metadata !DIExpression()), !dbg !2510
  %this1 = load %"class.xercesc_2_7::XMLDateTime"*, %"class.xercesc_2_7::XMLDateTime"** %this.addr, align 8
  %0 = bitcast %"class.xercesc_2_7::XMLDateTime"* %this1 to i16* (%"class.xercesc_2_7::XMLDateTime"*)***, !dbg !2511
  %vtable = load i16* (%"class.xercesc_2_7::XMLDateTime"*)**, i16* (%"class.xercesc_2_7::XMLDateTime"*)*** %0, align 8, !dbg !2511
  %vfn = getelementptr inbounds i16* (%"class.xercesc_2_7::XMLDateTime"*)*, i16* (%"class.xercesc_2_7::XMLDateTime"*)** %vtable, i64 6, !dbg !2511
  %1 = load i16* (%"class.xercesc_2_7::XMLDateTime"*)*, i16* (%"class.xercesc_2_7::XMLDateTime"*)** %vfn, align 8, !dbg !2511
  %call = call i16* %1(%"class.xercesc_2_7::XMLDateTime"* %this1), !dbg !2511
  ret i16* %call, !dbg !2512
}

; Function Attrs: noinline nounwind uwtable
define dso_local i32 @_ZNK11xercesc_2_711XMLDateTime7getSignEv(%"class.xercesc_2_7::XMLDateTime"* %this) unnamed_addr #1 align 2 !dbg !2513 {
entry:
  %this.addr = alloca %"class.xercesc_2_7::XMLDateTime"*, align 8
  store %"class.xercesc_2_7::XMLDateTime"* %this, %"class.xercesc_2_7::XMLDateTime"** %this.addr, align 8
  call void @llvm.dbg.declare(metadata %"class.xercesc_2_7::XMLDateTime"** %this.addr, metadata !2514, metadata !DIExpression()), !dbg !2515
  %this1 = load %"class.xercesc_2_7::XMLDateTime"*, %"class.xercesc_2_7::XMLDateTime"** %this.addr, align 8
  ret i32 0, !dbg !2516
}

; Function Attrs: noinline uwtable
define dso_local void @_ZN11xercesc_2_711XMLDateTime13parseDateTimeEv(%"class.xercesc_2_7::XMLDateTime"* %this) #3 align 2 personality i8* bitcast (i32 (...)* @__gxx_personality_v0 to i8*) !dbg !2517 {
entry:
  %this.addr = alloca %"class.xercesc_2_7::XMLDateTime"*, align 8
  %exn.slot = alloca i8*
  %ehselector.slot = alloca i32
  store %"class.xercesc_2_7::XMLDateTime"* %this, %"class.xercesc_2_7::XMLDateTime"** %this.addr, align 8
  call void @llvm.dbg.declare(metadata %"class.xercesc_2_7::XMLDateTime"** %this.addr, metadata !2518, metadata !DIExpression()), !dbg !2519
  %this1 = load %"class.xercesc_2_7::XMLDateTime"*, %"class.xercesc_2_7::XMLDateTime"** %this.addr, align 8
  call void @_ZN11xercesc_2_711XMLDateTime10initParserEv(%"class.xercesc_2_7::XMLDateTime"* %this1), !dbg !2520
  call void @_ZN11xercesc_2_711XMLDateTime7getDateEv(%"class.xercesc_2_7::XMLDateTime"* %this1), !dbg !2521
  %fBuffer = getelementptr inbounds %"class.xercesc_2_7::XMLDateTime", %"class.xercesc_2_7::XMLDateTime"* %this1, i32 0, i32 8, !dbg !2522
  %0 = load i16*, i16** %fBuffer, align 8, !dbg !2522
  %fStart = getelementptr inbounds %"class.xercesc_2_7::XMLDateTime", %"class.xercesc_2_7::XMLDateTime"* %this1, i32 0, i32 3, !dbg !2524
  %1 = load i32, i32* %fStart, align 8, !dbg !2525
  %inc = add nsw i32 %1, 1, !dbg !2525
  store i32 %inc, i32* %fStart, align 8, !dbg !2525
  %idxprom = sext i32 %1 to i64, !dbg !2522
  %arrayidx = getelementptr inbounds i16, i16* %0, i64 %idxprom, !dbg !2522
  %2 = load i16, i16* %arrayidx, align 2, !dbg !2522
  %conv = zext i16 %2 to i32, !dbg !2522
  %cmp = icmp ne i32 %conv, 84, !dbg !2526
  br i1 %cmp, label %if.then, label %if.end, !dbg !2527

if.then:                                          ; preds = %entry
  %exception = call i8* @__cxa_allocate_exception(i64 48) #9, !dbg !2528
  %3 = bitcast i8* %exception to %"class.xercesc_2_7::SchemaDateTimeException"*, !dbg !2528
  %fBuffer2 = getelementptr inbounds %"class.xercesc_2_7::XMLDateTime", %"class.xercesc_2_7::XMLDateTime"* %this1, i32 0, i32 8, !dbg !2528
  %4 = load i16*, i16** %fBuffer2, align 8, !dbg !2528
  %fMemoryManager = getelementptr inbounds %"class.xercesc_2_7::XMLDateTime", %"class.xercesc_2_7::XMLDateTime"* %this1, i32 0, i32 9, !dbg !2528
  %5 = load %"class.xercesc_2_7::MemoryManager"*, %"class.xercesc_2_7::MemoryManager"** %fMemoryManager, align 8, !dbg !2528
  invoke void @_ZN11xercesc_2_723SchemaDateTimeExceptionC2EPKcjNS_10XMLExcepts5CodesEPKtS6_S6_S6_PNS_13MemoryManagerE(%"class.xercesc_2_7::SchemaDateTimeException"* %3, i8* getelementptr inbounds ([16 x i8], [16 x i8]* @.str, i64 0, i64 0), i32 537, i32 322, i16* %4, i16* null, i16* null, i16* null, %"class.xercesc_2_7::MemoryManager"* %5)
          to label %invoke.cont unwind label %lpad, !dbg !2528

invoke.cont:                                      ; preds = %if.then
  call void @__cxa_throw(i8* %exception, i8* bitcast ({ i8*, i8*, i8* }* @_ZTIN11xercesc_2_723SchemaDateTimeExceptionE to i8*), i8* bitcast (void (%"class.xercesc_2_7::SchemaDateTimeException"*)* @_ZN11xercesc_2_723SchemaDateTimeExceptionD2Ev to i8*)) #13, !dbg !2528
  unreachable, !dbg !2528

lpad:                                             ; preds = %if.then
  %6 = landingpad { i8*, i32 }
          cleanup, !dbg !2529
  %7 = extractvalue { i8*, i32 } %6, 0, !dbg !2529
  store i8* %7, i8** %exn.slot, align 8, !dbg !2529
  %8 = extractvalue { i8*, i32 } %6, 1, !dbg !2529
  store i32 %8, i32* %ehselector.slot, align 4, !dbg !2529
  call void @__cxa_free_exception(i8* %exception) #9, !dbg !2528
  br label %eh.resume, !dbg !2528

if.end:                                           ; preds = %entry
  call void @_ZN11xercesc_2_711XMLDateTime7getTimeEv(%"class.xercesc_2_7::XMLDateTime"* %this1), !dbg !2530
  call void @_ZNK11xercesc_2_711XMLDateTime16validateDateTimeEv(%"class.xercesc_2_7::XMLDateTime"* %this1), !dbg !2531
  call void @_ZN11xercesc_2_711XMLDateTime9normalizeEv(%"class.xercesc_2_7::XMLDateTime"* %this1), !dbg !2532
  %fHasTime = getelementptr inbounds %"class.xercesc_2_7::XMLDateTime", %"class.xercesc_2_7::XMLDateTime"* %this1, i32 0, i32 7, !dbg !2533
  store i8 1, i8* %fHasTime, align 8, !dbg !2534
  ret void, !dbg !2535

eh.resume:                                        ; preds = %lpad
  %exn = load i8*, i8** %exn.slot, align 8, !dbg !2528
  %sel = load i32, i32* %ehselector.slot, align 4, !dbg !2528
  %lpad.val = insertvalue { i8*, i32 } undef, i8* %exn, 0, !dbg !2528
  %lpad.val3 = insertvalue { i8*, i32 } %lpad.val, i32 %sel, 1, !dbg !2528
  resume { i8*, i32 } %lpad.val3, !dbg !2528
}

; Function Attrs: noinline uwtable
define linkonce_odr dso_local void @_ZN11xercesc_2_711XMLDateTime10initParserEv(%"class.xercesc_2_7::XMLDateTime"* %this) #3 comdat align 2 !dbg !2536 {
entry:
  %this.addr = alloca %"class.xercesc_2_7::XMLDateTime"*, align 8
  store %"class.xercesc_2_7::XMLDateTime"* %this, %"class.xercesc_2_7::XMLDateTime"** %this.addr, align 8
  call void @llvm.dbg.declare(metadata %"class.xercesc_2_7::XMLDateTime"** %this.addr, metadata !2537, metadata !DIExpression()), !dbg !2538
  %this1 = load %"class.xercesc_2_7::XMLDateTime"*, %"class.xercesc_2_7::XMLDateTime"** %this.addr, align 8
  call void @_ZNK11xercesc_2_711XMLDateTime12assertBufferEv(%"class.xercesc_2_7::XMLDateTime"* %this1), !dbg !2539
  %fStart = getelementptr inbounds %"class.xercesc_2_7::XMLDateTime", %"class.xercesc_2_7::XMLDateTime"* %this1, i32 0, i32 3, !dbg !2540
  store i32 0, i32* %fStart, align 8, !dbg !2541
  ret void, !dbg !2542
}

; Function Attrs: noinline uwtable
define dso_local void @_ZN11xercesc_2_711XMLDateTime7getDateEv(%"class.xercesc_2_7::XMLDateTime"* %this) #3 align 2 personality i8* bitcast (i32 (...)* @__gxx_personality_v0 to i8*) !dbg !2543 {
entry:
  %this.addr = alloca %"class.xercesc_2_7::XMLDateTime"*, align 8
  %exn.slot = alloca i8*
  %ehselector.slot = alloca i32
  store %"class.xercesc_2_7::XMLDateTime"* %this, %"class.xercesc_2_7::XMLDateTime"** %this.addr, align 8
  call void @llvm.dbg.declare(metadata %"class.xercesc_2_7::XMLDateTime"** %this.addr, metadata !2544, metadata !DIExpression()), !dbg !2545
  %this1 = load %"class.xercesc_2_7::XMLDateTime"*, %"class.xercesc_2_7::XMLDateTime"** %this.addr, align 8
  %fStart = getelementptr inbounds %"class.xercesc_2_7::XMLDateTime", %"class.xercesc_2_7::XMLDateTime"* %this1, i32 0, i32 3, !dbg !2546
  %0 = load i32, i32* %fStart, align 8, !dbg !2546
  %add = add nsw i32 %0, 10, !dbg !2548
  %fEnd = getelementptr inbounds %"class.xercesc_2_7::XMLDateTime", %"class.xercesc_2_7::XMLDateTime"* %this1, i32 0, i32 4, !dbg !2549
  %1 = load i32, i32* %fEnd, align 4, !dbg !2549
  %cmp = icmp sgt i32 %add, %1, !dbg !2550
  br i1 %cmp, label %if.then, label %if.end, !dbg !2551

if.then:                                          ; preds = %entry
  %exception = call i8* @__cxa_allocate_exception(i64 48) #9, !dbg !2552
  %2 = bitcast i8* %exception to %"class.xercesc_2_7::SchemaDateTimeException"*, !dbg !2552
  %fBuffer = getelementptr inbounds %"class.xercesc_2_7::XMLDateTime", %"class.xercesc_2_7::XMLDateTime"* %this1, i32 0, i32 8, !dbg !2552
  %3 = load i16*, i16** %fBuffer, align 8, !dbg !2552
  %fMemoryManager = getelementptr inbounds %"class.xercesc_2_7::XMLDateTime", %"class.xercesc_2_7::XMLDateTime"* %this1, i32 0, i32 9, !dbg !2552
  %4 = load %"class.xercesc_2_7::MemoryManager"*, %"class.xercesc_2_7::MemoryManager"** %fMemoryManager, align 8, !dbg !2552
  invoke void @_ZN11xercesc_2_723SchemaDateTimeExceptionC2EPKcjNS_10XMLExcepts5CodesEPKtS6_S6_S6_PNS_13MemoryManagerE(%"class.xercesc_2_7::SchemaDateTimeException"* %2, i8* getelementptr inbounds ([16 x i8], [16 x i8]* @.str, i64 0, i64 0), i32 964, i32 333, i16* %3, i16* null, i16* null, i16* null, %"class.xercesc_2_7::MemoryManager"* %4)
          to label %invoke.cont unwind label %lpad, !dbg !2552

invoke.cont:                                      ; preds = %if.then
  call void @__cxa_throw(i8* %exception, i8* bitcast ({ i8*, i8*, i8* }* @_ZTIN11xercesc_2_723SchemaDateTimeExceptionE to i8*), i8* bitcast (void (%"class.xercesc_2_7::SchemaDateTimeException"*)* @_ZN11xercesc_2_723SchemaDateTimeExceptionD2Ev to i8*)) #13, !dbg !2552
  unreachable, !dbg !2552

lpad:                                             ; preds = %if.then
  %5 = landingpad { i8*, i32 }
          cleanup, !dbg !2553
  %6 = extractvalue { i8*, i32 } %5, 0, !dbg !2553
  store i8* %6, i8** %exn.slot, align 8, !dbg !2553
  %7 = extractvalue { i8*, i32 } %5, 1, !dbg !2553
  store i32 %7, i32* %ehselector.slot, align 4, !dbg !2553
  call void @__cxa_free_exception(i8* %exception) #9, !dbg !2552
  br label %eh.resume, !dbg !2552

if.end:                                           ; preds = %entry
  call void @_ZN11xercesc_2_711XMLDateTime12getYearMonthEv(%"class.xercesc_2_7::XMLDateTime"* %this1), !dbg !2554
  %fBuffer2 = getelementptr inbounds %"class.xercesc_2_7::XMLDateTime", %"class.xercesc_2_7::XMLDateTime"* %this1, i32 0, i32 8, !dbg !2555
  %8 = load i16*, i16** %fBuffer2, align 8, !dbg !2555
  %fStart3 = getelementptr inbounds %"class.xercesc_2_7::XMLDateTime", %"class.xercesc_2_7::XMLDateTime"* %this1, i32 0, i32 3, !dbg !2557
  %9 = load i32, i32* %fStart3, align 8, !dbg !2558
  %inc = add nsw i32 %9, 1, !dbg !2558
  store i32 %inc, i32* %fStart3, align 8, !dbg !2558
  %idxprom = sext i32 %9 to i64, !dbg !2555
  %arrayidx = getelementptr inbounds i16, i16* %8, i64 %idxprom, !dbg !2555
  %10 = load i16, i16* %arrayidx, align 2, !dbg !2555
  %conv = zext i16 %10 to i32, !dbg !2555
  %cmp4 = icmp ne i32 %conv, 45, !dbg !2559
  br i1 %cmp4, label %if.then5, label %if.end11, !dbg !2560

if.then5:                                         ; preds = %if.end
  %exception6 = call i8* @__cxa_allocate_exception(i64 48) #9, !dbg !2561
  %11 = bitcast i8* %exception6 to %"class.xercesc_2_7::SchemaDateTimeException"*, !dbg !2561
  %fBuffer7 = getelementptr inbounds %"class.xercesc_2_7::XMLDateTime", %"class.xercesc_2_7::XMLDateTime"* %this1, i32 0, i32 8, !dbg !2561
  %12 = load i16*, i16** %fBuffer7, align 8, !dbg !2561
  %fMemoryManager8 = getelementptr inbounds %"class.xercesc_2_7::XMLDateTime", %"class.xercesc_2_7::XMLDateTime"* %this1, i32 0, i32 9, !dbg !2561
  %13 = load %"class.xercesc_2_7::MemoryManager"*, %"class.xercesc_2_7::MemoryManager"** %fMemoryManager8, align 8, !dbg !2561
  invoke void @_ZN11xercesc_2_723SchemaDateTimeExceptionC2EPKcjNS_10XMLExcepts5CodesEPKtS6_S6_S6_PNS_13MemoryManagerE(%"class.xercesc_2_7::SchemaDateTimeException"* %11, i8* getelementptr inbounds ([16 x i8], [16 x i8]* @.str, i64 0, i64 0), i32 974, i32 334, i16* %12, i16* null, i16* null, i16* null, %"class.xercesc_2_7::MemoryManager"* %13)
          to label %invoke.cont10 unwind label %lpad9, !dbg !2561

invoke.cont10:                                    ; preds = %if.then5
  call void @__cxa_throw(i8* %exception6, i8* bitcast ({ i8*, i8*, i8* }* @_ZTIN11xercesc_2_723SchemaDateTimeExceptionE to i8*), i8* bitcast (void (%"class.xercesc_2_7::SchemaDateTimeException"*)* @_ZN11xercesc_2_723SchemaDateTimeExceptionD2Ev to i8*)) #13, !dbg !2561
  unreachable, !dbg !2561

lpad9:                                            ; preds = %if.then5
  %14 = landingpad { i8*, i32 }
          cleanup, !dbg !2563
  %15 = extractvalue { i8*, i32 } %14, 0, !dbg !2563
  store i8* %15, i8** %exn.slot, align 8, !dbg !2563
  %16 = extractvalue { i8*, i32 } %14, 1, !dbg !2563
  store i32 %16, i32* %ehselector.slot, align 4, !dbg !2563
  call void @__cxa_free_exception(i8* %exception6) #9, !dbg !2561
  br label %eh.resume, !dbg !2561

if.end11:                                         ; preds = %if.end
  %fStart12 = getelementptr inbounds %"class.xercesc_2_7::XMLDateTime", %"class.xercesc_2_7::XMLDateTime"* %this1, i32 0, i32 3, !dbg !2564
  %17 = load i32, i32* %fStart12, align 8, !dbg !2564
  %fStart13 = getelementptr inbounds %"class.xercesc_2_7::XMLDateTime", %"class.xercesc_2_7::XMLDateTime"* %this1, i32 0, i32 3, !dbg !2565
  %18 = load i32, i32* %fStart13, align 8, !dbg !2565
  %add14 = add nsw i32 %18, 2, !dbg !2566
  %call = call i32 @_ZNK11xercesc_2_711XMLDateTime8parseIntEii(%"class.xercesc_2_7::XMLDateTime"* %this1, i32 %17, i32 %add14), !dbg !2567
  %fValue = getelementptr inbounds %"class.xercesc_2_7::XMLDateTime", %"class.xercesc_2_7::XMLDateTime"* %this1, i32 0, i32 1, !dbg !2568
  %arrayidx15 = getelementptr inbounds [8 x i32], [8 x i32]* %fValue, i64 0, i64 2, !dbg !2568
  store i32 %call, i32* %arrayidx15, align 8, !dbg !2569
  %fStart16 = getelementptr inbounds %"class.xercesc_2_7::XMLDateTime", %"class.xercesc_2_7::XMLDateTime"* %this1, i32 0, i32 3, !dbg !2570
  %19 = load i32, i32* %fStart16, align 8, !dbg !2571
  %add17 = add nsw i32 %19, 2, !dbg !2571
  store i32 %add17, i32* %fStart16, align 8, !dbg !2571
  ret void, !dbg !2572

eh.resume:                                        ; preds = %lpad9, %lpad
  %exn = load i8*, i8** %exn.slot, align 8, !dbg !2552
  %sel = load i32, i32* %ehselector.slot, align 4, !dbg !2552
  %lpad.val = insertvalue { i8*, i32 } undef, i8* %exn, 0, !dbg !2552
  %lpad.val18 = insertvalue { i8*, i32 } %lpad.val, i32 %sel, 1, !dbg !2552
  resume { i8*, i32 } %lpad.val18, !dbg !2552
}

declare dso_local i8* @__cxa_allocate_exception(i64)

; Function Attrs: noinline uwtable
define linkonce_odr dso_local void @_ZN11xercesc_2_723SchemaDateTimeExceptionC2EPKcjNS_10XMLExcepts5CodesEPKtS6_S6_S6_PNS_13MemoryManagerE(%"class.xercesc_2_7::SchemaDateTimeException"* %this, i8* %srcFile, i32 %srcLine, i32 %toThrow, i16* %text1, i16* %text2, i16* %text3, i16* %text4, %"class.xercesc_2_7::MemoryManager"* %memoryManager) unnamed_addr #3 comdat align 2 personality i8* bitcast (i32 (...)* @__gxx_personality_v0 to i8*) !dbg !2573 {
entry:
  %this.addr = alloca %"class.xercesc_2_7::SchemaDateTimeException"*, align 8
  %srcFile.addr = alloca i8*, align 8
  %srcLine.addr = alloca i32, align 4
  %toThrow.addr = alloca i32, align 4
  %text1.addr = alloca i16*, align 8
  %text2.addr = alloca i16*, align 8
  %text3.addr = alloca i16*, align 8
  %text4.addr = alloca i16*, align 8
  %memoryManager.addr = alloca %"class.xercesc_2_7::MemoryManager"*, align 8
  %exn.slot = alloca i8*
  %ehselector.slot = alloca i32
  store %"class.xercesc_2_7::SchemaDateTimeException"* %this, %"class.xercesc_2_7::SchemaDateTimeException"** %this.addr, align 8
  call void @llvm.dbg.declare(metadata %"class.xercesc_2_7::SchemaDateTimeException"** %this.addr, metadata !2613, metadata !DIExpression()), !dbg !2615
  store i8* %srcFile, i8** %srcFile.addr, align 8
  call void @llvm.dbg.declare(metadata i8** %srcFile.addr, metadata !2616, metadata !DIExpression()), !dbg !2617
  store i32 %srcLine, i32* %srcLine.addr, align 4
  call void @llvm.dbg.declare(metadata i32* %srcLine.addr, metadata !2618, metadata !DIExpression()), !dbg !2617
  store i32 %toThrow, i32* %toThrow.addr, align 4
  call void @llvm.dbg.declare(metadata i32* %toThrow.addr, metadata !2619, metadata !DIExpression()), !dbg !2617
  store i16* %text1, i16** %text1.addr, align 8
  call void @llvm.dbg.declare(metadata i16** %text1.addr, metadata !2620, metadata !DIExpression()), !dbg !2617
  store i16* %text2, i16** %text2.addr, align 8
  call void @llvm.dbg.declare(metadata i16** %text2.addr, metadata !2621, metadata !DIExpression()), !dbg !2617
  store i16* %text3, i16** %text3.addr, align 8
  call void @llvm.dbg.declare(metadata i16** %text3.addr, metadata !2622, metadata !DIExpression()), !dbg !2617
  store i16* %text4, i16** %text4.addr, align 8
  call void @llvm.dbg.declare(metadata i16** %text4.addr, metadata !2623, metadata !DIExpression()), !dbg !2617
  store %"class.xercesc_2_7::MemoryManager"* %memoryManager, %"class.xercesc_2_7::MemoryManager"** %memoryManager.addr, align 8
  call void @llvm.dbg.declare(metadata %"class.xercesc_2_7::MemoryManager"** %memoryManager.addr, metadata !2624, metadata !DIExpression()), !dbg !2617
  %this1 = load %"class.xercesc_2_7::SchemaDateTimeException"*, %"class.xercesc_2_7::SchemaDateTimeException"** %this.addr, align 8
  %0 = bitcast %"class.xercesc_2_7::SchemaDateTimeException"* %this1 to %"class.xercesc_2_7::XMLException"*, !dbg !2617
  %1 = load i8*, i8** %srcFile.addr, align 8, !dbg !2617
  %2 = load i32, i32* %srcLine.addr, align 4, !dbg !2617
  %3 = load %"class.xercesc_2_7::MemoryManager"*, %"class.xercesc_2_7::MemoryManager"** %memoryManager.addr, align 8, !dbg !2617
  call void @_ZN11xercesc_2_712XMLExceptionC2EPKcjPNS_13MemoryManagerE(%"class.xercesc_2_7::XMLException"* %0, i8* %1, i32 %2, %"class.xercesc_2_7::MemoryManager"* %3), !dbg !2617
  %4 = bitcast %"class.xercesc_2_7::SchemaDateTimeException"* %this1 to i32 (...)***, !dbg !2617
  store i32 (...)** bitcast (i8** getelementptr inbounds ({ [6 x i8*] }, { [6 x i8*] }* @_ZTVN11xercesc_2_723SchemaDateTimeExceptionE, i32 0, inrange i32 0, i32 2) to i32 (...)**), i32 (...)*** %4, align 8, !dbg !2617
  %5 = bitcast %"class.xercesc_2_7::SchemaDateTimeException"* %this1 to %"class.xercesc_2_7::XMLException"*, !dbg !2625
  %6 = load i32, i32* %toThrow.addr, align 4, !dbg !2625
  %7 = load i16*, i16** %text1.addr, align 8, !dbg !2625
  %8 = load i16*, i16** %text2.addr, align 8, !dbg !2625
  %9 = load i16*, i16** %text3.addr, align 8, !dbg !2625
  %10 = load i16*, i16** %text4.addr, align 8, !dbg !2625
  invoke void @_ZN11xercesc_2_712XMLException14loadExceptTextENS_10XMLExcepts5CodesEPKtS4_S4_S4_(%"class.xercesc_2_7::XMLException"* %5, i32 %6, i16* %7, i16* %8, i16* %9, i16* %10)
          to label %invoke.cont unwind label %lpad, !dbg !2625

invoke.cont:                                      ; preds = %entry
  ret void, !dbg !2617

lpad:                                             ; preds = %entry
  %11 = landingpad { i8*, i32 }
          cleanup, !dbg !2625
  %12 = extractvalue { i8*, i32 } %11, 0, !dbg !2625
  store i8* %12, i8** %exn.slot, align 8, !dbg !2625
  %13 = extractvalue { i8*, i32 } %11, 1, !dbg !2625
  store i32 %13, i32* %ehselector.slot, align 4, !dbg !2625
  %14 = bitcast %"class.xercesc_2_7::SchemaDateTimeException"* %this1 to %"class.xercesc_2_7::XMLException"*, !dbg !2625
  call void @_ZN11xercesc_2_712XMLExceptionD2Ev(%"class.xercesc_2_7::XMLException"* %14) #9, !dbg !2625
  br label %eh.resume, !dbg !2625

eh.resume:                                        ; preds = %lpad
  %exn = load i8*, i8** %exn.slot, align 8, !dbg !2625
  %sel = load i32, i32* %ehselector.slot, align 4, !dbg !2625
  %lpad.val = insertvalue { i8*, i32 } undef, i8* %exn, 0, !dbg !2625
  %lpad.val2 = insertvalue { i8*, i32 } %lpad.val, i32 %sel, 1, !dbg !2625
  resume { i8*, i32 } %lpad.val2, !dbg !2625
}

declare dso_local void @__cxa_free_exception(i8*)

; Function Attrs: noinline nounwind uwtable
define linkonce_odr dso_local void @_ZN11xercesc_2_723SchemaDateTimeExceptionD2Ev(%"class.xercesc_2_7::SchemaDateTimeException"* %this) unnamed_addr #1 comdat align 2 !dbg !2627 {
entry:
  %this.addr = alloca %"class.xercesc_2_7::SchemaDateTimeException"*, align 8
  store %"class.xercesc_2_7::SchemaDateTimeException"* %this, %"class.xercesc_2_7::SchemaDateTimeException"** %this.addr, align 8
  call void @llvm.dbg.declare(metadata %"class.xercesc_2_7::SchemaDateTimeException"** %this.addr, metadata !2628, metadata !DIExpression()), !dbg !2629
  %this1 = load %"class.xercesc_2_7::SchemaDateTimeException"*, %"class.xercesc_2_7::SchemaDateTimeException"** %this.addr, align 8
  %0 = bitcast %"class.xercesc_2_7::SchemaDateTimeException"* %this1 to %"class.xercesc_2_7::XMLException"*, !dbg !2630
  call void @_ZN11xercesc_2_712XMLExceptionD2Ev(%"class.xercesc_2_7::XMLException"* %0) #9, !dbg !2630
  ret void, !dbg !2632
}

declare dso_local void @__cxa_throw(i8*, i8*, i8*)

; Function Attrs: noinline uwtable
define dso_local void @_ZN11xercesc_2_711XMLDateTime7getTimeEv(%"class.xercesc_2_7::XMLDateTime"* %this) #3 align 2 personality i8* bitcast (i32 (...)* @__gxx_personality_v0 to i8*) !dbg !2633 {
entry:
  %this.addr = alloca %"class.xercesc_2_7::XMLDateTime"*, align 8
  %exn.slot = alloca i8*
  %ehselector.slot = alloca i32
  %sign = alloca i32, align 4
  %milisec = alloca i32, align 4
  store %"class.xercesc_2_7::XMLDateTime"* %this, %"class.xercesc_2_7::XMLDateTime"** %this.addr, align 8
  call void @llvm.dbg.declare(metadata %"class.xercesc_2_7::XMLDateTime"** %this.addr, metadata !2634, metadata !DIExpression()), !dbg !2635
  %this1 = load %"class.xercesc_2_7::XMLDateTime"*, %"class.xercesc_2_7::XMLDateTime"** %this.addr, align 8
  %fStart = getelementptr inbounds %"class.xercesc_2_7::XMLDateTime", %"class.xercesc_2_7::XMLDateTime"* %this1, i32 0, i32 3, !dbg !2636
  %0 = load i32, i32* %fStart, align 8, !dbg !2636
  %add = add nsw i32 %0, 8, !dbg !2638
  %fEnd = getelementptr inbounds %"class.xercesc_2_7::XMLDateTime", %"class.xercesc_2_7::XMLDateTime"* %this1, i32 0, i32 4, !dbg !2639
  %1 = load i32, i32* %fEnd, align 4, !dbg !2639
  %cmp = icmp sgt i32 %add, %1, !dbg !2640
  br i1 %cmp, label %if.then, label %if.end, !dbg !2641

if.then:                                          ; preds = %entry
  %exception = call i8* @__cxa_allocate_exception(i64 48) #9, !dbg !2642
  %2 = bitcast i8* %exception to %"class.xercesc_2_7::SchemaDateTimeException"*, !dbg !2642
  %fBuffer = getelementptr inbounds %"class.xercesc_2_7::XMLDateTime", %"class.xercesc_2_7::XMLDateTime"* %this1, i32 0, i32 8, !dbg !2642
  %3 = load i16*, i16** %fBuffer, align 8, !dbg !2642
  %fMemoryManager = getelementptr inbounds %"class.xercesc_2_7::XMLDateTime", %"class.xercesc_2_7::XMLDateTime"* %this1, i32 0, i32 9, !dbg !2642
  %4 = load %"class.xercesc_2_7::MemoryManager"*, %"class.xercesc_2_7::MemoryManager"** %fMemoryManager, align 8, !dbg !2642
  invoke void @_ZN11xercesc_2_723SchemaDateTimeExceptionC2EPKcjNS_10XMLExcepts5CodesEPKtS6_S6_S6_PNS_13MemoryManagerE(%"class.xercesc_2_7::SchemaDateTimeException"* %2, i8* getelementptr inbounds ([16 x i8], [16 x i8]* @.str, i64 0, i64 0), i32 1001, i32 335, i16* %3, i16* null, i16* null, i16* null, %"class.xercesc_2_7::MemoryManager"* %4)
          to label %invoke.cont unwind label %lpad, !dbg !2642

invoke.cont:                                      ; preds = %if.then
  call void @__cxa_throw(i8* %exception, i8* bitcast ({ i8*, i8*, i8* }* @_ZTIN11xercesc_2_723SchemaDateTimeExceptionE to i8*), i8* bitcast (void (%"class.xercesc_2_7::SchemaDateTimeException"*)* @_ZN11xercesc_2_723SchemaDateTimeExceptionD2Ev to i8*)) #13, !dbg !2642
  unreachable, !dbg !2642

lpad:                                             ; preds = %if.then
  %5 = landingpad { i8*, i32 }
          cleanup, !dbg !2643
  %6 = extractvalue { i8*, i32 } %5, 0, !dbg !2643
  store i8* %6, i8** %exn.slot, align 8, !dbg !2643
  %7 = extractvalue { i8*, i32 } %5, 1, !dbg !2643
  store i32 %7, i32* %ehselector.slot, align 4, !dbg !2643
  call void @__cxa_free_exception(i8* %exception) #9, !dbg !2642
  br label %eh.resume, !dbg !2642

if.end:                                           ; preds = %entry
  %fBuffer2 = getelementptr inbounds %"class.xercesc_2_7::XMLDateTime", %"class.xercesc_2_7::XMLDateTime"* %this1, i32 0, i32 8, !dbg !2644
  %8 = load i16*, i16** %fBuffer2, align 8, !dbg !2644
  %fStart3 = getelementptr inbounds %"class.xercesc_2_7::XMLDateTime", %"class.xercesc_2_7::XMLDateTime"* %this1, i32 0, i32 3, !dbg !2646
  %9 = load i32, i32* %fStart3, align 8, !dbg !2646
  %add4 = add nsw i32 %9, 2, !dbg !2647
  %idxprom = sext i32 %add4 to i64, !dbg !2644
  %arrayidx = getelementptr inbounds i16, i16* %8, i64 %idxprom, !dbg !2644
  %10 = load i16, i16* %arrayidx, align 2, !dbg !2644
  %conv = zext i16 %10 to i32, !dbg !2644
  %cmp5 = icmp ne i32 %conv, 58, !dbg !2648
  br i1 %cmp5, label %if.then13, label %lor.lhs.false, !dbg !2649

lor.lhs.false:                                    ; preds = %if.end
  %fBuffer6 = getelementptr inbounds %"class.xercesc_2_7::XMLDateTime", %"class.xercesc_2_7::XMLDateTime"* %this1, i32 0, i32 8, !dbg !2650
  %11 = load i16*, i16** %fBuffer6, align 8, !dbg !2650
  %fStart7 = getelementptr inbounds %"class.xercesc_2_7::XMLDateTime", %"class.xercesc_2_7::XMLDateTime"* %this1, i32 0, i32 3, !dbg !2651
  %12 = load i32, i32* %fStart7, align 8, !dbg !2651
  %add8 = add nsw i32 %12, 5, !dbg !2652
  %idxprom9 = sext i32 %add8 to i64, !dbg !2650
  %arrayidx10 = getelementptr inbounds i16, i16* %11, i64 %idxprom9, !dbg !2650
  %13 = load i16, i16* %arrayidx10, align 2, !dbg !2650
  %conv11 = zext i16 %13 to i32, !dbg !2650
  %cmp12 = icmp ne i32 %conv11, 58, !dbg !2653
  br i1 %cmp12, label %if.then13, label %if.end19, !dbg !2654

if.then13:                                        ; preds = %lor.lhs.false, %if.end
  %exception14 = call i8* @__cxa_allocate_exception(i64 48) #9, !dbg !2655
  %14 = bitcast i8* %exception14 to %"class.xercesc_2_7::SchemaDateTimeException"*, !dbg !2655
  %fBuffer15 = getelementptr inbounds %"class.xercesc_2_7::XMLDateTime", %"class.xercesc_2_7::XMLDateTime"* %this1, i32 0, i32 8, !dbg !2655
  %15 = load i16*, i16** %fBuffer15, align 8, !dbg !2655
  %fMemoryManager16 = getelementptr inbounds %"class.xercesc_2_7::XMLDateTime", %"class.xercesc_2_7::XMLDateTime"* %this1, i32 0, i32 9, !dbg !2655
  %16 = load %"class.xercesc_2_7::MemoryManager"*, %"class.xercesc_2_7::MemoryManager"** %fMemoryManager16, align 8, !dbg !2655
  invoke void @_ZN11xercesc_2_723SchemaDateTimeExceptionC2EPKcjNS_10XMLExcepts5CodesEPKtS6_S6_S6_PNS_13MemoryManagerE(%"class.xercesc_2_7::SchemaDateTimeException"* %14, i8* getelementptr inbounds ([16 x i8], [16 x i8]* @.str, i64 0, i64 0), i32 1011, i32 336, i16* %15, i16* null, i16* null, i16* null, %"class.xercesc_2_7::MemoryManager"* %16)
          to label %invoke.cont18 unwind label %lpad17, !dbg !2655

invoke.cont18:                                    ; preds = %if.then13
  call void @__cxa_throw(i8* %exception14, i8* bitcast ({ i8*, i8*, i8* }* @_ZTIN11xercesc_2_723SchemaDateTimeExceptionE to i8*), i8* bitcast (void (%"class.xercesc_2_7::SchemaDateTimeException"*)* @_ZN11xercesc_2_723SchemaDateTimeExceptionD2Ev to i8*)) #13, !dbg !2655
  unreachable, !dbg !2655

lpad17:                                           ; preds = %if.then13
  %17 = landingpad { i8*, i32 }
          cleanup, !dbg !2657
  %18 = extractvalue { i8*, i32 } %17, 0, !dbg !2657
  store i8* %18, i8** %exn.slot, align 8, !dbg !2657
  %19 = extractvalue { i8*, i32 } %17, 1, !dbg !2657
  store i32 %19, i32* %ehselector.slot, align 4, !dbg !2657
  call void @__cxa_free_exception(i8* %exception14) #9, !dbg !2655
  br label %eh.resume, !dbg !2655

if.end19:                                         ; preds = %lor.lhs.false
  %fStart20 = getelementptr inbounds %"class.xercesc_2_7::XMLDateTime", %"class.xercesc_2_7::XMLDateTime"* %this1, i32 0, i32 3, !dbg !2658
  %20 = load i32, i32* %fStart20, align 8, !dbg !2658
  %add21 = add nsw i32 %20, 0, !dbg !2659
  %fStart22 = getelementptr inbounds %"class.xercesc_2_7::XMLDateTime", %"class.xercesc_2_7::XMLDateTime"* %this1, i32 0, i32 3, !dbg !2660
  %21 = load i32, i32* %fStart22, align 8, !dbg !2660
  %add23 = add nsw i32 %21, 2, !dbg !2661
  %call = call i32 @_ZNK11xercesc_2_711XMLDateTime8parseIntEii(%"class.xercesc_2_7::XMLDateTime"* %this1, i32 %add21, i32 %add23), !dbg !2662
  %fValue = getelementptr inbounds %"class.xercesc_2_7::XMLDateTime", %"class.xercesc_2_7::XMLDateTime"* %this1, i32 0, i32 1, !dbg !2663
  %arrayidx24 = getelementptr inbounds [8 x i32], [8 x i32]* %fValue, i64 0, i64 3, !dbg !2663
  store i32 %call, i32* %arrayidx24, align 4, !dbg !2664
  %fStart25 = getelementptr inbounds %"class.xercesc_2_7::XMLDateTime", %"class.xercesc_2_7::XMLDateTime"* %this1, i32 0, i32 3, !dbg !2665
  %22 = load i32, i32* %fStart25, align 8, !dbg !2665
  %add26 = add nsw i32 %22, 3, !dbg !2666
  %fStart27 = getelementptr inbounds %"class.xercesc_2_7::XMLDateTime", %"class.xercesc_2_7::XMLDateTime"* %this1, i32 0, i32 3, !dbg !2667
  %23 = load i32, i32* %fStart27, align 8, !dbg !2667
  %add28 = add nsw i32 %23, 5, !dbg !2668
  %call29 = call i32 @_ZNK11xercesc_2_711XMLDateTime8parseIntEii(%"class.xercesc_2_7::XMLDateTime"* %this1, i32 %add26, i32 %add28), !dbg !2669
  %fValue30 = getelementptr inbounds %"class.xercesc_2_7::XMLDateTime", %"class.xercesc_2_7::XMLDateTime"* %this1, i32 0, i32 1, !dbg !2670
  %arrayidx31 = getelementptr inbounds [8 x i32], [8 x i32]* %fValue30, i64 0, i64 4, !dbg !2670
  store i32 %call29, i32* %arrayidx31, align 8, !dbg !2671
  %fStart32 = getelementptr inbounds %"class.xercesc_2_7::XMLDateTime", %"class.xercesc_2_7::XMLDateTime"* %this1, i32 0, i32 3, !dbg !2672
  %24 = load i32, i32* %fStart32, align 8, !dbg !2672
  %add33 = add nsw i32 %24, 6, !dbg !2673
  %fStart34 = getelementptr inbounds %"class.xercesc_2_7::XMLDateTime", %"class.xercesc_2_7::XMLDateTime"* %this1, i32 0, i32 3, !dbg !2674
  %25 = load i32, i32* %fStart34, align 8, !dbg !2674
  %add35 = add nsw i32 %25, 8, !dbg !2675
  %call36 = call i32 @_ZNK11xercesc_2_711XMLDateTime8parseIntEii(%"class.xercesc_2_7::XMLDateTime"* %this1, i32 %add33, i32 %add35), !dbg !2676
  %fValue37 = getelementptr inbounds %"class.xercesc_2_7::XMLDateTime", %"class.xercesc_2_7::XMLDateTime"* %this1, i32 0, i32 1, !dbg !2677
  %arrayidx38 = getelementptr inbounds [8 x i32], [8 x i32]* %fValue37, i64 0, i64 5, !dbg !2677
  store i32 %call36, i32* %arrayidx38, align 4, !dbg !2678
  %fStart39 = getelementptr inbounds %"class.xercesc_2_7::XMLDateTime", %"class.xercesc_2_7::XMLDateTime"* %this1, i32 0, i32 3, !dbg !2679
  %26 = load i32, i32* %fStart39, align 8, !dbg !2680
  %add40 = add nsw i32 %26, 8, !dbg !2680
  store i32 %add40, i32* %fStart39, align 8, !dbg !2680
  %fStart41 = getelementptr inbounds %"class.xercesc_2_7::XMLDateTime", %"class.xercesc_2_7::XMLDateTime"* %this1, i32 0, i32 3, !dbg !2681
  %27 = load i32, i32* %fStart41, align 8, !dbg !2681
  %fEnd42 = getelementptr inbounds %"class.xercesc_2_7::XMLDateTime", %"class.xercesc_2_7::XMLDateTime"* %this1, i32 0, i32 4, !dbg !2683
  %28 = load i32, i32* %fEnd42, align 4, !dbg !2683
  %cmp43 = icmp sge i32 %27, %28, !dbg !2684
  br i1 %cmp43, label %if.then44, label %if.end45, !dbg !2685

if.then44:                                        ; preds = %if.end19
  br label %if.end94, !dbg !2686

if.end45:                                         ; preds = %if.end19
  call void @llvm.dbg.declare(metadata i32* %sign, metadata !2687, metadata !DIExpression()), !dbg !2688
  %fStart46 = getelementptr inbounds %"class.xercesc_2_7::XMLDateTime", %"class.xercesc_2_7::XMLDateTime"* %this1, i32 0, i32 3, !dbg !2689
  %29 = load i32, i32* %fStart46, align 8, !dbg !2689
  %call47 = call i32 @_ZN11xercesc_2_711XMLDateTime11findUTCSignEi(%"class.xercesc_2_7::XMLDateTime"* %this1, i32 %29), !dbg !2690
  store i32 %call47, i32* %sign, align 4, !dbg !2688
  call void @llvm.dbg.declare(metadata i32* %milisec, metadata !2691, metadata !DIExpression()), !dbg !2692
  %fBuffer48 = getelementptr inbounds %"class.xercesc_2_7::XMLDateTime", %"class.xercesc_2_7::XMLDateTime"* %this1, i32 0, i32 8, !dbg !2693
  %30 = load i16*, i16** %fBuffer48, align 8, !dbg !2693
  %fStart49 = getelementptr inbounds %"class.xercesc_2_7::XMLDateTime", %"class.xercesc_2_7::XMLDateTime"* %this1, i32 0, i32 3, !dbg !2694
  %31 = load i32, i32* %fStart49, align 8, !dbg !2694
  %idxprom50 = sext i32 %31 to i64, !dbg !2693
  %arrayidx51 = getelementptr inbounds i16, i16* %30, i64 %idxprom50, !dbg !2693
  %32 = load i16, i16* %arrayidx51, align 2, !dbg !2693
  %conv52 = zext i16 %32 to i32, !dbg !2693
  %cmp53 = icmp eq i32 %conv52, 46, !dbg !2695
  br i1 %cmp53, label %cond.true, label %cond.false, !dbg !2696

cond.true:                                        ; preds = %if.end45
  %fStart54 = getelementptr inbounds %"class.xercesc_2_7::XMLDateTime", %"class.xercesc_2_7::XMLDateTime"* %this1, i32 0, i32 3, !dbg !2697
  %33 = load i32, i32* %fStart54, align 8, !dbg !2697
  br label %cond.end, !dbg !2696

cond.false:                                       ; preds = %if.end45
  br label %cond.end, !dbg !2696

cond.end:                                         ; preds = %cond.false, %cond.true
  %cond = phi i32 [ %33, %cond.true ], [ -1, %cond.false ], !dbg !2696
  store i32 %cond, i32* %milisec, align 4, !dbg !2692
  %34 = load i32, i32* %milisec, align 4, !dbg !2698
  %cmp55 = icmp ne i32 %34, -1, !dbg !2700
  br i1 %cmp55, label %if.then56, label %if.else79, !dbg !2701

if.then56:                                        ; preds = %cond.end
  %fStart57 = getelementptr inbounds %"class.xercesc_2_7::XMLDateTime", %"class.xercesc_2_7::XMLDateTime"* %this1, i32 0, i32 3, !dbg !2702
  %35 = load i32, i32* %fStart57, align 8, !dbg !2704
  %inc = add nsw i32 %35, 1, !dbg !2704
  store i32 %inc, i32* %fStart57, align 8, !dbg !2704
  %fStart58 = getelementptr inbounds %"class.xercesc_2_7::XMLDateTime", %"class.xercesc_2_7::XMLDateTime"* %this1, i32 0, i32 3, !dbg !2705
  %36 = load i32, i32* %fStart58, align 8, !dbg !2705
  %fEnd59 = getelementptr inbounds %"class.xercesc_2_7::XMLDateTime", %"class.xercesc_2_7::XMLDateTime"* %this1, i32 0, i32 4, !dbg !2707
  %37 = load i32, i32* %fEnd59, align 4, !dbg !2707
  %cmp60 = icmp sge i32 %36, %37, !dbg !2708
  br i1 %cmp60, label %if.then61, label %if.end67, !dbg !2709

if.then61:                                        ; preds = %if.then56
  %exception62 = call i8* @__cxa_allocate_exception(i64 48) #9, !dbg !2710
  %38 = bitcast i8* %exception62 to %"class.xercesc_2_7::SchemaDateTimeException"*, !dbg !2710
  %fBuffer63 = getelementptr inbounds %"class.xercesc_2_7::XMLDateTime", %"class.xercesc_2_7::XMLDateTime"* %this1, i32 0, i32 8, !dbg !2710
  %39 = load i16*, i16** %fBuffer63, align 8, !dbg !2710
  %fMemoryManager64 = getelementptr inbounds %"class.xercesc_2_7::XMLDateTime", %"class.xercesc_2_7::XMLDateTime"* %this1, i32 0, i32 9, !dbg !2710
  %40 = load %"class.xercesc_2_7::MemoryManager"*, %"class.xercesc_2_7::MemoryManager"** %fMemoryManager64, align 8, !dbg !2710
  invoke void @_ZN11xercesc_2_723SchemaDateTimeExceptionC2EPKcjNS_10XMLExcepts5CodesEPKtS6_S6_S6_PNS_13MemoryManagerE(%"class.xercesc_2_7::SchemaDateTimeException"* %38, i8* getelementptr inbounds ([16 x i8], [16 x i8]* @.str, i64 0, i64 0), i32 1041, i32 337, i16* %39, i16* null, i16* null, i16* null, %"class.xercesc_2_7::MemoryManager"* %40)
          to label %invoke.cont66 unwind label %lpad65, !dbg !2710

invoke.cont66:                                    ; preds = %if.then61
  call void @__cxa_throw(i8* %exception62, i8* bitcast ({ i8*, i8*, i8* }* @_ZTIN11xercesc_2_723SchemaDateTimeExceptionE to i8*), i8* bitcast (void (%"class.xercesc_2_7::SchemaDateTimeException"*)* @_ZN11xercesc_2_723SchemaDateTimeExceptionD2Ev to i8*)) #13, !dbg !2710
  unreachable, !dbg !2710

lpad65:                                           ; preds = %if.then61
  %41 = landingpad { i8*, i32 }
          cleanup, !dbg !2712
  %42 = extractvalue { i8*, i32 } %41, 0, !dbg !2712
  store i8* %42, i8** %exn.slot, align 8, !dbg !2712
  %43 = extractvalue { i8*, i32 } %41, 1, !dbg !2712
  store i32 %43, i32* %ehselector.slot, align 4, !dbg !2712
  call void @__cxa_free_exception(i8* %exception62) #9, !dbg !2710
  br label %eh.resume, !dbg !2710

if.end67:                                         ; preds = %if.then56
  %44 = load i32, i32* %sign, align 4, !dbg !2713
  %cmp68 = icmp eq i32 %44, -1, !dbg !2715
  br i1 %cmp68, label %if.then69, label %if.else, !dbg !2716

if.then69:                                        ; preds = %if.end67
  %fStart70 = getelementptr inbounds %"class.xercesc_2_7::XMLDateTime", %"class.xercesc_2_7::XMLDateTime"* %this1, i32 0, i32 3, !dbg !2717
  %45 = load i32, i32* %fStart70, align 8, !dbg !2717
  %fEnd71 = getelementptr inbounds %"class.xercesc_2_7::XMLDateTime", %"class.xercesc_2_7::XMLDateTime"* %this1, i32 0, i32 4, !dbg !2719
  %46 = load i32, i32* %fEnd71, align 4, !dbg !2719
  %call72 = call double @_ZNK11xercesc_2_711XMLDateTime15parseMiliSecondEii(%"class.xercesc_2_7::XMLDateTime"* %this1, i32 %45, i32 %46), !dbg !2720
  %fMiliSecond = getelementptr inbounds %"class.xercesc_2_7::XMLDateTime", %"class.xercesc_2_7::XMLDateTime"* %this1, i32 0, i32 6, !dbg !2721
  store double %call72, double* %fMiliSecond, align 8, !dbg !2722
  %fEnd73 = getelementptr inbounds %"class.xercesc_2_7::XMLDateTime", %"class.xercesc_2_7::XMLDateTime"* %this1, i32 0, i32 4, !dbg !2723
  %47 = load i32, i32* %fEnd73, align 4, !dbg !2723
  %fStart74 = getelementptr inbounds %"class.xercesc_2_7::XMLDateTime", %"class.xercesc_2_7::XMLDateTime"* %this1, i32 0, i32 3, !dbg !2724
  store i32 %47, i32* %fStart74, align 8, !dbg !2725
  br label %if.end78, !dbg !2726

if.else:                                          ; preds = %if.end67
  %fStart75 = getelementptr inbounds %"class.xercesc_2_7::XMLDateTime", %"class.xercesc_2_7::XMLDateTime"* %this1, i32 0, i32 3, !dbg !2727
  %48 = load i32, i32* %fStart75, align 8, !dbg !2727
  %49 = load i32, i32* %sign, align 4, !dbg !2729
  %call76 = call double @_ZNK11xercesc_2_711XMLDateTime15parseMiliSecondEii(%"class.xercesc_2_7::XMLDateTime"* %this1, i32 %48, i32 %49), !dbg !2730
  %fMiliSecond77 = getelementptr inbounds %"class.xercesc_2_7::XMLDateTime", %"class.xercesc_2_7::XMLDateTime"* %this1, i32 0, i32 6, !dbg !2731
  store double %call76, double* %fMiliSecond77, align 8, !dbg !2732
  br label %if.end78

if.end78:                                         ; preds = %if.else, %if.then69
  br label %if.end91, !dbg !2733

if.else79:                                        ; preds = %cond.end
  %50 = load i32, i32* %sign, align 4, !dbg !2734
  %cmp80 = icmp eq i32 %50, 0, !dbg !2736
  br i1 %cmp80, label %if.then84, label %lor.lhs.false81, !dbg !2737

lor.lhs.false81:                                  ; preds = %if.else79
  %51 = load i32, i32* %sign, align 4, !dbg !2738
  %fStart82 = getelementptr inbounds %"class.xercesc_2_7::XMLDateTime", %"class.xercesc_2_7::XMLDateTime"* %this1, i32 0, i32 3, !dbg !2739
  %52 = load i32, i32* %fStart82, align 8, !dbg !2739
  %cmp83 = icmp ne i32 %51, %52, !dbg !2740
  br i1 %cmp83, label %if.then84, label %if.end90, !dbg !2741

if.then84:                                        ; preds = %lor.lhs.false81, %if.else79
  %exception85 = call i8* @__cxa_allocate_exception(i64 48) #9, !dbg !2742
  %53 = bitcast i8* %exception85 to %"class.xercesc_2_7::SchemaDateTimeException"*, !dbg !2742
  %fBuffer86 = getelementptr inbounds %"class.xercesc_2_7::XMLDateTime", %"class.xercesc_2_7::XMLDateTime"* %this1, i32 0, i32 8, !dbg !2742
  %54 = load i16*, i16** %fBuffer86, align 8, !dbg !2742
  %fMemoryManager87 = getelementptr inbounds %"class.xercesc_2_7::XMLDateTime", %"class.xercesc_2_7::XMLDateTime"* %this1, i32 0, i32 9, !dbg !2742
  %55 = load %"class.xercesc_2_7::MemoryManager"*, %"class.xercesc_2_7::MemoryManager"** %fMemoryManager87, align 8, !dbg !2742
  invoke void @_ZN11xercesc_2_723SchemaDateTimeExceptionC2EPKcjNS_10XMLExcepts5CodesEPKtS6_S6_S6_PNS_13MemoryManagerE(%"class.xercesc_2_7::SchemaDateTimeException"* %53, i8* getelementptr inbounds ([16 x i8], [16 x i8]* @.str, i64 0, i64 0), i32 1061, i32 350, i16* %54, i16* null, i16* null, i16* null, %"class.xercesc_2_7::MemoryManager"* %55)
          to label %invoke.cont89 unwind label %lpad88, !dbg !2742

invoke.cont89:                                    ; preds = %if.then84
  call void @__cxa_throw(i8* %exception85, i8* bitcast ({ i8*, i8*, i8* }* @_ZTIN11xercesc_2_723SchemaDateTimeExceptionE to i8*), i8* bitcast (void (%"class.xercesc_2_7::SchemaDateTimeException"*)* @_ZN11xercesc_2_723SchemaDateTimeExceptionD2Ev to i8*)) #13, !dbg !2742
  unreachable, !dbg !2742

lpad88:                                           ; preds = %if.then84
  %56 = landingpad { i8*, i32 }
          cleanup, !dbg !2744
  %57 = extractvalue { i8*, i32 } %56, 0, !dbg !2744
  store i8* %57, i8** %exn.slot, align 8, !dbg !2744
  %58 = extractvalue { i8*, i32 } %56, 1, !dbg !2744
  store i32 %58, i32* %ehselector.slot, align 4, !dbg !2744
  call void @__cxa_free_exception(i8* %exception85) #9, !dbg !2742
  br label %eh.resume, !dbg !2742

if.end90:                                         ; preds = %lor.lhs.false81
  br label %if.end91

if.end91:                                         ; preds = %if.end90, %if.end78
  %59 = load i32, i32* %sign, align 4, !dbg !2745
  %cmp92 = icmp sgt i32 %59, 0, !dbg !2747
  br i1 %cmp92, label %if.then93, label %if.end94, !dbg !2748

if.then93:                                        ; preds = %if.end91
  %60 = load i32, i32* %sign, align 4, !dbg !2749
  call void @_ZN11xercesc_2_711XMLDateTime11getTimeZoneEi(%"class.xercesc_2_7::XMLDateTime"* %this1, i32 %60), !dbg !2751
  br label %if.end94, !dbg !2752

if.end94:                                         ; preds = %if.then44, %if.then93, %if.end91
  ret void, !dbg !2753

eh.resume:                                        ; preds = %lpad88, %lpad65, %lpad17, %lpad
  %exn = load i8*, i8** %exn.slot, align 8, !dbg !2642
  %sel = load i32, i32* %ehselector.slot, align 4, !dbg !2642
  %lpad.val = insertvalue { i8*, i32 } undef, i8* %exn, 0, !dbg !2642
  %lpad.val95 = insertvalue { i8*, i32 } %lpad.val, i32 %sel, 1, !dbg !2642
  resume { i8*, i32 } %lpad.val95, !dbg !2642
}

; Function Attrs: noinline uwtable
define dso_local void @_ZNK11xercesc_2_711XMLDateTime16validateDateTimeEv(%"class.xercesc_2_7::XMLDateTime"* %this) #3 align 2 personality i8* bitcast (i32 (...)* @__gxx_personality_v0 to i8*) !dbg !2754 {
entry:
  %this.addr = alloca %"class.xercesc_2_7::XMLDateTime"*, align 8
  %exn.slot = alloca i8*
  %ehselector.slot = alloca i32
  store %"class.xercesc_2_7::XMLDateTime"* %this, %"class.xercesc_2_7::XMLDateTime"** %this.addr, align 8
  call void @llvm.dbg.declare(metadata %"class.xercesc_2_7::XMLDateTime"** %this.addr, metadata !2755, metadata !DIExpression()), !dbg !2756
  %this1 = load %"class.xercesc_2_7::XMLDateTime"*, %"class.xercesc_2_7::XMLDateTime"** %this.addr, align 8
  %fValue = getelementptr inbounds %"class.xercesc_2_7::XMLDateTime", %"class.xercesc_2_7::XMLDateTime"* %this1, i32 0, i32 1, !dbg !2757
  %arrayidx = getelementptr inbounds [8 x i32], [8 x i32]* %fValue, i64 0, i64 0, !dbg !2757
  %0 = load i32, i32* %arrayidx, align 8, !dbg !2757
  %cmp = icmp eq i32 %0, 0, !dbg !2759
  br i1 %cmp, label %if.then, label %if.end, !dbg !2760

if.then:                                          ; preds = %entry
  %exception = call i8* @__cxa_allocate_exception(i64 48) #9, !dbg !2761
  %1 = bitcast i8* %exception to %"class.xercesc_2_7::SchemaDateTimeException"*, !dbg !2761
  %fBuffer = getelementptr inbounds %"class.xercesc_2_7::XMLDateTime", %"class.xercesc_2_7::XMLDateTime"* %this1, i32 0, i32 8, !dbg !2761
  %2 = load i16*, i16** %fBuffer, align 8, !dbg !2761
  %fMemoryManager = getelementptr inbounds %"class.xercesc_2_7::XMLDateTime", %"class.xercesc_2_7::XMLDateTime"* %this1, i32 0, i32 9, !dbg !2761
  %3 = load %"class.xercesc_2_7::MemoryManager"*, %"class.xercesc_2_7::MemoryManager"** %fMemoryManager, align 8, !dbg !2761
  invoke void @_ZN11xercesc_2_723SchemaDateTimeExceptionC2EPKcjNS_10XMLExcepts5CodesEPKtS6_S6_S6_PNS_13MemoryManagerE(%"class.xercesc_2_7::SchemaDateTimeException"* %1, i8* getelementptr inbounds ([16 x i8], [16 x i8]* @.str, i64 0, i64 0), i32 1285, i32 346, i16* %2, i16* null, i16* null, i16* null, %"class.xercesc_2_7::MemoryManager"* %3)
          to label %invoke.cont unwind label %lpad, !dbg !2761

invoke.cont:                                      ; preds = %if.then
  call void @__cxa_throw(i8* %exception, i8* bitcast ({ i8*, i8*, i8* }* @_ZTIN11xercesc_2_723SchemaDateTimeExceptionE to i8*), i8* bitcast (void (%"class.xercesc_2_7::SchemaDateTimeException"*)* @_ZN11xercesc_2_723SchemaDateTimeExceptionD2Ev to i8*)) #13, !dbg !2761
  unreachable, !dbg !2761

lpad:                                             ; preds = %if.then
  %4 = landingpad { i8*, i32 }
          cleanup, !dbg !2763
  %5 = extractvalue { i8*, i32 } %4, 0, !dbg !2763
  store i8* %5, i8** %exn.slot, align 8, !dbg !2763
  %6 = extractvalue { i8*, i32 } %4, 1, !dbg !2763
  store i32 %6, i32* %ehselector.slot, align 4, !dbg !2763
  call void @__cxa_free_exception(i8* %exception) #9, !dbg !2761
  br label %eh.resume, !dbg !2761

if.end:                                           ; preds = %entry
  %fValue2 = getelementptr inbounds %"class.xercesc_2_7::XMLDateTime", %"class.xercesc_2_7::XMLDateTime"* %this1, i32 0, i32 1, !dbg !2764
  %arrayidx3 = getelementptr inbounds [8 x i32], [8 x i32]* %fValue2, i64 0, i64 1, !dbg !2764
  %7 = load i32, i32* %arrayidx3, align 4, !dbg !2764
  %cmp4 = icmp slt i32 %7, 1, !dbg !2766
  br i1 %cmp4, label %if.then8, label %lor.lhs.false, !dbg !2767

lor.lhs.false:                                    ; preds = %if.end
  %fValue5 = getelementptr inbounds %"class.xercesc_2_7::XMLDateTime", %"class.xercesc_2_7::XMLDateTime"* %this1, i32 0, i32 1, !dbg !2768
  %arrayidx6 = getelementptr inbounds [8 x i32], [8 x i32]* %fValue5, i64 0, i64 1, !dbg !2768
  %8 = load i32, i32* %arrayidx6, align 4, !dbg !2768
  %cmp7 = icmp sgt i32 %8, 12, !dbg !2769
  br i1 %cmp7, label %if.then8, label %if.end14, !dbg !2770

if.then8:                                         ; preds = %lor.lhs.false, %if.end
  %exception9 = call i8* @__cxa_allocate_exception(i64 48) #9, !dbg !2771
  %9 = bitcast i8* %exception9 to %"class.xercesc_2_7::SchemaDateTimeException"*, !dbg !2771
  %fBuffer10 = getelementptr inbounds %"class.xercesc_2_7::XMLDateTime", %"class.xercesc_2_7::XMLDateTime"* %this1, i32 0, i32 8, !dbg !2771
  %10 = load i16*, i16** %fBuffer10, align 8, !dbg !2771
  %fMemoryManager11 = getelementptr inbounds %"class.xercesc_2_7::XMLDateTime", %"class.xercesc_2_7::XMLDateTime"* %this1, i32 0, i32 9, !dbg !2771
  %11 = load %"class.xercesc_2_7::MemoryManager"*, %"class.xercesc_2_7::MemoryManager"** %fMemoryManager11, align 8, !dbg !2771
  invoke void @_ZN11xercesc_2_723SchemaDateTimeExceptionC2EPKcjNS_10XMLExcepts5CodesEPKtS6_S6_S6_PNS_13MemoryManagerE(%"class.xercesc_2_7::SchemaDateTimeException"* %9, i8* getelementptr inbounds ([16 x i8], [16 x i8]* @.str, i64 0, i64 0), i32 1295, i32 347, i16* %10, i16* null, i16* null, i16* null, %"class.xercesc_2_7::MemoryManager"* %11)
          to label %invoke.cont13 unwind label %lpad12, !dbg !2771

invoke.cont13:                                    ; preds = %if.then8
  call void @__cxa_throw(i8* %exception9, i8* bitcast ({ i8*, i8*, i8* }* @_ZTIN11xercesc_2_723SchemaDateTimeExceptionE to i8*), i8* bitcast (void (%"class.xercesc_2_7::SchemaDateTimeException"*)* @_ZN11xercesc_2_723SchemaDateTimeExceptionD2Ev to i8*)) #13, !dbg !2771
  unreachable, !dbg !2771

lpad12:                                           ; preds = %if.then8
  %12 = landingpad { i8*, i32 }
          cleanup, !dbg !2773
  %13 = extractvalue { i8*, i32 } %12, 0, !dbg !2773
  store i8* %13, i8** %exn.slot, align 8, !dbg !2773
  %14 = extractvalue { i8*, i32 } %12, 1, !dbg !2773
  store i32 %14, i32* %ehselector.slot, align 4, !dbg !2773
  call void @__cxa_free_exception(i8* %exception9) #9, !dbg !2771
  br label %eh.resume, !dbg !2771

if.end14:                                         ; preds = %lor.lhs.false
  %fValue15 = getelementptr inbounds %"class.xercesc_2_7::XMLDateTime", %"class.xercesc_2_7::XMLDateTime"* %this1, i32 0, i32 1, !dbg !2774
  %arrayidx16 = getelementptr inbounds [8 x i32], [8 x i32]* %fValue15, i64 0, i64 2, !dbg !2774
  %15 = load i32, i32* %arrayidx16, align 8, !dbg !2774
  %fValue17 = getelementptr inbounds %"class.xercesc_2_7::XMLDateTime", %"class.xercesc_2_7::XMLDateTime"* %this1, i32 0, i32 1, !dbg !2776
  %arrayidx18 = getelementptr inbounds [8 x i32], [8 x i32]* %fValue17, i64 0, i64 0, !dbg !2776
  %16 = load i32, i32* %arrayidx18, align 8, !dbg !2776
  %fValue19 = getelementptr inbounds %"class.xercesc_2_7::XMLDateTime", %"class.xercesc_2_7::XMLDateTime"* %this1, i32 0, i32 1, !dbg !2777
  %arrayidx20 = getelementptr inbounds [8 x i32], [8 x i32]* %fValue19, i64 0, i64 1, !dbg !2777
  %17 = load i32, i32* %arrayidx20, align 4, !dbg !2777
  %call = call i32 @_ZN11xercesc_2_7L16maxDayInMonthForEii(i32 %16, i32 %17), !dbg !2778
  %cmp21 = icmp sgt i32 %15, %call, !dbg !2779
  br i1 %cmp21, label %if.then26, label %lor.lhs.false22, !dbg !2780

lor.lhs.false22:                                  ; preds = %if.end14
  %fValue23 = getelementptr inbounds %"class.xercesc_2_7::XMLDateTime", %"class.xercesc_2_7::XMLDateTime"* %this1, i32 0, i32 1, !dbg !2781
  %arrayidx24 = getelementptr inbounds [8 x i32], [8 x i32]* %fValue23, i64 0, i64 2, !dbg !2781
  %18 = load i32, i32* %arrayidx24, align 8, !dbg !2781
  %cmp25 = icmp eq i32 %18, 0, !dbg !2782
  br i1 %cmp25, label %if.then26, label %if.end32, !dbg !2783

if.then26:                                        ; preds = %lor.lhs.false22, %if.end14
  %exception27 = call i8* @__cxa_allocate_exception(i64 48) #9, !dbg !2784
  %19 = bitcast i8* %exception27 to %"class.xercesc_2_7::SchemaDateTimeException"*, !dbg !2784
  %fBuffer28 = getelementptr inbounds %"class.xercesc_2_7::XMLDateTime", %"class.xercesc_2_7::XMLDateTime"* %this1, i32 0, i32 8, !dbg !2784
  %20 = load i16*, i16** %fBuffer28, align 8, !dbg !2784
  %fMemoryManager29 = getelementptr inbounds %"class.xercesc_2_7::XMLDateTime", %"class.xercesc_2_7::XMLDateTime"* %this1, i32 0, i32 9, !dbg !2784
  %21 = load %"class.xercesc_2_7::MemoryManager"*, %"class.xercesc_2_7::MemoryManager"** %fMemoryManager29, align 8, !dbg !2784
  invoke void @_ZN11xercesc_2_723SchemaDateTimeExceptionC2EPKcjNS_10XMLExcepts5CodesEPKtS6_S6_S6_PNS_13MemoryManagerE(%"class.xercesc_2_7::SchemaDateTimeException"* %19, i8* getelementptr inbounds ([16 x i8], [16 x i8]* @.str, i64 0, i64 0), i32 1306, i32 348, i16* %20, i16* null, i16* null, i16* null, %"class.xercesc_2_7::MemoryManager"* %21)
          to label %invoke.cont31 unwind label %lpad30, !dbg !2784

invoke.cont31:                                    ; preds = %if.then26
  call void @__cxa_throw(i8* %exception27, i8* bitcast ({ i8*, i8*, i8* }* @_ZTIN11xercesc_2_723SchemaDateTimeExceptionE to i8*), i8* bitcast (void (%"class.xercesc_2_7::SchemaDateTimeException"*)* @_ZN11xercesc_2_723SchemaDateTimeExceptionD2Ev to i8*)) #13, !dbg !2784
  unreachable, !dbg !2784

lpad30:                                           ; preds = %if.then26
  %22 = landingpad { i8*, i32 }
          cleanup, !dbg !2786
  %23 = extractvalue { i8*, i32 } %22, 0, !dbg !2786
  store i8* %23, i8** %exn.slot, align 8, !dbg !2786
  %24 = extractvalue { i8*, i32 } %22, 1, !dbg !2786
  store i32 %24, i32* %ehselector.slot, align 4, !dbg !2786
  call void @__cxa_free_exception(i8* %exception27) #9, !dbg !2784
  br label %eh.resume, !dbg !2784

if.end32:                                         ; preds = %lor.lhs.false22
  %fValue33 = getelementptr inbounds %"class.xercesc_2_7::XMLDateTime", %"class.xercesc_2_7::XMLDateTime"* %this1, i32 0, i32 1, !dbg !2787
  %arrayidx34 = getelementptr inbounds [8 x i32], [8 x i32]* %fValue33, i64 0, i64 3, !dbg !2787
  %25 = load i32, i32* %arrayidx34, align 4, !dbg !2787
  %cmp35 = icmp slt i32 %25, 0, !dbg !2789
  br i1 %cmp35, label %if.then53, label %lor.lhs.false36, !dbg !2790

lor.lhs.false36:                                  ; preds = %if.end32
  %fValue37 = getelementptr inbounds %"class.xercesc_2_7::XMLDateTime", %"class.xercesc_2_7::XMLDateTime"* %this1, i32 0, i32 1, !dbg !2791
  %arrayidx38 = getelementptr inbounds [8 x i32], [8 x i32]* %fValue37, i64 0, i64 3, !dbg !2791
  %26 = load i32, i32* %arrayidx38, align 4, !dbg !2791
  %cmp39 = icmp sgt i32 %26, 24, !dbg !2792
  br i1 %cmp39, label %if.then53, label %lor.lhs.false40, !dbg !2793

lor.lhs.false40:                                  ; preds = %lor.lhs.false36
  %fValue41 = getelementptr inbounds %"class.xercesc_2_7::XMLDateTime", %"class.xercesc_2_7::XMLDateTime"* %this1, i32 0, i32 1, !dbg !2794
  %arrayidx42 = getelementptr inbounds [8 x i32], [8 x i32]* %fValue41, i64 0, i64 3, !dbg !2794
  %27 = load i32, i32* %arrayidx42, align 4, !dbg !2794
  %cmp43 = icmp eq i32 %27, 24, !dbg !2795
  br i1 %cmp43, label %land.lhs.true, label %if.end59, !dbg !2796

land.lhs.true:                                    ; preds = %lor.lhs.false40
  %fValue44 = getelementptr inbounds %"class.xercesc_2_7::XMLDateTime", %"class.xercesc_2_7::XMLDateTime"* %this1, i32 0, i32 1, !dbg !2797
  %arrayidx45 = getelementptr inbounds [8 x i32], [8 x i32]* %fValue44, i64 0, i64 4, !dbg !2797
  %28 = load i32, i32* %arrayidx45, align 8, !dbg !2797
  %cmp46 = icmp ne i32 %28, 0, !dbg !2798
  br i1 %cmp46, label %if.then53, label %lor.lhs.false47, !dbg !2799

lor.lhs.false47:                                  ; preds = %land.lhs.true
  %fValue48 = getelementptr inbounds %"class.xercesc_2_7::XMLDateTime", %"class.xercesc_2_7::XMLDateTime"* %this1, i32 0, i32 1, !dbg !2800
  %arrayidx49 = getelementptr inbounds [8 x i32], [8 x i32]* %fValue48, i64 0, i64 5, !dbg !2800
  %29 = load i32, i32* %arrayidx49, align 4, !dbg !2800
  %cmp50 = icmp ne i32 %29, 0, !dbg !2801
  br i1 %cmp50, label %if.then53, label %lor.lhs.false51, !dbg !2802

lor.lhs.false51:                                  ; preds = %lor.lhs.false47
  %fMiliSecond = getelementptr inbounds %"class.xercesc_2_7::XMLDateTime", %"class.xercesc_2_7::XMLDateTime"* %this1, i32 0, i32 6, !dbg !2803
  %30 = load double, double* %fMiliSecond, align 8, !dbg !2803
  %cmp52 = fcmp une double %30, 0.000000e+00, !dbg !2804
  br i1 %cmp52, label %if.then53, label %if.end59, !dbg !2805

if.then53:                                        ; preds = %lor.lhs.false51, %lor.lhs.false47, %land.lhs.true, %lor.lhs.false36, %if.end32
  %exception54 = call i8* @__cxa_allocate_exception(i64 48) #9, !dbg !2806
  %31 = bitcast i8* %exception54 to %"class.xercesc_2_7::SchemaDateTimeException"*, !dbg !2806
  %fBuffer55 = getelementptr inbounds %"class.xercesc_2_7::XMLDateTime", %"class.xercesc_2_7::XMLDateTime"* %this1, i32 0, i32 8, !dbg !2806
  %32 = load i16*, i16** %fBuffer55, align 8, !dbg !2806
  %fMemoryManager56 = getelementptr inbounds %"class.xercesc_2_7::XMLDateTime", %"class.xercesc_2_7::XMLDateTime"* %this1, i32 0, i32 9, !dbg !2806
  %33 = load %"class.xercesc_2_7::MemoryManager"*, %"class.xercesc_2_7::MemoryManager"** %fMemoryManager56, align 8, !dbg !2806
  invoke void @_ZN11xercesc_2_723SchemaDateTimeExceptionC2EPKcjNS_10XMLExcepts5CodesEPKtS6_S6_S6_PNS_13MemoryManagerE(%"class.xercesc_2_7::SchemaDateTimeException"* %31, i8* getelementptr inbounds ([16 x i8], [16 x i8]* @.str, i64 0, i64 0), i32 1320, i32 349, i16* %32, i16* null, i16* null, i16* null, %"class.xercesc_2_7::MemoryManager"* %33)
          to label %invoke.cont58 unwind label %lpad57, !dbg !2806

invoke.cont58:                                    ; preds = %if.then53
  call void @__cxa_throw(i8* %exception54, i8* bitcast ({ i8*, i8*, i8* }* @_ZTIN11xercesc_2_723SchemaDateTimeExceptionE to i8*), i8* bitcast (void (%"class.xercesc_2_7::SchemaDateTimeException"*)* @_ZN11xercesc_2_723SchemaDateTimeExceptionD2Ev to i8*)) #13, !dbg !2806
  unreachable, !dbg !2806

lpad57:                                           ; preds = %if.then53
  %34 = landingpad { i8*, i32 }
          cleanup, !dbg !2808
  %35 = extractvalue { i8*, i32 } %34, 0, !dbg !2808
  store i8* %35, i8** %exn.slot, align 8, !dbg !2808
  %36 = extractvalue { i8*, i32 } %34, 1, !dbg !2808
  store i32 %36, i32* %ehselector.slot, align 4, !dbg !2808
  call void @__cxa_free_exception(i8* %exception54) #9, !dbg !2806
  br label %eh.resume, !dbg !2806

if.end59:                                         ; preds = %lor.lhs.false51, %lor.lhs.false40
  %fValue60 = getelementptr inbounds %"class.xercesc_2_7::XMLDateTime", %"class.xercesc_2_7::XMLDateTime"* %this1, i32 0, i32 1, !dbg !2809
  %arrayidx61 = getelementptr inbounds [8 x i32], [8 x i32]* %fValue60, i64 0, i64 4, !dbg !2809
  %37 = load i32, i32* %arrayidx61, align 8, !dbg !2809
  %cmp62 = icmp slt i32 %37, 0, !dbg !2811
  br i1 %cmp62, label %if.then67, label %lor.lhs.false63, !dbg !2812

lor.lhs.false63:                                  ; preds = %if.end59
  %fValue64 = getelementptr inbounds %"class.xercesc_2_7::XMLDateTime", %"class.xercesc_2_7::XMLDateTime"* %this1, i32 0, i32 1, !dbg !2813
  %arrayidx65 = getelementptr inbounds [8 x i32], [8 x i32]* %fValue64, i64 0, i64 4, !dbg !2813
  %38 = load i32, i32* %arrayidx65, align 8, !dbg !2813
  %cmp66 = icmp sgt i32 %38, 59, !dbg !2814
  br i1 %cmp66, label %if.then67, label %if.end73, !dbg !2815

if.then67:                                        ; preds = %lor.lhs.false63, %if.end59
  %exception68 = call i8* @__cxa_allocate_exception(i64 48) #9, !dbg !2816
  %39 = bitcast i8* %exception68 to %"class.xercesc_2_7::SchemaDateTimeException"*, !dbg !2816
  %fBuffer69 = getelementptr inbounds %"class.xercesc_2_7::XMLDateTime", %"class.xercesc_2_7::XMLDateTime"* %this1, i32 0, i32 8, !dbg !2816
  %40 = load i16*, i16** %fBuffer69, align 8, !dbg !2816
  %fMemoryManager70 = getelementptr inbounds %"class.xercesc_2_7::XMLDateTime", %"class.xercesc_2_7::XMLDateTime"* %this1, i32 0, i32 9, !dbg !2816
  %41 = load %"class.xercesc_2_7::MemoryManager"*, %"class.xercesc_2_7::MemoryManager"** %fMemoryManager70, align 8, !dbg !2816
  invoke void @_ZN11xercesc_2_723SchemaDateTimeExceptionC2EPKcjNS_10XMLExcepts5CodesEPKtS6_S6_S6_PNS_13MemoryManagerE(%"class.xercesc_2_7::SchemaDateTimeException"* %39, i8* getelementptr inbounds ([16 x i8], [16 x i8]* @.str, i64 0, i64 0), i32 1331, i32 350, i16* %40, i16* null, i16* null, i16* null, %"class.xercesc_2_7::MemoryManager"* %41)
          to label %invoke.cont72 unwind label %lpad71, !dbg !2816

invoke.cont72:                                    ; preds = %if.then67
  call void @__cxa_throw(i8* %exception68, i8* bitcast ({ i8*, i8*, i8* }* @_ZTIN11xercesc_2_723SchemaDateTimeExceptionE to i8*), i8* bitcast (void (%"class.xercesc_2_7::SchemaDateTimeException"*)* @_ZN11xercesc_2_723SchemaDateTimeExceptionD2Ev to i8*)) #13, !dbg !2816
  unreachable, !dbg !2816

lpad71:                                           ; preds = %if.then67
  %42 = landingpad { i8*, i32 }
          cleanup, !dbg !2818
  %43 = extractvalue { i8*, i32 } %42, 0, !dbg !2818
  store i8* %43, i8** %exn.slot, align 8, !dbg !2818
  %44 = extractvalue { i8*, i32 } %42, 1, !dbg !2818
  store i32 %44, i32* %ehselector.slot, align 4, !dbg !2818
  call void @__cxa_free_exception(i8* %exception68) #9, !dbg !2816
  br label %eh.resume, !dbg !2816

if.end73:                                         ; preds = %lor.lhs.false63
  %fValue74 = getelementptr inbounds %"class.xercesc_2_7::XMLDateTime", %"class.xercesc_2_7::XMLDateTime"* %this1, i32 0, i32 1, !dbg !2819
  %arrayidx75 = getelementptr inbounds [8 x i32], [8 x i32]* %fValue74, i64 0, i64 5, !dbg !2819
  %45 = load i32, i32* %arrayidx75, align 4, !dbg !2819
  %cmp76 = icmp slt i32 %45, 0, !dbg !2821
  br i1 %cmp76, label %if.then81, label %lor.lhs.false77, !dbg !2822

lor.lhs.false77:                                  ; preds = %if.end73
  %fValue78 = getelementptr inbounds %"class.xercesc_2_7::XMLDateTime", %"class.xercesc_2_7::XMLDateTime"* %this1, i32 0, i32 1, !dbg !2823
  %arrayidx79 = getelementptr inbounds [8 x i32], [8 x i32]* %fValue78, i64 0, i64 5, !dbg !2823
  %46 = load i32, i32* %arrayidx79, align 4, !dbg !2823
  %cmp80 = icmp sgt i32 %46, 60, !dbg !2824
  br i1 %cmp80, label %if.then81, label %if.end87, !dbg !2825

if.then81:                                        ; preds = %lor.lhs.false77, %if.end73
  %exception82 = call i8* @__cxa_allocate_exception(i64 48) #9, !dbg !2826
  %47 = bitcast i8* %exception82 to %"class.xercesc_2_7::SchemaDateTimeException"*, !dbg !2826
  %fBuffer83 = getelementptr inbounds %"class.xercesc_2_7::XMLDateTime", %"class.xercesc_2_7::XMLDateTime"* %this1, i32 0, i32 8, !dbg !2826
  %48 = load i16*, i16** %fBuffer83, align 8, !dbg !2826
  %fMemoryManager84 = getelementptr inbounds %"class.xercesc_2_7::XMLDateTime", %"class.xercesc_2_7::XMLDateTime"* %this1, i32 0, i32 9, !dbg !2826
  %49 = load %"class.xercesc_2_7::MemoryManager"*, %"class.xercesc_2_7::MemoryManager"** %fMemoryManager84, align 8, !dbg !2826
  invoke void @_ZN11xercesc_2_723SchemaDateTimeExceptionC2EPKcjNS_10XMLExcepts5CodesEPKtS6_S6_S6_PNS_13MemoryManagerE(%"class.xercesc_2_7::SchemaDateTimeException"* %47, i8* getelementptr inbounds ([16 x i8], [16 x i8]* @.str, i64 0, i64 0), i32 1342, i32 351, i16* %48, i16* null, i16* null, i16* null, %"class.xercesc_2_7::MemoryManager"* %49)
          to label %invoke.cont86 unwind label %lpad85, !dbg !2826

invoke.cont86:                                    ; preds = %if.then81
  call void @__cxa_throw(i8* %exception82, i8* bitcast ({ i8*, i8*, i8* }* @_ZTIN11xercesc_2_723SchemaDateTimeExceptionE to i8*), i8* bitcast (void (%"class.xercesc_2_7::SchemaDateTimeException"*)* @_ZN11xercesc_2_723SchemaDateTimeExceptionD2Ev to i8*)) #13, !dbg !2826
  unreachable, !dbg !2826

lpad85:                                           ; preds = %if.then81
  %50 = landingpad { i8*, i32 }
          cleanup, !dbg !2828
  %51 = extractvalue { i8*, i32 } %50, 0, !dbg !2828
  store i8* %51, i8** %exn.slot, align 8, !dbg !2828
  %52 = extractvalue { i8*, i32 } %50, 1, !dbg !2828
  store i32 %52, i32* %ehselector.slot, align 4, !dbg !2828
  call void @__cxa_free_exception(i8* %exception82) #9, !dbg !2826
  br label %eh.resume, !dbg !2826

if.end87:                                         ; preds = %lor.lhs.false77
  %fTimeZone = getelementptr inbounds %"class.xercesc_2_7::XMLDateTime", %"class.xercesc_2_7::XMLDateTime"* %this1, i32 0, i32 2, !dbg !2829
  %arrayidx88 = getelementptr inbounds [2 x i32], [2 x i32]* %fTimeZone, i64 0, i64 0, !dbg !2829
  %53 = load i32, i32* %arrayidx88, align 8, !dbg !2829
  %call89 = call i32 @abs(i32 %53) #11, !dbg !2831
  %cmp90 = icmp sgt i32 %call89, 14, !dbg !2832
  br i1 %cmp90, label %if.then100, label %lor.lhs.false91, !dbg !2833

lor.lhs.false91:                                  ; preds = %if.end87
  %fTimeZone92 = getelementptr inbounds %"class.xercesc_2_7::XMLDateTime", %"class.xercesc_2_7::XMLDateTime"* %this1, i32 0, i32 2, !dbg !2834
  %arrayidx93 = getelementptr inbounds [2 x i32], [2 x i32]* %fTimeZone92, i64 0, i64 0, !dbg !2834
  %54 = load i32, i32* %arrayidx93, align 8, !dbg !2834
  %call94 = call i32 @abs(i32 %54) #11, !dbg !2835
  %cmp95 = icmp eq i32 %call94, 14, !dbg !2836
  br i1 %cmp95, label %land.lhs.true96, label %if.end106, !dbg !2837

land.lhs.true96:                                  ; preds = %lor.lhs.false91
  %fTimeZone97 = getelementptr inbounds %"class.xercesc_2_7::XMLDateTime", %"class.xercesc_2_7::XMLDateTime"* %this1, i32 0, i32 2, !dbg !2838
  %arrayidx98 = getelementptr inbounds [2 x i32], [2 x i32]* %fTimeZone97, i64 0, i64 1, !dbg !2838
  %55 = load i32, i32* %arrayidx98, align 4, !dbg !2838
  %cmp99 = icmp ne i32 %55, 0, !dbg !2839
  br i1 %cmp99, label %if.then100, label %if.end106, !dbg !2840

if.then100:                                       ; preds = %land.lhs.true96, %if.end87
  %exception101 = call i8* @__cxa_allocate_exception(i64 48) #9, !dbg !2841
  %56 = bitcast i8* %exception101 to %"class.xercesc_2_7::SchemaDateTimeException"*, !dbg !2841
  %fBuffer102 = getelementptr inbounds %"class.xercesc_2_7::XMLDateTime", %"class.xercesc_2_7::XMLDateTime"* %this1, i32 0, i32 8, !dbg !2841
  %57 = load i16*, i16** %fBuffer102, align 8, !dbg !2841
  %fMemoryManager103 = getelementptr inbounds %"class.xercesc_2_7::XMLDateTime", %"class.xercesc_2_7::XMLDateTime"* %this1, i32 0, i32 9, !dbg !2841
  %58 = load %"class.xercesc_2_7::MemoryManager"*, %"class.xercesc_2_7::MemoryManager"** %fMemoryManager103, align 8, !dbg !2841
  invoke void @_ZN11xercesc_2_723SchemaDateTimeExceptionC2EPKcjNS_10XMLExcepts5CodesEPKtS6_S6_S6_PNS_13MemoryManagerE(%"class.xercesc_2_7::SchemaDateTimeException"* %56, i8* getelementptr inbounds ([16 x i8], [16 x i8]* @.str, i64 0, i64 0), i32 1353, i32 352, i16* %57, i16* null, i16* null, i16* null, %"class.xercesc_2_7::MemoryManager"* %58)
          to label %invoke.cont105 unwind label %lpad104, !dbg !2841

invoke.cont105:                                   ; preds = %if.then100
  call void @__cxa_throw(i8* %exception101, i8* bitcast ({ i8*, i8*, i8* }* @_ZTIN11xercesc_2_723SchemaDateTimeExceptionE to i8*), i8* bitcast (void (%"class.xercesc_2_7::SchemaDateTimeException"*)* @_ZN11xercesc_2_723SchemaDateTimeExceptionD2Ev to i8*)) #13, !dbg !2841
  unreachable, !dbg !2841

lpad104:                                          ; preds = %if.then100
  %59 = landingpad { i8*, i32 }
          cleanup, !dbg !2843
  %60 = extractvalue { i8*, i32 } %59, 0, !dbg !2843
  store i8* %60, i8** %exn.slot, align 8, !dbg !2843
  %61 = extractvalue { i8*, i32 } %59, 1, !dbg !2843
  store i32 %61, i32* %ehselector.slot, align 4, !dbg !2843
  call void @__cxa_free_exception(i8* %exception101) #9, !dbg !2841
  br label %eh.resume, !dbg !2841

if.end106:                                        ; preds = %land.lhs.true96, %lor.lhs.false91
  %fTimeZone107 = getelementptr inbounds %"class.xercesc_2_7::XMLDateTime", %"class.xercesc_2_7::XMLDateTime"* %this1, i32 0, i32 2, !dbg !2844
  %arrayidx108 = getelementptr inbounds [2 x i32], [2 x i32]* %fTimeZone107, i64 0, i64 1, !dbg !2844
  %62 = load i32, i32* %arrayidx108, align 4, !dbg !2844
  %call109 = call i32 @abs(i32 %62) #11, !dbg !2846
  %cmp110 = icmp sgt i32 %call109, 59, !dbg !2847
  br i1 %cmp110, label %if.then111, label %if.end117, !dbg !2848

if.then111:                                       ; preds = %if.end106
  %exception112 = call i8* @__cxa_allocate_exception(i64 48) #9, !dbg !2849
  %63 = bitcast i8* %exception112 to %"class.xercesc_2_7::SchemaDateTimeException"*, !dbg !2849
  %fBuffer113 = getelementptr inbounds %"class.xercesc_2_7::XMLDateTime", %"class.xercesc_2_7::XMLDateTime"* %this1, i32 0, i32 8, !dbg !2849
  %64 = load i16*, i16** %fBuffer113, align 8, !dbg !2849
  %fMemoryManager114 = getelementptr inbounds %"class.xercesc_2_7::XMLDateTime", %"class.xercesc_2_7::XMLDateTime"* %this1, i32 0, i32 9, !dbg !2849
  %65 = load %"class.xercesc_2_7::MemoryManager"*, %"class.xercesc_2_7::MemoryManager"** %fMemoryManager114, align 8, !dbg !2849
  invoke void @_ZN11xercesc_2_723SchemaDateTimeExceptionC2EPKcjNS_10XMLExcepts5CodesEPKtS6_S6_S6_PNS_13MemoryManagerE(%"class.xercesc_2_7::SchemaDateTimeException"* %63, i8* getelementptr inbounds ([16 x i8], [16 x i8]* @.str, i64 0, i64 0), i32 1363, i32 350, i16* %64, i16* null, i16* null, i16* null, %"class.xercesc_2_7::MemoryManager"* %65)
          to label %invoke.cont116 unwind label %lpad115, !dbg !2849

invoke.cont116:                                   ; preds = %if.then111
  call void @__cxa_throw(i8* %exception112, i8* bitcast ({ i8*, i8*, i8* }* @_ZTIN11xercesc_2_723SchemaDateTimeExceptionE to i8*), i8* bitcast (void (%"class.xercesc_2_7::SchemaDateTimeException"*)* @_ZN11xercesc_2_723SchemaDateTimeExceptionD2Ev to i8*)) #13, !dbg !2849
  unreachable, !dbg !2849

lpad115:                                          ; preds = %if.then111
  %66 = landingpad { i8*, i32 }
          cleanup, !dbg !2851
  %67 = extractvalue { i8*, i32 } %66, 0, !dbg !2851
  store i8* %67, i8** %exn.slot, align 8, !dbg !2851
  %68 = extractvalue { i8*, i32 } %66, 1, !dbg !2851
  store i32 %68, i32* %ehselector.slot, align 4, !dbg !2851
  call void @__cxa_free_exception(i8* %exception112) #9, !dbg !2849
  br label %eh.resume, !dbg !2849

if.end117:                                        ; preds = %if.end106
  ret void, !dbg !2852

eh.resume:                                        ; preds = %lpad115, %lpad104, %lpad85, %lpad71, %lpad57, %lpad30, %lpad12, %lpad
  %exn = load i8*, i8** %exn.slot, align 8, !dbg !2761
  %sel = load i32, i32* %ehselector.slot, align 4, !dbg !2761
  %lpad.val = insertvalue { i8*, i32 } undef, i8* %exn, 0, !dbg !2761
  %lpad.val118 = insertvalue { i8*, i32 } %lpad.val, i32 %sel, 1, !dbg !2761
  resume { i8*, i32 } %lpad.val118, !dbg !2761
}

; Function Attrs: noinline uwtable
define dso_local void @_ZN11xercesc_2_711XMLDateTime9parseDateEv(%"class.xercesc_2_7::XMLDateTime"* %this) #3 align 2 !dbg !2853 {
entry:
  %this.addr = alloca %"class.xercesc_2_7::XMLDateTime"*, align 8
  store %"class.xercesc_2_7::XMLDateTime"* %this, %"class.xercesc_2_7::XMLDateTime"** %this.addr, align 8
  call void @llvm.dbg.declare(metadata %"class.xercesc_2_7::XMLDateTime"** %this.addr, metadata !2854, metadata !DIExpression()), !dbg !2855
  %this1 = load %"class.xercesc_2_7::XMLDateTime"*, %"class.xercesc_2_7::XMLDateTime"** %this.addr, align 8
  call void @_ZN11xercesc_2_711XMLDateTime10initParserEv(%"class.xercesc_2_7::XMLDateTime"* %this1), !dbg !2856
  call void @_ZN11xercesc_2_711XMLDateTime7getDateEv(%"class.xercesc_2_7::XMLDateTime"* %this1), !dbg !2857
  call void @_ZN11xercesc_2_711XMLDateTime13parseTimeZoneEv(%"class.xercesc_2_7::XMLDateTime"* %this1), !dbg !2858
  call void @_ZNK11xercesc_2_711XMLDateTime16validateDateTimeEv(%"class.xercesc_2_7::XMLDateTime"* %this1), !dbg !2859
  call void @_ZN11xercesc_2_711XMLDateTime9normalizeEv(%"class.xercesc_2_7::XMLDateTime"* %this1), !dbg !2860
  ret void, !dbg !2861
}

; Function Attrs: noinline uwtable
define dso_local void @_ZN11xercesc_2_711XMLDateTime13parseTimeZoneEv(%"class.xercesc_2_7::XMLDateTime"* %this) #3 align 2 personality i8* bitcast (i32 (...)* @__gxx_personality_v0 to i8*) !dbg !2862 {
entry:
  %this.addr = alloca %"class.xercesc_2_7::XMLDateTime"*, align 8
  %pos = alloca i32, align 4
  %exn.slot = alloca i8*
  %ehselector.slot = alloca i32
  store %"class.xercesc_2_7::XMLDateTime"* %this, %"class.xercesc_2_7::XMLDateTime"** %this.addr, align 8
  call void @llvm.dbg.declare(metadata %"class.xercesc_2_7::XMLDateTime"** %this.addr, metadata !2863, metadata !DIExpression()), !dbg !2864
  %this1 = load %"class.xercesc_2_7::XMLDateTime"*, %"class.xercesc_2_7::XMLDateTime"** %this.addr, align 8
  %fStart = getelementptr inbounds %"class.xercesc_2_7::XMLDateTime", %"class.xercesc_2_7::XMLDateTime"* %this1, i32 0, i32 3, !dbg !2865
  %0 = load i32, i32* %fStart, align 8, !dbg !2865
  %fEnd = getelementptr inbounds %"class.xercesc_2_7::XMLDateTime", %"class.xercesc_2_7::XMLDateTime"* %this1, i32 0, i32 4, !dbg !2867
  %1 = load i32, i32* %fEnd, align 4, !dbg !2867
  %cmp = icmp slt i32 %0, %1, !dbg !2868
  br i1 %cmp, label %if.then, label %if.end8, !dbg !2869

if.then:                                          ; preds = %entry
  call void @llvm.dbg.declare(metadata i32* %pos, metadata !2870, metadata !DIExpression()), !dbg !2872
  %fBuffer = getelementptr inbounds %"class.xercesc_2_7::XMLDateTime", %"class.xercesc_2_7::XMLDateTime"* %this1, i32 0, i32 8, !dbg !2873
  %2 = load i16*, i16** %fBuffer, align 8, !dbg !2873
  %fStart2 = getelementptr inbounds %"class.xercesc_2_7::XMLDateTime", %"class.xercesc_2_7::XMLDateTime"* %this1, i32 0, i32 3, !dbg !2874
  %3 = load i32, i32* %fStart2, align 8, !dbg !2874
  %idxprom = sext i32 %3 to i64, !dbg !2873
  %arrayidx = getelementptr inbounds i16, i16* %2, i64 %idxprom, !dbg !2873
  %4 = load i16, i16* %arrayidx, align 2, !dbg !2873
  %call = call i32 @_ZN11xercesc_2_79XMLString7indexOfEPKtt(i16* getelementptr inbounds ([4 x i16], [4 x i16]* @_ZN11xercesc_2_7L7UTC_SETE, i64 0, i64 0), i16 zeroext %4), !dbg !2875
  store i32 %call, i32* %pos, align 4, !dbg !2872
  %5 = load i32, i32* %pos, align 4, !dbg !2876
  %cmp3 = icmp eq i32 %5, -1, !dbg !2878
  br i1 %cmp3, label %if.then4, label %if.else, !dbg !2879

if.then4:                                         ; preds = %if.then
  %exception = call i8* @__cxa_allocate_exception(i64 48) #9, !dbg !2880
  %6 = bitcast i8* %exception to %"class.xercesc_2_7::SchemaDateTimeException"*, !dbg !2880
  %fBuffer5 = getelementptr inbounds %"class.xercesc_2_7::XMLDateTime", %"class.xercesc_2_7::XMLDateTime"* %this1, i32 0, i32 8, !dbg !2880
  %7 = load i16*, i16** %fBuffer5, align 8, !dbg !2880
  %fMemoryManager = getelementptr inbounds %"class.xercesc_2_7::XMLDateTime", %"class.xercesc_2_7::XMLDateTime"* %this1, i32 0, i32 9, !dbg !2880
  %8 = load %"class.xercesc_2_7::MemoryManager"*, %"class.xercesc_2_7::MemoryManager"** %fMemoryManager, align 8, !dbg !2880
  invoke void @_ZN11xercesc_2_723SchemaDateTimeExceptionC2EPKcjNS_10XMLExcepts5CodesEPKtS6_S6_S6_PNS_13MemoryManagerE(%"class.xercesc_2_7::SchemaDateTimeException"* %6, i8* getelementptr inbounds ([16 x i8], [16 x i8]* @.str, i64 0, i64 0), i32 1130, i32 343, i16* %7, i16* null, i16* null, i16* null, %"class.xercesc_2_7::MemoryManager"* %8)
          to label %invoke.cont unwind label %lpad, !dbg !2880

invoke.cont:                                      ; preds = %if.then4
  call void @__cxa_throw(i8* %exception, i8* bitcast ({ i8*, i8*, i8* }* @_ZTIN11xercesc_2_723SchemaDateTimeExceptionE to i8*), i8* bitcast (void (%"class.xercesc_2_7::SchemaDateTimeException"*)* @_ZN11xercesc_2_723SchemaDateTimeExceptionD2Ev to i8*)) #13, !dbg !2880
  unreachable, !dbg !2880

lpad:                                             ; preds = %if.then4
  %9 = landingpad { i8*, i32 }
          cleanup, !dbg !2882
  %10 = extractvalue { i8*, i32 } %9, 0, !dbg !2882
  store i8* %10, i8** %exn.slot, align 8, !dbg !2882
  %11 = extractvalue { i8*, i32 } %9, 1, !dbg !2882
  store i32 %11, i32* %ehselector.slot, align 4, !dbg !2882
  call void @__cxa_free_exception(i8* %exception) #9, !dbg !2880
  br label %eh.resume, !dbg !2880

if.else:                                          ; preds = %if.then
  %12 = load i32, i32* %pos, align 4, !dbg !2883
  %add = add nsw i32 %12, 1, !dbg !2885
  %fValue = getelementptr inbounds %"class.xercesc_2_7::XMLDateTime", %"class.xercesc_2_7::XMLDateTime"* %this1, i32 0, i32 1, !dbg !2886
  %arrayidx6 = getelementptr inbounds [8 x i32], [8 x i32]* %fValue, i64 0, i64 7, !dbg !2886
  store i32 %add, i32* %arrayidx6, align 4, !dbg !2887
  %fStart7 = getelementptr inbounds %"class.xercesc_2_7::XMLDateTime", %"class.xercesc_2_7::XMLDateTime"* %this1, i32 0, i32 3, !dbg !2888
  %13 = load i32, i32* %fStart7, align 8, !dbg !2888
  call void @_ZN11xercesc_2_711XMLDateTime11getTimeZoneEi(%"class.xercesc_2_7::XMLDateTime"* %this1, i32 %13), !dbg !2889
  br label %if.end

if.end:                                           ; preds = %if.else
  br label %if.end8, !dbg !2890

if.end8:                                          ; preds = %if.end, %entry
  ret void, !dbg !2891

eh.resume:                                        ; preds = %lpad
  %exn = load i8*, i8** %exn.slot, align 8, !dbg !2880
  %sel = load i32, i32* %ehselector.slot, align 4, !dbg !2880
  %lpad.val = insertvalue { i8*, i32 } undef, i8* %exn, 0, !dbg !2880
  %lpad.val9 = insertvalue { i8*, i32 } %lpad.val, i32 %sel, 1, !dbg !2880
  resume { i8*, i32 } %lpad.val9, !dbg !2880
}

; Function Attrs: noinline uwtable
define dso_local void @_ZN11xercesc_2_711XMLDateTime9parseTimeEv(%"class.xercesc_2_7::XMLDateTime"* %this) #3 align 2 !dbg !2892 {
entry:
  %this.addr = alloca %"class.xercesc_2_7::XMLDateTime"*, align 8
  store %"class.xercesc_2_7::XMLDateTime"* %this, %"class.xercesc_2_7::XMLDateTime"** %this.addr, align 8
  call void @llvm.dbg.declare(metadata %"class.xercesc_2_7::XMLDateTime"** %this.addr, metadata !2893, metadata !DIExpression()), !dbg !2894
  %this1 = load %"class.xercesc_2_7::XMLDateTime"*, %"class.xercesc_2_7::XMLDateTime"** %this.addr, align 8
  call void @_ZN11xercesc_2_711XMLDateTime10initParserEv(%"class.xercesc_2_7::XMLDateTime"* %this1), !dbg !2895
  %fValue = getelementptr inbounds %"class.xercesc_2_7::XMLDateTime", %"class.xercesc_2_7::XMLDateTime"* %this1, i32 0, i32 1, !dbg !2896
  %arrayidx = getelementptr inbounds [8 x i32], [8 x i32]* %fValue, i64 0, i64 0, !dbg !2896
  store i32 2000, i32* %arrayidx, align 8, !dbg !2897
  %fValue2 = getelementptr inbounds %"class.xercesc_2_7::XMLDateTime", %"class.xercesc_2_7::XMLDateTime"* %this1, i32 0, i32 1, !dbg !2898
  %arrayidx3 = getelementptr inbounds [8 x i32], [8 x i32]* %fValue2, i64 0, i64 1, !dbg !2898
  store i32 1, i32* %arrayidx3, align 4, !dbg !2899
  %fValue4 = getelementptr inbounds %"class.xercesc_2_7::XMLDateTime", %"class.xercesc_2_7::XMLDateTime"* %this1, i32 0, i32 1, !dbg !2900
  %arrayidx5 = getelementptr inbounds [8 x i32], [8 x i32]* %fValue4, i64 0, i64 2, !dbg !2900
  store i32 15, i32* %arrayidx5, align 8, !dbg !2901
  call void @_ZN11xercesc_2_711XMLDateTime7getTimeEv(%"class.xercesc_2_7::XMLDateTime"* %this1), !dbg !2902
  call void @_ZNK11xercesc_2_711XMLDateTime16validateDateTimeEv(%"class.xercesc_2_7::XMLDateTime"* %this1), !dbg !2903
  call void @_ZN11xercesc_2_711XMLDateTime9normalizeEv(%"class.xercesc_2_7::XMLDateTime"* %this1), !dbg !2904
  %fHasTime = getelementptr inbounds %"class.xercesc_2_7::XMLDateTime", %"class.xercesc_2_7::XMLDateTime"* %this1, i32 0, i32 7, !dbg !2905
  store i8 1, i8* %fHasTime, align 8, !dbg !2906
  ret void, !dbg !2907
}

; Function Attrs: noinline uwtable
define dso_local void @_ZN11xercesc_2_711XMLDateTime8parseDayEv(%"class.xercesc_2_7::XMLDateTime"* %this) #3 align 2 personality i8* bitcast (i32 (...)* @__gxx_personality_v0 to i8*) !dbg !2908 {
entry:
  %this.addr = alloca %"class.xercesc_2_7::XMLDateTime"*, align 8
  %exn.slot = alloca i8*
  %ehselector.slot = alloca i32
  %pos = alloca i32, align 4
  store %"class.xercesc_2_7::XMLDateTime"* %this, %"class.xercesc_2_7::XMLDateTime"** %this.addr, align 8
  call void @llvm.dbg.declare(metadata %"class.xercesc_2_7::XMLDateTime"** %this.addr, metadata !2909, metadata !DIExpression()), !dbg !2910
  %this1 = load %"class.xercesc_2_7::XMLDateTime"*, %"class.xercesc_2_7::XMLDateTime"** %this.addr, align 8
  call void @_ZN11xercesc_2_711XMLDateTime10initParserEv(%"class.xercesc_2_7::XMLDateTime"* %this1), !dbg !2911
  %fBuffer = getelementptr inbounds %"class.xercesc_2_7::XMLDateTime", %"class.xercesc_2_7::XMLDateTime"* %this1, i32 0, i32 8, !dbg !2912
  %0 = load i16*, i16** %fBuffer, align 8, !dbg !2912
  %arrayidx = getelementptr inbounds i16, i16* %0, i64 0, !dbg !2912
  %1 = load i16, i16* %arrayidx, align 2, !dbg !2912
  %conv = zext i16 %1 to i32, !dbg !2912
  %cmp = icmp ne i32 %conv, 45, !dbg !2914
  br i1 %cmp, label %if.then, label %lor.lhs.false, !dbg !2915

lor.lhs.false:                                    ; preds = %entry
  %fBuffer2 = getelementptr inbounds %"class.xercesc_2_7::XMLDateTime", %"class.xercesc_2_7::XMLDateTime"* %this1, i32 0, i32 8, !dbg !2916
  %2 = load i16*, i16** %fBuffer2, align 8, !dbg !2916
  %arrayidx3 = getelementptr inbounds i16, i16* %2, i64 1, !dbg !2916
  %3 = load i16, i16* %arrayidx3, align 2, !dbg !2916
  %conv4 = zext i16 %3 to i32, !dbg !2916
  %cmp5 = icmp ne i32 %conv4, 45, !dbg !2917
  br i1 %cmp5, label %if.then, label %lor.lhs.false6, !dbg !2918

lor.lhs.false6:                                   ; preds = %lor.lhs.false
  %fBuffer7 = getelementptr inbounds %"class.xercesc_2_7::XMLDateTime", %"class.xercesc_2_7::XMLDateTime"* %this1, i32 0, i32 8, !dbg !2919
  %4 = load i16*, i16** %fBuffer7, align 8, !dbg !2919
  %arrayidx8 = getelementptr inbounds i16, i16* %4, i64 2, !dbg !2919
  %5 = load i16, i16* %arrayidx8, align 2, !dbg !2919
  %conv9 = zext i16 %5 to i32, !dbg !2919
  %cmp10 = icmp ne i32 %conv9, 45, !dbg !2920
  br i1 %cmp10, label %if.then, label %if.end, !dbg !2921

if.then:                                          ; preds = %lor.lhs.false6, %lor.lhs.false, %entry
  %exception = call i8* @__cxa_allocate_exception(i64 48) #9, !dbg !2922
  %6 = bitcast i8* %exception to %"class.xercesc_2_7::SchemaDateTimeException"*, !dbg !2922
  %fBuffer11 = getelementptr inbounds %"class.xercesc_2_7::XMLDateTime", %"class.xercesc_2_7::XMLDateTime"* %this1, i32 0, i32 8, !dbg !2922
  %7 = load i16*, i16** %fBuffer11, align 8, !dbg !2922
  %fMemoryManager = getelementptr inbounds %"class.xercesc_2_7::XMLDateTime", %"class.xercesc_2_7::XMLDateTime"* %this1, i32 0, i32 9, !dbg !2922
  %8 = load %"class.xercesc_2_7::MemoryManager"*, %"class.xercesc_2_7::MemoryManager"** %fMemoryManager, align 8, !dbg !2922
  invoke void @_ZN11xercesc_2_723SchemaDateTimeExceptionC2EPKcjNS_10XMLExcepts5CodesEPKtS6_S6_S6_PNS_13MemoryManagerE(%"class.xercesc_2_7::SchemaDateTimeException"* %6, i8* getelementptr inbounds ([16 x i8], [16 x i8]* @.str, i64 0, i64 0), i32 588, i32 323, i16* %7, i16* null, i16* null, i16* null, %"class.xercesc_2_7::MemoryManager"* %8)
          to label %invoke.cont unwind label %lpad, !dbg !2922

invoke.cont:                                      ; preds = %if.then
  call void @__cxa_throw(i8* %exception, i8* bitcast ({ i8*, i8*, i8* }* @_ZTIN11xercesc_2_723SchemaDateTimeExceptionE to i8*), i8* bitcast (void (%"class.xercesc_2_7::SchemaDateTimeException"*)* @_ZN11xercesc_2_723SchemaDateTimeExceptionD2Ev to i8*)) #13, !dbg !2922
  unreachable, !dbg !2922

lpad:                                             ; preds = %if.then
  %9 = landingpad { i8*, i32 }
          cleanup, !dbg !2924
  %10 = extractvalue { i8*, i32 } %9, 0, !dbg !2924
  store i8* %10, i8** %exn.slot, align 8, !dbg !2924
  %11 = extractvalue { i8*, i32 } %9, 1, !dbg !2924
  store i32 %11, i32* %ehselector.slot, align 4, !dbg !2924
  call void @__cxa_free_exception(i8* %exception) #9, !dbg !2922
  br label %eh.resume, !dbg !2922

if.end:                                           ; preds = %lor.lhs.false6
  %fValue = getelementptr inbounds %"class.xercesc_2_7::XMLDateTime", %"class.xercesc_2_7::XMLDateTime"* %this1, i32 0, i32 1, !dbg !2925
  %arrayidx12 = getelementptr inbounds [8 x i32], [8 x i32]* %fValue, i64 0, i64 0, !dbg !2925
  store i32 2000, i32* %arrayidx12, align 8, !dbg !2926
  %fValue13 = getelementptr inbounds %"class.xercesc_2_7::XMLDateTime", %"class.xercesc_2_7::XMLDateTime"* %this1, i32 0, i32 1, !dbg !2927
  %arrayidx14 = getelementptr inbounds [8 x i32], [8 x i32]* %fValue13, i64 0, i64 1, !dbg !2927
  store i32 1, i32* %arrayidx14, align 4, !dbg !2928
  %fStart = getelementptr inbounds %"class.xercesc_2_7::XMLDateTime", %"class.xercesc_2_7::XMLDateTime"* %this1, i32 0, i32 3, !dbg !2929
  %12 = load i32, i32* %fStart, align 8, !dbg !2929
  %add = add nsw i32 %12, 3, !dbg !2930
  %fStart15 = getelementptr inbounds %"class.xercesc_2_7::XMLDateTime", %"class.xercesc_2_7::XMLDateTime"* %this1, i32 0, i32 3, !dbg !2931
  %13 = load i32, i32* %fStart15, align 8, !dbg !2931
  %add16 = add nsw i32 %13, 5, !dbg !2932
  %call = call i32 @_ZNK11xercesc_2_711XMLDateTime8parseIntEii(%"class.xercesc_2_7::XMLDateTime"* %this1, i32 %add, i32 %add16), !dbg !2933
  %fValue17 = getelementptr inbounds %"class.xercesc_2_7::XMLDateTime", %"class.xercesc_2_7::XMLDateTime"* %this1, i32 0, i32 1, !dbg !2934
  %arrayidx18 = getelementptr inbounds [8 x i32], [8 x i32]* %fValue17, i64 0, i64 2, !dbg !2934
  store i32 %call, i32* %arrayidx18, align 8, !dbg !2935
  %fEnd = getelementptr inbounds %"class.xercesc_2_7::XMLDateTime", %"class.xercesc_2_7::XMLDateTime"* %this1, i32 0, i32 4, !dbg !2936
  %14 = load i32, i32* %fEnd, align 4, !dbg !2936
  %cmp19 = icmp slt i32 5, %14, !dbg !2938
  br i1 %cmp19, label %if.then20, label %if.end35, !dbg !2939

if.then20:                                        ; preds = %if.end
  call void @llvm.dbg.declare(metadata i32* %pos, metadata !2940, metadata !DIExpression()), !dbg !2942
  %fBuffer21 = getelementptr inbounds %"class.xercesc_2_7::XMLDateTime", %"class.xercesc_2_7::XMLDateTime"* %this1, i32 0, i32 8, !dbg !2943
  %15 = load i16*, i16** %fBuffer21, align 8, !dbg !2943
  %arrayidx22 = getelementptr inbounds i16, i16* %15, i64 5, !dbg !2943
  %16 = load i16, i16* %arrayidx22, align 2, !dbg !2943
  %call23 = call i32 @_ZN11xercesc_2_79XMLString7indexOfEPKtt(i16* getelementptr inbounds ([4 x i16], [4 x i16]* @_ZN11xercesc_2_7L7UTC_SETE, i64 0, i64 0), i16 zeroext %16), !dbg !2944
  store i32 %call23, i32* %pos, align 4, !dbg !2942
  %17 = load i32, i32* %pos, align 4, !dbg !2945
  %cmp24 = icmp eq i32 %17, -1, !dbg !2947
  br i1 %cmp24, label %if.then25, label %if.else, !dbg !2948

if.then25:                                        ; preds = %if.then20
  %exception26 = call i8* @__cxa_allocate_exception(i64 48) #9, !dbg !2949
  %18 = bitcast i8* %exception26 to %"class.xercesc_2_7::SchemaDateTimeException"*, !dbg !2949
  %fBuffer27 = getelementptr inbounds %"class.xercesc_2_7::XMLDateTime", %"class.xercesc_2_7::XMLDateTime"* %this1, i32 0, i32 8, !dbg !2949
  %19 = load i16*, i16** %fBuffer27, align 8, !dbg !2949
  %fMemoryManager28 = getelementptr inbounds %"class.xercesc_2_7::XMLDateTime", %"class.xercesc_2_7::XMLDateTime"* %this1, i32 0, i32 9, !dbg !2949
  %20 = load %"class.xercesc_2_7::MemoryManager"*, %"class.xercesc_2_7::MemoryManager"** %fMemoryManager28, align 8, !dbg !2949
  invoke void @_ZN11xercesc_2_723SchemaDateTimeExceptionC2EPKcjNS_10XMLExcepts5CodesEPKtS6_S6_S6_PNS_13MemoryManagerE(%"class.xercesc_2_7::SchemaDateTimeException"* %18, i8* getelementptr inbounds ([16 x i8], [16 x i8]* @.str, i64 0, i64 0), i32 604, i32 323, i16* %19, i16* null, i16* null, i16* null, %"class.xercesc_2_7::MemoryManager"* %20)
          to label %invoke.cont30 unwind label %lpad29, !dbg !2949

invoke.cont30:                                    ; preds = %if.then25
  call void @__cxa_throw(i8* %exception26, i8* bitcast ({ i8*, i8*, i8* }* @_ZTIN11xercesc_2_723SchemaDateTimeExceptionE to i8*), i8* bitcast (void (%"class.xercesc_2_7::SchemaDateTimeException"*)* @_ZN11xercesc_2_723SchemaDateTimeExceptionD2Ev to i8*)) #13, !dbg !2949
  unreachable, !dbg !2949

lpad29:                                           ; preds = %if.then25
  %21 = landingpad { i8*, i32 }
          cleanup, !dbg !2951
  %22 = extractvalue { i8*, i32 } %21, 0, !dbg !2951
  store i8* %22, i8** %exn.slot, align 8, !dbg !2951
  %23 = extractvalue { i8*, i32 } %21, 1, !dbg !2951
  store i32 %23, i32* %ehselector.slot, align 4, !dbg !2951
  call void @__cxa_free_exception(i8* %exception26) #9, !dbg !2949
  br label %eh.resume, !dbg !2949

if.else:                                          ; preds = %if.then20
  %24 = load i32, i32* %pos, align 4, !dbg !2952
  %add31 = add nsw i32 %24, 1, !dbg !2954
  %fValue32 = getelementptr inbounds %"class.xercesc_2_7::XMLDateTime", %"class.xercesc_2_7::XMLDateTime"* %this1, i32 0, i32 1, !dbg !2955
  %arrayidx33 = getelementptr inbounds [8 x i32], [8 x i32]* %fValue32, i64 0, i64 7, !dbg !2955
  store i32 %add31, i32* %arrayidx33, align 4, !dbg !2956
  call void @_ZN11xercesc_2_711XMLDateTime11getTimeZoneEi(%"class.xercesc_2_7::XMLDateTime"* %this1, i32 5), !dbg !2957
  br label %if.end34

if.end34:                                         ; preds = %if.else
  br label %if.end35, !dbg !2958

if.end35:                                         ; preds = %if.end34, %if.end
  call void @_ZNK11xercesc_2_711XMLDateTime16validateDateTimeEv(%"class.xercesc_2_7::XMLDateTime"* %this1), !dbg !2959
  call void @_ZN11xercesc_2_711XMLDateTime9normalizeEv(%"class.xercesc_2_7::XMLDateTime"* %this1), !dbg !2960
  ret void, !dbg !2961

eh.resume:                                        ; preds = %lpad29, %lpad
  %exn = load i8*, i8** %exn.slot, align 8, !dbg !2922
