; ModuleID = 'ResultNamespacesStack.cpp'
source_filename = "ResultNamespacesStack.cpp"
target datalayout = "e-m:e-p270:32:32-p271:32:32-p272:64:64-i64:64-f80:128-n8:16:32:64-S128"
target triple = "x86_64-unknown-linux-gnu"

%"class.xalanc_1_10::ResultNamespacesStack" = type { %"class.xalanc_1_10::XalanDeque", %"struct.xalanc_1_10::XalanDequeIterator", %"struct.xalanc_1_10::XalanDequeIterator", %"class.xalanc_1_10::XalanVector.1" }
%"class.xalanc_1_10::XalanDeque" = type { %"class.xercesc_2_7::MemoryManager"*, i64, %"class.xalanc_1_10::XalanVector", %"class.xalanc_1_10::XalanVector" }
%"class.xalanc_1_10::XalanVector" = type { %"class.xercesc_2_7::MemoryManager"*, i64, i64, %"class.xalanc_1_10::XalanVector.0"** }
%"class.xalanc_1_10::XalanVector.0" = type { %"class.xercesc_2_7::MemoryManager"*, i64, i64, %"class.xalanc_1_10::XalanDeque.3"* }
%"class.xalanc_1_10::XalanDeque.3" = type { %"class.xercesc_2_7::MemoryManager"*, i64, %"class.xalanc_1_10::XalanVector.4", %"class.xalanc_1_10::XalanVector.4" }
%"class.xalanc_1_10::XalanVector.4" = type { %"class.xercesc_2_7::MemoryManager"*, i64, i64, %"class.xalanc_1_10::XalanVector.5"** }
%"class.xalanc_1_10::XalanVector.5" = type { %"class.xercesc_2_7::MemoryManager"*, i64, i64, %"class.xalanc_1_10::NameSpace"* }
%"class.xalanc_1_10::NameSpace" = type { %"class.xalanc_1_10::XalanDOMString", %"class.xalanc_1_10::XalanDOMString" }
%"class.xalanc_1_10::XalanDOMString" = type <{ %"class.xalanc_1_10::XalanVector.2", i32, [4 x i8] }>
%"class.xalanc_1_10::XalanVector.2" = type { %"class.xercesc_2_7::MemoryManager"*, i64, i64, i16* }
%"struct.xalanc_1_10::XalanDequeIterator" = type { %"class.xalanc_1_10::XalanDeque"*, i64 }
%"class.xalanc_1_10::XalanVector.1" = type { %"class.xercesc_2_7::MemoryManager"*, i64, i64, i8* }
%"class.xercesc_2_7::MemoryManager" = type { i32 (...)** }
%"struct.xalanc_1_10::ConstructValueWithMemoryManager" = type { %"class.xalanc_1_10::XalanDeque.3" }
%"class.std::back_insert_iterator" = type { %"class.xalanc_1_10::XalanDeque"* }
%"struct.xalanc_1_10::ConstructValueWithMemoryManager.8" = type { %"class.xalanc_1_10::NameSpace" }
%"struct.xalanc_1_10::XalanDequeIterator.6" = type { %"class.xalanc_1_10::XalanDeque"*, i64 }
%"struct.xalanc_1_10::XalanDequeIterator.7" = type { %"class.xalanc_1_10::XalanDeque.3"*, i64 }
%"struct.std::random_access_iterator_tag" = type { i8 }
%"struct.std::output_iterator_tag" = type { i8 }
%"class.std::back_insert_iterator.9" = type { %"class.xalanc_1_10::XalanDeque.3"* }
%"struct.std::iterator" = type { i8 }

$_ZN11xalanc_1_1010XalanDequeINS0_INS_9NameSpaceENS_32ConstructWithMemoryManagerTraitsIS1_EEEENS2_IS4_EEEC2ERN11xercesc_2_713MemoryManagerEmm = comdat any

$_ZN11xalanc_1_1010XalanDequeINS0_INS_9NameSpaceENS_32ConstructWithMemoryManagerTraitsIS1_EEEENS2_IS4_EEE5beginEv = comdat any

$_ZN11xalanc_1_1018XalanDequeIteratorINS_24XalanDequeIteratorTraitsINS_10XalanDequeINS_9NameSpaceENS_32ConstructWithMemoryManagerTraitsIS3_EEEEEENS2_IS6_NS4_IS6_EEEEEC2ERKSA_ = comdat any

$_ZN11xalanc_1_1011XalanVectorIbNS_31MemoryManagedConstructionTraitsIbEEEC2ERN11xercesc_2_713MemoryManagerEm = comdat any

$_ZN11xalanc_1_1010XalanDequeINS0_INS_9NameSpaceENS_32ConstructWithMemoryManagerTraitsIS1_EEEENS2_IS4_EEED2Ev = comdat any

$_ZN11xalanc_1_1011XalanVectorIbNS_31MemoryManagedConstructionTraitsIbEEED2Ev = comdat any

$_ZN11xalanc_1_1011XalanVectorIbNS_31MemoryManagedConstructionTraitsIbEEE4backEv = comdat any

$_ZN11xalanc_1_1018XalanDequeIteratorINS_24XalanDequeIteratorTraitsINS_10XalanDequeINS_9NameSpaceENS_32ConstructWithMemoryManagerTraitsIS3_EEEEEENS2_IS6_NS4_IS6_EEEEEppEv = comdat any

$_ZNK11xalanc_1_1018XalanDequeIteratorINS_24XalanDequeIteratorTraitsINS_10XalanDequeINS_9NameSpaceENS_32ConstructWithMemoryManagerTraitsIS3_EEEEEENS2_IS6_NS4_IS6_EEEEEeqERKSA_ = comdat any

$_ZN11xalanc_1_1010XalanDequeINS0_INS_9NameSpaceENS_32ConstructWithMemoryManagerTraitsIS1_EEEENS2_IS4_EEE3endEv = comdat any

$_ZN11xalanc_1_1010XalanDequeINS0_INS_9NameSpaceENS_32ConstructWithMemoryManagerTraitsIS1_EEEENS2_IS4_EEE6resizeEm = comdat any

$_ZNK11xalanc_1_1010XalanDequeINS0_INS_9NameSpaceENS_32ConstructWithMemoryManagerTraitsIS1_EEEENS2_IS4_EEE4sizeEv = comdat any

$_ZNK11xalanc_1_1018XalanDequeIteratorINS_24XalanDequeIteratorTraitsINS_10XalanDequeINS_9NameSpaceENS_32ConstructWithMemoryManagerTraitsIS3_EEEEEENS2_IS6_NS4_IS6_EEEEEmiEl = comdat any

$_ZN11xalanc_1_1018XalanDequeIteratorINS_24XalanDequeIteratorTraitsINS_10XalanDequeINS_9NameSpaceENS_32ConstructWithMemoryManagerTraitsIS3_EEEEEENS2_IS6_NS4_IS6_EEEEEaSERKSA_ = comdat any

$_ZN11xalanc_1_1018XalanDequeIteratorINS_24XalanDequeIteratorTraitsINS_10XalanDequeINS_9NameSpaceENS_32ConstructWithMemoryManagerTraitsIS3_EEEEEENS2_IS6_NS4_IS6_EEEEEdeEv = comdat any

$_ZN11xalanc_1_1010XalanDequeINS_9NameSpaceENS_32ConstructWithMemoryManagerTraitsIS1_EEE6resizeEm = comdat any

$_ZNK11xalanc_1_1010XalanDequeINS_9NameSpaceENS_32ConstructWithMemoryManagerTraitsIS1_EEE4sizeEv = comdat any

$_ZN11xalanc_1_1010XalanDequeINS_9NameSpaceENS_32ConstructWithMemoryManagerTraitsIS1_EEE4backEv = comdat any

$_ZN11xalanc_1_109NameSpace9setPrefixERKNS_14XalanDOMStringE = comdat any

$_ZN11xalanc_1_109NameSpace6setURIEPKtj = comdat any

$_ZNK11xalanc_1_1011XalanVectorIbNS_31MemoryManagedConstructionTraitsIbEEE5emptyEv = comdat any

$_ZN11xalanc_1_1011XalanVectorIbNS_31MemoryManagedConstructionTraitsIbEEE7reserveEm = comdat any

$_ZN11xalanc_1_1011XalanVectorIbNS_31MemoryManagedConstructionTraitsIbEEE9push_backERKb = comdat any

$_ZN11xalanc_1_1010XalanDequeINS_9NameSpaceENS_32ConstructWithMemoryManagerTraitsIS1_EEE5clearEv = comdat any

$_ZN11xalanc_1_1018XalanDequeIteratorINS_24XalanDequeIteratorTraitsINS_10XalanDequeINS_9NameSpaceENS_32ConstructWithMemoryManagerTraitsIS3_EEEEEENS2_IS6_NS4_IS6_EEEEEmmEv = comdat any

$_ZN11xalanc_1_1011XalanVectorIbNS_31MemoryManagedConstructionTraitsIbEEE8pop_backEv = comdat any

$_ZN11xalanc_1_1018XalanDequeIteratorINS_29XalanDequeConstIteratorTraitsINS_10XalanDequeINS_9NameSpaceENS_32ConstructWithMemoryManagerTraitsIS3_EEEEEENS2_IS6_NS4_IS6_EEEEEC2ERKNS0_INS_24XalanDequeIteratorTraitsIS6_EES9_EE = comdat any

$_ZNK11xalanc_1_1018XalanDequeIteratorINS_24XalanDequeIteratorTraitsINS_10XalanDequeINS_9NameSpaceENS_32ConstructWithMemoryManagerTraitsIS3_EEEEEENS2_IS6_NS4_IS6_EEEEEplEl = comdat any

$_ZNK11xalanc_1_1010XalanDequeINS_9NameSpaceENS_32ConstructWithMemoryManagerTraitsIS1_EEE5beginEv = comdat any

$_ZNK11xalanc_1_1010XalanDequeINS_9NameSpaceENS_32ConstructWithMemoryManagerTraitsIS1_EEE3endEv = comdat any

$_ZNK11xalanc_1_1018XalanDequeIteratorINS_29XalanDequeConstIteratorTraitsINS_9NameSpaceEEENS_10XalanDequeIS2_NS_32ConstructWithMemoryManagerTraitsIS2_EEEEEneERKS8_ = comdat any

$_ZN11xalanc_1_1018XalanDequeIteratorINS_29XalanDequeConstIteratorTraitsINS_9NameSpaceEEENS_10XalanDequeIS2_NS_32ConstructWithMemoryManagerTraitsIS2_EEEEEdeEv = comdat any

$_ZNK11xalanc_1_109NameSpace9getPrefixEv = comdat any

$_ZN11xalanc_1_10eqERKNS_14XalanDOMStringES2_ = comdat any

$_ZN11xalanc_1_1018XalanDequeIteratorINS_29XalanDequeConstIteratorTraitsINS_9NameSpaceEEENS_10XalanDequeIS2_NS_32ConstructWithMemoryManagerTraitsIS2_EEEEEppEv = comdat any

$_ZN11xalanc_1_1010XalanDequeINS0_INS_9NameSpaceENS_32ConstructWithMemoryManagerTraitsIS1_EEEENS2_IS4_EEE4swapERS6_ = comdat any

$_ZN11xalanc_1_1011XalanVectorIbNS_31MemoryManagedConstructionTraitsIbEEE5clearEv = comdat any

$_ZN11xalanc_1_1014XalanDOMStringaSERKS0_ = comdat any

$_ZN11xalanc_1_1014XalanDOMString6assignERKS0_ = comdat any

$_ZNK11xalanc_1_1014XalanDOMString10invariantsEv = comdat any

$_ZN11xalanc_1_1011XalanVectorItNS_31MemoryManagedConstructionTraitsItEEEaSERKS3_ = comdat any

$_ZNK11xalanc_1_1011XalanVectorItNS_31MemoryManagedConstructionTraitsItEEE10invariantsEv = comdat any

$_ZN11xalanc_1_1011XalanVectorItNS_31MemoryManagedConstructionTraitsItEEEC2ERKS3_RN11xercesc_2_713MemoryManagerEm = comdat any

$_ZN11xalanc_1_1011XalanVectorItNS_31MemoryManagedConstructionTraitsItEEE4swapERS3_ = comdat any

$_ZN11xalanc_1_1011XalanVectorItNS_31MemoryManagedConstructionTraitsItEEED2Ev = comdat any

$_ZNK11xalanc_1_1011XalanVectorItNS_31MemoryManagedConstructionTraitsItEEE3endEv = comdat any

$_ZN11xalanc_1_1011XalanVectorItNS_31MemoryManagedConstructionTraitsItEEE12shrinkToSizeEm = comdat any

$_ZNK11xalanc_1_1011XalanVectorItNS_31MemoryManagedConstructionTraitsItEEE5beginEv = comdat any

$_ZN11xalanc_1_1011XalanVectorItNS_31MemoryManagedConstructionTraitsItEEE6insertEPtPKtS6_ = comdat any

$_ZN11xalanc_1_1011XalanVectorItNS_31MemoryManagedConstructionTraitsItEEE3endEv = comdat any

$_ZSt4copyIPKtPtET0_T_S4_S3_ = comdat any

$_ZN11xalanc_1_1011XalanVectorItNS_31MemoryManagedConstructionTraitsItEEE5beginEv = comdat any

$_ZN11xalanc_1_1011XalanVectorItNS_31MemoryManagedConstructionTraitsItEEE9local_maxEmm = comdat any

$_ZN11xalanc_1_1011XalanVectorItNS_31MemoryManagedConstructionTraitsItEEEC2ERN11xercesc_2_713MemoryManagerEm = comdat any

$_ZN11xalanc_1_1011XalanVectorItNS_31MemoryManagedConstructionTraitsItEEE8allocateEm = comdat any

$__clang_call_terminate = comdat any

$_ZN11xalanc_1_1011XalanVectorItNS_31MemoryManagedConstructionTraitsItEEE7destroyEPtS4_ = comdat any

$_ZN11xalanc_1_1011XalanVectorItNS_31MemoryManagedConstructionTraitsItEEE10deallocateEPt = comdat any

$_ZN11xalanc_1_1011XalanVectorItNS_31MemoryManagedConstructionTraitsItEEE7destroyERt = comdat any

$_ZNK11xalanc_1_1011XalanVectorItNS_31MemoryManagedConstructionTraitsItEEE10endPointerEv = comdat any

$_ZN11xalanc_1_1011XalanVectorItNS_31MemoryManagedConstructionTraitsItEEE8pop_backEv = comdat any

$_ZN11xalanc_1_1011XalanVectorItNS_31MemoryManagedConstructionTraitsItEEE14local_distanceEPKtS5_ = comdat any

$_ZNK11xalanc_1_1011XalanVectorItNS_31MemoryManagedConstructionTraitsItEEE4sizeEv = comdat any

$_ZN11xalanc_1_1011XalanVectorItNS_31MemoryManagedConstructionTraitsItEEE14ensureCapacityEm = comdat any

$_ZN11xalanc_1_1028ConstructWithNoMemoryManagerItE9constructEPtRKtRN11xercesc_2_713MemoryManagerE = comdat any

$_ZNK11xalanc_1_1011XalanVectorItNS_31MemoryManagedConstructionTraitsItEEE8capacityEv = comdat any

$_ZN11xalanc_1_1011XalanVectorItNS_31MemoryManagedConstructionTraitsItEEE10doPushBackERKt = comdat any

$_ZSt13copy_backwardIPtS0_ET0_T_S2_S1_ = comdat any

$_ZSt8distanceIPKtENSt15iterator_traitsIT_E15difference_typeES3_S3_ = comdat any

$_ZSt10__distanceIPKtENSt15iterator_traitsIT_E15difference_typeES3_S3_St26random_access_iterator_tag = comdat any

$_ZSt19__iterator_categoryIPKtENSt15iterator_traitsIT_E17iterator_categoryERKS3_ = comdat any

$_ZN11xalanc_1_1011XalanVectorItNS_31MemoryManagedConstructionTraitsItEEE9doReserveEm = comdat any

$_ZN11xalanc_1_1011XalanVectorItNS_31MemoryManagedConstructionTraitsItEEE10endPointerEv = comdat any

$_ZSt22__copy_move_backward_aILb0EPtS0_ET1_T0_S2_S1_ = comdat any

$_ZSt12__miter_baseIPtET_S1_ = comdat any

$_ZSt12__niter_wrapIPtET_RKS1_S1_ = comdat any

$_ZSt23__copy_move_backward_a1ILb0EPtS0_ET1_T0_S2_S1_ = comdat any

$_ZSt12__niter_baseIPtET_S1_ = comdat any

$_ZSt23__copy_move_backward_a2ILb0EPtS0_ET1_T0_S2_S1_ = comdat any

$_ZNSt20__copy_move_backwardILb0ELb1ESt26random_access_iterator_tagE13__copy_move_bItEEPT_PKS3_S6_S4_ = comdat any

$_ZSt13__copy_move_aILb0EPKtPtET1_T0_S4_S3_ = comdat any

$_ZSt12__miter_baseIPKtET_S2_ = comdat any

$_ZSt14__copy_move_a1ILb0EPKtPtET1_T0_S4_S3_ = comdat any

$_ZSt12__niter_baseIPKtET_S2_ = comdat any

$_ZSt14__copy_move_a2ILb0EPKtPtET1_T0_S4_S3_ = comdat any

$_ZNSt11__copy_moveILb0ELb1ESt26random_access_iterator_tagE8__copy_mItEEPT_PKS3_S6_S4_ = comdat any

$_ZN11xalanc_1_1014XalanDOMString6assignEPKtj = comdat any

$_ZNK11xalanc_1_1011XalanVectorIPNS0_INS_10XalanDequeINS_9NameSpaceENS_32ConstructWithMemoryManagerTraitsIS2_EEEENS3_IS5_EEEENS_31MemoryManagedConstructionTraitsIS8_EEE5emptyEv = comdat any

$_ZNK11xalanc_1_1011XalanVectorIPNS0_INS_10XalanDequeINS_9NameSpaceENS_32ConstructWithMemoryManagerTraitsIS2_EEEENS3_IS5_EEEENS_31MemoryManagedConstructionTraitsIS8_EEE4sizeEv = comdat any

$_ZNK11xalanc_1_1011XalanVectorIPNS0_INS_10XalanDequeINS_9NameSpaceENS_32ConstructWithMemoryManagerTraitsIS2_EEEENS3_IS5_EEEENS_31MemoryManagedConstructionTraitsIS8_EEE4backEv = comdat any

$_ZNK11xalanc_1_1011XalanVectorINS_10XalanDequeINS_9NameSpaceENS_32ConstructWithMemoryManagerTraitsIS2_EEEENS3_IS5_EEE4sizeEv = comdat any

$_ZNK11xalanc_1_1011XalanVectorIPNS0_INS_10XalanDequeINS_9NameSpaceENS_32ConstructWithMemoryManagerTraitsIS2_EEEENS3_IS5_EEEENS_31MemoryManagedConstructionTraitsIS8_EEE10invariantsEv = comdat any

$_ZNK11xalanc_1_1011XalanVectorINS_10XalanDequeINS_9NameSpaceENS_32ConstructWithMemoryManagerTraitsIS2_EEEENS3_IS5_EEE10invariantsEv = comdat any

$_ZN11xalanc_1_1011XalanVectorIPNS0_INS_10XalanDequeINS_9NameSpaceENS_32ConstructWithMemoryManagerTraitsIS2_EEEENS3_IS5_EEEENS_31MemoryManagedConstructionTraitsIS8_EEEC2ERN11xercesc_2_713MemoryManagerEm = comdat any

$_ZN11xalanc_1_1031ConstructValueWithMemoryManagerINS_10XalanDequeINS_9NameSpaceENS_32ConstructWithMemoryManagerTraitsIS2_EEEEEC2ERN11xercesc_2_713MemoryManagerE = comdat any

$_ZSt6fill_nISt20back_insert_iteratorIN11xalanc_1_1010XalanDequeINS2_INS1_9NameSpaceENS1_32ConstructWithMemoryManagerTraitsIS3_EEEENS4_IS6_EEEEEmS6_ET_SA_T0_RKT1_ = comdat any

$_ZSt13back_inserterIN11xalanc_1_1010XalanDequeINS1_INS0_9NameSpaceENS0_32ConstructWithMemoryManagerTraitsIS2_EEEENS3_IS5_EEEEESt20back_insert_iteratorIT_ERS9_ = comdat any

$_ZN11xalanc_1_1031ConstructValueWithMemoryManagerINS_10XalanDequeINS_9NameSpaceENS_32ConstructWithMemoryManagerTraitsIS2_EEEEED2Ev = comdat any

$_ZN11xalanc_1_1011XalanVectorIPNS0_INS_10XalanDequeINS_9NameSpaceENS_32ConstructWithMemoryManagerTraitsIS2_EEEENS3_IS5_EEEENS_31MemoryManagedConstructionTraitsIS8_EEED2Ev = comdat any

$_ZN11xalanc_1_1011XalanVectorIPNS0_INS_10XalanDequeINS_9NameSpaceENS_32ConstructWithMemoryManagerTraitsIS2_EEEENS3_IS5_EEEENS_31MemoryManagedConstructionTraitsIS8_EEE8allocateEm = comdat any

$_ZN11xalanc_1_1010XalanDequeINS_9NameSpaceENS_32ConstructWithMemoryManagerTraitsIS1_EEEC2ERN11xercesc_2_713MemoryManagerEmm = comdat any

$_ZN11xalanc_1_1011XalanVectorIPNS0_INS_9NameSpaceENS_32ConstructWithMemoryManagerTraitsIS1_EEEENS_31MemoryManagedConstructionTraitsIS5_EEEC2ERN11xercesc_2_713MemoryManagerEm = comdat any

$_ZN11xalanc_1_1031ConstructValueWithMemoryManagerINS_9NameSpaceEEC2ERN11xercesc_2_713MemoryManagerE = comdat any

$_ZSt6fill_nISt20back_insert_iteratorIN11xalanc_1_1010XalanDequeINS1_9NameSpaceENS1_32ConstructWithMemoryManagerTraitsIS3_EEEEEmS3_ET_S8_T0_RKT1_ = comdat any

$_ZSt13back_inserterIN11xalanc_1_1010XalanDequeINS0_9NameSpaceENS0_32ConstructWithMemoryManagerTraitsIS2_EEEEESt20back_insert_iteratorIT_ERS7_ = comdat any

$_ZN11xalanc_1_1031ConstructValueWithMemoryManagerINS_9NameSpaceEED2Ev = comdat any

$_ZN11xalanc_1_1011XalanVectorIPNS0_INS_9NameSpaceENS_32ConstructWithMemoryManagerTraitsIS1_EEEENS_31MemoryManagedConstructionTraitsIS5_EEED2Ev = comdat any

$_ZN11xalanc_1_1011XalanVectorIPNS0_INS_9NameSpaceENS_32ConstructWithMemoryManagerTraitsIS1_EEEENS_31MemoryManagedConstructionTraitsIS5_EEE8allocateEm = comdat any

$_ZNK11xalanc_1_1011XalanVectorIPNS0_INS_9NameSpaceENS_32ConstructWithMemoryManagerTraitsIS1_EEEENS_31MemoryManagedConstructionTraitsIS5_EEE10invariantsEv = comdat any

$_ZN11xalanc_1_109NameSpaceC2ERN11xercesc_2_713MemoryManagerE = comdat any

$_ZN11xalanc_1_1014XalanDOMStringD2Ev = comdat any

$_ZSt10__fill_n_aISt20back_insert_iteratorIN11xalanc_1_1010XalanDequeINS1_9NameSpaceENS1_32ConstructWithMemoryManagerTraitsIS3_EEEEEmS3_ET_S8_T0_RKT1_St19output_iterator_tag = comdat any

$_ZSt17__size_to_integerm = comdat any

$_ZSt19__iterator_categoryISt20back_insert_iteratorIN11xalanc_1_1010XalanDequeINS1_9NameSpaceENS1_32ConstructWithMemoryManagerTraitsIS3_EEEEEENSt15iterator_traitsIT_E17iterator_categoryERKS9_ = comdat any

$_ZSt11__fill_n_a1ISt20back_insert_iteratorIN11xalanc_1_1010XalanDequeINS1_9NameSpaceENS1_32ConstructWithMemoryManagerTraitsIS3_EEEEEmS3_EN9__gnu_cxx11__enable_ifIXntsr11__is_scalarIT1_EE7__valueET_E6__typeESB_T0_RKSA_ = comdat any

$_ZNSt20back_insert_iteratorIN11xalanc_1_1010XalanDequeINS0_9NameSpaceENS0_32ConstructWithMemoryManagerTraitsIS2_EEEEEdeEv = comdat any

$_ZNSt20back_insert_iteratorIN11xalanc_1_1010XalanDequeINS0_9NameSpaceENS0_32ConstructWithMemoryManagerTraitsIS2_EEEEEaSERKS2_ = comdat any

$_ZNSt20back_insert_iteratorIN11xalanc_1_1010XalanDequeINS0_9NameSpaceENS0_32ConstructWithMemoryManagerTraitsIS2_EEEEEppEv = comdat any

$_ZN11xalanc_1_1010XalanDequeINS_9NameSpaceENS_32ConstructWithMemoryManagerTraitsIS1_EEE9push_backERKS1_ = comdat any

$_ZNK11xalanc_1_1011XalanVectorIPNS0_INS_9NameSpaceENS_32ConstructWithMemoryManagerTraitsIS1_EEEENS_31MemoryManagedConstructionTraitsIS5_EEE5emptyEv = comdat any

$_ZN11xalanc_1_1011XalanVectorIPNS0_INS_9NameSpaceENS_32ConstructWithMemoryManagerTraitsIS1_EEEENS_31MemoryManagedConstructionTraitsIS5_EEE4backEv = comdat any

$_ZNK11xalanc_1_1011XalanVectorINS_9NameSpaceENS_32ConstructWithMemoryManagerTraitsIS1_EEE4sizeEv = comdat any

$_ZN11xalanc_1_1011XalanVectorIPNS0_INS_9NameSpaceENS_32ConstructWithMemoryManagerTraitsIS1_EEEENS_31MemoryManagedConstructionTraitsIS5_EEE9push_backERKS5_ = comdat any

$_ZN11xalanc_1_1010XalanDequeINS_9NameSpaceENS_32ConstructWithMemoryManagerTraitsIS1_EEE11getNewBlockEv = comdat any

$_ZN11xalanc_1_1011XalanVectorINS_9NameSpaceENS_32ConstructWithMemoryManagerTraitsIS1_EEE9push_backERKS1_ = comdat any

$_ZNK11xalanc_1_1011XalanVectorINS_9NameSpaceENS_32ConstructWithMemoryManagerTraitsIS1_EEE10invariantsEv = comdat any

$_ZN11xalanc_1_1011XalanVectorIPNS0_INS_9NameSpaceENS_32ConstructWithMemoryManagerTraitsIS1_EEEENS_31MemoryManagedConstructionTraitsIS5_EEE10doPushBackERKS5_ = comdat any

$_ZN11xalanc_1_1028ConstructWithNoMemoryManagerIPNS_11XalanVectorINS_9NameSpaceENS_32ConstructWithMemoryManagerTraitsIS2_EEEEE9constructEPS6_RKS6_RN11xercesc_2_713MemoryManagerE = comdat any

$_ZN11xalanc_1_1011XalanVectorIPNS0_INS_9NameSpaceENS_32ConstructWithMemoryManagerTraitsIS1_EEEENS_31MemoryManagedConstructionTraitsIS5_EEE10endPointerEv = comdat any

$_ZN11xalanc_1_1011XalanVectorIPNS0_INS_9NameSpaceENS_32ConstructWithMemoryManagerTraitsIS1_EEEENS_31MemoryManagedConstructionTraitsIS5_EEEC2ERKS8_RN11xercesc_2_713MemoryManagerEm = comdat any

$_ZN11xalanc_1_1011XalanVectorIPNS0_INS_9NameSpaceENS_32ConstructWithMemoryManagerTraitsIS1_EEEENS_31MemoryManagedConstructionTraitsIS5_EEE4swapERS8_ = comdat any

$_ZN11xalanc_1_1011XalanVectorIPNS0_INS_9NameSpaceENS_32ConstructWithMemoryManagerTraitsIS1_EEEENS_31MemoryManagedConstructionTraitsIS5_EEE9local_maxEmm = comdat any

$_ZN11xalanc_1_1011XalanVectorIPNS0_INS_9NameSpaceENS_32ConstructWithMemoryManagerTraitsIS1_EEEENS_31MemoryManagedConstructionTraitsIS5_EEE6insertEPS5_PKS5_SB_ = comdat any

$_ZN11xalanc_1_1011XalanVectorIPNS0_INS_9NameSpaceENS_32ConstructWithMemoryManagerTraitsIS1_EEEENS_31MemoryManagedConstructionTraitsIS5_EEE5beginEv = comdat any

$_ZNK11xalanc_1_1011XalanVectorIPNS0_INS_9NameSpaceENS_32ConstructWithMemoryManagerTraitsIS1_EEEENS_31MemoryManagedConstructionTraitsIS5_EEE5beginEv = comdat any

$_ZNK11xalanc_1_1011XalanVectorIPNS0_INS_9NameSpaceENS_32ConstructWithMemoryManagerTraitsIS1_EEEENS_31MemoryManagedConstructionTraitsIS5_EEE3endEv = comdat any

$_ZN11xalanc_1_1011XalanVectorIPNS0_INS_9NameSpaceENS_32ConstructWithMemoryManagerTraitsIS1_EEEENS_31MemoryManagedConstructionTraitsIS5_EEE14local_distanceEPKS5_SA_ = comdat any

$_ZNK11xalanc_1_1011XalanVectorIPNS0_INS_9NameSpaceENS_32ConstructWithMemoryManagerTraitsIS1_EEEENS_31MemoryManagedConstructionTraitsIS5_EEE4sizeEv = comdat any

$_ZN11xalanc_1_1011XalanVectorIPNS0_INS_9NameSpaceENS_32ConstructWithMemoryManagerTraitsIS1_EEEENS_31MemoryManagedConstructionTraitsIS5_EEE3endEv = comdat any

$_ZN11xalanc_1_1011XalanVectorIPNS0_INS_9NameSpaceENS_32ConstructWithMemoryManagerTraitsIS1_EEEENS_31MemoryManagedConstructionTraitsIS5_EEE14ensureCapacityEm = comdat any

$_ZNK11xalanc_1_1011XalanVectorIPNS0_INS_9NameSpaceENS_32ConstructWithMemoryManagerTraitsIS1_EEEENS_31MemoryManagedConstructionTraitsIS5_EEE8capacityEv = comdat any

$_ZSt4copyIPKPN11xalanc_1_1011XalanVectorINS0_9NameSpaceENS0_32ConstructWithMemoryManagerTraitsIS2_EEEEPS6_ET0_T_SB_SA_ = comdat any

$_ZSt13copy_backwardIPPN11xalanc_1_1011XalanVectorINS0_9NameSpaceENS0_32ConstructWithMemoryManagerTraitsIS2_EEEES7_ET0_T_S9_S8_ = comdat any

$_ZSt8distanceIPKPN11xalanc_1_1011XalanVectorINS0_9NameSpaceENS0_32ConstructWithMemoryManagerTraitsIS2_EEEEENSt15iterator_traitsIT_E15difference_typeESA_SA_ = comdat any

$_ZSt10__distanceIPKPN11xalanc_1_1011XalanVectorINS0_9NameSpaceENS0_32ConstructWithMemoryManagerTraitsIS2_EEEEENSt15iterator_traitsIT_E15difference_typeESA_SA_St26random_access_iterator_tag = comdat any

$_ZSt19__iterator_categoryIPKPN11xalanc_1_1011XalanVectorINS0_9NameSpaceENS0_32ConstructWithMemoryManagerTraitsIS2_EEEEENSt15iterator_traitsIT_E17iterator_categoryERKSA_ = comdat any

$_ZN11xalanc_1_1011XalanVectorIPNS0_INS_9NameSpaceENS_32ConstructWithMemoryManagerTraitsIS1_EEEENS_31MemoryManagedConstructionTraitsIS5_EEE9doReserveEm = comdat any

$_ZSt13__copy_move_aILb0EPKPN11xalanc_1_1011XalanVectorINS0_9NameSpaceENS0_32ConstructWithMemoryManagerTraitsIS2_EEEEPS6_ET1_T0_SB_SA_ = comdat any

$_ZSt12__miter_baseIPKPN11xalanc_1_1011XalanVectorINS0_9NameSpaceENS0_32ConstructWithMemoryManagerTraitsIS2_EEEEET_S9_ = comdat any

$_ZSt12__niter_wrapIPPN11xalanc_1_1011XalanVectorINS0_9NameSpaceENS0_32ConstructWithMemoryManagerTraitsIS2_EEEEET_RKS8_S8_ = comdat any

$_ZSt14__copy_move_a1ILb0EPKPN11xalanc_1_1011XalanVectorINS0_9NameSpaceENS0_32ConstructWithMemoryManagerTraitsIS2_EEEEPS6_ET1_T0_SB_SA_ = comdat any

$_ZSt12__niter_baseIPKPN11xalanc_1_1011XalanVectorINS0_9NameSpaceENS0_32ConstructWithMemoryManagerTraitsIS2_EEEEET_S9_ = comdat any

$_ZSt12__niter_baseIPPN11xalanc_1_1011XalanVectorINS0_9NameSpaceENS0_32ConstructWithMemoryManagerTraitsIS2_EEEEET_S8_ = comdat any

$_ZSt14__copy_move_a2ILb0EPKPN11xalanc_1_1011XalanVectorINS0_9NameSpaceENS0_32ConstructWithMemoryManagerTraitsIS2_EEEEPS6_ET1_T0_SB_SA_ = comdat any

$_ZNSt11__copy_moveILb0ELb1ESt26random_access_iterator_tagE8__copy_mIPN11xalanc_1_1011XalanVectorINS3_9NameSpaceENS3_32ConstructWithMemoryManagerTraitsIS5_EEEEEEPT_PKSA_SD_SB_ = comdat any

$_ZSt22__copy_move_backward_aILb0EPPN11xalanc_1_1011XalanVectorINS0_9NameSpaceENS0_32ConstructWithMemoryManagerTraitsIS2_EEEES7_ET1_T0_S9_S8_ = comdat any

$_ZSt12__miter_baseIPPN11xalanc_1_1011XalanVectorINS0_9NameSpaceENS0_32ConstructWithMemoryManagerTraitsIS2_EEEEET_S8_ = comdat any

$_ZSt23__copy_move_backward_a1ILb0EPPN11xalanc_1_1011XalanVectorINS0_9NameSpaceENS0_32ConstructWithMemoryManagerTraitsIS2_EEEES7_ET1_T0_S9_S8_ = comdat any

$_ZSt23__copy_move_backward_a2ILb0EPPN11xalanc_1_1011XalanVectorINS0_9NameSpaceENS0_32ConstructWithMemoryManagerTraitsIS2_EEEES7_ET1_T0_S9_S8_ = comdat any

$_ZNSt20__copy_move_backwardILb0ELb1ESt26random_access_iterator_tagE13__copy_move_bIPN11xalanc_1_1011XalanVectorINS3_9NameSpaceENS3_32ConstructWithMemoryManagerTraitsIS5_EEEEEEPT_PKSA_SD_SB_ = comdat any

$_ZNK11xalanc_1_1011XalanVectorIPNS0_INS_9NameSpaceENS_32ConstructWithMemoryManagerTraitsIS1_EEEENS_31MemoryManagedConstructionTraitsIS5_EEE10endPointerEv = comdat any

$_ZN11xalanc_1_1010XalanDequeINS_9NameSpaceENS_32ConstructWithMemoryManagerTraitsIS1_EEE8allocateEm = comdat any

$_ZN11xalanc_1_1011XalanVectorINS_9NameSpaceENS_32ConstructWithMemoryManagerTraitsIS1_EEEC2ERN11xercesc_2_713MemoryManagerEm = comdat any

$_ZN11xalanc_1_1011XalanVectorIPNS0_INS_9NameSpaceENS_32ConstructWithMemoryManagerTraitsIS1_EEEENS_31MemoryManagedConstructionTraitsIS5_EEE8pop_backEv = comdat any

$_ZN11xalanc_1_1011XalanVectorINS_9NameSpaceENS_32ConstructWithMemoryManagerTraitsIS1_EEE8allocateEm = comdat any

$_ZN11xalanc_1_1011XalanVectorIPNS0_INS_9NameSpaceENS_32ConstructWithMemoryManagerTraitsIS1_EEEENS_31MemoryManagedConstructionTraitsIS5_EEE7destroyERS5_ = comdat any

$_ZN11xalanc_1_1011XalanVectorINS_9NameSpaceENS_32ConstructWithMemoryManagerTraitsIS1_EEE10doPushBackERKS1_ = comdat any

$_ZN11xalanc_1_1026ConstructWithMemoryManagerINS_9NameSpaceEE9constructEPS1_RKS1_RN11xercesc_2_713MemoryManagerE = comdat any

$_ZN11xalanc_1_1011XalanVectorINS_9NameSpaceENS_32ConstructWithMemoryManagerTraitsIS1_EEE10endPointerEv = comdat any

$_ZN11xalanc_1_1011XalanVectorINS_9NameSpaceENS_32ConstructWithMemoryManagerTraitsIS1_EEEC2ERKS4_RN11xercesc_2_713MemoryManagerEm = comdat any

$_ZN11xalanc_1_1011XalanVectorINS_9NameSpaceENS_32ConstructWithMemoryManagerTraitsIS1_EEE4swapERS4_ = comdat any

$_ZN11xalanc_1_1011XalanVectorINS_9NameSpaceENS_32ConstructWithMemoryManagerTraitsIS1_EEED2Ev = comdat any

$_ZN11xalanc_1_109NameSpaceC2ERKS0_RN11xercesc_2_713MemoryManagerE = comdat any

$_ZN11xalanc_1_1011XalanVectorINS_9NameSpaceENS_32ConstructWithMemoryManagerTraitsIS1_EEE9local_maxEmm = comdat any

$_ZN11xalanc_1_1011XalanVectorINS_9NameSpaceENS_32ConstructWithMemoryManagerTraitsIS1_EEE6insertEPS1_PKS1_S7_ = comdat any

$_ZN11xalanc_1_1011XalanVectorINS_9NameSpaceENS_32ConstructWithMemoryManagerTraitsIS1_EEE5beginEv = comdat any

$_ZNK11xalanc_1_1011XalanVectorINS_9NameSpaceENS_32ConstructWithMemoryManagerTraitsIS1_EEE5beginEv = comdat any

$_ZNK11xalanc_1_1011XalanVectorINS_9NameSpaceENS_32ConstructWithMemoryManagerTraitsIS1_EEE3endEv = comdat any

$_ZN11xalanc_1_1011XalanVectorINS_9NameSpaceENS_32ConstructWithMemoryManagerTraitsIS1_EEE14local_distanceEPKS1_S6_ = comdat any

$_ZN11xalanc_1_1011XalanVectorINS_9NameSpaceENS_32ConstructWithMemoryManagerTraitsIS1_EEE3endEv = comdat any

$_ZN11xalanc_1_1011XalanVectorINS_9NameSpaceENS_32ConstructWithMemoryManagerTraitsIS1_EEE14ensureCapacityEm = comdat any

$_ZNK11xalanc_1_1011XalanVectorINS_9NameSpaceENS_32ConstructWithMemoryManagerTraitsIS1_EEE8capacityEv = comdat any

$_ZSt4copyIPKN11xalanc_1_109NameSpaceEPS1_ET0_T_S6_S5_ = comdat any

$_ZSt13copy_backwardIPN11xalanc_1_109NameSpaceES2_ET0_T_S4_S3_ = comdat any

$_ZSt8distanceIPKN11xalanc_1_109NameSpaceEENSt15iterator_traitsIT_E15difference_typeES5_S5_ = comdat any

$_ZSt10__distanceIPKN11xalanc_1_109NameSpaceEENSt15iterator_traitsIT_E15difference_typeES5_S5_St26random_access_iterator_tag = comdat any

$_ZSt19__iterator_categoryIPKN11xalanc_1_109NameSpaceEENSt15iterator_traitsIT_E17iterator_categoryERKS5_ = comdat any

$_ZN11xalanc_1_1011XalanVectorINS_9NameSpaceENS_32ConstructWithMemoryManagerTraitsIS1_EEE9doReserveEm = comdat any

$_ZSt13__copy_move_aILb0EPKN11xalanc_1_109NameSpaceEPS1_ET1_T0_S6_S5_ = comdat any

$_ZSt12__miter_baseIPKN11xalanc_1_109NameSpaceEET_S4_ = comdat any

$_ZSt12__niter_wrapIPN11xalanc_1_109NameSpaceEET_RKS3_S3_ = comdat any

$_ZSt14__copy_move_a1ILb0EPKN11xalanc_1_109NameSpaceEPS1_ET1_T0_S6_S5_ = comdat any

$_ZSt12__niter_baseIPKN11xalanc_1_109NameSpaceEET_S4_ = comdat any

$_ZSt12__niter_baseIPN11xalanc_1_109NameSpaceEET_S3_ = comdat any

$_ZSt14__copy_move_a2ILb0EPKN11xalanc_1_109NameSpaceEPS1_ET1_T0_S6_S5_ = comdat any

$_ZNSt11__copy_moveILb0ELb0ESt26random_access_iterator_tagE8__copy_mIPKN11xalanc_1_109NameSpaceEPS4_EET0_T_S9_S8_ = comdat any

$_ZN11xalanc_1_109NameSpaceaSERKS0_ = comdat any

$_ZSt22__copy_move_backward_aILb0EPN11xalanc_1_109NameSpaceES2_ET1_T0_S4_S3_ = comdat any

$_ZSt12__miter_baseIPN11xalanc_1_109NameSpaceEET_S3_ = comdat any

$_ZSt23__copy_move_backward_a1ILb0EPN11xalanc_1_109NameSpaceES2_ET1_T0_S4_S3_ = comdat any

$_ZSt23__copy_move_backward_a2ILb0EPN11xalanc_1_109NameSpaceES2_ET1_T0_S4_S3_ = comdat any

$_ZNSt20__copy_move_backwardILb0ELb0ESt26random_access_iterator_tagE13__copy_move_bIPN11xalanc_1_109NameSpaceES5_EET0_T_S7_S6_ = comdat any

$_ZNK11xalanc_1_1011XalanVectorINS_9NameSpaceENS_32ConstructWithMemoryManagerTraitsIS1_EEE10endPointerEv = comdat any

$_ZN11xalanc_1_1011XalanVectorINS_9NameSpaceENS_32ConstructWithMemoryManagerTraitsIS1_EEE7destroyEPS1_S5_ = comdat any

$_ZN11xalanc_1_1011XalanVectorINS_9NameSpaceENS_32ConstructWithMemoryManagerTraitsIS1_EEE10deallocateEPS1_ = comdat any

$_ZN11xalanc_1_1011XalanVectorINS_9NameSpaceENS_32ConstructWithMemoryManagerTraitsIS1_EEE7destroyERS1_ = comdat any

$_ZN11xalanc_1_109NameSpaceD2Ev = comdat any

$_ZNSt20back_insert_iteratorIN11xalanc_1_1010XalanDequeINS0_9NameSpaceENS0_32ConstructWithMemoryManagerTraitsIS2_EEEEEC2ERS5_ = comdat any

$_ZSt11__addressofIN11xalanc_1_1010XalanDequeINS0_9NameSpaceENS0_32ConstructWithMemoryManagerTraitsIS2_EEEEEPT_RS6_ = comdat any

$_ZN11xalanc_1_1011XalanVectorIPNS0_INS_9NameSpaceENS_32ConstructWithMemoryManagerTraitsIS1_EEEENS_31MemoryManagedConstructionTraitsIS5_EEE7destroyEPS5_S9_ = comdat any

$_ZN11xalanc_1_1011XalanVectorIPNS0_INS_9NameSpaceENS_32ConstructWithMemoryManagerTraitsIS1_EEEENS_31MemoryManagedConstructionTraitsIS5_EEE10deallocateEPS5_ = comdat any

$_ZSt10__fill_n_aISt20back_insert_iteratorIN11xalanc_1_1010XalanDequeINS2_INS1_9NameSpaceENS1_32ConstructWithMemoryManagerTraitsIS3_EEEENS4_IS6_EEEEEmS6_ET_SA_T0_RKT1_St19output_iterator_tag = comdat any

$_ZSt19__iterator_categoryISt20back_insert_iteratorIN11xalanc_1_1010XalanDequeINS2_INS1_9NameSpaceENS1_32ConstructWithMemoryManagerTraitsIS3_EEEENS4_IS6_EEEEEENSt15iterator_traitsIT_E17iterator_categoryERKSB_ = comdat any

$_ZSt11__fill_n_a1ISt20back_insert_iteratorIN11xalanc_1_1010XalanDequeINS2_INS1_9NameSpaceENS1_32ConstructWithMemoryManagerTraitsIS3_EEEENS4_IS6_EEEEEmS6_EN9__gnu_cxx11__enable_ifIXntsr11__is_scalarIT1_EE7__valueET_E6__typeESD_T0_RKSC_ = comdat any

$_ZNSt20back_insert_iteratorIN11xalanc_1_1010XalanDequeINS1_INS0_9NameSpaceENS0_32ConstructWithMemoryManagerTraitsIS2_EEEENS3_IS5_EEEEEdeEv = comdat any

$_ZNSt20back_insert_iteratorIN11xalanc_1_1010XalanDequeINS1_INS0_9NameSpaceENS0_32ConstructWithMemoryManagerTraitsIS2_EEEENS3_IS5_EEEEEaSERKS5_ = comdat any

$_ZNSt20back_insert_iteratorIN11xalanc_1_1010XalanDequeINS1_INS0_9NameSpaceENS0_32ConstructWithMemoryManagerTraitsIS2_EEEENS3_IS5_EEEEEppEv = comdat any

$_ZN11xalanc_1_1010XalanDequeINS0_INS_9NameSpaceENS_32ConstructWithMemoryManagerTraitsIS1_EEEENS2_IS4_EEE9push_backERKS4_ = comdat any

$_ZN11xalanc_1_1011XalanVectorIPNS0_INS_10XalanDequeINS_9NameSpaceENS_32ConstructWithMemoryManagerTraitsIS2_EEEENS3_IS5_EEEENS_31MemoryManagedConstructionTraitsIS8_EEE4backEv = comdat any

$_ZN11xalanc_1_1011XalanVectorIPNS0_INS_10XalanDequeINS_9NameSpaceENS_32ConstructWithMemoryManagerTraitsIS2_EEEENS3_IS5_EEEENS_31MemoryManagedConstructionTraitsIS8_EEE9push_backERKS8_ = comdat any

$_ZN11xalanc_1_1010XalanDequeINS0_INS_9NameSpaceENS_32ConstructWithMemoryManagerTraitsIS1_EEEENS2_IS4_EEE11getNewBlockEv = comdat any

$_ZN11xalanc_1_1011XalanVectorINS_10XalanDequeINS_9NameSpaceENS_32ConstructWithMemoryManagerTraitsIS2_EEEENS3_IS5_EEE9push_backERKS5_ = comdat any

$_ZN11xalanc_1_1011XalanVectorIPNS0_INS_10XalanDequeINS_9NameSpaceENS_32ConstructWithMemoryManagerTraitsIS2_EEEENS3_IS5_EEEENS_31MemoryManagedConstructionTraitsIS8_EEE10doPushBackERKS8_ = comdat any

$_ZN11xalanc_1_1028ConstructWithNoMemoryManagerIPNS_11XalanVectorINS_10XalanDequeINS_9NameSpaceENS_32ConstructWithMemoryManagerTraitsIS3_EEEENS4_IS6_EEEEE9constructEPS9_RKS9_RN11xercesc_2_713MemoryManagerE = comdat any

$_ZN11xalanc_1_1011XalanVectorIPNS0_INS_10XalanDequeINS_9NameSpaceENS_32ConstructWithMemoryManagerTraitsIS2_EEEENS3_IS5_EEEENS_31MemoryManagedConstructionTraitsIS8_EEE10endPointerEv = comdat any

$_ZN11xalanc_1_1011XalanVectorIPNS0_INS_10XalanDequeINS_9NameSpaceENS_32ConstructWithMemoryManagerTraitsIS2_EEEENS3_IS5_EEEENS_31MemoryManagedConstructionTraitsIS8_EEEC2ERKSB_RN11xercesc_2_713MemoryManagerEm = comdat any

$_ZN11xalanc_1_1011XalanVectorIPNS0_INS_10XalanDequeINS_9NameSpaceENS_32ConstructWithMemoryManagerTraitsIS2_EEEENS3_IS5_EEEENS_31MemoryManagedConstructionTraitsIS8_EEE4swapERSB_ = comdat any

$_ZN11xalanc_1_1011XalanVectorIPNS0_INS_10XalanDequeINS_9NameSpaceENS_32ConstructWithMemoryManagerTraitsIS2_EEEENS3_IS5_EEEENS_31MemoryManagedConstructionTraitsIS8_EEE9local_maxEmm = comdat any

$_ZN11xalanc_1_1011XalanVectorIPNS0_INS_10XalanDequeINS_9NameSpaceENS_32ConstructWithMemoryManagerTraitsIS2_EEEENS3_IS5_EEEENS_31MemoryManagedConstructionTraitsIS8_EEE6insertEPS8_PKS8_SE_ = comdat any

$_ZN11xalanc_1_1011XalanVectorIPNS0_INS_10XalanDequeINS_9NameSpaceENS_32ConstructWithMemoryManagerTraitsIS2_EEEENS3_IS5_EEEENS_31MemoryManagedConstructionTraitsIS8_EEE5beginEv = comdat any

$_ZNK11xalanc_1_1011XalanVectorIPNS0_INS_10XalanDequeINS_9NameSpaceENS_32ConstructWithMemoryManagerTraitsIS2_EEEENS3_IS5_EEEENS_31MemoryManagedConstructionTraitsIS8_EEE5beginEv = comdat any

$_ZNK11xalanc_1_1011XalanVectorIPNS0_INS_10XalanDequeINS_9NameSpaceENS_32ConstructWithMemoryManagerTraitsIS2_EEEENS3_IS5_EEEENS_31MemoryManagedConstructionTraitsIS8_EEE3endEv = comdat any

$_ZN11xalanc_1_1011XalanVectorIPNS0_INS_10XalanDequeINS_9NameSpaceENS_32ConstructWithMemoryManagerTraitsIS2_EEEENS3_IS5_EEEENS_31MemoryManagedConstructionTraitsIS8_EEE14local_distanceEPKS8_SD_ = comdat any

$_ZN11xalanc_1_1011XalanVectorIPNS0_INS_10XalanDequeINS_9NameSpaceENS_32ConstructWithMemoryManagerTraitsIS2_EEEENS3_IS5_EEEENS_31MemoryManagedConstructionTraitsIS8_EEE3endEv = comdat any

$_ZN11xalanc_1_1011XalanVectorIPNS0_INS_10XalanDequeINS_9NameSpaceENS_32ConstructWithMemoryManagerTraitsIS2_EEEENS3_IS5_EEEENS_31MemoryManagedConstructionTraitsIS8_EEE14ensureCapacityEm = comdat any

$_ZNK11xalanc_1_1011XalanVectorIPNS0_INS_10XalanDequeINS_9NameSpaceENS_32ConstructWithMemoryManagerTraitsIS2_EEEENS3_IS5_EEEENS_31MemoryManagedConstructionTraitsIS8_EEE8capacityEv = comdat any

$_ZSt4copyIPKPN11xalanc_1_1011XalanVectorINS0_10XalanDequeINS0_9NameSpaceENS0_32ConstructWithMemoryManagerTraitsIS3_EEEENS4_IS6_EEEEPS9_ET0_T_SE_SD_ = comdat any

$_ZSt13copy_backwardIPPN11xalanc_1_1011XalanVectorINS0_10XalanDequeINS0_9NameSpaceENS0_32ConstructWithMemoryManagerTraitsIS3_EEEENS4_IS6_EEEESA_ET0_T_SC_SB_ = comdat any

$_ZSt8distanceIPKPN11xalanc_1_1011XalanVectorINS0_10XalanDequeINS0_9NameSpaceENS0_32ConstructWithMemoryManagerTraitsIS3_EEEENS4_IS6_EEEEENSt15iterator_traitsIT_E15difference_typeESD_SD_ = comdat any

$_ZSt10__distanceIPKPN11xalanc_1_1011XalanVectorINS0_10XalanDequeINS0_9NameSpaceENS0_32ConstructWithMemoryManagerTraitsIS3_EEEENS4_IS6_EEEEENSt15iterator_traitsIT_E15difference_typeESD_SD_St26random_access_iterator_tag = comdat any

$_ZSt19__iterator_categoryIPKPN11xalanc_1_1011XalanVectorINS0_10XalanDequeINS0_9NameSpaceENS0_32ConstructWithMemoryManagerTraitsIS3_EEEENS4_IS6_EEEEENSt15iterator_traitsIT_E17iterator_categoryERKSD_ = comdat any

$_ZN11xalanc_1_1011XalanVectorIPNS0_INS_10XalanDequeINS_9NameSpaceENS_32ConstructWithMemoryManagerTraitsIS2_EEEENS3_IS5_EEEENS_31MemoryManagedConstructionTraitsIS8_EEE9doReserveEm = comdat any

$_ZSt13__copy_move_aILb0EPKPN11xalanc_1_1011XalanVectorINS0_10XalanDequeINS0_9NameSpaceENS0_32ConstructWithMemoryManagerTraitsIS3_EEEENS4_IS6_EEEEPS9_ET1_T0_SE_SD_ = comdat any

$_ZSt12__miter_baseIPKPN11xalanc_1_1011XalanVectorINS0_10XalanDequeINS0_9NameSpaceENS0_32ConstructWithMemoryManagerTraitsIS3_EEEENS4_IS6_EEEEET_SC_ = comdat any

$_ZSt12__niter_wrapIPPN11xalanc_1_1011XalanVectorINS0_10XalanDequeINS0_9NameSpaceENS0_32ConstructWithMemoryManagerTraitsIS3_EEEENS4_IS6_EEEEET_RKSB_SB_ = comdat any

$_ZSt14__copy_move_a1ILb0EPKPN11xalanc_1_1011XalanVectorINS0_10XalanDequeINS0_9NameSpaceENS0_32ConstructWithMemoryManagerTraitsIS3_EEEENS4_IS6_EEEEPS9_ET1_T0_SE_SD_ = comdat any

$_ZSt12__niter_baseIPKPN11xalanc_1_1011XalanVectorINS0_10XalanDequeINS0_9NameSpaceENS0_32ConstructWithMemoryManagerTraitsIS3_EEEENS4_IS6_EEEEET_SC_ = comdat any

$_ZSt12__niter_baseIPPN11xalanc_1_1011XalanVectorINS0_10XalanDequeINS0_9NameSpaceENS0_32ConstructWithMemoryManagerTraitsIS3_EEEENS4_IS6_EEEEET_SB_ = comdat any

$_ZSt14__copy_move_a2ILb0EPKPN11xalanc_1_1011XalanVectorINS0_10XalanDequeINS0_9NameSpaceENS0_32ConstructWithMemoryManagerTraitsIS3_EEEENS4_IS6_EEEEPS9_ET1_T0_SE_SD_ = comdat any

$_ZNSt11__copy_moveILb0ELb1ESt26random_access_iterator_tagE8__copy_mIPN11xalanc_1_1011XalanVectorINS3_10XalanDequeINS3_9NameSpaceENS3_32ConstructWithMemoryManagerTraitsIS6_EEEENS7_IS9_EEEEEEPT_PKSD_SG_SE_ = comdat any

$_ZSt22__copy_move_backward_aILb0EPPN11xalanc_1_1011XalanVectorINS0_10XalanDequeINS0_9NameSpaceENS0_32ConstructWithMemoryManagerTraitsIS3_EEEENS4_IS6_EEEESA_ET1_T0_SC_SB_ = comdat any

$_ZSt12__miter_baseIPPN11xalanc_1_1011XalanVectorINS0_10XalanDequeINS0_9NameSpaceENS0_32ConstructWithMemoryManagerTraitsIS3_EEEENS4_IS6_EEEEET_SB_ = comdat any

$_ZSt23__copy_move_backward_a1ILb0EPPN11xalanc_1_1011XalanVectorINS0_10XalanDequeINS0_9NameSpaceENS0_32ConstructWithMemoryManagerTraitsIS3_EEEENS4_IS6_EEEESA_ET1_T0_SC_SB_ = comdat any

$_ZSt23__copy_move_backward_a2ILb0EPPN11xalanc_1_1011XalanVectorINS0_10XalanDequeINS0_9NameSpaceENS0_32ConstructWithMemoryManagerTraitsIS3_EEEENS4_IS6_EEEESA_ET1_T0_SC_SB_ = comdat any

$_ZNSt20__copy_move_backwardILb0ELb1ESt26random_access_iterator_tagE13__copy_move_bIPN11xalanc_1_1011XalanVectorINS3_10XalanDequeINS3_9NameSpaceENS3_32ConstructWithMemoryManagerTraitsIS6_EEEENS7_IS9_EEEEEEPT_PKSD_SG_SE_ = comdat any

$_ZNK11xalanc_1_1011XalanVectorIPNS0_INS_10XalanDequeINS_9NameSpaceENS_32ConstructWithMemoryManagerTraitsIS2_EEEENS3_IS5_EEEENS_31MemoryManagedConstructionTraitsIS8_EEE10endPointerEv = comdat any

$_ZN11xalanc_1_1010XalanDequeINS0_INS_9NameSpaceENS_32ConstructWithMemoryManagerTraitsIS1_EEEENS2_IS4_EEE8allocateEm = comdat any

$_ZN11xalanc_1_1011XalanVectorINS_10XalanDequeINS_9NameSpaceENS_32ConstructWithMemoryManagerTraitsIS2_EEEENS3_IS5_EEEC2ERN11xercesc_2_713MemoryManagerEm = comdat any

$_ZN11xalanc_1_1011XalanVectorIPNS0_INS_10XalanDequeINS_9NameSpaceENS_32ConstructWithMemoryManagerTraitsIS2_EEEENS3_IS5_EEEENS_31MemoryManagedConstructionTraitsIS8_EEE8pop_backEv = comdat any

$_ZN11xalanc_1_1011XalanVectorINS_10XalanDequeINS_9NameSpaceENS_32ConstructWithMemoryManagerTraitsIS2_EEEENS3_IS5_EEE8allocateEm = comdat any

$_ZN11xalanc_1_1011XalanVectorIPNS0_INS_10XalanDequeINS_9NameSpaceENS_32ConstructWithMemoryManagerTraitsIS2_EEEENS3_IS5_EEEENS_31MemoryManagedConstructionTraitsIS8_EEE7destroyERS8_ = comdat any

$_ZN11xalanc_1_1011XalanVectorINS_10XalanDequeINS_9NameSpaceENS_32ConstructWithMemoryManagerTraitsIS2_EEEENS3_IS5_EEE10doPushBackERKS5_ = comdat any

$_ZN11xalanc_1_1026ConstructWithMemoryManagerINS_10XalanDequeINS_9NameSpaceENS_32ConstructWithMemoryManagerTraitsIS2_EEEEE9constructEPS5_RKS5_RN11xercesc_2_713MemoryManagerE = comdat any

$_ZN11xalanc_1_1011XalanVectorINS_10XalanDequeINS_9NameSpaceENS_32ConstructWithMemoryManagerTraitsIS2_EEEENS3_IS5_EEE10endPointerEv = comdat any

$_ZN11xalanc_1_1011XalanVectorINS_10XalanDequeINS_9NameSpaceENS_32ConstructWithMemoryManagerTraitsIS2_EEEENS3_IS5_EEEC2ERKS7_RN11xercesc_2_713MemoryManagerEm = comdat any

$_ZN11xalanc_1_1011XalanVectorINS_10XalanDequeINS_9NameSpaceENS_32ConstructWithMemoryManagerTraitsIS2_EEEENS3_IS5_EEE4swapERS7_ = comdat any

$_ZN11xalanc_1_1011XalanVectorINS_10XalanDequeINS_9NameSpaceENS_32ConstructWithMemoryManagerTraitsIS2_EEEENS3_IS5_EEED2Ev = comdat any

$_ZN11xalanc_1_1010XalanDequeINS_9NameSpaceENS_32ConstructWithMemoryManagerTraitsIS1_EEEC2ERKS4_RN11xercesc_2_713MemoryManagerE = comdat any

$_ZSt4copyIN11xalanc_1_1018XalanDequeIteratorINS0_29XalanDequeConstIteratorTraitsINS0_9NameSpaceEEENS0_10XalanDequeIS3_NS0_32ConstructWithMemoryManagerTraitsIS3_EEEEEESt20back_insert_iteratorIS8_EET0_T_SD_SC_ = comdat any

$_ZSt13__copy_move_aILb0EN11xalanc_1_1018XalanDequeIteratorINS0_29XalanDequeConstIteratorTraitsINS0_9NameSpaceEEENS0_10XalanDequeIS3_NS0_32ConstructWithMemoryManagerTraitsIS3_EEEEEESt20back_insert_iteratorIS8_EET1_T0_SD_SC_ = comdat any

$_ZSt12__miter_baseIN11xalanc_1_1018XalanDequeIteratorINS0_29XalanDequeConstIteratorTraitsINS0_9NameSpaceEEENS0_10XalanDequeIS3_NS0_32ConstructWithMemoryManagerTraitsIS3_EEEEEEET_SA_ = comdat any

$_ZSt12__niter_wrapISt20back_insert_iteratorIN11xalanc_1_1010XalanDequeINS1_9NameSpaceENS1_32ConstructWithMemoryManagerTraitsIS3_EEEEEET_RKS8_S8_ = comdat any

$_ZSt14__copy_move_a1ILb0EN11xalanc_1_1018XalanDequeIteratorINS0_29XalanDequeConstIteratorTraitsINS0_9NameSpaceEEENS0_10XalanDequeIS3_NS0_32ConstructWithMemoryManagerTraitsIS3_EEEEEESt20back_insert_iteratorIS8_EET1_T0_SD_SC_ = comdat any

$_ZSt12__niter_baseIN11xalanc_1_1018XalanDequeIteratorINS0_29XalanDequeConstIteratorTraitsINS0_9NameSpaceEEENS0_10XalanDequeIS3_NS0_32ConstructWithMemoryManagerTraitsIS3_EEEEEEET_SA_ = comdat any

$_ZSt12__niter_baseISt20back_insert_iteratorIN11xalanc_1_1010XalanDequeINS1_9NameSpaceENS1_32ConstructWithMemoryManagerTraitsIS3_EEEEEET_S8_ = comdat any

$_ZSt14__copy_move_a2ILb0EN11xalanc_1_1018XalanDequeIteratorINS0_29XalanDequeConstIteratorTraitsINS0_9NameSpaceEEENS0_10XalanDequeIS3_NS0_32ConstructWithMemoryManagerTraitsIS3_EEEEEESt20back_insert_iteratorIS8_EET1_T0_SD_SC_ = comdat any

$_ZNSt11__copy_moveILb0ELb0ESt26random_access_iterator_tagE8__copy_mIN11xalanc_1_1018XalanDequeIteratorINS3_29XalanDequeConstIteratorTraitsINS3_9NameSpaceEEENS3_10XalanDequeIS6_NS3_32ConstructWithMemoryManagerTraitsIS6_EEEEEESt20back_insert_iteratorISB_EEET0_T_SG_SF_ = comdat any

$_ZNK11xalanc_1_1018XalanDequeIteratorINS_29XalanDequeConstIteratorTraitsINS_9NameSpaceEEENS_10XalanDequeIS2_NS_32ConstructWithMemoryManagerTraitsIS2_EEEEEmiERKS8_ = comdat any

$_ZN11xalanc_1_1011XalanVectorINS_10XalanDequeINS_9NameSpaceENS_32ConstructWithMemoryManagerTraitsIS2_EEEENS3_IS5_EEE9local_maxEmm = comdat any

$_ZN11xalanc_1_1011XalanVectorINS_10XalanDequeINS_9NameSpaceENS_32ConstructWithMemoryManagerTraitsIS2_EEEENS3_IS5_EEE6insertEPS5_PKS5_SA_ = comdat any

$_ZN11xalanc_1_1011XalanVectorINS_10XalanDequeINS_9NameSpaceENS_32ConstructWithMemoryManagerTraitsIS2_EEEENS3_IS5_EEE5beginEv = comdat any

$_ZNK11xalanc_1_1011XalanVectorINS_10XalanDequeINS_9NameSpaceENS_32ConstructWithMemoryManagerTraitsIS2_EEEENS3_IS5_EEE5beginEv = comdat any

$_ZNK11xalanc_1_1011XalanVectorINS_10XalanDequeINS_9NameSpaceENS_32ConstructWithMemoryManagerTraitsIS2_EEEENS3_IS5_EEE3endEv = comdat any

$_ZN11xalanc_1_1011XalanVectorINS_10XalanDequeINS_9NameSpaceENS_32ConstructWithMemoryManagerTraitsIS2_EEEENS3_IS5_EEE14local_distanceEPKS5_S9_ = comdat any

$_ZN11xalanc_1_1011XalanVectorINS_10XalanDequeINS_9NameSpaceENS_32ConstructWithMemoryManagerTraitsIS2_EEEENS3_IS5_EEE3endEv = comdat any

$_ZN11xalanc_1_1011XalanVectorINS_10XalanDequeINS_9NameSpaceENS_32ConstructWithMemoryManagerTraitsIS2_EEEENS3_IS5_EEE14ensureCapacityEm = comdat any

$_ZNK11xalanc_1_1011XalanVectorINS_10XalanDequeINS_9NameSpaceENS_32ConstructWithMemoryManagerTraitsIS2_EEEENS3_IS5_EEE8capacityEv = comdat any

$_ZSt4copyIPKN11xalanc_1_1010XalanDequeINS0_9NameSpaceENS0_32ConstructWithMemoryManagerTraitsIS2_EEEEPS5_ET0_T_SA_S9_ = comdat any

$_ZSt13copy_backwardIPN11xalanc_1_1010XalanDequeINS0_9NameSpaceENS0_32ConstructWithMemoryManagerTraitsIS2_EEEES6_ET0_T_S8_S7_ = comdat any

$_ZSt8distanceIPKN11xalanc_1_1010XalanDequeINS0_9NameSpaceENS0_32ConstructWithMemoryManagerTraitsIS2_EEEEENSt15iterator_traitsIT_E15difference_typeES9_S9_ = comdat any

$_ZSt10__distanceIPKN11xalanc_1_1010XalanDequeINS0_9NameSpaceENS0_32ConstructWithMemoryManagerTraitsIS2_EEEEENSt15iterator_traitsIT_E15difference_typeES9_S9_St26random_access_iterator_tag = comdat any

$_ZSt19__iterator_categoryIPKN11xalanc_1_1010XalanDequeINS0_9NameSpaceENS0_32ConstructWithMemoryManagerTraitsIS2_EEEEENSt15iterator_traitsIT_E17iterator_categoryERKS9_ = comdat any

$_ZN11xalanc_1_1011XalanVectorINS_10XalanDequeINS_9NameSpaceENS_32ConstructWithMemoryManagerTraitsIS2_EEEENS3_IS5_EEE9doReserveEm = comdat any

$_ZSt13__copy_move_aILb0EPKN11xalanc_1_1010XalanDequeINS0_9NameSpaceENS0_32ConstructWithMemoryManagerTraitsIS2_EEEEPS5_ET1_T0_SA_S9_ = comdat any

$_ZSt12__miter_baseIPKN11xalanc_1_1010XalanDequeINS0_9NameSpaceENS0_32ConstructWithMemoryManagerTraitsIS2_EEEEET_S8_ = comdat any

$_ZSt12__niter_wrapIPN11xalanc_1_1010XalanDequeINS0_9NameSpaceENS0_32ConstructWithMemoryManagerTraitsIS2_EEEEET_RKS7_S7_ = comdat any

$_ZSt14__copy_move_a1ILb0EPKN11xalanc_1_1010XalanDequeINS0_9NameSpaceENS0_32ConstructWithMemoryManagerTraitsIS2_EEEEPS5_ET1_T0_SA_S9_ = comdat any

$_ZSt12__niter_baseIPKN11xalanc_1_1010XalanDequeINS0_9NameSpaceENS0_32ConstructWithMemoryManagerTraitsIS2_EEEEET_S8_ = comdat any

$_ZSt12__niter_baseIPN11xalanc_1_1010XalanDequeINS0_9NameSpaceENS0_32ConstructWithMemoryManagerTraitsIS2_EEEEET_S7_ = comdat any

$_ZSt14__copy_move_a2ILb0EPKN11xalanc_1_1010XalanDequeINS0_9NameSpaceENS0_32ConstructWithMemoryManagerTraitsIS2_EEEEPS5_ET1_T0_SA_S9_ = comdat any

$_ZNSt11__copy_moveILb0ELb0ESt26random_access_iterator_tagE8__copy_mIPKN11xalanc_1_1010XalanDequeINS3_9NameSpaceENS3_32ConstructWithMemoryManagerTraitsIS5_EEEEPS8_EET0_T_SD_SC_ = comdat any

$_ZN11xalanc_1_1010XalanDequeINS_9NameSpaceENS_32ConstructWithMemoryManagerTraitsIS1_EEEaSERKS4_ = comdat any

$_ZSt22__copy_move_backward_aILb0EPN11xalanc_1_1010XalanDequeINS0_9NameSpaceENS0_32ConstructWithMemoryManagerTraitsIS2_EEEES6_ET1_T0_S8_S7_ = comdat any

$_ZSt12__miter_baseIPN11xalanc_1_1010XalanDequeINS0_9NameSpaceENS0_32ConstructWithMemoryManagerTraitsIS2_EEEEET_S7_ = comdat any

$_ZSt23__copy_move_backward_a1ILb0EPN11xalanc_1_1010XalanDequeINS0_9NameSpaceENS0_32ConstructWithMemoryManagerTraitsIS2_EEEES6_ET1_T0_S8_S7_ = comdat any

$_ZSt23__copy_move_backward_a2ILb0EPN11xalanc_1_1010XalanDequeINS0_9NameSpaceENS0_32ConstructWithMemoryManagerTraitsIS2_EEEES6_ET1_T0_S8_S7_ = comdat any

$_ZNSt20__copy_move_backwardILb0ELb0ESt26random_access_iterator_tagE13__copy_move_bIPN11xalanc_1_1010XalanDequeINS3_9NameSpaceENS3_32ConstructWithMemoryManagerTraitsIS5_EEEES9_EET0_T_SB_SA_ = comdat any

$_ZNK11xalanc_1_1011XalanVectorINS_10XalanDequeINS_9NameSpaceENS_32ConstructWithMemoryManagerTraitsIS2_EEEENS3_IS5_EEE10endPointerEv = comdat any

$_ZN11xalanc_1_1011XalanVectorINS_10XalanDequeINS_9NameSpaceENS_32ConstructWithMemoryManagerTraitsIS2_EEEENS3_IS5_EEE7destroyEPS5_S8_ = comdat any

$_ZN11xalanc_1_1011XalanVectorINS_10XalanDequeINS_9NameSpaceENS_32ConstructWithMemoryManagerTraitsIS2_EEEENS3_IS5_EEE10deallocateEPS5_ = comdat any

$_ZN11xalanc_1_1011XalanVectorINS_10XalanDequeINS_9NameSpaceENS_32ConstructWithMemoryManagerTraitsIS2_EEEENS3_IS5_EEE7destroyERS5_ = comdat any

$_ZN11xalanc_1_1010XalanDequeINS_9NameSpaceENS_32ConstructWithMemoryManagerTraitsIS1_EEED2Ev = comdat any

$_ZN11xalanc_1_1010XalanDequeINS_9NameSpaceENS_32ConstructWithMemoryManagerTraitsIS1_EEE10deallocateEPNS_11XalanVectorIS1_S3_EE = comdat any

$_ZNSt20back_insert_iteratorIN11xalanc_1_1010XalanDequeINS1_INS0_9NameSpaceENS0_32ConstructWithMemoryManagerTraitsIS2_EEEENS3_IS5_EEEEEC2ERS7_ = comdat any

$_ZSt11__addressofIN11xalanc_1_1010XalanDequeINS1_INS0_9NameSpaceENS0_32ConstructWithMemoryManagerTraitsIS2_EEEENS3_IS5_EEEEEPT_RS8_ = comdat any

$_ZN11xalanc_1_1011XalanVectorIPNS0_INS_10XalanDequeINS_9NameSpaceENS_32ConstructWithMemoryManagerTraitsIS2_EEEENS3_IS5_EEEENS_31MemoryManagedConstructionTraitsIS8_EEE7destroyEPS8_SC_ = comdat any

$_ZN11xalanc_1_1011XalanVectorIPNS0_INS_10XalanDequeINS_9NameSpaceENS_32ConstructWithMemoryManagerTraitsIS2_EEEENS3_IS5_EEEENS_31MemoryManagedConstructionTraitsIS8_EEE10deallocateEPS8_ = comdat any

$_ZN11xalanc_1_1018XalanDequeIteratorINS_24XalanDequeIteratorTraitsINS_10XalanDequeINS_9NameSpaceENS_32ConstructWithMemoryManagerTraitsIS3_EEEEEENS2_IS6_NS4_IS6_EEEEEC2EPS9_m = comdat any

$_ZN11xalanc_1_1011XalanVectorIbNS_31MemoryManagedConstructionTraitsIbEEE8allocateEm = comdat any

$_ZNK11xalanc_1_1011XalanVectorIbNS_31MemoryManagedConstructionTraitsIbEEE10invariantsEv = comdat any

$_ZN11xalanc_1_1010XalanDequeINS0_INS_9NameSpaceENS_32ConstructWithMemoryManagerTraitsIS1_EEEENS2_IS4_EEE5clearEv = comdat any

$_ZN11xalanc_1_1010XalanDequeINS0_INS_9NameSpaceENS_32ConstructWithMemoryManagerTraitsIS1_EEEENS2_IS4_EEE10deallocateEPNS_11XalanVectorIS4_S5_EE = comdat any

$_ZN11xalanc_1_1011XalanVectorIPNS0_INS_10XalanDequeINS_9NameSpaceENS_32ConstructWithMemoryManagerTraitsIS2_EEEENS3_IS5_EEEENS_31MemoryManagedConstructionTraitsIS8_EEE7reserveEm = comdat any

$_ZN11xalanc_1_1011XalanVectorINS_10XalanDequeINS_9NameSpaceENS_32ConstructWithMemoryManagerTraitsIS2_EEEENS3_IS5_EEE5clearEv = comdat any

$_ZN11xalanc_1_1011XalanVectorIPNS0_INS_10XalanDequeINS_9NameSpaceENS_32ConstructWithMemoryManagerTraitsIS2_EEEENS3_IS5_EEEENS_31MemoryManagedConstructionTraitsIS8_EEE5clearEv = comdat any

$_ZN11xalanc_1_1011XalanVectorINS_10XalanDequeINS_9NameSpaceENS_32ConstructWithMemoryManagerTraitsIS2_EEEENS3_IS5_EEE12shrinkToSizeEm = comdat any

$_ZN11xalanc_1_1011XalanVectorINS_10XalanDequeINS_9NameSpaceENS_32ConstructWithMemoryManagerTraitsIS2_EEEENS3_IS5_EEE8pop_backEv = comdat any

$_ZN11xalanc_1_1011XalanVectorIPNS0_INS_10XalanDequeINS_9NameSpaceENS_32ConstructWithMemoryManagerTraitsIS2_EEEENS3_IS5_EEEENS_31MemoryManagedConstructionTraitsIS8_EEE12shrinkToSizeEm = comdat any

$_ZN11xalanc_1_1011XalanVectorIbNS_31MemoryManagedConstructionTraitsIbEEE7destroyEPbS4_ = comdat any

$_ZN11xalanc_1_1011XalanVectorIbNS_31MemoryManagedConstructionTraitsIbEEE5beginEv = comdat any

$_ZN11xalanc_1_1011XalanVectorIbNS_31MemoryManagedConstructionTraitsIbEEE3endEv = comdat any

$_ZN11xalanc_1_1011XalanVectorIbNS_31MemoryManagedConstructionTraitsIbEEE10deallocateEPb = comdat any

$_ZN11xalanc_1_1011XalanVectorIbNS_31MemoryManagedConstructionTraitsIbEEE7destroyERb = comdat any

$_ZN11xalanc_1_1011XalanVectorIbNS_31MemoryManagedConstructionTraitsIbEEE10endPointerEv = comdat any

$_ZN11xalanc_1_1010XalanDequeINS0_INS_9NameSpaceENS_32ConstructWithMemoryManagerTraitsIS1_EEEENS2_IS4_EEE8pop_backEv = comdat any

$_ZNK11xalanc_1_1011XalanVectorINS_10XalanDequeINS_9NameSpaceENS_32ConstructWithMemoryManagerTraitsIS2_EEEENS3_IS5_EEE5emptyEv = comdat any

$_ZN11xalanc_1_1010XalanDequeINS0_INS_9NameSpaceENS_32ConstructWithMemoryManagerTraitsIS1_EEEENS2_IS4_EEEixEm = comdat any

$_ZN11xalanc_1_1011XalanVectorIPNS0_INS_10XalanDequeINS_9NameSpaceENS_32ConstructWithMemoryManagerTraitsIS2_EEEENS3_IS5_EEEENS_31MemoryManagedConstructionTraitsIS8_EEEixEm = comdat any

$_ZN11xalanc_1_1011XalanVectorINS_10XalanDequeINS_9NameSpaceENS_32ConstructWithMemoryManagerTraitsIS2_EEEENS3_IS5_EEEixEm = comdat any

$_ZN11xalanc_1_1010XalanDequeINS_9NameSpaceENS_32ConstructWithMemoryManagerTraitsIS1_EEE8pop_backEv = comdat any

$_ZN11xalanc_1_1011XalanVectorINS_9NameSpaceENS_32ConstructWithMemoryManagerTraitsIS1_EEE8pop_backEv = comdat any

$_ZNK11xalanc_1_1011XalanVectorINS_9NameSpaceENS_32ConstructWithMemoryManagerTraitsIS1_EEE5emptyEv = comdat any

$_ZNK11xalanc_1_1011XalanVectorIPNS0_INS_9NameSpaceENS_32ConstructWithMemoryManagerTraitsIS1_EEEENS_31MemoryManagedConstructionTraitsIS5_EEE4backEv = comdat any

$_ZN11xalanc_1_1011XalanVectorINS_9NameSpaceENS_32ConstructWithMemoryManagerTraitsIS1_EEE4backEv = comdat any

$_ZN11xalanc_1_1011XalanVectorIbNS_31MemoryManagedConstructionTraitsIbEEE9doReserveEm = comdat any

$_ZN11xalanc_1_1011XalanVectorIbNS_31MemoryManagedConstructionTraitsIbEEEC2ERKS3_RN11xercesc_2_713MemoryManagerEm = comdat any

$_ZN11xalanc_1_1011XalanVectorIbNS_31MemoryManagedConstructionTraitsIbEEE4swapERS3_ = comdat any

$_ZN11xalanc_1_1011XalanVectorIbNS_31MemoryManagedConstructionTraitsIbEEE9local_maxEmm = comdat any

$_ZN11xalanc_1_1011XalanVectorIbNS_31MemoryManagedConstructionTraitsIbEEE6insertEPbPKbS6_ = comdat any

$_ZNK11xalanc_1_1011XalanVectorIbNS_31MemoryManagedConstructionTraitsIbEEE5beginEv = comdat any

$_ZNK11xalanc_1_1011XalanVectorIbNS_31MemoryManagedConstructionTraitsIbEEE3endEv = comdat any

$_ZN11xalanc_1_1011XalanVectorIbNS_31MemoryManagedConstructionTraitsIbEEE14local_distanceEPKbS5_ = comdat any

$_ZNK11xalanc_1_1011XalanVectorIbNS_31MemoryManagedConstructionTraitsIbEEE4sizeEv = comdat any

$_ZN11xalanc_1_1011XalanVectorIbNS_31MemoryManagedConstructionTraitsIbEEE14ensureCapacityEm = comdat any

$_ZN11xalanc_1_1028ConstructWithNoMemoryManagerIbE9constructEPbRKbRN11xercesc_2_713MemoryManagerE = comdat any

$_ZNK11xalanc_1_1011XalanVectorIbNS_31MemoryManagedConstructionTraitsIbEEE8capacityEv = comdat any

$_ZN11xalanc_1_1011XalanVectorIbNS_31MemoryManagedConstructionTraitsIbEEE10doPushBackERKb = comdat any

$_ZSt4copyIPKbPbET0_T_S4_S3_ = comdat any

$_ZSt13copy_backwardIPbS0_ET0_T_S2_S1_ = comdat any

$_ZSt8distanceIPKbENSt15iterator_traitsIT_E15difference_typeES3_S3_ = comdat any

$_ZSt10__distanceIPKbENSt15iterator_traitsIT_E15difference_typeES3_S3_St26random_access_iterator_tag = comdat any

$_ZSt19__iterator_categoryIPKbENSt15iterator_traitsIT_E17iterator_categoryERKS3_ = comdat any

$_ZSt13__copy_move_aILb0EPKbPbET1_T0_S4_S3_ = comdat any

$_ZSt12__miter_baseIPKbET_S2_ = comdat any

$_ZSt12__niter_wrapIPbET_RKS1_S1_ = comdat any

$_ZSt14__copy_move_a1ILb0EPKbPbET1_T0_S4_S3_ = comdat any

$_ZSt12__niter_baseIPKbET_S2_ = comdat any

$_ZSt12__niter_baseIPbET_S1_ = comdat any

$_ZSt14__copy_move_a2ILb0EPKbPbET1_T0_S4_S3_ = comdat any

$_ZNSt11__copy_moveILb0ELb1ESt26random_access_iterator_tagE8__copy_mIbEEPT_PKS3_S6_S4_ = comdat any

$_ZSt22__copy_move_backward_aILb0EPbS0_ET1_T0_S2_S1_ = comdat any

$_ZSt12__miter_baseIPbET_S1_ = comdat any

$_ZSt23__copy_move_backward_a1ILb0EPbS0_ET1_T0_S2_S1_ = comdat any

$_ZSt23__copy_move_backward_a2ILb0EPbS0_ET1_T0_S2_S1_ = comdat any

$_ZNSt20__copy_move_backwardILb0ELb1ESt26random_access_iterator_tagE13__copy_move_bIbEEPT_PKS3_S6_S4_ = comdat any

$_ZNK11xalanc_1_1011XalanVectorIbNS_31MemoryManagedConstructionTraitsIbEEE10endPointerEv = comdat any

$_ZN11xalanc_1_1011XalanVectorIPNS0_INS_9NameSpaceENS_32ConstructWithMemoryManagerTraitsIS1_EEEENS_31MemoryManagedConstructionTraitsIS5_EEE7reserveEm = comdat any

$_ZN11xalanc_1_1011XalanVectorINS_9NameSpaceENS_32ConstructWithMemoryManagerTraitsIS1_EEE5clearEv = comdat any

$_ZN11xalanc_1_1011XalanVectorIPNS0_INS_9NameSpaceENS_32ConstructWithMemoryManagerTraitsIS1_EEEENS_31MemoryManagedConstructionTraitsIS5_EEE5clearEv = comdat any

$_ZN11xalanc_1_1011XalanVectorINS_9NameSpaceENS_32ConstructWithMemoryManagerTraitsIS1_EEE12shrinkToSizeEm = comdat any

$_ZN11xalanc_1_1011XalanVectorIPNS0_INS_9NameSpaceENS_32ConstructWithMemoryManagerTraitsIS1_EEEENS_31MemoryManagedConstructionTraitsIS5_EEE12shrinkToSizeEm = comdat any

$_ZN11xalanc_1_1018XalanDequeIteratorINS_29XalanDequeConstIteratorTraitsINS_9NameSpaceEEENS_10XalanDequeIS2_NS_32ConstructWithMemoryManagerTraitsIS2_EEEEEC2EPS7_m = comdat any

$_ZNK11xalanc_1_1018XalanDequeIteratorINS_29XalanDequeConstIteratorTraitsINS_9NameSpaceEEENS_10XalanDequeIS2_NS_32ConstructWithMemoryManagerTraitsIS2_EEEEEeqERKS8_ = comdat any

$_ZN11xalanc_1_1010XalanDequeINS_9NameSpaceENS_32ConstructWithMemoryManagerTraitsIS1_EEEixEm = comdat any

$_ZN11xalanc_1_1011XalanVectorIPNS0_INS_9NameSpaceENS_32ConstructWithMemoryManagerTraitsIS1_EEEENS_31MemoryManagedConstructionTraitsIS5_EEEixEm = comdat any

$_ZN11xalanc_1_1011XalanVectorINS_9NameSpaceENS_32ConstructWithMemoryManagerTraitsIS1_EEEixEm = comdat any

$_ZN11xalanc_1_1011XalanVectorIbNS_31MemoryManagedConstructionTraitsIbEEE12shrinkToSizeEm = comdat any

@_ZN11xalanc_1_1021ResultNamespacesStackC1ERN11xercesc_2_713MemoryManagerE = dso_local unnamed_addr alias void (%"class.xalanc_1_10::ResultNamespacesStack"*, %"class.xercesc_2_7::MemoryManager"*), void (%"class.xalanc_1_10::ResultNamespacesStack"*, %"class.xercesc_2_7::MemoryManager"*)* @_ZN11xalanc_1_1021ResultNamespacesStackC2ERN11xercesc_2_713MemoryManagerE
@_ZN11xalanc_1_1021ResultNamespacesStackD1Ev = dso_local unnamed_addr alias void (%"class.xalanc_1_10::ResultNamespacesStack"*), void (%"class.xalanc_1_10::ResultNamespacesStack"*)* @_ZN11xalanc_1_1021ResultNamespacesStackD2Ev

; Function Attrs: noinline uwtable
define dso_local void @_ZN11xalanc_1_1021ResultNamespacesStackC2ERN11xercesc_2_713MemoryManagerE(%"class.xalanc_1_10::ResultNamespacesStack"* %this, %"class.xercesc_2_7::MemoryManager"* dereferenceable(8) %theManager) unnamed_addr #0 align 2 personality i8* bitcast (i32 (...)* @__gxx_personality_v0 to i8*) !dbg !3119 {
entry:
  %this.addr = alloca %"class.xalanc_1_10::ResultNamespacesStack"*, align 8
  %theManager.addr = alloca %"class.xercesc_2_7::MemoryManager"*, align 8
  %exn.slot = alloca i8*
  %ehselector.slot = alloca i32
  store %"class.xalanc_1_10::ResultNamespacesStack"* %this, %"class.xalanc_1_10::ResultNamespacesStack"** %this.addr, align 8
  call void @llvm.dbg.declare(metadata %"class.xalanc_1_10::ResultNamespacesStack"** %this.addr, metadata !3120, metadata !DIExpression()), !dbg !3122
  store %"class.xercesc_2_7::MemoryManager"* %theManager, %"class.xercesc_2_7::MemoryManager"** %theManager.addr, align 8
  call void @llvm.dbg.declare(metadata %"class.xercesc_2_7::MemoryManager"** %theManager.addr, metadata !3123, metadata !DIExpression()), !dbg !3124
  %this1 = load %"class.xalanc_1_10::ResultNamespacesStack"*, %"class.xalanc_1_10::ResultNamespacesStack"** %this.addr, align 8
  %m_resultNamespaces = getelementptr inbounds %"class.xalanc_1_10::ResultNamespacesStack", %"class.xalanc_1_10::ResultNamespacesStack"* %this1, i32 0, i32 0, !dbg !3125
  %0 = load %"class.xercesc_2_7::MemoryManager"*, %"class.xercesc_2_7::MemoryManager"** %theManager.addr, align 8, !dbg !3126
  call void @_ZN11xalanc_1_1010XalanDequeINS0_INS_9NameSpaceENS_32ConstructWithMemoryManagerTraitsIS1_EEEENS2_IS4_EEEC2ERN11xercesc_2_713MemoryManagerEmm(%"class.xalanc_1_10::XalanDeque"* %m_resultNamespaces, %"class.xercesc_2_7::MemoryManager"* dereferenceable(8) %0, i64 1, i64 10), !dbg !3125
  %m_stackBegin = getelementptr inbounds %"class.xalanc_1_10::ResultNamespacesStack", %"class.xalanc_1_10::ResultNamespacesStack"* %this1, i32 0, i32 1, !dbg !3127
  %m_resultNamespaces2 = getelementptr inbounds %"class.xalanc_1_10::ResultNamespacesStack", %"class.xalanc_1_10::ResultNamespacesStack"* %this1, i32 0, i32 0, !dbg !3128
  invoke void @_ZN11xalanc_1_1010XalanDequeINS0_INS_9NameSpaceENS_32ConstructWithMemoryManagerTraitsIS1_EEEENS2_IS4_EEE5beginEv(%"struct.xalanc_1_10::XalanDequeIterator"* sret %m_stackBegin, %"class.xalanc_1_10::XalanDeque"* %m_resultNamespaces2)
          to label %invoke.cont unwind label %lpad, !dbg !3129

invoke.cont:                                      ; preds = %entry
  %m_stackPosition = getelementptr inbounds %"class.xalanc_1_10::ResultNamespacesStack", %"class.xalanc_1_10::ResultNamespacesStack"* %this1, i32 0, i32 2, !dbg !3130
  %m_stackBegin3 = getelementptr inbounds %"class.xalanc_1_10::ResultNamespacesStack", %"class.xalanc_1_10::ResultNamespacesStack"* %this1, i32 0, i32 1, !dbg !3131
  invoke void @_ZN11xalanc_1_1018XalanDequeIteratorINS_24XalanDequeIteratorTraitsINS_10XalanDequeINS_9NameSpaceENS_32ConstructWithMemoryManagerTraitsIS3_EEEEEENS2_IS6_NS4_IS6_EEEEEC2ERKSA_(%"struct.xalanc_1_10::XalanDequeIterator"* %m_stackPosition, %"struct.xalanc_1_10::XalanDequeIterator"* dereferenceable(16) %m_stackBegin3)
          to label %invoke.cont4 unwind label %lpad, !dbg !3130

invoke.cont4:                                     ; preds = %invoke.cont
  %m_createNewContextStack = getelementptr inbounds %"class.xalanc_1_10::ResultNamespacesStack", %"class.xalanc_1_10::ResultNamespacesStack"* %this1, i32 0, i32 3, !dbg !3132
  %1 = load %"class.xercesc_2_7::MemoryManager"*, %"class.xercesc_2_7::MemoryManager"** %theManager.addr, align 8, !dbg !3133
  invoke void @_ZN11xalanc_1_1011XalanVectorIbNS_31MemoryManagedConstructionTraitsIbEEEC2ERN11xercesc_2_713MemoryManagerEm(%"class.xalanc_1_10::XalanVector.1"* %m_createNewContextStack, %"class.xercesc_2_7::MemoryManager"* dereferenceable(8) %1, i64 0)
          to label %invoke.cont5 unwind label %lpad, !dbg !3132

invoke.cont5:                                     ; preds = %invoke.cont4
  ret void, !dbg !3134

lpad:                                             ; preds = %invoke.cont4, %invoke.cont, %entry
  %2 = landingpad { i8*, i32 }
          cleanup, !dbg !3134
  %3 = extractvalue { i8*, i32 } %2, 0, !dbg !3134
  store i8* %3, i8** %exn.slot, align 8, !dbg !3134
  %4 = extractvalue { i8*, i32 } %2, 1, !dbg !3134
  store i32 %4, i32* %ehselector.slot, align 4, !dbg !3134
  call void @_ZN11xalanc_1_1010XalanDequeINS0_INS_9NameSpaceENS_32ConstructWithMemoryManagerTraitsIS1_EEEENS2_IS4_EEED2Ev(%"class.xalanc_1_10::XalanDeque"* %m_resultNamespaces) #6, !dbg !3135
  br label %eh.resume, !dbg !3135

eh.resume:                                        ; preds = %lpad
  %exn = load i8*, i8** %exn.slot, align 8, !dbg !3135
  %sel = load i32, i32* %ehselector.slot, align 4, !dbg !3135
  %lpad.val = insertvalue { i8*, i32 } undef, i8* %exn, 0, !dbg !3135
  %lpad.val6 = insertvalue { i8*, i32 } %lpad.val, i32 %sel, 1, !dbg !3135
  resume { i8*, i32 } %lpad.val6, !dbg !3135
}

; Function Attrs: nounwind readnone speculatable willreturn
declare void @llvm.dbg.declare(metadata, metadata, metadata) #1

; Function Attrs: noinline uwtable
define linkonce_odr dso_local void @_ZN11xalanc_1_1010XalanDequeINS0_INS_9NameSpaceENS_32ConstructWithMemoryManagerTraitsIS1_EEEENS2_IS4_EEEC2ERN11xercesc_2_713MemoryManagerEmm(%"class.xalanc_1_10::XalanDeque"* %this, %"class.xercesc_2_7::MemoryManager"* dereferenceable(8) %memoryManager, i64 %initialSize, i64 %blockSize) unnamed_addr #0 comdat align 2 personality i8* bitcast (i32 (...)* @__gxx_personality_v0 to i8*) !dbg !3137 {
entry:
  %this.addr = alloca %"class.xalanc_1_10::XalanDeque"*, align 8
  %memoryManager.addr = alloca %"class.xercesc_2_7::MemoryManager"*, align 8
  %initialSize.addr = alloca i64, align 8
  %blockSize.addr = alloca i64, align 8
  %exn.slot = alloca i8*
  %ehselector.slot = alloca i32
  %defaultValue = alloca %"struct.xalanc_1_10::ConstructValueWithMemoryManager", align 8
  %agg.tmp = alloca %"class.std::back_insert_iterator", align 8
  %coerce = alloca %"class.std::back_insert_iterator", align 8
  store %"class.xalanc_1_10::XalanDeque"* %this, %"class.xalanc_1_10::XalanDeque"** %this.addr, align 8
  call void @llvm.dbg.declare(metadata %"class.xalanc_1_10::XalanDeque"** %this.addr, metadata !3138, metadata !DIExpression()), !dbg !3139
  store %"class.xercesc_2_7::MemoryManager"* %memoryManager, %"class.xercesc_2_7::MemoryManager"** %memoryManager.addr, align 8
  call void @llvm.dbg.declare(metadata %"class.xercesc_2_7::MemoryManager"** %memoryManager.addr, metadata !3140, metadata !DIExpression()), !dbg !3141
  store i64 %initialSize, i64* %initialSize.addr, align 8
  call void @llvm.dbg.declare(metadata i64* %initialSize.addr, metadata !3142, metadata !DIExpression()), !dbg !3143
  store i64 %blockSize, i64* %blockSize.addr, align 8
  call void @llvm.dbg.declare(metadata i64* %blockSize.addr, metadata !3144, metadata !DIExpression()), !dbg !3145
  %this1 = load %"class.xalanc_1_10::XalanDeque"*, %"class.xalanc_1_10::XalanDeque"** %this.addr, align 8
  %m_memoryManager = getelementptr inbounds %"class.xalanc_1_10::XalanDeque", %"class.xalanc_1_10::XalanDeque"* %this1, i32 0, i32 0, !dbg !3146
  %0 = load %"class.xercesc_2_7::MemoryManager"*, %"class.xercesc_2_7::MemoryManager"** %memoryManager.addr, align 8, !dbg !3147
  store %"class.xercesc_2_7::MemoryManager"* %0, %"class.xercesc_2_7::MemoryManager"** %m_memoryManager, align 8, !dbg !3146
  %m_blockSize = getelementptr inbounds %"class.xalanc_1_10::XalanDeque", %"class.xalanc_1_10::XalanDeque"* %this1, i32 0, i32 1, !dbg !3148
  %1 = load i64, i64* %blockSize.addr, align 8, !dbg !3149
  store i64 %1, i64* %m_blockSize, align 8, !dbg !3148
  %m_blockIndex = getelementptr inbounds %"class.xalanc_1_10::XalanDeque", %"class.xalanc_1_10::XalanDeque"* %this1, i32 0, i32 2, !dbg !3150
  %2 = load %"class.xercesc_2_7::MemoryManager"*, %"class.xercesc_2_7::MemoryManager"** %memoryManager.addr, align 8, !dbg !3151
  %3 = load i64, i64* %initialSize.addr, align 8, !dbg !3152
  %4 = load i64, i64* %blockSize.addr, align 8, !dbg !3153
  %div = udiv i64 %3, %4, !dbg !3154
  %5 = load i64, i64* %initialSize.addr, align 8, !dbg !3155
  %6 = load i64, i64* %blockSize.addr, align 8, !dbg !3156
  %rem = urem i64 %5, %6, !dbg !3157
  %cmp = icmp eq i64 %rem, 0, !dbg !3158
  %7 = zext i1 %cmp to i64, !dbg !3155
  %cond = select i1 %cmp, i32 0, i32 1, !dbg !3155
  %conv = sext i32 %cond to i64, !dbg !3159
  %add = add i64 %div, %conv, !dbg !3160
  call void @_ZN11xalanc_1_1011XalanVectorIPNS0_INS_10XalanDequeINS_9NameSpaceENS_32ConstructWithMemoryManagerTraitsIS2_EEEENS3_IS5_EEEENS_31MemoryManagedConstructionTraitsIS8_EEEC2ERN11xercesc_2_713MemoryManagerEm(%"class.xalanc_1_10::XalanVector"* %m_blockIndex, %"class.xercesc_2_7::MemoryManager"* dereferenceable(8) %2, i64 %add), !dbg !3150
  %m_freeBlockVector = getelementptr inbounds %"class.xalanc_1_10::XalanDeque", %"class.xalanc_1_10::XalanDeque"* %this1, i32 0, i32 3, !dbg !3161
  %8 = load %"class.xercesc_2_7::MemoryManager"*, %"class.xercesc_2_7::MemoryManager"** %memoryManager.addr, align 8, !dbg !3162
  invoke void @_ZN11xalanc_1_1011XalanVectorIPNS0_INS_10XalanDequeINS_9NameSpaceENS_32ConstructWithMemoryManagerTraitsIS2_EEEENS3_IS5_EEEENS_31MemoryManagedConstructionTraitsIS8_EEEC2ERN11xercesc_2_713MemoryManagerEm(%"class.xalanc_1_10::XalanVector"* %m_freeBlockVector, %"class.xercesc_2_7::MemoryManager"* dereferenceable(8) %8, i64 0)
          to label %invoke.cont unwind label %lpad, !dbg !3161

invoke.cont:                                      ; preds = %entry
  call void @llvm.dbg.declare(metadata %"struct.xalanc_1_10::ConstructValueWithMemoryManager"* %defaultValue, metadata !3163, metadata !DIExpression()), !dbg !3181
  %m_memoryManager2 = getelementptr inbounds %"class.xalanc_1_10::XalanDeque", %"class.xalanc_1_10::XalanDeque"* %this1, i32 0, i32 0, !dbg !3182
  %9 = load %"class.xercesc_2_7::MemoryManager"*, %"class.xercesc_2_7::MemoryManager"** %m_memoryManager2, align 8, !dbg !3182
  invoke void @_ZN11xalanc_1_1031ConstructValueWithMemoryManagerINS_10XalanDequeINS_9NameSpaceENS_32ConstructWithMemoryManagerTraitsIS2_EEEEEC2ERN11xercesc_2_713MemoryManagerE(%"struct.xalanc_1_10::ConstructValueWithMemoryManager"* %defaultValue, %"class.xercesc_2_7::MemoryManager"* dereferenceable(8) %9)
          to label %invoke.cont4 unwind label %lpad3, !dbg !3181

invoke.cont4:                                     ; preds = %invoke.cont
  %call = invoke %"class.xalanc_1_10::XalanDeque"* @_ZSt13back_inserterIN11xalanc_1_1010XalanDequeINS1_INS0_9NameSpaceENS0_32ConstructWithMemoryManagerTraitsIS2_EEEENS3_IS5_EEEEESt20back_insert_iteratorIT_ERS9_(%"class.xalanc_1_10::XalanDeque"* dereferenceable(80) %this1)
          to label %invoke.cont6 unwind label %lpad5, !dbg !3183

invoke.cont6:                                     ; preds = %invoke.cont4
  %coerce.dive = getelementptr inbounds %"class.std::back_insert_iterator", %"class.std::back_insert_iterator"* %agg.tmp, i32 0, i32 0, !dbg !3183
  store %"class.xalanc_1_10::XalanDeque"* %call, %"class.xalanc_1_10::XalanDeque"** %coerce.dive, align 8, !dbg !3183
  %10 = load i64, i64* %initialSize.addr, align 8, !dbg !3184
  %value = getelementptr inbounds %"struct.xalanc_1_10::ConstructValueWithMemoryManager", %"struct.xalanc_1_10::ConstructValueWithMemoryManager"* %defaultValue, i32 0, i32 0, !dbg !3185
  %coerce.dive7 = getelementptr inbounds %"class.std::back_insert_iterator", %"class.std::back_insert_iterator"* %agg.tmp, i32 0, i32 0, !dbg !3186
  %11 = load %"class.xalanc_1_10::XalanDeque"*, %"class.xalanc_1_10::XalanDeque"** %coerce.dive7, align 8, !dbg !3186
  %call9 = invoke %"class.xalanc_1_10::XalanDeque"* @_ZSt6fill_nISt20back_insert_iteratorIN11xalanc_1_1010XalanDequeINS2_INS1_9NameSpaceENS1_32ConstructWithMemoryManagerTraitsIS3_EEEENS4_IS6_EEEEEmS6_ET_SA_T0_RKT1_(%"class.xalanc_1_10::XalanDeque"* %11, i64 %10, %"class.xalanc_1_10::XalanDeque.3"* dereferenceable(80) %value)
          to label %invoke.cont8 unwind label %lpad5, !dbg !3186

invoke.cont8:                                     ; preds = %invoke.cont6
  %coerce.dive10 = getelementptr inbounds %"class.std::back_insert_iterator", %"class.std::back_insert_iterator"* %coerce, i32 0, i32 0, !dbg !3186
  store %"class.xalanc_1_10::XalanDeque"* %call9, %"class.xalanc_1_10::XalanDeque"** %coerce.dive10, align 8, !dbg !3186
  call void @_ZN11xalanc_1_1031ConstructValueWithMemoryManagerINS_10XalanDequeINS_9NameSpaceENS_32ConstructWithMemoryManagerTraitsIS2_EEEEED2Ev(%"struct.xalanc_1_10::ConstructValueWithMemoryManager"* %defaultValue) #6, !dbg !3187
  ret void, !dbg !3187

lpad:                                             ; preds = %entry
  %12 = landingpad { i8*, i32 }
          cleanup, !dbg !3187
  %13 = extractvalue { i8*, i32 } %12, 0, !dbg !3187
  store i8* %13, i8** %exn.slot, align 8, !dbg !3187
  %14 = extractvalue { i8*, i32 } %12, 1, !dbg !3187
  store i32 %14, i32* %ehselector.slot, align 4, !dbg !3187
  br label %ehcleanup11, !dbg !3187

lpad3:                                            ; preds = %invoke.cont
  %15 = landingpad { i8*, i32 }
          cleanup, !dbg !3188
  %16 = extractvalue { i8*, i32 } %15, 0, !dbg !3188
  store i8* %16, i8** %exn.slot, align 8, !dbg !3188
  %17 = extractvalue { i8*, i32 } %15, 1, !dbg !3188
  store i32 %17, i32* %ehselector.slot, align 4, !dbg !3188
  br label %ehcleanup, !dbg !3188

lpad5:                                            ; preds = %invoke.cont6, %invoke.cont4
  %18 = landingpad { i8*, i32 }
          cleanup, !dbg !3188
  %19 = extractvalue { i8*, i32 } %18, 0, !dbg !3188
  store i8* %19, i8** %exn.slot, align 8, !dbg !3188
  %20 = extractvalue { i8*, i32 } %18, 1, !dbg !3188
  store i32 %20, i32* %ehselector.slot, align 4, !dbg !3188
  call void @_ZN11xalanc_1_1031ConstructValueWithMemoryManagerINS_10XalanDequeINS_9NameSpaceENS_32ConstructWithMemoryManagerTraitsIS2_EEEEED2Ev(%"struct.xalanc_1_10::ConstructValueWithMemoryManager"* %defaultValue) #6, !dbg !3187
  br label %ehcleanup, !dbg !3187

ehcleanup:                                        ; preds = %lpad5, %lpad3
  call void @_ZN11xalanc_1_1011XalanVectorIPNS0_INS_10XalanDequeINS_9NameSpaceENS_32ConstructWithMemoryManagerTraitsIS2_EEEENS3_IS5_EEEENS_31MemoryManagedConstructionTraitsIS8_EEED2Ev(%"class.xalanc_1_10::XalanVector"* %m_freeBlockVector) #6, !dbg !3188
  br label %ehcleanup11, !dbg !3188

ehcleanup11:                                      ; preds = %ehcleanup, %lpad
  call void @_ZN11xalanc_1_1011XalanVectorIPNS0_INS_10XalanDequeINS_9NameSpaceENS_32ConstructWithMemoryManagerTraitsIS2_EEEENS3_IS5_EEEENS_31MemoryManagedConstructionTraitsIS8_EEED2Ev(%"class.xalanc_1_10::XalanVector"* %m_blockIndex) #6, !dbg !3188
  br label %eh.resume, !dbg !3188

eh.resume:                                        ; preds = %ehcleanup11
  %exn = load i8*, i8** %exn.slot, align 8, !dbg !3188
  %sel = load i32, i32* %ehselector.slot, align 4, !dbg !3188
  %lpad.val = insertvalue { i8*, i32 } undef, i8* %exn, 0, !dbg !3188
  %lpad.val12 = insertvalue { i8*, i32 } %lpad.val, i32 %sel, 1, !dbg !3188
  resume { i8*, i32 } %lpad.val12, !dbg !3188
}

; Function Attrs: noinline uwtable
define linkonce_odr dso_local void @_ZN11xalanc_1_1010XalanDequeINS0_INS_9NameSpaceENS_32ConstructWithMemoryManagerTraitsIS1_EEEENS2_IS4_EEE5beginEv(%"struct.xalanc_1_10::XalanDequeIterator"* noalias sret %agg.result, %"class.xalanc_1_10::XalanDeque"* %this) #0 comdat align 2 !dbg !3189 {
entry:
  %result.ptr = alloca i8*, align 8
  %this.addr = alloca %"class.xalanc_1_10::XalanDeque"*, align 8
  %0 = bitcast %"struct.xalanc_1_10::XalanDequeIterator"* %agg.result to i8*
  store i8* %0, i8** %result.ptr, align 8
  store %"class.xalanc_1_10::XalanDeque"* %this, %"class.xalanc_1_10::XalanDeque"** %this.addr, align 8
  call void @llvm.dbg.declare(metadata %"class.xalanc_1_10::XalanDeque"** %this.addr, metadata !3190, metadata !DIExpression()), !dbg !3191
  %this1 = load %"class.xalanc_1_10::XalanDeque"*, %"class.xalanc_1_10::XalanDeque"** %this.addr, align 8
  call void @_ZN11xalanc_1_1018XalanDequeIteratorINS_24XalanDequeIteratorTraitsINS_10XalanDequeINS_9NameSpaceENS_32ConstructWithMemoryManagerTraitsIS3_EEEEEENS2_IS6_NS4_IS6_EEEEEC2EPS9_m(%"struct.xalanc_1_10::XalanDequeIterator"* %agg.result, %"class.xalanc_1_10::XalanDeque"* %this1, i64 0), !dbg !3192
  ret void, !dbg !3193
}

declare dso_local i32 @__gxx_personality_v0(...)

; Function Attrs: noinline nounwind uwtable
define linkonce_odr dso_local void @_ZN11xalanc_1_1018XalanDequeIteratorINS_24XalanDequeIteratorTraitsINS_10XalanDequeINS_9NameSpaceENS_32ConstructWithMemoryManagerTraitsIS3_EEEEEENS2_IS6_NS4_IS6_EEEEEC2ERKSA_(%"struct.xalanc_1_10::XalanDequeIterator"* %this, %"struct.xalanc_1_10::XalanDequeIterator"* dereferenceable(16) %iterator) unnamed_addr #2 comdat align 2 !dbg !3194 {
entry:
  %this.addr = alloca %"struct.xalanc_1_10::XalanDequeIterator"*, align 8
  %iterator.addr = alloca %"struct.xalanc_1_10::XalanDequeIterator"*, align 8
  store %"struct.xalanc_1_10::XalanDequeIterator"* %this, %"struct.xalanc_1_10::XalanDequeIterator"** %this.addr, align 8
  call void @llvm.dbg.declare(metadata %"struct.xalanc_1_10::XalanDequeIterator"** %this.addr, metadata !3195, metadata !DIExpression()), !dbg !3197
  store %"struct.xalanc_1_10::XalanDequeIterator"* %iterator, %"struct.xalanc_1_10::XalanDequeIterator"** %iterator.addr, align 8
  call void @llvm.dbg.declare(metadata %"struct.xalanc_1_10::XalanDequeIterator"** %iterator.addr, metadata !3198, metadata !DIExpression()), !dbg !3199
  %this1 = load %"struct.xalanc_1_10::XalanDequeIterator"*, %"struct.xalanc_1_10::XalanDequeIterator"** %this.addr, align 8
  %m_deque = getelementptr inbounds %"struct.xalanc_1_10::XalanDequeIterator", %"struct.xalanc_1_10::XalanDequeIterator"* %this1, i32 0, i32 0, !dbg !3200
  %0 = load %"struct.xalanc_1_10::XalanDequeIterator"*, %"struct.xalanc_1_10::XalanDequeIterator"** %iterator.addr, align 8, !dbg !3201
  %m_deque2 = getelementptr inbounds %"struct.xalanc_1_10::XalanDequeIterator", %"struct.xalanc_1_10::XalanDequeIterator"* %0, i32 0, i32 0, !dbg !3202
  %1 = load %"class.xalanc_1_10::XalanDeque"*, %"class.xalanc_1_10::XalanDeque"** %m_deque2, align 8, !dbg !3202
  store %"class.xalanc_1_10::XalanDeque"* %1, %"class.xalanc_1_10::XalanDeque"** %m_deque, align 8, !dbg !3200
  %m_pos = getelementptr inbounds %"struct.xalanc_1_10::XalanDequeIterator", %"struct.xalanc_1_10::XalanDequeIterator"* %this1, i32 0, i32 1, !dbg !3203
  %2 = load %"struct.xalanc_1_10::XalanDequeIterator"*, %"struct.xalanc_1_10::XalanDequeIterator"** %iterator.addr, align 8, !dbg !3204
  %m_pos3 = getelementptr inbounds %"struct.xalanc_1_10::XalanDequeIterator", %"struct.xalanc_1_10::XalanDequeIterator"* %2, i32 0, i32 1, !dbg !3205
  %3 = load i64, i64* %m_pos3, align 8, !dbg !3205
  store i64 %3, i64* %m_pos, align 8, !dbg !3203
  ret void, !dbg !3206
}

; Function Attrs: noinline uwtable
define linkonce_odr dso_local void @_ZN11xalanc_1_1011XalanVectorIbNS_31MemoryManagedConstructionTraitsIbEEEC2ERN11xercesc_2_713MemoryManagerEm(%"class.xalanc_1_10::XalanVector.1"* %this, %"class.xercesc_2_7::MemoryManager"* dereferenceable(8) %theManager, i64 %initialAllocation) unnamed_addr #0 comdat align 2 !dbg !3207 {
entry:
  %this.addr = alloca %"class.xalanc_1_10::XalanVector.1"*, align 8
  %theManager.addr = alloca %"class.xercesc_2_7::MemoryManager"*, align 8
  %initialAllocation.addr = alloca i64, align 8
  store %"class.xalanc_1_10::XalanVector.1"* %this, %"class.xalanc_1_10::XalanVector.1"** %this.addr, align 8
  call void @llvm.dbg.declare(metadata %"class.xalanc_1_10::XalanVector.1"** %this.addr, metadata !3208, metadata !DIExpression()), !dbg !3209
  store %"class.xercesc_2_7::MemoryManager"* %theManager, %"class.xercesc_2_7::MemoryManager"** %theManager.addr, align 8
  call void @llvm.dbg.declare(metadata %"class.xercesc_2_7::MemoryManager"** %theManager.addr, metadata !3210, metadata !DIExpression()), !dbg !3211
  store i64 %initialAllocation, i64* %initialAllocation.addr, align 8
  call void @llvm.dbg.declare(metadata i64* %initialAllocation.addr, metadata !3212, metadata !DIExpression()), !dbg !3213
  %this1 = load %"class.xalanc_1_10::XalanVector.1"*, %"class.xalanc_1_10::XalanVector.1"** %this.addr, align 8
  %m_memoryManager = getelementptr inbounds %"class.xalanc_1_10::XalanVector.1", %"class.xalanc_1_10::XalanVector.1"* %this1, i32 0, i32 0, !dbg !3214
  %0 = load %"class.xercesc_2_7::MemoryManager"*, %"class.xercesc_2_7::MemoryManager"** %theManager.addr, align 8, !dbg !3215
  store %"class.xercesc_2_7::MemoryManager"* %0, %"class.xercesc_2_7::MemoryManager"** %m_memoryManager, align 8, !dbg !3214
  %m_size = getelementptr inbounds %"class.xalanc_1_10::XalanVector.1", %"class.xalanc_1_10::XalanVector.1"* %this1, i32 0, i32 1, !dbg !3216
  store i64 0, i64* %m_size, align 8, !dbg !3216
  %m_allocation = getelementptr inbounds %"class.xalanc_1_10::XalanVector.1", %"class.xalanc_1_10::XalanVector.1"* %this1, i32 0, i32 2, !dbg !3217
  %1 = load i64, i64* %initialAllocation.addr, align 8, !dbg !3218
  store i64 %1, i64* %m_allocation, align 8, !dbg !3217
  %m_data = getelementptr inbounds %"class.xalanc_1_10::XalanVector.1", %"class.xalanc_1_10::XalanVector.1"* %this1, i32 0, i32 3, !dbg !3219
  %2 = load i64, i64* %initialAllocation.addr, align 8, !dbg !3220
  %cmp = icmp ugt i64 %2, 0, !dbg !3221
  br i1 %cmp, label %cond.true, label %cond.false, !dbg !3220

cond.true:                                        ; preds = %entry
  %3 = load i64, i64* %initialAllocation.addr, align 8, !dbg !3222
  %call = call i8* @_ZN11xalanc_1_1011XalanVectorIbNS_31MemoryManagedConstructionTraitsIbEEE8allocateEm(%"class.xalanc_1_10::XalanVector.1"* %this1, i64 %3), !dbg !3223
  br label %cond.end, !dbg !3220

cond.false:                                       ; preds = %entry
  br label %cond.end, !dbg !3220

cond.end:                                         ; preds = %cond.false, %cond.true
  %cond = phi i8* [ %call, %cond.true ], [ null, %cond.false ], !dbg !3220
  store i8* %cond, i8** %m_data, align 8, !dbg !3219
  call void @_ZNK11xalanc_1_1011XalanVectorIbNS_31MemoryManagedConstructionTraitsIbEEE10invariantsEv(%"class.xalanc_1_10::XalanVector.1"* %this1), !dbg !3224
  ret void, !dbg !3226
}

; Function Attrs: noinline nounwind uwtable
define linkonce_odr dso_local void @_ZN11xalanc_1_1010XalanDequeINS0_INS_9NameSpaceENS_32ConstructWithMemoryManagerTraitsIS1_EEEENS2_IS4_EEED2Ev(%"class.xalanc_1_10::XalanDeque"* %this) unnamed_addr #2 comdat align 2 personality i8* bitcast (i32 (...)* @__gxx_personality_v0 to i8*) !dbg !3227 {
entry:
  %this.addr = alloca %"class.xalanc_1_10::XalanDeque"*, align 8
  %exn.slot = alloca i8*
  %ehselector.slot = alloca i32
  %iter = alloca %"class.xalanc_1_10::XalanVector.0"**, align 8
  store %"class.xalanc_1_10::XalanDeque"* %this, %"class.xalanc_1_10::XalanDeque"** %this.addr, align 8
  call void @llvm.dbg.declare(metadata %"class.xalanc_1_10::XalanDeque"** %this.addr, metadata !3228, metadata !DIExpression()), !dbg !3229
  %this1 = load %"class.xalanc_1_10::XalanDeque"*, %"class.xalanc_1_10::XalanDeque"** %this.addr, align 8
  invoke void @_ZN11xalanc_1_1010XalanDequeINS0_INS_9NameSpaceENS_32ConstructWithMemoryManagerTraitsIS1_EEEENS2_IS4_EEE5clearEv(%"class.xalanc_1_10::XalanDeque"* %this1)
          to label %invoke.cont unwind label %lpad, !dbg !3230

invoke.cont:                                      ; preds = %entry
  call void @llvm.dbg.declare(metadata %"class.xalanc_1_10::XalanVector.0"*** %iter, metadata !3232, metadata !DIExpression()), !dbg !3233
  %m_freeBlockVector = getelementptr inbounds %"class.xalanc_1_10::XalanDeque", %"class.xalanc_1_10::XalanDeque"* %this1, i32 0, i32 3, !dbg !3234
  %call = invoke %"class.xalanc_1_10::XalanVector.0"** @_ZN11xalanc_1_1011XalanVectorIPNS0_INS_10XalanDequeINS_9NameSpaceENS_32ConstructWithMemoryManagerTraitsIS2_EEEENS3_IS5_EEEENS_31MemoryManagedConstructionTraitsIS8_EEE5beginEv(%"class.xalanc_1_10::XalanVector"* %m_freeBlockVector)
          to label %invoke.cont2 unwind label %lpad, !dbg !3235

invoke.cont2:                                     ; preds = %invoke.cont
  store %"class.xalanc_1_10::XalanVector.0"** %call, %"class.xalanc_1_10::XalanVector.0"*** %iter, align 8, !dbg !3233
  br label %while.cond, !dbg !3236

while.cond:                                       ; preds = %invoke.cont6, %invoke.cont2
  %0 = load %"class.xalanc_1_10::XalanVector.0"**, %"class.xalanc_1_10::XalanVector.0"*** %iter, align 8, !dbg !3237
  %m_freeBlockVector3 = getelementptr inbounds %"class.xalanc_1_10::XalanDeque", %"class.xalanc_1_10::XalanDeque"* %this1, i32 0, i32 3, !dbg !3238
  %call5 = invoke %"class.xalanc_1_10::XalanVector.0"** @_ZN11xalanc_1_1011XalanVectorIPNS0_INS_10XalanDequeINS_9NameSpaceENS_32ConstructWithMemoryManagerTraitsIS2_EEEENS3_IS5_EEEENS_31MemoryManagedConstructionTraitsIS8_EEE3endEv(%"class.xalanc_1_10::XalanVector"* %m_freeBlockVector3)
          to label %invoke.cont4 unwind label %lpad, !dbg !3239

invoke.cont4:                                     ; preds = %while.cond
  %cmp = icmp ne %"class.xalanc_1_10::XalanVector.0"** %0, %call5, !dbg !3240
  br i1 %cmp, label %while.body, label %while.end, !dbg !3236

while.body:                                       ; preds = %invoke.cont4
  %1 = load %"class.xalanc_1_10::XalanVector.0"**, %"class.xalanc_1_10::XalanVector.0"*** %iter, align 8, !dbg !3241
  %2 = load %"class.xalanc_1_10::XalanVector.0"*, %"class.xalanc_1_10::XalanVector.0"** %1, align 8, !dbg !3243
  call void @_ZN11xalanc_1_1011XalanVectorINS_10XalanDequeINS_9NameSpaceENS_32ConstructWithMemoryManagerTraitsIS2_EEEENS3_IS5_EEED2Ev(%"class.xalanc_1_10::XalanVector.0"* %2) #6, !dbg !3244
  %3 = load %"class.xalanc_1_10::XalanVector.0"**, %"class.xalanc_1_10::XalanVector.0"*** %iter, align 8, !dbg !3245
  %4 = load %"class.xalanc_1_10::XalanVector.0"*, %"class.xalanc_1_10::XalanVector.0"** %3, align 8, !dbg !3246
  invoke void @_ZN11xalanc_1_1010XalanDequeINS0_INS_9NameSpaceENS_32ConstructWithMemoryManagerTraitsIS1_EEEENS2_IS4_EEE10deallocateEPNS_11XalanVectorIS4_S5_EE(%"class.xalanc_1_10::XalanDeque"* %this1, %"class.xalanc_1_10::XalanVector.0"* %4)
          to label %invoke.cont6 unwind label %lpad, !dbg !3247

invoke.cont6:                                     ; preds = %while.body
  %5 = load %"class.xalanc_1_10::XalanVector.0"**, %"class.xalanc_1_10::XalanVector.0"*** %iter, align 8, !dbg !3248
  %incdec.ptr = getelementptr inbounds %"class.xalanc_1_10::XalanVector.0"*, %"class.xalanc_1_10::XalanVector.0"** %5, i32 1, !dbg !3248
  store %"class.xalanc_1_10::XalanVector.0"** %incdec.ptr, %"class.xalanc_1_10::XalanVector.0"*** %iter, align 8, !dbg !3248
  br label %while.cond, !dbg !3236, !llvm.loop !3249

lpad:                                             ; preds = %while.body, %while.cond, %invoke.cont, %entry
  %6 = landingpad { i8*, i32 }
          catch i8* null, !dbg !3251
  %7 = extractvalue { i8*, i32 } %6, 0, !dbg !3251
  store i8* %7, i8** %exn.slot, align 8, !dbg !3251
  %8 = extractvalue { i8*, i32 } %6, 1, !dbg !3251
  store i32 %8, i32* %ehselector.slot, align 4, !dbg !3251
  %m_freeBlockVector8 = getelementptr inbounds %"class.xalanc_1_10::XalanDeque", %"class.xalanc_1_10::XalanDeque"* %this1, i32 0, i32 3, !dbg !3251
  call void @_ZN11xalanc_1_1011XalanVectorIPNS0_INS_10XalanDequeINS_9NameSpaceENS_32ConstructWithMemoryManagerTraitsIS2_EEEENS3_IS5_EEEENS_31MemoryManagedConstructionTraitsIS8_EEED2Ev(%"class.xalanc_1_10::XalanVector"* %m_freeBlockVector8) #6, !dbg !3251
  %m_blockIndex9 = getelementptr inbounds %"class.xalanc_1_10::XalanDeque", %"class.xalanc_1_10::XalanDeque"* %this1, i32 0, i32 2, !dbg !3251
  call void @_ZN11xalanc_1_1011XalanVectorIPNS0_INS_10XalanDequeINS_9NameSpaceENS_32ConstructWithMemoryManagerTraitsIS2_EEEENS3_IS5_EEEENS_31MemoryManagedConstructionTraitsIS8_EEED2Ev(%"class.xalanc_1_10::XalanVector"* %m_blockIndex9) #6, !dbg !3251
  br label %terminate.handler, !dbg !3251

while.end:                                        ; preds = %invoke.cont4
  %m_freeBlockVector7 = getelementptr inbounds %"class.xalanc_1_10::XalanDeque", %"class.xalanc_1_10::XalanDeque"* %this1, i32 0, i32 3, !dbg !3251
  call void @_ZN11xalanc_1_1011XalanVectorIPNS0_INS_10XalanDequeINS_9NameSpaceENS_32ConstructWithMemoryManagerTraitsIS2_EEEENS3_IS5_EEEENS_31MemoryManagedConstructionTraitsIS8_EEED2Ev(%"class.xalanc_1_10::XalanVector"* %m_freeBlockVector7) #6, !dbg !3251
  %m_blockIndex = getelementptr inbounds %"class.xalanc_1_10::XalanDeque", %"class.xalanc_1_10::XalanDeque"* %this1, i32 0, i32 2, !dbg !3251
  call void @_ZN11xalanc_1_1011XalanVectorIPNS0_INS_10XalanDequeINS_9NameSpaceENS_32ConstructWithMemoryManagerTraitsIS2_EEEENS3_IS5_EEEENS_31MemoryManagedConstructionTraitsIS8_EEED2Ev(%"class.xalanc_1_10::XalanVector"* %m_blockIndex) #6, !dbg !3251
  ret void, !dbg !3252

terminate.handler:                                ; preds = %lpad
  %exn = load i8*, i8** %exn.slot, align 8, !dbg !3251
  call void @__clang_call_terminate(i8* %exn) #7, !dbg !3251
  unreachable, !dbg !3251
}

; Function Attrs: noinline nounwind uwtable
define dso_local void @_ZN11xalanc_1_1021ResultNamespacesStackD2Ev(%"class.xalanc_1_10::ResultNamespacesStack"* %this) unnamed_addr #2 align 2 !dbg !3253 {
entry:
  %this.addr = alloca %"class.xalanc_1_10::ResultNamespacesStack"*, align 8
  store %"class.xalanc_1_10::ResultNamespacesStack"* %this, %"class.xalanc_1_10::ResultNamespacesStack"** %this.addr, align 8
  call void @llvm.dbg.declare(metadata %"class.xalanc_1_10::ResultNamespacesStack"** %this.addr, metadata !3254, metadata !DIExpression()), !dbg !3255
  %this1 = load %"class.xalanc_1_10::ResultNamespacesStack"*, %"class.xalanc_1_10::ResultNamespacesStack"** %this.addr, align 8
  %m_createNewContextStack = getelementptr inbounds %"class.xalanc_1_10::ResultNamespacesStack", %"class.xalanc_1_10::ResultNamespacesStack"* %this1, i32 0, i32 3, !dbg !3256
  call void @_ZN11xalanc_1_1011XalanVectorIbNS_31MemoryManagedConstructionTraitsIbEEED2Ev(%"class.xalanc_1_10::XalanVector.1"* %m_createNewContextStack) #6, !dbg !3256
  %m_resultNamespaces = getelementptr inbounds %"class.xalanc_1_10::ResultNamespacesStack", %"class.xalanc_1_10::ResultNamespacesStack"* %this1, i32 0, i32 0, !dbg !3256
  call void @_ZN11xalanc_1_1010XalanDequeINS0_INS_9NameSpaceENS_32ConstructWithMemoryManagerTraitsIS1_EEEENS2_IS4_EEED2Ev(%"class.xalanc_1_10::XalanDeque"* %m_resultNamespaces) #6, !dbg !3256
  ret void, !dbg !3258
}

; Function Attrs: noinline nounwind uwtable
define linkonce_odr dso_local void @_ZN11xalanc_1_1011XalanVectorIbNS_31MemoryManagedConstructionTraitsIbEEED2Ev(%"class.xalanc_1_10::XalanVector.1"* %this) unnamed_addr #2 comdat align 2 personality i8* bitcast (i32 (...)* @__gxx_personality_v0 to i8*) !dbg !3259 {
entry:
  %this.addr = alloca %"class.xalanc_1_10::XalanVector.1"*, align 8
  store %"class.xalanc_1_10::XalanVector.1"* %this, %"class.xalanc_1_10::XalanVector.1"** %this.addr, align 8
  call void @llvm.dbg.declare(metadata %"class.xalanc_1_10::XalanVector.1"** %this.addr, metadata !3260, metadata !DIExpression()), !dbg !3261
  %this1 = load %"class.xalanc_1_10::XalanVector.1"*, %"class.xalanc_1_10::XalanVector.1"** %this.addr, align 8
  invoke void @_ZNK11xalanc_1_1011XalanVectorIbNS_31MemoryManagedConstructionTraitsIbEEE10invariantsEv(%"class.xalanc_1_10::XalanVector.1"* %this1)
          to label %invoke.cont unwind label %terminate.lpad, !dbg !3262

invoke.cont:                                      ; preds = %entry
  %m_allocation = getelementptr inbounds %"class.xalanc_1_10::XalanVector.1", %"class.xalanc_1_10::XalanVector.1"* %this1, i32 0, i32 2, !dbg !3264
  %0 = load i64, i64* %m_allocation, align 8, !dbg !3264
  %cmp = icmp ne i64 %0, 0, !dbg !3266
  br i1 %cmp, label %if.then, label %if.end, !dbg !3267

if.then:                                          ; preds = %invoke.cont
  %call = invoke i8* @_ZN11xalanc_1_1011XalanVectorIbNS_31MemoryManagedConstructionTraitsIbEEE5beginEv(%"class.xalanc_1_10::XalanVector.1"* %this1)
          to label %invoke.cont2 unwind label %terminate.lpad, !dbg !3268

invoke.cont2:                                     ; preds = %if.then
  %call4 = invoke i8* @_ZN11xalanc_1_1011XalanVectorIbNS_31MemoryManagedConstructionTraitsIbEEE3endEv(%"class.xalanc_1_10::XalanVector.1"* %this1)
          to label %invoke.cont3 unwind label %terminate.lpad, !dbg !3270

invoke.cont3:                                     ; preds = %invoke.cont2
  invoke void @_ZN11xalanc_1_1011XalanVectorIbNS_31MemoryManagedConstructionTraitsIbEEE7destroyEPbS4_(i8* %call, i8* %call4)
          to label %invoke.cont5 unwind label %terminate.lpad, !dbg !3271

invoke.cont5:                                     ; preds = %invoke.cont3
  %m_data = getelementptr inbounds %"class.xalanc_1_10::XalanVector.1", %"class.xalanc_1_10::XalanVector.1"* %this1, i32 0, i32 3, !dbg !3272
  %1 = load i8*, i8** %m_data, align 8, !dbg !3272
  invoke void @_ZN11xalanc_1_1011XalanVectorIbNS_31MemoryManagedConstructionTraitsIbEEE10deallocateEPb(%"class.xalanc_1_10::XalanVector.1"* %this1, i8* %1)
          to label %invoke.cont6 unwind label %terminate.lpad, !dbg !3273

invoke.cont6:                                     ; preds = %invoke.cont5
  br label %if.end, !dbg !3274

if.end:                                           ; preds = %invoke.cont6, %invoke.cont
  ret void, !dbg !3275

terminate.lpad:                                   ; preds = %invoke.cont5, %invoke.cont3, %invoke.cont2, %if.then, %entry
  %2 = landingpad { i8*, i32 }
          catch i8* null, !dbg !3262
  %3 = extractvalue { i8*, i32 } %2, 0, !dbg !3262
  call void @__clang_call_terminate(i8* %3) #7, !dbg !3262
  unreachable, !dbg !3262
}

; Function Attrs: noinline uwtable
define dso_local void @_ZN11xalanc_1_1021ResultNamespacesStack14addDeclarationERKNS_14XalanDOMStringEPKtj(%"class.xalanc_1_10::ResultNamespacesStack"* %this, %"class.xalanc_1_10::XalanDOMString"* dereferenceable(40) %thePrefix, i16* %theNamespaceURI, i32 %theLength) #0 align 2 !dbg !3276 {
entry:
  %this.addr = alloca %"class.xalanc_1_10::ResultNamespacesStack"*, align 8
  %thePrefix.addr = alloca %"class.xalanc_1_10::XalanDOMString"*, align 8
  %theNamespaceURI.addr = alloca i16*, align 8
  %theLength.addr = alloca i32, align 4
  %ref.tmp = alloca %"struct.xalanc_1_10::XalanDequeIterator", align 8
  %ref.tmp9 = alloca %"struct.xalanc_1_10::XalanDequeIterator", align 8
  %ref.tmp10 = alloca %"struct.xalanc_1_10::XalanDequeIterator", align 8
  %ref.tmp14 = alloca %"struct.xalanc_1_10::XalanDequeIterator", align 8
  %theCurrentNamespaces = alloca %"class.xalanc_1_10::XalanDeque.3"*, align 8
  %theNewNamespace = alloca %"class.xalanc_1_10::NameSpace"*, align 8
  store %"class.xalanc_1_10::ResultNamespacesStack"* %this, %"class.xalanc_1_10::ResultNamespacesStack"** %this.addr, align 8
  call void @llvm.dbg.declare(metadata %"class.xalanc_1_10::ResultNamespacesStack"** %this.addr, metadata !3277, metadata !DIExpression()), !dbg !3278
  store %"class.xalanc_1_10::XalanDOMString"* %thePrefix, %"class.xalanc_1_10::XalanDOMString"** %thePrefix.addr, align 8
  call void @llvm.dbg.declare(metadata %"class.xalanc_1_10::XalanDOMString"** %thePrefix.addr, metadata !3279, metadata !DIExpression()), !dbg !3280
  store i16* %theNamespaceURI, i16** %theNamespaceURI.addr, align 8
  call void @llvm.dbg.declare(metadata i16** %theNamespaceURI.addr, metadata !3281, metadata !DIExpression()), !dbg !3282
  store i32 %theLength, i32* %theLength.addr, align 4
  call void @llvm.dbg.declare(metadata i32* %theLength.addr, metadata !3283, metadata !DIExpression()), !dbg !3284
  %this1 = load %"class.xalanc_1_10::ResultNamespacesStack"*, %"class.xalanc_1_10::ResultNamespacesStack"** %this.addr, align 8
  %m_createNewContextStack = getelementptr inbounds %"class.xalanc_1_10::ResultNamespacesStack", %"class.xalanc_1_10::ResultNamespacesStack"* %this1, i32 0, i32 3, !dbg !3285
  %call = call dereferenceable(1) i8* @_ZN11xalanc_1_1011XalanVectorIbNS_31MemoryManagedConstructionTraitsIbEEE4backEv(%"class.xalanc_1_10::XalanVector.1"* %m_createNewContextStack), !dbg !3287
  %0 = load i8, i8* %call, align 1, !dbg !3287
  %tobool = trunc i8 %0 to i1, !dbg !3287
  %conv = zext i1 %tobool to i32, !dbg !3285
  %cmp = icmp eq i32 %conv, 1, !dbg !3288
  br i1 %cmp, label %if.then, label %if.end19, !dbg !3289

if.then:                                          ; preds = %entry
  %m_stackPosition = getelementptr inbounds %"class.xalanc_1_10::ResultNamespacesStack", %"class.xalanc_1_10::ResultNamespacesStack"* %this1, i32 0, i32 2, !dbg !3290
  %call2 = call dereferenceable(16) %"struct.xalanc_1_10::XalanDequeIterator"* @_ZN11xalanc_1_1018XalanDequeIteratorINS_24XalanDequeIteratorTraitsINS_10XalanDequeINS_9NameSpaceENS_32ConstructWithMemoryManagerTraitsIS3_EEEEEENS2_IS6_NS4_IS6_EEEEEppEv(%"struct.xalanc_1_10::XalanDequeIterator"* %m_stackPosition), !dbg !3292
  %m_stackPosition3 = getelementptr inbounds %"class.xalanc_1_10::ResultNamespacesStack", %"class.xalanc_1_10::ResultNamespacesStack"* %this1, i32 0, i32 2, !dbg !3293
  %m_resultNamespaces = getelementptr inbounds %"class.xalanc_1_10::ResultNamespacesStack", %"class.xalanc_1_10::ResultNamespacesStack"* %this1, i32 0, i32 0, !dbg !3295
  call void @_ZN11xalanc_1_1010XalanDequeINS0_INS_9NameSpaceENS_32ConstructWithMemoryManagerTraitsIS1_EEEENS2_IS4_EEE3endEv(%"struct.xalanc_1_10::XalanDequeIterator"* sret %ref.tmp, %"class.xalanc_1_10::XalanDeque"* %m_resultNamespaces), !dbg !3296
  %call4 = call zeroext i1 @_ZNK11xalanc_1_1018XalanDequeIteratorINS_24XalanDequeIteratorTraitsINS_10XalanDequeINS_9NameSpaceENS_32ConstructWithMemoryManagerTraitsIS3_EEEEEENS2_IS6_NS4_IS6_EEEEEeqERKSA_(%"struct.xalanc_1_10::XalanDequeIterator"* %m_stackPosition3, %"struct.xalanc_1_10::XalanDequeIterator"* dereferenceable(16) %ref.tmp), !dbg !3297
  br i1 %call4, label %if.then5, label %if.end, !dbg !3298

if.then5:                                         ; preds = %if.then
  %m_resultNamespaces6 = getelementptr inbounds %"class.xalanc_1_10::ResultNamespacesStack", %"class.xalanc_1_10::ResultNamespacesStack"* %this1, i32 0, i32 0, !dbg !3299
  %m_resultNamespaces7 = getelementptr inbounds %"class.xalanc_1_10::ResultNamespacesStack", %"class.xalanc_1_10::ResultNamespacesStack"* %this1, i32 0, i32 0, !dbg !3301
  %call8 = call i64 @_ZNK11xalanc_1_1010XalanDequeINS0_INS_9NameSpaceENS_32ConstructWithMemoryManagerTraitsIS1_EEEENS2_IS4_EEE4sizeEv(%"class.xalanc_1_10::XalanDeque"* %m_resultNamespaces7), !dbg !3302
  %add = add i64 %call8, 1, !dbg !3303
  call void @_ZN11xalanc_1_1010XalanDequeINS0_INS_9NameSpaceENS_32ConstructWithMemoryManagerTraitsIS1_EEEENS2_IS4_EEE6resizeEm(%"class.xalanc_1_10::XalanDeque"* %m_resultNamespaces6, i64 %add), !dbg !3304
  %m_resultNamespaces11 = getelementptr inbounds %"class.xalanc_1_10::ResultNamespacesStack", %"class.xalanc_1_10::ResultNamespacesStack"* %this1, i32 0, i32 0, !dbg !3305
  call void @_ZN11xalanc_1_1010XalanDequeINS0_INS_9NameSpaceENS_32ConstructWithMemoryManagerTraitsIS1_EEEENS2_IS4_EEE3endEv(%"struct.xalanc_1_10::XalanDequeIterator"* sret %ref.tmp10, %"class.xalanc_1_10::XalanDeque"* %m_resultNamespaces11), !dbg !3306
  call void @_ZNK11xalanc_1_1018XalanDequeIteratorINS_24XalanDequeIteratorTraitsINS_10XalanDequeINS_9NameSpaceENS_32ConstructWithMemoryManagerTraitsIS3_EEEEEENS2_IS6_NS4_IS6_EEEEEmiEl(%"struct.xalanc_1_10::XalanDequeIterator"* sret %ref.tmp9, %"struct.xalanc_1_10::XalanDequeIterator"* %ref.tmp10, i64 1), !dbg !3307
  %m_stackPosition12 = getelementptr inbounds %"class.xalanc_1_10::ResultNamespacesStack", %"class.xalanc_1_10::ResultNamespacesStack"* %this1, i32 0, i32 2, !dbg !3308
  %call13 = call dereferenceable(16) %"struct.xalanc_1_10::XalanDequeIterator"* @_ZN11xalanc_1_1018XalanDequeIteratorINS_24XalanDequeIteratorTraitsINS_10XalanDequeINS_9NameSpaceENS_32ConstructWithMemoryManagerTraitsIS3_EEEEEENS2_IS6_NS4_IS6_EEEEEaSERKSA_(%"struct.xalanc_1_10::XalanDequeIterator"* %m_stackPosition12, %"struct.xalanc_1_10::XalanDequeIterator"* dereferenceable(16) %ref.tmp9), !dbg !3309
  %m_resultNamespaces15 = getelementptr inbounds %"class.xalanc_1_10::ResultNamespacesStack", %"class.xalanc_1_10::ResultNamespacesStack"* %this1, i32 0, i32 0, !dbg !3310
  call void @_ZN11xalanc_1_1010XalanDequeINS0_INS_9NameSpaceENS_32ConstructWithMemoryManagerTraitsIS1_EEEENS2_IS4_EEE5beginEv(%"struct.xalanc_1_10::XalanDequeIterator"* sret %ref.tmp14, %"class.xalanc_1_10::XalanDeque"* %m_resultNamespaces15), !dbg !3311
  %m_stackBegin = getelementptr inbounds %"class.xalanc_1_10::ResultNamespacesStack", %"class.xalanc_1_10::ResultNamespacesStack"* %this1, i32 0, i32 1, !dbg !3312
  %call16 = call dereferenceable(16) %"struct.xalanc_1_10::XalanDequeIterator"* @_ZN11xalanc_1_1018XalanDequeIteratorINS_24XalanDequeIteratorTraitsINS_10XalanDequeINS_9NameSpaceENS_32ConstructWithMemoryManagerTraitsIS3_EEEEEENS2_IS6_NS4_IS6_EEEEEaSERKSA_(%"struct.xalanc_1_10::XalanDequeIterator"* %m_stackBegin, %"struct.xalanc_1_10::XalanDequeIterator"* dereferenceable(16) %ref.tmp14), !dbg !3313
  br label %if.end, !dbg !3314

if.end:                                           ; preds = %if.then5, %if.then
  %m_createNewContextStack17 = getelementptr inbounds %"class.xalanc_1_10::ResultNamespacesStack", %"class.xalanc_1_10::ResultNamespacesStack"* %this1, i32 0, i32 3, !dbg !3315
  %call18 = call dereferenceable(1) i8* @_ZN11xalanc_1_1011XalanVectorIbNS_31MemoryManagedConstructionTraitsIbEEE4backEv(%"class.xalanc_1_10::XalanVector.1"* %m_createNewContextStack17), !dbg !3316
  store i8 0, i8* %call18, align 1, !dbg !3317
  br label %if.end19, !dbg !3318

if.end19:                                         ; preds = %if.end, %entry
  call void @llvm.dbg.declare(metadata %"class.xalanc_1_10::XalanDeque.3"** %theCurrentNamespaces, metadata !3319, metadata !DIExpression()), !dbg !3323
  %m_stackPosition20 = getelementptr inbounds %"class.xalanc_1_10::ResultNamespacesStack", %"class.xalanc_1_10::ResultNamespacesStack"* %this1, i32 0, i32 2, !dbg !3324
  %call21 = call dereferenceable(80) %"class.xalanc_1_10::XalanDeque.3"* @_ZN11xalanc_1_1018XalanDequeIteratorINS_24XalanDequeIteratorTraitsINS_10XalanDequeINS_9NameSpaceENS_32ConstructWithMemoryManagerTraitsIS3_EEEEEENS2_IS6_NS4_IS6_EEEEEdeEv(%"struct.xalanc_1_10::XalanDequeIterator"* %m_stackPosition20), !dbg !3325
  store %"class.xalanc_1_10::XalanDeque.3"* %call21, %"class.xalanc_1_10::XalanDeque.3"** %theCurrentNamespaces, align 8, !dbg !3323
  %1 = load %"class.xalanc_1_10::XalanDeque.3"*, %"class.xalanc_1_10::XalanDeque.3"** %theCurrentNamespaces, align 8, !dbg !3326
  %2 = load %"class.xalanc_1_10::XalanDeque.3"*, %"class.xalanc_1_10::XalanDeque.3"** %theCurrentNamespaces, align 8, !dbg !3327
  %call22 = call i64 @_ZNK11xalanc_1_1010XalanDequeINS_9NameSpaceENS_32ConstructWithMemoryManagerTraitsIS1_EEE4sizeEv(%"class.xalanc_1_10::XalanDeque.3"* %2), !dbg !3328
  %add23 = add i64 %call22, 1, !dbg !3329
  call void @_ZN11xalanc_1_1010XalanDequeINS_9NameSpaceENS_32ConstructWithMemoryManagerTraitsIS1_EEE6resizeEm(%"class.xalanc_1_10::XalanDeque.3"* %1, i64 %add23), !dbg !3330
  call void @llvm.dbg.declare(metadata %"class.xalanc_1_10::NameSpace"** %theNewNamespace, metadata !3331, metadata !DIExpression()), !dbg !3333
  %3 = load %"class.xalanc_1_10::XalanDeque.3"*, %"class.xalanc_1_10::XalanDeque.3"** %theCurrentNamespaces, align 8, !dbg !3334
  %call24 = call dereferenceable(80) %"class.xalanc_1_10::NameSpace"* @_ZN11xalanc_1_1010XalanDequeINS_9NameSpaceENS_32ConstructWithMemoryManagerTraitsIS1_EEE4backEv(%"class.xalanc_1_10::XalanDeque.3"* %3), !dbg !3335
  store %"class.xalanc_1_10::NameSpace"* %call24, %"class.xalanc_1_10::NameSpace"** %theNewNamespace, align 8, !dbg !3333
  %4 = load %"class.xalanc_1_10::NameSpace"*, %"class.xalanc_1_10::NameSpace"** %theNewNamespace, align 8, !dbg !3336
  %5 = load %"class.xalanc_1_10::XalanDOMString"*, %"class.xalanc_1_10::XalanDOMString"** %thePrefix.addr, align 8, !dbg !3337
  call void @_ZN11xalanc_1_109NameSpace9setPrefixERKNS_14XalanDOMStringE(%"class.xalanc_1_10::NameSpace"* %4, %"class.xalanc_1_10::XalanDOMString"* dereferenceable(40) %5), !dbg !3338
  %6 = load %"class.xalanc_1_10::NameSpace"*, %"class.xalanc_1_10::NameSpace"** %theNewNamespace, align 8, !dbg !3339
  %7 = load i16*, i16** %theNamespaceURI.addr, align 8, !dbg !3340
  %8 = load i32, i32* %theLength.addr, align 4, !dbg !3341
  call void @_ZN11xalanc_1_109NameSpace6setURIEPKtj(%"class.xalanc_1_10::NameSpace"* %6, i16* %7, i32 %8), !dbg !3342
  ret void, !dbg !3343
}

; Function Attrs: noinline nounwind uwtable
define linkonce_odr dso_local dereferenceable(1) i8* @_ZN11xalanc_1_1011XalanVectorIbNS_31MemoryManagedConstructionTraitsIbEEE4backEv(%"class.xalanc_1_10::XalanVector.1"* %this) #2 comdat align 2 !dbg !3344 {
entry:
  %this.addr = alloca %"class.xalanc_1_10::XalanVector.1"*, align 8
  store %"class.xalanc_1_10::XalanVector.1"* %this, %"class.xalanc_1_10::XalanVector.1"** %this.addr, align 8
  call void @llvm.dbg.declare(metadata %"class.xalanc_1_10::XalanVector.1"** %this.addr, metadata !3345, metadata !DIExpression()), !dbg !3346
  %this1 = load %"class.xalanc_1_10::XalanVector.1"*, %"class.xalanc_1_10::XalanVector.1"** %this.addr, align 8
  %m_data = getelementptr inbounds %"class.xalanc_1_10::XalanVector.1", %"class.xalanc_1_10::XalanVector.1"* %this1, i32 0, i32 3, !dbg !3347
  %0 = load i8*, i8** %m_data, align 8, !dbg !3347
  %m_size = getelementptr inbounds %"class.xalanc_1_10::XalanVector.1", %"class.xalanc_1_10::XalanVector.1"* %this1, i32 0, i32 1, !dbg !3348
  %1 = load i64, i64* %m_size, align 8, !dbg !3348
  %sub = sub i64 %1, 1, !dbg !3349
  %arrayidx = getelementptr inbounds i8, i8* %0, i64 %sub, !dbg !3347
  ret i8* %arrayidx, !dbg !3350
}

; Function Attrs: noinline nounwind uwtable
define linkonce_odr dso_local dereferenceable(16) %"struct.xalanc_1_10::XalanDequeIterator"* @_ZN11xalanc_1_1018XalanDequeIteratorINS_24XalanDequeIteratorTraitsINS_10XalanDequeINS_9NameSpaceENS_32ConstructWithMemoryManagerTraitsIS3_EEEEEENS2_IS6_NS4_IS6_EEEEEppEv(%"struct.xalanc_1_10::XalanDequeIterator"* %this) #2 comdat align 2 !dbg !3351 {
entry:
  %this.addr = alloca %"struct.xalanc_1_10::XalanDequeIterator"*, align 8
  store %"struct.xalanc_1_10::XalanDequeIterator"* %this, %"struct.xalanc_1_10::XalanDequeIterator"** %this.addr, align 8
  call void @llvm.dbg.declare(metadata %"struct.xalanc_1_10::XalanDequeIterator"** %this.addr, metadata !3352, metadata !DIExpression()), !dbg !3353
  %this1 = load %"struct.xalanc_1_10::XalanDequeIterator"*, %"struct.xalanc_1_10::XalanDequeIterator"** %this.addr, align 8
  %m_pos = getelementptr inbounds %"struct.xalanc_1_10::XalanDequeIterator", %"struct.xalanc_1_10::XalanDequeIterator"* %this1, i32 0, i32 1, !dbg !3354
  %0 = load i64, i64* %m_pos, align 8, !dbg !3355
  %inc = add i64 %0, 1, !dbg !3355
  store i64 %inc, i64* %m_pos, align 8, !dbg !3355
  ret %"struct.xalanc_1_10::XalanDequeIterator"* %this1, !dbg !3356
}

; Function Attrs: noinline nounwind uwtable
define linkonce_odr dso_local zeroext i1 @_ZNK11xalanc_1_1018XalanDequeIteratorINS_24XalanDequeIteratorTraitsINS_10XalanDequeINS_9NameSpaceENS_32ConstructWithMemoryManagerTraitsIS3_EEEEEENS2_IS6_NS4_IS6_EEEEEeqERKSA_(%"struct.xalanc_1_10::XalanDequeIterator"* %this, %"struct.xalanc_1_10::XalanDequeIterator"* dereferenceable(16) %theRhs) #2 comdat align 2 !dbg !3357 {
entry:
  %this.addr = alloca %"struct.xalanc_1_10::XalanDequeIterator"*, align 8
  %theRhs.addr = alloca %"struct.xalanc_1_10::XalanDequeIterator"*, align 8
  store %"struct.xalanc_1_10::XalanDequeIterator"* %this, %"struct.xalanc_1_10::XalanDequeIterator"** %this.addr, align 8
  call void @llvm.dbg.declare(metadata %"struct.xalanc_1_10::XalanDequeIterator"** %this.addr, metadata !3358, metadata !DIExpression()), !dbg !3360
  store %"struct.xalanc_1_10::XalanDequeIterator"* %theRhs, %"struct.xalanc_1_10::XalanDequeIterator"** %theRhs.addr, align 8
  call void @llvm.dbg.declare(metadata %"struct.xalanc_1_10::XalanDequeIterator"** %theRhs.addr, metadata !3361, metadata !DIExpression()), !dbg !3362
  %this1 = load %"struct.xalanc_1_10::XalanDequeIterator"*, %"struct.xalanc_1_10::XalanDequeIterator"** %this.addr, align 8
  %0 = load %"struct.xalanc_1_10::XalanDequeIterator"*, %"struct.xalanc_1_10::XalanDequeIterator"** %theRhs.addr, align 8, !dbg !3363
  %m_deque = getelementptr inbounds %"struct.xalanc_1_10::XalanDequeIterator", %"struct.xalanc_1_10::XalanDequeIterator"* %0, i32 0, i32 0, !dbg !3364
  %1 = load %"class.xalanc_1_10::XalanDeque"*, %"class.xalanc_1_10::XalanDeque"** %m_deque, align 8, !dbg !3364
  %m_deque2 = getelementptr inbounds %"struct.xalanc_1_10::XalanDequeIterator", %"struct.xalanc_1_10::XalanDequeIterator"* %this1, i32 0, i32 0, !dbg !3365
  %2 = load %"class.xalanc_1_10::XalanDeque"*, %"class.xalanc_1_10::XalanDeque"** %m_deque2, align 8, !dbg !3365
  %cmp = icmp eq %"class.xalanc_1_10::XalanDeque"* %1, %2, !dbg !3366
  br i1 %cmp, label %land.rhs, label %land.end, !dbg !3367

land.rhs:                                         ; preds = %entry
  %3 = load %"struct.xalanc_1_10::XalanDequeIterator"*, %"struct.xalanc_1_10::XalanDequeIterator"** %theRhs.addr, align 8, !dbg !3368
  %m_pos = getelementptr inbounds %"struct.xalanc_1_10::XalanDequeIterator", %"struct.xalanc_1_10::XalanDequeIterator"* %3, i32 0, i32 1, !dbg !3369
  %4 = load i64, i64* %m_pos, align 8, !dbg !3369
  %m_pos3 = getelementptr inbounds %"struct.xalanc_1_10::XalanDequeIterator", %"struct.xalanc_1_10::XalanDequeIterator"* %this1, i32 0, i32 1, !dbg !3370
  %5 = load i64, i64* %m_pos3, align 8, !dbg !3370
  %cmp4 = icmp eq i64 %4, %5, !dbg !3371
  br label %land.end

land.end:                                         ; preds = %land.rhs, %entry
  %6 = phi i1 [ false, %entry ], [ %cmp4, %land.rhs ], !dbg !3360
  ret i1 %6, !dbg !3372
}

; Function Attrs: noinline uwtable
define linkonce_odr dso_local void @_ZN11xalanc_1_1010XalanDequeINS0_INS_9NameSpaceENS_32ConstructWithMemoryManagerTraitsIS1_EEEENS2_IS4_EEE3endEv(%"struct.xalanc_1_10::XalanDequeIterator"* noalias sret %agg.result, %"class.xalanc_1_10::XalanDeque"* %this) #0 comdat align 2 !dbg !3373 {
entry:
  %result.ptr = alloca i8*, align 8
  %this.addr = alloca %"class.xalanc_1_10::XalanDeque"*, align 8
  %0 = bitcast %"struct.xalanc_1_10::XalanDequeIterator"* %agg.result to i8*
  store i8* %0, i8** %result.ptr, align 8
  store %"class.xalanc_1_10::XalanDeque"* %this, %"class.xalanc_1_10::XalanDeque"** %this.addr, align 8
  call void @llvm.dbg.declare(metadata %"class.xalanc_1_10::XalanDeque"** %this.addr, metadata !3374, metadata !DIExpression()), !dbg !3375
  %this1 = load %"class.xalanc_1_10::XalanDeque"*, %"class.xalanc_1_10::XalanDeque"** %this.addr, align 8
  %call = call i64 @_ZNK11xalanc_1_1010XalanDequeINS0_INS_9NameSpaceENS_32ConstructWithMemoryManagerTraitsIS1_EEEENS2_IS4_EEE4sizeEv(%"class.xalanc_1_10::XalanDeque"* %this1), !dbg !3376
  call void @_ZN11xalanc_1_1018XalanDequeIteratorINS_24XalanDequeIteratorTraitsINS_10XalanDequeINS_9NameSpaceENS_32ConstructWithMemoryManagerTraitsIS3_EEEEEENS2_IS6_NS4_IS6_EEEEEC2EPS9_m(%"struct.xalanc_1_10::XalanDequeIterator"* %agg.result, %"class.xalanc_1_10::XalanDeque"* %this1, i64 %call), !dbg !3377
  ret void, !dbg !3378
}

; Function Attrs: noinline uwtable
define linkonce_odr dso_local void @_ZN11xalanc_1_1010XalanDequeINS0_INS_9NameSpaceENS_32ConstructWithMemoryManagerTraitsIS1_EEEENS2_IS4_EEE6resizeEm(%"class.xalanc_1_10::XalanDeque"* %this, i64 %newSize) #0 comdat align 2 personality i8* bitcast (i32 (...)* @__gxx_personality_v0 to i8*) !dbg !3379 {
entry:
  %this.addr = alloca %"class.xalanc_1_10::XalanDeque"*, align 8
  %newSize.addr = alloca i64, align 8
  %defaultValue = alloca %"struct.xalanc_1_10::ConstructValueWithMemoryManager", align 8
  %exn.slot = alloca i8*
  %ehselector.slot = alloca i32
  %i = alloca i64, align 8
  %i6 = alloca i64, align 8
  store %"class.xalanc_1_10::XalanDeque"* %this, %"class.xalanc_1_10::XalanDeque"** %this.addr, align 8
  call void @llvm.dbg.declare(metadata %"class.xalanc_1_10::XalanDeque"** %this.addr, metadata !3380, metadata !DIExpression()), !dbg !3381
  store i64 %newSize, i64* %newSize.addr, align 8
  call void @llvm.dbg.declare(metadata i64* %newSize.addr, metadata !3382, metadata !DIExpression()), !dbg !3383
  %this1 = load %"class.xalanc_1_10::XalanDeque"*, %"class.xalanc_1_10::XalanDeque"** %this.addr, align 8
  call void @llvm.dbg.declare(metadata %"struct.xalanc_1_10::ConstructValueWithMemoryManager"* %defaultValue, metadata !3384, metadata !DIExpression()), !dbg !3385
  %m_memoryManager = getelementptr inbounds %"class.xalanc_1_10::XalanDeque", %"class.xalanc_1_10::XalanDeque"* %this1, i32 0, i32 0, !dbg !3386
  %0 = load %"class.xercesc_2_7::MemoryManager"*, %"class.xercesc_2_7::MemoryManager"** %m_memoryManager, align 8, !dbg !3386
  call void @_ZN11xalanc_1_1031ConstructValueWithMemoryManagerINS_10XalanDequeINS_9NameSpaceENS_32ConstructWithMemoryManagerTraitsIS2_EEEEEC2ERN11xercesc_2_713MemoryManagerE(%"struct.xalanc_1_10::ConstructValueWithMemoryManager"* %defaultValue, %"class.xercesc_2_7::MemoryManager"* dereferenceable(8) %0), !dbg !3385
  %1 = load i64, i64* %newSize.addr, align 8, !dbg !3387
  %call = invoke i64 @_ZNK11xalanc_1_1010XalanDequeINS0_INS_9NameSpaceENS_32ConstructWithMemoryManagerTraitsIS1_EEEENS2_IS4_EEE4sizeEv(%"class.xalanc_1_10::XalanDeque"* %this1)
          to label %invoke.cont unwind label %lpad, !dbg !3389

invoke.cont:                                      ; preds = %entry
  %cmp = icmp ugt i64 %1, %call, !dbg !3390
  br i1 %cmp, label %if.then, label %if.else, !dbg !3391

if.then:                                          ; preds = %invoke.cont
  call void @llvm.dbg.declare(metadata i64* %i, metadata !3392, metadata !DIExpression()), !dbg !3395
  store i64 0, i64* %i, align 8, !dbg !3395
  br label %for.cond, !dbg !3396

for.cond:                                         ; preds = %for.inc, %if.then
  %2 = load i64, i64* %i, align 8, !dbg !3397
  %3 = load i64, i64* %newSize.addr, align 8, !dbg !3399
  %call3 = invoke i64 @_ZNK11xalanc_1_1010XalanDequeINS0_INS_9NameSpaceENS_32ConstructWithMemoryManagerTraitsIS1_EEEENS2_IS4_EEE4sizeEv(%"class.xalanc_1_10::XalanDeque"* %this1)
          to label %invoke.cont2 unwind label %lpad, !dbg !3400

invoke.cont2:                                     ; preds = %for.cond
  %sub = sub i64 %3, %call3, !dbg !3401
  %cmp4 = icmp ult i64 %2, %sub, !dbg !3402
  br i1 %cmp4, label %for.body, label %for.end, !dbg !3403

for.body:                                         ; preds = %invoke.cont2
  %value = getelementptr inbounds %"struct.xalanc_1_10::ConstructValueWithMemoryManager", %"struct.xalanc_1_10::ConstructValueWithMemoryManager"* %defaultValue, i32 0, i32 0, !dbg !3404
  invoke void @_ZN11xalanc_1_1010XalanDequeINS0_INS_9NameSpaceENS_32ConstructWithMemoryManagerTraitsIS1_EEEENS2_IS4_EEE9push_backERKS4_(%"class.xalanc_1_10::XalanDeque"* %this1, %"class.xalanc_1_10::XalanDeque.3"* dereferenceable(80) %value)
          to label %invoke.cont5 unwind label %lpad, !dbg !3406

invoke.cont5:                                     ; preds = %for.body
  br label %for.inc, !dbg !3407

for.inc:                                          ; preds = %invoke.cont5
  %4 = load i64, i64* %i, align 8, !dbg !3408
  %inc = add i64 %4, 1, !dbg !3408
  store i64 %inc, i64* %i, align 8, !dbg !3408
  br label %for.cond, !dbg !3409, !llvm.loop !3410

lpad:                                             ; preds = %for.body12, %for.cond7, %for.body, %for.cond, %entry
  %5 = landingpad { i8*, i32 }
          cleanup, !dbg !3412
  %6 = extractvalue { i8*, i32 } %5, 0, !dbg !3412
  store i8* %6, i8** %exn.slot, align 8, !dbg !3412
  %7 = extractvalue { i8*, i32 } %5, 1, !dbg !3412
  store i32 %7, i32* %ehselector.slot, align 4, !dbg !3412
  call void @_ZN11xalanc_1_1031ConstructValueWithMemoryManagerINS_10XalanDequeINS_9NameSpaceENS_32ConstructWithMemoryManagerTraitsIS2_EEEEED2Ev(%"struct.xalanc_1_10::ConstructValueWithMemoryManager"* %defaultValue) #6, !dbg !3413
  br label %eh.resume, !dbg !3413

for.end:                                          ; preds = %invoke.cont2
  br label %if.end, !dbg !3414

if.else:                                          ; preds = %invoke.cont
  call void @llvm.dbg.declare(metadata i64* %i6, metadata !3415, metadata !DIExpression()), !dbg !3418
  store i64 0, i64* %i6, align 8, !dbg !3418
  br label %for.cond7, !dbg !3419

for.cond7:                                        ; preds = %for.inc14, %if.else
  %8 = load i64, i64* %i6, align 8, !dbg !3420
  %call9 = invoke i64 @_ZNK11xalanc_1_1010XalanDequeINS0_INS_9NameSpaceENS_32ConstructWithMemoryManagerTraitsIS1_EEEENS2_IS4_EEE4sizeEv(%"class.xalanc_1_10::XalanDeque"* %this1)
          to label %invoke.cont8 unwind label %lpad, !dbg !3422

invoke.cont8:                                     ; preds = %for.cond7
  %9 = load i64, i64* %newSize.addr, align 8, !dbg !3423
  %sub10 = sub i64 %call9, %9, !dbg !3424
  %cmp11 = icmp ult i64 %8, %sub10, !dbg !3425
  br i1 %cmp11, label %for.body12, label %for.end16, !dbg !3426

for.body12:                                       ; preds = %invoke.cont8
  invoke void @_ZN11xalanc_1_1010XalanDequeINS0_INS_9NameSpaceENS_32ConstructWithMemoryManagerTraitsIS1_EEEENS2_IS4_EEE8pop_backEv(%"class.xalanc_1_10::XalanDeque"* %this1)
          to label %invoke.cont13 unwind label %lpad, !dbg !3427

invoke.cont13:                                    ; preds = %for.body12
  br label %for.inc14, !dbg !3429

for.inc14:                                        ; preds = %invoke.cont13
  %10 = load i64, i64* %i6, align 8, !dbg !3430
  %inc15 = add i64 %10, 1, !dbg !3430
  store i64 %inc15, i64* %i6, align 8, !dbg !3430
  br label %for.cond7, !dbg !3431, !llvm.loop !3432

for.end16:                                        ; preds = %invoke.cont8
  br label %if.end

if.end:                                           ; preds = %for.end16, %for.end
  call void @_ZN11xalanc_1_1031ConstructValueWithMemoryManagerINS_10XalanDequeINS_9NameSpaceENS_32ConstructWithMemoryManagerTraitsIS2_EEEEED2Ev(%"struct.xalanc_1_10::ConstructValueWithMemoryManager"* %defaultValue) #6, !dbg !3413
  ret void, !dbg !3413

eh.resume:                                        ; preds = %lpad
  %exn = load i8*, i8** %exn.slot, align 8, !dbg !3413
  %sel = load i32, i32* %ehselector.slot, align 4, !dbg !3413
  %lpad.val = insertvalue { i8*, i32 } undef, i8* %exn, 0, !dbg !3413
  %lpad.val17 = insertvalue { i8*, i32 } %lpad.val, i32 %sel, 1, !dbg !3413
  resume { i8*, i32 } %lpad.val17, !dbg !3413
}

; Function Attrs: noinline uwtable
define linkonce_odr dso_local i64 @_ZNK11xalanc_1_1010XalanDequeINS0_INS_9NameSpaceENS_32ConstructWithMemoryManagerTraitsIS1_EEEENS2_IS4_EEE4sizeEv(%"class.xalanc_1_10::XalanDeque"* %this) #0 comdat align 2 !dbg !3434 {
entry:
  %retval = alloca i64, align 8
  %this.addr = alloca %"class.xalanc_1_10::XalanDeque"*, align 8
  store %"class.xalanc_1_10::XalanDeque"* %this, %"class.xalanc_1_10::XalanDeque"** %this.addr, align 8
  call void @llvm.dbg.declare(metadata %"class.xalanc_1_10::XalanDeque"** %this.addr, metadata !3435, metadata !DIExpression()), !dbg !3437
  %this1 = load %"class.xalanc_1_10::XalanDeque"*, %"class.xalanc_1_10::XalanDeque"** %this.addr, align 8
  %m_blockIndex = getelementptr inbounds %"class.xalanc_1_10::XalanDeque", %"class.xalanc_1_10::XalanDeque"* %this1, i32 0, i32 2, !dbg !3438
  %call = call zeroext i1 @_ZNK11xalanc_1_1011XalanVectorIPNS0_INS_10XalanDequeINS_9NameSpaceENS_32ConstructWithMemoryManagerTraitsIS2_EEEENS3_IS5_EEEENS_31MemoryManagedConstructionTraitsIS8_EEE5emptyEv(%"class.xalanc_1_10::XalanVector"* %m_blockIndex), !dbg !3440
  br i1 %call, label %if.then, label %if.else, !dbg !3441

if.then:                                          ; preds = %entry
  store i64 0, i64* %retval, align 8, !dbg !3442
  br label %return, !dbg !3442

if.else:                                          ; preds = %entry
  %m_blockIndex2 = getelementptr inbounds %"class.xalanc_1_10::XalanDeque", %"class.xalanc_1_10::XalanDeque"* %this1, i32 0, i32 2, !dbg !3444
  %call3 = call i64 @_ZNK11xalanc_1_1011XalanVectorIPNS0_INS_10XalanDequeINS_9NameSpaceENS_32ConstructWithMemoryManagerTraitsIS2_EEEENS3_IS5_EEEENS_31MemoryManagedConstructionTraitsIS8_EEE4sizeEv(%"class.xalanc_1_10::XalanVector"* %m_blockIndex2), !dbg !3446
  %sub = sub i64 %call3, 1, !dbg !3447
  %m_blockSize = getelementptr inbounds %"class.xalanc_1_10::XalanDeque", %"class.xalanc_1_10::XalanDeque"* %this1, i32 0, i32 1, !dbg !3448
  %0 = load i64, i64* %m_blockSize, align 8, !dbg !3448
  %mul = mul i64 %sub, %0, !dbg !3449
  %m_blockIndex4 = getelementptr inbounds %"class.xalanc_1_10::XalanDeque", %"class.xalanc_1_10::XalanDeque"* %this1, i32 0, i32 2, !dbg !3450
  %call5 = call dereferenceable(8) %"class.xalanc_1_10::XalanVector.0"** @_ZNK11xalanc_1_1011XalanVectorIPNS0_INS_10XalanDequeINS_9NameSpaceENS_32ConstructWithMemoryManagerTraitsIS2_EEEENS3_IS5_EEEENS_31MemoryManagedConstructionTraitsIS8_EEE4backEv(%"class.xalanc_1_10::XalanVector"* %m_blockIndex4), !dbg !3451
  %1 = load %"class.xalanc_1_10::XalanVector.0"*, %"class.xalanc_1_10::XalanVector.0"** %call5, align 8, !dbg !3451
  %call6 = call i64 @_ZNK11xalanc_1_1011XalanVectorINS_10XalanDequeINS_9NameSpaceENS_32ConstructWithMemoryManagerTraitsIS2_EEEENS3_IS5_EEE4sizeEv(%"class.xalanc_1_10::XalanVector.0"* %1), !dbg !3452
  %add = add i64 %mul, %call6, !dbg !3453
  store i64 %add, i64* %retval, align 8, !dbg !3454
  br label %return, !dbg !3454

return:                                           ; preds = %if.else, %if.then
  %2 = load i64, i64* %retval, align 8, !dbg !3455
  ret i64 %2, !dbg !3455
}

; Function Attrs: noinline uwtable
define linkonce_odr dso_local void @_ZNK11xalanc_1_1018XalanDequeIteratorINS_24XalanDequeIteratorTraitsINS_10XalanDequeINS_9NameSpaceENS_32ConstructWithMemoryManagerTraitsIS3_EEEEEENS2_IS6_NS4_IS6_EEEEEmiEl(%"struct.xalanc_1_10::XalanDequeIterator"* noalias sret %agg.result, %"struct.xalanc_1_10::XalanDequeIterator"* %this, i64 %difference) #0 comdat align 2 !dbg !3456 {
entry:
  %result.ptr = alloca i8*, align 8
  %this.addr = alloca %"struct.xalanc_1_10::XalanDequeIterator"*, align 8
  %difference.addr = alloca i64, align 8
  %0 = bitcast %"struct.xalanc_1_10::XalanDequeIterator"* %agg.result to i8*
  store i8* %0, i8** %result.ptr, align 8
  store %"struct.xalanc_1_10::XalanDequeIterator"* %this, %"struct.xalanc_1_10::XalanDequeIterator"** %this.addr, align 8
  call void @llvm.dbg.declare(metadata %"struct.xalanc_1_10::XalanDequeIterator"** %this.addr, metadata !3457, metadata !DIExpression()), !dbg !3458
  store i64 %difference, i64* %difference.addr, align 8
  call void @llvm.dbg.declare(metadata i64* %difference.addr, metadata !3459, metadata !DIExpression()), !dbg !3460
  %this1 = load %"struct.xalanc_1_10::XalanDequeIterator"*, %"struct.xalanc_1_10::XalanDequeIterator"** %this.addr, align 8
  %m_deque = getelementptr inbounds %"struct.xalanc_1_10::XalanDequeIterator", %"struct.xalanc_1_10::XalanDequeIterator"* %this1, i32 0, i32 0, !dbg !3461
  %1 = load %"class.xalanc_1_10::XalanDeque"*, %"class.xalanc_1_10::XalanDeque"** %m_deque, align 8, !dbg !3461
  %m_pos = getelementptr inbounds %"struct.xalanc_1_10::XalanDequeIterator", %"struct.xalanc_1_10::XalanDequeIterator"* %this1, i32 0, i32 1, !dbg !3462
  %2 = load i64, i64* %m_pos, align 8, !dbg !3462
  %3 = load i64, i64* %difference.addr, align 8, !dbg !3463
  %sub = sub i64 %2, %3, !dbg !3464
  call void @_ZN11xalanc_1_1018XalanDequeIteratorINS_24XalanDequeIteratorTraitsINS_10XalanDequeINS_9NameSpaceENS_32ConstructWithMemoryManagerTraitsIS3_EEEEEENS2_IS6_NS4_IS6_EEEEEC2EPS9_m(%"struct.xalanc_1_10::XalanDequeIterator"* %agg.result, %"class.xalanc_1_10::XalanDeque"* %1, i64 %sub), !dbg !3465
  ret void, !dbg !3466
}

; Function Attrs: noinline nounwind uwtable
define linkonce_odr dso_local dereferenceable(16) %"struct.xalanc_1_10::XalanDequeIterator"* @_ZN11xalanc_1_1018XalanDequeIteratorINS_24XalanDequeIteratorTraitsINS_10XalanDequeINS_9NameSpaceENS_32ConstructWithMemoryManagerTraitsIS3_EEEEEENS2_IS6_NS4_IS6_EEEEEaSERKSA_(%"struct.xalanc_1_10::XalanDequeIterator"* %this, %"struct.xalanc_1_10::XalanDequeIterator"* dereferenceable(16) %iterator) #2 comdat align 2 !dbg !3467 {
entry:
  %this.addr = alloca %"struct.xalanc_1_10::XalanDequeIterator"*, align 8
  %iterator.addr = alloca %"struct.xalanc_1_10::XalanDequeIterator"*, align 8
  store %"struct.xalanc_1_10::XalanDequeIterator"* %this, %"struct.xalanc_1_10::XalanDequeIterator"** %this.addr, align 8
  call void @llvm.dbg.declare(metadata %"struct.xalanc_1_10::XalanDequeIterator"** %this.addr, metadata !3468, metadata !DIExpression()), !dbg !3469
  store %"struct.xalanc_1_10::XalanDequeIterator"* %iterator, %"struct.xalanc_1_10::XalanDequeIterator"** %iterator.addr, align 8
  call void @llvm.dbg.declare(metadata %"struct.xalanc_1_10::XalanDequeIterator"** %iterator.addr, metadata !3470, metadata !DIExpression()), !dbg !3471
  %this1 = load %"struct.xalanc_1_10::XalanDequeIterator"*, %"struct.xalanc_1_10::XalanDequeIterator"** %this.addr, align 8
  %0 = load %"struct.xalanc_1_10::XalanDequeIterator"*, %"struct.xalanc_1_10::XalanDequeIterator"** %iterator.addr, align 8, !dbg !3472
  %m_deque = getelementptr inbounds %"struct.xalanc_1_10::XalanDequeIterator", %"struct.xalanc_1_10::XalanDequeIterator"* %0, i32 0, i32 0, !dbg !3473
  %1 = load %"class.xalanc_1_10::XalanDeque"*, %"class.xalanc_1_10::XalanDeque"** %m_deque, align 8, !dbg !3473
  %m_deque2 = getelementptr inbounds %"struct.xalanc_1_10::XalanDequeIterator", %"struct.xalanc_1_10::XalanDequeIterator"* %this1, i32 0, i32 0, !dbg !3474
  store %"class.xalanc_1_10::XalanDeque"* %1, %"class.xalanc_1_10::XalanDeque"** %m_deque2, align 8, !dbg !3475
  %2 = load %"struct.xalanc_1_10::XalanDequeIterator"*, %"struct.xalanc_1_10::XalanDequeIterator"** %iterator.addr, align 8, !dbg !3476
  %m_pos = getelementptr inbounds %"struct.xalanc_1_10::XalanDequeIterator", %"struct.xalanc_1_10::XalanDequeIterator"* %2, i32 0, i32 1, !dbg !3477
  %3 = load i64, i64* %m_pos, align 8, !dbg !3477
  %m_pos3 = getelementptr inbounds %"struct.xalanc_1_10::XalanDequeIterator", %"struct.xalanc_1_10::XalanDequeIterator"* %this1, i32 0, i32 1, !dbg !3478
  store i64 %3, i64* %m_pos3, align 8, !dbg !3479
  ret %"struct.xalanc_1_10::XalanDequeIterator"* %this1, !dbg !3480
}

; Function Attrs: noinline uwtable
define linkonce_odr dso_local dereferenceable(80) %"class.xalanc_1_10::XalanDeque.3"* @_ZN11xalanc_1_1018XalanDequeIteratorINS_24XalanDequeIteratorTraitsINS_10XalanDequeINS_9NameSpaceENS_32ConstructWithMemoryManagerTraitsIS3_EEEEEENS2_IS6_NS4_IS6_EEEEEdeEv(%"struct.xalanc_1_10::XalanDequeIterator"* %this) #0 comdat align 2 !dbg !3481 {
entry:
  %this.addr = alloca %"struct.xalanc_1_10::XalanDequeIterator"*, align 8
  store %"struct.xalanc_1_10::XalanDequeIterator"* %this, %"struct.xalanc_1_10::XalanDequeIterator"** %this.addr, align 8
  call void @llvm.dbg.declare(metadata %"struct.xalanc_1_10::XalanDequeIterator"** %this.addr, metadata !3482, metadata !DIExpression()), !dbg !3483
  %this1 = load %"struct.xalanc_1_10::XalanDequeIterator"*, %"struct.xalanc_1_10::XalanDequeIterator"** %this.addr, align 8
  %m_deque = getelementptr inbounds %"struct.xalanc_1_10::XalanDequeIterator", %"struct.xalanc_1_10::XalanDequeIterator"* %this1, i32 0, i32 0, !dbg !3484
  %0 = load %"class.xalanc_1_10::XalanDeque"*, %"class.xalanc_1_10::XalanDeque"** %m_deque, align 8, !dbg !3484
  %m_pos = getelementptr inbounds %"struct.xalanc_1_10::XalanDequeIterator", %"struct.xalanc_1_10::XalanDequeIterator"* %this1, i32 0, i32 1, !dbg !3485
  %1 = load i64, i64* %m_pos, align 8, !dbg !3485
  %call = call dereferenceable(80) %"class.xalanc_1_10::XalanDeque.3"* @_ZN11xalanc_1_1010XalanDequeINS0_INS_9NameSpaceENS_32ConstructWithMemoryManagerTraitsIS1_EEEENS2_IS4_EEEixEm(%"class.xalanc_1_10::XalanDeque"* %0, i64 %1), !dbg !3486
  ret %"class.xalanc_1_10::XalanDeque.3"* %call, !dbg !3487
}

; Function Attrs: noinline uwtable
define linkonce_odr dso_local void @_ZN11xalanc_1_1010XalanDequeINS_9NameSpaceENS_32ConstructWithMemoryManagerTraitsIS1_EEE6resizeEm(%"class.xalanc_1_10::XalanDeque.3"* %this, i64 %newSize) #0 comdat align 2 personality i8* bitcast (i32 (...)* @__gxx_personality_v0 to i8*) !dbg !3488 {
entry:
  %this.addr = alloca %"class.xalanc_1_10::XalanDeque.3"*, align 8
  %newSize.addr = alloca i64, align 8
  %defaultValue = alloca %"struct.xalanc_1_10::ConstructValueWithMemoryManager.8", align 8
  %exn.slot = alloca i8*
  %ehselector.slot = alloca i32
  %i = alloca i64, align 8
  %i6 = alloca i64, align 8
  store %"class.xalanc_1_10::XalanDeque.3"* %this, %"class.xalanc_1_10::XalanDeque.3"** %this.addr, align 8
  call void @llvm.dbg.declare(metadata %"class.xalanc_1_10::XalanDeque.3"** %this.addr, metadata !3489, metadata !DIExpression()), !dbg !3490
  store i64 %newSize, i64* %newSize.addr, align 8
  call void @llvm.dbg.declare(metadata i64* %newSize.addr, metadata !3491, metadata !DIExpression()), !dbg !3492
  %this1 = load %"class.xalanc_1_10::XalanDeque.3"*, %"class.xalanc_1_10::XalanDeque.3"** %this.addr, align 8
  call void @llvm.dbg.declare(metadata %"struct.xalanc_1_10::ConstructValueWithMemoryManager.8"* %defaultValue, metadata !3493, metadata !DIExpression()), !dbg !3510
  %m_memoryManager = getelementptr inbounds %"class.xalanc_1_10::XalanDeque.3", %"class.xalanc_1_10::XalanDeque.3"* %this1, i32 0, i32 0, !dbg !3511
  %0 = load %"class.xercesc_2_7::MemoryManager"*, %"class.xercesc_2_7::MemoryManager"** %m_memoryManager, align 8, !dbg !3511
  call void @_ZN11xalanc_1_1031ConstructValueWithMemoryManagerINS_9NameSpaceEEC2ERN11xercesc_2_713MemoryManagerE(%"struct.xalanc_1_10::ConstructValueWithMemoryManager.8"* %defaultValue, %"class.xercesc_2_7::MemoryManager"* dereferenceable(8) %0), !dbg !3510
  %1 = load i64, i64* %newSize.addr, align 8, !dbg !3512
  %call = invoke i64 @_ZNK11xalanc_1_1010XalanDequeINS_9NameSpaceENS_32ConstructWithMemoryManagerTraitsIS1_EEE4sizeEv(%"class.xalanc_1_10::XalanDeque.3"* %this1)
          to label %invoke.cont unwind label %lpad, !dbg !3514

invoke.cont:                                      ; preds = %entry
  %cmp = icmp ugt i64 %1, %call, !dbg !3515
  br i1 %cmp, label %if.then, label %if.else, !dbg !3516

if.then:                                          ; preds = %invoke.cont
  call void @llvm.dbg.declare(metadata i64* %i, metadata !3517, metadata !DIExpression()), !dbg !3520
  store i64 0, i64* %i, align 8, !dbg !3520
  br label %for.cond, !dbg !3521

for.cond:                                         ; preds = %for.inc, %if.then
  %2 = load i64, i64* %i, align 8, !dbg !3522
  %3 = load i64, i64* %newSize.addr, align 8, !dbg !3524
  %call3 = invoke i64 @_ZNK11xalanc_1_1010XalanDequeINS_9NameSpaceENS_32ConstructWithMemoryManagerTraitsIS1_EEE4sizeEv(%"class.xalanc_1_10::XalanDeque.3"* %this1)
          to label %invoke.cont2 unwind label %lpad, !dbg !3525

invoke.cont2:                                     ; preds = %for.cond
  %sub = sub i64 %3, %call3, !dbg !3526
  %cmp4 = icmp ult i64 %2, %sub, !dbg !3527
  br i1 %cmp4, label %for.body, label %for.end, !dbg !3528

for.body:                                         ; preds = %invoke.cont2
  %value = getelementptr inbounds %"struct.xalanc_1_10::ConstructValueWithMemoryManager.8", %"struct.xalanc_1_10::ConstructValueWithMemoryManager.8"* %defaultValue, i32 0, i32 0, !dbg !3529
  invoke void @_ZN11xalanc_1_1010XalanDequeINS_9NameSpaceENS_32ConstructWithMemoryManagerTraitsIS1_EEE9push_backERKS1_(%"class.xalanc_1_10::XalanDeque.3"* %this1, %"class.xalanc_1_10::NameSpace"* dereferenceable(80) %value)
          to label %invoke.cont5 unwind label %lpad, !dbg !3531

invoke.cont5:                                     ; preds = %for.body
  br label %for.inc, !dbg !3532

for.inc:                                          ; preds = %invoke.cont5
  %4 = load i64, i64* %i, align 8, !dbg !3533
  %inc = add i64 %4, 1, !dbg !3533
  store i64 %inc, i64* %i, align 8, !dbg !3533
  br label %for.cond, !dbg !3534, !llvm.loop !3535

lpad:                                             ; preds = %for.body12, %for.cond7, %for.body, %for.cond, %entry
  %5 = landingpad { i8*, i32 }
          cleanup, !dbg !3537
  %6 = extractvalue { i8*, i32 } %5, 0, !dbg !3537
  store i8* %6, i8** %exn.slot, align 8, !dbg !3537
  %7 = extractvalue { i8*, i32 } %5, 1, !dbg !3537
  store i32 %7, i32* %ehselector.slot, align 4, !dbg !3537
  call void @_ZN11xalanc_1_1031ConstructValueWithMemoryManagerINS_9NameSpaceEED2Ev(%"struct.xalanc_1_10::ConstructValueWithMemoryManager.8"* %defaultValue) #6, !dbg !3538
  br label %eh.resume, !dbg !3538

for.end:                                          ; preds = %invoke.cont2
  br label %if.end, !dbg !3539

if.else:                                          ; preds = %invoke.cont
  call void @llvm.dbg.declare(metadata i64* %i6, metadata !3540, metadata !DIExpression()), !dbg !3543
  store i64 0, i64* %i6, align 8, !dbg !3543
  br label %for.cond7, !dbg !3544

for.cond7:                                        ; preds = %for.inc14, %if.else
  %8 = load i64, i64* %i6, align 8, !dbg !3545
  %call9 = invoke i64 @_ZNK11xalanc_1_1010XalanDequeINS_9NameSpaceENS_32ConstructWithMemoryManagerTraitsIS1_EEE4sizeEv(%"class.xalanc_1_10::XalanDeque.3"* %this1)
          to label %invoke.cont8 unwind label %lpad, !dbg !3547

invoke.cont8:                                     ; preds = %for.cond7
  %9 = load i64, i64* %newSize.addr, align 8, !dbg !3548
  %sub10 = sub i64 %call9, %9, !dbg !3549
  %cmp11 = icmp ult i64 %8, %sub10, !dbg !3550
  br i1 %cmp11, label %for.body12, label %for.end16, !dbg !3551

for.body12:                                       ; preds = %invoke.cont8
  invoke void @_ZN11xalanc_1_1010XalanDequeINS_9NameSpaceENS_32ConstructWithMemoryManagerTraitsIS1_EEE8pop_backEv(%"class.xalanc_1_10::XalanDeque.3"* %this1)
          to label %invoke.cont13 unwind label %lpad, !dbg !3552

invoke.cont13:                                    ; preds = %for.body12
  br label %for.inc14, !dbg !3554

for.inc14:                                        ; preds = %invoke.cont13
  %10 = load i64, i64* %i6, align 8, !dbg !3555
  %inc15 = add i64 %10, 1, !dbg !3555
  store i64 %inc15, i64* %i6, align 8, !dbg !3555
  br label %for.cond7, !dbg !3556, !llvm.loop !3557

for.end16:                                        ; preds = %invoke.cont8
  br label %if.end

if.end:                                           ; preds = %for.end16, %for.end
  call void @_ZN11xalanc_1_1031ConstructValueWithMemoryManagerINS_9NameSpaceEED2Ev(%"struct.xalanc_1_10::ConstructValueWithMemoryManager.8"* %defaultValue) #6, !dbg !3538
  ret void, !dbg !3538

eh.resume:                                        ; preds = %lpad
  %exn = load i8*, i8** %exn.slot, align 8, !dbg !3538
  %sel = load i32, i32* %ehselector.slot, align 4, !dbg !3538
  %lpad.val = insertvalue { i8*, i32 } undef, i8* %exn, 0, !dbg !3538
  %lpad.val17 = insertvalue { i8*, i32 } %lpad.val, i32 %sel, 1, !dbg !3538
  resume { i8*, i32 } %lpad.val17, !dbg !3538
}

; Function Attrs: noinline uwtable
define linkonce_odr dso_local i64 @_ZNK11xalanc_1_1010XalanDequeINS_9NameSpaceENS_32ConstructWithMemoryManagerTraitsIS1_EEE4sizeEv(%"class.xalanc_1_10::XalanDeque.3"* %this) #0 comdat align 2 !dbg !3559 {
entry:
  %retval = alloca i64, align 8
  %this.addr = alloca %"class.xalanc_1_10::XalanDeque.3"*, align 8
  store %"class.xalanc_1_10::XalanDeque.3"* %this, %"class.xalanc_1_10::XalanDeque.3"** %this.addr, align 8
  call void @llvm.dbg.declare(metadata %"class.xalanc_1_10::XalanDeque.3"** %this.addr, metadata !3560, metadata !DIExpression()), !dbg !3561
  %this1 = load %"class.xalanc_1_10::XalanDeque.3"*, %"class.xalanc_1_10::XalanDeque.3"** %this.addr, align 8
  %m_blockIndex = getelementptr inbounds %"class.xalanc_1_10::XalanDeque.3", %"class.xalanc_1_10::XalanDeque.3"* %this1, i32 0, i32 2, !dbg !3562
  %call = call zeroext i1 @_ZNK11xalanc_1_1011XalanVectorIPNS0_INS_9NameSpaceENS_32ConstructWithMemoryManagerTraitsIS1_EEEENS_31MemoryManagedConstructionTraitsIS5_EEE5emptyEv(%"class.xalanc_1_10::XalanVector.4"* %m_blockIndex), !dbg !3564
  br i1 %call, label %if.then, label %if.else, !dbg !3565

if.then:                                          ; preds = %entry
  store i64 0, i64* %retval, align 8, !dbg !3566
  br label %return, !dbg !3566

if.else:                                          ; preds = %entry
  %m_blockIndex2 = getelementptr inbounds %"class.xalanc_1_10::XalanDeque.3", %"class.xalanc_1_10::XalanDeque.3"* %this1, i32 0, i32 2, !dbg !3568
  %call3 = call i64 @_ZNK11xalanc_1_1011XalanVectorIPNS0_INS_9NameSpaceENS_32ConstructWithMemoryManagerTraitsIS1_EEEENS_31MemoryManagedConstructionTraitsIS5_EEE4sizeEv(%"class.xalanc_1_10::XalanVector.4"* %m_blockIndex2), !dbg !3570
  %sub = sub i64 %call3, 1, !dbg !3571
  %m_blockSize = getelementptr inbounds %"class.xalanc_1_10::XalanDeque.3", %"class.xalanc_1_10::XalanDeque.3"* %this1, i32 0, i32 1, !dbg !3572
  %0 = load i64, i64* %m_blockSize, align 8, !dbg !3572
  %mul = mul i64 %sub, %0, !dbg !3573
  %m_blockIndex4 = getelementptr inbounds %"class.xalanc_1_10::XalanDeque.3", %"class.xalanc_1_10::XalanDeque.3"* %this1, i32 0, i32 2, !dbg !3574
  %call5 = call dereferenceable(8) %"class.xalanc_1_10::XalanVector.5"** @_ZNK11xalanc_1_1011XalanVectorIPNS0_INS_9NameSpaceENS_32ConstructWithMemoryManagerTraitsIS1_EEEENS_31MemoryManagedConstructionTraitsIS5_EEE4backEv(%"class.xalanc_1_10::XalanVector.4"* %m_blockIndex4), !dbg !3575
  %1 = load %"class.xalanc_1_10::XalanVector.5"*, %"class.xalanc_1_10::XalanVector.5"** %call5, align 8, !dbg !3575
  %call6 = call i64 @_ZNK11xalanc_1_1011XalanVectorINS_9NameSpaceENS_32ConstructWithMemoryManagerTraitsIS1_EEE4sizeEv(%"class.xalanc_1_10::XalanVector.5"* %1), !dbg !3576
  %add = add i64 %mul, %call6, !dbg !3577
  store i64 %add, i64* %retval, align 8, !dbg !3578
  br label %return, !dbg !3578

return:                                           ; preds = %if.else, %if.then
  %2 = load i64, i64* %retval, align 8, !dbg !3579
  ret i64 %2, !dbg !3579
}

; Function Attrs: noinline uwtable
define linkonce_odr dso_local dereferenceable(80) %"class.xalanc_1_10::NameSpace"* @_ZN11xalanc_1_1010XalanDequeINS_9NameSpaceENS_32ConstructWithMemoryManagerTraitsIS1_EEE4backEv(%"class.xalanc_1_10::XalanDeque.3"* %this) #0 comdat align 2 !dbg !3580 {
entry:
  %this.addr = alloca %"class.xalanc_1_10::XalanDeque.3"*, align 8
  store %"class.xalanc_1_10::XalanDeque.3"* %this, %"class.xalanc_1_10::XalanDeque.3"** %this.addr, align 8
  call void @llvm.dbg.declare(metadata %"class.xalanc_1_10::XalanDeque.3"** %this.addr, metadata !3581, metadata !DIExpression()), !dbg !3582
  %this1 = load %"class.xalanc_1_10::XalanDeque.3"*, %"class.xalanc_1_10::XalanDeque.3"** %this.addr, align 8
  %m_blockIndex = getelementptr inbounds %"class.xalanc_1_10::XalanDeque.3", %"class.xalanc_1_10::XalanDeque.3"* %this1, i32 0, i32 2, !dbg !3583
  %call = call dereferenceable(8) %"class.xalanc_1_10::XalanVector.5"** @_ZN11xalanc_1_1011XalanVectorIPNS0_INS_9NameSpaceENS_32ConstructWithMemoryManagerTraitsIS1_EEEENS_31MemoryManagedConstructionTraitsIS5_EEE4backEv(%"class.xalanc_1_10::XalanVector.4"* %m_blockIndex), !dbg !3584
  %0 = load %"class.xalanc_1_10::XalanVector.5"*, %"class.xalanc_1_10::XalanVector.5"** %call, align 8, !dbg !3584
  %call2 = call dereferenceable(80) %"class.xalanc_1_10::NameSpace"* @_ZN11xalanc_1_1011XalanVectorINS_9NameSpaceENS_32ConstructWithMemoryManagerTraitsIS1_EEE4backEv(%"class.xalanc_1_10::XalanVector.5"* %0), !dbg !3585
  ret %"class.xalanc_1_10::NameSpace"* %call2, !dbg !3586
}

; Function Attrs: noinline uwtable
define linkonce_odr dso_local void @_ZN11xalanc_1_109NameSpace9setPrefixERKNS_14XalanDOMStringE(%"class.xalanc_1_10::NameSpace"* %this, %"class.xalanc_1_10::XalanDOMString"* dereferenceable(40) %prefix) #0 comdat align 2 !dbg !3587 {
entry:
  %this.addr = alloca %"class.xalanc_1_10::NameSpace"*, align 8
  %prefix.addr = alloca %"class.xalanc_1_10::XalanDOMString"*, align 8
  store %"class.xalanc_1_10::NameSpace"* %this, %"class.xalanc_1_10::NameSpace"** %this.addr, align 8
  call void @llvm.dbg.declare(metadata %"class.xalanc_1_10::NameSpace"** %this.addr, metadata !3588, metadata !DIExpression()), !dbg !3589
  store %"class.xalanc_1_10::XalanDOMString"* %prefix, %"class.xalanc_1_10::XalanDOMString"** %prefix.addr, align 8
  call void @llvm.dbg.declare(metadata %"class.xalanc_1_10::XalanDOMString"** %prefix.addr, metadata !3590, metadata !DIExpression()), !dbg !3591
  %this1 = load %"class.xalanc_1_10::NameSpace"*, %"class.xalanc_1_10::NameSpace"** %this.addr, align 8
  %0 = load %"class.xalanc_1_10::XalanDOMString"*, %"class.xalanc_1_10::XalanDOMString"** %prefix.addr, align 8, !dbg !3592
  %m_prefix = getelementptr inbounds %"class.xalanc_1_10::NameSpace", %"class.xalanc_1_10::NameSpace"* %this1, i32 0, i32 0, !dbg !3593
  %call = call dereferenceable(40) %"class.xalanc_1_10::XalanDOMString"* @_ZN11xalanc_1_1014XalanDOMStringaSERKS0_(%"class.xalanc_1_10::XalanDOMString"* %m_prefix, %"class.xalanc_1_10::XalanDOMString"* dereferenceable(40) %0), !dbg !3594
  ret void, !dbg !3595
}

; Function Attrs: noinline uwtable
define linkonce_odr dso_local void @_ZN11xalanc_1_109NameSpace6setURIEPKtj(%"class.xalanc_1_10::NameSpace"* %this, i16* %uri, i32 %len) #0 comdat align 2 !dbg !3596 {
entry:
  %this.addr = alloca %"class.xalanc_1_10::NameSpace"*, align 8
  %uri.addr = alloca i16*, align 8
  %len.addr = alloca i32, align 4
  store %"class.xalanc_1_10::NameSpace"* %this, %"class.xalanc_1_10::NameSpace"** %this.addr, align 8
  call void @llvm.dbg.declare(metadata %"class.xalanc_1_10::NameSpace"** %this.addr, metadata !3597, metadata !DIExpression()), !dbg !3598
  store i16* %uri, i16** %uri.addr, align 8
  call void @llvm.dbg.declare(metadata i16** %uri.addr, metadata !3599, metadata !DIExpression()), !dbg !3600
  store i32 %len, i32* %len.addr, align 4
  call void @llvm.dbg.declare(metadata i32* %len.addr, metadata !3601, metadata !DIExpression()), !dbg !3602
  %this1 = load %"class.xalanc_1_10::NameSpace"*, %"class.xalanc_1_10::NameSpace"** %this.addr, align 8
  %m_uri = getelementptr inbounds %"class.xalanc_1_10::NameSpace", %"class.xalanc_1_10::NameSpace"* %this1, i32 0, i32 1, !dbg !3603
  %0 = load i16*, i16** %uri.addr, align 8, !dbg !3604
  %1 = load i32, i32* %len.addr, align 4, !dbg !3605
  %call = call dereferenceable(40) %"class.xalanc_1_10::XalanDOMString"* @_ZN11xalanc_1_1014XalanDOMString6assignEPKtj(%"class.xalanc_1_10::XalanDOMString"* %m_uri, i16* %0, i32 %1), !dbg !3606
  ret void, !dbg !3607
}

; Function Attrs: noinline uwtable
define dso_local void @_ZN11xalanc_1_1021ResultNamespacesStack11pushContextEv(%"class.xalanc_1_10::ResultNamespacesStack"* %this) #0 align 2 !dbg !3608 {
entry:
  %this.addr = alloca %"class.xalanc_1_10::ResultNamespacesStack"*, align 8
  %ref.tmp = alloca i8, align 1
  store %"class.xalanc_1_10::ResultNamespacesStack"* %this, %"class.xalanc_1_10::ResultNamespacesStack"** %this.addr, align 8
  call void @llvm.dbg.declare(metadata %"class.xalanc_1_10::ResultNamespacesStack"** %this.addr, metadata !3609, metadata !DIExpression()), !dbg !3610
  %this1 = load %"class.xalanc_1_10::ResultNamespacesStack"*, %"class.xalanc_1_10::ResultNamespacesStack"** %this.addr, align 8
  %m_createNewContextStack = getelementptr inbounds %"class.xalanc_1_10::ResultNamespacesStack", %"class.xalanc_1_10::ResultNamespacesStack"* %this1, i32 0, i32 3, !dbg !3611
  %call = call zeroext i1 @_ZNK11xalanc_1_1011XalanVectorIbNS_31MemoryManagedConstructionTraitsIbEEE5emptyEv(%"class.xalanc_1_10::XalanVector.1"* %m_createNewContextStack), !dbg !3613
  %conv = zext i1 %call to i32, !dbg !3611
  %cmp = icmp eq i32 %conv, 1, !dbg !3614
  br i1 %cmp, label %if.then, label %if.end, !dbg !3615

if.then:                                          ; preds = %entry
  %m_createNewContextStack2 = getelementptr inbounds %"class.xalanc_1_10::ResultNamespacesStack", %"class.xalanc_1_10::ResultNamespacesStack"* %this1, i32 0, i32 3, !dbg !3616
  call void @_ZN11xalanc_1_1011XalanVectorIbNS_31MemoryManagedConstructionTraitsIbEEE7reserveEm(%"class.xalanc_1_10::XalanVector.1"* %m_createNewContextStack2, i64 25), !dbg !3618
  br label %if.end, !dbg !3619

if.end:                                           ; preds = %if.then, %entry
  %m_createNewContextStack3 = getelementptr inbounds %"class.xalanc_1_10::ResultNamespacesStack", %"class.xalanc_1_10::ResultNamespacesStack"* %this1, i32 0, i32 3, !dbg !3620
  store i8 1, i8* %ref.tmp, align 1, !dbg !3621
  call void @_ZN11xalanc_1_1011XalanVectorIbNS_31MemoryManagedConstructionTraitsIbEEE9push_backERKb(%"class.xalanc_1_10::XalanVector.1"* %m_createNewContextStack3, i8* dereferenceable(1) %ref.tmp), !dbg !3622
  ret void, !dbg !3623
}

; Function Attrs: noinline nounwind uwtable
define linkonce_odr dso_local zeroext i1 @_ZNK11xalanc_1_1011XalanVectorIbNS_31MemoryManagedConstructionTraitsIbEEE5emptyEv(%"class.xalanc_1_10::XalanVector.1"* %this) #2 comdat align 2 !dbg !3624 {
entry:
  %this.addr = alloca %"class.xalanc_1_10::XalanVector.1"*, align 8
  store %"class.xalanc_1_10::XalanVector.1"* %this, %"class.xalanc_1_10::XalanVector.1"** %this.addr, align 8
  call void @llvm.dbg.declare(metadata %"class.xalanc_1_10::XalanVector.1"** %this.addr, metadata !3625, metadata !DIExpression()), !dbg !3627
  %this1 = load %"class.xalanc_1_10::XalanVector.1"*, %"class.xalanc_1_10::XalanVector.1"** %this.addr, align 8
  call void @_ZNK11xalanc_1_1011XalanVectorIbNS_31MemoryManagedConstructionTraitsIbEEE10invariantsEv(%"class.xalanc_1_10::XalanVector.1"* %this1), !dbg !3628
  %m_size = getelementptr inbounds %"class.xalanc_1_10::XalanVector.1", %"class.xalanc_1_10::XalanVector.1"* %this1, i32 0, i32 1, !dbg !3629
  %0 = load i64, i64* %m_size, align 8, !dbg !3629
  %cmp = icmp eq i64 %0, 0, !dbg !3630
  %1 = zext i1 %cmp to i64, !dbg !3629
  %cond = select i1 %cmp, i1 true, i1 false, !dbg !3629
  ret i1 %cond, !dbg !3631
}

; Function Attrs: noinline uwtable
define linkonce_odr dso_local void @_ZN11xalanc_1_1011XalanVectorIbNS_31MemoryManagedConstructionTraitsIbEEE7reserveEm(%"class.xalanc_1_10::XalanVector.1"* %this, i64 %theSize) #0 comdat align 2 !dbg !3632 {
entry:
  %this.addr = alloca %"class.xalanc_1_10::XalanVector.1"*, align 8
  %theSize.addr = alloca i64, align 8
  store %"class.xalanc_1_10::XalanVector.1"* %this, %"class.xalanc_1_10::XalanVector.1"** %this.addr, align 8
  call void @llvm.dbg.declare(metadata %"class.xalanc_1_10::XalanVector.1"** %this.addr, metadata !3633, metadata !DIExpression()), !dbg !3634
  store i64 %theSize, i64* %theSize.addr, align 8
  call void @llvm.dbg.declare(metadata i64* %theSize.addr, metadata !3635, metadata !DIExpression()), !dbg !3636
  %this1 = load %"class.xalanc_1_10::XalanVector.1"*, %"class.xalanc_1_10::XalanVector.1"** %this.addr, align 8
  call void @_ZNK11xalanc_1_1011XalanVectorIbNS_31MemoryManagedConstructionTraitsIbEEE10invariantsEv(%"class.xalanc_1_10::XalanVector.1"* %this1), !dbg !3637
  %0 = load i64, i64* %theSize.addr, align 8, !dbg !3638
  %m_allocation = getelementptr inbounds %"class.xalanc_1_10::XalanVector.1", %"class.xalanc_1_10::XalanVector.1"* %this1, i32 0, i32 2, !dbg !3640
  %1 = load i64, i64* %m_allocation, align 8, !dbg !3640
  %cmp = icmp ugt i64 %0, %1, !dbg !3641
  br i1 %cmp, label %if.then, label %if.end, !dbg !3642

if.then:                                          ; preds = %entry
  %2 = load i64, i64* %theSize.addr, align 8, !dbg !3643
  call void @_ZN11xalanc_1_1011XalanVectorIbNS_31MemoryManagedConstructionTraitsIbEEE9doReserveEm(%"class.xalanc_1_10::XalanVector.1"* %this1, i64 %2), !dbg !3645
  br label %if.end, !dbg !3646

if.end:                                           ; preds = %if.then, %entry
  call void @_ZNK11xalanc_1_1011XalanVectorIbNS_31MemoryManagedConstructionTraitsIbEEE10invariantsEv(%"class.xalanc_1_10::XalanVector.1"* %this1), !dbg !3647
  ret void, !dbg !3648
}

; Function Attrs: noinline uwtable
define linkonce_odr dso_local void @_ZN11xalanc_1_1011XalanVectorIbNS_31MemoryManagedConstructionTraitsIbEEE9push_backERKb(%"class.xalanc_1_10::XalanVector.1"* %this, i8* dereferenceable(1) %data) #0 comdat align 2 !dbg !3649 {
entry:
  %this.addr = alloca %"class.xalanc_1_10::XalanVector.1"*, align 8
  %data.addr = alloca i8*, align 8
  store %"class.xalanc_1_10::XalanVector.1"* %this, %"class.xalanc_1_10::XalanVector.1"** %this.addr, align 8
  call void @llvm.dbg.declare(metadata %"class.xalanc_1_10::XalanVector.1"** %this.addr, metadata !3650, metadata !DIExpression()), !dbg !3651
  store i8* %data, i8** %data.addr, align 8
  call void @llvm.dbg.declare(metadata i8** %data.addr, metadata !3652, metadata !DIExpression()), !dbg !3653
  %this1 = load %"class.xalanc_1_10::XalanVector.1"*, %"class.xalanc_1_10::XalanVector.1"** %this.addr, align 8
  call void @_ZNK11xalanc_1_1011XalanVectorIbNS_31MemoryManagedConstructionTraitsIbEEE10invariantsEv(%"class.xalanc_1_10::XalanVector.1"* %this1), !dbg !3654
  %0 = load i8*, i8** %data.addr, align 8, !dbg !3655
  call void @_ZN11xalanc_1_1011XalanVectorIbNS_31MemoryManagedConstructionTraitsIbEEE10doPushBackERKb(%"class.xalanc_1_10::XalanVector.1"* %this1, i8* dereferenceable(1) %0), !dbg !3656
  call void @_ZNK11xalanc_1_1011XalanVectorIbNS_31MemoryManagedConstructionTraitsIbEEE10invariantsEv(%"class.xalanc_1_10::XalanVector.1"* %this1), !dbg !3657
  ret void, !dbg !3658
}

; Function Attrs: noinline uwtable
define dso_local void @_ZN11xalanc_1_1021ResultNamespacesStack10popContextEv(%"class.xalanc_1_10::ResultNamespacesStack"* %this) #0 align 2 !dbg !3659 {
entry:
  %this.addr = alloca %"class.xalanc_1_10::ResultNamespacesStack"*, align 8
  store %"class.xalanc_1_10::ResultNamespacesStack"* %this, %"class.xalanc_1_10::ResultNamespacesStack"** %this.addr, align 8
  call void @llvm.dbg.declare(metadata %"class.xalanc_1_10::ResultNamespacesStack"** %this.addr, metadata !3660, metadata !DIExpression()), !dbg !3661
  %this1 = load %"class.xalanc_1_10::ResultNamespacesStack"*, %"class.xalanc_1_10::ResultNamespacesStack"** %this.addr, align 8
  %m_createNewContextStack = getelementptr inbounds %"class.xalanc_1_10::ResultNamespacesStack", %"class.xalanc_1_10::ResultNamespacesStack"* %this1, i32 0, i32 3, !dbg !3662
  %call = call dereferenceable(1) i8* @_ZN11xalanc_1_1011XalanVectorIbNS_31MemoryManagedConstructionTraitsIbEEE4backEv(%"class.xalanc_1_10::XalanVector.1"* %m_createNewContextStack), !dbg !3664
  %0 = load i8, i8* %call, align 1, !dbg !3664
  %tobool = trunc i8 %0 to i1, !dbg !3664
  %conv = zext i1 %tobool to i32, !dbg !3662
  %cmp = icmp eq i32 %conv, 0, !dbg !3665
  br i1 %cmp, label %if.then, label %if.end, !dbg !3666

if.then:                                          ; preds = %entry
  %m_stackPosition = getelementptr inbounds %"class.xalanc_1_10::ResultNamespacesStack", %"class.xalanc_1_10::ResultNamespacesStack"* %this1, i32 0, i32 2, !dbg !3667
  %call2 = call dereferenceable(80) %"class.xalanc_1_10::XalanDeque.3"* @_ZN11xalanc_1_1018XalanDequeIteratorINS_24XalanDequeIteratorTraitsINS_10XalanDequeINS_9NameSpaceENS_32ConstructWithMemoryManagerTraitsIS3_EEEEEENS2_IS6_NS4_IS6_EEEEEdeEv(%"struct.xalanc_1_10::XalanDequeIterator"* %m_stackPosition), !dbg !3669
  call void @_ZN11xalanc_1_1010XalanDequeINS_9NameSpaceENS_32ConstructWithMemoryManagerTraitsIS1_EEE5clearEv(%"class.xalanc_1_10::XalanDeque.3"* %call2), !dbg !3670
  %m_stackPosition3 = getelementptr inbounds %"class.xalanc_1_10::ResultNamespacesStack", %"class.xalanc_1_10::ResultNamespacesStack"* %this1, i32 0, i32 2, !dbg !3671
  %call4 = call dereferenceable(16) %"struct.xalanc_1_10::XalanDequeIterator"* @_ZN11xalanc_1_1018XalanDequeIteratorINS_24XalanDequeIteratorTraitsINS_10XalanDequeINS_9NameSpaceENS_32ConstructWithMemoryManagerTraitsIS3_EEEEEENS2_IS6_NS4_IS6_EEEEEmmEv(%"struct.xalanc_1_10::XalanDequeIterator"* %m_stackPosition3), !dbg !3672
  br label %if.end, !dbg !3673

if.end:                                           ; preds = %if.then, %entry
  %m_createNewContextStack5 = getelementptr inbounds %"class.xalanc_1_10::ResultNamespacesStack", %"class.xalanc_1_10::ResultNamespacesStack"* %this1, i32 0, i32 3, !dbg !3674
  call void @_ZN11xalanc_1_1011XalanVectorIbNS_31MemoryManagedConstructionTraitsIbEEE8pop_backEv(%"class.xalanc_1_10::XalanVector.1"* %m_createNewContextStack5), !dbg !3675
  ret void, !dbg !3676
}

; Function Attrs: noinline uwtable
define linkonce_odr dso_local void @_ZN11xalanc_1_1010XalanDequeINS_9NameSpaceENS_32ConstructWithMemoryManagerTraitsIS1_EEE5clearEv(%"class.xalanc_1_10::XalanDeque.3"* %this) #0 comdat align 2 !dbg !3677 {
entry:
  %this.addr = alloca %"class.xalanc_1_10::XalanDeque.3"*, align 8
  %iter = alloca %"class.xalanc_1_10::XalanVector.5"**, align 8
  store %"class.xalanc_1_10::XalanDeque.3"* %this, %"class.xalanc_1_10::XalanDeque.3"** %this.addr, align 8
  call void @llvm.dbg.declare(metadata %"class.xalanc_1_10::XalanDeque.3"** %this.addr, metadata !3678, metadata !DIExpression()), !dbg !3679
  %this1 = load %"class.xalanc_1_10::XalanDeque.3"*, %"class.xalanc_1_10::XalanDeque.3"** %this.addr, align 8
  call void @llvm.dbg.declare(metadata %"class.xalanc_1_10::XalanVector.5"*** %iter, metadata !3680, metadata !DIExpression()), !dbg !3681
  %m_blockIndex = getelementptr inbounds %"class.xalanc_1_10::XalanDeque.3", %"class.xalanc_1_10::XalanDeque.3"* %this1, i32 0, i32 2, !dbg !3682
  %call = call %"class.xalanc_1_10::XalanVector.5"** @_ZN11xalanc_1_1011XalanVectorIPNS0_INS_9NameSpaceENS_32ConstructWithMemoryManagerTraitsIS1_EEEENS_31MemoryManagedConstructionTraitsIS5_EEE5beginEv(%"class.xalanc_1_10::XalanVector.4"* %m_blockIndex), !dbg !3683
  store %"class.xalanc_1_10::XalanVector.5"** %call, %"class.xalanc_1_10::XalanVector.5"*** %iter, align 8, !dbg !3681
  %m_freeBlockVector = getelementptr inbounds %"class.xalanc_1_10::XalanDeque.3", %"class.xalanc_1_10::XalanDeque.3"* %this1, i32 0, i32 3, !dbg !3684
  %m_freeBlockVector2 = getelementptr inbounds %"class.xalanc_1_10::XalanDeque.3", %"class.xalanc_1_10::XalanDeque.3"* %this1, i32 0, i32 3, !dbg !3685
  %call3 = call i64 @_ZNK11xalanc_1_1011XalanVectorIPNS0_INS_9NameSpaceENS_32ConstructWithMemoryManagerTraitsIS1_EEEENS_31MemoryManagedConstructionTraitsIS5_EEE4sizeEv(%"class.xalanc_1_10::XalanVector.4"* %m_freeBlockVector2), !dbg !3686
  %m_blockIndex4 = getelementptr inbounds %"class.xalanc_1_10::XalanDeque.3", %"class.xalanc_1_10::XalanDeque.3"* %this1, i32 0, i32 2, !dbg !3687
  %call5 = call i64 @_ZNK11xalanc_1_1011XalanVectorIPNS0_INS_9NameSpaceENS_32ConstructWithMemoryManagerTraitsIS1_EEEENS_31MemoryManagedConstructionTraitsIS5_EEE4sizeEv(%"class.xalanc_1_10::XalanVector.4"* %m_blockIndex4), !dbg !3688
  %add = add i64 %call3, %call5, !dbg !3689
  call void @_ZN11xalanc_1_1011XalanVectorIPNS0_INS_9NameSpaceENS_32ConstructWithMemoryManagerTraitsIS1_EEEENS_31MemoryManagedConstructionTraitsIS5_EEE7reserveEm(%"class.xalanc_1_10::XalanVector.4"* %m_freeBlockVector, i64 %add), !dbg !3690
  br label %while.cond, !dbg !3691

while.cond:                                       ; preds = %while.body, %entry
  %0 = load %"class.xalanc_1_10::XalanVector.5"**, %"class.xalanc_1_10::XalanVector.5"*** %iter, align 8, !dbg !3692
  %m_blockIndex6 = getelementptr inbounds %"class.xalanc_1_10::XalanDeque.3", %"class.xalanc_1_10::XalanDeque.3"* %this1, i32 0, i32 2, !dbg !3693
  %call7 = call %"class.xalanc_1_10::XalanVector.5"** @_ZN11xalanc_1_1011XalanVectorIPNS0_INS_9NameSpaceENS_32ConstructWithMemoryManagerTraitsIS1_EEEENS_31MemoryManagedConstructionTraitsIS5_EEE3endEv(%"class.xalanc_1_10::XalanVector.4"* %m_blockIndex6), !dbg !3694
  %cmp = icmp ne %"class.xalanc_1_10::XalanVector.5"** %0, %call7, !dbg !3695
  br i1 %cmp, label %while.body, label %while.end, !dbg !3691

while.body:                                       ; preds = %while.cond
  %1 = load %"class.xalanc_1_10::XalanVector.5"**, %"class.xalanc_1_10::XalanVector.5"*** %iter, align 8, !dbg !3696
  %2 = load %"class.xalanc_1_10::XalanVector.5"*, %"class.xalanc_1_10::XalanVector.5"** %1, align 8, !dbg !3698
  call void @_ZN11xalanc_1_1011XalanVectorINS_9NameSpaceENS_32ConstructWithMemoryManagerTraitsIS1_EEE5clearEv(%"class.xalanc_1_10::XalanVector.5"* %2), !dbg !3699
  %m_freeBlockVector8 = getelementptr inbounds %"class.xalanc_1_10::XalanDeque.3", %"class.xalanc_1_10::XalanDeque.3"* %this1, i32 0, i32 3, !dbg !3700
  %3 = load %"class.xalanc_1_10::XalanVector.5"**, %"class.xalanc_1_10::XalanVector.5"*** %iter, align 8, !dbg !3701
  call void @_ZN11xalanc_1_1011XalanVectorIPNS0_INS_9NameSpaceENS_32ConstructWithMemoryManagerTraitsIS1_EEEENS_31MemoryManagedConstructionTraitsIS5_EEE9push_backERKS5_(%"class.xalanc_1_10::XalanVector.4"* %m_freeBlockVector8, %"class.xalanc_1_10::XalanVector.5"** dereferenceable(8) %3), !dbg !3702
  %4 = load %"class.xalanc_1_10::XalanVector.5"**, %"class.xalanc_1_10::XalanVector.5"*** %iter, align 8, !dbg !3703
  %incdec.ptr = getelementptr inbounds %"class.xalanc_1_10::XalanVector.5"*, %"class.xalanc_1_10::XalanVector.5"** %4, i32 1, !dbg !3703
  store %"class.xalanc_1_10::XalanVector.5"** %incdec.ptr, %"class.xalanc_1_10::XalanVector.5"*** %iter, align 8, !dbg !3703
  br label %while.cond, !dbg !3691, !llvm.loop !3704

while.end:                                        ; preds = %while.cond
  %m_blockIndex9 = getelementptr inbounds %"class.xalanc_1_10::XalanDeque.3", %"class.xalanc_1_10::XalanDeque.3"* %this1, i32 0, i32 2, !dbg !3706
  call void @_ZN11xalanc_1_1011XalanVectorIPNS0_INS_9NameSpaceENS_32ConstructWithMemoryManagerTraitsIS1_EEEENS_31MemoryManagedConstructionTraitsIS5_EEE5clearEv(%"class.xalanc_1_10::XalanVector.4"* %m_blockIndex9), !dbg !3707
  ret void, !dbg !3708
}

; Function Attrs: noinline nounwind uwtable
define linkonce_odr dso_local dereferenceable(16) %"struct.xalanc_1_10::XalanDequeIterator"* @_ZN11xalanc_1_1018XalanDequeIteratorINS_24XalanDequeIteratorTraitsINS_10XalanDequeINS_9NameSpaceENS_32ConstructWithMemoryManagerTraitsIS3_EEEEEENS2_IS6_NS4_IS6_EEEEEmmEv(%"struct.xalanc_1_10::XalanDequeIterator"* %this) #2 comdat align 2 !dbg !3709 {
entry:
  %this.addr = alloca %"struct.xalanc_1_10::XalanDequeIterator"*, align 8
  store %"struct.xalanc_1_10::XalanDequeIterator"* %this, %"struct.xalanc_1_10::XalanDequeIterator"** %this.addr, align 8
  call void @llvm.dbg.declare(metadata %"struct.xalanc_1_10::XalanDequeIterator"** %this.addr, metadata !3710, metadata !DIExpression()), !dbg !3711
  %this1 = load %"struct.xalanc_1_10::XalanDequeIterator"*, %"struct.xalanc_1_10::XalanDequeIterator"** %this.addr, align 8
  %m_pos = getelementptr inbounds %"struct.xalanc_1_10::XalanDequeIterator", %"struct.xalanc_1_10::XalanDequeIterator"* %this1, i32 0, i32 1, !dbg !3712
  %0 = load i64, i64* %m_pos, align 8, !dbg !3713
  %dec = add i64 %0, -1, !dbg !3713
  store i64 %dec, i64* %m_pos, align 8, !dbg !3713
  ret %"struct.xalanc_1_10::XalanDequeIterator"* %this1, !dbg !3714
}

; Function Attrs: noinline nounwind uwtable
define linkonce_odr dso_local void @_ZN11xalanc_1_1011XalanVectorIbNS_31MemoryManagedConstructionTraitsIbEEE8pop_backEv(%"class.xalanc_1_10::XalanVector.1"* %this) #2 comdat align 2 !dbg !3715 {
entry:
  %this.addr = alloca %"class.xalanc_1_10::XalanVector.1"*, align 8
  store %"class.xalanc_1_10::XalanVector.1"* %this, %"class.xalanc_1_10::XalanVector.1"** %this.addr, align 8
  call void @llvm.dbg.declare(metadata %"class.xalanc_1_10::XalanVector.1"** %this.addr, metadata !3716, metadata !DIExpression()), !dbg !3717
  %this1 = load %"class.xalanc_1_10::XalanVector.1"*, %"class.xalanc_1_10::XalanVector.1"** %this.addr, align 8
  call void @_ZNK11xalanc_1_1011XalanVectorIbNS_31MemoryManagedConstructionTraitsIbEEE10invariantsEv(%"class.xalanc_1_10::XalanVector.1"* %this1), !dbg !3718
  %m_size = getelementptr inbounds %"class.xalanc_1_10::XalanVector.1", %"class.xalanc_1_10::XalanVector.1"* %this1, i32 0, i32 1, !dbg !3719
  %0 = load i64, i64* %m_size, align 8, !dbg !3720
  %dec = add i64 %0, -1, !dbg !3720
  store i64 %dec, i64* %m_size, align 8, !dbg !3720
  %m_data = getelementptr inbounds %"class.xalanc_1_10::XalanVector.1", %"class.xalanc_1_10::XalanVector.1"* %this1, i32 0, i32 3, !dbg !3721
  %1 = load i8*, i8** %m_data, align 8, !dbg !3721
  %m_size2 = getelementptr inbounds %"class.xalanc_1_10::XalanVector.1", %"class.xalanc_1_10::XalanVector.1"* %this1, i32 0, i32 1, !dbg !3722
  %2 = load i64, i64* %m_size2, align 8, !dbg !3722
  %arrayidx = getelementptr inbounds i8, i8* %1, i64 %2, !dbg !3721
  call void @_ZN11xalanc_1_1011XalanVectorIbNS_31MemoryManagedConstructionTraitsIbEEE7destroyERb(i8* dereferenceable(1) %arrayidx), !dbg !3723
  call void @_ZNK11xalanc_1_1011XalanVectorIbNS_31MemoryManagedConstructionTraitsIbEEE10invariantsEv(%"class.xalanc_1_10::XalanVector.1"* %this1), !dbg !3724
  ret void, !dbg !3725
}

; Function Attrs: noinline uwtable
define dso_local %"class.xalanc_1_10::XalanDOMString"* @_ZNK11xalanc_1_1021ResultNamespacesStack21getNamespaceForPrefixERKNS_14XalanDOMStringE(%"class.xalanc_1_10::ResultNamespacesStack"* %this, %"class.xalanc_1_10::XalanDOMString"* dereferenceable(40) %thePrefix) #0 align 2 !dbg !3726 {
entry:
  %retval = alloca %"class.xalanc_1_10::XalanDOMString"*, align 8
  %this.addr = alloca %"class.xalanc_1_10::ResultNamespacesStack"*, align 8
  %thePrefix.addr = alloca %"class.xalanc_1_10::XalanDOMString"*, align 8
  %agg.tmp = alloca %"struct.xalanc_1_10::XalanDequeIterator.6", align 8
  %agg.tmp3 = alloca %"struct.xalanc_1_10::XalanDequeIterator.6", align 8
  %ref.tmp = alloca %"struct.xalanc_1_10::XalanDequeIterator", align 8
  store %"class.xalanc_1_10::ResultNamespacesStack"* %this, %"class.xalanc_1_10::ResultNamespacesStack"** %this.addr, align 8
  call void @llvm.dbg.declare(metadata %"class.xalanc_1_10::ResultNamespacesStack"** %this.addr, metadata !3727, metadata !DIExpression()), !dbg !3729
  store %"class.xalanc_1_10::XalanDOMString"* %thePrefix, %"class.xalanc_1_10::XalanDOMString"** %thePrefix.addr, align 8
  call void @llvm.dbg.declare(metadata %"class.xalanc_1_10::XalanDOMString"** %thePrefix.addr, metadata !3730, metadata !DIExpression()), !dbg !3731
  %this1 = load %"class.xalanc_1_10::ResultNamespacesStack"*, %"class.xalanc_1_10::ResultNamespacesStack"** %this.addr, align 8
  %m_stackPosition = getelementptr inbounds %"class.xalanc_1_10::ResultNamespacesStack", %"class.xalanc_1_10::ResultNamespacesStack"* %this1, i32 0, i32 2, !dbg !3732
  %m_stackBegin = getelementptr inbounds %"class.xalanc_1_10::ResultNamespacesStack", %"class.xalanc_1_10::ResultNamespacesStack"* %this1, i32 0, i32 1, !dbg !3734
  %call = call zeroext i1 @_ZNK11xalanc_1_1018XalanDequeIteratorINS_24XalanDequeIteratorTraitsINS_10XalanDequeINS_9NameSpaceENS_32ConstructWithMemoryManagerTraitsIS3_EEEEEENS2_IS6_NS4_IS6_EEEEEeqERKSA_(%"struct.xalanc_1_10::XalanDequeIterator"* %m_stackPosition, %"struct.xalanc_1_10::XalanDequeIterator"* dereferenceable(16) %m_stackBegin), !dbg !3735
  br i1 %call, label %if.then, label %if.else, !dbg !3736

if.then:                                          ; preds = %entry
  store %"class.xalanc_1_10::XalanDOMString"* null, %"class.xalanc_1_10::XalanDOMString"** %retval, align 8, !dbg !3737
  br label %return, !dbg !3737

if.else:                                          ; preds = %entry
  %m_stackBegin2 = getelementptr inbounds %"class.xalanc_1_10::ResultNamespacesStack", %"class.xalanc_1_10::ResultNamespacesStack"* %this1, i32 0, i32 1, !dbg !3739
  call void @_ZN11xalanc_1_1018XalanDequeIteratorINS_29XalanDequeConstIteratorTraitsINS_10XalanDequeINS_9NameSpaceENS_32ConstructWithMemoryManagerTraitsIS3_EEEEEENS2_IS6_NS4_IS6_EEEEEC2ERKNS0_INS_24XalanDequeIteratorTraitsIS6_EES9_EE(%"struct.xalanc_1_10::XalanDequeIterator.6"* %agg.tmp, %"struct.xalanc_1_10::XalanDequeIterator"* dereferenceable(16) %m_stackBegin2), !dbg !3739
  %m_stackPosition4 = getelementptr inbounds %"class.xalanc_1_10::ResultNamespacesStack", %"class.xalanc_1_10::ResultNamespacesStack"* %this1, i32 0, i32 2, !dbg !3741
  call void @_ZNK11xalanc_1_1018XalanDequeIteratorINS_24XalanDequeIteratorTraitsINS_10XalanDequeINS_9NameSpaceENS_32ConstructWithMemoryManagerTraitsIS3_EEEEEENS2_IS6_NS4_IS6_EEEEEplEl(%"struct.xalanc_1_10::XalanDequeIterator"* sret %ref.tmp, %"struct.xalanc_1_10::XalanDequeIterator"* %m_stackPosition4, i64 1), !dbg !3742
  call void @_ZN11xalanc_1_1018XalanDequeIteratorINS_29XalanDequeConstIteratorTraitsINS_10XalanDequeINS_9NameSpaceENS_32ConstructWithMemoryManagerTraitsIS3_EEEEEENS2_IS6_NS4_IS6_EEEEEC2ERKNS0_INS_24XalanDequeIteratorTraitsIS6_EES9_EE(%"struct.xalanc_1_10::XalanDequeIterator.6"* %agg.tmp3, %"struct.xalanc_1_10::XalanDequeIterator"* dereferenceable(16) %ref.tmp), !dbg !3741
  %0 = load %"class.xalanc_1_10::XalanDOMString"*, %"class.xalanc_1_10::XalanDOMString"** %thePrefix.addr, align 8, !dbg !3743
  %1 = bitcast %"struct.xalanc_1_10::XalanDequeIterator.6"* %agg.tmp to { %"class.xalanc_1_10::XalanDeque"*, i64 }*, !dbg !3744
  %2 = getelementptr inbounds { %"class.xalanc_1_10::XalanDeque"*, i64 }, { %"class.xalanc_1_10::XalanDeque"*, i64 }* %1, i32 0, i32 0, !dbg !3744
  %3 = load %"class.xalanc_1_10::XalanDeque"*, %"class.xalanc_1_10::XalanDeque"** %2, align 8, !dbg !3744
  %4 = getelementptr inbounds { %"class.xalanc_1_10::XalanDeque"*, i64 }, { %"class.xalanc_1_10::XalanDeque"*, i64 }* %1, i32 0, i32 1, !dbg !3744
  %5 = load i64, i64* %4, align 8, !dbg !3744
  %6 = bitcast %"struct.xalanc_1_10::XalanDequeIterator.6"* %agg.tmp3 to { %"class.xalanc_1_10::XalanDeque"*, i64 }*, !dbg !3744
  %7 = getelementptr inbounds { %"class.xalanc_1_10::XalanDeque"*, i64 }, { %"class.xalanc_1_10::XalanDeque"*, i64 }* %6, i32 0, i32 0, !dbg !3744
  %8 = load %"class.xalanc_1_10::XalanDeque"*, %"class.xalanc_1_10::XalanDeque"** %7, align 8, !dbg !3744
  %9 = getelementptr inbounds { %"class.xalanc_1_10::XalanDeque"*, i64 }, { %"class.xalanc_1_10::XalanDeque"*, i64 }* %6, i32 0, i32 1, !dbg !3744
  %10 = load i64, i64* %9, align 8, !dbg !3744
  %call5 = call %"class.xalanc_1_10::XalanDOMString"* @_ZN11xalanc_1_1010XalanQName21getNamespaceForPrefixENS_18XalanDequeIteratorINS_29XalanDequeConstIteratorTraitsINS_10XalanDequeINS_9NameSpaceENS_32ConstructWithMemoryManagerTraitsIS4_EEEEEENS3_IS7_NS5_IS7_EEEEEESB_RKNS_14XalanDOMStringE(%"class.xalanc_1_10::XalanDeque"* %3, i64 %5, %"class.xalanc_1_10::XalanDeque"* %8, i64 %10, %"class.xalanc_1_10::XalanDOMString"* dereferenceable(40) %0), !dbg !3744
  store %"class.xalanc_1_10::XalanDOMString"* %call5, %"class.xalanc_1_10::XalanDOMString"** %retval, align 8, !dbg !3745
  br label %return, !dbg !3745

return:                                           ; preds = %if.else, %if.then
  %11 = load %"class.xalanc_1_10::XalanDOMString"*, %"class.xalanc_1_10::XalanDOMString"** %retval, align 8, !dbg !3746
  ret %"class.xalanc_1_10::XalanDOMString"* %11, !dbg !3746
}

declare dso_local %"class.xalanc_1_10::XalanDOMString"* @_ZN11xalanc_1_1010XalanQName21getNamespaceForPrefixENS_18XalanDequeIteratorINS_29XalanDequeConstIteratorTraitsINS_10XalanDequeINS_9NameSpaceENS_32ConstructWithMemoryManagerTraitsIS4_EEEEEENS3_IS7_NS5_IS7_EEEEEESB_RKNS_14XalanDOMStringE(%"class.xalanc_1_10::XalanDeque"*, i64, %"class.xalanc_1_10::XalanDeque"*, i64, %"class.xalanc_1_10::XalanDOMString"* dereferenceable(40)) #3

; Function Attrs: noinline nounwind uwtable
define linkonce_odr dso_local void @_ZN11xalanc_1_1018XalanDequeIteratorINS_29XalanDequeConstIteratorTraitsINS_10XalanDequeINS_9NameSpaceENS_32ConstructWithMemoryManagerTraitsIS3_EEEEEENS2_IS6_NS4_IS6_EEEEEC2ERKNS0_INS_24XalanDequeIteratorTraitsIS6_EES9_EE(%"struct.xalanc_1_10::XalanDequeIterator.6"* %this, %"struct.xalanc_1_10::XalanDequeIterator"* dereferenceable(16) %iterator) unnamed_addr #2 comdat align 2 !dbg !3747 {
entry:
  %this.addr = alloca %"struct.xalanc_1_10::XalanDequeIterator.6"*, align 8
  %iterator.addr = alloca %"struct.xalanc_1_10::XalanDequeIterator"*, align 8
  store %"struct.xalanc_1_10::XalanDequeIterator.6"* %this, %"struct.xalanc_1_10::XalanDequeIterator.6"** %this.addr, align 8
  call void @llvm.dbg.declare(metadata %"struct.xalanc_1_10::XalanDequeIterator.6"** %this.addr, metadata !3748, metadata !DIExpression()), !dbg !3750
  store %"struct.xalanc_1_10::XalanDequeIterator"* %iterator, %"struct.xalanc_1_10::XalanDequeIterator"** %iterator.addr, align 8
  call void @llvm.dbg.declare(metadata %"struct.xalanc_1_10::XalanDequeIterator"** %iterator.addr, metadata !3751, metadata !DIExpression()), !dbg !3752
  %this1 = load %"struct.xalanc_1_10::XalanDequeIterator.6"*, %"struct.xalanc_1_10::XalanDequeIterator.6"** %this.addr, align 8
  %m_deque = getelementptr inbounds %"struct.xalanc_1_10::XalanDequeIterator.6", %"struct.xalanc_1_10::XalanDequeIterator.6"* %this1, i32 0, i32 0, !dbg !3753
  %0 = load %"struct.xalanc_1_10::XalanDequeIterator"*, %"struct.xalanc_1_10::XalanDequeIterator"** %iterator.addr, align 8, !dbg !3754
  %m_deque2 = getelementptr inbounds %"struct.xalanc_1_10::XalanDequeIterator", %"struct.xalanc_1_10::XalanDequeIterator"* %0, i32 0, i32 0, !dbg !3755
  %1 = load %"class.xalanc_1_10::XalanDeque"*, %"class.xalanc_1_10::XalanDeque"** %m_deque2, align 8, !dbg !3755
  store %"class.xalanc_1_10::XalanDeque"* %1, %"class.xalanc_1_10::XalanDeque"** %m_deque, align 8, !dbg !3753
  %m_pos = getelementptr inbounds %"struct.xalanc_1_10::XalanDequeIterator.6", %"struct.xalanc_1_10::XalanDequeIterator.6"* %this1, i32 0, i32 1, !dbg !3756
  %2 = load %"struct.xalanc_1_10::XalanDequeIterator"*, %"struct.xalanc_1_10::XalanDequeIterator"** %iterator.addr, align 8, !dbg !3757
  %m_pos3 = getelementptr inbounds %"struct.xalanc_1_10::XalanDequeIterator", %"struct.xalanc_1_10::XalanDequeIterator"* %2, i32 0, i32 1, !dbg !3758
  %3 = load i64, i64* %m_pos3, align 8, !dbg !3758
  store i64 %3, i64* %m_pos, align 8, !dbg !3756
  ret void, !dbg !3759
}

; Function Attrs: noinline uwtable
define linkonce_odr dso_local void @_ZNK11xalanc_1_1018XalanDequeIteratorINS_24XalanDequeIteratorTraitsINS_10XalanDequeINS_9NameSpaceENS_32ConstructWithMemoryManagerTraitsIS3_EEEEEENS2_IS6_NS4_IS6_EEEEEplEl(%"struct.xalanc_1_10::XalanDequeIterator"* noalias sret %agg.result, %"struct.xalanc_1_10::XalanDequeIterator"* %this, i64 %difference) #0 comdat align 2 !dbg !3760 {
entry:
  %result.ptr = alloca i8*, align 8
  %this.addr = alloca %"struct.xalanc_1_10::XalanDequeIterator"*, align 8
  %difference.addr = alloca i64, align 8
  %0 = bitcast %"struct.xalanc_1_10::XalanDequeIterator"* %agg.result to i8*
  store i8* %0, i8** %result.ptr, align 8
  store %"struct.xalanc_1_10::XalanDequeIterator"* %this, %"struct.xalanc_1_10::XalanDequeIterator"** %this.addr, align 8
  call void @llvm.dbg.declare(metadata %"struct.xalanc_1_10::XalanDequeIterator"** %this.addr, metadata !3761, metadata !DIExpression()), !dbg !3762
  store i64 %difference, i64* %difference.addr, align 8
  call void @llvm.dbg.declare(metadata i64* %difference.addr, metadata !3763, metadata !DIExpression()), !dbg !3764
  %this1 = load %"struct.xalanc_1_10::XalanDequeIterator"*, %"struct.xalanc_1_10::XalanDequeIterator"** %this.addr, align 8
  %m_deque = getelementptr inbounds %"struct.xalanc_1_10::XalanDequeIterator", %"struct.xalanc_1_10::XalanDequeIterator"* %this1, i32 0, i32 0, !dbg !3765
  %1 = load %"class.xalanc_1_10::XalanDeque"*, %"class.xalanc_1_10::XalanDeque"** %m_deque, align 8, !dbg !3765
  %m_pos = getelementptr inbounds %"struct.xalanc_1_10::XalanDequeIterator", %"struct.xalanc_1_10::XalanDequeIterator"* %this1, i32 0, i32 1, !dbg !3766
  %2 = load i64, i64* %m_pos, align 8, !dbg !3766
  %3 = load i64, i64* %difference.addr, align 8, !dbg !3767
  %add = add i64 %2, %3, !dbg !3768
  call void @_ZN11xalanc_1_1018XalanDequeIteratorINS_24XalanDequeIteratorTraitsINS_10XalanDequeINS_9NameSpaceENS_32ConstructWithMemoryManagerTraitsIS3_EEEEEENS2_IS6_NS4_IS6_EEEEEC2EPS9_m(%"struct.xalanc_1_10::XalanDequeIterator"* %agg.result, %"class.xalanc_1_10::XalanDeque"* %1, i64 %add), !dbg !3769
  ret void, !dbg !3770
}

; Function Attrs: noinline uwtable
define dso_local %"class.xalanc_1_10::XalanDOMString"* @_ZNK11xalanc_1_1021ResultNamespacesStack21getPrefixForNamespaceERKNS_14XalanDOMStringE(%"class.xalanc_1_10::ResultNamespacesStack"* %this, %"class.xalanc_1_10::XalanDOMString"* dereferenceable(40) %theNamespaceURI) #0 align 2 !dbg !3771 {
entry:
  %retval = alloca %"class.xalanc_1_10::XalanDOMString"*, align 8
  %this.addr = alloca %"class.xalanc_1_10::ResultNamespacesStack"*, align 8
  %theNamespaceURI.addr = alloca %"class.xalanc_1_10::XalanDOMString"*, align 8
  %agg.tmp = alloca %"struct.xalanc_1_10::XalanDequeIterator.6", align 8
  %agg.tmp3 = alloca %"struct.xalanc_1_10::XalanDequeIterator.6", align 8
  %ref.tmp = alloca %"struct.xalanc_1_10::XalanDequeIterator", align 8
  store %"class.xalanc_1_10::ResultNamespacesStack"* %this, %"class.xalanc_1_10::ResultNamespacesStack"** %this.addr, align 8
  call void @llvm.dbg.declare(metadata %"class.xalanc_1_10::ResultNamespacesStack"** %this.addr, metadata !3772, metadata !DIExpression()), !dbg !3773
  store %"class.xalanc_1_10::XalanDOMString"* %theNamespaceURI, %"class.xalanc_1_10::XalanDOMString"** %theNamespaceURI.addr, align 8
  call void @llvm.dbg.declare(metadata %"class.xalanc_1_10::XalanDOMString"** %theNamespaceURI.addr, metadata !3774, metadata !DIExpression()), !dbg !3775
  %this1 = load %"class.xalanc_1_10::ResultNamespacesStack"*, %"class.xalanc_1_10::ResultNamespacesStack"** %this.addr, align 8
  %m_stackPosition = getelementptr inbounds %"class.xalanc_1_10::ResultNamespacesStack", %"class.xalanc_1_10::ResultNamespacesStack"* %this1, i32 0, i32 2, !dbg !3776
  %m_stackBegin = getelementptr inbounds %"class.xalanc_1_10::ResultNamespacesStack", %"class.xalanc_1_10::ResultNamespacesStack"* %this1, i32 0, i32 1, !dbg !3778
  %call = call zeroext i1 @_ZNK11xalanc_1_1018XalanDequeIteratorINS_24XalanDequeIteratorTraitsINS_10XalanDequeINS_9NameSpaceENS_32ConstructWithMemoryManagerTraitsIS3_EEEEEENS2_IS6_NS4_IS6_EEEEEeqERKSA_(%"struct.xalanc_1_10::XalanDequeIterator"* %m_stackPosition, %"struct.xalanc_1_10::XalanDequeIterator"* dereferenceable(16) %m_stackBegin), !dbg !3779
  br i1 %call, label %if.then, label %if.else, !dbg !3780

if.then:                                          ; preds = %entry
  store %"class.xalanc_1_10::XalanDOMString"* null, %"class.xalanc_1_10::XalanDOMString"** %retval, align 8, !dbg !3781
  br label %return, !dbg !3781

if.else:                                          ; preds = %entry
  %m_stackBegin2 = getelementptr inbounds %"class.xalanc_1_10::ResultNamespacesStack", %"class.xalanc_1_10::ResultNamespacesStack"* %this1, i32 0, i32 1, !dbg !3783
  call void @_ZN11xalanc_1_1018XalanDequeIteratorINS_29XalanDequeConstIteratorTraitsINS_10XalanDequeINS_9NameSpaceENS_32ConstructWithMemoryManagerTraitsIS3_EEEEEENS2_IS6_NS4_IS6_EEEEEC2ERKNS0_INS_24XalanDequeIteratorTraitsIS6_EES9_EE(%"struct.xalanc_1_10::XalanDequeIterator.6"* %agg.tmp, %"struct.xalanc_1_10::XalanDequeIterator"* dereferenceable(16) %m_stackBegin2), !dbg !3783
  %m_stackPosition4 = getelementptr inbounds %"class.xalanc_1_10::ResultNamespacesStack", %"class.xalanc_1_10::ResultNamespacesStack"* %this1, i32 0, i32 2, !dbg !3785
  call void @_ZNK11xalanc_1_1018XalanDequeIteratorINS_24XalanDequeIteratorTraitsINS_10XalanDequeINS_9NameSpaceENS_32ConstructWithMemoryManagerTraitsIS3_EEEEEENS2_IS6_NS4_IS6_EEEEEplEl(%"struct.xalanc_1_10::XalanDequeIterator"* sret %ref.tmp, %"struct.xalanc_1_10::XalanDequeIterator"* %m_stackPosition4, i64 1), !dbg !3786
  call void @_ZN11xalanc_1_1018XalanDequeIteratorINS_29XalanDequeConstIteratorTraitsINS_10XalanDequeINS_9NameSpaceENS_32ConstructWithMemoryManagerTraitsIS3_EEEEEENS2_IS6_NS4_IS6_EEEEEC2ERKNS0_INS_24XalanDequeIteratorTraitsIS6_EES9_EE(%"struct.xalanc_1_10::XalanDequeIterator.6"* %agg.tmp3, %"struct.xalanc_1_10::XalanDequeIterator"* dereferenceable(16) %ref.tmp), !dbg !3785
  %0 = load %"class.xalanc_1_10::XalanDOMString"*, %"class.xalanc_1_10::XalanDOMString"** %theNamespaceURI.addr, align 8, !dbg !3787
  %1 = bitcast %"struct.xalanc_1_10::XalanDequeIterator.6"* %agg.tmp to { %"class.xalanc_1_10::XalanDeque"*, i64 }*, !dbg !3788
  %2 = getelementptr inbounds { %"class.xalanc_1_10::XalanDeque"*, i64 }, { %"class.xalanc_1_10::XalanDeque"*, i64 }* %1, i32 0, i32 0, !dbg !3788
  %3 = load %"class.xalanc_1_10::XalanDeque"*, %"class.xalanc_1_10::XalanDeque"** %2, align 8, !dbg !3788
  %4 = getelementptr inbounds { %"class.xalanc_1_10::XalanDeque"*, i64 }, { %"class.xalanc_1_10::XalanDeque"*, i64 }* %1, i32 0, i32 1, !dbg !3788
  %5 = load i64, i64* %4, align 8, !dbg !3788
  %6 = bitcast %"struct.xalanc_1_10::XalanDequeIterator.6"* %agg.tmp3 to { %"class.xalanc_1_10::XalanDeque"*, i64 }*, !dbg !3788
  %7 = getelementptr inbounds { %"class.xalanc_1_10::XalanDeque"*, i64 }, { %"class.xalanc_1_10::XalanDeque"*, i64 }* %6, i32 0, i32 0, !dbg !3788
  %8 = load %"class.xalanc_1_10::XalanDeque"*, %"class.xalanc_1_10::XalanDeque"** %7, align 8, !dbg !3788
  %9 = getelementptr inbounds { %"class.xalanc_1_10::XalanDeque"*, i64 }, { %"class.xalanc_1_10::XalanDeque"*, i64 }* %6, i32 0, i32 1, !dbg !3788
  %10 = load i64, i64* %9, align 8, !dbg !3788
  %call5 = call %"class.xalanc_1_10::XalanDOMString"* @_ZN11xalanc_1_1010XalanQName21getPrefixForNamespaceENS_18XalanDequeIteratorINS_29XalanDequeConstIteratorTraitsINS_10XalanDequeINS_9NameSpaceENS_32ConstructWithMemoryManagerTraitsIS4_EEEEEENS3_IS7_NS5_IS7_EEEEEESB_RKNS_14XalanDOMStringE(%"class.xalanc_1_10::XalanDeque"* %3, i64 %5, %"class.xalanc_1_10::XalanDeque"* %8, i64 %10, %"class.xalanc_1_10::XalanDOMString"* dereferenceable(40) %0), !dbg !3788
  store %"class.xalanc_1_10::XalanDOMString"* %call5, %"class.xalanc_1_10::XalanDOMString"** %retval, align 8, !dbg !3789
  br label %return, !dbg !3789

return:                                           ; preds = %if.else, %if.then
  %11 = load %"class.xalanc_1_10::XalanDOMString"*, %"class.xalanc_1_10::XalanDOMString"** %retval, align 8, !dbg !3790
  ret %"class.xalanc_1_10::XalanDOMString"* %11, !dbg !3790
}

declare dso_local %"class.xalanc_1_10::XalanDOMString"* @_ZN11xalanc_1_1010XalanQName21getPrefixForNamespaceENS_18XalanDequeIteratorINS_29XalanDequeConstIteratorTraitsINS_10XalanDequeINS_9NameSpaceENS_32ConstructWithMemoryManagerTraitsIS4_EEEEEENS3_IS7_NS5_IS7_EEEEEESB_RKNS_14XalanDOMStringE(%"class.xalanc_1_10::XalanDeque"*, i64, %"class.xalanc_1_10::XalanDeque"*, i64, %"class.xalanc_1_10::XalanDOMString"* dereferenceable(40)) #3

; Function Attrs: noinline uwtable
define dso_local zeroext i1 @_ZN11xalanc_1_1021ResultNamespacesStack20prefixIsPresentLocalERKNS_14XalanDOMStringE(%"class.xalanc_1_10::ResultNamespacesStack"* %this, %"class.xalanc_1_10::XalanDOMString"* dereferenceable(40) %thePrefix) #0 align 2 !dbg !3791 {
entry:
  %this.addr = alloca %"class.xalanc_1_10::ResultNamespacesStack"*, align 8
  %thePrefix.addr = alloca %"class.xalanc_1_10::XalanDOMString"*, align 8
  %fResult = alloca i8, align 1
  %theNamespaces = alloca %"class.xalanc_1_10::XalanDeque.3"*, align 8
  %i = alloca %"struct.xalanc_1_10::XalanDequeIterator.7", align 8
  %theEnd = alloca %"struct.xalanc_1_10::XalanDequeIterator.7", align 8
  %ns = alloca %"class.xalanc_1_10::NameSpace"*, align 8
  %thisPrefix = alloca %"class.xalanc_1_10::XalanDOMString"*, align 8
  store %"class.xalanc_1_10::ResultNamespacesStack"* %this, %"class.xalanc_1_10::ResultNamespacesStack"** %this.addr, align 8
  call void @llvm.dbg.declare(metadata %"class.xalanc_1_10::ResultNamespacesStack"** %this.addr, metadata !3792, metadata !DIExpression()), !dbg !3793
  store %"class.xalanc_1_10::XalanDOMString"* %thePrefix, %"class.xalanc_1_10::XalanDOMString"** %thePrefix.addr, align 8
  call void @llvm.dbg.declare(metadata %"class.xalanc_1_10::XalanDOMString"** %thePrefix.addr, metadata !3794, metadata !DIExpression()), !dbg !3795
  %this1 = load %"class.xalanc_1_10::ResultNamespacesStack"*, %"class.xalanc_1_10::ResultNamespacesStack"** %this.addr, align 8
  call void @llvm.dbg.declare(metadata i8* %fResult, metadata !3796, metadata !DIExpression()), !dbg !3797
  store i8 0, i8* %fResult, align 1, !dbg !3797
  %m_createNewContextStack = getelementptr inbounds %"class.xalanc_1_10::ResultNamespacesStack", %"class.xalanc_1_10::ResultNamespacesStack"* %this1, i32 0, i32 3, !dbg !3798
  %call = call dereferenceable(1) i8* @_ZN11xalanc_1_1011XalanVectorIbNS_31MemoryManagedConstructionTraitsIbEEE4backEv(%"class.xalanc_1_10::XalanVector.1"* %m_createNewContextStack), !dbg !3800
  %0 = load i8, i8* %call, align 1, !dbg !3800
  %tobool = trunc i8 %0 to i1, !dbg !3800
  %conv = zext i1 %tobool to i32, !dbg !3798
  %cmp = icmp eq i32 %conv, 0, !dbg !3801
  br i1 %cmp, label %if.then, label %if.end14, !dbg !3802

if.then:                                          ; preds = %entry
  call void @llvm.dbg.declare(metadata %"class.xalanc_1_10::XalanDeque.3"** %theNamespaces, metadata !3803, metadata !DIExpression()), !dbg !3807
  %m_stackPosition = getelementptr inbounds %"class.xalanc_1_10::ResultNamespacesStack", %"class.xalanc_1_10::ResultNamespacesStack"* %this1, i32 0, i32 2, !dbg !3808
  %call2 = call dereferenceable(80) %"class.xalanc_1_10::XalanDeque.3"* @_ZN11xalanc_1_1018XalanDequeIteratorINS_24XalanDequeIteratorTraitsINS_10XalanDequeINS_9NameSpaceENS_32ConstructWithMemoryManagerTraitsIS3_EEEEEENS2_IS6_NS4_IS6_EEEEEdeEv(%"struct.xalanc_1_10::XalanDequeIterator"* %m_stackPosition), !dbg !3809
  store %"class.xalanc_1_10::XalanDeque.3"* %call2, %"class.xalanc_1_10::XalanDeque.3"** %theNamespaces, align 8, !dbg !3807
  call void @llvm.dbg.declare(metadata %"struct.xalanc_1_10::XalanDequeIterator.7"* %i, metadata !3810, metadata !DIExpression()), !dbg !3811
  %1 = load %"class.xalanc_1_10::XalanDeque.3"*, %"class.xalanc_1_10::XalanDeque.3"** %theNamespaces, align 8, !dbg !3812
  %call3 = call { %"class.xalanc_1_10::XalanDeque.3"*, i64 } @_ZNK11xalanc_1_1010XalanDequeINS_9NameSpaceENS_32ConstructWithMemoryManagerTraitsIS1_EEE5beginEv(%"class.xalanc_1_10::XalanDeque.3"* %1), !dbg !3813
  %2 = bitcast %"struct.xalanc_1_10::XalanDequeIterator.7"* %i to { %"class.xalanc_1_10::XalanDeque.3"*, i64 }*, !dbg !3813
  %3 = getelementptr inbounds { %"class.xalanc_1_10::XalanDeque.3"*, i64 }, { %"class.xalanc_1_10::XalanDeque.3"*, i64 }* %2, i32 0, i32 0, !dbg !3813
  %4 = extractvalue { %"class.xalanc_1_10::XalanDeque.3"*, i64 } %call3, 0, !dbg !3813
  store %"class.xalanc_1_10::XalanDeque.3"* %4, %"class.xalanc_1_10::XalanDeque.3"** %3, align 8, !dbg !3813
  %5 = getelementptr inbounds { %"class.xalanc_1_10::XalanDeque.3"*, i64 }, { %"class.xalanc_1_10::XalanDeque.3"*, i64 }* %2, i32 0, i32 1, !dbg !3813
  %6 = extractvalue { %"class.xalanc_1_10::XalanDeque.3"*, i64 } %call3, 1, !dbg !3813
  store i64 %6, i64* %5, align 8, !dbg !3813
  call void @llvm.dbg.declare(metadata %"struct.xalanc_1_10::XalanDequeIterator.7"* %theEnd, metadata !3814, metadata !DIExpression()), !dbg !3816
  %7 = load %"class.xalanc_1_10::XalanDeque.3"*, %"class.xalanc_1_10::XalanDeque.3"** %theNamespaces, align 8, !dbg !3817
  %call4 = call { %"class.xalanc_1_10::XalanDeque.3"*, i64 } @_ZNK11xalanc_1_1010XalanDequeINS_9NameSpaceENS_32ConstructWithMemoryManagerTraitsIS1_EEE3endEv(%"class.xalanc_1_10::XalanDeque.3"* %7), !dbg !3818
  %8 = bitcast %"struct.xalanc_1_10::XalanDequeIterator.7"* %theEnd to { %"class.xalanc_1_10::XalanDeque.3"*, i64 }*, !dbg !3818
  %9 = getelementptr inbounds { %"class.xalanc_1_10::XalanDeque.3"*, i64 }, { %"class.xalanc_1_10::XalanDeque.3"*, i64 }* %8, i32 0, i32 0, !dbg !3818
  %10 = extractvalue { %"class.xalanc_1_10::XalanDeque.3"*, i64 } %call4, 0, !dbg !3818
  store %"class.xalanc_1_10::XalanDeque.3"* %10, %"class.xalanc_1_10::XalanDeque.3"** %9, align 8, !dbg !3818
  %11 = getelementptr inbounds { %"class.xalanc_1_10::XalanDeque.3"*, i64 }, { %"class.xalanc_1_10::XalanDeque.3"*, i64 }* %8, i32 0, i32 1, !dbg !3818
  %12 = extractvalue { %"class.xalanc_1_10::XalanDeque.3"*, i64 } %call4, 1, !dbg !3818
  store i64 %12, i64* %11, align 8, !dbg !3818
  br label %while.cond, !dbg !3819

while.cond:                                       ; preds = %if.end, %if.then
  %call5 = call zeroext i1 @_ZNK11xalanc_1_1018XalanDequeIteratorINS_29XalanDequeConstIteratorTraitsINS_9NameSpaceEEENS_10XalanDequeIS2_NS_32ConstructWithMemoryManagerTraitsIS2_EEEEEneERKS8_(%"struct.xalanc_1_10::XalanDequeIterator.7"* %i, %"struct.xalanc_1_10::XalanDequeIterator.7"* dereferenceable(16) %theEnd), !dbg !3820
  br i1 %call5, label %land.rhs, label %land.end, !dbg !3821

land.rhs:                                         ; preds = %while.cond
  %13 = load i8, i8* %fResult, align 1, !dbg !3822
  %tobool6 = trunc i8 %13 to i1, !dbg !3822
  %conv7 = zext i1 %tobool6 to i32, !dbg !3822
  %cmp8 = icmp eq i32 %conv7, 0, !dbg !3823
  br label %land.end

land.end:                                         ; preds = %land.rhs, %while.cond
  %14 = phi i1 [ false, %while.cond ], [ %cmp8, %land.rhs ], !dbg !3824
  br i1 %14, label %while.body, label %while.end, !dbg !3819

while.body:                                       ; preds = %land.end
  call void @llvm.dbg.declare(metadata %"class.xalanc_1_10::NameSpace"** %ns, metadata !3825, metadata !DIExpression()), !dbg !3827
  %call9 = call dereferenceable(80) %"class.xalanc_1_10::NameSpace"* @_ZN11xalanc_1_1018XalanDequeIteratorINS_29XalanDequeConstIteratorTraitsINS_9NameSpaceEEENS_10XalanDequeIS2_NS_32ConstructWithMemoryManagerTraitsIS2_EEEEEdeEv(%"struct.xalanc_1_10::XalanDequeIterator.7"* %i), !dbg !3828
  store %"class.xalanc_1_10::NameSpace"* %call9, %"class.xalanc_1_10::NameSpace"** %ns, align 8, !dbg !3827
  call void @llvm.dbg.declare(metadata %"class.xalanc_1_10::XalanDOMString"** %thisPrefix, metadata !3829, metadata !DIExpression()), !dbg !3830
  %15 = load %"class.xalanc_1_10::NameSpace"*, %"class.xalanc_1_10::NameSpace"** %ns, align 8, !dbg !3831
  %call10 = call dereferenceable(40) %"class.xalanc_1_10::XalanDOMString"* @_ZNK11xalanc_1_109NameSpace9getPrefixEv(%"class.xalanc_1_10::NameSpace"* %15), !dbg !3832
  store %"class.xalanc_1_10::XalanDOMString"* %call10, %"class.xalanc_1_10::XalanDOMString"** %thisPrefix, align 8, !dbg !3830
  %16 = load %"class.xalanc_1_10::XalanDOMString"*, %"class.xalanc_1_10::XalanDOMString"** %thePrefix.addr, align 8, !dbg !3833
  %17 = load %"class.xalanc_1_10::XalanDOMString"*, %"class.xalanc_1_10::XalanDOMString"** %thisPrefix, align 8, !dbg !3835
  %call11 = call zeroext i1 @_ZN11xalanc_1_10eqERKNS_14XalanDOMStringES2_(%"class.xalanc_1_10::XalanDOMString"* dereferenceable(40) %16, %"class.xalanc_1_10::XalanDOMString"* dereferenceable(40) %17), !dbg !3836
  br i1 %call11, label %if.then12, label %if.else, !dbg !3837

if.then12:                                        ; preds = %while.body
  store i8 1, i8* %fResult, align 1, !dbg !3838
  br label %if.end, !dbg !3840

if.else:                                          ; preds = %while.body
  %call13 = call dereferenceable(16) %"struct.xalanc_1_10::XalanDequeIterator.7"* @_ZN11xalanc_1_1018XalanDequeIteratorINS_29XalanDequeConstIteratorTraitsINS_9NameSpaceEEENS_10XalanDequeIS2_NS_32ConstructWithMemoryManagerTraitsIS2_EEEEEppEv(%"struct.xalanc_1_10::XalanDequeIterator.7"* %i), !dbg !3841
  br label %if.end

if.end:                                           ; preds = %if.else, %if.then12
  br label %while.cond, !dbg !3819, !llvm.loop !3843

while.end:                                        ; preds = %land.end
  br label %if.end14, !dbg !3845

if.end14:                                         ; preds = %while.end, %entry
  %18 = load i8, i8* %fResult, align 1, !dbg !3846
  %tobool15 = trunc i8 %18 to i1, !dbg !3846
  ret i1 %tobool15, !dbg !3847
}

; Function Attrs: noinline uwtable
define linkonce_odr dso_local { %"class.xalanc_1_10::XalanDeque.3"*, i64 } @_ZNK11xalanc_1_1010XalanDequeINS_9NameSpaceENS_32ConstructWithMemoryManagerTraitsIS1_EEE5beginEv(%"class.xalanc_1_10::XalanDeque.3"* %this) #0 comdat align 2 !dbg !3848 {
entry:
  %retval = alloca %"struct.xalanc_1_10::XalanDequeIterator.7", align 8
  %this.addr = alloca %"class.xalanc_1_10::XalanDeque.3"*, align 8
  store %"class.xalanc_1_10::XalanDeque.3"* %this, %"class.xalanc_1_10::XalanDeque.3"** %this.addr, align 8
  call void @llvm.dbg.declare(metadata %"class.xalanc_1_10::XalanDeque.3"** %this.addr, metadata !3849, metadata !DIExpression()), !dbg !3850
  %this1 = load %"class.xalanc_1_10::XalanDeque.3"*, %"class.xalanc_1_10::XalanDeque.3"** %this.addr, align 8
  call void @_ZN11xalanc_1_1018XalanDequeIteratorINS_29XalanDequeConstIteratorTraitsINS_9NameSpaceEEENS_10XalanDequeIS2_NS_32ConstructWithMemoryManagerTraitsIS2_EEEEEC2EPS7_m(%"struct.xalanc_1_10::XalanDequeIterator.7"* %retval, %"class.xalanc_1_10::XalanDeque.3"* %this1, i64 0), !dbg !3851
  %0 = bitcast %"struct.xalanc_1_10::XalanDequeIterator.7"* %retval to { %"class.xalanc_1_10::XalanDeque.3"*, i64 }*, !dbg !3852
  %1 = load { %"class.xalanc_1_10::XalanDeque.3"*, i64 }, { %"class.xalanc_1_10::XalanDeque.3"*, i64 }* %0, align 8, !dbg !3852
  ret { %"class.xalanc_1_10::XalanDeque.3"*, i64 } %1, !dbg !3852
}

; Function Attrs: noinline uwtable
define linkonce_odr dso_local { %"class.xalanc_1_10::XalanDeque.3"*, i64 } @_ZNK11xalanc_1_1010XalanDequeINS_9NameSpaceENS_32ConstructWithMemoryManagerTraitsIS1_EEE3endEv(%"class.xalanc_1_10::XalanDeque.3"* %this) #0 comdat align 2 !dbg !3853 {
entry:
  %retval = alloca %"struct.xalanc_1_10::XalanDequeIterator.7", align 8
  %this.addr = alloca %"class.xalanc_1_10::XalanDeque.3"*, align 8
  store %"class.xalanc_1_10::XalanDeque.3"* %this, %"class.xalanc_1_10::XalanDeque.3"** %this.addr, align 8
  call void @llvm.dbg.declare(metadata %"class.xalanc_1_10::XalanDeque.3"** %this.addr, metadata !3854, metadata !DIExpression()), !dbg !3855
  %this1 = load %"class.xalanc_1_10::XalanDeque.3"*, %"class.xalanc_1_10::XalanDeque.3"** %this.addr, align 8
  %call = call i64 @_ZNK11xalanc_1_1010XalanDequeINS_9NameSpaceENS_32ConstructWithMemoryManagerTraitsIS1_EEE4sizeEv(%"class.xalanc_1_10::XalanDeque.3"* %this1), !dbg !3856
  call void @_ZN11xalanc_1_1018XalanDequeIteratorINS_29XalanDequeConstIteratorTraitsINS_9NameSpaceEEENS_10XalanDequeIS2_NS_32ConstructWithMemoryManagerTraitsIS2_EEEEEC2EPS7_m(%"struct.xalanc_1_10::XalanDequeIterator.7"* %retval, %"class.xalanc_1_10::XalanDeque.3"* %this1, i64 %call), !dbg !3857
  %0 = bitcast %"struct.xalanc_1_10::XalanDequeIterator.7"* %retval to { %"class.xalanc_1_10::XalanDeque.3"*, i64 }*, !dbg !3858
  %1 = load { %"class.xalanc_1_10::XalanDeque.3"*, i64 }, { %"class.xalanc_1_10::XalanDeque.3"*, i64 }* %0, align 8, !dbg !3858
  ret { %"class.xalanc_1_10::XalanDeque.3"*, i64 } %1, !dbg !3858
}

; Function Attrs: noinline uwtable
define linkonce_odr dso_local zeroext i1 @_ZNK11xalanc_1_1018XalanDequeIteratorINS_29XalanDequeConstIteratorTraitsINS_9NameSpaceEEENS_10XalanDequeIS2_NS_32ConstructWithMemoryManagerTraitsIS2_EEEEEneERKS8_(%"struct.xalanc_1_10::XalanDequeIterator.7"* %this, %"struct.xalanc_1_10::XalanDequeIterator.7"* dereferenceable(16) %theRhs) #0 comdat align 2 !dbg !3859 {
entry:
  %this.addr = alloca %"struct.xalanc_1_10::XalanDequeIterator.7"*, align 8
  %theRhs.addr = alloca %"struct.xalanc_1_10::XalanDequeIterator.7"*, align 8
  store %"struct.xalanc_1_10::XalanDequeIterator.7"* %this, %"struct.xalanc_1_10::XalanDequeIterator.7"** %this.addr, align 8
  call void @llvm.dbg.declare(metadata %"struct.xalanc_1_10::XalanDequeIterator.7"** %this.addr, metadata !3860, metadata !DIExpression()), !dbg !3862
  store %"struct.xalanc_1_10::XalanDequeIterator.7"* %theRhs, %"struct.xalanc_1_10::XalanDequeIterator.7"** %theRhs.addr, align 8
  call void @llvm.dbg.declare(metadata %"struct.xalanc_1_10::XalanDequeIterator.7"** %theRhs.addr, metadata !3863, metadata !DIExpression()), !dbg !3864
  %this1 = load %"struct.xalanc_1_10::XalanDequeIterator.7"*, %"struct.xalanc_1_10::XalanDequeIterator.7"** %this.addr, align 8
  %0 = load %"struct.xalanc_1_10::XalanDequeIterator.7"*, %"struct.xalanc_1_10::XalanDequeIterator.7"** %theRhs.addr, align 8, !dbg !3865
  %call = call zeroext i1 @_ZNK11xalanc_1_1018XalanDequeIteratorINS_29XalanDequeConstIteratorTraitsINS_9NameSpaceEEENS_10XalanDequeIS2_NS_32ConstructWithMemoryManagerTraitsIS2_EEEEEeqERKS8_(%"struct.xalanc_1_10::XalanDequeIterator.7"* %0, %"struct.xalanc_1_10::XalanDequeIterator.7"* dereferenceable(16) %this1), !dbg !3866
  %lnot = xor i1 %call, true, !dbg !3867
  ret i1 %lnot, !dbg !3868
}

; Function Attrs: noinline uwtable
define linkonce_odr dso_local dereferenceable(80) %"class.xalanc_1_10::NameSpace"* @_ZN11xalanc_1_1018XalanDequeIteratorINS_29XalanDequeConstIteratorTraitsINS_9NameSpaceEEENS_10XalanDequeIS2_NS_32ConstructWithMemoryManagerTraitsIS2_EEEEEdeEv(%"struct.xalanc_1_10::XalanDequeIterator.7"* %this) #0 comdat align 2 !dbg !3869 {
entry:
  %this.addr = alloca %"struct.xalanc_1_10::XalanDequeIterator.7"*, align 8
  store %"struct.xalanc_1_10::XalanDequeIterator.7"* %this, %"struct.xalanc_1_10::XalanDequeIterator.7"** %this.addr, align 8
  call void @llvm.dbg.declare(metadata %"struct.xalanc_1_10::XalanDequeIterator.7"** %this.addr, metadata !3870, metadata !DIExpression()), !dbg !3872
  %this1 = load %"struct.xalanc_1_10::XalanDequeIterator.7"*, %"struct.xalanc_1_10::XalanDequeIterator.7"** %this.addr, align 8
  %m_deque = getelementptr inbounds %"struct.xalanc_1_10::XalanDequeIterator.7", %"struct.xalanc_1_10::XalanDequeIterator.7"* %this1, i32 0, i32 0, !dbg !3873
  %0 = load %"class.xalanc_1_10::XalanDeque.3"*, %"class.xalanc_1_10::XalanDeque.3"** %m_deque, align 8, !dbg !3873
  %m_pos = getelementptr inbounds %"struct.xalanc_1_10::XalanDequeIterator.7", %"struct.xalanc_1_10::XalanDequeIterator.7"* %this1, i32 0, i32 1, !dbg !3874
  %1 = load i64, i64* %m_pos, align 8, !dbg !3874
  %call = call dereferenceable(80) %"class.xalanc_1_10::NameSpace"* @_ZN11xalanc_1_1010XalanDequeINS_9NameSpaceENS_32ConstructWithMemoryManagerTraitsIS1_EEEixEm(%"class.xalanc_1_10::XalanDeque.3"* %0, i64 %1), !dbg !3875
  ret %"class.xalanc_1_10::NameSpace"* %call, !dbg !3876
}

; Function Attrs: noinline nounwind uwtable
define linkonce_odr dso_local dereferenceable(40) %"class.xalanc_1_10::XalanDOMString"* @_ZNK11xalanc_1_109NameSpace9getPrefixEv(%"class.xalanc_1_10::NameSpace"* %this) #2 comdat align 2 !dbg !3877 {
entry:
  %this.addr = alloca %"class.xalanc_1_10::NameSpace"*, align 8
  store %"class.xalanc_1_10::NameSpace"* %this, %"class.xalanc_1_10::NameSpace"** %this.addr, align 8
  call void @llvm.dbg.declare(metadata %"class.xalanc_1_10::NameSpace"** %this.addr, metadata !3878, metadata !DIExpression()), !dbg !3879
  %this1 = load %"class.xalanc_1_10::NameSpace"*, %"class.xalanc_1_10::NameSpace"** %this.addr, align 8
  %m_prefix = getelementptr inbounds %"class.xalanc_1_10::NameSpace", %"class.xalanc_1_10::NameSpace"* %this1, i32 0, i32 0, !dbg !3880
  ret %"class.xalanc_1_10::XalanDOMString"* %m_prefix, !dbg !3881
}

; Function Attrs: noinline uwtable
define linkonce_odr dso_local zeroext i1 @_ZN11xalanc_1_10eqERKNS_14XalanDOMStringES2_(%"class.xalanc_1_10::XalanDOMString"* dereferenceable(40) %theLHS, %"class.xalanc_1_10::XalanDOMString"* dereferenceable(40) %theRHS) #0 comdat !dbg !3882 {
entry:
  %theLHS.addr = alloca %"class.xalanc_1_10::XalanDOMString"*, align 8
  %theRHS.addr = alloca %"class.xalanc_1_10::XalanDOMString"*, align 8
  store %"class.xalanc_1_10::XalanDOMString"* %theLHS, %"class.xalanc_1_10::XalanDOMString"** %theLHS.addr, align 8
  call void @llvm.dbg.declare(metadata %"class.xalanc_1_10::XalanDOMString"** %theLHS.addr, metadata !3883, metadata !DIExpression()), !dbg !3884
  store %"class.xalanc_1_10::XalanDOMString"* %theRHS, %"class.xalanc_1_10::XalanDOMString"** %theRHS.addr, align 8
  call void @llvm.dbg.declare(metadata %"class.xalanc_1_10::XalanDOMString"** %theRHS.addr, metadata !3885, metadata !DIExpression()), !dbg !3886
  %0 = load %"class.xalanc_1_10::XalanDOMString"*, %"class.xalanc_1_10::XalanDOMString"** %theLHS.addr, align 8, !dbg !3887
  %1 = load %"class.xalanc_1_10::XalanDOMString"*, %"class.xalanc_1_10::XalanDOMString"** %theRHS.addr, align 8, !dbg !3888
  %call = call zeroext i1 @_ZN11xalanc_1_1014XalanDOMString6equalsERKS0_S2_(%"class.xalanc_1_10::XalanDOMString"* dereferenceable(40) %0, %"class.xalanc_1_10::XalanDOMString"* dereferenceable(40) %1), !dbg !3889
  ret i1 %call, !dbg !3890
}

; Function Attrs: noinline nounwind uwtable
define linkonce_odr dso_local dereferenceable(16) %"struct.xalanc_1_10::XalanDequeIterator.7"* @_ZN11xalanc_1_1018XalanDequeIteratorINS_29XalanDequeConstIteratorTraitsINS_9NameSpaceEEENS_10XalanDequeIS2_NS_32ConstructWithMemoryManagerTraitsIS2_EEEEEppEv(%"struct.xalanc_1_10::XalanDequeIterator.7"* %this) #2 comdat align 2 !dbg !3891 {
entry:
  %this.addr = alloca %"struct.xalanc_1_10::XalanDequeIterator.7"*, align 8
  store %"struct.xalanc_1_10::XalanDequeIterator.7"* %this, %"struct.xalanc_1_10::XalanDequeIterator.7"** %this.addr, align 8
  call void @llvm.dbg.declare(metadata %"struct.xalanc_1_10::XalanDequeIterator.7"** %this.addr, metadata !3892, metadata !DIExpression()), !dbg !3893
  %this1 = load %"struct.xalanc_1_10::XalanDequeIterator.7"*, %"struct.xalanc_1_10::XalanDequeIterator.7"** %this.addr, align 8
  %m_pos = getelementptr inbounds %"struct.xalanc_1_10::XalanDequeIterator.7", %"struct.xalanc_1_10::XalanDequeIterator.7"* %this1, i32 0, i32 1, !dbg !3894
  %0 = load i64, i64* %m_pos, align 8, !dbg !3895
  %inc = add i64 %0, 1, !dbg !3895
  store i64 %inc, i64* %m_pos, align 8, !dbg !3895
  ret %"struct.xalanc_1_10::XalanDequeIterator.7"* %this1, !dbg !3896
}

; Function Attrs: noinline uwtable
define dso_local void @_ZN11xalanc_1_1021ResultNamespacesStack5clearEv(%"class.xalanc_1_10::ResultNamespacesStack"* %this) #0 align 2 personality i8* bitcast (i32 (...)* @__gxx_personality_v0 to i8*) !dbg !3897 {
entry:
  %this.addr = alloca %"class.xalanc_1_10::ResultNamespacesStack"*, align 8
  %temp = alloca %"class.xalanc_1_10::XalanDeque", align 8
  %exn.slot = alloca i8*
  %ehselector.slot = alloca i32
  %ref.tmp = alloca %"struct.xalanc_1_10::XalanDequeIterator", align 8
  store %"class.xalanc_1_10::ResultNamespacesStack"* %this, %"class.xalanc_1_10::ResultNamespacesStack"** %this.addr, align 8
  call void @llvm.dbg.declare(metadata %"class.xalanc_1_10::ResultNamespacesStack"** %this.addr, metadata !3898, metadata !DIExpression()), !dbg !3899
  %this1 = load %"class.xalanc_1_10::ResultNamespacesStack"*, %"class.xalanc_1_10::ResultNamespacesStack"** %this.addr, align 8
  call void @llvm.dbg.declare(metadata %"class.xalanc_1_10::XalanDeque"* %temp, metadata !3900, metadata !DIExpression()), !dbg !3901
  %call = call dereferenceable(8) %"class.xercesc_2_7::MemoryManager"* @_ZN11xalanc_1_1012XalanMemMgrs14getDummyMemMgrEv(), !dbg !3902
  call void @_ZN11xalanc_1_1010XalanDequeINS0_INS_9NameSpaceENS_32ConstructWithMemoryManagerTraitsIS1_EEEENS2_IS4_EEEC2ERN11xercesc_2_713MemoryManagerEmm(%"class.xalanc_1_10::XalanDeque"* %temp, %"class.xercesc_2_7::MemoryManager"* dereferenceable(8) %call, i64 1, i64 10), !dbg !3901
  %m_resultNamespaces = getelementptr inbounds %"class.xalanc_1_10::ResultNamespacesStack", %"class.xalanc_1_10::ResultNamespacesStack"* %this1, i32 0, i32 0, !dbg !3903
  invoke void @_ZN11xalanc_1_1010XalanDequeINS0_INS_9NameSpaceENS_32ConstructWithMemoryManagerTraitsIS1_EEEENS2_IS4_EEE4swapERS6_(%"class.xalanc_1_10::XalanDeque"* %temp, %"class.xalanc_1_10::XalanDeque"* dereferenceable(80) %m_resultNamespaces)
          to label %invoke.cont unwind label %lpad, !dbg !3904

invoke.cont:                                      ; preds = %entry
  %m_resultNamespaces2 = getelementptr inbounds %"class.xalanc_1_10::ResultNamespacesStack", %"class.xalanc_1_10::ResultNamespacesStack"* %this1, i32 0, i32 0, !dbg !3905
  invoke void @_ZN11xalanc_1_1010XalanDequeINS0_INS_9NameSpaceENS_32ConstructWithMemoryManagerTraitsIS1_EEEENS2_IS4_EEE5beginEv(%"struct.xalanc_1_10::XalanDequeIterator"* sret %ref.tmp, %"class.xalanc_1_10::XalanDeque"* %m_resultNamespaces2)
          to label %invoke.cont3 unwind label %lpad, !dbg !3906

invoke.cont3:                                     ; preds = %invoke.cont
  %m_stackBegin = getelementptr inbounds %"class.xalanc_1_10::ResultNamespacesStack", %"class.xalanc_1_10::ResultNamespacesStack"* %this1, i32 0, i32 1, !dbg !3907
  %call5 = invoke dereferenceable(16) %"struct.xalanc_1_10::XalanDequeIterator"* @_ZN11xalanc_1_1018XalanDequeIteratorINS_24XalanDequeIteratorTraitsINS_10XalanDequeINS_9NameSpaceENS_32ConstructWithMemoryManagerTraitsIS3_EEEEEENS2_IS6_NS4_IS6_EEEEEaSERKSA_(%"struct.xalanc_1_10::XalanDequeIterator"* %m_stackBegin, %"struct.xalanc_1_10::XalanDequeIterator"* dereferenceable(16) %ref.tmp)
          to label %invoke.cont4 unwind label %lpad, !dbg !3908

invoke.cont4:                                     ; preds = %invoke.cont3
  %m_stackBegin6 = getelementptr inbounds %"class.xalanc_1_10::ResultNamespacesStack", %"class.xalanc_1_10::ResultNamespacesStack"* %this1, i32 0, i32 1, !dbg !3909
  %m_stackPosition = getelementptr inbounds %"class.xalanc_1_10::ResultNamespacesStack", %"class.xalanc_1_10::ResultNamespacesStack"* %this1, i32 0, i32 2, !dbg !3910
  %call8 = invoke dereferenceable(16) %"struct.xalanc_1_10::XalanDequeIterator"* @_ZN11xalanc_1_1018XalanDequeIteratorINS_24XalanDequeIteratorTraitsINS_10XalanDequeINS_9NameSpaceENS_32ConstructWithMemoryManagerTraitsIS3_EEEEEENS2_IS6_NS4_IS6_EEEEEaSERKSA_(%"struct.xalanc_1_10::XalanDequeIterator"* %m_stackPosition, %"struct.xalanc_1_10::XalanDequeIterator"* dereferenceable(16) %m_stackBegin6)
          to label %invoke.cont7 unwind label %lpad, !dbg !3911

invoke.cont7:                                     ; preds = %invoke.cont4
  %m_createNewContextStack = getelementptr inbounds %"class.xalanc_1_10::ResultNamespacesStack", %"class.xalanc_1_10::ResultNamespacesStack"* %this1, i32 0, i32 3, !dbg !3912
  invoke void @_ZN11xalanc_1_1011XalanVectorIbNS_31MemoryManagedConstructionTraitsIbEEE5clearEv(%"class.xalanc_1_10::XalanVector.1"* %m_createNewContextStack)
          to label %invoke.cont9 unwind label %lpad, !dbg !3913

invoke.cont9:                                     ; preds = %invoke.cont7
  call void @_ZN11xalanc_1_1010XalanDequeINS0_INS_9NameSpaceENS_32ConstructWithMemoryManagerTraitsIS1_EEEENS2_IS4_EEED2Ev(%"class.xalanc_1_10::XalanDeque"* %temp) #6, !dbg !3914
  ret void, !dbg !3914

lpad:                                             ; preds = %invoke.cont7, %invoke.cont4, %invoke.cont3, %invoke.cont, %entry
  %0 = landingpad { i8*, i32 }
          cleanup, !dbg !3914
  %1 = extractvalue { i8*, i32 } %0, 0, !dbg !3914
  store i8* %1, i8** %exn.slot, align 8, !dbg !3914
  %2 = extractvalue { i8*, i32 } %0, 1, !dbg !3914
  store i32 %2, i32* %ehselector.slot, align 4, !dbg !3914
  call void @_ZN11xalanc_1_1010XalanDequeINS0_INS_9NameSpaceENS_32ConstructWithMemoryManagerTraitsIS1_EEEENS2_IS4_EEED2Ev(%"class.xalanc_1_10::XalanDeque"* %temp) #6, !dbg !3914
  br label %eh.resume, !dbg !3914

eh.resume:                                        ; preds = %lpad
  %exn = load i8*, i8** %exn.slot, align 8, !dbg !3914
  %sel = load i32, i32* %ehselector.slot, align 4, !dbg !3914
  %lpad.val = insertvalue { i8*, i32 } undef, i8* %exn, 0, !dbg !3914
  %lpad.val10 = insertvalue { i8*, i32 } %lpad.val, i32 %sel, 1, !dbg !3914
  resume { i8*, i32 } %lpad.val10, !dbg !3914
}

declare dso_local dereferenceable(8) %"class.xercesc_2_7::MemoryManager"* @_ZN11xalanc_1_1012XalanMemMgrs14getDummyMemMgrEv() #3

; Function Attrs: noinline nounwind uwtable
define linkonce_odr dso_local void @_ZN11xalanc_1_1010XalanDequeINS0_INS_9NameSpaceENS_32ConstructWithMemoryManagerTraitsIS1_EEEENS2_IS4_EEE4swapERS6_(%"class.xalanc_1_10::XalanDeque"* %this, %"class.xalanc_1_10::XalanDeque"* dereferenceable(80) %theRhs) #2 comdat align 2 !dbg !3915 {
entry:
  %this.addr = alloca %"class.xalanc_1_10::XalanDeque"*, align 8
  %theRhs.addr = alloca %"class.xalanc_1_10::XalanDeque"*, align 8
  %tempMemoryManager = alloca %"class.xercesc_2_7::MemoryManager"*, align 8
  store %"class.xalanc_1_10::XalanDeque"* %this, %"class.xalanc_1_10::XalanDeque"** %this.addr, align 8
  call void @llvm.dbg.declare(metadata %"class.xalanc_1_10::XalanDeque"** %this.addr, metadata !3916, metadata !DIExpression()), !dbg !3917
  store %"class.xalanc_1_10::XalanDeque"* %theRhs, %"class.xalanc_1_10::XalanDeque"** %theRhs.addr, align 8
  call void @llvm.dbg.declare(metadata %"class.xalanc_1_10::XalanDeque"** %theRhs.addr, metadata !3918, metadata !DIExpression()), !dbg !3919
  %this1 = load %"class.xalanc_1_10::XalanDeque"*, %"class.xalanc_1_10::XalanDeque"** %this.addr, align 8
  call void @llvm.dbg.declare(metadata %"class.xercesc_2_7::MemoryManager"** %tempMemoryManager, metadata !3920, metadata !DIExpression()), !dbg !3921
  %m_memoryManager = getelementptr inbounds %"class.xalanc_1_10::XalanDeque", %"class.xalanc_1_10::XalanDeque"* %this1, i32 0, i32 0, !dbg !3922
  %0 = load %"class.xercesc_2_7::MemoryManager"*, %"class.xercesc_2_7::MemoryManager"** %m_memoryManager, align 8, !dbg !3922
  store %"class.xercesc_2_7::MemoryManager"* %0, %"class.xercesc_2_7::MemoryManager"** %tempMemoryManager, align 8, !dbg !3921
  %1 = load %"class.xalanc_1_10::XalanDeque"*, %"class.xalanc_1_10::XalanDeque"** %theRhs.addr, align 8, !dbg !3923
  %m_memoryManager2 = getelementptr inbounds %"class.xalanc_1_10::XalanDeque", %"class.xalanc_1_10::XalanDeque"* %1, i32 0, i32 0, !dbg !3924
  %2 = load %"class.xercesc_2_7::MemoryManager"*, %"class.xercesc_2_7::MemoryManager"** %m_memoryManager2, align 8, !dbg !3924
  %m_memoryManager3 = getelementptr inbounds %"class.xalanc_1_10::XalanDeque", %"class.xalanc_1_10::XalanDeque"* %this1, i32 0, i32 0, !dbg !3925
  store %"class.xercesc_2_7::MemoryManager"* %2, %"class.xercesc_2_7::MemoryManager"** %m_memoryManager3, align 8, !dbg !3926
  %3 = load %"class.xercesc_2_7::MemoryManager"*, %"class.xercesc_2_7::MemoryManager"** %tempMemoryManager, align 8, !dbg !3927
  %4 = load %"class.xalanc_1_10::XalanDeque"*, %"class.xalanc_1_10::XalanDeque"** %theRhs.addr, align 8, !dbg !3928
  %m_memoryManager4 = getelementptr inbounds %"class.xalanc_1_10::XalanDeque", %"class.xalanc_1_10::XalanDeque"* %4, i32 0, i32 0, !dbg !3929
  store %"class.xercesc_2_7::MemoryManager"* %3, %"class.xercesc_2_7::MemoryManager"** %m_memoryManager4, align 8, !dbg !3930
  %5 = load %"class.xalanc_1_10::XalanDeque"*, %"class.xalanc_1_10::XalanDeque"** %theRhs.addr, align 8, !dbg !3931
  %m_blockIndex = getelementptr inbounds %"class.xalanc_1_10::XalanDeque", %"class.xalanc_1_10::XalanDeque"* %5, i32 0, i32 2, !dbg !3932
  %m_blockIndex5 = getelementptr inbounds %"class.xalanc_1_10::XalanDeque", %"class.xalanc_1_10::XalanDeque"* %this1, i32 0, i32 2, !dbg !3933
  call void @_ZN11xalanc_1_1011XalanVectorIPNS0_INS_10XalanDequeINS_9NameSpaceENS_32ConstructWithMemoryManagerTraitsIS2_EEEENS3_IS5_EEEENS_31MemoryManagedConstructionTraitsIS8_EEE4swapERSB_(%"class.xalanc_1_10::XalanVector"* %m_blockIndex, %"class.xalanc_1_10::XalanVector"* dereferenceable(32) %m_blockIndex5), !dbg !3934
  %6 = load %"class.xalanc_1_10::XalanDeque"*, %"class.xalanc_1_10::XalanDeque"** %theRhs.addr, align 8, !dbg !3935
  %m_freeBlockVector = getelementptr inbounds %"class.xalanc_1_10::XalanDeque", %"class.xalanc_1_10::XalanDeque"* %6, i32 0, i32 3, !dbg !3936
  %m_freeBlockVector6 = getelementptr inbounds %"class.xalanc_1_10::XalanDeque", %"class.xalanc_1_10::XalanDeque"* %this1, i32 0, i32 3, !dbg !3937
  call void @_ZN11xalanc_1_1011XalanVectorIPNS0_INS_10XalanDequeINS_9NameSpaceENS_32ConstructWithMemoryManagerTraitsIS2_EEEENS3_IS5_EEEENS_31MemoryManagedConstructionTraitsIS8_EEE4swapERSB_(%"class.xalanc_1_10::XalanVector"* %m_freeBlockVector, %"class.xalanc_1_10::XalanVector"* dereferenceable(32) %m_freeBlockVector6), !dbg !3938
  ret void, !dbg !3939
}

; Function Attrs: noinline uwtable
define linkonce_odr dso_local void @_ZN11xalanc_1_1011XalanVectorIbNS_31MemoryManagedConstructionTraitsIbEEE5clearEv(%"class.xalanc_1_10::XalanVector.1"* %this) #0 comdat align 2 !dbg !3940 {
entry:
  %this.addr = alloca %"class.xalanc_1_10::XalanVector.1"*, align 8
  store %"class.xalanc_1_10::XalanVector.1"* %this, %"class.xalanc_1_10::XalanVector.1"** %this.addr, align 8
  call void @llvm.dbg.declare(metadata %"class.xalanc_1_10::XalanVector.1"** %this.addr, metadata !3941, metadata !DIExpression()), !dbg !3942
  %this1 = load %"class.xalanc_1_10::XalanVector.1"*, %"class.xalanc_1_10::XalanVector.1"** %this.addr, align 8
  call void @_ZNK11xalanc_1_1011XalanVectorIbNS_31MemoryManagedConstructionTraitsIbEEE10invariantsEv(%"class.xalanc_1_10::XalanVector.1"* %this1), !dbg !3943
  %m_size = getelementptr inbounds %"class.xalanc_1_10::XalanVector.1", %"class.xalanc_1_10::XalanVector.1"* %this1, i32 0, i32 1, !dbg !3944
  %0 = load i64, i64* %m_size, align 8, !dbg !3944
  %cmp = icmp ugt i64 %0, 0, !dbg !3946
  br i1 %cmp, label %if.then, label %if.end, !dbg !3947

if.then:                                          ; preds = %entry
  call void @_ZN11xalanc_1_1011XalanVectorIbNS_31MemoryManagedConstructionTraitsIbEEE12shrinkToSizeEm(%"class.xalanc_1_10::XalanVector.1"* %this1, i64 0), !dbg !3948
  br label %if.end, !dbg !3950

if.end:                                           ; preds = %if.then, %entry
  call void @_ZNK11xalanc_1_1011XalanVectorIbNS_31MemoryManagedConstructionTraitsIbEEE10invariantsEv(%"class.xalanc_1_10::XalanVector.1"* %this1), !dbg !3951
  ret void, !dbg !3952
}

; Function Attrs: noinline uwtable
define linkonce_odr dso_local dereferenceable(40) %"class.xalanc_1_10::XalanDOMString"* @_ZN11xalanc_1_1014XalanDOMStringaSERKS0_(%"class.xalanc_1_10::XalanDOMString"* %this, %"class.xalanc_1_10::XalanDOMString"* dereferenceable(40) %theRHS) #0 comdat align 2 !dbg !3953 {
entry:
  %this.addr = alloca %"class.xalanc_1_10::XalanDOMString"*, align 8
  %theRHS.addr = alloca %"class.xalanc_1_10::XalanDOMString"*, align 8
  store %"class.xalanc_1_10::XalanDOMString"* %this, %"class.xalanc_1_10::XalanDOMString"** %this.addr, align 8
  call void @llvm.dbg.declare(metadata %"class.xalanc_1_10::XalanDOMString"** %this.addr, metadata !3954, metadata !DIExpression()), !dbg !3955
  store %"class.xalanc_1_10::XalanDOMString"* %theRHS, %"class.xalanc_1_10::XalanDOMString"** %theRHS.addr, align 8
  call void @llvm.dbg.declare(metadata %"class.xalanc_1_10::XalanDOMString"** %theRHS.addr, metadata !3956, metadata !DIExpression()), !dbg !3957
  %this1 = load %"class.xalanc_1_10::XalanDOMString"*, %"class.xalanc_1_10::XalanDOMString"** %this.addr, align 8
  %0 = load %"class.xalanc_1_10::XalanDOMString"*, %"class.xalanc_1_10::XalanDOMString"** %theRHS.addr, align 8, !dbg !3958
  %call = call dereferenceable(40) %"class.xalanc_1_10::XalanDOMString"* @_ZN11xalanc_1_1014XalanDOMString6assignERKS0_(%"class.xalanc_1_10::XalanDOMString"* %this1, %"class.xalanc_1_10::XalanDOMString"* dereferenceable(40) %0), !dbg !3959
  ret %"class.xalanc_1_10::XalanDOMString"* %call, !dbg !3960
}

; Function Attrs: noinline uwtable
define linkonce_odr dso_local dereferenceable(40) %"class.xalanc_1_10::XalanDOMString"* @_ZN11xalanc_1_1014XalanDOMString6assignERKS0_(%"class.xalanc_1_10::XalanDOMString"* %this, %"class.xalanc_1_10::XalanDOMString"* dereferenceable(40) %theSource) #0 comdat align 2 !dbg !3961 {
entry:
  %this.addr = alloca %"class.xalanc_1_10::XalanDOMString"*, align 8
  %theSource.addr = alloca %"class.xalanc_1_10::XalanDOMString"*, align 8
  store %"class.xalanc_1_10::XalanDOMString"* %this, %"class.xalanc_1_10::XalanDOMString"** %this.addr, align 8
  call void @llvm.dbg.declare(metadata %"class.xalanc_1_10::XalanDOMString"** %this.addr, metadata !3962, metadata !DIExpression()), !dbg !3963
  store %"class.xalanc_1_10::XalanDOMString"* %theSource, %"class.xalanc_1_10::XalanDOMString"** %theSource.addr, align 8
  call void @llvm.dbg.declare(metadata %"class.xalanc_1_10::XalanDOMString"** %theSource.addr, metadata !3964, metadata !DIExpression()), !dbg !3965
  %this1 = load %"class.xalanc_1_10::XalanDOMString"*, %"class.xalanc_1_10::XalanDOMString"** %this.addr, align 8
  call void @_ZNK11xalanc_1_1014XalanDOMString10invariantsEv(%"class.xalanc_1_10::XalanDOMString"* %this1), !dbg !3966
  %0 = load %"class.xalanc_1_10::XalanDOMString"*, %"class.xalanc_1_10::XalanDOMString"** %theSource.addr, align 8, !dbg !3967
  %cmp = icmp ne %"class.xalanc_1_10::XalanDOMString"* %0, %this1, !dbg !3969
  br i1 %cmp, label %if.then, label %if.end, !dbg !3970

if.then:                                          ; preds = %entry
  %1 = load %"class.xalanc_1_10::XalanDOMString"*, %"class.xalanc_1_10::XalanDOMString"** %theSource.addr, align 8, !dbg !3971
  %m_data = getelementptr inbounds %"class.xalanc_1_10::XalanDOMString", %"class.xalanc_1_10::XalanDOMString"* %1, i32 0, i32 0, !dbg !3973
  %m_data2 = getelementptr inbounds %"class.xalanc_1_10::XalanDOMString", %"class.xalanc_1_10::XalanDOMString"* %this1, i32 0, i32 0, !dbg !3974
  %call = call dereferenceable(32) %"class.xalanc_1_10::XalanVector.2"* @_ZN11xalanc_1_1011XalanVectorItNS_31MemoryManagedConstructionTraitsItEEEaSERKS3_(%"class.xalanc_1_10::XalanVector.2"* %m_data2, %"class.xalanc_1_10::XalanVector.2"* dereferenceable(32) %m_data), !dbg !3975
  %2 = load %"class.xalanc_1_10::XalanDOMString"*, %"class.xalanc_1_10::XalanDOMString"** %theSource.addr, align 8, !dbg !3976
  %m_size = getelementptr inbounds %"class.xalanc_1_10::XalanDOMString", %"class.xalanc_1_10::XalanDOMString"* %2, i32 0, i32 1, !dbg !3977
  %3 = load i32, i32* %m_size, align 8, !dbg !3977
  %m_size3 = getelementptr inbounds %"class.xalanc_1_10::XalanDOMString", %"class.xalanc_1_10::XalanDOMString"* %this1, i32 0, i32 1, !dbg !3978
  store i32 %3, i32* %m_size3, align 8, !dbg !3979
  br label %if.end, !dbg !3980

if.end:                                           ; preds = %if.then, %entry
  call void @_ZNK11xalanc_1_1014XalanDOMString10invariantsEv(%"class.xalanc_1_10::XalanDOMString"* %this1), !dbg !3981
  ret %"class.xalanc_1_10::XalanDOMString"* %this1, !dbg !3982
}

; Function Attrs: noinline nounwind uwtable
define linkonce_odr dso_local void @_ZNK11xalanc_1_1014XalanDOMString10invariantsEv(%"class.xalanc_1_10::XalanDOMString"* %this) #2 comdat align 2 !dbg !3983 {
entry:
  %this.addr = alloca %"class.xalanc_1_10::XalanDOMString"*, align 8
  store %"class.xalanc_1_10::XalanDOMString"* %this, %"class.xalanc_1_10::XalanDOMString"** %this.addr, align 8
  call void @llvm.dbg.declare(metadata %"class.xalanc_1_10::XalanDOMString"** %this.addr, metadata !3984, metadata !DIExpression()), !dbg !3985
  %this1 = load %"class.xalanc_1_10::XalanDOMString"*, %"class.xalanc_1_10::XalanDOMString"** %this.addr, align 8
  ret void, !dbg !3986
}

; Function Attrs: noinline uwtable
define linkonce_odr dso_local dereferenceable(32) %"class.xalanc_1_10::XalanVector.2"* @_ZN11xalanc_1_1011XalanVectorItNS_31MemoryManagedConstructionTraitsItEEEaSERKS3_(%"class.xalanc_1_10::XalanVector.2"* %this, %"class.xalanc_1_10::XalanVector.2"* dereferenceable(32) %theRHS) #0 comdat align 2 personality i8* bitcast (i32 (...)* @__gxx_personality_v0 to i8*) !dbg !3987 {
entry:
  %this.addr = alloca %"class.xalanc_1_10::XalanVector.2"*, align 8
  %theRHS.addr = alloca %"class.xalanc_1_10::XalanVector.2"*, align 8
  %theTemp = alloca %"class.xalanc_1_10::XalanVector.2", align 8
  %exn.slot = alloca i8*
  %ehselector.slot = alloca i32
  %theRHSCopyEnd = alloca i16*, align 8
  store %"class.xalanc_1_10::XalanVector.2"* %this, %"class.xalanc_1_10::XalanVector.2"** %this.addr, align 8
  call void @llvm.dbg.declare(metadata %"class.xalanc_1_10::XalanVector.2"** %this.addr, metadata !3988, metadata !DIExpression()), !dbg !3989
  store %"class.xalanc_1_10::XalanVector.2"* %theRHS, %"class.xalanc_1_10::XalanVector.2"** %theRHS.addr, align 8
  call void @llvm.dbg.declare(metadata %"class.xalanc_1_10::XalanVector.2"** %theRHS.addr, metadata !3990, metadata !DIExpression()), !dbg !3991
  %this1 = load %"class.xalanc_1_10::XalanVector.2"*, %"class.xalanc_1_10::XalanVector.2"** %this.addr, align 8
  call void @_ZNK11xalanc_1_1011XalanVectorItNS_31MemoryManagedConstructionTraitsItEEE10invariantsEv(%"class.xalanc_1_10::XalanVector.2"* %this1), !dbg !3992
  %0 = load %"class.xalanc_1_10::XalanVector.2"*, %"class.xalanc_1_10::XalanVector.2"** %theRHS.addr, align 8, !dbg !3993
  %cmp = icmp ne %"class.xalanc_1_10::XalanVector.2"* %0, %this1, !dbg !3995
  br i1 %cmp, label %if.then, label %if.end23, !dbg !3996

if.then:                                          ; preds = %entry
  %m_allocation = getelementptr inbounds %"class.xalanc_1_10::XalanVector.2", %"class.xalanc_1_10::XalanVector.2"* %this1, i32 0, i32 2, !dbg !3997
  %1 = load i64, i64* %m_allocation, align 8, !dbg !3997
  %2 = load %"class.xalanc_1_10::XalanVector.2"*, %"class.xalanc_1_10::XalanVector.2"** %theRHS.addr, align 8, !dbg !4000
  %m_size = getelementptr inbounds %"class.xalanc_1_10::XalanVector.2", %"class.xalanc_1_10::XalanVector.2"* %2, i32 0, i32 1, !dbg !4001
  %3 = load i64, i64* %m_size, align 8, !dbg !4001
  %cmp2 = icmp ult i64 %1, %3, !dbg !4002
  br i1 %cmp2, label %if.then3, label %if.else, !dbg !4003

if.then3:                                         ; preds = %if.then
  call void @llvm.dbg.declare(metadata %"class.xalanc_1_10::XalanVector.2"* %theTemp, metadata !4004, metadata !DIExpression()), !dbg !4006
  %4 = load %"class.xalanc_1_10::XalanVector.2"*, %"class.xalanc_1_10::XalanVector.2"** %theRHS.addr, align 8, !dbg !4007
  %m_memoryManager = getelementptr inbounds %"class.xalanc_1_10::XalanVector.2", %"class.xalanc_1_10::XalanVector.2"* %this1, i32 0, i32 0, !dbg !4008
  %5 = load %"class.xercesc_2_7::MemoryManager"*, %"class.xercesc_2_7::MemoryManager"** %m_memoryManager, align 8, !dbg !4008
  call void @_ZN11xalanc_1_1011XalanVectorItNS_31MemoryManagedConstructionTraitsItEEEC2ERKS3_RN11xercesc_2_713MemoryManagerEm(%"class.xalanc_1_10::XalanVector.2"* %theTemp, %"class.xalanc_1_10::XalanVector.2"* dereferenceable(32) %4, %"class.xercesc_2_7::MemoryManager"* dereferenceable(8) %5, i64 0), !dbg !4006
  invoke void @_ZN11xalanc_1_1011XalanVectorItNS_31MemoryManagedConstructionTraitsItEEE4swapERS3_(%"class.xalanc_1_10::XalanVector.2"* %this1, %"class.xalanc_1_10::XalanVector.2"* dereferenceable(32) %theTemp)
          to label %invoke.cont unwind label %lpad, !dbg !4009

invoke.cont:                                      ; preds = %if.then3
  call void @_ZN11xalanc_1_1011XalanVectorItNS_31MemoryManagedConstructionTraitsItEEED2Ev(%"class.xalanc_1_10::XalanVector.2"* %theTemp) #6, !dbg !4010
  br label %if.end22, !dbg !4011

lpad:                                             ; preds = %if.then3
  %6 = landingpad { i8*, i32 }
          cleanup, !dbg !4012
  %7 = extractvalue { i8*, i32 } %6, 0, !dbg !4012
  store i8* %7, i8** %exn.slot, align 8, !dbg !4012
  %8 = extractvalue { i8*, i32 } %6, 1, !dbg !4012
  store i32 %8, i32* %ehselector.slot, align 4, !dbg !4012
  call void @_ZN11xalanc_1_1011XalanVectorItNS_31MemoryManagedConstructionTraitsItEEED2Ev(%"class.xalanc_1_10::XalanVector.2"* %theTemp) #6, !dbg !4010
  br label %eh.resume, !dbg !4010

if.else:                                          ; preds = %if.then
  call void @llvm.dbg.declare(metadata i16** %theRHSCopyEnd, metadata !4013, metadata !DIExpression()), !dbg !4015
  %9 = load %"class.xalanc_1_10::XalanVector.2"*, %"class.xalanc_1_10::XalanVector.2"** %theRHS.addr, align 8, !dbg !4016
  %call = call i16* @_ZNK11xalanc_1_1011XalanVectorItNS_31MemoryManagedConstructionTraitsItEEE3endEv(%"class.xalanc_1_10::XalanVector.2"* %9), !dbg !4017
  store i16* %call, i16** %theRHSCopyEnd, align 8, !dbg !4015
  %m_size4 = getelementptr inbounds %"class.xalanc_1_10::XalanVector.2", %"class.xalanc_1_10::XalanVector.2"* %this1, i32 0, i32 1, !dbg !4018
  %10 = load i64, i64* %m_size4, align 8, !dbg !4018
  %11 = load %"class.xalanc_1_10::XalanVector.2"*, %"class.xalanc_1_10::XalanVector.2"** %theRHS.addr, align 8, !dbg !4020
  %m_size5 = getelementptr inbounds %"class.xalanc_1_10::XalanVector.2", %"class.xalanc_1_10::XalanVector.2"* %11, i32 0, i32 1, !dbg !4021
  %12 = load i64, i64* %m_size5, align 8, !dbg !4021
  %cmp6 = icmp ugt i64 %10, %12, !dbg !4022
  br i1 %cmp6, label %if.then7, label %if.else9, !dbg !4023

if.then7:                                         ; preds = %if.else
  %13 = load %"class.xalanc_1_10::XalanVector.2"*, %"class.xalanc_1_10::XalanVector.2"** %theRHS.addr, align 8, !dbg !4024
  %m_size8 = getelementptr inbounds %"class.xalanc_1_10::XalanVector.2", %"class.xalanc_1_10::XalanVector.2"* %13, i32 0, i32 1, !dbg !4026
  %14 = load i64, i64* %m_size8, align 8, !dbg !4026
  call void @_ZN11xalanc_1_1011XalanVectorItNS_31MemoryManagedConstructionTraitsItEEE12shrinkToSizeEm(%"class.xalanc_1_10::XalanVector.2"* %this1, i64 %14), !dbg !4027
  br label %if.end18, !dbg !4028

if.else9:                                         ; preds = %if.else
  %m_size10 = getelementptr inbounds %"class.xalanc_1_10::XalanVector.2", %"class.xalanc_1_10::XalanVector.2"* %this1, i32 0, i32 1, !dbg !4029
  %15 = load i64, i64* %m_size10, align 8, !dbg !4029
  %16 = load %"class.xalanc_1_10::XalanVector.2"*, %"class.xalanc_1_10::XalanVector.2"** %theRHS.addr, align 8, !dbg !4031
  %m_size11 = getelementptr inbounds %"class.xalanc_1_10::XalanVector.2", %"class.xalanc_1_10::XalanVector.2"* %16, i32 0, i32 1, !dbg !4032
  %17 = load i64, i64* %m_size11, align 8, !dbg !4032
  %cmp12 = icmp ult i64 %15, %17, !dbg !4033
  br i1 %cmp12, label %if.then13, label %if.end, !dbg !4034

if.then13:                                        ; preds = %if.else9
  %18 = load %"class.xalanc_1_10::XalanVector.2"*, %"class.xalanc_1_10::XalanVector.2"** %theRHS.addr, align 8, !dbg !4035
  %call14 = call i16* @_ZNK11xalanc_1_1011XalanVectorItNS_31MemoryManagedConstructionTraitsItEEE5beginEv(%"class.xalanc_1_10::XalanVector.2"* %18), !dbg !4037
  %m_size15 = getelementptr inbounds %"class.xalanc_1_10::XalanVector.2", %"class.xalanc_1_10::XalanVector.2"* %this1, i32 0, i32 1, !dbg !4038
  %19 = load i64, i64* %m_size15, align 8, !dbg !4038
  %add.ptr = getelementptr inbounds i16, i16* %call14, i64 %19, !dbg !4039
  store i16* %add.ptr, i16** %theRHSCopyEnd, align 8, !dbg !4040
  %call16 = call i16* @_ZN11xalanc_1_1011XalanVectorItNS_31MemoryManagedConstructionTraitsItEEE3endEv(%"class.xalanc_1_10::XalanVector.2"* %this1), !dbg !4041
  %20 = load i16*, i16** %theRHSCopyEnd, align 8, !dbg !4042
  %21 = load %"class.xalanc_1_10::XalanVector.2"*, %"class.xalanc_1_10::XalanVector.2"** %theRHS.addr, align 8, !dbg !4043
  %call17 = call i16* @_ZNK11xalanc_1_1011XalanVectorItNS_31MemoryManagedConstructionTraitsItEEE3endEv(%"class.xalanc_1_10::XalanVector.2"* %21), !dbg !4044
  call void @_ZN11xalanc_1_1011XalanVectorItNS_31MemoryManagedConstructionTraitsItEEE6insertEPtPKtS6_(%"class.xalanc_1_10::XalanVector.2"* %this1, i16* %call16, i16* %20, i16* %call17), !dbg !4045
  br label %if.end, !dbg !4046

if.end:                                           ; preds = %if.then13, %if.else9
  br label %if.end18

if.end18:                                         ; preds = %if.end, %if.then7
  %22 = load %"class.xalanc_1_10::XalanVector.2"*, %"class.xalanc_1_10::XalanVector.2"** %theRHS.addr, align 8, !dbg !4047
  %call19 = call i16* @_ZNK11xalanc_1_1011XalanVectorItNS_31MemoryManagedConstructionTraitsItEEE5beginEv(%"class.xalanc_1_10::XalanVector.2"* %22), !dbg !4048
  %23 = load i16*, i16** %theRHSCopyEnd, align 8, !dbg !4049
  %call20 = call i16* @_ZN11xalanc_1_1011XalanVectorItNS_31MemoryManagedConstructionTraitsItEEE5beginEv(%"class.xalanc_1_10::XalanVector.2"* %this1), !dbg !4050
  %call21 = call i16* @_ZSt4copyIPKtPtET0_T_S4_S3_(i16* %call19, i16* %23, i16* %call20), !dbg !4051
  br label %if.end22

if.end22:                                         ; preds = %if.end18, %invoke.cont
  br label %if.end23, !dbg !4052

if.end23:                                         ; preds = %if.end22, %entry
  call void @_ZNK11xalanc_1_1011XalanVectorItNS_31MemoryManagedConstructionTraitsItEEE10invariantsEv(%"class.xalanc_1_10::XalanVector.2"* %this1), !dbg !4053
  ret %"class.xalanc_1_10::XalanVector.2"* %this1, !dbg !4054

eh.resume:                                        ; preds = %lpad
  %exn = load i8*, i8** %exn.slot, align 8, !dbg !4010
  %sel = load i32, i32* %ehselector.slot, align 4, !dbg !4010
  %lpad.val = insertvalue { i8*, i32 } undef, i8* %exn, 0, !dbg !4010
  %lpad.val24 = insertvalue { i8*, i32 } %lpad.val, i32 %sel, 1, !dbg !4010
  resume { i8*, i32 } %lpad.val24, !dbg !4010
}

; Function Attrs: noinline nounwind uwtable
define linkonce_odr dso_local void @_ZNK11xalanc_1_1011XalanVectorItNS_31MemoryManagedConstructionTraitsItEEE10invariantsEv(%"class.xalanc_1_10::XalanVector.2"* %this) #2 comdat align 2 !dbg !4055 {
entry:
  %this.addr = alloca %"class.xalanc_1_10::XalanVector.2"*, align 8
  store %"class.xalanc_1_10::XalanVector.2"* %this, %"class.xalanc_1_10::XalanVector.2"** %this.addr, align 8
  call void @llvm.dbg.declare(metadata %"class.xalanc_1_10::XalanVector.2"** %this.addr, metadata !4056, metadata !DIExpression()), !dbg !4058
  %this1 = load %"class.xalanc_1_10::XalanVector.2"*, %"class.xalanc_1_10::XalanVector.2"** %this.addr, align 8
  ret void, !dbg !4059
}

; Function Attrs: noinline uwtable
define linkonce_odr dso_local void @_ZN11xalanc_1_1011XalanVectorItNS_31MemoryManagedConstructionTraitsItEEEC2ERKS3_RN11xercesc_2_713MemoryManagerEm(%"class.xalanc_1_10::XalanVector.2"* %this, %"class.xalanc_1_10::XalanVector.2"* dereferenceable(32) %theSource, %"class.xercesc_2_7::MemoryManager"* dereferenceable(8) %theManager, i64 %theInitialAllocation) unnamed_addr #0 comdat align 2 personality i8* bitcast (i32 (...)* @__gxx_personality_v0 to i8*) !dbg !4060 {
entry:
  %this.addr = alloca %"class.xalanc_1_10::XalanVector.2"*, align 8
  %theSource.addr = alloca %"class.xalanc_1_10::XalanVector.2"*, align 8
  %theManager.addr = alloca %"class.xercesc_2_7::MemoryManager"*, align 8
  %theInitialAllocation.addr = alloca i64, align 8
  %theTemp = alloca %"class.xalanc_1_10::XalanVector.2", align 8
  %exn.slot = alloca i8*
  %ehselector.slot = alloca i32
  store %"class.xalanc_1_10::XalanVector.2"* %this, %"class.xalanc_1_10::XalanVector.2"** %this.addr, align 8
  call void @llvm.dbg.declare(metadata %"class.xalanc_1_10::XalanVector.2"** %this.addr, metadata !4061, metadata !DIExpression()), !dbg !4062
  store %"class.xalanc_1_10::XalanVector.2"* %theSource, %"class.xalanc_1_10::XalanVector.2"** %theSource.addr, align 8
  call void @llvm.dbg.declare(metadata %"class.xalanc_1_10::XalanVector.2"** %theSource.addr, metadata !4063, metadata !DIExpression()), !dbg !4064
  store %"class.xercesc_2_7::MemoryManager"* %theManager, %"class.xercesc_2_7::MemoryManager"** %theManager.addr, align 8
  call void @llvm.dbg.declare(metadata %"class.xercesc_2_7::MemoryManager"** %theManager.addr, metadata !4065, metadata !DIExpression()), !dbg !4066
  store i64 %theInitialAllocation, i64* %theInitialAllocation.addr, align 8
  call void @llvm.dbg.declare(metadata i64* %theInitialAllocation.addr, metadata !4067, metadata !DIExpression()), !dbg !4068
  %this1 = load %"class.xalanc_1_10::XalanVector.2"*, %"class.xalanc_1_10::XalanVector.2"** %this.addr, align 8
  %m_memoryManager = getelementptr inbounds %"class.xalanc_1_10::XalanVector.2", %"class.xalanc_1_10::XalanVector.2"* %this1, i32 0, i32 0, !dbg !4069
  %0 = load %"class.xercesc_2_7::MemoryManager"*, %"class.xercesc_2_7::MemoryManager"** %theManager.addr, align 8, !dbg !4070
  store %"class.xercesc_2_7::MemoryManager"* %0, %"class.xercesc_2_7::MemoryManager"** %m_memoryManager, align 8, !dbg !4069
  %m_size = getelementptr inbounds %"class.xalanc_1_10::XalanVector.2", %"class.xalanc_1_10::XalanVector.2"* %this1, i32 0, i32 1, !dbg !4071
  store i64 0, i64* %m_size, align 8, !dbg !4071
  %m_allocation = getelementptr inbounds %"class.xalanc_1_10::XalanVector.2", %"class.xalanc_1_10::XalanVector.2"* %this1, i32 0, i32 2, !dbg !4072
  store i64 0, i64* %m_allocation, align 8, !dbg !4072
  %m_data = getelementptr inbounds %"class.xalanc_1_10::XalanVector.2", %"class.xalanc_1_10::XalanVector.2"* %this1, i32 0, i32 3, !dbg !4073
  store i16* null, i16** %m_data, align 8, !dbg !4073
  %1 = load %"class.xalanc_1_10::XalanVector.2"*, %"class.xalanc_1_10::XalanVector.2"** %theSource.addr, align 8, !dbg !4074
  %m_size2 = getelementptr inbounds %"class.xalanc_1_10::XalanVector.2", %"class.xalanc_1_10::XalanVector.2"* %1, i32 0, i32 1, !dbg !4077
  %2 = load i64, i64* %m_size2, align 8, !dbg !4077
  %cmp = icmp ugt i64 %2, 0, !dbg !4078
  br i1 %cmp, label %if.then, label %if.else, !dbg !4079

if.then:                                          ; preds = %entry
  call void @llvm.dbg.declare(metadata %"class.xalanc_1_10::XalanVector.2"* %theTemp, metadata !4080, metadata !DIExpression()), !dbg !4082
  %3 = load %"class.xercesc_2_7::MemoryManager"*, %"class.xercesc_2_7::MemoryManager"** %theManager.addr, align 8, !dbg !4083
  %4 = load %"class.xalanc_1_10::XalanVector.2"*, %"class.xalanc_1_10::XalanVector.2"** %theSource.addr, align 8, !dbg !4084
  %m_size3 = getelementptr inbounds %"class.xalanc_1_10::XalanVector.2", %"class.xalanc_1_10::XalanVector.2"* %4, i32 0, i32 1, !dbg !4085
  %5 = load i64, i64* %m_size3, align 8, !dbg !4085
  %6 = load i64, i64* %theInitialAllocation.addr, align 8, !dbg !4086
  %call = call i64 @_ZN11xalanc_1_1011XalanVectorItNS_31MemoryManagedConstructionTraitsItEEE9local_maxEmm(%"class.xalanc_1_10::XalanVector.2"* %this1, i64 %5, i64 %6), !dbg !4087
  call void @_ZN11xalanc_1_1011XalanVectorItNS_31MemoryManagedConstructionTraitsItEEEC2ERN11xercesc_2_713MemoryManagerEm(%"class.xalanc_1_10::XalanVector.2"* %theTemp, %"class.xercesc_2_7::MemoryManager"* dereferenceable(8) %3, i64 %call), !dbg !4082
  %call4 = invoke i16* @_ZN11xalanc_1_1011XalanVectorItNS_31MemoryManagedConstructionTraitsItEEE5beginEv(%"class.xalanc_1_10::XalanVector.2"* %theTemp)
          to label %invoke.cont unwind label %lpad, !dbg !4088

invoke.cont:                                      ; preds = %if.then
  %7 = load %"class.xalanc_1_10::XalanVector.2"*, %"class.xalanc_1_10::XalanVector.2"** %theSource.addr, align 8, !dbg !4089
  %call6 = invoke i16* @_ZNK11xalanc_1_1011XalanVectorItNS_31MemoryManagedConstructionTraitsItEEE5beginEv(%"class.xalanc_1_10::XalanVector.2"* %7)
          to label %invoke.cont5 unwind label %lpad, !dbg !4090

invoke.cont5:                                     ; preds = %invoke.cont
  %8 = load %"class.xalanc_1_10::XalanVector.2"*, %"class.xalanc_1_10::XalanVector.2"** %theSource.addr, align 8, !dbg !4091
  %call8 = invoke i16* @_ZNK11xalanc_1_1011XalanVectorItNS_31MemoryManagedConstructionTraitsItEEE3endEv(%"class.xalanc_1_10::XalanVector.2"* %8)
          to label %invoke.cont7 unwind label %lpad, !dbg !4092

invoke.cont7:                                     ; preds = %invoke.cont5
  invoke void @_ZN11xalanc_1_1011XalanVectorItNS_31MemoryManagedConstructionTraitsItEEE6insertEPtPKtS6_(%"class.xalanc_1_10::XalanVector.2"* %theTemp, i16* %call4, i16* %call6, i16* %call8)
          to label %invoke.cont9 unwind label %lpad, !dbg !4093

invoke.cont9:                                     ; preds = %invoke.cont7
  invoke void @_ZN11xalanc_1_1011XalanVectorItNS_31MemoryManagedConstructionTraitsItEEE4swapERS3_(%"class.xalanc_1_10::XalanVector.2"* %this1, %"class.xalanc_1_10::XalanVector.2"* dereferenceable(32) %theTemp)
          to label %invoke.cont10 unwind label %lpad, !dbg !4094

invoke.cont10:                                    ; preds = %invoke.cont9
  call void @_ZN11xalanc_1_1011XalanVectorItNS_31MemoryManagedConstructionTraitsItEEED2Ev(%"class.xalanc_1_10::XalanVector.2"* %theTemp) #6, !dbg !4095
  br label %if.end16, !dbg !4096

lpad:                                             ; preds = %invoke.cont9, %invoke.cont7, %invoke.cont5, %invoke.cont, %if.then
  %9 = landingpad { i8*, i32 }
          cleanup, !dbg !4097
  %10 = extractvalue { i8*, i32 } %9, 0, !dbg !4097
  store i8* %10, i8** %exn.slot, align 8, !dbg !4097
  %11 = extractvalue { i8*, i32 } %9, 1, !dbg !4097
  store i32 %11, i32* %ehselector.slot, align 4, !dbg !4097
  call void @_ZN11xalanc_1_1011XalanVectorItNS_31MemoryManagedConstructionTraitsItEEED2Ev(%"class.xalanc_1_10::XalanVector.2"* %theTemp) #6, !dbg !4095
  br label %eh.resume, !dbg !4095

if.else:                                          ; preds = %entry
  %12 = load i64, i64* %theInitialAllocation.addr, align 8, !dbg !4098
  %cmp11 = icmp ugt i64 %12, 0, !dbg !4100
  br i1 %cmp11, label %if.then12, label %if.end, !dbg !4101

if.then12:                                        ; preds = %if.else
  %13 = load i64, i64* %theInitialAllocation.addr, align 8, !dbg !4102
  %call13 = call i16* @_ZN11xalanc_1_1011XalanVectorItNS_31MemoryManagedConstructionTraitsItEEE8allocateEm(%"class.xalanc_1_10::XalanVector.2"* %this1, i64 %13), !dbg !4104
  %m_data14 = getelementptr inbounds %"class.xalanc_1_10::XalanVector.2", %"class.xalanc_1_10::XalanVector.2"* %this1, i32 0, i32 3, !dbg !4105
  store i16* %call13, i16** %m_data14, align 8, !dbg !4106
  %14 = load i64, i64* %theInitialAllocation.addr, align 8, !dbg !4107
  %m_allocation15 = getelementptr inbounds %"class.xalanc_1_10::XalanVector.2", %"class.xalanc_1_10::XalanVector.2"* %this1, i32 0, i32 2, !dbg !4108
  store i64 %14, i64* %m_allocation15, align 8, !dbg !4109
  br label %if.end, !dbg !4110

if.end:                                           ; preds = %if.then12, %if.else
  br label %if.end16

if.end16:                                         ; preds = %if.end, %invoke.cont10
  call void @_ZNK11xalanc_1_1011XalanVectorItNS_31MemoryManagedConstructionTraitsItEEE10invariantsEv(%"class.xalanc_1_10::XalanVector.2"* %this1), !dbg !4111
  ret void, !dbg !4112

eh.resume:                                        ; preds = %lpad
  %exn = load i8*, i8** %exn.slot, align 8, !dbg !4095
  %sel = load i32, i32* %ehselector.slot, align 4, !dbg !4095
  %lpad.val = insertvalue { i8*, i32 } undef, i8* %exn, 0, !dbg !4095
  %lpad.val17 = insertvalue { i8*, i32 } %lpad.val, i32 %sel, 1, !dbg !4095
  resume { i8*, i32 } %lpad.val17, !dbg !4095
}

; Function Attrs: noinline nounwind uwtable
define linkonce_odr dso_local void @_ZN11xalanc_1_1011XalanVectorItNS_31MemoryManagedConstructionTraitsItEEE4swapERS3_(%"class.xalanc_1_10::XalanVector.2"* %this, %"class.xalanc_1_10::XalanVector.2"* dereferenceable(32) %theOther) #2 comdat align 2 !dbg !4113 {
entry:
  %this.addr = alloca %"class.xalanc_1_10::XalanVector.2"*, align 8
  %theOther.addr = alloca %"class.xalanc_1_10::XalanVector.2"*, align 8
  %theTempManager = alloca %"class.xercesc_2_7::MemoryManager"*, align 8
  %theTempLength = alloca i64, align 8
  %theTempAllocation = alloca i64, align 8
  %theTempData = alloca i16*, align 8
  store %"class.xalanc_1_10::XalanVector.2"* %this, %"class.xalanc_1_10::XalanVector.2"** %this.addr, align 8
  call void @llvm.dbg.declare(metadata %"class.xalanc_1_10::XalanVector.2"** %this.addr, metadata !4114, metadata !DIExpression()), !dbg !4115
  store %"class.xalanc_1_10::XalanVector.2"* %theOther, %"class.xalanc_1_10::XalanVector.2"** %theOther.addr, align 8
  call void @llvm.dbg.declare(metadata %"class.xalanc_1_10::XalanVector.2"** %theOther.addr, metadata !4116, metadata !DIExpression()), !dbg !4117
  %this1 = load %"class.xalanc_1_10::XalanVector.2"*, %"class.xalanc_1_10::XalanVector.2"** %this.addr, align 8
  call void @_ZNK11xalanc_1_1011XalanVectorItNS_31MemoryManagedConstructionTraitsItEEE10invariantsEv(%"class.xalanc_1_10::XalanVector.2"* %this1), !dbg !4118
  call void @llvm.dbg.declare(metadata %"class.xercesc_2_7::MemoryManager"** %theTempManager, metadata !4119, metadata !DIExpression()), !dbg !4121
  %m_memoryManager = getelementptr inbounds %"class.xalanc_1_10::XalanVector.2", %"class.xalanc_1_10::XalanVector.2"* %this1, i32 0, i32 0, !dbg !4122
  %0 = load %"class.xercesc_2_7::MemoryManager"*, %"class.xercesc_2_7::MemoryManager"** %m_memoryManager, align 8, !dbg !4122
  store %"class.xercesc_2_7::MemoryManager"* %0, %"class.xercesc_2_7::MemoryManager"** %theTempManager, align 8, !dbg !4121
  call void @llvm.dbg.declare(metadata i64* %theTempLength, metadata !4123, metadata !DIExpression()), !dbg !4125
  %m_size = getelementptr inbounds %"class.xalanc_1_10::XalanVector.2", %"class.xalanc_1_10::XalanVector.2"* %this1, i32 0, i32 1, !dbg !4126
  %1 = load i64, i64* %m_size, align 8, !dbg !4126
  store i64 %1, i64* %theTempLength, align 8, !dbg !4125
  call void @llvm.dbg.declare(metadata i64* %theTempAllocation, metadata !4127, metadata !DIExpression()), !dbg !4128
  %m_allocation = getelementptr inbounds %"class.xalanc_1_10::XalanVector.2", %"class.xalanc_1_10::XalanVector.2"* %this1, i32 0, i32 2, !dbg !4129
  %2 = load i64, i64* %m_allocation, align 8, !dbg !4129
  store i64 %2, i64* %theTempAllocation, align 8, !dbg !4128
  call void @llvm.dbg.declare(metadata i16** %theTempData, metadata !4130, metadata !DIExpression()), !dbg !4132
  %m_data = getelementptr inbounds %"class.xalanc_1_10::XalanVector.2", %"class.xalanc_1_10::XalanVector.2"* %this1, i32 0, i32 3, !dbg !4133
  %3 = load i16*, i16** %m_data, align 8, !dbg !4133
  store i16* %3, i16** %theTempData, align 8, !dbg !4132
  %4 = load %"class.xalanc_1_10::XalanVector.2"*, %"class.xalanc_1_10::XalanVector.2"** %theOther.addr, align 8, !dbg !4134
  %m_memoryManager2 = getelementptr inbounds %"class.xalanc_1_10::XalanVector.2", %"class.xalanc_1_10::XalanVector.2"* %4, i32 0, i32 0, !dbg !4135
  %5 = load %"class.xercesc_2_7::MemoryManager"*, %"class.xercesc_2_7::MemoryManager"** %m_memoryManager2, align 8, !dbg !4135
  %m_memoryManager3 = getelementptr inbounds %"class.xalanc_1_10::XalanVector.2", %"class.xalanc_1_10::XalanVector.2"* %this1, i32 0, i32 0, !dbg !4136
  store %"class.xercesc_2_7::MemoryManager"* %5, %"class.xercesc_2_7::MemoryManager"** %m_memoryManager3, align 8, !dbg !4137
  %6 = load %"class.xalanc_1_10::XalanVector.2"*, %"class.xalanc_1_10::XalanVector.2"** %theOther.addr, align 8, !dbg !4138
  %m_size4 = getelementptr inbounds %"class.xalanc_1_10::XalanVector.2", %"class.xalanc_1_10::XalanVector.2"* %6, i32 0, i32 1, !dbg !4139
  %7 = load i64, i64* %m_size4, align 8, !dbg !4139
  %m_size5 = getelementptr inbounds %"class.xalanc_1_10::XalanVector.2", %"class.xalanc_1_10::XalanVector.2"* %this1, i32 0, i32 1, !dbg !4140
  store i64 %7, i64* %m_size5, align 8, !dbg !4141
  %8 = load %"class.xalanc_1_10::XalanVector.2"*, %"class.xalanc_1_10::XalanVector.2"** %theOther.addr, align 8, !dbg !4142
  %m_allocation6 = getelementptr inbounds %"class.xalanc_1_10::XalanVector.2", %"class.xalanc_1_10::XalanVector.2"* %8, i32 0, i32 2, !dbg !4143
  %9 = load i64, i64* %m_allocation6, align 8, !dbg !4143
  %m_allocation7 = getelementptr inbounds %"class.xalanc_1_10::XalanVector.2", %"class.xalanc_1_10::XalanVector.2"* %this1, i32 0, i32 2, !dbg !4144
  store i64 %9, i64* %m_allocation7, align 8, !dbg !4145
  %10 = load %"class.xalanc_1_10::XalanVector.2"*, %"class.xalanc_1_10::XalanVector.2"** %theOther.addr, align 8, !dbg !4146
  %m_data8 = getelementptr inbounds %"class.xalanc_1_10::XalanVector.2", %"class.xalanc_1_10::XalanVector.2"* %10, i32 0, i32 3, !dbg !4147
  %11 = load i16*, i16** %m_data8, align 8, !dbg !4147
  %m_data9 = getelementptr inbounds %"class.xalanc_1_10::XalanVector.2", %"class.xalanc_1_10::XalanVector.2"* %this1, i32 0, i32 3, !dbg !4148
  store i16* %11, i16** %m_data9, align 8, !dbg !4149
  %12 = load %"class.xercesc_2_7::MemoryManager"*, %"class.xercesc_2_7::MemoryManager"** %theTempManager, align 8, !dbg !4150
  %13 = load %"class.xalanc_1_10::XalanVector.2"*, %"class.xalanc_1_10::XalanVector.2"** %theOther.addr, align 8, !dbg !4151
  %m_memoryManager10 = getelementptr inbounds %"class.xalanc_1_10::XalanVector.2", %"class.xalanc_1_10::XalanVector.2"* %13, i32 0, i32 0, !dbg !4152
  store %"class.xercesc_2_7::MemoryManager"* %12, %"class.xercesc_2_7::MemoryManager"** %m_memoryManager10, align 8, !dbg !4153
  %14 = load i64, i64* %theTempLength, align 8, !dbg !4154
  %15 = load %"class.xalanc_1_10::XalanVector.2"*, %"class.xalanc_1_10::XalanVector.2"** %theOther.addr, align 8, !dbg !4155
  %m_size11 = getelementptr inbounds %"class.xalanc_1_10::XalanVector.2", %"class.xalanc_1_10::XalanVector.2"* %15, i32 0, i32 1, !dbg !4156
  store i64 %14, i64* %m_size11, align 8, !dbg !4157
  %16 = load i64, i64* %theTempAllocation, align 8, !dbg !4158
  %17 = load %"class.xalanc_1_10::XalanVector.2"*, %"class.xalanc_1_10::XalanVector.2"** %theOther.addr, align 8, !dbg !4159
  %m_allocation12 = getelementptr inbounds %"class.xalanc_1_10::XalanVector.2", %"class.xalanc_1_10::XalanVector.2"* %17, i32 0, i32 2, !dbg !4160
  store i64 %16, i64* %m_allocation12, align 8, !dbg !4161
  %18 = load i16*, i16** %theTempData, align 8, !dbg !4162
  %19 = load %"class.xalanc_1_10::XalanVector.2"*, %"class.xalanc_1_10::XalanVector.2"** %theOther.addr, align 8, !dbg !4163
  %m_data13 = getelementptr inbounds %"class.xalanc_1_10::XalanVector.2", %"class.xalanc_1_10::XalanVector.2"* %19, i32 0, i32 3, !dbg !4164
  store i16* %18, i16** %m_data13, align 8, !dbg !4165
  call void @_ZNK11xalanc_1_1011XalanVectorItNS_31MemoryManagedConstructionTraitsItEEE10invariantsEv(%"class.xalanc_1_10::XalanVector.2"* %this1), !dbg !4166
  ret void, !dbg !4167
}

; Function Attrs: noinline nounwind uwtable
define linkonce_odr dso_local void @_ZN11xalanc_1_1011XalanVectorItNS_31MemoryManagedConstructionTraitsItEEED2Ev(%"class.xalanc_1_10::XalanVector.2"* %this) unnamed_addr #2 comdat align 2 personality i8* bitcast (i32 (...)* @__gxx_personality_v0 to i8*) !dbg !4168 {
entry:
  %this.addr = alloca %"class.xalanc_1_10::XalanVector.2"*, align 8
  store %"class.xalanc_1_10::XalanVector.2"* %this, %"class.xalanc_1_10::XalanVector.2"** %this.addr, align 8
  call void @llvm.dbg.declare(metadata %"class.xalanc_1_10::XalanVector.2"** %this.addr, metadata !4169, metadata !DIExpression()), !dbg !4170
  %this1 = load %"class.xalanc_1_10::XalanVector.2"*, %"class.xalanc_1_10::XalanVector.2"** %this.addr, align 8
  invoke void @_ZNK11xalanc_1_1011XalanVectorItNS_31MemoryManagedConstructionTraitsItEEE10invariantsEv(%"class.xalanc_1_10::XalanVector.2"* %this1)
          to label %invoke.cont unwind label %terminate.lpad, !dbg !4171

invoke.cont:                                      ; preds = %entry
  %m_allocation = getelementptr inbounds %"class.xalanc_1_10::XalanVector.2", %"class.xalanc_1_10::XalanVector.2"* %this1, i32 0, i32 2, !dbg !4173
  %0 = load i64, i64* %m_allocation, align 8, !dbg !4173
  %cmp = icmp ne i64 %0, 0, !dbg !4175
  br i1 %cmp, label %if.then, label %if.end, !dbg !4176

if.then:                                          ; preds = %invoke.cont
  %call = invoke i16* @_ZN11xalanc_1_1011XalanVectorItNS_31MemoryManagedConstructionTraitsItEEE5beginEv(%"class.xalanc_1_10::XalanVector.2"* %this1)
          to label %invoke.cont2 unwind label %terminate.lpad, !dbg !4177

invoke.cont2:                                     ; preds = %if.then
  %call4 = invoke i16* @_ZN11xalanc_1_1011XalanVectorItNS_31MemoryManagedConstructionTraitsItEEE3endEv(%"class.xalanc_1_10::XalanVector.2"* %this1)
          to label %invoke.cont3 unwind label %terminate.lpad, !dbg !4179

invoke.cont3:                                     ; preds = %invoke.cont2
  invoke void @_ZN11xalanc_1_1011XalanVectorItNS_31MemoryManagedConstructionTraitsItEEE7destroyEPtS4_(i16* %call, i16* %call4)
          to label %invoke.cont5 unwind label %terminate.lpad, !dbg !4180

invoke.cont5:                                     ; preds = %invoke.cont3
  %m_data = getelementptr inbounds %"class.xalanc_1_10::XalanVector.2", %"class.xalanc_1_10::XalanVector.2"* %this1, i32 0, i32 3, !dbg !4181
  %1 = load i16*, i16** %m_data, align 8, !dbg !4181
  invoke void @_ZN11xalanc_1_1011XalanVectorItNS_31MemoryManagedConstructionTraitsItEEE10deallocateEPt(%"class.xalanc_1_10::XalanVector.2"* %this1, i16* %1)
          to label %invoke.cont6 unwind label %terminate.lpad, !dbg !4182

invoke.cont6:                                     ; preds = %invoke.cont5
  br label %if.end, !dbg !4183

if.end:                                           ; preds = %invoke.cont6, %invoke.cont
  ret void, !dbg !4184

terminate.lpad:                                   ; preds = %invoke.cont5, %invoke.cont3, %invoke.cont2, %if.then, %entry
  %2 = landingpad { i8*, i32 }
          catch i8* null, !dbg !4171
  %3 = extractvalue { i8*, i32 } %2, 0, !dbg !4171
  call void @__clang_call_terminate(i8* %3) #7, !dbg !4171
  unreachable, !dbg !4171
}

; Function Attrs: noinline uwtable
define linkonce_odr dso_local i16* @_ZNK11xalanc_1_1011XalanVectorItNS_31MemoryManagedConstructionTraitsItEEE3endEv(%"class.xalanc_1_10::XalanVector.2"* %this) #0 comdat align 2 !dbg !4185 {
entry:
  %this.addr = alloca %"class.xalanc_1_10::XalanVector.2"*, align 8
  store %"class.xalanc_1_10::XalanVector.2"* %this, %"class.xalanc_1_10::XalanVector.2"** %this.addr, align 8
  call void @llvm.dbg.declare(metadata %"class.xalanc_1_10::XalanVector.2"** %this.addr, metadata !4186, metadata !DIExpression()), !dbg !4187
  %this1 = load %"class.xalanc_1_10::XalanVector.2"*, %"class.xalanc_1_10::XalanVector.2"** %this.addr, align 8
  call void @_ZNK11xalanc_1_1011XalanVectorItNS_31MemoryManagedConstructionTraitsItEEE10invariantsEv(%"class.xalanc_1_10::XalanVector.2"* %this1), !dbg !4188
  %call = call i16* @_ZNK11xalanc_1_1011XalanVectorItNS_31MemoryManagedConstructionTraitsItEEE10endPointerEv(%"class.xalanc_1_10::XalanVector.2"* %this1), !dbg !4189
  ret i16* %call, !dbg !4190
}

; Function Attrs: noinline uwtable
define linkonce_odr dso_local void @_ZN11xalanc_1_1011XalanVectorItNS_31MemoryManagedConstructionTraitsItEEE12shrinkToSizeEm(%"class.xalanc_1_10::XalanVector.2"* %this, i64 %theSize) #0 comdat align 2 !dbg !4191 {
entry:
  %this.addr = alloca %"class.xalanc_1_10::XalanVector.2"*, align 8
  %theSize.addr = alloca i64, align 8
  store %"class.xalanc_1_10::XalanVector.2"* %this, %"class.xalanc_1_10::XalanVector.2"** %this.addr, align 8
  call void @llvm.dbg.declare(metadata %"class.xalanc_1_10::XalanVector.2"** %this.addr, metadata !4192, metadata !DIExpression()), !dbg !4193
  store i64 %theSize, i64* %theSize.addr, align 8
  call void @llvm.dbg.declare(metadata i64* %theSize.addr, metadata !4194, metadata !DIExpression()), !dbg !4195
  %this1 = load %"class.xalanc_1_10::XalanVector.2"*, %"class.xalanc_1_10::XalanVector.2"** %this.addr, align 8
  br label %do.body, !dbg !4196

do.body:                                          ; preds = %do.cond, %entry
  call void @_ZN11xalanc_1_1011XalanVectorItNS_31MemoryManagedConstructionTraitsItEEE8pop_backEv(%"class.xalanc_1_10::XalanVector.2"* %this1), !dbg !4197
  br label %do.cond, !dbg !4199

do.cond:                                          ; preds = %do.body
  %m_size = getelementptr inbounds %"class.xalanc_1_10::XalanVector.2", %"class.xalanc_1_10::XalanVector.2"* %this1, i32 0, i32 1, !dbg !4200
  %0 = load i64, i64* %m_size, align 8, !dbg !4200
  %1 = load i64, i64* %theSize.addr, align 8, !dbg !4201
  %cmp = icmp ugt i64 %0, %1, !dbg !4202
  br i1 %cmp, label %do.body, label %do.end, !dbg !4199, !llvm.loop !4203

do.end:                                           ; preds = %do.cond
  ret void, !dbg !4205
}

; Function Attrs: noinline nounwind uwtable
define linkonce_odr dso_local i16* @_ZNK11xalanc_1_1011XalanVectorItNS_31MemoryManagedConstructionTraitsItEEE5beginEv(%"class.xalanc_1_10::XalanVector.2"* %this) #2 comdat align 2 !dbg !4206 {
entry:
  %this.addr = alloca %"class.xalanc_1_10::XalanVector.2"*, align 8
  store %"class.xalanc_1_10::XalanVector.2"* %this, %"class.xalanc_1_10::XalanVector.2"** %this.addr, align 8
  call void @llvm.dbg.declare(metadata %"class.xalanc_1_10::XalanVector.2"** %this.addr, metadata !4207, metadata !DIExpression()), !dbg !4208
  %this1 = load %"class.xalanc_1_10::XalanVector.2"*, %"class.xalanc_1_10::XalanVector.2"** %this.addr, align 8
  call void @_ZNK11xalanc_1_1011XalanVectorItNS_31MemoryManagedConstructionTraitsItEEE10invariantsEv(%"class.xalanc_1_10::XalanVector.2"* %this1), !dbg !4209
  %m_data = getelementptr inbounds %"class.xalanc_1_10::XalanVector.2", %"class.xalanc_1_10::XalanVector.2"* %this1, i32 0, i32 3, !dbg !4210
  %0 = load i16*, i16** %m_data, align 8, !dbg !4210
  ret i16* %0, !dbg !4211
}

; Function Attrs: noinline uwtable
define linkonce_odr dso_local void @_ZN11xalanc_1_1011XalanVectorItNS_31MemoryManagedConstructionTraitsItEEE6insertEPtPKtS6_(%"class.xalanc_1_10::XalanVector.2"* %this, i16* %thePosition, i16* %theFirst, i16* %theLast) #0 comdat align 2 personality i8* bitcast (i32 (...)* @__gxx_personality_v0 to i8*) !dbg !4212 {
entry:
  %this.addr = alloca %"class.xalanc_1_10::XalanVector.2"*, align 8
  %thePosition.addr = alloca i16*, align 8
  %theFirst.addr = alloca i16*, align 8
  %theLast.addr = alloca i16*, align 8
  %theInsertSize = alloca i64, align 8
  %theTotalSize = alloca i64, align 8
  %thePointer = alloca i16*, align 8
  %theTemp = alloca %"class.xalanc_1_10::XalanVector.2", align 8
  %exn.slot = alloca i8*
  %ehselector.slot = alloca i32
  %theOriginalEnd = alloca i16*, align 8
  %theRightSplitSize = alloca i64, align 8
  %toInsertSplit = alloca i16*, align 8
  %toInsertIter = alloca i16*, align 8
  %toMoveIter = alloca i16*, align 8
  store %"class.xalanc_1_10::XalanVector.2"* %this, %"class.xalanc_1_10::XalanVector.2"** %this.addr, align 8
  call void @llvm.dbg.declare(metadata %"class.xalanc_1_10::XalanVector.2"** %this.addr, metadata !4213, metadata !DIExpression()), !dbg !4214
  store i16* %thePosition, i16** %thePosition.addr, align 8
  call void @llvm.dbg.declare(metadata i16** %thePosition.addr, metadata !4215, metadata !DIExpression()), !dbg !4216
  store i16* %theFirst, i16** %theFirst.addr, align 8
  call void @llvm.dbg.declare(metadata i16** %theFirst.addr, metadata !4217, metadata !DIExpression()), !dbg !4218
  store i16* %theLast, i16** %theLast.addr, align 8
  call void @llvm.dbg.declare(metadata i16** %theLast.addr, metadata !4219, metadata !DIExpression()), !dbg !4220
  %this1 = load %"class.xalanc_1_10::XalanVector.2"*, %"class.xalanc_1_10::XalanVector.2"** %this.addr, align 8
  call void @_ZNK11xalanc_1_1011XalanVectorItNS_31MemoryManagedConstructionTraitsItEEE10invariantsEv(%"class.xalanc_1_10::XalanVector.2"* %this1), !dbg !4221
  call void @llvm.dbg.declare(metadata i64* %theInsertSize, metadata !4222, metadata !DIExpression()), !dbg !4223
  %0 = load i16*, i16** %theFirst.addr, align 8, !dbg !4224
  %1 = load i16*, i16** %theLast.addr, align 8, !dbg !4225
  %call = call i64 @_ZN11xalanc_1_1011XalanVectorItNS_31MemoryManagedConstructionTraitsItEEE14local_distanceEPKtS5_(%"class.xalanc_1_10::XalanVector.2"* %this1, i16* %0, i16* %1), !dbg !4226
  store i64 %call, i64* %theInsertSize, align 8, !dbg !4223
  %2 = load i64, i64* %theInsertSize, align 8, !dbg !4227
  %cmp = icmp eq i64 %2, 0, !dbg !4229
  br i1 %cmp, label %if.then, label %if.end, !dbg !4230

if.then:                                          ; preds = %entry
  br label %return, !dbg !4231

if.end:                                           ; preds = %entry
  call void @llvm.dbg.declare(metadata i64* %theTotalSize, metadata !4233, metadata !DIExpression()), !dbg !4234
  %call2 = call i64 @_ZNK11xalanc_1_1011XalanVectorItNS_31MemoryManagedConstructionTraitsItEEE4sizeEv(%"class.xalanc_1_10::XalanVector.2"* %this1), !dbg !4235
  %3 = load i64, i64* %theInsertSize, align 8, !dbg !4236
  %add = add i64 %call2, %3, !dbg !4237
  store i64 %add, i64* %theTotalSize, align 8, !dbg !4234
  %4 = load i16*, i16** %thePosition.addr, align 8, !dbg !4238
  %call3 = call i16* @_ZN11xalanc_1_1011XalanVectorItNS_31MemoryManagedConstructionTraitsItEEE3endEv(%"class.xalanc_1_10::XalanVector.2"* %this1), !dbg !4240
  %cmp4 = icmp eq i16* %4, %call3, !dbg !4241
  br i1 %cmp4, label %if.then5, label %if.else, !dbg !4242

if.then5:                                         ; preds = %if.end
  call void @llvm.dbg.declare(metadata i16** %thePointer, metadata !4243, metadata !DIExpression()), !dbg !4245
  %5 = load i64, i64* %theTotalSize, align 8, !dbg !4246
  %call6 = call i16* @_ZN11xalanc_1_1011XalanVectorItNS_31MemoryManagedConstructionTraitsItEEE14ensureCapacityEm(%"class.xalanc_1_10::XalanVector.2"* %this1, i64 %5), !dbg !4247
  store i16* %call6, i16** %thePointer, align 8, !dbg !4245
  br label %while.cond, !dbg !4248

while.cond:                                       ; preds = %while.body, %if.then5
  %6 = load i16*, i16** %theFirst.addr, align 8, !dbg !4249
  %7 = load i16*, i16** %theLast.addr, align 8, !dbg !4250
  %cmp7 = icmp ne i16* %6, %7, !dbg !4251
  br i1 %cmp7, label %while.body, label %while.end, !dbg !4248

while.body:                                       ; preds = %while.cond
  %8 = load i16*, i16** %thePointer, align 8, !dbg !4252
  %9 = load i16*, i16** %theFirst.addr, align 8, !dbg !4254
  %m_memoryManager = getelementptr inbounds %"class.xalanc_1_10::XalanVector.2", %"class.xalanc_1_10::XalanVector.2"* %this1, i32 0, i32 0, !dbg !4255
  %10 = load %"class.xercesc_2_7::MemoryManager"*, %"class.xercesc_2_7::MemoryManager"** %m_memoryManager, align 8, !dbg !4255
  %call8 = call i16* @_ZN11xalanc_1_1028ConstructWithNoMemoryManagerItE9constructEPtRKtRN11xercesc_2_713MemoryManagerE(i16* %8, i16* dereferenceable(2) %9, %"class.xercesc_2_7::MemoryManager"* dereferenceable(8) %10), !dbg !4256
  %11 = load i16*, i16** %thePointer, align 8, !dbg !4257
  %incdec.ptr = getelementptr inbounds i16, i16* %11, i32 1, !dbg !4257
  store i16* %incdec.ptr, i16** %thePointer, align 8, !dbg !4257
