; ModuleID = 'ReaderMgr.cpp'
source_filename = "ReaderMgr.cpp"
target datalayout = "e-m:e-p270:32:32-p271:32:32-p272:64:64-i64:64-f80:128-n8:16:32:64-S128"
target triple = "x86_64-unknown-linux-gnu"

%"class.xercesc_2_7::ReaderMgr" = type { %"class.xercesc_2_7::Locator", %"class.xercesc_2_7::XMLEntityDecl"*, %"class.xercesc_2_7::XMLReader"*, %"class.xercesc_2_7::XMLEntityHandler"*, %"class.xercesc_2_7::RefStackOf"*, i32, %"class.xercesc_2_7::RefStackOf.0"*, i8, i32, i8, %"class.xercesc_2_7::MemoryManager"* }
%"class.xercesc_2_7::Locator" = type { i32 (...)** }
%"class.xercesc_2_7::XMLEntityDecl" = type { %"class.xercesc_2_7::XSerializable", i32, i32, i16*, i16*, i16*, i16*, i16*, i16*, %"class.xercesc_2_7::MemoryManager"* }
%"class.xercesc_2_7::XSerializable" = type { i32 (...)** }
%"class.xercesc_2_7::XMLReader" = type { i32, [16384 x i16], i32, [16384 x i8], [16384 x i32], i64, i64, i32, i16*, i8, i8, i16*, i32, [49152 x i8], i32, i32, i32, i8, i32, i32, i8, i8, i16*, %"class.xercesc_2_7::BinInputStream"*, i8, i8, %"class.xercesc_2_7::XMLTranscoder"*, i32, i8*, i8, i32, %"class.xercesc_2_7::MemoryManager"* }
%"class.xercesc_2_7::BinInputStream" = type { i32 (...)** }
%"class.xercesc_2_7::XMLTranscoder" = type opaque
%"class.xercesc_2_7::XMLEntityHandler" = type { i32 (...)** }
%"class.xercesc_2_7::RefStackOf" = type { [8 x i8], %"class.xercesc_2_7::RefVectorOf" }
%"class.xercesc_2_7::RefVectorOf" = type { %"class.xercesc_2_7::BaseRefVectorOf" }
%"class.xercesc_2_7::BaseRefVectorOf" = type { i32 (...)**, i8, i32, i32, %"class.xercesc_2_7::XMLEntityDecl"**, %"class.xercesc_2_7::MemoryManager"* }
%"class.xercesc_2_7::RefStackOf.0" = type { [8 x i8], %"class.xercesc_2_7::RefVectorOf.1" }
%"class.xercesc_2_7::RefVectorOf.1" = type { %"class.xercesc_2_7::BaseRefVectorOf.2" }
%"class.xercesc_2_7::BaseRefVectorOf.2" = type { i32 (...)**, i8, i32, i32, %"class.xercesc_2_7::XMLReader"**, %"class.xercesc_2_7::MemoryManager"* }
%"class.xercesc_2_7::MemoryManager" = type { i32 (...)** }
%"class.xercesc_2_7::XMLDeleter" = type { i32 (...)** }
%"class.xercesc_2_7::XMemory" = type { i8 }
%"class.xercesc_2_7::EndOfEntityException" = type <{ %"class.xercesc_2_7::XMLEntityDecl"*, i32, [4 x i8] }>
%"class.xercesc_2_7::XMLBuffer" = type { i32, i32, i32, i8, %"class.xercesc_2_7::MemoryManager"*, %"class.xercesc_2_7::XMLBufferFullHandler"*, i16* }
%"class.xercesc_2_7::XMLBufferFullHandler" = type { i32 (...)** }
%"class.xercesc_2_7::RuntimeException" = type { %"class.xercesc_2_7::XMLException" }
%"class.xercesc_2_7::XMLException" = type { i32 (...)**, i32, i8*, i32, i16*, %"class.xercesc_2_7::MemoryManager"* }
%"class.xercesc_2_7::EmptyStackException" = type { %"class.xercesc_2_7::XMLException" }
%"class.xercesc_2_7::InputSource" = type <{ i32 (...)**, %"class.xercesc_2_7::MemoryManager"*, i16*, i16*, i16*, i8, [7 x i8] }>
%"class.xercesc_2_7::Janitor" = type { %"class.xercesc_2_7::BinInputStream"* }
%"class.xercesc_2_7::OutOfMemoryException" = type { i8 }
%"struct.xercesc_2_7::ReaderMgr::LastExtEntityInfo" = type { i16*, i16*, i64, i64 }
%"class.xercesc_2_7::XMLResourceIdentifier" = type { i32, i16*, i16*, i16*, i16*, %"class.xercesc_2_7::Locator"* }
%"class.xercesc_2_7::XMLURL" = type <{ i32 (...)**, %"class.xercesc_2_7::MemoryManager"*, i16*, i16*, i16*, i16*, i32, i32, i16*, i16*, i16*, i8, [7 x i8] }>
%"class.xercesc_2_7::Janitor.3" = type { %"class.xercesc_2_7::InputSource"* }
%"class.xercesc_2_7::LocalFileInputSource" = type { %"class.xercesc_2_7::InputSource.base", [7 x i8] }
%"class.xercesc_2_7::InputSource.base" = type <{ i32 (...)**, %"class.xercesc_2_7::MemoryManager"*, i16*, i16*, i16*, i8 }>
%"class.xercesc_2_7::MalformedURLException" = type { %"class.xercesc_2_7::XMLException" }
%"class.xercesc_2_7::URLInputSource" = type { %"class.xercesc_2_7::InputSource.base", [7 x i8], %"class.xercesc_2_7::XMLURL" }
%"class.xercesc_2_7::BinMemInputStream" = type { %"class.xercesc_2_7::BinInputStream", i8*, i32, i32, i32, %"class.xercesc_2_7::MemoryManager"* }
%"class.xercesc_2_7::ArrayIndexOutOfBoundsException" = type { %"class.xercesc_2_7::XMLException" }

$_ZN11xercesc_2_710XMLDeleterD0Ev = comdat any

$_ZN11xercesc_2_710XMLDeleterD2Ev = comdat any

$_ZN11xercesc_2_77XMemoryC2Ev = comdat any

$_ZN11xercesc_2_77LocatorC2Ev = comdat any

$_ZN11xercesc_2_710RefStackOfINS_9XMLReaderEED2Ev = comdat any

$_ZN11xercesc_2_710RefStackOfINS_13XMLEntityDeclEED2Ev = comdat any

$_ZN11xercesc_2_710RefStackOfINS_9XMLReaderEE5emptyEv = comdat any

$_ZN11xercesc_2_79XMLReader11getNextCharERt = comdat any

$_ZN11xercesc_2_79XMLBuffer5resetEv = comdat any

$_ZN11xercesc_2_79XMLReader12peekNextCharERt = comdat any

$_ZNK11xercesc_2_79XMLReader13getNoMoreFlagEv = comdat any

$_ZNK11xercesc_2_79XMLReader12isWhitespaceEt = comdat any

$_ZNK11xercesc_2_79XMLReader12getReaderNumEv = comdat any

$_ZN11xercesc_2_716RuntimeExceptionC2EPKcjNS_10XMLExcepts5CodesEPNS_13MemoryManagerE = comdat any

$_ZN11xercesc_2_716RuntimeExceptionD2Ev = comdat any

$_ZN11xercesc_2_710RefStackOfINS_9XMLReaderEE3popEv = comdat any

$_ZN11xercesc_2_710RefStackOfINS_13XMLEntityDeclEE3popEv = comdat any

$_ZN11xercesc_2_77JanitorINS_14BinInputStreamEEC2EPS1_ = comdat any

$_ZN11xercesc_2_77JanitorINS_14BinInputStreamEE7releaseEv = comdat any

$__clang_call_terminate = comdat any

$_ZN11xercesc_2_79XMLReader12setReaderNumEj = comdat any

$_ZN11xercesc_2_77JanitorINS_14BinInputStreamEED2Ev = comdat any

$_ZN11xercesc_2_79XMLBufferC2EjPNS_13MemoryManagerE = comdat any

$_ZN11xercesc_2_79XMLBuffer12getRawBufferEv = comdat any

$_ZN11xercesc_2_79XMLBuffer3setEPKt = comdat any

$_ZN11xercesc_2_79ReaderMgr17LastExtEntityInfoC2Ev = comdat any

$_ZN11xercesc_2_721XMLResourceIdentifierC2ENS0_22ResourceIdentifierTypeEPKtS3_S3_S3_PKNS_7LocatorE = comdat any

$_ZN11xercesc_2_721XMLResourceIdentifierD2Ev = comdat any

$_ZN11xercesc_2_79XMLBufferD2Ev = comdat any

$_ZN11xercesc_2_721MalformedURLExceptionC2EPKcjNS_10XMLExcepts5CodesEPNS_13MemoryManagerE = comdat any

$_ZN11xercesc_2_721MalformedURLExceptionD2Ev = comdat any

$_ZN11xercesc_2_77JanitorINS_11InputSourceEEC2EPS1_ = comdat any

$_ZN11xercesc_2_77JanitorINS_11InputSourceEE6orphanEv = comdat any

$_ZN11xercesc_2_77JanitorINS_11InputSourceEED2Ev = comdat any

$_ZNK11xercesc_2_79XMLReader14getEncodingStrEv = comdat any

$_ZN11xercesc_2_710RefStackOfINS_13XMLEntityDeclEE4sizeEv = comdat any

$_ZNK11xercesc_2_79XMLReader11getSystemIdEv = comdat any

$_ZNK11xercesc_2_79XMLReader11getPublicIdEv = comdat any

$_ZNK11xercesc_2_79XMLReader13getLineNumberEv = comdat any

$_ZNK11xercesc_2_79XMLReader15getColumnNumberEv = comdat any

$_ZNK11xercesc_2_79XMLReader7getTypeEv = comdat any

$_ZNK11xercesc_2_79XMLReader10getRefFromEv = comdat any

$_ZNK11xercesc_2_713XMLEntityDecl7getNameEv = comdat any

$_ZNK11xercesc_2_710RefStackOfINS_13XMLEntityDeclEE9elementAtEj = comdat any

$_ZN11xercesc_2_79XMLString6equalsEPKtS2_ = comdat any

$_ZN11xercesc_2_710RefStackOfINS_9XMLReaderEEC2EjbPNS_13MemoryManagerE = comdat any

$_ZN11xercesc_2_710RefStackOfINS_13XMLEntityDeclEEC2EjbPNS_13MemoryManagerE = comdat any

$_ZN11xercesc_2_710RefStackOfINS_9XMLReaderEE4pushEPS1_ = comdat any

$_ZN11xercesc_2_710RefStackOfINS_13XMLEntityDeclEE4pushEPS1_ = comdat any

$_ZN11xercesc_2_710RefStackOfINS_9XMLReaderEE17removeAllElementsEv = comdat any

$_ZN11xercesc_2_710RefStackOfINS_13XMLEntityDeclEE17removeAllElementsEv = comdat any

$_ZNK11xercesc_2_713XMLEntityDecl10isExternalEv = comdat any

$_ZN11xercesc_2_710RefStackOfINS_9XMLReaderEE4sizeEv = comdat any

$_ZNK11xercesc_2_710RefStackOfINS_9XMLReaderEE9elementAtEj = comdat any

$_ZNK11xercesc_2_79XMLReader13getThrowAtEndEv = comdat any

$_ZN11xercesc_2_720EndOfEntityExceptionC2EPNS_13XMLEntityDeclEj = comdat any

$_ZN11xercesc_2_720EndOfEntityExceptionD2Ev = comdat any

$_ZNK11xercesc_2_79XMLReader17charsLeftInBufferEv = comdat any

$_ZN11xercesc_2_77LocatorD2Ev = comdat any

$_ZN11xercesc_2_77LocatorD0Ev = comdat any

$_ZN11xercesc_2_716RuntimeExceptionD0Ev = comdat any

$_ZNK11xercesc_2_716RuntimeException7getTypeEv = comdat any

$_ZNK11xercesc_2_716RuntimeException9duplicateEv = comdat any

$_ZN11xercesc_2_716RuntimeExceptionC2ERKS0_ = comdat any

$_ZN11xercesc_2_79XMLBuffer6appendEPKt = comdat any

$_ZN11xercesc_2_721MalformedURLExceptionD0Ev = comdat any

$_ZNK11xercesc_2_721MalformedURLException7getTypeEv = comdat any

$_ZNK11xercesc_2_721MalformedURLException9duplicateEv = comdat any

$_ZN11xercesc_2_721MalformedURLExceptionC2ERKS0_ = comdat any

$_ZN11xercesc_2_711RefVectorOfINS_9XMLReaderEED2Ev = comdat any

$_ZN11xercesc_2_711RefVectorOfINS_9XMLReaderEED0Ev = comdat any

$_ZN11xercesc_2_715BaseRefVectorOfINS_9XMLReaderEE12setElementAtEPS1_j = comdat any

$_ZN11xercesc_2_715BaseRefVectorOfINS_9XMLReaderEE17removeAllElementsEv = comdat any

$_ZN11xercesc_2_715BaseRefVectorOfINS_9XMLReaderEE15removeElementAtEj = comdat any

$_ZN11xercesc_2_715BaseRefVectorOfINS_9XMLReaderEE17removeLastElementEv = comdat any

$_ZN11xercesc_2_715BaseRefVectorOfINS_9XMLReaderEE7cleanupEv = comdat any

$_ZN11xercesc_2_730ArrayIndexOutOfBoundsExceptionC2EPKcjNS_10XMLExcepts5CodesEPNS_13MemoryManagerE = comdat any

$_ZN11xercesc_2_730ArrayIndexOutOfBoundsExceptionD2Ev = comdat any

$_ZN11xercesc_2_730ArrayIndexOutOfBoundsExceptionD0Ev = comdat any

$_ZNK11xercesc_2_730ArrayIndexOutOfBoundsException7getTypeEv = comdat any

$_ZNK11xercesc_2_730ArrayIndexOutOfBoundsException9duplicateEv = comdat any

$_ZN11xercesc_2_730ArrayIndexOutOfBoundsExceptionC2ERKS0_ = comdat any

$_ZN11xercesc_2_711RefVectorOfINS_13XMLEntityDeclEED2Ev = comdat any

$_ZN11xercesc_2_711RefVectorOfINS_13XMLEntityDeclEED0Ev = comdat any

$_ZN11xercesc_2_715BaseRefVectorOfINS_13XMLEntityDeclEE12setElementAtEPS1_j = comdat any

$_ZN11xercesc_2_715BaseRefVectorOfINS_13XMLEntityDeclEE17removeAllElementsEv = comdat any

$_ZN11xercesc_2_715BaseRefVectorOfINS_13XMLEntityDeclEE15removeElementAtEj = comdat any

$_ZN11xercesc_2_715BaseRefVectorOfINS_13XMLEntityDeclEE17removeLastElementEv = comdat any

$_ZN11xercesc_2_715BaseRefVectorOfINS_13XMLEntityDeclEE7cleanupEv = comdat any

$_ZNK11xercesc_2_715BaseRefVectorOfINS_9XMLReaderEE4sizeEv = comdat any

$_ZNK11xercesc_2_715BaseRefVectorOfINS_9XMLReaderEE16getMemoryManagerEv = comdat any

$_ZN11xercesc_2_719EmptyStackExceptionC2EPKcjNS_10XMLExcepts5CodesEPNS_13MemoryManagerE = comdat any

$_ZN11xercesc_2_719EmptyStackExceptionD2Ev = comdat any

$_ZN11xercesc_2_715BaseRefVectorOfINS_9XMLReaderEE15orphanElementAtEj = comdat any

$_ZN11xercesc_2_719EmptyStackExceptionD0Ev = comdat any

$_ZNK11xercesc_2_719EmptyStackException7getTypeEv = comdat any

$_ZNK11xercesc_2_719EmptyStackException9duplicateEv = comdat any

$_ZN11xercesc_2_719EmptyStackExceptionC2ERKS0_ = comdat any

$_ZNK11xercesc_2_715BaseRefVectorOfINS_13XMLEntityDeclEE4sizeEv = comdat any

$_ZNK11xercesc_2_715BaseRefVectorOfINS_13XMLEntityDeclEE16getMemoryManagerEv = comdat any

$_ZN11xercesc_2_715BaseRefVectorOfINS_13XMLEntityDeclEE15orphanElementAtEj = comdat any

$_ZN11xercesc_2_77JanitorINS_14BinInputStreamEE5resetEPS1_ = comdat any

$_ZN11xercesc_2_77JanitorINS_11InputSourceEE5resetEPS1_ = comdat any

$_ZN11xercesc_2_77JanitorINS_11InputSourceEE7releaseEv = comdat any

$_ZNK11xercesc_2_715BaseRefVectorOfINS_13XMLEntityDeclEE9elementAtEj = comdat any

$_ZN11xercesc_2_711RefVectorOfINS_9XMLReaderEEC2EjbPNS_13MemoryManagerE = comdat any

$_ZN11xercesc_2_715BaseRefVectorOfINS_9XMLReaderEEC2EjbPNS_13MemoryManagerE = comdat any

$_ZN11xercesc_2_715BaseRefVectorOfINS_9XMLReaderEED2Ev = comdat any

$_ZN11xercesc_2_715BaseRefVectorOfINS_9XMLReaderEED0Ev = comdat any

$_ZN11xercesc_2_711RefVectorOfINS_13XMLEntityDeclEEC2EjbPNS_13MemoryManagerE = comdat any

$_ZN11xercesc_2_715BaseRefVectorOfINS_13XMLEntityDeclEEC2EjbPNS_13MemoryManagerE = comdat any

$_ZN11xercesc_2_715BaseRefVectorOfINS_13XMLEntityDeclEED2Ev = comdat any

$_ZN11xercesc_2_715BaseRefVectorOfINS_13XMLEntityDeclEED0Ev = comdat any

$_ZN11xercesc_2_715BaseRefVectorOfINS_9XMLReaderEE10addElementEPS1_ = comdat any

$_ZN11xercesc_2_715BaseRefVectorOfINS_9XMLReaderEE19ensureExtraCapacityEj = comdat any

$_ZN11xercesc_2_715BaseRefVectorOfINS_13XMLEntityDeclEE10addElementEPS1_ = comdat any

$_ZN11xercesc_2_715BaseRefVectorOfINS_13XMLEntityDeclEE19ensureExtraCapacityEj = comdat any

$_ZNK11xercesc_2_715BaseRefVectorOfINS_9XMLReaderEE9elementAtEj = comdat any

$_ZTSN11xercesc_2_716RuntimeExceptionE = comdat any

$_ZTIN11xercesc_2_716RuntimeExceptionE = comdat any

$_ZTSN11xercesc_2_720OutOfMemoryExceptionE = comdat any

$_ZTSN11xercesc_2_77XMemoryE = comdat any

$_ZTIN11xercesc_2_77XMemoryE = comdat any

$_ZTIN11xercesc_2_720OutOfMemoryExceptionE = comdat any

$_ZTSN11xercesc_2_721MalformedURLExceptionE = comdat any

$_ZTIN11xercesc_2_721MalformedURLExceptionE = comdat any

$_ZTSN11xercesc_2_720EndOfEntityExceptionE = comdat any

$_ZTIN11xercesc_2_720EndOfEntityExceptionE = comdat any

$_ZTVN11xercesc_2_710XMLDeleterE = comdat any

$_ZTSN11xercesc_2_710XMLDeleterE = comdat any

$_ZTIN11xercesc_2_710XMLDeleterE = comdat any

$_ZTSN11xercesc_2_77LocatorE = comdat any

$_ZTIN11xercesc_2_77LocatorE = comdat any

$_ZTVN11xercesc_2_77LocatorE = comdat any

$_ZTVN11xercesc_2_716RuntimeExceptionE = comdat any

$_ZTVN11xercesc_2_721MalformedURLExceptionE = comdat any

$_ZTVN11xercesc_2_711RefVectorOfINS_9XMLReaderEEE = comdat any

$_ZTSN11xercesc_2_711RefVectorOfINS_9XMLReaderEEE = comdat any

$_ZTSN11xercesc_2_715BaseRefVectorOfINS_9XMLReaderEEE = comdat any

$_ZTIN11xercesc_2_715BaseRefVectorOfINS_9XMLReaderEEE = comdat any

$_ZTIN11xercesc_2_711RefVectorOfINS_9XMLReaderEEE = comdat any

$_ZTSN11xercesc_2_730ArrayIndexOutOfBoundsExceptionE = comdat any

$_ZTIN11xercesc_2_730ArrayIndexOutOfBoundsExceptionE = comdat any

$_ZTVN11xercesc_2_730ArrayIndexOutOfBoundsExceptionE = comdat any

$_ZTVN11xercesc_2_711RefVectorOfINS_13XMLEntityDeclEEE = comdat any

$_ZTSN11xercesc_2_711RefVectorOfINS_13XMLEntityDeclEEE = comdat any

$_ZTSN11xercesc_2_715BaseRefVectorOfINS_13XMLEntityDeclEEE = comdat any

$_ZTIN11xercesc_2_715BaseRefVectorOfINS_13XMLEntityDeclEEE = comdat any

$_ZTIN11xercesc_2_711RefVectorOfINS_13XMLEntityDeclEEE = comdat any

$_ZTSN11xercesc_2_719EmptyStackExceptionE = comdat any

$_ZTIN11xercesc_2_719EmptyStackExceptionE = comdat any

$_ZTVN11xercesc_2_719EmptyStackExceptionE = comdat any

$_ZTVN11xercesc_2_715BaseRefVectorOfINS_9XMLReaderEEE = comdat any

$_ZTVN11xercesc_2_715BaseRefVectorOfINS_13XMLEntityDeclEEE = comdat any

@_ZTVN11xercesc_2_79ReaderMgrE = dso_local unnamed_addr constant { [8 x i8*] } { [8 x i8*] [i8* null, i8* bitcast ({ i8*, i8*, i32, i32, i8*, i64, i8*, i64 }* @_ZTIN11xercesc_2_79ReaderMgrE to i8*), i8* bitcast (void (%"class.xercesc_2_7::ReaderMgr"*)* @_ZN11xercesc_2_79ReaderMgrD1Ev to i8*), i8* bitcast (void (%"class.xercesc_2_7::ReaderMgr"*)* @_ZN11xercesc_2_79ReaderMgrD0Ev to i8*), i8* bitcast (i16* (%"class.xercesc_2_7::ReaderMgr"*)* @_ZNK11xercesc_2_79ReaderMgr11getPublicIdEv to i8*), i8* bitcast (i16* (%"class.xercesc_2_7::ReaderMgr"*)* @_ZNK11xercesc_2_79ReaderMgr11getSystemIdEv to i8*), i8* bitcast (i64 (%"class.xercesc_2_7::ReaderMgr"*)* @_ZNK11xercesc_2_79ReaderMgr13getLineNumberEv to i8*), i8* bitcast (i64 (%"class.xercesc_2_7::ReaderMgr"*)* @_ZNK11xercesc_2_79ReaderMgr15getColumnNumberEv to i8*)] }, align 8
@.str = private unnamed_addr constant [14 x i8] c"ReaderMgr.cpp\00", align 1
@_ZTVN10__cxxabiv120__si_class_type_infoE = external dso_local global i8*
@_ZTSN11xercesc_2_716RuntimeExceptionE = linkonce_odr dso_local constant [34 x i8] c"N11xercesc_2_716RuntimeExceptionE\00", comdat, align 1
@_ZTIN11xercesc_2_712XMLExceptionE = external dso_local constant i8*
@_ZTIN11xercesc_2_716RuntimeExceptionE = linkonce_odr dso_local constant { i8*, i8*, i8* } { i8* bitcast (i8** getelementptr inbounds (i8*, i8** @_ZTVN10__cxxabiv120__si_class_type_infoE, i64 2) to i8*), i8* getelementptr inbounds ([34 x i8], [34 x i8]* @_ZTSN11xercesc_2_716RuntimeExceptionE, i32 0, i32 0), i8* bitcast (i8** @_ZTIN11xercesc_2_712XMLExceptionE to i8*) }, comdat, align 8
@_ZTSN11xercesc_2_720OutOfMemoryExceptionE = linkonce_odr dso_local constant [38 x i8] c"N11xercesc_2_720OutOfMemoryExceptionE\00", comdat, align 1
@_ZTVN10__cxxabiv117__class_type_infoE = external dso_local global i8*
@_ZTSN11xercesc_2_77XMemoryE = linkonce_odr dso_local constant [24 x i8] c"N11xercesc_2_77XMemoryE\00", comdat, align 1
@_ZTIN11xercesc_2_77XMemoryE = linkonce_odr dso_local constant { i8*, i8* } { i8* bitcast (i8** getelementptr inbounds (i8*, i8** @_ZTVN10__cxxabiv117__class_type_infoE, i64 2) to i8*), i8* getelementptr inbounds ([24 x i8], [24 x i8]* @_ZTSN11xercesc_2_77XMemoryE, i32 0, i32 0) }, comdat, align 8
@_ZTIN11xercesc_2_720OutOfMemoryExceptionE = linkonce_odr dso_local constant { i8*, i8*, i8* } { i8* bitcast (i8** getelementptr inbounds (i8*, i8** @_ZTVN10__cxxabiv120__si_class_type_infoE, i64 2) to i8*), i8* getelementptr inbounds ([38 x i8], [38 x i8]* @_ZTSN11xercesc_2_720OutOfMemoryExceptionE, i32 0, i32 0), i8* bitcast ({ i8*, i8* }* @_ZTIN11xercesc_2_77XMemoryE to i8*) }, comdat, align 8
@_ZN11xercesc_2_76XMLUni15fgZeroLenStringE = external dso_local constant [0 x i16], align 2
@_ZTSN11xercesc_2_721MalformedURLExceptionE = linkonce_odr dso_local constant [39 x i8] c"N11xercesc_2_721MalformedURLExceptionE\00", comdat, align 1
@_ZTIN11xercesc_2_721MalformedURLExceptionE = linkonce_odr dso_local constant { i8*, i8*, i8* } { i8* bitcast (i8** getelementptr inbounds (i8*, i8** @_ZTVN10__cxxabiv120__si_class_type_infoE, i64 2) to i8*), i8* getelementptr inbounds ([39 x i8], [39 x i8]* @_ZTSN11xercesc_2_721MalformedURLExceptionE, i32 0, i32 0), i8* bitcast (i8** @_ZTIN11xercesc_2_712XMLExceptionE to i8*) }, comdat, align 8
@_ZTSN11xercesc_2_720EndOfEntityExceptionE = linkonce_odr dso_local constant [38 x i8] c"N11xercesc_2_720EndOfEntityExceptionE\00", comdat, align 1
@_ZTIN11xercesc_2_720EndOfEntityExceptionE = linkonce_odr dso_local constant { i8*, i8* } { i8* bitcast (i8** getelementptr inbounds (i8*, i8** @_ZTVN10__cxxabiv117__class_type_infoE, i64 2) to i8*), i8* getelementptr inbounds ([38 x i8], [38 x i8]* @_ZTSN11xercesc_2_720EndOfEntityExceptionE, i32 0, i32 0) }, comdat, align 8
@_ZTVN11xercesc_2_710XMLDeleterE = linkonce_odr dso_local unnamed_addr constant { [4 x i8*] } { [4 x i8*] [i8* null, i8* bitcast ({ i8*, i8* }* @_ZTIN11xercesc_2_710XMLDeleterE to i8*), i8* bitcast (void (%"class.xercesc_2_7::XMLDeleter"*)* @_ZN11xercesc_2_710XMLDeleterD2Ev to i8*), i8* bitcast (void (%"class.xercesc_2_7::XMLDeleter"*)* @_ZN11xercesc_2_710XMLDeleterD0Ev to i8*)] }, comdat, align 8
@_ZTSN11xercesc_2_710XMLDeleterE = linkonce_odr dso_local constant [28 x i8] c"N11xercesc_2_710XMLDeleterE\00", comdat, align 1
@_ZTIN11xercesc_2_710XMLDeleterE = linkonce_odr dso_local constant { i8*, i8* } { i8* bitcast (i8** getelementptr inbounds (i8*, i8** @_ZTVN10__cxxabiv117__class_type_infoE, i64 2) to i8*), i8* getelementptr inbounds ([28 x i8], [28 x i8]* @_ZTSN11xercesc_2_710XMLDeleterE, i32 0, i32 0) }, comdat, align 8
@_ZTVN10__cxxabiv121__vmi_class_type_infoE = external dso_local global i8*
@_ZTSN11xercesc_2_79ReaderMgrE = dso_local constant [26 x i8] c"N11xercesc_2_79ReaderMgrE\00", align 1
@_ZTSN11xercesc_2_77LocatorE = linkonce_odr dso_local constant [24 x i8] c"N11xercesc_2_77LocatorE\00", comdat, align 1
@_ZTIN11xercesc_2_77LocatorE = linkonce_odr dso_local constant { i8*, i8* } { i8* bitcast (i8** getelementptr inbounds (i8*, i8** @_ZTVN10__cxxabiv117__class_type_infoE, i64 2) to i8*), i8* getelementptr inbounds ([24 x i8], [24 x i8]* @_ZTSN11xercesc_2_77LocatorE, i32 0, i32 0) }, comdat, align 8
@_ZTIN11xercesc_2_79ReaderMgrE = dso_local constant { i8*, i8*, i32, i32, i8*, i64, i8*, i64 } { i8* bitcast (i8** getelementptr inbounds (i8*, i8** @_ZTVN10__cxxabiv121__vmi_class_type_infoE, i64 2) to i8*), i8* getelementptr inbounds ([26 x i8], [26 x i8]* @_ZTSN11xercesc_2_79ReaderMgrE, i32 0, i32 0), i32 0, i32 2, i8* bitcast ({ i8*, i8* }* @_ZTIN11xercesc_2_77XMemoryE to i8*), i64 2, i8* bitcast ({ i8*, i8* }* @_ZTIN11xercesc_2_77LocatorE to i8*), i64 2 }, align 8
@_ZTVN11xercesc_2_77LocatorE = linkonce_odr dso_local unnamed_addr constant { [8 x i8*] } { [8 x i8*] [i8* null, i8* bitcast ({ i8*, i8* }* @_ZTIN11xercesc_2_77LocatorE to i8*), i8* bitcast (void (%"class.xercesc_2_7::Locator"*)* @_ZN11xercesc_2_77LocatorD2Ev to i8*), i8* bitcast (void (%"class.xercesc_2_7::Locator"*)* @_ZN11xercesc_2_77LocatorD0Ev to i8*), i8* bitcast (void ()* @__cxa_pure_virtual to i8*), i8* bitcast (void ()* @__cxa_pure_virtual to i8*), i8* bitcast (void ()* @__cxa_pure_virtual to i8*), i8* bitcast (void ()* @__cxa_pure_virtual to i8*)] }, comdat, align 8
@_ZTVN11xercesc_2_716RuntimeExceptionE = linkonce_odr dso_local unnamed_addr constant { [6 x i8*] } { [6 x i8*] [i8* null, i8* bitcast ({ i8*, i8*, i8* }* @_ZTIN11xercesc_2_716RuntimeExceptionE to i8*), i8* bitcast (void (%"class.xercesc_2_7::RuntimeException"*)* @_ZN11xercesc_2_716RuntimeExceptionD2Ev to i8*), i8* bitcast (void (%"class.xercesc_2_7::RuntimeException"*)* @_ZN11xercesc_2_716RuntimeExceptionD0Ev to i8*), i8* bitcast (i16* (%"class.xercesc_2_7::RuntimeException"*)* @_ZNK11xercesc_2_716RuntimeException7getTypeEv to i8*), i8* bitcast (%"class.xercesc_2_7::XMLException"* (%"class.xercesc_2_7::RuntimeException"*)* @_ZNK11xercesc_2_716RuntimeException9duplicateEv to i8*)] }, comdat, align 8
@_ZN11xercesc_2_76XMLUni23fgRuntimeException_NameE = external dso_local constant [0 x i16], align 2
@_ZTVN11xercesc_2_721MalformedURLExceptionE = linkonce_odr dso_local unnamed_addr constant { [6 x i8*] } { [6 x i8*] [i8* null, i8* bitcast ({ i8*, i8*, i8* }* @_ZTIN11xercesc_2_721MalformedURLExceptionE to i8*), i8* bitcast (void (%"class.xercesc_2_7::MalformedURLException"*)* @_ZN11xercesc_2_721MalformedURLExceptionD2Ev to i8*), i8* bitcast (void (%"class.xercesc_2_7::MalformedURLException"*)* @_ZN11xercesc_2_721MalformedURLExceptionD0Ev to i8*), i8* bitcast (i16* (%"class.xercesc_2_7::MalformedURLException"*)* @_ZNK11xercesc_2_721MalformedURLException7getTypeEv to i8*), i8* bitcast (%"class.xercesc_2_7::XMLException"* (%"class.xercesc_2_7::MalformedURLException"*)* @_ZNK11xercesc_2_721MalformedURLException9duplicateEv to i8*)] }, comdat, align 8
@_ZN11xercesc_2_76XMLUni28fgMalformedURLException_NameE = external dso_local constant [0 x i16], align 2
@_ZTVN11xercesc_2_711RefVectorOfINS_9XMLReaderEEE = linkonce_odr dso_local unnamed_addr constant { [9 x i8*] } { [9 x i8*] [i8* null, i8* bitcast ({ i8*, i8*, i8* }* @_ZTIN11xercesc_2_711RefVectorOfINS_9XMLReaderEEE to i8*), i8* bitcast (void (%"class.xercesc_2_7::RefVectorOf.1"*)* @_ZN11xercesc_2_711RefVectorOfINS_9XMLReaderEED2Ev to i8*), i8* bitcast (void (%"class.xercesc_2_7::RefVectorOf.1"*)* @_ZN11xercesc_2_711RefVectorOfINS_9XMLReaderEED0Ev to i8*), i8* bitcast (void (%"class.xercesc_2_7::BaseRefVectorOf.2"*, %"class.xercesc_2_7::XMLReader"*, i32)* @_ZN11xercesc_2_715BaseRefVectorOfINS_9XMLReaderEE12setElementAtEPS1_j to i8*), i8* bitcast (void (%"class.xercesc_2_7::BaseRefVectorOf.2"*)* @_ZN11xercesc_2_715BaseRefVectorOfINS_9XMLReaderEE17removeAllElementsEv to i8*), i8* bitcast (void (%"class.xercesc_2_7::BaseRefVectorOf.2"*, i32)* @_ZN11xercesc_2_715BaseRefVectorOfINS_9XMLReaderEE15removeElementAtEj to i8*), i8* bitcast (void (%"class.xercesc_2_7::BaseRefVectorOf.2"*)* @_ZN11xercesc_2_715BaseRefVectorOfINS_9XMLReaderEE17removeLastElementEv to i8*), i8* bitcast (void (%"class.xercesc_2_7::BaseRefVectorOf.2"*)* @_ZN11xercesc_2_715BaseRefVectorOfINS_9XMLReaderEE7cleanupEv to i8*)] }, comdat, align 8
@_ZTSN11xercesc_2_711RefVectorOfINS_9XMLReaderEEE = linkonce_odr dso_local constant [45 x i8] c"N11xercesc_2_711RefVectorOfINS_9XMLReaderEEE\00", comdat, align 1
@_ZTSN11xercesc_2_715BaseRefVectorOfINS_9XMLReaderEEE = linkonce_odr dso_local constant [49 x i8] c"N11xercesc_2_715BaseRefVectorOfINS_9XMLReaderEEE\00", comdat, align 1
@_ZTIN11xercesc_2_715BaseRefVectorOfINS_9XMLReaderEEE = linkonce_odr dso_local constant { i8*, i8*, i8* } { i8* bitcast (i8** getelementptr inbounds (i8*, i8** @_ZTVN10__cxxabiv120__si_class_type_infoE, i64 2) to i8*), i8* getelementptr inbounds ([49 x i8], [49 x i8]* @_ZTSN11xercesc_2_715BaseRefVectorOfINS_9XMLReaderEEE, i32 0, i32 0), i8* bitcast ({ i8*, i8* }* @_ZTIN11xercesc_2_77XMemoryE to i8*) }, comdat, align 8
@_ZTIN11xercesc_2_711RefVectorOfINS_9XMLReaderEEE = linkonce_odr dso_local constant { i8*, i8*, i8* } { i8* bitcast (i8** getelementptr inbounds (i8*, i8** @_ZTVN10__cxxabiv120__si_class_type_infoE, i64 2) to i8*), i8* getelementptr inbounds ([45 x i8], [45 x i8]* @_ZTSN11xercesc_2_711RefVectorOfINS_9XMLReaderEEE, i32 0, i32 0), i8* bitcast ({ i8*, i8*, i8* }* @_ZTIN11xercesc_2_715BaseRefVectorOfINS_9XMLReaderEEE to i8*) }, comdat, align 8
@.str.1 = private unnamed_addr constant [33 x i8] c"./xercesc/util/BaseRefVectorOf.c\00", align 1
@_ZTSN11xercesc_2_730ArrayIndexOutOfBoundsExceptionE = linkonce_odr dso_local constant [48 x i8] c"N11xercesc_2_730ArrayIndexOutOfBoundsExceptionE\00", comdat, align 1
@_ZTIN11xercesc_2_730ArrayIndexOutOfBoundsExceptionE = linkonce_odr dso_local constant { i8*, i8*, i8* } { i8* bitcast (i8** getelementptr inbounds (i8*, i8** @_ZTVN10__cxxabiv120__si_class_type_infoE, i64 2) to i8*), i8* getelementptr inbounds ([48 x i8], [48 x i8]* @_ZTSN11xercesc_2_730ArrayIndexOutOfBoundsExceptionE, i32 0, i32 0), i8* bitcast (i8** @_ZTIN11xercesc_2_712XMLExceptionE to i8*) }, comdat, align 8
@_ZTVN11xercesc_2_730ArrayIndexOutOfBoundsExceptionE = linkonce_odr dso_local unnamed_addr constant { [6 x i8*] } { [6 x i8*] [i8* null, i8* bitcast ({ i8*, i8*, i8* }* @_ZTIN11xercesc_2_730ArrayIndexOutOfBoundsExceptionE to i8*), i8* bitcast (void (%"class.xercesc_2_7::ArrayIndexOutOfBoundsException"*)* @_ZN11xercesc_2_730ArrayIndexOutOfBoundsExceptionD2Ev to i8*), i8* bitcast (void (%"class.xercesc_2_7::ArrayIndexOutOfBoundsException"*)* @_ZN11xercesc_2_730ArrayIndexOutOfBoundsExceptionD0Ev to i8*), i8* bitcast (i16* (%"class.xercesc_2_7::ArrayIndexOutOfBoundsException"*)* @_ZNK11xercesc_2_730ArrayIndexOutOfBoundsException7getTypeEv to i8*), i8* bitcast (%"class.xercesc_2_7::XMLException"* (%"class.xercesc_2_7::ArrayIndexOutOfBoundsException"*)* @_ZNK11xercesc_2_730ArrayIndexOutOfBoundsException9duplicateEv to i8*)] }, comdat, align 8
@_ZN11xercesc_2_76XMLUni37fgArrayIndexOutOfBoundsException_NameE = external dso_local constant [0 x i16], align 2
@_ZTVN11xercesc_2_711RefVectorOfINS_13XMLEntityDeclEEE = linkonce_odr dso_local unnamed_addr constant { [9 x i8*] } { [9 x i8*] [i8* null, i8* bitcast ({ i8*, i8*, i8* }* @_ZTIN11xercesc_2_711RefVectorOfINS_13XMLEntityDeclEEE to i8*), i8* bitcast (void (%"class.xercesc_2_7::RefVectorOf"*)* @_ZN11xercesc_2_711RefVectorOfINS_13XMLEntityDeclEED2Ev to i8*), i8* bitcast (void (%"class.xercesc_2_7::RefVectorOf"*)* @_ZN11xercesc_2_711RefVectorOfINS_13XMLEntityDeclEED0Ev to i8*), i8* bitcast (void (%"class.xercesc_2_7::BaseRefVectorOf"*, %"class.xercesc_2_7::XMLEntityDecl"*, i32)* @_ZN11xercesc_2_715BaseRefVectorOfINS_13XMLEntityDeclEE12setElementAtEPS1_j to i8*), i8* bitcast (void (%"class.xercesc_2_7::BaseRefVectorOf"*)* @_ZN11xercesc_2_715BaseRefVectorOfINS_13XMLEntityDeclEE17removeAllElementsEv to i8*), i8* bitcast (void (%"class.xercesc_2_7::BaseRefVectorOf"*, i32)* @_ZN11xercesc_2_715BaseRefVectorOfINS_13XMLEntityDeclEE15removeElementAtEj to i8*), i8* bitcast (void (%"class.xercesc_2_7::BaseRefVectorOf"*)* @_ZN11xercesc_2_715BaseRefVectorOfINS_13XMLEntityDeclEE17removeLastElementEv to i8*), i8* bitcast (void (%"class.xercesc_2_7::BaseRefVectorOf"*)* @_ZN11xercesc_2_715BaseRefVectorOfINS_13XMLEntityDeclEE7cleanupEv to i8*)] }, comdat, align 8
@_ZTSN11xercesc_2_711RefVectorOfINS_13XMLEntityDeclEEE = linkonce_odr dso_local constant [50 x i8] c"N11xercesc_2_711RefVectorOfINS_13XMLEntityDeclEEE\00", comdat, align 1
@_ZTSN11xercesc_2_715BaseRefVectorOfINS_13XMLEntityDeclEEE = linkonce_odr dso_local constant [54 x i8] c"N11xercesc_2_715BaseRefVectorOfINS_13XMLEntityDeclEEE\00", comdat, align 1
@_ZTIN11xercesc_2_715BaseRefVectorOfINS_13XMLEntityDeclEEE = linkonce_odr dso_local constant { i8*, i8*, i8* } { i8* bitcast (i8** getelementptr inbounds (i8*, i8** @_ZTVN10__cxxabiv120__si_class_type_infoE, i64 2) to i8*), i8* getelementptr inbounds ([54 x i8], [54 x i8]* @_ZTSN11xercesc_2_715BaseRefVectorOfINS_13XMLEntityDeclEEE, i32 0, i32 0), i8* bitcast ({ i8*, i8* }* @_ZTIN11xercesc_2_77XMemoryE to i8*) }, comdat, align 8
@_ZTIN11xercesc_2_711RefVectorOfINS_13XMLEntityDeclEEE = linkonce_odr dso_local constant { i8*, i8*, i8* } { i8* bitcast (i8** getelementptr inbounds (i8*, i8** @_ZTVN10__cxxabiv120__si_class_type_infoE, i64 2) to i8*), i8* getelementptr inbounds ([50 x i8], [50 x i8]* @_ZTSN11xercesc_2_711RefVectorOfINS_13XMLEntityDeclEEE, i32 0, i32 0), i8* bitcast ({ i8*, i8*, i8* }* @_ZTIN11xercesc_2_715BaseRefVectorOfINS_13XMLEntityDeclEEE to i8*) }, comdat, align 8
@.str.2 = private unnamed_addr constant [28 x i8] c"./xercesc/util/RefStackOf.c\00", align 1
@_ZTSN11xercesc_2_719EmptyStackExceptionE = linkonce_odr dso_local constant [37 x i8] c"N11xercesc_2_719EmptyStackExceptionE\00", comdat, align 1
@_ZTIN11xercesc_2_719EmptyStackExceptionE = linkonce_odr dso_local constant { i8*, i8*, i8* } { i8* bitcast (i8** getelementptr inbounds (i8*, i8** @_ZTVN10__cxxabiv120__si_class_type_infoE, i64 2) to i8*), i8* getelementptr inbounds ([37 x i8], [37 x i8]* @_ZTSN11xercesc_2_719EmptyStackExceptionE, i32 0, i32 0), i8* bitcast (i8** @_ZTIN11xercesc_2_712XMLExceptionE to i8*) }, comdat, align 8
@_ZTVN11xercesc_2_719EmptyStackExceptionE = linkonce_odr dso_local unnamed_addr constant { [6 x i8*] } { [6 x i8*] [i8* null, i8* bitcast ({ i8*, i8*, i8* }* @_ZTIN11xercesc_2_719EmptyStackExceptionE to i8*), i8* bitcast (void (%"class.xercesc_2_7::EmptyStackException"*)* @_ZN11xercesc_2_719EmptyStackExceptionD2Ev to i8*), i8* bitcast (void (%"class.xercesc_2_7::EmptyStackException"*)* @_ZN11xercesc_2_719EmptyStackExceptionD0Ev to i8*), i8* bitcast (i16* (%"class.xercesc_2_7::EmptyStackException"*)* @_ZNK11xercesc_2_719EmptyStackException7getTypeEv to i8*), i8* bitcast (%"class.xercesc_2_7::XMLException"* (%"class.xercesc_2_7::EmptyStackException"*)* @_ZNK11xercesc_2_719EmptyStackException9duplicateEv to i8*)] }, comdat, align 8
@_ZN11xercesc_2_76XMLUni26fgEmptyStackException_NameE = external dso_local constant [0 x i16], align 2
@_ZTVN11xercesc_2_715BaseRefVectorOfINS_9XMLReaderEEE = linkonce_odr dso_local unnamed_addr constant { [9 x i8*] } { [9 x i8*] [i8* null, i8* bitcast ({ i8*, i8*, i8* }* @_ZTIN11xercesc_2_715BaseRefVectorOfINS_9XMLReaderEEE to i8*), i8* bitcast (void (%"class.xercesc_2_7::BaseRefVectorOf.2"*)* @_ZN11xercesc_2_715BaseRefVectorOfINS_9XMLReaderEED2Ev to i8*), i8* bitcast (void (%"class.xercesc_2_7::BaseRefVectorOf.2"*)* @_ZN11xercesc_2_715BaseRefVectorOfINS_9XMLReaderEED0Ev to i8*), i8* bitcast (void (%"class.xercesc_2_7::BaseRefVectorOf.2"*, %"class.xercesc_2_7::XMLReader"*, i32)* @_ZN11xercesc_2_715BaseRefVectorOfINS_9XMLReaderEE12setElementAtEPS1_j to i8*), i8* bitcast (void (%"class.xercesc_2_7::BaseRefVectorOf.2"*)* @_ZN11xercesc_2_715BaseRefVectorOfINS_9XMLReaderEE17removeAllElementsEv to i8*), i8* bitcast (void (%"class.xercesc_2_7::BaseRefVectorOf.2"*, i32)* @_ZN11xercesc_2_715BaseRefVectorOfINS_9XMLReaderEE15removeElementAtEj to i8*), i8* bitcast (void (%"class.xercesc_2_7::BaseRefVectorOf.2"*)* @_ZN11xercesc_2_715BaseRefVectorOfINS_9XMLReaderEE17removeLastElementEv to i8*), i8* bitcast (void (%"class.xercesc_2_7::BaseRefVectorOf.2"*)* @_ZN11xercesc_2_715BaseRefVectorOfINS_9XMLReaderEE7cleanupEv to i8*)] }, comdat, align 8
@_ZTVN11xercesc_2_715BaseRefVectorOfINS_13XMLEntityDeclEEE = linkonce_odr dso_local unnamed_addr constant { [9 x i8*] } { [9 x i8*] [i8* null, i8* bitcast ({ i8*, i8*, i8* }* @_ZTIN11xercesc_2_715BaseRefVectorOfINS_13XMLEntityDeclEEE to i8*), i8* bitcast (void (%"class.xercesc_2_7::BaseRefVectorOf"*)* @_ZN11xercesc_2_715BaseRefVectorOfINS_13XMLEntityDeclEED2Ev to i8*), i8* bitcast (void (%"class.xercesc_2_7::BaseRefVectorOf"*)* @_ZN11xercesc_2_715BaseRefVectorOfINS_13XMLEntityDeclEED0Ev to i8*), i8* bitcast (void (%"class.xercesc_2_7::BaseRefVectorOf"*, %"class.xercesc_2_7::XMLEntityDecl"*, i32)* @_ZN11xercesc_2_715BaseRefVectorOfINS_13XMLEntityDeclEE12setElementAtEPS1_j to i8*), i8* bitcast (void (%"class.xercesc_2_7::BaseRefVectorOf"*)* @_ZN11xercesc_2_715BaseRefVectorOfINS_13XMLEntityDeclEE17removeAllElementsEv to i8*), i8* bitcast (void (%"class.xercesc_2_7::BaseRefVectorOf"*, i32)* @_ZN11xercesc_2_715BaseRefVectorOfINS_13XMLEntityDeclEE15removeElementAtEj to i8*), i8* bitcast (void (%"class.xercesc_2_7::BaseRefVectorOf"*)* @_ZN11xercesc_2_715BaseRefVectorOfINS_13XMLEntityDeclEE17removeLastElementEv to i8*), i8* bitcast (void (%"class.xercesc_2_7::BaseRefVectorOf"*)* @_ZN11xercesc_2_715BaseRefVectorOfINS_13XMLEntityDeclEE7cleanupEv to i8*)] }, comdat, align 8

@_ZN11xercesc_2_79ReaderMgrC1EPNS_13MemoryManagerE = dso_local unnamed_addr alias void (%"class.xercesc_2_7::ReaderMgr"*, %"class.xercesc_2_7::MemoryManager"*), void (%"class.xercesc_2_7::ReaderMgr"*, %"class.xercesc_2_7::MemoryManager"*)* @_ZN11xercesc_2_79ReaderMgrC2EPNS_13MemoryManagerE
@_ZN11xercesc_2_79ReaderMgrD1Ev = dso_local unnamed_addr alias void (%"class.xercesc_2_7::ReaderMgr"*), void (%"class.xercesc_2_7::ReaderMgr"*)* @_ZN11xercesc_2_79ReaderMgrD2Ev

; Function Attrs: nounwind readnone speculatable willreturn
declare void @llvm.dbg.declare(metadata, metadata, metadata) #0

; Function Attrs: noinline nounwind uwtable
define linkonce_odr dso_local void @_ZN11xercesc_2_710XMLDeleterD0Ev(%"class.xercesc_2_7::XMLDeleter"* %this) unnamed_addr #1 comdat align 2 !dbg !1290 {
entry:
  %this.addr = alloca %"class.xercesc_2_7::XMLDeleter"*, align 8
  store %"class.xercesc_2_7::XMLDeleter"* %this, %"class.xercesc_2_7::XMLDeleter"** %this.addr, align 8
  call void @llvm.dbg.declare(metadata %"class.xercesc_2_7::XMLDeleter"** %this.addr, metadata !1310, metadata !DIExpression()), !dbg !1312
  %this1 = load %"class.xercesc_2_7::XMLDeleter"*, %"class.xercesc_2_7::XMLDeleter"** %this.addr, align 8
  call void @_ZN11xercesc_2_710XMLDeleterD2Ev(%"class.xercesc_2_7::XMLDeleter"* %this1) #10, !dbg !1313
  %0 = bitcast %"class.xercesc_2_7::XMLDeleter"* %this1 to i8*, !dbg !1313
  call void @_ZdlPv(i8* %0) #11, !dbg !1313
  ret void, !dbg !1314
}

; Function Attrs: noinline nounwind uwtable
define linkonce_odr dso_local void @_ZN11xercesc_2_710XMLDeleterD2Ev(%"class.xercesc_2_7::XMLDeleter"* %this) unnamed_addr #1 comdat align 2 !dbg !1315 {
entry:
  %this.addr = alloca %"class.xercesc_2_7::XMLDeleter"*, align 8
  store %"class.xercesc_2_7::XMLDeleter"* %this, %"class.xercesc_2_7::XMLDeleter"** %this.addr, align 8
  call void @llvm.dbg.declare(metadata %"class.xercesc_2_7::XMLDeleter"** %this.addr, metadata !1316, metadata !DIExpression()), !dbg !1317
  %this1 = load %"class.xercesc_2_7::XMLDeleter"*, %"class.xercesc_2_7::XMLDeleter"** %this.addr, align 8
  ret void, !dbg !1318
}

; Function Attrs: nobuiltin nounwind
declare dso_local void @_ZdlPv(i8*) #2

; Function Attrs: noinline uwtable
define dso_local void @_ZN11xercesc_2_79ReaderMgrC2EPNS_13MemoryManagerE(%"class.xercesc_2_7::ReaderMgr"* %this, %"class.xercesc_2_7::MemoryManager"* %manager) unnamed_addr #3 align 2 !dbg !1319 {
entry:
  %this.addr = alloca %"class.xercesc_2_7::ReaderMgr"*, align 8
  %manager.addr = alloca %"class.xercesc_2_7::MemoryManager"*, align 8
  store %"class.xercesc_2_7::ReaderMgr"* %this, %"class.xercesc_2_7::ReaderMgr"** %this.addr, align 8
  call void @llvm.dbg.declare(metadata %"class.xercesc_2_7::ReaderMgr"** %this.addr, metadata !1738, metadata !DIExpression()), !dbg !1740
  store %"class.xercesc_2_7::MemoryManager"* %manager, %"class.xercesc_2_7::MemoryManager"** %manager.addr, align 8
  call void @llvm.dbg.declare(metadata %"class.xercesc_2_7::MemoryManager"** %manager.addr, metadata !1741, metadata !DIExpression()), !dbg !1742
  %this1 = load %"class.xercesc_2_7::ReaderMgr"*, %"class.xercesc_2_7::ReaderMgr"** %this.addr, align 8
  %0 = bitcast %"class.xercesc_2_7::ReaderMgr"* %this1 to %"class.xercesc_2_7::XMemory"*, !dbg !1743
  call void @_ZN11xercesc_2_77XMemoryC2Ev(%"class.xercesc_2_7::XMemory"* %0), !dbg !1744
  %1 = bitcast %"class.xercesc_2_7::ReaderMgr"* %this1 to %"class.xercesc_2_7::Locator"*, !dbg !1743
  call void @_ZN11xercesc_2_77LocatorC2Ev(%"class.xercesc_2_7::Locator"* %1), !dbg !1744
  %2 = bitcast %"class.xercesc_2_7::ReaderMgr"* %this1 to i32 (...)***, !dbg !1743
  store i32 (...)** bitcast (i8** getelementptr inbounds ({ [8 x i8*] }, { [8 x i8*] }* @_ZTVN11xercesc_2_79ReaderMgrE, i32 0, inrange i32 0, i32 2) to i32 (...)**), i32 (...)*** %2, align 8, !dbg !1743
  %fCurEntity = getelementptr inbounds %"class.xercesc_2_7::ReaderMgr", %"class.xercesc_2_7::ReaderMgr"* %this1, i32 0, i32 1, !dbg !1745
  store %"class.xercesc_2_7::XMLEntityDecl"* null, %"class.xercesc_2_7::XMLEntityDecl"** %fCurEntity, align 8, !dbg !1745
  %fCurReader = getelementptr inbounds %"class.xercesc_2_7::ReaderMgr", %"class.xercesc_2_7::ReaderMgr"* %this1, i32 0, i32 2, !dbg !1746
  store %"class.xercesc_2_7::XMLReader"* null, %"class.xercesc_2_7::XMLReader"** %fCurReader, align 8, !dbg !1746
  %fEntityHandler = getelementptr inbounds %"class.xercesc_2_7::ReaderMgr", %"class.xercesc_2_7::ReaderMgr"* %this1, i32 0, i32 3, !dbg !1747
  store %"class.xercesc_2_7::XMLEntityHandler"* null, %"class.xercesc_2_7::XMLEntityHandler"** %fEntityHandler, align 8, !dbg !1747
  %fEntityStack = getelementptr inbounds %"class.xercesc_2_7::ReaderMgr", %"class.xercesc_2_7::ReaderMgr"* %this1, i32 0, i32 4, !dbg !1748
  store %"class.xercesc_2_7::RefStackOf"* null, %"class.xercesc_2_7::RefStackOf"** %fEntityStack, align 8, !dbg !1748
  %fNextReaderNum = getelementptr inbounds %"class.xercesc_2_7::ReaderMgr", %"class.xercesc_2_7::ReaderMgr"* %this1, i32 0, i32 5, !dbg !1749
  store i32 1, i32* %fNextReaderNum, align 8, !dbg !1749
  %fReaderStack = getelementptr inbounds %"class.xercesc_2_7::ReaderMgr", %"class.xercesc_2_7::ReaderMgr"* %this1, i32 0, i32 6, !dbg !1750
  store %"class.xercesc_2_7::RefStackOf.0"* null, %"class.xercesc_2_7::RefStackOf.0"** %fReaderStack, align 8, !dbg !1750
  %fThrowEOE = getelementptr inbounds %"class.xercesc_2_7::ReaderMgr", %"class.xercesc_2_7::ReaderMgr"* %this1, i32 0, i32 7, !dbg !1751
  store i8 0, i8* %fThrowEOE, align 8, !dbg !1751
  %fXMLVersion = getelementptr inbounds %"class.xercesc_2_7::ReaderMgr", %"class.xercesc_2_7::ReaderMgr"* %this1, i32 0, i32 8, !dbg !1752
  store i32 0, i32* %fXMLVersion, align 4, !dbg !1752
  %fStandardUriConformant = getelementptr inbounds %"class.xercesc_2_7::ReaderMgr", %"class.xercesc_2_7::ReaderMgr"* %this1, i32 0, i32 9, !dbg !1753
  store i8 0, i8* %fStandardUriConformant, align 8, !dbg !1753
  %fMemoryManager = getelementptr inbounds %"class.xercesc_2_7::ReaderMgr", %"class.xercesc_2_7::ReaderMgr"* %this1, i32 0, i32 10, !dbg !1754
  %3 = load %"class.xercesc_2_7::MemoryManager"*, %"class.xercesc_2_7::MemoryManager"** %manager.addr, align 8, !dbg !1755
  store %"class.xercesc_2_7::MemoryManager"* %3, %"class.xercesc_2_7::MemoryManager"** %fMemoryManager, align 8, !dbg !1754
  ret void, !dbg !1756
}

; Function Attrs: noinline nounwind uwtable
define linkonce_odr dso_local void @_ZN11xercesc_2_77XMemoryC2Ev(%"class.xercesc_2_7::XMemory"* %this) unnamed_addr #1 comdat align 2 !dbg !1757 {
entry:
  %this.addr = alloca %"class.xercesc_2_7::XMemory"*, align 8
  store %"class.xercesc_2_7::XMemory"* %this, %"class.xercesc_2_7::XMemory"** %this.addr, align 8
  call void @llvm.dbg.declare(metadata %"class.xercesc_2_7::XMemory"** %this.addr, metadata !1758, metadata !DIExpression()), !dbg !1760
  %this1 = load %"class.xercesc_2_7::XMemory"*, %"class.xercesc_2_7::XMemory"** %this.addr, align 8
  ret void, !dbg !1761
}

; Function Attrs: noinline nounwind uwtable
define linkonce_odr dso_local void @_ZN11xercesc_2_77LocatorC2Ev(%"class.xercesc_2_7::Locator"* %this) unnamed_addr #1 comdat align 2 !dbg !1762 {
entry:
  %this.addr = alloca %"class.xercesc_2_7::Locator"*, align 8
  store %"class.xercesc_2_7::Locator"* %this, %"class.xercesc_2_7::Locator"** %this.addr, align 8
  call void @llvm.dbg.declare(metadata %"class.xercesc_2_7::Locator"** %this.addr, metadata !1763, metadata !DIExpression()), !dbg !1765
  %this1 = load %"class.xercesc_2_7::Locator"*, %"class.xercesc_2_7::Locator"** %this.addr, align 8
  %0 = bitcast %"class.xercesc_2_7::Locator"* %this1 to i32 (...)***, !dbg !1766
  store i32 (...)** bitcast (i8** getelementptr inbounds ({ [8 x i8*] }, { [8 x i8*] }* @_ZTVN11xercesc_2_77LocatorE, i32 0, inrange i32 0, i32 2) to i32 (...)**), i32 (...)*** %0, align 8, !dbg !1766
  ret void, !dbg !1767
}

; Function Attrs: noinline nounwind uwtable
define dso_local void @_ZN11xercesc_2_79ReaderMgrD2Ev(%"class.xercesc_2_7::ReaderMgr"* %this) unnamed_addr #1 align 2 !dbg !1768 {
entry:
  %this.addr = alloca %"class.xercesc_2_7::ReaderMgr"*, align 8
  store %"class.xercesc_2_7::ReaderMgr"* %this, %"class.xercesc_2_7::ReaderMgr"** %this.addr, align 8
  call void @llvm.dbg.declare(metadata %"class.xercesc_2_7::ReaderMgr"** %this.addr, metadata !1769, metadata !DIExpression()), !dbg !1770
  %this1 = load %"class.xercesc_2_7::ReaderMgr"*, %"class.xercesc_2_7::ReaderMgr"** %this.addr, align 8
  %0 = bitcast %"class.xercesc_2_7::ReaderMgr"* %this1 to i32 (...)***, !dbg !1771
  store i32 (...)** bitcast (i8** getelementptr inbounds ({ [8 x i8*] }, { [8 x i8*] }* @_ZTVN11xercesc_2_79ReaderMgrE, i32 0, inrange i32 0, i32 2) to i32 (...)**), i32 (...)*** %0, align 8, !dbg !1771
  %fCurReader = getelementptr inbounds %"class.xercesc_2_7::ReaderMgr", %"class.xercesc_2_7::ReaderMgr"* %this1, i32 0, i32 2, !dbg !1772
  %1 = load %"class.xercesc_2_7::XMLReader"*, %"class.xercesc_2_7::XMLReader"** %fCurReader, align 8, !dbg !1772
  %isnull = icmp eq %"class.xercesc_2_7::XMLReader"* %1, null, !dbg !1774
  br i1 %isnull, label %delete.end, label %delete.notnull, !dbg !1774

delete.notnull:                                   ; preds = %entry
  call void @_ZN11xercesc_2_79XMLReaderD1Ev(%"class.xercesc_2_7::XMLReader"* %1) #10, !dbg !1774
  %2 = bitcast %"class.xercesc_2_7::XMLReader"* %1 to i8*, !dbg !1774
  call void @_ZN11xercesc_2_77XMemorydlEPv(i8* %2) #10, !dbg !1774
  br label %delete.end, !dbg !1774

delete.end:                                       ; preds = %delete.notnull, %entry
  %fReaderStack = getelementptr inbounds %"class.xercesc_2_7::ReaderMgr", %"class.xercesc_2_7::ReaderMgr"* %this1, i32 0, i32 6, !dbg !1775
  %3 = load %"class.xercesc_2_7::RefStackOf.0"*, %"class.xercesc_2_7::RefStackOf.0"** %fReaderStack, align 8, !dbg !1775
  %isnull2 = icmp eq %"class.xercesc_2_7::RefStackOf.0"* %3, null, !dbg !1776
  br i1 %isnull2, label %delete.end4, label %delete.notnull3, !dbg !1776

delete.notnull3:                                  ; preds = %delete.end
  call void @_ZN11xercesc_2_710RefStackOfINS_9XMLReaderEED2Ev(%"class.xercesc_2_7::RefStackOf.0"* %3) #10, !dbg !1776
  %4 = bitcast %"class.xercesc_2_7::RefStackOf.0"* %3 to i8*, !dbg !1776
  call void @_ZN11xercesc_2_77XMemorydlEPv(i8* %4) #10, !dbg !1776
  br label %delete.end4, !dbg !1776

delete.end4:                                      ; preds = %delete.notnull3, %delete.end
  %fEntityStack = getelementptr inbounds %"class.xercesc_2_7::ReaderMgr", %"class.xercesc_2_7::ReaderMgr"* %this1, i32 0, i32 4, !dbg !1777
  %5 = load %"class.xercesc_2_7::RefStackOf"*, %"class.xercesc_2_7::RefStackOf"** %fEntityStack, align 8, !dbg !1777
  %isnull5 = icmp eq %"class.xercesc_2_7::RefStackOf"* %5, null, !dbg !1778
  br i1 %isnull5, label %delete.end7, label %delete.notnull6, !dbg !1778

delete.notnull6:                                  ; preds = %delete.end4
  call void @_ZN11xercesc_2_710RefStackOfINS_13XMLEntityDeclEED2Ev(%"class.xercesc_2_7::RefStackOf"* %5) #10, !dbg !1778
  %6 = bitcast %"class.xercesc_2_7::RefStackOf"* %5 to i8*, !dbg !1778
  call void @_ZN11xercesc_2_77XMemorydlEPv(i8* %6) #10, !dbg !1778
  br label %delete.end7, !dbg !1778

delete.end7:                                      ; preds = %delete.notnull6, %delete.end4
  %7 = bitcast %"class.xercesc_2_7::ReaderMgr"* %this1 to %"class.xercesc_2_7::Locator"*, !dbg !1779
  call void @_ZN11xercesc_2_77LocatorD2Ev(%"class.xercesc_2_7::Locator"* %7) #10, !dbg !1779
  ret void, !dbg !1780
}

; Function Attrs: nounwind
declare dso_local void @_ZN11xercesc_2_79XMLReaderD1Ev(%"class.xercesc_2_7::XMLReader"*) unnamed_addr #4

; Function Attrs: nounwind
declare dso_local void @_ZN11xercesc_2_77XMemorydlEPv(i8*) #4

; Function Attrs: noinline nounwind uwtable
define linkonce_odr dso_local void @_ZN11xercesc_2_710RefStackOfINS_9XMLReaderEED2Ev(%"class.xercesc_2_7::RefStackOf.0"* %this) unnamed_addr #1 comdat align 2 !dbg !1781 {
entry:
  %this.addr = alloca %"class.xercesc_2_7::RefStackOf.0"*, align 8
  store %"class.xercesc_2_7::RefStackOf.0"* %this, %"class.xercesc_2_7::RefStackOf.0"** %this.addr, align 8
  call void @llvm.dbg.declare(metadata %"class.xercesc_2_7::RefStackOf.0"** %this.addr, metadata !1783, metadata !DIExpression()), !dbg !1784
  %this1 = load %"class.xercesc_2_7::RefStackOf.0"*, %"class.xercesc_2_7::RefStackOf.0"** %this.addr, align 8
  %fVector = getelementptr inbounds %"class.xercesc_2_7::RefStackOf.0", %"class.xercesc_2_7::RefStackOf.0"* %this1, i32 0, i32 1, !dbg !1785
  call void @_ZN11xercesc_2_711RefVectorOfINS_9XMLReaderEED2Ev(%"class.xercesc_2_7::RefVectorOf.1"* %fVector) #10, !dbg !1785
  ret void, !dbg !1787
}

; Function Attrs: noinline nounwind uwtable
define linkonce_odr dso_local void @_ZN11xercesc_2_710RefStackOfINS_13XMLEntityDeclEED2Ev(%"class.xercesc_2_7::RefStackOf"* %this) unnamed_addr #1 comdat align 2 !dbg !1788 {
entry:
  %this.addr = alloca %"class.xercesc_2_7::RefStackOf"*, align 8
  store %"class.xercesc_2_7::RefStackOf"* %this, %"class.xercesc_2_7::RefStackOf"** %this.addr, align 8
  call void @llvm.dbg.declare(metadata %"class.xercesc_2_7::RefStackOf"** %this.addr, metadata !1789, metadata !DIExpression()), !dbg !1790
  %this1 = load %"class.xercesc_2_7::RefStackOf"*, %"class.xercesc_2_7::RefStackOf"** %this.addr, align 8
  %fVector = getelementptr inbounds %"class.xercesc_2_7::RefStackOf", %"class.xercesc_2_7::RefStackOf"* %this1, i32 0, i32 1, !dbg !1791
  call void @_ZN11xercesc_2_711RefVectorOfINS_13XMLEntityDeclEED2Ev(%"class.xercesc_2_7::RefVectorOf"* %fVector) #10, !dbg !1791
  ret void, !dbg !1793
}

; Function Attrs: noinline nounwind uwtable
define dso_local void @_ZN11xercesc_2_79ReaderMgrD0Ev(%"class.xercesc_2_7::ReaderMgr"* %this) unnamed_addr #1 align 2 !dbg !1794 {
entry:
  %this.addr = alloca %"class.xercesc_2_7::ReaderMgr"*, align 8
  store %"class.xercesc_2_7::ReaderMgr"* %this, %"class.xercesc_2_7::ReaderMgr"** %this.addr, align 8
  call void @llvm.dbg.declare(metadata %"class.xercesc_2_7::ReaderMgr"** %this.addr, metadata !1795, metadata !DIExpression()), !dbg !1796
  %this1 = load %"class.xercesc_2_7::ReaderMgr"*, %"class.xercesc_2_7::ReaderMgr"** %this.addr, align 8
  call void @_ZN11xercesc_2_79ReaderMgrD1Ev(%"class.xercesc_2_7::ReaderMgr"* %this1) #10, !dbg !1797
  %0 = bitcast %"class.xercesc_2_7::ReaderMgr"* %this1 to i8*, !dbg !1797
  call void @_ZN11xercesc_2_77XMemorydlEPv(i8* %0) #10, !dbg !1797
  ret void, !dbg !1798
}

; Function Attrs: noinline uwtable
define dso_local zeroext i1 @_ZNK11xercesc_2_79ReaderMgr7isEmptyEv(%"class.xercesc_2_7::ReaderMgr"* %this) #3 align 2 !dbg !1799 {
entry:
  %this.addr = alloca %"class.xercesc_2_7::ReaderMgr"*, align 8
  store %"class.xercesc_2_7::ReaderMgr"* %this, %"class.xercesc_2_7::ReaderMgr"** %this.addr, align 8
  call void @llvm.dbg.declare(metadata %"class.xercesc_2_7::ReaderMgr"** %this.addr, metadata !1800, metadata !DIExpression()), !dbg !1802
  %this1 = load %"class.xercesc_2_7::ReaderMgr"*, %"class.xercesc_2_7::ReaderMgr"** %this.addr, align 8
  %fReaderStack = getelementptr inbounds %"class.xercesc_2_7::ReaderMgr", %"class.xercesc_2_7::ReaderMgr"* %this1, i32 0, i32 6, !dbg !1803
  %0 = load %"class.xercesc_2_7::RefStackOf.0"*, %"class.xercesc_2_7::RefStackOf.0"** %fReaderStack, align 8, !dbg !1803
  %call = call zeroext i1 @_ZN11xercesc_2_710RefStackOfINS_9XMLReaderEE5emptyEv(%"class.xercesc_2_7::RefStackOf.0"* %0), !dbg !1804
  ret i1 %call, !dbg !1805
}

; Function Attrs: noinline uwtable
define linkonce_odr dso_local zeroext i1 @_ZN11xercesc_2_710RefStackOfINS_9XMLReaderEE5emptyEv(%"class.xercesc_2_7::RefStackOf.0"* %this) #3 comdat align 2 !dbg !1806 {
entry:
  %this.addr = alloca %"class.xercesc_2_7::RefStackOf.0"*, align 8
  store %"class.xercesc_2_7::RefStackOf.0"* %this, %"class.xercesc_2_7::RefStackOf.0"** %this.addr, align 8
  call void @llvm.dbg.declare(metadata %"class.xercesc_2_7::RefStackOf.0"** %this.addr, metadata !1807, metadata !DIExpression()), !dbg !1808
  %this1 = load %"class.xercesc_2_7::RefStackOf.0"*, %"class.xercesc_2_7::RefStackOf.0"** %this.addr, align 8
  %fVector = getelementptr inbounds %"class.xercesc_2_7::RefStackOf.0", %"class.xercesc_2_7::RefStackOf.0"* %this1, i32 0, i32 1, !dbg !1809
  %0 = bitcast %"class.xercesc_2_7::RefVectorOf.1"* %fVector to %"class.xercesc_2_7::BaseRefVectorOf.2"*, !dbg !1809
  %call = call i32 @_ZNK11xercesc_2_715BaseRefVectorOfINS_9XMLReaderEE4sizeEv(%"class.xercesc_2_7::BaseRefVectorOf.2"* %0), !dbg !1810
  %cmp = icmp eq i32 %call, 0, !dbg !1811
  ret i1 %cmp, !dbg !1812
}

; Function Attrs: noinline uwtable
define dso_local zeroext i16 @_ZN11xercesc_2_79ReaderMgr11getNextCharEv(%"class.xercesc_2_7::ReaderMgr"* %this) #3 align 2 !dbg !1813 {
entry:
  %retval = alloca i16, align 2
  %this.addr = alloca %"class.xercesc_2_7::ReaderMgr"*, align 8
  %chRet = alloca i16, align 2
  store %"class.xercesc_2_7::ReaderMgr"* %this, %"class.xercesc_2_7::ReaderMgr"** %this.addr, align 8
  call void @llvm.dbg.declare(metadata %"class.xercesc_2_7::ReaderMgr"** %this.addr, metadata !1814, metadata !DIExpression()), !dbg !1815
  %this1 = load %"class.xercesc_2_7::ReaderMgr"*, %"class.xercesc_2_7::ReaderMgr"** %this.addr, align 8
  call void @llvm.dbg.declare(metadata i16* %chRet, metadata !1816, metadata !DIExpression()), !dbg !1817
  %fCurReader = getelementptr inbounds %"class.xercesc_2_7::ReaderMgr", %"class.xercesc_2_7::ReaderMgr"* %this1, i32 0, i32 2, !dbg !1818
  %0 = load %"class.xercesc_2_7::XMLReader"*, %"class.xercesc_2_7::XMLReader"** %fCurReader, align 8, !dbg !1818
  %call = call zeroext i1 @_ZN11xercesc_2_79XMLReader11getNextCharERt(%"class.xercesc_2_7::XMLReader"* %0, i16* dereferenceable(2) %chRet), !dbg !1820
  br i1 %call, label %if.then, label %if.end, !dbg !1821

if.then:                                          ; preds = %entry
  %1 = load i16, i16* %chRet, align 2, !dbg !1822
  store i16 %1, i16* %retval, align 2, !dbg !1823
  br label %return, !dbg !1823

if.end:                                           ; preds = %entry
  %call2 = call zeroext i1 @_ZN11xercesc_2_79ReaderMgr9popReaderEv(%"class.xercesc_2_7::ReaderMgr"* %this1), !dbg !1824
  br i1 %call2, label %if.end4, label %if.then3, !dbg !1826

if.then3:                                         ; preds = %if.end
  store i16 0, i16* %retval, align 2, !dbg !1827
  br label %return, !dbg !1827

if.end4:                                          ; preds = %if.end
  %fCurReader5 = getelementptr inbounds %"class.xercesc_2_7::ReaderMgr", %"class.xercesc_2_7::ReaderMgr"* %this1, i32 0, i32 2, !dbg !1828
  %2 = load %"class.xercesc_2_7::XMLReader"*, %"class.xercesc_2_7::XMLReader"** %fCurReader5, align 8, !dbg !1828
  %call6 = call zeroext i1 @_ZN11xercesc_2_79XMLReader11getNextCharERt(%"class.xercesc_2_7::XMLReader"* %2, i16* dereferenceable(2) %chRet), !dbg !1829
  %3 = load i16, i16* %chRet, align 2, !dbg !1830
  store i16 %3, i16* %retval, align 2, !dbg !1831
  br label %return, !dbg !1831

return:                                           ; preds = %if.end4, %if.then3, %if.then
  %4 = load i16, i16* %retval, align 2, !dbg !1832
  ret i16 %4, !dbg !1832
}

; Function Attrs: noinline uwtable
define linkonce_odr dso_local zeroext i1 @_ZN11xercesc_2_79XMLReader11getNextCharERt(%"class.xercesc_2_7::XMLReader"* %this, i16* dereferenceable(2) %chGotten) #3 comdat align 2 !dbg !1833 {
entry:
  %retval = alloca i1, align 1
  %this.addr = alloca %"class.xercesc_2_7::XMLReader"*, align 8
  %chGotten.addr = alloca i16*, align 8
  store %"class.xercesc_2_7::XMLReader"* %this, %"class.xercesc_2_7::XMLReader"** %this.addr, align 8
  call void @llvm.dbg.declare(metadata %"class.xercesc_2_7::XMLReader"** %this.addr, metadata !1834, metadata !DIExpression()), !dbg !1835
  store i16* %chGotten, i16** %chGotten.addr, align 8
  call void @llvm.dbg.declare(metadata i16** %chGotten.addr, metadata !1836, metadata !DIExpression()), !dbg !1837
  %this1 = load %"class.xercesc_2_7::XMLReader"*, %"class.xercesc_2_7::XMLReader"** %this.addr, align 8
  %fCharIndex = getelementptr inbounds %"class.xercesc_2_7::XMLReader", %"class.xercesc_2_7::XMLReader"* %this1, i32 0, i32 0, !dbg !1838
  %0 = load i32, i32* %fCharIndex, align 8, !dbg !1838
  %fCharsAvail = getelementptr inbounds %"class.xercesc_2_7::XMLReader", %"class.xercesc_2_7::XMLReader"* %this1, i32 0, i32 2, !dbg !1840
  %1 = load i32, i32* %fCharsAvail, align 4, !dbg !1840
  %cmp = icmp uge i32 %0, %1, !dbg !1841
  br i1 %cmp, label %if.then, label %if.end5, !dbg !1842

if.then:                                          ; preds = %entry
  %fNoMore = getelementptr inbounds %"class.xercesc_2_7::XMLReader", %"class.xercesc_2_7::XMLReader"* %this1, i32 0, i32 10, !dbg !1843
  %2 = load i8, i8* %fNoMore, align 1, !dbg !1843
  %tobool = trunc i8 %2 to i1, !dbg !1843
  br i1 %tobool, label %if.then2, label %if.end, !dbg !1846

if.then2:                                         ; preds = %if.then
  store i1 false, i1* %retval, align 1, !dbg !1847
  br label %return, !dbg !1847

if.end:                                           ; preds = %if.then
  %call = call zeroext i1 @_ZN11xercesc_2_79XMLReader17refreshCharBufferEv(%"class.xercesc_2_7::XMLReader"* %this1), !dbg !1848
  br i1 %call, label %if.end4, label %if.then3, !dbg !1850

if.then3:                                         ; preds = %if.end
  store i1 false, i1* %retval, align 1, !dbg !1851
  br label %return, !dbg !1851

if.end4:                                          ; preds = %if.end
  br label %if.end5, !dbg !1852

if.end5:                                          ; preds = %if.end4, %entry
  %fCharBuf = getelementptr inbounds %"class.xercesc_2_7::XMLReader", %"class.xercesc_2_7::XMLReader"* %this1, i32 0, i32 1, !dbg !1853
  %fCharIndex6 = getelementptr inbounds %"class.xercesc_2_7::XMLReader", %"class.xercesc_2_7::XMLReader"* %this1, i32 0, i32 0, !dbg !1854
  %3 = load i32, i32* %fCharIndex6, align 8, !dbg !1855
  %inc = add i32 %3, 1, !dbg !1855
  store i32 %inc, i32* %fCharIndex6, align 8, !dbg !1855
  %idxprom = zext i32 %3 to i64, !dbg !1853
  %arrayidx = getelementptr inbounds [16384 x i16], [16384 x i16]* %fCharBuf, i64 0, i64 %idxprom, !dbg !1853
  %4 = load i16, i16* %arrayidx, align 2, !dbg !1853
  %5 = load i16*, i16** %chGotten.addr, align 8, !dbg !1856
  store i16 %4, i16* %5, align 2, !dbg !1857
  %6 = load i16*, i16** %chGotten.addr, align 8, !dbg !1858
  %7 = load i16, i16* %6, align 2, !dbg !1858
  %conv = zext i16 %7 to i32, !dbg !1858
  %and = and i32 %conv, 57168, !dbg !1860
  %tobool7 = icmp ne i32 %and, 0, !dbg !1858
  br i1 %tobool7, label %if.then8, label %if.else, !dbg !1861

if.then8:                                         ; preds = %if.end5
  %fCurCol = getelementptr inbounds %"class.xercesc_2_7::XMLReader", %"class.xercesc_2_7::XMLReader"* %this1, i32 0, i32 5, !dbg !1862
  %8 = load i64, i64* %fCurCol, align 8, !dbg !1864
  %inc9 = add nsw i64 %8, 1, !dbg !1864
  store i64 %inc9, i64* %fCurCol, align 8, !dbg !1864
  br label %if.end10, !dbg !1865

if.else:                                          ; preds = %if.end5
  %9 = load i16*, i16** %chGotten.addr, align 8, !dbg !1866
  call void @_ZN11xercesc_2_79XMLReader9handleEOLERtb(%"class.xercesc_2_7::XMLReader"* %this1, i16* dereferenceable(2) %9, i1 zeroext false), !dbg !1868
  br label %if.end10

if.end10:                                         ; preds = %if.else, %if.then8
  store i1 true, i1* %retval, align 1, !dbg !1869
  br label %return, !dbg !1869

return:                                           ; preds = %if.end10, %if.then3, %if.then2
  %10 = load i1, i1* %retval, align 1, !dbg !1870
  ret i1 %10, !dbg !1870
}

; Function Attrs: noinline uwtable
define dso_local zeroext i1 @_ZN11xercesc_2_79ReaderMgr9popReaderEv(%"class.xercesc_2_7::ReaderMgr"* %this) #3 align 2 personality i8* bitcast (i32 (...)* @__gxx_personality_v0 to i8*) !dbg !1871 {
entry:
  %retval = alloca i1, align 1
  %this.addr = alloca %"class.xercesc_2_7::ReaderMgr"*, align 8
  %prevEntity = alloca %"class.xercesc_2_7::XMLEntityDecl"*, align 8
  %prevReaderThrowAtEnd = alloca i8, align 1
  %readerNum = alloca i32, align 4
  %exn.slot = alloca i8*
  %ehselector.slot = alloca i32
  store %"class.xercesc_2_7::ReaderMgr"* %this, %"class.xercesc_2_7::ReaderMgr"** %this.addr, align 8
  call void @llvm.dbg.declare(metadata %"class.xercesc_2_7::ReaderMgr"** %this.addr, metadata !1872, metadata !DIExpression()), !dbg !1873
  %this1 = load %"class.xercesc_2_7::ReaderMgr"*, %"class.xercesc_2_7::ReaderMgr"** %this.addr, align 8
  %fReaderStack = getelementptr inbounds %"class.xercesc_2_7::ReaderMgr", %"class.xercesc_2_7::ReaderMgr"* %this1, i32 0, i32 6, !dbg !1874
  %0 = load %"class.xercesc_2_7::RefStackOf.0"*, %"class.xercesc_2_7::RefStackOf.0"** %fReaderStack, align 8, !dbg !1874
  %call = call zeroext i1 @_ZN11xercesc_2_710RefStackOfINS_9XMLReaderEE5emptyEv(%"class.xercesc_2_7::RefStackOf.0"* %0), !dbg !1876
  br i1 %call, label %if.then, label %if.end, !dbg !1877

if.then:                                          ; preds = %entry
  store i1 false, i1* %retval, align 1, !dbg !1878
  br label %return, !dbg !1878

if.end:                                           ; preds = %entry
  call void @llvm.dbg.declare(metadata %"class.xercesc_2_7::XMLEntityDecl"** %prevEntity, metadata !1879, metadata !DIExpression()), !dbg !1880
  %fCurEntity = getelementptr inbounds %"class.xercesc_2_7::ReaderMgr", %"class.xercesc_2_7::ReaderMgr"* %this1, i32 0, i32 1, !dbg !1881
  %1 = load %"class.xercesc_2_7::XMLEntityDecl"*, %"class.xercesc_2_7::XMLEntityDecl"** %fCurEntity, align 8, !dbg !1881
  store %"class.xercesc_2_7::XMLEntityDecl"* %1, %"class.xercesc_2_7::XMLEntityDecl"** %prevEntity, align 8, !dbg !1880
  call void @llvm.dbg.declare(metadata i8* %prevReaderThrowAtEnd, metadata !1882, metadata !DIExpression()), !dbg !1883
  %fCurReader = getelementptr inbounds %"class.xercesc_2_7::ReaderMgr", %"class.xercesc_2_7::ReaderMgr"* %this1, i32 0, i32 2, !dbg !1884
  %2 = load %"class.xercesc_2_7::XMLReader"*, %"class.xercesc_2_7::XMLReader"** %fCurReader, align 8, !dbg !1884
  %call2 = call zeroext i1 @_ZNK11xercesc_2_79XMLReader13getThrowAtEndEv(%"class.xercesc_2_7::XMLReader"* %2), !dbg !1885
  %frombool = zext i1 %call2 to i8, !dbg !1883
  store i8 %frombool, i8* %prevReaderThrowAtEnd, align 1, !dbg !1883
  call void @llvm.dbg.declare(metadata i32* %readerNum, metadata !1886, metadata !DIExpression()), !dbg !1887
  %fCurReader3 = getelementptr inbounds %"class.xercesc_2_7::ReaderMgr", %"class.xercesc_2_7::ReaderMgr"* %this1, i32 0, i32 2, !dbg !1888
  %3 = load %"class.xercesc_2_7::XMLReader"*, %"class.xercesc_2_7::XMLReader"** %fCurReader3, align 8, !dbg !1888
  %call4 = call i32 @_ZNK11xercesc_2_79XMLReader12getReaderNumEv(%"class.xercesc_2_7::XMLReader"* %3), !dbg !1889
  store i32 %call4, i32* %readerNum, align 4, !dbg !1887
  %fCurReader5 = getelementptr inbounds %"class.xercesc_2_7::ReaderMgr", %"class.xercesc_2_7::ReaderMgr"* %this1, i32 0, i32 2, !dbg !1890
  %4 = load %"class.xercesc_2_7::XMLReader"*, %"class.xercesc_2_7::XMLReader"** %fCurReader5, align 8, !dbg !1890
  %isnull = icmp eq %"class.xercesc_2_7::XMLReader"* %4, null, !dbg !1891
  br i1 %isnull, label %delete.end, label %delete.notnull, !dbg !1891

delete.notnull:                                   ; preds = %if.end
  call void @_ZN11xercesc_2_79XMLReaderD1Ev(%"class.xercesc_2_7::XMLReader"* %4) #10, !dbg !1891
  %5 = bitcast %"class.xercesc_2_7::XMLReader"* %4 to i8*, !dbg !1891
  call void @_ZN11xercesc_2_77XMemorydlEPv(i8* %5) #10, !dbg !1891
  br label %delete.end, !dbg !1891

delete.end:                                       ; preds = %delete.notnull, %if.end
  %fReaderStack6 = getelementptr inbounds %"class.xercesc_2_7::ReaderMgr", %"class.xercesc_2_7::ReaderMgr"* %this1, i32 0, i32 6, !dbg !1892
  %6 = load %"class.xercesc_2_7::RefStackOf.0"*, %"class.xercesc_2_7::RefStackOf.0"** %fReaderStack6, align 8, !dbg !1892
  %call7 = call %"class.xercesc_2_7::XMLReader"* @_ZN11xercesc_2_710RefStackOfINS_9XMLReaderEE3popEv(%"class.xercesc_2_7::RefStackOf.0"* %6), !dbg !1893
  %fCurReader8 = getelementptr inbounds %"class.xercesc_2_7::ReaderMgr", %"class.xercesc_2_7::ReaderMgr"* %this1, i32 0, i32 2, !dbg !1894
  store %"class.xercesc_2_7::XMLReader"* %call7, %"class.xercesc_2_7::XMLReader"** %fCurReader8, align 8, !dbg !1895
  %fEntityStack = getelementptr inbounds %"class.xercesc_2_7::ReaderMgr", %"class.xercesc_2_7::ReaderMgr"* %this1, i32 0, i32 4, !dbg !1896
  %7 = load %"class.xercesc_2_7::RefStackOf"*, %"class.xercesc_2_7::RefStackOf"** %fEntityStack, align 8, !dbg !1896
  %call9 = call %"class.xercesc_2_7::XMLEntityDecl"* @_ZN11xercesc_2_710RefStackOfINS_13XMLEntityDeclEE3popEv(%"class.xercesc_2_7::RefStackOf"* %7), !dbg !1897
  %fCurEntity10 = getelementptr inbounds %"class.xercesc_2_7::ReaderMgr", %"class.xercesc_2_7::ReaderMgr"* %this1, i32 0, i32 1, !dbg !1898
  store %"class.xercesc_2_7::XMLEntityDecl"* %call9, %"class.xercesc_2_7::XMLEntityDecl"** %fCurEntity10, align 8, !dbg !1899
  %8 = load %"class.xercesc_2_7::XMLEntityDecl"*, %"class.xercesc_2_7::XMLEntityDecl"** %prevEntity, align 8, !dbg !1900
  %tobool = icmp ne %"class.xercesc_2_7::XMLEntityDecl"* %8, null, !dbg !1900
  br i1 %tobool, label %land.lhs.true, label %lor.lhs.false, !dbg !1902

land.lhs.true:                                    ; preds = %delete.end
  %fThrowEOE = getelementptr inbounds %"class.xercesc_2_7::ReaderMgr", %"class.xercesc_2_7::ReaderMgr"* %this1, i32 0, i32 7, !dbg !1903
  %9 = load i8, i8* %fThrowEOE, align 8, !dbg !1903
  %tobool11 = trunc i8 %9 to i1, !dbg !1903
  br i1 %tobool11, label %if.then13, label %lor.lhs.false, !dbg !1904

lor.lhs.false:                                    ; preds = %land.lhs.true, %delete.end
  %10 = load i8, i8* %prevReaderThrowAtEnd, align 1, !dbg !1905
  %tobool12 = trunc i8 %10 to i1, !dbg !1905
  br i1 %tobool12, label %if.then13, label %if.end14, !dbg !1906

if.then13:                                        ; preds = %lor.lhs.false, %land.lhs.true
  %exception = call i8* @__cxa_allocate_exception(i64 16) #10, !dbg !1907
  %11 = bitcast i8* %exception to %"class.xercesc_2_7::EndOfEntityException"*, !dbg !1907
  %12 = load %"class.xercesc_2_7::XMLEntityDecl"*, %"class.xercesc_2_7::XMLEntityDecl"** %prevEntity, align 8, !dbg !1908
  %13 = load i32, i32* %readerNum, align 4, !dbg !1909
  invoke void @_ZN11xercesc_2_720EndOfEntityExceptionC2EPNS_13XMLEntityDeclEj(%"class.xercesc_2_7::EndOfEntityException"* %11, %"class.xercesc_2_7::XMLEntityDecl"* %12, i32 %13)
          to label %invoke.cont unwind label %lpad, !dbg !1910

invoke.cont:                                      ; preds = %if.then13
  call void @__cxa_throw(i8* %exception, i8* bitcast ({ i8*, i8* }* @_ZTIN11xercesc_2_720EndOfEntityExceptionE to i8*), i8* bitcast (void (%"class.xercesc_2_7::EndOfEntityException"*)* @_ZN11xercesc_2_720EndOfEntityExceptionD2Ev to i8*)) #12, !dbg !1907
  unreachable, !dbg !1907

lpad:                                             ; preds = %if.then13
  %14 = landingpad { i8*, i32 }
          cleanup, !dbg !1911
  %15 = extractvalue { i8*, i32 } %14, 0, !dbg !1911
  store i8* %15, i8** %exn.slot, align 8, !dbg !1911
  %16 = extractvalue { i8*, i32 } %14, 1, !dbg !1911
  store i32 %16, i32* %ehselector.slot, align 4, !dbg !1911
  call void @__cxa_free_exception(i8* %exception) #10, !dbg !1907
  br label %eh.resume, !dbg !1907

if.end14:                                         ; preds = %lor.lhs.false
  br label %while.body, !dbg !1912

while.body:                                       ; preds = %if.end14, %delete.end34
  %fCurReader15 = getelementptr inbounds %"class.xercesc_2_7::ReaderMgr", %"class.xercesc_2_7::ReaderMgr"* %this1, i32 0, i32 2, !dbg !1913
  %17 = load %"class.xercesc_2_7::XMLReader"*, %"class.xercesc_2_7::XMLReader"** %fCurReader15, align 8, !dbg !1913
  %call16 = call i64 @_ZNK11xercesc_2_79XMLReader17charsLeftInBufferEv(%"class.xercesc_2_7::XMLReader"* %17), !dbg !1916
  %tobool17 = icmp ne i64 %call16, 0, !dbg !1913
  br i1 %tobool17, label %if.then18, label %if.end19, !dbg !1917

if.then18:                                        ; preds = %while.body
  br label %while.end, !dbg !1918

if.end19:                                         ; preds = %while.body
  %fCurReader20 = getelementptr inbounds %"class.xercesc_2_7::ReaderMgr", %"class.xercesc_2_7::ReaderMgr"* %this1, i32 0, i32 2, !dbg !1919
  %18 = load %"class.xercesc_2_7::XMLReader"*, %"class.xercesc_2_7::XMLReader"** %fCurReader20, align 8, !dbg !1919
  %call21 = call zeroext i1 @_ZN11xercesc_2_79XMLReader17refreshCharBufferEv(%"class.xercesc_2_7::XMLReader"* %18), !dbg !1920
  %fCurReader22 = getelementptr inbounds %"class.xercesc_2_7::ReaderMgr", %"class.xercesc_2_7::ReaderMgr"* %this1, i32 0, i32 2, !dbg !1921
  %19 = load %"class.xercesc_2_7::XMLReader"*, %"class.xercesc_2_7::XMLReader"** %fCurReader22, align 8, !dbg !1921
  %call23 = call i64 @_ZNK11xercesc_2_79XMLReader17charsLeftInBufferEv(%"class.xercesc_2_7::XMLReader"* %19), !dbg !1923
  %tobool24 = icmp ne i64 %call23, 0, !dbg !1921
  br i1 %tobool24, label %if.then25, label %if.end26, !dbg !1924

if.then25:                                        ; preds = %if.end19
  br label %while.end, !dbg !1925

if.end26:                                         ; preds = %if.end19
  %fReaderStack27 = getelementptr inbounds %"class.xercesc_2_7::ReaderMgr", %"class.xercesc_2_7::ReaderMgr"* %this1, i32 0, i32 6, !dbg !1926
  %20 = load %"class.xercesc_2_7::RefStackOf.0"*, %"class.xercesc_2_7::RefStackOf.0"** %fReaderStack27, align 8, !dbg !1926
  %call28 = call zeroext i1 @_ZN11xercesc_2_710RefStackOfINS_9XMLReaderEE5emptyEv(%"class.xercesc_2_7::RefStackOf.0"* %20), !dbg !1928
  br i1 %call28, label %if.then29, label %if.end30, !dbg !1929

if.then29:                                        ; preds = %if.end26
  store i1 false, i1* %retval, align 1, !dbg !1930
  br label %return, !dbg !1930

if.end30:                                         ; preds = %if.end26
  %fCurReader31 = getelementptr inbounds %"class.xercesc_2_7::ReaderMgr", %"class.xercesc_2_7::ReaderMgr"* %this1, i32 0, i32 2, !dbg !1931
  %21 = load %"class.xercesc_2_7::XMLReader"*, %"class.xercesc_2_7::XMLReader"** %fCurReader31, align 8, !dbg !1931
  %isnull32 = icmp eq %"class.xercesc_2_7::XMLReader"* %21, null, !dbg !1932
  br i1 %isnull32, label %delete.end34, label %delete.notnull33, !dbg !1932

delete.notnull33:                                 ; preds = %if.end30
  call void @_ZN11xercesc_2_79XMLReaderD1Ev(%"class.xercesc_2_7::XMLReader"* %21) #10, !dbg !1932
  %22 = bitcast %"class.xercesc_2_7::XMLReader"* %21 to i8*, !dbg !1932
  call void @_ZN11xercesc_2_77XMemorydlEPv(i8* %22) #10, !dbg !1932
  br label %delete.end34, !dbg !1932

delete.end34:                                     ; preds = %delete.notnull33, %if.end30
  %fReaderStack35 = getelementptr inbounds %"class.xercesc_2_7::ReaderMgr", %"class.xercesc_2_7::ReaderMgr"* %this1, i32 0, i32 6, !dbg !1933
  %23 = load %"class.xercesc_2_7::RefStackOf.0"*, %"class.xercesc_2_7::RefStackOf.0"** %fReaderStack35, align 8, !dbg !1933
  %call36 = call %"class.xercesc_2_7::XMLReader"* @_ZN11xercesc_2_710RefStackOfINS_9XMLReaderEE3popEv(%"class.xercesc_2_7::RefStackOf.0"* %23), !dbg !1934
  %fCurReader37 = getelementptr inbounds %"class.xercesc_2_7::ReaderMgr", %"class.xercesc_2_7::ReaderMgr"* %this1, i32 0, i32 2, !dbg !1935
  store %"class.xercesc_2_7::XMLReader"* %call36, %"class.xercesc_2_7::XMLReader"** %fCurReader37, align 8, !dbg !1936
  %fEntityStack38 = getelementptr inbounds %"class.xercesc_2_7::ReaderMgr", %"class.xercesc_2_7::ReaderMgr"* %this1, i32 0, i32 4, !dbg !1937
  %24 = load %"class.xercesc_2_7::RefStackOf"*, %"class.xercesc_2_7::RefStackOf"** %fEntityStack38, align 8, !dbg !1937
  %call39 = call %"class.xercesc_2_7::XMLEntityDecl"* @_ZN11xercesc_2_710RefStackOfINS_13XMLEntityDeclEE3popEv(%"class.xercesc_2_7::RefStackOf"* %24), !dbg !1938
  %fCurEntity40 = getelementptr inbounds %"class.xercesc_2_7::ReaderMgr", %"class.xercesc_2_7::ReaderMgr"* %this1, i32 0, i32 1, !dbg !1939
  store %"class.xercesc_2_7::XMLEntityDecl"* %call39, %"class.xercesc_2_7::XMLEntityDecl"** %fCurEntity40, align 8, !dbg !1940
  br label %while.body, !dbg !1912, !llvm.loop !1941

while.end:                                        ; preds = %if.then25, %if.then18
  store i1 true, i1* %retval, align 1, !dbg !1943
  br label %return, !dbg !1943

return:                                           ; preds = %while.end, %if.then29, %if.then
  %25 = load i1, i1* %retval, align 1, !dbg !1944
  ret i1 %25, !dbg !1944

eh.resume:                                        ; preds = %lpad
  %exn = load i8*, i8** %exn.slot, align 8, !dbg !1907
  %sel = load i32, i32* %ehselector.slot, align 4, !dbg !1907
  %lpad.val = insertvalue { i8*, i32 } undef, i8* %exn, 0, !dbg !1907
  %lpad.val41 = insertvalue { i8*, i32 } %lpad.val, i32 %sel, 1, !dbg !1907
  resume { i8*, i32 } %lpad.val41, !dbg !1907
}

; Function Attrs: noinline uwtable
define dso_local void @_ZN11xercesc_2_79ReaderMgr9getSpacesERNS_9XMLBufferE(%"class.xercesc_2_7::ReaderMgr"* %this, %"class.xercesc_2_7::XMLBuffer"* dereferenceable(40) %toFill) #3 align 2 !dbg !1945 {
entry:
  %this.addr = alloca %"class.xercesc_2_7::ReaderMgr"*, align 8
  %toFill.addr = alloca %"class.xercesc_2_7::XMLBuffer"*, align 8
  store %"class.xercesc_2_7::ReaderMgr"* %this, %"class.xercesc_2_7::ReaderMgr"** %this.addr, align 8
  call void @llvm.dbg.declare(metadata %"class.xercesc_2_7::ReaderMgr"** %this.addr, metadata !1946, metadata !DIExpression()), !dbg !1947
  store %"class.xercesc_2_7::XMLBuffer"* %toFill, %"class.xercesc_2_7::XMLBuffer"** %toFill.addr, align 8
  call void @llvm.dbg.declare(metadata %"class.xercesc_2_7::XMLBuffer"** %toFill.addr, metadata !1948, metadata !DIExpression()), !dbg !1949
  %this1 = load %"class.xercesc_2_7::ReaderMgr"*, %"class.xercesc_2_7::ReaderMgr"** %this.addr, align 8
  %0 = load %"class.xercesc_2_7::XMLBuffer"*, %"class.xercesc_2_7::XMLBuffer"** %toFill.addr, align 8, !dbg !1950
  call void @_ZN11xercesc_2_79XMLBuffer5resetEv(%"class.xercesc_2_7::XMLBuffer"* %0), !dbg !1951
  br label %while.body, !dbg !1952

while.body:                                       ; preds = %entry, %if.end4
  %fCurReader = getelementptr inbounds %"class.xercesc_2_7::ReaderMgr", %"class.xercesc_2_7::ReaderMgr"* %this1, i32 0, i32 2, !dbg !1953
  %1 = load %"class.xercesc_2_7::XMLReader"*, %"class.xercesc_2_7::XMLReader"** %fCurReader, align 8, !dbg !1953
  %2 = load %"class.xercesc_2_7::XMLBuffer"*, %"class.xercesc_2_7::XMLBuffer"** %toFill.addr, align 8, !dbg !1956
  %call = call zeroext i1 @_ZN11xercesc_2_79XMLReader9getSpacesERNS_9XMLBufferE(%"class.xercesc_2_7::XMLReader"* %1, %"class.xercesc_2_7::XMLBuffer"* dereferenceable(40) %2), !dbg !1957
  br i1 %call, label %if.then, label %if.end, !dbg !1958

if.then:                                          ; preds = %while.body
  br label %while.end, !dbg !1959

if.end:                                           ; preds = %while.body
  %call2 = call zeroext i1 @_ZN11xercesc_2_79ReaderMgr9popReaderEv(%"class.xercesc_2_7::ReaderMgr"* %this1), !dbg !1960
  br i1 %call2, label %if.end4, label %if.then3, !dbg !1962

if.then3:                                         ; preds = %if.end
  br label %while.end, !dbg !1963

if.end4:                                          ; preds = %if.end
  br label %while.body, !dbg !1952, !llvm.loop !1964

while.end:                                        ; preds = %if.then3, %if.then
  ret void, !dbg !1966
}

; Function Attrs: noinline nounwind uwtable
define linkonce_odr dso_local void @_ZN11xercesc_2_79XMLBuffer5resetEv(%"class.xercesc_2_7::XMLBuffer"* %this) #1 comdat align 2 !dbg !1967 {
entry:
  %this.addr = alloca %"class.xercesc_2_7::XMLBuffer"*, align 8
  store %"class.xercesc_2_7::XMLBuffer"* %this, %"class.xercesc_2_7::XMLBuffer"** %this.addr, align 8
  call void @llvm.dbg.declare(metadata %"class.xercesc_2_7::XMLBuffer"** %this.addr, metadata !1968, metadata !DIExpression()), !dbg !1970
  %this1 = load %"class.xercesc_2_7::XMLBuffer"*, %"class.xercesc_2_7::XMLBuffer"** %this.addr, align 8
  %fIndex = getelementptr inbounds %"class.xercesc_2_7::XMLBuffer", %"class.xercesc_2_7::XMLBuffer"* %this1, i32 0, i32 0, !dbg !1971
  store i32 0, i32* %fIndex, align 8, !dbg !1972
  %fBuffer = getelementptr inbounds %"class.xercesc_2_7::XMLBuffer", %"class.xercesc_2_7::XMLBuffer"* %this1, i32 0, i32 6, !dbg !1973
  %0 = load i16*, i16** %fBuffer, align 8, !dbg !1973
  %arrayidx = getelementptr inbounds i16, i16* %0, i64 0, !dbg !1973
  store i16 0, i16* %arrayidx, align 2, !dbg !1974
  ret void, !dbg !1975
}

declare dso_local zeroext i1 @_ZN11xercesc_2_79XMLReader9getSpacesERNS_9XMLBufferE(%"class.xercesc_2_7::XMLReader"*, %"class.xercesc_2_7::XMLBuffer"* dereferenceable(40)) #5

; Function Attrs: noinline uwtable
define dso_local void @_ZN11xercesc_2_79ReaderMgr15getUpToCharOrWSERNS_9XMLBufferEt(%"class.xercesc_2_7::ReaderMgr"* %this, %"class.xercesc_2_7::XMLBuffer"* dereferenceable(40) %toFill, i16 zeroext %toCheck) #3 align 2 !dbg !1976 {
entry:
  %this.addr = alloca %"class.xercesc_2_7::ReaderMgr"*, align 8
  %toFill.addr = alloca %"class.xercesc_2_7::XMLBuffer"*, align 8
  %toCheck.addr = alloca i16, align 2
  store %"class.xercesc_2_7::ReaderMgr"* %this, %"class.xercesc_2_7::ReaderMgr"** %this.addr, align 8
  call void @llvm.dbg.declare(metadata %"class.xercesc_2_7::ReaderMgr"** %this.addr, metadata !1977, metadata !DIExpression()), !dbg !1978
  store %"class.xercesc_2_7::XMLBuffer"* %toFill, %"class.xercesc_2_7::XMLBuffer"** %toFill.addr, align 8
  call void @llvm.dbg.declare(metadata %"class.xercesc_2_7::XMLBuffer"** %toFill.addr, metadata !1979, metadata !DIExpression()), !dbg !1980
  store i16 %toCheck, i16* %toCheck.addr, align 2
  call void @llvm.dbg.declare(metadata i16* %toCheck.addr, metadata !1981, metadata !DIExpression()), !dbg !1982
  %this1 = load %"class.xercesc_2_7::ReaderMgr"*, %"class.xercesc_2_7::ReaderMgr"** %this.addr, align 8
  %0 = load %"class.xercesc_2_7::XMLBuffer"*, %"class.xercesc_2_7::XMLBuffer"** %toFill.addr, align 8, !dbg !1983
  call void @_ZN11xercesc_2_79XMLBuffer5resetEv(%"class.xercesc_2_7::XMLBuffer"* %0), !dbg !1984
  br label %while.body, !dbg !1985

while.body:                                       ; preds = %entry, %if.end4
  %fCurReader = getelementptr inbounds %"class.xercesc_2_7::ReaderMgr", %"class.xercesc_2_7::ReaderMgr"* %this1, i32 0, i32 2, !dbg !1986
  %1 = load %"class.xercesc_2_7::XMLReader"*, %"class.xercesc_2_7::XMLReader"** %fCurReader, align 8, !dbg !1986
  %2 = load %"class.xercesc_2_7::XMLBuffer"*, %"class.xercesc_2_7::XMLBuffer"** %toFill.addr, align 8, !dbg !1989
  %3 = load i16, i16* %toCheck.addr, align 2, !dbg !1990
  %call = call zeroext i1 @_ZN11xercesc_2_79XMLReader15getUpToCharOrWSERNS_9XMLBufferEt(%"class.xercesc_2_7::XMLReader"* %1, %"class.xercesc_2_7::XMLBuffer"* dereferenceable(40) %2, i16 zeroext %3), !dbg !1991
  br i1 %call, label %if.then, label %if.end, !dbg !1992

if.then:                                          ; preds = %while.body
  br label %while.end, !dbg !1993

if.end:                                           ; preds = %while.body
  %call2 = call zeroext i1 @_ZN11xercesc_2_79ReaderMgr9popReaderEv(%"class.xercesc_2_7::ReaderMgr"* %this1), !dbg !1994
  br i1 %call2, label %if.end4, label %if.then3, !dbg !1996

if.then3:                                         ; preds = %if.end
  br label %while.end, !dbg !1997

if.end4:                                          ; preds = %if.end
  br label %while.body, !dbg !1985, !llvm.loop !1998

while.end:                                        ; preds = %if.then3, %if.then
  ret void, !dbg !2000
}

declare dso_local zeroext i1 @_ZN11xercesc_2_79XMLReader15getUpToCharOrWSERNS_9XMLBufferEt(%"class.xercesc_2_7::XMLReader"*, %"class.xercesc_2_7::XMLBuffer"* dereferenceable(40), i16 zeroext) #5

; Function Attrs: noinline uwtable
define dso_local zeroext i16 @_ZN11xercesc_2_79ReaderMgr12peekNextCharEv(%"class.xercesc_2_7::ReaderMgr"* %this) #3 align 2 !dbg !2001 {
entry:
  %retval = alloca i16, align 2
  %this.addr = alloca %"class.xercesc_2_7::ReaderMgr"*, align 8
  %chRet = alloca i16, align 2
  store %"class.xercesc_2_7::ReaderMgr"* %this, %"class.xercesc_2_7::ReaderMgr"** %this.addr, align 8
  call void @llvm.dbg.declare(metadata %"class.xercesc_2_7::ReaderMgr"** %this.addr, metadata !2002, metadata !DIExpression()), !dbg !2003
  %this1 = load %"class.xercesc_2_7::ReaderMgr"*, %"class.xercesc_2_7::ReaderMgr"** %this.addr, align 8
  call void @llvm.dbg.declare(metadata i16* %chRet, metadata !2004, metadata !DIExpression()), !dbg !2005
  %fCurReader = getelementptr inbounds %"class.xercesc_2_7::ReaderMgr", %"class.xercesc_2_7::ReaderMgr"* %this1, i32 0, i32 2, !dbg !2006
  %0 = load %"class.xercesc_2_7::XMLReader"*, %"class.xercesc_2_7::XMLReader"** %fCurReader, align 8, !dbg !2006
  %call = call zeroext i1 @_ZN11xercesc_2_79XMLReader12peekNextCharERt(%"class.xercesc_2_7::XMLReader"* %0, i16* dereferenceable(2) %chRet), !dbg !2008
  br i1 %call, label %if.then, label %if.end, !dbg !2009

if.then:                                          ; preds = %entry
  %1 = load i16, i16* %chRet, align 2, !dbg !2010
  store i16 %1, i16* %retval, align 2, !dbg !2011
  br label %return, !dbg !2011

if.end:                                           ; preds = %entry
  %call2 = call zeroext i1 @_ZN11xercesc_2_79ReaderMgr9popReaderEv(%"class.xercesc_2_7::ReaderMgr"* %this1), !dbg !2012
  br i1 %call2, label %if.end4, label %if.then3, !dbg !2014

if.then3:                                         ; preds = %if.end
  store i16 0, i16* %retval, align 2, !dbg !2015
  br label %return, !dbg !2015

if.end4:                                          ; preds = %if.end
  %fCurReader5 = getelementptr inbounds %"class.xercesc_2_7::ReaderMgr", %"class.xercesc_2_7::ReaderMgr"* %this1, i32 0, i32 2, !dbg !2016
  %2 = load %"class.xercesc_2_7::XMLReader"*, %"class.xercesc_2_7::XMLReader"** %fCurReader5, align 8, !dbg !2016
  %call6 = call zeroext i1 @_ZN11xercesc_2_79XMLReader12peekNextCharERt(%"class.xercesc_2_7::XMLReader"* %2, i16* dereferenceable(2) %chRet), !dbg !2017
  %3 = load i16, i16* %chRet, align 2, !dbg !2018
  store i16 %3, i16* %retval, align 2, !dbg !2019
  br label %return, !dbg !2019

return:                                           ; preds = %if.end4, %if.then3, %if.then
  %4 = load i16, i16* %retval, align 2, !dbg !2020
  ret i16 %4, !dbg !2020
}

; Function Attrs: noinline uwtable
define linkonce_odr dso_local zeroext i1 @_ZN11xercesc_2_79XMLReader12peekNextCharERt(%"class.xercesc_2_7::XMLReader"* %this, i16* dereferenceable(2) %chGotten) #3 comdat align 2 !dbg !2021 {
entry:
  %retval = alloca i1, align 1
  %this.addr = alloca %"class.xercesc_2_7::XMLReader"*, align 8
  %chGotten.addr = alloca i16*, align 8
  store %"class.xercesc_2_7::XMLReader"* %this, %"class.xercesc_2_7::XMLReader"** %this.addr, align 8
  call void @llvm.dbg.declare(metadata %"class.xercesc_2_7::XMLReader"** %this.addr, metadata !2022, metadata !DIExpression()), !dbg !2023
  store i16* %chGotten, i16** %chGotten.addr, align 8
  call void @llvm.dbg.declare(metadata i16** %chGotten.addr, metadata !2024, metadata !DIExpression()), !dbg !2025
  %this1 = load %"class.xercesc_2_7::XMLReader"*, %"class.xercesc_2_7::XMLReader"** %this.addr, align 8
  %fCharIndex = getelementptr inbounds %"class.xercesc_2_7::XMLReader", %"class.xercesc_2_7::XMLReader"* %this1, i32 0, i32 0, !dbg !2026
  %0 = load i32, i32* %fCharIndex, align 8, !dbg !2026
  %fCharsAvail = getelementptr inbounds %"class.xercesc_2_7::XMLReader", %"class.xercesc_2_7::XMLReader"* %this1, i32 0, i32 2, !dbg !2028
  %1 = load i32, i32* %fCharsAvail, align 4, !dbg !2028
  %cmp = icmp uge i32 %0, %1, !dbg !2029
  br i1 %cmp, label %if.then, label %if.end3, !dbg !2030

if.then:                                          ; preds = %entry
  %call = call zeroext i1 @_ZN11xercesc_2_79XMLReader17refreshCharBufferEv(%"class.xercesc_2_7::XMLReader"* %this1), !dbg !2031
  br i1 %call, label %if.end, label %if.then2, !dbg !2034

if.then2:                                         ; preds = %if.then
  %2 = load i16*, i16** %chGotten.addr, align 8, !dbg !2035
  store i16 0, i16* %2, align 2, !dbg !2037
  store i1 false, i1* %retval, align 1, !dbg !2038
  br label %return, !dbg !2038

if.end:                                           ; preds = %if.then
  br label %if.end3, !dbg !2039

if.end3:                                          ; preds = %if.end, %entry
  %fCharBuf = getelementptr inbounds %"class.xercesc_2_7::XMLReader", %"class.xercesc_2_7::XMLReader"* %this1, i32 0, i32 1, !dbg !2040
  %fCharIndex4 = getelementptr inbounds %"class.xercesc_2_7::XMLReader", %"class.xercesc_2_7::XMLReader"* %this1, i32 0, i32 0, !dbg !2041
  %3 = load i32, i32* %fCharIndex4, align 8, !dbg !2041
  %idxprom = zext i32 %3 to i64, !dbg !2040
  %arrayidx = getelementptr inbounds [16384 x i16], [16384 x i16]* %fCharBuf, i64 0, i64 %idxprom, !dbg !2040
  %4 = load i16, i16* %arrayidx, align 2, !dbg !2040
  %5 = load i16*, i16** %chGotten.addr, align 8, !dbg !2042
  store i16 %4, i16* %5, align 2, !dbg !2043
  %6 = load i16*, i16** %chGotten.addr, align 8, !dbg !2044
  %7 = load i16, i16* %6, align 2, !dbg !2044
  %conv = zext i16 %7 to i32, !dbg !2044
  %cmp5 = icmp eq i32 %conv, 13, !dbg !2046
  br i1 %cmp5, label %land.lhs.true11, label %lor.lhs.false, !dbg !2047

lor.lhs.false:                                    ; preds = %if.end3
  %8 = load i16*, i16** %chGotten.addr, align 8, !dbg !2048
  %9 = load i16, i16* %8, align 2, !dbg !2048
  %conv6 = zext i16 %9 to i32, !dbg !2048
  %cmp7 = icmp eq i32 %conv6, 133, !dbg !2049
  br i1 %cmp7, label %land.lhs.true, label %lor.lhs.false8, !dbg !2050

lor.lhs.false8:                                   ; preds = %lor.lhs.false
  %10 = load i16*, i16** %chGotten.addr, align 8, !dbg !2051
  %11 = load i16, i16* %10, align 2, !dbg !2051
  %conv9 = zext i16 %11 to i32, !dbg !2051
  %cmp10 = icmp eq i32 %conv9, 8232, !dbg !2052
  br i1 %cmp10, label %land.lhs.true, label %if.end14, !dbg !2053

land.lhs.true:                                    ; preds = %lor.lhs.false8, %lor.lhs.false
  %fNEL = getelementptr inbounds %"class.xercesc_2_7::XMLReader", %"class.xercesc_2_7::XMLReader"* %this1, i32 0, i32 29, !dbg !2054
  %12 = load i8, i8* %fNEL, align 8, !dbg !2054
  %tobool = trunc i8 %12 to i1, !dbg !2054
  br i1 %tobool, label %land.lhs.true11, label %if.end14, !dbg !2055

land.lhs.true11:                                  ; preds = %land.lhs.true, %if.end3
  %fSource = getelementptr inbounds %"class.xercesc_2_7::XMLReader", %"class.xercesc_2_7::XMLReader"* %this1, i32 0, i32 18, !dbg !2056
  %13 = load i32, i32* %fSource, align 4, !dbg !2056
  %cmp12 = icmp eq i32 %13, 1, !dbg !2057
  br i1 %cmp12, label %if.then13, label %if.end14, !dbg !2058

if.then13:                                        ; preds = %land.lhs.true11
  %14 = load i16*, i16** %chGotten.addr, align 8, !dbg !2059
  store i16 10, i16* %14, align 2, !dbg !2060
  br label %if.end14, !dbg !2059

if.end14:                                         ; preds = %if.then13, %land.lhs.true11, %land.lhs.true, %lor.lhs.false8
  store i1 true, i1* %retval, align 1, !dbg !2061
  br label %return, !dbg !2061

return:                                           ; preds = %if.end14, %if.then2
  %15 = load i1, i1* %retval, align 1, !dbg !2062
  ret i1 %15, !dbg !2062
}

; Function Attrs: noinline uwtable
define dso_local zeroext i1 @_ZN11xercesc_2_79ReaderMgr11skippedCharEt(%"class.xercesc_2_7::ReaderMgr"* %this, i16 zeroext %toCheck) #3 align 2 !dbg !2063 {
entry:
  %retval = alloca i1, align 1
  %this.addr = alloca %"class.xercesc_2_7::ReaderMgr"*, align 8
  %toCheck.addr = alloca i16, align 2
  store %"class.xercesc_2_7::ReaderMgr"* %this, %"class.xercesc_2_7::ReaderMgr"** %this.addr, align 8
  call void @llvm.dbg.declare(metadata %"class.xercesc_2_7::ReaderMgr"** %this.addr, metadata !2064, metadata !DIExpression()), !dbg !2065
  store i16 %toCheck, i16* %toCheck.addr, align 2
  call void @llvm.dbg.declare(metadata i16* %toCheck.addr, metadata !2066, metadata !DIExpression()), !dbg !2067
  %this1 = load %"class.xercesc_2_7::ReaderMgr"*, %"class.xercesc_2_7::ReaderMgr"** %this.addr, align 8
  br label %while.body, !dbg !2068

while.body:                                       ; preds = %entry, %if.end8
  %fCurReader = getelementptr inbounds %"class.xercesc_2_7::ReaderMgr", %"class.xercesc_2_7::ReaderMgr"* %this1, i32 0, i32 2, !dbg !2069
  %0 = load %"class.xercesc_2_7::XMLReader"*, %"class.xercesc_2_7::XMLReader"** %fCurReader, align 8, !dbg !2069
  %1 = load i16, i16* %toCheck.addr, align 2, !dbg !2072
  %call = call zeroext i1 @_ZN11xercesc_2_79XMLReader11skippedCharEt(%"class.xercesc_2_7::XMLReader"* %0, i16 zeroext %1), !dbg !2073
  br i1 %call, label %if.then, label %if.end, !dbg !2074

if.then:                                          ; preds = %while.body
  store i1 true, i1* %retval, align 1, !dbg !2075
  br label %return, !dbg !2075

if.end:                                           ; preds = %while.body
  %fCurReader2 = getelementptr inbounds %"class.xercesc_2_7::ReaderMgr", %"class.xercesc_2_7::ReaderMgr"* %this1, i32 0, i32 2, !dbg !2076
  %2 = load %"class.xercesc_2_7::XMLReader"*, %"class.xercesc_2_7::XMLReader"** %fCurReader2, align 8, !dbg !2076
  %call3 = call zeroext i1 @_ZNK11xercesc_2_79XMLReader13getNoMoreFlagEv(%"class.xercesc_2_7::XMLReader"* %2), !dbg !2078
  br i1 %call3, label %if.end5, label %if.then4, !dbg !2079

if.then4:                                         ; preds = %if.end
  br label %while.end, !dbg !2080

if.end5:                                          ; preds = %if.end
  %call6 = call zeroext i1 @_ZN11xercesc_2_79ReaderMgr9popReaderEv(%"class.xercesc_2_7::ReaderMgr"* %this1), !dbg !2081
  br i1 %call6, label %if.end8, label %if.then7, !dbg !2083

if.then7:                                         ; preds = %if.end5
  br label %while.end, !dbg !2084

if.end8:                                          ; preds = %if.end5
  br label %while.body, !dbg !2068, !llvm.loop !2085

while.end:                                        ; preds = %if.then7, %if.then4
  store i1 false, i1* %retval, align 1, !dbg !2087
  br label %return, !dbg !2087

return:                                           ; preds = %while.end, %if.then
  %3 = load i1, i1* %retval, align 1, !dbg !2088
  ret i1 %3, !dbg !2088
}

declare dso_local zeroext i1 @_ZN11xercesc_2_79XMLReader11skippedCharEt(%"class.xercesc_2_7::XMLReader"*, i16 zeroext) #5

; Function Attrs: noinline nounwind uwtable
define linkonce_odr dso_local zeroext i1 @_ZNK11xercesc_2_79XMLReader13getNoMoreFlagEv(%"class.xercesc_2_7::XMLReader"* %this) #1 comdat align 2 !dbg !2089 {
entry:
  %this.addr = alloca %"class.xercesc_2_7::XMLReader"*, align 8
  store %"class.xercesc_2_7::XMLReader"* %this, %"class.xercesc_2_7::XMLReader"** %this.addr, align 8
  call void @llvm.dbg.declare(metadata %"class.xercesc_2_7::XMLReader"** %this.addr, metadata !2090, metadata !DIExpression()), !dbg !2091
  %this1 = load %"class.xercesc_2_7::XMLReader"*, %"class.xercesc_2_7::XMLReader"** %this.addr, align 8
  %fNoMore = getelementptr inbounds %"class.xercesc_2_7::XMLReader", %"class.xercesc_2_7::XMLReader"* %this1, i32 0, i32 10, !dbg !2092
  %0 = load i8, i8* %fNoMore, align 1, !dbg !2092
  %tobool = trunc i8 %0 to i1, !dbg !2092
  ret i1 %tobool, !dbg !2093
}

; Function Attrs: noinline uwtable
define dso_local zeroext i1 @_ZN11xercesc_2_79ReaderMgr12skippedSpaceEv(%"class.xercesc_2_7::ReaderMgr"* %this) #3 align 2 !dbg !2094 {
entry:
  %retval = alloca i1, align 1
  %this.addr = alloca %"class.xercesc_2_7::ReaderMgr"*, align 8
  store %"class.xercesc_2_7::ReaderMgr"* %this, %"class.xercesc_2_7::ReaderMgr"** %this.addr, align 8
  call void @llvm.dbg.declare(metadata %"class.xercesc_2_7::ReaderMgr"** %this.addr, metadata !2095, metadata !DIExpression()), !dbg !2096
  %this1 = load %"class.xercesc_2_7::ReaderMgr"*, %"class.xercesc_2_7::ReaderMgr"** %this.addr, align 8
  br label %while.body, !dbg !2097

while.body:                                       ; preds = %entry, %if.end8
  %fCurReader = getelementptr inbounds %"class.xercesc_2_7::ReaderMgr", %"class.xercesc_2_7::ReaderMgr"* %this1, i32 0, i32 2, !dbg !2098
  %0 = load %"class.xercesc_2_7::XMLReader"*, %"class.xercesc_2_7::XMLReader"** %fCurReader, align 8, !dbg !2098
  %call = call zeroext i1 @_ZN11xercesc_2_79XMLReader12skippedSpaceEv(%"class.xercesc_2_7::XMLReader"* %0), !dbg !2101
  br i1 %call, label %if.then, label %if.end, !dbg !2102

if.then:                                          ; preds = %while.body
  store i1 true, i1* %retval, align 1, !dbg !2103
  br label %return, !dbg !2103

if.end:                                           ; preds = %while.body
  %fCurReader2 = getelementptr inbounds %"class.xercesc_2_7::ReaderMgr", %"class.xercesc_2_7::ReaderMgr"* %this1, i32 0, i32 2, !dbg !2104
  %1 = load %"class.xercesc_2_7::XMLReader"*, %"class.xercesc_2_7::XMLReader"** %fCurReader2, align 8, !dbg !2104
  %call3 = call zeroext i1 @_ZNK11xercesc_2_79XMLReader13getNoMoreFlagEv(%"class.xercesc_2_7::XMLReader"* %1), !dbg !2106
  br i1 %call3, label %if.end5, label %if.then4, !dbg !2107

if.then4:                                         ; preds = %if.end
  br label %while.end, !dbg !2108

if.end5:                                          ; preds = %if.end
  %call6 = call zeroext i1 @_ZN11xercesc_2_79ReaderMgr9popReaderEv(%"class.xercesc_2_7::ReaderMgr"* %this1), !dbg !2109
  br i1 %call6, label %if.end8, label %if.then7, !dbg !2111

if.then7:                                         ; preds = %if.end5
  br label %while.end, !dbg !2112

if.end8:                                          ; preds = %if.end5
  br label %while.body, !dbg !2097, !llvm.loop !2113

while.end:                                        ; preds = %if.then7, %if.then4
  store i1 false, i1* %retval, align 1, !dbg !2115
  br label %return, !dbg !2115

return:                                           ; preds = %while.end, %if.then
  %2 = load i1, i1* %retval, align 1, !dbg !2116
  ret i1 %2, !dbg !2116
}

declare dso_local zeroext i1 @_ZN11xercesc_2_79XMLReader12skippedSpaceEv(%"class.xercesc_2_7::XMLReader"*) #5

; Function Attrs: noinline uwtable
define dso_local zeroext i1 @_ZN11xercesc_2_79ReaderMgr11skipIfQuoteERt(%"class.xercesc_2_7::ReaderMgr"* %this, i16* dereferenceable(2) %chGotten) #3 align 2 !dbg !2117 {
entry:
  %retval = alloca i1, align 1
  %this.addr = alloca %"class.xercesc_2_7::ReaderMgr"*, align 8
  %chGotten.addr = alloca i16*, align 8
  store %"class.xercesc_2_7::ReaderMgr"* %this, %"class.xercesc_2_7::ReaderMgr"** %this.addr, align 8
  call void @llvm.dbg.declare(metadata %"class.xercesc_2_7::ReaderMgr"** %this.addr, metadata !2118, metadata !DIExpression()), !dbg !2119
  store i16* %chGotten, i16** %chGotten.addr, align 8
  call void @llvm.dbg.declare(metadata i16** %chGotten.addr, metadata !2120, metadata !DIExpression()), !dbg !2121
  %this1 = load %"class.xercesc_2_7::ReaderMgr"*, %"class.xercesc_2_7::ReaderMgr"** %this.addr, align 8
  br label %while.body, !dbg !2122

while.body:                                       ; preds = %entry, %if.end8
  %fCurReader = getelementptr inbounds %"class.xercesc_2_7::ReaderMgr", %"class.xercesc_2_7::ReaderMgr"* %this1, i32 0, i32 2, !dbg !2123
  %0 = load %"class.xercesc_2_7::XMLReader"*, %"class.xercesc_2_7::XMLReader"** %fCurReader, align 8, !dbg !2123
  %1 = load i16*, i16** %chGotten.addr, align 8, !dbg !2126
  %call = call zeroext i1 @_ZN11xercesc_2_79XMLReader11skipIfQuoteERt(%"class.xercesc_2_7::XMLReader"* %0, i16* dereferenceable(2) %1), !dbg !2127
  br i1 %call, label %if.then, label %if.end, !dbg !2128

if.then:                                          ; preds = %while.body
  store i1 true, i1* %retval, align 1, !dbg !2129
  br label %return, !dbg !2129

if.end:                                           ; preds = %while.body
  %fCurReader2 = getelementptr inbounds %"class.xercesc_2_7::ReaderMgr", %"class.xercesc_2_7::ReaderMgr"* %this1, i32 0, i32 2, !dbg !2130
  %2 = load %"class.xercesc_2_7::XMLReader"*, %"class.xercesc_2_7::XMLReader"** %fCurReader2, align 8, !dbg !2130
  %call3 = call zeroext i1 @_ZNK11xercesc_2_79XMLReader13getNoMoreFlagEv(%"class.xercesc_2_7::XMLReader"* %2), !dbg !2132
  br i1 %call3, label %if.end5, label %if.then4, !dbg !2133

if.then4:                                         ; preds = %if.end
  br label %while.end, !dbg !2134

if.end5:                                          ; preds = %if.end
  %call6 = call zeroext i1 @_ZN11xercesc_2_79ReaderMgr9popReaderEv(%"class.xercesc_2_7::ReaderMgr"* %this1), !dbg !2135
  br i1 %call6, label %if.end8, label %if.then7, !dbg !2137

if.then7:                                         ; preds = %if.end5
  br label %while.end, !dbg !2138

if.end8:                                          ; preds = %if.end5
  br label %while.body, !dbg !2122, !llvm.loop !2139

while.end:                                        ; preds = %if.then7, %if.then4
  store i1 false, i1* %retval, align 1, !dbg !2141
  br label %return, !dbg !2141

return:                                           ; preds = %while.end, %if.then
  %3 = load i1, i1* %retval, align 1, !dbg !2142
  ret i1 %3, !dbg !2142
}

declare dso_local zeroext i1 @_ZN11xercesc_2_79XMLReader11skipIfQuoteERt(%"class.xercesc_2_7::XMLReader"*, i16* dereferenceable(2)) #5

; Function Attrs: noinline uwtable
define dso_local zeroext i1 @_ZN11xercesc_2_79ReaderMgr14skipPastSpacesEb(%"class.xercesc_2_7::ReaderMgr"* %this, i1 zeroext %inDecl) #3 align 2 !dbg !2143 {
entry:
  %this.addr = alloca %"class.xercesc_2_7::ReaderMgr"*, align 8
  %inDecl.addr = alloca i8, align 1
  %skippedSomething = alloca i8, align 1
  %tmpFlag = alloca i8, align 1
  store %"class.xercesc_2_7::ReaderMgr"* %this, %"class.xercesc_2_7::ReaderMgr"** %this.addr, align 8
  call void @llvm.dbg.declare(metadata %"class.xercesc_2_7::ReaderMgr"** %this.addr, metadata !2144, metadata !DIExpression()), !dbg !2145
  %frombool = zext i1 %inDecl to i8
  store i8 %frombool, i8* %inDecl.addr, align 1
  call void @llvm.dbg.declare(metadata i8* %inDecl.addr, metadata !2146, metadata !DIExpression()), !dbg !2147
  %this1 = load %"class.xercesc_2_7::ReaderMgr"*, %"class.xercesc_2_7::ReaderMgr"** %this.addr, align 8
  call void @llvm.dbg.declare(metadata i8* %skippedSomething, metadata !2148, metadata !DIExpression()), !dbg !2149
  store i8 0, i8* %skippedSomething, align 1, !dbg !2149
  call void @llvm.dbg.declare(metadata i8* %tmpFlag, metadata !2150, metadata !DIExpression()), !dbg !2151
  br label %while.body, !dbg !2152

while.body:                                       ; preds = %entry, %if.end7
  %fCurReader = getelementptr inbounds %"class.xercesc_2_7::ReaderMgr", %"class.xercesc_2_7::ReaderMgr"* %this1, i32 0, i32 2, !dbg !2153
  %0 = load %"class.xercesc_2_7::XMLReader"*, %"class.xercesc_2_7::XMLReader"** %fCurReader, align 8, !dbg !2153
  %1 = load i8, i8* %inDecl.addr, align 1, !dbg !2156
  %tobool = trunc i8 %1 to i1, !dbg !2156
  %call = call zeroext i1 @_ZN11xercesc_2_79XMLReader10skipSpacesERbb(%"class.xercesc_2_7::XMLReader"* %0, i8* dereferenceable(1) %tmpFlag, i1 zeroext %tobool), !dbg !2157
  br i1 %call, label %if.then, label %if.end, !dbg !2158

if.then:                                          ; preds = %while.body
  br label %while.end, !dbg !2159

if.end:                                           ; preds = %while.body
  %2 = load i8, i8* %tmpFlag, align 1, !dbg !2160
  %tobool2 = trunc i8 %2 to i1, !dbg !2160
  br i1 %tobool2, label %if.then3, label %if.end4, !dbg !2162

if.then3:                                         ; preds = %if.end
  store i8 1, i8* %skippedSomething, align 1, !dbg !2163
  br label %if.end4, !dbg !2164

if.end4:                                          ; preds = %if.then3, %if.end
  %call5 = call zeroext i1 @_ZN11xercesc_2_79ReaderMgr9popReaderEv(%"class.xercesc_2_7::ReaderMgr"* %this1), !dbg !2165
  br i1 %call5, label %if.end7, label %if.then6, !dbg !2167

if.then6:                                         ; preds = %if.end4
  br label %while.end, !dbg !2168

if.end7:                                          ; preds = %if.end4
  br label %while.body, !dbg !2152, !llvm.loop !2169

while.end:                                        ; preds = %if.then6, %if.then
  %3 = load i8, i8* %tmpFlag, align 1, !dbg !2171
  %tobool8 = trunc i8 %3 to i1, !dbg !2171
  br i1 %tobool8, label %lor.end, label %lor.rhs, !dbg !2172

lor.rhs:                                          ; preds = %while.end
  %4 = load i8, i8* %skippedSomething, align 1, !dbg !2173
  %tobool9 = trunc i8 %4 to i1, !dbg !2173
  br label %lor.end, !dbg !2172

lor.end:                                          ; preds = %lor.rhs, %while.end
  %5 = phi i1 [ true, %while.end ], [ %tobool9, %lor.rhs ]
  ret i1 %5, !dbg !2174
}

declare dso_local zeroext i1 @_ZN11xercesc_2_79XMLReader10skipSpacesERbb(%"class.xercesc_2_7::XMLReader"*, i8* dereferenceable(1), i1 zeroext) #5

; Function Attrs: noinline uwtable
define dso_local void @_ZN11xercesc_2_79ReaderMgr16skipQuotedStringEt(%"class.xercesc_2_7::ReaderMgr"* %this, i16 zeroext %quoteCh) #3 align 2 !dbg !2175 {
entry:
  %this.addr = alloca %"class.xercesc_2_7::ReaderMgr"*, align 8
  %quoteCh.addr = alloca i16, align 2
  %nextCh = alloca i16, align 2
  store %"class.xercesc_2_7::ReaderMgr"* %this, %"class.xercesc_2_7::ReaderMgr"** %this.addr, align 8
  call void @llvm.dbg.declare(metadata %"class.xercesc_2_7::ReaderMgr"** %this.addr, metadata !2176, metadata !DIExpression()), !dbg !2177
  store i16 %quoteCh, i16* %quoteCh.addr, align 2
  call void @llvm.dbg.declare(metadata i16* %quoteCh.addr, metadata !2178, metadata !DIExpression()), !dbg !2179
  %this1 = load %"class.xercesc_2_7::ReaderMgr"*, %"class.xercesc_2_7::ReaderMgr"** %this.addr, align 8
  call void @llvm.dbg.declare(metadata i16* %nextCh, metadata !2180, metadata !DIExpression()), !dbg !2181
  br label %while.body, !dbg !2182

while.body:                                       ; preds = %entry, %if.end4
  %call = call zeroext i16 @_ZN11xercesc_2_79ReaderMgr11getNextCharEv(%"class.xercesc_2_7::ReaderMgr"* %this1), !dbg !2183
  store i16 %call, i16* %nextCh, align 2, !dbg !2185
  %0 = load i16, i16* %nextCh, align 2, !dbg !2186
  %tobool = icmp ne i16 %0, 0, !dbg !2186
  br i1 %tobool, label %if.end, label %if.then, !dbg !2188

if.then:                                          ; preds = %while.body
  br label %while.end, !dbg !2189

if.end:                                           ; preds = %while.body
  %1 = load i16, i16* %nextCh, align 2, !dbg !2190
  %conv = zext i16 %1 to i32, !dbg !2190
  %2 = load i16, i16* %quoteCh.addr, align 2, !dbg !2192
  %conv2 = zext i16 %2 to i32, !dbg !2192
  %cmp = icmp eq i32 %conv, %conv2, !dbg !2193
  br i1 %cmp, label %if.then3, label %if.end4, !dbg !2194

if.then3:                                         ; preds = %if.end
  br label %while.end, !dbg !2195

if.end4:                                          ; preds = %if.end
  br label %while.body, !dbg !2182, !llvm.loop !2196

while.end:                                        ; preds = %if.then3, %if.then
  ret void, !dbg !2198
}

; Function Attrs: noinline uwtable
define dso_local zeroext i16 @_ZN11xercesc_2_79ReaderMgr11skipUntilInEPKt(%"class.xercesc_2_7::ReaderMgr"* %this, i16* %listToSkip) #3 align 2 !dbg !2199 {
entry:
  %this.addr = alloca %"class.xercesc_2_7::ReaderMgr"*, align 8
  %listToSkip.addr = alloca i16*, align 8
  %nextCh = alloca i16, align 2
  store %"class.xercesc_2_7::ReaderMgr"* %this, %"class.xercesc_2_7::ReaderMgr"** %this.addr, align 8
  call void @llvm.dbg.declare(metadata %"class.xercesc_2_7::ReaderMgr"** %this.addr, metadata !2200, metadata !DIExpression()), !dbg !2201
  store i16* %listToSkip, i16** %listToSkip.addr, align 8
  call void @llvm.dbg.declare(metadata i16** %listToSkip.addr, metadata !2202, metadata !DIExpression()), !dbg !2203
  %this1 = load %"class.xercesc_2_7::ReaderMgr"*, %"class.xercesc_2_7::ReaderMgr"** %this.addr, align 8
  call void @llvm.dbg.declare(metadata i16* %nextCh, metadata !2204, metadata !DIExpression()), !dbg !2205
  br label %while.body, !dbg !2206

while.body:                                       ; preds = %entry, %if.end4
  %call = call zeroext i16 @_ZN11xercesc_2_79ReaderMgr12peekNextCharEv(%"class.xercesc_2_7::ReaderMgr"* %this1), !dbg !2207
  store i16 %call, i16* %nextCh, align 2, !dbg !2209
  %0 = load i16, i16* %nextCh, align 2, !dbg !2210
  %tobool = icmp ne i16 %0, 0, !dbg !2210
  br i1 %tobool, label %if.end, label %if.then, !dbg !2212

if.then:                                          ; preds = %while.body
  br label %while.end, !dbg !2213

if.end:                                           ; preds = %while.body
  %1 = load i16*, i16** %listToSkip.addr, align 8, !dbg !2214
  %2 = load i16, i16* %nextCh, align 2, !dbg !2216
  %call2 = call i32 @_ZN11xercesc_2_79XMLString7indexOfEPKtt(i16* %1, i16 zeroext %2), !dbg !2217
  %cmp = icmp ne i32 %call2, -1, !dbg !2218
  br i1 %cmp, label %if.then3, label %if.end4, !dbg !2219

if.then3:                                         ; preds = %if.end
  br label %while.end, !dbg !2220

if.end4:                                          ; preds = %if.end
  %call5 = call zeroext i16 @_ZN11xercesc_2_79ReaderMgr11getNextCharEv(%"class.xercesc_2_7::ReaderMgr"* %this1), !dbg !2221
  br label %while.body, !dbg !2206, !llvm.loop !2222

while.end:                                        ; preds = %if.then3, %if.then
  %3 = load i16, i16* %nextCh, align 2, !dbg !2224
  ret i16 %3, !dbg !2225
}

declare dso_local i32 @_ZN11xercesc_2_79XMLString7indexOfEPKtt(i16*, i16 zeroext) #5

; Function Attrs: noinline uwtable
define dso_local zeroext i16 @_ZN11xercesc_2_79ReaderMgr15skipUntilInOrWSEPKt(%"class.xercesc_2_7::ReaderMgr"* %this, i16* %listToSkip) #3 align 2 !dbg !2226 {
entry:
  %this.addr = alloca %"class.xercesc_2_7::ReaderMgr"*, align 8
  %listToSkip.addr = alloca i16*, align 8
  %nextCh = alloca i16, align 2
  store %"class.xercesc_2_7::ReaderMgr"* %this, %"class.xercesc_2_7::ReaderMgr"** %this.addr, align 8
  call void @llvm.dbg.declare(metadata %"class.xercesc_2_7::ReaderMgr"** %this.addr, metadata !2227, metadata !DIExpression()), !dbg !2228
  store i16* %listToSkip, i16** %listToSkip.addr, align 8
  call void @llvm.dbg.declare(metadata i16** %listToSkip.addr, metadata !2229, metadata !DIExpression()), !dbg !2230
  %this1 = load %"class.xercesc_2_7::ReaderMgr"*, %"class.xercesc_2_7::ReaderMgr"** %this.addr, align 8
  call void @llvm.dbg.declare(metadata i16* %nextCh, metadata !2231, metadata !DIExpression()), !dbg !2232
  br label %while.body, !dbg !2233

while.body:                                       ; preds = %entry, %if.end7
  %call = call zeroext i16 @_ZN11xercesc_2_79ReaderMgr12peekNextCharEv(%"class.xercesc_2_7::ReaderMgr"* %this1), !dbg !2234
  store i16 %call, i16* %nextCh, align 2, !dbg !2236
  %0 = load i16, i16* %nextCh, align 2, !dbg !2237
  %tobool = icmp ne i16 %0, 0, !dbg !2237
  br i1 %tobool, label %if.end, label %if.then, !dbg !2239

if.then:                                          ; preds = %while.body
  br label %while.end, !dbg !2240

if.end:                                           ; preds = %while.body
  %fCurReader = getelementptr inbounds %"class.xercesc_2_7::ReaderMgr", %"class.xercesc_2_7::ReaderMgr"* %this1, i32 0, i32 2, !dbg !2241
  %1 = load %"class.xercesc_2_7::XMLReader"*, %"class.xercesc_2_7::XMLReader"** %fCurReader, align 8, !dbg !2241
  %2 = load i16, i16* %nextCh, align 2, !dbg !2243
  %call2 = call zeroext i1 @_ZNK11xercesc_2_79XMLReader12isWhitespaceEt(%"class.xercesc_2_7::XMLReader"* %1, i16 zeroext %2), !dbg !2244
  br i1 %call2, label %if.then3, label %if.end4, !dbg !2245

if.then3:                                         ; preds = %if.end
  br label %while.end, !dbg !2246

if.end4:                                          ; preds = %if.end
  %3 = load i16*, i16** %listToSkip.addr, align 8, !dbg !2247
  %4 = load i16, i16* %nextCh, align 2, !dbg !2249
  %call5 = call i32 @_ZN11xercesc_2_79XMLString7indexOfEPKtt(i16* %3, i16 zeroext %4), !dbg !2250
  %cmp = icmp ne i32 %call5, -1, !dbg !2251
  br i1 %cmp, label %if.then6, label %if.end7, !dbg !2252

if.then6:                                         ; preds = %if.end4
  br label %while.end, !dbg !2253

if.end7:                                          ; preds = %if.end4
  %call8 = call zeroext i16 @_ZN11xercesc_2_79ReaderMgr11getNextCharEv(%"class.xercesc_2_7::ReaderMgr"* %this1), !dbg !2254
  br label %while.body, !dbg !2233, !llvm.loop !2255

while.end:                                        ; preds = %if.then6, %if.then3, %if.then
  %5 = load i16, i16* %nextCh, align 2, !dbg !2257
  ret i16 %5, !dbg !2258
}

; Function Attrs: noinline nounwind uwtable
define linkonce_odr dso_local zeroext i1 @_ZNK11xercesc_2_79XMLReader12isWhitespaceEt(%"class.xercesc_2_7::XMLReader"* %this, i16 zeroext %toCheck) #1 comdat align 2 !dbg !2259 {
entry:
  %this.addr = alloca %"class.xercesc_2_7::XMLReader"*, align 8
  %toCheck.addr = alloca i16, align 2
  store %"class.xercesc_2_7::XMLReader"* %this, %"class.xercesc_2_7::XMLReader"** %this.addr, align 8
  call void @llvm.dbg.declare(metadata %"class.xercesc_2_7::XMLReader"** %this.addr, metadata !2260, metadata !DIExpression()), !dbg !2261
  store i16 %toCheck, i16* %toCheck.addr, align 2
  call void @llvm.dbg.declare(metadata i16* %toCheck.addr, metadata !2262, metadata !DIExpression()), !dbg !2263
  %this1 = load %"class.xercesc_2_7::XMLReader"*, %"class.xercesc_2_7::XMLReader"** %this.addr, align 8
  %fgCharCharsTable = getelementptr inbounds %"class.xercesc_2_7::XMLReader", %"class.xercesc_2_7::XMLReader"* %this1, i32 0, i32 28, !dbg !2264
  %0 = load i8*, i8** %fgCharCharsTable, align 8, !dbg !2264
  %1 = load i16, i16* %toCheck.addr, align 2, !dbg !2265
  %idxprom = zext i16 %1 to i64, !dbg !2264
  %arrayidx = getelementptr inbounds i8, i8* %0, i64 %idxprom, !dbg !2264
  %2 = load i8, i8* %arrayidx, align 1, !dbg !2264
  %conv = zext i8 %2 to i32, !dbg !2264
  %and = and i32 %conv, 128, !dbg !2266
  %cmp = icmp ne i32 %and, 0, !dbg !2267
  ret i1 %cmp, !dbg !2268
}

; Function Attrs: noinline uwtable
define dso_local zeroext i1 @_ZNK11xercesc_2_79ReaderMgr5atEOFEv(%"class.xercesc_2_7::ReaderMgr"* %this) #3 align 2 !dbg !2269 {
entry:
  %this.addr = alloca %"class.xercesc_2_7::ReaderMgr"*, align 8
  store %"class.xercesc_2_7::ReaderMgr"* %this, %"class.xercesc_2_7::ReaderMgr"** %this.addr, align 8
  call void @llvm.dbg.declare(metadata %"class.xercesc_2_7::ReaderMgr"** %this.addr, metadata !2270, metadata !DIExpression()), !dbg !2271
  %this1 = load %"class.xercesc_2_7::ReaderMgr"*, %"class.xercesc_2_7::ReaderMgr"** %this.addr, align 8
  %fReaderStack = getelementptr inbounds %"class.xercesc_2_7::ReaderMgr", %"class.xercesc_2_7::ReaderMgr"* %this1, i32 0, i32 6, !dbg !2272
  %0 = load %"class.xercesc_2_7::RefStackOf.0"*, %"class.xercesc_2_7::RefStackOf.0"** %fReaderStack, align 8, !dbg !2272
  %call = call zeroext i1 @_ZN11xercesc_2_710RefStackOfINS_9XMLReaderEE5emptyEv(%"class.xercesc_2_7::RefStackOf.0"* %0), !dbg !2273
  br i1 %call, label %land.rhs, label %land.end, !dbg !2274

land.rhs:                                         ; preds = %entry
  %fCurReader = getelementptr inbounds %"class.xercesc_2_7::ReaderMgr", %"class.xercesc_2_7::ReaderMgr"* %this1, i32 0, i32 2, !dbg !2275
  %1 = load %"class.xercesc_2_7::XMLReader"*, %"class.xercesc_2_7::XMLReader"** %fCurReader, align 8, !dbg !2275
  %call2 = call zeroext i1 @_ZNK11xercesc_2_79XMLReader13getNoMoreFlagEv(%"class.xercesc_2_7::XMLReader"* %1), !dbg !2276
  br label %land.end

land.end:                                         ; preds = %land.rhs, %entry
  %2 = phi i1 [ false, %entry ], [ %call2, %land.rhs ], !dbg !2271
  ret i1 %2, !dbg !2277
}

; Function Attrs: noinline uwtable
define dso_local void @_ZN11xercesc_2_79ReaderMgr16cleanStackBackToEj(%"class.xercesc_2_7::ReaderMgr"* %this, i32 %readerNum) #3 align 2 personality i8* bitcast (i32 (...)* @__gxx_personality_v0 to i8*) !dbg !2278 {
entry:
  %this.addr = alloca %"class.xercesc_2_7::ReaderMgr"*, align 8
  %readerNum.addr = alloca i32, align 4
  %exn.slot = alloca i8*
  %ehselector.slot = alloca i32
  store %"class.xercesc_2_7::ReaderMgr"* %this, %"class.xercesc_2_7::ReaderMgr"** %this.addr, align 8
  call void @llvm.dbg.declare(metadata %"class.xercesc_2_7::ReaderMgr"** %this.addr, metadata !2279, metadata !DIExpression()), !dbg !2280
  store i32 %readerNum, i32* %readerNum.addr, align 4
  call void @llvm.dbg.declare(metadata i32* %readerNum.addr, metadata !2281, metadata !DIExpression()), !dbg !2282
  %this1 = load %"class.xercesc_2_7::ReaderMgr"*, %"class.xercesc_2_7::ReaderMgr"** %this.addr, align 8
  br label %while.body, !dbg !2283

while.body:                                       ; preds = %entry, %delete.end
  %fCurReader = getelementptr inbounds %"class.xercesc_2_7::ReaderMgr", %"class.xercesc_2_7::ReaderMgr"* %this1, i32 0, i32 2, !dbg !2284
  %0 = load %"class.xercesc_2_7::XMLReader"*, %"class.xercesc_2_7::XMLReader"** %fCurReader, align 8, !dbg !2284
  %call = call i32 @_ZNK11xercesc_2_79XMLReader12getReaderNumEv(%"class.xercesc_2_7::XMLReader"* %0), !dbg !2287
  %1 = load i32, i32* %readerNum.addr, align 4, !dbg !2288
  %cmp = icmp eq i32 %call, %1, !dbg !2289
  br i1 %cmp, label %if.then, label %if.end, !dbg !2290

if.then:                                          ; preds = %while.body
  br label %while.end, !dbg !2291

if.end:                                           ; preds = %while.body
  %fReaderStack = getelementptr inbounds %"class.xercesc_2_7::ReaderMgr", %"class.xercesc_2_7::ReaderMgr"* %this1, i32 0, i32 6, !dbg !2292
  %2 = load %"class.xercesc_2_7::RefStackOf.0"*, %"class.xercesc_2_7::RefStackOf.0"** %fReaderStack, align 8, !dbg !2292
  %call2 = call zeroext i1 @_ZN11xercesc_2_710RefStackOfINS_9XMLReaderEE5emptyEv(%"class.xercesc_2_7::RefStackOf.0"* %2), !dbg !2294
  br i1 %call2, label %if.then3, label %if.end4, !dbg !2295

if.then3:                                         ; preds = %if.end
  %exception = call i8* @__cxa_allocate_exception(i64 48) #10, !dbg !2296
  %3 = bitcast i8* %exception to %"class.xercesc_2_7::RuntimeException"*, !dbg !2296
  %fMemoryManager = getelementptr inbounds %"class.xercesc_2_7::ReaderMgr", %"class.xercesc_2_7::ReaderMgr"* %this1, i32 0, i32 10, !dbg !2296
  %4 = load %"class.xercesc_2_7::MemoryManager"*, %"class.xercesc_2_7::MemoryManager"** %fMemoryManager, align 8, !dbg !2296
  invoke void @_ZN11xercesc_2_716RuntimeExceptionC2EPKcjNS_10XMLExcepts5CodesEPNS_13MemoryManagerE(%"class.xercesc_2_7::RuntimeException"* %3, i8* getelementptr inbounds ([14 x i8], [14 x i8]* @.str, i64 0, i64 0), i32 366, i32 69, %"class.xercesc_2_7::MemoryManager"* %4)
          to label %invoke.cont unwind label %lpad, !dbg !2296

invoke.cont:                                      ; preds = %if.then3
  call void @__cxa_throw(i8* %exception, i8* bitcast ({ i8*, i8*, i8* }* @_ZTIN11xercesc_2_716RuntimeExceptionE to i8*), i8* bitcast (void (%"class.xercesc_2_7::RuntimeException"*)* @_ZN11xercesc_2_716RuntimeExceptionD2Ev to i8*)) #12, !dbg !2296
  unreachable, !dbg !2296

lpad:                                             ; preds = %if.then3
  %5 = landingpad { i8*, i32 }
          cleanup, !dbg !2297
  %6 = extractvalue { i8*, i32 } %5, 0, !dbg !2297
  store i8* %6, i8** %exn.slot, align 8, !dbg !2297
  %7 = extractvalue { i8*, i32 } %5, 1, !dbg !2297
  store i32 %7, i32* %ehselector.slot, align 4, !dbg !2297
  call void @__cxa_free_exception(i8* %exception) #10, !dbg !2296
  br label %eh.resume, !dbg !2296

if.end4:                                          ; preds = %if.end
  %fCurReader5 = getelementptr inbounds %"class.xercesc_2_7::ReaderMgr", %"class.xercesc_2_7::ReaderMgr"* %this1, i32 0, i32 2, !dbg !2298
  %8 = load %"class.xercesc_2_7::XMLReader"*, %"class.xercesc_2_7::XMLReader"** %fCurReader5, align 8, !dbg !2298
  %isnull = icmp eq %"class.xercesc_2_7::XMLReader"* %8, null, !dbg !2299
  br i1 %isnull, label %delete.end, label %delete.notnull, !dbg !2299

delete.notnull:                                   ; preds = %if.end4
  call void @_ZN11xercesc_2_79XMLReaderD1Ev(%"class.xercesc_2_7::XMLReader"* %8) #10, !dbg !2299
  %9 = bitcast %"class.xercesc_2_7::XMLReader"* %8 to i8*, !dbg !2299
  call void @_ZN11xercesc_2_77XMemorydlEPv(i8* %9) #10, !dbg !2299
  br label %delete.end, !dbg !2299

delete.end:                                       ; preds = %delete.notnull, %if.end4
  %fReaderStack6 = getelementptr inbounds %"class.xercesc_2_7::ReaderMgr", %"class.xercesc_2_7::ReaderMgr"* %this1, i32 0, i32 6, !dbg !2300
  %10 = load %"class.xercesc_2_7::RefStackOf.0"*, %"class.xercesc_2_7::RefStackOf.0"** %fReaderStack6, align 8, !dbg !2300
  %call7 = call %"class.xercesc_2_7::XMLReader"* @_ZN11xercesc_2_710RefStackOfINS_9XMLReaderEE3popEv(%"class.xercesc_2_7::RefStackOf.0"* %10), !dbg !2301
  %fCurReader8 = getelementptr inbounds %"class.xercesc_2_7::ReaderMgr", %"class.xercesc_2_7::ReaderMgr"* %this1, i32 0, i32 2, !dbg !2302
  store %"class.xercesc_2_7::XMLReader"* %call7, %"class.xercesc_2_7::XMLReader"** %fCurReader8, align 8, !dbg !2303
  %fEntityStack = getelementptr inbounds %"class.xercesc_2_7::ReaderMgr", %"class.xercesc_2_7::ReaderMgr"* %this1, i32 0, i32 4, !dbg !2304
  %11 = load %"class.xercesc_2_7::RefStackOf"*, %"class.xercesc_2_7::RefStackOf"** %fEntityStack, align 8, !dbg !2304
  %call9 = call %"class.xercesc_2_7::XMLEntityDecl"* @_ZN11xercesc_2_710RefStackOfINS_13XMLEntityDeclEE3popEv(%"class.xercesc_2_7::RefStackOf"* %11), !dbg !2305
  %fCurEntity = getelementptr inbounds %"class.xercesc_2_7::ReaderMgr", %"class.xercesc_2_7::ReaderMgr"* %this1, i32 0, i32 1, !dbg !2306
  store %"class.xercesc_2_7::XMLEntityDecl"* %call9, %"class.xercesc_2_7::XMLEntityDecl"** %fCurEntity, align 8, !dbg !2307
  br label %while.body, !dbg !2283, !llvm.loop !2308

while.end:                                        ; preds = %if.then
  ret void, !dbg !2310

eh.resume:                                        ; preds = %lpad
  %exn = load i8*, i8** %exn.slot, align 8, !dbg !2296
  %sel = load i32, i32* %ehselector.slot, align 4, !dbg !2296
  %lpad.val = insertvalue { i8*, i32 } undef, i8* %exn, 0, !dbg !2296
  %lpad.val10 = insertvalue { i8*, i32 } %lpad.val, i32 %sel, 1, !dbg !2296
  resume { i8*, i32 } %lpad.val10, !dbg !2296
}

; Function Attrs: noinline nounwind uwtable
define linkonce_odr dso_local i32 @_ZNK11xercesc_2_79XMLReader12getReaderNumEv(%"class.xercesc_2_7::XMLReader"* %this) #1 comdat align 2 !dbg !2311 {
entry:
  %this.addr = alloca %"class.xercesc_2_7::XMLReader"*, align 8
  store %"class.xercesc_2_7::XMLReader"* %this, %"class.xercesc_2_7::XMLReader"** %this.addr, align 8
  call void @llvm.dbg.declare(metadata %"class.xercesc_2_7::XMLReader"** %this.addr, metadata !2312, metadata !DIExpression()), !dbg !2313
  %this1 = load %"class.xercesc_2_7::XMLReader"*, %"class.xercesc_2_7::XMLReader"** %this.addr, align 8
  %fReaderNum = getelementptr inbounds %"class.xercesc_2_7::XMLReader", %"class.xercesc_2_7::XMLReader"* %this1, i32 0, i32 15, !dbg !2314
  %0 = load i32, i32* %fReaderNum, align 8, !dbg !2314
  ret i32 %0, !dbg !2315
}

declare dso_local i8* @__cxa_allocate_exception(i64)

; Function Attrs: noinline uwtable
define linkonce_odr dso_local void @_ZN11xercesc_2_716RuntimeExceptionC2EPKcjNS_10XMLExcepts5CodesEPNS_13MemoryManagerE(%"class.xercesc_2_7::RuntimeException"* %this, i8* %srcFile, i32 %srcLine, i32 %toThrow, %"class.xercesc_2_7::MemoryManager"* %memoryManager) unnamed_addr #3 comdat align 2 personality i8* bitcast (i32 (...)* @__gxx_personality_v0 to i8*) !dbg !2316 {
entry:
  %this.addr = alloca %"class.xercesc_2_7::RuntimeException"*, align 8
  %srcFile.addr = alloca i8*, align 8
  %srcLine.addr = alloca i32, align 4
  %toThrow.addr = alloca i32, align 4
  %memoryManager.addr = alloca %"class.xercesc_2_7::MemoryManager"*, align 8
  %exn.slot = alloca i8*
  %ehselector.slot = alloca i32
  store %"class.xercesc_2_7::RuntimeException"* %this, %"class.xercesc_2_7::RuntimeException"** %this.addr, align 8
  call void @llvm.dbg.declare(metadata %"class.xercesc_2_7::RuntimeException"** %this.addr, metadata !2356, metadata !DIExpression()), !dbg !2358
  store i8* %srcFile, i8** %srcFile.addr, align 8
  call void @llvm.dbg.declare(metadata i8** %srcFile.addr, metadata !2359, metadata !DIExpression()), !dbg !2360
  store i32 %srcLine, i32* %srcLine.addr, align 4
  call void @llvm.dbg.declare(metadata i32* %srcLine.addr, metadata !2361, metadata !DIExpression()), !dbg !2360
  store i32 %toThrow, i32* %toThrow.addr, align 4
  call void @llvm.dbg.declare(metadata i32* %toThrow.addr, metadata !2362, metadata !DIExpression()), !dbg !2360
  store %"class.xercesc_2_7::MemoryManager"* %memoryManager, %"class.xercesc_2_7::MemoryManager"** %memoryManager.addr, align 8
  call void @llvm.dbg.declare(metadata %"class.xercesc_2_7::MemoryManager"** %memoryManager.addr, metadata !2363, metadata !DIExpression()), !dbg !2360
  %this1 = load %"class.xercesc_2_7::RuntimeException"*, %"class.xercesc_2_7::RuntimeException"** %this.addr, align 8
  %0 = bitcast %"class.xercesc_2_7::RuntimeException"* %this1 to %"class.xercesc_2_7::XMLException"*, !dbg !2360
  %1 = load i8*, i8** %srcFile.addr, align 8, !dbg !2360
  %2 = load i32, i32* %srcLine.addr, align 4, !dbg !2360
  %3 = load %"class.xercesc_2_7::MemoryManager"*, %"class.xercesc_2_7::MemoryManager"** %memoryManager.addr, align 8, !dbg !2360
  call void @_ZN11xercesc_2_712XMLExceptionC2EPKcjPNS_13MemoryManagerE(%"class.xercesc_2_7::XMLException"* %0, i8* %1, i32 %2, %"class.xercesc_2_7::MemoryManager"* %3), !dbg !2360
  %4 = bitcast %"class.xercesc_2_7::RuntimeException"* %this1 to i32 (...)***, !dbg !2360
  store i32 (...)** bitcast (i8** getelementptr inbounds ({ [6 x i8*] }, { [6 x i8*] }* @_ZTVN11xercesc_2_716RuntimeExceptionE, i32 0, inrange i32 0, i32 2) to i32 (...)**), i32 (...)*** %4, align 8, !dbg !2360
  %5 = bitcast %"class.xercesc_2_7::RuntimeException"* %this1 to %"class.xercesc_2_7::XMLException"*, !dbg !2364
  %6 = load i32, i32* %toThrow.addr, align 4, !dbg !2364
  invoke void @_ZN11xercesc_2_712XMLException14loadExceptTextENS_10XMLExcepts5CodesE(%"class.xercesc_2_7::XMLException"* %5, i32 %6)
          to label %invoke.cont unwind label %lpad, !dbg !2364

invoke.cont:                                      ; preds = %entry
  ret void, !dbg !2360

lpad:                                             ; preds = %entry
  %7 = landingpad { i8*, i32 }
          cleanup, !dbg !2364
  %8 = extractvalue { i8*, i32 } %7, 0, !dbg !2364
  store i8* %8, i8** %exn.slot, align 8, !dbg !2364
  %9 = extractvalue { i8*, i32 } %7, 1, !dbg !2364
  store i32 %9, i32* %ehselector.slot, align 4, !dbg !2364
  %10 = bitcast %"class.xercesc_2_7::RuntimeException"* %this1 to %"class.xercesc_2_7::XMLException"*, !dbg !2364
  call void @_ZN11xercesc_2_712XMLExceptionD2Ev(%"class.xercesc_2_7::XMLException"* %10) #10, !dbg !2364
  br label %eh.resume, !dbg !2364

eh.resume:                                        ; preds = %lpad
  %exn = load i8*, i8** %exn.slot, align 8, !dbg !2364
  %sel = load i32, i32* %ehselector.slot, align 4, !dbg !2364
  %lpad.val = insertvalue { i8*, i32 } undef, i8* %exn, 0, !dbg !2364
  %lpad.val2 = insertvalue { i8*, i32 } %lpad.val, i32 %sel, 1, !dbg !2364
  resume { i8*, i32 } %lpad.val2, !dbg !2364
}

declare dso_local i32 @__gxx_personality_v0(...)

declare dso_local void @__cxa_free_exception(i8*)

; Function Attrs: noinline nounwind uwtable
define linkonce_odr dso_local void @_ZN11xercesc_2_716RuntimeExceptionD2Ev(%"class.xercesc_2_7::RuntimeException"* %this) unnamed_addr #1 comdat align 2 !dbg !2366 {
entry:
  %this.addr = alloca %"class.xercesc_2_7::RuntimeException"*, align 8
  store %"class.xercesc_2_7::RuntimeException"* %this, %"class.xercesc_2_7::RuntimeException"** %this.addr, align 8
  call void @llvm.dbg.declare(metadata %"class.xercesc_2_7::RuntimeException"** %this.addr, metadata !2367, metadata !DIExpression()), !dbg !2368
  %this1 = load %"class.xercesc_2_7::RuntimeException"*, %"class.xercesc_2_7::RuntimeException"** %this.addr, align 8
  %0 = bitcast %"class.xercesc_2_7::RuntimeException"* %this1 to %"class.xercesc_2_7::XMLException"*, !dbg !2369
  call void @_ZN11xercesc_2_712XMLExceptionD2Ev(%"class.xercesc_2_7::XMLException"* %0) #10, !dbg !2369
  ret void, !dbg !2371
}

declare dso_local void @__cxa_throw(i8*, i8*, i8*)

; Function Attrs: noinline uwtable
define linkonce_odr dso_local %"class.xercesc_2_7::XMLReader"* @_ZN11xercesc_2_710RefStackOfINS_9XMLReaderEE3popEv(%"class.xercesc_2_7::RefStackOf.0"* %this) #3 comdat align 2 personality i8* bitcast (i32 (...)* @__gxx_personality_v0 to i8*) !dbg !2372 {
entry:
  %this.addr = alloca %"class.xercesc_2_7::RefStackOf.0"*, align 8
  %curSize = alloca i32, align 4
  %exn.slot = alloca i8*
  %ehselector.slot = alloca i32
  store %"class.xercesc_2_7::RefStackOf.0"* %this, %"class.xercesc_2_7::RefStackOf.0"** %this.addr, align 8
  call void @llvm.dbg.declare(metadata %"class.xercesc_2_7::RefStackOf.0"** %this.addr, metadata !2373, metadata !DIExpression()), !dbg !2374
  %this1 = load %"class.xercesc_2_7::RefStackOf.0"*, %"class.xercesc_2_7::RefStackOf.0"** %this.addr, align 8
  call void @llvm.dbg.declare(metadata i32* %curSize, metadata !2375, metadata !DIExpression()), !dbg !2377
  %fVector = getelementptr inbounds %"class.xercesc_2_7::RefStackOf.0", %"class.xercesc_2_7::RefStackOf.0"* %this1, i32 0, i32 1, !dbg !2378
  %0 = bitcast %"class.xercesc_2_7::RefVectorOf.1"* %fVector to %"class.xercesc_2_7::BaseRefVectorOf.2"*, !dbg !2378
  %call = call i32 @_ZNK11xercesc_2_715BaseRefVectorOfINS_9XMLReaderEE4sizeEv(%"class.xercesc_2_7::BaseRefVectorOf.2"* %0), !dbg !2379
  store i32 %call, i32* %curSize, align 4, !dbg !2377
  %1 = load i32, i32* %curSize, align 4, !dbg !2380
  %cmp = icmp eq i32 %1, 0, !dbg !2382
  br i1 %cmp, label %if.then, label %if.end, !dbg !2383

if.then:                                          ; preds = %entry
  %exception = call i8* @__cxa_allocate_exception(i64 48) #10, !dbg !2384
  %2 = bitcast i8* %exception to %"class.xercesc_2_7::EmptyStackException"*, !dbg !2384
  %fVector2 = getelementptr inbounds %"class.xercesc_2_7::RefStackOf.0", %"class.xercesc_2_7::RefStackOf.0"* %this1, i32 0, i32 1, !dbg !2384
  %3 = bitcast %"class.xercesc_2_7::RefVectorOf.1"* %fVector2 to %"class.xercesc_2_7::BaseRefVectorOf.2"*, !dbg !2384
  %call3 = invoke %"class.xercesc_2_7::MemoryManager"* @_ZNK11xercesc_2_715BaseRefVectorOfINS_9XMLReaderEE16getMemoryManagerEv(%"class.xercesc_2_7::BaseRefVectorOf.2"* %3)
          to label %invoke.cont unwind label %lpad, !dbg !2384

invoke.cont:                                      ; preds = %if.then
  invoke void @_ZN11xercesc_2_719EmptyStackExceptionC2EPKcjNS_10XMLExcepts5CodesEPNS_13MemoryManagerE(%"class.xercesc_2_7::EmptyStackException"* %2, i8* getelementptr inbounds ([28 x i8], [28 x i8]* @.str.2, i64 0, i64 0), i32 77, i32 80, %"class.xercesc_2_7::MemoryManager"* %call3)
          to label %invoke.cont4 unwind label %lpad, !dbg !2384

invoke.cont4:                                     ; preds = %invoke.cont
  call void @__cxa_throw(i8* %exception, i8* bitcast ({ i8*, i8*, i8* }* @_ZTIN11xercesc_2_719EmptyStackExceptionE to i8*), i8* bitcast (void (%"class.xercesc_2_7::EmptyStackException"*)* @_ZN11xercesc_2_719EmptyStackExceptionD2Ev to i8*)) #12, !dbg !2384
  unreachable, !dbg !2384

lpad:                                             ; preds = %invoke.cont, %if.then
  %4 = landingpad { i8*, i32 }
          cleanup, !dbg !2385
  %5 = extractvalue { i8*, i32 } %4, 0, !dbg !2385
  store i8* %5, i8** %exn.slot, align 8, !dbg !2385
  %6 = extractvalue { i8*, i32 } %4, 1, !dbg !2385
  store i32 %6, i32* %ehselector.slot, align 4, !dbg !2385
  call void @__cxa_free_exception(i8* %exception) #10, !dbg !2384
  br label %eh.resume, !dbg !2384

if.end:                                           ; preds = %entry
  %fVector5 = getelementptr inbounds %"class.xercesc_2_7::RefStackOf.0", %"class.xercesc_2_7::RefStackOf.0"* %this1, i32 0, i32 1, !dbg !2386
  %7 = bitcast %"class.xercesc_2_7::RefVectorOf.1"* %fVector5 to %"class.xercesc_2_7::BaseRefVectorOf.2"*, !dbg !2386
  %8 = load i32, i32* %curSize, align 4, !dbg !2387
  %sub = sub nsw i32 %8, 1, !dbg !2388
  %call6 = call %"class.xercesc_2_7::XMLReader"* @_ZN11xercesc_2_715BaseRefVectorOfINS_9XMLReaderEE15orphanElementAtEj(%"class.xercesc_2_7::BaseRefVectorOf.2"* %7, i32 %sub), !dbg !2389
  ret %"class.xercesc_2_7::XMLReader"* %call6, !dbg !2390

eh.resume:                                        ; preds = %lpad
  %exn = load i8*, i8** %exn.slot, align 8, !dbg !2384
  %sel = load i32, i32* %ehselector.slot, align 4, !dbg !2384
  %lpad.val = insertvalue { i8*, i32 } undef, i8* %exn, 0, !dbg !2384
  %lpad.val7 = insertvalue { i8*, i32 } %lpad.val, i32 %sel, 1, !dbg !2384
  resume { i8*, i32 } %lpad.val7, !dbg !2384
}

; Function Attrs: noinline uwtable
define linkonce_odr dso_local %"class.xercesc_2_7::XMLEntityDecl"* @_ZN11xercesc_2_710RefStackOfINS_13XMLEntityDeclEE3popEv(%"class.xercesc_2_7::RefStackOf"* %this) #3 comdat align 2 personality i8* bitcast (i32 (...)* @__gxx_personality_v0 to i8*) !dbg !2391 {
entry:
  %this.addr = alloca %"class.xercesc_2_7::RefStackOf"*, align 8
  %curSize = alloca i32, align 4
  %exn.slot = alloca i8*
  %ehselector.slot = alloca i32
  store %"class.xercesc_2_7::RefStackOf"* %this, %"class.xercesc_2_7::RefStackOf"** %this.addr, align 8
  call void @llvm.dbg.declare(metadata %"class.xercesc_2_7::RefStackOf"** %this.addr, metadata !2392, metadata !DIExpression()), !dbg !2393
  %this1 = load %"class.xercesc_2_7::RefStackOf"*, %"class.xercesc_2_7::RefStackOf"** %this.addr, align 8
  call void @llvm.dbg.declare(metadata i32* %curSize, metadata !2394, metadata !DIExpression()), !dbg !2395
  %fVector = getelementptr inbounds %"class.xercesc_2_7::RefStackOf", %"class.xercesc_2_7::RefStackOf"* %this1, i32 0, i32 1, !dbg !2396
  %0 = bitcast %"class.xercesc_2_7::RefVectorOf"* %fVector to %"class.xercesc_2_7::BaseRefVectorOf"*, !dbg !2396
  %call = call i32 @_ZNK11xercesc_2_715BaseRefVectorOfINS_13XMLEntityDeclEE4sizeEv(%"class.xercesc_2_7::BaseRefVectorOf"* %0), !dbg !2397
  store i32 %call, i32* %curSize, align 4, !dbg !2395
  %1 = load i32, i32* %curSize, align 4, !dbg !2398
  %cmp = icmp eq i32 %1, 0, !dbg !2400
  br i1 %cmp, label %if.then, label %if.end, !dbg !2401

if.then:                                          ; preds = %entry
  %exception = call i8* @__cxa_allocate_exception(i64 48) #10, !dbg !2402
  %2 = bitcast i8* %exception to %"class.xercesc_2_7::EmptyStackException"*, !dbg !2402
  %fVector2 = getelementptr inbounds %"class.xercesc_2_7::RefStackOf", %"class.xercesc_2_7::RefStackOf"* %this1, i32 0, i32 1, !dbg !2402
  %3 = bitcast %"class.xercesc_2_7::RefVectorOf"* %fVector2 to %"class.xercesc_2_7::BaseRefVectorOf"*, !dbg !2402
  %call3 = invoke %"class.xercesc_2_7::MemoryManager"* @_ZNK11xercesc_2_715BaseRefVectorOfINS_13XMLEntityDeclEE16getMemoryManagerEv(%"class.xercesc_2_7::BaseRefVectorOf"* %3)
          to label %invoke.cont unwind label %lpad, !dbg !2402

invoke.cont:                                      ; preds = %if.then
  invoke void @_ZN11xercesc_2_719EmptyStackExceptionC2EPKcjNS_10XMLExcepts5CodesEPNS_13MemoryManagerE(%"class.xercesc_2_7::EmptyStackException"* %2, i8* getelementptr inbounds ([28 x i8], [28 x i8]* @.str.2, i64 0, i64 0), i32 77, i32 80, %"class.xercesc_2_7::MemoryManager"* %call3)
          to label %invoke.cont4 unwind label %lpad, !dbg !2402

invoke.cont4:                                     ; preds = %invoke.cont
  call void @__cxa_throw(i8* %exception, i8* bitcast ({ i8*, i8*, i8* }* @_ZTIN11xercesc_2_719EmptyStackExceptionE to i8*), i8* bitcast (void (%"class.xercesc_2_7::EmptyStackException"*)* @_ZN11xercesc_2_719EmptyStackExceptionD2Ev to i8*)) #12, !dbg !2402
  unreachable, !dbg !2402

lpad:                                             ; preds = %invoke.cont, %if.then
  %4 = landingpad { i8*, i32 }
          cleanup, !dbg !2403
  %5 = extractvalue { i8*, i32 } %4, 0, !dbg !2403
  store i8* %5, i8** %exn.slot, align 8, !dbg !2403
  %6 = extractvalue { i8*, i32 } %4, 1, !dbg !2403
  store i32 %6, i32* %ehselector.slot, align 4, !dbg !2403
  call void @__cxa_free_exception(i8* %exception) #10, !dbg !2402
  br label %eh.resume, !dbg !2402

if.end:                                           ; preds = %entry
  %fVector5 = getelementptr inbounds %"class.xercesc_2_7::RefStackOf", %"class.xercesc_2_7::RefStackOf"* %this1, i32 0, i32 1, !dbg !2404
  %7 = bitcast %"class.xercesc_2_7::RefVectorOf"* %fVector5 to %"class.xercesc_2_7::BaseRefVectorOf"*, !dbg !2404
  %8 = load i32, i32* %curSize, align 4, !dbg !2405
  %sub = sub nsw i32 %8, 1, !dbg !2406
  %call6 = call %"class.xercesc_2_7::XMLEntityDecl"* @_ZN11xercesc_2_715BaseRefVectorOfINS_13XMLEntityDeclEE15orphanElementAtEj(%"class.xercesc_2_7::BaseRefVectorOf"* %7, i32 %sub), !dbg !2407
  ret %"class.xercesc_2_7::XMLEntityDecl"* %call6, !dbg !2408

eh.resume:                                        ; preds = %lpad
  %exn = load i8*, i8** %exn.slot, align 8, !dbg !2402
  %sel = load i32, i32* %ehselector.slot, align 4, !dbg !2402
  %lpad.val = insertvalue { i8*, i32 } undef, i8* %exn, 0, !dbg !2402
  %lpad.val7 = insertvalue { i8*, i32 } %lpad.val, i32 %sel, 1, !dbg !2402
  resume { i8*, i32 } %lpad.val7, !dbg !2402
}

; Function Attrs: noinline uwtable
define dso_local %"class.xercesc_2_7::XMLReader"* @_ZN11xercesc_2_79ReaderMgr12createReaderERKNS_11InputSourceEbNS_9XMLReader7RefFromENS4_5TypesENS4_7SourcesEb(%"class.xercesc_2_7::ReaderMgr"* %this, %"class.xercesc_2_7::InputSource"* dereferenceable(48) %src, i1 zeroext %0, i32 %refFrom, i32 %type, i32 %source, i1 zeroext %calcSrcOfs) #3 align 2 personality i8* bitcast (i32 (...)* @__gxx_personality_v0 to i8*) !dbg !2409 {
entry:
  %retval = alloca %"class.xercesc_2_7::XMLReader"*, align 8
  %this.addr = alloca %"class.xercesc_2_7::ReaderMgr"*, align 8
  %src.addr = alloca %"class.xercesc_2_7::InputSource"*, align 8
  %.addr = alloca i8, align 1
  %refFrom.addr = alloca i32, align 4
  %type.addr = alloca i32, align 4
  %source.addr = alloca i32, align 4
  %calcSrcOfs.addr = alloca i8, align 1
  %newStream = alloca %"class.xercesc_2_7::BinInputStream"*, align 8
  %streamJanitor = alloca %"class.xercesc_2_7::Janitor", align 8
  %retVal = alloca %"class.xercesc_2_7::XMLReader"*, align 8
  %exn.slot = alloca i8*
  %ehselector.slot = alloca i32
  %1 = alloca %"class.xercesc_2_7::OutOfMemoryException"*, align 8
  store %"class.xercesc_2_7::ReaderMgr"* %this, %"class.xercesc_2_7::ReaderMgr"** %this.addr, align 8
  call void @llvm.dbg.declare(metadata %"class.xercesc_2_7::ReaderMgr"** %this.addr, metadata !2410, metadata !DIExpression()), !dbg !2411
  store %"class.xercesc_2_7::InputSource"* %src, %"class.xercesc_2_7::InputSource"** %src.addr, align 8
  call void @llvm.dbg.declare(metadata %"class.xercesc_2_7::InputSource"** %src.addr, metadata !2412, metadata !DIExpression()), !dbg !2413
  %frombool = zext i1 %0 to i8
  store i8 %frombool, i8* %.addr, align 1
  call void @llvm.dbg.declare(metadata i8* %.addr, metadata !2414, metadata !DIExpression()), !dbg !2415
  store i32 %refFrom, i32* %refFrom.addr, align 4
  call void @llvm.dbg.declare(metadata i32* %refFrom.addr, metadata !2416, metadata !DIExpression()), !dbg !2417
  store i32 %type, i32* %type.addr, align 4
  call void @llvm.dbg.declare(metadata i32* %type.addr, metadata !2418, metadata !DIExpression()), !dbg !2419
  store i32 %source, i32* %source.addr, align 4
  call void @llvm.dbg.declare(metadata i32* %source.addr, metadata !2420, metadata !DIExpression()), !dbg !2421
  %frombool1 = zext i1 %calcSrcOfs to i8
  store i8 %frombool1, i8* %calcSrcOfs.addr, align 1
  call void @llvm.dbg.declare(metadata i8* %calcSrcOfs.addr, metadata !2422, metadata !DIExpression()), !dbg !2423
  %this2 = load %"class.xercesc_2_7::ReaderMgr"*, %"class.xercesc_2_7::ReaderMgr"** %this.addr, align 8
  call void @llvm.dbg.declare(metadata %"class.xercesc_2_7::BinInputStream"** %newStream, metadata !2424, metadata !DIExpression()), !dbg !2425
  %2 = load %"class.xercesc_2_7::InputSource"*, %"class.xercesc_2_7::InputSource"** %src.addr, align 8, !dbg !2426
  %3 = bitcast %"class.xercesc_2_7::InputSource"* %2 to %"class.xercesc_2_7::BinInputStream"* (%"class.xercesc_2_7::InputSource"*)***, !dbg !2427
  %vtable = load %"class.xercesc_2_7::BinInputStream"* (%"class.xercesc_2_7::InputSource"*)**, %"class.xercesc_2_7::BinInputStream"* (%"class.xercesc_2_7::InputSource"*)*** %3, align 8, !dbg !2427
  %vfn = getelementptr inbounds %"class.xercesc_2_7::BinInputStream"* (%"class.xercesc_2_7::InputSource"*)*, %"class.xercesc_2_7::BinInputStream"* (%"class.xercesc_2_7::InputSource"*)** %vtable, i64 2, !dbg !2427
  %4 = load %"class.xercesc_2_7::BinInputStream"* (%"class.xercesc_2_7::InputSource"*)*, %"class.xercesc_2_7::BinInputStream"* (%"class.xercesc_2_7::InputSource"*)** %vfn, align 8, !dbg !2427
  %call = call %"class.xercesc_2_7::BinInputStream"* %4(%"class.xercesc_2_7::InputSource"* %2), !dbg !2427
  store %"class.xercesc_2_7::BinInputStream"* %call, %"class.xercesc_2_7::BinInputStream"** %newStream, align 8, !dbg !2425
  %5 = load %"class.xercesc_2_7::BinInputStream"*, %"class.xercesc_2_7::BinInputStream"** %newStream, align 8, !dbg !2428
  %tobool = icmp ne %"class.xercesc_2_7::BinInputStream"* %5, null, !dbg !2428
  br i1 %tobool, label %if.end, label %if.then, !dbg !2430

if.then:                                          ; preds = %entry
  store %"class.xercesc_2_7::XMLReader"* null, %"class.xercesc_2_7::XMLReader"** %retval, align 8, !dbg !2431
  br label %return, !dbg !2431

if.end:                                           ; preds = %entry
  call void @llvm.dbg.declare(metadata %"class.xercesc_2_7::Janitor"* %streamJanitor, metadata !2432, metadata !DIExpression()), !dbg !2476
  %6 = load %"class.xercesc_2_7::BinInputStream"*, %"class.xercesc_2_7::BinInputStream"** %newStream, align 8, !dbg !2477
  call void @_ZN11xercesc_2_77JanitorINS_14BinInputStreamEEC2EPS1_(%"class.xercesc_2_7::Janitor"* %streamJanitor, %"class.xercesc_2_7::BinInputStream"* %6), !dbg !2476
  call void @llvm.dbg.declare(metadata %"class.xercesc_2_7::XMLReader"** %retVal, metadata !2478, metadata !DIExpression()), !dbg !2479
  store %"class.xercesc_2_7::XMLReader"* null, %"class.xercesc_2_7::XMLReader"** %retVal, align 8, !dbg !2479
  %7 = load %"class.xercesc_2_7::InputSource"*, %"class.xercesc_2_7::InputSource"** %src.addr, align 8, !dbg !2480
  %8 = bitcast %"class.xercesc_2_7::InputSource"* %7 to i16* (%"class.xercesc_2_7::InputSource"*)***, !dbg !2483
  %vtable3 = load i16* (%"class.xercesc_2_7::InputSource"*)**, i16* (%"class.xercesc_2_7::InputSource"*)*** %8, align 8, !dbg !2483
  %vfn4 = getelementptr inbounds i16* (%"class.xercesc_2_7::InputSource"*)*, i16* (%"class.xercesc_2_7::InputSource"*)** %vtable3, i64 3, !dbg !2483
  %9 = load i16* (%"class.xercesc_2_7::InputSource"*)*, i16* (%"class.xercesc_2_7::InputSource"*)** %vfn4, align 8, !dbg !2483
  %call5 = invoke i16* %9(%"class.xercesc_2_7::InputSource"* %7)
          to label %invoke.cont unwind label %lpad, !dbg !2483

invoke.cont:                                      ; preds = %if.end
  %tobool6 = icmp ne i16* %call5, null, !dbg !2480
  br i1 %tobool6, label %if.then7, label %if.else, !dbg !2484

if.then7:                                         ; preds = %invoke.cont
  %fMemoryManager = getelementptr inbounds %"class.xercesc_2_7::ReaderMgr", %"class.xercesc_2_7::ReaderMgr"* %this2, i32 0, i32 10, !dbg !2485
  %10 = load %"class.xercesc_2_7::MemoryManager"*, %"class.xercesc_2_7::MemoryManager"** %fMemoryManager, align 8, !dbg !2485
  %call9 = invoke i8* @_ZN11xercesc_2_77XMemorynwEmPNS_13MemoryManagerE(i64 163992, %"class.xercesc_2_7::MemoryManager"* %10)
          to label %invoke.cont8 unwind label %lpad, !dbg !2487

invoke.cont8:                                     ; preds = %if.then7
  %11 = bitcast i8* %call9 to %"class.xercesc_2_7::XMLReader"*, !dbg !2487
  %12 = load %"class.xercesc_2_7::InputSource"*, %"class.xercesc_2_7::InputSource"** %src.addr, align 8, !dbg !2488
  %13 = bitcast %"class.xercesc_2_7::InputSource"* %12 to i16* (%"class.xercesc_2_7::InputSource"*)***, !dbg !2489
  %vtable10 = load i16* (%"class.xercesc_2_7::InputSource"*)**, i16* (%"class.xercesc_2_7::InputSource"*)*** %13, align 8, !dbg !2489
  %vfn11 = getelementptr inbounds i16* (%"class.xercesc_2_7::InputSource"*)*, i16* (%"class.xercesc_2_7::InputSource"*)** %vtable10, i64 4, !dbg !2489
  %14 = load i16* (%"class.xercesc_2_7::InputSource"*)*, i16* (%"class.xercesc_2_7::InputSource"*)** %vfn11, align 8, !dbg !2489
  %call14 = invoke i16* %14(%"class.xercesc_2_7::InputSource"* %12)
          to label %invoke.cont13 unwind label %lpad12, !dbg !2489

invoke.cont13:                                    ; preds = %invoke.cont8
  %15 = load %"class.xercesc_2_7::InputSource"*, %"class.xercesc_2_7::InputSource"** %src.addr, align 8, !dbg !2490
  %16 = bitcast %"class.xercesc_2_7::InputSource"* %15 to i16* (%"class.xercesc_2_7::InputSource"*)***, !dbg !2491
  %vtable15 = load i16* (%"class.xercesc_2_7::InputSource"*)**, i16* (%"class.xercesc_2_7::InputSource"*)*** %16, align 8, !dbg !2491
  %vfn16 = getelementptr inbounds i16* (%"class.xercesc_2_7::InputSource"*)*, i16* (%"class.xercesc_2_7::InputSource"*)** %vtable15, i64 5, !dbg !2491
  %17 = load i16* (%"class.xercesc_2_7::InputSource"*)*, i16* (%"class.xercesc_2_7::InputSource"*)** %vfn16, align 8, !dbg !2491
  %call18 = invoke i16* %17(%"class.xercesc_2_7::InputSource"* %15)
          to label %invoke.cont17 unwind label %lpad12, !dbg !2491

invoke.cont17:                                    ; preds = %invoke.cont13
  %18 = load %"class.xercesc_2_7::BinInputStream"*, %"class.xercesc_2_7::BinInputStream"** %newStream, align 8, !dbg !2492
  %19 = load %"class.xercesc_2_7::InputSource"*, %"class.xercesc_2_7::InputSource"** %src.addr, align 8, !dbg !2493
  %20 = bitcast %"class.xercesc_2_7::InputSource"* %19 to i16* (%"class.xercesc_2_7::InputSource"*)***, !dbg !2494
  %vtable19 = load i16* (%"class.xercesc_2_7::InputSource"*)**, i16* (%"class.xercesc_2_7::InputSource"*)*** %20, align 8, !dbg !2494
  %vfn20 = getelementptr inbounds i16* (%"class.xercesc_2_7::InputSource"*)*, i16* (%"class.xercesc_2_7::InputSource"*)** %vtable19, i64 3, !dbg !2494
  %21 = load i16* (%"class.xercesc_2_7::InputSource"*)*, i16* (%"class.xercesc_2_7::InputSource"*)** %vfn20, align 8, !dbg !2494
  %call22 = invoke i16* %21(%"class.xercesc_2_7::InputSource"* %19)
          to label %invoke.cont21 unwind label %lpad12, !dbg !2494

invoke.cont21:                                    ; preds = %invoke.cont17
  %22 = load i32, i32* %refFrom.addr, align 4, !dbg !2495
  %23 = load i32, i32* %type.addr, align 4, !dbg !2496
  %24 = load i32, i32* %source.addr, align 4, !dbg !2497
  %25 = load i8, i8* %calcSrcOfs.addr, align 1, !dbg !2498
  %tobool23 = trunc i8 %25 to i1, !dbg !2498
  %fXMLVersion = getelementptr inbounds %"class.xercesc_2_7::ReaderMgr", %"class.xercesc_2_7::ReaderMgr"* %this2, i32 0, i32 8, !dbg !2499
  %26 = load i32, i32* %fXMLVersion, align 4, !dbg !2499
  %fMemoryManager24 = getelementptr inbounds %"class.xercesc_2_7::ReaderMgr", %"class.xercesc_2_7::ReaderMgr"* %this2, i32 0, i32 10, !dbg !2500
  %27 = load %"class.xercesc_2_7::MemoryManager"*, %"class.xercesc_2_7::MemoryManager"** %fMemoryManager24, align 8, !dbg !2500
  invoke void @_ZN11xercesc_2_79XMLReaderC1EPKtS2_PNS_14BinInputStreamES2_NS0_7RefFromENS0_5TypesENS0_7SourcesEbbNS0_10XMLVersionEPNS_13MemoryManagerE(%"class.xercesc_2_7::XMLReader"* %11, i16* %call14, i16* %call18, %"class.xercesc_2_7::BinInputStream"* %18, i16* %call22, i32 %22, i32 %23, i32 %24, i1 zeroext false, i1 zeroext %tobool23, i32 %26, %"class.xercesc_2_7::MemoryManager"* %27)
          to label %invoke.cont25 unwind label %lpad12, !dbg !2501

invoke.cont25:                                    ; preds = %invoke.cont21
  store %"class.xercesc_2_7::XMLReader"* %11, %"class.xercesc_2_7::XMLReader"** %retVal, align 8, !dbg !2502
  br label %if.end42, !dbg !2503

lpad:                                             ; preds = %if.else, %if.then7, %if.end
  %28 = landingpad { i8*, i32 }
          cleanup
          catch i8* bitcast ({ i8*, i8*, i8* }* @_ZTIN11xercesc_2_720OutOfMemoryExceptionE to i8*), !dbg !2504
  %29 = extractvalue { i8*, i32 } %28, 0, !dbg !2504
  store i8* %29, i8** %exn.slot, align 8, !dbg !2504
  %30 = extractvalue { i8*, i32 } %28, 1, !dbg !2504
  store i32 %30, i32* %ehselector.slot, align 4, !dbg !2504
  br label %catch.dispatch, !dbg !2504

lpad12:                                           ; preds = %invoke.cont21, %invoke.cont17, %invoke.cont13, %invoke.cont8
  %31 = landingpad { i8*, i32 }
          cleanup
          catch i8* bitcast ({ i8*, i8*, i8* }* @_ZTIN11xercesc_2_720OutOfMemoryExceptionE to i8*), !dbg !2505
  %32 = extractvalue { i8*, i32 } %31, 0, !dbg !2505
  store i8* %32, i8** %exn.slot, align 8, !dbg !2505
  %33 = extractvalue { i8*, i32 } %31, 1, !dbg !2505
  store i32 %33, i32* %ehselector.slot, align 4, !dbg !2505
  call void @_ZN11xercesc_2_77XMemorydlEPvPNS_13MemoryManagerE(i8* %call9, %"class.xercesc_2_7::MemoryManager"* %10) #10, !dbg !2487
  br label %catch.dispatch, !dbg !2487

if.else:                                          ; preds = %invoke.cont
  %fMemoryManager26 = getelementptr inbounds %"class.xercesc_2_7::ReaderMgr", %"class.xercesc_2_7::ReaderMgr"* %this2, i32 0, i32 10, !dbg !2506
  %34 = load %"class.xercesc_2_7::MemoryManager"*, %"class.xercesc_2_7::MemoryManager"** %fMemoryManager26, align 8, !dbg !2506
  %call28 = invoke i8* @_ZN11xercesc_2_77XMemorynwEmPNS_13MemoryManagerE(i64 163992, %"class.xercesc_2_7::MemoryManager"* %34)
          to label %invoke.cont27 unwind label %lpad, !dbg !2508

invoke.cont27:                                    ; preds = %if.else
  %35 = bitcast i8* %call28 to %"class.xercesc_2_7::XMLReader"*, !dbg !2508
  %36 = load %"class.xercesc_2_7::InputSource"*, %"class.xercesc_2_7::InputSource"** %src.addr, align 8, !dbg !2509
  %37 = bitcast %"class.xercesc_2_7::InputSource"* %36 to i16* (%"class.xercesc_2_7::InputSource"*)***, !dbg !2510
  %vtable29 = load i16* (%"class.xercesc_2_7::InputSource"*)**, i16* (%"class.xercesc_2_7::InputSource"*)*** %37, align 8, !dbg !2510
  %vfn30 = getelementptr inbounds i16* (%"class.xercesc_2_7::InputSource"*)*, i16* (%"class.xercesc_2_7::InputSource"*)** %vtable29, i64 4, !dbg !2510
  %38 = load i16* (%"class.xercesc_2_7::InputSource"*)*, i16* (%"class.xercesc_2_7::InputSource"*)** %vfn30, align 8, !dbg !2510
  %call33 = invoke i16* %38(%"class.xercesc_2_7::InputSource"* %36)
          to label %invoke.cont32 unwind label %lpad31, !dbg !2510

invoke.cont32:                                    ; preds = %invoke.cont27
  %39 = load %"class.xercesc_2_7::InputSource"*, %"class.xercesc_2_7::InputSource"** %src.addr, align 8, !dbg !2511
  %40 = bitcast %"class.xercesc_2_7::InputSource"* %39 to i16* (%"class.xercesc_2_7::InputSource"*)***, !dbg !2512
  %vtable34 = load i16* (%"class.xercesc_2_7::InputSource"*)**, i16* (%"class.xercesc_2_7::InputSource"*)*** %40, align 8, !dbg !2512
  %vfn35 = getelementptr inbounds i16* (%"class.xercesc_2_7::InputSource"*)*, i16* (%"class.xercesc_2_7::InputSource"*)** %vtable34, i64 5, !dbg !2512
  %41 = load i16* (%"class.xercesc_2_7::InputSource"*)*, i16* (%"class.xercesc_2_7::InputSource"*)** %vfn35, align 8, !dbg !2512
  %call37 = invoke i16* %41(%"class.xercesc_2_7::InputSource"* %39)
          to label %invoke.cont36 unwind label %lpad31, !dbg !2512

invoke.cont36:                                    ; preds = %invoke.cont32
  %42 = load %"class.xercesc_2_7::BinInputStream"*, %"class.xercesc_2_7::BinInputStream"** %newStream, align 8, !dbg !2513
  %43 = load i32, i32* %refFrom.addr, align 4, !dbg !2514
  %44 = load i32, i32* %type.addr, align 4, !dbg !2515
  %45 = load i32, i32* %source.addr, align 4, !dbg !2516
  %46 = load i8, i8* %calcSrcOfs.addr, align 1, !dbg !2517
  %tobool38 = trunc i8 %46 to i1, !dbg !2517
  %fXMLVersion39 = getelementptr inbounds %"class.xercesc_2_7::ReaderMgr", %"class.xercesc_2_7::ReaderMgr"* %this2, i32 0, i32 8, !dbg !2518
  %47 = load i32, i32* %fXMLVersion39, align 4, !dbg !2518
  %fMemoryManager40 = getelementptr inbounds %"class.xercesc_2_7::ReaderMgr", %"class.xercesc_2_7::ReaderMgr"* %this2, i32 0, i32 10, !dbg !2519
  %48 = load %"class.xercesc_2_7::MemoryManager"*, %"class.xercesc_2_7::MemoryManager"** %fMemoryManager40, align 8, !dbg !2519
  invoke void @_ZN11xercesc_2_79XMLReaderC1EPKtS2_PNS_14BinInputStreamENS0_7RefFromENS0_5TypesENS0_7SourcesEbbNS0_10XMLVersionEPNS_13MemoryManagerE(%"class.xercesc_2_7::XMLReader"* %35, i16* %call33, i16* %call37, %"class.xercesc_2_7::BinInputStream"* %42, i32 %43, i32 %44, i32 %45, i1 zeroext false, i1 zeroext %tobool38, i32 %47, %"class.xercesc_2_7::MemoryManager"* %48)
          to label %invoke.cont41 unwind label %lpad31, !dbg !2520

invoke.cont41:                                    ; preds = %invoke.cont36
  store %"class.xercesc_2_7::XMLReader"* %35, %"class.xercesc_2_7::XMLReader"** %retVal, align 8, !dbg !2521
  br label %if.end42

lpad31:                                           ; preds = %invoke.cont36, %invoke.cont32, %invoke.cont27
  %49 = landingpad { i8*, i32 }
          cleanup
          catch i8* bitcast ({ i8*, i8*, i8* }* @_ZTIN11xercesc_2_720OutOfMemoryExceptionE to i8*), !dbg !2522
  %50 = extractvalue { i8*, i32 } %49, 0, !dbg !2522
  store i8* %50, i8** %exn.slot, align 8, !dbg !2522
  %51 = extractvalue { i8*, i32 } %49, 1, !dbg !2522
  store i32 %51, i32* %ehselector.slot, align 4, !dbg !2522
  call void @_ZN11xercesc_2_77XMemorydlEPvPNS_13MemoryManagerE(i8* %call28, %"class.xercesc_2_7::MemoryManager"* %34) #10, !dbg !2508
  br label %catch.dispatch, !dbg !2508

catch.dispatch:                                   ; preds = %lpad31, %lpad12, %lpad
  %sel = load i32, i32* %ehselector.slot, align 4, !dbg !2523
  %52 = call i32 @llvm.eh.typeid.for(i8* bitcast ({ i8*, i8*, i8* }* @_ZTIN11xercesc_2_720OutOfMemoryExceptionE to i8*)) #10, !dbg !2523
  %matches = icmp eq i32 %sel, %52, !dbg !2523
  br i1 %matches, label %catch, label %ehcleanup, !dbg !2523

catch:                                            ; preds = %catch.dispatch
  call void @llvm.dbg.declare(metadata %"class.xercesc_2_7::OutOfMemoryException"** %1, metadata !2524, metadata !DIExpression()), !dbg !2557
  %exn = load i8*, i8** %exn.slot, align 8, !dbg !2523
  %53 = call i8* @__cxa_begin_catch(i8* %exn) #10, !dbg !2523
  %exn.byref = bitcast i8* %53 to %"class.xercesc_2_7::OutOfMemoryException"*, !dbg !2523
  store %"class.xercesc_2_7::OutOfMemoryException"* %exn.byref, %"class.xercesc_2_7::OutOfMemoryException"** %1, align 8, !dbg !2523
  %call45 = invoke %"class.xercesc_2_7::BinInputStream"* @_ZN11xercesc_2_77JanitorINS_14BinInputStreamEE7releaseEv(%"class.xercesc_2_7::Janitor"* %streamJanitor)
          to label %invoke.cont44 unwind label %lpad43, !dbg !2558

invoke.cont44:                                    ; preds = %catch
  invoke void @__cxa_rethrow() #12
          to label %unreachable unwind label %lpad43, !dbg !2560

if.end42:                                         ; preds = %invoke.cont41, %invoke.cont25
  br label %try.cont, !dbg !2523

lpad43:                                           ; preds = %invoke.cont44, %catch
  %54 = landingpad { i8*, i32 }
          cleanup, !dbg !2561
  %55 = extractvalue { i8*, i32 } %54, 0, !dbg !2561
  store i8* %55, i8** %exn.slot, align 8, !dbg !2561
  %56 = extractvalue { i8*, i32 } %54, 1, !dbg !2561
  store i32 %56, i32* %ehselector.slot, align 4, !dbg !2561
  invoke void @__cxa_end_catch()
          to label %invoke.cont46 unwind label %terminate.lpad, !dbg !2562

invoke.cont46:                                    ; preds = %lpad43
  br label %ehcleanup, !dbg !2562

try.cont:                                         ; preds = %if.end42
  %call49 = invoke %"class.xercesc_2_7::BinInputStream"* @_ZN11xercesc_2_77JanitorINS_14BinInputStreamEE7releaseEv(%"class.xercesc_2_7::Janitor"* %streamJanitor)
          to label %invoke.cont48 unwind label %lpad47, !dbg !2563

invoke.cont48:                                    ; preds = %try.cont
  %57 = load %"class.xercesc_2_7::XMLReader"*, %"class.xercesc_2_7::XMLReader"** %retVal, align 8, !dbg !2564
  %fNextReaderNum = getelementptr inbounds %"class.xercesc_2_7::ReaderMgr", %"class.xercesc_2_7::ReaderMgr"* %this2, i32 0, i32 5, !dbg !2565
  %58 = load i32, i32* %fNextReaderNum, align 8, !dbg !2566
  %inc = add i32 %58, 1, !dbg !2566
  store i32 %inc, i32* %fNextReaderNum, align 8, !dbg !2566
  invoke void @_ZN11xercesc_2_79XMLReader12setReaderNumEj(%"class.xercesc_2_7::XMLReader"* %57, i32 %58)
          to label %invoke.cont50 unwind label %lpad47, !dbg !2567

invoke.cont50:                                    ; preds = %invoke.cont48
  %59 = load %"class.xercesc_2_7::XMLReader"*, %"class.xercesc_2_7::XMLReader"** %retVal, align 8, !dbg !2568
  store %"class.xercesc_2_7::XMLReader"* %59, %"class.xercesc_2_7::XMLReader"** %retval, align 8, !dbg !2569
  call void @_ZN11xercesc_2_77JanitorINS_14BinInputStreamEED2Ev(%"class.xercesc_2_7::Janitor"* %streamJanitor) #10, !dbg !2570
  br label %return

lpad47:                                           ; preds = %invoke.cont48, %try.cont
  %60 = landingpad { i8*, i32 }
          cleanup, !dbg !2570
  %61 = extractvalue { i8*, i32 } %60, 0, !dbg !2570
  store i8* %61, i8** %exn.slot, align 8, !dbg !2570
  %62 = extractvalue { i8*, i32 } %60, 1, !dbg !2570
  store i32 %62, i32* %ehselector.slot, align 4, !dbg !2570
  br label %ehcleanup, !dbg !2570

ehcleanup:                                        ; preds = %lpad47, %invoke.cont46, %catch.dispatch
  call void @_ZN11xercesc_2_77JanitorINS_14BinInputStreamEED2Ev(%"class.xercesc_2_7::Janitor"* %streamJanitor) #10, !dbg !2570
  br label %eh.resume, !dbg !2570

return:                                           ; preds = %invoke.cont50, %if.then
  %63 = load %"class.xercesc_2_7::XMLReader"*, %"class.xercesc_2_7::XMLReader"** %retval, align 8, !dbg !2570
  ret %"class.xercesc_2_7::XMLReader"* %63, !dbg !2570

eh.resume:                                        ; preds = %ehcleanup
  %exn51 = load i8*, i8** %exn.slot, align 8, !dbg !2570
  %sel52 = load i32, i32* %ehselector.slot, align 4, !dbg !2570
  %lpad.val = insertvalue { i8*, i32 } undef, i8* %exn51, 0, !dbg !2570
  %lpad.val53 = insertvalue { i8*, i32 } %lpad.val, i32 %sel52, 1, !dbg !2570
  resume { i8*, i32 } %lpad.val53, !dbg !2570

terminate.lpad:                                   ; preds = %lpad43
  %64 = landingpad { i8*, i32 }
          catch i8* null, !dbg !2562
  %65 = extractvalue { i8*, i32 } %64, 0, !dbg !2562
  call void @__clang_call_terminate(i8* %65) #13, !dbg !2562
  unreachable, !dbg !2562

unreachable:                                      ; preds = %invoke.cont44
  unreachable
}

; Function Attrs: noinline nounwind uwtable
define linkonce_odr dso_local void @_ZN11xercesc_2_77JanitorINS_14BinInputStreamEEC2EPS1_(%"class.xercesc_2_7::Janitor"* %this, %"class.xercesc_2_7::BinInputStream"* %toDelete) unnamed_addr #1 comdat align 2 !dbg !2571 {
entry:
  %this.addr = alloca %"class.xercesc_2_7::Janitor"*, align 8
  %toDelete.addr = alloca %"class.xercesc_2_7::BinInputStream"*, align 8
  store %"class.xercesc_2_7::Janitor"* %this, %"class.xercesc_2_7::Janitor"** %this.addr, align 8
  call void @llvm.dbg.declare(metadata %"class.xercesc_2_7::Janitor"** %this.addr, metadata !2573, metadata !DIExpression()), !dbg !2575
  store %"class.xercesc_2_7::BinInputStream"* %toDelete, %"class.xercesc_2_7::BinInputStream"** %toDelete.addr, align 8
  call void @llvm.dbg.declare(metadata %"class.xercesc_2_7::BinInputStream"** %toDelete.addr, metadata !2576, metadata !DIExpression()), !dbg !2577
  %this1 = load %"class.xercesc_2_7::Janitor"*, %"class.xercesc_2_7::Janitor"** %this.addr, align 8
  %0 = bitcast %"class.xercesc_2_7::Janitor"* %this1 to %"class.xercesc_2_7::XMemory"*, !dbg !2578
  call void @_ZN11xercesc_2_77XMemoryC2Ev(%"class.xercesc_2_7::XMemory"* %0), !dbg !2579
  %fData = getelementptr inbounds %"class.xercesc_2_7::Janitor", %"class.xercesc_2_7::Janitor"* %this1, i32 0, i32 0, !dbg !2581
  %1 = load %"class.xercesc_2_7::BinInputStream"*, %"class.xercesc_2_7::BinInputStream"** %toDelete.addr, align 8, !dbg !2583
  store %"class.xercesc_2_7::BinInputStream"* %1, %"class.xercesc_2_7::BinInputStream"** %fData, align 8, !dbg !2581
  ret void, !dbg !2584
}

declare dso_local i8* @_ZN11xercesc_2_77XMemorynwEmPNS_13MemoryManagerE(i64, %"class.xercesc_2_7::MemoryManager"*) #5

declare dso_local void @_ZN11xercesc_2_79XMLReaderC1EPKtS2_PNS_14BinInputStreamES2_NS0_7RefFromENS0_5TypesENS0_7SourcesEbbNS0_10XMLVersionEPNS_13MemoryManagerE(%"class.xercesc_2_7::XMLReader"*, i16*, i16*, %"class.xercesc_2_7::BinInputStream"*, i16*, i32, i32, i32, i1 zeroext, i1 zeroext, i32, %"class.xercesc_2_7::MemoryManager"*) unnamed_addr #5

; Function Attrs: nounwind
declare dso_local void @_ZN11xercesc_2_77XMemorydlEPvPNS_13MemoryManagerE(i8*, %"class.xercesc_2_7::MemoryManager"*) #4

declare dso_local void @_ZN11xercesc_2_79XMLReaderC1EPKtS2_PNS_14BinInputStreamENS0_7RefFromENS0_5TypesENS0_7SourcesEbbNS0_10XMLVersionEPNS_13MemoryManagerE(%"class.xercesc_2_7::XMLReader"*, i16*, i16*, %"class.xercesc_2_7::BinInputStream"*, i32, i32, i32, i1 zeroext, i1 zeroext, i32, %"class.xercesc_2_7::MemoryManager"*) unnamed_addr #5

; Function Attrs: nounwind readnone
declare i32 @llvm.eh.typeid.for(i8*) #6

declare dso_local i8* @__cxa_begin_catch(i8*)

; Function Attrs: noinline nounwind uwtable
define linkonce_odr dso_local %"class.xercesc_2_7::BinInputStream"* @_ZN11xercesc_2_77JanitorINS_14BinInputStreamEE7releaseEv(%"class.xercesc_2_7::Janitor"* %this) #1 comdat align 2 !dbg !2585 {
entry:
  %this.addr = alloca %"class.xercesc_2_7::Janitor"*, align 8
  %p = alloca %"class.xercesc_2_7::BinInputStream"*, align 8
  store %"class.xercesc_2_7::Janitor"* %this, %"class.xercesc_2_7::Janitor"** %this.addr, align 8
  call void @llvm.dbg.declare(metadata %"class.xercesc_2_7::Janitor"** %this.addr, metadata !2586, metadata !DIExpression()), !dbg !2587
  %this1 = load %"class.xercesc_2_7::Janitor"*, %"class.xercesc_2_7::Janitor"** %this.addr, align 8
  call void @llvm.dbg.declare(metadata %"class.xercesc_2_7::BinInputStream"** %p, metadata !2588, metadata !DIExpression()), !dbg !2589
  %fData = getelementptr inbounds %"class.xercesc_2_7::Janitor", %"class.xercesc_2_7::Janitor"* %this1, i32 0, i32 0, !dbg !2590
  %0 = load %"class.xercesc_2_7::BinInputStream"*, %"class.xercesc_2_7::BinInputStream"** %fData, align 8, !dbg !2590
  store %"class.xercesc_2_7::BinInputStream"* %0, %"class.xercesc_2_7::BinInputStream"** %p, align 8, !dbg !2589
  %fData2 = getelementptr inbounds %"class.xercesc_2_7::Janitor", %"class.xercesc_2_7::Janitor"* %this1, i32 0, i32 0, !dbg !2591
  store %"class.xercesc_2_7::BinInputStream"* null, %"class.xercesc_2_7::BinInputStream"** %fData2, align 8, !dbg !2592
  %1 = load %"class.xercesc_2_7::BinInputStream"*, %"class.xercesc_2_7::BinInputStream"** %p, align 8, !dbg !2593
  ret %"class.xercesc_2_7::BinInputStream"* %1, !dbg !2594
}

declare dso_local void @__cxa_rethrow()

declare dso_local void @__cxa_end_catch()

; Function Attrs: noinline noreturn nounwind
define linkonce_odr hidden void @__clang_call_terminate(i8* %0) #7 comdat {
  %2 = call i8* @__cxa_begin_catch(i8* %0) #10
  call void @_ZSt9terminatev() #13
  unreachable
}

declare dso_local void @_ZSt9terminatev()

; Function Attrs: noinline nounwind uwtable
define linkonce_odr dso_local void @_ZN11xercesc_2_79XMLReader12setReaderNumEj(%"class.xercesc_2_7::XMLReader"* %this, i32 %newNum) #1 comdat align 2 !dbg !2595 {
entry:
  %this.addr = alloca %"class.xercesc_2_7::XMLReader"*, align 8
  %newNum.addr = alloca i32, align 4
  store %"class.xercesc_2_7::XMLReader"* %this, %"class.xercesc_2_7::XMLReader"** %this.addr, align 8
  call void @llvm.dbg.declare(metadata %"class.xercesc_2_7::XMLReader"** %this.addr, metadata !2596, metadata !DIExpression()), !dbg !2597
  store i32 %newNum, i32* %newNum.addr, align 4
  call void @llvm.dbg.declare(metadata i32* %newNum.addr, metadata !2598, metadata !DIExpression()), !dbg !2599
  %this1 = load %"class.xercesc_2_7::XMLReader"*, %"class.xercesc_2_7::XMLReader"** %this.addr, align 8
  %0 = load i32, i32* %newNum.addr, align 4, !dbg !2600
  %fReaderNum = getelementptr inbounds %"class.xercesc_2_7::XMLReader", %"class.xercesc_2_7::XMLReader"* %this1, i32 0, i32 15, !dbg !2601
  store i32 %0, i32* %fReaderNum, align 8, !dbg !2602
  ret void, !dbg !2603
}

; Function Attrs: noinline nounwind uwtable
define linkonce_odr dso_local void @_ZN11xercesc_2_77JanitorINS_14BinInputStreamEED2Ev(%"class.xercesc_2_7::Janitor"* %this) unnamed_addr #1 comdat align 2 personality i8* bitcast (i32 (...)* @__gxx_personality_v0 to i8*) !dbg !2604 {
entry:
  %this.addr = alloca %"class.xercesc_2_7::Janitor"*, align 8
  store %"class.xercesc_2_7::Janitor"* %this, %"class.xercesc_2_7::Janitor"** %this.addr, align 8
  call void @llvm.dbg.declare(metadata %"class.xercesc_2_7::Janitor"** %this.addr, metadata !2605, metadata !DIExpression()), !dbg !2606
  %this1 = load %"class.xercesc_2_7::Janitor"*, %"class.xercesc_2_7::Janitor"** %this.addr, align 8
  invoke void @_ZN11xercesc_2_77JanitorINS_14BinInputStreamEE5resetEPS1_(%"class.xercesc_2_7::Janitor"* %this1, %"class.xercesc_2_7::BinInputStream"* null)
          to label %invoke.cont unwind label %terminate.lpad, !dbg !2607

invoke.cont:                                      ; preds = %entry
  ret void, !dbg !2609

terminate.lpad:                                   ; preds = %entry
  %0 = landingpad { i8*, i32 }
          catch i8* null, !dbg !2607
  %1 = extractvalue { i8*, i32 } %0, 0, !dbg !2607
  call void @__clang_call_terminate(i8* %1) #13, !dbg !2607
  unreachable, !dbg !2607
}

; Function Attrs: noinline uwtable
define dso_local %"class.xercesc_2_7::XMLReader"* @_ZN11xercesc_2_79ReaderMgr12createReaderEPKtS2_bNS_9XMLReader7RefFromENS3_5TypesENS3_7SourcesERPNS_11InputSourceEbb(%"class.xercesc_2_7::ReaderMgr"* %this, i16* %sysId, i16* %pubId, i1 zeroext %xmlDecl, i32 %refFrom, i32 %type, i32 %source, %"class.xercesc_2_7::InputSource"** dereferenceable(8) %srcToFill, i1 zeroext %calcSrcOfs, i1 zeroext %disableDefaultEntityResolution) #3 align 2 personality i8* bitcast (i32 (...)* @__gxx_personality_v0 to i8*) !dbg !2610 {
entry:
  %retval = alloca %"class.xercesc_2_7::XMLReader"*, align 8
  %this.addr = alloca %"class.xercesc_2_7::ReaderMgr"*, align 8
  %sysId.addr = alloca i16*, align 8
  %pubId.addr = alloca i16*, align 8
  %xmlDecl.addr = alloca i8, align 1
  %refFrom.addr = alloca i32, align 4
  %type.addr = alloca i32, align 4
  %source.addr = alloca i32, align 4
  %srcToFill.addr = alloca %"class.xercesc_2_7::InputSource"**, align 8
  %calcSrcOfs.addr = alloca i8, align 1
  %disableDefaultEntityResolution.addr = alloca i8, align 1
  %normalizedSysId = alloca %"class.xercesc_2_7::XMLBuffer", align 8
  %ref.tmp = alloca i16, align 2
  %exn.slot = alloca i8*
  %ehselector.slot = alloca i32
  %normalizedURI = alloca i16*, align 8
  %expSysId = alloca %"class.xercesc_2_7::XMLBuffer", align 8
  %lastInfo = alloca %"struct.xercesc_2_7::ReaderMgr::LastExtEntityInfo", align 8
  %resourceIdentifier = alloca %"class.xercesc_2_7::XMLResourceIdentifier", align 8
  %cleanup.dest.slot = alloca i32, align 4
  %lastInfo35 = alloca %"struct.xercesc_2_7::ReaderMgr::LastExtEntityInfo", align 8
  %urlTmp = alloca %"class.xercesc_2_7::XMLURL", align 8
  %resolvedSysId = alloca %"class.xercesc_2_7::XMLBuffer", align 8
  %janSrc = alloca %"class.xercesc_2_7::Janitor.3", align 8
  %retVal = alloca %"class.xercesc_2_7::XMLReader"*, align 8
  store %"class.xercesc_2_7::ReaderMgr"* %this, %"class.xercesc_2_7::ReaderMgr"** %this.addr, align 8
  call void @llvm.dbg.declare(metadata %"class.xercesc_2_7::ReaderMgr"** %this.addr, metadata !2611, metadata !DIExpression()), !dbg !2612
  store i16* %sysId, i16** %sysId.addr, align 8
  call void @llvm.dbg.declare(metadata i16** %sysId.addr, metadata !2613, metadata !DIExpression()), !dbg !2614
  store i16* %pubId, i16** %pubId.addr, align 8
  call void @llvm.dbg.declare(metadata i16** %pubId.addr, metadata !2615, metadata !DIExpression()), !dbg !2616
  %frombool = zext i1 %xmlDecl to i8
  store i8 %frombool, i8* %xmlDecl.addr, align 1
  call void @llvm.dbg.declare(metadata i8* %xmlDecl.addr, metadata !2617, metadata !DIExpression()), !dbg !2618
  store i32 %refFrom, i32* %refFrom.addr, align 4
  call void @llvm.dbg.declare(metadata i32* %refFrom.addr, metadata !2619, metadata !DIExpression()), !dbg !2620
  store i32 %type, i32* %type.addr, align 4
  call void @llvm.dbg.declare(metadata i32* %type.addr, metadata !2621, metadata !DIExpression()), !dbg !2622
  store i32 %source, i32* %source.addr, align 4
  call void @llvm.dbg.declare(metadata i32* %source.addr, metadata !2623, metadata !DIExpression()), !dbg !2624
  store %"class.xercesc_2_7::InputSource"** %srcToFill, %"class.xercesc_2_7::InputSource"*** %srcToFill.addr, align 8
  call void @llvm.dbg.declare(metadata %"class.xercesc_2_7::InputSource"*** %srcToFill.addr, metadata !2625, metadata !DIExpression()), !dbg !2626
  %frombool1 = zext i1 %calcSrcOfs to i8
  store i8 %frombool1, i8* %calcSrcOfs.addr, align 1
  call void @llvm.dbg.declare(metadata i8* %calcSrcOfs.addr, metadata !2627, metadata !DIExpression()), !dbg !2628
  %frombool2 = zext i1 %disableDefaultEntityResolution to i8
  store i8 %frombool2, i8* %disableDefaultEntityResolution.addr, align 1
  call void @llvm.dbg.declare(metadata i8* %disableDefaultEntityResolution.addr, metadata !2629, metadata !DIExpression()), !dbg !2630
  %this3 = load %"class.xercesc_2_7::ReaderMgr"*, %"class.xercesc_2_7::ReaderMgr"** %this.addr, align 8
  call void @llvm.dbg.declare(metadata %"class.xercesc_2_7::XMLBuffer"* %normalizedSysId, metadata !2631, metadata !DIExpression()), !dbg !2632
  %fMemoryManager = getelementptr inbounds %"class.xercesc_2_7::ReaderMgr", %"class.xercesc_2_7::ReaderMgr"* %this3, i32 0, i32 10, !dbg !2633
  %0 = load %"class.xercesc_2_7::MemoryManager"*, %"class.xercesc_2_7::MemoryManager"** %fMemoryManager, align 8, !dbg !2633
  call void @_ZN11xercesc_2_79XMLBufferC2EjPNS_13MemoryManagerE(%"class.xercesc_2_7::XMLBuffer"* %normalizedSysId, i32 1023, %"class.xercesc_2_7::MemoryManager"* %0), !dbg !2632
  %1 = load i16*, i16** %sysId.addr, align 8, !dbg !2634
  store i16 -1, i16* %ref.tmp, align 2, !dbg !2635
  invoke void @_ZN11xercesc_2_79XMLString10removeCharEPKtRS1_RNS_9XMLBufferE(i16* %1, i16* dereferenceable(2) %ref.tmp, %"class.xercesc_2_7::XMLBuffer"* dereferenceable(40) %normalizedSysId)
          to label %invoke.cont unwind label %lpad, !dbg !2636

invoke.cont:                                      ; preds = %entry
  call void @llvm.dbg.declare(metadata i16** %normalizedURI, metadata !2637, metadata !DIExpression()), !dbg !2638
  %call = invoke i16* @_ZN11xercesc_2_79XMLBuffer12getRawBufferEv(%"class.xercesc_2_7::XMLBuffer"* %normalizedSysId)
          to label %invoke.cont4 unwind label %lpad, !dbg !2639

invoke.cont4:                                     ; preds = %invoke.cont
  store i16* %call, i16** %normalizedURI, align 8, !dbg !2638
  call void @llvm.dbg.declare(metadata %"class.xercesc_2_7::XMLBuffer"* %expSysId, metadata !2640, metadata !DIExpression()), !dbg !2641
  %fMemoryManager5 = getelementptr inbounds %"class.xercesc_2_7::ReaderMgr", %"class.xercesc_2_7::ReaderMgr"* %this3, i32 0, i32 10, !dbg !2642
  %2 = load %"class.xercesc_2_7::MemoryManager"*, %"class.xercesc_2_7::MemoryManager"** %fMemoryManager5, align 8, !dbg !2642
  invoke void @_ZN11xercesc_2_79XMLBufferC2EjPNS_13MemoryManagerE(%"class.xercesc_2_7::XMLBuffer"* %expSysId, i32 1023, %"class.xercesc_2_7::MemoryManager"* %2)
          to label %invoke.cont6 unwind label %lpad, !dbg !2641

invoke.cont6:                                     ; preds = %invoke.cont4
  %fEntityHandler = getelementptr inbounds %"class.xercesc_2_7::ReaderMgr", %"class.xercesc_2_7::ReaderMgr"* %this3, i32 0, i32 3, !dbg !2643
  %3 = load %"class.xercesc_2_7::XMLEntityHandler"*, %"class.xercesc_2_7::XMLEntityHandler"** %fEntityHandler, align 8, !dbg !2643
  %tobool = icmp ne %"class.xercesc_2_7::XMLEntityHandler"* %3, null, !dbg !2643
  br i1 %tobool, label %if.then, label %if.else, !dbg !2645

if.then:                                          ; preds = %invoke.cont6
  %fEntityHandler7 = getelementptr inbounds %"class.xercesc_2_7::ReaderMgr", %"class.xercesc_2_7::ReaderMgr"* %this3, i32 0, i32 3, !dbg !2646
  %4 = load %"class.xercesc_2_7::XMLEntityHandler"*, %"class.xercesc_2_7::XMLEntityHandler"** %fEntityHandler7, align 8, !dbg !2646
  %5 = load i16*, i16** %normalizedURI, align 8, !dbg !2649
  %6 = bitcast %"class.xercesc_2_7::XMLEntityHandler"* %4 to i1 (%"class.xercesc_2_7::XMLEntityHandler"*, i16*, %"class.xercesc_2_7::XMLBuffer"*)***, !dbg !2650
  %vtable = load i1 (%"class.xercesc_2_7::XMLEntityHandler"*, i16*, %"class.xercesc_2_7::XMLBuffer"*)**, i1 (%"class.xercesc_2_7::XMLEntityHandler"*, i16*, %"class.xercesc_2_7::XMLBuffer"*)*** %6, align 8, !dbg !2650
  %vfn = getelementptr inbounds i1 (%"class.xercesc_2_7::XMLEntityHandler"*, i16*, %"class.xercesc_2_7::XMLBuffer"*)*, i1 (%"class.xercesc_2_7::XMLEntityHandler"*, i16*, %"class.xercesc_2_7::XMLBuffer"*)** %vtable, i64 3, !dbg !2650
  %7 = load i1 (%"class.xercesc_2_7::XMLEntityHandler"*, i16*, %"class.xercesc_2_7::XMLBuffer"*)*, i1 (%"class.xercesc_2_7::XMLEntityHandler"*, i16*, %"class.xercesc_2_7::XMLBuffer"*)** %vfn, align 8, !dbg !2650
  %call10 = invoke zeroext i1 %7(%"class.xercesc_2_7::XMLEntityHandler"* %4, i16* %5, %"class.xercesc_2_7::XMLBuffer"* dereferenceable(40) %expSysId)
          to label %invoke.cont9 unwind label %lpad8, !dbg !2650

invoke.cont9:                                     ; preds = %if.then
  br i1 %call10, label %if.end, label %if.then11, !dbg !2651

if.then11:                                        ; preds = %invoke.cont9
  %8 = load i16*, i16** %normalizedURI, align 8, !dbg !2652
  invoke void @_ZN11xercesc_2_79XMLBuffer3setEPKt(%"class.xercesc_2_7::XMLBuffer"* %expSysId, i16* %8)
          to label %invoke.cont12 unwind label %lpad8, !dbg !2653

invoke.cont12:                                    ; preds = %if.then11
  br label %if.end, !dbg !2654

lpad:                                             ; preds = %invoke.cont4, %invoke.cont, %entry
  %9 = landingpad { i8*, i32 }
          cleanup, !dbg !2655
  %10 = extractvalue { i8*, i32 } %9, 0, !dbg !2655
  store i8* %10, i8** %exn.slot, align 8, !dbg !2655
  %11 = extractvalue { i8*, i32 } %9, 1, !dbg !2655
  store i32 %11, i32* %ehselector.slot, align 4, !dbg !2655
  br label %ehcleanup109, !dbg !2655

lpad8:                                            ; preds = %if.end93, %invoke.cont37, %invoke.cont36, %if.end34, %invoke.cont20, %invoke.cont19, %invoke.cont18, %if.then17, %if.else, %if.then11, %if.then
  %12 = landingpad { i8*, i32 }
          cleanup, !dbg !2656
  %13 = extractvalue { i8*, i32 } %12, 0, !dbg !2656
  store i8* %13, i8** %exn.slot, align 8, !dbg !2656
  %14 = extractvalue { i8*, i32 } %12, 1, !dbg !2656
  store i32 %14, i32* %ehselector.slot, align 4, !dbg !2656
  br label %ehcleanup107, !dbg !2656

if.end:                                           ; preds = %invoke.cont12, %invoke.cont9
  br label %if.end14, !dbg !2657

if.else:                                          ; preds = %invoke.cont6
  %15 = load i16*, i16** %normalizedURI, align 8, !dbg !2658
  invoke void @_ZN11xercesc_2_79XMLBuffer3setEPKt(%"class.xercesc_2_7::XMLBuffer"* %expSysId, i16* %15)
          to label %invoke.cont13 unwind label %lpad8, !dbg !2660

invoke.cont13:                                    ; preds = %if.else
  br label %if.end14

if.end14:                                         ; preds = %invoke.cont13, %if.end
  %16 = load %"class.xercesc_2_7::InputSource"**, %"class.xercesc_2_7::InputSource"*** %srcToFill.addr, align 8, !dbg !2661
  store %"class.xercesc_2_7::InputSource"* null, %"class.xercesc_2_7::InputSource"** %16, align 8, !dbg !2662
  %fEntityHandler15 = getelementptr inbounds %"class.xercesc_2_7::ReaderMgr", %"class.xercesc_2_7::ReaderMgr"* %this3, i32 0, i32 3, !dbg !2663
  %17 = load %"class.xercesc_2_7::XMLEntityHandler"*, %"class.xercesc_2_7::XMLEntityHandler"** %fEntityHandler15, align 8, !dbg !2663
  %tobool16 = icmp ne %"class.xercesc_2_7::XMLEntityHandler"* %17, null, !dbg !2663
  br i1 %tobool16, label %if.then17, label %if.end29, !dbg !2665

if.then17:                                        ; preds = %if.end14
  call void @llvm.dbg.declare(metadata %"struct.xercesc_2_7::ReaderMgr::LastExtEntityInfo"* %lastInfo, metadata !2666, metadata !DIExpression()), !dbg !2668
  invoke void @_ZN11xercesc_2_79ReaderMgr17LastExtEntityInfoC2Ev(%"struct.xercesc_2_7::ReaderMgr::LastExtEntityInfo"* %lastInfo)
          to label %invoke.cont18 unwind label %lpad8, !dbg !2668

invoke.cont18:                                    ; preds = %if.then17
  invoke void @_ZNK11xercesc_2_79ReaderMgr20getLastExtEntityInfoERNS0_17LastExtEntityInfoE(%"class.xercesc_2_7::ReaderMgr"* %this3, %"struct.xercesc_2_7::ReaderMgr::LastExtEntityInfo"* dereferenceable(32) %lastInfo)
          to label %invoke.cont19 unwind label %lpad8, !dbg !2669

invoke.cont19:                                    ; preds = %invoke.cont18
  call void @llvm.dbg.declare(metadata %"class.xercesc_2_7::XMLResourceIdentifier"* %resourceIdentifier, metadata !2670, metadata !DIExpression()), !dbg !2671
  %call21 = invoke i16* @_ZN11xercesc_2_79XMLBuffer12getRawBufferEv(%"class.xercesc_2_7::XMLBuffer"* %expSysId)
          to label %invoke.cont20 unwind label %lpad8, !dbg !2672

invoke.cont20:                                    ; preds = %invoke.cont19
  %18 = load i16*, i16** %pubId.addr, align 8, !dbg !2673
  %systemId = getelementptr inbounds %"struct.xercesc_2_7::ReaderMgr::LastExtEntityInfo", %"struct.xercesc_2_7::ReaderMgr::LastExtEntityInfo"* %lastInfo, i32 0, i32 0, !dbg !2674
  %19 = load i16*, i16** %systemId, align 8, !dbg !2674
  %20 = bitcast %"class.xercesc_2_7::ReaderMgr"* %this3 to %"class.xercesc_2_7::Locator"*, !dbg !2675
  invoke void @_ZN11xercesc_2_721XMLResourceIdentifierC2ENS0_22ResourceIdentifierTypeEPKtS3_S3_S3_PKNS_7LocatorE(%"class.xercesc_2_7::XMLResourceIdentifier"* %resourceIdentifier, i32 4, i16* %call21, i16* getelementptr inbounds ([0 x i16], [0 x i16]* @_ZN11xercesc_2_76XMLUni15fgZeroLenStringE, i64 0, i64 0), i16* %18, i16* %19, %"class.xercesc_2_7::Locator"* %20)
          to label %invoke.cont22 unwind label %lpad8, !dbg !2671

invoke.cont22:                                    ; preds = %invoke.cont20
  %fEntityHandler23 = getelementptr inbounds %"class.xercesc_2_7::ReaderMgr", %"class.xercesc_2_7::ReaderMgr"* %this3, i32 0, i32 3, !dbg !2676
  %21 = load %"class.xercesc_2_7::XMLEntityHandler"*, %"class.xercesc_2_7::XMLEntityHandler"** %fEntityHandler23, align 8, !dbg !2676
  %22 = bitcast %"class.xercesc_2_7::XMLEntityHandler"* %21 to %"class.xercesc_2_7::InputSource"* (%"class.xercesc_2_7::XMLEntityHandler"*, %"class.xercesc_2_7::XMLResourceIdentifier"*)***, !dbg !2677
  %vtable24 = load %"class.xercesc_2_7::InputSource"* (%"class.xercesc_2_7::XMLEntityHandler"*, %"class.xercesc_2_7::XMLResourceIdentifier"*)**, %"class.xercesc_2_7::InputSource"* (%"class.xercesc_2_7::XMLEntityHandler"*, %"class.xercesc_2_7::XMLResourceIdentifier"*)*** %22, align 8, !dbg !2677
  %vfn25 = getelementptr inbounds %"class.xercesc_2_7::InputSource"* (%"class.xercesc_2_7::XMLEntityHandler"*, %"class.xercesc_2_7::XMLResourceIdentifier"*)*, %"class.xercesc_2_7::InputSource"* (%"class.xercesc_2_7::XMLEntityHandler"*, %"class.xercesc_2_7::XMLResourceIdentifier"*)** %vtable24, i64 6, !dbg !2677
  %23 = load %"class.xercesc_2_7::InputSource"* (%"class.xercesc_2_7::XMLEntityHandler"*, %"class.xercesc_2_7::XMLResourceIdentifier"*)*, %"class.xercesc_2_7::InputSource"* (%"class.xercesc_2_7::XMLEntityHandler"*, %"class.xercesc_2_7::XMLResourceIdentifier"*)** %vfn25, align 8, !dbg !2677
  %call28 = invoke %"class.xercesc_2_7::InputSource"* %23(%"class.xercesc_2_7::XMLEntityHandler"* %21, %"class.xercesc_2_7::XMLResourceIdentifier"* %resourceIdentifier)
          to label %invoke.cont27 unwind label %lpad26, !dbg !2677

invoke.cont27:                                    ; preds = %invoke.cont22
  %24 = load %"class.xercesc_2_7::InputSource"**, %"class.xercesc_2_7::InputSource"*** %srcToFill.addr, align 8, !dbg !2678
  store %"class.xercesc_2_7::InputSource"* %call28, %"class.xercesc_2_7::InputSource"** %24, align 8, !dbg !2679
  call void @_ZN11xercesc_2_721XMLResourceIdentifierD2Ev(%"class.xercesc_2_7::XMLResourceIdentifier"* %resourceIdentifier) #10, !dbg !2680
  br label %if.end29, !dbg !2681

lpad26:                                           ; preds = %invoke.cont22
  %25 = landingpad { i8*, i32 }
          cleanup, !dbg !2682
  %26 = extractvalue { i8*, i32 } %25, 0, !dbg !2682
  store i8* %26, i8** %exn.slot, align 8, !dbg !2682
  %27 = extractvalue { i8*, i32 } %25, 1, !dbg !2682
  store i32 %27, i32* %ehselector.slot, align 4, !dbg !2682
  call void @_ZN11xercesc_2_721XMLResourceIdentifierD2Ev(%"class.xercesc_2_7::XMLResourceIdentifier"* %resourceIdentifier) #10, !dbg !2680
  br label %ehcleanup107, !dbg !2680

if.end29:                                         ; preds = %invoke.cont27, %if.end14
  %28 = load %"class.xercesc_2_7::InputSource"**, %"class.xercesc_2_7::InputSource"*** %srcToFill.addr, align 8, !dbg !2683
  %29 = load %"class.xercesc_2_7::InputSource"*, %"class.xercesc_2_7::InputSource"** %28, align 8, !dbg !2683
  %tobool30 = icmp ne %"class.xercesc_2_7::InputSource"* %29, null, !dbg !2683
  br i1 %tobool30, label %if.end93, label %if.then31, !dbg !2685

if.then31:                                        ; preds = %if.end29
  %30 = load i8, i8* %disableDefaultEntityResolution.addr, align 1, !dbg !2686
  %tobool32 = trunc i8 %30 to i1, !dbg !2686
  br i1 %tobool32, label %if.then33, label %if.end34, !dbg !2689

if.then33:                                        ; preds = %if.then31
  store %"class.xercesc_2_7::XMLReader"* null, %"class.xercesc_2_7::XMLReader"** %retval, align 8, !dbg !2690
  store i32 1, i32* %cleanup.dest.slot, align 4
  br label %cleanup106, !dbg !2690

if.end34:                                         ; preds = %if.then31
  call void @llvm.dbg.declare(metadata %"struct.xercesc_2_7::ReaderMgr::LastExtEntityInfo"* %lastInfo35, metadata !2691, metadata !DIExpression()), !dbg !2692
  invoke void @_ZN11xercesc_2_79ReaderMgr17LastExtEntityInfoC2Ev(%"struct.xercesc_2_7::ReaderMgr::LastExtEntityInfo"* %lastInfo35)
          to label %invoke.cont36 unwind label %lpad8, !dbg !2692

invoke.cont36:                                    ; preds = %if.end34
  invoke void @_ZNK11xercesc_2_79ReaderMgr20getLastExtEntityInfoERNS0_17LastExtEntityInfoE(%"class.xercesc_2_7::ReaderMgr"* %this3, %"struct.xercesc_2_7::ReaderMgr::LastExtEntityInfo"* dereferenceable(32) %lastInfo35)
          to label %invoke.cont37 unwind label %lpad8, !dbg !2693

invoke.cont37:                                    ; preds = %invoke.cont36
  call void @llvm.dbg.declare(metadata %"class.xercesc_2_7::XMLURL"* %urlTmp, metadata !2694, metadata !DIExpression()), !dbg !2697
  %fMemoryManager38 = getelementptr inbounds %"class.xercesc_2_7::ReaderMgr", %"class.xercesc_2_7::ReaderMgr"* %this3, i32 0, i32 10, !dbg !2698
  %31 = load %"class.xercesc_2_7::MemoryManager"*, %"class.xercesc_2_7::MemoryManager"** %fMemoryManager38, align 8, !dbg !2698
  invoke void @_ZN11xercesc_2_76XMLURLC1EPNS_13MemoryManagerE(%"class.xercesc_2_7::XMLURL"* %urlTmp, %"class.xercesc_2_7::MemoryManager"* %31)
          to label %invoke.cont39 unwind label %lpad8, !dbg !2697

invoke.cont39:                                    ; preds = %invoke.cont37
  %systemId40 = getelementptr inbounds %"struct.xercesc_2_7::ReaderMgr::LastExtEntityInfo", %"struct.xercesc_2_7::ReaderMgr::LastExtEntityInfo"* %lastInfo35, i32 0, i32 0, !dbg !2699
  %32 = load i16*, i16** %systemId40, align 8, !dbg !2699
  %call43 = invoke i16* @_ZN11xercesc_2_79XMLBuffer12getRawBufferEv(%"class.xercesc_2_7::XMLBuffer"* %expSysId)
          to label %invoke.cont42 unwind label %lpad41, !dbg !2701

invoke.cont42:                                    ; preds = %invoke.cont39
  %call45 = invoke zeroext i1 @_ZN11xercesc_2_76XMLURL6setURLEPKtS2_RS0_(%"class.xercesc_2_7::XMLURL"* %urlTmp, i16* %32, i16* %call43, %"class.xercesc_2_7::XMLURL"* dereferenceable(88) %urlTmp)
          to label %invoke.cont44 unwind label %lpad41, !dbg !2702

invoke.cont44:                                    ; preds = %invoke.cont42
  br i1 %call45, label %lor.lhs.false, label %if.then48, !dbg !2703

lor.lhs.false:                                    ; preds = %invoke.cont44
  %call47 = invoke zeroext i1 @_ZNK11xercesc_2_76XMLURL10isRelativeEv(%"class.xercesc_2_7::XMLURL"* %urlTmp)
          to label %invoke.cont46 unwind label %lpad41, !dbg !2704

invoke.cont46:                                    ; preds = %lor.lhs.false
  br i1 %call47, label %if.then48, label %if.else72, !dbg !2705

if.then48:                                        ; preds = %invoke.cont46, %invoke.cont44
  %fStandardUriConformant = getelementptr inbounds %"class.xercesc_2_7::ReaderMgr", %"class.xercesc_2_7::ReaderMgr"* %this3, i32 0, i32 9, !dbg !2706
  %33 = load i8, i8* %fStandardUriConformant, align 8, !dbg !2706
  %tobool49 = trunc i8 %33 to i1, !dbg !2706
  br i1 %tobool49, label %if.else66, label %if.then50, !dbg !2709

if.then50:                                        ; preds = %if.then48
  call void @llvm.dbg.declare(metadata %"class.xercesc_2_7::XMLBuffer"* %resolvedSysId, metadata !2710, metadata !DIExpression()), !dbg !2712
  %fMemoryManager51 = getelementptr inbounds %"class.xercesc_2_7::ReaderMgr", %"class.xercesc_2_7::ReaderMgr"* %this3, i32 0, i32 10, !dbg !2713
  %34 = load %"class.xercesc_2_7::MemoryManager"*, %"class.xercesc_2_7::MemoryManager"** %fMemoryManager51, align 8, !dbg !2713
  invoke void @_ZN11xercesc_2_79XMLBufferC2EjPNS_13MemoryManagerE(%"class.xercesc_2_7::XMLBuffer"* %resolvedSysId, i32 1023, %"class.xercesc_2_7::MemoryManager"* %34)
          to label %invoke.cont52 unwind label %lpad41, !dbg !2712

invoke.cont52:                                    ; preds = %if.then50
  %call55 = invoke i16* @_ZN11xercesc_2_79XMLBuffer12getRawBufferEv(%"class.xercesc_2_7::XMLBuffer"* %expSysId)
          to label %invoke.cont54 unwind label %lpad53, !dbg !2714

invoke.cont54:                                    ; preds = %invoke.cont52
  invoke void @_ZN11xercesc_2_76XMLUri12normalizeURIEPKtRNS_9XMLBufferE(i16* %call55, %"class.xercesc_2_7::XMLBuffer"* dereferenceable(40) %resolvedSysId)
          to label %invoke.cont56 unwind label %lpad53, !dbg !2715

invoke.cont56:                                    ; preds = %invoke.cont54
  %fMemoryManager57 = getelementptr inbounds %"class.xercesc_2_7::ReaderMgr", %"class.xercesc_2_7::ReaderMgr"* %this3, i32 0, i32 10, !dbg !2716
  %35 = load %"class.xercesc_2_7::MemoryManager"*, %"class.xercesc_2_7::MemoryManager"** %fMemoryManager57, align 8, !dbg !2716
  %call59 = invoke i8* @_ZN11xercesc_2_77XMemorynwEmPNS_13MemoryManagerE(i64 48, %"class.xercesc_2_7::MemoryManager"* %35)
          to label %invoke.cont58 unwind label %lpad53, !dbg !2717

invoke.cont58:                                    ; preds = %invoke.cont56
  %36 = bitcast i8* %call59 to %"class.xercesc_2_7::LocalFileInputSource"*, !dbg !2717
  %systemId60 = getelementptr inbounds %"struct.xercesc_2_7::ReaderMgr::LastExtEntityInfo", %"struct.xercesc_2_7::ReaderMgr::LastExtEntityInfo"* %lastInfo35, i32 0, i32 0, !dbg !2718
  %37 = load i16*, i16** %systemId60, align 8, !dbg !2718
  %call63 = invoke i16* @_ZN11xercesc_2_79XMLBuffer12getRawBufferEv(%"class.xercesc_2_7::XMLBuffer"* %resolvedSysId)
          to label %invoke.cont62 unwind label %lpad61, !dbg !2719

invoke.cont62:                                    ; preds = %invoke.cont58
  %fMemoryManager64 = getelementptr inbounds %"class.xercesc_2_7::ReaderMgr", %"class.xercesc_2_7::ReaderMgr"* %this3, i32 0, i32 10, !dbg !2720
  %38 = load %"class.xercesc_2_7::MemoryManager"*, %"class.xercesc_2_7::MemoryManager"** %fMemoryManager64, align 8, !dbg !2720
  invoke void @_ZN11xercesc_2_720LocalFileInputSourceC1EPKtS2_PNS_13MemoryManagerE(%"class.xercesc_2_7::LocalFileInputSource"* %36, i16* %37, i16* %call63, %"class.xercesc_2_7::MemoryManager"* %38)
          to label %invoke.cont65 unwind label %lpad61, !dbg !2721

invoke.cont65:                                    ; preds = %invoke.cont62
  %39 = bitcast %"class.xercesc_2_7::LocalFileInputSource"* %36 to %"class.xercesc_2_7::InputSource"*, !dbg !2717
  %40 = load %"class.xercesc_2_7::InputSource"**, %"class.xercesc_2_7::InputSource"*** %srcToFill.addr, align 8, !dbg !2722
  store %"class.xercesc_2_7::InputSource"* %39, %"class.xercesc_2_7::InputSource"** %40, align 8, !dbg !2723
  call void @_ZN11xercesc_2_79XMLBufferD2Ev(%"class.xercesc_2_7::XMLBuffer"* %resolvedSysId) #10, !dbg !2724
  br label %if.end71, !dbg !2725

lpad41:                                           ; preds = %if.end83, %invoke.cont81, %land.lhs.true, %invoke.cont69, %if.then50, %lor.lhs.false, %invoke.cont42, %invoke.cont39
  %41 = landingpad { i8*, i32 }
          cleanup, !dbg !2726
  %42 = extractvalue { i8*, i32 } %41, 0, !dbg !2726
  store i8* %42, i8** %exn.slot, align 8, !dbg !2726
  %43 = extractvalue { i8*, i32 } %41, 1, !dbg !2726
  store i32 %43, i32* %ehselector.slot, align 4, !dbg !2726
  br label %ehcleanup92, !dbg !2726

lpad53:                                           ; preds = %invoke.cont56, %invoke.cont54, %invoke.cont52
  %44 = landingpad { i8*, i32 }
          cleanup, !dbg !2727
  %45 = extractvalue { i8*, i32 } %44, 0, !dbg !2727
  store i8* %45, i8** %exn.slot, align 8, !dbg !2727
  %46 = extractvalue { i8*, i32 } %44, 1, !dbg !2727
  store i32 %46, i32* %ehselector.slot, align 4, !dbg !2727
  br label %ehcleanup, !dbg !2727

lpad61:                                           ; preds = %invoke.cont62, %invoke.cont58
  %47 = landingpad { i8*, i32 }
          cleanup, !dbg !2727
  %48 = extractvalue { i8*, i32 } %47, 0, !dbg !2727
  store i8* %48, i8** %exn.slot, align 8, !dbg !2727
  %49 = extractvalue { i8*, i32 } %47, 1, !dbg !2727
  store i32 %49, i32* %ehselector.slot, align 4, !dbg !2727
  call void @_ZN11xercesc_2_77XMemorydlEPvPNS_13MemoryManagerE(i8* %call59, %"class.xercesc_2_7::MemoryManager"* %35) #10, !dbg !2717
  br label %ehcleanup, !dbg !2717

ehcleanup:                                        ; preds = %lpad61, %lpad53
  call void @_ZN11xercesc_2_79XMLBufferD2Ev(%"class.xercesc_2_7::XMLBuffer"* %resolvedSysId) #10, !dbg !2724
  br label %ehcleanup92, !dbg !2724

if.else66:                                        ; preds = %if.then48
  %exception = call i8* @__cxa_allocate_exception(i64 48) #10, !dbg !2728
  %50 = bitcast i8* %exception to %"class.xercesc_2_7::MalformedURLException"*, !dbg !2728
  %fMemoryManager67 = getelementptr inbounds %"class.xercesc_2_7::ReaderMgr", %"class.xercesc_2_7::ReaderMgr"* %this3, i32 0, i32 10, !dbg !2728
  %51 = load %"class.xercesc_2_7::MemoryManager"*, %"class.xercesc_2_7::MemoryManager"** %fMemoryManager67, align 8, !dbg !2728
  invoke void @_ZN11xercesc_2_721MalformedURLExceptionC2EPKcjNS_10XMLExcepts5CodesEPNS_13MemoryManagerE(%"class.xercesc_2_7::MalformedURLException"* %50, i8* getelementptr inbounds ([14 x i8], [14 x i8]* @.str, i64 0, i64 0), i32 568, i32 99, %"class.xercesc_2_7::MemoryManager"* %51)
          to label %invoke.cont69 unwind label %lpad68, !dbg !2728

invoke.cont69:                                    ; preds = %if.else66
  invoke void @__cxa_throw(i8* %exception, i8* bitcast ({ i8*, i8*, i8* }* @_ZTIN11xercesc_2_721MalformedURLExceptionE to i8*), i8* bitcast (void (%"class.xercesc_2_7::MalformedURLException"*)* @_ZN11xercesc_2_721MalformedURLExceptionD2Ev to i8*)) #12
          to label %unreachable unwind label %lpad41, !dbg !2728

lpad68:                                           ; preds = %if.else66
  %52 = landingpad { i8*, i32 }
          cleanup, !dbg !2729
  %53 = extractvalue { i8*, i32 } %52, 0, !dbg !2729
  store i8* %53, i8** %exn.slot, align 8, !dbg !2729
  %54 = extractvalue { i8*, i32 } %52, 1, !dbg !2729
  store i32 %54, i32* %ehselector.slot, align 4, !dbg !2729
  call void @__cxa_free_exception(i8* %exception) #10, !dbg !2728
  br label %ehcleanup92, !dbg !2728

if.end71:                                         ; preds = %invoke.cont65
  br label %if.end91, !dbg !2730

if.else72:                                        ; preds = %invoke.cont46
  %fStandardUriConformant73 = getelementptr inbounds %"class.xercesc_2_7::ReaderMgr", %"class.xercesc_2_7::ReaderMgr"* %this3, i32 0, i32 9, !dbg !2731
  %55 = load i8, i8* %fStandardUriConformant73, align 8, !dbg !2731
  %tobool74 = trunc i8 %55 to i1, !dbg !2731
  br i1 %tobool74, label %land.lhs.true, label %if.end83, !dbg !2734

land.lhs.true:                                    ; preds = %if.else72
  %call76 = invoke zeroext i1 @_ZNK11xercesc_2_76XMLURL14hasInvalidCharEv(%"class.xercesc_2_7::XMLURL"* %urlTmp)
          to label %invoke.cont75 unwind label %lpad41, !dbg !2735

invoke.cont75:                                    ; preds = %land.lhs.true
  br i1 %call76, label %if.then77, label %if.end83, !dbg !2736

if.then77:                                        ; preds = %invoke.cont75
  %exception78 = call i8* @__cxa_allocate_exception(i64 48) #10, !dbg !2737
  %56 = bitcast i8* %exception78 to %"class.xercesc_2_7::MalformedURLException"*, !dbg !2737
  %fMemoryManager79 = getelementptr inbounds %"class.xercesc_2_7::ReaderMgr", %"class.xercesc_2_7::ReaderMgr"* %this3, i32 0, i32 10, !dbg !2737
  %57 = load %"class.xercesc_2_7::MemoryManager"*, %"class.xercesc_2_7::MemoryManager"** %fMemoryManager79, align 8, !dbg !2737
  invoke void @_ZN11xercesc_2_721MalformedURLExceptionC2EPKcjNS_10XMLExcepts5CodesEPNS_13MemoryManagerE(%"class.xercesc_2_7::MalformedURLException"* %56, i8* getelementptr inbounds ([14 x i8], [14 x i8]* @.str, i64 0, i64 0), i32 573, i32 99, %"class.xercesc_2_7::MemoryManager"* %57)
          to label %invoke.cont81 unwind label %lpad80, !dbg !2737

invoke.cont81:                                    ; preds = %if.then77
  invoke void @__cxa_throw(i8* %exception78, i8* bitcast ({ i8*, i8*, i8* }* @_ZTIN11xercesc_2_721MalformedURLExceptionE to i8*), i8* bitcast (void (%"class.xercesc_2_7::MalformedURLException"*)* @_ZN11xercesc_2_721MalformedURLExceptionD2Ev to i8*)) #12
          to label %unreachable unwind label %lpad41, !dbg !2737

lpad80:                                           ; preds = %if.then77
  %58 = landingpad { i8*, i32 }
          cleanup, !dbg !2738
  %59 = extractvalue { i8*, i32 } %58, 0, !dbg !2738
  store i8* %59, i8** %exn.slot, align 8, !dbg !2738
  %60 = extractvalue { i8*, i32 } %58, 1, !dbg !2738
  store i32 %60, i32* %ehselector.slot, align 4, !dbg !2738
  call void @__cxa_free_exception(i8* %exception78) #10, !dbg !2737
  br label %ehcleanup92, !dbg !2737

if.end83:                                         ; preds = %invoke.cont75, %if.else72
  %fMemoryManager84 = getelementptr inbounds %"class.xercesc_2_7::ReaderMgr", %"class.xercesc_2_7::ReaderMgr"* %this3, i32 0, i32 10, !dbg !2739
  %61 = load %"class.xercesc_2_7::MemoryManager"*, %"class.xercesc_2_7::MemoryManager"** %fMemoryManager84, align 8, !dbg !2739
  %call86 = invoke i8* @_ZN11xercesc_2_77XMemorynwEmPNS_13MemoryManagerE(i64 136, %"class.xercesc_2_7::MemoryManager"* %61)
          to label %invoke.cont85 unwind label %lpad41, !dbg !2740

invoke.cont85:                                    ; preds = %if.end83
  %62 = bitcast i8* %call86 to %"class.xercesc_2_7::URLInputSource"*, !dbg !2740
  %fMemoryManager87 = getelementptr inbounds %"class.xercesc_2_7::ReaderMgr", %"class.xercesc_2_7::ReaderMgr"* %this3, i32 0, i32 10, !dbg !2741
  %63 = load %"class.xercesc_2_7::MemoryManager"*, %"class.xercesc_2_7::MemoryManager"** %fMemoryManager87, align 8, !dbg !2741
  invoke void @_ZN11xercesc_2_714URLInputSourceC1ERKNS_6XMLURLEPNS_13MemoryManagerE(%"class.xercesc_2_7::URLInputSource"* %62, %"class.xercesc_2_7::XMLURL"* dereferenceable(88) %urlTmp, %"class.xercesc_2_7::MemoryManager"* %63)
          to label %invoke.cont89 unwind label %lpad88, !dbg !2742

invoke.cont89:                                    ; preds = %invoke.cont85
  %64 = bitcast %"class.xercesc_2_7::URLInputSource"* %62 to %"class.xercesc_2_7::InputSource"*, !dbg !2740
  %65 = load %"class.xercesc_2_7::InputSource"**, %"class.xercesc_2_7::InputSource"*** %srcToFill.addr, align 8, !dbg !2743
  store %"class.xercesc_2_7::InputSource"* %64, %"class.xercesc_2_7::InputSource"** %65, align 8, !dbg !2744
  br label %if.end91

lpad88:                                           ; preds = %invoke.cont85
  %66 = landingpad { i8*, i32 }
          cleanup, !dbg !2745
  %67 = extractvalue { i8*, i32 } %66, 0, !dbg !2745
  store i8* %67, i8** %exn.slot, align 8, !dbg !2745
  %68 = extractvalue { i8*, i32 } %66, 1, !dbg !2745
  store i32 %68, i32* %ehselector.slot, align 4, !dbg !2745
  call void @_ZN11xercesc_2_77XMemorydlEPvPNS_13MemoryManagerE(i8* %call86, %"class.xercesc_2_7::MemoryManager"* %61) #10, !dbg !2740
  br label %ehcleanup92, !dbg !2740

if.end91:                                         ; preds = %invoke.cont89, %if.end71
  call void @_ZN11xercesc_2_76XMLURLD1Ev(%"class.xercesc_2_7::XMLURL"* %urlTmp) #10, !dbg !2746
  br label %if.end93, !dbg !2747

ehcleanup92:                                      ; preds = %lpad88, %lpad80, %lpad68, %ehcleanup, %lpad41
  call void @_ZN11xercesc_2_76XMLURLD1Ev(%"class.xercesc_2_7::XMLURL"* %urlTmp) #10, !dbg !2746
  br label %ehcleanup107, !dbg !2746

if.end93:                                         ; preds = %if.end91, %if.end29
  call void @llvm.dbg.declare(metadata %"class.xercesc_2_7::Janitor.3"* %janSrc, metadata !2748, metadata !DIExpression()), !dbg !2792
  %69 = load %"class.xercesc_2_7::InputSource"**, %"class.xercesc_2_7::InputSource"*** %srcToFill.addr, align 8, !dbg !2793
  %70 = load %"class.xercesc_2_7::InputSource"*, %"class.xercesc_2_7::InputSource"** %69, align 8, !dbg !2793
  invoke void @_ZN11xercesc_2_77JanitorINS_11InputSourceEEC2EPS1_(%"class.xercesc_2_7::Janitor.3"* %janSrc, %"class.xercesc_2_7::InputSource"* %70)
          to label %invoke.cont94 unwind label %lpad8, !dbg !2792

invoke.cont94:                                    ; preds = %if.end93
  call void @llvm.dbg.declare(metadata %"class.xercesc_2_7::XMLReader"** %retVal, metadata !2794, metadata !DIExpression()), !dbg !2795
  %71 = load %"class.xercesc_2_7::InputSource"**, %"class.xercesc_2_7::InputSource"*** %srcToFill.addr, align 8, !dbg !2796
  %72 = load %"class.xercesc_2_7::InputSource"*, %"class.xercesc_2_7::InputSource"** %71, align 8, !dbg !2796
  %73 = load i8, i8* %xmlDecl.addr, align 1, !dbg !2797
  %tobool95 = trunc i8 %73 to i1, !dbg !2797
  %74 = load i32, i32* %refFrom.addr, align 4, !dbg !2798
  %75 = load i32, i32* %type.addr, align 4, !dbg !2799
  %76 = load i32, i32* %source.addr, align 4, !dbg !2800
  %77 = load i8, i8* %calcSrcOfs.addr, align 1, !dbg !2801
  %tobool96 = trunc i8 %77 to i1, !dbg !2801
  %call99 = invoke %"class.xercesc_2_7::XMLReader"* @_ZN11xercesc_2_79ReaderMgr12createReaderERKNS_11InputSourceEbNS_9XMLReader7RefFromENS4_5TypesENS4_7SourcesEb(%"class.xercesc_2_7::ReaderMgr"* %this3, %"class.xercesc_2_7::InputSource"* dereferenceable(48) %72, i1 zeroext %tobool95, i32 %74, i32 %75, i32 %76, i1 zeroext %tobool96)
          to label %invoke.cont98 unwind label %lpad97, !dbg !2802

invoke.cont98:                                    ; preds = %invoke.cont94
  store %"class.xercesc_2_7::XMLReader"* %call99, %"class.xercesc_2_7::XMLReader"** %retVal, align 8, !dbg !2795
  invoke void @_ZN11xercesc_2_77JanitorINS_11InputSourceEE6orphanEv(%"class.xercesc_2_7::Janitor.3"* %janSrc)
          to label %invoke.cont100 unwind label %lpad97, !dbg !2803

invoke.cont100:                                   ; preds = %invoke.cont98
  %78 = load %"class.xercesc_2_7::XMLReader"*, %"class.xercesc_2_7::XMLReader"** %retVal, align 8, !dbg !2804
  %tobool101 = icmp ne %"class.xercesc_2_7::XMLReader"* %78, null, !dbg !2804
  br i1 %tobool101, label %if.end103, label %if.then102, !dbg !2806

if.then102:                                       ; preds = %invoke.cont100
  store %"class.xercesc_2_7::XMLReader"* null, %"class.xercesc_2_7::XMLReader"** %retval, align 8, !dbg !2807
  store i32 1, i32* %cleanup.dest.slot, align 4
  br label %cleanup, !dbg !2807

lpad97:                                           ; preds = %if.end103, %invoke.cont98, %invoke.cont94
  %79 = landingpad { i8*, i32 }
          cleanup, !dbg !2655
  %80 = extractvalue { i8*, i32 } %79, 0, !dbg !2655
  store i8* %80, i8** %exn.slot, align 8, !dbg !2655
  %81 = extractvalue { i8*, i32 } %79, 1, !dbg !2655
  store i32 %81, i32* %ehselector.slot, align 4, !dbg !2655
  call void @_ZN11xercesc_2_77JanitorINS_11InputSourceEED2Ev(%"class.xercesc_2_7::Janitor.3"* %janSrc) #10, !dbg !2655
  br label %ehcleanup107, !dbg !2655

if.end103:                                        ; preds = %invoke.cont100
  %82 = load %"class.xercesc_2_7::XMLReader"*, %"class.xercesc_2_7::XMLReader"** %retVal, align 8, !dbg !2808
  %fNextReaderNum = getelementptr inbounds %"class.xercesc_2_7::ReaderMgr", %"class.xercesc_2_7::ReaderMgr"* %this3, i32 0, i32 5, !dbg !2809
  %83 = load i32, i32* %fNextReaderNum, align 8, !dbg !2810
  %inc = add i32 %83, 1, !dbg !2810
  store i32 %inc, i32* %fNextReaderNum, align 8, !dbg !2810
  invoke void @_ZN11xercesc_2_79XMLReader12setReaderNumEj(%"class.xercesc_2_7::XMLReader"* %82, i32 %83)
          to label %invoke.cont104 unwind label %lpad97, !dbg !2811

invoke.cont104:                                   ; preds = %if.end103
  %84 = load %"class.xercesc_2_7::XMLReader"*, %"class.xercesc_2_7::XMLReader"** %retVal, align 8, !dbg !2812
  store %"class.xercesc_2_7::XMLReader"* %84, %"class.xercesc_2_7::XMLReader"** %retval, align 8, !dbg !2813
  store i32 1, i32* %cleanup.dest.slot, align 4
  br label %cleanup, !dbg !2813

cleanup:                                          ; preds = %invoke.cont104, %if.then102
  call void @_ZN11xercesc_2_77JanitorINS_11InputSourceEED2Ev(%"class.xercesc_2_7::Janitor.3"* %janSrc) #10, !dbg !2655
  br label %cleanup106

cleanup106:                                       ; preds = %cleanup, %if.then33
  call void @_ZN11xercesc_2_79XMLBufferD2Ev(%"class.xercesc_2_7::XMLBuffer"* %expSysId) #10, !dbg !2655
  call void @_ZN11xercesc_2_79XMLBufferD2Ev(%"class.xercesc_2_7::XMLBuffer"* %normalizedSysId) #10, !dbg !2655
  %85 = load %"class.xercesc_2_7::XMLReader"*, %"class.xercesc_2_7::XMLReader"** %retval, align 8, !dbg !2655
  ret %"class.xercesc_2_7::XMLReader"* %85, !dbg !2655

ehcleanup107:                                     ; preds = %lpad97, %ehcleanup92, %lpad26, %lpad8
  call void @_ZN11xercesc_2_79XMLBufferD2Ev(%"class.xercesc_2_7::XMLBuffer"* %expSysId) #10, !dbg !2655
  br label %ehcleanup109, !dbg !2655

ehcleanup109:                                     ; preds = %ehcleanup107, %lpad
  call void @_ZN11xercesc_2_79XMLBufferD2Ev(%"class.xercesc_2_7::XMLBuffer"* %normalizedSysId) #10, !dbg !2655
  br label %eh.resume, !dbg !2655

eh.resume:                                        ; preds = %ehcleanup109
  %exn = load i8*, i8** %exn.slot, align 8, !dbg !2655
  %sel = load i32, i32* %ehselector.slot, align 4, !dbg !2655
  %lpad.val = insertvalue { i8*, i32 } undef, i8* %exn, 0, !dbg !2655
  %lpad.val110 = insertvalue { i8*, i32 } %lpad.val, i32 %sel, 1, !dbg !2655
  resume { i8*, i32 } %lpad.val110, !dbg !2655

unreachable:                                      ; preds = %invoke.cont81, %invoke.cont69
  unreachable
}

; Function Attrs: noinline uwtable
define linkonce_odr dso_local void @_ZN11xercesc_2_79XMLBufferC2EjPNS_13MemoryManagerE(%"class.xercesc_2_7::XMLBuffer"* %this, i32 %capacity, %"class.xercesc_2_7::MemoryManager"* %manager) unnamed_addr #3 comdat align 2 !dbg !2814 {
entry:
  %this.addr = alloca %"class.xercesc_2_7::XMLBuffer"*, align 8
  %capacity.addr = alloca i32, align 4
  %manager.addr = alloca %"class.xercesc_2_7::MemoryManager"*, align 8
  store %"class.xercesc_2_7::XMLBuffer"* %this, %"class.xercesc_2_7::XMLBuffer"** %this.addr, align 8
  call void @llvm.dbg.declare(metadata %"class.xercesc_2_7::XMLBuffer"** %this.addr, metadata !2815, metadata !DIExpression()), !dbg !2816
  store i32 %capacity, i32* %capacity.addr, align 4
  call void @llvm.dbg.declare(metadata i32* %capacity.addr, metadata !2817, metadata !DIExpression()), !dbg !2818
  store %"class.xercesc_2_7::MemoryManager"* %manager, %"class.xercesc_2_7::MemoryManager"** %manager.addr, align 8
  call void @llvm.dbg.declare(metadata %"class.xercesc_2_7::MemoryManager"** %manager.addr, metadata !2819, metadata !DIExpression()), !dbg !2820
  %this1 = load %"class.xercesc_2_7::XMLBuffer"*, %"class.xercesc_2_7::XMLBuffer"** %this.addr, align 8
  %0 = bitcast %"class.xercesc_2_7::XMLBuffer"* %this1 to %"class.xercesc_2_7::XMemory"*, !dbg !2821
  call void @_ZN11xercesc_2_77XMemoryC2Ev(%"class.xercesc_2_7::XMemory"* %0), !dbg !2822
  %fIndex = getelementptr inbounds %"class.xercesc_2_7::XMLBuffer", %"class.xercesc_2_7::XMLBuffer"* %this1, i32 0, i32 0, !dbg !2823
  store i32 0, i32* %fIndex, align 8, !dbg !2823
  %fCapacity = getelementptr inbounds %"class.xercesc_2_7::XMLBuffer", %"class.xercesc_2_7::XMLBuffer"* %this1, i32 0, i32 1, !dbg !2824
  %1 = load i32, i32* %capacity.addr, align 4, !dbg !2825
  store i32 %1, i32* %fCapacity, align 4, !dbg !2824
  %fFullSize = getelementptr inbounds %"class.xercesc_2_7::XMLBuffer", %"class.xercesc_2_7::XMLBuffer"* %this1, i32 0, i32 2, !dbg !2826
  store i32 0, i32* %fFullSize, align 8, !dbg !2826
  %fUsed = getelementptr inbounds %"class.xercesc_2_7::XMLBuffer", %"class.xercesc_2_7::XMLBuffer"* %this1, i32 0, i32 3, !dbg !2827
  store i8 0, i8* %fUsed, align 4, !dbg !2827
  %fMemoryManager = getelementptr inbounds %"class.xercesc_2_7::XMLBuffer", %"class.xercesc_2_7::XMLBuffer"* %this1, i32 0, i32 4, !dbg !2828
  %2 = load %"class.xercesc_2_7::MemoryManager"*, %"class.xercesc_2_7::MemoryManager"** %manager.addr, align 8, !dbg !2829
  store %"class.xercesc_2_7::MemoryManager"* %2, %"class.xercesc_2_7::MemoryManager"** %fMemoryManager, align 8, !dbg !2828
  %fFullHandler = getelementptr inbounds %"class.xercesc_2_7::XMLBuffer", %"class.xercesc_2_7::XMLBuffer"* %this1, i32 0, i32 5, !dbg !2830
  store %"class.xercesc_2_7::XMLBufferFullHandler"* null, %"class.xercesc_2_7::XMLBufferFullHandler"** %fFullHandler, align 8, !dbg !2830
  %fBuffer = getelementptr inbounds %"class.xercesc_2_7::XMLBuffer", %"class.xercesc_2_7::XMLBuffer"* %this1, i32 0, i32 6, !dbg !2831
  store i16* null, i16** %fBuffer, align 8, !dbg !2831
  %3 = load %"class.xercesc_2_7::MemoryManager"*, %"class.xercesc_2_7::MemoryManager"** %manager.addr, align 8, !dbg !2832
  %4 = load i32, i32* %capacity.addr, align 4, !dbg !2834
  %add = add i32 %4, 1, !dbg !2835
  %conv = zext i32 %add to i64, !dbg !2836
  %mul = mul i64 %conv, 2, !dbg !2837
  %5 = bitcast %"class.xercesc_2_7::MemoryManager"* %3 to i8* (%"class.xercesc_2_7::MemoryManager"*, i64)***, !dbg !2838
  %vtable = load i8* (%"class.xercesc_2_7::MemoryManager"*, i64)**, i8* (%"class.xercesc_2_7::MemoryManager"*, i64)*** %5, align 8, !dbg !2838
  %vfn = getelementptr inbounds i8* (%"class.xercesc_2_7::MemoryManager"*, i64)*, i8* (%"class.xercesc_2_7::MemoryManager"*, i64)** %vtable, i64 2, !dbg !2838
  %6 = load i8* (%"class.xercesc_2_7::MemoryManager"*, i64)*, i8* (%"class.xercesc_2_7::MemoryManager"*, i64)** %vfn, align 8, !dbg !2838
  %call = call i8* %6(%"class.xercesc_2_7::MemoryManager"* %3, i64 %mul), !dbg !2838
  %7 = bitcast i8* %call to i16*, !dbg !2839
  %fBuffer2 = getelementptr inbounds %"class.xercesc_2_7::XMLBuffer", %"class.xercesc_2_7::XMLBuffer"* %this1, i32 0, i32 6, !dbg !2840
  store i16* %7, i16** %fBuffer2, align 8, !dbg !2841
  %fBuffer3 = getelementptr inbounds %"class.xercesc_2_7::XMLBuffer", %"class.xercesc_2_7::XMLBuffer"* %this1, i32 0, i32 6, !dbg !2842
  %8 = load i16*, i16** %fBuffer3, align 8, !dbg !2842
  %arrayidx = getelementptr inbounds i16, i16* %8, i64 0, !dbg !2842
  store i16 0, i16* %arrayidx, align 2, !dbg !2843
  ret void, !dbg !2844
}

declare dso_local void @_ZN11xercesc_2_79XMLString10removeCharEPKtRS1_RNS_9XMLBufferE(i16*, i16* dereferenceable(2), %"class.xercesc_2_7::XMLBuffer"* dereferenceable(40)) #5

; Function Attrs: noinline nounwind uwtable
define linkonce_odr dso_local i16* @_ZN11xercesc_2_79XMLBuffer12getRawBufferEv(%"class.xercesc_2_7::XMLBuffer"* %this) #1 comdat align 2 !dbg !2845 {
entry:
  %this.addr = alloca %"class.xercesc_2_7::XMLBuffer"*, align 8
  store %"class.xercesc_2_7::XMLBuffer"* %this, %"class.xercesc_2_7::XMLBuffer"** %this.addr, align 8
  call void @llvm.dbg.declare(metadata %"class.xercesc_2_7::XMLBuffer"** %this.addr, metadata !2846, metadata !DIExpression()), !dbg !2847
  %this1 = load %"class.xercesc_2_7::XMLBuffer"*, %"class.xercesc_2_7::XMLBuffer"** %this.addr, align 8
  %fBuffer = getelementptr inbounds %"class.xercesc_2_7::XMLBuffer", %"class.xercesc_2_7::XMLBuffer"* %this1, i32 0, i32 6, !dbg !2848
  %0 = load i16*, i16** %fBuffer, align 8, !dbg !2848
  %fIndex = getelementptr inbounds %"class.xercesc_2_7::XMLBuffer", %"class.xercesc_2_7::XMLBuffer"* %this1, i32 0, i32 0, !dbg !2849
  %1 = load i32, i32* %fIndex, align 8, !dbg !2849
  %idxprom = zext i32 %1 to i64, !dbg !2848
  %arrayidx = getelementptr inbounds i16, i16* %0, i64 %idxprom, !dbg !2848
  store i16 0, i16* %arrayidx, align 2, !dbg !2850
  %fBuffer2 = getelementptr inbounds %"class.xercesc_2_7::XMLBuffer", %"class.xercesc_2_7::XMLBuffer"* %this1, i32 0, i32 6, !dbg !2851
  %2 = load i16*, i16** %fBuffer2, align 8, !dbg !2851
  ret i16* %2, !dbg !2852
}

; Function Attrs: noinline uwtable
define linkonce_odr dso_local void @_ZN11xercesc_2_79XMLBuffer3setEPKt(%"class.xercesc_2_7::XMLBuffer"* %this, i16* %chars) #3 comdat align 2 !dbg !2853 {
entry:
  %this.addr = alloca %"class.xercesc_2_7::XMLBuffer"*, align 8
  %chars.addr = alloca i16*, align 8
  store %"class.xercesc_2_7::XMLBuffer"* %this, %"class.xercesc_2_7::XMLBuffer"** %this.addr, align 8
  call void @llvm.dbg.declare(metadata %"class.xercesc_2_7::XMLBuffer"** %this.addr, metadata !2854, metadata !DIExpression()), !dbg !2855
  store i16* %chars, i16** %chars.addr, align 8
  call void @llvm.dbg.declare(metadata i16** %chars.addr, metadata !2856, metadata !DIExpression()), !dbg !2857
  %this1 = load %"class.xercesc_2_7::XMLBuffer"*, %"class.xercesc_2_7::XMLBuffer"** %this.addr, align 8
  %fIndex = getelementptr inbounds %"class.xercesc_2_7::XMLBuffer", %"class.xercesc_2_7::XMLBuffer"* %this1, i32 0, i32 0, !dbg !2858
  store i32 0, i32* %fIndex, align 8, !dbg !2859
  %0 = load i16*, i16** %chars.addr, align 8, !dbg !2860
  call void @_ZN11xercesc_2_79XMLBuffer6appendEPKt(%"class.xercesc_2_7::XMLBuffer"* %this1, i16* %0), !dbg !2861
  ret void, !dbg !2862
}

; Function Attrs: noinline nounwind uwtable
define linkonce_odr dso_local void @_ZN11xercesc_2_79ReaderMgr17LastExtEntityInfoC2Ev(%"struct.xercesc_2_7::ReaderMgr::LastExtEntityInfo"* %this) unnamed_addr #1 comdat align 2 !dbg !2863 {
entry:
  %this.addr = alloca %"struct.xercesc_2_7::ReaderMgr::LastExtEntityInfo"*, align 8
  store %"struct.xercesc_2_7::ReaderMgr::LastExtEntityInfo"* %this, %"struct.xercesc_2_7::ReaderMgr::LastExtEntityInfo"** %this.addr, align 8
  call void @llvm.dbg.declare(metadata %"struct.xercesc_2_7::ReaderMgr::LastExtEntityInfo"** %this.addr, metadata !2868, metadata !DIExpression()), !dbg !2870
  %this1 = load %"struct.xercesc_2_7::ReaderMgr::LastExtEntityInfo"*, %"struct.xercesc_2_7::ReaderMgr::LastExtEntityInfo"** %this.addr, align 8
  %0 = bitcast %"struct.xercesc_2_7::ReaderMgr::LastExtEntityInfo"* %this1 to %"class.xercesc_2_7::XMemory"*, !dbg !2871
  call void @_ZN11xercesc_2_77XMemoryC2Ev(%"class.xercesc_2_7::XMemory"* %0), !dbg !2871
  ret void, !dbg !2871
}

; Function Attrs: noinline uwtable
define dso_local void @_ZNK11xercesc_2_79ReaderMgr20getLastExtEntityInfoERNS0_17LastExtEntityInfoE(%"class.xercesc_2_7::ReaderMgr"* %this, %"struct.xercesc_2_7::ReaderMgr::LastExtEntityInfo"* dereferenceable(32) %lastInfo) #3 align 2 !dbg !2872 {
entry:
  %this.addr = alloca %"class.xercesc_2_7::ReaderMgr"*, align 8
  %lastInfo.addr = alloca %"struct.xercesc_2_7::ReaderMgr::LastExtEntityInfo"*, align 8
  %theEntity = alloca %"class.xercesc_2_7::XMLEntityDecl"*, align 8
  %theReader = alloca %"class.xercesc_2_7::XMLReader"*, align 8
  store %"class.xercesc_2_7::ReaderMgr"* %this, %"class.xercesc_2_7::ReaderMgr"** %this.addr, align 8
  call void @llvm.dbg.declare(metadata %"class.xercesc_2_7::ReaderMgr"** %this.addr, metadata !2873, metadata !DIExpression()), !dbg !2874
  store %"struct.xercesc_2_7::ReaderMgr::LastExtEntityInfo"* %lastInfo, %"struct.xercesc_2_7::ReaderMgr::LastExtEntityInfo"** %lastInfo.addr, align 8
  call void @llvm.dbg.declare(metadata %"struct.xercesc_2_7::ReaderMgr::LastExtEntityInfo"** %lastInfo.addr, metadata !2875, metadata !DIExpression()), !dbg !2876
  %this1 = load %"class.xercesc_2_7::ReaderMgr"*, %"class.xercesc_2_7::ReaderMgr"** %this.addr, align 8
  %fReaderStack = getelementptr inbounds %"class.xercesc_2_7::ReaderMgr", %"class.xercesc_2_7::ReaderMgr"* %this1, i32 0, i32 6, !dbg !2877
  %0 = load %"class.xercesc_2_7::RefStackOf.0"*, %"class.xercesc_2_7::RefStackOf.0"** %fReaderStack, align 8, !dbg !2877
  %tobool = icmp ne %"class.xercesc_2_7::RefStackOf.0"* %0, null, !dbg !2877
  br i1 %tobool, label %lor.lhs.false, label %if.then, !dbg !2879

lor.lhs.false:                                    ; preds = %entry
  %fCurReader = getelementptr inbounds %"class.xercesc_2_7::ReaderMgr", %"class.xercesc_2_7::ReaderMgr"* %this1, i32 0, i32 2, !dbg !2880
  %1 = load %"class.xercesc_2_7::XMLReader"*, %"class.xercesc_2_7::XMLReader"** %fCurReader, align 8, !dbg !2880
  %tobool2 = icmp ne %"class.xercesc_2_7::XMLReader"* %1, null, !dbg !2880
  br i1 %tobool2, label %if.end, label %if.then, !dbg !2881

if.then:                                          ; preds = %lor.lhs.false, %entry
  %2 = load %"struct.xercesc_2_7::ReaderMgr::LastExtEntityInfo"*, %"struct.xercesc_2_7::ReaderMgr::LastExtEntityInfo"** %lastInfo.addr, align 8, !dbg !2882
  %systemId = getelementptr inbounds %"struct.xercesc_2_7::ReaderMgr::LastExtEntityInfo", %"struct.xercesc_2_7::ReaderMgr::LastExtEntityInfo"* %2, i32 0, i32 0, !dbg !2884
  store i16* getelementptr inbounds ([0 x i16], [0 x i16]* @_ZN11xercesc_2_76XMLUni15fgZeroLenStringE, i64 0, i64 0), i16** %systemId, align 8, !dbg !2885
  %3 = load %"struct.xercesc_2_7::ReaderMgr::LastExtEntityInfo"*, %"struct.xercesc_2_7::ReaderMgr::LastExtEntityInfo"** %lastInfo.addr, align 8, !dbg !2886
  %publicId = getelementptr inbounds %"struct.xercesc_2_7::ReaderMgr::LastExtEntityInfo", %"struct.xercesc_2_7::ReaderMgr::LastExtEntityInfo"* %3, i32 0, i32 1, !dbg !2887
  store i16* getelementptr inbounds ([0 x i16], [0 x i16]* @_ZN11xercesc_2_76XMLUni15fgZeroLenStringE, i64 0, i64 0), i16** %publicId, align 8, !dbg !2888
  %4 = load %"struct.xercesc_2_7::ReaderMgr::LastExtEntityInfo"*, %"struct.xercesc_2_7::ReaderMgr::LastExtEntityInfo"** %lastInfo.addr, align 8, !dbg !2889
  %lineNumber = getelementptr inbounds %"struct.xercesc_2_7::ReaderMgr::LastExtEntityInfo", %"struct.xercesc_2_7::ReaderMgr::LastExtEntityInfo"* %4, i32 0, i32 2, !dbg !2890
  store i64 0, i64* %lineNumber, align 8, !dbg !2891
  %5 = load %"struct.xercesc_2_7::ReaderMgr::LastExtEntityInfo"*, %"struct.xercesc_2_7::ReaderMgr::LastExtEntityInfo"** %lastInfo.addr, align 8, !dbg !2892
  %colNumber = getelementptr inbounds %"struct.xercesc_2_7::ReaderMgr::LastExtEntityInfo", %"struct.xercesc_2_7::ReaderMgr::LastExtEntityInfo"* %5, i32 0, i32 3, !dbg !2893
  store i64 0, i64* %colNumber, align 8, !dbg !2894
  br label %return, !dbg !2895

if.end:                                           ; preds = %lor.lhs.false
  call void @llvm.dbg.declare(metadata %"class.xercesc_2_7::XMLEntityDecl"** %theEntity, metadata !2896, metadata !DIExpression()), !dbg !2897
  call void @llvm.dbg.declare(metadata %"class.xercesc_2_7::XMLReader"** %theReader, metadata !2898, metadata !DIExpression()), !dbg !2899
  %call = call %"class.xercesc_2_7::XMLReader"* @_ZNK11xercesc_2_79ReaderMgr16getLastExtEntityERPKNS_13XMLEntityDeclE(%"class.xercesc_2_7::ReaderMgr"* %this1, %"class.xercesc_2_7::XMLEntityDecl"** dereferenceable(8) %theEntity), !dbg !2900
  store %"class.xercesc_2_7::XMLReader"* %call, %"class.xercesc_2_7::XMLReader"** %theReader, align 8, !dbg !2899
  %6 = load %"class.xercesc_2_7::XMLReader"*, %"class.xercesc_2_7::XMLReader"** %theReader, align 8, !dbg !2901
  %call3 = call i16* @_ZNK11xercesc_2_79XMLReader11getSystemIdEv(%"class.xercesc_2_7::XMLReader"* %6), !dbg !2902
  %7 = load %"struct.xercesc_2_7::ReaderMgr::LastExtEntityInfo"*, %"struct.xercesc_2_7::ReaderMgr::LastExtEntityInfo"** %lastInfo.addr, align 8, !dbg !2903
  %systemId4 = getelementptr inbounds %"struct.xercesc_2_7::ReaderMgr::LastExtEntityInfo", %"struct.xercesc_2_7::ReaderMgr::LastExtEntityInfo"* %7, i32 0, i32 0, !dbg !2904
  store i16* %call3, i16** %systemId4, align 8, !dbg !2905
  %8 = load %"class.xercesc_2_7::XMLReader"*, %"class.xercesc_2_7::XMLReader"** %theReader, align 8, !dbg !2906
  %call5 = call i16* @_ZNK11xercesc_2_79XMLReader11getPublicIdEv(%"class.xercesc_2_7::XMLReader"* %8), !dbg !2907
  %9 = load %"struct.xercesc_2_7::ReaderMgr::LastExtEntityInfo"*, %"struct.xercesc_2_7::ReaderMgr::LastExtEntityInfo"** %lastInfo.addr, align 8, !dbg !2908
  %publicId6 = getelementptr inbounds %"struct.xercesc_2_7::ReaderMgr::LastExtEntityInfo", %"struct.xercesc_2_7::ReaderMgr::LastExtEntityInfo"* %9, i32 0, i32 1, !dbg !2909
  store i16* %call5, i16** %publicId6, align 8, !dbg !2910
  %10 = load %"class.xercesc_2_7::XMLReader"*, %"class.xercesc_2_7::XMLReader"** %theReader, align 8, !dbg !2911
  %call7 = call i64 @_ZNK11xercesc_2_79XMLReader13getLineNumberEv(%"class.xercesc_2_7::XMLReader"* %10), !dbg !2912
  %11 = load %"struct.xercesc_2_7::ReaderMgr::LastExtEntityInfo"*, %"struct.xercesc_2_7::ReaderMgr::LastExtEntityInfo"** %lastInfo.addr, align 8, !dbg !2913
  %lineNumber8 = getelementptr inbounds %"struct.xercesc_2_7::ReaderMgr::LastExtEntityInfo", %"struct.xercesc_2_7::ReaderMgr::LastExtEntityInfo"* %11, i32 0, i32 2, !dbg !2914
  store i64 %call7, i64* %lineNumber8, align 8, !dbg !2915
  %12 = load %"class.xercesc_2_7::XMLReader"*, %"class.xercesc_2_7::XMLReader"** %theReader, align 8, !dbg !2916
  %call9 = call i64 @_ZNK11xercesc_2_79XMLReader15getColumnNumberEv(%"class.xercesc_2_7::XMLReader"* %12), !dbg !2917
  %13 = load %"struct.xercesc_2_7::ReaderMgr::LastExtEntityInfo"*, %"struct.xercesc_2_7::ReaderMgr::LastExtEntityInfo"** %lastInfo.addr, align 8, !dbg !2918
  %colNumber10 = getelementptr inbounds %"struct.xercesc_2_7::ReaderMgr::LastExtEntityInfo", %"struct.xercesc_2_7::ReaderMgr::LastExtEntityInfo"* %13, i32 0, i32 3, !dbg !2919
  store i64 %call9, i64* %colNumber10, align 8, !dbg !2920
  br label %return, !dbg !2921

return:                                           ; preds = %if.end, %if.then
  ret void, !dbg !2921
}

; Function Attrs: noinline nounwind uwtable
define linkonce_odr dso_local void @_ZN11xercesc_2_721XMLResourceIdentifierC2ENS0_22ResourceIdentifierTypeEPKtS3_S3_S3_PKNS_7LocatorE(%"class.xercesc_2_7::XMLResourceIdentifier"* %this, i32 %resourceIdentifierType, i16* %systemId, i16* %nameSpace, i16* %publicId, i16* %baseURI, %"class.xercesc_2_7::Locator"* %locator) unnamed_addr #1 comdat align 2 !dbg !2922 {
entry:
  %this.addr = alloca %"class.xercesc_2_7::XMLResourceIdentifier"*, align 8
  %resourceIdentifierType.addr = alloca i32, align 4
  %systemId.addr = alloca i16*, align 8
  %nameSpace.addr = alloca i16*, align 8
  %publicId.addr = alloca i16*, align 8
  %baseURI.addr = alloca i16*, align 8
  %locator.addr = alloca %"class.xercesc_2_7::Locator"*, align 8
  store %"class.xercesc_2_7::XMLResourceIdentifier"* %this, %"class.xercesc_2_7::XMLResourceIdentifier"** %this.addr, align 8
  call void @llvm.dbg.declare(metadata %"class.xercesc_2_7::XMLResourceIdentifier"** %this.addr, metadata !2923, metadata !DIExpression()), !dbg !2925
  store i32 %resourceIdentifierType, i32* %resourceIdentifierType.addr, align 4
  call void @llvm.dbg.declare(metadata i32* %resourceIdentifierType.addr, metadata !2926, metadata !DIExpression()), !dbg !2927
  store i16* %systemId, i16** %systemId.addr, align 8
  call void @llvm.dbg.declare(metadata i16** %systemId.addr, metadata !2928, metadata !DIExpression()), !dbg !2929
  store i16* %nameSpace, i16** %nameSpace.addr, align 8
  call void @llvm.dbg.declare(metadata i16** %nameSpace.addr, metadata !2930, metadata !DIExpression()), !dbg !2931
  store i16* %publicId, i16** %publicId.addr, align 8
  call void @llvm.dbg.declare(metadata i16** %publicId.addr, metadata !2932, metadata !DIExpression()), !dbg !2933
  store i16* %baseURI, i16** %baseURI.addr, align 8
  call void @llvm.dbg.declare(metadata i16** %baseURI.addr, metadata !2934, metadata !DIExpression()), !dbg !2935
  store %"class.xercesc_2_7::Locator"* %locator, %"class.xercesc_2_7::Locator"** %locator.addr, align 8
  call void @llvm.dbg.declare(metadata %"class.xercesc_2_7::Locator"** %locator.addr, metadata !2936, metadata !DIExpression()), !dbg !2937
  %this1 = load %"class.xercesc_2_7::XMLResourceIdentifier"*, %"class.xercesc_2_7::XMLResourceIdentifier"** %this.addr, align 8
  %fResourceIdentifierType = getelementptr inbounds %"class.xercesc_2_7::XMLResourceIdentifier", %"class.xercesc_2_7::XMLResourceIdentifier"* %this1, i32 0, i32 0, !dbg !2938
  %0 = load i32, i32* %resourceIdentifierType.addr, align 4, !dbg !2939
  store i32 %0, i32* %fResourceIdentifierType, align 8, !dbg !2938
  %fPublicId = getelementptr inbounds %"class.xercesc_2_7::XMLResourceIdentifier", %"class.xercesc_2_7::XMLResourceIdentifier"* %this1, i32 0, i32 1, !dbg !2940
  %1 = load i16*, i16** %publicId.addr, align 8, !dbg !2941
  store i16* %1, i16** %fPublicId, align 8, !dbg !2940
  %fSystemId = getelementptr inbounds %"class.xercesc_2_7::XMLResourceIdentifier", %"class.xercesc_2_7::XMLResourceIdentifier"* %this1, i32 0, i32 2, !dbg !2942
  %2 = load i16*, i16** %systemId.addr, align 8, !dbg !2943
  store i16* %2, i16** %fSystemId, align 8, !dbg !2942
  %fBaseURI = getelementptr inbounds %"class.xercesc_2_7::XMLResourceIdentifier", %"class.xercesc_2_7::XMLResourceIdentifier"* %this1, i32 0, i32 3, !dbg !2944
  %3 = load i16*, i16** %baseURI.addr, align 8, !dbg !2945
  store i16* %3, i16** %fBaseURI, align 8, !dbg !2944
  %fNameSpace = getelementptr inbounds %"class.xercesc_2_7::XMLResourceIdentifier", %"class.xercesc_2_7::XMLResourceIdentifier"* %this1, i32 0, i32 4, !dbg !2946
  %4 = load i16*, i16** %nameSpace.addr, align 8, !dbg !2947
  store i16* %4, i16** %fNameSpace, align 8, !dbg !2946
  %fLocator = getelementptr inbounds %"class.xercesc_2_7::XMLResourceIdentifier", %"class.xercesc_2_7::XMLResourceIdentifier"* %this1, i32 0, i32 5, !dbg !2948
  %5 = load %"class.xercesc_2_7::Locator"*, %"class.xercesc_2_7::Locator"** %locator.addr, align 8, !dbg !2949
  store %"class.xercesc_2_7::Locator"* %5, %"class.xercesc_2_7::Locator"** %fLocator, align 8, !dbg !2948
  ret void, !dbg !2950
}

; Function Attrs: noinline nounwind uwtable
define linkonce_odr dso_local void @_ZN11xercesc_2_721XMLResourceIdentifierD2Ev(%"class.xercesc_2_7::XMLResourceIdentifier"* %this) unnamed_addr #1 comdat align 2 !dbg !2951 {
entry:
  %this.addr = alloca %"class.xercesc_2_7::XMLResourceIdentifier"*, align 8
  store %"class.xercesc_2_7::XMLResourceIdentifier"* %this, %"class.xercesc_2_7::XMLResourceIdentifier"** %this.addr, align 8
  call void @llvm.dbg.declare(metadata %"class.xercesc_2_7::XMLResourceIdentifier"** %this.addr, metadata !2952, metadata !DIExpression()), !dbg !2953
  %this1 = load %"class.xercesc_2_7::XMLResourceIdentifier"*, %"class.xercesc_2_7::XMLResourceIdentifier"** %this.addr, align 8
  ret void, !dbg !2954
}

declare dso_local void @_ZN11xercesc_2_76XMLURLC1EPNS_13MemoryManagerE(%"class.xercesc_2_7::XMLURL"*, %"class.xercesc_2_7::MemoryManager"*) unnamed_addr #5

declare dso_local zeroext i1 @_ZN11xercesc_2_76XMLURL6setURLEPKtS2_RS0_(%"class.xercesc_2_7::XMLURL"*, i16*, i16*, %"class.xercesc_2_7::XMLURL"* dereferenceable(88)) #5

declare dso_local zeroext i1 @_ZNK11xercesc_2_76XMLURL10isRelativeEv(%"class.xercesc_2_7::XMLURL"*) #5

declare dso_local void @_ZN11xercesc_2_76XMLUri12normalizeURIEPKtRNS_9XMLBufferE(i16*, %"class.xercesc_2_7::XMLBuffer"* dereferenceable(40)) #5

declare dso_local void @_ZN11xercesc_2_720LocalFileInputSourceC1EPKtS2_PNS_13MemoryManagerE(%"class.xercesc_2_7::LocalFileInputSource"*, i16*, i16*, %"class.xercesc_2_7::MemoryManager"*) unnamed_addr #5

; Function Attrs: noinline nounwind uwtable
define linkonce_odr dso_local void @_ZN11xercesc_2_79XMLBufferD2Ev(%"class.xercesc_2_7::XMLBuffer"* %this) unnamed_addr #1 comdat align 2 personality i8* bitcast (i32 (...)* @__gxx_personality_v0 to i8*) !dbg !2955 {
entry:
  %this.addr = alloca %"class.xercesc_2_7::XMLBuffer"*, align 8
  store %"class.xercesc_2_7::XMLBuffer"* %this, %"class.xercesc_2_7::XMLBuffer"** %this.addr, align 8
  call void @llvm.dbg.declare(metadata %"class.xercesc_2_7::XMLBuffer"** %this.addr, metadata !2956, metadata !DIExpression()), !dbg !2957
  %this1 = load %"class.xercesc_2_7::XMLBuffer"*, %"class.xercesc_2_7::XMLBuffer"** %this.addr, align 8
  %fMemoryManager = getelementptr inbounds %"class.xercesc_2_7::XMLBuffer", %"class.xercesc_2_7::XMLBuffer"* %this1, i32 0, i32 4, !dbg !2958
  %0 = load %"class.xercesc_2_7::MemoryManager"*, %"class.xercesc_2_7::MemoryManager"** %fMemoryManager, align 8, !dbg !2958
  %fBuffer = getelementptr inbounds %"class.xercesc_2_7::XMLBuffer", %"class.xercesc_2_7::XMLBuffer"* %this1, i32 0, i32 6, !dbg !2960
  %1 = load i16*, i16** %fBuffer, align 8, !dbg !2960
  %2 = bitcast i16* %1 to i8*, !dbg !2960
  %3 = bitcast %"class.xercesc_2_7::MemoryManager"* %0 to void (%"class.xercesc_2_7::MemoryManager"*, i8*)***, !dbg !2961
  %vtable = load void (%"class.xercesc_2_7::MemoryManager"*, i8*)**, void (%"class.xercesc_2_7::MemoryManager"*, i8*)*** %3, align 8, !dbg !2961
  %vfn = getelementptr inbounds void (%"class.xercesc_2_7::MemoryManager"*, i8*)*, void (%"class.xercesc_2_7::MemoryManager"*, i8*)** %vtable, i64 3, !dbg !2961
  %4 = load void (%"class.xercesc_2_7::MemoryManager"*, i8*)*, void (%"class.xercesc_2_7::MemoryManager"*, i8*)** %vfn, align 8, !dbg !2961
  invoke void %4(%"class.xercesc_2_7::MemoryManager"* %0, i8* %2)
          to label %invoke.cont unwind label %terminate.lpad, !dbg !2961

invoke.cont:                                      ; preds = %entry
  ret void, !dbg !2962

terminate.lpad:                                   ; preds = %entry
  %5 = landingpad { i8*, i32 }
          catch i8* null, !dbg !2961
  %6 = extractvalue { i8*, i32 } %5, 0, !dbg !2961
  call void @__clang_call_terminate(i8* %6) #13, !dbg !2961
  unreachable, !dbg !2961
}

; Function Attrs: noinline uwtable
define linkonce_odr dso_local void @_ZN11xercesc_2_721MalformedURLExceptionC2EPKcjNS_10XMLExcepts5CodesEPNS_13MemoryManagerE(%"class.xercesc_2_7::MalformedURLException"* %this, i8* %srcFile, i32 %srcLine, i32 %toThrow, %"class.xercesc_2_7::MemoryManager"* %memoryManager) unnamed_addr #3 comdat align 2 personality i8* bitcast (i32 (...)* @__gxx_personality_v0 to i8*) !dbg !2963 {
entry:
  %this.addr = alloca %"class.xercesc_2_7::MalformedURLException"*, align 8
  %srcFile.addr = alloca i8*, align 8
  %srcLine.addr = alloca i32, align 4
  %toThrow.addr = alloca i32, align 4
  %memoryManager.addr = alloca %"class.xercesc_2_7::MemoryManager"*, align 8
  %exn.slot = alloca i8*
  %ehselector.slot = alloca i32
  store %"class.xercesc_2_7::MalformedURLException"* %this, %"class.xercesc_2_7::MalformedURLException"** %this.addr, align 8
  call void @llvm.dbg.declare(metadata %"class.xercesc_2_7::MalformedURLException"** %this.addr, metadata !2997, metadata !DIExpression()), !dbg !2999
  store i8* %srcFile, i8** %srcFile.addr, align 8
  call void @llvm.dbg.declare(metadata i8** %srcFile.addr, metadata !3000, metadata !DIExpression()), !dbg !3001
  store i32 %srcLine, i32* %srcLine.addr, align 4
  call void @llvm.dbg.declare(metadata i32* %srcLine.addr, metadata !3002, metadata !DIExpression()), !dbg !3001
  store i32 %toThrow, i32* %toThrow.addr, align 4
  call void @llvm.dbg.declare(metadata i32* %toThrow.addr, metadata !3003, metadata !DIExpression()), !dbg !3001
  store %"class.xercesc_2_7::MemoryManager"* %memoryManager, %"class.xercesc_2_7::MemoryManager"** %memoryManager.addr, align 8
  call void @llvm.dbg.declare(metadata %"class.xercesc_2_7::MemoryManager"** %memoryManager.addr, metadata !3004, metadata !DIExpression()), !dbg !3001
  %this1 = load %"class.xercesc_2_7::MalformedURLException"*, %"class.xercesc_2_7::MalformedURLException"** %this.addr, align 8
  %0 = bitcast %"class.xercesc_2_7::MalformedURLException"* %this1 to %"class.xercesc_2_7::XMLException"*, !dbg !3001
  %1 = load i8*, i8** %srcFile.addr, align 8, !dbg !3001
  %2 = load i32, i32* %srcLine.addr, align 4, !dbg !3001
  %3 = load %"class.xercesc_2_7::MemoryManager"*, %"class.xercesc_2_7::MemoryManager"** %memoryManager.addr, align 8, !dbg !3001
  call void @_ZN11xercesc_2_712XMLExceptionC2EPKcjPNS_13MemoryManagerE(%"class.xercesc_2_7::XMLException"* %0, i8* %1, i32 %2, %"class.xercesc_2_7::MemoryManager"* %3), !dbg !3001
  %4 = bitcast %"class.xercesc_2_7::MalformedURLException"* %this1 to i32 (...)***, !dbg !3001
  store i32 (...)** bitcast (i8** getelementptr inbounds ({ [6 x i8*] }, { [6 x i8*] }* @_ZTVN11xercesc_2_721MalformedURLExceptionE, i32 0, inrange i32 0, i32 2) to i32 (...)**), i32 (...)*** %4, align 8, !dbg !3001
  %5 = bitcast %"class.xercesc_2_7::MalformedURLException"* %this1 to %"class.xercesc_2_7::XMLException"*, !dbg !3005
  %6 = load i32, i32* %toThrow.addr, align 4, !dbg !3005
  invoke void @_ZN11xercesc_2_712XMLException14loadExceptTextENS_10XMLExcepts5CodesE(%"class.xercesc_2_7::XMLException"* %5, i32 %6)
          to label %invoke.cont unwind label %lpad, !dbg !3005

invoke.cont:                                      ; preds = %entry
  ret void, !dbg !3001

lpad:                                             ; preds = %entry
  %7 = landingpad { i8*, i32 }
          cleanup, !dbg !3005
  %8 = extractvalue { i8*, i32 } %7, 0, !dbg !3005
  store i8* %8, i8** %exn.slot, align 8, !dbg !3005
  %9 = extractvalue { i8*, i32 } %7, 1, !dbg !3005
  store i32 %9, i32* %ehselector.slot, align 4, !dbg !3005
  %10 = bitcast %"class.xercesc_2_7::MalformedURLException"* %this1 to %"class.xercesc_2_7::XMLException"*, !dbg !3005
  call void @_ZN11xercesc_2_712XMLExceptionD2Ev(%"class.xercesc_2_7::XMLException"* %10) #10, !dbg !3005
  br label %eh.resume, !dbg !3005

eh.resume:                                        ; preds = %lpad
  %exn = load i8*, i8** %exn.slot, align 8, !dbg !3005
  %sel = load i32, i32* %ehselector.slot, align 4, !dbg !3005
  %lpad.val = insertvalue { i8*, i32 } undef, i8* %exn, 0, !dbg !3005
  %lpad.val2 = insertvalue { i8*, i32 } %lpad.val, i32 %sel, 1, !dbg !3005
  resume { i8*, i32 } %lpad.val2, !dbg !3005
}

; Function Attrs: noinline nounwind uwtable
define linkonce_odr dso_local void @_ZN11xercesc_2_721MalformedURLExceptionD2Ev(%"class.xercesc_2_7::MalformedURLException"* %this) unnamed_addr #1 comdat align 2 !dbg !3007 {
entry:
  %this.addr = alloca %"class.xercesc_2_7::MalformedURLException"*, align 8
  store %"class.xercesc_2_7::MalformedURLException"* %this, %"class.xercesc_2_7::MalformedURLException"** %this.addr, align 8
  call void @llvm.dbg.declare(metadata %"class.xercesc_2_7::MalformedURLException"** %this.addr, metadata !3008, metadata !DIExpression()), !dbg !3009
  %this1 = load %"class.xercesc_2_7::MalformedURLException"*, %"class.xercesc_2_7::MalformedURLException"** %this.addr, align 8
  %0 = bitcast %"class.xercesc_2_7::MalformedURLException"* %this1 to %"class.xercesc_2_7::XMLException"*, !dbg !3010
  call void @_ZN11xercesc_2_712XMLExceptionD2Ev(%"class.xercesc_2_7::XMLException"* %0) #10, !dbg !3010
  ret void, !dbg !3012
}

declare dso_local zeroext i1 @_ZNK11xercesc_2_76XMLURL14hasInvalidCharEv(%"class.xercesc_2_7::XMLURL"*) #5

declare dso_local void @_ZN11xercesc_2_714URLInputSourceC1ERKNS_6XMLURLEPNS_13MemoryManagerE(%"class.xercesc_2_7::URLInputSource"*, %"class.xercesc_2_7::XMLURL"* dereferenceable(88), %"class.xercesc_2_7::MemoryManager"*) unnamed_addr #5

; Function Attrs: nounwind
declare dso_local void @_ZN11xercesc_2_76XMLURLD1Ev(%"class.xercesc_2_7::XMLURL"*) unnamed_addr #4

; Function Attrs: noinline nounwind uwtable
define linkonce_odr dso_local void @_ZN11xercesc_2_77JanitorINS_11InputSourceEEC2EPS1_(%"class.xercesc_2_7::Janitor.3"* %this, %"class.xercesc_2_7::InputSource"* %toDelete) unnamed_addr #1 comdat align 2 !dbg !3013 {
entry:
  %this.addr = alloca %"class.xercesc_2_7::Janitor.3"*, align 8
  %toDelete.addr = alloca %"class.xercesc_2_7::InputSource"*, align 8
  store %"class.xercesc_2_7::Janitor.3"* %this, %"class.xercesc_2_7::Janitor.3"** %this.addr, align 8
  call void @llvm.dbg.declare(metadata %"class.xercesc_2_7::Janitor.3"** %this.addr, metadata !3014, metadata !DIExpression()), !dbg !3016
  store %"class.xercesc_2_7::InputSource"* %toDelete, %"class.xercesc_2_7::InputSource"** %toDelete.addr, align 8
  call void @llvm.dbg.declare(metadata %"class.xercesc_2_7::InputSource"** %toDelete.addr, metadata !3017, metadata !DIExpression()), !dbg !3018
  %this1 = load %"class.xercesc_2_7::Janitor.3"*, %"class.xercesc_2_7::Janitor.3"** %this.addr, align 8
  %0 = bitcast %"class.xercesc_2_7::Janitor.3"* %this1 to %"class.xercesc_2_7::XMemory"*, !dbg !3019
  call void @_ZN11xercesc_2_77XMemoryC2Ev(%"class.xercesc_2_7::XMemory"* %0), !dbg !3020
  %fData = getelementptr inbounds %"class.xercesc_2_7::Janitor.3", %"class.xercesc_2_7::Janitor.3"* %this1, i32 0, i32 0, !dbg !3022
  %1 = load %"class.xercesc_2_7::InputSource"*, %"class.xercesc_2_7::InputSource"** %toDelete.addr, align 8, !dbg !3024
  store %"class.xercesc_2_7::InputSource"* %1, %"class.xercesc_2_7::InputSource"** %fData, align 8, !dbg !3022
  ret void, !dbg !3025
}

; Function Attrs: noinline uwtable
define linkonce_odr dso_local void @_ZN11xercesc_2_77JanitorINS_11InputSourceEE6orphanEv(%"class.xercesc_2_7::Janitor.3"* %this) #3 comdat align 2 !dbg !3026 {
entry:
  %this.addr = alloca %"class.xercesc_2_7::Janitor.3"*, align 8
  store %"class.xercesc_2_7::Janitor.3"* %this, %"class.xercesc_2_7::Janitor.3"** %this.addr, align 8
  call void @llvm.dbg.declare(metadata %"class.xercesc_2_7::Janitor.3"** %this.addr, metadata !3027, metadata !DIExpression()), !dbg !3028
  %this1 = load %"class.xercesc_2_7::Janitor.3"*, %"class.xercesc_2_7::Janitor.3"** %this.addr, align 8
  %call = call %"class.xercesc_2_7::InputSource"* @_ZN11xercesc_2_77JanitorINS_11InputSourceEE7releaseEv(%"class.xercesc_2_7::Janitor.3"* %this1), !dbg !3029
  ret void, !dbg !3030
}

; Function Attrs: noinline nounwind uwtable
define linkonce_odr dso_local void @_ZN11xercesc_2_77JanitorINS_11InputSourceEED2Ev(%"class.xercesc_2_7::Janitor.3"* %this) unnamed_addr #1 comdat align 2 personality i8* bitcast (i32 (...)* @__gxx_personality_v0 to i8*) !dbg !3031 {
entry:
  %this.addr = alloca %"class.xercesc_2_7::Janitor.3"*, align 8
  store %"class.xercesc_2_7::Janitor.3"* %this, %"class.xercesc_2_7::Janitor.3"** %this.addr, align 8
  call void @llvm.dbg.declare(metadata %"class.xercesc_2_7::Janitor.3"** %this.addr, metadata !3032, metadata !DIExpression()), !dbg !3033
  %this1 = load %"class.xercesc_2_7::Janitor.3"*, %"class.xercesc_2_7::Janitor.3"** %this.addr, align 8
  invoke void @_ZN11xercesc_2_77JanitorINS_11InputSourceEE5resetEPS1_(%"class.xercesc_2_7::Janitor.3"* %this1, %"class.xercesc_2_7::InputSource"* null)
          to label %invoke.cont unwind label %terminate.lpad, !dbg !3034

invoke.cont:                                      ; preds = %entry
  ret void, !dbg !3036

terminate.lpad:                                   ; preds = %entry
  %0 = landingpad { i8*, i32 }
          catch i8* null, !dbg !3034
  %1 = extractvalue { i8*, i32 } %0, 0, !dbg !3034
  call void @__clang_call_terminate(i8* %1) #13, !dbg !3034
  unreachable, !dbg !3034
}

; Function Attrs: noinline uwtable
define dso_local %"class.xercesc_2_7::XMLReader"* @_ZN11xercesc_2_79ReaderMgr12createReaderEPKtS2_S2_bNS_9XMLReader7RefFromENS3_5TypesENS3_7SourcesERPNS_11InputSourceEbb(%"class.xercesc_2_7::ReaderMgr"* %this, i16* %baseURI, i16* %sysId, i16* %pubId, i1 zeroext %xmlDecl, i32 %refFrom, i32 %type, i32 %source, %"class.xercesc_2_7::InputSource"** dereferenceable(8) %srcToFill, i1 zeroext %calcSrcOfs, i1 zeroext %disableDefaultEntityResolution) #3 align 2 personality i8* bitcast (i32 (...)* @__gxx_personality_v0 to i8*) !dbg !3037 {
entry:
  %retval = alloca %"class.xercesc_2_7::XMLReader"*, align 8
  %this.addr = alloca %"class.xercesc_2_7::ReaderMgr"*, align 8
  %baseURI.addr = alloca i16*, align 8
  %sysId.addr = alloca i16*, align 8
  %pubId.addr = alloca i16*, align 8
  %xmlDecl.addr = alloca i8, align 1
  %refFrom.addr = alloca i32, align 4
  %type.addr = alloca i32, align 4
  %source.addr = alloca i32, align 4
  %srcToFill.addr = alloca %"class.xercesc_2_7::InputSource"**, align 8
  %calcSrcOfs.addr = alloca i8, align 1
  %disableDefaultEntityResolution.addr = alloca i8, align 1
  %normalizedSysId = alloca %"class.xercesc_2_7::XMLBuffer", align 8
  %ref.tmp = alloca i16, align 2
  %exn.slot = alloca i8*
  %ehselector.slot = alloca i32
  %normalizedURI = alloca i16*, align 8
  %expSysId = alloca %"class.xercesc_2_7::XMLBuffer", align 8
  %resourceIdentifier = alloca %"class.xercesc_2_7::XMLResourceIdentifier", align 8
  %cleanup.dest.slot = alloca i32, align 4
  %lastInfo = alloca %"struct.xercesc_2_7::ReaderMgr::LastExtEntityInfo", align 8
  %baseuri = alloca i16*, align 8
  %urlTmp = alloca %"class.xercesc_2_7::XMLURL", align 8
  %resolvedSysId = alloca %"class.xercesc_2_7::XMLBuffer", align 8
  %janSrc = alloca %"class.xercesc_2_7::Janitor.3", align 8
  %retVal = alloca %"class.xercesc_2_7::XMLReader"*, align 8
  store %"class.xercesc_2_7::ReaderMgr"* %this, %"class.xercesc_2_7::ReaderMgr"** %this.addr, align 8
  call void @llvm.dbg.declare(metadata %"class.xercesc_2_7::ReaderMgr"** %this.addr, metadata !3038, metadata !DIExpression()), !dbg !3039
  store i16* %baseURI, i16** %baseURI.addr, align 8
  call void @llvm.dbg.declare(metadata i16** %baseURI.addr, metadata !3040, metadata !DIExpression()), !dbg !3041
  store i16* %sysId, i16** %sysId.addr, align 8
  call void @llvm.dbg.declare(metadata i16** %sysId.addr, metadata !3042, metadata !DIExpression()), !dbg !3043
  store i16* %pubId, i16** %pubId.addr, align 8
  call void @llvm.dbg.declare(metadata i16** %pubId.addr, metadata !3044, metadata !DIExpression()), !dbg !3045
  %frombool = zext i1 %xmlDecl to i8
  store i8 %frombool, i8* %xmlDecl.addr, align 1
  call void @llvm.dbg.declare(metadata i8* %xmlDecl.addr, metadata !3046, metadata !DIExpression()), !dbg !3047
  store i32 %refFrom, i32* %refFrom.addr, align 4
  call void @llvm.dbg.declare(metadata i32* %refFrom.addr, metadata !3048, metadata !DIExpression()), !dbg !3049
  store i32 %type, i32* %type.addr, align 4
  call void @llvm.dbg.declare(metadata i32* %type.addr, metadata !3050, metadata !DIExpression()), !dbg !3051
  store i32 %source, i32* %source.addr, align 4
  call void @llvm.dbg.declare(metadata i32* %source.addr, metadata !3052, metadata !DIExpression()), !dbg !3053
  store %"class.xercesc_2_7::InputSource"** %srcToFill, %"class.xercesc_2_7::InputSource"*** %srcToFill.addr, align 8
  call void @llvm.dbg.declare(metadata %"class.xercesc_2_7::InputSource"*** %srcToFill.addr, metadata !3054, metadata !DIExpression()), !dbg !3055
  %frombool1 = zext i1 %calcSrcOfs to i8
  store i8 %frombool1, i8* %calcSrcOfs.addr, align 1
  call void @llvm.dbg.declare(metadata i8* %calcSrcOfs.addr, metadata !3056, metadata !DIExpression()), !dbg !3057
  %frombool2 = zext i1 %disableDefaultEntityResolution to i8
  store i8 %frombool2, i8* %disableDefaultEntityResolution.addr, align 1
  call void @llvm.dbg.declare(metadata i8* %disableDefaultEntityResolution.addr, metadata !3058, metadata !DIExpression()), !dbg !3059
  %this3 = load %"class.xercesc_2_7::ReaderMgr"*, %"class.xercesc_2_7::ReaderMgr"** %this.addr, align 8
  call void @llvm.dbg.declare(metadata %"class.xercesc_2_7::XMLBuffer"* %normalizedSysId, metadata !3060, metadata !DIExpression()), !dbg !3061
  %fMemoryManager = getelementptr inbounds %"class.xercesc_2_7::ReaderMgr", %"class.xercesc_2_7::ReaderMgr"* %this3, i32 0, i32 10, !dbg !3062
  %0 = load %"class.xercesc_2_7::MemoryManager"*, %"class.xercesc_2_7::MemoryManager"** %fMemoryManager, align 8, !dbg !3062
  call void @_ZN11xercesc_2_79XMLBufferC2EjPNS_13MemoryManagerE(%"class.xercesc_2_7::XMLBuffer"* %normalizedSysId, i32 1023, %"class.xercesc_2_7::MemoryManager"* %0), !dbg !3061
  %1 = load i16*, i16** %sysId.addr, align 8, !dbg !3063
  store i16 -1, i16* %ref.tmp, align 2, !dbg !3064
  invoke void @_ZN11xercesc_2_79XMLString10removeCharEPKtRS1_RNS_9XMLBufferE(i16* %1, i16* dereferenceable(2) %ref.tmp, %"class.xercesc_2_7::XMLBuffer"* dereferenceable(40) %normalizedSysId)
          to label %invoke.cont unwind label %lpad, !dbg !3065

invoke.cont:                                      ; preds = %entry
  call void @llvm.dbg.declare(metadata i16** %normalizedURI, metadata !3066, metadata !DIExpression()), !dbg !3067
  %call = invoke i16* @_ZN11xercesc_2_79XMLBuffer12getRawBufferEv(%"class.xercesc_2_7::XMLBuffer"* %normalizedSysId)
          to label %invoke.cont4 unwind label %lpad, !dbg !3068

invoke.cont4:                                     ; preds = %invoke.cont
  store i16* %call, i16** %normalizedURI, align 8, !dbg !3067
  call void @llvm.dbg.declare(metadata %"class.xercesc_2_7::XMLBuffer"* %expSysId, metadata !3069, metadata !DIExpression()), !dbg !3070
  %fMemoryManager5 = getelementptr inbounds %"class.xercesc_2_7::ReaderMgr", %"class.xercesc_2_7::ReaderMgr"* %this3, i32 0, i32 10, !dbg !3071
  %2 = load %"class.xercesc_2_7::MemoryManager"*, %"class.xercesc_2_7::MemoryManager"** %fMemoryManager5, align 8, !dbg !3071
  invoke void @_ZN11xercesc_2_79XMLBufferC2EjPNS_13MemoryManagerE(%"class.xercesc_2_7::XMLBuffer"* %expSysId, i32 1023, %"class.xercesc_2_7::MemoryManager"* %2)
          to label %invoke.cont6 unwind label %lpad, !dbg !3070

invoke.cont6:                                     ; preds = %invoke.cont4
  %fEntityHandler = getelementptr inbounds %"class.xercesc_2_7::ReaderMgr", %"class.xercesc_2_7::ReaderMgr"* %this3, i32 0, i32 3, !dbg !3072
  %3 = load %"class.xercesc_2_7::XMLEntityHandler"*, %"class.xercesc_2_7::XMLEntityHandler"** %fEntityHandler, align 8, !dbg !3072
  %tobool = icmp ne %"class.xercesc_2_7::XMLEntityHandler"* %3, null, !dbg !3072
  br i1 %tobool, label %if.then, label %if.else, !dbg !3074

if.then:                                          ; preds = %invoke.cont6
  %fEntityHandler7 = getelementptr inbounds %"class.xercesc_2_7::ReaderMgr", %"class.xercesc_2_7::ReaderMgr"* %this3, i32 0, i32 3, !dbg !3075
  %4 = load %"class.xercesc_2_7::XMLEntityHandler"*, %"class.xercesc_2_7::XMLEntityHandler"** %fEntityHandler7, align 8, !dbg !3075
  %5 = load i16*, i16** %normalizedURI, align 8, !dbg !3078
  %6 = bitcast %"class.xercesc_2_7::XMLEntityHandler"* %4 to i1 (%"class.xercesc_2_7::XMLEntityHandler"*, i16*, %"class.xercesc_2_7::XMLBuffer"*)***, !dbg !3079
  %vtable = load i1 (%"class.xercesc_2_7::XMLEntityHandler"*, i16*, %"class.xercesc_2_7::XMLBuffer"*)**, i1 (%"class.xercesc_2_7::XMLEntityHandler"*, i16*, %"class.xercesc_2_7::XMLBuffer"*)*** %6, align 8, !dbg !3079
  %vfn = getelementptr inbounds i1 (%"class.xercesc_2_7::XMLEntityHandler"*, i16*, %"class.xercesc_2_7::XMLBuffer"*)*, i1 (%"class.xercesc_2_7::XMLEntityHandler"*, i16*, %"class.xercesc_2_7::XMLBuffer"*)** %vtable, i64 3, !dbg !3079
  %7 = load i1 (%"class.xercesc_2_7::XMLEntityHandler"*, i16*, %"class.xercesc_2_7::XMLBuffer"*)*, i1 (%"class.xercesc_2_7::XMLEntityHandler"*, i16*, %"class.xercesc_2_7::XMLBuffer"*)** %vfn, align 8, !dbg !3079
  %call10 = invoke zeroext i1 %7(%"class.xercesc_2_7::XMLEntityHandler"* %4, i16* %5, %"class.xercesc_2_7::XMLBuffer"* dereferenceable(40) %expSysId)
          to label %invoke.cont9 unwind label %lpad8, !dbg !3079

invoke.cont9:                                     ; preds = %if.then
  br i1 %call10, label %if.end, label %if.then11, !dbg !3080

if.then11:                                        ; preds = %invoke.cont9
  %8 = load i16*, i16** %normalizedURI, align 8, !dbg !3081
  invoke void @_ZN11xercesc_2_79XMLBuffer3setEPKt(%"class.xercesc_2_7::XMLBuffer"* %expSysId, i16* %8)
          to label %invoke.cont12 unwind label %lpad8, !dbg !3082

invoke.cont12:                                    ; preds = %if.then11
  br label %if.end, !dbg !3083

lpad:                                             ; preds = %invoke.cont4, %invoke.cont, %entry
  %9 = landingpad { i8*, i32 }
          cleanup, !dbg !3084
  %10 = extractvalue { i8*, i32 } %9, 0, !dbg !3084
  store i8* %10, i8** %exn.slot, align 8, !dbg !3084
  %11 = extractvalue { i8*, i32 } %9, 1, !dbg !3084
  store i32 %11, i32* %ehselector.slot, align 4, !dbg !3084
  br label %ehcleanup109, !dbg !3084

lpad8:                                            ; preds = %if.end93, %if.end38, %if.then36, %if.end32, %invoke.cont18, %if.then17, %if.else, %if.then11, %if.then
  %12 = landingpad { i8*, i32 }
          cleanup, !dbg !3085
  %13 = extractvalue { i8*, i32 } %12, 0, !dbg !3085
  store i8* %13, i8** %exn.slot, align 8, !dbg !3085
  %14 = extractvalue { i8*, i32 } %12, 1, !dbg !3085
  store i32 %14, i32* %ehselector.slot, align 4, !dbg !3085
  br label %ehcleanup107, !dbg !3085

if.end:                                           ; preds = %invoke.cont12, %invoke.cont9
  br label %if.end14, !dbg !3086

if.else:                                          ; preds = %invoke.cont6
  %15 = load i16*, i16** %normalizedURI, align 8, !dbg !3087
  invoke void @_ZN11xercesc_2_79XMLBuffer3setEPKt(%"class.xercesc_2_7::XMLBuffer"* %expSysId, i16* %15)
          to label %invoke.cont13 unwind label %lpad8, !dbg !3089

invoke.cont13:                                    ; preds = %if.else
  br label %if.end14

if.end14:                                         ; preds = %invoke.cont13, %if.end
  %16 = load %"class.xercesc_2_7::InputSource"**, %"class.xercesc_2_7::InputSource"*** %srcToFill.addr, align 8, !dbg !3090
  store %"class.xercesc_2_7::InputSource"* null, %"class.xercesc_2_7::InputSource"** %16, align 8, !dbg !3091
  %fEntityHandler15 = getelementptr inbounds %"class.xercesc_2_7::ReaderMgr", %"class.xercesc_2_7::ReaderMgr"* %this3, i32 0, i32 3, !dbg !3092
  %17 = load %"class.xercesc_2_7::XMLEntityHandler"*, %"class.xercesc_2_7::XMLEntityHandler"** %fEntityHandler15, align 8, !dbg !3092
  %tobool16 = icmp ne %"class.xercesc_2_7::XMLEntityHandler"* %17, null, !dbg !3092
  br i1 %tobool16, label %if.then17, label %if.end27, !dbg !3094

if.then17:                                        ; preds = %if.end14
  call void @llvm.dbg.declare(metadata %"class.xercesc_2_7::XMLResourceIdentifier"* %resourceIdentifier, metadata !3095, metadata !DIExpression()), !dbg !3097
  %call19 = invoke i16* @_ZN11xercesc_2_79XMLBuffer12getRawBufferEv(%"class.xercesc_2_7::XMLBuffer"* %expSysId)
          to label %invoke.cont18 unwind label %lpad8, !dbg !3098

invoke.cont18:                                    ; preds = %if.then17
  %18 = load i16*, i16** %pubId.addr, align 8, !dbg !3099
  %19 = load i16*, i16** %baseURI.addr, align 8, !dbg !3100
  %20 = bitcast %"class.xercesc_2_7::ReaderMgr"* %this3 to %"class.xercesc_2_7::Locator"*, !dbg !3101
  invoke void @_ZN11xercesc_2_721XMLResourceIdentifierC2ENS0_22ResourceIdentifierTypeEPKtS3_S3_S3_PKNS_7LocatorE(%"class.xercesc_2_7::XMLResourceIdentifier"* %resourceIdentifier, i32 4, i16* %call19, i16* getelementptr inbounds ([0 x i16], [0 x i16]* @_ZN11xercesc_2_76XMLUni15fgZeroLenStringE, i64 0, i64 0), i16* %18, i16* %19, %"class.xercesc_2_7::Locator"* %20)
          to label %invoke.cont20 unwind label %lpad8, !dbg !3097

invoke.cont20:                                    ; preds = %invoke.cont18
  %fEntityHandler21 = getelementptr inbounds %"class.xercesc_2_7::ReaderMgr", %"class.xercesc_2_7::ReaderMgr"* %this3, i32 0, i32 3, !dbg !3102
  %21 = load %"class.xercesc_2_7::XMLEntityHandler"*, %"class.xercesc_2_7::XMLEntityHandler"** %fEntityHandler21, align 8, !dbg !3102
  %22 = bitcast %"class.xercesc_2_7::XMLEntityHandler"* %21 to %"class.xercesc_2_7::InputSource"* (%"class.xercesc_2_7::XMLEntityHandler"*, %"class.xercesc_2_7::XMLResourceIdentifier"*)***, !dbg !3103
  %vtable22 = load %"class.xercesc_2_7::InputSource"* (%"class.xercesc_2_7::XMLEntityHandler"*, %"class.xercesc_2_7::XMLResourceIdentifier"*)**, %"class.xercesc_2_7::InputSource"* (%"class.xercesc_2_7::XMLEntityHandler"*, %"class.xercesc_2_7::XMLResourceIdentifier"*)*** %22, align 8, !dbg !3103
  %vfn23 = getelementptr inbounds %"class.xercesc_2_7::InputSource"* (%"class.xercesc_2_7::XMLEntityHandler"*, %"class.xercesc_2_7::XMLResourceIdentifier"*)*, %"class.xercesc_2_7::InputSource"* (%"class.xercesc_2_7::XMLEntityHandler"*, %"class.xercesc_2_7::XMLResourceIdentifier"*)** %vtable22, i64 6, !dbg !3103
  %23 = load %"class.xercesc_2_7::InputSource"* (%"class.xercesc_2_7::XMLEntityHandler"*, %"class.xercesc_2_7::XMLResourceIdentifier"*)*, %"class.xercesc_2_7::InputSource"* (%"class.xercesc_2_7::XMLEntityHandler"*, %"class.xercesc_2_7::XMLResourceIdentifier"*)** %vfn23, align 8, !dbg !3103
  %call26 = invoke %"class.xercesc_2_7::InputSource"* %23(%"class.xercesc_2_7::XMLEntityHandler"* %21, %"class.xercesc_2_7::XMLResourceIdentifier"* %resourceIdentifier)
          to label %invoke.cont25 unwind label %lpad24, !dbg !3103

invoke.cont25:                                    ; preds = %invoke.cont20
  %24 = load %"class.xercesc_2_7::InputSource"**, %"class.xercesc_2_7::InputSource"*** %srcToFill.addr, align 8, !dbg !3104
  store %"class.xercesc_2_7::InputSource"* %call26, %"class.xercesc_2_7::InputSource"** %24, align 8, !dbg !3105
  call void @_ZN11xercesc_2_721XMLResourceIdentifierD2Ev(%"class.xercesc_2_7::XMLResourceIdentifier"* %resourceIdentifier) #10, !dbg !3106
  br label %if.end27, !dbg !3107

lpad24:                                           ; preds = %invoke.cont20
  %25 = landingpad { i8*, i32 }
          cleanup, !dbg !3108
  %26 = extractvalue { i8*, i32 } %25, 0, !dbg !3108
  store i8* %26, i8** %exn.slot, align 8, !dbg !3108
  %27 = extractvalue { i8*, i32 } %25, 1, !dbg !3108
  store i32 %27, i32* %ehselector.slot, align 4, !dbg !3108
  call void @_ZN11xercesc_2_721XMLResourceIdentifierD2Ev(%"class.xercesc_2_7::XMLResourceIdentifier"* %resourceIdentifier) #10, !dbg !3106
  br label %ehcleanup107, !dbg !3106

if.end27:                                         ; preds = %invoke.cont25, %if.end14
  %28 = load %"class.xercesc_2_7::InputSource"**, %"class.xercesc_2_7::InputSource"*** %srcToFill.addr, align 8, !dbg !3109
  %29 = load %"class.xercesc_2_7::InputSource"*, %"class.xercesc_2_7::InputSource"** %28, align 8, !dbg !3109
  %tobool28 = icmp ne %"class.xercesc_2_7::InputSource"* %29, null, !dbg !3109
  br i1 %tobool28, label %if.end93, label %if.then29, !dbg !3111

if.then29:                                        ; preds = %if.end27
  %30 = load i8, i8* %disableDefaultEntityResolution.addr, align 1, !dbg !3112
  %tobool30 = trunc i8 %30 to i1, !dbg !3112
  br i1 %tobool30, label %if.then31, label %if.end32, !dbg !3115

if.then31:                                        ; preds = %if.then29
  store %"class.xercesc_2_7::XMLReader"* null, %"class.xercesc_2_7::XMLReader"** %retval, align 8, !dbg !3116
  store i32 1, i32* %cleanup.dest.slot, align 4
  br label %cleanup106, !dbg !3116

if.end32:                                         ; preds = %if.then29
  call void @llvm.dbg.declare(metadata %"struct.xercesc_2_7::ReaderMgr::LastExtEntityInfo"* %lastInfo, metadata !3117, metadata !DIExpression()), !dbg !3118
  invoke void @_ZN11xercesc_2_79ReaderMgr17LastExtEntityInfoC2Ev(%"struct.xercesc_2_7::ReaderMgr::LastExtEntityInfo"* %lastInfo)
          to label %invoke.cont33 unwind label %lpad8, !dbg !3118

invoke.cont33:                                    ; preds = %if.end32
  call void @llvm.dbg.declare(metadata i16** %baseuri, metadata !3119, metadata !DIExpression()), !dbg !3120
  %31 = load i16*, i16** %baseURI.addr, align 8, !dbg !3121
  store i16* %31, i16** %baseuri, align 8, !dbg !3120
  %32 = load i16*, i16** %baseuri, align 8, !dbg !3122
  %tobool34 = icmp ne i16* %32, null, !dbg !3122
  br i1 %tobool34, label %lor.lhs.false, label %if.then36, !dbg !3124

lor.lhs.false:                                    ; preds = %invoke.cont33
  %33 = load i16*, i16** %baseuri, align 8, !dbg !3125
  %34 = load i16, i16* %33, align 2, !dbg !3126
  %tobool35 = icmp ne i16 %34, 0, !dbg !3126
  br i1 %tobool35, label %if.end38, label %if.then36, !dbg !3127

if.then36:                                        ; preds = %lor.lhs.false, %invoke.cont33
  invoke void @_ZNK11xercesc_2_79ReaderMgr20getLastExtEntityInfoERNS0_17LastExtEntityInfoE(%"class.xercesc_2_7::ReaderMgr"* %this3, %"struct.xercesc_2_7::ReaderMgr::LastExtEntityInfo"* dereferenceable(32) %lastInfo)
          to label %invoke.cont37 unwind label %lpad8, !dbg !3128

invoke.cont37:                                    ; preds = %if.then36
  %systemId = getelementptr inbounds %"struct.xercesc_2_7::ReaderMgr::LastExtEntityInfo", %"struct.xercesc_2_7::ReaderMgr::LastExtEntityInfo"* %lastInfo, i32 0, i32 0, !dbg !3130
  %35 = load i16*, i16** %systemId, align 8, !dbg !3130
  store i16* %35, i16** %baseuri, align 8, !dbg !3131
  br label %if.end38, !dbg !3132

if.end38:                                         ; preds = %invoke.cont37, %lor.lhs.false
  call void @llvm.dbg.declare(metadata %"class.xercesc_2_7::XMLURL"* %urlTmp, metadata !3133, metadata !DIExpression()), !dbg !3134
  %fMemoryManager39 = getelementptr inbounds %"class.xercesc_2_7::ReaderMgr", %"class.xercesc_2_7::ReaderMgr"* %this3, i32 0, i32 10, !dbg !3135
  %36 = load %"class.xercesc_2_7::MemoryManager"*, %"class.xercesc_2_7::MemoryManager"** %fMemoryManager39, align 8, !dbg !3135
  invoke void @_ZN11xercesc_2_76XMLURLC1EPNS_13MemoryManagerE(%"class.xercesc_2_7::XMLURL"* %urlTmp, %"class.xercesc_2_7::MemoryManager"* %36)
          to label %invoke.cont40 unwind label %lpad8, !dbg !3134

invoke.cont40:                                    ; preds = %if.end38
  %37 = load i16*, i16** %baseuri, align 8, !dbg !3136
  %call43 = invoke i16* @_ZN11xercesc_2_79XMLBuffer12getRawBufferEv(%"class.xercesc_2_7::XMLBuffer"* %expSysId)
          to label %invoke.cont42 unwind label %lpad41, !dbg !3138

invoke.cont42:                                    ; preds = %invoke.cont40
  %call45 = invoke zeroext i1 @_ZN11xercesc_2_76XMLURL6setURLEPKtS2_RS0_(%"class.xercesc_2_7::XMLURL"* %urlTmp, i16* %37, i16* %call43, %"class.xercesc_2_7::XMLURL"* dereferenceable(88) %urlTmp)
          to label %invoke.cont44 unwind label %lpad41, !dbg !3139

invoke.cont44:                                    ; preds = %invoke.cont42
  br i1 %call45, label %lor.lhs.false46, label %if.then49, !dbg !3140

lor.lhs.false46:                                  ; preds = %invoke.cont44
  %call48 = invoke zeroext i1 @_ZNK11xercesc_2_76XMLURL10isRelativeEv(%"class.xercesc_2_7::XMLURL"* %urlTmp)
          to label %invoke.cont47 unwind label %lpad41, !dbg !3141

invoke.cont47:                                    ; preds = %lor.lhs.false46
  br i1 %call48, label %if.then49, label %if.else72, !dbg !3142

