; ModuleID = 'XalanEXSLTString.cpp'
source_filename = "XalanEXSLTString.cpp"
target datalayout = "e-m:e-p270:32:32-p271:32:32-p272:64:64-i64:64-f80:128-n8:16:32:64-S128"
target triple = "x86_64-unknown-linux-gnu"

%"class.xalanc_1_10::XalanDOMString" = type <{ %"class.xalanc_1_10::XalanVector.0", i32, [4 x i8] }>
%"class.xalanc_1_10::XalanVector.0" = type { %"class.xercesc_2_7::MemoryManager"*, i64, i64, i16* }
%"class.xercesc_2_7::MemoryManager" = type { i32 (...)** }
%"class.xalanc_1_10::XalanEXSLTFunctionAlign" = type { %"class.xalanc_1_10::Function" }
%"class.xalanc_1_10::Function" = type { i32 (...)** }
%"class.xalanc_1_10::XalanEXSLTFunctionConcat" = type { %"class.xalanc_1_10::Function" }
%"class.xalanc_1_10::XalanEXSLTFunctionPadding" = type { %"class.xalanc_1_10::Function", %"class.xalanc_1_10::XalanDOMString" }
%"class.xalanc_1_10::XalanEXSLTFunctionEncodeURI" = type { %"class.xalanc_1_10::Function" }
%"class.xalanc_1_10::XalanEXSLTFunctionDecodeURI" = type { %"class.xalanc_1_10::Function" }
%"struct.xalanc_1_10::XalanExtensionsInstaller::FunctionTableEntry" = type { i16*, %"class.xalanc_1_10::Function"* }
%"class.xalanc_1_10::XObjectPtr" = type { %"class.xalanc_1_10::XObject"* }
%"class.xalanc_1_10::XObject" = type { %"class.xalanc_1_10::XalanReferenceCountedObject.base", i32, %"class.xalanc_1_10::XObjectFactory"* }
%"class.xalanc_1_10::XalanReferenceCountedObject.base" = type <{ i32 (...)**, i32 }>
%"class.xalanc_1_10::XObjectFactory" = type { i32 (...)**, %"class.xercesc_2_7::MemoryManager"* }
%"class.xalanc_1_10::XPathExecutionContext" = type { %"class.xalanc_1_10::ExecutionContext", %"class.xalanc_1_10::XObjectFactory"* }
%"class.xalanc_1_10::ExecutionContext" = type { i32 (...)**, %"class.xercesc_2_7::MemoryManager"* }
%"class.xalanc_1_10::XalanNode" = type { i32 (...)** }
%"class.xalanc_1_10::XalanVector" = type { %"class.xercesc_2_7::MemoryManager"*, i64, i64, %"class.xalanc_1_10::XObjectPtr"* }
%"class.xercesc_2_7::Locator" = type { i32 (...)** }
%"class.xalanc_1_10::XPathExecutionContext::GetAndReleaseCachedString" = type { %"class.xalanc_1_10::XPathExecutionContext"*, %"class.xalanc_1_10::XalanDOMString"* }
%"class.xalanc_1_10::XalanReferenceCountedObject" = type <{ i32 (...)**, i32, [4 x i8] }>
%"class.xalanc_1_10::NodeRefListBase" = type { i32 (...)** }
%"struct.__gnu_cxx::__ops::_Iter_equals_val" = type { i16* }
%"class.xalanc_1_10::XPathEnvSupportDefault" = type { %"class.xalanc_1_10::XPathEnvSupport", %"class.xalanc_1_10::XalanMap", %"class.xalanc_1_10::XalanMap.3" }
%"class.xalanc_1_10::XPathEnvSupport" = type { i32 (...)** }
%"class.xalanc_1_10::XalanMap" = type { %"struct.xalanc_1_10::DOMStringHashFunction", %"struct.std::equal_to", %"class.xercesc_2_7::MemoryManager"*, float, i64, i64, %"class.xalanc_1_10::XalanList", %"class.xalanc_1_10::XalanList", %"class.xalanc_1_10::XalanVector.1", i64, i64 }
%"struct.xalanc_1_10::DOMStringHashFunction" = type { i8 }
%"struct.std::equal_to" = type { i8 }
%"class.xalanc_1_10::XalanList" = type { %"class.xercesc_2_7::MemoryManager"*, %"struct.xalanc_1_10::XalanList<xalanc_1_10::XalanMap<xalanc_1_10::XalanDOMString, xalanc_1_10::XalanDocument *, xalanc_1_10::XalanMapKeyTraits<xalanc_1_10::XalanDOMString> >::Entry>::Node"*, %"struct.xalanc_1_10::XalanList<xalanc_1_10::XalanMap<xalanc_1_10::XalanDOMString, xalanc_1_10::XalanDocument *, xalanc_1_10::XalanMapKeyTraits<xalanc_1_10::XalanDOMString> >::Entry>::Node"* }
%"struct.xalanc_1_10::XalanList<xalanc_1_10::XalanMap<xalanc_1_10::XalanDOMString, xalanc_1_10::XalanDocument *, xalanc_1_10::XalanMapKeyTraits<xalanc_1_10::XalanDOMString> >::Entry>::Node" = type opaque
%"class.xalanc_1_10::XalanVector.1" = type { %"class.xercesc_2_7::MemoryManager"*, i64, i64, %"class.xalanc_1_10::XalanVector.2"* }
%"class.xalanc_1_10::XalanVector.2" = type { %"class.xercesc_2_7::MemoryManager"*, i64, i64, %"struct.xalanc_1_10::XalanListIteratorBase"* }
%"struct.xalanc_1_10::XalanListIteratorBase" = type opaque
%"class.xalanc_1_10::XalanMap.3" = type { %"struct.xalanc_1_10::DOMStringHashFunction", %"struct.std::equal_to", %"class.xercesc_2_7::MemoryManager"*, float, i64, i64, %"class.xalanc_1_10::XalanList.4", %"class.xalanc_1_10::XalanList.4", %"class.xalanc_1_10::XalanVector.5", i64, i64 }
%"class.xalanc_1_10::XalanList.4" = type { %"class.xercesc_2_7::MemoryManager"*, %"struct.xalanc_1_10::XalanList<xalanc_1_10::XalanMap<xalanc_1_10::XalanDOMString, xalanc_1_10::XalanMap<xalanc_1_10::XalanDOMString, const xalanc_1_10::Function *, xalanc_1_10::XalanMapKeyTraits<xalanc_1_10::XalanDOMString> >, xalanc_1_10::XalanMapKeyTraits<xalanc_1_10::XalanDOMString> >::Entry>::Node"*, %"struct.xalanc_1_10::XalanList<xalanc_1_10::XalanMap<xalanc_1_10::XalanDOMString, xalanc_1_10::XalanMap<xalanc_1_10::XalanDOMString, const xalanc_1_10::Function *, xalanc_1_10::XalanMapKeyTraits<xalanc_1_10::XalanDOMString> >, xalanc_1_10::XalanMapKeyTraits<xalanc_1_10::XalanDOMString> >::Entry>::Node"* }
%"struct.xalanc_1_10::XalanList<xalanc_1_10::XalanMap<xalanc_1_10::XalanDOMString, xalanc_1_10::XalanMap<xalanc_1_10::XalanDOMString, const xalanc_1_10::Function *, xalanc_1_10::XalanMapKeyTraits<xalanc_1_10::XalanDOMString> >, xalanc_1_10::XalanMapKeyTraits<xalanc_1_10::XalanDOMString> >::Entry>::Node" = type opaque
%"class.xalanc_1_10::XalanVector.5" = type { %"class.xercesc_2_7::MemoryManager"*, i64, i64, %"class.xalanc_1_10::XalanVector.6"* }
%"class.xalanc_1_10::XalanVector.6" = type { %"class.xercesc_2_7::MemoryManager"*, i64, i64, %"struct.xalanc_1_10::XalanListIteratorBase.7"* }
%"struct.xalanc_1_10::XalanListIteratorBase.7" = type opaque
%"struct.std::random_access_iterator_tag" = type { i8 }
%"class.xalanc_1_10::XalanAllocationGuard" = type { %"class.xercesc_2_7::MemoryManager"*, i8* }

$_ZNK11xalanc_1_1011XalanVectorINS_10XObjectPtrENS_31MemoryManagedConstructionTraitsIS1_EEE4sizeEv = comdat any

$_ZN11xalanc_1_1021XPathExecutionContext25GetAndReleaseCachedStringC2ERS0_ = comdat any

$_ZNK11xalanc_1_1021XPathExecutionContext25GetAndReleaseCachedString3getEv = comdat any

$_ZN11xalanc_1_1021XPathExecutionContext25GetAndReleaseCachedStringD2Ev = comdat any

$_ZNK11xalanc_1_1011XalanVectorINS_10XObjectPtrENS_31MemoryManagedConstructionTraitsIS1_EEEixEm = comdat any

$_ZNK11xalanc_1_1010XObjectPtrptEv = comdat any

$_ZNK11xalanc_1_1014XalanDOMString6lengthEv = comdat any

$_ZN11xalanc_1_1010XObjectPtrC2ERKS0_ = comdat any

$_ZN11xalanc_1_1014XalanDOMString7reserveEj = comdat any

$_ZNK11xalanc_1_1014XalanDOMString5c_strEv = comdat any

$_ZN11xalanc_1_1014XalanDOMStringaSERKS0_ = comdat any

$_ZN11xalanc_1_1014XalanDOMString6appendERKS0_jj = comdat any

$_ZN11xalanc_1_1014XalanDOMString6appendERKS0_ = comdat any

$_ZNK11xalanc_1_1021XPathExecutionContext17getXObjectFactoryEv = comdat any

$_ZN11xalanc_1_1014XalanDOMStringD2Ev = comdat any

$_ZN11xalanc_1_1014XalanDOMString6assignEjt = comdat any

$_ZNK11xalanc_1_1014XalanDOMStringixEj = comdat any

$_ZSt4findIPKttET_S2_S2_RKT0_ = comdat any

$_ZN11xalanc_1_1014XalanDOMStringpLERKS0_ = comdat any

$_ZN11xalanc_1_1014XalanDOMStringpLEt = comdat any

$_ZN11xalanc_1_1014XalanDOMStringaSEt = comdat any

$_ZN11xalanc_1_1023XalanEXSLTFunctionAlignC2Ev = comdat any

$_ZN11xalanc_1_1023XalanEXSLTFunctionAlignD2Ev = comdat any

$_ZN11xalanc_1_1024XalanEXSLTFunctionConcatC2Ev = comdat any

$_ZN11xalanc_1_1024XalanEXSLTFunctionConcatD2Ev = comdat any

$_ZN11xalanc_1_1025XalanEXSLTFunctionPaddingC2ERN11xercesc_2_713MemoryManagerEi = comdat any

$_ZN11xalanc_1_1025XalanEXSLTFunctionPaddingD2Ev = comdat any

$_ZN11xalanc_1_1027XalanEXSLTFunctionEncodeURIC2Ev = comdat any

$_ZN11xalanc_1_1027XalanEXSLTFunctionEncodeURID2Ev = comdat any

$_ZN11xalanc_1_1027XalanEXSLTFunctionDecodeURIC2Ev = comdat any

$_ZN11xalanc_1_1027XalanEXSLTFunctionDecodeURID2Ev = comdat any

$_ZN11xalanc_1_1023XalanEXSLTFunctionAlignD0Ev = comdat any

$_ZNK11xalanc_1_1023XalanEXSLTFunctionAlign5cloneERN11xercesc_2_713MemoryManagerE = comdat any

$_ZNK11xalanc_1_1023XalanEXSLTFunctionAlign8getErrorERNS_14XalanDOMStringE = comdat any

$_ZN11xalanc_1_1024XalanEXSLTFunctionConcatD0Ev = comdat any

$_ZNK11xalanc_1_1024XalanEXSLTFunctionConcat5cloneERN11xercesc_2_713MemoryManagerE = comdat any

$_ZNK11xalanc_1_1024XalanEXSLTFunctionConcat8getErrorERNS_14XalanDOMStringE = comdat any

$_ZN11xalanc_1_1025XalanEXSLTFunctionPaddingD0Ev = comdat any

$_ZNK11xalanc_1_1025XalanEXSLTFunctionPadding5cloneERN11xercesc_2_713MemoryManagerE = comdat any

$_ZNK11xalanc_1_1025XalanEXSLTFunctionPadding8getErrorERNS_14XalanDOMStringE = comdat any

$_ZN11xalanc_1_1027XalanEXSLTFunctionEncodeURID0Ev = comdat any

$_ZNK11xalanc_1_1027XalanEXSLTFunctionEncodeURI5cloneERN11xercesc_2_713MemoryManagerE = comdat any

$_ZNK11xalanc_1_1027XalanEXSLTFunctionEncodeURI8getErrorERNS_14XalanDOMStringE = comdat any

$_ZN11xalanc_1_1027XalanEXSLTFunctionDecodeURID0Ev = comdat any

$_ZNK11xalanc_1_1027XalanEXSLTFunctionDecodeURI5cloneERN11xercesc_2_713MemoryManagerE = comdat any

$_ZNK11xalanc_1_1027XalanEXSLTFunctionDecodeURI8getErrorERNS_14XalanDOMStringE = comdat any

$__clang_call_terminate = comdat any

$_ZNK11xalanc_1_1014XalanDOMString10invariantsEv = comdat any

$_ZNK11xalanc_1_1014XalanDOMString4sizeEv = comdat any

$_ZN11xalanc_1_1011XalanVectorItNS_31MemoryManagedConstructionTraitsItEEE7reserveEm = comdat any

$_ZNK11xalanc_1_1011XalanVectorItNS_31MemoryManagedConstructionTraitsItEEE10invariantsEv = comdat any

$_ZN11xalanc_1_1011XalanVectorItNS_31MemoryManagedConstructionTraitsItEEE9doReserveEm = comdat any

$_ZN11xalanc_1_1011XalanVectorItNS_31MemoryManagedConstructionTraitsItEEEC2ERKS3_RN11xercesc_2_713MemoryManagerEm = comdat any

$_ZN11xalanc_1_1011XalanVectorItNS_31MemoryManagedConstructionTraitsItEEE4swapERS3_ = comdat any

$_ZN11xalanc_1_1011XalanVectorItNS_31MemoryManagedConstructionTraitsItEEED2Ev = comdat any

$_ZN11xalanc_1_1011XalanVectorItNS_31MemoryManagedConstructionTraitsItEEE9local_maxEmm = comdat any

$_ZN11xalanc_1_1011XalanVectorItNS_31MemoryManagedConstructionTraitsItEEEC2ERN11xercesc_2_713MemoryManagerEm = comdat any

$_ZN11xalanc_1_1011XalanVectorItNS_31MemoryManagedConstructionTraitsItEEE6insertEPtPKtS6_ = comdat any

$_ZN11xalanc_1_1011XalanVectorItNS_31MemoryManagedConstructionTraitsItEEE5beginEv = comdat any

$_ZNK11xalanc_1_1011XalanVectorItNS_31MemoryManagedConstructionTraitsItEEE5beginEv = comdat any

$_ZNK11xalanc_1_1011XalanVectorItNS_31MemoryManagedConstructionTraitsItEEE3endEv = comdat any

$_ZN11xalanc_1_1011XalanVectorItNS_31MemoryManagedConstructionTraitsItEEE8allocateEm = comdat any

$_ZN11xalanc_1_1011XalanVectorItNS_31MemoryManagedConstructionTraitsItEEE14local_distanceEPKtS5_ = comdat any

$_ZNK11xalanc_1_1011XalanVectorItNS_31MemoryManagedConstructionTraitsItEEE4sizeEv = comdat any

$_ZN11xalanc_1_1011XalanVectorItNS_31MemoryManagedConstructionTraitsItEEE3endEv = comdat any

$_ZN11xalanc_1_1011XalanVectorItNS_31MemoryManagedConstructionTraitsItEEE14ensureCapacityEm = comdat any

$_ZN11xalanc_1_1028ConstructWithNoMemoryManagerItE9constructEPtRKtRN11xercesc_2_713MemoryManagerE = comdat any

$_ZNK11xalanc_1_1011XalanVectorItNS_31MemoryManagedConstructionTraitsItEEE8capacityEv = comdat any

$_ZN11xalanc_1_1011XalanVectorItNS_31MemoryManagedConstructionTraitsItEEE10doPushBackERKt = comdat any

$_ZSt4copyIPKtPtET0_T_S4_S3_ = comdat any

$_ZSt13copy_backwardIPtS0_ET0_T_S2_S1_ = comdat any

$_ZSt8distanceIPKtENSt15iterator_traitsIT_E15difference_typeES3_S3_ = comdat any

$_ZSt10__distanceIPKtENSt15iterator_traitsIT_E15difference_typeES3_S3_St26random_access_iterator_tag = comdat any

$_ZSt19__iterator_categoryIPKtENSt15iterator_traitsIT_E17iterator_categoryERKS3_ = comdat any

$_ZN11xalanc_1_1011XalanVectorItNS_31MemoryManagedConstructionTraitsItEEE10endPointerEv = comdat any

$_ZSt13__copy_move_aILb0EPKtPtET1_T0_S4_S3_ = comdat any

$_ZSt12__miter_baseIPKtET_S2_ = comdat any

$_ZSt12__niter_wrapIPtET_RKS1_S1_ = comdat any

$_ZSt14__copy_move_a1ILb0EPKtPtET1_T0_S4_S3_ = comdat any

$_ZSt12__niter_baseIPKtET_S2_ = comdat any

$_ZSt12__niter_baseIPtET_S1_ = comdat any

$_ZSt14__copy_move_a2ILb0EPKtPtET1_T0_S4_S3_ = comdat any

$_ZNSt11__copy_moveILb0ELb1ESt26random_access_iterator_tagE8__copy_mItEEPT_PKS3_S6_S4_ = comdat any

$_ZSt22__copy_move_backward_aILb0EPtS0_ET1_T0_S2_S1_ = comdat any

$_ZSt12__miter_baseIPtET_S1_ = comdat any

$_ZSt23__copy_move_backward_a1ILb0EPtS0_ET1_T0_S2_S1_ = comdat any

$_ZSt23__copy_move_backward_a2ILb0EPtS0_ET1_T0_S2_S1_ = comdat any

$_ZNSt20__copy_move_backwardILb0ELb1ESt26random_access_iterator_tagE13__copy_move_bItEEPT_PKS3_S6_S4_ = comdat any

$_ZNK11xalanc_1_1011XalanVectorItNS_31MemoryManagedConstructionTraitsItEEE10endPointerEv = comdat any

$_ZN11xalanc_1_1011XalanVectorItNS_31MemoryManagedConstructionTraitsItEEE7destroyEPtS4_ = comdat any

$_ZN11xalanc_1_1011XalanVectorItNS_31MemoryManagedConstructionTraitsItEEE10deallocateEPt = comdat any

$_ZN11xalanc_1_1011XalanVectorItNS_31MemoryManagedConstructionTraitsItEEE7destroyERt = comdat any

$_ZNK11xalanc_1_1011XalanVectorItNS_31MemoryManagedConstructionTraitsItEEE5emptyEv = comdat any

$_ZNK11xalanc_1_1011XalanVectorItNS_31MemoryManagedConstructionTraitsItEEEixEm = comdat any

$_ZN11xalanc_1_1014XalanDOMString6assignERKS0_ = comdat any

$_ZN11xalanc_1_1011XalanVectorItNS_31MemoryManagedConstructionTraitsItEEEaSERKS3_ = comdat any

$_ZN11xalanc_1_1011XalanVectorItNS_31MemoryManagedConstructionTraitsItEEE12shrinkToSizeEm = comdat any

$_ZN11xalanc_1_1011XalanVectorItNS_31MemoryManagedConstructionTraitsItEEE8pop_backEv = comdat any

$_ZN11xalanc_1_1018XalanCopyConstructINS_23XalanEXSLTFunctionAlignEEEPT_RN11xercesc_2_713MemoryManagerERKS2_ = comdat any

$_ZN11xalanc_1_1020XalanAllocationGuardC2ERN11xercesc_2_713MemoryManagerEm = comdat any

$_ZNK11xalanc_1_1020XalanAllocationGuard3getEv = comdat any

$_ZN11xalanc_1_1023XalanEXSLTFunctionAlignC2ERKS0_ = comdat any

$_ZN11xalanc_1_1020XalanAllocationGuard7releaseEv = comdat any

$_ZN11xalanc_1_1020XalanAllocationGuardD2Ev = comdat any

$_ZN11xalanc_1_108FunctionC2ERKS0_ = comdat any

$_ZN11xalanc_1_1018XalanCopyConstructINS_24XalanEXSLTFunctionConcatEEEPT_RN11xercesc_2_713MemoryManagerERKS2_ = comdat any

$_ZN11xalanc_1_1024XalanEXSLTFunctionConcatC2ERKS0_ = comdat any

$_ZN11xalanc_1_1018XalanCopyConstructINS_25XalanEXSLTFunctionPaddingEN11xercesc_2_713MemoryManagerEEEPT_RS3_RKS4_RT0_ = comdat any

$_ZN11xalanc_1_1025XalanEXSLTFunctionPaddingC2ERKS0_RN11xercesc_2_713MemoryManagerE = comdat any

$_ZN11xalanc_1_1018XalanCopyConstructINS_27XalanEXSLTFunctionEncodeURIEEEPT_RN11xercesc_2_713MemoryManagerERKS2_ = comdat any

$_ZN11xalanc_1_1027XalanEXSLTFunctionEncodeURIC2ERKS0_ = comdat any

$_ZN11xalanc_1_1018XalanCopyConstructINS_27XalanEXSLTFunctionDecodeURIEEEPT_RN11xercesc_2_713MemoryManagerERKS2_ = comdat any

$_ZN11xalanc_1_1027XalanEXSLTFunctionDecodeURIC2ERKS0_ = comdat any

$_ZNK11xalanc_1_1011XalanVectorINS_10XObjectPtrENS_31MemoryManagedConstructionTraitsIS1_EEE10invariantsEv = comdat any

$_ZSt9__find_ifIPKtN9__gnu_cxx5__ops16_Iter_equals_valIS0_EEET_S6_S6_T0_ = comdat any

$_ZN9__gnu_cxx5__ops17__iter_equals_valIKtEENS0_16_Iter_equals_valIT_EERS4_ = comdat any

$_ZSt9__find_ifIPKtN9__gnu_cxx5__ops16_Iter_equals_valIS0_EEET_S6_S6_T0_St26random_access_iterator_tag = comdat any

$_ZN9__gnu_cxx5__ops16_Iter_equals_valIKtEclIPS2_EEbT_ = comdat any

$_ZN9__gnu_cxx5__ops16_Iter_equals_valIKtEC2ERS2_ = comdat any

@_ZN11xalanc_1_1023XalanEXSLTFunctionAlign14s_centerStringE = dso_local constant [7 x i16] [i16 99, i16 101, i16 110, i16 116, i16 101, i16 114, i16 0], align 2, !dbg !0
@_ZN11xalanc_1_1023XalanEXSLTFunctionAlign13s_rightStringE = dso_local constant [6 x i16] [i16 114, i16 105, i16 103, i16 104, i16 116, i16 0], align 2, !dbg !1057
@_ZN11xalanc_1_10L13s_emptyStringE = internal global %"class.xalanc_1_10::XalanDOMString" zeroinitializer, align 8, !dbg !1062
@__dso_handle = external hidden global i8
@_ZN11xalanc_1_1025XalanEXSLTFunctionPadding13s_spaceStringE = dso_local constant [2 x i16] [i16 32, i16 0], align 2, !dbg !1064
@_ZN11xalanc_1_1027XalanEXSLTFunctionEncodeURI15s_reservedCharsE = dso_local constant [12 x i16] [i16 36, i16 38, i16 43, i16 44, i16 47, i16 58, i16 59, i16 61, i16 63, i16 64, i16 91, i16 93], align 16, !dbg !1110
@_ZN11xalanc_1_1027XalanEXSLTFunctionEncodeURI19s_reservedCharsSizeE = dso_local constant i32 12, align 4, !dbg !1150
@_ZN11xalanc_1_1027XalanEXSLTFunctionEncodeURI15s_excludedCharsE = dso_local constant [12 x i16] [i16 32, i16 34, i16 35, i16 37, i16 60, i16 62, i16 92, i16 94, i16 96, i16 123, i16 124, i16 125], align 16, !dbg !1152
@_ZN11xalanc_1_1027XalanEXSLTFunctionEncodeURI19s_excludedCharsSizeE = dso_local constant i32 12, align 4, !dbg !1154
@_ZN11xalanc_1_1027XalanEXSLTFunctionDecodeURI11s_octetSizeE = dso_local constant i32 3, align 4, !dbg !1156
@_ZN11xalanc_1_10L15s_alignFunctionE = internal global %"class.xalanc_1_10::XalanEXSLTFunctionAlign" zeroinitializer, align 8, !dbg !1190
@_ZN11xalanc_1_10L16s_concatFunctionE = internal global %"class.xalanc_1_10::XalanEXSLTFunctionConcat" zeroinitializer, align 8, !dbg !1192
@_ZN11xalanc_1_10L17s_paddingFunctionE = internal global %"class.xalanc_1_10::XalanEXSLTFunctionPadding" zeroinitializer, align 8, !dbg !1222
@_ZN11xalanc_1_10L19s_encodeUriFunctionE = internal global %"class.xalanc_1_10::XalanEXSLTFunctionEncodeURI" zeroinitializer, align 8, !dbg !1224
@_ZN11xalanc_1_10L19s_decodeUriFunctionE = internal global %"class.xalanc_1_10::XalanEXSLTFunctionDecodeURI" zeroinitializer, align 8, !dbg !1226
@_ZN11xalanc_1_10L17s_stringNamespaceE = internal constant [25 x i16] [i16 104, i16 116, i16 116, i16 112, i16 58, i16 47, i16 47, i16 101, i16 120, i16 115, i16 108, i16 116, i16 46, i16 111, i16 114, i16 103, i16 47, i16 115, i16 116, i16 114, i16 105, i16 110, i16 103, i16 115, i16 0], align 16, !dbg !1228
@_ZN11xalanc_1_10L16theFunctionTableE = internal constant [6 x %"struct.xalanc_1_10::XalanExtensionsInstaller::FunctionTableEntry"] [%"struct.xalanc_1_10::XalanExtensionsInstaller::FunctionTableEntry" { i16* getelementptr inbounds ([6 x i16], [6 x i16]* @_ZN11xalanc_1_10L19s_alignFunctionNameE, i32 0, i32 0), %"class.xalanc_1_10::Function"* getelementptr inbounds (%"class.xalanc_1_10::XalanEXSLTFunctionAlign", %"class.xalanc_1_10::XalanEXSLTFunctionAlign"* @_ZN11xalanc_1_10L15s_alignFunctionE, i32 0, i32 0) }, %"struct.xalanc_1_10::XalanExtensionsInstaller::FunctionTableEntry" { i16* getelementptr inbounds ([7 x i16], [7 x i16]* @_ZN11xalanc_1_10L20s_concatFunctionNameE, i32 0, i32 0), %"class.xalanc_1_10::Function"* getelementptr inbounds (%"class.xalanc_1_10::XalanEXSLTFunctionConcat", %"class.xalanc_1_10::XalanEXSLTFunctionConcat"* @_ZN11xalanc_1_10L16s_concatFunctionE, i32 0, i32 0) }, %"struct.xalanc_1_10::XalanExtensionsInstaller::FunctionTableEntry" { i16* getelementptr inbounds ([8 x i16], [8 x i16]* @_ZN11xalanc_1_10L21s_paddingFunctionNameE, i32 0, i32 0), %"class.xalanc_1_10::Function"* getelementptr inbounds (%"class.xalanc_1_10::XalanEXSLTFunctionPadding", %"class.xalanc_1_10::XalanEXSLTFunctionPadding"* @_ZN11xalanc_1_10L17s_paddingFunctionE, i32 0, i32 0) }, %"struct.xalanc_1_10::XalanExtensionsInstaller::FunctionTableEntry" { i16* getelementptr inbounds ([11 x i16], [11 x i16]* @_ZN11xalanc_1_10L23s_encodeUriFunctionNameE, i32 0, i32 0), %"class.xalanc_1_10::Function"* getelementptr inbounds (%"class.xalanc_1_10::XalanEXSLTFunctionEncodeURI", %"class.xalanc_1_10::XalanEXSLTFunctionEncodeURI"* @_ZN11xalanc_1_10L19s_encodeUriFunctionE, i32 0, i32 0) }, %"struct.xalanc_1_10::XalanExtensionsInstaller::FunctionTableEntry" { i16* getelementptr inbounds ([11 x i16], [11 x i16]* @_ZN11xalanc_1_10L23s_decodeUriFunctionNameE, i32 0, i32 0), %"class.xalanc_1_10::Function"* getelementptr inbounds (%"class.xalanc_1_10::XalanEXSLTFunctionDecodeURI", %"class.xalanc_1_10::XalanEXSLTFunctionDecodeURI"* @_ZN11xalanc_1_10L19s_decodeUriFunctionE, i32 0, i32 0) }, %"struct.xalanc_1_10::XalanExtensionsInstaller::FunctionTableEntry" zeroinitializer], align 16, !dbg !1233
@_ZTVN11xalanc_1_1023XalanEXSLTFunctionAlignE = dso_local unnamed_addr constant { [11 x i8*] } { [11 x i8*] [i8* null, i8* bitcast ({ i8*, i8*, i8* }* @_ZTIN11xalanc_1_1023XalanEXSLTFunctionAlignE to i8*), i8* bitcast (void (%"class.xalanc_1_10::XalanEXSLTFunctionAlign"*)* @_ZN11xalanc_1_1023XalanEXSLTFunctionAlignD2Ev to i8*), i8* bitcast (void (%"class.xalanc_1_10::XalanEXSLTFunctionAlign"*)* @_ZN11xalanc_1_1023XalanEXSLTFunctionAlignD0Ev to i8*), i8* bitcast (void (%"class.xalanc_1_10::XObjectPtr"*, %"class.xalanc_1_10::XalanEXSLTFunctionAlign"*, %"class.xalanc_1_10::XPathExecutionContext"*, %"class.xalanc_1_10::XalanNode"*, %"class.xalanc_1_10::XalanVector"*, %"class.xercesc_2_7::Locator"*)* @_ZNK11xalanc_1_1023XalanEXSLTFunctionAlign7executeERNS_21XPathExecutionContextEPNS_9XalanNodeERKNS_11XalanVectorINS_10XObjectPtrENS_31MemoryManagedConstructionTraitsIS6_EEEEPKN11xercesc_2_77LocatorE to i8*), i8* bitcast (void (%"class.xalanc_1_10::XObjectPtr"*, %"class.xalanc_1_10::Function"*, %"class.xalanc_1_10::XPathExecutionContext"*, %"class.xalanc_1_10::XalanNode"*, %"class.xercesc_2_7::Locator"*)* @_ZNK11xalanc_1_108Function7executeERNS_21XPathExecutionContextEPNS_9XalanNodeEPKN11xercesc_2_77LocatorE to i8*), i8* bitcast (void (%"class.xalanc_1_10::XObjectPtr"*, %"class.xalanc_1_10::Function"*, %"class.xalanc_1_10::XPathExecutionContext"*, %"class.xalanc_1_10::XalanNode"*, %"class.xalanc_1_10::XObjectPtr"*, %"class.xercesc_2_7::Locator"*)* @_ZNK11xalanc_1_108Function7executeERNS_21XPathExecutionContextEPNS_9XalanNodeENS_10XObjectPtrEPKN11xercesc_2_77LocatorE to i8*), i8* bitcast (void (%"class.xalanc_1_10::XObjectPtr"*, %"class.xalanc_1_10::Function"*, %"class.xalanc_1_10::XPathExecutionContext"*, %"class.xalanc_1_10::XalanNode"*, %"class.xalanc_1_10::XObjectPtr"*, %"class.xalanc_1_10::XObjectPtr"*, %"class.xercesc_2_7::Locator"*)* @_ZNK11xalanc_1_108Function7executeERNS_21XPathExecutionContextEPNS_9XalanNodeENS_10XObjectPtrES5_PKN11xercesc_2_77LocatorE to i8*), i8* bitcast (void (%"class.xalanc_1_10::XObjectPtr"*, %"class.xalanc_1_10::Function"*, %"class.xalanc_1_10::XPathExecutionContext"*, %"class.xalanc_1_10::XalanNode"*, %"class.xalanc_1_10::XObjectPtr"*, %"class.xalanc_1_10::XObjectPtr"*, %"class.xalanc_1_10::XObjectPtr"*, %"class.xercesc_2_7::Locator"*)* @_ZNK11xalanc_1_108Function7executeERNS_21XPathExecutionContextEPNS_9XalanNodeENS_10XObjectPtrES5_S5_PKN11xercesc_2_77LocatorE to i8*), i8* bitcast (%"class.xalanc_1_10::XalanEXSLTFunctionAlign"* (%"class.xalanc_1_10::XalanEXSLTFunctionAlign"*, %"class.xercesc_2_7::MemoryManager"*)* @_ZNK11xalanc_1_1023XalanEXSLTFunctionAlign5cloneERN11xercesc_2_713MemoryManagerE to i8*), i8* bitcast (%"class.xalanc_1_10::XalanDOMString"* (%"class.xalanc_1_10::XalanEXSLTFunctionAlign"*, %"class.xalanc_1_10::XalanDOMString"*)* @_ZNK11xalanc_1_1023XalanEXSLTFunctionAlign8getErrorERNS_14XalanDOMStringE to i8*)] }, align 8
@_ZTVN10__cxxabiv120__si_class_type_infoE = external dso_local global i8*
@_ZTSN11xalanc_1_1023XalanEXSLTFunctionAlignE = dso_local constant [41 x i8] c"N11xalanc_1_1023XalanEXSLTFunctionAlignE\00", align 1
@_ZTIN11xalanc_1_108FunctionE = external dso_local constant i8*
@_ZTIN11xalanc_1_1023XalanEXSLTFunctionAlignE = dso_local constant { i8*, i8*, i8* } { i8* bitcast (i8** getelementptr inbounds (i8*, i8** @_ZTVN10__cxxabiv120__si_class_type_infoE, i64 2) to i8*), i8* getelementptr inbounds ([41 x i8], [41 x i8]* @_ZTSN11xalanc_1_1023XalanEXSLTFunctionAlignE, i32 0, i32 0), i8* bitcast (i8** @_ZTIN11xalanc_1_108FunctionE to i8*) }, align 8
@_ZTVN11xalanc_1_1024XalanEXSLTFunctionConcatE = dso_local unnamed_addr constant { [11 x i8*] } { [11 x i8*] [i8* null, i8* bitcast ({ i8*, i8*, i8* }* @_ZTIN11xalanc_1_1024XalanEXSLTFunctionConcatE to i8*), i8* bitcast (void (%"class.xalanc_1_10::XalanEXSLTFunctionConcat"*)* @_ZN11xalanc_1_1024XalanEXSLTFunctionConcatD2Ev to i8*), i8* bitcast (void (%"class.xalanc_1_10::XalanEXSLTFunctionConcat"*)* @_ZN11xalanc_1_1024XalanEXSLTFunctionConcatD0Ev to i8*), i8* bitcast (void (%"class.xalanc_1_10::XObjectPtr"*, %"class.xalanc_1_10::XalanEXSLTFunctionConcat"*, %"class.xalanc_1_10::XPathExecutionContext"*, %"class.xalanc_1_10::XalanNode"*, %"class.xalanc_1_10::XalanVector"*, %"class.xercesc_2_7::Locator"*)* @_ZNK11xalanc_1_1024XalanEXSLTFunctionConcat7executeERNS_21XPathExecutionContextEPNS_9XalanNodeERKNS_11XalanVectorINS_10XObjectPtrENS_31MemoryManagedConstructionTraitsIS6_EEEEPKN11xercesc_2_77LocatorE to i8*), i8* bitcast (void (%"class.xalanc_1_10::XObjectPtr"*, %"class.xalanc_1_10::Function"*, %"class.xalanc_1_10::XPathExecutionContext"*, %"class.xalanc_1_10::XalanNode"*, %"class.xercesc_2_7::Locator"*)* @_ZNK11xalanc_1_108Function7executeERNS_21XPathExecutionContextEPNS_9XalanNodeEPKN11xercesc_2_77LocatorE to i8*), i8* bitcast (void (%"class.xalanc_1_10::XObjectPtr"*, %"class.xalanc_1_10::Function"*, %"class.xalanc_1_10::XPathExecutionContext"*, %"class.xalanc_1_10::XalanNode"*, %"class.xalanc_1_10::XObjectPtr"*, %"class.xercesc_2_7::Locator"*)* @_ZNK11xalanc_1_108Function7executeERNS_21XPathExecutionContextEPNS_9XalanNodeENS_10XObjectPtrEPKN11xercesc_2_77LocatorE to i8*), i8* bitcast (void (%"class.xalanc_1_10::XObjectPtr"*, %"class.xalanc_1_10::Function"*, %"class.xalanc_1_10::XPathExecutionContext"*, %"class.xalanc_1_10::XalanNode"*, %"class.xalanc_1_10::XObjectPtr"*, %"class.xalanc_1_10::XObjectPtr"*, %"class.xercesc_2_7::Locator"*)* @_ZNK11xalanc_1_108Function7executeERNS_21XPathExecutionContextEPNS_9XalanNodeENS_10XObjectPtrES5_PKN11xercesc_2_77LocatorE to i8*), i8* bitcast (void (%"class.xalanc_1_10::XObjectPtr"*, %"class.xalanc_1_10::Function"*, %"class.xalanc_1_10::XPathExecutionContext"*, %"class.xalanc_1_10::XalanNode"*, %"class.xalanc_1_10::XObjectPtr"*, %"class.xalanc_1_10::XObjectPtr"*, %"class.xalanc_1_10::XObjectPtr"*, %"class.xercesc_2_7::Locator"*)* @_ZNK11xalanc_1_108Function7executeERNS_21XPathExecutionContextEPNS_9XalanNodeENS_10XObjectPtrES5_S5_PKN11xercesc_2_77LocatorE to i8*), i8* bitcast (%"class.xalanc_1_10::XalanEXSLTFunctionConcat"* (%"class.xalanc_1_10::XalanEXSLTFunctionConcat"*, %"class.xercesc_2_7::MemoryManager"*)* @_ZNK11xalanc_1_1024XalanEXSLTFunctionConcat5cloneERN11xercesc_2_713MemoryManagerE to i8*), i8* bitcast (%"class.xalanc_1_10::XalanDOMString"* (%"class.xalanc_1_10::XalanEXSLTFunctionConcat"*, %"class.xalanc_1_10::XalanDOMString"*)* @_ZNK11xalanc_1_1024XalanEXSLTFunctionConcat8getErrorERNS_14XalanDOMStringE to i8*)] }, align 8
@_ZTSN11xalanc_1_1024XalanEXSLTFunctionConcatE = dso_local constant [42 x i8] c"N11xalanc_1_1024XalanEXSLTFunctionConcatE\00", align 1
@_ZTIN11xalanc_1_1024XalanEXSLTFunctionConcatE = dso_local constant { i8*, i8*, i8* } { i8* bitcast (i8** getelementptr inbounds (i8*, i8** @_ZTVN10__cxxabiv120__si_class_type_infoE, i64 2) to i8*), i8* getelementptr inbounds ([42 x i8], [42 x i8]* @_ZTSN11xalanc_1_1024XalanEXSLTFunctionConcatE, i32 0, i32 0), i8* bitcast (i8** @_ZTIN11xalanc_1_108FunctionE to i8*) }, align 8
@_ZTVN11xalanc_1_1025XalanEXSLTFunctionPaddingE = dso_local unnamed_addr constant { [11 x i8*] } { [11 x i8*] [i8* null, i8* bitcast ({ i8*, i8*, i8* }* @_ZTIN11xalanc_1_1025XalanEXSLTFunctionPaddingE to i8*), i8* bitcast (void (%"class.xalanc_1_10::XalanEXSLTFunctionPadding"*)* @_ZN11xalanc_1_1025XalanEXSLTFunctionPaddingD2Ev to i8*), i8* bitcast (void (%"class.xalanc_1_10::XalanEXSLTFunctionPadding"*)* @_ZN11xalanc_1_1025XalanEXSLTFunctionPaddingD0Ev to i8*), i8* bitcast (void (%"class.xalanc_1_10::XObjectPtr"*, %"class.xalanc_1_10::XalanEXSLTFunctionPadding"*, %"class.xalanc_1_10::XPathExecutionContext"*, %"class.xalanc_1_10::XalanNode"*, %"class.xalanc_1_10::XalanVector"*, %"class.xercesc_2_7::Locator"*)* @_ZNK11xalanc_1_1025XalanEXSLTFunctionPadding7executeERNS_21XPathExecutionContextEPNS_9XalanNodeERKNS_11XalanVectorINS_10XObjectPtrENS_31MemoryManagedConstructionTraitsIS6_EEEEPKN11xercesc_2_77LocatorE to i8*), i8* bitcast (void (%"class.xalanc_1_10::XObjectPtr"*, %"class.xalanc_1_10::Function"*, %"class.xalanc_1_10::XPathExecutionContext"*, %"class.xalanc_1_10::XalanNode"*, %"class.xercesc_2_7::Locator"*)* @_ZNK11xalanc_1_108Function7executeERNS_21XPathExecutionContextEPNS_9XalanNodeEPKN11xercesc_2_77LocatorE to i8*), i8* bitcast (void (%"class.xalanc_1_10::XObjectPtr"*, %"class.xalanc_1_10::Function"*, %"class.xalanc_1_10::XPathExecutionContext"*, %"class.xalanc_1_10::XalanNode"*, %"class.xalanc_1_10::XObjectPtr"*, %"class.xercesc_2_7::Locator"*)* @_ZNK11xalanc_1_108Function7executeERNS_21XPathExecutionContextEPNS_9XalanNodeENS_10XObjectPtrEPKN11xercesc_2_77LocatorE to i8*), i8* bitcast (void (%"class.xalanc_1_10::XObjectPtr"*, %"class.xalanc_1_10::Function"*, %"class.xalanc_1_10::XPathExecutionContext"*, %"class.xalanc_1_10::XalanNode"*, %"class.xalanc_1_10::XObjectPtr"*, %"class.xalanc_1_10::XObjectPtr"*, %"class.xercesc_2_7::Locator"*)* @_ZNK11xalanc_1_108Function7executeERNS_21XPathExecutionContextEPNS_9XalanNodeENS_10XObjectPtrES5_PKN11xercesc_2_77LocatorE to i8*), i8* bitcast (void (%"class.xalanc_1_10::XObjectPtr"*, %"class.xalanc_1_10::Function"*, %"class.xalanc_1_10::XPathExecutionContext"*, %"class.xalanc_1_10::XalanNode"*, %"class.xalanc_1_10::XObjectPtr"*, %"class.xalanc_1_10::XObjectPtr"*, %"class.xalanc_1_10::XObjectPtr"*, %"class.xercesc_2_7::Locator"*)* @_ZNK11xalanc_1_108Function7executeERNS_21XPathExecutionContextEPNS_9XalanNodeENS_10XObjectPtrES5_S5_PKN11xercesc_2_77LocatorE to i8*), i8* bitcast (%"class.xalanc_1_10::XalanEXSLTFunctionPadding"* (%"class.xalanc_1_10::XalanEXSLTFunctionPadding"*, %"class.xercesc_2_7::MemoryManager"*)* @_ZNK11xalanc_1_1025XalanEXSLTFunctionPadding5cloneERN11xercesc_2_713MemoryManagerE to i8*), i8* bitcast (%"class.xalanc_1_10::XalanDOMString"* (%"class.xalanc_1_10::XalanEXSLTFunctionPadding"*, %"class.xalanc_1_10::XalanDOMString"*)* @_ZNK11xalanc_1_1025XalanEXSLTFunctionPadding8getErrorERNS_14XalanDOMStringE to i8*)] }, align 8
@_ZTSN11xalanc_1_1025XalanEXSLTFunctionPaddingE = dso_local constant [43 x i8] c"N11xalanc_1_1025XalanEXSLTFunctionPaddingE\00", align 1
@_ZTIN11xalanc_1_1025XalanEXSLTFunctionPaddingE = dso_local constant { i8*, i8*, i8* } { i8* bitcast (i8** getelementptr inbounds (i8*, i8** @_ZTVN10__cxxabiv120__si_class_type_infoE, i64 2) to i8*), i8* getelementptr inbounds ([43 x i8], [43 x i8]* @_ZTSN11xalanc_1_1025XalanEXSLTFunctionPaddingE, i32 0, i32 0), i8* bitcast (i8** @_ZTIN11xalanc_1_108FunctionE to i8*) }, align 8
@_ZTVN11xalanc_1_1027XalanEXSLTFunctionEncodeURIE = dso_local unnamed_addr constant { [11 x i8*] } { [11 x i8*] [i8* null, i8* bitcast ({ i8*, i8*, i8* }* @_ZTIN11xalanc_1_1027XalanEXSLTFunctionEncodeURIE to i8*), i8* bitcast (void (%"class.xalanc_1_10::XalanEXSLTFunctionEncodeURI"*)* @_ZN11xalanc_1_1027XalanEXSLTFunctionEncodeURID2Ev to i8*), i8* bitcast (void (%"class.xalanc_1_10::XalanEXSLTFunctionEncodeURI"*)* @_ZN11xalanc_1_1027XalanEXSLTFunctionEncodeURID0Ev to i8*), i8* bitcast (void (%"class.xalanc_1_10::XObjectPtr"*, %"class.xalanc_1_10::XalanEXSLTFunctionEncodeURI"*, %"class.xalanc_1_10::XPathExecutionContext"*, %"class.xalanc_1_10::XalanNode"*, %"class.xalanc_1_10::XalanVector"*, %"class.xercesc_2_7::Locator"*)* @_ZNK11xalanc_1_1027XalanEXSLTFunctionEncodeURI7executeERNS_21XPathExecutionContextEPNS_9XalanNodeERKNS_11XalanVectorINS_10XObjectPtrENS_31MemoryManagedConstructionTraitsIS6_EEEEPKN11xercesc_2_77LocatorE to i8*), i8* bitcast (void (%"class.xalanc_1_10::XObjectPtr"*, %"class.xalanc_1_10::Function"*, %"class.xalanc_1_10::XPathExecutionContext"*, %"class.xalanc_1_10::XalanNode"*, %"class.xercesc_2_7::Locator"*)* @_ZNK11xalanc_1_108Function7executeERNS_21XPathExecutionContextEPNS_9XalanNodeEPKN11xercesc_2_77LocatorE to i8*), i8* bitcast (void (%"class.xalanc_1_10::XObjectPtr"*, %"class.xalanc_1_10::Function"*, %"class.xalanc_1_10::XPathExecutionContext"*, %"class.xalanc_1_10::XalanNode"*, %"class.xalanc_1_10::XObjectPtr"*, %"class.xercesc_2_7::Locator"*)* @_ZNK11xalanc_1_108Function7executeERNS_21XPathExecutionContextEPNS_9XalanNodeENS_10XObjectPtrEPKN11xercesc_2_77LocatorE to i8*), i8* bitcast (void (%"class.xalanc_1_10::XObjectPtr"*, %"class.xalanc_1_10::Function"*, %"class.xalanc_1_10::XPathExecutionContext"*, %"class.xalanc_1_10::XalanNode"*, %"class.xalanc_1_10::XObjectPtr"*, %"class.xalanc_1_10::XObjectPtr"*, %"class.xercesc_2_7::Locator"*)* @_ZNK11xalanc_1_108Function7executeERNS_21XPathExecutionContextEPNS_9XalanNodeENS_10XObjectPtrES5_PKN11xercesc_2_77LocatorE to i8*), i8* bitcast (void (%"class.xalanc_1_10::XObjectPtr"*, %"class.xalanc_1_10::Function"*, %"class.xalanc_1_10::XPathExecutionContext"*, %"class.xalanc_1_10::XalanNode"*, %"class.xalanc_1_10::XObjectPtr"*, %"class.xalanc_1_10::XObjectPtr"*, %"class.xalanc_1_10::XObjectPtr"*, %"class.xercesc_2_7::Locator"*)* @_ZNK11xalanc_1_108Function7executeERNS_21XPathExecutionContextEPNS_9XalanNodeENS_10XObjectPtrES5_S5_PKN11xercesc_2_77LocatorE to i8*), i8* bitcast (%"class.xalanc_1_10::XalanEXSLTFunctionEncodeURI"* (%"class.xalanc_1_10::XalanEXSLTFunctionEncodeURI"*, %"class.xercesc_2_7::MemoryManager"*)* @_ZNK11xalanc_1_1027XalanEXSLTFunctionEncodeURI5cloneERN11xercesc_2_713MemoryManagerE to i8*), i8* bitcast (%"class.xalanc_1_10::XalanDOMString"* (%"class.xalanc_1_10::XalanEXSLTFunctionEncodeURI"*, %"class.xalanc_1_10::XalanDOMString"*)* @_ZNK11xalanc_1_1027XalanEXSLTFunctionEncodeURI8getErrorERNS_14XalanDOMStringE to i8*)] }, align 8
@_ZTSN11xalanc_1_1027XalanEXSLTFunctionEncodeURIE = dso_local constant [45 x i8] c"N11xalanc_1_1027XalanEXSLTFunctionEncodeURIE\00", align 1
@_ZTIN11xalanc_1_1027XalanEXSLTFunctionEncodeURIE = dso_local constant { i8*, i8*, i8* } { i8* bitcast (i8** getelementptr inbounds (i8*, i8** @_ZTVN10__cxxabiv120__si_class_type_infoE, i64 2) to i8*), i8* getelementptr inbounds ([45 x i8], [45 x i8]* @_ZTSN11xalanc_1_1027XalanEXSLTFunctionEncodeURIE, i32 0, i32 0), i8* bitcast (i8** @_ZTIN11xalanc_1_108FunctionE to i8*) }, align 8
@_ZTVN11xalanc_1_1027XalanEXSLTFunctionDecodeURIE = dso_local unnamed_addr constant { [11 x i8*] } { [11 x i8*] [i8* null, i8* bitcast ({ i8*, i8*, i8* }* @_ZTIN11xalanc_1_1027XalanEXSLTFunctionDecodeURIE to i8*), i8* bitcast (void (%"class.xalanc_1_10::XalanEXSLTFunctionDecodeURI"*)* @_ZN11xalanc_1_1027XalanEXSLTFunctionDecodeURID2Ev to i8*), i8* bitcast (void (%"class.xalanc_1_10::XalanEXSLTFunctionDecodeURI"*)* @_ZN11xalanc_1_1027XalanEXSLTFunctionDecodeURID0Ev to i8*), i8* bitcast (void (%"class.xalanc_1_10::XObjectPtr"*, %"class.xalanc_1_10::XalanEXSLTFunctionDecodeURI"*, %"class.xalanc_1_10::XPathExecutionContext"*, %"class.xalanc_1_10::XalanNode"*, %"class.xalanc_1_10::XalanVector"*, %"class.xercesc_2_7::Locator"*)* @_ZNK11xalanc_1_1027XalanEXSLTFunctionDecodeURI7executeERNS_21XPathExecutionContextEPNS_9XalanNodeERKNS_11XalanVectorINS_10XObjectPtrENS_31MemoryManagedConstructionTraitsIS6_EEEEPKN11xercesc_2_77LocatorE to i8*), i8* bitcast (void (%"class.xalanc_1_10::XObjectPtr"*, %"class.xalanc_1_10::Function"*, %"class.xalanc_1_10::XPathExecutionContext"*, %"class.xalanc_1_10::XalanNode"*, %"class.xercesc_2_7::Locator"*)* @_ZNK11xalanc_1_108Function7executeERNS_21XPathExecutionContextEPNS_9XalanNodeEPKN11xercesc_2_77LocatorE to i8*), i8* bitcast (void (%"class.xalanc_1_10::XObjectPtr"*, %"class.xalanc_1_10::Function"*, %"class.xalanc_1_10::XPathExecutionContext"*, %"class.xalanc_1_10::XalanNode"*, %"class.xalanc_1_10::XObjectPtr"*, %"class.xercesc_2_7::Locator"*)* @_ZNK11xalanc_1_108Function7executeERNS_21XPathExecutionContextEPNS_9XalanNodeENS_10XObjectPtrEPKN11xercesc_2_77LocatorE to i8*), i8* bitcast (void (%"class.xalanc_1_10::XObjectPtr"*, %"class.xalanc_1_10::Function"*, %"class.xalanc_1_10::XPathExecutionContext"*, %"class.xalanc_1_10::XalanNode"*, %"class.xalanc_1_10::XObjectPtr"*, %"class.xalanc_1_10::XObjectPtr"*, %"class.xercesc_2_7::Locator"*)* @_ZNK11xalanc_1_108Function7executeERNS_21XPathExecutionContextEPNS_9XalanNodeENS_10XObjectPtrES5_PKN11xercesc_2_77LocatorE to i8*), i8* bitcast (void (%"class.xalanc_1_10::XObjectPtr"*, %"class.xalanc_1_10::Function"*, %"class.xalanc_1_10::XPathExecutionContext"*, %"class.xalanc_1_10::XalanNode"*, %"class.xalanc_1_10::XObjectPtr"*, %"class.xalanc_1_10::XObjectPtr"*, %"class.xalanc_1_10::XObjectPtr"*, %"class.xercesc_2_7::Locator"*)* @_ZNK11xalanc_1_108Function7executeERNS_21XPathExecutionContextEPNS_9XalanNodeENS_10XObjectPtrES5_S5_PKN11xercesc_2_77LocatorE to i8*), i8* bitcast (%"class.xalanc_1_10::XalanEXSLTFunctionDecodeURI"* (%"class.xalanc_1_10::XalanEXSLTFunctionDecodeURI"*, %"class.xercesc_2_7::MemoryManager"*)* @_ZNK11xalanc_1_1027XalanEXSLTFunctionDecodeURI5cloneERN11xercesc_2_713MemoryManagerE to i8*), i8* bitcast (%"class.xalanc_1_10::XalanDOMString"* (%"class.xalanc_1_10::XalanEXSLTFunctionDecodeURI"*, %"class.xalanc_1_10::XalanDOMString"*)* @_ZNK11xalanc_1_1027XalanEXSLTFunctionDecodeURI8getErrorERNS_14XalanDOMStringE to i8*)] }, align 8
@_ZTSN11xalanc_1_1027XalanEXSLTFunctionDecodeURIE = dso_local constant [45 x i8] c"N11xalanc_1_1027XalanEXSLTFunctionDecodeURIE\00", align 1
@_ZTIN11xalanc_1_1027XalanEXSLTFunctionDecodeURIE = dso_local constant { i8*, i8*, i8* } { i8* bitcast (i8** getelementptr inbounds (i8*, i8** @_ZTVN10__cxxabiv120__si_class_type_infoE, i64 2) to i8*), i8* getelementptr inbounds ([45 x i8], [45 x i8]* @_ZTSN11xalanc_1_1027XalanEXSLTFunctionDecodeURIE, i32 0, i32 0), i8* bitcast (i8** @_ZTIN11xalanc_1_108FunctionE to i8*) }, align 8
@_ZN11xalanc_1_1014XalanDOMString7s_emptyE = external dso_local constant i16, align 2
@_ZN11xalanc_1_10L19s_alignFunctionNameE = internal constant [6 x i16] [i16 97, i16 108, i16 105, i16 103, i16 110, i16 0], align 2, !dbg !1266
@_ZN11xalanc_1_10L20s_concatFunctionNameE = internal constant [7 x i16] [i16 99, i16 111, i16 110, i16 99, i16 97, i16 116, i16 0], align 2, !dbg !1268
@_ZN11xalanc_1_10L21s_paddingFunctionNameE = internal constant [8 x i16] [i16 112, i16 97, i16 100, i16 100, i16 105, i16 110, i16 103, i16 0], align 16, !dbg !1270
@_ZN11xalanc_1_10L23s_encodeUriFunctionNameE = internal constant [11 x i16] [i16 101, i16 110, i16 99, i16 111, i16 100, i16 101, i16 45, i16 117, i16 114, i16 105, i16 0], align 16, !dbg !1275
@_ZN11xalanc_1_10L23s_decodeUriFunctionNameE = internal constant [11 x i16] [i16 100, i16 101, i16 99, i16 111, i16 100, i16 101, i16 45, i16 117, i16 114, i16 105, i16 0], align 16, !dbg !1280
@_ZTVN11xalanc_1_108FunctionE = external dso_local unnamed_addr constant { [11 x i8*] }, align 8
@.str = private unnamed_addr constant [8 x i8] c"align()\00", align 1
@.str.6 = private unnamed_addr constant [9 x i8] c"concat()\00", align 1
@.str.7 = private unnamed_addr constant [10 x i8] c"padding()\00", align 1
@.str.8 = private unnamed_addr constant [13 x i8] c"encode-uri()\00", align 1
@.str.9 = private unnamed_addr constant [13 x i8] c"decode-uri()\00", align 1
@llvm.global_ctors = appending global [1 x { i32, void ()*, i8* }] [{ i32, void ()*, i8* } { i32 65535, void ()* @_GLOBAL__sub_I_XalanEXSLTString.cpp, i8* null }]

; Function Attrs: noinline uwtable
define dso_local void @_ZNK11xalanc_1_1023XalanEXSLTFunctionAlign7executeERNS_21XPathExecutionContextEPNS_9XalanNodeERKNS_11XalanVectorINS_10XObjectPtrENS_31MemoryManagedConstructionTraitsIS6_EEEEPKN11xercesc_2_77LocatorE(%"class.xalanc_1_10::XObjectPtr"* noalias sret %agg.result, %"class.xalanc_1_10::XalanEXSLTFunctionAlign"* %this, %"class.xalanc_1_10::XPathExecutionContext"* dereferenceable(24) %executionContext, %"class.xalanc_1_10::XalanNode"* %context, %"class.xalanc_1_10::XalanVector"* dereferenceable(32) %args, %"class.xercesc_2_7::Locator"* %locator) unnamed_addr #0 align 2 personality i8* bitcast (i32 (...)* @__gxx_personality_v0 to i8*) !dbg !1285 {
entry:
  %result.ptr = alloca i8*, align 8
  %this.addr = alloca %"class.xalanc_1_10::XalanEXSLTFunctionAlign"*, align 8
  %executionContext.addr = alloca %"class.xalanc_1_10::XPathExecutionContext"*, align 8
  %context.addr = alloca %"class.xalanc_1_10::XalanNode"*, align 8
  %args.addr = alloca %"class.xalanc_1_10::XalanVector"*, align 8
  %locator.addr = alloca %"class.xercesc_2_7::Locator"*, align 8
  %theSize = alloca i64, align 8
  %theGuard = alloca %"class.xalanc_1_10::XPathExecutionContext::GetAndReleaseCachedString", align 8
  %theBuffer = alloca %"class.xalanc_1_10::XalanDOMString"*, align 8
  %exn.slot = alloca i8*
  %ehselector.slot = alloca i32
  %theTargetString = alloca %"class.xalanc_1_10::XalanDOMString"*, align 8
  %thePaddingString = alloca %"class.xalanc_1_10::XalanDOMString"*, align 8
  %theTargetStringLength = alloca i32, align 4
  %thePaddingStringLength = alloca i32, align 4
  %theGuard24 = alloca %"class.xalanc_1_10::XPathExecutionContext::GetAndReleaseCachedString", align 8
  %theResult = alloca %"class.xalanc_1_10::XalanDOMString"*, align 8
  %theAlignment = alloca i32, align 4
  %theAlignmentString = alloca %"class.xalanc_1_10::XalanDOMString"*, align 8
  %theStartIndex = alloca i32, align 4
  %0 = bitcast %"class.xalanc_1_10::XObjectPtr"* %agg.result to i8*
  store i8* %0, i8** %result.ptr, align 8
  store %"class.xalanc_1_10::XalanEXSLTFunctionAlign"* %this, %"class.xalanc_1_10::XalanEXSLTFunctionAlign"** %this.addr, align 8
  call void @llvm.dbg.declare(metadata %"class.xalanc_1_10::XalanEXSLTFunctionAlign"** %this.addr, metadata !2724, metadata !DIExpression()), !dbg !2726
  store %"class.xalanc_1_10::XPathExecutionContext"* %executionContext, %"class.xalanc_1_10::XPathExecutionContext"** %executionContext.addr, align 8
  call void @llvm.dbg.declare(metadata %"class.xalanc_1_10::XPathExecutionContext"** %executionContext.addr, metadata !2727, metadata !DIExpression()), !dbg !2728
  store %"class.xalanc_1_10::XalanNode"* %context, %"class.xalanc_1_10::XalanNode"** %context.addr, align 8
  call void @llvm.dbg.declare(metadata %"class.xalanc_1_10::XalanNode"** %context.addr, metadata !2729, metadata !DIExpression()), !dbg !2730
  store %"class.xalanc_1_10::XalanVector"* %args, %"class.xalanc_1_10::XalanVector"** %args.addr, align 8
  call void @llvm.dbg.declare(metadata %"class.xalanc_1_10::XalanVector"** %args.addr, metadata !2731, metadata !DIExpression()), !dbg !2732
  store %"class.xercesc_2_7::Locator"* %locator, %"class.xercesc_2_7::Locator"** %locator.addr, align 8
  call void @llvm.dbg.declare(metadata %"class.xercesc_2_7::Locator"** %locator.addr, metadata !2733, metadata !DIExpression()), !dbg !2734
  %this1 = load %"class.xalanc_1_10::XalanEXSLTFunctionAlign"*, %"class.xalanc_1_10::XalanEXSLTFunctionAlign"** %this.addr, align 8
  call void @llvm.dbg.declare(metadata i64* %theSize, metadata !2735, metadata !DIExpression()), !dbg !2737
  %1 = load %"class.xalanc_1_10::XalanVector"*, %"class.xalanc_1_10::XalanVector"** %args.addr, align 8, !dbg !2738
  %call = call i64 @_ZNK11xalanc_1_1011XalanVectorINS_10XObjectPtrENS_31MemoryManagedConstructionTraitsIS1_EEE4sizeEv(%"class.xalanc_1_10::XalanVector"* %1), !dbg !2739
  store i64 %call, i64* %theSize, align 8, !dbg !2737
  %2 = load i64, i64* %theSize, align 8, !dbg !2740
  %cmp = icmp ne i64 %2, 2, !dbg !2742
  br i1 %cmp, label %land.lhs.true, label %if.end, !dbg !2743

land.lhs.true:                                    ; preds = %entry
  %3 = load i64, i64* %theSize, align 8, !dbg !2744
  %cmp2 = icmp ne i64 %3, 3, !dbg !2745
  br i1 %cmp2, label %if.then, label %if.end, !dbg !2746

if.then:                                          ; preds = %land.lhs.true
  call void @llvm.dbg.declare(metadata %"class.xalanc_1_10::XPathExecutionContext::GetAndReleaseCachedString"* %theGuard, metadata !2747, metadata !DIExpression()), !dbg !2777
  %4 = load %"class.xalanc_1_10::XPathExecutionContext"*, %"class.xalanc_1_10::XPathExecutionContext"** %executionContext.addr, align 8, !dbg !2778
  call void @_ZN11xalanc_1_1021XPathExecutionContext25GetAndReleaseCachedStringC2ERS0_(%"class.xalanc_1_10::XPathExecutionContext::GetAndReleaseCachedString"* %theGuard, %"class.xalanc_1_10::XPathExecutionContext"* dereferenceable(24) %4), !dbg !2777
  call void @llvm.dbg.declare(metadata %"class.xalanc_1_10::XalanDOMString"** %theBuffer, metadata !2779, metadata !DIExpression()), !dbg !2780
  %call3 = invoke dereferenceable(40) %"class.xalanc_1_10::XalanDOMString"* @_ZNK11xalanc_1_1021XPathExecutionContext25GetAndReleaseCachedString3getEv(%"class.xalanc_1_10::XPathExecutionContext::GetAndReleaseCachedString"* %theGuard)
          to label %invoke.cont unwind label %lpad, !dbg !2781

invoke.cont:                                      ; preds = %if.then
  store %"class.xalanc_1_10::XalanDOMString"* %call3, %"class.xalanc_1_10::XalanDOMString"** %theBuffer, align 8, !dbg !2780
  %5 = load %"class.xalanc_1_10::XPathExecutionContext"*, %"class.xalanc_1_10::XPathExecutionContext"** %executionContext.addr, align 8, !dbg !2782
  %6 = load %"class.xalanc_1_10::XalanDOMString"*, %"class.xalanc_1_10::XalanDOMString"** %theBuffer, align 8, !dbg !2783
  %7 = bitcast %"class.xalanc_1_10::XalanEXSLTFunctionAlign"* %this1 to %"class.xalanc_1_10::XalanDOMString"* (%"class.xalanc_1_10::XalanEXSLTFunctionAlign"*, %"class.xalanc_1_10::XalanDOMString"*)***, !dbg !2784
  %vtable = load %"class.xalanc_1_10::XalanDOMString"* (%"class.xalanc_1_10::XalanEXSLTFunctionAlign"*, %"class.xalanc_1_10::XalanDOMString"*)**, %"class.xalanc_1_10::XalanDOMString"* (%"class.xalanc_1_10::XalanEXSLTFunctionAlign"*, %"class.xalanc_1_10::XalanDOMString"*)*** %7, align 8, !dbg !2784
  %vfn = getelementptr inbounds %"class.xalanc_1_10::XalanDOMString"* (%"class.xalanc_1_10::XalanEXSLTFunctionAlign"*, %"class.xalanc_1_10::XalanDOMString"*)*, %"class.xalanc_1_10::XalanDOMString"* (%"class.xalanc_1_10::XalanEXSLTFunctionAlign"*, %"class.xalanc_1_10::XalanDOMString"*)** %vtable, i64 8, !dbg !2784
  %8 = load %"class.xalanc_1_10::XalanDOMString"* (%"class.xalanc_1_10::XalanEXSLTFunctionAlign"*, %"class.xalanc_1_10::XalanDOMString"*)*, %"class.xalanc_1_10::XalanDOMString"* (%"class.xalanc_1_10::XalanEXSLTFunctionAlign"*, %"class.xalanc_1_10::XalanDOMString"*)** %vfn, align 8, !dbg !2784
  %call5 = invoke dereferenceable(40) %"class.xalanc_1_10::XalanDOMString"* %8(%"class.xalanc_1_10::XalanEXSLTFunctionAlign"* %this1, %"class.xalanc_1_10::XalanDOMString"* dereferenceable(40) %6)
          to label %invoke.cont4 unwind label %lpad, !dbg !2784

invoke.cont4:                                     ; preds = %invoke.cont
  %9 = load %"class.xalanc_1_10::XalanNode"*, %"class.xalanc_1_10::XalanNode"** %context.addr, align 8, !dbg !2785
  %10 = load %"class.xercesc_2_7::Locator"*, %"class.xercesc_2_7::Locator"** %locator.addr, align 8, !dbg !2786
  %11 = bitcast %"class.xalanc_1_10::XPathExecutionContext"* %5 to void (%"class.xalanc_1_10::XPathExecutionContext"*, %"class.xalanc_1_10::XalanDOMString"*, %"class.xalanc_1_10::XalanNode"*, %"class.xercesc_2_7::Locator"*)***, !dbg !2787
  %vtable6 = load void (%"class.xalanc_1_10::XPathExecutionContext"*, %"class.xalanc_1_10::XalanDOMString"*, %"class.xalanc_1_10::XalanNode"*, %"class.xercesc_2_7::Locator"*)**, void (%"class.xalanc_1_10::XPathExecutionContext"*, %"class.xalanc_1_10::XalanDOMString"*, %"class.xalanc_1_10::XalanNode"*, %"class.xercesc_2_7::Locator"*)*** %11, align 8, !dbg !2787
  %vfn7 = getelementptr inbounds void (%"class.xalanc_1_10::XPathExecutionContext"*, %"class.xalanc_1_10::XalanDOMString"*, %"class.xalanc_1_10::XalanNode"*, %"class.xercesc_2_7::Locator"*)*, void (%"class.xalanc_1_10::XPathExecutionContext"*, %"class.xalanc_1_10::XalanDOMString"*, %"class.xalanc_1_10::XalanNode"*, %"class.xercesc_2_7::Locator"*)** %vtable6, i64 2, !dbg !2787
  %12 = load void (%"class.xalanc_1_10::XPathExecutionContext"*, %"class.xalanc_1_10::XalanDOMString"*, %"class.xalanc_1_10::XalanNode"*, %"class.xercesc_2_7::Locator"*)*, void (%"class.xalanc_1_10::XPathExecutionContext"*, %"class.xalanc_1_10::XalanDOMString"*, %"class.xalanc_1_10::XalanNode"*, %"class.xercesc_2_7::Locator"*)** %vfn7, align 8, !dbg !2787
  invoke void %12(%"class.xalanc_1_10::XPathExecutionContext"* %5, %"class.xalanc_1_10::XalanDOMString"* dereferenceable(40) %call5, %"class.xalanc_1_10::XalanNode"* %9, %"class.xercesc_2_7::Locator"* %10)
          to label %invoke.cont8 unwind label %lpad, !dbg !2787

invoke.cont8:                                     ; preds = %invoke.cont4
  call void @_ZN11xalanc_1_1021XPathExecutionContext25GetAndReleaseCachedStringD2Ev(%"class.xalanc_1_10::XPathExecutionContext::GetAndReleaseCachedString"* %theGuard) #4, !dbg !2788
  br label %if.end, !dbg !2789

lpad:                                             ; preds = %invoke.cont4, %invoke.cont, %if.then
  %13 = landingpad { i8*, i32 }
          cleanup, !dbg !2790
  %14 = extractvalue { i8*, i32 } %13, 0, !dbg !2790
  store i8* %14, i8** %exn.slot, align 8, !dbg !2790
  %15 = extractvalue { i8*, i32 } %13, 1, !dbg !2790
  store i32 %15, i32* %ehselector.slot, align 4, !dbg !2790
  call void @_ZN11xalanc_1_1021XPathExecutionContext25GetAndReleaseCachedStringD2Ev(%"class.xalanc_1_10::XPathExecutionContext::GetAndReleaseCachedString"* %theGuard) #4, !dbg !2788
  br label %eh.resume, !dbg !2788

if.end:                                           ; preds = %invoke.cont8, %land.lhs.true, %entry
  call void @llvm.dbg.declare(metadata %"class.xalanc_1_10::XalanDOMString"** %theTargetString, metadata !2791, metadata !DIExpression()), !dbg !2792
  %16 = load %"class.xalanc_1_10::XalanVector"*, %"class.xalanc_1_10::XalanVector"** %args.addr, align 8, !dbg !2793
  %call9 = call dereferenceable(8) %"class.xalanc_1_10::XObjectPtr"* @_ZNK11xalanc_1_1011XalanVectorINS_10XObjectPtrENS_31MemoryManagedConstructionTraitsIS1_EEEixEm(%"class.xalanc_1_10::XalanVector"* %16, i64 0), !dbg !2793
  %call10 = call %"class.xalanc_1_10::XObject"* @_ZNK11xalanc_1_1010XObjectPtrptEv(%"class.xalanc_1_10::XObjectPtr"* %call9), !dbg !2793
  %17 = bitcast %"class.xalanc_1_10::XObject"* %call10 to %"class.xalanc_1_10::XalanDOMString"* (%"class.xalanc_1_10::XObject"*)***, !dbg !2794
  %vtable11 = load %"class.xalanc_1_10::XalanDOMString"* (%"class.xalanc_1_10::XObject"*)**, %"class.xalanc_1_10::XalanDOMString"* (%"class.xalanc_1_10::XObject"*)*** %17, align 8, !dbg !2794
  %vfn12 = getelementptr inbounds %"class.xalanc_1_10::XalanDOMString"* (%"class.xalanc_1_10::XObject"*)*, %"class.xalanc_1_10::XalanDOMString"* (%"class.xalanc_1_10::XObject"*)** %vtable11, i64 8, !dbg !2794
  %18 = load %"class.xalanc_1_10::XalanDOMString"* (%"class.xalanc_1_10::XObject"*)*, %"class.xalanc_1_10::XalanDOMString"* (%"class.xalanc_1_10::XObject"*)** %vfn12, align 8, !dbg !2794
  %call13 = call dereferenceable(40) %"class.xalanc_1_10::XalanDOMString"* %18(%"class.xalanc_1_10::XObject"* %call10), !dbg !2794
  store %"class.xalanc_1_10::XalanDOMString"* %call13, %"class.xalanc_1_10::XalanDOMString"** %theTargetString, align 8, !dbg !2792
  call void @llvm.dbg.declare(metadata %"class.xalanc_1_10::XalanDOMString"** %thePaddingString, metadata !2795, metadata !DIExpression()), !dbg !2796
  %19 = load %"class.xalanc_1_10::XalanVector"*, %"class.xalanc_1_10::XalanVector"** %args.addr, align 8, !dbg !2797
  %call14 = call dereferenceable(8) %"class.xalanc_1_10::XObjectPtr"* @_ZNK11xalanc_1_1011XalanVectorINS_10XObjectPtrENS_31MemoryManagedConstructionTraitsIS1_EEEixEm(%"class.xalanc_1_10::XalanVector"* %19, i64 1), !dbg !2797
  %call15 = call %"class.xalanc_1_10::XObject"* @_ZNK11xalanc_1_1010XObjectPtrptEv(%"class.xalanc_1_10::XObjectPtr"* %call14), !dbg !2797
  %20 = bitcast %"class.xalanc_1_10::XObject"* %call15 to %"class.xalanc_1_10::XalanDOMString"* (%"class.xalanc_1_10::XObject"*)***, !dbg !2798
  %vtable16 = load %"class.xalanc_1_10::XalanDOMString"* (%"class.xalanc_1_10::XObject"*)**, %"class.xalanc_1_10::XalanDOMString"* (%"class.xalanc_1_10::XObject"*)*** %20, align 8, !dbg !2798
  %vfn17 = getelementptr inbounds %"class.xalanc_1_10::XalanDOMString"* (%"class.xalanc_1_10::XObject"*)*, %"class.xalanc_1_10::XalanDOMString"* (%"class.xalanc_1_10::XObject"*)** %vtable16, i64 8, !dbg !2798
  %21 = load %"class.xalanc_1_10::XalanDOMString"* (%"class.xalanc_1_10::XObject"*)*, %"class.xalanc_1_10::XalanDOMString"* (%"class.xalanc_1_10::XObject"*)** %vfn17, align 8, !dbg !2798
  %call18 = call dereferenceable(40) %"class.xalanc_1_10::XalanDOMString"* %21(%"class.xalanc_1_10::XObject"* %call15), !dbg !2798
  store %"class.xalanc_1_10::XalanDOMString"* %call18, %"class.xalanc_1_10::XalanDOMString"** %thePaddingString, align 8, !dbg !2796
  call void @llvm.dbg.declare(metadata i32* %theTargetStringLength, metadata !2799, metadata !DIExpression()), !dbg !2800
  %22 = load %"class.xalanc_1_10::XalanDOMString"*, %"class.xalanc_1_10::XalanDOMString"** %theTargetString, align 8, !dbg !2801
  %call19 = call i32 @_ZNK11xalanc_1_1014XalanDOMString6lengthEv(%"class.xalanc_1_10::XalanDOMString"* %22), !dbg !2802
  store i32 %call19, i32* %theTargetStringLength, align 4, !dbg !2800
  call void @llvm.dbg.declare(metadata i32* %thePaddingStringLength, metadata !2803, metadata !DIExpression()), !dbg !2804
  %23 = load %"class.xalanc_1_10::XalanDOMString"*, %"class.xalanc_1_10::XalanDOMString"** %thePaddingString, align 8, !dbg !2805
  %call20 = call i32 @_ZNK11xalanc_1_1014XalanDOMString6lengthEv(%"class.xalanc_1_10::XalanDOMString"* %23), !dbg !2806
  store i32 %call20, i32* %thePaddingStringLength, align 4, !dbg !2804
  %24 = load i32, i32* %theTargetStringLength, align 4, !dbg !2807
  %25 = load i32, i32* %thePaddingStringLength, align 4, !dbg !2809
  %cmp21 = icmp eq i32 %24, %25, !dbg !2810
  br i1 %cmp21, label %if.then22, label %if.else, !dbg !2811

if.then22:                                        ; preds = %if.end
  %26 = load %"class.xalanc_1_10::XalanVector"*, %"class.xalanc_1_10::XalanVector"** %args.addr, align 8, !dbg !2812
  %call23 = call dereferenceable(8) %"class.xalanc_1_10::XObjectPtr"* @_ZNK11xalanc_1_1011XalanVectorINS_10XObjectPtrENS_31MemoryManagedConstructionTraitsIS1_EEEixEm(%"class.xalanc_1_10::XalanVector"* %26, i64 0), !dbg !2812
  call void @_ZN11xalanc_1_1010XObjectPtrC2ERKS0_(%"class.xalanc_1_10::XObjectPtr"* %agg.result, %"class.xalanc_1_10::XObjectPtr"* dereferenceable(8) %call23), !dbg !2814
  br label %return, !dbg !2815

if.else:                                          ; preds = %if.end
  call void @llvm.dbg.declare(metadata %"class.xalanc_1_10::XPathExecutionContext::GetAndReleaseCachedString"* %theGuard24, metadata !2816, metadata !DIExpression()), !dbg !2818
  %27 = load %"class.xalanc_1_10::XPathExecutionContext"*, %"class.xalanc_1_10::XPathExecutionContext"** %executionContext.addr, align 8, !dbg !2819
  call void @_ZN11xalanc_1_1021XPathExecutionContext25GetAndReleaseCachedStringC2ERS0_(%"class.xalanc_1_10::XPathExecutionContext::GetAndReleaseCachedString"* %theGuard24, %"class.xalanc_1_10::XPathExecutionContext"* dereferenceable(24) %27), !dbg !2818
  call void @llvm.dbg.declare(metadata %"class.xalanc_1_10::XalanDOMString"** %theResult, metadata !2820, metadata !DIExpression()), !dbg !2821
  %call27 = invoke dereferenceable(40) %"class.xalanc_1_10::XalanDOMString"* @_ZNK11xalanc_1_1021XPathExecutionContext25GetAndReleaseCachedString3getEv(%"class.xalanc_1_10::XPathExecutionContext::GetAndReleaseCachedString"* %theGuard24)
          to label %invoke.cont26 unwind label %lpad25, !dbg !2822

invoke.cont26:                                    ; preds = %if.else
  store %"class.xalanc_1_10::XalanDOMString"* %call27, %"class.xalanc_1_10::XalanDOMString"** %theResult, align 8, !dbg !2821
  %28 = load i32, i32* %theTargetStringLength, align 4, !dbg !2823
  %29 = load i32, i32* %thePaddingStringLength, align 4, !dbg !2825
  %cmp28 = icmp ugt i32 %28, %29, !dbg !2826
  br i1 %cmp28, label %if.then29, label %if.else32, !dbg !2827

if.then29:                                        ; preds = %invoke.cont26
  %30 = load %"class.xalanc_1_10::XalanDOMString"*, %"class.xalanc_1_10::XalanDOMString"** %theResult, align 8, !dbg !2828
  %31 = load %"class.xalanc_1_10::XalanDOMString"*, %"class.xalanc_1_10::XalanDOMString"** %theTargetString, align 8, !dbg !2830
  %32 = load i32, i32* %thePaddingStringLength, align 4, !dbg !2831
  %call31 = invoke dereferenceable(40) %"class.xalanc_1_10::XalanDOMString"* @_ZN11xalanc_1_1014XalanDOMString6assignERKS0_jj(%"class.xalanc_1_10::XalanDOMString"* %30, %"class.xalanc_1_10::XalanDOMString"* dereferenceable(40) %31, i32 0, i32 %32)
          to label %invoke.cont30 unwind label %lpad25, !dbg !2832

invoke.cont30:                                    ; preds = %if.then29
  br label %if.end90, !dbg !2833

lpad25:                                           ; preds = %invoke.cont91, %if.end90, %invoke.cont81, %invoke.cont79, %if.then77, %invoke.cont71, %if.then69, %invoke.cont63, %if.then62, %invoke.cont51, %if.else50, %invoke.cont44, %invoke.cont42, %invoke.cont38, %invoke.cont36, %if.then35, %if.else32, %if.then29, %if.else
  %33 = landingpad { i8*, i32 }
          cleanup, !dbg !2834
  %34 = extractvalue { i8*, i32 } %33, 0, !dbg !2834
  store i8* %34, i8** %exn.slot, align 8, !dbg !2834
  %35 = extractvalue { i8*, i32 } %33, 1, !dbg !2834
  store i32 %35, i32* %ehselector.slot, align 4, !dbg !2834
  call void @_ZN11xalanc_1_1021XPathExecutionContext25GetAndReleaseCachedStringD2Ev(%"class.xalanc_1_10::XPathExecutionContext::GetAndReleaseCachedString"* %theGuard24) #4, !dbg !2835
  br label %eh.resume, !dbg !2835

if.else32:                                        ; preds = %invoke.cont26
  %36 = load %"class.xalanc_1_10::XalanDOMString"*, %"class.xalanc_1_10::XalanDOMString"** %theResult, align 8, !dbg !2836
  %37 = load i32, i32* %thePaddingStringLength, align 4, !dbg !2838
  invoke void @_ZN11xalanc_1_1014XalanDOMString7reserveEj(%"class.xalanc_1_10::XalanDOMString"* %36, i32 %37)
          to label %invoke.cont33 unwind label %lpad25, !dbg !2839

invoke.cont33:                                    ; preds = %if.else32
  call void @llvm.dbg.declare(metadata i32* %theAlignment, metadata !2840, metadata !DIExpression()), !dbg !2841
  store i32 1, i32* %theAlignment, align 4, !dbg !2841
  %38 = load i64, i64* %theSize, align 8, !dbg !2842
  %cmp34 = icmp eq i64 %38, 3, !dbg !2844
  br i1 %cmp34, label %if.then35, label %if.end60, !dbg !2845

if.then35:                                        ; preds = %invoke.cont33
  call void @llvm.dbg.declare(metadata %"class.xalanc_1_10::XalanDOMString"** %theAlignmentString, metadata !2846, metadata !DIExpression()), !dbg !2848
  %39 = load %"class.xalanc_1_10::XalanVector"*, %"class.xalanc_1_10::XalanVector"** %args.addr, align 8, !dbg !2849
  %call37 = invoke dereferenceable(8) %"class.xalanc_1_10::XObjectPtr"* @_ZNK11xalanc_1_1011XalanVectorINS_10XObjectPtrENS_31MemoryManagedConstructionTraitsIS1_EEEixEm(%"class.xalanc_1_10::XalanVector"* %39, i64 2)
          to label %invoke.cont36 unwind label %lpad25, !dbg !2849

invoke.cont36:                                    ; preds = %if.then35
  %call39 = invoke %"class.xalanc_1_10::XObject"* @_ZNK11xalanc_1_1010XObjectPtrptEv(%"class.xalanc_1_10::XObjectPtr"* %call37)
          to label %invoke.cont38 unwind label %lpad25, !dbg !2849

invoke.cont38:                                    ; preds = %invoke.cont36
  %40 = bitcast %"class.xalanc_1_10::XObject"* %call39 to %"class.xalanc_1_10::XalanDOMString"* (%"class.xalanc_1_10::XObject"*)***, !dbg !2850
  %vtable40 = load %"class.xalanc_1_10::XalanDOMString"* (%"class.xalanc_1_10::XObject"*)**, %"class.xalanc_1_10::XalanDOMString"* (%"class.xalanc_1_10::XObject"*)*** %40, align 8, !dbg !2850
  %vfn41 = getelementptr inbounds %"class.xalanc_1_10::XalanDOMString"* (%"class.xalanc_1_10::XObject"*)*, %"class.xalanc_1_10::XalanDOMString"* (%"class.xalanc_1_10::XObject"*)** %vtable40, i64 8, !dbg !2850
  %41 = load %"class.xalanc_1_10::XalanDOMString"* (%"class.xalanc_1_10::XObject"*)*, %"class.xalanc_1_10::XalanDOMString"* (%"class.xalanc_1_10::XObject"*)** %vfn41, align 8, !dbg !2850
  %call43 = invoke dereferenceable(40) %"class.xalanc_1_10::XalanDOMString"* %41(%"class.xalanc_1_10::XObject"* %call39)
          to label %invoke.cont42 unwind label %lpad25, !dbg !2850

invoke.cont42:                                    ; preds = %invoke.cont38
  store %"class.xalanc_1_10::XalanDOMString"* %call43, %"class.xalanc_1_10::XalanDOMString"** %theAlignmentString, align 8, !dbg !2848
  %42 = load %"class.xalanc_1_10::XalanDOMString"*, %"class.xalanc_1_10::XalanDOMString"** %theAlignmentString, align 8, !dbg !2851
  %call45 = invoke i16* @_ZNK11xalanc_1_1014XalanDOMString5c_strEv(%"class.xalanc_1_10::XalanDOMString"* %42)
          to label %invoke.cont44 unwind label %lpad25, !dbg !2853

invoke.cont44:                                    ; preds = %invoke.cont42
  %call47 = invoke zeroext i1 @_ZN11xalanc_1_106equalsEPKtS1_j(i16* getelementptr inbounds ([7 x i16], [7 x i16]* @_ZN11xalanc_1_1023XalanEXSLTFunctionAlign14s_centerStringE, i64 0, i64 0), i16* %call45, i32 6)
          to label %invoke.cont46 unwind label %lpad25, !dbg !2854

invoke.cont46:                                    ; preds = %invoke.cont44
  %conv = zext i1 %call47 to i32, !dbg !2854
  %cmp48 = icmp eq i32 %conv, 1, !dbg !2855
  br i1 %cmp48, label %if.then49, label %if.else50, !dbg !2856

if.then49:                                        ; preds = %invoke.cont46
  store i32 0, i32* %theAlignment, align 4, !dbg !2857
  br label %if.end59, !dbg !2859

if.else50:                                        ; preds = %invoke.cont46
  %43 = load %"class.xalanc_1_10::XalanDOMString"*, %"class.xalanc_1_10::XalanDOMString"** %theAlignmentString, align 8, !dbg !2860
  %call52 = invoke i16* @_ZNK11xalanc_1_1014XalanDOMString5c_strEv(%"class.xalanc_1_10::XalanDOMString"* %43)
          to label %invoke.cont51 unwind label %lpad25, !dbg !2862

invoke.cont51:                                    ; preds = %if.else50
  %call54 = invoke zeroext i1 @_ZN11xalanc_1_106equalsEPKtS1_j(i16* getelementptr inbounds ([6 x i16], [6 x i16]* @_ZN11xalanc_1_1023XalanEXSLTFunctionAlign13s_rightStringE, i64 0, i64 0), i16* %call52, i32 5)
          to label %invoke.cont53 unwind label %lpad25, !dbg !2863

invoke.cont53:                                    ; preds = %invoke.cont51
  %conv55 = zext i1 %call54 to i32, !dbg !2863
  %cmp56 = icmp eq i32 %conv55, 1, !dbg !2864
  br i1 %cmp56, label %if.then57, label %if.end58, !dbg !2865

if.then57:                                        ; preds = %invoke.cont53
  store i32 2, i32* %theAlignment, align 4, !dbg !2866
  br label %if.end58, !dbg !2868

if.end58:                                         ; preds = %if.then57, %invoke.cont53
  br label %if.end59

if.end59:                                         ; preds = %if.end58, %if.then49
  br label %if.end60, !dbg !2869

if.end60:                                         ; preds = %if.end59, %invoke.cont33
  %44 = load i32, i32* %theAlignment, align 4, !dbg !2870
  %cmp61 = icmp eq i32 %44, 1, !dbg !2872
  br i1 %cmp61, label %if.then62, label %if.else67, !dbg !2873

if.then62:                                        ; preds = %if.end60
  %45 = load %"class.xalanc_1_10::XalanDOMString"*, %"class.xalanc_1_10::XalanDOMString"** %theTargetString, align 8, !dbg !2874
  %46 = load %"class.xalanc_1_10::XalanDOMString"*, %"class.xalanc_1_10::XalanDOMString"** %theResult, align 8, !dbg !2876
  %call64 = invoke dereferenceable(40) %"class.xalanc_1_10::XalanDOMString"* @_ZN11xalanc_1_1014XalanDOMStringaSERKS0_(%"class.xalanc_1_10::XalanDOMString"* %46, %"class.xalanc_1_10::XalanDOMString"* dereferenceable(40) %45)
          to label %invoke.cont63 unwind label %lpad25, !dbg !2877

invoke.cont63:                                    ; preds = %if.then62
  %47 = load %"class.xalanc_1_10::XalanDOMString"*, %"class.xalanc_1_10::XalanDOMString"** %theResult, align 8, !dbg !2878
  %48 = load %"class.xalanc_1_10::XalanDOMString"*, %"class.xalanc_1_10::XalanDOMString"** %thePaddingString, align 8, !dbg !2879
  %49 = load i32, i32* %theTargetStringLength, align 4, !dbg !2880
  %50 = load i32, i32* %thePaddingStringLength, align 4, !dbg !2881
  %51 = load i32, i32* %theTargetStringLength, align 4, !dbg !2882
  %sub = sub i32 %50, %51, !dbg !2883
  %call66 = invoke dereferenceable(40) %"class.xalanc_1_10::XalanDOMString"* @_ZN11xalanc_1_1014XalanDOMString6appendERKS0_jj(%"class.xalanc_1_10::XalanDOMString"* %47, %"class.xalanc_1_10::XalanDOMString"* dereferenceable(40) %48, i32 %49, i32 %sub)
          to label %invoke.cont65 unwind label %lpad25, !dbg !2884

invoke.cont65:                                    ; preds = %invoke.cont63
  br label %if.end89, !dbg !2885

if.else67:                                        ; preds = %if.end60
  %52 = load i32, i32* %theAlignment, align 4, !dbg !2886
  %cmp68 = icmp eq i32 %52, 2, !dbg !2888
  br i1 %cmp68, label %if.then69, label %if.else75, !dbg !2889

if.then69:                                        ; preds = %if.else67
  %53 = load %"class.xalanc_1_10::XalanDOMString"*, %"class.xalanc_1_10::XalanDOMString"** %theResult, align 8, !dbg !2890
  %54 = load %"class.xalanc_1_10::XalanDOMString"*, %"class.xalanc_1_10::XalanDOMString"** %thePaddingString, align 8, !dbg !2892
  %55 = load i32, i32* %thePaddingStringLength, align 4, !dbg !2893
  %56 = load i32, i32* %theTargetStringLength, align 4, !dbg !2894
  %sub70 = sub i32 %55, %56, !dbg !2895
  %call72 = invoke dereferenceable(40) %"class.xalanc_1_10::XalanDOMString"* @_ZN11xalanc_1_1014XalanDOMString6assignERKS0_jj(%"class.xalanc_1_10::XalanDOMString"* %53, %"class.xalanc_1_10::XalanDOMString"* dereferenceable(40) %54, i32 0, i32 %sub70)
          to label %invoke.cont71 unwind label %lpad25, !dbg !2896

invoke.cont71:                                    ; preds = %if.then69
  %57 = load %"class.xalanc_1_10::XalanDOMString"*, %"class.xalanc_1_10::XalanDOMString"** %theResult, align 8, !dbg !2897
  %58 = load %"class.xalanc_1_10::XalanDOMString"*, %"class.xalanc_1_10::XalanDOMString"** %theTargetString, align 8, !dbg !2898
  %call74 = invoke dereferenceable(40) %"class.xalanc_1_10::XalanDOMString"* @_ZN11xalanc_1_1014XalanDOMString6appendERKS0_(%"class.xalanc_1_10::XalanDOMString"* %57, %"class.xalanc_1_10::XalanDOMString"* dereferenceable(40) %58)
          to label %invoke.cont73 unwind label %lpad25, !dbg !2899

invoke.cont73:                                    ; preds = %invoke.cont71
  br label %if.end88, !dbg !2900

if.else75:                                        ; preds = %if.else67
  %59 = load i32, i32* %theAlignment, align 4, !dbg !2901
  %cmp76 = icmp eq i32 %59, 0, !dbg !2903
  br i1 %cmp76, label %if.then77, label %if.end87, !dbg !2904

if.then77:                                        ; preds = %if.else75
  call void @llvm.dbg.declare(metadata i32* %theStartIndex, metadata !2905, metadata !DIExpression()), !dbg !2907
  %60 = load i32, i32* %thePaddingStringLength, align 4, !dbg !2908
  %61 = load i32, i32* %theTargetStringLength, align 4, !dbg !2909
  %sub78 = sub i32 %60, %61, !dbg !2910
  %div = udiv i32 %sub78, 2, !dbg !2911
  store i32 %div, i32* %theStartIndex, align 4, !dbg !2907
  %62 = load %"class.xalanc_1_10::XalanDOMString"*, %"class.xalanc_1_10::XalanDOMString"** %theResult, align 8, !dbg !2912
  %63 = load %"class.xalanc_1_10::XalanDOMString"*, %"class.xalanc_1_10::XalanDOMString"** %thePaddingString, align 8, !dbg !2913
  %64 = load i32, i32* %theStartIndex, align 4, !dbg !2914
  %call80 = invoke dereferenceable(40) %"class.xalanc_1_10::XalanDOMString"* @_ZN11xalanc_1_1014XalanDOMString6assignERKS0_jj(%"class.xalanc_1_10::XalanDOMString"* %62, %"class.xalanc_1_10::XalanDOMString"* dereferenceable(40) %63, i32 0, i32 %64)
          to label %invoke.cont79 unwind label %lpad25, !dbg !2915

invoke.cont79:                                    ; preds = %if.then77
  %65 = load %"class.xalanc_1_10::XalanDOMString"*, %"class.xalanc_1_10::XalanDOMString"** %theResult, align 8, !dbg !2916
  %66 = load %"class.xalanc_1_10::XalanDOMString"*, %"class.xalanc_1_10::XalanDOMString"** %theTargetString, align 8, !dbg !2917
  %call82 = invoke dereferenceable(40) %"class.xalanc_1_10::XalanDOMString"* @_ZN11xalanc_1_1014XalanDOMString6appendERKS0_(%"class.xalanc_1_10::XalanDOMString"* %65, %"class.xalanc_1_10::XalanDOMString"* dereferenceable(40) %66)
          to label %invoke.cont81 unwind label %lpad25, !dbg !2918

invoke.cont81:                                    ; preds = %invoke.cont79
  %67 = load %"class.xalanc_1_10::XalanDOMString"*, %"class.xalanc_1_10::XalanDOMString"** %theResult, align 8, !dbg !2919
  %68 = load %"class.xalanc_1_10::XalanDOMString"*, %"class.xalanc_1_10::XalanDOMString"** %thePaddingString, align 8, !dbg !2920
  %69 = load i32, i32* %theTargetStringLength, align 4, !dbg !2921
  %70 = load i32, i32* %theStartIndex, align 4, !dbg !2922
  %add = add i32 %69, %70, !dbg !2923
  %71 = load i32, i32* %thePaddingStringLength, align 4, !dbg !2924
  %72 = load i32, i32* %theTargetStringLength, align 4, !dbg !2925
  %sub83 = sub i32 %71, %72, !dbg !2926
  %73 = load i32, i32* %theStartIndex, align 4, !dbg !2927
  %sub84 = sub i32 %sub83, %73, !dbg !2928
  %call86 = invoke dereferenceable(40) %"class.xalanc_1_10::XalanDOMString"* @_ZN11xalanc_1_1014XalanDOMString6appendERKS0_jj(%"class.xalanc_1_10::XalanDOMString"* %67, %"class.xalanc_1_10::XalanDOMString"* dereferenceable(40) %68, i32 %add, i32 %sub84)
          to label %invoke.cont85 unwind label %lpad25, !dbg !2929

invoke.cont85:                                    ; preds = %invoke.cont81
  br label %if.end87, !dbg !2930

if.end87:                                         ; preds = %invoke.cont85, %if.else75
  br label %if.end88

if.end88:                                         ; preds = %if.end87, %invoke.cont73
  br label %if.end89

if.end89:                                         ; preds = %if.end88, %invoke.cont65
  br label %if.end90

if.end90:                                         ; preds = %if.end89, %invoke.cont30
  %74 = load %"class.xalanc_1_10::XPathExecutionContext"*, %"class.xalanc_1_10::XPathExecutionContext"** %executionContext.addr, align 8, !dbg !2931
  %call92 = invoke dereferenceable(16) %"class.xalanc_1_10::XObjectFactory"* @_ZNK11xalanc_1_1021XPathExecutionContext17getXObjectFactoryEv(%"class.xalanc_1_10::XPathExecutionContext"* %74)
          to label %invoke.cont91 unwind label %lpad25, !dbg !2932

invoke.cont91:                                    ; preds = %if.end90
  %75 = load %"class.xalanc_1_10::XalanDOMString"*, %"class.xalanc_1_10::XalanDOMString"** %theResult, align 8, !dbg !2933
  %76 = bitcast %"class.xalanc_1_10::XObjectFactory"* %call92 to void (%"class.xalanc_1_10::XObjectPtr"*, %"class.xalanc_1_10::XObjectFactory"*, %"class.xalanc_1_10::XalanDOMString"*)***, !dbg !2934
  %vtable93 = load void (%"class.xalanc_1_10::XObjectPtr"*, %"class.xalanc_1_10::XObjectFactory"*, %"class.xalanc_1_10::XalanDOMString"*)**, void (%"class.xalanc_1_10::XObjectPtr"*, %"class.xalanc_1_10::XObjectFactory"*, %"class.xalanc_1_10::XalanDOMString"*)*** %76, align 8, !dbg !2934
  %vfn94 = getelementptr inbounds void (%"class.xalanc_1_10::XObjectPtr"*, %"class.xalanc_1_10::XObjectFactory"*, %"class.xalanc_1_10::XalanDOMString"*)*, void (%"class.xalanc_1_10::XObjectPtr"*, %"class.xalanc_1_10::XObjectFactory"*, %"class.xalanc_1_10::XalanDOMString"*)** %vtable93, i64 9, !dbg !2934
  %77 = load void (%"class.xalanc_1_10::XObjectPtr"*, %"class.xalanc_1_10::XObjectFactory"*, %"class.xalanc_1_10::XalanDOMString"*)*, void (%"class.xalanc_1_10::XObjectPtr"*, %"class.xalanc_1_10::XObjectFactory"*, %"class.xalanc_1_10::XalanDOMString"*)** %vfn94, align 8, !dbg !2934
  invoke void %77(%"class.xalanc_1_10::XObjectPtr"* sret %agg.result, %"class.xalanc_1_10::XObjectFactory"* %call92, %"class.xalanc_1_10::XalanDOMString"* dereferenceable(40) %75)
          to label %invoke.cont95 unwind label %lpad25, !dbg !2934

invoke.cont95:                                    ; preds = %invoke.cont91
  call void @_ZN11xalanc_1_1021XPathExecutionContext25GetAndReleaseCachedStringD2Ev(%"class.xalanc_1_10::XPathExecutionContext::GetAndReleaseCachedString"* %theGuard24) #4, !dbg !2835
  br label %return

return:                                           ; preds = %invoke.cont95, %if.then22
  ret void, !dbg !2935

eh.resume:                                        ; preds = %lpad25, %lpad
  %exn = load i8*, i8** %exn.slot, align 8, !dbg !2788
  %sel = load i32, i32* %ehselector.slot, align 4, !dbg !2788
  %lpad.val = insertvalue { i8*, i32 } undef, i8* %exn, 0, !dbg !2788
  %lpad.val96 = insertvalue { i8*, i32 } %lpad.val, i32 %sel, 1, !dbg !2788
  resume { i8*, i32 } %lpad.val96, !dbg !2788
}

; Function Attrs: nounwind readnone speculatable willreturn
declare void @llvm.dbg.declare(metadata, metadata, metadata) #1

; Function Attrs: noinline uwtable
define linkonce_odr dso_local i64 @_ZNK11xalanc_1_1011XalanVectorINS_10XObjectPtrENS_31MemoryManagedConstructionTraitsIS1_EEE4sizeEv(%"class.xalanc_1_10::XalanVector"* %this) #0 comdat align 2 !dbg !2936 {
entry:
  %this.addr = alloca %"class.xalanc_1_10::XalanVector"*, align 8
  store %"class.xalanc_1_10::XalanVector"* %this, %"class.xalanc_1_10::XalanVector"** %this.addr, align 8
  call void @llvm.dbg.declare(metadata %"class.xalanc_1_10::XalanVector"** %this.addr, metadata !2937, metadata !DIExpression()), !dbg !2939
  %this1 = load %"class.xalanc_1_10::XalanVector"*, %"class.xalanc_1_10::XalanVector"** %this.addr, align 8
  call void @_ZNK11xalanc_1_1011XalanVectorINS_10XObjectPtrENS_31MemoryManagedConstructionTraitsIS1_EEE10invariantsEv(%"class.xalanc_1_10::XalanVector"* %this1), !dbg !2940
  %m_size = getelementptr inbounds %"class.xalanc_1_10::XalanVector", %"class.xalanc_1_10::XalanVector"* %this1, i32 0, i32 1, !dbg !2941
  %0 = load i64, i64* %m_size, align 8, !dbg !2941
  ret i64 %0, !dbg !2942
}

; Function Attrs: noinline uwtable
define linkonce_odr dso_local void @_ZN11xalanc_1_1021XPathExecutionContext25GetAndReleaseCachedStringC2ERS0_(%"class.xalanc_1_10::XPathExecutionContext::GetAndReleaseCachedString"* %this, %"class.xalanc_1_10::XPathExecutionContext"* dereferenceable(24) %theExecutionContext) unnamed_addr #0 comdat align 2 !dbg !2943 {
entry:
  %this.addr = alloca %"class.xalanc_1_10::XPathExecutionContext::GetAndReleaseCachedString"*, align 8
  %theExecutionContext.addr = alloca %"class.xalanc_1_10::XPathExecutionContext"*, align 8
  store %"class.xalanc_1_10::XPathExecutionContext::GetAndReleaseCachedString"* %this, %"class.xalanc_1_10::XPathExecutionContext::GetAndReleaseCachedString"** %this.addr, align 8
  call void @llvm.dbg.declare(metadata %"class.xalanc_1_10::XPathExecutionContext::GetAndReleaseCachedString"** %this.addr, metadata !2944, metadata !DIExpression()), !dbg !2946
  store %"class.xalanc_1_10::XPathExecutionContext"* %theExecutionContext, %"class.xalanc_1_10::XPathExecutionContext"** %theExecutionContext.addr, align 8
  call void @llvm.dbg.declare(metadata %"class.xalanc_1_10::XPathExecutionContext"** %theExecutionContext.addr, metadata !2947, metadata !DIExpression()), !dbg !2948
  %this1 = load %"class.xalanc_1_10::XPathExecutionContext::GetAndReleaseCachedString"*, %"class.xalanc_1_10::XPathExecutionContext::GetAndReleaseCachedString"** %this.addr, align 8
  %m_executionContext = getelementptr inbounds %"class.xalanc_1_10::XPathExecutionContext::GetAndReleaseCachedString", %"class.xalanc_1_10::XPathExecutionContext::GetAndReleaseCachedString"* %this1, i32 0, i32 0, !dbg !2949
  %0 = load %"class.xalanc_1_10::XPathExecutionContext"*, %"class.xalanc_1_10::XPathExecutionContext"** %theExecutionContext.addr, align 8, !dbg !2950
  store %"class.xalanc_1_10::XPathExecutionContext"* %0, %"class.xalanc_1_10::XPathExecutionContext"** %m_executionContext, align 8, !dbg !2949
  %m_string = getelementptr inbounds %"class.xalanc_1_10::XPathExecutionContext::GetAndReleaseCachedString", %"class.xalanc_1_10::XPathExecutionContext::GetAndReleaseCachedString"* %this1, i32 0, i32 1, !dbg !2951
  %1 = load %"class.xalanc_1_10::XPathExecutionContext"*, %"class.xalanc_1_10::XPathExecutionContext"** %theExecutionContext.addr, align 8, !dbg !2952
  %2 = bitcast %"class.xalanc_1_10::XPathExecutionContext"* %1 to %"class.xalanc_1_10::XalanDOMString"* (%"class.xalanc_1_10::XPathExecutionContext"*)***, !dbg !2953
  %vtable = load %"class.xalanc_1_10::XalanDOMString"* (%"class.xalanc_1_10::XPathExecutionContext"*)**, %"class.xalanc_1_10::XalanDOMString"* (%"class.xalanc_1_10::XPathExecutionContext"*)*** %2, align 8, !dbg !2953
  %vfn = getelementptr inbounds %"class.xalanc_1_10::XalanDOMString"* (%"class.xalanc_1_10::XPathExecutionContext"*)*, %"class.xalanc_1_10::XalanDOMString"* (%"class.xalanc_1_10::XPathExecutionContext"*)** %vtable, i64 23, !dbg !2953
  %3 = load %"class.xalanc_1_10::XalanDOMString"* (%"class.xalanc_1_10::XPathExecutionContext"*)*, %"class.xalanc_1_10::XalanDOMString"* (%"class.xalanc_1_10::XPathExecutionContext"*)** %vfn, align 8, !dbg !2953
  %call = call dereferenceable(40) %"class.xalanc_1_10::XalanDOMString"* %3(%"class.xalanc_1_10::XPathExecutionContext"* %1), !dbg !2953
  store %"class.xalanc_1_10::XalanDOMString"* %call, %"class.xalanc_1_10::XalanDOMString"** %m_string, align 8, !dbg !2951
  ret void, !dbg !2954
}

; Function Attrs: noinline nounwind uwtable
define linkonce_odr dso_local dereferenceable(40) %"class.xalanc_1_10::XalanDOMString"* @_ZNK11xalanc_1_1021XPathExecutionContext25GetAndReleaseCachedString3getEv(%"class.xalanc_1_10::XPathExecutionContext::GetAndReleaseCachedString"* %this) #2 comdat align 2 !dbg !2955 {
entry:
  %this.addr = alloca %"class.xalanc_1_10::XPathExecutionContext::GetAndReleaseCachedString"*, align 8
  store %"class.xalanc_1_10::XPathExecutionContext::GetAndReleaseCachedString"* %this, %"class.xalanc_1_10::XPathExecutionContext::GetAndReleaseCachedString"** %this.addr, align 8
  call void @llvm.dbg.declare(metadata %"class.xalanc_1_10::XPathExecutionContext::GetAndReleaseCachedString"** %this.addr, metadata !2956, metadata !DIExpression()), !dbg !2958
  %this1 = load %"class.xalanc_1_10::XPathExecutionContext::GetAndReleaseCachedString"*, %"class.xalanc_1_10::XPathExecutionContext::GetAndReleaseCachedString"** %this.addr, align 8
  %m_string = getelementptr inbounds %"class.xalanc_1_10::XPathExecutionContext::GetAndReleaseCachedString", %"class.xalanc_1_10::XPathExecutionContext::GetAndReleaseCachedString"* %this1, i32 0, i32 1, !dbg !2959
  %0 = load %"class.xalanc_1_10::XalanDOMString"*, %"class.xalanc_1_10::XalanDOMString"** %m_string, align 8, !dbg !2959
  ret %"class.xalanc_1_10::XalanDOMString"* %0, !dbg !2960
}

declare dso_local i32 @__gxx_personality_v0(...)

; Function Attrs: noinline nounwind uwtable
define linkonce_odr dso_local void @_ZN11xalanc_1_1021XPathExecutionContext25GetAndReleaseCachedStringD2Ev(%"class.xalanc_1_10::XPathExecutionContext::GetAndReleaseCachedString"* %this) unnamed_addr #2 comdat align 2 personality i8* bitcast (i32 (...)* @__gxx_personality_v0 to i8*) !dbg !2961 {
entry:
  %this.addr = alloca %"class.xalanc_1_10::XPathExecutionContext::GetAndReleaseCachedString"*, align 8
  store %"class.xalanc_1_10::XPathExecutionContext::GetAndReleaseCachedString"* %this, %"class.xalanc_1_10::XPathExecutionContext::GetAndReleaseCachedString"** %this.addr, align 8
  call void @llvm.dbg.declare(metadata %"class.xalanc_1_10::XPathExecutionContext::GetAndReleaseCachedString"** %this.addr, metadata !2962, metadata !DIExpression()), !dbg !2963
  %this1 = load %"class.xalanc_1_10::XPathExecutionContext::GetAndReleaseCachedString"*, %"class.xalanc_1_10::XPathExecutionContext::GetAndReleaseCachedString"** %this.addr, align 8
  %m_string = getelementptr inbounds %"class.xalanc_1_10::XPathExecutionContext::GetAndReleaseCachedString", %"class.xalanc_1_10::XPathExecutionContext::GetAndReleaseCachedString"* %this1, i32 0, i32 1, !dbg !2964
  %0 = load %"class.xalanc_1_10::XalanDOMString"*, %"class.xalanc_1_10::XalanDOMString"** %m_string, align 8, !dbg !2964
  %cmp = icmp ne %"class.xalanc_1_10::XalanDOMString"* %0, null, !dbg !2967
  br i1 %cmp, label %if.then, label %if.end, !dbg !2968

if.then:                                          ; preds = %entry
  %m_executionContext = getelementptr inbounds %"class.xalanc_1_10::XPathExecutionContext::GetAndReleaseCachedString", %"class.xalanc_1_10::XPathExecutionContext::GetAndReleaseCachedString"* %this1, i32 0, i32 0, !dbg !2969
  %1 = load %"class.xalanc_1_10::XPathExecutionContext"*, %"class.xalanc_1_10::XPathExecutionContext"** %m_executionContext, align 8, !dbg !2969
  %m_string2 = getelementptr inbounds %"class.xalanc_1_10::XPathExecutionContext::GetAndReleaseCachedString", %"class.xalanc_1_10::XPathExecutionContext::GetAndReleaseCachedString"* %this1, i32 0, i32 1, !dbg !2971
  %2 = load %"class.xalanc_1_10::XalanDOMString"*, %"class.xalanc_1_10::XalanDOMString"** %m_string2, align 8, !dbg !2971
  %3 = bitcast %"class.xalanc_1_10::XPathExecutionContext"* %1 to i1 (%"class.xalanc_1_10::XPathExecutionContext"*, %"class.xalanc_1_10::XalanDOMString"*)***, !dbg !2972
  %vtable = load i1 (%"class.xalanc_1_10::XPathExecutionContext"*, %"class.xalanc_1_10::XalanDOMString"*)**, i1 (%"class.xalanc_1_10::XPathExecutionContext"*, %"class.xalanc_1_10::XalanDOMString"*)*** %3, align 8, !dbg !2972
  %vfn = getelementptr inbounds i1 (%"class.xalanc_1_10::XPathExecutionContext"*, %"class.xalanc_1_10::XalanDOMString"*)*, i1 (%"class.xalanc_1_10::XPathExecutionContext"*, %"class.xalanc_1_10::XalanDOMString"*)** %vtable, i64 24, !dbg !2972
  %4 = load i1 (%"class.xalanc_1_10::XPathExecutionContext"*, %"class.xalanc_1_10::XalanDOMString"*)*, i1 (%"class.xalanc_1_10::XPathExecutionContext"*, %"class.xalanc_1_10::XalanDOMString"*)** %vfn, align 8, !dbg !2972
  %call = invoke zeroext i1 %4(%"class.xalanc_1_10::XPathExecutionContext"* %1, %"class.xalanc_1_10::XalanDOMString"* dereferenceable(40) %2)
          to label %invoke.cont unwind label %terminate.lpad, !dbg !2972

invoke.cont:                                      ; preds = %if.then
  br label %if.end, !dbg !2973

if.end:                                           ; preds = %invoke.cont, %entry
  ret void, !dbg !2974

terminate.lpad:                                   ; preds = %if.then
  %5 = landingpad { i8*, i32 }
          catch i8* null, !dbg !2972
  %6 = extractvalue { i8*, i32 } %5, 0, !dbg !2972
  call void @__clang_call_terminate(i8* %6) #9, !dbg !2972
  unreachable, !dbg !2972
}

; Function Attrs: noinline nounwind uwtable
define linkonce_odr dso_local dereferenceable(8) %"class.xalanc_1_10::XObjectPtr"* @_ZNK11xalanc_1_1011XalanVectorINS_10XObjectPtrENS_31MemoryManagedConstructionTraitsIS1_EEEixEm(%"class.xalanc_1_10::XalanVector"* %this, i64 %theIndex) #2 comdat align 2 !dbg !2975 {
entry:
  %this.addr = alloca %"class.xalanc_1_10::XalanVector"*, align 8
  %theIndex.addr = alloca i64, align 8
  store %"class.xalanc_1_10::XalanVector"* %this, %"class.xalanc_1_10::XalanVector"** %this.addr, align 8
  call void @llvm.dbg.declare(metadata %"class.xalanc_1_10::XalanVector"** %this.addr, metadata !2976, metadata !DIExpression()), !dbg !2977
  store i64 %theIndex, i64* %theIndex.addr, align 8
  call void @llvm.dbg.declare(metadata i64* %theIndex.addr, metadata !2978, metadata !DIExpression()), !dbg !2979
  %this1 = load %"class.xalanc_1_10::XalanVector"*, %"class.xalanc_1_10::XalanVector"** %this.addr, align 8
  %m_data = getelementptr inbounds %"class.xalanc_1_10::XalanVector", %"class.xalanc_1_10::XalanVector"* %this1, i32 0, i32 3, !dbg !2980
  %0 = load %"class.xalanc_1_10::XObjectPtr"*, %"class.xalanc_1_10::XObjectPtr"** %m_data, align 8, !dbg !2980
  %1 = load i64, i64* %theIndex.addr, align 8, !dbg !2981
  %arrayidx = getelementptr inbounds %"class.xalanc_1_10::XObjectPtr", %"class.xalanc_1_10::XObjectPtr"* %0, i64 %1, !dbg !2980
  ret %"class.xalanc_1_10::XObjectPtr"* %arrayidx, !dbg !2982
}

; Function Attrs: noinline nounwind uwtable
define linkonce_odr dso_local %"class.xalanc_1_10::XObject"* @_ZNK11xalanc_1_1010XObjectPtrptEv(%"class.xalanc_1_10::XObjectPtr"* %this) #2 comdat align 2 !dbg !2983 {
entry:
  %this.addr = alloca %"class.xalanc_1_10::XObjectPtr"*, align 8
  store %"class.xalanc_1_10::XObjectPtr"* %this, %"class.xalanc_1_10::XObjectPtr"** %this.addr, align 8
  call void @llvm.dbg.declare(metadata %"class.xalanc_1_10::XObjectPtr"** %this.addr, metadata !2984, metadata !DIExpression()), !dbg !2986
  %this1 = load %"class.xalanc_1_10::XObjectPtr"*, %"class.xalanc_1_10::XObjectPtr"** %this.addr, align 8
  %m_xobjectPtr = getelementptr inbounds %"class.xalanc_1_10::XObjectPtr", %"class.xalanc_1_10::XObjectPtr"* %this1, i32 0, i32 0, !dbg !2987
  %0 = load %"class.xalanc_1_10::XObject"*, %"class.xalanc_1_10::XObject"** %m_xobjectPtr, align 8, !dbg !2987
  ret %"class.xalanc_1_10::XObject"* %0, !dbg !2988
}

; Function Attrs: noinline uwtable
define linkonce_odr dso_local i32 @_ZNK11xalanc_1_1014XalanDOMString6lengthEv(%"class.xalanc_1_10::XalanDOMString"* %this) #0 comdat align 2 !dbg !2989 {
entry:
  %this.addr = alloca %"class.xalanc_1_10::XalanDOMString"*, align 8
  store %"class.xalanc_1_10::XalanDOMString"* %this, %"class.xalanc_1_10::XalanDOMString"** %this.addr, align 8
  call void @llvm.dbg.declare(metadata %"class.xalanc_1_10::XalanDOMString"** %this.addr, metadata !2990, metadata !DIExpression()), !dbg !2992
  %this1 = load %"class.xalanc_1_10::XalanDOMString"*, %"class.xalanc_1_10::XalanDOMString"** %this.addr, align 8
  call void @_ZNK11xalanc_1_1014XalanDOMString10invariantsEv(%"class.xalanc_1_10::XalanDOMString"* %this1), !dbg !2993
  %call = call i32 @_ZNK11xalanc_1_1014XalanDOMString4sizeEv(%"class.xalanc_1_10::XalanDOMString"* %this1), !dbg !2994
  ret i32 %call, !dbg !2995
}

; Function Attrs: noinline uwtable
define linkonce_odr dso_local void @_ZN11xalanc_1_1010XObjectPtrC2ERKS0_(%"class.xalanc_1_10::XObjectPtr"* %this, %"class.xalanc_1_10::XObjectPtr"* dereferenceable(8) %theSource) unnamed_addr #0 comdat align 2 !dbg !2996 {
entry:
  %this.addr = alloca %"class.xalanc_1_10::XObjectPtr"*, align 8
  %theSource.addr = alloca %"class.xalanc_1_10::XObjectPtr"*, align 8
  store %"class.xalanc_1_10::XObjectPtr"* %this, %"class.xalanc_1_10::XObjectPtr"** %this.addr, align 8
  call void @llvm.dbg.declare(metadata %"class.xalanc_1_10::XObjectPtr"** %this.addr, metadata !2997, metadata !DIExpression()), !dbg !2999
  store %"class.xalanc_1_10::XObjectPtr"* %theSource, %"class.xalanc_1_10::XObjectPtr"** %theSource.addr, align 8
  call void @llvm.dbg.declare(metadata %"class.xalanc_1_10::XObjectPtr"** %theSource.addr, metadata !3000, metadata !DIExpression()), !dbg !3001
  %this1 = load %"class.xalanc_1_10::XObjectPtr"*, %"class.xalanc_1_10::XObjectPtr"** %this.addr, align 8
  %m_xobjectPtr = getelementptr inbounds %"class.xalanc_1_10::XObjectPtr", %"class.xalanc_1_10::XObjectPtr"* %this1, i32 0, i32 0, !dbg !3002
  %0 = load %"class.xalanc_1_10::XObjectPtr"*, %"class.xalanc_1_10::XObjectPtr"** %theSource.addr, align 8, !dbg !3003
  %m_xobjectPtr2 = getelementptr inbounds %"class.xalanc_1_10::XObjectPtr", %"class.xalanc_1_10::XObjectPtr"* %0, i32 0, i32 0, !dbg !3004
  %1 = load %"class.xalanc_1_10::XObject"*, %"class.xalanc_1_10::XObject"** %m_xobjectPtr2, align 8, !dbg !3004
  store %"class.xalanc_1_10::XObject"* %1, %"class.xalanc_1_10::XObject"** %m_xobjectPtr, align 8, !dbg !3002
  %m_xobjectPtr3 = getelementptr inbounds %"class.xalanc_1_10::XObjectPtr", %"class.xalanc_1_10::XObjectPtr"* %this1, i32 0, i32 0, !dbg !3005
  %2 = load %"class.xalanc_1_10::XObject"*, %"class.xalanc_1_10::XObject"** %m_xobjectPtr3, align 8, !dbg !3005
  %3 = bitcast %"class.xalanc_1_10::XObject"* %2 to %"class.xalanc_1_10::XalanReferenceCountedObject"*, !dbg !3005
  call void @_ZN11xalanc_1_1027XalanReferenceCountedObject12addReferenceEPS0_(%"class.xalanc_1_10::XalanReferenceCountedObject"* %3), !dbg !3007
  ret void, !dbg !3008
}

declare dso_local dereferenceable(40) %"class.xalanc_1_10::XalanDOMString"* @_ZN11xalanc_1_1014XalanDOMString6assignERKS0_jj(%"class.xalanc_1_10::XalanDOMString"*, %"class.xalanc_1_10::XalanDOMString"* dereferenceable(40), i32, i32) #3

; Function Attrs: noinline uwtable
define linkonce_odr dso_local void @_ZN11xalanc_1_1014XalanDOMString7reserveEj(%"class.xalanc_1_10::XalanDOMString"* %this, i32 %theCount) #0 comdat align 2 !dbg !3009 {
entry:
  %this.addr = alloca %"class.xalanc_1_10::XalanDOMString"*, align 8
  %theCount.addr = alloca i32, align 4
  store %"class.xalanc_1_10::XalanDOMString"* %this, %"class.xalanc_1_10::XalanDOMString"** %this.addr, align 8
  call void @llvm.dbg.declare(metadata %"class.xalanc_1_10::XalanDOMString"** %this.addr, metadata !3010, metadata !DIExpression()), !dbg !3011
  store i32 %theCount, i32* %theCount.addr, align 4
  call void @llvm.dbg.declare(metadata i32* %theCount.addr, metadata !3012, metadata !DIExpression()), !dbg !3013
  %this1 = load %"class.xalanc_1_10::XalanDOMString"*, %"class.xalanc_1_10::XalanDOMString"** %this.addr, align 8
  call void @_ZNK11xalanc_1_1014XalanDOMString10invariantsEv(%"class.xalanc_1_10::XalanDOMString"* %this1), !dbg !3014
  %m_data = getelementptr inbounds %"class.xalanc_1_10::XalanDOMString", %"class.xalanc_1_10::XalanDOMString"* %this1, i32 0, i32 0, !dbg !3015
  %0 = load i32, i32* %theCount.addr, align 4, !dbg !3016
  %add = add i32 %0, 1, !dbg !3017
  %conv = zext i32 %add to i64, !dbg !3016
  call void @_ZN11xalanc_1_1011XalanVectorItNS_31MemoryManagedConstructionTraitsItEEE7reserveEm(%"class.xalanc_1_10::XalanVector.0"* %m_data, i64 %conv), !dbg !3018
  ret void, !dbg !3019
}

declare dso_local zeroext i1 @_ZN11xalanc_1_106equalsEPKtS1_j(i16*, i16*, i32) #3

; Function Attrs: noinline uwtable
define linkonce_odr dso_local i16* @_ZNK11xalanc_1_1014XalanDOMString5c_strEv(%"class.xalanc_1_10::XalanDOMString"* %this) #0 comdat align 2 !dbg !3020 {
entry:
  %this.addr = alloca %"class.xalanc_1_10::XalanDOMString"*, align 8
  store %"class.xalanc_1_10::XalanDOMString"* %this, %"class.xalanc_1_10::XalanDOMString"** %this.addr, align 8
  call void @llvm.dbg.declare(metadata %"class.xalanc_1_10::XalanDOMString"** %this.addr, metadata !3021, metadata !DIExpression()), !dbg !3022
  %this1 = load %"class.xalanc_1_10::XalanDOMString"*, %"class.xalanc_1_10::XalanDOMString"** %this.addr, align 8
  call void @_ZNK11xalanc_1_1014XalanDOMString10invariantsEv(%"class.xalanc_1_10::XalanDOMString"* %this1), !dbg !3023
  %m_data = getelementptr inbounds %"class.xalanc_1_10::XalanDOMString", %"class.xalanc_1_10::XalanDOMString"* %this1, i32 0, i32 0, !dbg !3024
  %call = call zeroext i1 @_ZNK11xalanc_1_1011XalanVectorItNS_31MemoryManagedConstructionTraitsItEEE5emptyEv(%"class.xalanc_1_10::XalanVector.0"* %m_data), !dbg !3025
  %conv = zext i1 %call to i32, !dbg !3024
  %cmp = icmp eq i32 %conv, 1, !dbg !3026
  br i1 %cmp, label %cond.true, label %cond.false, !dbg !3024

cond.true:                                        ; preds = %entry
  br label %cond.end, !dbg !3024

cond.false:                                       ; preds = %entry
  %m_data2 = getelementptr inbounds %"class.xalanc_1_10::XalanDOMString", %"class.xalanc_1_10::XalanDOMString"* %this1, i32 0, i32 0, !dbg !3027
  %call3 = call dereferenceable(2) i16* @_ZNK11xalanc_1_1011XalanVectorItNS_31MemoryManagedConstructionTraitsItEEEixEm(%"class.xalanc_1_10::XalanVector.0"* %m_data2, i64 0), !dbg !3027
  br label %cond.end, !dbg !3024

cond.end:                                         ; preds = %cond.false, %cond.true
  %cond = phi i16* [ @_ZN11xalanc_1_1014XalanDOMString7s_emptyE, %cond.true ], [ %call3, %cond.false ], !dbg !3024
  ret i16* %cond, !dbg !3028
}

; Function Attrs: noinline uwtable
define linkonce_odr dso_local dereferenceable(40) %"class.xalanc_1_10::XalanDOMString"* @_ZN11xalanc_1_1014XalanDOMStringaSERKS0_(%"class.xalanc_1_10::XalanDOMString"* %this, %"class.xalanc_1_10::XalanDOMString"* dereferenceable(40) %theRHS) #0 comdat align 2 !dbg !3029 {
entry:
  %this.addr = alloca %"class.xalanc_1_10::XalanDOMString"*, align 8
  %theRHS.addr = alloca %"class.xalanc_1_10::XalanDOMString"*, align 8
  store %"class.xalanc_1_10::XalanDOMString"* %this, %"class.xalanc_1_10::XalanDOMString"** %this.addr, align 8
  call void @llvm.dbg.declare(metadata %"class.xalanc_1_10::XalanDOMString"** %this.addr, metadata !3030, metadata !DIExpression()), !dbg !3031
  store %"class.xalanc_1_10::XalanDOMString"* %theRHS, %"class.xalanc_1_10::XalanDOMString"** %theRHS.addr, align 8
  call void @llvm.dbg.declare(metadata %"class.xalanc_1_10::XalanDOMString"** %theRHS.addr, metadata !3032, metadata !DIExpression()), !dbg !3033
  %this1 = load %"class.xalanc_1_10::XalanDOMString"*, %"class.xalanc_1_10::XalanDOMString"** %this.addr, align 8
  %0 = load %"class.xalanc_1_10::XalanDOMString"*, %"class.xalanc_1_10::XalanDOMString"** %theRHS.addr, align 8, !dbg !3034
  %call = call dereferenceable(40) %"class.xalanc_1_10::XalanDOMString"* @_ZN11xalanc_1_1014XalanDOMString6assignERKS0_(%"class.xalanc_1_10::XalanDOMString"* %this1, %"class.xalanc_1_10::XalanDOMString"* dereferenceable(40) %0), !dbg !3035
  ret %"class.xalanc_1_10::XalanDOMString"* %call, !dbg !3036
}

; Function Attrs: noinline uwtable
define linkonce_odr dso_local dereferenceable(40) %"class.xalanc_1_10::XalanDOMString"* @_ZN11xalanc_1_1014XalanDOMString6appendERKS0_jj(%"class.xalanc_1_10::XalanDOMString"* %this, %"class.xalanc_1_10::XalanDOMString"* dereferenceable(40) %theSource, i32 %thePosition, i32 %theCount) #0 comdat align 2 !dbg !3037 {
entry:
  %this.addr = alloca %"class.xalanc_1_10::XalanDOMString"*, align 8
  %theSource.addr = alloca %"class.xalanc_1_10::XalanDOMString"*, align 8
  %thePosition.addr = alloca i32, align 4
  %theCount.addr = alloca i32, align 4
  store %"class.xalanc_1_10::XalanDOMString"* %this, %"class.xalanc_1_10::XalanDOMString"** %this.addr, align 8
  call void @llvm.dbg.declare(metadata %"class.xalanc_1_10::XalanDOMString"** %this.addr, metadata !3038, metadata !DIExpression()), !dbg !3039
  store %"class.xalanc_1_10::XalanDOMString"* %theSource, %"class.xalanc_1_10::XalanDOMString"** %theSource.addr, align 8
  call void @llvm.dbg.declare(metadata %"class.xalanc_1_10::XalanDOMString"** %theSource.addr, metadata !3040, metadata !DIExpression()), !dbg !3041
  store i32 %thePosition, i32* %thePosition.addr, align 4
  call void @llvm.dbg.declare(metadata i32* %thePosition.addr, metadata !3042, metadata !DIExpression()), !dbg !3043
  store i32 %theCount, i32* %theCount.addr, align 4
  call void @llvm.dbg.declare(metadata i32* %theCount.addr, metadata !3044, metadata !DIExpression()), !dbg !3045
  %this1 = load %"class.xalanc_1_10::XalanDOMString"*, %"class.xalanc_1_10::XalanDOMString"** %this.addr, align 8
  %0 = load %"class.xalanc_1_10::XalanDOMString"*, %"class.xalanc_1_10::XalanDOMString"** %theSource.addr, align 8, !dbg !3046
  %call = call i16* @_ZNK11xalanc_1_1014XalanDOMString5c_strEv(%"class.xalanc_1_10::XalanDOMString"* %0), !dbg !3047
  %1 = load i32, i32* %thePosition.addr, align 4, !dbg !3048
  %idx.ext = zext i32 %1 to i64, !dbg !3049
  %add.ptr = getelementptr inbounds i16, i16* %call, i64 %idx.ext, !dbg !3049
  %2 = load i32, i32* %theCount.addr, align 4, !dbg !3050
  %call2 = call dereferenceable(40) %"class.xalanc_1_10::XalanDOMString"* @_ZN11xalanc_1_1014XalanDOMString6appendEPKtj(%"class.xalanc_1_10::XalanDOMString"* %this1, i16* %add.ptr, i32 %2), !dbg !3051
  ret %"class.xalanc_1_10::XalanDOMString"* %call2, !dbg !3052
}

; Function Attrs: noinline uwtable
define linkonce_odr dso_local dereferenceable(40) %"class.xalanc_1_10::XalanDOMString"* @_ZN11xalanc_1_1014XalanDOMString6appendERKS0_(%"class.xalanc_1_10::XalanDOMString"* %this, %"class.xalanc_1_10::XalanDOMString"* dereferenceable(40) %theSource) #0 comdat align 2 !dbg !3053 {
entry:
  %this.addr = alloca %"class.xalanc_1_10::XalanDOMString"*, align 8
  %theSource.addr = alloca %"class.xalanc_1_10::XalanDOMString"*, align 8
  store %"class.xalanc_1_10::XalanDOMString"* %this, %"class.xalanc_1_10::XalanDOMString"** %this.addr, align 8
  call void @llvm.dbg.declare(metadata %"class.xalanc_1_10::XalanDOMString"** %this.addr, metadata !3054, metadata !DIExpression()), !dbg !3055
  store %"class.xalanc_1_10::XalanDOMString"* %theSource, %"class.xalanc_1_10::XalanDOMString"** %theSource.addr, align 8
  call void @llvm.dbg.declare(metadata %"class.xalanc_1_10::XalanDOMString"** %theSource.addr, metadata !3056, metadata !DIExpression()), !dbg !3057
  %this1 = load %"class.xalanc_1_10::XalanDOMString"*, %"class.xalanc_1_10::XalanDOMString"** %this.addr, align 8
  %0 = load %"class.xalanc_1_10::XalanDOMString"*, %"class.xalanc_1_10::XalanDOMString"** %theSource.addr, align 8, !dbg !3058
  %call = call i16* @_ZNK11xalanc_1_1014XalanDOMString5c_strEv(%"class.xalanc_1_10::XalanDOMString"* %0), !dbg !3059
  %1 = load %"class.xalanc_1_10::XalanDOMString"*, %"class.xalanc_1_10::XalanDOMString"** %theSource.addr, align 8, !dbg !3060
  %call2 = call i32 @_ZNK11xalanc_1_1014XalanDOMString6lengthEv(%"class.xalanc_1_10::XalanDOMString"* %1), !dbg !3061
  %call3 = call dereferenceable(40) %"class.xalanc_1_10::XalanDOMString"* @_ZN11xalanc_1_1014XalanDOMString6appendEPKtj(%"class.xalanc_1_10::XalanDOMString"* %this1, i16* %call, i32 %call2), !dbg !3062
  ret %"class.xalanc_1_10::XalanDOMString"* %call3, !dbg !3063
}

; Function Attrs: noinline nounwind uwtable
define linkonce_odr dso_local dereferenceable(16) %"class.xalanc_1_10::XObjectFactory"* @_ZNK11xalanc_1_1021XPathExecutionContext17getXObjectFactoryEv(%"class.xalanc_1_10::XPathExecutionContext"* %this) #2 comdat align 2 !dbg !3064 {
entry:
  %this.addr = alloca %"class.xalanc_1_10::XPathExecutionContext"*, align 8
  store %"class.xalanc_1_10::XPathExecutionContext"* %this, %"class.xalanc_1_10::XPathExecutionContext"** %this.addr, align 8
  call void @llvm.dbg.declare(metadata %"class.xalanc_1_10::XPathExecutionContext"** %this.addr, metadata !3073, metadata !DIExpression()), !dbg !3075
  %this1 = load %"class.xalanc_1_10::XPathExecutionContext"*, %"class.xalanc_1_10::XPathExecutionContext"** %this.addr, align 8
  %m_xobjectFactory = getelementptr inbounds %"class.xalanc_1_10::XPathExecutionContext", %"class.xalanc_1_10::XPathExecutionContext"* %this1, i32 0, i32 1, !dbg !3076
  %0 = load %"class.xalanc_1_10::XObjectFactory"*, %"class.xalanc_1_10::XObjectFactory"** %m_xobjectFactory, align 8, !dbg !3076
  ret %"class.xalanc_1_10::XObjectFactory"* %0, !dbg !3077
}

; Function Attrs: noinline uwtable
define internal void @__cxx_global_var_init() #0 section ".text.startup" !dbg !3078 {
entry:
  %call = call dereferenceable(8) %"class.xercesc_2_7::MemoryManager"* @_ZN11xalanc_1_1012XalanMemMgrs14getDummyMemMgrEv(), !dbg !3079
  call void @_ZN11xalanc_1_1014XalanDOMStringC1ERN11xercesc_2_713MemoryManagerE(%"class.xalanc_1_10::XalanDOMString"* @_ZN11xalanc_1_10L13s_emptyStringE, %"class.xercesc_2_7::MemoryManager"* dereferenceable(8) %call), !dbg !3080
  %0 = call i32 @__cxa_atexit(void (i8*)* bitcast (void (%"class.xalanc_1_10::XalanDOMString"*)* @_ZN11xalanc_1_1014XalanDOMStringD2Ev to void (i8*)*), i8* bitcast (%"class.xalanc_1_10::XalanDOMString"* @_ZN11xalanc_1_10L13s_emptyStringE to i8*), i8* @__dso_handle) #4, !dbg !3080
  ret void, !dbg !3079
}

declare dso_local dereferenceable(8) %"class.xercesc_2_7::MemoryManager"* @_ZN11xalanc_1_1012XalanMemMgrs14getDummyMemMgrEv() #3

declare dso_local void @_ZN11xalanc_1_1014XalanDOMStringC1ERN11xercesc_2_713MemoryManagerE(%"class.xalanc_1_10::XalanDOMString"*, %"class.xercesc_2_7::MemoryManager"* dereferenceable(8)) unnamed_addr #3

; Function Attrs: noinline nounwind uwtable
define linkonce_odr dso_local void @_ZN11xalanc_1_1014XalanDOMStringD2Ev(%"class.xalanc_1_10::XalanDOMString"* %this) unnamed_addr #2 comdat align 2 !dbg !3081 {
entry:
  %this.addr = alloca %"class.xalanc_1_10::XalanDOMString"*, align 8
  store %"class.xalanc_1_10::XalanDOMString"* %this, %"class.xalanc_1_10::XalanDOMString"** %this.addr, align 8
  call void @llvm.dbg.declare(metadata %"class.xalanc_1_10::XalanDOMString"** %this.addr, metadata !3082, metadata !DIExpression()), !dbg !3083
  %this1 = load %"class.xalanc_1_10::XalanDOMString"*, %"class.xalanc_1_10::XalanDOMString"** %this.addr, align 8
  %m_data = getelementptr inbounds %"class.xalanc_1_10::XalanDOMString", %"class.xalanc_1_10::XalanDOMString"* %this1, i32 0, i32 0, !dbg !3084
  call void @_ZN11xalanc_1_1011XalanVectorItNS_31MemoryManagedConstructionTraitsItEEED2Ev(%"class.xalanc_1_10::XalanVector.0"* %m_data) #4, !dbg !3084
  ret void, !dbg !3086
}

; Function Attrs: nounwind
declare dso_local i32 @__cxa_atexit(void (i8*)*, i8*, i8*) #4

; Function Attrs: noinline uwtable
define dso_local void @_ZNK11xalanc_1_1024XalanEXSLTFunctionConcat7executeERNS_21XPathExecutionContextEPNS_9XalanNodeERKNS_11XalanVectorINS_10XObjectPtrENS_31MemoryManagedConstructionTraitsIS6_EEEEPKN11xercesc_2_77LocatorE(%"class.xalanc_1_10::XObjectPtr"* noalias sret %agg.result, %"class.xalanc_1_10::XalanEXSLTFunctionConcat"* %this, %"class.xalanc_1_10::XPathExecutionContext"* dereferenceable(24) %executionContext, %"class.xalanc_1_10::XalanNode"* %context, %"class.xalanc_1_10::XalanVector"* dereferenceable(32) %args, %"class.xercesc_2_7::Locator"* %locator) unnamed_addr #0 align 2 personality i8* bitcast (i32 (...)* @__gxx_personality_v0 to i8*) !dbg !3087 {
entry:
  %result.ptr = alloca i8*, align 8
  %this.addr = alloca %"class.xalanc_1_10::XalanEXSLTFunctionConcat"*, align 8
  %executionContext.addr = alloca %"class.xalanc_1_10::XPathExecutionContext"*, align 8
  %context.addr = alloca %"class.xalanc_1_10::XalanNode"*, align 8
  %args.addr = alloca %"class.xalanc_1_10::XalanVector"*, align 8
  %locator.addr = alloca %"class.xercesc_2_7::Locator"*, align 8
  %theGuard = alloca %"class.xalanc_1_10::XPathExecutionContext::GetAndReleaseCachedString", align 8
  %theBuffer = alloca %"class.xalanc_1_10::XalanDOMString"*, align 8
  %exn.slot = alloca i8*
  %ehselector.slot = alloca i32
  %theNodeSet = alloca %"class.xalanc_1_10::NodeRefListBase"*, align 8
  %theLength = alloca i32, align 4
  %theGuard21 = alloca %"class.xalanc_1_10::XPathExecutionContext::GetAndReleaseCachedString", align 8
  %theResult = alloca %"class.xalanc_1_10::XalanDOMString"*, align 8
  %i = alloca i32, align 4
  %0 = bitcast %"class.xalanc_1_10::XObjectPtr"* %agg.result to i8*
  store i8* %0, i8** %result.ptr, align 8
  store %"class.xalanc_1_10::XalanEXSLTFunctionConcat"* %this, %"class.xalanc_1_10::XalanEXSLTFunctionConcat"** %this.addr, align 8
  call void @llvm.dbg.declare(metadata %"class.xalanc_1_10::XalanEXSLTFunctionConcat"** %this.addr, metadata !3088, metadata !DIExpression()), !dbg !3090
  store %"class.xalanc_1_10::XPathExecutionContext"* %executionContext, %"class.xalanc_1_10::XPathExecutionContext"** %executionContext.addr, align 8
  call void @llvm.dbg.declare(metadata %"class.xalanc_1_10::XPathExecutionContext"** %executionContext.addr, metadata !3091, metadata !DIExpression()), !dbg !3092
  store %"class.xalanc_1_10::XalanNode"* %context, %"class.xalanc_1_10::XalanNode"** %context.addr, align 8
  call void @llvm.dbg.declare(metadata %"class.xalanc_1_10::XalanNode"** %context.addr, metadata !3093, metadata !DIExpression()), !dbg !3094
  store %"class.xalanc_1_10::XalanVector"* %args, %"class.xalanc_1_10::XalanVector"** %args.addr, align 8
  call void @llvm.dbg.declare(metadata %"class.xalanc_1_10::XalanVector"** %args.addr, metadata !3095, metadata !DIExpression()), !dbg !3096
  store %"class.xercesc_2_7::Locator"* %locator, %"class.xercesc_2_7::Locator"** %locator.addr, align 8
  call void @llvm.dbg.declare(metadata %"class.xercesc_2_7::Locator"** %locator.addr, metadata !3097, metadata !DIExpression()), !dbg !3098
  %this1 = load %"class.xalanc_1_10::XalanEXSLTFunctionConcat"*, %"class.xalanc_1_10::XalanEXSLTFunctionConcat"** %this.addr, align 8
  %1 = load %"class.xalanc_1_10::XalanVector"*, %"class.xalanc_1_10::XalanVector"** %args.addr, align 8, !dbg !3099
  %call = call i64 @_ZNK11xalanc_1_1011XalanVectorINS_10XObjectPtrENS_31MemoryManagedConstructionTraitsIS1_EEE4sizeEv(%"class.xalanc_1_10::XalanVector"* %1), !dbg !3101
  %cmp = icmp ne i64 %call, 1, !dbg !3102
  br i1 %cmp, label %if.then, label %if.end, !dbg !3103

if.then:                                          ; preds = %entry
  call void @llvm.dbg.declare(metadata %"class.xalanc_1_10::XPathExecutionContext::GetAndReleaseCachedString"* %theGuard, metadata !3104, metadata !DIExpression()), !dbg !3106
  %2 = load %"class.xalanc_1_10::XPathExecutionContext"*, %"class.xalanc_1_10::XPathExecutionContext"** %executionContext.addr, align 8, !dbg !3107
  call void @_ZN11xalanc_1_1021XPathExecutionContext25GetAndReleaseCachedStringC2ERS0_(%"class.xalanc_1_10::XPathExecutionContext::GetAndReleaseCachedString"* %theGuard, %"class.xalanc_1_10::XPathExecutionContext"* dereferenceable(24) %2), !dbg !3106
  call void @llvm.dbg.declare(metadata %"class.xalanc_1_10::XalanDOMString"** %theBuffer, metadata !3108, metadata !DIExpression()), !dbg !3109
  %call2 = invoke dereferenceable(40) %"class.xalanc_1_10::XalanDOMString"* @_ZNK11xalanc_1_1021XPathExecutionContext25GetAndReleaseCachedString3getEv(%"class.xalanc_1_10::XPathExecutionContext::GetAndReleaseCachedString"* %theGuard)
          to label %invoke.cont unwind label %lpad, !dbg !3110

invoke.cont:                                      ; preds = %if.then
  store %"class.xalanc_1_10::XalanDOMString"* %call2, %"class.xalanc_1_10::XalanDOMString"** %theBuffer, align 8, !dbg !3109
  %3 = load %"class.xalanc_1_10::XPathExecutionContext"*, %"class.xalanc_1_10::XPathExecutionContext"** %executionContext.addr, align 8, !dbg !3111
  %4 = load %"class.xalanc_1_10::XalanDOMString"*, %"class.xalanc_1_10::XalanDOMString"** %theBuffer, align 8, !dbg !3112
  %5 = bitcast %"class.xalanc_1_10::XalanEXSLTFunctionConcat"* %this1 to %"class.xalanc_1_10::XalanDOMString"* (%"class.xalanc_1_10::XalanEXSLTFunctionConcat"*, %"class.xalanc_1_10::XalanDOMString"*)***, !dbg !3113
  %vtable = load %"class.xalanc_1_10::XalanDOMString"* (%"class.xalanc_1_10::XalanEXSLTFunctionConcat"*, %"class.xalanc_1_10::XalanDOMString"*)**, %"class.xalanc_1_10::XalanDOMString"* (%"class.xalanc_1_10::XalanEXSLTFunctionConcat"*, %"class.xalanc_1_10::XalanDOMString"*)*** %5, align 8, !dbg !3113
  %vfn = getelementptr inbounds %"class.xalanc_1_10::XalanDOMString"* (%"class.xalanc_1_10::XalanEXSLTFunctionConcat"*, %"class.xalanc_1_10::XalanDOMString"*)*, %"class.xalanc_1_10::XalanDOMString"* (%"class.xalanc_1_10::XalanEXSLTFunctionConcat"*, %"class.xalanc_1_10::XalanDOMString"*)** %vtable, i64 8, !dbg !3113
  %6 = load %"class.xalanc_1_10::XalanDOMString"* (%"class.xalanc_1_10::XalanEXSLTFunctionConcat"*, %"class.xalanc_1_10::XalanDOMString"*)*, %"class.xalanc_1_10::XalanDOMString"* (%"class.xalanc_1_10::XalanEXSLTFunctionConcat"*, %"class.xalanc_1_10::XalanDOMString"*)** %vfn, align 8, !dbg !3113
  %call4 = invoke dereferenceable(40) %"class.xalanc_1_10::XalanDOMString"* %6(%"class.xalanc_1_10::XalanEXSLTFunctionConcat"* %this1, %"class.xalanc_1_10::XalanDOMString"* dereferenceable(40) %4)
          to label %invoke.cont3 unwind label %lpad, !dbg !3113

invoke.cont3:                                     ; preds = %invoke.cont
  %7 = load %"class.xalanc_1_10::XalanNode"*, %"class.xalanc_1_10::XalanNode"** %context.addr, align 8, !dbg !3114
  %8 = load %"class.xercesc_2_7::Locator"*, %"class.xercesc_2_7::Locator"** %locator.addr, align 8, !dbg !3115
  %9 = bitcast %"class.xalanc_1_10::XPathExecutionContext"* %3 to void (%"class.xalanc_1_10::XPathExecutionContext"*, %"class.xalanc_1_10::XalanDOMString"*, %"class.xalanc_1_10::XalanNode"*, %"class.xercesc_2_7::Locator"*)***, !dbg !3116
  %vtable5 = load void (%"class.xalanc_1_10::XPathExecutionContext"*, %"class.xalanc_1_10::XalanDOMString"*, %"class.xalanc_1_10::XalanNode"*, %"class.xercesc_2_7::Locator"*)**, void (%"class.xalanc_1_10::XPathExecutionContext"*, %"class.xalanc_1_10::XalanDOMString"*, %"class.xalanc_1_10::XalanNode"*, %"class.xercesc_2_7::Locator"*)*** %9, align 8, !dbg !3116
  %vfn6 = getelementptr inbounds void (%"class.xalanc_1_10::XPathExecutionContext"*, %"class.xalanc_1_10::XalanDOMString"*, %"class.xalanc_1_10::XalanNode"*, %"class.xercesc_2_7::Locator"*)*, void (%"class.xalanc_1_10::XPathExecutionContext"*, %"class.xalanc_1_10::XalanDOMString"*, %"class.xalanc_1_10::XalanNode"*, %"class.xercesc_2_7::Locator"*)** %vtable5, i64 2, !dbg !3116
  %10 = load void (%"class.xalanc_1_10::XPathExecutionContext"*, %"class.xalanc_1_10::XalanDOMString"*, %"class.xalanc_1_10::XalanNode"*, %"class.xercesc_2_7::Locator"*)*, void (%"class.xalanc_1_10::XPathExecutionContext"*, %"class.xalanc_1_10::XalanDOMString"*, %"class.xalanc_1_10::XalanNode"*, %"class.xercesc_2_7::Locator"*)** %vfn6, align 8, !dbg !3116
  invoke void %10(%"class.xalanc_1_10::XPathExecutionContext"* %3, %"class.xalanc_1_10::XalanDOMString"* dereferenceable(40) %call4, %"class.xalanc_1_10::XalanNode"* %7, %"class.xercesc_2_7::Locator"* %8)
          to label %invoke.cont7 unwind label %lpad, !dbg !3116

invoke.cont7:                                     ; preds = %invoke.cont3
  call void @_ZN11xalanc_1_1021XPathExecutionContext25GetAndReleaseCachedStringD2Ev(%"class.xalanc_1_10::XPathExecutionContext::GetAndReleaseCachedString"* %theGuard) #4, !dbg !3117
  br label %if.end, !dbg !3118

lpad:                                             ; preds = %invoke.cont3, %invoke.cont, %if.then
  %11 = landingpad { i8*, i32 }
          cleanup, !dbg !3119
  %12 = extractvalue { i8*, i32 } %11, 0, !dbg !3119
  store i8* %12, i8** %exn.slot, align 8, !dbg !3119
  %13 = extractvalue { i8*, i32 } %11, 1, !dbg !3119
  store i32 %13, i32* %ehselector.slot, align 4, !dbg !3119
  call void @_ZN11xalanc_1_1021XPathExecutionContext25GetAndReleaseCachedStringD2Ev(%"class.xalanc_1_10::XPathExecutionContext::GetAndReleaseCachedString"* %theGuard) #4, !dbg !3117
  br label %eh.resume, !dbg !3117

if.end:                                           ; preds = %invoke.cont7, %entry
  call void @llvm.dbg.declare(metadata %"class.xalanc_1_10::NodeRefListBase"** %theNodeSet, metadata !3120, metadata !DIExpression()), !dbg !3125
  %14 = load %"class.xalanc_1_10::XalanVector"*, %"class.xalanc_1_10::XalanVector"** %args.addr, align 8, !dbg !3126
  %call8 = call dereferenceable(8) %"class.xalanc_1_10::XObjectPtr"* @_ZNK11xalanc_1_1011XalanVectorINS_10XObjectPtrENS_31MemoryManagedConstructionTraitsIS1_EEEixEm(%"class.xalanc_1_10::XalanVector"* %14, i64 0), !dbg !3126
  %call9 = call %"class.xalanc_1_10::XObject"* @_ZNK11xalanc_1_1010XObjectPtrptEv(%"class.xalanc_1_10::XObjectPtr"* %call8), !dbg !3126
  %15 = bitcast %"class.xalanc_1_10::XObject"* %call9 to %"class.xalanc_1_10::NodeRefListBase"* (%"class.xalanc_1_10::XObject"*)***, !dbg !3127
  %vtable10 = load %"class.xalanc_1_10::NodeRefListBase"* (%"class.xalanc_1_10::XObject"*)**, %"class.xalanc_1_10::NodeRefListBase"* (%"class.xalanc_1_10::XObject"*)*** %15, align 8, !dbg !3127
  %vfn11 = getelementptr inbounds %"class.xalanc_1_10::NodeRefListBase"* (%"class.xalanc_1_10::XObject"*)*, %"class.xalanc_1_10::NodeRefListBase"* (%"class.xalanc_1_10::XObject"*)** %vtable10, i64 13, !dbg !3127
  %16 = load %"class.xalanc_1_10::NodeRefListBase"* (%"class.xalanc_1_10::XObject"*)*, %"class.xalanc_1_10::NodeRefListBase"* (%"class.xalanc_1_10::XObject"*)** %vfn11, align 8, !dbg !3127
  %call12 = call dereferenceable(8) %"class.xalanc_1_10::NodeRefListBase"* %16(%"class.xalanc_1_10::XObject"* %call9), !dbg !3127
  store %"class.xalanc_1_10::NodeRefListBase"* %call12, %"class.xalanc_1_10::NodeRefListBase"** %theNodeSet, align 8, !dbg !3125
  call void @llvm.dbg.declare(metadata i32* %theLength, metadata !3128, metadata !DIExpression()), !dbg !3131
  %17 = load %"class.xalanc_1_10::NodeRefListBase"*, %"class.xalanc_1_10::NodeRefListBase"** %theNodeSet, align 8, !dbg !3132
  %18 = bitcast %"class.xalanc_1_10::NodeRefListBase"* %17 to i32 (%"class.xalanc_1_10::NodeRefListBase"*)***, !dbg !3133
  %vtable13 = load i32 (%"class.xalanc_1_10::NodeRefListBase"*)**, i32 (%"class.xalanc_1_10::NodeRefListBase"*)*** %18, align 8, !dbg !3133
  %vfn14 = getelementptr inbounds i32 (%"class.xalanc_1_10::NodeRefListBase"*)*, i32 (%"class.xalanc_1_10::NodeRefListBase"*)** %vtable13, i64 3, !dbg !3133
  %19 = load i32 (%"class.xalanc_1_10::NodeRefListBase"*)*, i32 (%"class.xalanc_1_10::NodeRefListBase"*)** %vfn14, align 8, !dbg !3133
  %call15 = call i32 %19(%"class.xalanc_1_10::NodeRefListBase"* %17), !dbg !3133
  store i32 %call15, i32* %theLength, align 4, !dbg !3131
  %20 = load i32, i32* %theLength, align 4, !dbg !3134
  %cmp16 = icmp eq i32 %20, 0, !dbg !3136
  br i1 %cmp16, label %if.then17, label %if.else, !dbg !3137

if.then17:                                        ; preds = %if.end
  %21 = load %"class.xalanc_1_10::XPathExecutionContext"*, %"class.xalanc_1_10::XPathExecutionContext"** %executionContext.addr, align 8, !dbg !3138
  %call18 = call dereferenceable(16) %"class.xalanc_1_10::XObjectFactory"* @_ZNK11xalanc_1_1021XPathExecutionContext17getXObjectFactoryEv(%"class.xalanc_1_10::XPathExecutionContext"* %21), !dbg !3140
  %22 = bitcast %"class.xalanc_1_10::XObjectFactory"* %call18 to void (%"class.xalanc_1_10::XObjectPtr"*, %"class.xalanc_1_10::XObjectFactory"*, %"class.xalanc_1_10::XalanDOMString"*)***, !dbg !3141
  %vtable19 = load void (%"class.xalanc_1_10::XObjectPtr"*, %"class.xalanc_1_10::XObjectFactory"*, %"class.xalanc_1_10::XalanDOMString"*)**, void (%"class.xalanc_1_10::XObjectPtr"*, %"class.xalanc_1_10::XObjectFactory"*, %"class.xalanc_1_10::XalanDOMString"*)*** %22, align 8, !dbg !3141
  %vfn20 = getelementptr inbounds void (%"class.xalanc_1_10::XObjectPtr"*, %"class.xalanc_1_10::XObjectFactory"*, %"class.xalanc_1_10::XalanDOMString"*)*, void (%"class.xalanc_1_10::XObjectPtr"*, %"class.xalanc_1_10::XObjectFactory"*, %"class.xalanc_1_10::XalanDOMString"*)** %vtable19, i64 13, !dbg !3141
  %23 = load void (%"class.xalanc_1_10::XObjectPtr"*, %"class.xalanc_1_10::XObjectFactory"*, %"class.xalanc_1_10::XalanDOMString"*)*, void (%"class.xalanc_1_10::XObjectPtr"*, %"class.xalanc_1_10::XObjectFactory"*, %"class.xalanc_1_10::XalanDOMString"*)** %vfn20, align 8, !dbg !3141
  call void %23(%"class.xalanc_1_10::XObjectPtr"* sret %agg.result, %"class.xalanc_1_10::XObjectFactory"* %call18, %"class.xalanc_1_10::XalanDOMString"* dereferenceable(40) @_ZN11xalanc_1_10L13s_emptyStringE), !dbg !3141
  br label %return, !dbg !3142

if.else:                                          ; preds = %if.end
  call void @llvm.dbg.declare(metadata %"class.xalanc_1_10::XPathExecutionContext::GetAndReleaseCachedString"* %theGuard21, metadata !3143, metadata !DIExpression()), !dbg !3145
  %24 = load %"class.xalanc_1_10::XPathExecutionContext"*, %"class.xalanc_1_10::XPathExecutionContext"** %executionContext.addr, align 8, !dbg !3146
  call void @_ZN11xalanc_1_1021XPathExecutionContext25GetAndReleaseCachedStringC2ERS0_(%"class.xalanc_1_10::XPathExecutionContext::GetAndReleaseCachedString"* %theGuard21, %"class.xalanc_1_10::XPathExecutionContext"* dereferenceable(24) %24), !dbg !3145
  call void @llvm.dbg.declare(metadata %"class.xalanc_1_10::XalanDOMString"** %theResult, metadata !3147, metadata !DIExpression()), !dbg !3148
  %call24 = invoke dereferenceable(40) %"class.xalanc_1_10::XalanDOMString"* @_ZNK11xalanc_1_1021XPathExecutionContext25GetAndReleaseCachedString3getEv(%"class.xalanc_1_10::XPathExecutionContext::GetAndReleaseCachedString"* %theGuard21)
          to label %invoke.cont23 unwind label %lpad22, !dbg !3149

invoke.cont23:                                    ; preds = %if.else
  store %"class.xalanc_1_10::XalanDOMString"* %call24, %"class.xalanc_1_10::XalanDOMString"** %theResult, align 8, !dbg !3148
  call void @llvm.dbg.declare(metadata i32* %i, metadata !3150, metadata !DIExpression()), !dbg !3152
  store i32 0, i32* %i, align 4, !dbg !3152
  br label %for.cond, !dbg !3153

for.cond:                                         ; preds = %for.inc, %invoke.cont23
  %25 = load i32, i32* %i, align 4, !dbg !3154
  %26 = load i32, i32* %theLength, align 4, !dbg !3156
  %cmp25 = icmp ult i32 %25, %26, !dbg !3157
  br i1 %cmp25, label %for.body, label %for.end, !dbg !3158

for.body:                                         ; preds = %for.cond
  %27 = load %"class.xalanc_1_10::NodeRefListBase"*, %"class.xalanc_1_10::NodeRefListBase"** %theNodeSet, align 8, !dbg !3159
  %28 = load i32, i32* %i, align 4, !dbg !3161
  %29 = bitcast %"class.xalanc_1_10::NodeRefListBase"* %27 to %"class.xalanc_1_10::XalanNode"* (%"class.xalanc_1_10::NodeRefListBase"*, i32)***, !dbg !3162
  %vtable26 = load %"class.xalanc_1_10::XalanNode"* (%"class.xalanc_1_10::NodeRefListBase"*, i32)**, %"class.xalanc_1_10::XalanNode"* (%"class.xalanc_1_10::NodeRefListBase"*, i32)*** %29, align 8, !dbg !3162
  %vfn27 = getelementptr inbounds %"class.xalanc_1_10::XalanNode"* (%"class.xalanc_1_10::NodeRefListBase"*, i32)*, %"class.xalanc_1_10::XalanNode"* (%"class.xalanc_1_10::NodeRefListBase"*, i32)** %vtable26, i64 2, !dbg !3162
  %30 = load %"class.xalanc_1_10::XalanNode"* (%"class.xalanc_1_10::NodeRefListBase"*, i32)*, %"class.xalanc_1_10::XalanNode"* (%"class.xalanc_1_10::NodeRefListBase"*, i32)** %vfn27, align 8, !dbg !3162
  %call29 = invoke %"class.xalanc_1_10::XalanNode"* %30(%"class.xalanc_1_10::NodeRefListBase"* %27, i32 %28)
          to label %invoke.cont28 unwind label %lpad22, !dbg !3162

invoke.cont28:                                    ; preds = %for.body
  %31 = load %"class.xalanc_1_10::XalanDOMString"*, %"class.xalanc_1_10::XalanDOMString"** %theResult, align 8, !dbg !3163
  invoke void @_ZN11xalanc_1_1011DOMServices11getNodeDataERKNS_9XalanNodeERNS_14XalanDOMStringE(%"class.xalanc_1_10::XalanNode"* dereferenceable(8) %call29, %"class.xalanc_1_10::XalanDOMString"* dereferenceable(40) %31)
          to label %invoke.cont30 unwind label %lpad22, !dbg !3164

invoke.cont30:                                    ; preds = %invoke.cont28
  br label %for.inc, !dbg !3165

for.inc:                                          ; preds = %invoke.cont30
  %32 = load i32, i32* %i, align 4, !dbg !3166
  %inc = add i32 %32, 1, !dbg !3166
  store i32 %inc, i32* %i, align 4, !dbg !3166
  br label %for.cond, !dbg !3167, !llvm.loop !3168

lpad22:                                           ; preds = %invoke.cont31, %for.end, %invoke.cont28, %for.body, %if.else
  %33 = landingpad { i8*, i32 }
          cleanup, !dbg !3170
  %34 = extractvalue { i8*, i32 } %33, 0, !dbg !3170
  store i8* %34, i8** %exn.slot, align 8, !dbg !3170
  %35 = extractvalue { i8*, i32 } %33, 1, !dbg !3170
  store i32 %35, i32* %ehselector.slot, align 4, !dbg !3170
  call void @_ZN11xalanc_1_1021XPathExecutionContext25GetAndReleaseCachedStringD2Ev(%"class.xalanc_1_10::XPathExecutionContext::GetAndReleaseCachedString"* %theGuard21) #4, !dbg !3171
  br label %eh.resume, !dbg !3171

for.end:                                          ; preds = %for.cond
  %36 = load %"class.xalanc_1_10::XPathExecutionContext"*, %"class.xalanc_1_10::XPathExecutionContext"** %executionContext.addr, align 8, !dbg !3172
  %call32 = invoke dereferenceable(16) %"class.xalanc_1_10::XObjectFactory"* @_ZNK11xalanc_1_1021XPathExecutionContext17getXObjectFactoryEv(%"class.xalanc_1_10::XPathExecutionContext"* %36)
          to label %invoke.cont31 unwind label %lpad22, !dbg !3173

invoke.cont31:                                    ; preds = %for.end
  %37 = load %"class.xalanc_1_10::XalanDOMString"*, %"class.xalanc_1_10::XalanDOMString"** %theResult, align 8, !dbg !3174
  %38 = bitcast %"class.xalanc_1_10::XObjectFactory"* %call32 to void (%"class.xalanc_1_10::XObjectPtr"*, %"class.xalanc_1_10::XObjectFactory"*, %"class.xalanc_1_10::XalanDOMString"*)***, !dbg !3175
  %vtable33 = load void (%"class.xalanc_1_10::XObjectPtr"*, %"class.xalanc_1_10::XObjectFactory"*, %"class.xalanc_1_10::XalanDOMString"*)**, void (%"class.xalanc_1_10::XObjectPtr"*, %"class.xalanc_1_10::XObjectFactory"*, %"class.xalanc_1_10::XalanDOMString"*)*** %38, align 8, !dbg !3175
  %vfn34 = getelementptr inbounds void (%"class.xalanc_1_10::XObjectPtr"*, %"class.xalanc_1_10::XObjectFactory"*, %"class.xalanc_1_10::XalanDOMString"*)*, void (%"class.xalanc_1_10::XObjectPtr"*, %"class.xalanc_1_10::XObjectFactory"*, %"class.xalanc_1_10::XalanDOMString"*)** %vtable33, i64 9, !dbg !3175
  %39 = load void (%"class.xalanc_1_10::XObjectPtr"*, %"class.xalanc_1_10::XObjectFactory"*, %"class.xalanc_1_10::XalanDOMString"*)*, void (%"class.xalanc_1_10::XObjectPtr"*, %"class.xalanc_1_10::XObjectFactory"*, %"class.xalanc_1_10::XalanDOMString"*)** %vfn34, align 8, !dbg !3175
  invoke void %39(%"class.xalanc_1_10::XObjectPtr"* sret %agg.result, %"class.xalanc_1_10::XObjectFactory"* %call32, %"class.xalanc_1_10::XalanDOMString"* dereferenceable(40) %37)
          to label %invoke.cont35 unwind label %lpad22, !dbg !3175

invoke.cont35:                                    ; preds = %invoke.cont31
  call void @_ZN11xalanc_1_1021XPathExecutionContext25GetAndReleaseCachedStringD2Ev(%"class.xalanc_1_10::XPathExecutionContext::GetAndReleaseCachedString"* %theGuard21) #4, !dbg !3171
  br label %return

return:                                           ; preds = %invoke.cont35, %if.then17
  ret void, !dbg !3176

eh.resume:                                        ; preds = %lpad22, %lpad
  %exn = load i8*, i8** %exn.slot, align 8, !dbg !3117
  %sel = load i32, i32* %ehselector.slot, align 4, !dbg !3117
  %lpad.val = insertvalue { i8*, i32 } undef, i8* %exn, 0, !dbg !3117
  %lpad.val36 = insertvalue { i8*, i32 } %lpad.val, i32 %sel, 1, !dbg !3117
  resume { i8*, i32 } %lpad.val36, !dbg !3117
}

declare dso_local void @_ZN11xalanc_1_1011DOMServices11getNodeDataERKNS_9XalanNodeERNS_14XalanDOMStringE(%"class.xalanc_1_10::XalanNode"* dereferenceable(8), %"class.xalanc_1_10::XalanDOMString"* dereferenceable(40)) #3

; Function Attrs: noinline uwtable
define dso_local void @_ZNK11xalanc_1_1025XalanEXSLTFunctionPadding7executeERNS_21XPathExecutionContextEPNS_9XalanNodeERKNS_11XalanVectorINS_10XObjectPtrENS_31MemoryManagedConstructionTraitsIS6_EEEEPKN11xercesc_2_77LocatorE(%"class.xalanc_1_10::XObjectPtr"* noalias sret %agg.result, %"class.xalanc_1_10::XalanEXSLTFunctionPadding"* %this, %"class.xalanc_1_10::XPathExecutionContext"* dereferenceable(24) %executionContext, %"class.xalanc_1_10::XalanNode"* %context, %"class.xalanc_1_10::XalanVector"* dereferenceable(32) %args, %"class.xercesc_2_7::Locator"* %locator) unnamed_addr #0 align 2 personality i8* bitcast (i32 (...)* @__gxx_personality_v0 to i8*) !dbg !3177 {
entry:
  %result.ptr = alloca i8*, align 8
  %this.addr = alloca %"class.xalanc_1_10::XalanEXSLTFunctionPadding"*, align 8
  %executionContext.addr = alloca %"class.xalanc_1_10::XPathExecutionContext"*, align 8
  %context.addr = alloca %"class.xalanc_1_10::XalanNode"*, align 8
  %args.addr = alloca %"class.xalanc_1_10::XalanVector"*, align 8
  %locator.addr = alloca %"class.xercesc_2_7::Locator"*, align 8
  %theSize = alloca i64, align 8
  %theGuard = alloca %"class.xalanc_1_10::XPathExecutionContext::GetAndReleaseCachedString", align 8
  %theBuffer = alloca %"class.xalanc_1_10::XalanDOMString"*, align 8
  %exn.slot = alloca i8*
  %ehselector.slot = alloca i32
  %theLength = alloca double, align 8
  %thePaddingString = alloca %"class.xalanc_1_10::XalanDOMString"*, align 8
  %thePaddingStringLength = alloca i32, align 4
  %theGuard28 = alloca %"class.xalanc_1_10::XPathExecutionContext::GetAndReleaseCachedString", align 8
  %theResult = alloca %"class.xalanc_1_10::XalanDOMString"*, align 8
  %theRemainingLength = alloca i32, align 4
  %0 = bitcast %"class.xalanc_1_10::XObjectPtr"* %agg.result to i8*
  store i8* %0, i8** %result.ptr, align 8
  store %"class.xalanc_1_10::XalanEXSLTFunctionPadding"* %this, %"class.xalanc_1_10::XalanEXSLTFunctionPadding"** %this.addr, align 8
  call void @llvm.dbg.declare(metadata %"class.xalanc_1_10::XalanEXSLTFunctionPadding"** %this.addr, metadata !3178, metadata !DIExpression()), !dbg !3180
  store %"class.xalanc_1_10::XPathExecutionContext"* %executionContext, %"class.xalanc_1_10::XPathExecutionContext"** %executionContext.addr, align 8
  call void @llvm.dbg.declare(metadata %"class.xalanc_1_10::XPathExecutionContext"** %executionContext.addr, metadata !3181, metadata !DIExpression()), !dbg !3182
  store %"class.xalanc_1_10::XalanNode"* %context, %"class.xalanc_1_10::XalanNode"** %context.addr, align 8
  call void @llvm.dbg.declare(metadata %"class.xalanc_1_10::XalanNode"** %context.addr, metadata !3183, metadata !DIExpression()), !dbg !3184
  store %"class.xalanc_1_10::XalanVector"* %args, %"class.xalanc_1_10::XalanVector"** %args.addr, align 8
  call void @llvm.dbg.declare(metadata %"class.xalanc_1_10::XalanVector"** %args.addr, metadata !3185, metadata !DIExpression()), !dbg !3186
  store %"class.xercesc_2_7::Locator"* %locator, %"class.xercesc_2_7::Locator"** %locator.addr, align 8
  call void @llvm.dbg.declare(metadata %"class.xercesc_2_7::Locator"** %locator.addr, metadata !3187, metadata !DIExpression()), !dbg !3188
  %this1 = load %"class.xalanc_1_10::XalanEXSLTFunctionPadding"*, %"class.xalanc_1_10::XalanEXSLTFunctionPadding"** %this.addr, align 8
  call void @llvm.dbg.declare(metadata i64* %theSize, metadata !3189, metadata !DIExpression()), !dbg !3190
  %1 = load %"class.xalanc_1_10::XalanVector"*, %"class.xalanc_1_10::XalanVector"** %args.addr, align 8, !dbg !3191
  %call = call i64 @_ZNK11xalanc_1_1011XalanVectorINS_10XObjectPtrENS_31MemoryManagedConstructionTraitsIS1_EEE4sizeEv(%"class.xalanc_1_10::XalanVector"* %1), !dbg !3192
  store i64 %call, i64* %theSize, align 8, !dbg !3190
  %2 = load i64, i64* %theSize, align 8, !dbg !3193
  %cmp = icmp ne i64 %2, 1, !dbg !3195
  br i1 %cmp, label %land.lhs.true, label %if.end, !dbg !3196

land.lhs.true:                                    ; preds = %entry
  %3 = load i64, i64* %theSize, align 8, !dbg !3197
  %cmp2 = icmp ne i64 %3, 2, !dbg !3198
  br i1 %cmp2, label %if.then, label %if.end, !dbg !3199

if.then:                                          ; preds = %land.lhs.true
  call void @llvm.dbg.declare(metadata %"class.xalanc_1_10::XPathExecutionContext::GetAndReleaseCachedString"* %theGuard, metadata !3200, metadata !DIExpression()), !dbg !3202
  %4 = load %"class.xalanc_1_10::XPathExecutionContext"*, %"class.xalanc_1_10::XPathExecutionContext"** %executionContext.addr, align 8, !dbg !3203
  call void @_ZN11xalanc_1_1021XPathExecutionContext25GetAndReleaseCachedStringC2ERS0_(%"class.xalanc_1_10::XPathExecutionContext::GetAndReleaseCachedString"* %theGuard, %"class.xalanc_1_10::XPathExecutionContext"* dereferenceable(24) %4), !dbg !3202
  call void @llvm.dbg.declare(metadata %"class.xalanc_1_10::XalanDOMString"** %theBuffer, metadata !3204, metadata !DIExpression()), !dbg !3205
  %call3 = invoke dereferenceable(40) %"class.xalanc_1_10::XalanDOMString"* @_ZNK11xalanc_1_1021XPathExecutionContext25GetAndReleaseCachedString3getEv(%"class.xalanc_1_10::XPathExecutionContext::GetAndReleaseCachedString"* %theGuard)
          to label %invoke.cont unwind label %lpad, !dbg !3206

invoke.cont:                                      ; preds = %if.then
  store %"class.xalanc_1_10::XalanDOMString"* %call3, %"class.xalanc_1_10::XalanDOMString"** %theBuffer, align 8, !dbg !3205
  %5 = load %"class.xalanc_1_10::XPathExecutionContext"*, %"class.xalanc_1_10::XPathExecutionContext"** %executionContext.addr, align 8, !dbg !3207
  %6 = load %"class.xalanc_1_10::XalanDOMString"*, %"class.xalanc_1_10::XalanDOMString"** %theBuffer, align 8, !dbg !3208
  %7 = bitcast %"class.xalanc_1_10::XalanEXSLTFunctionPadding"* %this1 to %"class.xalanc_1_10::XalanDOMString"* (%"class.xalanc_1_10::XalanEXSLTFunctionPadding"*, %"class.xalanc_1_10::XalanDOMString"*)***, !dbg !3209
  %vtable = load %"class.xalanc_1_10::XalanDOMString"* (%"class.xalanc_1_10::XalanEXSLTFunctionPadding"*, %"class.xalanc_1_10::XalanDOMString"*)**, %"class.xalanc_1_10::XalanDOMString"* (%"class.xalanc_1_10::XalanEXSLTFunctionPadding"*, %"class.xalanc_1_10::XalanDOMString"*)*** %7, align 8, !dbg !3209
  %vfn = getelementptr inbounds %"class.xalanc_1_10::XalanDOMString"* (%"class.xalanc_1_10::XalanEXSLTFunctionPadding"*, %"class.xalanc_1_10::XalanDOMString"*)*, %"class.xalanc_1_10::XalanDOMString"* (%"class.xalanc_1_10::XalanEXSLTFunctionPadding"*, %"class.xalanc_1_10::XalanDOMString"*)** %vtable, i64 8, !dbg !3209
  %8 = load %"class.xalanc_1_10::XalanDOMString"* (%"class.xalanc_1_10::XalanEXSLTFunctionPadding"*, %"class.xalanc_1_10::XalanDOMString"*)*, %"class.xalanc_1_10::XalanDOMString"* (%"class.xalanc_1_10::XalanEXSLTFunctionPadding"*, %"class.xalanc_1_10::XalanDOMString"*)** %vfn, align 8, !dbg !3209
  %call5 = invoke dereferenceable(40) %"class.xalanc_1_10::XalanDOMString"* %8(%"class.xalanc_1_10::XalanEXSLTFunctionPadding"* %this1, %"class.xalanc_1_10::XalanDOMString"* dereferenceable(40) %6)
          to label %invoke.cont4 unwind label %lpad, !dbg !3209

invoke.cont4:                                     ; preds = %invoke.cont
  %9 = load %"class.xalanc_1_10::XalanNode"*, %"class.xalanc_1_10::XalanNode"** %context.addr, align 8, !dbg !3210
  %10 = load %"class.xercesc_2_7::Locator"*, %"class.xercesc_2_7::Locator"** %locator.addr, align 8, !dbg !3211
  %11 = bitcast %"class.xalanc_1_10::XPathExecutionContext"* %5 to void (%"class.xalanc_1_10::XPathExecutionContext"*, %"class.xalanc_1_10::XalanDOMString"*, %"class.xalanc_1_10::XalanNode"*, %"class.xercesc_2_7::Locator"*)***, !dbg !3212
  %vtable6 = load void (%"class.xalanc_1_10::XPathExecutionContext"*, %"class.xalanc_1_10::XalanDOMString"*, %"class.xalanc_1_10::XalanNode"*, %"class.xercesc_2_7::Locator"*)**, void (%"class.xalanc_1_10::XPathExecutionContext"*, %"class.xalanc_1_10::XalanDOMString"*, %"class.xalanc_1_10::XalanNode"*, %"class.xercesc_2_7::Locator"*)*** %11, align 8, !dbg !3212
  %vfn7 = getelementptr inbounds void (%"class.xalanc_1_10::XPathExecutionContext"*, %"class.xalanc_1_10::XalanDOMString"*, %"class.xalanc_1_10::XalanNode"*, %"class.xercesc_2_7::Locator"*)*, void (%"class.xalanc_1_10::XPathExecutionContext"*, %"class.xalanc_1_10::XalanDOMString"*, %"class.xalanc_1_10::XalanNode"*, %"class.xercesc_2_7::Locator"*)** %vtable6, i64 2, !dbg !3212
  %12 = load void (%"class.xalanc_1_10::XPathExecutionContext"*, %"class.xalanc_1_10::XalanDOMString"*, %"class.xalanc_1_10::XalanNode"*, %"class.xercesc_2_7::Locator"*)*, void (%"class.xalanc_1_10::XPathExecutionContext"*, %"class.xalanc_1_10::XalanDOMString"*, %"class.xalanc_1_10::XalanNode"*, %"class.xercesc_2_7::Locator"*)** %vfn7, align 8, !dbg !3212
  invoke void %12(%"class.xalanc_1_10::XPathExecutionContext"* %5, %"class.xalanc_1_10::XalanDOMString"* dereferenceable(40) %call5, %"class.xalanc_1_10::XalanNode"* %9, %"class.xercesc_2_7::Locator"* %10)
          to label %invoke.cont8 unwind label %lpad, !dbg !3212

invoke.cont8:                                     ; preds = %invoke.cont4
  call void @_ZN11xalanc_1_1021XPathExecutionContext25GetAndReleaseCachedStringD2Ev(%"class.xalanc_1_10::XPathExecutionContext::GetAndReleaseCachedString"* %theGuard) #4, !dbg !3213
  br label %if.end, !dbg !3214

lpad:                                             ; preds = %invoke.cont4, %invoke.cont, %if.then
  %13 = landingpad { i8*, i32 }
          cleanup, !dbg !3215
  %14 = extractvalue { i8*, i32 } %13, 0, !dbg !3215
  store i8* %14, i8** %exn.slot, align 8, !dbg !3215
  %15 = extractvalue { i8*, i32 } %13, 1, !dbg !3215
  store i32 %15, i32* %ehselector.slot, align 4, !dbg !3215
  call void @_ZN11xalanc_1_1021XPathExecutionContext25GetAndReleaseCachedStringD2Ev(%"class.xalanc_1_10::XPathExecutionContext::GetAndReleaseCachedString"* %theGuard) #4, !dbg !3213
  br label %eh.resume, !dbg !3213

if.end:                                           ; preds = %invoke.cont8, %land.lhs.true, %entry
  call void @llvm.dbg.declare(metadata double* %theLength, metadata !3216, metadata !DIExpression()), !dbg !3218
  %16 = load %"class.xalanc_1_10::XalanVector"*, %"class.xalanc_1_10::XalanVector"** %args.addr, align 8, !dbg !3219
  %call9 = call dereferenceable(8) %"class.xalanc_1_10::XObjectPtr"* @_ZNK11xalanc_1_1011XalanVectorINS_10XObjectPtrENS_31MemoryManagedConstructionTraitsIS1_EEEixEm(%"class.xalanc_1_10::XalanVector"* %16, i64 0), !dbg !3219
  %call10 = call %"class.xalanc_1_10::XObject"* @_ZNK11xalanc_1_1010XObjectPtrptEv(%"class.xalanc_1_10::XObjectPtr"* %call9), !dbg !3219
  %17 = bitcast %"class.xalanc_1_10::XObject"* %call10 to double (%"class.xalanc_1_10::XObject"*)***, !dbg !3220
  %vtable11 = load double (%"class.xalanc_1_10::XObject"*)**, double (%"class.xalanc_1_10::XObject"*)*** %17, align 8, !dbg !3220
  %vfn12 = getelementptr inbounds double (%"class.xalanc_1_10::XObject"*)*, double (%"class.xalanc_1_10::XObject"*)** %vtable11, i64 6, !dbg !3220
  %18 = load double (%"class.xalanc_1_10::XObject"*)*, double (%"class.xalanc_1_10::XObject"*)** %vfn12, align 8, !dbg !3220
  %call13 = call double %18(%"class.xalanc_1_10::XObject"* %call10), !dbg !3220
  %call14 = call double @_ZN11xalanc_1_1013DoubleSupport5roundEd(double %call13), !dbg !3221
  store double %call14, double* %theLength, align 8, !dbg !3218
  call void @llvm.dbg.declare(metadata %"class.xalanc_1_10::XalanDOMString"** %thePaddingString, metadata !3222, metadata !DIExpression()), !dbg !3223
  %19 = load i64, i64* %theSize, align 8, !dbg !3224
  %cmp15 = icmp eq i64 %19, 2, !dbg !3225
  br i1 %cmp15, label %cond.true, label %cond.false, !dbg !3224

cond.true:                                        ; preds = %if.end
  %20 = load %"class.xalanc_1_10::XalanVector"*, %"class.xalanc_1_10::XalanVector"** %args.addr, align 8, !dbg !3226
  %call16 = call dereferenceable(8) %"class.xalanc_1_10::XObjectPtr"* @_ZNK11xalanc_1_1011XalanVectorINS_10XObjectPtrENS_31MemoryManagedConstructionTraitsIS1_EEEixEm(%"class.xalanc_1_10::XalanVector"* %20, i64 1), !dbg !3226
  %call17 = call %"class.xalanc_1_10::XObject"* @_ZNK11xalanc_1_1010XObjectPtrptEv(%"class.xalanc_1_10::XObjectPtr"* %call16), !dbg !3226
  %21 = bitcast %"class.xalanc_1_10::XObject"* %call17 to %"class.xalanc_1_10::XalanDOMString"* (%"class.xalanc_1_10::XObject"*)***, !dbg !3227
  %vtable18 = load %"class.xalanc_1_10::XalanDOMString"* (%"class.xalanc_1_10::XObject"*)**, %"class.xalanc_1_10::XalanDOMString"* (%"class.xalanc_1_10::XObject"*)*** %21, align 8, !dbg !3227
  %vfn19 = getelementptr inbounds %"class.xalanc_1_10::XalanDOMString"* (%"class.xalanc_1_10::XObject"*)*, %"class.xalanc_1_10::XalanDOMString"* (%"class.xalanc_1_10::XObject"*)** %vtable18, i64 8, !dbg !3227
  %22 = load %"class.xalanc_1_10::XalanDOMString"* (%"class.xalanc_1_10::XObject"*)*, %"class.xalanc_1_10::XalanDOMString"* (%"class.xalanc_1_10::XObject"*)** %vfn19, align 8, !dbg !3227
  %call20 = call dereferenceable(40) %"class.xalanc_1_10::XalanDOMString"* %22(%"class.xalanc_1_10::XObject"* %call17), !dbg !3227
  br label %cond.end, !dbg !3224

cond.false:                                       ; preds = %if.end
  %m_space = getelementptr inbounds %"class.xalanc_1_10::XalanEXSLTFunctionPadding", %"class.xalanc_1_10::XalanEXSLTFunctionPadding"* %this1, i32 0, i32 1, !dbg !3228
  br label %cond.end, !dbg !3224

cond.end:                                         ; preds = %cond.false, %cond.true
  %cond-lvalue = phi %"class.xalanc_1_10::XalanDOMString"* [ %call20, %cond.true ], [ %m_space, %cond.false ], !dbg !3224
  store %"class.xalanc_1_10::XalanDOMString"* %cond-lvalue, %"class.xalanc_1_10::XalanDOMString"** %thePaddingString, align 8, !dbg !3223
  call void @llvm.dbg.declare(metadata i32* %thePaddingStringLength, metadata !3229, metadata !DIExpression()), !dbg !3230
  %23 = load %"class.xalanc_1_10::XalanDOMString"*, %"class.xalanc_1_10::XalanDOMString"** %thePaddingString, align 8, !dbg !3231
  %call21 = call i32 @_ZNK11xalanc_1_1014XalanDOMString6lengthEv(%"class.xalanc_1_10::XalanDOMString"* %23), !dbg !3232
  store i32 %call21, i32* %thePaddingStringLength, align 4, !dbg !3230
  %24 = load double, double* %theLength, align 8, !dbg !3233
  %cmp22 = fcmp oeq double %24, 0.000000e+00, !dbg !3235
  br i1 %cmp22, label %if.then24, label %lor.lhs.false, !dbg !3236

lor.lhs.false:                                    ; preds = %cond.end
  %25 = load i32, i32* %thePaddingStringLength, align 4, !dbg !3237
  %cmp23 = icmp eq i32 %25, 0, !dbg !3238
  br i1 %cmp23, label %if.then24, label %if.else, !dbg !3239

if.then24:                                        ; preds = %lor.lhs.false, %cond.end
  %26 = load %"class.xalanc_1_10::XPathExecutionContext"*, %"class.xalanc_1_10::XPathExecutionContext"** %executionContext.addr, align 8, !dbg !3240
  %call25 = call dereferenceable(16) %"class.xalanc_1_10::XObjectFactory"* @_ZNK11xalanc_1_1021XPathExecutionContext17getXObjectFactoryEv(%"class.xalanc_1_10::XPathExecutionContext"* %26), !dbg !3242
  %27 = bitcast %"class.xalanc_1_10::XObjectFactory"* %call25 to void (%"class.xalanc_1_10::XObjectPtr"*, %"class.xalanc_1_10::XObjectFactory"*, %"class.xalanc_1_10::XalanDOMString"*)***, !dbg !3243
  %vtable26 = load void (%"class.xalanc_1_10::XObjectPtr"*, %"class.xalanc_1_10::XObjectFactory"*, %"class.xalanc_1_10::XalanDOMString"*)**, void (%"class.xalanc_1_10::XObjectPtr"*, %"class.xalanc_1_10::XObjectFactory"*, %"class.xalanc_1_10::XalanDOMString"*)*** %27, align 8, !dbg !3243
  %vfn27 = getelementptr inbounds void (%"class.xalanc_1_10::XObjectPtr"*, %"class.xalanc_1_10::XObjectFactory"*, %"class.xalanc_1_10::XalanDOMString"*)*, void (%"class.xalanc_1_10::XObjectPtr"*, %"class.xalanc_1_10::XObjectFactory"*, %"class.xalanc_1_10::XalanDOMString"*)** %vtable26, i64 13, !dbg !3243
  %28 = load void (%"class.xalanc_1_10::XObjectPtr"*, %"class.xalanc_1_10::XObjectFactory"*, %"class.xalanc_1_10::XalanDOMString"*)*, void (%"class.xalanc_1_10::XObjectPtr"*, %"class.xalanc_1_10::XObjectFactory"*, %"class.xalanc_1_10::XalanDOMString"*)** %vfn27, align 8, !dbg !3243
  call void %28(%"class.xalanc_1_10::XObjectPtr"* sret %agg.result, %"class.xalanc_1_10::XObjectFactory"* %call25, %"class.xalanc_1_10::XalanDOMString"* dereferenceable(40) @_ZN11xalanc_1_10L13s_emptyStringE), !dbg !3243
  br label %return, !dbg !3244

if.else:                                          ; preds = %lor.lhs.false
  call void @llvm.dbg.declare(metadata %"class.xalanc_1_10::XPathExecutionContext::GetAndReleaseCachedString"* %theGuard28, metadata !3245, metadata !DIExpression()), !dbg !3247
  %29 = load %"class.xalanc_1_10::XPathExecutionContext"*, %"class.xalanc_1_10::XPathExecutionContext"** %executionContext.addr, align 8, !dbg !3248
  call void @_ZN11xalanc_1_1021XPathExecutionContext25GetAndReleaseCachedStringC2ERS0_(%"class.xalanc_1_10::XPathExecutionContext::GetAndReleaseCachedString"* %theGuard28, %"class.xalanc_1_10::XPathExecutionContext"* dereferenceable(24) %29), !dbg !3247
  call void @llvm.dbg.declare(metadata %"class.xalanc_1_10::XalanDOMString"** %theResult, metadata !3249, metadata !DIExpression()), !dbg !3250
  %call31 = invoke dereferenceable(40) %"class.xalanc_1_10::XalanDOMString"* @_ZNK11xalanc_1_1021XPathExecutionContext25GetAndReleaseCachedString3getEv(%"class.xalanc_1_10::XPathExecutionContext::GetAndReleaseCachedString"* %theGuard28)
          to label %invoke.cont30 unwind label %lpad29, !dbg !3251

invoke.cont30:                                    ; preds = %if.else
  store %"class.xalanc_1_10::XalanDOMString"* %call31, %"class.xalanc_1_10::XalanDOMString"** %theResult, align 8, !dbg !3250
  %30 = load i32, i32* %thePaddingStringLength, align 4, !dbg !3252
  %cmp32 = icmp eq i32 %30, 1, !dbg !3254
  br i1 %cmp32, label %if.then33, label %if.else38, !dbg !3255

if.then33:                                        ; preds = %invoke.cont30
  %31 = load %"class.xalanc_1_10::XalanDOMString"*, %"class.xalanc_1_10::XalanDOMString"** %theResult, align 8, !dbg !3256
  %32 = load double, double* %theLength, align 8, !dbg !3258
  %conv = fptoui double %32 to i32, !dbg !3258
  %33 = load %"class.xalanc_1_10::XalanDOMString"*, %"class.xalanc_1_10::XalanDOMString"** %thePaddingString, align 8, !dbg !3259
  %call35 = invoke dereferenceable(2) i16* @_ZNK11xalanc_1_1014XalanDOMStringixEj(%"class.xalanc_1_10::XalanDOMString"* %33, i32 0)
          to label %invoke.cont34 unwind label %lpad29, !dbg !3259

invoke.cont34:                                    ; preds = %if.then33
  %34 = load i16, i16* %call35, align 2, !dbg !3259
  %call37 = invoke dereferenceable(40) %"class.xalanc_1_10::XalanDOMString"* @_ZN11xalanc_1_1014XalanDOMString6assignEjt(%"class.xalanc_1_10::XalanDOMString"* %31, i32 %conv, i16 zeroext %34)
          to label %invoke.cont36 unwind label %lpad29, !dbg !3260

invoke.cont36:                                    ; preds = %invoke.cont34
  br label %if.end48, !dbg !3261

lpad29:                                           ; preds = %invoke.cont49, %if.end48, %if.else44, %if.then41, %invoke.cont34, %if.then33, %if.else
  %35 = landingpad { i8*, i32 }
          cleanup, !dbg !3262
  %36 = extractvalue { i8*, i32 } %35, 0, !dbg !3262
  store i8* %36, i8** %exn.slot, align 8, !dbg !3262
  %37 = extractvalue { i8*, i32 } %35, 1, !dbg !3262
  store i32 %37, i32* %ehselector.slot, align 4, !dbg !3262
  call void @_ZN11xalanc_1_1021XPathExecutionContext25GetAndReleaseCachedStringD2Ev(%"class.xalanc_1_10::XPathExecutionContext::GetAndReleaseCachedString"* %theGuard28) #4, !dbg !3263
  br label %eh.resume, !dbg !3263

if.else38:                                        ; preds = %invoke.cont30
  call void @llvm.dbg.declare(metadata i32* %theRemainingLength, metadata !3264, metadata !DIExpression()), !dbg !3266
  %38 = load double, double* %theLength, align 8, !dbg !3267
  %conv39 = fptoui double %38 to i32, !dbg !3267
  store i32 %conv39, i32* %theRemainingLength, align 4, !dbg !3266
  br label %for.cond, !dbg !3268

for.cond:                                         ; preds = %if.end47, %if.else38
  %39 = load i32, i32* %theRemainingLength, align 4, !dbg !3269
  %40 = load i32, i32* %thePaddingStringLength, align 4, !dbg !3274
  %cmp40 = icmp ugt i32 %39, %40, !dbg !3275
  br i1 %cmp40, label %if.then41, label %if.else44, !dbg !3276

if.then41:                                        ; preds = %for.cond
  %41 = load %"class.xalanc_1_10::XalanDOMString"*, %"class.xalanc_1_10::XalanDOMString"** %theResult, align 8, !dbg !3277
  %42 = load %"class.xalanc_1_10::XalanDOMString"*, %"class.xalanc_1_10::XalanDOMString"** %thePaddingString, align 8, !dbg !3279
  %call43 = invoke dereferenceable(40) %"class.xalanc_1_10::XalanDOMString"* @_ZN11xalanc_1_1014XalanDOMString6appendERKS0_(%"class.xalanc_1_10::XalanDOMString"* %41, %"class.xalanc_1_10::XalanDOMString"* dereferenceable(40) %42)
          to label %invoke.cont42 unwind label %lpad29, !dbg !3280

invoke.cont42:                                    ; preds = %if.then41
  %43 = load i32, i32* %thePaddingStringLength, align 4, !dbg !3281
  %44 = load i32, i32* %theRemainingLength, align 4, !dbg !3282
  %sub = sub i32 %44, %43, !dbg !3282
  store i32 %sub, i32* %theRemainingLength, align 4, !dbg !3282
  br label %if.end47, !dbg !3283

if.else44:                                        ; preds = %for.cond
  %45 = load %"class.xalanc_1_10::XalanDOMString"*, %"class.xalanc_1_10::XalanDOMString"** %theResult, align 8, !dbg !3284
  %46 = load %"class.xalanc_1_10::XalanDOMString"*, %"class.xalanc_1_10::XalanDOMString"** %thePaddingString, align 8, !dbg !3286
  %47 = load i32, i32* %theRemainingLength, align 4, !dbg !3287
  %call46 = invoke dereferenceable(40) %"class.xalanc_1_10::XalanDOMString"* @_ZN11xalanc_1_1014XalanDOMString6appendERKS0_jj(%"class.xalanc_1_10::XalanDOMString"* %45, %"class.xalanc_1_10::XalanDOMString"* dereferenceable(40) %46, i32 0, i32 %47)
          to label %invoke.cont45 unwind label %lpad29, !dbg !3288

invoke.cont45:                                    ; preds = %if.else44
  br label %for.end, !dbg !3289

if.end47:                                         ; preds = %invoke.cont42
  br label %for.cond, !dbg !3290, !llvm.loop !3291

for.end:                                          ; preds = %invoke.cont45
  br label %if.end48

if.end48:                                         ; preds = %for.end, %invoke.cont36
  %48 = load %"class.xalanc_1_10::XPathExecutionContext"*, %"class.xalanc_1_10::XPathExecutionContext"** %executionContext.addr, align 8, !dbg !3294
  %call50 = invoke dereferenceable(16) %"class.xalanc_1_10::XObjectFactory"* @_ZNK11xalanc_1_1021XPathExecutionContext17getXObjectFactoryEv(%"class.xalanc_1_10::XPathExecutionContext"* %48)
          to label %invoke.cont49 unwind label %lpad29, !dbg !3295

invoke.cont49:                                    ; preds = %if.end48
  %49 = load %"class.xalanc_1_10::XalanDOMString"*, %"class.xalanc_1_10::XalanDOMString"** %theResult, align 8, !dbg !3296
  %50 = bitcast %"class.xalanc_1_10::XObjectFactory"* %call50 to void (%"class.xalanc_1_10::XObjectPtr"*, %"class.xalanc_1_10::XObjectFactory"*, %"class.xalanc_1_10::XalanDOMString"*)***, !dbg !3297
  %vtable51 = load void (%"class.xalanc_1_10::XObjectPtr"*, %"class.xalanc_1_10::XObjectFactory"*, %"class.xalanc_1_10::XalanDOMString"*)**, void (%"class.xalanc_1_10::XObjectPtr"*, %"class.xalanc_1_10::XObjectFactory"*, %"class.xalanc_1_10::XalanDOMString"*)*** %50, align 8, !dbg !3297
  %vfn52 = getelementptr inbounds void (%"class.xalanc_1_10::XObjectPtr"*, %"class.xalanc_1_10::XObjectFactory"*, %"class.xalanc_1_10::XalanDOMString"*)*, void (%"class.xalanc_1_10::XObjectPtr"*, %"class.xalanc_1_10::XObjectFactory"*, %"class.xalanc_1_10::XalanDOMString"*)** %vtable51, i64 9, !dbg !3297
  %51 = load void (%"class.xalanc_1_10::XObjectPtr"*, %"class.xalanc_1_10::XObjectFactory"*, %"class.xalanc_1_10::XalanDOMString"*)*, void (%"class.xalanc_1_10::XObjectPtr"*, %"class.xalanc_1_10::XObjectFactory"*, %"class.xalanc_1_10::XalanDOMString"*)** %vfn52, align 8, !dbg !3297
  invoke void %51(%"class.xalanc_1_10::XObjectPtr"* sret %agg.result, %"class.xalanc_1_10::XObjectFactory"* %call50, %"class.xalanc_1_10::XalanDOMString"* dereferenceable(40) %49)
          to label %invoke.cont53 unwind label %lpad29, !dbg !3297

invoke.cont53:                                    ; preds = %invoke.cont49
  call void @_ZN11xalanc_1_1021XPathExecutionContext25GetAndReleaseCachedStringD2Ev(%"class.xalanc_1_10::XPathExecutionContext::GetAndReleaseCachedString"* %theGuard28) #4, !dbg !3263
  br label %return

return:                                           ; preds = %invoke.cont53, %if.then24
  ret void, !dbg !3298

eh.resume:                                        ; preds = %lpad29, %lpad
  %exn = load i8*, i8** %exn.slot, align 8, !dbg !3213
  %sel = load i32, i32* %ehselector.slot, align 4, !dbg !3213
  %lpad.val = insertvalue { i8*, i32 } undef, i8* %exn, 0, !dbg !3213
  %lpad.val54 = insertvalue { i8*, i32 } %lpad.val, i32 %sel, 1, !dbg !3213
  resume { i8*, i32 } %lpad.val54, !dbg !3213
}

declare dso_local double @_ZN11xalanc_1_1013DoubleSupport5roundEd(double) #3

; Function Attrs: noinline uwtable
define linkonce_odr dso_local dereferenceable(40) %"class.xalanc_1_10::XalanDOMString"* @_ZN11xalanc_1_1014XalanDOMString6assignEjt(%"class.xalanc_1_10::XalanDOMString"* %this, i32 %theCount, i16 zeroext %theChar) #0 comdat align 2 !dbg !3299 {
entry:
  %this.addr = alloca %"class.xalanc_1_10::XalanDOMString"*, align 8
  %theCount.addr = alloca i32, align 4
  %theChar.addr = alloca i16, align 2
  store %"class.xalanc_1_10::XalanDOMString"* %this, %"class.xalanc_1_10::XalanDOMString"** %this.addr, align 8
  call void @llvm.dbg.declare(metadata %"class.xalanc_1_10::XalanDOMString"** %this.addr, metadata !3300, metadata !DIExpression()), !dbg !3301
  store i32 %theCount, i32* %theCount.addr, align 4
  call void @llvm.dbg.declare(metadata i32* %theCount.addr, metadata !3302, metadata !DIExpression()), !dbg !3303
  store i16 %theChar, i16* %theChar.addr, align 2
  call void @llvm.dbg.declare(metadata i16* %theChar.addr, metadata !3304, metadata !DIExpression()), !dbg !3305
  %this1 = load %"class.xalanc_1_10::XalanDOMString"*, %"class.xalanc_1_10::XalanDOMString"** %this.addr, align 8
  call void @_ZNK11xalanc_1_1014XalanDOMString10invariantsEv(%"class.xalanc_1_10::XalanDOMString"* %this1), !dbg !3306
  call void @_ZN11xalanc_1_1014XalanDOMString5eraseEjj(%"class.xalanc_1_10::XalanDOMString"* %this1, i32 0, i32 -1), !dbg !3307
  call void @_ZNK11xalanc_1_1014XalanDOMString10invariantsEv(%"class.xalanc_1_10::XalanDOMString"* %this1), !dbg !3308
  %0 = load i32, i32* %theCount.addr, align 4, !dbg !3309
  %1 = load i16, i16* %theChar.addr, align 2, !dbg !3310
  %call = call dereferenceable(40) %"class.xalanc_1_10::XalanDOMString"* @_ZN11xalanc_1_1014XalanDOMString6appendEjt(%"class.xalanc_1_10::XalanDOMString"* %this1, i32 %0, i16 zeroext %1), !dbg !3311
  ret %"class.xalanc_1_10::XalanDOMString"* %call, !dbg !3312
}

; Function Attrs: noinline nounwind uwtable
define linkonce_odr dso_local dereferenceable(2) i16* @_ZNK11xalanc_1_1014XalanDOMStringixEj(%"class.xalanc_1_10::XalanDOMString"* %this, i32 %theIndex) #2 comdat align 2 !dbg !3313 {
entry:
  %this.addr = alloca %"class.xalanc_1_10::XalanDOMString"*, align 8
  %theIndex.addr = alloca i32, align 4
  store %"class.xalanc_1_10::XalanDOMString"* %this, %"class.xalanc_1_10::XalanDOMString"** %this.addr, align 8
  call void @llvm.dbg.declare(metadata %"class.xalanc_1_10::XalanDOMString"** %this.addr, metadata !3314, metadata !DIExpression()), !dbg !3315
  store i32 %theIndex, i32* %theIndex.addr, align 4
  call void @llvm.dbg.declare(metadata i32* %theIndex.addr, metadata !3316, metadata !DIExpression()), !dbg !3317
  %this1 = load %"class.xalanc_1_10::XalanDOMString"*, %"class.xalanc_1_10::XalanDOMString"** %this.addr, align 8
  call void @_ZNK11xalanc_1_1014XalanDOMString10invariantsEv(%"class.xalanc_1_10::XalanDOMString"* %this1), !dbg !3318
  %m_data = getelementptr inbounds %"class.xalanc_1_10::XalanDOMString", %"class.xalanc_1_10::XalanDOMString"* %this1, i32 0, i32 0, !dbg !3319
  %0 = load i32, i32* %theIndex.addr, align 4, !dbg !3320
  %conv = zext i32 %0 to i64, !dbg !3320
  %call = call dereferenceable(2) i16* @_ZNK11xalanc_1_1011XalanVectorItNS_31MemoryManagedConstructionTraitsItEEEixEm(%"class.xalanc_1_10::XalanVector.0"* %m_data, i64 %conv), !dbg !3319
  ret i16* %call, !dbg !3321
}

; Function Attrs: noinline uwtable
define dso_local void @_ZNK11xalanc_1_1027XalanEXSLTFunctionEncodeURI7executeERNS_21XPathExecutionContextEPNS_9XalanNodeERKNS_11XalanVectorINS_10XObjectPtrENS_31MemoryManagedConstructionTraitsIS6_EEEEPKN11xercesc_2_77LocatorE(%"class.xalanc_1_10::XObjectPtr"* noalias sret %agg.result, %"class.xalanc_1_10::XalanEXSLTFunctionEncodeURI"* %this, %"class.xalanc_1_10::XPathExecutionContext"* dereferenceable(24) %executionContext, %"class.xalanc_1_10::XalanNode"* %context, %"class.xalanc_1_10::XalanVector"* dereferenceable(32) %args, %"class.xercesc_2_7::Locator"* %locator) unnamed_addr #0 align 2 personality i8* bitcast (i32 (...)* @__gxx_personality_v0 to i8*) !dbg !3322 {
entry:
  %result.ptr = alloca i8*, align 8
  %this.addr = alloca %"class.xalanc_1_10::XalanEXSLTFunctionEncodeURI"*, align 8
  %executionContext.addr = alloca %"class.xalanc_1_10::XPathExecutionContext"*, align 8
  %context.addr = alloca %"class.xalanc_1_10::XalanNode"*, align 8
  %args.addr = alloca %"class.xalanc_1_10::XalanVector"*, align 8
  %locator.addr = alloca %"class.xercesc_2_7::Locator"*, align 8
  %theSize = alloca i64, align 8
  %theGuard = alloca %"class.xalanc_1_10::XPathExecutionContext::GetAndReleaseCachedString", align 8
  %theBuffer = alloca %"class.xalanc_1_10::XalanDOMString"*, align 8
  %exn.slot = alloca i8*
  %ehselector.slot = alloca i32
  %theString = alloca %"class.xalanc_1_10::XalanDOMString"*, align 8
  %escapeReserved = alloca i8, align 1
  %fSupportedEncoding = alloca i8, align 1
  %theGuard34 = alloca %"class.xalanc_1_10::XPathExecutionContext::GetAndReleaseCachedString", align 8
  %theResult = alloca %"class.xalanc_1_10::XalanDOMString"*, align 8
  %theGuard1 = alloca %"class.xalanc_1_10::XPathExecutionContext::GetAndReleaseCachedString", align 8
  %theBuffer39 = alloca %"class.xalanc_1_10::XalanDOMString"*, align 8
  %i = alloca i32, align 4
  %ch = alloca i16, align 2
  %highByte = alloca i16, align 2
  %lowByte = alloca i16, align 2
  %highSurrogate = alloca i16, align 2
  %nextChar = alloca i16, align 2
  %lowSurrogate = alloca i16, align 2
  %byte1 = alloca i16, align 2
  %byte2 = alloca i16, align 2
  %byte3 = alloca i16, align 2
  %byte4 = alloca i16, align 2
  %highByte142 = alloca i16, align 2
  %middleByte = alloca i16, align 2
  %lowByte152 = alloca i16, align 2
  %0 = bitcast %"class.xalanc_1_10::XObjectPtr"* %agg.result to i8*
  store i8* %0, i8** %result.ptr, align 8
  store %"class.xalanc_1_10::XalanEXSLTFunctionEncodeURI"* %this, %"class.xalanc_1_10::XalanEXSLTFunctionEncodeURI"** %this.addr, align 8
  call void @llvm.dbg.declare(metadata %"class.xalanc_1_10::XalanEXSLTFunctionEncodeURI"** %this.addr, metadata !3323, metadata !DIExpression()), !dbg !3325
  store %"class.xalanc_1_10::XPathExecutionContext"* %executionContext, %"class.xalanc_1_10::XPathExecutionContext"** %executionContext.addr, align 8
  call void @llvm.dbg.declare(metadata %"class.xalanc_1_10::XPathExecutionContext"** %executionContext.addr, metadata !3326, metadata !DIExpression()), !dbg !3327
  store %"class.xalanc_1_10::XalanNode"* %context, %"class.xalanc_1_10::XalanNode"** %context.addr, align 8
  call void @llvm.dbg.declare(metadata %"class.xalanc_1_10::XalanNode"** %context.addr, metadata !3328, metadata !DIExpression()), !dbg !3329
  store %"class.xalanc_1_10::XalanVector"* %args, %"class.xalanc_1_10::XalanVector"** %args.addr, align 8
  call void @llvm.dbg.declare(metadata %"class.xalanc_1_10::XalanVector"** %args.addr, metadata !3330, metadata !DIExpression()), !dbg !3331
  store %"class.xercesc_2_7::Locator"* %locator, %"class.xercesc_2_7::Locator"** %locator.addr, align 8
  call void @llvm.dbg.declare(metadata %"class.xercesc_2_7::Locator"** %locator.addr, metadata !3332, metadata !DIExpression()), !dbg !3333
  %this1 = load %"class.xalanc_1_10::XalanEXSLTFunctionEncodeURI"*, %"class.xalanc_1_10::XalanEXSLTFunctionEncodeURI"** %this.addr, align 8
  call void @llvm.dbg.declare(metadata i64* %theSize, metadata !3334, metadata !DIExpression()), !dbg !3335
  %1 = load %"class.xalanc_1_10::XalanVector"*, %"class.xalanc_1_10::XalanVector"** %args.addr, align 8, !dbg !3336
  %call = call i64 @_ZNK11xalanc_1_1011XalanVectorINS_10XObjectPtrENS_31MemoryManagedConstructionTraitsIS1_EEE4sizeEv(%"class.xalanc_1_10::XalanVector"* %1), !dbg !3337
  store i64 %call, i64* %theSize, align 8, !dbg !3335
  %2 = load i64, i64* %theSize, align 8, !dbg !3338
  %cmp = icmp ne i64 %2, 2, !dbg !3340
  br i1 %cmp, label %land.lhs.true, label %if.end, !dbg !3341

land.lhs.true:                                    ; preds = %entry
  %3 = load i64, i64* %theSize, align 8, !dbg !3342
  %cmp2 = icmp ne i64 %3, 3, !dbg !3343
  br i1 %cmp2, label %if.then, label %if.end, !dbg !3344

if.then:                                          ; preds = %land.lhs.true
  call void @llvm.dbg.declare(metadata %"class.xalanc_1_10::XPathExecutionContext::GetAndReleaseCachedString"* %theGuard, metadata !3345, metadata !DIExpression()), !dbg !3347
  %4 = load %"class.xalanc_1_10::XPathExecutionContext"*, %"class.xalanc_1_10::XPathExecutionContext"** %executionContext.addr, align 8, !dbg !3348
  call void @_ZN11xalanc_1_1021XPathExecutionContext25GetAndReleaseCachedStringC2ERS0_(%"class.xalanc_1_10::XPathExecutionContext::GetAndReleaseCachedString"* %theGuard, %"class.xalanc_1_10::XPathExecutionContext"* dereferenceable(24) %4), !dbg !3347
  call void @llvm.dbg.declare(metadata %"class.xalanc_1_10::XalanDOMString"** %theBuffer, metadata !3349, metadata !DIExpression()), !dbg !3350
  %call3 = invoke dereferenceable(40) %"class.xalanc_1_10::XalanDOMString"* @_ZNK11xalanc_1_1021XPathExecutionContext25GetAndReleaseCachedString3getEv(%"class.xalanc_1_10::XPathExecutionContext::GetAndReleaseCachedString"* %theGuard)
          to label %invoke.cont unwind label %lpad, !dbg !3351

invoke.cont:                                      ; preds = %if.then
  store %"class.xalanc_1_10::XalanDOMString"* %call3, %"class.xalanc_1_10::XalanDOMString"** %theBuffer, align 8, !dbg !3350
  %5 = load %"class.xalanc_1_10::XPathExecutionContext"*, %"class.xalanc_1_10::XPathExecutionContext"** %executionContext.addr, align 8, !dbg !3352
  %6 = load %"class.xalanc_1_10::XalanDOMString"*, %"class.xalanc_1_10::XalanDOMString"** %theBuffer, align 8, !dbg !3353
  %7 = bitcast %"class.xalanc_1_10::XalanEXSLTFunctionEncodeURI"* %this1 to %"class.xalanc_1_10::XalanDOMString"* (%"class.xalanc_1_10::XalanEXSLTFunctionEncodeURI"*, %"class.xalanc_1_10::XalanDOMString"*)***, !dbg !3354
  %vtable = load %"class.xalanc_1_10::XalanDOMString"* (%"class.xalanc_1_10::XalanEXSLTFunctionEncodeURI"*, %"class.xalanc_1_10::XalanDOMString"*)**, %"class.xalanc_1_10::XalanDOMString"* (%"class.xalanc_1_10::XalanEXSLTFunctionEncodeURI"*, %"class.xalanc_1_10::XalanDOMString"*)*** %7, align 8, !dbg !3354
  %vfn = getelementptr inbounds %"class.xalanc_1_10::XalanDOMString"* (%"class.xalanc_1_10::XalanEXSLTFunctionEncodeURI"*, %"class.xalanc_1_10::XalanDOMString"*)*, %"class.xalanc_1_10::XalanDOMString"* (%"class.xalanc_1_10::XalanEXSLTFunctionEncodeURI"*, %"class.xalanc_1_10::XalanDOMString"*)** %vtable, i64 8, !dbg !3354
  %8 = load %"class.xalanc_1_10::XalanDOMString"* (%"class.xalanc_1_10::XalanEXSLTFunctionEncodeURI"*, %"class.xalanc_1_10::XalanDOMString"*)*, %"class.xalanc_1_10::XalanDOMString"* (%"class.xalanc_1_10::XalanEXSLTFunctionEncodeURI"*, %"class.xalanc_1_10::XalanDOMString"*)** %vfn, align 8, !dbg !3354
  %call5 = invoke dereferenceable(40) %"class.xalanc_1_10::XalanDOMString"* %8(%"class.xalanc_1_10::XalanEXSLTFunctionEncodeURI"* %this1, %"class.xalanc_1_10::XalanDOMString"* dereferenceable(40) %6)
          to label %invoke.cont4 unwind label %lpad, !dbg !3354

invoke.cont4:                                     ; preds = %invoke.cont
  %9 = load %"class.xalanc_1_10::XalanNode"*, %"class.xalanc_1_10::XalanNode"** %context.addr, align 8, !dbg !3355
  %10 = load %"class.xercesc_2_7::Locator"*, %"class.xercesc_2_7::Locator"** %locator.addr, align 8, !dbg !3356
  %11 = bitcast %"class.xalanc_1_10::XPathExecutionContext"* %5 to void (%"class.xalanc_1_10::XPathExecutionContext"*, %"class.xalanc_1_10::XalanDOMString"*, %"class.xalanc_1_10::XalanNode"*, %"class.xercesc_2_7::Locator"*)***, !dbg !3357
  %vtable6 = load void (%"class.xalanc_1_10::XPathExecutionContext"*, %"class.xalanc_1_10::XalanDOMString"*, %"class.xalanc_1_10::XalanNode"*, %"class.xercesc_2_7::Locator"*)**, void (%"class.xalanc_1_10::XPathExecutionContext"*, %"class.xalanc_1_10::XalanDOMString"*, %"class.xalanc_1_10::XalanNode"*, %"class.xercesc_2_7::Locator"*)*** %11, align 8, !dbg !3357
  %vfn7 = getelementptr inbounds void (%"class.xalanc_1_10::XPathExecutionContext"*, %"class.xalanc_1_10::XalanDOMString"*, %"class.xalanc_1_10::XalanNode"*, %"class.xercesc_2_7::Locator"*)*, void (%"class.xalanc_1_10::XPathExecutionContext"*, %"class.xalanc_1_10::XalanDOMString"*, %"class.xalanc_1_10::XalanNode"*, %"class.xercesc_2_7::Locator"*)** %vtable6, i64 2, !dbg !3357
  %12 = load void (%"class.xalanc_1_10::XPathExecutionContext"*, %"class.xalanc_1_10::XalanDOMString"*, %"class.xalanc_1_10::XalanNode"*, %"class.xercesc_2_7::Locator"*)*, void (%"class.xalanc_1_10::XPathExecutionContext"*, %"class.xalanc_1_10::XalanDOMString"*, %"class.xalanc_1_10::XalanNode"*, %"class.xercesc_2_7::Locator"*)** %vfn7, align 8, !dbg !3357
  invoke void %12(%"class.xalanc_1_10::XPathExecutionContext"* %5, %"class.xalanc_1_10::XalanDOMString"* dereferenceable(40) %call5, %"class.xalanc_1_10::XalanNode"* %9, %"class.xercesc_2_7::Locator"* %10)
          to label %invoke.cont8 unwind label %lpad, !dbg !3357

invoke.cont8:                                     ; preds = %invoke.cont4
  call void @_ZN11xalanc_1_1021XPathExecutionContext25GetAndReleaseCachedStringD2Ev(%"class.xalanc_1_10::XPathExecutionContext::GetAndReleaseCachedString"* %theGuard) #4, !dbg !3358
  br label %if.end, !dbg !3359

lpad:                                             ; preds = %invoke.cont4, %invoke.cont, %if.then
  %13 = landingpad { i8*, i32 }
          cleanup, !dbg !3360
  %14 = extractvalue { i8*, i32 } %13, 0, !dbg !3360
  store i8* %14, i8** %exn.slot, align 8, !dbg !3360
  %15 = extractvalue { i8*, i32 } %13, 1, !dbg !3360
  store i32 %15, i32* %ehselector.slot, align 4, !dbg !3360
  call void @_ZN11xalanc_1_1021XPathExecutionContext25GetAndReleaseCachedStringD2Ev(%"class.xalanc_1_10::XPathExecutionContext::GetAndReleaseCachedString"* %theGuard) #4, !dbg !3358
  br label %eh.resume, !dbg !3358

if.end:                                           ; preds = %invoke.cont8, %land.lhs.true, %entry
  call void @llvm.dbg.declare(metadata %"class.xalanc_1_10::XalanDOMString"** %theString, metadata !3361, metadata !DIExpression()), !dbg !3362
  %16 = load %"class.xalanc_1_10::XalanVector"*, %"class.xalanc_1_10::XalanVector"** %args.addr, align 8, !dbg !3363
  %call9 = call dereferenceable(8) %"class.xalanc_1_10::XObjectPtr"* @_ZNK11xalanc_1_1011XalanVectorINS_10XObjectPtrENS_31MemoryManagedConstructionTraitsIS1_EEEixEm(%"class.xalanc_1_10::XalanVector"* %16, i64 0), !dbg !3363
  %call10 = call %"class.xalanc_1_10::XObject"* @_ZNK11xalanc_1_1010XObjectPtrptEv(%"class.xalanc_1_10::XObjectPtr"* %call9), !dbg !3363
  %17 = bitcast %"class.xalanc_1_10::XObject"* %call10 to %"class.xalanc_1_10::XalanDOMString"* (%"class.xalanc_1_10::XObject"*)***, !dbg !3364
  %vtable11 = load %"class.xalanc_1_10::XalanDOMString"* (%"class.xalanc_1_10::XObject"*)**, %"class.xalanc_1_10::XalanDOMString"* (%"class.xalanc_1_10::XObject"*)*** %17, align 8, !dbg !3364
  %vfn12 = getelementptr inbounds %"class.xalanc_1_10::XalanDOMString"* (%"class.xalanc_1_10::XObject"*)*, %"class.xalanc_1_10::XalanDOMString"* (%"class.xalanc_1_10::XObject"*)** %vtable11, i64 8, !dbg !3364
  %18 = load %"class.xalanc_1_10::XalanDOMString"* (%"class.xalanc_1_10::XObject"*)*, %"class.xalanc_1_10::XalanDOMString"* (%"class.xalanc_1_10::XObject"*)** %vfn12, align 8, !dbg !3364
  %call13 = call dereferenceable(40) %"class.xalanc_1_10::XalanDOMString"* %18(%"class.xalanc_1_10::XObject"* %call10), !dbg !3364
  store %"class.xalanc_1_10::XalanDOMString"* %call13, %"class.xalanc_1_10::XalanDOMString"** %theString, align 8, !dbg !3362
  call void @llvm.dbg.declare(metadata i8* %escapeReserved, metadata !3365, metadata !DIExpression()), !dbg !3367
  %19 = load %"class.xalanc_1_10::XalanVector"*, %"class.xalanc_1_10::XalanVector"** %args.addr, align 8, !dbg !3368
  %call14 = call dereferenceable(8) %"class.xalanc_1_10::XObjectPtr"* @_ZNK11xalanc_1_1011XalanVectorINS_10XObjectPtrENS_31MemoryManagedConstructionTraitsIS1_EEEixEm(%"class.xalanc_1_10::XalanVector"* %19, i64 1), !dbg !3368
  %call15 = call %"class.xalanc_1_10::XObject"* @_ZNK11xalanc_1_1010XObjectPtrptEv(%"class.xalanc_1_10::XObjectPtr"* %call14), !dbg !3368
  %20 = bitcast %"class.xalanc_1_10::XObject"* %call15 to i1 (%"class.xalanc_1_10::XObject"*)***, !dbg !3369
  %vtable16 = load i1 (%"class.xalanc_1_10::XObject"*)**, i1 (%"class.xalanc_1_10::XObject"*)*** %20, align 8, !dbg !3369
  %vfn17 = getelementptr inbounds i1 (%"class.xalanc_1_10::XObject"*)*, i1 (%"class.xalanc_1_10::XObject"*)** %vtable16, i64 7, !dbg !3369
  %21 = load i1 (%"class.xalanc_1_10::XObject"*)*, i1 (%"class.xalanc_1_10::XObject"*)** %vfn17, align 8, !dbg !3369
  %call18 = call zeroext i1 %21(%"class.xalanc_1_10::XObject"* %call15), !dbg !3369
  %frombool = zext i1 %call18 to i8, !dbg !3367
  store i8 %frombool, i8* %escapeReserved, align 1, !dbg !3367
  call void @llvm.dbg.declare(metadata i8* %fSupportedEncoding, metadata !3370, metadata !DIExpression()), !dbg !3371
  %22 = load i64, i64* %theSize, align 8, !dbg !3372
  %cmp19 = icmp eq i64 %22, 2, !dbg !3373
  br i1 %cmp19, label %lor.end, label %lor.rhs, !dbg !3374

lor.rhs:                                          ; preds = %if.end
  %23 = load %"class.xalanc_1_10::XalanVector"*, %"class.xalanc_1_10::XalanVector"** %args.addr, align 8, !dbg !3375
  %call20 = call dereferenceable(8) %"class.xalanc_1_10::XObjectPtr"* @_ZNK11xalanc_1_1011XalanVectorINS_10XObjectPtrENS_31MemoryManagedConstructionTraitsIS1_EEEixEm(%"class.xalanc_1_10::XalanVector"* %23, i64 2), !dbg !3375
  %call21 = call %"class.xalanc_1_10::XObject"* @_ZNK11xalanc_1_1010XObjectPtrptEv(%"class.xalanc_1_10::XObjectPtr"* %call20), !dbg !3375
  %24 = bitcast %"class.xalanc_1_10::XObject"* %call21 to %"class.xalanc_1_10::XalanDOMString"* (%"class.xalanc_1_10::XObject"*)***, !dbg !3376
  %vtable22 = load %"class.xalanc_1_10::XalanDOMString"* (%"class.xalanc_1_10::XObject"*)**, %"class.xalanc_1_10::XalanDOMString"* (%"class.xalanc_1_10::XObject"*)*** %24, align 8, !dbg !3376
  %vfn23 = getelementptr inbounds %"class.xalanc_1_10::XalanDOMString"* (%"class.xalanc_1_10::XObject"*)*, %"class.xalanc_1_10::XalanDOMString"* (%"class.xalanc_1_10::XObject"*)** %vtable22, i64 8, !dbg !3376
  %25 = load %"class.xalanc_1_10::XalanDOMString"* (%"class.xalanc_1_10::XObject"*)*, %"class.xalanc_1_10::XalanDOMString"* (%"class.xalanc_1_10::XObject"*)** %vfn23, align 8, !dbg !3376
  %call24 = call dereferenceable(40) %"class.xalanc_1_10::XalanDOMString"* %25(%"class.xalanc_1_10::XObject"* %call21), !dbg !3376
  %call25 = call zeroext i1 @_ZN11xalanc_1_1024XalanTranscodingServices14encodingIsUTF8ERKNS_14XalanDOMStringE(%"class.xalanc_1_10::XalanDOMString"* dereferenceable(40) %call24), !dbg !3377
  br label %lor.end, !dbg !3374

lor.end:                                          ; preds = %lor.rhs, %if.end
  %26 = phi i1 [ true, %if.end ], [ %call25, %lor.rhs ]
  %frombool26 = zext i1 %26 to i8, !dbg !3371
  store i8 %frombool26, i8* %fSupportedEncoding, align 1, !dbg !3371
  %27 = load %"class.xalanc_1_10::XalanDOMString"*, %"class.xalanc_1_10::XalanDOMString"** %theString, align 8, !dbg !3378
  %call27 = call i32 @_ZNK11xalanc_1_1014XalanDOMString6lengthEv(%"class.xalanc_1_10::XalanDOMString"* %27), !dbg !3380
  %cmp28 = icmp eq i32 %call27, 0, !dbg !3381
  br i1 %cmp28, label %if.then29, label %lor.lhs.false, !dbg !3382

lor.lhs.false:                                    ; preds = %lor.end
  %28 = load i8, i8* %fSupportedEncoding, align 1, !dbg !3383
  %tobool = trunc i8 %28 to i1, !dbg !3383
  br i1 %tobool, label %if.end33, label %if.then29, !dbg !3384

if.then29:                                        ; preds = %lor.lhs.false, %lor.end
  %29 = load %"class.xalanc_1_10::XPathExecutionContext"*, %"class.xalanc_1_10::XPathExecutionContext"** %executionContext.addr, align 8, !dbg !3385
  %call30 = call dereferenceable(16) %"class.xalanc_1_10::XObjectFactory"* @_ZNK11xalanc_1_1021XPathExecutionContext17getXObjectFactoryEv(%"class.xalanc_1_10::XPathExecutionContext"* %29), !dbg !3387
  %30 = bitcast %"class.xalanc_1_10::XObjectFactory"* %call30 to void (%"class.xalanc_1_10::XObjectPtr"*, %"class.xalanc_1_10::XObjectFactory"*, %"class.xalanc_1_10::XalanDOMString"*)***, !dbg !3388
  %vtable31 = load void (%"class.xalanc_1_10::XObjectPtr"*, %"class.xalanc_1_10::XObjectFactory"*, %"class.xalanc_1_10::XalanDOMString"*)**, void (%"class.xalanc_1_10::XObjectPtr"*, %"class.xalanc_1_10::XObjectFactory"*, %"class.xalanc_1_10::XalanDOMString"*)*** %30, align 8, !dbg !3388
  %vfn32 = getelementptr inbounds void (%"class.xalanc_1_10::XObjectPtr"*, %"class.xalanc_1_10::XObjectFactory"*, %"class.xalanc_1_10::XalanDOMString"*)*, void (%"class.xalanc_1_10::XObjectPtr"*, %"class.xalanc_1_10::XObjectFactory"*, %"class.xalanc_1_10::XalanDOMString"*)** %vtable31, i64 13, !dbg !3388
  %31 = load void (%"class.xalanc_1_10::XObjectPtr"*, %"class.xalanc_1_10::XObjectFactory"*, %"class.xalanc_1_10::XalanDOMString"*)*, void (%"class.xalanc_1_10::XObjectPtr"*, %"class.xalanc_1_10::XObjectFactory"*, %"class.xalanc_1_10::XalanDOMString"*)** %vfn32, align 8, !dbg !3388
  call void %31(%"class.xalanc_1_10::XObjectPtr"* sret %agg.result, %"class.xalanc_1_10::XObjectFactory"* %call30, %"class.xalanc_1_10::XalanDOMString"* dereferenceable(40) @_ZN11xalanc_1_10L13s_emptyStringE), !dbg !3388
  br label %return, !dbg !3389

if.end33:                                         ; preds = %lor.lhs.false
  call void @llvm.dbg.declare(metadata %"class.xalanc_1_10::XPathExecutionContext::GetAndReleaseCachedString"* %theGuard34, metadata !3390, metadata !DIExpression()), !dbg !3391
  %32 = load %"class.xalanc_1_10::XPathExecutionContext"*, %"class.xalanc_1_10::XPathExecutionContext"** %executionContext.addr, align 8, !dbg !3392
  call void @_ZN11xalanc_1_1021XPathExecutionContext25GetAndReleaseCachedStringC2ERS0_(%"class.xalanc_1_10::XPathExecutionContext::GetAndReleaseCachedString"* %theGuard34, %"class.xalanc_1_10::XPathExecutionContext"* dereferenceable(24) %32), !dbg !3391
  call void @llvm.dbg.declare(metadata %"class.xalanc_1_10::XalanDOMString"** %theResult, metadata !3393, metadata !DIExpression()), !dbg !3394
  %call37 = invoke dereferenceable(40) %"class.xalanc_1_10::XalanDOMString"* @_ZNK11xalanc_1_1021XPathExecutionContext25GetAndReleaseCachedString3getEv(%"class.xalanc_1_10::XPathExecutionContext::GetAndReleaseCachedString"* %theGuard34)
          to label %invoke.cont36 unwind label %lpad35, !dbg !3395

invoke.cont36:                                    ; preds = %if.end33
  store %"class.xalanc_1_10::XalanDOMString"* %call37, %"class.xalanc_1_10::XalanDOMString"** %theResult, align 8, !dbg !3394
  call void @llvm.dbg.declare(metadata %"class.xalanc_1_10::XPathExecutionContext::GetAndReleaseCachedString"* %theGuard1, metadata !3396, metadata !DIExpression()), !dbg !3397
  %33 = load %"class.xalanc_1_10::XPathExecutionContext"*, %"class.xalanc_1_10::XPathExecutionContext"** %executionContext.addr, align 8, !dbg !3398
  invoke void @_ZN11xalanc_1_1021XPathExecutionContext25GetAndReleaseCachedStringC2ERS0_(%"class.xalanc_1_10::XPathExecutionContext::GetAndReleaseCachedString"* %theGuard1, %"class.xalanc_1_10::XPathExecutionContext"* dereferenceable(24) %33)
          to label %invoke.cont38 unwind label %lpad35, !dbg !3397

invoke.cont38:                                    ; preds = %invoke.cont36
  call void @llvm.dbg.declare(metadata %"class.xalanc_1_10::XalanDOMString"** %theBuffer39, metadata !3399, metadata !DIExpression()), !dbg !3400
  %call42 = invoke dereferenceable(40) %"class.xalanc_1_10::XalanDOMString"* @_ZNK11xalanc_1_1021XPathExecutionContext25GetAndReleaseCachedString3getEv(%"class.xalanc_1_10::XPathExecutionContext::GetAndReleaseCachedString"* %theGuard1)
          to label %invoke.cont41 unwind label %lpad40, !dbg !3401

invoke.cont41:                                    ; preds = %invoke.cont38
  store %"class.xalanc_1_10::XalanDOMString"* %call42, %"class.xalanc_1_10::XalanDOMString"** %theBuffer39, align 8, !dbg !3400
  call void @llvm.dbg.declare(metadata i32* %i, metadata !3402, metadata !DIExpression()), !dbg !3404
  store i32 0, i32* %i, align 4, !dbg !3404
  br label %for.cond, !dbg !3405

for.cond:                                         ; preds = %for.inc, %invoke.cont41
  %34 = load i32, i32* %i, align 4, !dbg !3406
  %35 = load %"class.xalanc_1_10::XalanDOMString"*, %"class.xalanc_1_10::XalanDOMString"** %theString, align 8, !dbg !3408
  %call44 = invoke i32 @_ZNK11xalanc_1_1014XalanDOMString6lengthEv(%"class.xalanc_1_10::XalanDOMString"* %35)
          to label %invoke.cont43 unwind label %lpad40, !dbg !3409

invoke.cont43:                                    ; preds = %for.cond
  %cmp45 = icmp ult i32 %34, %call44, !dbg !3410
  br i1 %cmp45, label %for.body, label %for.end, !dbg !3411

for.body:                                         ; preds = %invoke.cont43
  call void @llvm.dbg.declare(metadata i16* %ch, metadata !3412, metadata !DIExpression()), !dbg !3414
  %36 = load %"class.xalanc_1_10::XalanDOMString"*, %"class.xalanc_1_10::XalanDOMString"** %theString, align 8, !dbg !3415
  %37 = load i32, i32* %i, align 4, !dbg !3416
  %call47 = invoke dereferenceable(2) i16* @_ZNK11xalanc_1_1014XalanDOMStringixEj(%"class.xalanc_1_10::XalanDOMString"* %36, i32 %37)
          to label %invoke.cont46 unwind label %lpad40, !dbg !3415

invoke.cont46:                                    ; preds = %for.body
  %38 = load i16, i16* %call47, align 2, !dbg !3415
  store i16 %38, i16* %ch, align 2, !dbg !3414
  %39 = load i16, i16* %ch, align 2, !dbg !3417
  %conv = zext i16 %39 to i32, !dbg !3417
  %cmp48 = icmp sle i32 %conv, 127, !dbg !3419
  br i1 %cmp48, label %if.then49, label %if.else73, !dbg !3420

if.then49:                                        ; preds = %invoke.cont46
  %40 = load i16, i16* %ch, align 2, !dbg !3421
  %conv50 = zext i16 %40 to i32, !dbg !3421
  %cmp51 = icmp slt i32 %conv50, 32, !dbg !3424
  br i1 %cmp51, label %if.then65, label %lor.lhs.false52, !dbg !3425

lor.lhs.false52:                                  ; preds = %if.then49
  %41 = load i16, i16* %ch, align 2, !dbg !3426
  %conv53 = zext i16 %41 to i32, !dbg !3426
  %cmp54 = icmp sgt i32 %conv53, 126, !dbg !3427
  br i1 %cmp54, label %if.then65, label %lor.lhs.false55, !dbg !3428

lor.lhs.false55:                                  ; preds = %lor.lhs.false52
  %call57 = invoke i16* @_ZSt4findIPKttET_S2_S2_RKT0_(i16* getelementptr inbounds ([12 x i16], [12 x i16]* @_ZN11xalanc_1_1027XalanEXSLTFunctionEncodeURI15s_excludedCharsE, i64 0, i64 0), i16* getelementptr inbounds (i16, i16* getelementptr inbounds ([12 x i16], [12 x i16]* @_ZN11xalanc_1_1027XalanEXSLTFunctionEncodeURI15s_excludedCharsE, i64 0, i64 0), i64 12), i16* dereferenceable(2) %ch)
          to label %invoke.cont56 unwind label %lpad40, !dbg !3429

invoke.cont56:                                    ; preds = %lor.lhs.false55
  %cmp58 = icmp ne i16* %call57, getelementptr inbounds (i16, i16* getelementptr inbounds ([12 x i16], [12 x i16]* @_ZN11xalanc_1_1027XalanEXSLTFunctionEncodeURI15s_excludedCharsE, i64 0, i64 0), i64 12), !dbg !3430
  br i1 %cmp58, label %if.then65, label %lor.lhs.false59, !dbg !3431

lor.lhs.false59:                                  ; preds = %invoke.cont56
  %42 = load i8, i8* %escapeReserved, align 1, !dbg !3432
  %tobool60 = trunc i8 %42 to i1, !dbg !3432
  br i1 %tobool60, label %land.lhs.true61, label %if.else, !dbg !3433

land.lhs.true61:                                  ; preds = %lor.lhs.false59
  %call63 = invoke i16* @_ZSt4findIPKttET_S2_S2_RKT0_(i16* getelementptr inbounds ([12 x i16], [12 x i16]* @_ZN11xalanc_1_1027XalanEXSLTFunctionEncodeURI15s_reservedCharsE, i64 0, i64 0), i16* getelementptr inbounds (i16, i16* getelementptr inbounds ([12 x i16], [12 x i16]* @_ZN11xalanc_1_1027XalanEXSLTFunctionEncodeURI15s_reservedCharsE, i64 0, i64 0), i64 12), i16* dereferenceable(2) %ch)
          to label %invoke.cont62 unwind label %lpad40, !dbg !3434

invoke.cont62:                                    ; preds = %land.lhs.true61
  %cmp64 = icmp ne i16* %call63, getelementptr inbounds (i16, i16* getelementptr inbounds ([12 x i16], [12 x i16]* @_ZN11xalanc_1_1027XalanEXSLTFunctionEncodeURI15s_reservedCharsE, i64 0, i64 0), i64 12), !dbg !3435
  br i1 %cmp64, label %if.then65, label %if.else, !dbg !3436

if.then65:                                        ; preds = %invoke.cont62, %invoke.cont56, %lor.lhs.false52, %if.then49
  %43 = load i16, i16* %ch, align 2, !dbg !3437
  %44 = load %"class.xalanc_1_10::XalanDOMString"*, %"class.xalanc_1_10::XalanDOMString"** %theBuffer39, align 8, !dbg !3439
  %call67 = invoke dereferenceable(40) %"class.xalanc_1_10::XalanDOMString"* @_ZNK11xalanc_1_1027XalanEXSLTFunctionEncodeURI12escapedOctetEtRNS_14XalanDOMStringE(%"class.xalanc_1_10::XalanEXSLTFunctionEncodeURI"* %this1, i16 zeroext %43, %"class.xalanc_1_10::XalanDOMString"* dereferenceable(40) %44)
          to label %invoke.cont66 unwind label %lpad40, !dbg !3440

invoke.cont66:                                    ; preds = %if.then65
  %45 = load %"class.xalanc_1_10::XalanDOMString"*, %"class.xalanc_1_10::XalanDOMString"** %theResult, align 8, !dbg !3441
  %call69 = invoke dereferenceable(40) %"class.xalanc_1_10::XalanDOMString"* @_ZN11xalanc_1_1014XalanDOMStringpLERKS0_(%"class.xalanc_1_10::XalanDOMString"* %45, %"class.xalanc_1_10::XalanDOMString"* dereferenceable(40) %call67)
          to label %invoke.cont68 unwind label %lpad40, !dbg !3442

invoke.cont68:                                    ; preds = %invoke.cont66
  br label %if.end72, !dbg !3443

lpad35:                                           ; preds = %invoke.cont36, %if.end33
  %46 = landingpad { i8*, i32 }
          cleanup, !dbg !3444
  %47 = extractvalue { i8*, i32 } %46, 0, !dbg !3444
  store i8* %47, i8** %exn.slot, align 8, !dbg !3444
  %48 = extractvalue { i8*, i32 } %46, 1, !dbg !3444
  store i32 %48, i32* %ehselector.slot, align 4, !dbg !3444
  br label %ehcleanup, !dbg !3444

lpad40:                                           ; preds = %invoke.cont173, %for.end, %invoke.cont165, %invoke.cont163, %invoke.cont161, %invoke.cont159, %invoke.cont157, %if.else141, %invoke.cont137, %invoke.cont135, %invoke.cont133, %invoke.cont131, %invoke.cont129, %invoke.cont127, %invoke.cont125, %invoke.cont98, %if.then94, %invoke.cont86, %invoke.cont84, %invoke.cont82, %if.then76, %if.else, %invoke.cont66, %if.then65, %land.lhs.true61, %lor.lhs.false55, %for.body, %for.cond, %invoke.cont38
  %49 = landingpad { i8*, i32 }
          cleanup, !dbg !3444
  %50 = extractvalue { i8*, i32 } %49, 0, !dbg !3444
  store i8* %50, i8** %exn.slot, align 8, !dbg !3444
  %51 = extractvalue { i8*, i32 } %49, 1, !dbg !3444
  store i32 %51, i32* %ehselector.slot, align 4, !dbg !3444
  call void @_ZN11xalanc_1_1021XPathExecutionContext25GetAndReleaseCachedStringD2Ev(%"class.xalanc_1_10::XPathExecutionContext::GetAndReleaseCachedString"* %theGuard1) #4, !dbg !3444
  br label %ehcleanup, !dbg !3444

if.else:                                          ; preds = %invoke.cont62, %lor.lhs.false59
  %52 = load i16, i16* %ch, align 2, !dbg !3445
  %53 = load %"class.xalanc_1_10::XalanDOMString"*, %"class.xalanc_1_10::XalanDOMString"** %theResult, align 8, !dbg !3447
  %call71 = invoke dereferenceable(40) %"class.xalanc_1_10::XalanDOMString"* @_ZN11xalanc_1_1014XalanDOMStringpLEt(%"class.xalanc_1_10::XalanDOMString"* %53, i16 zeroext %52)
          to label %invoke.cont70 unwind label %lpad40, !dbg !3448

invoke.cont70:                                    ; preds = %if.else
  br label %if.end72

if.end72:                                         ; preds = %invoke.cont70, %invoke.cont68
  br label %if.end171, !dbg !3449

if.else73:                                        ; preds = %invoke.cont46
  %54 = load i16, i16* %ch, align 2, !dbg !3450
  %conv74 = zext i16 %54 to i32, !dbg !3450
  %cmp75 = icmp sle i32 %conv74, 2047, !dbg !3452
  br i1 %cmp75, label %if.then76, label %if.else90, !dbg !3453

if.then76:                                        ; preds = %if.else73
  call void @llvm.dbg.declare(metadata i16* %highByte, metadata !3454, metadata !DIExpression()), !dbg !3456
  %55 = load i16, i16* %ch, align 2, !dbg !3457
  %conv77 = zext i16 %55 to i32, !dbg !3457
  %shr = ashr i32 %conv77, 6, !dbg !3458
  %or = or i32 %shr, 192, !dbg !3459
  %conv78 = trunc i32 %or to i16, !dbg !3460
  store i16 %conv78, i16* %highByte, align 2, !dbg !3456
  call void @llvm.dbg.declare(metadata i16* %lowByte, metadata !3461, metadata !DIExpression()), !dbg !3462
  %56 = load i16, i16* %ch, align 2, !dbg !3463
  %conv79 = zext i16 %56 to i32, !dbg !3463
  %and = and i32 %conv79, 63, !dbg !3464
  %or80 = or i32 %and, 128, !dbg !3465
  %conv81 = trunc i32 %or80 to i16, !dbg !3466
  store i16 %conv81, i16* %lowByte, align 2, !dbg !3462
  %57 = load i16, i16* %highByte, align 2, !dbg !3467
  %58 = load %"class.xalanc_1_10::XalanDOMString"*, %"class.xalanc_1_10::XalanDOMString"** %theBuffer39, align 8, !dbg !3468
  %call83 = invoke dereferenceable(40) %"class.xalanc_1_10::XalanDOMString"* @_ZNK11xalanc_1_1027XalanEXSLTFunctionEncodeURI12escapedOctetEtRNS_14XalanDOMStringE(%"class.xalanc_1_10::XalanEXSLTFunctionEncodeURI"* %this1, i16 zeroext %57, %"class.xalanc_1_10::XalanDOMString"* dereferenceable(40) %58)
          to label %invoke.cont82 unwind label %lpad40, !dbg !3469

invoke.cont82:                                    ; preds = %if.then76
  %59 = load %"class.xalanc_1_10::XalanDOMString"*, %"class.xalanc_1_10::XalanDOMString"** %theResult, align 8, !dbg !3470
  %call85 = invoke dereferenceable(40) %"class.xalanc_1_10::XalanDOMString"* @_ZN11xalanc_1_1014XalanDOMStringpLERKS0_(%"class.xalanc_1_10::XalanDOMString"* %59, %"class.xalanc_1_10::XalanDOMString"* dereferenceable(40) %call83)
          to label %invoke.cont84 unwind label %lpad40, !dbg !3471

invoke.cont84:                                    ; preds = %invoke.cont82
  %60 = load i16, i16* %lowByte, align 2, !dbg !3472
  %61 = load %"class.xalanc_1_10::XalanDOMString"*, %"class.xalanc_1_10::XalanDOMString"** %theBuffer39, align 8, !dbg !3473
  %call87 = invoke dereferenceable(40) %"class.xalanc_1_10::XalanDOMString"* @_ZNK11xalanc_1_1027XalanEXSLTFunctionEncodeURI12escapedOctetEtRNS_14XalanDOMStringE(%"class.xalanc_1_10::XalanEXSLTFunctionEncodeURI"* %this1, i16 zeroext %60, %"class.xalanc_1_10::XalanDOMString"* dereferenceable(40) %61)
          to label %invoke.cont86 unwind label %lpad40, !dbg !3474

invoke.cont86:                                    ; preds = %invoke.cont84
  %62 = load %"class.xalanc_1_10::XalanDOMString"*, %"class.xalanc_1_10::XalanDOMString"** %theResult, align 8, !dbg !3475
  %call89 = invoke dereferenceable(40) %"class.xalanc_1_10::XalanDOMString"* @_ZN11xalanc_1_1014XalanDOMStringpLERKS0_(%"class.xalanc_1_10::XalanDOMString"* %62, %"class.xalanc_1_10::XalanDOMString"* dereferenceable(40) %call87)
          to label %invoke.cont88 unwind label %lpad40, !dbg !3476

invoke.cont88:                                    ; preds = %invoke.cont86
  br label %if.end170, !dbg !3477

if.else90:                                        ; preds = %if.else73
  %63 = load i16, i16* %ch, align 2, !dbg !3478
  %conv91 = zext i16 %63 to i32, !dbg !3478
  %and92 = and i32 %conv91, 64512, !dbg !3480
  %cmp93 = icmp eq i32 %and92, 55296, !dbg !3481
  br i1 %cmp93, label %if.then94, label %if.else141, !dbg !3482

if.then94:                                        ; preds = %if.else90
  call void @llvm.dbg.declare(metadata i16* %highSurrogate, metadata !3483, metadata !DIExpression()), !dbg !3485
  %64 = load i16, i16* %ch, align 2, !dbg !3486
  %conv95 = zext i16 %64 to i32, !dbg !3486
  %and96 = and i32 %conv95, 1023, !dbg !3487
  %add = add nsw i32 %and96, 64, !dbg !3488
  %conv97 = trunc i32 %add to i16, !dbg !3489
  store i16 %conv97, i16* %highSurrogate, align 2, !dbg !3485
  call void @llvm.dbg.declare(metadata i16* %nextChar, metadata !3490, metadata !DIExpression()), !dbg !3491
  %65 = load %"class.xalanc_1_10::XalanDOMString"*, %"class.xalanc_1_10::XalanDOMString"** %theString, align 8, !dbg !3492
  %66 = load i32, i32* %i, align 4, !dbg !3493
  %inc = add i32 %66, 1, !dbg !3493
  store i32 %inc, i32* %i, align 4, !dbg !3493
  %call99 = invoke dereferenceable(2) i16* @_ZNK11xalanc_1_1014XalanDOMStringixEj(%"class.xalanc_1_10::XalanDOMString"* %65, i32 %inc)
          to label %invoke.cont98 unwind label %lpad40, !dbg !3492

invoke.cont98:                                    ; preds = %if.then94
  %67 = load i16, i16* %call99, align 2, !dbg !3492
  store i16 %67, i16* %nextChar, align 2, !dbg !3491
  call void @llvm.dbg.declare(metadata i16* %lowSurrogate, metadata !3494, metadata !DIExpression()), !dbg !3495
  %68 = load i16, i16* %nextChar, align 2, !dbg !3496
  %conv100 = zext i16 %68 to i32, !dbg !3496
  %and101 = and i32 %conv100, 1023, !dbg !3497
  %conv102 = trunc i32 %and101 to i16, !dbg !3496
  store i16 %conv102, i16* %lowSurrogate, align 2, !dbg !3495
  call void @llvm.dbg.declare(metadata i16* %byte1, metadata !3498, metadata !DIExpression()), !dbg !3499
  %69 = load i16, i16* %highSurrogate, align 2, !dbg !3500
  %conv103 = zext i16 %69 to i32, !dbg !3500
  %and104 = and i32 %conv103, 768, !dbg !3501
  %shr105 = ashr i32 %and104, 8, !dbg !3502
  %add106 = add nsw i32 240, %shr105, !dbg !3503
  %conv107 = trunc i32 %add106 to i16, !dbg !3504
  store i16 %conv107, i16* %byte1, align 2, !dbg !3499
  call void @llvm.dbg.declare(metadata i16* %byte2, metadata !3505, metadata !DIExpression()), !dbg !3506
  %70 = load i16, i16* %highSurrogate, align 2, !dbg !3507
  %conv108 = zext i16 %70 to i32, !dbg !3507
  %and109 = and i32 %conv108, 252, !dbg !3508
  %shr110 = ashr i32 %and109, 2, !dbg !3509
  %add111 = add nsw i32 128, %shr110, !dbg !3510
  %conv112 = trunc i32 %add111 to i16, !dbg !3511
  store i16 %conv112, i16* %byte2, align 2, !dbg !3506
  call void @llvm.dbg.declare(metadata i16* %byte3, metadata !3512, metadata !DIExpression()), !dbg !3513
  %71 = load i16, i16* %highSurrogate, align 2, !dbg !3514
  %conv113 = zext i16 %71 to i32, !dbg !3514
  %and114 = and i32 %conv113, 3, !dbg !3515
  %shl = shl i32 %and114, 4, !dbg !3516
  %add115 = add nsw i32 128, %shl, !dbg !3517
  %72 = load i16, i16* %lowSurrogate, align 2, !dbg !3518
  %conv116 = zext i16 %72 to i32, !dbg !3518
  %and117 = and i32 %conv116, 960, !dbg !3519
  %shr118 = ashr i32 %and117, 6, !dbg !3520
  %add119 = add nsw i32 %add115, %shr118, !dbg !3521
  %conv120 = trunc i32 %add119 to i16, !dbg !3522
  store i16 %conv120, i16* %byte3, align 2, !dbg !3513
  call void @llvm.dbg.declare(metadata i16* %byte4, metadata !3523, metadata !DIExpression()), !dbg !3524
  %73 = load i16, i16* %lowSurrogate, align 2, !dbg !3525
  %conv121 = zext i16 %73 to i32, !dbg !3525
  %and122 = and i32 %conv121, 63, !dbg !3526
  %add123 = add nsw i32 128, %and122, !dbg !3527
  %conv124 = trunc i32 %add123 to i16, !dbg !3528
  store i16 %conv124, i16* %byte4, align 2, !dbg !3524
  %74 = load i16, i16* %byte1, align 2, !dbg !3529
  %75 = load %"class.xalanc_1_10::XalanDOMString"*, %"class.xalanc_1_10::XalanDOMString"** %theBuffer39, align 8, !dbg !3530
  %call126 = invoke dereferenceable(40) %"class.xalanc_1_10::XalanDOMString"* @_ZNK11xalanc_1_1027XalanEXSLTFunctionEncodeURI12escapedOctetEtRNS_14XalanDOMStringE(%"class.xalanc_1_10::XalanEXSLTFunctionEncodeURI"* %this1, i16 zeroext %74, %"class.xalanc_1_10::XalanDOMString"* dereferenceable(40) %75)
          to label %invoke.cont125 unwind label %lpad40, !dbg !3531

invoke.cont125:                                   ; preds = %invoke.cont98
  %76 = load %"class.xalanc_1_10::XalanDOMString"*, %"class.xalanc_1_10::XalanDOMString"** %theResult, align 8, !dbg !3532
  %call128 = invoke dereferenceable(40) %"class.xalanc_1_10::XalanDOMString"* @_ZN11xalanc_1_1014XalanDOMStringpLERKS0_(%"class.xalanc_1_10::XalanDOMString"* %76, %"class.xalanc_1_10::XalanDOMString"* dereferenceable(40) %call126)
          to label %invoke.cont127 unwind label %lpad40, !dbg !3533

invoke.cont127:                                   ; preds = %invoke.cont125
  %77 = load i16, i16* %byte2, align 2, !dbg !3534
  %78 = load %"class.xalanc_1_10::XalanDOMString"*, %"class.xalanc_1_10::XalanDOMString"** %theBuffer39, align 8, !dbg !3535
  %call130 = invoke dereferenceable(40) %"class.xalanc_1_10::XalanDOMString"* @_ZNK11xalanc_1_1027XalanEXSLTFunctionEncodeURI12escapedOctetEtRNS_14XalanDOMStringE(%"class.xalanc_1_10::XalanEXSLTFunctionEncodeURI"* %this1, i16 zeroext %77, %"class.xalanc_1_10::XalanDOMString"* dereferenceable(40) %78)
          to label %invoke.cont129 unwind label %lpad40, !dbg !3536

invoke.cont129:                                   ; preds = %invoke.cont127
  %79 = load %"class.xalanc_1_10::XalanDOMString"*, %"class.xalanc_1_10::XalanDOMString"** %theResult, align 8, !dbg !3537
  %call132 = invoke dereferenceable(40) %"class.xalanc_1_10::XalanDOMString"* @_ZN11xalanc_1_1014XalanDOMStringpLERKS0_(%"class.xalanc_1_10::XalanDOMString"* %79, %"class.xalanc_1_10::XalanDOMString"* dereferenceable(40) %call130)
          to label %invoke.cont131 unwind label %lpad40, !dbg !3538

invoke.cont131:                                   ; preds = %invoke.cont129
  %80 = load i16, i16* %byte3, align 2, !dbg !3539
  %81 = load %"class.xalanc_1_10::XalanDOMString"*, %"class.xalanc_1_10::XalanDOMString"** %theBuffer39, align 8, !dbg !3540
  %call134 = invoke dereferenceable(40) %"class.xalanc_1_10::XalanDOMString"* @_ZNK11xalanc_1_1027XalanEXSLTFunctionEncodeURI12escapedOctetEtRNS_14XalanDOMStringE(%"class.xalanc_1_10::XalanEXSLTFunctionEncodeURI"* %this1, i16 zeroext %80, %"class.xalanc_1_10::XalanDOMString"* dereferenceable(40) %81)
          to label %invoke.cont133 unwind label %lpad40, !dbg !3541

invoke.cont133:                                   ; preds = %invoke.cont131
  %82 = load %"class.xalanc_1_10::XalanDOMString"*, %"class.xalanc_1_10::XalanDOMString"** %theResult, align 8, !dbg !3542
  %call136 = invoke dereferenceable(40) %"class.xalanc_1_10::XalanDOMString"* @_ZN11xalanc_1_1014XalanDOMStringpLERKS0_(%"class.xalanc_1_10::XalanDOMString"* %82, %"class.xalanc_1_10::XalanDOMString"* dereferenceable(40) %call134)
          to label %invoke.cont135 unwind label %lpad40, !dbg !3543

invoke.cont135:                                   ; preds = %invoke.cont133
  %83 = load i16, i16* %byte4, align 2, !dbg !3544
  %84 = load %"class.xalanc_1_10::XalanDOMString"*, %"class.xalanc_1_10::XalanDOMString"** %theBuffer39, align 8, !dbg !3545
  %call138 = invoke dereferenceable(40) %"class.xalanc_1_10::XalanDOMString"* @_ZNK11xalanc_1_1027XalanEXSLTFunctionEncodeURI12escapedOctetEtRNS_14XalanDOMStringE(%"class.xalanc_1_10::XalanEXSLTFunctionEncodeURI"* %this1, i16 zeroext %83, %"class.xalanc_1_10::XalanDOMString"* dereferenceable(40) %84)
          to label %invoke.cont137 unwind label %lpad40, !dbg !3546

invoke.cont137:                                   ; preds = %invoke.cont135
  %85 = load %"class.xalanc_1_10::XalanDOMString"*, %"class.xalanc_1_10::XalanDOMString"** %theResult, align 8, !dbg !3547
  %call140 = invoke dereferenceable(40) %"class.xalanc_1_10::XalanDOMString"* @_ZN11xalanc_1_1014XalanDOMStringpLERKS0_(%"class.xalanc_1_10::XalanDOMString"* %85, %"class.xalanc_1_10::XalanDOMString"* dereferenceable(40) %call138)
          to label %invoke.cont139 unwind label %lpad40, !dbg !3548

invoke.cont139:                                   ; preds = %invoke.cont137
  br label %if.end169, !dbg !3549

if.else141:                                       ; preds = %if.else90
  call void @llvm.dbg.declare(metadata i16* %highByte142, metadata !3550, metadata !DIExpression()), !dbg !3552
  %86 = load i16, i16* %ch, align 2, !dbg !3553
  %conv143 = zext i16 %86 to i32, !dbg !3553
  %shr144 = ashr i32 %conv143, 12, !dbg !3554
  %or145 = or i32 %shr144, 224, !dbg !3555
  %conv146 = trunc i32 %or145 to i16, !dbg !3556
  store i16 %conv146, i16* %highByte142, align 2, !dbg !3552
  call void @llvm.dbg.declare(metadata i16* %middleByte, metadata !3557, metadata !DIExpression()), !dbg !3558
  %87 = load i16, i16* %ch, align 2, !dbg !3559
  %conv147 = zext i16 %87 to i32, !dbg !3559
  %and148 = and i32 %conv147, 4032, !dbg !3560
  %shr149 = ashr i32 %and148, 6, !dbg !3561
  %or150 = or i32 %shr149, 128, !dbg !3562
  %conv151 = trunc i32 %or150 to i16, !dbg !3563
  store i16 %conv151, i16* %middleByte, align 2, !dbg !3558
  call void @llvm.dbg.declare(metadata i16* %lowByte152, metadata !3564, metadata !DIExpression()), !dbg !3565
  %88 = load i16, i16* %ch, align 2, !dbg !3566
  %conv153 = zext i16 %88 to i32, !dbg !3566
  %and154 = and i32 %conv153, 63, !dbg !3567
  %or155 = or i32 %and154, 128, !dbg !3568
  %conv156 = trunc i32 %or155 to i16, !dbg !3569
  store i16 %conv156, i16* %lowByte152, align 2, !dbg !3565
  %89 = load i16, i16* %highByte142, align 2, !dbg !3570
  %90 = load %"class.xalanc_1_10::XalanDOMString"*, %"class.xalanc_1_10::XalanDOMString"** %theBuffer39, align 8, !dbg !3571
  %call158 = invoke dereferenceable(40) %"class.xalanc_1_10::XalanDOMString"* @_ZNK11xalanc_1_1027XalanEXSLTFunctionEncodeURI12escapedOctetEtRNS_14XalanDOMStringE(%"class.xalanc_1_10::XalanEXSLTFunctionEncodeURI"* %this1, i16 zeroext %89, %"class.xalanc_1_10::XalanDOMString"* dereferenceable(40) %90)
          to label %invoke.cont157 unwind label %lpad40, !dbg !3572

invoke.cont157:                                   ; preds = %if.else141
  %91 = load %"class.xalanc_1_10::XalanDOMString"*, %"class.xalanc_1_10::XalanDOMString"** %theResult, align 8, !dbg !3573
  %call160 = invoke dereferenceable(40) %"class.xalanc_1_10::XalanDOMString"* @_ZN11xalanc_1_1014XalanDOMStringpLERKS0_(%"class.xalanc_1_10::XalanDOMString"* %91, %"class.xalanc_1_10::XalanDOMString"* dereferenceable(40) %call158)
          to label %invoke.cont159 unwind label %lpad40, !dbg !3574

invoke.cont159:                                   ; preds = %invoke.cont157
  %92 = load i16, i16* %middleByte, align 2, !dbg !3575
  %93 = load %"class.xalanc_1_10::XalanDOMString"*, %"class.xalanc_1_10::XalanDOMString"** %theBuffer39, align 8, !dbg !3576
  %call162 = invoke dereferenceable(40) %"class.xalanc_1_10::XalanDOMString"* @_ZNK11xalanc_1_1027XalanEXSLTFunctionEncodeURI12escapedOctetEtRNS_14XalanDOMStringE(%"class.xalanc_1_10::XalanEXSLTFunctionEncodeURI"* %this1, i16 zeroext %92, %"class.xalanc_1_10::XalanDOMString"* dereferenceable(40) %93)
          to label %invoke.cont161 unwind label %lpad40, !dbg !3577

invoke.cont161:                                   ; preds = %invoke.cont159
  %94 = load %"class.xalanc_1_10::XalanDOMString"*, %"class.xalanc_1_10::XalanDOMString"** %theResult, align 8, !dbg !3578
  %call164 = invoke dereferenceable(40) %"class.xalanc_1_10::XalanDOMString"* @_ZN11xalanc_1_1014XalanDOMStringpLERKS0_(%"class.xalanc_1_10::XalanDOMString"* %94, %"class.xalanc_1_10::XalanDOMString"* dereferenceable(40) %call162)
          to label %invoke.cont163 unwind label %lpad40, !dbg !3579

invoke.cont163:                                   ; preds = %invoke.cont161
  %95 = load i16, i16* %lowByte152, align 2, !dbg !3580
  %96 = load %"class.xalanc_1_10::XalanDOMString"*, %"class.xalanc_1_10::XalanDOMString"** %theBuffer39, align 8, !dbg !3581
  %call166 = invoke dereferenceable(40) %"class.xalanc_1_10::XalanDOMString"* @_ZNK11xalanc_1_1027XalanEXSLTFunctionEncodeURI12escapedOctetEtRNS_14XalanDOMStringE(%"class.xalanc_1_10::XalanEXSLTFunctionEncodeURI"* %this1, i16 zeroext %95, %"class.xalanc_1_10::XalanDOMString"* dereferenceable(40) %96)
          to label %invoke.cont165 unwind label %lpad40, !dbg !3582

invoke.cont165:                                   ; preds = %invoke.cont163
  %97 = load %"class.xalanc_1_10::XalanDOMString"*, %"class.xalanc_1_10::XalanDOMString"** %theResult, align 8, !dbg !3583
  %call168 = invoke dereferenceable(40) %"class.xalanc_1_10::XalanDOMString"* @_ZN11xalanc_1_1014XalanDOMStringpLERKS0_(%"class.xalanc_1_10::XalanDOMString"* %97, %"class.xalanc_1_10::XalanDOMString"* dereferenceable(40) %call166)
          to label %invoke.cont167 unwind label %lpad40, !dbg !3584

invoke.cont167:                                   ; preds = %invoke.cont165
  br label %if.end169

if.end169:                                        ; preds = %invoke.cont167, %invoke.cont139
  br label %if.end170

if.end170:                                        ; preds = %if.end169, %invoke.cont88
  br label %if.end171

if.end171:                                        ; preds = %if.end170, %if.end72
  br label %for.inc, !dbg !3585

for.inc:                                          ; preds = %if.end171
  %98 = load i32, i32* %i, align 4, !dbg !3586
  %inc172 = add i32 %98, 1, !dbg !3586
  store i32 %inc172, i32* %i, align 4, !dbg !3586
  br label %for.cond, !dbg !3587, !llvm.loop !3588

for.end:                                          ; preds = %invoke.cont43
  %99 = load %"class.xalanc_1_10::XPathExecutionContext"*, %"class.xalanc_1_10::XPathExecutionContext"** %executionContext.addr, align 8, !dbg !3590
  %call174 = invoke dereferenceable(16) %"class.xalanc_1_10::XObjectFactory"* @_ZNK11xalanc_1_1021XPathExecutionContext17getXObjectFactoryEv(%"class.xalanc_1_10::XPathExecutionContext"* %99)
          to label %invoke.cont173 unwind label %lpad40, !dbg !3591

invoke.cont173:                                   ; preds = %for.end
  %100 = load %"class.xalanc_1_10::XalanDOMString"*, %"class.xalanc_1_10::XalanDOMString"** %theResult, align 8, !dbg !3592
  %101 = bitcast %"class.xalanc_1_10::XObjectFactory"* %call174 to void (%"class.xalanc_1_10::XObjectPtr"*, %"class.xalanc_1_10::XObjectFactory"*, %"class.xalanc_1_10::XalanDOMString"*)***, !dbg !3593
  %vtable175 = load void (%"class.xalanc_1_10::XObjectPtr"*, %"class.xalanc_1_10::XObjectFactory"*, %"class.xalanc_1_10::XalanDOMString"*)**, void (%"class.xalanc_1_10::XObjectPtr"*, %"class.xalanc_1_10::XObjectFactory"*, %"class.xalanc_1_10::XalanDOMString"*)*** %101, align 8, !dbg !3593
  %vfn176 = getelementptr inbounds void (%"class.xalanc_1_10::XObjectPtr"*, %"class.xalanc_1_10::XObjectFactory"*, %"class.xalanc_1_10::XalanDOMString"*)*, void (%"class.xalanc_1_10::XObjectPtr"*, %"class.xalanc_1_10::XObjectFactory"*, %"class.xalanc_1_10::XalanDOMString"*)** %vtable175, i64 9, !dbg !3593
  %102 = load void (%"class.xalanc_1_10::XObjectPtr"*, %"class.xalanc_1_10::XObjectFactory"*, %"class.xalanc_1_10::XalanDOMString"*)*, void (%"class.xalanc_1_10::XObjectPtr"*, %"class.xalanc_1_10::XObjectFactory"*, %"class.xalanc_1_10::XalanDOMString"*)** %vfn176, align 8, !dbg !3593
  invoke void %102(%"class.xalanc_1_10::XObjectPtr"* sret %agg.result, %"class.xalanc_1_10::XObjectFactory"* %call174, %"class.xalanc_1_10::XalanDOMString"* dereferenceable(40) %100)
          to label %invoke.cont177 unwind label %lpad40, !dbg !3593

invoke.cont177:                                   ; preds = %invoke.cont173
  call void @_ZN11xalanc_1_1021XPathExecutionContext25GetAndReleaseCachedStringD2Ev(%"class.xalanc_1_10::XPathExecutionContext::GetAndReleaseCachedString"* %theGuard1) #4, !dbg !3444
  call void @_ZN11xalanc_1_1021XPathExecutionContext25GetAndReleaseCachedStringD2Ev(%"class.xalanc_1_10::XPathExecutionContext::GetAndReleaseCachedString"* %theGuard34) #4, !dbg !3444
  br label %return

ehcleanup:                                        ; preds = %lpad40, %lpad35
  call void @_ZN11xalanc_1_1021XPathExecutionContext25GetAndReleaseCachedStringD2Ev(%"class.xalanc_1_10::XPathExecutionContext::GetAndReleaseCachedString"* %theGuard34) #4, !dbg !3444
  br label %eh.resume, !dbg !3444

return:                                           ; preds = %invoke.cont177, %if.then29
  ret void, !dbg !3444

eh.resume:                                        ; preds = %ehcleanup, %lpad
  %exn = load i8*, i8** %exn.slot, align 8, !dbg !3358
  %sel = load i32, i32* %ehselector.slot, align 4, !dbg !3358
  %lpad.val = insertvalue { i8*, i32 } undef, i8* %exn, 0, !dbg !3358
  %lpad.val178 = insertvalue { i8*, i32 } %lpad.val, i32 %sel, 1, !dbg !3358
  resume { i8*, i32 } %lpad.val178, !dbg !3358
}

declare dso_local zeroext i1 @_ZN11xalanc_1_1024XalanTranscodingServices14encodingIsUTF8ERKNS_14XalanDOMStringE(%"class.xalanc_1_10::XalanDOMString"* dereferenceable(40)) #3

; Function Attrs: noinline uwtable
define linkonce_odr dso_local i16* @_ZSt4findIPKttET_S2_S2_RKT0_(i16* %__first, i16* %__last, i16* dereferenceable(2) %__val) #0 comdat !dbg !3594 {
entry:
  %__first.addr = alloca i16*, align 8
  %__last.addr = alloca i16*, align 8
  %__val.addr = alloca i16*, align 8
  %agg.tmp = alloca %"struct.__gnu_cxx::__ops::_Iter_equals_val", align 8
  store i16* %__first, i16** %__first.addr, align 8
  call void @llvm.dbg.declare(metadata i16** %__first.addr, metadata !3600, metadata !DIExpression()), !dbg !3601
  store i16* %__last, i16** %__last.addr, align 8
  call void @llvm.dbg.declare(metadata i16** %__last.addr, metadata !3602, metadata !DIExpression()), !dbg !3603
  store i16* %__val, i16** %__val.addr, align 8
  call void @llvm.dbg.declare(metadata i16** %__val.addr, metadata !3604, metadata !DIExpression()), !dbg !3605
  %0 = load i16*, i16** %__first.addr, align 8, !dbg !3606
  %1 = load i16*, i16** %__last.addr, align 8, !dbg !3607
  %2 = load i16*, i16** %__val.addr, align 8, !dbg !3608
  %call = call i16* @_ZN9__gnu_cxx5__ops17__iter_equals_valIKtEENS0_16_Iter_equals_valIT_EERS4_(i16* dereferenceable(2) %2), !dbg !3609
  %coerce.dive = getelementptr inbounds %"struct.__gnu_cxx::__ops::_Iter_equals_val", %"struct.__gnu_cxx::__ops::_Iter_equals_val"* %agg.tmp, i32 0, i32 0, !dbg !3609
  store i16* %call, i16** %coerce.dive, align 8, !dbg !3609
  %coerce.dive1 = getelementptr inbounds %"struct.__gnu_cxx::__ops::_Iter_equals_val", %"struct.__gnu_cxx::__ops::_Iter_equals_val"* %agg.tmp, i32 0, i32 0, !dbg !3610
  %3 = load i16*, i16** %coerce.dive1, align 8, !dbg !3610
  %call2 = call i16* @_ZSt9__find_ifIPKtN9__gnu_cxx5__ops16_Iter_equals_valIS0_EEET_S6_S6_T0_(i16* %0, i16* %1, i16* %3), !dbg !3610
  ret i16* %call2, !dbg !3611
}

; Function Attrs: noinline uwtable
define dso_local dereferenceable(40) %"class.xalanc_1_10::XalanDOMString"* @_ZNK11xalanc_1_1027XalanEXSLTFunctionEncodeURI12escapedOctetEtRNS_14XalanDOMStringE(%"class.xalanc_1_10::XalanEXSLTFunctionEncodeURI"* %this, i16 zeroext %theChar, %"class.xalanc_1_10::XalanDOMString"* dereferenceable(40) %theResult) #0 align 2 !dbg !3612 {
entry:
  %this.addr = alloca %"class.xalanc_1_10::XalanEXSLTFunctionEncodeURI"*, align 8
  %theChar.addr = alloca i16, align 2
  %theResult.addr = alloca %"class.xalanc_1_10::XalanDOMString"*, align 8
  store %"class.xalanc_1_10::XalanEXSLTFunctionEncodeURI"* %this, %"class.xalanc_1_10::XalanEXSLTFunctionEncodeURI"** %this.addr, align 8
  call void @llvm.dbg.declare(metadata %"class.xalanc_1_10::XalanEXSLTFunctionEncodeURI"** %this.addr, metadata !3613, metadata !DIExpression()), !dbg !3614
  store i16 %theChar, i16* %theChar.addr, align 2
  call void @llvm.dbg.declare(metadata i16* %theChar.addr, metadata !3615, metadata !DIExpression()), !dbg !3616
  store %"class.xalanc_1_10::XalanDOMString"* %theResult, %"class.xalanc_1_10::XalanDOMString"** %theResult.addr, align 8
  call void @llvm.dbg.declare(metadata %"class.xalanc_1_10::XalanDOMString"** %theResult.addr, metadata !3617, metadata !DIExpression()), !dbg !3618
  %this1 = load %"class.xalanc_1_10::XalanEXSLTFunctionEncodeURI"*, %"class.xalanc_1_10::XalanEXSLTFunctionEncodeURI"** %this.addr, align 8
  %0 = load %"class.xalanc_1_10::XalanDOMString"*, %"class.xalanc_1_10::XalanDOMString"** %theResult.addr, align 8, !dbg !3619
  %call = call dereferenceable(40) %"class.xalanc_1_10::XalanDOMString"* @_ZN11xalanc_1_1014XalanDOMStringaSEt(%"class.xalanc_1_10::XalanDOMString"* %0, i16 zeroext 37), !dbg !3620
  %1 = load i16, i16* %theChar.addr, align 2, !dbg !3621
  %conv = zext i16 %1 to i32, !dbg !3621
  %cmp = icmp slt i32 %conv, 16, !dbg !3623
  br i1 %cmp, label %if.then, label %if.end, !dbg !3624

if.then:                                          ; preds = %entry
  %2 = load %"class.xalanc_1_10::XalanDOMString"*, %"class.xalanc_1_10::XalanDOMString"** %theResult.addr, align 8, !dbg !3625
  %call2 = call dereferenceable(40) %"class.xalanc_1_10::XalanDOMString"* @_ZN11xalanc_1_1014XalanDOMStringpLEt(%"class.xalanc_1_10::XalanDOMString"* %2, i16 zeroext 48), !dbg !3627
  br label %if.end, !dbg !3628

if.end:                                           ; preds = %if.then, %entry
  %3 = load i16, i16* %theChar.addr, align 2, !dbg !3629
  %conv3 = zext i16 %3 to i64, !dbg !3629
  %4 = load %"class.xalanc_1_10::XalanDOMString"*, %"class.xalanc_1_10::XalanDOMString"** %theResult.addr, align 8, !dbg !3630
  %call4 = call dereferenceable(40) %"class.xalanc_1_10::XalanDOMString"* @_ZN11xalanc_1_1026UnsignedLongToHexDOMStringEmRNS_14XalanDOMStringE(i64 %conv3, %"class.xalanc_1_10::XalanDOMString"* dereferenceable(40) %4), !dbg !3631
  ret %"class.xalanc_1_10::XalanDOMString"* %call4, !dbg !3632
}

; Function Attrs: noinline uwtable
define linkonce_odr dso_local dereferenceable(40) %"class.xalanc_1_10::XalanDOMString"* @_ZN11xalanc_1_1014XalanDOMStringpLERKS0_(%"class.xalanc_1_10::XalanDOMString"* %this, %"class.xalanc_1_10::XalanDOMString"* dereferenceable(40) %theSource) #0 comdat align 2 !dbg !3633 {
entry:
  %this.addr = alloca %"class.xalanc_1_10::XalanDOMString"*, align 8
  %theSource.addr = alloca %"class.xalanc_1_10::XalanDOMString"*, align 8
  store %"class.xalanc_1_10::XalanDOMString"* %this, %"class.xalanc_1_10::XalanDOMString"** %this.addr, align 8
  call void @llvm.dbg.declare(metadata %"class.xalanc_1_10::XalanDOMString"** %this.addr, metadata !3634, metadata !DIExpression()), !dbg !3635
  store %"class.xalanc_1_10::XalanDOMString"* %theSource, %"class.xalanc_1_10::XalanDOMString"** %theSource.addr, align 8
  call void @llvm.dbg.declare(metadata %"class.xalanc_1_10::XalanDOMString"** %theSource.addr, metadata !3636, metadata !DIExpression()), !dbg !3637
  %this1 = load %"class.xalanc_1_10::XalanDOMString"*, %"class.xalanc_1_10::XalanDOMString"** %this.addr, align 8
  %0 = load %"class.xalanc_1_10::XalanDOMString"*, %"class.xalanc_1_10::XalanDOMString"** %theSource.addr, align 8, !dbg !3638
  %call = call dereferenceable(40) %"class.xalanc_1_10::XalanDOMString"* @_ZN11xalanc_1_1014XalanDOMString6appendERKS0_(%"class.xalanc_1_10::XalanDOMString"* %this1, %"class.xalanc_1_10::XalanDOMString"* dereferenceable(40) %0), !dbg !3639
  ret %"class.xalanc_1_10::XalanDOMString"* %call, !dbg !3640
}

; Function Attrs: noinline uwtable
define linkonce_odr dso_local dereferenceable(40) %"class.xalanc_1_10::XalanDOMString"* @_ZN11xalanc_1_1014XalanDOMStringpLEt(%"class.xalanc_1_10::XalanDOMString"* %this, i16 zeroext %theChar) #0 comdat align 2 !dbg !3641 {
entry:
  %this.addr = alloca %"class.xalanc_1_10::XalanDOMString"*, align 8
  %theChar.addr = alloca i16, align 2
  store %"class.xalanc_1_10::XalanDOMString"* %this, %"class.xalanc_1_10::XalanDOMString"** %this.addr, align 8
  call void @llvm.dbg.declare(metadata %"class.xalanc_1_10::XalanDOMString"** %this.addr, metadata !3642, metadata !DIExpression()), !dbg !3643
  store i16 %theChar, i16* %theChar.addr, align 2
  call void @llvm.dbg.declare(metadata i16* %theChar.addr, metadata !3644, metadata !DIExpression()), !dbg !3645
  %this1 = load %"class.xalanc_1_10::XalanDOMString"*, %"class.xalanc_1_10::XalanDOMString"** %this.addr, align 8
  %0 = load i16, i16* %theChar.addr, align 2, !dbg !3646
  %call = call dereferenceable(40) %"class.xalanc_1_10::XalanDOMString"* @_ZN11xalanc_1_1014XalanDOMString6appendEjt(%"class.xalanc_1_10::XalanDOMString"* %this1, i32 1, i16 zeroext %0), !dbg !3647
  ret %"class.xalanc_1_10::XalanDOMString"* %this1, !dbg !3648
}

; Function Attrs: noinline uwtable
define linkonce_odr dso_local dereferenceable(40) %"class.xalanc_1_10::XalanDOMString"* @_ZN11xalanc_1_1014XalanDOMStringaSEt(%"class.xalanc_1_10::XalanDOMString"* %this, i16 zeroext %theRHS) #0 comdat align 2 !dbg !3649 {
entry:
  %this.addr = alloca %"class.xalanc_1_10::XalanDOMString"*, align 8
  %theRHS.addr = alloca i16, align 2
  store %"class.xalanc_1_10::XalanDOMString"* %this, %"class.xalanc_1_10::XalanDOMString"** %this.addr, align 8
  call void @llvm.dbg.declare(metadata %"class.xalanc_1_10::XalanDOMString"** %this.addr, metadata !3650, metadata !DIExpression()), !dbg !3651
  store i16 %theRHS, i16* %theRHS.addr, align 2
  call void @llvm.dbg.declare(metadata i16* %theRHS.addr, metadata !3652, metadata !DIExpression()), !dbg !3653
  %this1 = load %"class.xalanc_1_10::XalanDOMString"*, %"class.xalanc_1_10::XalanDOMString"** %this.addr, align 8
  %0 = load i16, i16* %theRHS.addr, align 2, !dbg !3654
  %call = call dereferenceable(40) %"class.xalanc_1_10::XalanDOMString"* @_ZN11xalanc_1_1014XalanDOMString6assignEjt(%"class.xalanc_1_10::XalanDOMString"* %this1, i32 1, i16 zeroext %0), !dbg !3655
  ret %"class.xalanc_1_10::XalanDOMString"* %call, !dbg !3656
}

declare dso_local dereferenceable(40) %"class.xalanc_1_10::XalanDOMString"* @_ZN11xalanc_1_1026UnsignedLongToHexDOMStringEmRNS_14XalanDOMStringE(i64, %"class.xalanc_1_10::XalanDOMString"* dereferenceable(40)) #3

; Function Attrs: noinline uwtable
define dso_local void @_ZNK11xalanc_1_1027XalanEXSLTFunctionDecodeURI7executeERNS_21XPathExecutionContextEPNS_9XalanNodeERKNS_11XalanVectorINS_10XObjectPtrENS_31MemoryManagedConstructionTraitsIS6_EEEEPKN11xercesc_2_77LocatorE(%"class.xalanc_1_10::XObjectPtr"* noalias sret %agg.result, %"class.xalanc_1_10::XalanEXSLTFunctionDecodeURI"* %this, %"class.xalanc_1_10::XPathExecutionContext"* dereferenceable(24) %executionContext, %"class.xalanc_1_10::XalanNode"* %context, %"class.xalanc_1_10::XalanVector"* dereferenceable(32) %args, %"class.xercesc_2_7::Locator"* %locator) unnamed_addr #0 align 2 personality i8* bitcast (i32 (...)* @__gxx_personality_v0 to i8*) !dbg !3657 {
entry:
  %result.ptr = alloca i8*, align 8
  %this.addr = alloca %"class.xalanc_1_10::XalanEXSLTFunctionDecodeURI"*, align 8
  %executionContext.addr = alloca %"class.xalanc_1_10::XPathExecutionContext"*, align 8
  %context.addr = alloca %"class.xalanc_1_10::XalanNode"*, align 8
  %args.addr = alloca %"class.xalanc_1_10::XalanVector"*, align 8
  %locator.addr = alloca %"class.xercesc_2_7::Locator"*, align 8
  %theSize = alloca i64, align 8
  %theGuard = alloca %"class.xalanc_1_10::XPathExecutionContext::GetAndReleaseCachedString", align 8
  %exn.slot = alloca i8*
  %ehselector.slot = alloca i32
  %theString = alloca %"class.xalanc_1_10::XalanDOMString"*, align 8
  %fSupportedEncoding = alloca i8, align 1
  %theGuard28 = alloca %"class.xalanc_1_10::XPathExecutionContext::GetAndReleaseCachedString", align 8
  %theResult = alloca %"class.xalanc_1_10::XalanDOMString"*, align 8
  %i = alloca i32, align 4
  %ch = alloca i16, align 2
  %numOctets = alloca i32, align 4
  %j = alloca i32, align 4
  %byte1 = alloca i16, align 2
  %byte2 = alloca i16, align 2
  %byte2105 = alloca i16, align 2
  %byte3 = alloca i16, align 2
  %byte2157 = alloca i16, align 2
  %byte3167 = alloca i16, align 2
  %byte4 = alloca i16, align 2
  %0 = bitcast %"class.xalanc_1_10::XObjectPtr"* %agg.result to i8*
  store i8* %0, i8** %result.ptr, align 8
  store %"class.xalanc_1_10::XalanEXSLTFunctionDecodeURI"* %this, %"class.xalanc_1_10::XalanEXSLTFunctionDecodeURI"** %this.addr, align 8
  call void @llvm.dbg.declare(metadata %"class.xalanc_1_10::XalanEXSLTFunctionDecodeURI"** %this.addr, metadata !3658, metadata !DIExpression()), !dbg !3660
  store %"class.xalanc_1_10::XPathExecutionContext"* %executionContext, %"class.xalanc_1_10::XPathExecutionContext"** %executionContext.addr, align 8
  call void @llvm.dbg.declare(metadata %"class.xalanc_1_10::XPathExecutionContext"** %executionContext.addr, metadata !3661, metadata !DIExpression()), !dbg !3662
  store %"class.xalanc_1_10::XalanNode"* %context, %"class.xalanc_1_10::XalanNode"** %context.addr, align 8
  call void @llvm.dbg.declare(metadata %"class.xalanc_1_10::XalanNode"** %context.addr, metadata !3663, metadata !DIExpression()), !dbg !3664
  store %"class.xalanc_1_10::XalanVector"* %args, %"class.xalanc_1_10::XalanVector"** %args.addr, align 8
  call void @llvm.dbg.declare(metadata %"class.xalanc_1_10::XalanVector"** %args.addr, metadata !3665, metadata !DIExpression()), !dbg !3666
  store %"class.xercesc_2_7::Locator"* %locator, %"class.xercesc_2_7::Locator"** %locator.addr, align 8
  call void @llvm.dbg.declare(metadata %"class.xercesc_2_7::Locator"** %locator.addr, metadata !3667, metadata !DIExpression()), !dbg !3668
  %this1 = load %"class.xalanc_1_10::XalanEXSLTFunctionDecodeURI"*, %"class.xalanc_1_10::XalanEXSLTFunctionDecodeURI"** %this.addr, align 8
  call void @llvm.dbg.declare(metadata i64* %theSize, metadata !3669, metadata !DIExpression()), !dbg !3670
  %1 = load %"class.xalanc_1_10::XalanVector"*, %"class.xalanc_1_10::XalanVector"** %args.addr, align 8, !dbg !3671
  %call = call i64 @_ZNK11xalanc_1_1011XalanVectorINS_10XObjectPtrENS_31MemoryManagedConstructionTraitsIS1_EEE4sizeEv(%"class.xalanc_1_10::XalanVector"* %1), !dbg !3672
  store i64 %call, i64* %theSize, align 8, !dbg !3670
  %2 = load i64, i64* %theSize, align 8, !dbg !3673
  %cmp = icmp ne i64 %2, 1, !dbg !3675
  br i1 %cmp, label %land.lhs.true, label %if.end, !dbg !3676

land.lhs.true:                                    ; preds = %entry
  %3 = load i64, i64* %theSize, align 8, !dbg !3677
  %cmp2 = icmp ne i64 %3, 2, !dbg !3678
  br i1 %cmp2, label %if.then, label %if.end, !dbg !3679

if.then:                                          ; preds = %land.lhs.true
  call void @llvm.dbg.declare(metadata %"class.xalanc_1_10::XPathExecutionContext::GetAndReleaseCachedString"* %theGuard, metadata !3680, metadata !DIExpression()), !dbg !3684
  %4 = load %"class.xalanc_1_10::XPathExecutionContext"*, %"class.xalanc_1_10::XPathExecutionContext"** %executionContext.addr, align 8, !dbg !3685
  call void @_ZN11xalanc_1_1021XPathExecutionContext25GetAndReleaseCachedStringC2ERS0_(%"class.xalanc_1_10::XPathExecutionContext::GetAndReleaseCachedString"* %theGuard, %"class.xalanc_1_10::XPathExecutionContext"* dereferenceable(24) %4), !dbg !3684
  %5 = load %"class.xalanc_1_10::XPathExecutionContext"*, %"class.xalanc_1_10::XPathExecutionContext"** %executionContext.addr, align 8, !dbg !3686
  %call3 = invoke dereferenceable(40) %"class.xalanc_1_10::XalanDOMString"* @_ZNK11xalanc_1_1021XPathExecutionContext25GetAndReleaseCachedString3getEv(%"class.xalanc_1_10::XPathExecutionContext::GetAndReleaseCachedString"* %theGuard)
          to label %invoke.cont unwind label %lpad, !dbg !3687

invoke.cont:                                      ; preds = %if.then
  %6 = bitcast %"class.xalanc_1_10::XalanEXSLTFunctionDecodeURI"* %this1 to %"class.xalanc_1_10::XalanDOMString"* (%"class.xalanc_1_10::XalanEXSLTFunctionDecodeURI"*, %"class.xalanc_1_10::XalanDOMString"*)***, !dbg !3688
  %vtable = load %"class.xalanc_1_10::XalanDOMString"* (%"class.xalanc_1_10::XalanEXSLTFunctionDecodeURI"*, %"class.xalanc_1_10::XalanDOMString"*)**, %"class.xalanc_1_10::XalanDOMString"* (%"class.xalanc_1_10::XalanEXSLTFunctionDecodeURI"*, %"class.xalanc_1_10::XalanDOMString"*)*** %6, align 8, !dbg !3688
  %vfn = getelementptr inbounds %"class.xalanc_1_10::XalanDOMString"* (%"class.xalanc_1_10::XalanEXSLTFunctionDecodeURI"*, %"class.xalanc_1_10::XalanDOMString"*)*, %"class.xalanc_1_10::XalanDOMString"* (%"class.xalanc_1_10::XalanEXSLTFunctionDecodeURI"*, %"class.xalanc_1_10::XalanDOMString"*)** %vtable, i64 8, !dbg !3688
  %7 = load %"class.xalanc_1_10::XalanDOMString"* (%"class.xalanc_1_10::XalanEXSLTFunctionDecodeURI"*, %"class.xalanc_1_10::XalanDOMString"*)*, %"class.xalanc_1_10::XalanDOMString"* (%"class.xalanc_1_10::XalanEXSLTFunctionDecodeURI"*, %"class.xalanc_1_10::XalanDOMString"*)** %vfn, align 8, !dbg !3688
  %call5 = invoke dereferenceable(40) %"class.xalanc_1_10::XalanDOMString"* %7(%"class.xalanc_1_10::XalanEXSLTFunctionDecodeURI"* %this1, %"class.xalanc_1_10::XalanDOMString"* dereferenceable(40) %call3)
          to label %invoke.cont4 unwind label %lpad, !dbg !3688

invoke.cont4:                                     ; preds = %invoke.cont
  %8 = load %"class.xalanc_1_10::XalanNode"*, %"class.xalanc_1_10::XalanNode"** %context.addr, align 8, !dbg !3689
  %9 = load %"class.xercesc_2_7::Locator"*, %"class.xercesc_2_7::Locator"** %locator.addr, align 8, !dbg !3690
  %10 = bitcast %"class.xalanc_1_10::XPathExecutionContext"* %5 to void (%"class.xalanc_1_10::XPathExecutionContext"*, %"class.xalanc_1_10::XalanDOMString"*, %"class.xalanc_1_10::XalanNode"*, %"class.xercesc_2_7::Locator"*)***, !dbg !3691
  %vtable6 = load void (%"class.xalanc_1_10::XPathExecutionContext"*, %"class.xalanc_1_10::XalanDOMString"*, %"class.xalanc_1_10::XalanNode"*, %"class.xercesc_2_7::Locator"*)**, void (%"class.xalanc_1_10::XPathExecutionContext"*, %"class.xalanc_1_10::XalanDOMString"*, %"class.xalanc_1_10::XalanNode"*, %"class.xercesc_2_7::Locator"*)*** %10, align 8, !dbg !3691
  %vfn7 = getelementptr inbounds void (%"class.xalanc_1_10::XPathExecutionContext"*, %"class.xalanc_1_10::XalanDOMString"*, %"class.xalanc_1_10::XalanNode"*, %"class.xercesc_2_7::Locator"*)*, void (%"class.xalanc_1_10::XPathExecutionContext"*, %"class.xalanc_1_10::XalanDOMString"*, %"class.xalanc_1_10::XalanNode"*, %"class.xercesc_2_7::Locator"*)** %vtable6, i64 2, !dbg !3691
  %11 = load void (%"class.xalanc_1_10::XPathExecutionContext"*, %"class.xalanc_1_10::XalanDOMString"*, %"class.xalanc_1_10::XalanNode"*, %"class.xercesc_2_7::Locator"*)*, void (%"class.xalanc_1_10::XPathExecutionContext"*, %"class.xalanc_1_10::XalanDOMString"*, %"class.xalanc_1_10::XalanNode"*, %"class.xercesc_2_7::Locator"*)** %vfn7, align 8, !dbg !3691
  invoke void %11(%"class.xalanc_1_10::XPathExecutionContext"* %5, %"class.xalanc_1_10::XalanDOMString"* dereferenceable(40) %call5, %"class.xalanc_1_10::XalanNode"* %8, %"class.xercesc_2_7::Locator"* %9)
          to label %invoke.cont8 unwind label %lpad, !dbg !3691

invoke.cont8:                                     ; preds = %invoke.cont4
  call void @_ZN11xalanc_1_1021XPathExecutionContext25GetAndReleaseCachedStringD2Ev(%"class.xalanc_1_10::XPathExecutionContext::GetAndReleaseCachedString"* %theGuard) #4, !dbg !3692
  br label %if.end, !dbg !3693

lpad:                                             ; preds = %invoke.cont4, %invoke.cont, %if.then
  %12 = landingpad { i8*, i32 }
          cleanup, !dbg !3694
  %13 = extractvalue { i8*, i32 } %12, 0, !dbg !3694
  store i8* %13, i8** %exn.slot, align 8, !dbg !3694
  %14 = extractvalue { i8*, i32 } %12, 1, !dbg !3694
  store i32 %14, i32* %ehselector.slot, align 4, !dbg !3694
  call void @_ZN11xalanc_1_1021XPathExecutionContext25GetAndReleaseCachedStringD2Ev(%"class.xalanc_1_10::XPathExecutionContext::GetAndReleaseCachedString"* %theGuard) #4, !dbg !3692
  br label %eh.resume, !dbg !3692

if.end:                                           ; preds = %invoke.cont8, %land.lhs.true, %entry
  call void @llvm.dbg.declare(metadata %"class.xalanc_1_10::XalanDOMString"** %theString, metadata !3695, metadata !DIExpression()), !dbg !3696
  %15 = load %"class.xalanc_1_10::XalanVector"*, %"class.xalanc_1_10::XalanVector"** %args.addr, align 8, !dbg !3697
  %call9 = call dereferenceable(8) %"class.xalanc_1_10::XObjectPtr"* @_ZNK11xalanc_1_1011XalanVectorINS_10XObjectPtrENS_31MemoryManagedConstructionTraitsIS1_EEEixEm(%"class.xalanc_1_10::XalanVector"* %15, i64 0), !dbg !3697
  %call10 = call %"class.xalanc_1_10::XObject"* @_ZNK11xalanc_1_1010XObjectPtrptEv(%"class.xalanc_1_10::XObjectPtr"* %call9), !dbg !3697
  %16 = bitcast %"class.xalanc_1_10::XObject"* %call10 to %"class.xalanc_1_10::XalanDOMString"* (%"class.xalanc_1_10::XObject"*)***, !dbg !3698
  %vtable11 = load %"class.xalanc_1_10::XalanDOMString"* (%"class.xalanc_1_10::XObject"*)**, %"class.xalanc_1_10::XalanDOMString"* (%"class.xalanc_1_10::XObject"*)*** %16, align 8, !dbg !3698
  %vfn12 = getelementptr inbounds %"class.xalanc_1_10::XalanDOMString"* (%"class.xalanc_1_10::XObject"*)*, %"class.xalanc_1_10::XalanDOMString"* (%"class.xalanc_1_10::XObject"*)** %vtable11, i64 8, !dbg !3698
  %17 = load %"class.xalanc_1_10::XalanDOMString"* (%"class.xalanc_1_10::XObject"*)*, %"class.xalanc_1_10::XalanDOMString"* (%"class.xalanc_1_10::XObject"*)** %vfn12, align 8, !dbg !3698
  %call13 = call dereferenceable(40) %"class.xalanc_1_10::XalanDOMString"* %17(%"class.xalanc_1_10::XObject"* %call10), !dbg !3698
  store %"class.xalanc_1_10::XalanDOMString"* %call13, %"class.xalanc_1_10::XalanDOMString"** %theString, align 8, !dbg !3696
  call void @llvm.dbg.declare(metadata i8* %fSupportedEncoding, metadata !3699, metadata !DIExpression()), !dbg !3700
  %18 = load i64, i64* %theSize, align 8, !dbg !3701
  %cmp14 = icmp eq i64 %18, 1, !dbg !3702
  br i1 %cmp14, label %lor.end, label %lor.rhs, !dbg !3703

lor.rhs:                                          ; preds = %if.end
  %19 = load %"class.xalanc_1_10::XalanVector"*, %"class.xalanc_1_10::XalanVector"** %args.addr, align 8, !dbg !3704
  %call15 = call dereferenceable(8) %"class.xalanc_1_10::XObjectPtr"* @_ZNK11xalanc_1_1011XalanVectorINS_10XObjectPtrENS_31MemoryManagedConstructionTraitsIS1_EEEixEm(%"class.xalanc_1_10::XalanVector"* %19, i64 1), !dbg !3704
  %call16 = call %"class.xalanc_1_10::XObject"* @_ZNK11xalanc_1_1010XObjectPtrptEv(%"class.xalanc_1_10::XObjectPtr"* %call15), !dbg !3704
  %20 = bitcast %"class.xalanc_1_10::XObject"* %call16 to %"class.xalanc_1_10::XalanDOMString"* (%"class.xalanc_1_10::XObject"*)***, !dbg !3705
  %vtable17 = load %"class.xalanc_1_10::XalanDOMString"* (%"class.xalanc_1_10::XObject"*)**, %"class.xalanc_1_10::XalanDOMString"* (%"class.xalanc_1_10::XObject"*)*** %20, align 8, !dbg !3705
  %vfn18 = getelementptr inbounds %"class.xalanc_1_10::XalanDOMString"* (%"class.xalanc_1_10::XObject"*)*, %"class.xalanc_1_10::XalanDOMString"* (%"class.xalanc_1_10::XObject"*)** %vtable17, i64 8, !dbg !3705
  %21 = load %"class.xalanc_1_10::XalanDOMString"* (%"class.xalanc_1_10::XObject"*)*, %"class.xalanc_1_10::XalanDOMString"* (%"class.xalanc_1_10::XObject"*)** %vfn18, align 8, !dbg !3705
  %call19 = call dereferenceable(40) %"class.xalanc_1_10::XalanDOMString"* %21(%"class.xalanc_1_10::XObject"* %call16), !dbg !3705
  %call20 = call zeroext i1 @_ZN11xalanc_1_1024XalanTranscodingServices14encodingIsUTF8ERKNS_14XalanDOMStringE(%"class.xalanc_1_10::XalanDOMString"* dereferenceable(40) %call19), !dbg !3706
  br label %lor.end, !dbg !3703

lor.end:                                          ; preds = %lor.rhs, %if.end
  %22 = phi i1 [ true, %if.end ], [ %call20, %lor.rhs ]
  %frombool = zext i1 %22 to i8, !dbg !3700
  store i8 %frombool, i8* %fSupportedEncoding, align 1, !dbg !3700
  %23 = load %"class.xalanc_1_10::XalanDOMString"*, %"class.xalanc_1_10::XalanDOMString"** %theString, align 8, !dbg !3707
  %call21 = call i32 @_ZNK11xalanc_1_1014XalanDOMString6lengthEv(%"class.xalanc_1_10::XalanDOMString"* %23), !dbg !3709
  %cmp22 = icmp eq i32 %call21, 0, !dbg !3710
  br i1 %cmp22, label %if.then23, label %lor.lhs.false, !dbg !3711

lor.lhs.false:                                    ; preds = %lor.end
  %24 = load i8, i8* %fSupportedEncoding, align 1, !dbg !3712
  %tobool = trunc i8 %24 to i1, !dbg !3712
  br i1 %tobool, label %if.end27, label %if.then23, !dbg !3713

if.then23:                                        ; preds = %lor.lhs.false, %lor.end
  %25 = load %"class.xalanc_1_10::XPathExecutionContext"*, %"class.xalanc_1_10::XPathExecutionContext"** %executionContext.addr, align 8, !dbg !3714
  %call24 = call dereferenceable(16) %"class.xalanc_1_10::XObjectFactory"* @_ZNK11xalanc_1_1021XPathExecutionContext17getXObjectFactoryEv(%"class.xalanc_1_10::XPathExecutionContext"* %25), !dbg !3716
  %26 = bitcast %"class.xalanc_1_10::XObjectFactory"* %call24 to void (%"class.xalanc_1_10::XObjectPtr"*, %"class.xalanc_1_10::XObjectFactory"*, %"class.xalanc_1_10::XalanDOMString"*)***, !dbg !3717
  %vtable25 = load void (%"class.xalanc_1_10::XObjectPtr"*, %"class.xalanc_1_10::XObjectFactory"*, %"class.xalanc_1_10::XalanDOMString"*)**, void (%"class.xalanc_1_10::XObjectPtr"*, %"class.xalanc_1_10::XObjectFactory"*, %"class.xalanc_1_10::XalanDOMString"*)*** %26, align 8, !dbg !3717
  %vfn26 = getelementptr inbounds void (%"class.xalanc_1_10::XObjectPtr"*, %"class.xalanc_1_10::XObjectFactory"*, %"class.xalanc_1_10::XalanDOMString"*)*, void (%"class.xalanc_1_10::XObjectPtr"*, %"class.xalanc_1_10::XObjectFactory"*, %"class.xalanc_1_10::XalanDOMString"*)** %vtable25, i64 13, !dbg !3717
  %27 = load void (%"class.xalanc_1_10::XObjectPtr"*, %"class.xalanc_1_10::XObjectFactory"*, %"class.xalanc_1_10::XalanDOMString"*)*, void (%"class.xalanc_1_10::XObjectPtr"*, %"class.xalanc_1_10::XObjectFactory"*, %"class.xalanc_1_10::XalanDOMString"*)** %vfn26, align 8, !dbg !3717
  call void %27(%"class.xalanc_1_10::XObjectPtr"* sret %agg.result, %"class.xalanc_1_10::XObjectFactory"* %call24, %"class.xalanc_1_10::XalanDOMString"* dereferenceable(40) @_ZN11xalanc_1_10L13s_emptyStringE), !dbg !3717
  br label %return, !dbg !3718

if.end27:                                         ; preds = %lor.lhs.false
  call void @llvm.dbg.declare(metadata %"class.xalanc_1_10::XPathExecutionContext::GetAndReleaseCachedString"* %theGuard28, metadata !3719, metadata !DIExpression()), !dbg !3720
  %28 = load %"class.xalanc_1_10::XPathExecutionContext"*, %"class.xalanc_1_10::XPathExecutionContext"** %executionContext.addr, align 8, !dbg !3721
  call void @_ZN11xalanc_1_1021XPathExecutionContext25GetAndReleaseCachedStringC2ERS0_(%"class.xalanc_1_10::XPathExecutionContext::GetAndReleaseCachedString"* %theGuard28, %"class.xalanc_1_10::XPathExecutionContext"* dereferenceable(24) %28), !dbg !3720
  call void @llvm.dbg.declare(metadata %"class.xalanc_1_10::XalanDOMString"** %theResult, metadata !3722, metadata !DIExpression()), !dbg !3723
  %call31 = invoke dereferenceable(40) %"class.xalanc_1_10::XalanDOMString"* @_ZNK11xalanc_1_1021XPathExecutionContext25GetAndReleaseCachedString3getEv(%"class.xalanc_1_10::XPathExecutionContext::GetAndReleaseCachedString"* %theGuard28)
          to label %invoke.cont30 unwind label %lpad29, !dbg !3724

invoke.cont30:                                    ; preds = %if.end27
  store %"class.xalanc_1_10::XalanDOMString"* %call31, %"class.xalanc_1_10::XalanDOMString"** %theResult, align 8, !dbg !3723
  call void @llvm.dbg.declare(metadata i32* %i, metadata !3725, metadata !DIExpression()), !dbg !3727
  store i32 0, i32* %i, align 4, !dbg !3727
  br label %for.cond, !dbg !3728

for.cond:                                         ; preds = %for.inc, %invoke.cont30
  %29 = load i32, i32* %i, align 4, !dbg !3729
  %30 = load %"class.xalanc_1_10::XalanDOMString"*, %"class.xalanc_1_10::XalanDOMString"** %theString, align 8, !dbg !3731
  %call33 = invoke i32 @_ZNK11xalanc_1_1014XalanDOMString6lengthEv(%"class.xalanc_1_10::XalanDOMString"* %30)
          to label %invoke.cont32 unwind label %lpad29, !dbg !3732

invoke.cont32:                                    ; preds = %for.cond
  %cmp34 = icmp ult i32 %29, %call33, !dbg !3733
  br i1 %cmp34, label %for.body, label %for.end, !dbg !3734

for.body:                                         ; preds = %invoke.cont32
  call void @llvm.dbg.declare(metadata i16* %ch, metadata !3735, metadata !DIExpression()), !dbg !3737
  %31 = load %"class.xalanc_1_10::XalanDOMString"*, %"class.xalanc_1_10::XalanDOMString"** %theString, align 8, !dbg !3738
  %32 = load i32, i32* %i, align 4, !dbg !3739
  %call36 = invoke dereferenceable(2) i16* @_ZNK11xalanc_1_1014XalanDOMStringixEj(%"class.xalanc_1_10::XalanDOMString"* %31, i32 %32)
          to label %invoke.cont35 unwind label %lpad29, !dbg !3738

invoke.cont35:                                    ; preds = %for.body
  %33 = load i16, i16* %call36, align 2, !dbg !3738
  store i16 %33, i16* %ch, align 2, !dbg !3737
  %34 = load i16, i16* %ch, align 2, !dbg !3740
  %conv = zext i16 %34 to i32, !dbg !3740
  %cmp37 = icmp ne i32 %conv, 37, !dbg !3742
  br i1 %cmp37, label %if.then38, label %if.end41, !dbg !3743

if.then38:                                        ; preds = %invoke.cont35
  %35 = load i16, i16* %ch, align 2, !dbg !3744
  %36 = load %"class.xalanc_1_10::XalanDOMString"*, %"class.xalanc_1_10::XalanDOMString"** %theResult, align 8, !dbg !3746
  %call40 = invoke dereferenceable(40) %"class.xalanc_1_10::XalanDOMString"* @_ZN11xalanc_1_1014XalanDOMStringpLEt(%"class.xalanc_1_10::XalanDOMString"* %36, i16 zeroext %35)
          to label %invoke.cont39 unwind label %lpad29, !dbg !3747

invoke.cont39:                                    ; preds = %if.then38
  br label %for.inc, !dbg !3748

lpad29:                                           ; preds = %invoke.cont236, %for.end, %invoke.cont215, %if.end201, %invoke.cont181, %invoke.cont178, %invoke.cont174, %invoke.cont172, %invoke.cont169, %invoke.cont164, %invoke.cont162, %invoke.cont159, %if.then155, %if.end135, %invoke.cont119, %invoke.cont116, %invoke.cont112, %invoke.cont110, %invoke.cont107, %if.then103, %if.end88, %invoke.cont78, %invoke.cont75, %if.then72, %if.then63, %invoke.cont57, %invoke.cont54, %if.end52, %land.rhs, %while.cond, %if.then38, %for.body, %for.cond, %if.end27
  %37 = landingpad { i8*, i32 }
          cleanup, !dbg !3749
  %38 = extractvalue { i8*, i32 } %37, 0, !dbg !3749
  store i8* %38, i8** %exn.slot, align 8, !dbg !3749
  %39 = extractvalue { i8*, i32 } %37, 1, !dbg !3749
  store i32 %39, i32* %ehselector.slot, align 4, !dbg !3749
  call void @_ZN11xalanc_1_1021XPathExecutionContext25GetAndReleaseCachedStringD2Ev(%"class.xalanc_1_10::XPathExecutionContext::GetAndReleaseCachedString"* %theGuard28) #4, !dbg !3749
  br label %eh.resume, !dbg !3749

if.end41:                                         ; preds = %invoke.cont35
  call void @llvm.dbg.declare(metadata i32* %numOctets, metadata !3750, metadata !DIExpression()), !dbg !3751
  store i32 0, i32* %numOctets, align 4, !dbg !3751
  call void @llvm.dbg.declare(metadata i32* %j, metadata !3752, metadata !DIExpression()), !dbg !3753
  %40 = load i32, i32* %i, align 4, !dbg !3754
  store i32 %40, i32* %j, align 4, !dbg !3753
  br label %while.cond, !dbg !3755

while.cond:                                       ; preds = %while.body, %if.end41
  %41 = load %"class.xalanc_1_10::XalanDOMString"*, %"class.xalanc_1_10::XalanDOMString"** %theString, align 8, !dbg !3756
  %42 = load i32, i32* %j, align 4, !dbg !3757
  %call43 = invoke dereferenceable(2) i16* @_ZNK11xalanc_1_1014XalanDOMStringixEj(%"class.xalanc_1_10::XalanDOMString"* %41, i32 %42)
          to label %invoke.cont42 unwind label %lpad29, !dbg !3756

invoke.cont42:                                    ; preds = %while.cond
  %43 = load i16, i16* %call43, align 2, !dbg !3756
  %conv44 = zext i16 %43 to i32, !dbg !3756
  %cmp45 = icmp eq i32 %conv44, 37, !dbg !3758
  br i1 %cmp45, label %land.rhs, label %land.end, !dbg !3759

land.rhs:                                         ; preds = %invoke.cont42
  %44 = load i32, i32* %j, align 4, !dbg !3760
  %add = add i32 %44, 2, !dbg !3761
  %45 = load %"class.xalanc_1_10::XalanDOMString"*, %"class.xalanc_1_10::XalanDOMString"** %theString, align 8, !dbg !3762
  %call47 = invoke i32 @_ZNK11xalanc_1_1014XalanDOMString6lengthEv(%"class.xalanc_1_10::XalanDOMString"* %45)
          to label %invoke.cont46 unwind label %lpad29, !dbg !3763

invoke.cont46:                                    ; preds = %land.rhs
  %cmp48 = icmp ult i32 %add, %call47, !dbg !3764
  br label %land.end

land.end:                                         ; preds = %invoke.cont46, %invoke.cont42
  %46 = phi i1 [ false, %invoke.cont42 ], [ %cmp48, %invoke.cont46 ], !dbg !3765
  br i1 %46, label %while.body, label %while.end, !dbg !3755

while.body:                                       ; preds = %land.end
  %47 = load i32, i32* %numOctets, align 4, !dbg !3766
  %inc = add i32 %47, 1, !dbg !3766
  store i32 %inc, i32* %numOctets, align 4, !dbg !3766
  %48 = load i32, i32* %j, align 4, !dbg !3768
  %add49 = add i32 %48, 3, !dbg !3768
  store i32 %add49, i32* %j, align 4, !dbg !3768
  br label %while.cond, !dbg !3755, !llvm.loop !3769

while.end:                                        ; preds = %land.end
  %49 = load i32, i32* %numOctets, align 4, !dbg !3771
  %cmp50 = icmp ult i32 %49, 1, !dbg !3773
  br i1 %cmp50, label %if.then51, label %if.end52, !dbg !3774

if.then51:                                        ; preds = %while.end
  br label %for.end, !dbg !3775

if.end52:                                         ; preds = %while.end
  call void @llvm.dbg.declare(metadata i16* %byte1, metadata !3777, metadata !DIExpression()), !dbg !3778
  %50 = load %"class.xalanc_1_10::XPathExecutionContext"*, %"class.xalanc_1_10::XPathExecutionContext"** %executionContext.addr, align 8, !dbg !3779
  %51 = load %"class.xalanc_1_10::XalanNode"*, %"class.xalanc_1_10::XalanNode"** %context.addr, align 8, !dbg !3780
  %52 = load %"class.xercesc_2_7::Locator"*, %"class.xercesc_2_7::Locator"** %locator.addr, align 8, !dbg !3781
  %53 = load %"class.xalanc_1_10::XalanDOMString"*, %"class.xalanc_1_10::XalanDOMString"** %theString, align 8, !dbg !3782
  %54 = load i32, i32* %i, align 4, !dbg !3783
  %add53 = add i32 %54, 1, !dbg !3784
  %call55 = invoke dereferenceable(2) i16* @_ZNK11xalanc_1_1014XalanDOMStringixEj(%"class.xalanc_1_10::XalanDOMString"* %53, i32 %add53)
          to label %invoke.cont54 unwind label %lpad29, !dbg !3782

invoke.cont54:                                    ; preds = %if.end52
  %55 = load i16, i16* %call55, align 2, !dbg !3782
  %56 = load %"class.xalanc_1_10::XalanDOMString"*, %"class.xalanc_1_10::XalanDOMString"** %theString, align 8, !dbg !3785
  %57 = load i32, i32* %i, align 4, !dbg !3786
  %add56 = add i32 %57, 2, !dbg !3787
  %call58 = invoke dereferenceable(2) i16* @_ZNK11xalanc_1_1014XalanDOMStringixEj(%"class.xalanc_1_10::XalanDOMString"* %56, i32 %add56)
          to label %invoke.cont57 unwind label %lpad29, !dbg !3785

invoke.cont57:                                    ; preds = %invoke.cont54
  %58 = load i16, i16* %call58, align 2, !dbg !3785
  %call60 = invoke zeroext i16 @_ZNK11xalanc_1_1027XalanEXSLTFunctionDecodeURI14hexCharsToByteERNS_21XPathExecutionContextEPNS_9XalanNodeEPKN11xercesc_2_77LocatorEtt(%"class.xalanc_1_10::XalanEXSLTFunctionDecodeURI"* %this1, %"class.xalanc_1_10::XPathExecutionContext"* dereferenceable(24) %50, %"class.xalanc_1_10::XalanNode"* %51, %"class.xercesc_2_7::Locator"* %52, i16 zeroext %55, i16 zeroext %58)
          to label %invoke.cont59 unwind label %lpad29, !dbg !3788

invoke.cont59:                                    ; preds = %invoke.cont57
  store i16 %call60, i16* %byte1, align 2, !dbg !3778
  %59 = load i16, i16* %byte1, align 2, !dbg !3789
  %conv61 = zext i16 %59 to i32, !dbg !3789
  %and = and i32 %conv61, 128, !dbg !3791
  %cmp62 = icmp eq i32 %and, 0, !dbg !3792
  br i1 %cmp62, label %if.then63, label %if.else, !dbg !3793

if.then63:                                        ; preds = %invoke.cont59
  %60 = load i32, i32* %i, align 4, !dbg !3794
  %add64 = add i32 %60, 2, !dbg !3794
  store i32 %add64, i32* %i, align 4, !dbg !3794
  %61 = load i16, i16* %byte1, align 2, !dbg !3796
  %62 = load %"class.xalanc_1_10::XalanDOMString"*, %"class.xalanc_1_10::XalanDOMString"** %theResult, align 8, !dbg !3797
  %call66 = invoke dereferenceable(40) %"class.xalanc_1_10::XalanDOMString"* @_ZN11xalanc_1_1014XalanDOMStringpLEt(%"class.xalanc_1_10::XalanDOMString"* %62, i16 zeroext %61)
          to label %invoke.cont65 unwind label %lpad29, !dbg !3798

invoke.cont65:                                    ; preds = %if.then63
  br label %if.end234, !dbg !3799

if.else:                                          ; preds = %invoke.cont59
  %63 = load i16, i16* %byte1, align 2, !dbg !3800
  %conv67 = zext i16 %63 to i32, !dbg !3800
  %and68 = and i32 %conv67, 224, !dbg !3802
  %cmp69 = icmp eq i32 %and68, 192, !dbg !3803
  br i1 %cmp69, label %land.lhs.true70, label %if.else97, !dbg !3804

land.lhs.true70:                                  ; preds = %if.else
  %64 = load i32, i32* %numOctets, align 4, !dbg !3805
  %cmp71 = icmp uge i32 %64, 2, !dbg !3806
  br i1 %cmp71, label %if.then72, label %if.else97, !dbg !3807

if.then72:                                        ; preds = %land.lhs.true70
  %65 = load i32, i32* %i, align 4, !dbg !3808
  %add73 = add i32 %65, 3, !dbg !3808
  store i32 %add73, i32* %i, align 4, !dbg !3808
  call void @llvm.dbg.declare(metadata i16* %byte2, metadata !3810, metadata !DIExpression()), !dbg !3811
  %66 = load %"class.xalanc_1_10::XPathExecutionContext"*, %"class.xalanc_1_10::XPathExecutionContext"** %executionContext.addr, align 8, !dbg !3812
  %67 = load %"class.xalanc_1_10::XalanNode"*, %"class.xalanc_1_10::XalanNode"** %context.addr, align 8, !dbg !3813
  %68 = load %"class.xercesc_2_7::Locator"*, %"class.xercesc_2_7::Locator"** %locator.addr, align 8, !dbg !3814
  %69 = load %"class.xalanc_1_10::XalanDOMString"*, %"class.xalanc_1_10::XalanDOMString"** %theString, align 8, !dbg !3815
  %70 = load i32, i32* %i, align 4, !dbg !3816
  %add74 = add i32 %70, 1, !dbg !3817
  %call76 = invoke dereferenceable(2) i16* @_ZNK11xalanc_1_1014XalanDOMStringixEj(%"class.xalanc_1_10::XalanDOMString"* %69, i32 %add74)
          to label %invoke.cont75 unwind label %lpad29, !dbg !3815

invoke.cont75:                                    ; preds = %if.then72
  %71 = load i16, i16* %call76, align 2, !dbg !3815
  %72 = load %"class.xalanc_1_10::XalanDOMString"*, %"class.xalanc_1_10::XalanDOMString"** %theString, align 8, !dbg !3818
  %73 = load i32, i32* %i, align 4, !dbg !3819
  %add77 = add i32 %73, 2, !dbg !3820
  %call79 = invoke dereferenceable(2) i16* @_ZNK11xalanc_1_1014XalanDOMStringixEj(%"class.xalanc_1_10::XalanDOMString"* %72, i32 %add77)
          to label %invoke.cont78 unwind label %lpad29, !dbg !3818

invoke.cont78:                                    ; preds = %invoke.cont75
  %74 = load i16, i16* %call79, align 2, !dbg !3818
  %call81 = invoke zeroext i16 @_ZNK11xalanc_1_1027XalanEXSLTFunctionDecodeURI14hexCharsToByteERNS_21XPathExecutionContextEPNS_9XalanNodeEPKN11xercesc_2_77LocatorEtt(%"class.xalanc_1_10::XalanEXSLTFunctionDecodeURI"* %this1, %"class.xalanc_1_10::XPathExecutionContext"* dereferenceable(24) %66, %"class.xalanc_1_10::XalanNode"* %67, %"class.xercesc_2_7::Locator"* %68, i16 zeroext %71, i16 zeroext %74)
          to label %invoke.cont80 unwind label %lpad29, !dbg !3821

invoke.cont80:                                    ; preds = %invoke.cont78
  store i16 %call81, i16* %byte2, align 2, !dbg !3811
  %75 = load i32, i32* %i, align 4, !dbg !3822
  %add82 = add i32 %75, 2, !dbg !3822
  store i32 %add82, i32* %i, align 4, !dbg !3822
  %76 = load i16, i16* %byte2, align 2, !dbg !3823
  %conv83 = zext i16 %76 to i32, !dbg !3823
  %and84 = and i32 %conv83, 128, !dbg !3825
  %cmp85 = icmp eq i32 %and84, 0, !dbg !3826
  br i1 %cmp85, label %if.then86, label %if.end88, !dbg !3827

if.then86:                                        ; preds = %invoke.cont80
  %77 = load i32, i32* %numOctets, align 4, !dbg !3828
  %sub = sub i32 %77, 2, !dbg !3830
  %mul = mul i32 %sub, 3, !dbg !3831
  %78 = load i32, i32* %i, align 4, !dbg !3832
  %add87 = add i32 %78, %mul, !dbg !3832
  store i32 %add87, i32* %i, align 4, !dbg !3832
  br label %if.end88, !dbg !3833

if.end88:                                         ; preds = %if.then86, %invoke.cont80
  %79 = load i16, i16* %byte1, align 2, !dbg !3834
  %conv89 = zext i16 %79 to i32, !dbg !3834
  %and90 = and i32 %conv89, 31, !dbg !3835
  %shl = shl i32 %and90, 6, !dbg !3836
  %80 = load i16, i16* %byte2, align 2, !dbg !3837
  %conv91 = zext i16 %80 to i32, !dbg !3837
  %and92 = and i32 %conv91, 63, !dbg !3838
  %add93 = add nsw i32 %shl, %and92, !dbg !3839
  %conv94 = trunc i32 %add93 to i16, !dbg !3840
  %81 = load %"class.xalanc_1_10::XalanDOMString"*, %"class.xalanc_1_10::XalanDOMString"** %theResult, align 8, !dbg !3841
  %call96 = invoke dereferenceable(40) %"class.xalanc_1_10::XalanDOMString"* @_ZN11xalanc_1_1014XalanDOMStringpLEt(%"class.xalanc_1_10::XalanDOMString"* %81, i16 zeroext %conv94)
          to label %invoke.cont95 unwind label %lpad29, !dbg !3842

invoke.cont95:                                    ; preds = %if.end88
  br label %if.end233, !dbg !3843

if.else97:                                        ; preds = %land.lhs.true70, %if.else
  %82 = load i16, i16* %byte1, align 2, !dbg !3844
  %conv98 = zext i16 %82 to i32, !dbg !3844
  %and99 = and i32 %conv98, 240, !dbg !3846
  %cmp100 = icmp eq i32 %and99, 224, !dbg !3847
  br i1 %cmp100, label %land.lhs.true101, label %if.else149, !dbg !3848

land.lhs.true101:                                 ; preds = %if.else97
  %83 = load i32, i32* %numOctets, align 4, !dbg !3849
  %cmp102 = icmp uge i32 %83, 3, !dbg !3850
  br i1 %cmp102, label %if.then103, label %if.else149, !dbg !3851

if.then103:                                       ; preds = %land.lhs.true101
  %84 = load i32, i32* %i, align 4, !dbg !3852
  %add104 = add i32 %84, 3, !dbg !3852
  store i32 %add104, i32* %i, align 4, !dbg !3852
  call void @llvm.dbg.declare(metadata i16* %byte2105, metadata !3854, metadata !DIExpression()), !dbg !3855
  %85 = load %"class.xalanc_1_10::XPathExecutionContext"*, %"class.xalanc_1_10::XPathExecutionContext"** %executionContext.addr, align 8, !dbg !3856
  %86 = load %"class.xalanc_1_10::XalanNode"*, %"class.xalanc_1_10::XalanNode"** %context.addr, align 8, !dbg !3857
  %87 = load %"class.xercesc_2_7::Locator"*, %"class.xercesc_2_7::Locator"** %locator.addr, align 8, !dbg !3858
  %88 = load %"class.xalanc_1_10::XalanDOMString"*, %"class.xalanc_1_10::XalanDOMString"** %theString, align 8, !dbg !3859
  %89 = load i32, i32* %i, align 4, !dbg !3860
  %add106 = add i32 %89, 1, !dbg !3861
  %call108 = invoke dereferenceable(2) i16* @_ZNK11xalanc_1_1014XalanDOMStringixEj(%"class.xalanc_1_10::XalanDOMString"* %88, i32 %add106)
          to label %invoke.cont107 unwind label %lpad29, !dbg !3859

invoke.cont107:                                   ; preds = %if.then103
  %90 = load i16, i16* %call108, align 2, !dbg !3859
  %91 = load %"class.xalanc_1_10::XalanDOMString"*, %"class.xalanc_1_10::XalanDOMString"** %theString, align 8, !dbg !3862
  %92 = load i32, i32* %i, align 4, !dbg !3863
  %add109 = add i32 %92, 2, !dbg !3864
  %call111 = invoke dereferenceable(2) i16* @_ZNK11xalanc_1_1014XalanDOMStringixEj(%"class.xalanc_1_10::XalanDOMString"* %91, i32 %add109)
          to label %invoke.cont110 unwind label %lpad29, !dbg !3862

invoke.cont110:                                   ; preds = %invoke.cont107
  %93 = load i16, i16* %call111, align 2, !dbg !3862
  %call113 = invoke zeroext i16 @_ZNK11xalanc_1_1027XalanEXSLTFunctionDecodeURI14hexCharsToByteERNS_21XPathExecutionContextEPNS_9XalanNodeEPKN11xercesc_2_77LocatorEtt(%"class.xalanc_1_10::XalanEXSLTFunctionDecodeURI"* %this1, %"class.xalanc_1_10::XPathExecutionContext"* dereferenceable(24) %85, %"class.xalanc_1_10::XalanNode"* %86, %"class.xercesc_2_7::Locator"* %87, i16 zeroext %90, i16 zeroext %93)
          to label %invoke.cont112 unwind label %lpad29, !dbg !3865

invoke.cont112:                                   ; preds = %invoke.cont110
  store i16 %call113, i16* %byte2105, align 2, !dbg !3855
  %94 = load i32, i32* %i, align 4, !dbg !3866
  %add114 = add i32 %94, 3, !dbg !3866
  store i32 %add114, i32* %i, align 4, !dbg !3866
  call void @llvm.dbg.declare(metadata i16* %byte3, metadata !3867, metadata !DIExpression()), !dbg !3868
  %95 = load %"class.xalanc_1_10::XPathExecutionContext"*, %"class.xalanc_1_10::XPathExecutionContext"** %executionContext.addr, align 8, !dbg !3869
  %96 = load %"class.xalanc_1_10::XalanNode"*, %"class.xalanc_1_10::XalanNode"** %context.addr, align 8, !dbg !3870
  %97 = load %"class.xercesc_2_7::Locator"*, %"class.xercesc_2_7::Locator"** %locator.addr, align 8, !dbg !3871
  %98 = load %"class.xalanc_1_10::XalanDOMString"*, %"class.xalanc_1_10::XalanDOMString"** %theString, align 8, !dbg !3872
  %99 = load i32, i32* %i, align 4, !dbg !3873
  %add115 = add i32 %99, 1, !dbg !3874
  %call117 = invoke dereferenceable(2) i16* @_ZNK11xalanc_1_1014XalanDOMStringixEj(%"class.xalanc_1_10::XalanDOMString"* %98, i32 %add115)
          to label %invoke.cont116 unwind label %lpad29, !dbg !3872

invoke.cont116:                                   ; preds = %invoke.cont112
  %100 = load i16, i16* %call117, align 2, !dbg !3872
  %101 = load %"class.xalanc_1_10::XalanDOMString"*, %"class.xalanc_1_10::XalanDOMString"** %theString, align 8, !dbg !3875
  %102 = load i32, i32* %i, align 4, !dbg !3876
  %add118 = add i32 %102, 2, !dbg !3877
  %call120 = invoke dereferenceable(2) i16* @_ZNK11xalanc_1_1014XalanDOMStringixEj(%"class.xalanc_1_10::XalanDOMString"* %101, i32 %add118)
          to label %invoke.cont119 unwind label %lpad29, !dbg !3875

invoke.cont119:                                   ; preds = %invoke.cont116
  %103 = load i16, i16* %call120, align 2, !dbg !3875
  %call122 = invoke zeroext i16 @_ZNK11xalanc_1_1027XalanEXSLTFunctionDecodeURI14hexCharsToByteERNS_21XPathExecutionContextEPNS_9XalanNodeEPKN11xercesc_2_77LocatorEtt(%"class.xalanc_1_10::XalanEXSLTFunctionDecodeURI"* %this1, %"class.xalanc_1_10::XPathExecutionContext"* dereferenceable(24) %95, %"class.xalanc_1_10::XalanNode"* %96, %"class.xercesc_2_7::Locator"* %97, i16 zeroext %100, i16 zeroext %103)
          to label %invoke.cont121 unwind label %lpad29, !dbg !3878

invoke.cont121:                                   ; preds = %invoke.cont119
  store i16 %call122, i16* %byte3, align 2, !dbg !3868
  %104 = load i32, i32* %i, align 4, !dbg !3879
  %add123 = add i32 %104, 2, !dbg !3879
  store i32 %add123, i32* %i, align 4, !dbg !3879
  %105 = load i16, i16* %byte2105, align 2, !dbg !3880
  %conv124 = zext i16 %105 to i32, !dbg !3880
  %and125 = and i32 %conv124, 128, !dbg !3882
  %cmp126 = icmp eq i32 %and125, 0, !dbg !3883
  br i1 %cmp126, label %if.then131, label %lor.lhs.false127, !dbg !3884

lor.lhs.false127:                                 ; preds = %invoke.cont121
  %106 = load i16, i16* %byte3, align 2, !dbg !3885
  %conv128 = zext i16 %106 to i32, !dbg !3885
  %and129 = and i32 %conv128, 128, !dbg !3886
  %cmp130 = icmp eq i32 %and129, 0, !dbg !3887
  br i1 %cmp130, label %if.then131, label %if.end135, !dbg !3888

if.then131:                                       ; preds = %lor.lhs.false127, %invoke.cont121
  %107 = load i32, i32* %numOctets, align 4, !dbg !3889
  %sub132 = sub i32 %107, 3, !dbg !3891
  %mul133 = mul i32 %sub132, 3, !dbg !3892
  %108 = load i32, i32* %i, align 4, !dbg !3893
  %add134 = add i32 %108, %mul133, !dbg !3893
  store i32 %add134, i32* %i, align 4, !dbg !3893
  br label %if.end135, !dbg !3894

if.end135:                                        ; preds = %if.then131, %lor.lhs.false127
  %109 = load i16, i16* %byte1, align 2, !dbg !3895
  %conv136 = zext i16 %109 to i32, !dbg !3895
  %and137 = and i32 %conv136, 15, !dbg !3896
  %shl138 = shl i32 %and137, 12, !dbg !3897
  %110 = load i16, i16* %byte2105, align 2, !dbg !3898
  %conv139 = zext i16 %110 to i32, !dbg !3898
  %and140 = and i32 %conv139, 63, !dbg !3899
  %shl141 = shl i32 %and140, 6, !dbg !3900
  %add142 = add nsw i32 %shl138, %shl141, !dbg !3901
  %111 = load i16, i16* %byte3, align 2, !dbg !3902
  %conv143 = zext i16 %111 to i32, !dbg !3902
  %and144 = and i32 %conv143, 63, !dbg !3903
  %add145 = add nsw i32 %add142, %and144, !dbg !3904
  %conv146 = trunc i32 %add145 to i16, !dbg !3905
  %112 = load %"class.xalanc_1_10::XalanDOMString"*, %"class.xalanc_1_10::XalanDOMString"** %theResult, align 8, !dbg !3906
  %call148 = invoke dereferenceable(40) %"class.xalanc_1_10::XalanDOMString"* @_ZN11xalanc_1_1014XalanDOMStringpLEt(%"class.xalanc_1_10::XalanDOMString"* %112, i16 zeroext %conv146)
          to label %invoke.cont147 unwind label %lpad29, !dbg !3907

invoke.cont147:                                   ; preds = %if.end135
  br label %if.end232, !dbg !3908

if.else149:                                       ; preds = %land.lhs.true101, %if.else97
  %113 = load i16, i16* %byte1, align 2, !dbg !3909
  %conv150 = zext i16 %113 to i32, !dbg !3909
  %and151 = and i32 %conv150, 248, !dbg !3911
  %cmp152 = icmp eq i32 %and151, 240, !dbg !3912
  br i1 %cmp152, label %land.lhs.true153, label %if.else227, !dbg !3913

land.lhs.true153:                                 ; preds = %if.else149
  %114 = load i32, i32* %numOctets, align 4, !dbg !3914
  %cmp154 = icmp uge i32 %114, 4, !dbg !3915
  br i1 %cmp154, label %if.then155, label %if.else227, !dbg !3916

if.then155:                                       ; preds = %land.lhs.true153
  %115 = load i32, i32* %i, align 4, !dbg !3917
  %add156 = add i32 %115, 3, !dbg !3917
  store i32 %add156, i32* %i, align 4, !dbg !3917
  call void @llvm.dbg.declare(metadata i16* %byte2157, metadata !3919, metadata !DIExpression()), !dbg !3920
  %116 = load %"class.xalanc_1_10::XPathExecutionContext"*, %"class.xalanc_1_10::XPathExecutionContext"** %executionContext.addr, align 8, !dbg !3921
  %117 = load %"class.xalanc_1_10::XalanNode"*, %"class.xalanc_1_10::XalanNode"** %context.addr, align 8, !dbg !3922
  %118 = load %"class.xercesc_2_7::Locator"*, %"class.xercesc_2_7::Locator"** %locator.addr, align 8, !dbg !3923
  %119 = load %"class.xalanc_1_10::XalanDOMString"*, %"class.xalanc_1_10::XalanDOMString"** %theString, align 8, !dbg !3924
  %120 = load i32, i32* %i, align 4, !dbg !3925
  %add158 = add i32 %120, 1, !dbg !3926
  %call160 = invoke dereferenceable(2) i16* @_ZNK11xalanc_1_1014XalanDOMStringixEj(%"class.xalanc_1_10::XalanDOMString"* %119, i32 %add158)
          to label %invoke.cont159 unwind label %lpad29, !dbg !3924

invoke.cont159:                                   ; preds = %if.then155
  %121 = load i16, i16* %call160, align 2, !dbg !3924
  %122 = load %"class.xalanc_1_10::XalanDOMString"*, %"class.xalanc_1_10::XalanDOMString"** %theString, align 8, !dbg !3927
  %123 = load i32, i32* %i, align 4, !dbg !3928
  %add161 = add i32 %123, 2, !dbg !3929
  %call163 = invoke dereferenceable(2) i16* @_ZNK11xalanc_1_1014XalanDOMStringixEj(%"class.xalanc_1_10::XalanDOMString"* %122, i32 %add161)
          to label %invoke.cont162 unwind label %lpad29, !dbg !3927

invoke.cont162:                                   ; preds = %invoke.cont159
  %124 = load i16, i16* %call163, align 2, !dbg !3927
