; ModuleID = 'ElemAttributeSet.cpp'
source_filename = "ElemAttributeSet.cpp"
target datalayout = "e-m:e-p270:32:32-p271:32:32-p272:64:64-i64:64-f80:128-n8:16:32:64-S128"
target triple = "x86_64-unknown-linux-gnu"

%"class.xalanc_1_10::XalanDOMString" = type <{ %"class.xalanc_1_10::XalanVector", i32, [4 x i8] }>
%"class.xalanc_1_10::XalanVector" = type { %"class.xercesc_2_7::MemoryManager"*, i64, i64, i16* }
%"class.xercesc_2_7::MemoryManager" = type { i32 (...)** }
%"class.xalanc_1_10::ElemAttributeSet" = type { %"class.xalanc_1_10::ElemUse", %"class.xalanc_1_10::XalanQName"* }
%"class.xalanc_1_10::ElemUse" = type { %"class.xalanc_1_10::ElemTemplateElement.base", %"class.xalanc_1_10::XalanQName"**, i64 }
%"class.xalanc_1_10::ElemTemplateElement.base" = type <{ %"class.xalanc_1_10::PrefixResolver", %"class.xalanc_1_10::Stylesheet"*, %"class.xalanc_1_10::NamespacesHandler", i32, [4 x i8], %"class.xalanc_1_10::ElemTemplateElement"*, %"class.xalanc_1_10::ElemTemplateElement"*, %"class.xalanc_1_10::ElemTemplateElement"*, %union.anon, %"class.xalanc_1_10::ElemTemplateElement::LocatorProxy", i16 }>
%"class.xalanc_1_10::PrefixResolver" = type { i32 (...)** }
%"class.xalanc_1_10::NamespacesHandler" = type { %"class.xalanc_1_10::XalanVector.29", %"class.xalanc_1_10::XalanVector.30", %"class.xalanc_1_10::XalanVector.31", %"class.xalanc_1_10::XalanMap.32" }
%"class.xalanc_1_10::XalanVector.29" = type { %"class.xercesc_2_7::MemoryManager"*, i64, i64, %"class.xalanc_1_10::NamespacesHandler::Namespace"* }
%"class.xalanc_1_10::NamespacesHandler::Namespace" = type { %"class.xalanc_1_10::XalanDOMString"*, %"class.xalanc_1_10::XalanDOMString"* }
%"class.xalanc_1_10::XalanVector.30" = type { %"class.xercesc_2_7::MemoryManager"*, i64, i64, %"class.xalanc_1_10::NamespacesHandler::NamespaceExtended"* }
%"class.xalanc_1_10::NamespacesHandler::NamespaceExtended" = type { %"class.xalanc_1_10::NamespacesHandler::Namespace", %"class.xalanc_1_10::XalanDOMString"* }
%"class.xalanc_1_10::XalanVector.31" = type { %"class.xercesc_2_7::MemoryManager"*, i64, i64, %"class.xalanc_1_10::XalanDOMString"** }
%"class.xalanc_1_10::XalanMap.32" = type { %"struct.xalanc_1_10::DOMStringPointerHashFunction", %"struct.xalanc_1_10::pointer_equal", %"class.xercesc_2_7::MemoryManager"*, float, i64, i64, %"class.xalanc_1_10::XalanList.35", %"class.xalanc_1_10::XalanList.35", %"class.xalanc_1_10::XalanVector.36", i64, i64 }
%"struct.xalanc_1_10::DOMStringPointerHashFunction" = type { i8 }
%"struct.xalanc_1_10::pointer_equal" = type { i8 }
%"class.xalanc_1_10::XalanList.35" = type { %"class.xercesc_2_7::MemoryManager"*, %"struct.xalanc_1_10::XalanList<xalanc_1_10::XalanMap<const xalanc_1_10::XalanDOMString *, const xalanc_1_10::XalanDOMString *, xalanc_1_10::XalanMapKeyTraits<const xalanc_1_10::XalanDOMString *> >::Entry>::Node"*, %"struct.xalanc_1_10::XalanList<xalanc_1_10::XalanMap<const xalanc_1_10::XalanDOMString *, const xalanc_1_10::XalanDOMString *, xalanc_1_10::XalanMapKeyTraits<const xalanc_1_10::XalanDOMString *> >::Entry>::Node"* }
%"struct.xalanc_1_10::XalanList<xalanc_1_10::XalanMap<const xalanc_1_10::XalanDOMString *, const xalanc_1_10::XalanDOMString *, xalanc_1_10::XalanMapKeyTraits<const xalanc_1_10::XalanDOMString *> >::Entry>::Node" = type opaque
%"class.xalanc_1_10::XalanVector.36" = type { %"class.xercesc_2_7::MemoryManager"*, i64, i64, %"class.xalanc_1_10::XalanVector.37"* }
%"class.xalanc_1_10::XalanVector.37" = type { %"class.xercesc_2_7::MemoryManager"*, i64, i64, %"struct.xalanc_1_10::XalanListIteratorBase.38"* }
%"struct.xalanc_1_10::XalanListIteratorBase.38" = type opaque
%"class.xalanc_1_10::ElemTemplateElement" = type <{ %"class.xalanc_1_10::PrefixResolver", %"class.xalanc_1_10::Stylesheet"*, %"class.xalanc_1_10::NamespacesHandler", i32, [4 x i8], %"class.xalanc_1_10::ElemTemplateElement"*, %"class.xalanc_1_10::ElemTemplateElement"*, %"class.xalanc_1_10::ElemTemplateElement"*, %union.anon, %"class.xalanc_1_10::ElemTemplateElement::LocatorProxy", i16, [6 x i8] }>
%union.anon = type { %"class.xalanc_1_10::ElemTemplateElement"* }
%"class.xalanc_1_10::ElemTemplateElement::LocatorProxy" = type { %"class.xalanc_1_10::XalanLocator", i64, i64, %"class.xalanc_1_10::XalanDOMString"* }
%"class.xalanc_1_10::XalanLocator" = type { %"class.xercesc_2_7::Locator" }
%"class.xercesc_2_7::Locator" = type { i32 (...)** }
%"class.xalanc_1_10::XalanQName" = type { i32 (...)** }
%"class.xalanc_1_10::StylesheetConstructionContext" = type { %"class.xalanc_1_10::XPathConstructionContext" }
%"class.xalanc_1_10::XPathConstructionContext" = type { i32 (...)**, %"class.xercesc_2_7::MemoryManager"* }
%"class.xalanc_1_10::Stylesheet" = type { %"class.xalanc_1_10::PrefixResolver", %"class.xalanc_1_10::StylesheetRoot"*, %"class.xalanc_1_10::XalanDOMString", %"class.xalanc_1_10::XalanVector.0", %"class.xalanc_1_10::XalanVector.4", %"class.xalanc_1_10::XalanDOMString", %"class.xalanc_1_10::XalanVector.5", i64, %"class.xalanc_1_10::XalanDeque", %"class.xalanc_1_10::XalanDeque.8", i8, %"class.xalanc_1_10::XalanMap", %"class.xalanc_1_10::ElemTemplate"*, %"class.xalanc_1_10::XalanVector.13", %"class.xalanc_1_10::XalanMap.14", %"class.xalanc_1_10::XalanVector.21", double, %"class.xalanc_1_10::XalanMap.22", %"struct.xalanc_1_10::XalanMapIterator", %"class.xalanc_1_10::XalanVector.27", %"class.xalanc_1_10::XalanMap.22", %"struct.xalanc_1_10::XalanMapIterator", %"class.xalanc_1_10::XalanVector.27", %"class.xalanc_1_10::XalanVector.27", %"class.xalanc_1_10::XalanVector.27", %"class.xalanc_1_10::XalanVector.27", %"class.xalanc_1_10::XalanVector.27", %"class.xalanc_1_10::XalanVector.27", i64, %"class.xalanc_1_10::XalanVector.28", %"class.xalanc_1_10::NamespacesHandler" }
%"class.xalanc_1_10::StylesheetRoot" = type { %"class.xalanc_1_10::Stylesheet", %"class.xalanc_1_10::XalanDOMString", i32, [4 x i8], %"class.xalanc_1_10::XalanDOMString", %"class.xalanc_1_10::XalanDOMString", %"class.xalanc_1_10::XalanDOMString", %"class.xalanc_1_10::XalanDOMString", i8, [7 x i8], %"class.xalanc_1_10::XalanDOMString", %"class.xalanc_1_10::XalanDOMString", i32, %"class.xalanc_1_10::XalanVector.39", i8, %"class.xalanc_1_10::XalanVector.13", %"class.xalanc_1_10::ElemTemplateElement"*, %"class.xalanc_1_10::ElemTemplateElement"*, %"class.xalanc_1_10::ElemTemplateElement"*, i8, i8, i32, i8, i64, %"class.xalanc_1_10::XalanMap.40" }
%"class.xalanc_1_10::XalanVector.39" = type { %"class.xercesc_2_7::MemoryManager"*, i64, i64, %"class.xalanc_1_10::XalanQName"** }
%"class.xalanc_1_10::XalanMap.40" = type { %"struct.xalanc_1_10::XalanHashMemberPointer", %"struct.xalanc_1_10::pointer_equal.41", %"class.xercesc_2_7::MemoryManager"*, float, i64, i64, %"class.xalanc_1_10::XalanList.43", %"class.xalanc_1_10::XalanList.43", %"class.xalanc_1_10::XalanVector.44", i64, i64 }
%"struct.xalanc_1_10::XalanHashMemberPointer" = type { i8 }
%"struct.xalanc_1_10::pointer_equal.41" = type { i8 }
%"class.xalanc_1_10::XalanList.43" = type { %"class.xercesc_2_7::MemoryManager"*, %"struct.xalanc_1_10::XalanList<xalanc_1_10::XalanMap<const xalanc_1_10::XalanQName *, xalanc_1_10::XalanVector<xalanc_1_10::ElemAttributeSet *, xalanc_1_10::MemoryManagedConstructionTraits<xalanc_1_10::ElemAttributeSet *> >, xalanc_1_10::XalanMapKeyTraits<const xalanc_1_10::XalanQName *> >::Entry>::Node"*, %"struct.xalanc_1_10::XalanList<xalanc_1_10::XalanMap<const xalanc_1_10::XalanQName *, xalanc_1_10::XalanVector<xalanc_1_10::ElemAttributeSet *, xalanc_1_10::MemoryManagedConstructionTraits<xalanc_1_10::ElemAttributeSet *> >, xalanc_1_10::XalanMapKeyTraits<const xalanc_1_10::XalanQName *> >::Entry>::Node"* }
%"struct.xalanc_1_10::XalanList<xalanc_1_10::XalanMap<const xalanc_1_10::XalanQName *, xalanc_1_10::XalanVector<xalanc_1_10::ElemAttributeSet *, xalanc_1_10::MemoryManagedConstructionTraits<xalanc_1_10::ElemAttributeSet *> >, xalanc_1_10::XalanMapKeyTraits<const xalanc_1_10::XalanQName *> >::Entry>::Node" = type opaque
%"class.xalanc_1_10::XalanVector.44" = type { %"class.xercesc_2_7::MemoryManager"*, i64, i64, %"class.xalanc_1_10::XalanVector.45"* }
%"class.xalanc_1_10::XalanVector.45" = type { %"class.xercesc_2_7::MemoryManager"*, i64, i64, %"struct.xalanc_1_10::XalanListIteratorBase.46"* }
%"struct.xalanc_1_10::XalanListIteratorBase.46" = type opaque
%"class.xalanc_1_10::XalanVector.0" = type { %"class.xercesc_2_7::MemoryManager"*, i64, i64, %"class.xalanc_1_10::KeyDeclaration"* }
%"class.xalanc_1_10::KeyDeclaration" = type { %"class.xalanc_1_10::XalanQName"*, %"class.xalanc_1_10::XPath"*, %"class.xalanc_1_10::XPath"*, %"class.xalanc_1_10::XalanDOMString"*, i64, i64 }
%"class.xalanc_1_10::XPath" = type <{ %"class.xalanc_1_10::XPathExpression", %"class.xercesc_2_7::Locator"*, i8, [7 x i8] }>
%"class.xalanc_1_10::XPathExpression" = type { %"class.xalanc_1_10::XalanVector.1", i32, %"class.xalanc_1_10::XalanVector.2", i32, %"class.xalanc_1_10::XalanDOMString"*, %"class.xalanc_1_10::XalanVector.3" }
%"class.xalanc_1_10::XalanVector.1" = type { %"class.xercesc_2_7::MemoryManager"*, i64, i64, i32* }
%"class.xalanc_1_10::XalanVector.2" = type { %"class.xercesc_2_7::MemoryManager"*, i64, i64, %"class.xalanc_1_10::XToken"* }
%"class.xalanc_1_10::XToken" = type <{ %"class.xalanc_1_10::XObject", %"class.xalanc_1_10::XalanDOMString"*, double, i8, [7 x i8] }>
%"class.xalanc_1_10::XObject" = type { %"class.xalanc_1_10::XalanReferenceCountedObject.base", i32, %"class.xalanc_1_10::XObjectFactory"* }
%"class.xalanc_1_10::XalanReferenceCountedObject.base" = type <{ i32 (...)**, i32 }>
%"class.xalanc_1_10::XObjectFactory" = type opaque
%"class.xalanc_1_10::XalanVector.3" = type { %"class.xercesc_2_7::MemoryManager"*, i64, i64, double* }
%"class.xalanc_1_10::XalanVector.4" = type { %"class.xercesc_2_7::MemoryManager"*, i64, i64, %"class.xalanc_1_10::XalanSpaceNodeTester"* }
%"class.xalanc_1_10::XalanSpaceNodeTester" = type { %"class.xalanc_1_10::XPath::NodeTester", i32, i32 }
%"class.xalanc_1_10::XPath::NodeTester" = type { %"class.xalanc_1_10::XPathExecutionContext"*, %"class.xalanc_1_10::XalanDOMString"*, %"class.xalanc_1_10::XalanDOMString"*, { i64, i64 }, { i64, i64 } }
%"class.xalanc_1_10::XPathExecutionContext" = type { %"class.xalanc_1_10::ExecutionContext", %"class.xalanc_1_10::XObjectFactory"* }
%"class.xalanc_1_10::ExecutionContext" = type { i32 (...)**, %"class.xercesc_2_7::MemoryManager"* }
%"class.xalanc_1_10::XalanVector.5" = type { %"class.xercesc_2_7::MemoryManager"*, i64, i64, %"class.xalanc_1_10::Stylesheet"** }
%"class.xalanc_1_10::XalanDeque" = type { %"class.xercesc_2_7::MemoryManager"*, i64, %"class.xalanc_1_10::XalanVector.6", %"class.xalanc_1_10::XalanVector.6" }
%"class.xalanc_1_10::XalanVector.6" = type { %"class.xercesc_2_7::MemoryManager"*, i64, i64, %"class.xalanc_1_10::XalanVector.7"** }
%"class.xalanc_1_10::XalanVector.7" = type { %"class.xercesc_2_7::MemoryManager"*, i64, i64, %"class.xalanc_1_10::XalanDeque.8"* }
%"class.xalanc_1_10::XalanDeque.8" = type { %"class.xercesc_2_7::MemoryManager"*, i64, %"class.xalanc_1_10::XalanVector.9", %"class.xalanc_1_10::XalanVector.9" }
%"class.xalanc_1_10::XalanVector.9" = type { %"class.xercesc_2_7::MemoryManager"*, i64, i64, %"class.xalanc_1_10::XalanVector.10"** }
%"class.xalanc_1_10::XalanVector.10" = type { %"class.xercesc_2_7::MemoryManager"*, i64, i64, %"class.xalanc_1_10::NameSpace"* }
%"class.xalanc_1_10::NameSpace" = type { %"class.xalanc_1_10::XalanDOMString", %"class.xalanc_1_10::XalanDOMString" }
%"class.xalanc_1_10::XalanMap" = type { %"struct.xalanc_1_10::DOMStringHashFunction", %"struct.std::equal_to", %"class.xercesc_2_7::MemoryManager"*, float, i64, i64, %"class.xalanc_1_10::XalanList", %"class.xalanc_1_10::XalanList", %"class.xalanc_1_10::XalanVector.11", i64, i64 }
%"struct.xalanc_1_10::DOMStringHashFunction" = type { i8 }
%"struct.std::equal_to" = type { i8 }
%"class.xalanc_1_10::XalanList" = type { %"class.xercesc_2_7::MemoryManager"*, %"struct.xalanc_1_10::XalanList<xalanc_1_10::XalanMap<xalanc_1_10::XalanDOMString, xalanc_1_10::ExtensionNSHandler *, xalanc_1_10::XalanMapKeyTraits<xalanc_1_10::XalanDOMString> >::Entry>::Node"*, %"struct.xalanc_1_10::XalanList<xalanc_1_10::XalanMap<xalanc_1_10::XalanDOMString, xalanc_1_10::ExtensionNSHandler *, xalanc_1_10::XalanMapKeyTraits<xalanc_1_10::XalanDOMString> >::Entry>::Node"* }
%"struct.xalanc_1_10::XalanList<xalanc_1_10::XalanMap<xalanc_1_10::XalanDOMString, xalanc_1_10::ExtensionNSHandler *, xalanc_1_10::XalanMapKeyTraits<xalanc_1_10::XalanDOMString> >::Entry>::Node" = type { %"struct.xalanc_1_10::XalanMap<xalanc_1_10::XalanDOMString, xalanc_1_10::ExtensionNSHandler *, xalanc_1_10::XalanMapKeyTraits<xalanc_1_10::XalanDOMString> >::Entry", %"struct.xalanc_1_10::XalanList<xalanc_1_10::XalanMap<xalanc_1_10::XalanDOMString, xalanc_1_10::ExtensionNSHandler *, xalanc_1_10::XalanMapKeyTraits<xalanc_1_10::XalanDOMString> >::Entry>::Node"*, %"struct.xalanc_1_10::XalanList<xalanc_1_10::XalanMap<xalanc_1_10::XalanDOMString, xalanc_1_10::ExtensionNSHandler *, xalanc_1_10::XalanMapKeyTraits<xalanc_1_10::XalanDOMString> >::Entry>::Node"* }
%"struct.xalanc_1_10::XalanMap<xalanc_1_10::XalanDOMString, xalanc_1_10::ExtensionNSHandler *, xalanc_1_10::XalanMapKeyTraits<xalanc_1_10::XalanDOMString> >::Entry" = type <{ %"struct.std::pair"*, i8, [7 x i8] }>
%"struct.std::pair" = type { %"class.xalanc_1_10::XalanDOMString", %"class.xalanc_1_10::ExtensionNSHandler"* }
%"class.xalanc_1_10::ExtensionNSHandler" = type opaque
%"class.xalanc_1_10::XalanVector.11" = type { %"class.xercesc_2_7::MemoryManager"*, i64, i64, %"class.xalanc_1_10::XalanVector.12"* }
%"class.xalanc_1_10::XalanVector.12" = type { %"class.xercesc_2_7::MemoryManager"*, i64, i64, %"struct.xalanc_1_10::XalanListIteratorBase"* }
%"struct.xalanc_1_10::XalanListIteratorBase" = type { %"struct.xalanc_1_10::XalanList<xalanc_1_10::XalanMap<xalanc_1_10::XalanDOMString, xalanc_1_10::ExtensionNSHandler *, xalanc_1_10::XalanMapKeyTraits<xalanc_1_10::XalanDOMString> >::Entry>::Node"* }
%"class.xalanc_1_10::ElemTemplate" = type opaque
%"class.xalanc_1_10::XalanVector.13" = type { %"class.xercesc_2_7::MemoryManager"*, i64, i64, %"class.xalanc_1_10::XalanDOMString"* }
%"class.xalanc_1_10::XalanMap.14" = type { %"struct.xalanc_1_10::XalanHashMemberReference", %"struct.std::equal_to.15", %"class.xercesc_2_7::MemoryManager"*, float, i64, i64, %"class.xalanc_1_10::XalanList.17", %"class.xalanc_1_10::XalanList.17", %"class.xalanc_1_10::XalanVector.18", i64, i64 }
%"struct.xalanc_1_10::XalanHashMemberReference" = type { i8 }
%"struct.std::equal_to.15" = type { i8 }
%"class.xalanc_1_10::XalanList.17" = type { %"class.xercesc_2_7::MemoryManager"*, %"struct.xalanc_1_10::XalanList<xalanc_1_10::XalanMap<xalanc_1_10::XalanQNameByReference, const xalanc_1_10::ElemTemplate *, xalanc_1_10::XalanMapKeyTraits<xalanc_1_10::XalanQNameByReference> >::Entry>::Node"*, %"struct.xalanc_1_10::XalanList<xalanc_1_10::XalanMap<xalanc_1_10::XalanQNameByReference, const xalanc_1_10::ElemTemplate *, xalanc_1_10::XalanMapKeyTraits<xalanc_1_10::XalanQNameByReference> >::Entry>::Node"* }
%"struct.xalanc_1_10::XalanList<xalanc_1_10::XalanMap<xalanc_1_10::XalanQNameByReference, const xalanc_1_10::ElemTemplate *, xalanc_1_10::XalanMapKeyTraits<xalanc_1_10::XalanQNameByReference> >::Entry>::Node" = type opaque
%"class.xalanc_1_10::XalanVector.18" = type { %"class.xercesc_2_7::MemoryManager"*, i64, i64, %"class.xalanc_1_10::XalanVector.19"* }
%"class.xalanc_1_10::XalanVector.19" = type { %"class.xercesc_2_7::MemoryManager"*, i64, i64, %"struct.xalanc_1_10::XalanListIteratorBase.20"* }
%"struct.xalanc_1_10::XalanListIteratorBase.20" = type opaque
%"class.xalanc_1_10::XalanVector.21" = type { %"class.xercesc_2_7::MemoryManager"*, i64, i64, %"class.xalanc_1_10::ElemVariable"** }
%"class.xalanc_1_10::ElemVariable" = type opaque
%"class.xalanc_1_10::XalanMap.22" = type { %"struct.xalanc_1_10::DOMStringHashFunction", %"struct.std::equal_to", %"class.xercesc_2_7::MemoryManager"*, float, i64, i64, %"class.xalanc_1_10::XalanList.23", %"class.xalanc_1_10::XalanList.23", %"class.xalanc_1_10::XalanVector.24", i64, i64 }
%"class.xalanc_1_10::XalanList.23" = type { %"class.xercesc_2_7::MemoryManager"*, %"struct.xalanc_1_10::XalanList<xalanc_1_10::XalanMap<xalanc_1_10::XalanDOMString, xalanc_1_10::XalanVector<const xalanc_1_10::XalanMatchPatternData *, xalanc_1_10::MemoryManagedConstructionTraits<const xalanc_1_10::XalanMatchPatternData *> >, xalanc_1_10::XalanMapKeyTraits<xalanc_1_10::XalanDOMString> >::Entry>::Node"*, %"struct.xalanc_1_10::XalanList<xalanc_1_10::XalanMap<xalanc_1_10::XalanDOMString, xalanc_1_10::XalanVector<const xalanc_1_10::XalanMatchPatternData *, xalanc_1_10::MemoryManagedConstructionTraits<const xalanc_1_10::XalanMatchPatternData *> >, xalanc_1_10::XalanMapKeyTraits<xalanc_1_10::XalanDOMString> >::Entry>::Node"* }
%"struct.xalanc_1_10::XalanList<xalanc_1_10::XalanMap<xalanc_1_10::XalanDOMString, xalanc_1_10::XalanVector<const xalanc_1_10::XalanMatchPatternData *, xalanc_1_10::MemoryManagedConstructionTraits<const xalanc_1_10::XalanMatchPatternData *> >, xalanc_1_10::XalanMapKeyTraits<xalanc_1_10::XalanDOMString> >::Entry>::Node" = type opaque
%"class.xalanc_1_10::XalanVector.24" = type { %"class.xercesc_2_7::MemoryManager"*, i64, i64, %"class.xalanc_1_10::XalanVector.25"* }
%"class.xalanc_1_10::XalanVector.25" = type { %"class.xercesc_2_7::MemoryManager"*, i64, i64, %"struct.xalanc_1_10::XalanListIteratorBase.26"* }
%"struct.xalanc_1_10::XalanListIteratorBase.26" = type { %"struct.xalanc_1_10::XalanList<xalanc_1_10::XalanMap<xalanc_1_10::XalanDOMString, xalanc_1_10::XalanVector<const xalanc_1_10::XalanMatchPatternData *, xalanc_1_10::MemoryManagedConstructionTraits<const xalanc_1_10::XalanMatchPatternData *> >, xalanc_1_10::XalanMapKeyTraits<xalanc_1_10::XalanDOMString> >::Entry>::Node"* }
%"struct.xalanc_1_10::XalanMapIterator" = type { %"struct.xalanc_1_10::XalanListIteratorBase.26" }
%"class.xalanc_1_10::XalanVector.27" = type { %"class.xercesc_2_7::MemoryManager"*, i64, i64, %"class.xalanc_1_10::XalanMatchPatternData"** }
%"class.xalanc_1_10::XalanMatchPatternData" = type opaque
%"class.xalanc_1_10::XalanVector.28" = type { %"class.xercesc_2_7::MemoryManager"*, i64, i64, %"class.xalanc_1_10::ElemDecimalFormat"** }
%"class.xalanc_1_10::ElemDecimalFormat" = type opaque
%"class.xercesc_2_7::AttributeList" = type { i32 (...)** }
%"class.xercesc_2_7::XMLDeleter" = type { i32 (...)** }
%"class.xalanc_1_10::StylesheetExecutionContext" = type { %"class.xalanc_1_10::XPathExecutionContext" }
%"class.xalanc_1_10::XalanNode" = type { i32 (...)** }

$_ZN11xercesc_2_710XMLDeleterD0Ev = comdat any

$_ZN11xercesc_2_710XMLDeleterD2Ev = comdat any

$_ZN11xalanc_1_106equalsEPKtRKNS_14XalanDOMStringE = comdat any

$_ZN11xalanc_1_1010Stylesheet13getNamespacesEv = comdat any

$_ZNK11xalanc_1_1010XalanQName7isValidEv = comdat any

$_ZNK11xalanc_1_1014XalanDOMString5c_strEv = comdat any

$_ZN11xalanc_1_1010Stylesheet17getStylesheetRootEv = comdat any

$_ZN11xalanc_1_10eqERKNS_14XalanDOMStringEPKt = comdat any

$_ZN11xalanc_1_1014XalanDOMString6equalsERKS0_PKt = comdat any

$_ZN11xalanc_1_1014XalanDOMString6equalsEPKtS2_ = comdat any

$_ZNK11xalanc_1_1014XalanDOMString10invariantsEv = comdat any

$_ZNK11xalanc_1_1011XalanVectorItNS_31MemoryManagedConstructionTraitsItEEE5emptyEv = comdat any

$_ZNK11xalanc_1_1011XalanVectorItNS_31MemoryManagedConstructionTraitsItEEEixEm = comdat any

$_ZNK11xalanc_1_1011XalanVectorItNS_31MemoryManagedConstructionTraitsItEEE10invariantsEv = comdat any

$_ZTVN11xercesc_2_710XMLDeleterE = comdat any

$_ZTSN11xercesc_2_710XMLDeleterE = comdat any

$_ZTIN11xercesc_2_710XMLDeleterE = comdat any

@_ZTVN11xalanc_1_1016ElemAttributeSetE = dso_local unnamed_addr constant { [41 x i8*] } { [41 x i8*] [i8* null, i8* bitcast ({ i8*, i8*, i8* }* @_ZTIN11xalanc_1_1016ElemAttributeSetE to i8*), i8* bitcast (void (%"class.xalanc_1_10::ElemAttributeSet"*)* @_ZN11xalanc_1_1016ElemAttributeSetD1Ev to i8*), i8* bitcast (void (%"class.xalanc_1_10::ElemAttributeSet"*)* @_ZN11xalanc_1_1016ElemAttributeSetD0Ev to i8*), i8* bitcast (%"class.xalanc_1_10::XalanDOMString"* (%"class.xalanc_1_10::ElemTemplateElement"*, %"class.xalanc_1_10::XalanDOMString"*)* @_ZNK11xalanc_1_1019ElemTemplateElement21getNamespaceForPrefixERKNS_14XalanDOMStringE to i8*), i8* bitcast (%"class.xalanc_1_10::XalanDOMString"* (%"class.xalanc_1_10::ElemTemplateElement"*)* @_ZNK11xalanc_1_1019ElemTemplateElement6getURIEv to i8*), i8* bitcast (%"class.xercesc_2_7::Locator"* (%"class.xalanc_1_10::ElemTemplateElement"*)* @_ZNK11xalanc_1_1019ElemTemplateElement10getLocatorEv to i8*), i8* bitcast (i1 (%"class.xalanc_1_10::ElemTemplateElement"*, i16*, %"class.xercesc_2_7::AttributeList"*, i32, %"class.xalanc_1_10::StylesheetConstructionContext"*)* @_ZNK11xalanc_1_1019ElemTemplateElement8isAttrOKEPKtRKN11xercesc_2_713AttributeListEiRNS_29StylesheetConstructionContextE to i8*), i8* bitcast (%"class.xalanc_1_10::ElemTemplateElement"* (%"class.xalanc_1_10::ElemAttributeSet"*, %"class.xalanc_1_10::StylesheetExecutionContext"*)* @_ZNK11xalanc_1_1016ElemAttributeSet12startElementERNS_26StylesheetExecutionContextE to i8*), i8* bitcast (void (%"class.xalanc_1_10::ElemAttributeSet"*, %"class.xalanc_1_10::StylesheetExecutionContext"*)* @_ZNK11xalanc_1_1016ElemAttributeSet10endElementERNS_26StylesheetExecutionContextE to i8*), i8* bitcast (void (%"class.xalanc_1_10::ElemTemplateElement"*, %"class.xalanc_1_10::StylesheetExecutionContext"*)* @_ZNK11xalanc_1_1019ElemTemplateElement7executeERNS_26StylesheetExecutionContextE to i8*), i8* bitcast (void (%"class.xalanc_1_10::ElemTemplateElement"*, %"class.xalanc_1_10::StylesheetExecutionContext"*)* @_ZNK11xalanc_1_1019ElemTemplateElement15executeChildrenERNS_26StylesheetExecutionContextE to i8*), i8* bitcast (%"class.xalanc_1_10::ElemTemplateElement"* (%"class.xalanc_1_10::ElemAttributeSet"*, %"class.xalanc_1_10::StylesheetExecutionContext"*)* @_ZNK11xalanc_1_1016ElemAttributeSet10getInvokerERNS_26StylesheetExecutionContextE to i8*), i8* bitcast (i1 (%"class.xalanc_1_10::ElemTemplateElement"*)* @_ZNK11xalanc_1_1019ElemTemplateElement12isWhitespaceEv to i8*), i8* bitcast (%"class.xalanc_1_10::XalanDOMString"* (%"class.xalanc_1_10::ElemAttributeSet"*)* @_ZNK11xalanc_1_1016ElemAttributeSet14getElementNameEv to i8*), i8* bitcast (%"class.xalanc_1_10::XalanQName"* (%"class.xalanc_1_10::ElemTemplateElement"*)* @_ZNK11xalanc_1_1019ElemTemplateElement16getNameAttributeEv to i8*), i8* bitcast (void (%"class.xalanc_1_10::ElemAttributeSet"*, %"class.xalanc_1_10::StylesheetConstructionContext"*, %"class.xalanc_1_10::Stylesheet"*)* @_ZN11xalanc_1_1016ElemAttributeSet15addToStylesheetERNS_29StylesheetConstructionContextERNS_10StylesheetE to i8*), i8* bitcast (void (%"class.xalanc_1_10::ElemTemplateElement"*, %"class.xalanc_1_10::StylesheetConstructionContext"*, %"class.xalanc_1_10::Stylesheet"*, %"class.xercesc_2_7::AttributeList"*, %"class.xercesc_2_7::Locator"*)* @_ZN11xalanc_1_1019ElemTemplateElement18processSortElementERNS_29StylesheetConstructionContextERNS_10StylesheetERKN11xercesc_2_713AttributeListEPKNS5_7LocatorE to i8*), i8* bitcast (void (%"class.xalanc_1_10::ElemTemplateElement"*, i1)* @_ZN11xalanc_1_1019ElemTemplateElement18setDefaultTemplateEb to i8*), i8* bitcast (void (%"class.xalanc_1_10::ElemUse"*, %"class.xalanc_1_10::StylesheetConstructionContext"*, %"class.xalanc_1_10::NamespacesHandler"*)* @_ZN11xalanc_1_107ElemUse16postConstructionERNS_29StylesheetConstructionContextERKNS_17NamespacesHandlerE to i8*), i8* bitcast (%"class.xalanc_1_10::ElemTemplateElement"* (%"class.xalanc_1_10::ElemTemplateElement"*)* @_ZNK11xalanc_1_1019ElemTemplateElement17getFirstChildElemEv to i8*), i8* bitcast (%"class.xalanc_1_10::ElemTemplateElement"* (%"class.xalanc_1_10::ElemTemplateElement"*, %"class.xalanc_1_10::StylesheetExecutionContext"*)* @_ZNK11xalanc_1_1019ElemTemplateElement20beginExecuteChildrenERNS_26StylesheetExecutionContextE to i8*), i8* bitcast (void (%"class.xalanc_1_10::ElemTemplateElement"*, %"class.xalanc_1_10::StylesheetExecutionContext"*)* @_ZNK11xalanc_1_1019ElemTemplateElement18endExecuteChildrenERNS_26StylesheetExecutionContextE to i8*), i8* bitcast (void (%"class.xalanc_1_10::ElemTemplateElement"*, %"class.xalanc_1_10::ElemTemplateElement"*)* @_ZN11xalanc_1_1019ElemTemplateElement17setFirstChildElemEPS0_ to i8*), i8* bitcast (%"class.xalanc_1_10::ElemTemplateElement"* (%"class.xalanc_1_10::ElemTemplateElement"*)* @_ZNK11xalanc_1_1019ElemTemplateElement16getLastChildElemEv to i8*), i8* bitcast (%"class.xalanc_1_10::ElemTemplateElement"* (%"class.xalanc_1_10::ElemTemplateElement"*)* @_ZNK11xalanc_1_1019ElemTemplateElement18getNextSiblingElemEv to i8*), i8* bitcast (%"class.xalanc_1_10::ElemTemplateElement"* (%"class.xalanc_1_10::ElemUse"*, %"class.xalanc_1_10::StylesheetExecutionContext"*, %"class.xalanc_1_10::ElemTemplateElement"*)* @_ZNK11xalanc_1_107ElemUse25getNextChildElemToExecuteERNS_26StylesheetExecutionContextEPKNS_19ElemTemplateElementE to i8*), i8* bitcast (%"class.xalanc_1_10::ElemTemplateElement"* (%"class.xalanc_1_10::ElemUse"*, %"class.xalanc_1_10::StylesheetExecutionContext"*)* @_ZNK11xalanc_1_107ElemUse26getFirstChildElemToExecuteERNS_26StylesheetExecutionContextE to i8*), i8* bitcast (i1 (%"class.xalanc_1_10::ElemTemplateElement"*, %"class.xalanc_1_10::StylesheetExecutionContext"*, %"class.xalanc_1_10::ElemTemplateElement"*)* @_ZNK11xalanc_1_1019ElemTemplateElement19executeChildElementERNS_26StylesheetExecutionContextEPKS0_ to i8*), i8* bitcast (void (%"class.xalanc_1_10::ElemTemplateElement"*, %"class.xalanc_1_10::ElemTemplateElement"*)* @_ZN11xalanc_1_1019ElemTemplateElement18setNextSiblingElemEPS0_ to i8*), i8* bitcast (%"class.xalanc_1_10::ElemTemplateElement"* (%"class.xalanc_1_10::ElemTemplateElement"*)* @_ZNK11xalanc_1_1019ElemTemplateElement22getPreviousSiblingElemEv to i8*), i8* bitcast (void (%"class.xalanc_1_10::ElemTemplateElement"*, %"class.xalanc_1_10::ElemTemplateElement"*)* @_ZN11xalanc_1_1019ElemTemplateElement22setPreviousSiblingElemEPS0_ to i8*), i8* bitcast (%"class.xalanc_1_10::ElemTemplateElement"* (%"class.xalanc_1_10::ElemTemplateElement"*)* @_ZNK11xalanc_1_1019ElemTemplateElement17getParentNodeElemEv to i8*), i8* bitcast (void (%"class.xalanc_1_10::ElemTemplateElement"*, %"class.xalanc_1_10::ElemTemplateElement"*)* @_ZN11xalanc_1_1019ElemTemplateElement17setParentNodeElemEPS0_ to i8*), i8* bitcast (%"class.xalanc_1_10::ElemTemplateElement"* (%"class.xalanc_1_10::ElemTemplateElement"*, %"class.xalanc_1_10::ElemTemplateElement"*)* @_ZN11xalanc_1_1019ElemTemplateElement15appendChildElemEPS0_ to i8*), i8* bitcast (%"class.xalanc_1_10::XPath"* (%"class.xalanc_1_10::ElemTemplateElement"*, i32)* @_ZNK11xalanc_1_1019ElemTemplateElement8getXPathEj to i8*), i8* bitcast (%"class.xalanc_1_10::ElemTemplateElement"* (%"class.xalanc_1_10::ElemTemplateElement"*, %"class.xalanc_1_10::StylesheetExecutionContext"*, %"class.xalanc_1_10::ElemTemplateElement"*, %"class.xalanc_1_10::ElemTemplateElement"*, %"class.xalanc_1_10::XalanNode"*)* @_ZNK11xalanc_1_1019ElemTemplateElement28findTemplateToTransformChildERNS_26StylesheetExecutionContextERKS0_PS3_PNS_9XalanNodeE to i8*), i8* bitcast (%"class.xalanc_1_10::ElemTemplateElement"* (%"class.xalanc_1_10::ElemTemplateElement"*, %"class.xalanc_1_10::StylesheetExecutionContext"*, %"class.xalanc_1_10::ElemTemplateElement"*, %"class.xalanc_1_10::ElemTemplateElement"*, %"class.xalanc_1_10::XalanNode"*, i32)* @_ZNK11xalanc_1_1019ElemTemplateElement28findTemplateToTransformChildERNS_26StylesheetExecutionContextERKS0_PS3_PNS_9XalanNodeENS6_8NodeTypeE to i8*), i8* bitcast (i1 (%"class.xalanc_1_10::ElemAttributeSet"*, i32)* @_ZNK11xalanc_1_1016ElemAttributeSet16childTypeAllowedEi to i8*), i8* bitcast (void (%"class.xalanc_1_10::ElemTemplateElement"*, %"class.xalanc_1_10::StylesheetConstructionContext"*, %"class.xalanc_1_10::NamespacesHandler"*, %"class.xalanc_1_10::NamespacesHandler"*)* @_ZN11xalanc_1_1019ElemTemplateElement26namespacesPostConstructionERNS_29StylesheetConstructionContextERKNS_17NamespacesHandlerERS3_ to i8*), i8* bitcast (void (%"class.xalanc_1_10::ElemUse"*, %"class.xalanc_1_10::StylesheetExecutionContext"*)* @_ZNK11xalanc_1_107ElemUse12evaluateAVTsERNS_26StylesheetExecutionContextE to i8*)] }, align 8
@_ZN11xalanc_1_109Constants13ATTRNAME_NAMEE = external dso_local constant %"class.xalanc_1_10::XalanDOMString"*, align 8
@_ZN11xalanc_1_109Constants40ELEMNAME_ATTRIBUTESET_WITH_PREFIX_STRINGE = external dso_local constant %"class.xalanc_1_10::XalanDOMString"*, align 8
@_ZTVN11xercesc_2_710XMLDeleterE = linkonce_odr dso_local unnamed_addr constant { [4 x i8*] } { [4 x i8*] [i8* null, i8* bitcast ({ i8*, i8* }* @_ZTIN11xercesc_2_710XMLDeleterE to i8*), i8* bitcast (void (%"class.xercesc_2_7::XMLDeleter"*)* @_ZN11xercesc_2_710XMLDeleterD2Ev to i8*), i8* bitcast (void (%"class.xercesc_2_7::XMLDeleter"*)* @_ZN11xercesc_2_710XMLDeleterD0Ev to i8*)] }, comdat, align 8
@_ZTVN10__cxxabiv117__class_type_infoE = external dso_local global i8*
@_ZTSN11xercesc_2_710XMLDeleterE = linkonce_odr dso_local constant [28 x i8] c"N11xercesc_2_710XMLDeleterE\00", comdat, align 1
@_ZTIN11xercesc_2_710XMLDeleterE = linkonce_odr dso_local constant { i8*, i8* } { i8* bitcast (i8** getelementptr inbounds (i8*, i8** @_ZTVN10__cxxabiv117__class_type_infoE, i64 2) to i8*), i8* getelementptr inbounds ([28 x i8], [28 x i8]* @_ZTSN11xercesc_2_710XMLDeleterE, i32 0, i32 0) }, comdat, align 8
@_ZTVN10__cxxabiv120__si_class_type_infoE = external dso_local global i8*
@_ZTSN11xalanc_1_1016ElemAttributeSetE = dso_local constant [34 x i8] c"N11xalanc_1_1016ElemAttributeSetE\00", align 1
@_ZTIN11xalanc_1_107ElemUseE = external dso_local constant i8*
@_ZTIN11xalanc_1_1016ElemAttributeSetE = dso_local constant { i8*, i8*, i8* } { i8* bitcast (i8** getelementptr inbounds (i8*, i8** @_ZTVN10__cxxabiv120__si_class_type_infoE, i64 2) to i8*), i8* getelementptr inbounds ([34 x i8], [34 x i8]* @_ZTSN11xalanc_1_1016ElemAttributeSetE, i32 0, i32 0), i8* bitcast (i8** @_ZTIN11xalanc_1_107ElemUseE to i8*) }, align 8
@_ZN11xalanc_1_1014XalanDOMString7s_emptyE = external dso_local constant i16, align 2

@_ZN11xalanc_1_1016ElemAttributeSetC1ERNS_29StylesheetConstructionContextERNS_10StylesheetERKN11xercesc_2_713AttributeListEii = dso_local unnamed_addr alias void (%"class.xalanc_1_10::ElemAttributeSet"*, %"class.xalanc_1_10::StylesheetConstructionContext"*, %"class.xalanc_1_10::Stylesheet"*, %"class.xercesc_2_7::AttributeList"*, i32, i32), void (%"class.xalanc_1_10::ElemAttributeSet"*, %"class.xalanc_1_10::StylesheetConstructionContext"*, %"class.xalanc_1_10::Stylesheet"*, %"class.xercesc_2_7::AttributeList"*, i32, i32)* @_ZN11xalanc_1_1016ElemAttributeSetC2ERNS_29StylesheetConstructionContextERNS_10StylesheetERKN11xercesc_2_713AttributeListEii
@_ZN11xalanc_1_1016ElemAttributeSetD1Ev = dso_local unnamed_addr alias void (%"class.xalanc_1_10::ElemAttributeSet"*), void (%"class.xalanc_1_10::ElemAttributeSet"*)* @_ZN11xalanc_1_1016ElemAttributeSetD2Ev

; Function Attrs: nounwind readnone speculatable willreturn
declare void @llvm.dbg.declare(metadata, metadata, metadata) #0

; Function Attrs: noinline nounwind uwtable
define linkonce_odr dso_local void @_ZN11xercesc_2_710XMLDeleterD0Ev(%"class.xercesc_2_7::XMLDeleter"* %this) unnamed_addr #1 comdat align 2 !dbg !1499 {
entry:
  %this.addr = alloca %"class.xercesc_2_7::XMLDeleter"*, align 8
  store %"class.xercesc_2_7::XMLDeleter"* %this, %"class.xercesc_2_7::XMLDeleter"** %this.addr, align 8
  call void @llvm.dbg.declare(metadata %"class.xercesc_2_7::XMLDeleter"** %this.addr, metadata !1520, metadata !DIExpression()), !dbg !1522
  %this1 = load %"class.xercesc_2_7::XMLDeleter"*, %"class.xercesc_2_7::XMLDeleter"** %this.addr, align 8
  call void @_ZN11xercesc_2_710XMLDeleterD2Ev(%"class.xercesc_2_7::XMLDeleter"* %this1) #6, !dbg !1523
  %0 = bitcast %"class.xercesc_2_7::XMLDeleter"* %this1 to i8*, !dbg !1523
  call void @_ZdlPv(i8* %0) #7, !dbg !1523
  ret void, !dbg !1524
}

; Function Attrs: noinline nounwind uwtable
define linkonce_odr dso_local void @_ZN11xercesc_2_710XMLDeleterD2Ev(%"class.xercesc_2_7::XMLDeleter"* %this) unnamed_addr #1 comdat align 2 !dbg !1525 {
entry:
  %this.addr = alloca %"class.xercesc_2_7::XMLDeleter"*, align 8
  store %"class.xercesc_2_7::XMLDeleter"* %this, %"class.xercesc_2_7::XMLDeleter"** %this.addr, align 8
  call void @llvm.dbg.declare(metadata %"class.xercesc_2_7::XMLDeleter"** %this.addr, metadata !1526, metadata !DIExpression()), !dbg !1527
  %this1 = load %"class.xercesc_2_7::XMLDeleter"*, %"class.xercesc_2_7::XMLDeleter"** %this.addr, align 8
  ret void, !dbg !1528
}

; Function Attrs: nobuiltin nounwind
declare dso_local void @_ZdlPv(i8*) #2

; Function Attrs: noinline uwtable
define dso_local void @_ZN11xalanc_1_1016ElemAttributeSetC2ERNS_29StylesheetConstructionContextERNS_10StylesheetERKN11xercesc_2_713AttributeListEii(%"class.xalanc_1_10::ElemAttributeSet"* %this, %"class.xalanc_1_10::StylesheetConstructionContext"* dereferenceable(16) %constructionContext, %"class.xalanc_1_10::Stylesheet"* dereferenceable(1504) %stylesheetTree, %"class.xercesc_2_7::AttributeList"* dereferenceable(8) %atts, i32 %lineNumber, i32 %columnNumber) unnamed_addr #3 align 2 personality i8* bitcast (i32 (...)* @__gxx_personality_v0 to i8*) !dbg !1529 {
entry:
  %this.addr = alloca %"class.xalanc_1_10::ElemAttributeSet"*, align 8
  %constructionContext.addr = alloca %"class.xalanc_1_10::StylesheetConstructionContext"*, align 8
  %stylesheetTree.addr = alloca %"class.xalanc_1_10::Stylesheet"*, align 8
  %atts.addr = alloca %"class.xercesc_2_7::AttributeList"*, align 8
  %lineNumber.addr = alloca i32, align 4
  %columnNumber.addr = alloca i32, align 4
  %nAttrs = alloca i32, align 4
  %exn.slot = alloca i8*
  %ehselector.slot = alloca i32
  %i = alloca i32, align 4
  %aname = alloca i16*, align 8
  store %"class.xalanc_1_10::ElemAttributeSet"* %this, %"class.xalanc_1_10::ElemAttributeSet"** %this.addr, align 8
  call void @llvm.dbg.declare(metadata %"class.xalanc_1_10::ElemAttributeSet"** %this.addr, metadata !2340, metadata !DIExpression()), !dbg !2342
  store %"class.xalanc_1_10::StylesheetConstructionContext"* %constructionContext, %"class.xalanc_1_10::StylesheetConstructionContext"** %constructionContext.addr, align 8
  call void @llvm.dbg.declare(metadata %"class.xalanc_1_10::StylesheetConstructionContext"** %constructionContext.addr, metadata !2343, metadata !DIExpression()), !dbg !2344
  store %"class.xalanc_1_10::Stylesheet"* %stylesheetTree, %"class.xalanc_1_10::Stylesheet"** %stylesheetTree.addr, align 8
  call void @llvm.dbg.declare(metadata %"class.xalanc_1_10::Stylesheet"** %stylesheetTree.addr, metadata !2345, metadata !DIExpression()), !dbg !2346
  store %"class.xercesc_2_7::AttributeList"* %atts, %"class.xercesc_2_7::AttributeList"** %atts.addr, align 8
  call void @llvm.dbg.declare(metadata %"class.xercesc_2_7::AttributeList"** %atts.addr, metadata !2347, metadata !DIExpression()), !dbg !2348
  store i32 %lineNumber, i32* %lineNumber.addr, align 4
  call void @llvm.dbg.declare(metadata i32* %lineNumber.addr, metadata !2349, metadata !DIExpression()), !dbg !2350
  store i32 %columnNumber, i32* %columnNumber.addr, align 4
  call void @llvm.dbg.declare(metadata i32* %columnNumber.addr, metadata !2351, metadata !DIExpression()), !dbg !2352
  %this1 = load %"class.xalanc_1_10::ElemAttributeSet"*, %"class.xalanc_1_10::ElemAttributeSet"** %this.addr, align 8
  %0 = bitcast %"class.xalanc_1_10::ElemAttributeSet"* %this1 to %"class.xalanc_1_10::ElemUse"*, !dbg !2353
  %1 = load %"class.xalanc_1_10::StylesheetConstructionContext"*, %"class.xalanc_1_10::StylesheetConstructionContext"** %constructionContext.addr, align 8, !dbg !2354
  %2 = load %"class.xalanc_1_10::Stylesheet"*, %"class.xalanc_1_10::Stylesheet"** %stylesheetTree.addr, align 8, !dbg !2355
  %3 = load i32, i32* %lineNumber.addr, align 4, !dbg !2356
  %4 = load i32, i32* %columnNumber.addr, align 4, !dbg !2357
  call void @_ZN11xalanc_1_107ElemUseC2ERNS_29StylesheetConstructionContextERNS_10StylesheetEiii(%"class.xalanc_1_10::ElemUse"* %0, %"class.xalanc_1_10::StylesheetConstructionContext"* dereferenceable(16) %1, %"class.xalanc_1_10::Stylesheet"* dereferenceable(1504) %2, i32 %3, i32 %4, i32 7), !dbg !2358
  %5 = bitcast %"class.xalanc_1_10::ElemAttributeSet"* %this1 to i32 (...)***, !dbg !2353
  store i32 (...)** bitcast (i8** getelementptr inbounds ({ [41 x i8*] }, { [41 x i8*] }* @_ZTVN11xalanc_1_1016ElemAttributeSetE, i32 0, inrange i32 0, i32 2) to i32 (...)**), i32 (...)*** %5, align 8, !dbg !2353
  %m_qname = getelementptr inbounds %"class.xalanc_1_10::ElemAttributeSet", %"class.xalanc_1_10::ElemAttributeSet"* %this1, i32 0, i32 1, !dbg !2359
  store %"class.xalanc_1_10::XalanQName"* null, %"class.xalanc_1_10::XalanQName"** %m_qname, align 8, !dbg !2359
  call void @llvm.dbg.declare(metadata i32* %nAttrs, metadata !2360, metadata !DIExpression()), !dbg !2363
  %6 = load %"class.xercesc_2_7::AttributeList"*, %"class.xercesc_2_7::AttributeList"** %atts.addr, align 8, !dbg !2364
  %7 = bitcast %"class.xercesc_2_7::AttributeList"* %6 to i32 (%"class.xercesc_2_7::AttributeList"*)***, !dbg !2365
  %vtable = load i32 (%"class.xercesc_2_7::AttributeList"*)**, i32 (%"class.xercesc_2_7::AttributeList"*)*** %7, align 8, !dbg !2365
  %vfn = getelementptr inbounds i32 (%"class.xercesc_2_7::AttributeList"*)*, i32 (%"class.xercesc_2_7::AttributeList"*)** %vtable, i64 2, !dbg !2365
  %8 = load i32 (%"class.xercesc_2_7::AttributeList"*)*, i32 (%"class.xercesc_2_7::AttributeList"*)** %vfn, align 8, !dbg !2365
  %call = invoke i32 %8(%"class.xercesc_2_7::AttributeList"* %6)
          to label %invoke.cont unwind label %lpad, !dbg !2365

invoke.cont:                                      ; preds = %entry
  store i32 %call, i32* %nAttrs, align 4, !dbg !2363
  call void @llvm.dbg.declare(metadata i32* %i, metadata !2366, metadata !DIExpression()), !dbg !2368
  store i32 0, i32* %i, align 4, !dbg !2368
  br label %for.cond, !dbg !2369

for.cond:                                         ; preds = %for.inc, %invoke.cont
  %9 = load i32, i32* %i, align 4, !dbg !2370
  %10 = load i32, i32* %nAttrs, align 4, !dbg !2372
  %cmp = icmp ult i32 %9, %10, !dbg !2373
  br i1 %cmp, label %for.body, label %for.end, !dbg !2374

for.body:                                         ; preds = %for.cond
  call void @llvm.dbg.declare(metadata i16** %aname, metadata !2375, metadata !DIExpression()), !dbg !2378
  %11 = load %"class.xercesc_2_7::AttributeList"*, %"class.xercesc_2_7::AttributeList"** %atts.addr, align 8, !dbg !2379
  %12 = load i32, i32* %i, align 4, !dbg !2380
  %13 = bitcast %"class.xercesc_2_7::AttributeList"* %11 to i16* (%"class.xercesc_2_7::AttributeList"*, i32)***, !dbg !2381
  %vtable2 = load i16* (%"class.xercesc_2_7::AttributeList"*, i32)**, i16* (%"class.xercesc_2_7::AttributeList"*, i32)*** %13, align 8, !dbg !2381
  %vfn3 = getelementptr inbounds i16* (%"class.xercesc_2_7::AttributeList"*, i32)*, i16* (%"class.xercesc_2_7::AttributeList"*, i32)** %vtable2, i64 3, !dbg !2381
  %14 = load i16* (%"class.xercesc_2_7::AttributeList"*, i32)*, i16* (%"class.xercesc_2_7::AttributeList"*, i32)** %vfn3, align 8, !dbg !2381
  %call5 = invoke i16* %14(%"class.xercesc_2_7::AttributeList"* %11, i32 %12)
          to label %invoke.cont4 unwind label %lpad, !dbg !2381

invoke.cont4:                                     ; preds = %for.body
  store i16* %call5, i16** %aname, align 8, !dbg !2378
  %15 = load i16*, i16** %aname, align 8, !dbg !2382
  %16 = load %"class.xalanc_1_10::XalanDOMString"*, %"class.xalanc_1_10::XalanDOMString"** @_ZN11xalanc_1_109Constants13ATTRNAME_NAMEE, align 8, !dbg !2384
  %call7 = invoke zeroext i1 @_ZN11xalanc_1_106equalsEPKtRKNS_14XalanDOMStringE(i16* %15, %"class.xalanc_1_10::XalanDOMString"* dereferenceable(40) %16)
          to label %invoke.cont6 unwind label %lpad, !dbg !2385

invoke.cont6:                                     ; preds = %invoke.cont4
  br i1 %call7, label %if.then, label %if.else, !dbg !2386

if.then:                                          ; preds = %invoke.cont6
  %17 = load %"class.xalanc_1_10::StylesheetConstructionContext"*, %"class.xalanc_1_10::StylesheetConstructionContext"** %constructionContext.addr, align 8, !dbg !2387
  %18 = load %"class.xercesc_2_7::AttributeList"*, %"class.xercesc_2_7::AttributeList"** %atts.addr, align 8, !dbg !2389
  %19 = load i32, i32* %i, align 4, !dbg !2390
  %20 = bitcast %"class.xercesc_2_7::AttributeList"* %18 to i16* (%"class.xercesc_2_7::AttributeList"*, i32)***, !dbg !2391
  %vtable8 = load i16* (%"class.xercesc_2_7::AttributeList"*, i32)**, i16* (%"class.xercesc_2_7::AttributeList"*, i32)*** %20, align 8, !dbg !2391
  %vfn9 = getelementptr inbounds i16* (%"class.xercesc_2_7::AttributeList"*, i32)*, i16* (%"class.xercesc_2_7::AttributeList"*, i32)** %vtable8, i64 5, !dbg !2391
  %21 = load i16* (%"class.xercesc_2_7::AttributeList"*, i32)*, i16* (%"class.xercesc_2_7::AttributeList"*, i32)** %vfn9, align 8, !dbg !2391
  %call11 = invoke i16* %21(%"class.xercesc_2_7::AttributeList"* %18, i32 %19)
          to label %invoke.cont10 unwind label %lpad, !dbg !2391

invoke.cont10:                                    ; preds = %if.then
  %22 = load %"class.xalanc_1_10::Stylesheet"*, %"class.xalanc_1_10::Stylesheet"** %stylesheetTree.addr, align 8, !dbg !2392
  %call13 = invoke dereferenceable(80) %"class.xalanc_1_10::XalanDeque"* @_ZN11xalanc_1_1010Stylesheet13getNamespacesEv(%"class.xalanc_1_10::Stylesheet"* %22)
          to label %invoke.cont12 unwind label %lpad, !dbg !2393

invoke.cont12:                                    ; preds = %invoke.cont10
  %23 = bitcast %"class.xalanc_1_10::ElemAttributeSet"* %this1 to %"class.xalanc_1_10::ElemTemplateElement"*, !dbg !2394
  %24 = bitcast %"class.xalanc_1_10::ElemTemplateElement"* %23 to %"class.xercesc_2_7::Locator"* (%"class.xalanc_1_10::ElemTemplateElement"*)***, !dbg !2394
  %vtable14 = load %"class.xercesc_2_7::Locator"* (%"class.xalanc_1_10::ElemTemplateElement"*)**, %"class.xercesc_2_7::Locator"* (%"class.xalanc_1_10::ElemTemplateElement"*)*** %24, align 8, !dbg !2394
  %vfn15 = getelementptr inbounds %"class.xercesc_2_7::Locator"* (%"class.xalanc_1_10::ElemTemplateElement"*)*, %"class.xercesc_2_7::Locator"* (%"class.xalanc_1_10::ElemTemplateElement"*)** %vtable14, i64 4, !dbg !2394
  %25 = load %"class.xercesc_2_7::Locator"* (%"class.xalanc_1_10::ElemTemplateElement"*)*, %"class.xercesc_2_7::Locator"* (%"class.xalanc_1_10::ElemTemplateElement"*)** %vfn15, align 8, !dbg !2394
  %call17 = invoke %"class.xercesc_2_7::Locator"* %25(%"class.xalanc_1_10::ElemTemplateElement"* %23)
          to label %invoke.cont16 unwind label %lpad, !dbg !2394

invoke.cont16:                                    ; preds = %invoke.cont12
  %26 = bitcast %"class.xalanc_1_10::StylesheetConstructionContext"* %17 to %"class.xalanc_1_10::XalanQName"* (%"class.xalanc_1_10::StylesheetConstructionContext"*, i16*, %"class.xalanc_1_10::XalanDeque"*, %"class.xercesc_2_7::Locator"*, i1)***, !dbg !2395
  %vtable18 = load %"class.xalanc_1_10::XalanQName"* (%"class.xalanc_1_10::StylesheetConstructionContext"*, i16*, %"class.xalanc_1_10::XalanDeque"*, %"class.xercesc_2_7::Locator"*, i1)**, %"class.xalanc_1_10::XalanQName"* (%"class.xalanc_1_10::StylesheetConstructionContext"*, i16*, %"class.xalanc_1_10::XalanDeque"*, %"class.xercesc_2_7::Locator"*, i1)*** %26, align 8, !dbg !2395
  %vfn19 = getelementptr inbounds %"class.xalanc_1_10::XalanQName"* (%"class.xalanc_1_10::StylesheetConstructionContext"*, i16*, %"class.xalanc_1_10::XalanDeque"*, %"class.xercesc_2_7::Locator"*, i1)*, %"class.xalanc_1_10::XalanQName"* (%"class.xalanc_1_10::StylesheetConstructionContext"*, i16*, %"class.xalanc_1_10::XalanDeque"*, %"class.xercesc_2_7::Locator"*, i1)** %vtable18, i64 41, !dbg !2395
  %27 = load %"class.xalanc_1_10::XalanQName"* (%"class.xalanc_1_10::StylesheetConstructionContext"*, i16*, %"class.xalanc_1_10::XalanDeque"*, %"class.xercesc_2_7::Locator"*, i1)*, %"class.xalanc_1_10::XalanQName"* (%"class.xalanc_1_10::StylesheetConstructionContext"*, i16*, %"class.xalanc_1_10::XalanDeque"*, %"class.xercesc_2_7::Locator"*, i1)** %vfn19, align 8, !dbg !2395
  %call21 = invoke %"class.xalanc_1_10::XalanQName"* %27(%"class.xalanc_1_10::StylesheetConstructionContext"* %17, i16* %call11, %"class.xalanc_1_10::XalanDeque"* dereferenceable(80) %call13, %"class.xercesc_2_7::Locator"* %call17, i1 zeroext false)
          to label %invoke.cont20 unwind label %lpad, !dbg !2395

invoke.cont20:                                    ; preds = %invoke.cont16
  %m_qname22 = getelementptr inbounds %"class.xalanc_1_10::ElemAttributeSet", %"class.xalanc_1_10::ElemAttributeSet"* %this1, i32 0, i32 1, !dbg !2396
  store %"class.xalanc_1_10::XalanQName"* %call21, %"class.xalanc_1_10::XalanQName"** %m_qname22, align 8, !dbg !2397
  %m_qname23 = getelementptr inbounds %"class.xalanc_1_10::ElemAttributeSet", %"class.xalanc_1_10::ElemAttributeSet"* %this1, i32 0, i32 1, !dbg !2398
  %28 = load %"class.xalanc_1_10::XalanQName"*, %"class.xalanc_1_10::XalanQName"** %m_qname23, align 8, !dbg !2398
  %call25 = invoke zeroext i1 @_ZNK11xalanc_1_1010XalanQName7isValidEv(%"class.xalanc_1_10::XalanQName"* %28)
          to label %invoke.cont24 unwind label %lpad, !dbg !2400

invoke.cont24:                                    ; preds = %invoke.cont20
  %conv = zext i1 %call25 to i32, !dbg !2398
  %cmp26 = icmp eq i32 %conv, 0, !dbg !2401
  br i1 %cmp26, label %if.then27, label %if.end, !dbg !2402

if.then27:                                        ; preds = %invoke.cont24
  %29 = bitcast %"class.xalanc_1_10::ElemAttributeSet"* %this1 to %"class.xalanc_1_10::ElemTemplateElement"*, !dbg !2403
  %30 = load %"class.xalanc_1_10::StylesheetConstructionContext"*, %"class.xalanc_1_10::StylesheetConstructionContext"** %constructionContext.addr, align 8, !dbg !2405
  %31 = load i16*, i16** %aname, align 8, !dbg !2406
  %32 = load %"class.xercesc_2_7::AttributeList"*, %"class.xercesc_2_7::AttributeList"** %atts.addr, align 8, !dbg !2407
  %33 = load i32, i32* %i, align 4, !dbg !2408
  %34 = bitcast %"class.xercesc_2_7::AttributeList"* %32 to i16* (%"class.xercesc_2_7::AttributeList"*, i32)***, !dbg !2409
  %vtable28 = load i16* (%"class.xercesc_2_7::AttributeList"*, i32)**, i16* (%"class.xercesc_2_7::AttributeList"*, i32)*** %34, align 8, !dbg !2409
  %vfn29 = getelementptr inbounds i16* (%"class.xercesc_2_7::AttributeList"*, i32)*, i16* (%"class.xercesc_2_7::AttributeList"*, i32)** %vtable28, i64 5, !dbg !2409
  %35 = load i16* (%"class.xercesc_2_7::AttributeList"*, i32)*, i16* (%"class.xercesc_2_7::AttributeList"*, i32)** %vfn29, align 8, !dbg !2409
  %call31 = invoke i16* %35(%"class.xercesc_2_7::AttributeList"* %32, i32 %33)
          to label %invoke.cont30 unwind label %lpad, !dbg !2409

invoke.cont30:                                    ; preds = %if.then27
  invoke void @_ZN11xalanc_1_1019ElemTemplateElement5errorERNS_29StylesheetConstructionContextENS_13XalanMessages5CodesEPKtS6_(%"class.xalanc_1_10::ElemTemplateElement"* %29, %"class.xalanc_1_10::StylesheetConstructionContext"* dereferenceable(16) %30, i32 62, i16* %31, i16* %call31)
          to label %invoke.cont32 unwind label %lpad, !dbg !2403

invoke.cont32:                                    ; preds = %invoke.cont30
  br label %if.end, !dbg !2410

lpad:                                             ; preds = %if.then51, %invoke.cont44, %if.then43, %land.lhs.true, %if.else, %invoke.cont30, %if.then27, %invoke.cont20, %invoke.cont16, %invoke.cont12, %invoke.cont10, %if.then, %invoke.cont4, %for.body, %entry
  %36 = landingpad { i8*, i32 }
          cleanup, !dbg !2411
  %37 = extractvalue { i8*, i32 } %36, 0, !dbg !2411
  store i8* %37, i8** %exn.slot, align 8, !dbg !2411
  %38 = extractvalue { i8*, i32 } %36, 1, !dbg !2411
  store i32 %38, i32* %ehselector.slot, align 4, !dbg !2411
  %39 = bitcast %"class.xalanc_1_10::ElemAttributeSet"* %this1 to %"class.xalanc_1_10::ElemUse"*, !dbg !2411
  call void @_ZN11xalanc_1_107ElemUseD2Ev(%"class.xalanc_1_10::ElemUse"* %39) #6, !dbg !2411
  br label %eh.resume, !dbg !2411

if.end:                                           ; preds = %invoke.cont32, %invoke.cont24
  br label %if.end48, !dbg !2412

if.else:                                          ; preds = %invoke.cont6
  %40 = bitcast %"class.xalanc_1_10::ElemAttributeSet"* %this1 to %"class.xalanc_1_10::ElemUse"*, !dbg !2413
  %41 = load %"class.xalanc_1_10::StylesheetConstructionContext"*, %"class.xalanc_1_10::StylesheetConstructionContext"** %constructionContext.addr, align 8, !dbg !2415
  %42 = load i16*, i16** %aname, align 8, !dbg !2416
  %43 = load %"class.xercesc_2_7::AttributeList"*, %"class.xercesc_2_7::AttributeList"** %atts.addr, align 8, !dbg !2417
  %44 = load i32, i32* %i, align 4, !dbg !2418
  %call34 = invoke zeroext i1 @_ZN11xalanc_1_107ElemUse23processUseAttributeSetsERNS_29StylesheetConstructionContextEPKtRKN11xercesc_2_713AttributeListEi(%"class.xalanc_1_10::ElemUse"* %40, %"class.xalanc_1_10::StylesheetConstructionContext"* dereferenceable(16) %41, i16* %42, %"class.xercesc_2_7::AttributeList"* dereferenceable(8) %43, i32 %44)
          to label %invoke.cont33 unwind label %lpad, !dbg !2413

invoke.cont33:                                    ; preds = %if.else
  %conv35 = zext i1 %call34 to i32, !dbg !2413
  %cmp36 = icmp eq i32 %conv35, 0, !dbg !2419
  br i1 %cmp36, label %land.lhs.true, label %if.end47, !dbg !2420

land.lhs.true:                                    ; preds = %invoke.cont33
  %45 = bitcast %"class.xalanc_1_10::ElemAttributeSet"* %this1 to %"class.xalanc_1_10::ElemTemplateElement"*, !dbg !2421
  %46 = load i16*, i16** %aname, align 8, !dbg !2422
  %47 = load %"class.xercesc_2_7::AttributeList"*, %"class.xercesc_2_7::AttributeList"** %atts.addr, align 8, !dbg !2423
  %48 = load i32, i32* %i, align 4, !dbg !2424
  %49 = load %"class.xalanc_1_10::StylesheetConstructionContext"*, %"class.xalanc_1_10::StylesheetConstructionContext"** %constructionContext.addr, align 8, !dbg !2425
  %50 = bitcast %"class.xalanc_1_10::ElemTemplateElement"* %45 to i1 (%"class.xalanc_1_10::ElemTemplateElement"*, i16*, %"class.xercesc_2_7::AttributeList"*, i32, %"class.xalanc_1_10::StylesheetConstructionContext"*)***, !dbg !2421
  %vtable37 = load i1 (%"class.xalanc_1_10::ElemTemplateElement"*, i16*, %"class.xercesc_2_7::AttributeList"*, i32, %"class.xalanc_1_10::StylesheetConstructionContext"*)**, i1 (%"class.xalanc_1_10::ElemTemplateElement"*, i16*, %"class.xercesc_2_7::AttributeList"*, i32, %"class.xalanc_1_10::StylesheetConstructionContext"*)*** %50, align 8, !dbg !2421
  %vfn38 = getelementptr inbounds i1 (%"class.xalanc_1_10::ElemTemplateElement"*, i16*, %"class.xercesc_2_7::AttributeList"*, i32, %"class.xalanc_1_10::StylesheetConstructionContext"*)*, i1 (%"class.xalanc_1_10::ElemTemplateElement"*, i16*, %"class.xercesc_2_7::AttributeList"*, i32, %"class.xalanc_1_10::StylesheetConstructionContext"*)** %vtable37, i64 5, !dbg !2421
  %51 = load i1 (%"class.xalanc_1_10::ElemTemplateElement"*, i16*, %"class.xercesc_2_7::AttributeList"*, i32, %"class.xalanc_1_10::StylesheetConstructionContext"*)*, i1 (%"class.xalanc_1_10::ElemTemplateElement"*, i16*, %"class.xercesc_2_7::AttributeList"*, i32, %"class.xalanc_1_10::StylesheetConstructionContext"*)** %vfn38, align 8, !dbg !2421
  %call40 = invoke zeroext i1 %51(%"class.xalanc_1_10::ElemTemplateElement"* %45, i16* %46, %"class.xercesc_2_7::AttributeList"* dereferenceable(8) %47, i32 %48, %"class.xalanc_1_10::StylesheetConstructionContext"* dereferenceable(16) %49)
          to label %invoke.cont39 unwind label %lpad, !dbg !2421

invoke.cont39:                                    ; preds = %land.lhs.true
  %conv41 = zext i1 %call40 to i32, !dbg !2421
  %cmp42 = icmp eq i32 %conv41, 0, !dbg !2426
  br i1 %cmp42, label %if.then43, label %if.end47, !dbg !2427

if.then43:                                        ; preds = %invoke.cont39
  %52 = bitcast %"class.xalanc_1_10::ElemAttributeSet"* %this1 to %"class.xalanc_1_10::ElemTemplateElement"*, !dbg !2428
  %53 = load %"class.xalanc_1_10::StylesheetConstructionContext"*, %"class.xalanc_1_10::StylesheetConstructionContext"** %constructionContext.addr, align 8, !dbg !2430
  %54 = load %"class.xalanc_1_10::XalanDOMString"*, %"class.xalanc_1_10::XalanDOMString"** @_ZN11xalanc_1_109Constants40ELEMNAME_ATTRIBUTESET_WITH_PREFIX_STRINGE, align 8, !dbg !2431
  %call45 = invoke i16* @_ZNK11xalanc_1_1014XalanDOMString5c_strEv(%"class.xalanc_1_10::XalanDOMString"* %54)
          to label %invoke.cont44 unwind label %lpad, !dbg !2432

invoke.cont44:                                    ; preds = %if.then43
  %55 = load i16*, i16** %aname, align 8, !dbg !2433
  invoke void @_ZN11xalanc_1_1019ElemTemplateElement5errorERNS_29StylesheetConstructionContextENS_13XalanMessages5CodesEPKtS6_(%"class.xalanc_1_10::ElemTemplateElement"* %52, %"class.xalanc_1_10::StylesheetConstructionContext"* dereferenceable(16) %53, i32 74, i16* %call45, i16* %55)
          to label %invoke.cont46 unwind label %lpad, !dbg !2428

invoke.cont46:                                    ; preds = %invoke.cont44
  br label %if.end47, !dbg !2434

if.end47:                                         ; preds = %invoke.cont46, %invoke.cont39, %invoke.cont33
  br label %if.end48

if.end48:                                         ; preds = %if.end47, %if.end
  br label %for.inc, !dbg !2435

for.inc:                                          ; preds = %if.end48
  %56 = load i32, i32* %i, align 4, !dbg !2436
  %inc = add i32 %56, 1, !dbg !2436
  store i32 %inc, i32* %i, align 4, !dbg !2436
  br label %for.cond, !dbg !2437, !llvm.loop !2438

for.end:                                          ; preds = %for.cond
  %m_qname49 = getelementptr inbounds %"class.xalanc_1_10::ElemAttributeSet", %"class.xalanc_1_10::ElemAttributeSet"* %this1, i32 0, i32 1, !dbg !2440
  %57 = load %"class.xalanc_1_10::XalanQName"*, %"class.xalanc_1_10::XalanQName"** %m_qname49, align 8, !dbg !2440
  %cmp50 = icmp eq %"class.xalanc_1_10::XalanQName"* %57, null, !dbg !2442
  br i1 %cmp50, label %if.then51, label %if.end53, !dbg !2443

if.then51:                                        ; preds = %for.end
  %58 = bitcast %"class.xalanc_1_10::ElemAttributeSet"* %this1 to %"class.xalanc_1_10::ElemTemplateElement"*, !dbg !2444
  %59 = load %"class.xalanc_1_10::StylesheetConstructionContext"*, %"class.xalanc_1_10::StylesheetConstructionContext"** %constructionContext.addr, align 8, !dbg !2446
  %60 = load %"class.xalanc_1_10::XalanDOMString"*, %"class.xalanc_1_10::XalanDOMString"** @_ZN11xalanc_1_109Constants40ELEMNAME_ATTRIBUTESET_WITH_PREFIX_STRINGE, align 8, !dbg !2447
  %61 = load %"class.xalanc_1_10::XalanDOMString"*, %"class.xalanc_1_10::XalanDOMString"** @_ZN11xalanc_1_109Constants13ATTRNAME_NAMEE, align 8, !dbg !2448
  invoke void @_ZN11xalanc_1_1019ElemTemplateElement5errorERNS_29StylesheetConstructionContextENS_13XalanMessages5CodesERKNS_14XalanDOMStringES7_(%"class.xalanc_1_10::ElemTemplateElement"* %58, %"class.xalanc_1_10::StylesheetConstructionContext"* dereferenceable(16) %59, i32 63, %"class.xalanc_1_10::XalanDOMString"* dereferenceable(40) %60, %"class.xalanc_1_10::XalanDOMString"* dereferenceable(40) %61)
          to label %invoke.cont52 unwind label %lpad, !dbg !2444

invoke.cont52:                                    ; preds = %if.then51
  br label %if.end53, !dbg !2449

if.end53:                                         ; preds = %invoke.cont52, %for.end
  ret void, !dbg !2450

eh.resume:                                        ; preds = %lpad
  %exn = load i8*, i8** %exn.slot, align 8, !dbg !2411
  %sel = load i32, i32* %ehselector.slot, align 4, !dbg !2411
  %lpad.val = insertvalue { i8*, i32 } undef, i8* %exn, 0, !dbg !2411
  %lpad.val54 = insertvalue { i8*, i32 } %lpad.val, i32 %sel, 1, !dbg !2411
  resume { i8*, i32 } %lpad.val54, !dbg !2411
}

declare dso_local void @_ZN11xalanc_1_107ElemUseC2ERNS_29StylesheetConstructionContextERNS_10StylesheetEiii(%"class.xalanc_1_10::ElemUse"*, %"class.xalanc_1_10::StylesheetConstructionContext"* dereferenceable(16), %"class.xalanc_1_10::Stylesheet"* dereferenceable(1504), i32, i32, i32) unnamed_addr #4

declare dso_local i32 @__gxx_personality_v0(...)

; Function Attrs: noinline uwtable
define linkonce_odr dso_local zeroext i1 @_ZN11xalanc_1_106equalsEPKtRKNS_14XalanDOMStringE(i16* %theLHS, %"class.xalanc_1_10::XalanDOMString"* dereferenceable(40) %theRHS) #3 comdat !dbg !2451 {
entry:
  %theLHS.addr = alloca i16*, align 8
  %theRHS.addr = alloca %"class.xalanc_1_10::XalanDOMString"*, align 8
  store i16* %theLHS, i16** %theLHS.addr, align 8
  call void @llvm.dbg.declare(metadata i16** %theLHS.addr, metadata !2452, metadata !DIExpression()), !dbg !2453
  store %"class.xalanc_1_10::XalanDOMString"* %theRHS, %"class.xalanc_1_10::XalanDOMString"** %theRHS.addr, align 8
  call void @llvm.dbg.declare(metadata %"class.xalanc_1_10::XalanDOMString"** %theRHS.addr, metadata !2454, metadata !DIExpression()), !dbg !2455
  %0 = load %"class.xalanc_1_10::XalanDOMString"*, %"class.xalanc_1_10::XalanDOMString"** %theRHS.addr, align 8, !dbg !2456
  %1 = load i16*, i16** %theLHS.addr, align 8, !dbg !2457
  %call = call zeroext i1 @_ZN11xalanc_1_10eqERKNS_14XalanDOMStringEPKt(%"class.xalanc_1_10::XalanDOMString"* dereferenceable(40) %0, i16* %1), !dbg !2458
  ret i1 %call, !dbg !2459
}

; Function Attrs: noinline nounwind uwtable
define linkonce_odr dso_local dereferenceable(80) %"class.xalanc_1_10::XalanDeque"* @_ZN11xalanc_1_1010Stylesheet13getNamespacesEv(%"class.xalanc_1_10::Stylesheet"* %this) #1 comdat align 2 !dbg !2460 {
entry:
  %this.addr = alloca %"class.xalanc_1_10::Stylesheet"*, align 8
  store %"class.xalanc_1_10::Stylesheet"* %this, %"class.xalanc_1_10::Stylesheet"** %this.addr, align 8
  call void @llvm.dbg.declare(metadata %"class.xalanc_1_10::Stylesheet"** %this.addr, metadata !3503, metadata !DIExpression()), !dbg !3505
  %this1 = load %"class.xalanc_1_10::Stylesheet"*, %"class.xalanc_1_10::Stylesheet"** %this.addr, align 8
  %m_namespaces = getelementptr inbounds %"class.xalanc_1_10::Stylesheet", %"class.xalanc_1_10::Stylesheet"* %this1, i32 0, i32 8, !dbg !3506
  ret %"class.xalanc_1_10::XalanDeque"* %m_namespaces, !dbg !3507
}

; Function Attrs: noinline uwtable
define linkonce_odr dso_local zeroext i1 @_ZNK11xalanc_1_1010XalanQName7isValidEv(%"class.xalanc_1_10::XalanQName"* %this) #3 comdat align 2 !dbg !3508 {
entry:
  %this.addr = alloca %"class.xalanc_1_10::XalanQName"*, align 8
  store %"class.xalanc_1_10::XalanQName"* %this, %"class.xalanc_1_10::XalanQName"** %this.addr, align 8
  call void @llvm.dbg.declare(metadata %"class.xalanc_1_10::XalanQName"** %this.addr, metadata !3513, metadata !DIExpression()), !dbg !3514
  %this1 = load %"class.xalanc_1_10::XalanQName"*, %"class.xalanc_1_10::XalanQName"** %this.addr, align 8
  %0 = bitcast %"class.xalanc_1_10::XalanQName"* %this1 to %"class.xalanc_1_10::XalanDOMString"* (%"class.xalanc_1_10::XalanQName"*)***, !dbg !3515
  %vtable = load %"class.xalanc_1_10::XalanDOMString"* (%"class.xalanc_1_10::XalanQName"*)**, %"class.xalanc_1_10::XalanDOMString"* (%"class.xalanc_1_10::XalanQName"*)*** %0, align 8, !dbg !3515
  %vfn = getelementptr inbounds %"class.xalanc_1_10::XalanDOMString"* (%"class.xalanc_1_10::XalanQName"*)*, %"class.xalanc_1_10::XalanDOMString"* (%"class.xalanc_1_10::XalanQName"*)** %vtable, i64 2, !dbg !3515
  %1 = load %"class.xalanc_1_10::XalanDOMString"* (%"class.xalanc_1_10::XalanQName"*)*, %"class.xalanc_1_10::XalanDOMString"* (%"class.xalanc_1_10::XalanQName"*)** %vfn, align 8, !dbg !3515
  %call = call dereferenceable(40) %"class.xalanc_1_10::XalanDOMString"* %1(%"class.xalanc_1_10::XalanQName"* %this1), !dbg !3515
  %call2 = call zeroext i1 @_ZN11xalanc_1_1010XalanQName13isValidNCNameERKNS_14XalanDOMStringE(%"class.xalanc_1_10::XalanDOMString"* dereferenceable(40) %call), !dbg !3516
  ret i1 %call2, !dbg !3517
}

declare dso_local void @_ZN11xalanc_1_1019ElemTemplateElement5errorERNS_29StylesheetConstructionContextENS_13XalanMessages5CodesEPKtS6_(%"class.xalanc_1_10::ElemTemplateElement"*, %"class.xalanc_1_10::StylesheetConstructionContext"* dereferenceable(16), i32, i16*, i16*) #4

declare dso_local zeroext i1 @_ZN11xalanc_1_107ElemUse23processUseAttributeSetsERNS_29StylesheetConstructionContextEPKtRKN11xercesc_2_713AttributeListEi(%"class.xalanc_1_10::ElemUse"*, %"class.xalanc_1_10::StylesheetConstructionContext"* dereferenceable(16), i16*, %"class.xercesc_2_7::AttributeList"* dereferenceable(8), i32) #4

; Function Attrs: noinline uwtable
define linkonce_odr dso_local i16* @_ZNK11xalanc_1_1014XalanDOMString5c_strEv(%"class.xalanc_1_10::XalanDOMString"* %this) #3 comdat align 2 !dbg !3518 {
entry:
  %this.addr = alloca %"class.xalanc_1_10::XalanDOMString"*, align 8
  store %"class.xalanc_1_10::XalanDOMString"* %this, %"class.xalanc_1_10::XalanDOMString"** %this.addr, align 8
  call void @llvm.dbg.declare(metadata %"class.xalanc_1_10::XalanDOMString"** %this.addr, metadata !3519, metadata !DIExpression()), !dbg !3521
  %this1 = load %"class.xalanc_1_10::XalanDOMString"*, %"class.xalanc_1_10::XalanDOMString"** %this.addr, align 8
  call void @_ZNK11xalanc_1_1014XalanDOMString10invariantsEv(%"class.xalanc_1_10::XalanDOMString"* %this1), !dbg !3522
  %m_data = getelementptr inbounds %"class.xalanc_1_10::XalanDOMString", %"class.xalanc_1_10::XalanDOMString"* %this1, i32 0, i32 0, !dbg !3523
  %call = call zeroext i1 @_ZNK11xalanc_1_1011XalanVectorItNS_31MemoryManagedConstructionTraitsItEEE5emptyEv(%"class.xalanc_1_10::XalanVector"* %m_data), !dbg !3524
  %conv = zext i1 %call to i32, !dbg !3523
  %cmp = icmp eq i32 %conv, 1, !dbg !3525
  br i1 %cmp, label %cond.true, label %cond.false, !dbg !3523

cond.true:                                        ; preds = %entry
  br label %cond.end, !dbg !3523

cond.false:                                       ; preds = %entry
  %m_data2 = getelementptr inbounds %"class.xalanc_1_10::XalanDOMString", %"class.xalanc_1_10::XalanDOMString"* %this1, i32 0, i32 0, !dbg !3526
  %call3 = call dereferenceable(2) i16* @_ZNK11xalanc_1_1011XalanVectorItNS_31MemoryManagedConstructionTraitsItEEEixEm(%"class.xalanc_1_10::XalanVector"* %m_data2, i64 0), !dbg !3526
  br label %cond.end, !dbg !3523

cond.end:                                         ; preds = %cond.false, %cond.true
  %cond = phi i16* [ @_ZN11xalanc_1_1014XalanDOMString7s_emptyE, %cond.true ], [ %call3, %cond.false ], !dbg !3523
  ret i16* %cond, !dbg !3527
}

declare dso_local void @_ZN11xalanc_1_1019ElemTemplateElement5errorERNS_29StylesheetConstructionContextENS_13XalanMessages5CodesERKNS_14XalanDOMStringES7_(%"class.xalanc_1_10::ElemTemplateElement"*, %"class.xalanc_1_10::StylesheetConstructionContext"* dereferenceable(16), i32, %"class.xalanc_1_10::XalanDOMString"* dereferenceable(40), %"class.xalanc_1_10::XalanDOMString"* dereferenceable(40)) #4

; Function Attrs: nounwind
declare dso_local void @_ZN11xalanc_1_107ElemUseD2Ev(%"class.xalanc_1_10::ElemUse"*) unnamed_addr #5

; Function Attrs: noinline nounwind uwtable
define dso_local void @_ZN11xalanc_1_1016ElemAttributeSetD2Ev(%"class.xalanc_1_10::ElemAttributeSet"* %this) unnamed_addr #1 align 2 !dbg !3528 {
entry:
  %this.addr = alloca %"class.xalanc_1_10::ElemAttributeSet"*, align 8
  store %"class.xalanc_1_10::ElemAttributeSet"* %this, %"class.xalanc_1_10::ElemAttributeSet"** %this.addr, align 8
  call void @llvm.dbg.declare(metadata %"class.xalanc_1_10::ElemAttributeSet"** %this.addr, metadata !3529, metadata !DIExpression()), !dbg !3530
  %this1 = load %"class.xalanc_1_10::ElemAttributeSet"*, %"class.xalanc_1_10::ElemAttributeSet"** %this.addr, align 8
  %0 = bitcast %"class.xalanc_1_10::ElemAttributeSet"* %this1 to %"class.xalanc_1_10::ElemUse"*, !dbg !3531
  call void @_ZN11xalanc_1_107ElemUseD2Ev(%"class.xalanc_1_10::ElemUse"* %0) #6, !dbg !3531
  ret void, !dbg !3533
}

; Function Attrs: noinline nounwind uwtable
define dso_local void @_ZN11xalanc_1_1016ElemAttributeSetD0Ev(%"class.xalanc_1_10::ElemAttributeSet"* %this) unnamed_addr #1 align 2 !dbg !3534 {
entry:
  %this.addr = alloca %"class.xalanc_1_10::ElemAttributeSet"*, align 8
  store %"class.xalanc_1_10::ElemAttributeSet"* %this, %"class.xalanc_1_10::ElemAttributeSet"** %this.addr, align 8
  call void @llvm.dbg.declare(metadata %"class.xalanc_1_10::ElemAttributeSet"** %this.addr, metadata !3535, metadata !DIExpression()), !dbg !3536
  %this1 = load %"class.xalanc_1_10::ElemAttributeSet"*, %"class.xalanc_1_10::ElemAttributeSet"** %this.addr, align 8
  call void @_ZN11xalanc_1_1016ElemAttributeSetD1Ev(%"class.xalanc_1_10::ElemAttributeSet"* %this1) #6, !dbg !3537
  %0 = bitcast %"class.xalanc_1_10::ElemAttributeSet"* %this1 to i8*, !dbg !3537
  call void @_ZdlPv(i8* %0) #7, !dbg !3537
  ret void, !dbg !3538
}

; Function Attrs: noinline nounwind uwtable
define dso_local dereferenceable(40) %"class.xalanc_1_10::XalanDOMString"* @_ZNK11xalanc_1_1016ElemAttributeSet14getElementNameEv(%"class.xalanc_1_10::ElemAttributeSet"* %this) unnamed_addr #1 align 2 !dbg !3539 {
entry:
  %this.addr = alloca %"class.xalanc_1_10::ElemAttributeSet"*, align 8
  store %"class.xalanc_1_10::ElemAttributeSet"* %this, %"class.xalanc_1_10::ElemAttributeSet"** %this.addr, align 8
  call void @llvm.dbg.declare(metadata %"class.xalanc_1_10::ElemAttributeSet"** %this.addr, metadata !3540, metadata !DIExpression()), !dbg !3542
  %this1 = load %"class.xalanc_1_10::ElemAttributeSet"*, %"class.xalanc_1_10::ElemAttributeSet"** %this.addr, align 8
  %0 = load %"class.xalanc_1_10::XalanDOMString"*, %"class.xalanc_1_10::XalanDOMString"** @_ZN11xalanc_1_109Constants40ELEMNAME_ATTRIBUTESET_WITH_PREFIX_STRINGE, align 8, !dbg !3543
  ret %"class.xalanc_1_10::XalanDOMString"* %0, !dbg !3544
}

; Function Attrs: noinline uwtable
define dso_local %"class.xalanc_1_10::ElemTemplateElement"* @_ZNK11xalanc_1_1016ElemAttributeSet12startElementERNS_26StylesheetExecutionContextE(%"class.xalanc_1_10::ElemAttributeSet"* %this, %"class.xalanc_1_10::StylesheetExecutionContext"* dereferenceable(24) %executionContext) unnamed_addr #3 align 2 !dbg !3545 {
entry:
  %this.addr = alloca %"class.xalanc_1_10::ElemAttributeSet"*, align 8
  %executionContext.addr = alloca %"class.xalanc_1_10::StylesheetExecutionContext"*, align 8
  store %"class.xalanc_1_10::ElemAttributeSet"* %this, %"class.xalanc_1_10::ElemAttributeSet"** %this.addr, align 8
  call void @llvm.dbg.declare(metadata %"class.xalanc_1_10::ElemAttributeSet"** %this.addr, metadata !3546, metadata !DIExpression()), !dbg !3547
  store %"class.xalanc_1_10::StylesheetExecutionContext"* %executionContext, %"class.xalanc_1_10::StylesheetExecutionContext"** %executionContext.addr, align 8
  call void @llvm.dbg.declare(metadata %"class.xalanc_1_10::StylesheetExecutionContext"** %executionContext.addr, metadata !3548, metadata !DIExpression()), !dbg !3549
  %this1 = load %"class.xalanc_1_10::ElemAttributeSet"*, %"class.xalanc_1_10::ElemAttributeSet"** %this.addr, align 8
  %0 = bitcast %"class.xalanc_1_10::ElemAttributeSet"* %this1 to %"class.xalanc_1_10::ElemUse"*, !dbg !3550
  %1 = load %"class.xalanc_1_10::StylesheetExecutionContext"*, %"class.xalanc_1_10::StylesheetExecutionContext"** %executionContext.addr, align 8, !dbg !3551
  %call = call %"class.xalanc_1_10::ElemTemplateElement"* @_ZNK11xalanc_1_107ElemUse12startElementERNS_26StylesheetExecutionContextE(%"class.xalanc_1_10::ElemUse"* %0, %"class.xalanc_1_10::StylesheetExecutionContext"* dereferenceable(24) %1), !dbg !3550
  %2 = load %"class.xalanc_1_10::StylesheetExecutionContext"*, %"class.xalanc_1_10::StylesheetExecutionContext"** %executionContext.addr, align 8, !dbg !3552
  %3 = load %"class.xalanc_1_10::StylesheetExecutionContext"*, %"class.xalanc_1_10::StylesheetExecutionContext"** %executionContext.addr, align 8, !dbg !3553
  %4 = bitcast %"class.xalanc_1_10::StylesheetExecutionContext"* %3 to i32 (%"class.xalanc_1_10::StylesheetExecutionContext"*)***, !dbg !3554
  %vtable = load i32 (%"class.xalanc_1_10::StylesheetExecutionContext"*)**, i32 (%"class.xalanc_1_10::StylesheetExecutionContext"*)*** %4, align 8, !dbg !3554
  %vfn = getelementptr inbounds i32 (%"class.xalanc_1_10::StylesheetExecutionContext"*)*, i32 (%"class.xalanc_1_10::StylesheetExecutionContext"*)** %vtable, i64 95, !dbg !3554
  %5 = load i32 (%"class.xalanc_1_10::StylesheetExecutionContext"*)*, i32 (%"class.xalanc_1_10::StylesheetExecutionContext"*)** %vfn, align 8, !dbg !3554
  %call2 = call i32 %5(%"class.xalanc_1_10::StylesheetExecutionContext"* %3), !dbg !3554
  %6 = bitcast %"class.xalanc_1_10::StylesheetExecutionContext"* %2 to void (%"class.xalanc_1_10::StylesheetExecutionContext"*, i32)***, !dbg !3555
  %vtable3 = load void (%"class.xalanc_1_10::StylesheetExecutionContext"*, i32)**, void (%"class.xalanc_1_10::StylesheetExecutionContext"*, i32)*** %6, align 8, !dbg !3555
  %vfn4 = getelementptr inbounds void (%"class.xalanc_1_10::StylesheetExecutionContext"*, i32)*, void (%"class.xalanc_1_10::StylesheetExecutionContext"*, i32)** %vtable3, i64 97, !dbg !3555
  %7 = load void (%"class.xalanc_1_10::StylesheetExecutionContext"*, i32)*, void (%"class.xalanc_1_10::StylesheetExecutionContext"*, i32)** %vfn4, align 8, !dbg !3555
  call void %7(%"class.xalanc_1_10::StylesheetExecutionContext"* %2, i32 %call2), !dbg !3555
  %8 = load %"class.xalanc_1_10::StylesheetExecutionContext"*, %"class.xalanc_1_10::StylesheetExecutionContext"** %executionContext.addr, align 8, !dbg !3556
  %9 = bitcast %"class.xalanc_1_10::ElemAttributeSet"* %this1 to %"class.xalanc_1_10::ElemTemplateElement"*, !dbg !3557
  %10 = bitcast %"class.xalanc_1_10::StylesheetExecutionContext"* %8 to void (%"class.xalanc_1_10::StylesheetExecutionContext"*, %"class.xalanc_1_10::ElemTemplateElement"*)***, !dbg !3558
  %vtable5 = load void (%"class.xalanc_1_10::StylesheetExecutionContext"*, %"class.xalanc_1_10::ElemTemplateElement"*)**, void (%"class.xalanc_1_10::StylesheetExecutionContext"*, %"class.xalanc_1_10::ElemTemplateElement"*)*** %10, align 8, !dbg !3558
  %vfn6 = getelementptr inbounds void (%"class.xalanc_1_10::StylesheetExecutionContext"*, %"class.xalanc_1_10::ElemTemplateElement"*)*, void (%"class.xalanc_1_10::StylesheetExecutionContext"*, %"class.xalanc_1_10::ElemTemplateElement"*)** %vtable5, i64 119, !dbg !3558
  %11 = load void (%"class.xalanc_1_10::StylesheetExecutionContext"*, %"class.xalanc_1_10::ElemTemplateElement"*)*, void (%"class.xalanc_1_10::StylesheetExecutionContext"*, %"class.xalanc_1_10::ElemTemplateElement"*)** %vfn6, align 8, !dbg !3558
  call void %11(%"class.xalanc_1_10::StylesheetExecutionContext"* %8, %"class.xalanc_1_10::ElemTemplateElement"* %9), !dbg !3558
  %12 = bitcast %"class.xalanc_1_10::ElemAttributeSet"* %this1 to %"class.xalanc_1_10::ElemUse"*, !dbg !3559
  %13 = load %"class.xalanc_1_10::StylesheetExecutionContext"*, %"class.xalanc_1_10::StylesheetExecutionContext"** %executionContext.addr, align 8, !dbg !3560
  %14 = bitcast %"class.xalanc_1_10::ElemUse"* %12 to %"class.xalanc_1_10::ElemTemplateElement"* (%"class.xalanc_1_10::ElemUse"*, %"class.xalanc_1_10::StylesheetExecutionContext"*)***, !dbg !3559
  %vtable7 = load %"class.xalanc_1_10::ElemTemplateElement"* (%"class.xalanc_1_10::ElemUse"*, %"class.xalanc_1_10::StylesheetExecutionContext"*)**, %"class.xalanc_1_10::ElemTemplateElement"* (%"class.xalanc_1_10::ElemUse"*, %"class.xalanc_1_10::StylesheetExecutionContext"*)*** %14, align 8, !dbg !3559
  %vfn8 = getelementptr inbounds %"class.xalanc_1_10::ElemTemplateElement"* (%"class.xalanc_1_10::ElemUse"*, %"class.xalanc_1_10::StylesheetExecutionContext"*)*, %"class.xalanc_1_10::ElemTemplateElement"* (%"class.xalanc_1_10::ElemUse"*, %"class.xalanc_1_10::StylesheetExecutionContext"*)** %vtable7, i64 25, !dbg !3559
  %15 = load %"class.xalanc_1_10::ElemTemplateElement"* (%"class.xalanc_1_10::ElemUse"*, %"class.xalanc_1_10::StylesheetExecutionContext"*)*, %"class.xalanc_1_10::ElemTemplateElement"* (%"class.xalanc_1_10::ElemUse"*, %"class.xalanc_1_10::StylesheetExecutionContext"*)** %vfn8, align 8, !dbg !3559
  %call9 = call %"class.xalanc_1_10::ElemTemplateElement"* %15(%"class.xalanc_1_10::ElemUse"* %12, %"class.xalanc_1_10::StylesheetExecutionContext"* dereferenceable(24) %13), !dbg !3559
  ret %"class.xalanc_1_10::ElemTemplateElement"* %call9, !dbg !3561
}

declare dso_local %"class.xalanc_1_10::ElemTemplateElement"* @_ZNK11xalanc_1_107ElemUse12startElementERNS_26StylesheetExecutionContextE(%"class.xalanc_1_10::ElemUse"*, %"class.xalanc_1_10::StylesheetExecutionContext"* dereferenceable(24)) unnamed_addr #4

; Function Attrs: noinline uwtable
define dso_local void @_ZNK11xalanc_1_1016ElemAttributeSet10endElementERNS_26StylesheetExecutionContextE(%"class.xalanc_1_10::ElemAttributeSet"* %this, %"class.xalanc_1_10::StylesheetExecutionContext"* dereferenceable(24) %executionContext) unnamed_addr #3 align 2 !dbg !3562 {
entry:
  %this.addr = alloca %"class.xalanc_1_10::ElemAttributeSet"*, align 8
  %executionContext.addr = alloca %"class.xalanc_1_10::StylesheetExecutionContext"*, align 8
  store %"class.xalanc_1_10::ElemAttributeSet"* %this, %"class.xalanc_1_10::ElemAttributeSet"** %this.addr, align 8
  call void @llvm.dbg.declare(metadata %"class.xalanc_1_10::ElemAttributeSet"** %this.addr, metadata !3563, metadata !DIExpression()), !dbg !3564
  store %"class.xalanc_1_10::StylesheetExecutionContext"* %executionContext, %"class.xalanc_1_10::StylesheetExecutionContext"** %executionContext.addr, align 8
  call void @llvm.dbg.declare(metadata %"class.xalanc_1_10::StylesheetExecutionContext"** %executionContext.addr, metadata !3565, metadata !DIExpression()), !dbg !3566
  %this1 = load %"class.xalanc_1_10::ElemAttributeSet"*, %"class.xalanc_1_10::ElemAttributeSet"** %this.addr, align 8
  %0 = load %"class.xalanc_1_10::StylesheetExecutionContext"*, %"class.xalanc_1_10::StylesheetExecutionContext"** %executionContext.addr, align 8, !dbg !3567
  %1 = bitcast %"class.xalanc_1_10::StylesheetExecutionContext"* %0 to %"class.xalanc_1_10::ElemTemplateElement"* (%"class.xalanc_1_10::StylesheetExecutionContext"*)***, !dbg !3568
  %vtable = load %"class.xalanc_1_10::ElemTemplateElement"* (%"class.xalanc_1_10::StylesheetExecutionContext"*)**, %"class.xalanc_1_10::ElemTemplateElement"* (%"class.xalanc_1_10::StylesheetExecutionContext"*)*** %1, align 8, !dbg !3568
  %vfn = getelementptr inbounds %"class.xalanc_1_10::ElemTemplateElement"* (%"class.xalanc_1_10::StylesheetExecutionContext"*)*, %"class.xalanc_1_10::ElemTemplateElement"* (%"class.xalanc_1_10::StylesheetExecutionContext"*)** %vtable, i64 120, !dbg !3568
  %2 = load %"class.xalanc_1_10::ElemTemplateElement"* (%"class.xalanc_1_10::StylesheetExecutionContext"*)*, %"class.xalanc_1_10::ElemTemplateElement"* (%"class.xalanc_1_10::StylesheetExecutionContext"*)** %vfn, align 8, !dbg !3568
  %call = call %"class.xalanc_1_10::ElemTemplateElement"* %2(%"class.xalanc_1_10::StylesheetExecutionContext"* %0), !dbg !3568
  %3 = load %"class.xalanc_1_10::StylesheetExecutionContext"*, %"class.xalanc_1_10::StylesheetExecutionContext"** %executionContext.addr, align 8, !dbg !3569
  %4 = bitcast %"class.xalanc_1_10::StylesheetExecutionContext"* %3 to void (%"class.xalanc_1_10::StylesheetExecutionContext"*)***, !dbg !3570
  %vtable2 = load void (%"class.xalanc_1_10::StylesheetExecutionContext"*)**, void (%"class.xalanc_1_10::StylesheetExecutionContext"*)*** %4, align 8, !dbg !3570
  %vfn3 = getelementptr inbounds void (%"class.xalanc_1_10::StylesheetExecutionContext"*)*, void (%"class.xalanc_1_10::StylesheetExecutionContext"*)** %vtable2, i64 98, !dbg !3570
  %5 = load void (%"class.xalanc_1_10::StylesheetExecutionContext"*)*, void (%"class.xalanc_1_10::StylesheetExecutionContext"*)** %vfn3, align 8, !dbg !3570
  call void %5(%"class.xalanc_1_10::StylesheetExecutionContext"* %3), !dbg !3570
  %6 = bitcast %"class.xalanc_1_10::ElemAttributeSet"* %this1 to %"class.xalanc_1_10::ElemUse"*, !dbg !3571
  %7 = load %"class.xalanc_1_10::StylesheetExecutionContext"*, %"class.xalanc_1_10::StylesheetExecutionContext"** %executionContext.addr, align 8, !dbg !3572
  call void @_ZNK11xalanc_1_107ElemUse10endElementERNS_26StylesheetExecutionContextE(%"class.xalanc_1_10::ElemUse"* %6, %"class.xalanc_1_10::StylesheetExecutionContext"* dereferenceable(24) %7), !dbg !3571
  ret void, !dbg !3573
}

declare dso_local void @_ZNK11xalanc_1_107ElemUse10endElementERNS_26StylesheetExecutionContextE(%"class.xalanc_1_10::ElemUse"*, %"class.xalanc_1_10::StylesheetExecutionContext"* dereferenceable(24)) unnamed_addr #4

; Function Attrs: noinline uwtable
define dso_local %"class.xalanc_1_10::ElemTemplateElement"* @_ZNK11xalanc_1_1016ElemAttributeSet10getInvokerERNS_26StylesheetExecutionContextE(%"class.xalanc_1_10::ElemAttributeSet"* %this, %"class.xalanc_1_10::StylesheetExecutionContext"* dereferenceable(24) %executionContext) unnamed_addr #3 align 2 !dbg !3574 {
entry:
  %this.addr = alloca %"class.xalanc_1_10::ElemAttributeSet"*, align 8
  %executionContext.addr = alloca %"class.xalanc_1_10::StylesheetExecutionContext"*, align 8
  store %"class.xalanc_1_10::ElemAttributeSet"* %this, %"class.xalanc_1_10::ElemAttributeSet"** %this.addr, align 8
  call void @llvm.dbg.declare(metadata %"class.xalanc_1_10::ElemAttributeSet"** %this.addr, metadata !3575, metadata !DIExpression()), !dbg !3576
  store %"class.xalanc_1_10::StylesheetExecutionContext"* %executionContext, %"class.xalanc_1_10::StylesheetExecutionContext"** %executionContext.addr, align 8
  call void @llvm.dbg.declare(metadata %"class.xalanc_1_10::StylesheetExecutionContext"** %executionContext.addr, metadata !3577, metadata !DIExpression()), !dbg !3578
  %this1 = load %"class.xalanc_1_10::ElemAttributeSet"*, %"class.xalanc_1_10::ElemAttributeSet"** %this.addr, align 8
  %0 = load %"class.xalanc_1_10::StylesheetExecutionContext"*, %"class.xalanc_1_10::StylesheetExecutionContext"** %executionContext.addr, align 8, !dbg !3579
  %1 = bitcast %"class.xalanc_1_10::StylesheetExecutionContext"* %0 to %"class.xalanc_1_10::ElemTemplateElement"* (%"class.xalanc_1_10::StylesheetExecutionContext"*)***, !dbg !3580
  %vtable = load %"class.xalanc_1_10::ElemTemplateElement"* (%"class.xalanc_1_10::StylesheetExecutionContext"*)**, %"class.xalanc_1_10::ElemTemplateElement"* (%"class.xalanc_1_10::StylesheetExecutionContext"*)*** %1, align 8, !dbg !3580
  %vfn = getelementptr inbounds %"class.xalanc_1_10::ElemTemplateElement"* (%"class.xalanc_1_10::StylesheetExecutionContext"*)*, %"class.xalanc_1_10::ElemTemplateElement"* (%"class.xalanc_1_10::StylesheetExecutionContext"*)** %vtable, i64 136, !dbg !3580
  %2 = load %"class.xalanc_1_10::ElemTemplateElement"* (%"class.xalanc_1_10::StylesheetExecutionContext"*)*, %"class.xalanc_1_10::ElemTemplateElement"* (%"class.xalanc_1_10::StylesheetExecutionContext"*)** %vfn, align 8, !dbg !3580
  %call = call %"class.xalanc_1_10::ElemTemplateElement"* %2(%"class.xalanc_1_10::StylesheetExecutionContext"* %0), !dbg !3580
  ret %"class.xalanc_1_10::ElemTemplateElement"* %call, !dbg !3581
}

; Function Attrs: noinline uwtable
define dso_local void @_ZN11xalanc_1_1016ElemAttributeSet15addToStylesheetERNS_29StylesheetConstructionContextERNS_10StylesheetE(%"class.xalanc_1_10::ElemAttributeSet"* %this, %"class.xalanc_1_10::StylesheetConstructionContext"* dereferenceable(16) %0, %"class.xalanc_1_10::Stylesheet"* dereferenceable(1504) %theStylesheet) unnamed_addr #3 align 2 !dbg !3582 {
entry:
  %this.addr = alloca %"class.xalanc_1_10::ElemAttributeSet"*, align 8
  %.addr = alloca %"class.xalanc_1_10::StylesheetConstructionContext"*, align 8
  %theStylesheet.addr = alloca %"class.xalanc_1_10::Stylesheet"*, align 8
  store %"class.xalanc_1_10::ElemAttributeSet"* %this, %"class.xalanc_1_10::ElemAttributeSet"** %this.addr, align 8
  call void @llvm.dbg.declare(metadata %"class.xalanc_1_10::ElemAttributeSet"** %this.addr, metadata !3583, metadata !DIExpression()), !dbg !3584
  store %"class.xalanc_1_10::StylesheetConstructionContext"* %0, %"class.xalanc_1_10::StylesheetConstructionContext"** %.addr, align 8
  call void @llvm.dbg.declare(metadata %"class.xalanc_1_10::StylesheetConstructionContext"** %.addr, metadata !3585, metadata !DIExpression()), !dbg !3586
  store %"class.xalanc_1_10::Stylesheet"* %theStylesheet, %"class.xalanc_1_10::Stylesheet"** %theStylesheet.addr, align 8
  call void @llvm.dbg.declare(metadata %"class.xalanc_1_10::Stylesheet"** %theStylesheet.addr, metadata !3587, metadata !DIExpression()), !dbg !3588
  %this1 = load %"class.xalanc_1_10::ElemAttributeSet"*, %"class.xalanc_1_10::ElemAttributeSet"** %this.addr, align 8
  %1 = load %"class.xalanc_1_10::Stylesheet"*, %"class.xalanc_1_10::Stylesheet"** %theStylesheet.addr, align 8, !dbg !3589
  %call = call dereferenceable(2064) %"class.xalanc_1_10::StylesheetRoot"* @_ZN11xalanc_1_1010Stylesheet17getStylesheetRootEv(%"class.xalanc_1_10::Stylesheet"* %1), !dbg !3590
  call void @_ZN11xalanc_1_1014StylesheetRoot15addAttributeSetERNS_16ElemAttributeSetE(%"class.xalanc_1_10::StylesheetRoot"* %call, %"class.xalanc_1_10::ElemAttributeSet"* dereferenceable(352) %this1), !dbg !3591
  ret void, !dbg !3592
}

; Function Attrs: noinline nounwind uwtable
define linkonce_odr dso_local dereferenceable(2064) %"class.xalanc_1_10::StylesheetRoot"* @_ZN11xalanc_1_1010Stylesheet17getStylesheetRootEv(%"class.xalanc_1_10::Stylesheet"* %this) #1 comdat align 2 !dbg !3593 {
entry:
  %this.addr = alloca %"class.xalanc_1_10::Stylesheet"*, align 8
  store %"class.xalanc_1_10::Stylesheet"* %this, %"class.xalanc_1_10::Stylesheet"** %this.addr, align 8
  call void @llvm.dbg.declare(metadata %"class.xalanc_1_10::Stylesheet"** %this.addr, metadata !3600, metadata !DIExpression()), !dbg !3601
  %this1 = load %"class.xalanc_1_10::Stylesheet"*, %"class.xalanc_1_10::Stylesheet"** %this.addr, align 8
  %m_stylesheetRoot = getelementptr inbounds %"class.xalanc_1_10::Stylesheet", %"class.xalanc_1_10::Stylesheet"* %this1, i32 0, i32 1, !dbg !3602
  %0 = load %"class.xalanc_1_10::StylesheetRoot"*, %"class.xalanc_1_10::StylesheetRoot"** %m_stylesheetRoot, align 8, !dbg !3602
  ret %"class.xalanc_1_10::StylesheetRoot"* %0, !dbg !3603
}

declare dso_local void @_ZN11xalanc_1_1014StylesheetRoot15addAttributeSetERNS_16ElemAttributeSetE(%"class.xalanc_1_10::StylesheetRoot"*, %"class.xalanc_1_10::ElemAttributeSet"* dereferenceable(352)) #4

; Function Attrs: noinline nounwind uwtable
define dso_local zeroext i1 @_ZNK11xalanc_1_1016ElemAttributeSet16childTypeAllowedEi(%"class.xalanc_1_10::ElemAttributeSet"* %this, i32 %xslToken) unnamed_addr #1 align 2 !dbg !3604 {
entry:
  %this.addr = alloca %"class.xalanc_1_10::ElemAttributeSet"*, align 8
  %xslToken.addr = alloca i32, align 4
  %fResult = alloca i8, align 1
  store %"class.xalanc_1_10::ElemAttributeSet"* %this, %"class.xalanc_1_10::ElemAttributeSet"** %this.addr, align 8
  call void @llvm.dbg.declare(metadata %"class.xalanc_1_10::ElemAttributeSet"** %this.addr, metadata !3605, metadata !DIExpression()), !dbg !3606
  store i32 %xslToken, i32* %xslToken.addr, align 4
  call void @llvm.dbg.declare(metadata i32* %xslToken.addr, metadata !3607, metadata !DIExpression()), !dbg !3608
  %this1 = load %"class.xalanc_1_10::ElemAttributeSet"*, %"class.xalanc_1_10::ElemAttributeSet"** %this.addr, align 8
  call void @llvm.dbg.declare(metadata i8* %fResult, metadata !3609, metadata !DIExpression()), !dbg !3610
  store i8 0, i8* %fResult, align 1, !dbg !3610
  %0 = load i32, i32* %xslToken.addr, align 4, !dbg !3611
  switch i32 %0, label %sw.default [
    i32 6, label %sw.bb
  ], !dbg !3612

sw.bb:                                            ; preds = %entry
  store i8 1, i8* %fResult, align 1, !dbg !3613
  br label %sw.epilog, !dbg !3615

sw.default:                                       ; preds = %entry
  br label %sw.epilog, !dbg !3616

sw.epilog:                                        ; preds = %sw.default, %sw.bb
  %1 = load i8, i8* %fResult, align 1, !dbg !3617
  %tobool = trunc i8 %1 to i1, !dbg !3617
  ret i1 %tobool, !dbg !3618
}

declare dso_local %"class.xalanc_1_10::XalanDOMString"* @_ZNK11xalanc_1_1019ElemTemplateElement21getNamespaceForPrefixERKNS_14XalanDOMStringE(%"class.xalanc_1_10::ElemTemplateElement"*, %"class.xalanc_1_10::XalanDOMString"* dereferenceable(40)) unnamed_addr #4

declare dso_local dereferenceable(40) %"class.xalanc_1_10::XalanDOMString"* @_ZNK11xalanc_1_1019ElemTemplateElement6getURIEv(%"class.xalanc_1_10::ElemTemplateElement"*) unnamed_addr #4

declare dso_local %"class.xercesc_2_7::Locator"* @_ZNK11xalanc_1_1019ElemTemplateElement10getLocatorEv(%"class.xalanc_1_10::ElemTemplateElement"*) unnamed_addr #4

declare dso_local zeroext i1 @_ZNK11xalanc_1_1019ElemTemplateElement8isAttrOKEPKtRKN11xercesc_2_713AttributeListEiRNS_29StylesheetConstructionContextE(%"class.xalanc_1_10::ElemTemplateElement"*, i16*, %"class.xercesc_2_7::AttributeList"* dereferenceable(8), i32, %"class.xalanc_1_10::StylesheetConstructionContext"* dereferenceable(16)) unnamed_addr #4

declare dso_local void @_ZNK11xalanc_1_1019ElemTemplateElement7executeERNS_26StylesheetExecutionContextE(%"class.xalanc_1_10::ElemTemplateElement"*, %"class.xalanc_1_10::StylesheetExecutionContext"* dereferenceable(24)) unnamed_addr #4

declare dso_local void @_ZNK11xalanc_1_1019ElemTemplateElement15executeChildrenERNS_26StylesheetExecutionContextE(%"class.xalanc_1_10::ElemTemplateElement"*, %"class.xalanc_1_10::StylesheetExecutionContext"* dereferenceable(24)) unnamed_addr #4

declare dso_local zeroext i1 @_ZNK11xalanc_1_1019ElemTemplateElement12isWhitespaceEv(%"class.xalanc_1_10::ElemTemplateElement"*) unnamed_addr #4

declare dso_local dereferenceable(8) %"class.xalanc_1_10::XalanQName"* @_ZNK11xalanc_1_1019ElemTemplateElement16getNameAttributeEv(%"class.xalanc_1_10::ElemTemplateElement"*) unnamed_addr #4

declare dso_local void @_ZN11xalanc_1_1019ElemTemplateElement18processSortElementERNS_29StylesheetConstructionContextERNS_10StylesheetERKN11xercesc_2_713AttributeListEPKNS5_7LocatorE(%"class.xalanc_1_10::ElemTemplateElement"*, %"class.xalanc_1_10::StylesheetConstructionContext"* dereferenceable(16), %"class.xalanc_1_10::Stylesheet"* dereferenceable(1504), %"class.xercesc_2_7::AttributeList"* dereferenceable(8), %"class.xercesc_2_7::Locator"*) unnamed_addr #4

declare dso_local void @_ZN11xalanc_1_1019ElemTemplateElement18setDefaultTemplateEb(%"class.xalanc_1_10::ElemTemplateElement"*, i1 zeroext) unnamed_addr #4

declare dso_local void @_ZN11xalanc_1_107ElemUse16postConstructionERNS_29StylesheetConstructionContextERKNS_17NamespacesHandlerE(%"class.xalanc_1_10::ElemUse"*, %"class.xalanc_1_10::StylesheetConstructionContext"* dereferenceable(16), %"class.xalanc_1_10::NamespacesHandler"* dereferenceable(232)) unnamed_addr #4

declare dso_local %"class.xalanc_1_10::ElemTemplateElement"* @_ZNK11xalanc_1_1019ElemTemplateElement17getFirstChildElemEv(%"class.xalanc_1_10::ElemTemplateElement"*) unnamed_addr #4

declare dso_local %"class.xalanc_1_10::ElemTemplateElement"* @_ZNK11xalanc_1_1019ElemTemplateElement20beginExecuteChildrenERNS_26StylesheetExecutionContextE(%"class.xalanc_1_10::ElemTemplateElement"*, %"class.xalanc_1_10::StylesheetExecutionContext"* dereferenceable(24)) unnamed_addr #4

declare dso_local void @_ZNK11xalanc_1_1019ElemTemplateElement18endExecuteChildrenERNS_26StylesheetExecutionContextE(%"class.xalanc_1_10::ElemTemplateElement"*, %"class.xalanc_1_10::StylesheetExecutionContext"* dereferenceable(24)) unnamed_addr #4

declare dso_local void @_ZN11xalanc_1_1019ElemTemplateElement17setFirstChildElemEPS0_(%"class.xalanc_1_10::ElemTemplateElement"*, %"class.xalanc_1_10::ElemTemplateElement"*) unnamed_addr #4

declare dso_local %"class.xalanc_1_10::ElemTemplateElement"* @_ZNK11xalanc_1_1019ElemTemplateElement16getLastChildElemEv(%"class.xalanc_1_10::ElemTemplateElement"*) unnamed_addr #4

declare dso_local %"class.xalanc_1_10::ElemTemplateElement"* @_ZNK11xalanc_1_1019ElemTemplateElement18getNextSiblingElemEv(%"class.xalanc_1_10::ElemTemplateElement"*) unnamed_addr #4

declare dso_local %"class.xalanc_1_10::ElemTemplateElement"* @_ZNK11xalanc_1_107ElemUse25getNextChildElemToExecuteERNS_26StylesheetExecutionContextEPKNS_19ElemTemplateElementE(%"class.xalanc_1_10::ElemUse"*, %"class.xalanc_1_10::StylesheetExecutionContext"* dereferenceable(24), %"class.xalanc_1_10::ElemTemplateElement"*) unnamed_addr #4

declare dso_local %"class.xalanc_1_10::ElemTemplateElement"* @_ZNK11xalanc_1_107ElemUse26getFirstChildElemToExecuteERNS_26StylesheetExecutionContextE(%"class.xalanc_1_10::ElemUse"*, %"class.xalanc_1_10::StylesheetExecutionContext"* dereferenceable(24)) unnamed_addr #4

declare dso_local zeroext i1 @_ZNK11xalanc_1_1019ElemTemplateElement19executeChildElementERNS_26StylesheetExecutionContextEPKS0_(%"class.xalanc_1_10::ElemTemplateElement"*, %"class.xalanc_1_10::StylesheetExecutionContext"* dereferenceable(24), %"class.xalanc_1_10::ElemTemplateElement"*) unnamed_addr #4

declare dso_local void @_ZN11xalanc_1_1019ElemTemplateElement18setNextSiblingElemEPS0_(%"class.xalanc_1_10::ElemTemplateElement"*, %"class.xalanc_1_10::ElemTemplateElement"*) unnamed_addr #4

declare dso_local %"class.xalanc_1_10::ElemTemplateElement"* @_ZNK11xalanc_1_1019ElemTemplateElement22getPreviousSiblingElemEv(%"class.xalanc_1_10::ElemTemplateElement"*) unnamed_addr #4

declare dso_local void @_ZN11xalanc_1_1019ElemTemplateElement22setPreviousSiblingElemEPS0_(%"class.xalanc_1_10::ElemTemplateElement"*, %"class.xalanc_1_10::ElemTemplateElement"*) unnamed_addr #4

declare dso_local %"class.xalanc_1_10::ElemTemplateElement"* @_ZNK11xalanc_1_1019ElemTemplateElement17getParentNodeElemEv(%"class.xalanc_1_10::ElemTemplateElement"*) unnamed_addr #4

declare dso_local void @_ZN11xalanc_1_1019ElemTemplateElement17setParentNodeElemEPS0_(%"class.xalanc_1_10::ElemTemplateElement"*, %"class.xalanc_1_10::ElemTemplateElement"*) unnamed_addr #4

declare dso_local %"class.xalanc_1_10::ElemTemplateElement"* @_ZN11xalanc_1_1019ElemTemplateElement15appendChildElemEPS0_(%"class.xalanc_1_10::ElemTemplateElement"*, %"class.xalanc_1_10::ElemTemplateElement"*) unnamed_addr #4

declare dso_local %"class.xalanc_1_10::XPath"* @_ZNK11xalanc_1_1019ElemTemplateElement8getXPathEj(%"class.xalanc_1_10::ElemTemplateElement"*, i32) unnamed_addr #4

declare dso_local %"class.xalanc_1_10::ElemTemplateElement"* @_ZNK11xalanc_1_1019ElemTemplateElement28findTemplateToTransformChildERNS_26StylesheetExecutionContextERKS0_PS3_PNS_9XalanNodeE(%"class.xalanc_1_10::ElemTemplateElement"*, %"class.xalanc_1_10::StylesheetExecutionContext"* dereferenceable(24), %"class.xalanc_1_10::ElemTemplateElement"* dereferenceable(328), %"class.xalanc_1_10::ElemTemplateElement"*, %"class.xalanc_1_10::XalanNode"*) unnamed_addr #4

declare dso_local %"class.xalanc_1_10::ElemTemplateElement"* @_ZNK11xalanc_1_1019ElemTemplateElement28findTemplateToTransformChildERNS_26StylesheetExecutionContextERKS0_PS3_PNS_9XalanNodeENS6_8NodeTypeE(%"class.xalanc_1_10::ElemTemplateElement"*, %"class.xalanc_1_10::StylesheetExecutionContext"* dereferenceable(24), %"class.xalanc_1_10::ElemTemplateElement"* dereferenceable(328), %"class.xalanc_1_10::ElemTemplateElement"*, %"class.xalanc_1_10::XalanNode"*, i32) unnamed_addr #4

declare dso_local void @_ZN11xalanc_1_1019ElemTemplateElement26namespacesPostConstructionERNS_29StylesheetConstructionContextERKNS_17NamespacesHandlerERS3_(%"class.xalanc_1_10::ElemTemplateElement"*, %"class.xalanc_1_10::StylesheetConstructionContext"* dereferenceable(16), %"class.xalanc_1_10::NamespacesHandler"* dereferenceable(232), %"class.xalanc_1_10::NamespacesHandler"* dereferenceable(232)) unnamed_addr #4

declare dso_local void @_ZNK11xalanc_1_107ElemUse12evaluateAVTsERNS_26StylesheetExecutionContextE(%"class.xalanc_1_10::ElemUse"*, %"class.xalanc_1_10::StylesheetExecutionContext"* dereferenceable(24)) unnamed_addr #4

; Function Attrs: noinline uwtable
define linkonce_odr dso_local zeroext i1 @_ZN11xalanc_1_10eqERKNS_14XalanDOMStringEPKt(%"class.xalanc_1_10::XalanDOMString"* dereferenceable(40) %theLHS, i16* %theRHS) #3 comdat !dbg !3619 {
entry:
  %theLHS.addr = alloca %"class.xalanc_1_10::XalanDOMString"*, align 8
  %theRHS.addr = alloca i16*, align 8
  store %"class.xalanc_1_10::XalanDOMString"* %theLHS, %"class.xalanc_1_10::XalanDOMString"** %theLHS.addr, align 8
  call void @llvm.dbg.declare(metadata %"class.xalanc_1_10::XalanDOMString"** %theLHS.addr, metadata !3620, metadata !DIExpression()), !dbg !3621
  store i16* %theRHS, i16** %theRHS.addr, align 8
  call void @llvm.dbg.declare(metadata i16** %theRHS.addr, metadata !3622, metadata !DIExpression()), !dbg !3623
  %0 = load %"class.xalanc_1_10::XalanDOMString"*, %"class.xalanc_1_10::XalanDOMString"** %theLHS.addr, align 8, !dbg !3624
  %1 = load i16*, i16** %theRHS.addr, align 8, !dbg !3625
  %call = call zeroext i1 @_ZN11xalanc_1_1014XalanDOMString6equalsERKS0_PKt(%"class.xalanc_1_10::XalanDOMString"* dereferenceable(40) %0, i16* %1), !dbg !3626
  ret i1 %call, !dbg !3627
}

; Function Attrs: noinline uwtable
define linkonce_odr dso_local zeroext i1 @_ZN11xalanc_1_1014XalanDOMString6equalsERKS0_PKt(%"class.xalanc_1_10::XalanDOMString"* dereferenceable(40) %theLHS, i16* %theRHS) #3 comdat align 2 !dbg !3628 {
entry:
  %theLHS.addr = alloca %"class.xalanc_1_10::XalanDOMString"*, align 8
  %theRHS.addr = alloca i16*, align 8
  store %"class.xalanc_1_10::XalanDOMString"* %theLHS, %"class.xalanc_1_10::XalanDOMString"** %theLHS.addr, align 8
  call void @llvm.dbg.declare(metadata %"class.xalanc_1_10::XalanDOMString"** %theLHS.addr, metadata !3629, metadata !DIExpression()), !dbg !3630
  store i16* %theRHS, i16** %theRHS.addr, align 8
  call void @llvm.dbg.declare(metadata i16** %theRHS.addr, metadata !3631, metadata !DIExpression()), !dbg !3632
  %0 = load %"class.xalanc_1_10::XalanDOMString"*, %"class.xalanc_1_10::XalanDOMString"** %theLHS.addr, align 8, !dbg !3633
  %call = call i16* @_ZNK11xalanc_1_1014XalanDOMString5c_strEv(%"class.xalanc_1_10::XalanDOMString"* %0), !dbg !3634
  %1 = load i16*, i16** %theRHS.addr, align 8, !dbg !3635
  %call1 = call zeroext i1 @_ZN11xalanc_1_1014XalanDOMString6equalsEPKtS2_(i16* %call, i16* %1), !dbg !3636
  ret i1 %call1, !dbg !3637
}

; Function Attrs: noinline uwtable
define linkonce_odr dso_local zeroext i1 @_ZN11xalanc_1_1014XalanDOMString6equalsEPKtS2_(i16* %theLHS, i16* %theRHS) #3 comdat align 2 !dbg !3638 {
entry:
  %theLHS.addr = alloca i16*, align 8
  %theRHS.addr = alloca i16*, align 8
  store i16* %theLHS, i16** %theLHS.addr, align 8
  call void @llvm.dbg.declare(metadata i16** %theLHS.addr, metadata !3639, metadata !DIExpression()), !dbg !3640
  store i16* %theRHS, i16** %theRHS.addr, align 8
  call void @llvm.dbg.declare(metadata i16** %theRHS.addr, metadata !3641, metadata !DIExpression()), !dbg !3642
  %0 = load i16*, i16** %theLHS.addr, align 8, !dbg !3643
  %1 = load i16*, i16** %theLHS.addr, align 8, !dbg !3644
  %call = call i32 @_ZN11xalanc_1_1014XalanDOMString6lengthEPKt(i16* %1), !dbg !3645
  %2 = load i16*, i16** %theRHS.addr, align 8, !dbg !3646
  %3 = load i16*, i16** %theRHS.addr, align 8, !dbg !3647
  %call1 = call i32 @_ZN11xalanc_1_1014XalanDOMString6lengthEPKt(i16* %3), !dbg !3648
  %call2 = call zeroext i1 @_ZN11xalanc_1_1014XalanDOMString6equalsEPKtjS2_j(i16* %0, i32 %call, i16* %2, i32 %call1), !dbg !3649
  ret i1 %call2, !dbg !3650
}

declare dso_local zeroext i1 @_ZN11xalanc_1_1014XalanDOMString6equalsEPKtjS2_j(i16*, i32, i16*, i32) #4

declare dso_local i32 @_ZN11xalanc_1_1014XalanDOMString6lengthEPKt(i16*) #4

declare dso_local zeroext i1 @_ZN11xalanc_1_1010XalanQName13isValidNCNameERKNS_14XalanDOMStringE(%"class.xalanc_1_10::XalanDOMString"* dereferenceable(40)) #4

; Function Attrs: noinline nounwind uwtable
define linkonce_odr dso_local void @_ZNK11xalanc_1_1014XalanDOMString10invariantsEv(%"class.xalanc_1_10::XalanDOMString"* %this) #1 comdat align 2 !dbg !3651 {
entry:
  %this.addr = alloca %"class.xalanc_1_10::XalanDOMString"*, align 8
  store %"class.xalanc_1_10::XalanDOMString"* %this, %"class.xalanc_1_10::XalanDOMString"** %this.addr, align 8
  call void @llvm.dbg.declare(metadata %"class.xalanc_1_10::XalanDOMString"** %this.addr, metadata !3652, metadata !DIExpression()), !dbg !3653
  %this1 = load %"class.xalanc_1_10::XalanDOMString"*, %"class.xalanc_1_10::XalanDOMString"** %this.addr, align 8
  ret void, !dbg !3654
}

; Function Attrs: noinline uwtable
define linkonce_odr dso_local zeroext i1 @_ZNK11xalanc_1_1011XalanVectorItNS_31MemoryManagedConstructionTraitsItEEE5emptyEv(%"class.xalanc_1_10::XalanVector"* %this) #3 comdat align 2 !dbg !3655 {
entry:
  %this.addr = alloca %"class.xalanc_1_10::XalanVector"*, align 8
  store %"class.xalanc_1_10::XalanVector"* %this, %"class.xalanc_1_10::XalanVector"** %this.addr, align 8
  call void @llvm.dbg.declare(metadata %"class.xalanc_1_10::XalanVector"** %this.addr, metadata !3656, metadata !DIExpression()), !dbg !3658
  %this1 = load %"class.xalanc_1_10::XalanVector"*, %"class.xalanc_1_10::XalanVector"** %this.addr, align 8
  call void @_ZNK11xalanc_1_1011XalanVectorItNS_31MemoryManagedConstructionTraitsItEEE10invariantsEv(%"class.xalanc_1_10::XalanVector"* %this1), !dbg !3659
  %m_size = getelementptr inbounds %"class.xalanc_1_10::XalanVector", %"class.xalanc_1_10::XalanVector"* %this1, i32 0, i32 1, !dbg !3660
  %0 = load i64, i64* %m_size, align 8, !dbg !3660
  %cmp = icmp eq i64 %0, 0, !dbg !3661
  %1 = zext i1 %cmp to i64, !dbg !3660
  %cond = select i1 %cmp, i1 true, i1 false, !dbg !3660
  ret i1 %cond, !dbg !3662
}

; Function Attrs: noinline nounwind uwtable
define linkonce_odr dso_local dereferenceable(2) i16* @_ZNK11xalanc_1_1011XalanVectorItNS_31MemoryManagedConstructionTraitsItEEEixEm(%"class.xalanc_1_10::XalanVector"* %this, i64 %theIndex) #1 comdat align 2 !dbg !3663 {
entry:
  %this.addr = alloca %"class.xalanc_1_10::XalanVector"*, align 8
  %theIndex.addr = alloca i64, align 8
  store %"class.xalanc_1_10::XalanVector"* %this, %"class.xalanc_1_10::XalanVector"** %this.addr, align 8
  call void @llvm.dbg.declare(metadata %"class.xalanc_1_10::XalanVector"** %this.addr, metadata !3664, metadata !DIExpression()), !dbg !3665
  store i64 %theIndex, i64* %theIndex.addr, align 8
  call void @llvm.dbg.declare(metadata i64* %theIndex.addr, metadata !3666, metadata !DIExpression()), !dbg !3667
  %this1 = load %"class.xalanc_1_10::XalanVector"*, %"class.xalanc_1_10::XalanVector"** %this.addr, align 8
  %m_data = getelementptr inbounds %"class.xalanc_1_10::XalanVector", %"class.xalanc_1_10::XalanVector"* %this1, i32 0, i32 3, !dbg !3668
  %0 = load i16*, i16** %m_data, align 8, !dbg !3668
  %1 = load i64, i64* %theIndex.addr, align 8, !dbg !3669
  %arrayidx = getelementptr inbounds i16, i16* %0, i64 %1, !dbg !3668
  ret i16* %arrayidx, !dbg !3670
}

; Function Attrs: noinline nounwind uwtable
define linkonce_odr dso_local void @_ZNK11xalanc_1_1011XalanVectorItNS_31MemoryManagedConstructionTraitsItEEE10invariantsEv(%"class.xalanc_1_10::XalanVector"* %this) #1 comdat align 2 !dbg !3671 {
entry:
  %this.addr = alloca %"class.xalanc_1_10::XalanVector"*, align 8
  store %"class.xalanc_1_10::XalanVector"* %this, %"class.xalanc_1_10::XalanVector"** %this.addr, align 8
  call void @llvm.dbg.declare(metadata %"class.xalanc_1_10::XalanVector"** %this.addr, metadata !3672, metadata !DIExpression()), !dbg !3673
  %this1 = load %"class.xalanc_1_10::XalanVector"*, %"class.xalanc_1_10::XalanVector"** %this.addr, align 8
  ret void, !dbg !3674
}

attributes #0 = { nounwind readnone speculatable willreturn }
attributes #1 = { noinline nounwind uwtable "correctly-rounded-divide-sqrt-fp-math"="false" "disable-tail-calls"="false" "frame-pointer"="all" "less-precise-fpmad"="false" "min-legal-vector-width"="0" "no-infs-fp-math"="false" "no-jump-tables"="false" "no-nans-fp-math"="false" "no-signed-zeros-fp-math"="false" "no-trapping-math"="false" "stack-protector-buffer-size"="8" "target-cpu"="x86-64" "target-features"="+cx8,+fxsr,+mmx,+sse,+sse2,+x87" "unsafe-fp-math"="false" "use-soft-float"="false" }
attributes #2 = { nobuiltin nounwind "correctly-rounded-divide-sqrt-fp-math"="false" "disable-tail-calls"="false" "frame-pointer"="all" "less-precise-fpmad"="false" "no-infs-fp-math"="false" "no-nans-fp-math"="false" "no-signed-zeros-fp-math"="false" "no-trapping-math"="false" "stack-protector-buffer-size"="8" "target-cpu"="x86-64" "target-features"="+cx8,+fxsr,+mmx,+sse,+sse2,+x87" "unsafe-fp-math"="false" "use-soft-float"="false" }
attributes #3 = { noinline uwtable "correctly-rounded-divide-sqrt-fp-math"="false" "disable-tail-calls"="false" "frame-pointer"="all" "less-precise-fpmad"="false" "min-legal-vector-width"="0" "no-infs-fp-math"="false" "no-jump-tables"="false" "no-nans-fp-math"="false" "no-signed-zeros-fp-math"="false" "no-trapping-math"="false" "stack-protector-buffer-size"="8" "target-cpu"="x86-64" "target-features"="+cx8,+fxsr,+mmx,+sse,+sse2,+x87" "unsafe-fp-math"="false" "use-soft-float"="false" }
attributes #4 = { "correctly-rounded-divide-sqrt-fp-math"="false" "disable-tail-calls"="false" "frame-pointer"="all" "less-precise-fpmad"="false" "no-infs-fp-math"="false" "no-nans-fp-math"="false" "no-signed-zeros-fp-math"="false" "no-trapping-math"="false" "stack-protector-buffer-size"="8" "target-cpu"="x86-64" "target-features"="+cx8,+fxsr,+mmx,+sse,+sse2,+x87" "unsafe-fp-math"="false" "use-soft-float"="false" }
attributes #5 = { nounwind "correctly-rounded-divide-sqrt-fp-math"="false" "disable-tail-calls"="false" "frame-pointer"="all" "less-precise-fpmad"="false" "no-infs-fp-math"="false" "no-nans-fp-math"="false" "no-signed-zeros-fp-math"="false" "no-trapping-math"="false" "stack-protector-buffer-size"="8" "target-cpu"="x86-64" "target-features"="+cx8,+fxsr,+mmx,+sse,+sse2,+x87" "unsafe-fp-math"="false" "use-soft-float"="false" }
attributes #6 = { nounwind }
attributes #7 = { builtin nounwind }

!llvm.dbg.cu = !{!0}
!llvm.module.flags = !{!1495, !1496, !1497}
!llvm.ident = !{!1498}

!0 = distinct !DICompileUnit(language: DW_LANG_C_plus_plus_14, file: !1, producer: "clang version 10.0.1 (https://github.com/svkeerthy/IR2Vec-LoopOptimizationFramework.git 561ac470e63b728263a0ac06ef987886ac648486)", isOptimized: false, runtimeVersion: 0, emissionKind: FullDebug, enums: !2, imports: !251, splitDebugInlining: false, nameTableKind: None)
!1 = !DIFile(filename: "ElemAttributeSet.cpp", directory: "/home/venkat/IF-DV/spec_build_release/CPU_2017/benchspec/CPU/523.xalancbmk_r/build/build_base_ld-loop-ext-m64.0000")
!2 = !{!3, !11, !59}
!3 = !DICompositeType(tag: DW_TAG_enumeration_type, name: "_Lock_policy", scope: !5, file: !4, line: 49, baseType: !6, size: 32, elements: !7, identifier: "_ZTSN9__gnu_cxx12_Lock_policyE")
!4 = !DIFile(filename: "/usr/lib/gcc/x86_64-linux-gnu/10/../../../../include/c++/10/ext/concurrence.h", directory: "")
!5 = !DINamespace(name: "__gnu_cxx", scope: null)
!6 = !DIBasicType(name: "unsigned int", size: 32, encoding: DW_ATE_unsigned)
!7 = !{!8, !9, !10}
!8 = !DIEnumerator(name: "_S_single", value: 0, isUnsigned: true)
!9 = !DIEnumerator(name: "_S_mutex", value: 1, isUnsigned: true)
!10 = !DIEnumerator(name: "_S_atomic", value: 2, isUnsigned: true)
!11 = !DICompositeType(tag: DW_TAG_enumeration_type, name: "eElementToken", scope: !13, file: !12, line: 89, baseType: !15, size: 32, elements: !16, identifier: "_ZTSN11xalanc_1_1029StylesheetConstructionContext13eElementTokenE")
!12 = !DIFile(filename: "./xalanc/XSLT/StylesheetConstructionContext.hpp", directory: "/home/venkat/IF-DV/spec_build_release/CPU_2017/benchspec/CPU/523.xalancbmk_r/build/build_base_ld-loop-ext-m64.0000")
!13 = !DICompositeType(tag: DW_TAG_class_type, name: "StylesheetConstructionContext", scope: !14, file: !12, line: 73, flags: DIFlagFwdDecl)
!14 = !DINamespace(name: "xalanc_1_10", scope: null)
!15 = !DIBasicType(name: "int", size: 32, encoding: DW_ATE_signed)
!16 = !{!17, !18, !19, !20, !21, !22, !23, !24, !25, !26, !27, !28, !29, !30, !31, !32, !33, !34, !35, !36, !37, !38, !39, !40, !41, !42, !43, !44, !45, !46, !47, !48, !49, !50, !51, !52, !53, !54, !55, !56, !57, !58}
!17 = !DIEnumerator(name: "ELEMNAME_UNDEFINED", value: -2)
!18 = !DIEnumerator(name: "ELEMNAME_EMPTY", value: -1)
!19 = !DIEnumerator(name: "ELEMNAME_WITH_PARAM", value: 0)
!20 = !DIEnumerator(name: "ELEMNAME_APPLY_TEMPLATES", value: 1)
!21 = !DIEnumerator(name: "ELEMNAME_CHOOSE", value: 2)
!22 = !DIEnumerator(name: "ELEMNAME_COMMENT", value: 3)
!23 = !DIEnumerator(name: "ELEMNAME_COPY", value: 4)
!24 = !DIEnumerator(name: "ELEMNAME_COPY_OF", value: 5)
!25 = !DIEnumerator(name: "ELEMNAME_ATTRIBUTE", value: 6)
!26 = !DIEnumerator(name: "ELEMNAME_ATTRIBUTE_SET", value: 7)
!27 = !DIEnumerator(name: "ELEMNAME_EXTENSION", value: 8)
!28 = !DIEnumerator(name: "ELEMNAME_FOR_EACH", value: 9)
!29 = !DIEnumerator(name: "ELEMNAME_KEY", value: 10)
!30 = !DIEnumerator(name: "ELEMNAME_IF", value: 11)
!31 = !DIEnumerator(name: "ELEMNAME_IMPORT", value: 12)
!32 = !DIEnumerator(name: "ELEMNAME_INCLUDE", value: 13)
!33 = !DIEnumerator(name: "ELEMNAME_CALL_TEMPLATE", value: 14)
!34 = !DIEnumerator(name: "ELEMNAME_PARAM", value: 15)
!35 = !DIEnumerator(name: "ELEMNAME_NUMBER", value: 16)
!36 = !DIEnumerator(name: "ELEMNAME_OTHERWISE", value: 17)
!37 = !DIEnumerator(name: "ELEMNAME_PI", value: 18)
!38 = !DIEnumerator(name: "ELEMNAME_PRESERVE_SPACE", value: 19)
!39 = !DIEnumerator(name: "ELEMNAME_TEMPLATE", value: 20)
!40 = !DIEnumerator(name: "ELEMNAME_SORT", value: 21)
!41 = !DIEnumerator(name: "ELEMNAME_STRIP_SPACE", value: 22)
!42 = !DIEnumerator(name: "ELEMNAME_STYLESHEET", value: 23)
!43 = !DIEnumerator(name: "ELEMNAME_TEXT", value: 24)
!44 = !DIEnumerator(name: "ELEMNAME_VALUE_OF", value: 25)
!45 = !DIEnumerator(name: "ELEMNAME_WHEN", value: 26)
!46 = !DIEnumerator(name: "ELEMNAME_FALLBACK", value: 27)
!47 = !DIEnumerator(name: "ELEMNAME_ELEMENT", value: 28)
!48 = !DIEnumerator(name: "ELEMNAME_APPLY_IMPORTS", value: 29)
!49 = !DIEnumerator(name: "ELEMNAME_VARIABLE", value: 30)
!50 = !DIEnumerator(name: "ELEMNAME_MESSAGE", value: 31)
!51 = !DIEnumerator(name: "ELEMNAME_OUTPUT", value: 32)
!52 = !DIEnumerator(name: "ELEMNAME_DECIMAL_FORMAT", value: 33)
!53 = !DIEnumerator(name: "ELEMNAME_NAMESPACE_ALIAS", value: 34)
!54 = !DIEnumerator(name: "ELEMNAME_LITERAL_RESULT", value: 35)
!55 = !DIEnumerator(name: "ELEMNAME_TEXT_LITERAL_RESULT", value: 36)
!56 = !DIEnumerator(name: "ELEMNAME_FORWARD_COMPATIBLE", value: 37)
!57 = !DIEnumerator(name: "ELEMNAME_EXTENSION_CALL", value: 38)
!58 = !DIEnumerator(name: "ELEMNAME_EXTENSION_HANDLER", value: 39)
!59 = !DICompositeType(tag: DW_TAG_enumeration_type, name: "Codes", scope: !61, file: !60, line: 36, baseType: !6, size: 32, elements: !63, identifier: "_ZTSN11xalanc_1_1013XalanMessages5CodesE")
!60 = !DIFile(filename: "./LocalMsgIndex.hpp", directory: "/home/venkat/IF-DV/spec_build_release/CPU_2017/benchspec/CPU/523.xalancbmk_r/build/build_base_ld-loop-ext-m64.0000")
!61 = distinct !DICompositeType(tag: DW_TAG_class_type, name: "XalanMessages", scope: !14, file: !60, line: 34, size: 8, flags: DIFlagTypePassByValue, elements: !62, identifier: "_ZTSN11xalanc_1_1013XalanMessagesE")
!62 = !{}
!63 = !{!64, !65, !66, !67, !68, !69, !70, !71, !72, !73, !74, !75, !76, !77, !78, !79, !80, !81, !82, !83, !84, !85, !86, !87, !88, !89, !90, !91, !92, !93, !94, !95, !96, !97, !98, !99, !100, !101, !102, !103, !104, !105, !106, !107, !108, !109, !110, !111, !112, !113, !114, !115, !116, !117, !118, !119, !120, !121, !122, !123, !124, !125, !126, !127, !128, !129, !130, !131, !132, !133, !134, !135, !136, !137, !138, !139, !140, !141, !142, !143, !144, !145, !146, !147, !148, !149, !150, !151, !152, !153, !154, !155, !156, !157, !158, !159, !160, !161, !162, !163, !164, !165, !166, !167, !168, !169, !170, !171, !172, !173, !174, !175, !176, !177, !178, !179, !180, !181, !182, !183, !184, !185, !186, !187, !188, !189, !190, !191, !192, !193, !194, !195, !196, !197, !198, !199, !200, !201, !202, !203, !204, !205, !206, !207, !208, !209, !210, !211, !212, !213, !214, !215, !216, !217, !218, !219, !220, !221, !222, !223, !224, !225, !226, !227, !228, !229, !230, !231, !232, !233, !234, !235, !236, !237, !238, !239, !240, !241, !242, !243, !244, !245, !246, !247, !248, !249, !250}
!64 = !DIEnumerator(name: "SystemErrorCode_1Param", value: 0, isUnsigned: true)
!65 = !DIEnumerator(name: "UnsupportedEncoding_1Param", value: 1, isUnsigned: true)
!66 = !DIEnumerator(name: "UnknownErrorOccurredWhileTranscodingToEncoding_1Param", value: 2, isUnsigned: true)
!67 = !DIEnumerator(name: "AnErrorOccurredWhileTranscoding", value: 3, isUnsigned: true)
!68 = !DIEnumerator(name: "MessageErrorCodeWas_1Param", value: 4, isUnsigned: true)
!69 = !DIEnumerator(name: "FunctionRequiresNonNullContextNode_1Param", value: 5, isUnsigned: true)
!70 = !DIEnumerator(name: "FunctionTakesTwoArguments_1Param", value: 6, isUnsigned: true)
!71 = !DIEnumerator(name: "FunctionTakesZeroOrOneArg_1Param", value: 7, isUnsigned: true)
!72 = !DIEnumerator(name: "FunctionTakesTwoOrThreeArguments_1Param", value: 8, isUnsigned: true)
!73 = !DIEnumerator(name: "FunctionTakesThreeArguments_1Param", value: 9, isUnsigned: true)
!74 = !DIEnumerator(name: "CannotConvertTypetoType_2Param", value: 10, isUnsigned: true)
!75 = !DIEnumerator(name: "ExpressionDoesNotEvaluateToNodeSet", value: 11, isUnsigned: true)
!76 = !DIEnumerator(name: "UnknownAxis_1Param", value: 12, isUnsigned: true)
!77 = !DIEnumerator(name: "CannotEvaluateXPathExpressionAsMatchPattern", value: 13, isUnsigned: true)
!78 = !DIEnumerator(name: "ArgLengthNodeTestIsIncorrect_1Param", value: 14, isUnsigned: true)
!79 = !DIEnumerator(name: "InvalidOpcodeWasDetected_1Param", value: 15, isUnsigned: true)
!80 = !DIEnumerator(name: "InvalidNumberOfArgsWasDetected_3Param", value: 16, isUnsigned: true)
!81 = !DIEnumerator(name: "InvalidNumberOfArgsWasSupplied_2Param", value: 17, isUnsigned: true)
!82 = !DIEnumerator(name: "RemainingTokens", value: 18, isUnsigned: true)
!83 = !DIEnumerator(name: "FunctionIsNotImplemented_1Param", value: 19, isUnsigned: true)
!84 = !DIEnumerator(name: "FunctionNumberIsNotAvailable_1Param", value: 20, isUnsigned: true)
!85 = !DIEnumerator(name: "FunctionIsNotSupported_1Param", value: 21, isUnsigned: true)
!86 = !DIEnumerator(name: "ExtraIllegalTokens", value: 22, isUnsigned: true)
!87 = !DIEnumerator(name: "UnterminatedStringLiteral", value: 23, isUnsigned: true)
!88 = !DIEnumerator(name: "EmptyExpression", value: 24, isUnsigned: true)
!89 = !DIEnumerator(name: "NotValidNCName_1Param", value: 25, isUnsigned: true)
!90 = !DIEnumerator(name: "PrefixIsBoundToZeroLengthURI_1Param", value: 26, isUnsigned: true)
!91 = !DIEnumerator(name: "PrefixIsNotDeclared_1Param", value: 27, isUnsigned: true)
!92 = !DIEnumerator(name: "NotFoundWhatExpected_2Param", value: 28, isUnsigned: true)
!93 = !DIEnumerator(name: "LiteralArgumentIsRequired", value: 29, isUnsigned: true)
!94 = !DIEnumerator(name: "NoPrecedingArgument", value: 30, isUnsigned: true)
!95 = !DIEnumerator(name: "NoFollowingArgument", value: 31, isUnsigned: true)
!96 = !DIEnumerator(name: "CouldNotFindFunction_1Param", value: 32, isUnsigned: true)
!97 = !DIEnumerator(name: "FunctionDoesNotAcceptAnyArguments_1Param", value: 33, isUnsigned: true)
!98 = !DIEnumerator(name: "IllegalSyntaxOfPredicatesSelf", value: 34, isUnsigned: true)
!99 = !DIEnumerator(name: "IllegalSyntaxOfPredicatesParent", value: 35, isUnsigned: true)
!100 = !DIEnumerator(name: "UnexpectedTokenFound_1Param", value: 36, isUnsigned: true)
!101 = !DIEnumerator(name: "ExpectedAxis", value: 37, isUnsigned: true)
!102 = !DIEnumerator(name: "IllegalAxisName_1Param", value: 38, isUnsigned: true)
!103 = !DIEnumerator(name: "UnknownNodeType_1Param", value: 39, isUnsigned: true)
!104 = !DIEnumerator(name: "ExpectedNodeTest", value: 40, isUnsigned: true)
!105 = !DIEnumerator(name: "OnlyChildAndAttributeAxesAreAllowed", value: 41, isUnsigned: true)
!106 = !DIEnumerator(name: "VariableReferenceNotAllowed", value: 42, isUnsigned: true)
!107 = !DIEnumerator(name: "KeyFunctionNotAllowed", value: 43, isUnsigned: true)
!108 = !DIEnumerator(name: "FunctionTakes2ArgsAtLeast_1Param", value: 44, isUnsigned: true)
!109 = !DIEnumerator(name: "PatternIs_1Param", value: 45, isUnsigned: true)
!110 = !DIEnumerator(name: "ExpressionIs_1Param", value: 46, isUnsigned: true)
!111 = !DIEnumerator(name: "SpecifiedFuncIsNotAvailable_1Param", value: 47, isUnsigned: true)
!112 = !DIEnumerator(name: "AttributesCannotBeAdded", value: 48, isUnsigned: true)
!113 = !DIEnumerator(name: "IllegalElementName_1Param", value: 49, isUnsigned: true)
!114 = !DIEnumerator(name: "XalanHandleExtensions", value: 50, isUnsigned: true)
!115 = !DIEnumerator(name: "CannotResolveURIInDocumentFunction", value: 51, isUnsigned: true)
!116 = !DIEnumerator(name: "UnknownXSLElement_1Param", value: 52, isUnsigned: true)
!117 = !DIEnumerator(name: "NameIs_1Param", value: 53, isUnsigned: true)
!118 = !DIEnumerator(name: "WrongAttemptingToAddAttrinbute", value: 54, isUnsigned: true)
!119 = !DIEnumerator(name: "CantCreateItemInResultTree", value: 55, isUnsigned: true)
!120 = !DIEnumerator(name: "LeftBraceCannotAppearWithinExpression", value: 56, isUnsigned: true)
!121 = !DIEnumerator(name: "AttributeValueTemplateHasMissing", value: 57, isUnsigned: true)
!122 = !DIEnumerator(name: "NoCurrentTemplate", value: 58, isUnsigned: true)
!123 = !DIEnumerator(name: "AttributeNameNotValidQName_1Param", value: 59, isUnsigned: true)
!124 = !DIEnumerator(name: "IsNotValidQName_1Param", value: 60, isUnsigned: true)
!125 = !DIEnumerator(name: "IsNotValidNCName_1Param", value: 61, isUnsigned: true)
!126 = !DIEnumerator(name: "AttributeValueNotValidQName_2Param", value: 62, isUnsigned: true)
!127 = !DIEnumerator(name: "ElementMustHaveAttribute_2Param", value: 63, isUnsigned: true)
!128 = !DIEnumerator(name: "CannotFindNamedTemplate", value: 64, isUnsigned: true)
!129 = !DIEnumerator(name: "ElementHasIllegalAttributeValue_3Param", value: 65, isUnsigned: true)
!130 = !DIEnumerator(name: "DuplicateDefinitions_1Param", value: 66, isUnsigned: true)
!131 = !DIEnumerator(name: "MustBeOrPrefixedName", value: 67, isUnsigned: true)
!132 = !DIEnumerator(name: "UnknownDataType", value: 68, isUnsigned: true)
!133 = !DIEnumerator(name: "GroupingSeparatorValueMustBeOneCharacterLength", value: 69, isUnsigned: true)
!134 = !DIEnumerator(name: "NumberingFormatNotSupported_1Param", value: 70, isUnsigned: true)
!135 = !DIEnumerator(name: "PINameInvalid_1Param", value: 71, isUnsigned: true)
!136 = !DIEnumerator(name: "NameMustBeValidNCName", value: 72, isUnsigned: true)
!137 = !DIEnumerator(name: "ElementRequiresEitherNameOrMatchAttribute_1Param", value: 73, isUnsigned: true)
!138 = !DIEnumerator(name: "ElementHasIllegalAttribute_2Param", value: 74, isUnsigned: true)
!139 = !DIEnumerator(name: "ElementIsNotAllowedAtThisPosition_1Param", value: 75, isUnsigned: true)
!140 = !DIEnumerator(name: "ElemVariableInstanceAddedToWrongStylesheet", value: 76, isUnsigned: true)
!141 = !DIEnumerator(name: "ElemVariableInstanceIsAlreadyParented", value: 77, isUnsigned: true)
!142 = !DIEnumerator(name: "SecondArgumentToFunctionMustBeNode_set_1Param", value: 78, isUnsigned: true)
!143 = !DIEnumerator(name: "FunctionAcceptsOneTwoArguments_1Param", value: 79, isUnsigned: true)
!144 = !DIEnumerator(name: "Decimal_formatElementNotFound_1Param", value: 80, isUnsigned: true)
!145 = !DIEnumerator(name: "PropertyIsNotValidQName_1Param", value: 81, isUnsigned: true)
!146 = !DIEnumerator(name: "InvalidArgumentType_1Param", value: 82, isUnsigned: true)
!147 = !DIEnumerator(name: "FunctionAcceptsOneArgument_1Param", value: 83, isUnsigned: true)
!148 = !DIEnumerator(name: "Error_1Param", value: 84, isUnsigned: true)
!149 = !DIEnumerator(name: "Warning_1Param", value: 85, isUnsigned: true)
!150 = !DIEnumerator(name: "Message_1Param", value: 86, isUnsigned: true)
!151 = !DIEnumerator(name: "StyleTreeNode_1Param", value: 87, isUnsigned: true)
!152 = !DIEnumerator(name: "SourceTreeNode_1Param", value: 88, isUnsigned: true)
!153 = !DIEnumerator(name: "LineNumberColumnNumber_2Params", value: 89, isUnsigned: true)
!154 = !DIEnumerator(name: "HasInvalidAttribute_2Param", value: 90, isUnsigned: true)
!155 = !DIEnumerator(name: "AttributeMustBe_2Params", value: 91, isUnsigned: true)
!156 = !DIEnumerator(name: "StylesheetHasWrapperlessTemplate", value: 92, isUnsigned: true)
!157 = !DIEnumerator(name: "StylesheetHasDuplicateNamedTemplate", value: 93, isUnsigned: true)
!158 = !DIEnumerator(name: "UnknownXSLTToken_1Param", value: 94, isUnsigned: true)
!159 = !DIEnumerator(name: "InfiniteRecursion_1Param", value: 95, isUnsigned: true)
!160 = !DIEnumerator(name: "VariableIsNotDefined_1Param", value: 96, isUnsigned: true)
!161 = !DIEnumerator(name: "IsNotAllowedInThisPosition_1Param", value: 97, isUnsigned: true)
!162 = !DIEnumerator(name: "NotParentedBy_2Param", value: 98, isUnsigned: true)
!163 = !DIEnumerator(name: "IsNotAllowedInsideTemplate_1Param", value: 99, isUnsigned: true)
!164 = !DIEnumerator(name: "StylesheetAttribDidNotSpecifyVersionAttrib", value: 100, isUnsigned: true)
!165 = !DIEnumerator(name: "VariableHasBeenDeclared", value: 101, isUnsigned: true)
!166 = !DIEnumerator(name: "VariableHasBeenDeclaredInThisTemplate", value: 102, isUnsigned: true)
!167 = !DIEnumerator(name: "ImportCanOnlyOccur", value: 103, isUnsigned: true)
!168 = !DIEnumerator(name: "ImportingItself_1Param", value: 104, isUnsigned: true)
!169 = !DIEnumerator(name: "IncludingItself_1Param", value: 105, isUnsigned: true)
!170 = !DIEnumerator(name: "CharIsNotAllowedInStylesheet", value: 106, isUnsigned: true)
!171 = !DIEnumerator(name: "Transform", value: 107, isUnsigned: true)
!172 = !DIEnumerator(name: "NoValidResultTarget", value: 108, isUnsigned: true)
!173 = !DIEnumerator(name: "OutputHasAnUnknownMethod_1Param", value: 109, isUnsigned: true)
!174 = !DIEnumerator(name: "UnsupportedXalanSpecificAttribute_1Param", value: 110, isUnsigned: true)
!175 = !DIEnumerator(name: "HasIllegalAttribute_2Param", value: 111, isUnsigned: true)
!176 = !DIEnumerator(name: "TextAndColumnNumber_2Param", value: 112, isUnsigned: true)
!177 = !DIEnumerator(name: "MatchIs_1Param", value: 113, isUnsigned: true)
!178 = !DIEnumerator(name: "Warning2", value: 114, isUnsigned: true)
!179 = !DIEnumerator(name: "AtFileLineColumn_3Param", value: 115, isUnsigned: true)
!180 = !DIEnumerator(name: "FatalError", value: 116, isUnsigned: true)
!181 = !DIEnumerator(name: "FormatNumberFailed", value: 117, isUnsigned: true)
!182 = !DIEnumerator(name: "UnknownMatchOpCode_1Param", value: 118, isUnsigned: true)
!183 = !DIEnumerator(name: "AtUnknownFileLineColumn_2Param", value: 119, isUnsigned: true)
!184 = !DIEnumerator(name: "EmptyNodeList", value: 120, isUnsigned: true)
!185 = !DIEnumerator(name: "DefaultRootRule_1Param", value: 121, isUnsigned: true)
!186 = !DIEnumerator(name: "DefaultRootRule", value: 122, isUnsigned: true)
!187 = !DIEnumerator(name: "InvalidStackContext", value: 123, isUnsigned: true)
!188 = !DIEnumerator(name: "FailedToProcessStylesheet", value: 124, isUnsigned: true)
!189 = !DIEnumerator(name: "TotalTime", value: 125, isUnsigned: true)
!190 = !DIEnumerator(name: "NoStylesheet", value: 126, isUnsigned: true)
!191 = !DIEnumerator(name: "CompilingDOMStylesheetReqDocument", value: 127, isUnsigned: true)
!192 = !DIEnumerator(name: "CantIdentifyFragment_1Param", value: 128, isUnsigned: true)
!193 = !DIEnumerator(name: "CantFindFragment_1Param", value: 129, isUnsigned: true)
!194 = !DIEnumerator(name: "NodePointedByFragment_1Param", value: 130, isUnsigned: true)
!195 = !DIEnumerator(name: "OnlyTextNodesCanBeCopied", value: 131, isUnsigned: true)
!196 = !DIEnumerator(name: "UnmatchedWasFound", value: 132, isUnsigned: true)
!197 = !DIEnumerator(name: "CantLoadReqDocument_1Param", value: 133, isUnsigned: true)
!198 = !DIEnumerator(name: "ElementRequiresAttribute_2Param", value: 134, isUnsigned: true)
!199 = !DIEnumerator(name: "InputXSL", value: 135, isUnsigned: true)
!200 = !DIEnumerator(name: "ConflictsFound", value: 136, isUnsigned: true)
!201 = !DIEnumerator(name: "CircularVariableDefWasDetected", value: 137, isUnsigned: true)
!202 = !DIEnumerator(name: "FunctionAcceptsTwoArguments_1Param", value: 138, isUnsigned: true)
!203 = !DIEnumerator(name: "NoPrefixResolverAvailable", value: 139, isUnsigned: true)
!204 = !DIEnumerator(name: "InvalidArgumentTypeFunction_1Param", value: 140, isUnsigned: true)
!205 = !DIEnumerator(name: "ErrorCopyingNamespaceNodeForDefault", value: 141, isUnsigned: true)
!206 = !DIEnumerator(name: "ErrorCopyingNamespaceNode_1Param", value: 142, isUnsigned: true)
!207 = !DIEnumerator(name: "InvalidHighSurrogate_1Param", value: 143, isUnsigned: true)
!208 = !DIEnumerator(name: "InvalidSurrogatePair_2Param", value: 144, isUnsigned: true)
!209 = !DIEnumerator(name: "EXSLTFunctionAcceptsOneArgument_1Param", value: 145, isUnsigned: true)
!210 = !DIEnumerator(name: "EXSLTFunctionAcceptsNoArgument_1Param", value: 146, isUnsigned: true)
!211 = !DIEnumerator(name: "EXSLTFunctionAcceptsTwoArguments_1Param", value: 147, isUnsigned: true)
!212 = !DIEnumerator(name: "EXSLTFunctionAcceptsTwoOrThreeArguments_1Param", value: 148, isUnsigned: true)
!213 = !DIEnumerator(name: "EXSLTFunctionAccepts1Or2Argument_1Param", value: 149, isUnsigned: true)
!214 = !DIEnumerator(name: "XalanDOMExceptionCaught_1Param", value: 150, isUnsigned: true)
!215 = !DIEnumerator(name: "InvalidCompiledStylesheetProvided", value: 151, isUnsigned: true)
!216 = !DIEnumerator(name: "InvalidParsedSourceProvided", value: 152, isUnsigned: true)
!217 = !DIEnumerator(name: "NumberBytesWrittenDoesNotEqual", value: 153, isUnsigned: true)
!218 = !DIEnumerator(name: "XalanExeHelpMenuXalanVersion_1Param", value: 154, isUnsigned: true)
!219 = !DIEnumerator(name: "XalanExeHelpMenuXercesVersion_1Param", value: 155, isUnsigned: true)
!220 = !DIEnumerator(name: "XalanExeHelpMenu", value: 156, isUnsigned: true)
!221 = !DIEnumerator(name: "XalanExeHelpMenu0", value: 157, isUnsigned: true)
!222 = !DIEnumerator(name: "XalanExeHelpMenu1", value: 158, isUnsigned: true)
!223 = !DIEnumerator(name: "XalanExeHelpMenu2", value: 159, isUnsigned: true)
!224 = !DIEnumerator(name: "XalanExeHelpMenu3", value: 160, isUnsigned: true)
!225 = !DIEnumerator(name: "XalanExeHelpMenu4", value: 161, isUnsigned: true)
!226 = !DIEnumerator(name: "XalanExeHelpMenu5", value: 162, isUnsigned: true)
!227 = !DIEnumerator(name: "XalanExeHelpMenu6", value: 163, isUnsigned: true)
!228 = !DIEnumerator(name: "XalanExeHelpMenu7", value: 164, isUnsigned: true)
!229 = !DIEnumerator(name: "XalanExeHelpMenu8", value: 165, isUnsigned: true)
!230 = !DIEnumerator(name: "XalanExeHelpMenu9", value: 166, isUnsigned: true)
!231 = !DIEnumerator(name: "XalanExeHelpMenu10", value: 167, isUnsigned: true)
!232 = !DIEnumerator(name: "XalanExeHelpMenu11", value: 168, isUnsigned: true)
!233 = !DIEnumerator(name: "XalanExeHelpMenu12", value: 169, isUnsigned: true)
!234 = !DIEnumerator(name: "ElemOrLTIsNotAllowed_1Param", value: 170, isUnsigned: true)
!235 = !DIEnumerator(name: "ElemIsNotAllowed_1Param", value: 171, isUnsigned: true)
!236 = !DIEnumerator(name: "ErrorWritingFile_1Param", value: 172, isUnsigned: true)
!237 = !DIEnumerator(name: "ErrorOpeningFile_1Param", value: 173, isUnsigned: true)
!238 = !DIEnumerator(name: "Error2", value: 174, isUnsigned: true)
!239 = !DIEnumerator(name: "ErrorWritingToStdStream", value: 175, isUnsigned: true)
!240 = !DIEnumerator(name: "UnrepresentableCharacter_2Param", value: 176, isUnsigned: true)
!241 = !DIEnumerator(name: "InvalidScalar_1Param", value: 177, isUnsigned: true)
!242 = !DIEnumerator(name: "PrefixOfLengthZeroDetected", value: 178, isUnsigned: true)
!243 = !DIEnumerator(name: "SortMustBeAscendOrDescend", value: 179, isUnsigned: true)
!244 = !DIEnumerator(name: "SortDataTypeMustBe", value: 180, isUnsigned: true)
!245 = !DIEnumerator(name: "SortHasUnknownDataType", value: 181, isUnsigned: true)
!246 = !DIEnumerator(name: "SortCaseOrderMustBe", value: 182, isUnsigned: true)
!247 = !DIEnumerator(name: "LegalValuesForLetterValue", value: 183, isUnsigned: true)
!248 = !DIEnumerator(name: "InvalidURI", value: 184, isUnsigned: true)
!249 = !DIEnumerator(name: "ExpectedToken", value: 185, isUnsigned: true)
!250 = !DIEnumerator(name: "ForbiddenXMLCharacter_2Param", value: 186, isUnsigned: true)
!251 = !{!252, !255, !257, !263, !320, !324, !330, !334, !341, !345, !350, !352, !360, !364, !368, !381, !385, !389, !393, !397, !402, !406, !410, !414, !418, !426, !430, !434, !436, !440, !444, !448, !454, !458, !462, !464, !472, !476, !483, !485, !489, !493, !497, !501, !506, !511, !516, !517, !518, !519, !521, !522, !523, !524, !525, !526, !527, !529, !530, !531, !532, !533, !534, !535, !540, !541, !542, !543, !544, !545, !546, !547, !548, !549, !550, !551, !552, !553, !554, !555, !556, !557, !558, !559, !560, !561, !562, !563, !564, !568, !570, !574, !591, !594, !599, !607, !612, !616, !620, !624, !628, !630, !632, !636, !642, !646, !652, !658, !660, !664, !668, !672, !676, !687, !689, !693, !697, !701, !703, !707, !711, !715, !717, !719, !723, !731, !735, !739, !743, !745, !751, !753, !759, !763, !767, !771, !775, !779, !783, !785, !787, !791, !795, !799, !801, !805, !809, !811, !813, !817, !821, !825, !829, !830, !831, !832, !833, !834, !835, !836, !837, !838, !839, !843, !847, !852, !856, !858, !860, !862, !864, !866, !868, !870, !872, !874, !876, !878, !880, !882, !889, !893, !896, !899, !902, !904, !906, !908, !911, !914, !917, !920, !923, !925, !930, !934, !937, !940, !942, !944, !946, !948, !951, !954, !957, !960, !963, !965, !969, !975, !980, !984, !986, !988, !990, !992, !999, !1003, !1007, !1011, !1015, !1019, !1024, !1028, !1030, !1034, !1040, !1044, !1049, !1051, !1053, !1057, !1061, !1063, !1065, !1067, !1069, !1073, !1075, !1077, !1081, !1085, !1089, !1093, !1097, !1101, !1103, !1107, !1111, !1115, !1119, !1121, !1123, !1127, !1131, !1132, !1133, !1134, !1135, !1136, !1138, !1142, !1144, !1146, !1148, !1150, !1151, !1153, !1159, !1161, !1163, !1167, !1169, !1171, !1173, !1175, !1177, !1179, !1181, !1186, !1190, !1192, !1194, !1199, !1201, !1203, !1205, !1207, !1209, !1211, !1214, !1216, !1218, !1222, !1226, !1228, !1230, !1232, !1234, !1236, !1238, !1240, !1242, !1244, !1246, !1250, !1254, !1256, !1258, !1260, !1262, !1264, !1266, !1268, !1270, !1272, !1274, !1276, !1278, !1280, !1282, !1284, !1288, !1292, !1296, !1298, !1300, !1302, !1304, !1306, !1308, !1310, !1312, !1314, !1318, !1322, !1326, !1328, !1330, !1332, !1336, !1340, !1344, !1346, !1348, !1350, !1352, !1354, !1356, !1358, !1360, !1362, !1364, !1366, !1368, !1372, !1376, !1380, !1382, !1384, !1386, !1388, !1392, !1396, !1398, !1400, !1402, !1404, !1406, !1408, !1412, !1416, !1418, !1420, !1422, !1424, !1428, !1432, !1436, !1438, !1440, !1442, !1444, !1446, !1448, !1452, !1456, !1460, !1462, !1466, !1470, !1472, !1474, !1476, !1478, !1480, !1482, !1484, !1486, !1488, !1490, !1493}
!252 = !DIImportedEntity(tag: DW_TAG_imported_declaration, name: "xercesc", scope: !0, entity: !253, file: !254, line: 433)
!253 = !DINamespace(name: "xercesc_2_7", scope: null)
!254 = !DIFile(filename: "./xercesc/util/XercesDefs.hpp", directory: "/home/venkat/IF-DV/spec_build_release/CPU_2017/benchspec/CPU/523.xalancbmk_r/build/build_base_ld-loop-ext-m64.0000")
!255 = !DIImportedEntity(tag: DW_TAG_imported_declaration, name: "xalanc", scope: !0, entity: !14, file: !256, line: 69)
!256 = !DIFile(filename: "./xalanc/Include/PlatformDefinitions.hpp", directory: "/home/venkat/IF-DV/spec_build_release/CPU_2017/benchspec/CPU/523.xalancbmk_r/build/build_base_ld-loop-ext-m64.0000")
!257 = !DIImportedEntity(tag: DW_TAG_imported_declaration, scope: !258, entity: !259, file: !262, line: 58)
!258 = !DINamespace(name: "std", scope: null)
!259 = !DIDerivedType(tag: DW_TAG_typedef, name: "max_align_t", file: !260, line: 24, baseType: !261)
!260 = !DIFile(filename: "Rohit/IR2Vec-LoopOptimizationFramework/build_REL_AsrtON/lib/clang/10.0.1/include/__stddef_max_align_t.h", directory: "/home/venkat/IF-DV")
!261 = !DICompositeType(tag: DW_TAG_structure_type, file: !260, line: 19, flags: DIFlagFwdDecl, identifier: "_ZTS11max_align_t")
!262 = !DIFile(filename: "/usr/lib/gcc/x86_64-linux-gnu/10/../../../../include/c++/10/cstddef", directory: "")
!263 = !DIImportedEntity(tag: DW_TAG_imported_declaration, scope: !258, entity: !264, file: !265, line: 58)
!264 = distinct !DICompositeType(tag: DW_TAG_class_type, name: "exception_ptr", scope: !266, file: !265, line: 80, size: 64, flags: DIFlagTypePassByReference | DIFlagNonTrivial, elements: !267, identifier: "_ZTSNSt15__exception_ptr13exception_ptrE")
!265 = !DIFile(filename: "/usr/lib/gcc/x86_64-linux-gnu/10/../../../../include/c++/10/bits/exception_ptr.h", directory: "")
!266 = !DINamespace(name: "__exception_ptr", scope: !258)
!267 = !{!268, !270, !274, !277, !278, !283, !284, !288, !294, !298, !302, !305, !306, !309, !313}
!268 = !DIDerivedType(tag: DW_TAG_member, name: "_M_exception_object", scope: !264, file: !265, line: 82, baseType: !269, size: 64)
!269 = !DIDerivedType(tag: DW_TAG_pointer_type, baseType: null, size: 64)
!270 = !DISubprogram(name: "exception_ptr", scope: !264, file: !265, line: 84, type: !271, scopeLine: 84, flags: DIFlagExplicit | DIFlagPrototyped, spFlags: 0)
!271 = !DISubroutineType(types: !272)
!272 = !{null, !273, !269}
!273 = !DIDerivedType(tag: DW_TAG_pointer_type, baseType: !264, size: 64, flags: DIFlagArtificial | DIFlagObjectPointer)
!274 = !DISubprogram(name: "_M_addref", linkageName: "_ZNSt15__exception_ptr13exception_ptr9_M_addrefEv", scope: !264, file: !265, line: 86, type: !275, scopeLine: 86, flags: DIFlagPrototyped, spFlags: 0)
!275 = !DISubroutineType(types: !276)
!276 = !{null, !273}
!277 = !DISubprogram(name: "_M_release", linkageName: "_ZNSt15__exception_ptr13exception_ptr10_M_releaseEv", scope: !264, file: !265, line: 87, type: !275, scopeLine: 87, flags: DIFlagPrototyped, spFlags: 0)
!278 = !DISubprogram(name: "_M_get", linkageName: "_ZNKSt15__exception_ptr13exception_ptr6_M_getEv", scope: !264, file: !265, line: 89, type: !279, scopeLine: 89, flags: DIFlagPrototyped, spFlags: 0)
!279 = !DISubroutineType(types: !280)
!280 = !{!269, !281}
!281 = !DIDerivedType(tag: DW_TAG_pointer_type, baseType: !282, size: 64, flags: DIFlagArtificial | DIFlagObjectPointer)
!282 = !DIDerivedType(tag: DW_TAG_const_type, baseType: !264)
!283 = !DISubprogram(name: "exception_ptr", scope: !264, file: !265, line: 97, type: !275, scopeLine: 97, flags: DIFlagPublic | DIFlagPrototyped, spFlags: 0)
!284 = !DISubprogram(name: "exception_ptr", scope: !264, file: !265, line: 99, type: !285, scopeLine: 99, flags: DIFlagPublic | DIFlagPrototyped, spFlags: 0)
!285 = !DISubroutineType(types: !286)
!286 = !{null, !273, !287}
!287 = !DIDerivedType(tag: DW_TAG_reference_type, baseType: !282, size: 64)
!288 = !DISubprogram(name: "exception_ptr", scope: !264, file: !265, line: 102, type: !289, scopeLine: 102, flags: DIFlagPublic | DIFlagPrototyped, spFlags: 0)
!289 = !DISubroutineType(types: !290)
!290 = !{null, !273, !291}
!291 = !DIDerivedType(tag: DW_TAG_typedef, name: "nullptr_t", scope: !258, file: !292, line: 264, baseType: !293)
!292 = !DIFile(filename: "/usr/lib/gcc/x86_64-linux-gnu/10/../../../../include/x86_64-linux-gnu/c++/10/bits/c++config.h", directory: "")
!293 = !DIBasicType(tag: DW_TAG_unspecified_type, name: "decltype(nullptr)")
!294 = !DISubprogram(name: "exception_ptr", scope: !264, file: !265, line: 106, type: !295, scopeLine: 106, flags: DIFlagPublic | DIFlagPrototyped, spFlags: 0)
!295 = !DISubroutineType(types: !296)
!296 = !{null, !273, !297}
!297 = !DIDerivedType(tag: DW_TAG_rvalue_reference_type, baseType: !264, size: 64)
!298 = !DISubprogram(name: "operator=", linkageName: "_ZNSt15__exception_ptr13exception_ptraSERKS0_", scope: !264, file: !265, line: 119, type: !299, scopeLine: 119, flags: DIFlagPublic | DIFlagPrototyped, spFlags: 0)
!299 = !DISubroutineType(types: !300)
!300 = !{!301, !273, !287}
!301 = !DIDerivedType(tag: DW_TAG_reference_type, baseType: !264, size: 64)
!302 = !DISubprogram(name: "operator=", linkageName: "_ZNSt15__exception_ptr13exception_ptraSEOS0_", scope: !264, file: !265, line: 123, type: !303, scopeLine: 123, flags: DIFlagPublic | DIFlagPrototyped, spFlags: 0)
!303 = !DISubroutineType(types: !304)
!304 = !{!301, !273, !297}
!305 = !DISubprogram(name: "~exception_ptr", scope: !264, file: !265, line: 130, type: !275, scopeLine: 130, flags: DIFlagPublic | DIFlagPrototyped, spFlags: 0)
!306 = !DISubprogram(name: "swap", linkageName: "_ZNSt15__exception_ptr13exception_ptr4swapERS0_", scope: !264, file: !265, line: 133, type: !307, scopeLine: 133, flags: DIFlagPublic | DIFlagPrototyped, spFlags: 0)
!307 = !DISubroutineType(types: !308)
!308 = !{null, !273, !301}
!309 = !DISubprogram(name: "operator bool", linkageName: "_ZNKSt15__exception_ptr13exception_ptrcvbEv", scope: !264, file: !265, line: 145, type: !310, scopeLine: 145, flags: DIFlagPublic | DIFlagExplicit | DIFlagPrototyped, spFlags: 0)
!310 = !DISubroutineType(types: !311)
!311 = !{!312, !281}
!312 = !DIBasicType(name: "bool", size: 8, encoding: DW_ATE_boolean)
!313 = !DISubprogram(name: "__cxa_exception_type", linkageName: "_ZNKSt15__exception_ptr13exception_ptr20__cxa_exception_typeEv", scope: !264, file: !265, line: 154, type: !314, scopeLine: 154, flags: DIFlagPublic | DIFlagPrototyped, spFlags: 0)
!314 = !DISubroutineType(types: !315)
!315 = !{!316, !281}
!316 = !DIDerivedType(tag: DW_TAG_pointer_type, baseType: !317, size: 64)
!317 = !DIDerivedType(tag: DW_TAG_const_type, baseType: !318)
!318 = !DICompositeType(tag: DW_TAG_class_type, name: "type_info", scope: !258, file: !319, line: 88, flags: DIFlagFwdDecl)
!319 = !DIFile(filename: "/usr/lib/gcc/x86_64-linux-gnu/10/../../../../include/c++/10/typeinfo", directory: "")
!320 = !DIImportedEntity(tag: DW_TAG_imported_declaration, scope: !266, entity: !321, file: !265, line: 74)
!321 = !DISubprogram(name: "rethrow_exception", linkageName: "_ZSt17rethrow_exceptionNSt15__exception_ptr13exception_ptrE", scope: !258, file: !265, line: 70, type: !322, flags: DIFlagPrototyped | DIFlagNoReturn, spFlags: 0)
!322 = !DISubroutineType(types: !323)
!323 = !{null, !264}
!324 = !DIImportedEntity(tag: DW_TAG_imported_declaration, scope: !258, entity: !325, file: !329, line: 52)
!325 = !DISubprogram(name: "abs", scope: !326, file: !326, line: 840, type: !327, flags: DIFlagPrototyped, spFlags: 0)
!326 = !DIFile(filename: "/usr/include/stdlib.h", directory: "")
!327 = !DISubroutineType(types: !328)
!328 = !{!15, !15}
!329 = !DIFile(filename: "/usr/lib/gcc/x86_64-linux-gnu/10/../../../../include/c++/10/bits/std_abs.h", directory: "")
!330 = !DIImportedEntity(tag: DW_TAG_imported_declaration, scope: !258, entity: !331, file: !333, line: 127)
!331 = !DIDerivedType(tag: DW_TAG_typedef, name: "div_t", file: !326, line: 62, baseType: !332)
!332 = !DICompositeType(tag: DW_TAG_structure_type, file: !326, line: 58, flags: DIFlagFwdDecl, identifier: "_ZTS5div_t")
!333 = !DIFile(filename: "/usr/lib/gcc/x86_64-linux-gnu/10/../../../../include/c++/10/cstdlib", directory: "")
!334 = !DIImportedEntity(tag: DW_TAG_imported_declaration, scope: !258, entity: !335, file: !333, line: 128)
!335 = !DIDerivedType(tag: DW_TAG_typedef, name: "ldiv_t", file: !326, line: 70, baseType: !336)
!336 = distinct !DICompositeType(tag: DW_TAG_structure_type, file: !326, line: 66, size: 128, flags: DIFlagTypePassByValue, elements: !337, identifier: "_ZTS6ldiv_t")
!337 = !{!338, !340}
!338 = !DIDerivedType(tag: DW_TAG_member, name: "quot", scope: !336, file: !326, line: 68, baseType: !339, size: 64)
!339 = !DIBasicType(name: "long int", size: 64, encoding: DW_ATE_signed)
!340 = !DIDerivedType(tag: DW_TAG_member, name: "rem", scope: !336, file: !326, line: 69, baseType: !339, size: 64, offset: 64)
!341 = !DIImportedEntity(tag: DW_TAG_imported_declaration, scope: !258, entity: !342, file: !333, line: 130)
!342 = !DISubprogram(name: "abort", scope: !326, file: !326, line: 591, type: !343, flags: DIFlagPrototyped | DIFlagNoReturn, spFlags: 0)
!343 = !DISubroutineType(types: !344)
!344 = !{null}
!345 = !DIImportedEntity(tag: DW_TAG_imported_declaration, scope: !258, entity: !346, file: !333, line: 134)
!346 = !DISubprogram(name: "atexit", scope: !326, file: !326, line: 595, type: !347, flags: DIFlagPrototyped, spFlags: 0)
!347 = !DISubroutineType(types: !348)
!348 = !{!15, !349}
!349 = !DIDerivedType(tag: DW_TAG_pointer_type, baseType: !343, size: 64)
!350 = !DIImportedEntity(tag: DW_TAG_imported_declaration, scope: !258, entity: !351, file: !333, line: 137)
!351 = !DISubprogram(name: "at_quick_exit", scope: !326, file: !326, line: 600, type: !347, flags: DIFlagPrototyped, spFlags: 0)
!352 = !DIImportedEntity(tag: DW_TAG_imported_declaration, scope: !258, entity: !353, file: !333, line: 140)
!353 = !DISubprogram(name: "atof", scope: !326, file: !326, line: 101, type: !354, flags: DIFlagPrototyped, spFlags: 0)
!354 = !DISubroutineType(types: !355)
!355 = !{!356, !357}
!356 = !DIBasicType(name: "double", size: 64, encoding: DW_ATE_float)
!357 = !DIDerivedType(tag: DW_TAG_pointer_type, baseType: !358, size: 64)
!358 = !DIDerivedType(tag: DW_TAG_const_type, baseType: !359)
!359 = !DIBasicType(name: "char", size: 8, encoding: DW_ATE_signed_char)
!360 = !DIImportedEntity(tag: DW_TAG_imported_declaration, scope: !258, entity: !361, file: !333, line: 141)
!361 = !DISubprogram(name: "atoi", scope: !326, file: !326, line: 104, type: !362, flags: DIFlagPrototyped, spFlags: 0)
!362 = !DISubroutineType(types: !363)
!363 = !{!15, !357}
!364 = !DIImportedEntity(tag: DW_TAG_imported_declaration, scope: !258, entity: !365, file: !333, line: 142)
!365 = !DISubprogram(name: "atol", scope: !326, file: !326, line: 107, type: !366, flags: DIFlagPrototyped, spFlags: 0)
!366 = !DISubroutineType(types: !367)
!367 = !{!339, !357}
!368 = !DIImportedEntity(tag: DW_TAG_imported_declaration, scope: !258, entity: !369, file: !333, line: 143)
!369 = !DISubprogram(name: "bsearch", scope: !326, file: !326, line: 820, type: !370, flags: DIFlagPrototyped, spFlags: 0)
!370 = !DISubroutineType(types: !371)
!371 = !{!269, !372, !372, !374, !374, !377}
!372 = !DIDerivedType(tag: DW_TAG_pointer_type, baseType: !373, size: 64)
!373 = !DIDerivedType(tag: DW_TAG_const_type, baseType: null)
!374 = !DIDerivedType(tag: DW_TAG_typedef, name: "size_t", file: !375, line: 46, baseType: !376)
!375 = !DIFile(filename: "Rohit/IR2Vec-LoopOptimizationFramework/build_REL_AsrtON/lib/clang/10.0.1/include/stddef.h", directory: "/home/venkat/IF-DV")
!376 = !DIBasicType(name: "long unsigned int", size: 64, encoding: DW_ATE_unsigned)
!377 = !DIDerivedType(tag: DW_TAG_typedef, name: "__compar_fn_t", file: !326, line: 808, baseType: !378)
!378 = !DIDerivedType(tag: DW_TAG_pointer_type, baseType: !379, size: 64)
!379 = !DISubroutineType(types: !380)
!380 = !{!15, !372, !372}
!381 = !DIImportedEntity(tag: DW_TAG_imported_declaration, scope: !258, entity: !382, file: !333, line: 144)
!382 = !DISubprogram(name: "calloc", scope: !326, file: !326, line: 542, type: !383, flags: DIFlagPrototyped, spFlags: 0)
!383 = !DISubroutineType(types: !384)
!384 = !{!269, !374, !374}
!385 = !DIImportedEntity(tag: DW_TAG_imported_declaration, scope: !258, entity: !386, file: !333, line: 145)
!386 = !DISubprogram(name: "div", scope: !326, file: !326, line: 852, type: !387, flags: DIFlagPrototyped, spFlags: 0)
!387 = !DISubroutineType(types: !388)
!388 = !{!331, !15, !15}
!389 = !DIImportedEntity(tag: DW_TAG_imported_declaration, scope: !258, entity: !390, file: !333, line: 146)
!390 = !DISubprogram(name: "exit", scope: !326, file: !326, line: 617, type: !391, flags: DIFlagPrototyped | DIFlagNoReturn, spFlags: 0)
!391 = !DISubroutineType(types: !392)
!392 = !{null, !15}
!393 = !DIImportedEntity(tag: DW_TAG_imported_declaration, scope: !258, entity: !394, file: !333, line: 147)
!394 = !DISubprogram(name: "free", scope: !326, file: !326, line: 565, type: !395, flags: DIFlagPrototyped, spFlags: 0)
!395 = !DISubroutineType(types: !396)
!396 = !{null, !269}
!397 = !DIImportedEntity(tag: DW_TAG_imported_declaration, scope: !258, entity: !398, file: !333, line: 148)
!398 = !DISubprogram(name: "getenv", scope: !326, file: !326, line: 634, type: !399, flags: DIFlagPrototyped, spFlags: 0)
!399 = !DISubroutineType(types: !400)
!400 = !{!401, !357}
!401 = !DIDerivedType(tag: DW_TAG_pointer_type, baseType: !359, size: 64)
!402 = !DIImportedEntity(tag: DW_TAG_imported_declaration, scope: !258, entity: !403, file: !333, line: 149)
!403 = !DISubprogram(name: "labs", scope: !326, file: !326, line: 841, type: !404, flags: DIFlagPrototyped, spFlags: 0)
!404 = !DISubroutineType(types: !405)
!405 = !{!339, !339}
!406 = !DIImportedEntity(tag: DW_TAG_imported_declaration, scope: !258, entity: !407, file: !333, line: 150)
!407 = !DISubprogram(name: "ldiv", scope: !326, file: !326, line: 854, type: !408, flags: DIFlagPrototyped, spFlags: 0)
!408 = !DISubroutineType(types: !409)
!409 = !{!335, !339, !339}
!410 = !DIImportedEntity(tag: DW_TAG_imported_declaration, scope: !258, entity: !411, file: !333, line: 151)
!411 = !DISubprogram(name: "malloc", scope: !326, file: !326, line: 539, type: !412, flags: DIFlagPrototyped, spFlags: 0)
!412 = !DISubroutineType(types: !413)
!413 = !{!269, !374}
!414 = !DIImportedEntity(tag: DW_TAG_imported_declaration, scope: !258, entity: !415, file: !333, line: 153)
!415 = !DISubprogram(name: "mblen", scope: !326, file: !326, line: 922, type: !416, flags: DIFlagPrototyped, spFlags: 0)
!416 = !DISubroutineType(types: !417)
!417 = !{!15, !357, !374}
!418 = !DIImportedEntity(tag: DW_TAG_imported_declaration, scope: !258, entity: !419, file: !333, line: 154)
!419 = !DISubprogram(name: "mbstowcs", scope: !326, file: !326, line: 933, type: !420, flags: DIFlagPrototyped, spFlags: 0)
!420 = !DISubroutineType(types: !421)
!421 = !{!374, !422, !425, !374}
!422 = !DIDerivedType(tag: DW_TAG_restrict_type, baseType: !423)
!423 = !DIDerivedType(tag: DW_TAG_pointer_type, baseType: !424, size: 64)
!424 = !DIBasicType(name: "wchar_t", size: 32, encoding: DW_ATE_signed)
!425 = !DIDerivedType(tag: DW_TAG_restrict_type, baseType: !357)
!426 = !DIImportedEntity(tag: DW_TAG_imported_declaration, scope: !258, entity: !427, file: !333, line: 155)
!427 = !DISubprogram(name: "mbtowc", scope: !326, file: !326, line: 925, type: !428, flags: DIFlagPrototyped, spFlags: 0)
!428 = !DISubroutineType(types: !429)
!429 = !{!15, !422, !425, !374}
!430 = !DIImportedEntity(tag: DW_TAG_imported_declaration, scope: !258, entity: !431, file: !333, line: 157)
!431 = !DISubprogram(name: "qsort", scope: !326, file: !326, line: 830, type: !432, flags: DIFlagPrototyped, spFlags: 0)
!432 = !DISubroutineType(types: !433)
!433 = !{null, !269, !374, !374, !377}
!434 = !DIImportedEntity(tag: DW_TAG_imported_declaration, scope: !258, entity: !435, file: !333, line: 160)
!435 = !DISubprogram(name: "quick_exit", scope: !326, file: !326, line: 623, type: !391, flags: DIFlagPrototyped | DIFlagNoReturn, spFlags: 0)
!436 = !DIImportedEntity(tag: DW_TAG_imported_declaration, scope: !258, entity: !437, file: !333, line: 163)
!437 = !DISubprogram(name: "rand", scope: !326, file: !326, line: 453, type: !438, flags: DIFlagPrototyped, spFlags: 0)
!438 = !DISubroutineType(types: !439)
!439 = !{!15}
!440 = !DIImportedEntity(tag: DW_TAG_imported_declaration, scope: !258, entity: !441, file: !333, line: 164)
!441 = !DISubprogram(name: "realloc", scope: !326, file: !326, line: 550, type: !442, flags: DIFlagPrototyped, spFlags: 0)
!442 = !DISubroutineType(types: !443)
!443 = !{!269, !269, !374}
!444 = !DIImportedEntity(tag: DW_TAG_imported_declaration, scope: !258, entity: !445, file: !333, line: 165)
!445 = !DISubprogram(name: "srand", scope: !326, file: !326, line: 455, type: !446, flags: DIFlagPrototyped, spFlags: 0)
!446 = !DISubroutineType(types: !447)
!447 = !{null, !6}
!448 = !DIImportedEntity(tag: DW_TAG_imported_declaration, scope: !258, entity: !449, file: !333, line: 166)
!449 = !DISubprogram(name: "strtod", scope: !326, file: !326, line: 117, type: !450, flags: DIFlagPrototyped, spFlags: 0)
!450 = !DISubroutineType(types: !451)
!451 = !{!356, !425, !452}
!452 = !DIDerivedType(tag: DW_TAG_restrict_type, baseType: !453)
!453 = !DIDerivedType(tag: DW_TAG_pointer_type, baseType: !401, size: 64)
!454 = !DIImportedEntity(tag: DW_TAG_imported_declaration, scope: !258, entity: !455, file: !333, line: 167)
!455 = !DISubprogram(name: "strtol", scope: !326, file: !326, line: 176, type: !456, flags: DIFlagPrototyped, spFlags: 0)
!456 = !DISubroutineType(types: !457)
!457 = !{!339, !425, !452, !15}
!458 = !DIImportedEntity(tag: DW_TAG_imported_declaration, scope: !258, entity: !459, file: !333, line: 168)
!459 = !DISubprogram(name: "strtoul", scope: !326, file: !326, line: 180, type: !460, flags: DIFlagPrototyped, spFlags: 0)
!460 = !DISubroutineType(types: !461)
!461 = !{!376, !425, !452, !15}
!462 = !DIImportedEntity(tag: DW_TAG_imported_declaration, scope: !258, entity: !463, file: !333, line: 169)
!463 = !DISubprogram(name: "system", scope: !326, file: !326, line: 784, type: !362, flags: DIFlagPrototyped, spFlags: 0)
!464 = !DIImportedEntity(tag: DW_TAG_imported_declaration, scope: !258, entity: !465, file: !333, line: 171)
!465 = !DISubprogram(name: "wcstombs", scope: !326, file: !326, line: 936, type: !466, flags: DIFlagPrototyped, spFlags: 0)
!466 = !DISubroutineType(types: !467)
!467 = !{!374, !468, !469, !374}
!468 = !DIDerivedType(tag: DW_TAG_restrict_type, baseType: !401)
!469 = !DIDerivedType(tag: DW_TAG_restrict_type, baseType: !470)
!470 = !DIDerivedType(tag: DW_TAG_pointer_type, baseType: !471, size: 64)
!471 = !DIDerivedType(tag: DW_TAG_const_type, baseType: !424)
!472 = !DIImportedEntity(tag: DW_TAG_imported_declaration, scope: !258, entity: !473, file: !333, line: 172)
!473 = !DISubprogram(name: "wctomb", scope: !326, file: !326, line: 929, type: !474, flags: DIFlagPrototyped, spFlags: 0)
!474 = !DISubroutineType(types: !475)
!475 = !{!15, !401, !424}
!476 = !DIImportedEntity(tag: DW_TAG_imported_declaration, scope: !5, entity: !477, file: !333, line: 200)
!477 = !DIDerivedType(tag: DW_TAG_typedef, name: "lldiv_t", file: !326, line: 80, baseType: !478)
!478 = distinct !DICompositeType(tag: DW_TAG_structure_type, file: !326, line: 76, size: 128, flags: DIFlagTypePassByValue, elements: !479, identifier: "_ZTS7lldiv_t")
!479 = !{!480, !482}
!480 = !DIDerivedType(tag: DW_TAG_member, name: "quot", scope: !478, file: !326, line: 78, baseType: !481, size: 64)
!481 = !DIBasicType(name: "long long int", size: 64, encoding: DW_ATE_signed)
!482 = !DIDerivedType(tag: DW_TAG_member, name: "rem", scope: !478, file: !326, line: 79, baseType: !481, size: 64, offset: 64)
!483 = !DIImportedEntity(tag: DW_TAG_imported_declaration, scope: !5, entity: !484, file: !333, line: 206)
!484 = !DISubprogram(name: "_Exit", scope: !326, file: !326, line: 629, type: !391, flags: DIFlagPrototyped | DIFlagNoReturn, spFlags: 0)
!485 = !DIImportedEntity(tag: DW_TAG_imported_declaration, scope: !5, entity: !486, file: !333, line: 210)
!486 = !DISubprogram(name: "llabs", scope: !326, file: !326, line: 844, type: !487, flags: DIFlagPrototyped, spFlags: 0)
!487 = !DISubroutineType(types: !488)
!488 = !{!481, !481}
!489 = !DIImportedEntity(tag: DW_TAG_imported_declaration, scope: !5, entity: !490, file: !333, line: 216)
!490 = !DISubprogram(name: "lldiv", scope: !326, file: !326, line: 858, type: !491, flags: DIFlagPrototyped, spFlags: 0)
!491 = !DISubroutineType(types: !492)
!492 = !{!477, !481, !481}
!493 = !DIImportedEntity(tag: DW_TAG_imported_declaration, scope: !5, entity: !494, file: !333, line: 227)
!494 = !DISubprogram(name: "atoll", scope: !326, file: !326, line: 112, type: !495, flags: DIFlagPrototyped, spFlags: 0)
!495 = !DISubroutineType(types: !496)
!496 = !{!481, !357}
!497 = !DIImportedEntity(tag: DW_TAG_imported_declaration, scope: !5, entity: !498, file: !333, line: 228)
!498 = !DISubprogram(name: "strtoll", scope: !326, file: !326, line: 200, type: !499, flags: DIFlagPrototyped, spFlags: 0)
!499 = !DISubroutineType(types: !500)
!500 = !{!481, !425, !452, !15}
!501 = !DIImportedEntity(tag: DW_TAG_imported_declaration, scope: !5, entity: !502, file: !333, line: 229)
!502 = !DISubprogram(name: "strtoull", scope: !326, file: !326, line: 205, type: !503, flags: DIFlagPrototyped, spFlags: 0)
!503 = !DISubroutineType(types: !504)
!504 = !{!505, !425, !452, !15}
!505 = !DIBasicType(name: "long long unsigned int", size: 64, encoding: DW_ATE_unsigned)
!506 = !DIImportedEntity(tag: DW_TAG_imported_declaration, scope: !5, entity: !507, file: !333, line: 231)
!507 = !DISubprogram(name: "strtof", scope: !326, file: !326, line: 123, type: !508, flags: DIFlagPrototyped, spFlags: 0)
!508 = !DISubroutineType(types: !509)
!509 = !{!510, !425, !452}
!510 = !DIBasicType(name: "float", size: 32, encoding: DW_ATE_float)
!511 = !DIImportedEntity(tag: DW_TAG_imported_declaration, scope: !5, entity: !512, file: !333, line: 232)
!512 = !DISubprogram(name: "strtold", scope: !326, file: !326, line: 126, type: !513, flags: DIFlagPrototyped, spFlags: 0)
!513 = !DISubroutineType(types: !514)
!514 = !{!515, !425, !452}
!515 = !DIBasicType(name: "long double", size: 128, encoding: DW_ATE_float)
!516 = !DIImportedEntity(tag: DW_TAG_imported_declaration, scope: !258, entity: !477, file: !333, line: 240)
!517 = !DIImportedEntity(tag: DW_TAG_imported_declaration, scope: !258, entity: !484, file: !333, line: 242)
!518 = !DIImportedEntity(tag: DW_TAG_imported_declaration, scope: !258, entity: !486, file: !333, line: 244)
!519 = !DIImportedEntity(tag: DW_TAG_imported_declaration, scope: !258, entity: !520, file: !333, line: 245)
!520 = !DISubprogram(name: "div", linkageName: "_ZN9__gnu_cxx3divExx", scope: !5, file: !333, line: 213, type: !491, flags: DIFlagPrototyped, spFlags: 0)
!521 = !DIImportedEntity(tag: DW_TAG_imported_declaration, scope: !258, entity: !490, file: !333, line: 246)
!522 = !DIImportedEntity(tag: DW_TAG_imported_declaration, scope: !258, entity: !494, file: !333, line: 248)
!523 = !DIImportedEntity(tag: DW_TAG_imported_declaration, scope: !258, entity: !507, file: !333, line: 249)
!524 = !DIImportedEntity(tag: DW_TAG_imported_declaration, scope: !258, entity: !498, file: !333, line: 250)
!525 = !DIImportedEntity(tag: DW_TAG_imported_declaration, scope: !258, entity: !502, file: !333, line: 251)
!526 = !DIImportedEntity(tag: DW_TAG_imported_declaration, scope: !258, entity: !512, file: !333, line: 252)
!527 = !DIImportedEntity(tag: DW_TAG_imported_declaration, scope: !0, entity: !342, file: !528, line: 38)
!528 = !DIFile(filename: "/usr/lib/gcc/x86_64-linux-gnu/10/../../../../include/c++/10/stdlib.h", directory: "")
!529 = !DIImportedEntity(tag: DW_TAG_imported_declaration, scope: !0, entity: !346, file: !528, line: 39)
!530 = !DIImportedEntity(tag: DW_TAG_imported_declaration, scope: !0, entity: !390, file: !528, line: 40)
!531 = !DIImportedEntity(tag: DW_TAG_imported_declaration, scope: !0, entity: !351, file: !528, line: 43)
!532 = !DIImportedEntity(tag: DW_TAG_imported_declaration, scope: !0, entity: !435, file: !528, line: 46)
!533 = !DIImportedEntity(tag: DW_TAG_imported_declaration, scope: !0, entity: !331, file: !528, line: 51)
!534 = !DIImportedEntity(tag: DW_TAG_imported_declaration, scope: !0, entity: !335, file: !528, line: 52)
!535 = !DIImportedEntity(tag: DW_TAG_imported_declaration, scope: !0, entity: !536, file: !528, line: 54)
!536 = !DISubprogram(name: "abs", linkageName: "_ZSt3absg", scope: !258, file: !329, line: 103, type: !537, flags: DIFlagPrototyped, spFlags: 0)
!537 = !DISubroutineType(types: !538)
!538 = !{!539, !539}
!539 = !DIBasicType(name: "__float128", size: 128, encoding: DW_ATE_float)
!540 = !DIImportedEntity(tag: DW_TAG_imported_declaration, scope: !0, entity: !353, file: !528, line: 55)
!541 = !DIImportedEntity(tag: DW_TAG_imported_declaration, scope: !0, entity: !361, file: !528, line: 56)
!542 = !DIImportedEntity(tag: DW_TAG_imported_declaration, scope: !0, entity: !365, file: !528, line: 57)
!543 = !DIImportedEntity(tag: DW_TAG_imported_declaration, scope: !0, entity: !369, file: !528, line: 58)
!544 = !DIImportedEntity(tag: DW_TAG_imported_declaration, scope: !0, entity: !382, file: !528, line: 59)
!545 = !DIImportedEntity(tag: DW_TAG_imported_declaration, scope: !0, entity: !520, file: !528, line: 60)
!546 = !DIImportedEntity(tag: DW_TAG_imported_declaration, scope: !0, entity: !394, file: !528, line: 61)
!547 = !DIImportedEntity(tag: DW_TAG_imported_declaration, scope: !0, entity: !398, file: !528, line: 62)
!548 = !DIImportedEntity(tag: DW_TAG_imported_declaration, scope: !0, entity: !403, file: !528, line: 63)
!549 = !DIImportedEntity(tag: DW_TAG_imported_declaration, scope: !0, entity: !407, file: !528, line: 64)
!550 = !DIImportedEntity(tag: DW_TAG_imported_declaration, scope: !0, entity: !411, file: !528, line: 65)
!551 = !DIImportedEntity(tag: DW_TAG_imported_declaration, scope: !0, entity: !415, file: !528, line: 67)
!552 = !DIImportedEntity(tag: DW_TAG_imported_declaration, scope: !0, entity: !419, file: !528, line: 68)
!553 = !DIImportedEntity(tag: DW_TAG_imported_declaration, scope: !0, entity: !427, file: !528, line: 69)
!554 = !DIImportedEntity(tag: DW_TAG_imported_declaration, scope: !0, entity: !431, file: !528, line: 71)
!555 = !DIImportedEntity(tag: DW_TAG_imported_declaration, scope: !0, entity: !437, file: !528, line: 72)
!556 = !DIImportedEntity(tag: DW_TAG_imported_declaration, scope: !0, entity: !441, file: !528, line: 73)
!557 = !DIImportedEntity(tag: DW_TAG_imported_declaration, scope: !0, entity: !445, file: !528, line: 74)
!558 = !DIImportedEntity(tag: DW_TAG_imported_declaration, scope: !0, entity: !449, file: !528, line: 75)
!559 = !DIImportedEntity(tag: DW_TAG_imported_declaration, scope: !0, entity: !455, file: !528, line: 76)
!560 = !DIImportedEntity(tag: DW_TAG_imported_declaration, scope: !0, entity: !459, file: !528, line: 77)
!561 = !DIImportedEntity(tag: DW_TAG_imported_declaration, scope: !0, entity: !463, file: !528, line: 78)
!562 = !DIImportedEntity(tag: DW_TAG_imported_declaration, scope: !0, entity: !465, file: !528, line: 80)
!563 = !DIImportedEntity(tag: DW_TAG_imported_declaration, scope: !0, entity: !473, file: !528, line: 81)
!564 = !DIImportedEntity(tag: DW_TAG_imported_declaration, scope: !14, entity: !565, file: !567, line: 40)
!565 = !DICompositeType(tag: DW_TAG_class_type, name: "MemoryManager", scope: !253, file: !566, line: 38, flags: DIFlagFwdDecl, identifier: "_ZTSN11xercesc_2_713MemoryManagerE")
!566 = !DIFile(filename: "./xercesc/framework/MemoryManager.hpp", directory: "/home/venkat/IF-DV/spec_build_release/CPU_2017/benchspec/CPU/523.xalancbmk_r/build/build_base_ld-loop-ext-m64.0000")
!567 = !DIFile(filename: "./xalanc/Include/XalanMemoryManagement.hpp", directory: "/home/venkat/IF-DV/spec_build_release/CPU_2017/benchspec/CPU/523.xalancbmk_r/build/build_base_ld-loop-ext-m64.0000")
!568 = !DIImportedEntity(tag: DW_TAG_imported_declaration, scope: !14, entity: !565, file: !569, line: 40)
!569 = !DIFile(filename: "./xalanc/Include/XalanMemMgrAutoPtr.hpp", directory: "/home/venkat/IF-DV/spec_build_release/CPU_2017/benchspec/CPU/523.xalancbmk_r/build/build_base_ld-loop-ext-m64.0000")
!570 = !DIImportedEntity(tag: DW_TAG_imported_module, scope: !571, entity: !572, file: !573, line: 58)
!571 = !DINamespace(name: "__gnu_debug", scope: null)
!572 = !DINamespace(name: "__debug", scope: !258)
!573 = !DIFile(filename: "/usr/lib/gcc/x86_64-linux-gnu/10/../../../../include/c++/10/debug/debug.h", directory: "")
!574 = !DIImportedEntity(tag: DW_TAG_imported_declaration, scope: !258, entity: !575, file: !590, line: 64)
!575 = !DIDerivedType(tag: DW_TAG_typedef, name: "mbstate_t", file: !576, line: 6, baseType: !577)
!576 = !DIFile(filename: "/usr/include/x86_64-linux-gnu/bits/types/mbstate_t.h", directory: "")
!577 = !DIDerivedType(tag: DW_TAG_typedef, name: "__mbstate_t", file: !578, line: 21, baseType: !579)
!578 = !DIFile(filename: "/usr/include/x86_64-linux-gnu/bits/types/__mbstate_t.h", directory: "")
!579 = distinct !DICompositeType(tag: DW_TAG_structure_type, file: !578, line: 13, size: 64, flags: DIFlagTypePassByValue, elements: !580, identifier: "_ZTS11__mbstate_t")
!580 = !{!581, !582}
!581 = !DIDerivedType(tag: DW_TAG_member, name: "__count", scope: !579, file: !578, line: 15, baseType: !15, size: 32)
!582 = !DIDerivedType(tag: DW_TAG_member, name: "__value", scope: !579, file: !578, line: 20, baseType: !583, size: 32, offset: 32)
!583 = distinct !DICompositeType(tag: DW_TAG_union_type, scope: !579, file: !578, line: 16, size: 32, flags: DIFlagTypePassByValue, elements: !584, identifier: "_ZTSN11__mbstate_tUt_E")
!584 = !{!585, !586}
!585 = !DIDerivedType(tag: DW_TAG_member, name: "__wch", scope: !583, file: !578, line: 18, baseType: !6, size: 32)
!586 = !DIDerivedType(tag: DW_TAG_member, name: "__wchb", scope: !583, file: !578, line: 19, baseType: !587, size: 32)
!587 = !DICompositeType(tag: DW_TAG_array_type, baseType: !359, size: 32, elements: !588)
!588 = !{!589}
!589 = !DISubrange(count: 4)
!590 = !DIFile(filename: "/usr/lib/gcc/x86_64-linux-gnu/10/../../../../include/c++/10/cwchar", directory: "")
!591 = !DIImportedEntity(tag: DW_TAG_imported_declaration, scope: !258, entity: !592, file: !590, line: 141)
!592 = !DIDerivedType(tag: DW_TAG_typedef, name: "wint_t", file: !593, line: 20, baseType: !6)
!593 = !DIFile(filename: "/usr/include/x86_64-linux-gnu/bits/types/wint_t.h", directory: "")
!594 = !DIImportedEntity(tag: DW_TAG_imported_declaration, scope: !258, entity: !595, file: !590, line: 143)
!595 = !DISubprogram(name: "btowc", scope: !596, file: !596, line: 284, type: !597, flags: DIFlagPrototyped, spFlags: 0)
!596 = !DIFile(filename: "/usr/include/wchar.h", directory: "")
!597 = !DISubroutineType(types: !598)
!598 = !{!592, !15}
!599 = !DIImportedEntity(tag: DW_TAG_imported_declaration, scope: !258, entity: !600, file: !590, line: 144)
!600 = !DISubprogram(name: "fgetwc", scope: !596, file: !596, line: 726, type: !601, flags: DIFlagPrototyped, spFlags: 0)
!601 = !DISubroutineType(types: !602)
!602 = !{!592, !603}
!603 = !DIDerivedType(tag: DW_TAG_pointer_type, baseType: !604, size: 64)
!604 = !DIDerivedType(tag: DW_TAG_typedef, name: "__FILE", file: !605, line: 5, baseType: !606)
!605 = !DIFile(filename: "/usr/include/x86_64-linux-gnu/bits/types/__FILE.h", directory: "")
!606 = !DICompositeType(tag: DW_TAG_structure_type, name: "_IO_FILE", file: !605, line: 4, flags: DIFlagFwdDecl, identifier: "_ZTS8_IO_FILE")
!607 = !DIImportedEntity(tag: DW_TAG_imported_declaration, scope: !258, entity: !608, file: !590, line: 145)
!608 = !DISubprogram(name: "fgetws", scope: !596, file: !596, line: 755, type: !609, flags: DIFlagPrototyped, spFlags: 0)
!609 = !DISubroutineType(types: !610)
!610 = !{!423, !422, !15, !611}
!611 = !DIDerivedType(tag: DW_TAG_restrict_type, baseType: !603)
!612 = !DIImportedEntity(tag: DW_TAG_imported_declaration, scope: !258, entity: !613, file: !590, line: 146)
!613 = !DISubprogram(name: "fputwc", scope: !596, file: !596, line: 740, type: !614, flags: DIFlagPrototyped, spFlags: 0)
!614 = !DISubroutineType(types: !615)
!615 = !{!592, !424, !603}
!616 = !DIImportedEntity(tag: DW_TAG_imported_declaration, scope: !258, entity: !617, file: !590, line: 147)
!617 = !DISubprogram(name: "fputws", scope: !596, file: !596, line: 762, type: !618, flags: DIFlagPrototyped, spFlags: 0)
!618 = !DISubroutineType(types: !619)
!619 = !{!15, !469, !611}
!620 = !DIImportedEntity(tag: DW_TAG_imported_declaration, scope: !258, entity: !621, file: !590, line: 148)
!621 = !DISubprogram(name: "fwide", scope: !596, file: !596, line: 573, type: !622, flags: DIFlagPrototyped, spFlags: 0)
!622 = !DISubroutineType(types: !623)
!623 = !{!15, !603, !15}
!624 = !DIImportedEntity(tag: DW_TAG_imported_declaration, scope: !258, entity: !625, file: !590, line: 149)
!625 = !DISubprogram(name: "fwprintf", scope: !596, file: !596, line: 580, type: !626, flags: DIFlagPrototyped, spFlags: 0)
!626 = !DISubroutineType(types: !627)
!627 = !{!15, !611, !469, null}
!628 = !DIImportedEntity(tag: DW_TAG_imported_declaration, scope: !258, entity: !629, file: !590, line: 150)
!629 = !DISubprogram(name: "fwscanf", linkageName: "__isoc99_fwscanf", scope: !596, file: !596, line: 640, type: !626, flags: DIFlagPrototyped, spFlags: 0)
!630 = !DIImportedEntity(tag: DW_TAG_imported_declaration, scope: !258, entity: !631, file: !590, line: 151)
!631 = !DISubprogram(name: "getwc", scope: !596, file: !596, line: 727, type: !601, flags: DIFlagPrototyped, spFlags: 0)
!632 = !DIImportedEntity(tag: DW_TAG_imported_declaration, scope: !258, entity: !633, file: !590, line: 152)
!633 = !DISubprogram(name: "getwchar", scope: !596, file: !596, line: 733, type: !634, flags: DIFlagPrototyped, spFlags: 0)
!634 = !DISubroutineType(types: !635)
!635 = !{!592}
!636 = !DIImportedEntity(tag: DW_TAG_imported_declaration, scope: !258, entity: !637, file: !590, line: 153)
!637 = !DISubprogram(name: "mbrlen", scope: !596, file: !596, line: 307, type: !638, flags: DIFlagPrototyped, spFlags: 0)
!638 = !DISubroutineType(types: !639)
!639 = !{!374, !425, !374, !640}
!640 = !DIDerivedType(tag: DW_TAG_restrict_type, baseType: !641)
!641 = !DIDerivedType(tag: DW_TAG_pointer_type, baseType: !575, size: 64)
!642 = !DIImportedEntity(tag: DW_TAG_imported_declaration, scope: !258, entity: !643, file: !590, line: 154)
!643 = !DISubprogram(name: "mbrtowc", scope: !596, file: !596, line: 296, type: !644, flags: DIFlagPrototyped, spFlags: 0)
!644 = !DISubroutineType(types: !645)
!645 = !{!374, !422, !425, !374, !640}
!646 = !DIImportedEntity(tag: DW_TAG_imported_declaration, scope: !258, entity: !647, file: !590, line: 155)
!647 = !DISubprogram(name: "mbsinit", scope: !596, file: !596, line: 292, type: !648, flags: DIFlagPrototyped, spFlags: 0)
!648 = !DISubroutineType(types: !649)
!649 = !{!15, !650}
!650 = !DIDerivedType(tag: DW_TAG_pointer_type, baseType: !651, size: 64)
!651 = !DIDerivedType(tag: DW_TAG_const_type, baseType: !575)
!652 = !DIImportedEntity(tag: DW_TAG_imported_declaration, scope: !258, entity: !653, file: !590, line: 156)
!653 = !DISubprogram(name: "mbsrtowcs", scope: !596, file: !596, line: 337, type: !654, flags: DIFlagPrototyped, spFlags: 0)
!654 = !DISubroutineType(types: !655)
!655 = !{!374, !422, !656, !374, !640}
!656 = !DIDerivedType(tag: DW_TAG_restrict_type, baseType: !657)
!657 = !DIDerivedType(tag: DW_TAG_pointer_type, baseType: !357, size: 64)
!658 = !DIImportedEntity(tag: DW_TAG_imported_declaration, scope: !258, entity: !659, file: !590, line: 157)
!659 = !DISubprogram(name: "putwc", scope: !596, file: !596, line: 741, type: !614, flags: DIFlagPrototyped, spFlags: 0)
!660 = !DIImportedEntity(tag: DW_TAG_imported_declaration, scope: !258, entity: !661, file: !590, line: 158)
!661 = !DISubprogram(name: "putwchar", scope: !596, file: !596, line: 747, type: !662, flags: DIFlagPrototyped, spFlags: 0)
!662 = !DISubroutineType(types: !663)
!663 = !{!592, !424}
!664 = !DIImportedEntity(tag: DW_TAG_imported_declaration, scope: !258, entity: !665, file: !590, line: 160)
!665 = !DISubprogram(name: "swprintf", scope: !596, file: !596, line: 590, type: !666, flags: DIFlagPrototyped, spFlags: 0)
!666 = !DISubroutineType(types: !667)
!667 = !{!15, !422, !374, !469, null}
!668 = !DIImportedEntity(tag: DW_TAG_imported_declaration, scope: !258, entity: !669, file: !590, line: 162)
!669 = !DISubprogram(name: "swscanf", linkageName: "__isoc99_swscanf", scope: !596, file: !596, line: 647, type: !670, flags: DIFlagPrototyped, spFlags: 0)
!670 = !DISubroutineType(types: !671)
!671 = !{!15, !469, !469, null}
!672 = !DIImportedEntity(tag: DW_TAG_imported_declaration, scope: !258, entity: !673, file: !590, line: 163)
!673 = !DISubprogram(name: "ungetwc", scope: !596, file: !596, line: 770, type: !674, flags: DIFlagPrototyped, spFlags: 0)
!674 = !DISubroutineType(types: !675)
!675 = !{!592, !592, !603}
!676 = !DIImportedEntity(tag: DW_TAG_imported_declaration, scope: !258, entity: !677, file: !590, line: 164)
!677 = !DISubprogram(name: "vfwprintf", scope: !596, file: !596, line: 598, type: !678, flags: DIFlagPrototyped, spFlags: 0)
!678 = !DISubroutineType(types: !679)
!679 = !{!15, !611, !469, !680}
!680 = !DIDerivedType(tag: DW_TAG_pointer_type, baseType: !681, size: 64)
!681 = distinct !DICompositeType(tag: DW_TAG_structure_type, name: "__va_list_tag", file: !1, size: 192, flags: DIFlagTypePassByValue, elements: !682, identifier: "_ZTS13__va_list_tag")
!682 = !{!683, !684, !685, !686}
!683 = !DIDerivedType(tag: DW_TAG_member, name: "gp_offset", scope: !681, file: !1, baseType: !6, size: 32)
!684 = !DIDerivedType(tag: DW_TAG_member, name: "fp_offset", scope: !681, file: !1, baseType: !6, size: 32, offset: 32)
!685 = !DIDerivedType(tag: DW_TAG_member, name: "overflow_arg_area", scope: !681, file: !1, baseType: !269, size: 64, offset: 64)
!686 = !DIDerivedType(tag: DW_TAG_member, name: "reg_save_area", scope: !681, file: !1, baseType: !269, size: 64, offset: 128)
!687 = !DIImportedEntity(tag: DW_TAG_imported_declaration, scope: !258, entity: !688, file: !590, line: 166)
!688 = !DISubprogram(name: "vfwscanf", linkageName: "__isoc99_vfwscanf", scope: !596, file: !596, line: 693, type: !678, flags: DIFlagPrototyped, spFlags: 0)
!689 = !DIImportedEntity(tag: DW_TAG_imported_declaration, scope: !258, entity: !690, file: !590, line: 169)
!690 = !DISubprogram(name: "vswprintf", scope: !596, file: !596, line: 611, type: !691, flags: DIFlagPrototyped, spFlags: 0)
!691 = !DISubroutineType(types: !692)
!692 = !{!15, !422, !374, !469, !680}
!693 = !DIImportedEntity(tag: DW_TAG_imported_declaration, scope: !258, entity: !694, file: !590, line: 172)
!694 = !DISubprogram(name: "vswscanf", linkageName: "__isoc99_vswscanf", scope: !596, file: !596, line: 700, type: !695, flags: DIFlagPrototyped, spFlags: 0)
!695 = !DISubroutineType(types: !696)
!696 = !{!15, !469, !469, !680}
!697 = !DIImportedEntity(tag: DW_TAG_imported_declaration, scope: !258, entity: !698, file: !590, line: 174)
!698 = !DISubprogram(name: "vwprintf", scope: !596, file: !596, line: 606, type: !699, flags: DIFlagPrototyped, spFlags: 0)
!699 = !DISubroutineType(types: !700)
!700 = !{!15, !469, !680}
!701 = !DIImportedEntity(tag: DW_TAG_imported_declaration, scope: !258, entity: !702, file: !590, line: 176)
!702 = !DISubprogram(name: "vwscanf", linkageName: "__isoc99_vwscanf", scope: !596, file: !596, line: 697, type: !699, flags: DIFlagPrototyped, spFlags: 0)
!703 = !DIImportedEntity(tag: DW_TAG_imported_declaration, scope: !258, entity: !704, file: !590, line: 178)
!704 = !DISubprogram(name: "wcrtomb", scope: !596, file: !596, line: 301, type: !705, flags: DIFlagPrototyped, spFlags: 0)
!705 = !DISubroutineType(types: !706)
!706 = !{!374, !468, !424, !640}
!707 = !DIImportedEntity(tag: DW_TAG_imported_declaration, scope: !258, entity: !708, file: !590, line: 179)
!708 = !DISubprogram(name: "wcscat", scope: !596, file: !596, line: 97, type: !709, flags: DIFlagPrototyped, spFlags: 0)
!709 = !DISubroutineType(types: !710)
!710 = !{!423, !422, !469}
!711 = !DIImportedEntity(tag: DW_TAG_imported_declaration, scope: !258, entity: !712, file: !590, line: 180)
!712 = !DISubprogram(name: "wcscmp", scope: !596, file: !596, line: 106, type: !713, flags: DIFlagPrototyped, spFlags: 0)
!713 = !DISubroutineType(types: !714)
!714 = !{!15, !470, !470}
!715 = !DIImportedEntity(tag: DW_TAG_imported_declaration, scope: !258, entity: !716, file: !590, line: 181)
!716 = !DISubprogram(name: "wcscoll", scope: !596, file: !596, line: 131, type: !713, flags: DIFlagPrototyped, spFlags: 0)
!717 = !DIImportedEntity(tag: DW_TAG_imported_declaration, scope: !258, entity: !718, file: !590, line: 182)
!718 = !DISubprogram(name: "wcscpy", scope: !596, file: !596, line: 87, type: !709, flags: DIFlagPrototyped, spFlags: 0)
!719 = !DIImportedEntity(tag: DW_TAG_imported_declaration, scope: !258, entity: !720, file: !590, line: 183)
!720 = !DISubprogram(name: "wcscspn", scope: !596, file: !596, line: 187, type: !721, flags: DIFlagPrototyped, spFlags: 0)
!721 = !DISubroutineType(types: !722)
!722 = !{!374, !470, !470}
!723 = !DIImportedEntity(tag: DW_TAG_imported_declaration, scope: !258, entity: !724, file: !590, line: 184)
!724 = !DISubprogram(name: "wcsftime", scope: !596, file: !596, line: 834, type: !725, flags: DIFlagPrototyped, spFlags: 0)
!725 = !DISubroutineType(types: !726)
!726 = !{!374, !422, !374, !469, !727}
!727 = !DIDerivedType(tag: DW_TAG_restrict_type, baseType: !728)
!728 = !DIDerivedType(tag: DW_TAG_pointer_type, baseType: !729, size: 64)
!729 = !DIDerivedType(tag: DW_TAG_const_type, baseType: !730)
!730 = !DICompositeType(tag: DW_TAG_structure_type, name: "tm", file: !596, line: 83, flags: DIFlagFwdDecl, identifier: "_ZTS2tm")
!731 = !DIImportedEntity(tag: DW_TAG_imported_declaration, scope: !258, entity: !732, file: !590, line: 185)
!732 = !DISubprogram(name: "wcslen", scope: !596, file: !596, line: 222, type: !733, flags: DIFlagPrototyped, spFlags: 0)
!733 = !DISubroutineType(types: !734)
!734 = !{!374, !470}
!735 = !DIImportedEntity(tag: DW_TAG_imported_declaration, scope: !258, entity: !736, file: !590, line: 186)
!736 = !DISubprogram(name: "wcsncat", scope: !596, file: !596, line: 101, type: !737, flags: DIFlagPrototyped, spFlags: 0)
!737 = !DISubroutineType(types: !738)
!738 = !{!423, !422, !469, !374}
!739 = !DIImportedEntity(tag: DW_TAG_imported_declaration, scope: !258, entity: !740, file: !590, line: 187)
!740 = !DISubprogram(name: "wcsncmp", scope: !596, file: !596, line: 109, type: !741, flags: DIFlagPrototyped, spFlags: 0)
!741 = !DISubroutineType(types: !742)
!742 = !{!15, !470, !470, !374}
!743 = !DIImportedEntity(tag: DW_TAG_imported_declaration, scope: !258, entity: !744, file: !590, line: 188)
!744 = !DISubprogram(name: "wcsncpy", scope: !596, file: !596, line: 92, type: !737, flags: DIFlagPrototyped, spFlags: 0)
!745 = !DIImportedEntity(tag: DW_TAG_imported_declaration, scope: !258, entity: !746, file: !590, line: 189)
!746 = !DISubprogram(name: "wcsrtombs", scope: !596, file: !596, line: 343, type: !747, flags: DIFlagPrototyped, spFlags: 0)
!747 = !DISubroutineType(types: !748)
!748 = !{!374, !468, !749, !374, !640}
!749 = !DIDerivedType(tag: DW_TAG_restrict_type, baseType: !750)
!750 = !DIDerivedType(tag: DW_TAG_pointer_type, baseType: !470, size: 64)
!751 = !DIImportedEntity(tag: DW_TAG_imported_declaration, scope: !258, entity: !752, file: !590, line: 190)
!752 = !DISubprogram(name: "wcsspn", scope: !596, file: !596, line: 191, type: !721, flags: DIFlagPrototyped, spFlags: 0)
!753 = !DIImportedEntity(tag: DW_TAG_imported_declaration, scope: !258, entity: !754, file: !590, line: 191)
!754 = !DISubprogram(name: "wcstod", scope: !596, file: !596, line: 377, type: !755, flags: DIFlagPrototyped, spFlags: 0)
!755 = !DISubroutineType(types: !756)
!756 = !{!356, !469, !757}
!757 = !DIDerivedType(tag: DW_TAG_restrict_type, baseType: !758)
!758 = !DIDerivedType(tag: DW_TAG_pointer_type, baseType: !423, size: 64)
!759 = !DIImportedEntity(tag: DW_TAG_imported_declaration, scope: !258, entity: !760, file: !590, line: 193)
!760 = !DISubprogram(name: "wcstof", scope: !596, file: !596, line: 382, type: !761, flags: DIFlagPrototyped, spFlags: 0)
!761 = !DISubroutineType(types: !762)
!762 = !{!510, !469, !757}
!763 = !DIImportedEntity(tag: DW_TAG_imported_declaration, scope: !258, entity: !764, file: !590, line: 195)
!764 = !DISubprogram(name: "wcstok", scope: !596, file: !596, line: 217, type: !765, flags: DIFlagPrototyped, spFlags: 0)
!765 = !DISubroutineType(types: !766)
!766 = !{!423, !422, !469, !757}
!767 = !DIImportedEntity(tag: DW_TAG_imported_declaration, scope: !258, entity: !768, file: !590, line: 196)
!768 = !DISubprogram(name: "wcstol", scope: !596, file: !596, line: 428, type: !769, flags: DIFlagPrototyped, spFlags: 0)
!769 = !DISubroutineType(types: !770)
!770 = !{!339, !469, !757, !15}
!771 = !DIImportedEntity(tag: DW_TAG_imported_declaration, scope: !258, entity: !772, file: !590, line: 197)
!772 = !DISubprogram(name: "wcstoul", scope: !596, file: !596, line: 433, type: !773, flags: DIFlagPrototyped, spFlags: 0)
!773 = !DISubroutineType(types: !774)
!774 = !{!376, !469, !757, !15}
!775 = !DIImportedEntity(tag: DW_TAG_imported_declaration, scope: !258, entity: !776, file: !590, line: 198)
!776 = !DISubprogram(name: "wcsxfrm", scope: !596, file: !596, line: 135, type: !777, flags: DIFlagPrototyped, spFlags: 0)
!777 = !DISubroutineType(types: !778)
!778 = !{!374, !422, !469, !374}
!779 = !DIImportedEntity(tag: DW_TAG_imported_declaration, scope: !258, entity: !780, file: !590, line: 199)
!780 = !DISubprogram(name: "wctob", scope: !596, file: !596, line: 288, type: !781, flags: DIFlagPrototyped, spFlags: 0)
!781 = !DISubroutineType(types: !782)
!782 = !{!15, !592}
!783 = !DIImportedEntity(tag: DW_TAG_imported_declaration, scope: !258, entity: !784, file: !590, line: 200)
!784 = !DISubprogram(name: "wmemcmp", scope: !596, file: !596, line: 258, type: !741, flags: DIFlagPrototyped, spFlags: 0)
!785 = !DIImportedEntity(tag: DW_TAG_imported_declaration, scope: !258, entity: !786, file: !590, line: 201)
!786 = !DISubprogram(name: "wmemcpy", scope: !596, file: !596, line: 262, type: !737, flags: DIFlagPrototyped, spFlags: 0)
!787 = !DIImportedEntity(tag: DW_TAG_imported_declaration, scope: !258, entity: !788, file: !590, line: 202)
!788 = !DISubprogram(name: "wmemmove", scope: !596, file: !596, line: 267, type: !789, flags: DIFlagPrototyped, spFlags: 0)
!789 = !DISubroutineType(types: !790)
!790 = !{!423, !423, !470, !374}
!791 = !DIImportedEntity(tag: DW_TAG_imported_declaration, scope: !258, entity: !792, file: !590, line: 203)
!792 = !DISubprogram(name: "wmemset", scope: !596, file: !596, line: 271, type: !793, flags: DIFlagPrototyped, spFlags: 0)
!793 = !DISubroutineType(types: !794)
!794 = !{!423, !423, !424, !374}
!795 = !DIImportedEntity(tag: DW_TAG_imported_declaration, scope: !258, entity: !796, file: !590, line: 204)
!796 = !DISubprogram(name: "wprintf", scope: !596, file: !596, line: 587, type: !797, flags: DIFlagPrototyped, spFlags: 0)
!797 = !DISubroutineType(types: !798)
!798 = !{!15, !469, null}
!799 = !DIImportedEntity(tag: DW_TAG_imported_declaration, scope: !258, entity: !800, file: !590, line: 205)
!800 = !DISubprogram(name: "wscanf", linkageName: "__isoc99_wscanf", scope: !596, file: !596, line: 644, type: !797, flags: DIFlagPrototyped, spFlags: 0)
!801 = !DIImportedEntity(tag: DW_TAG_imported_declaration, scope: !258, entity: !802, file: !590, line: 206)
!802 = !DISubprogram(name: "wcschr", scope: !596, file: !596, line: 164, type: !803, flags: DIFlagPrototyped, spFlags: 0)
!803 = !DISubroutineType(types: !804)
!804 = !{!423, !470, !424}
!805 = !DIImportedEntity(tag: DW_TAG_imported_declaration, scope: !258, entity: !806, file: !590, line: 207)
!806 = !DISubprogram(name: "wcspbrk", scope: !596, file: !596, line: 201, type: !807, flags: DIFlagPrototyped, spFlags: 0)
!807 = !DISubroutineType(types: !808)
!808 = !{!423, !470, !470}
!809 = !DIImportedEntity(tag: DW_TAG_imported_declaration, scope: !258, entity: !810, file: !590, line: 208)
!810 = !DISubprogram(name: "wcsrchr", scope: !596, file: !596, line: 174, type: !803, flags: DIFlagPrototyped, spFlags: 0)
!811 = !DIImportedEntity(tag: DW_TAG_imported_declaration, scope: !258, entity: !812, file: !590, line: 209)
!812 = !DISubprogram(name: "wcsstr", scope: !596, file: !596, line: 212, type: !807, flags: DIFlagPrototyped, spFlags: 0)
!813 = !DIImportedEntity(tag: DW_TAG_imported_declaration, scope: !258, entity: !814, file: !590, line: 210)
!814 = !DISubprogram(name: "wmemchr", scope: !596, file: !596, line: 253, type: !815, flags: DIFlagPrototyped, spFlags: 0)
!815 = !DISubroutineType(types: !816)
!816 = !{!423, !470, !424, !374}
!817 = !DIImportedEntity(tag: DW_TAG_imported_declaration, scope: !5, entity: !818, file: !590, line: 251)
!818 = !DISubprogram(name: "wcstold", scope: !596, file: !596, line: 384, type: !819, flags: DIFlagPrototyped, spFlags: 0)
!819 = !DISubroutineType(types: !820)
!820 = !{!515, !469, !757}
!821 = !DIImportedEntity(tag: DW_TAG_imported_declaration, scope: !5, entity: !822, file: !590, line: 260)
!822 = !DISubprogram(name: "wcstoll", scope: !596, file: !596, line: 441, type: !823, flags: DIFlagPrototyped, spFlags: 0)
!823 = !DISubroutineType(types: !824)
!824 = !{!481, !469, !757, !15}
!825 = !DIImportedEntity(tag: DW_TAG_imported_declaration, scope: !5, entity: !826, file: !590, line: 261)
!826 = !DISubprogram(name: "wcstoull", scope: !596, file: !596, line: 448, type: !827, flags: DIFlagPrototyped, spFlags: 0)
!827 = !DISubroutineType(types: !828)
!828 = !{!505, !469, !757, !15}
!829 = !DIImportedEntity(tag: DW_TAG_imported_declaration, scope: !258, entity: !818, file: !590, line: 267)
!830 = !DIImportedEntity(tag: DW_TAG_imported_declaration, scope: !258, entity: !822, file: !590, line: 268)
!831 = !DIImportedEntity(tag: DW_TAG_imported_declaration, scope: !258, entity: !826, file: !590, line: 269)
!832 = !DIImportedEntity(tag: DW_TAG_imported_declaration, scope: !258, entity: !760, file: !590, line: 283)
!833 = !DIImportedEntity(tag: DW_TAG_imported_declaration, scope: !258, entity: !688, file: !590, line: 286)
!834 = !DIImportedEntity(tag: DW_TAG_imported_declaration, scope: !258, entity: !694, file: !590, line: 289)
!835 = !DIImportedEntity(tag: DW_TAG_imported_declaration, scope: !258, entity: !702, file: !590, line: 292)
!836 = !DIImportedEntity(tag: DW_TAG_imported_declaration, scope: !258, entity: !818, file: !590, line: 296)
!837 = !DIImportedEntity(tag: DW_TAG_imported_declaration, scope: !258, entity: !822, file: !590, line: 297)
!838 = !DIImportedEntity(tag: DW_TAG_imported_declaration, scope: !258, entity: !826, file: !590, line: 298)
!839 = !DIImportedEntity(tag: DW_TAG_imported_declaration, scope: !258, entity: !840, file: !842, line: 53)
!840 = !DICompositeType(tag: DW_TAG_structure_type, name: "lconv", file: !841, line: 51, flags: DIFlagFwdDecl, identifier: "_ZTS5lconv")
!841 = !DIFile(filename: "/usr/include/locale.h", directory: "")
!842 = !DIFile(filename: "/usr/lib/gcc/x86_64-linux-gnu/10/../../../../include/c++/10/clocale", directory: "")
!843 = !DIImportedEntity(tag: DW_TAG_imported_declaration, scope: !258, entity: !844, file: !842, line: 54)
!844 = !DISubprogram(name: "setlocale", scope: !841, file: !841, line: 122, type: !845, flags: DIFlagPrototyped, spFlags: 0)
!845 = !DISubroutineType(types: !846)
!846 = !{!401, !15, !357}
!847 = !DIImportedEntity(tag: DW_TAG_imported_declaration, scope: !258, entity: !848, file: !842, line: 55)
!848 = !DISubprogram(name: "localeconv", scope: !841, file: !841, line: 125, type: !849, flags: DIFlagPrototyped, spFlags: 0)
!849 = !DISubroutineType(types: !850)
!850 = !{!851}
!851 = !DIDerivedType(tag: DW_TAG_pointer_type, baseType: !840, size: 64)
!852 = !DIImportedEntity(tag: DW_TAG_imported_declaration, scope: !258, entity: !853, file: !855, line: 64)
!853 = !DISubprogram(name: "isalnum", scope: !854, file: !854, line: 108, type: !327, flags: DIFlagPrototyped, spFlags: 0)
!854 = !DIFile(filename: "/usr/include/ctype.h", directory: "")
!855 = !DIFile(filename: "/usr/lib/gcc/x86_64-linux-gnu/10/../../../../include/c++/10/cctype", directory: "")
!856 = !DIImportedEntity(tag: DW_TAG_imported_declaration, scope: !258, entity: !857, file: !855, line: 65)
!857 = !DISubprogram(name: "isalpha", scope: !854, file: !854, line: 109, type: !327, flags: DIFlagPrototyped, spFlags: 0)
!858 = !DIImportedEntity(tag: DW_TAG_imported_declaration, scope: !258, entity: !859, file: !855, line: 66)
!859 = !DISubprogram(name: "iscntrl", scope: !854, file: !854, line: 110, type: !327, flags: DIFlagPrototyped, spFlags: 0)
!860 = !DIImportedEntity(tag: DW_TAG_imported_declaration, scope: !258, entity: !861, file: !855, line: 67)
!861 = !DISubprogram(name: "isdigit", scope: !854, file: !854, line: 111, type: !327, flags: DIFlagPrototyped, spFlags: 0)
!862 = !DIImportedEntity(tag: DW_TAG_imported_declaration, scope: !258, entity: !863, file: !855, line: 68)
!863 = !DISubprogram(name: "isgraph", scope: !854, file: !854, line: 113, type: !327, flags: DIFlagPrototyped, spFlags: 0)
!864 = !DIImportedEntity(tag: DW_TAG_imported_declaration, scope: !258, entity: !865, file: !855, line: 69)
!865 = !DISubprogram(name: "islower", scope: !854, file: !854, line: 112, type: !327, flags: DIFlagPrototyped, spFlags: 0)
!866 = !DIImportedEntity(tag: DW_TAG_imported_declaration, scope: !258, entity: !867, file: !855, line: 70)
!867 = !DISubprogram(name: "isprint", scope: !854, file: !854, line: 114, type: !327, flags: DIFlagPrototyped, spFlags: 0)
!868 = !DIImportedEntity(tag: DW_TAG_imported_declaration, scope: !258, entity: !869, file: !855, line: 71)
!869 = !DISubprogram(name: "ispunct", scope: !854, file: !854, line: 115, type: !327, flags: DIFlagPrototyped, spFlags: 0)
!870 = !DIImportedEntity(tag: DW_TAG_imported_declaration, scope: !258, entity: !871, file: !855, line: 72)
!871 = !DISubprogram(name: "isspace", scope: !854, file: !854, line: 116, type: !327, flags: DIFlagPrototyped, spFlags: 0)
!872 = !DIImportedEntity(tag: DW_TAG_imported_declaration, scope: !258, entity: !873, file: !855, line: 73)
!873 = !DISubprogram(name: "isupper", scope: !854, file: !854, line: 117, type: !327, flags: DIFlagPrototyped, spFlags: 0)
!874 = !DIImportedEntity(tag: DW_TAG_imported_declaration, scope: !258, entity: !875, file: !855, line: 74)
!875 = !DISubprogram(name: "isxdigit", scope: !854, file: !854, line: 118, type: !327, flags: DIFlagPrototyped, spFlags: 0)
!876 = !DIImportedEntity(tag: DW_TAG_imported_declaration, scope: !258, entity: !877, file: !855, line: 75)
!877 = !DISubprogram(name: "tolower", scope: !854, file: !854, line: 122, type: !327, flags: DIFlagPrototyped, spFlags: 0)
!878 = !DIImportedEntity(tag: DW_TAG_imported_declaration, scope: !258, entity: !879, file: !855, line: 76)
!879 = !DISubprogram(name: "toupper", scope: !854, file: !854, line: 125, type: !327, flags: DIFlagPrototyped, spFlags: 0)
!880 = !DIImportedEntity(tag: DW_TAG_imported_declaration, scope: !258, entity: !881, file: !855, line: 87)
!881 = !DISubprogram(name: "isblank", scope: !854, file: !854, line: 130, type: !327, flags: DIFlagPrototyped, spFlags: 0)
!882 = !DIImportedEntity(tag: DW_TAG_imported_declaration, scope: !258, entity: !883, file: !888, line: 47)
!883 = !DIDerivedType(tag: DW_TAG_typedef, name: "int8_t", file: !884, line: 24, baseType: !885)
!884 = !DIFile(filename: "/usr/include/x86_64-linux-gnu/bits/stdint-intn.h", directory: "")
!885 = !DIDerivedType(tag: DW_TAG_typedef, name: "__int8_t", file: !886, line: 37, baseType: !887)
!886 = !DIFile(filename: "/usr/include/x86_64-linux-gnu/bits/types.h", directory: "")
!887 = !DIBasicType(name: "signed char", size: 8, encoding: DW_ATE_signed_char)
!888 = !DIFile(filename: "/usr/lib/gcc/x86_64-linux-gnu/10/../../../../include/c++/10/cstdint", directory: "")
!889 = !DIImportedEntity(tag: DW_TAG_imported_declaration, scope: !258, entity: !890, file: !888, line: 48)
!890 = !DIDerivedType(tag: DW_TAG_typedef, name: "int16_t", file: !884, line: 25, baseType: !891)
!891 = !DIDerivedType(tag: DW_TAG_typedef, name: "__int16_t", file: !886, line: 39, baseType: !892)
!892 = !DIBasicType(name: "short", size: 16, encoding: DW_ATE_signed)
!893 = !DIImportedEntity(tag: DW_TAG_imported_declaration, scope: !258, entity: !894, file: !888, line: 49)
!894 = !DIDerivedType(tag: DW_TAG_typedef, name: "int32_t", file: !884, line: 26, baseType: !895)
!895 = !DIDerivedType(tag: DW_TAG_typedef, name: "__int32_t", file: !886, line: 41, baseType: !15)
!896 = !DIImportedEntity(tag: DW_TAG_imported_declaration, scope: !258, entity: !897, file: !888, line: 50)
!897 = !DIDerivedType(tag: DW_TAG_typedef, name: "int64_t", file: !884, line: 27, baseType: !898)
!898 = !DIDerivedType(tag: DW_TAG_typedef, name: "__int64_t", file: !886, line: 44, baseType: !339)
!899 = !DIImportedEntity(tag: DW_TAG_imported_declaration, scope: !258, entity: !900, file: !888, line: 52)
!900 = !DIDerivedType(tag: DW_TAG_typedef, name: "int_fast8_t", file: !901, line: 58, baseType: !887)
!901 = !DIFile(filename: "/usr/include/stdint.h", directory: "")
!902 = !DIImportedEntity(tag: DW_TAG_imported_declaration, scope: !258, entity: !903, file: !888, line: 53)
!903 = !DIDerivedType(tag: DW_TAG_typedef, name: "int_fast16_t", file: !901, line: 60, baseType: !339)
!904 = !DIImportedEntity(tag: DW_TAG_imported_declaration, scope: !258, entity: !905, file: !888, line: 54)
!905 = !DIDerivedType(tag: DW_TAG_typedef, name: "int_fast32_t", file: !901, line: 61, baseType: !339)
!906 = !DIImportedEntity(tag: DW_TAG_imported_declaration, scope: !258, entity: !907, file: !888, line: 55)
!907 = !DIDerivedType(tag: DW_TAG_typedef, name: "int_fast64_t", file: !901, line: 62, baseType: !339)
!908 = !DIImportedEntity(tag: DW_TAG_imported_declaration, scope: !258, entity: !909, file: !888, line: 57)
!909 = !DIDerivedType(tag: DW_TAG_typedef, name: "int_least8_t", file: !901, line: 43, baseType: !910)
!910 = !DIDerivedType(tag: DW_TAG_typedef, name: "__int_least8_t", file: !886, line: 52, baseType: !885)
!911 = !DIImportedEntity(tag: DW_TAG_imported_declaration, scope: !258, entity: !912, file: !888, line: 58)
!912 = !DIDerivedType(tag: DW_TAG_typedef, name: "int_least16_t", file: !901, line: 44, baseType: !913)
!913 = !DIDerivedType(tag: DW_TAG_typedef, name: "__int_least16_t", file: !886, line: 54, baseType: !891)
!914 = !DIImportedEntity(tag: DW_TAG_imported_declaration, scope: !258, entity: !915, file: !888, line: 59)
!915 = !DIDerivedType(tag: DW_TAG_typedef, name: "int_least32_t", file: !901, line: 45, baseType: !916)
!916 = !DIDerivedType(tag: DW_TAG_typedef, name: "__int_least32_t", file: !886, line: 56, baseType: !895)
!917 = !DIImportedEntity(tag: DW_TAG_imported_declaration, scope: !258, entity: !918, file: !888, line: 60)
!918 = !DIDerivedType(tag: DW_TAG_typedef, name: "int_least64_t", file: !901, line: 46, baseType: !919)
!919 = !DIDerivedType(tag: DW_TAG_typedef, name: "__int_least64_t", file: !886, line: 58, baseType: !898)
!920 = !DIImportedEntity(tag: DW_TAG_imported_declaration, scope: !258, entity: !921, file: !888, line: 62)
!921 = !DIDerivedType(tag: DW_TAG_typedef, name: "intmax_t", file: !901, line: 101, baseType: !922)
!922 = !DIDerivedType(tag: DW_TAG_typedef, name: "__intmax_t", file: !886, line: 72, baseType: !339)
!923 = !DIImportedEntity(tag: DW_TAG_imported_declaration, scope: !258, entity: !924, file: !888, line: 63)
!924 = !DIDerivedType(tag: DW_TAG_typedef, name: "intptr_t", file: !901, line: 87, baseType: !339)
!925 = !DIImportedEntity(tag: DW_TAG_imported_declaration, scope: !258, entity: !926, file: !888, line: 65)
!926 = !DIDerivedType(tag: DW_TAG_typedef, name: "uint8_t", file: !927, line: 24, baseType: !928)
!927 = !DIFile(filename: "/usr/include/x86_64-linux-gnu/bits/stdint-uintn.h", directory: "")
!928 = !DIDerivedType(tag: DW_TAG_typedef, name: "__uint8_t", file: !886, line: 38, baseType: !929)
!929 = !DIBasicType(name: "unsigned char", size: 8, encoding: DW_ATE_unsigned_char)
!930 = !DIImportedEntity(tag: DW_TAG_imported_declaration, scope: !258, entity: !931, file: !888, line: 66)
!931 = !DIDerivedType(tag: DW_TAG_typedef, name: "uint16_t", file: !927, line: 25, baseType: !932)
!932 = !DIDerivedType(tag: DW_TAG_typedef, name: "__uint16_t", file: !886, line: 40, baseType: !933)
!933 = !DIBasicType(name: "unsigned short", size: 16, encoding: DW_ATE_unsigned)
!934 = !DIImportedEntity(tag: DW_TAG_imported_declaration, scope: !258, entity: !935, file: !888, line: 67)
!935 = !DIDerivedType(tag: DW_TAG_typedef, name: "uint32_t", file: !927, line: 26, baseType: !936)
!936 = !DIDerivedType(tag: DW_TAG_typedef, name: "__uint32_t", file: !886, line: 42, baseType: !6)
!937 = !DIImportedEntity(tag: DW_TAG_imported_declaration, scope: !258, entity: !938, file: !888, line: 68)
!938 = !DIDerivedType(tag: DW_TAG_typedef, name: "uint64_t", file: !927, line: 27, baseType: !939)
!939 = !DIDerivedType(tag: DW_TAG_typedef, name: "__uint64_t", file: !886, line: 45, baseType: !376)
!940 = !DIImportedEntity(tag: DW_TAG_imported_declaration, scope: !258, entity: !941, file: !888, line: 70)
!941 = !DIDerivedType(tag: DW_TAG_typedef, name: "uint_fast8_t", file: !901, line: 71, baseType: !929)
!942 = !DIImportedEntity(tag: DW_TAG_imported_declaration, scope: !258, entity: !943, file: !888, line: 71)
!943 = !DIDerivedType(tag: DW_TAG_typedef, name: "uint_fast16_t", file: !901, line: 73, baseType: !376)
!944 = !DIImportedEntity(tag: DW_TAG_imported_declaration, scope: !258, entity: !945, file: !888, line: 72)
!945 = !DIDerivedType(tag: DW_TAG_typedef, name: "uint_fast32_t", file: !901, line: 74, baseType: !376)
!946 = !DIImportedEntity(tag: DW_TAG_imported_declaration, scope: !258, entity: !947, file: !888, line: 73)
!947 = !DIDerivedType(tag: DW_TAG_typedef, name: "uint_fast64_t", file: !901, line: 75, baseType: !376)
!948 = !DIImportedEntity(tag: DW_TAG_imported_declaration, scope: !258, entity: !949, file: !888, line: 75)
!949 = !DIDerivedType(tag: DW_TAG_typedef, name: "uint_least8_t", file: !901, line: 49, baseType: !950)
!950 = !DIDerivedType(tag: DW_TAG_typedef, name: "__uint_least8_t", file: !886, line: 53, baseType: !928)
!951 = !DIImportedEntity(tag: DW_TAG_imported_declaration, scope: !258, entity: !952, file: !888, line: 76)
!952 = !DIDerivedType(tag: DW_TAG_typedef, name: "uint_least16_t", file: !901, line: 50, baseType: !953)
!953 = !DIDerivedType(tag: DW_TAG_typedef, name: "__uint_least16_t", file: !886, line: 55, baseType: !932)
!954 = !DIImportedEntity(tag: DW_TAG_imported_declaration, scope: !258, entity: !955, file: !888, line: 77)
!955 = !DIDerivedType(tag: DW_TAG_typedef, name: "uint_least32_t", file: !901, line: 51, baseType: !956)
!956 = !DIDerivedType(tag: DW_TAG_typedef, name: "__uint_least32_t", file: !886, line: 57, baseType: !936)
!957 = !DIImportedEntity(tag: DW_TAG_imported_declaration, scope: !258, entity: !958, file: !888, line: 78)
!958 = !DIDerivedType(tag: DW_TAG_typedef, name: "uint_least64_t", file: !901, line: 52, baseType: !959)
!959 = !DIDerivedType(tag: DW_TAG_typedef, name: "__uint_least64_t", file: !886, line: 59, baseType: !939)
!960 = !DIImportedEntity(tag: DW_TAG_imported_declaration, scope: !258, entity: !961, file: !888, line: 80)
!961 = !DIDerivedType(tag: DW_TAG_typedef, name: "uintmax_t", file: !901, line: 102, baseType: !962)
!962 = !DIDerivedType(tag: DW_TAG_typedef, name: "__uintmax_t", file: !886, line: 73, baseType: !376)
!963 = !DIImportedEntity(tag: DW_TAG_imported_declaration, scope: !258, entity: !964, file: !888, line: 81)
!964 = !DIDerivedType(tag: DW_TAG_typedef, name: "uintptr_t", file: !901, line: 90, baseType: !376)
!965 = !DIImportedEntity(tag: DW_TAG_imported_declaration, scope: !258, entity: !966, file: !968, line: 98)
!966 = !DIDerivedType(tag: DW_TAG_typedef, name: "FILE", file: !967, line: 7, baseType: !606)
!967 = !DIFile(filename: "/usr/include/x86_64-linux-gnu/bits/types/FILE.h", directory: "")
!968 = !DIFile(filename: "/usr/lib/gcc/x86_64-linux-gnu/10/../../../../include/c++/10/cstdio", directory: "")
!969 = !DIImportedEntity(tag: DW_TAG_imported_declaration, scope: !258, entity: !970, file: !968, line: 99)
!970 = !DIDerivedType(tag: DW_TAG_typedef, name: "fpos_t", file: !971, line: 84, baseType: !972)
!971 = !DIFile(filename: "/usr/include/stdio.h", directory: "")
!972 = !DIDerivedType(tag: DW_TAG_typedef, name: "__fpos_t", file: !973, line: 14, baseType: !974)
!973 = !DIFile(filename: "/usr/include/x86_64-linux-gnu/bits/types/__fpos_t.h", directory: "")
!974 = !DICompositeType(tag: DW_TAG_structure_type, name: "_G_fpos_t", file: !973, line: 10, flags: DIFlagFwdDecl, identifier: "_ZTS9_G_fpos_t")
!975 = !DIImportedEntity(tag: DW_TAG_imported_declaration, scope: !258, entity: !976, file: !968, line: 101)
!976 = !DISubprogram(name: "clearerr", scope: !971, file: !971, line: 757, type: !977, flags: DIFlagPrototyped, spFlags: 0)
!977 = !DISubroutineType(types: !978)
!978 = !{null, !979}
!979 = !DIDerivedType(tag: DW_TAG_pointer_type, baseType: !966, size: 64)
!980 = !DIImportedEntity(tag: DW_TAG_imported_declaration, scope: !258, entity: !981, file: !968, line: 102)
!981 = !DISubprogram(name: "fclose", scope: !971, file: !971, line: 213, type: !982, flags: DIFlagPrototyped, spFlags: 0)
!982 = !DISubroutineType(types: !983)
!983 = !{!15, !979}
!984 = !DIImportedEntity(tag: DW_TAG_imported_declaration, scope: !258, entity: !985, file: !968, line: 103)
!985 = !DISubprogram(name: "feof", scope: !971, file: !971, line: 759, type: !982, flags: DIFlagPrototyped, spFlags: 0)
!986 = !DIImportedEntity(tag: DW_TAG_imported_declaration, scope: !258, entity: !987, file: !968, line: 104)
!987 = !DISubprogram(name: "ferror", scope: !971, file: !971, line: 761, type: !982, flags: DIFlagPrototyped, spFlags: 0)
!988 = !DIImportedEntity(tag: DW_TAG_imported_declaration, scope: !258, entity: !989, file: !968, line: 105)
!989 = !DISubprogram(name: "fflush", scope: !971, file: !971, line: 218, type: !982, flags: DIFlagPrototyped, spFlags: 0)
!990 = !DIImportedEntity(tag: DW_TAG_imported_declaration, scope: !258, entity: !991, file: !968, line: 106)
!991 = !DISubprogram(name: "fgetc", scope: !971, file: !971, line: 485, type: !982, flags: DIFlagPrototyped, spFlags: 0)
!992 = !DIImportedEntity(tag: DW_TAG_imported_declaration, scope: !258, entity: !993, file: !968, line: 107)
!993 = !DISubprogram(name: "fgetpos", scope: !971, file: !971, line: 731, type: !994, flags: DIFlagPrototyped, spFlags: 0)
!994 = !DISubroutineType(types: !995)
!995 = !{!15, !996, !997}
!996 = !DIDerivedType(tag: DW_TAG_restrict_type, baseType: !979)
!997 = !DIDerivedType(tag: DW_TAG_restrict_type, baseType: !998)
!998 = !DIDerivedType(tag: DW_TAG_pointer_type, baseType: !970, size: 64)
!999 = !DIImportedEntity(tag: DW_TAG_imported_declaration, scope: !258, entity: !1000, file: !968, line: 108)
!1000 = !DISubprogram(name: "fgets", scope: !971, file: !971, line: 564, type: !1001, flags: DIFlagPrototyped, spFlags: 0)
!1001 = !DISubroutineType(types: !1002)
!1002 = !{!401, !468, !15, !996}
!1003 = !DIImportedEntity(tag: DW_TAG_imported_declaration, scope: !258, entity: !1004, file: !968, line: 109)
!1004 = !DISubprogram(name: "fopen", scope: !971, file: !971, line: 246, type: !1005, flags: DIFlagPrototyped, spFlags: 0)
!1005 = !DISubroutineType(types: !1006)
!1006 = !{!979, !425, !425}
!1007 = !DIImportedEntity(tag: DW_TAG_imported_declaration, scope: !258, entity: !1008, file: !968, line: 110)
!1008 = !DISubprogram(name: "fprintf", scope: !971, file: !971, line: 326, type: !1009, flags: DIFlagPrototyped, spFlags: 0)
!1009 = !DISubroutineType(types: !1010)
!1010 = !{!15, !996, !425, null}
!1011 = !DIImportedEntity(tag: DW_TAG_imported_declaration, scope: !258, entity: !1012, file: !968, line: 111)
!1012 = !DISubprogram(name: "fputc", scope: !971, file: !971, line: 521, type: !1013, flags: DIFlagPrototyped, spFlags: 0)
!1013 = !DISubroutineType(types: !1014)
!1014 = !{!15, !15, !979}
!1015 = !DIImportedEntity(tag: DW_TAG_imported_declaration, scope: !258, entity: !1016, file: !968, line: 112)
!1016 = !DISubprogram(name: "fputs", scope: !971, file: !971, line: 626, type: !1017, flags: DIFlagPrototyped, spFlags: 0)
!1017 = !DISubroutineType(types: !1018)
!1018 = !{!15, !425, !996}
!1019 = !DIImportedEntity(tag: DW_TAG_imported_declaration, scope: !258, entity: !1020, file: !968, line: 113)
!1020 = !DISubprogram(name: "fread", scope: !971, file: !971, line: 646, type: !1021, flags: DIFlagPrototyped, spFlags: 0)
!1021 = !DISubroutineType(types: !1022)
!1022 = !{!374, !1023, !374, !374, !996}
!1023 = !DIDerivedType(tag: DW_TAG_restrict_type, baseType: !269)
!1024 = !DIImportedEntity(tag: DW_TAG_imported_declaration, scope: !258, entity: !1025, file: !968, line: 114)
!1025 = !DISubprogram(name: "freopen", scope: !971, file: !971, line: 252, type: !1026, flags: DIFlagPrototyped, spFlags: 0)
!1026 = !DISubroutineType(types: !1027)
!1027 = !{!979, !425, !425, !996}
!1028 = !DIImportedEntity(tag: DW_TAG_imported_declaration, scope: !258, entity: !1029, file: !968, line: 115)
!1029 = !DISubprogram(name: "fscanf", linkageName: "__isoc99_fscanf", scope: !971, file: !971, line: 407, type: !1009, flags: DIFlagPrototyped, spFlags: 0)
!1030 = !DIImportedEntity(tag: DW_TAG_imported_declaration, scope: !258, entity: !1031, file: !968, line: 116)
!1031 = !DISubprogram(name: "fseek", scope: !971, file: !971, line: 684, type: !1032, flags: DIFlagPrototyped, spFlags: 0)
!1032 = !DISubroutineType(types: !1033)
!1033 = !{!15, !979, !339, !15}
!1034 = !DIImportedEntity(tag: DW_TAG_imported_declaration, scope: !258, entity: !1035, file: !968, line: 117)
!1035 = !DISubprogram(name: "fsetpos", scope: !971, file: !971, line: 736, type: !1036, flags: DIFlagPrototyped, spFlags: 0)
!1036 = !DISubroutineType(types: !1037)
!1037 = !{!15, !979, !1038}
!1038 = !DIDerivedType(tag: DW_TAG_pointer_type, baseType: !1039, size: 64)
!1039 = !DIDerivedType(tag: DW_TAG_const_type, baseType: !970)
!1040 = !DIImportedEntity(tag: DW_TAG_imported_declaration, scope: !258, entity: !1041, file: !968, line: 118)
!1041 = !DISubprogram(name: "ftell", scope: !971, file: !971, line: 689, type: !1042, flags: DIFlagPrototyped, spFlags: 0)
!1042 = !DISubroutineType(types: !1043)
!1043 = !{!339, !979}
!1044 = !DIImportedEntity(tag: DW_TAG_imported_declaration, scope: !258, entity: !1045, file: !968, line: 119)
!1045 = !DISubprogram(name: "fwrite", scope: !971, file: !971, line: 652, type: !1046, flags: DIFlagPrototyped, spFlags: 0)
!1046 = !DISubroutineType(types: !1047)
!1047 = !{!374, !1048, !374, !374, !996}
!1048 = !DIDerivedType(tag: DW_TAG_restrict_type, baseType: !372)
!1049 = !DIImportedEntity(tag: DW_TAG_imported_declaration, scope: !258, entity: !1050, file: !968, line: 120)
!1050 = !DISubprogram(name: "getc", scope: !971, file: !971, line: 486, type: !982, flags: DIFlagPrototyped, spFlags: 0)
!1051 = !DIImportedEntity(tag: DW_TAG_imported_declaration, scope: !258, entity: !1052, file: !968, line: 121)
!1052 = !DISubprogram(name: "getchar", scope: !971, file: !971, line: 492, type: !438, flags: DIFlagPrototyped, spFlags: 0)
!1053 = !DIImportedEntity(tag: DW_TAG_imported_declaration, scope: !258, entity: !1054, file: !968, line: 126)
!1054 = !DISubprogram(name: "perror", scope: !971, file: !971, line: 775, type: !1055, flags: DIFlagPrototyped, spFlags: 0)
!1055 = !DISubroutineType(types: !1056)
!1056 = !{null, !357}
!1057 = !DIImportedEntity(tag: DW_TAG_imported_declaration, scope: !258, entity: !1058, file: !968, line: 127)
!1058 = !DISubprogram(name: "printf", scope: !971, file: !971, line: 332, type: !1059, flags: DIFlagPrototyped, spFlags: 0)
!1059 = !DISubroutineType(types: !1060)
!1060 = !{!15, !425, null}
!1061 = !DIImportedEntity(tag: DW_TAG_imported_declaration, scope: !258, entity: !1062, file: !968, line: 128)
!1062 = !DISubprogram(name: "putc", scope: !971, file: !971, line: 522, type: !1013, flags: DIFlagPrototyped, spFlags: 0)
!1063 = !DIImportedEntity(tag: DW_TAG_imported_declaration, scope: !258, entity: !1064, file: !968, line: 129)
!1064 = !DISubprogram(name: "putchar", scope: !971, file: !971, line: 528, type: !327, flags: DIFlagPrototyped, spFlags: 0)
!1065 = !DIImportedEntity(tag: DW_TAG_imported_declaration, scope: !258, entity: !1066, file: !968, line: 130)
!1066 = !DISubprogram(name: "puts", scope: !971, file: !971, line: 632, type: !362, flags: DIFlagPrototyped, spFlags: 0)
!1067 = !DIImportedEntity(tag: DW_TAG_imported_declaration, scope: !258, entity: !1068, file: !968, line: 131)
!1068 = !DISubprogram(name: "remove", scope: !971, file: !971, line: 146, type: !362, flags: DIFlagPrototyped, spFlags: 0)
!1069 = !DIImportedEntity(tag: DW_TAG_imported_declaration, scope: !258, entity: !1070, file: !968, line: 132)
!1070 = !DISubprogram(name: "rename", scope: !971, file: !971, line: 148, type: !1071, flags: DIFlagPrototyped, spFlags: 0)
!1071 = !DISubroutineType(types: !1072)
!1072 = !{!15, !357, !357}
!1073 = !DIImportedEntity(tag: DW_TAG_imported_declaration, scope: !258, entity: !1074, file: !968, line: 133)
!1074 = !DISubprogram(name: "rewind", scope: !971, file: !971, line: 694, type: !977, flags: DIFlagPrototyped, spFlags: 0)
!1075 = !DIImportedEntity(tag: DW_TAG_imported_declaration, scope: !258, entity: !1076, file: !968, line: 134)
!1076 = !DISubprogram(name: "scanf", linkageName: "__isoc99_scanf", scope: !971, file: !971, line: 410, type: !1059, flags: DIFlagPrototyped, spFlags: 0)
!1077 = !DIImportedEntity(tag: DW_TAG_imported_declaration, scope: !258, entity: !1078, file: !968, line: 135)
!1078 = !DISubprogram(name: "setbuf", scope: !971, file: !971, line: 304, type: !1079, flags: DIFlagPrototyped, spFlags: 0)
!1079 = !DISubroutineType(types: !1080)
!1080 = !{null, !996, !468}
!1081 = !DIImportedEntity(tag: DW_TAG_imported_declaration, scope: !258, entity: !1082, file: !968, line: 136)
!1082 = !DISubprogram(name: "setvbuf", scope: !971, file: !971, line: 308, type: !1083, flags: DIFlagPrototyped, spFlags: 0)
!1083 = !DISubroutineType(types: !1084)
!1084 = !{!15, !996, !468, !15, !374}
!1085 = !DIImportedEntity(tag: DW_TAG_imported_declaration, scope: !258, entity: !1086, file: !968, line: 137)
!1086 = !DISubprogram(name: "sprintf", scope: !971, file: !971, line: 334, type: !1087, flags: DIFlagPrototyped, spFlags: 0)
!1087 = !DISubroutineType(types: !1088)
!1088 = !{!15, !468, !425, null}
!1089 = !DIImportedEntity(tag: DW_TAG_imported_declaration, scope: !258, entity: !1090, file: !968, line: 138)
!1090 = !DISubprogram(name: "sscanf", linkageName: "__isoc99_sscanf", scope: !971, file: !971, line: 412, type: !1091, flags: DIFlagPrototyped, spFlags: 0)
!1091 = !DISubroutineType(types: !1092)
!1092 = !{!15, !425, !425, null}
!1093 = !DIImportedEntity(tag: DW_TAG_imported_declaration, scope: !258, entity: !1094, file: !968, line: 139)
!1094 = !DISubprogram(name: "tmpfile", scope: !971, file: !971, line: 173, type: !1095, flags: DIFlagPrototyped, spFlags: 0)
!1095 = !DISubroutineType(types: !1096)
!1096 = !{!979}
!1097 = !DIImportedEntity(tag: DW_TAG_imported_declaration, scope: !258, entity: !1098, file: !968, line: 141)
!1098 = !DISubprogram(name: "tmpnam", scope: !971, file: !971, line: 187, type: !1099, flags: DIFlagPrototyped, spFlags: 0)
!1099 = !DISubroutineType(types: !1100)
!1100 = !{!401, !401}
!1101 = !DIImportedEntity(tag: DW_TAG_imported_declaration, scope: !258, entity: !1102, file: !968, line: 143)
!1102 = !DISubprogram(name: "ungetc", scope: !971, file: !971, line: 639, type: !1013, flags: DIFlagPrototyped, spFlags: 0)
!1103 = !DIImportedEntity(tag: DW_TAG_imported_declaration, scope: !258, entity: !1104, file: !968, line: 144)
!1104 = !DISubprogram(name: "vfprintf", scope: !971, file: !971, line: 341, type: !1105, flags: DIFlagPrototyped, spFlags: 0)
!1105 = !DISubroutineType(types: !1106)
!1106 = !{!15, !996, !425, !680}
!1107 = !DIImportedEntity(tag: DW_TAG_imported_declaration, scope: !258, entity: !1108, file: !968, line: 145)
!1108 = !DISubprogram(name: "vprintf", scope: !971, file: !971, line: 347, type: !1109, flags: DIFlagPrototyped, spFlags: 0)
!1109 = !DISubroutineType(types: !1110)
!1110 = !{!15, !425, !680}
!1111 = !DIImportedEntity(tag: DW_TAG_imported_declaration, scope: !258, entity: !1112, file: !968, line: 146)
!1112 = !DISubprogram(name: "vsprintf", scope: !971, file: !971, line: 349, type: !1113, flags: DIFlagPrototyped, spFlags: 0)
!1113 = !DISubroutineType(types: !1114)
!1114 = !{!15, !468, !425, !680}
!1115 = !DIImportedEntity(tag: DW_TAG_imported_declaration, scope: !5, entity: !1116, file: !968, line: 175)
!1116 = !DISubprogram(name: "snprintf", scope: !971, file: !971, line: 354, type: !1117, flags: DIFlagPrototyped, spFlags: 0)
!1117 = !DISubroutineType(types: !1118)
!1118 = !{!15, !468, !374, !425, null}
!1119 = !DIImportedEntity(tag: DW_TAG_imported_declaration, scope: !5, entity: !1120, file: !968, line: 176)
!1120 = !DISubprogram(name: "vfscanf", linkageName: "__isoc99_vfscanf", scope: !971, file: !971, line: 451, type: !1105, flags: DIFlagPrototyped, spFlags: 0)
!1121 = !DIImportedEntity(tag: DW_TAG_imported_declaration, scope: !5, entity: !1122, file: !968, line: 177)
!1122 = !DISubprogram(name: "vscanf", linkageName: "__isoc99_vscanf", scope: !971, file: !971, line: 456, type: !1109, flags: DIFlagPrototyped, spFlags: 0)
!1123 = !DIImportedEntity(tag: DW_TAG_imported_declaration, scope: !5, entity: !1124, file: !968, line: 178)
!1124 = !DISubprogram(name: "vsnprintf", scope: !971, file: !971, line: 358, type: !1125, flags: DIFlagPrototyped, spFlags: 0)
!1125 = !DISubroutineType(types: !1126)
!1126 = !{!15, !468, !374, !425, !680}
!1127 = !DIImportedEntity(tag: DW_TAG_imported_declaration, scope: !5, entity: !1128, file: !968, line: 179)
!1128 = !DISubprogram(name: "vsscanf", linkageName: "__isoc99_vsscanf", scope: !971, file: !971, line: 459, type: !1129, flags: DIFlagPrototyped, spFlags: 0)
!1129 = !DISubroutineType(types: !1130)
!1130 = !{!15, !425, !425, !680}
!1131 = !DIImportedEntity(tag: DW_TAG_imported_declaration, scope: !258, entity: !1116, file: !968, line: 185)
!1132 = !DIImportedEntity(tag: DW_TAG_imported_declaration, scope: !258, entity: !1120, file: !968, line: 186)
!1133 = !DIImportedEntity(tag: DW_TAG_imported_declaration, scope: !258, entity: !1122, file: !968, line: 187)
!1134 = !DIImportedEntity(tag: DW_TAG_imported_declaration, scope: !258, entity: !1124, file: !968, line: 188)
!1135 = !DIImportedEntity(tag: DW_TAG_imported_declaration, scope: !258, entity: !1128, file: !968, line: 189)
!1136 = !DIImportedEntity(tag: DW_TAG_imported_declaration, scope: !14, entity: !565, file: !1137, line: 56)
!1137 = !DIFile(filename: "./xalanc/Include/XalanVector.hpp", directory: "/home/venkat/IF-DV/spec_build_release/CPU_2017/benchspec/CPU/523.xalancbmk_r/build/build_base_ld-loop-ext-m64.0000")
!1138 = !DIImportedEntity(tag: DW_TAG_imported_declaration, scope: !14, entity: !1139, file: !1141, line: 54)
!1139 = !DICompositeType(tag: DW_TAG_class_type, name: "Locator", scope: !253, file: !1140, line: 30, flags: DIFlagFwdDecl, identifier: "_ZTSN11xercesc_2_77LocatorE")
!1140 = !DIFile(filename: "./xercesc/sax/DocumentHandler.hpp", directory: "/home/venkat/IF-DV/spec_build_release/CPU_2017/benchspec/CPU/523.xalancbmk_r/build/build_base_ld-loop-ext-m64.0000")
!1141 = !DIFile(filename: "./xalanc/PlatformSupport/FormatterListener.hpp", directory: "/home/venkat/IF-DV/spec_build_release/CPU_2017/benchspec/CPU/523.xalancbmk_r/build/build_base_ld-loop-ext-m64.0000")
!1142 = !DIImportedEntity(tag: DW_TAG_imported_declaration, scope: !14, entity: !1143, file: !1141, line: 55)
!1143 = !DICompositeType(tag: DW_TAG_class_type, name: "AttributeList", scope: !253, file: !1140, line: 29, flags: DIFlagFwdDecl, identifier: "_ZTSN11xercesc_2_713AttributeListE")
!1144 = !DIImportedEntity(tag: DW_TAG_imported_declaration, scope: !14, entity: !565, file: !1145, line: 58)
!1145 = !DIFile(filename: "./xalanc/PlatformSupport/DOMStringHelper.hpp", directory: "/home/venkat/IF-DV/spec_build_release/CPU_2017/benchspec/CPU/523.xalancbmk_r/build/build_base_ld-loop-ext-m64.0000")
!1146 = !DIImportedEntity(tag: DW_TAG_imported_declaration, scope: !14, entity: !1139, file: !1147, line: 34)
!1147 = !DIFile(filename: "./xalanc/PlatformSupport/XalanLocator.hpp", directory: "/home/venkat/IF-DV/spec_build_release/CPU_2017/benchspec/CPU/523.xalancbmk_r/build/build_base_ld-loop-ext-m64.0000")
!1148 = !DIImportedEntity(tag: DW_TAG_imported_declaration, scope: !14, entity: !1143, file: !1149, line: 62)
!1149 = !DIFile(filename: "./xalanc/XSLT/ElemTemplateElement.hpp", directory: "/home/venkat/IF-DV/spec_build_release/CPU_2017/benchspec/CPU/523.xalancbmk_r/build/build_base_ld-loop-ext-m64.0000")
!1150 = !DIImportedEntity(tag: DW_TAG_imported_declaration, scope: !14, entity: !1139, file: !1149, line: 63)
!1151 = !DIImportedEntity(tag: DW_TAG_imported_declaration, scope: !14, entity: !565, file: !1152, line: 37)
!1152 = !DIFile(filename: "./xalanc/PlatformSupport/XalanMessageLoader.hpp", directory: "/home/venkat/IF-DV/spec_build_release/CPU_2017/benchspec/CPU/523.xalancbmk_r/build/build_base_ld-loop-ext-m64.0000")
!1153 = !DIImportedEntity(tag: DW_TAG_imported_declaration, scope: !258, entity: !1154, file: !1158, line: 83)
!1154 = !DISubprogram(name: "acos", scope: !1155, file: !1155, line: 53, type: !1156, flags: DIFlagPrototyped, spFlags: 0)
!1155 = !DIFile(filename: "/usr/include/x86_64-linux-gnu/bits/mathcalls.h", directory: "")
!1156 = !DISubroutineType(types: !1157)
!1157 = !{!356, !356}
!1158 = !DIFile(filename: "/usr/lib/gcc/x86_64-linux-gnu/10/../../../../include/c++/10/cmath", directory: "")
!1159 = !DIImportedEntity(tag: DW_TAG_imported_declaration, scope: !258, entity: !1160, file: !1158, line: 102)
!1160 = !DISubprogram(name: "asin", scope: !1155, file: !1155, line: 55, type: !1156, flags: DIFlagPrototyped, spFlags: 0)
!1161 = !DIImportedEntity(tag: DW_TAG_imported_declaration, scope: !258, entity: !1162, file: !1158, line: 121)
!1162 = !DISubprogram(name: "atan", scope: !1155, file: !1155, line: 57, type: !1156, flags: DIFlagPrototyped, spFlags: 0)
!1163 = !DIImportedEntity(tag: DW_TAG_imported_declaration, scope: !258, entity: !1164, file: !1158, line: 140)
!1164 = !DISubprogram(name: "atan2", scope: !1155, file: !1155, line: 59, type: !1165, flags: DIFlagPrototyped, spFlags: 0)
!1165 = !DISubroutineType(types: !1166)
!1166 = !{!356, !356, !356}
!1167 = !DIImportedEntity(tag: DW_TAG_imported_declaration, scope: !258, entity: !1168, file: !1158, line: 161)
!1168 = !DISubprogram(name: "ceil", scope: !1155, file: !1155, line: 159, type: !1156, flags: DIFlagPrototyped, spFlags: 0)
!1169 = !DIImportedEntity(tag: DW_TAG_imported_declaration, scope: !258, entity: !1170, file: !1158, line: 180)
!1170 = !DISubprogram(name: "cos", scope: !1155, file: !1155, line: 62, type: !1156, flags: DIFlagPrototyped, spFlags: 0)
!1171 = !DIImportedEntity(tag: DW_TAG_imported_declaration, scope: !258, entity: !1172, file: !1158, line: 199)
!1172 = !DISubprogram(name: "cosh", scope: !1155, file: !1155, line: 71, type: !1156, flags: DIFlagPrototyped, spFlags: 0)
!1173 = !DIImportedEntity(tag: DW_TAG_imported_declaration, scope: !258, entity: !1174, file: !1158, line: 218)
!1174 = !DISubprogram(name: "exp", scope: !1155, file: !1155, line: 95, type: !1156, flags: DIFlagPrototyped, spFlags: 0)
!1175 = !DIImportedEntity(tag: DW_TAG_imported_declaration, scope: !258, entity: !1176, file: !1158, line: 237)
!1176 = !DISubprogram(name: "fabs", scope: !1155, file: !1155, line: 162, type: !1156, flags: DIFlagPrototyped, spFlags: 0)
!1177 = !DIImportedEntity(tag: DW_TAG_imported_declaration, scope: !258, entity: !1178, file: !1158, line: 256)
!1178 = !DISubprogram(name: "floor", scope: !1155, file: !1155, line: 165, type: !1156, flags: DIFlagPrototyped, spFlags: 0)
!1179 = !DIImportedEntity(tag: DW_TAG_imported_declaration, scope: !258, entity: !1180, file: !1158, line: 275)
!1180 = !DISubprogram(name: "fmod", scope: !1155, file: !1155, line: 168, type: !1165, flags: DIFlagPrototyped, spFlags: 0)
!1181 = !DIImportedEntity(tag: DW_TAG_imported_declaration, scope: !258, entity: !1182, file: !1158, line: 296)
!1182 = !DISubprogram(name: "frexp", scope: !1155, file: !1155, line: 98, type: !1183, flags: DIFlagPrototyped, spFlags: 0)
!1183 = !DISubroutineType(types: !1184)
!1184 = !{!356, !356, !1185}
!1185 = !DIDerivedType(tag: DW_TAG_pointer_type, baseType: !15, size: 64)
!1186 = !DIImportedEntity(tag: DW_TAG_imported_declaration, scope: !258, entity: !1187, file: !1158, line: 315)
!1187 = !DISubprogram(name: "ldexp", scope: !1155, file: !1155, line: 101, type: !1188, flags: DIFlagPrototyped, spFlags: 0)
!1188 = !DISubroutineType(types: !1189)
!1189 = !{!356, !356, !15}
!1190 = !DIImportedEntity(tag: DW_TAG_imported_declaration, scope: !258, entity: !1191, file: !1158, line: 334)
!1191 = !DISubprogram(name: "log", scope: !1155, file: !1155, line: 104, type: !1156, flags: DIFlagPrototyped, spFlags: 0)
!1192 = !DIImportedEntity(tag: DW_TAG_imported_declaration, scope: !258, entity: !1193, file: !1158, line: 353)
!1193 = !DISubprogram(name: "log10", scope: !1155, file: !1155, line: 107, type: !1156, flags: DIFlagPrototyped, spFlags: 0)
!1194 = !DIImportedEntity(tag: DW_TAG_imported_declaration, scope: !258, entity: !1195, file: !1158, line: 372)
!1195 = !DISubprogram(name: "modf", scope: !1155, file: !1155, line: 110, type: !1196, flags: DIFlagPrototyped, spFlags: 0)
!1196 = !DISubroutineType(types: !1197)
!1197 = !{!356, !356, !1198}
!1198 = !DIDerivedType(tag: DW_TAG_pointer_type, baseType: !356, size: 64)
!1199 = !DIImportedEntity(tag: DW_TAG_imported_declaration, scope: !258, entity: !1200, file: !1158, line: 384)
!1200 = !DISubprogram(name: "pow", scope: !1155, file: !1155, line: 140, type: !1165, flags: DIFlagPrototyped, spFlags: 0)
!1201 = !DIImportedEntity(tag: DW_TAG_imported_declaration, scope: !258, entity: !1202, file: !1158, line: 421)
!1202 = !DISubprogram(name: "sin", scope: !1155, file: !1155, line: 64, type: !1156, flags: DIFlagPrototyped, spFlags: 0)
!1203 = !DIImportedEntity(tag: DW_TAG_imported_declaration, scope: !258, entity: !1204, file: !1158, line: 440)
!1204 = !DISubprogram(name: "sinh", scope: !1155, file: !1155, line: 73, type: !1156, flags: DIFlagPrototyped, spFlags: 0)
!1205 = !DIImportedEntity(tag: DW_TAG_imported_declaration, scope: !258, entity: !1206, file: !1158, line: 459)
!1206 = !DISubprogram(name: "sqrt", scope: !1155, file: !1155, line: 143, type: !1156, flags: DIFlagPrototyped, spFlags: 0)
!1207 = !DIImportedEntity(tag: DW_TAG_imported_declaration, scope: !258, entity: !1208, file: !1158, line: 478)
!1208 = !DISubprogram(name: "tan", scope: !1155, file: !1155, line: 66, type: !1156, flags: DIFlagPrototyped, spFlags: 0)
!1209 = !DIImportedEntity(tag: DW_TAG_imported_declaration, scope: !258, entity: !1210, file: !1158, line: 497)
!1210 = !DISubprogram(name: "tanh", scope: !1155, file: !1155, line: 75, type: !1156, flags: DIFlagPrototyped, spFlags: 0)
!1211 = !DIImportedEntity(tag: DW_TAG_imported_declaration, scope: !258, entity: !1212, file: !1158, line: 1065)
!1212 = !DIDerivedType(tag: DW_TAG_typedef, name: "double_t", file: !1213, line: 150, baseType: !356)
!1213 = !DIFile(filename: "/usr/include/math.h", directory: "")
!1214 = !DIImportedEntity(tag: DW_TAG_imported_declaration, scope: !258, entity: !1215, file: !1158, line: 1066)
!1215 = !DIDerivedType(tag: DW_TAG_typedef, name: "float_t", file: !1213, line: 149, baseType: !510)
!1216 = !DIImportedEntity(tag: DW_TAG_imported_declaration, scope: !258, entity: !1217, file: !1158, line: 1069)
!1217 = !DISubprogram(name: "acosh", scope: !1155, file: !1155, line: 85, type: !1156, flags: DIFlagPrototyped, spFlags: 0)
!1218 = !DIImportedEntity(tag: DW_TAG_imported_declaration, scope: !258, entity: !1219, file: !1158, line: 1070)
!1219 = !DISubprogram(name: "acoshf", scope: !1155, file: !1155, line: 85, type: !1220, flags: DIFlagPrototyped, spFlags: 0)
!1220 = !DISubroutineType(types: !1221)
!1221 = !{!510, !510}
!1222 = !DIImportedEntity(tag: DW_TAG_imported_declaration, scope: !258, entity: !1223, file: !1158, line: 1071)
!1223 = !DISubprogram(name: "acoshl", scope: !1155, file: !1155, line: 85, type: !1224, flags: DIFlagPrototyped, spFlags: 0)
!1224 = !DISubroutineType(types: !1225)
!1225 = !{!515, !515}
!1226 = !DIImportedEntity(tag: DW_TAG_imported_declaration, scope: !258, entity: !1227, file: !1158, line: 1073)
!1227 = !DISubprogram(name: "asinh", scope: !1155, file: !1155, line: 87, type: !1156, flags: DIFlagPrototyped, spFlags: 0)
!1228 = !DIImportedEntity(tag: DW_TAG_imported_declaration, scope: !258, entity: !1229, file: !1158, line: 1074)
!1229 = !DISubprogram(name: "asinhf", scope: !1155, file: !1155, line: 87, type: !1220, flags: DIFlagPrototyped, spFlags: 0)
!1230 = !DIImportedEntity(tag: DW_TAG_imported_declaration, scope: !258, entity: !1231, file: !1158, line: 1075)
!1231 = !DISubprogram(name: "asinhl", scope: !1155, file: !1155, line: 87, type: !1224, flags: DIFlagPrototyped, spFlags: 0)
!1232 = !DIImportedEntity(tag: DW_TAG_imported_declaration, scope: !258, entity: !1233, file: !1158, line: 1077)
!1233 = !DISubprogram(name: "atanh", scope: !1155, file: !1155, line: 89, type: !1156, flags: DIFlagPrototyped, spFlags: 0)
!1234 = !DIImportedEntity(tag: DW_TAG_imported_declaration, scope: !258, entity: !1235, file: !1158, line: 1078)
!1235 = !DISubprogram(name: "atanhf", scope: !1155, file: !1155, line: 89, type: !1220, flags: DIFlagPrototyped, spFlags: 0)
!1236 = !DIImportedEntity(tag: DW_TAG_imported_declaration, scope: !258, entity: !1237, file: !1158, line: 1079)
!1237 = !DISubprogram(name: "atanhl", scope: !1155, file: !1155, line: 89, type: !1224, flags: DIFlagPrototyped, spFlags: 0)
!1238 = !DIImportedEntity(tag: DW_TAG_imported_declaration, scope: !258, entity: !1239, file: !1158, line: 1081)
!1239 = !DISubprogram(name: "cbrt", scope: !1155, file: !1155, line: 152, type: !1156, flags: DIFlagPrototyped, spFlags: 0)
!1240 = !DIImportedEntity(tag: DW_TAG_imported_declaration, scope: !258, entity: !1241, file: !1158, line: 1082)
!1241 = !DISubprogram(name: "cbrtf", scope: !1155, file: !1155, line: 152, type: !1220, flags: DIFlagPrototyped, spFlags: 0)
!1242 = !DIImportedEntity(tag: DW_TAG_imported_declaration, scope: !258, entity: !1243, file: !1158, line: 1083)
!1243 = !DISubprogram(name: "cbrtl", scope: !1155, file: !1155, line: 152, type: !1224, flags: DIFlagPrototyped, spFlags: 0)
!1244 = !DIImportedEntity(tag: DW_TAG_imported_declaration, scope: !258, entity: !1245, file: !1158, line: 1085)
!1245 = !DISubprogram(name: "copysign", scope: !1155, file: !1155, line: 196, type: !1165, flags: DIFlagPrototyped, spFlags: 0)
!1246 = !DIImportedEntity(tag: DW_TAG_imported_declaration, scope: !258, entity: !1247, file: !1158, line: 1086)
!1247 = !DISubprogram(name: "copysignf", scope: !1155, file: !1155, line: 196, type: !1248, flags: DIFlagPrototyped, spFlags: 0)
!1248 = !DISubroutineType(types: !1249)
!1249 = !{!510, !510, !510}
!1250 = !DIImportedEntity(tag: DW_TAG_imported_declaration, scope: !258, entity: !1251, file: !1158, line: 1087)
!1251 = !DISubprogram(name: "copysignl", scope: !1155, file: !1155, line: 196, type: !1252, flags: DIFlagPrototyped, spFlags: 0)
!1252 = !DISubroutineType(types: !1253)
!1253 = !{!515, !515, !515}
!1254 = !DIImportedEntity(tag: DW_TAG_imported_declaration, scope: !258, entity: !1255, file: !1158, line: 1089)
!1255 = !DISubprogram(name: "erf", scope: !1155, file: !1155, line: 228, type: !1156, flags: DIFlagPrototyped, spFlags: 0)
!1256 = !DIImportedEntity(tag: DW_TAG_imported_declaration, scope: !258, entity: !1257, file: !1158, line: 1090)
!1257 = !DISubprogram(name: "erff", scope: !1155, file: !1155, line: 228, type: !1220, flags: DIFlagPrototyped, spFlags: 0)
!1258 = !DIImportedEntity(tag: DW_TAG_imported_declaration, scope: !258, entity: !1259, file: !1158, line: 1091)
!1259 = !DISubprogram(name: "erfl", scope: !1155, file: !1155, line: 228, type: !1224, flags: DIFlagPrototyped, spFlags: 0)
!1260 = !DIImportedEntity(tag: DW_TAG_imported_declaration, scope: !258, entity: !1261, file: !1158, line: 1093)
!1261 = !DISubprogram(name: "erfc", scope: !1155, file: !1155, line: 229, type: !1156, flags: DIFlagPrototyped, spFlags: 0)
!1262 = !DIImportedEntity(tag: DW_TAG_imported_declaration, scope: !258, entity: !1263, file: !1158, line: 1094)
!1263 = !DISubprogram(name: "erfcf", scope: !1155, file: !1155, line: 229, type: !1220, flags: DIFlagPrototyped, spFlags: 0)
!1264 = !DIImportedEntity(tag: DW_TAG_imported_declaration, scope: !258, entity: !1265, file: !1158, line: 1095)
!1265 = !DISubprogram(name: "erfcl", scope: !1155, file: !1155, line: 229, type: !1224, flags: DIFlagPrototyped, spFlags: 0)
!1266 = !DIImportedEntity(tag: DW_TAG_imported_declaration, scope: !258, entity: !1267, file: !1158, line: 1097)
!1267 = !DISubprogram(name: "exp2", scope: !1155, file: !1155, line: 130, type: !1156, flags: DIFlagPrototyped, spFlags: 0)
!1268 = !DIImportedEntity(tag: DW_TAG_imported_declaration, scope: !258, entity: !1269, file: !1158, line: 1098)
!1269 = !DISubprogram(name: "exp2f", scope: !1155, file: !1155, line: 130, type: !1220, flags: DIFlagPrototyped, spFlags: 0)
!1270 = !DIImportedEntity(tag: DW_TAG_imported_declaration, scope: !258, entity: !1271, file: !1158, line: 1099)
!1271 = !DISubprogram(name: "exp2l", scope: !1155, file: !1155, line: 130, type: !1224, flags: DIFlagPrototyped, spFlags: 0)
!1272 = !DIImportedEntity(tag: DW_TAG_imported_declaration, scope: !258, entity: !1273, file: !1158, line: 1101)
!1273 = !DISubprogram(name: "expm1", scope: !1155, file: !1155, line: 119, type: !1156, flags: DIFlagPrototyped, spFlags: 0)
!1274 = !DIImportedEntity(tag: DW_TAG_imported_declaration, scope: !258, entity: !1275, file: !1158, line: 1102)
!1275 = !DISubprogram(name: "expm1f", scope: !1155, file: !1155, line: 119, type: !1220, flags: DIFlagPrototyped, spFlags: 0)
!1276 = !DIImportedEntity(tag: DW_TAG_imported_declaration, scope: !258, entity: !1277, file: !1158, line: 1103)
!1277 = !DISubprogram(name: "expm1l", scope: !1155, file: !1155, line: 119, type: !1224, flags: DIFlagPrototyped, spFlags: 0)
!1278 = !DIImportedEntity(tag: DW_TAG_imported_declaration, scope: !258, entity: !1279, file: !1158, line: 1105)
!1279 = !DISubprogram(name: "fdim", scope: !1155, file: !1155, line: 326, type: !1165, flags: DIFlagPrototyped, spFlags: 0)
!1280 = !DIImportedEntity(tag: DW_TAG_imported_declaration, scope: !258, entity: !1281, file: !1158, line: 1106)
!1281 = !DISubprogram(name: "fdimf", scope: !1155, file: !1155, line: 326, type: !1248, flags: DIFlagPrototyped, spFlags: 0)
!1282 = !DIImportedEntity(tag: DW_TAG_imported_declaration, scope: !258, entity: !1283, file: !1158, line: 1107)
!1283 = !DISubprogram(name: "fdiml", scope: !1155, file: !1155, line: 326, type: !1252, flags: DIFlagPrototyped, spFlags: 0)
!1284 = !DIImportedEntity(tag: DW_TAG_imported_declaration, scope: !258, entity: !1285, file: !1158, line: 1109)
!1285 = !DISubprogram(name: "fma", scope: !1155, file: !1155, line: 335, type: !1286, flags: DIFlagPrototyped, spFlags: 0)
!1286 = !DISubroutineType(types: !1287)
!1287 = !{!356, !356, !356, !356}
!1288 = !DIImportedEntity(tag: DW_TAG_imported_declaration, scope: !258, entity: !1289, file: !1158, line: 1110)
!1289 = !DISubprogram(name: "fmaf", scope: !1155, file: !1155, line: 335, type: !1290, flags: DIFlagPrototyped, spFlags: 0)
!1290 = !DISubroutineType(types: !1291)
!1291 = !{!510, !510, !510, !510}
!1292 = !DIImportedEntity(tag: DW_TAG_imported_declaration, scope: !258, entity: !1293, file: !1158, line: 1111)
!1293 = !DISubprogram(name: "fmal", scope: !1155, file: !1155, line: 335, type: !1294, flags: DIFlagPrototyped, spFlags: 0)
!1294 = !DISubroutineType(types: !1295)
!1295 = !{!515, !515, !515, !515}
!1296 = !DIImportedEntity(tag: DW_TAG_imported_declaration, scope: !258, entity: !1297, file: !1158, line: 1113)
!1297 = !DISubprogram(name: "fmax", scope: !1155, file: !1155, line: 329, type: !1165, flags: DIFlagPrototyped, spFlags: 0)
!1298 = !DIImportedEntity(tag: DW_TAG_imported_declaration, scope: !258, entity: !1299, file: !1158, line: 1114)
!1299 = !DISubprogram(name: "fmaxf", scope: !1155, file: !1155, line: 329, type: !1248, flags: DIFlagPrototyped, spFlags: 0)
!1300 = !DIImportedEntity(tag: DW_TAG_imported_declaration, scope: !258, entity: !1301, file: !1158, line: 1115)
!1301 = !DISubprogram(name: "fmaxl", scope: !1155, file: !1155, line: 329, type: !1252, flags: DIFlagPrototyped, spFlags: 0)
!1302 = !DIImportedEntity(tag: DW_TAG_imported_declaration, scope: !258, entity: !1303, file: !1158, line: 1117)
!1303 = !DISubprogram(name: "fmin", scope: !1155, file: !1155, line: 332, type: !1165, flags: DIFlagPrototyped, spFlags: 0)
!1304 = !DIImportedEntity(tag: DW_TAG_imported_declaration, scope: !258, entity: !1305, file: !1158, line: 1118)
!1305 = !DISubprogram(name: "fminf", scope: !1155, file: !1155, line: 332, type: !1248, flags: DIFlagPrototyped, spFlags: 0)
!1306 = !DIImportedEntity(tag: DW_TAG_imported_declaration, scope: !258, entity: !1307, file: !1158, line: 1119)
!1307 = !DISubprogram(name: "fminl", scope: !1155, file: !1155, line: 332, type: !1252, flags: DIFlagPrototyped, spFlags: 0)
!1308 = !DIImportedEntity(tag: DW_TAG_imported_declaration, scope: !258, entity: !1309, file: !1158, line: 1121)
!1309 = !DISubprogram(name: "hypot", scope: !1155, file: !1155, line: 147, type: !1165, flags: DIFlagPrototyped, spFlags: 0)
!1310 = !DIImportedEntity(tag: DW_TAG_imported_declaration, scope: !258, entity: !1311, file: !1158, line: 1122)
!1311 = !DISubprogram(name: "hypotf", scope: !1155, file: !1155, line: 147, type: !1248, flags: DIFlagPrototyped, spFlags: 0)
!1312 = !DIImportedEntity(tag: DW_TAG_imported_declaration, scope: !258, entity: !1313, file: !1158, line: 1123)
!1313 = !DISubprogram(name: "hypotl", scope: !1155, file: !1155, line: 147, type: !1252, flags: DIFlagPrototyped, spFlags: 0)
!1314 = !DIImportedEntity(tag: DW_TAG_imported_declaration, scope: !258, entity: !1315, file: !1158, line: 1125)
!1315 = !DISubprogram(name: "ilogb", scope: !1155, file: !1155, line: 280, type: !1316, flags: DIFlagPrototyped, spFlags: 0)
!1316 = !DISubroutineType(types: !1317)
!1317 = !{!15, !356}
!1318 = !DIImportedEntity(tag: DW_TAG_imported_declaration, scope: !258, entity: !1319, file: !1158, line: 1126)
!1319 = !DISubprogram(name: "ilogbf", scope: !1155, file: !1155, line: 280, type: !1320, flags: DIFlagPrototyped, spFlags: 0)
!1320 = !DISubroutineType(types: !1321)
!1321 = !{!15, !510}
!1322 = !DIImportedEntity(tag: DW_TAG_imported_declaration, scope: !258, entity: !1323, file: !1158, line: 1127)
!1323 = !DISubprogram(name: "ilogbl", scope: !1155, file: !1155, line: 280, type: !1324, flags: DIFlagPrototyped, spFlags: 0)
!1324 = !DISubroutineType(types: !1325)
!1325 = !{!15, !515}
!1326 = !DIImportedEntity(tag: DW_TAG_imported_declaration, scope: !258, entity: !1327, file: !1158, line: 1129)
!1327 = !DISubprogram(name: "lgamma", scope: !1155, file: !1155, line: 230, type: !1156, flags: DIFlagPrototyped, spFlags: 0)
!1328 = !DIImportedEntity(tag: DW_TAG_imported_declaration, scope: !258, entity: !1329, file: !1158, line: 1130)
!1329 = !DISubprogram(name: "lgammaf", scope: !1155, file: !1155, line: 230, type: !1220, flags: DIFlagPrototyped, spFlags: 0)
!1330 = !DIImportedEntity(tag: DW_TAG_imported_declaration, scope: !258, entity: !1331, file: !1158, line: 1131)
!1331 = !DISubprogram(name: "lgammal", scope: !1155, file: !1155, line: 230, type: !1224, flags: DIFlagPrototyped, spFlags: 0)
!1332 = !DIImportedEntity(tag: DW_TAG_imported_declaration, scope: !258, entity: !1333, file: !1158, line: 1134)
!1333 = !DISubprogram(name: "llrint", scope: !1155, file: !1155, line: 316, type: !1334, flags: DIFlagPrototyped, spFlags: 0)
!1334 = !DISubroutineType(types: !1335)
!1335 = !{!481, !356}
!1336 = !DIImportedEntity(tag: DW_TAG_imported_declaration, scope: !258, entity: !1337, file: !1158, line: 1135)
!1337 = !DISubprogram(name: "llrintf", scope: !1155, file: !1155, line: 316, type: !1338, flags: DIFlagPrototyped, spFlags: 0)
!1338 = !DISubroutineType(types: !1339)
!1339 = !{!481, !510}
!1340 = !DIImportedEntity(tag: DW_TAG_imported_declaration, scope: !258, entity: !1341, file: !1158, line: 1136)
!1341 = !DISubprogram(name: "llrintl", scope: !1155, file: !1155, line: 316, type: !1342, flags: DIFlagPrototyped, spFlags: 0)
!1342 = !DISubroutineType(types: !1343)
!1343 = !{!481, !515}
!1344 = !DIImportedEntity(tag: DW_TAG_imported_declaration, scope: !258, entity: !1345, file: !1158, line: 1138)
!1345 = !DISubprogram(name: "llround", scope: !1155, file: !1155, line: 322, type: !1334, flags: DIFlagPrototyped, spFlags: 0)
!1346 = !DIImportedEntity(tag: DW_TAG_imported_declaration, scope: !258, entity: !1347, file: !1158, line: 1139)
!1347 = !DISubprogram(name: "llroundf", scope: !1155, file: !1155, line: 322, type: !1338, flags: DIFlagPrototyped, spFlags: 0)
!1348 = !DIImportedEntity(tag: DW_TAG_imported_declaration, scope: !258, entity: !1349, file: !1158, line: 1140)
!1349 = !DISubprogram(name: "llroundl", scope: !1155, file: !1155, line: 322, type: !1342, flags: DIFlagPrototyped, spFlags: 0)
!1350 = !DIImportedEntity(tag: DW_TAG_imported_declaration, scope: !258, entity: !1351, file: !1158, line: 1143)
!1351 = !DISubprogram(name: "log1p", scope: !1155, file: !1155, line: 122, type: !1156, flags: DIFlagPrototyped, spFlags: 0)
!1352 = !DIImportedEntity(tag: DW_TAG_imported_declaration, scope: !258, entity: !1353, file: !1158, line: 1144)
!1353 = !DISubprogram(name: "log1pf", scope: !1155, file: !1155, line: 122, type: !1220, flags: DIFlagPrototyped, spFlags: 0)
!1354 = !DIImportedEntity(tag: DW_TAG_imported_declaration, scope: !258, entity: !1355, file: !1158, line: 1145)
!1355 = !DISubprogram(name: "log1pl", scope: !1155, file: !1155, line: 122, type: !1224, flags: DIFlagPrototyped, spFlags: 0)
!1356 = !DIImportedEntity(tag: DW_TAG_imported_declaration, scope: !258, entity: !1357, file: !1158, line: 1147)
!1357 = !DISubprogram(name: "log2", scope: !1155, file: !1155, line: 133, type: !1156, flags: DIFlagPrototyped, spFlags: 0)
!1358 = !DIImportedEntity(tag: DW_TAG_imported_declaration, scope: !258, entity: !1359, file: !1158, line: 1148)
!1359 = !DISubprogram(name: "log2f", scope: !1155, file: !1155, line: 133, type: !1220, flags: DIFlagPrototyped, spFlags: 0)
!1360 = !DIImportedEntity(tag: DW_TAG_imported_declaration, scope: !258, entity: !1361, file: !1158, line: 1149)
!1361 = !DISubprogram(name: "log2l", scope: !1155, file: !1155, line: 133, type: !1224, flags: DIFlagPrototyped, spFlags: 0)
!1362 = !DIImportedEntity(tag: DW_TAG_imported_declaration, scope: !258, entity: !1363, file: !1158, line: 1151)
!1363 = !DISubprogram(name: "logb", scope: !1155, file: !1155, line: 125, type: !1156, flags: DIFlagPrototyped, spFlags: 0)
!1364 = !DIImportedEntity(tag: DW_TAG_imported_declaration, scope: !258, entity: !1365, file: !1158, line: 1152)
!1365 = !DISubprogram(name: "logbf", scope: !1155, file: !1155, line: 125, type: !1220, flags: DIFlagPrototyped, spFlags: 0)
!1366 = !DIImportedEntity(tag: DW_TAG_imported_declaration, scope: !258, entity: !1367, file: !1158, line: 1153)
!1367 = !DISubprogram(name: "logbl", scope: !1155, file: !1155, line: 125, type: !1224, flags: DIFlagPrototyped, spFlags: 0)
!1368 = !DIImportedEntity(tag: DW_TAG_imported_declaration, scope: !258, entity: !1369, file: !1158, line: 1155)
!1369 = !DISubprogram(name: "lrint", scope: !1155, file: !1155, line: 314, type: !1370, flags: DIFlagPrototyped, spFlags: 0)
!1370 = !DISubroutineType(types: !1371)
!1371 = !{!339, !356}
!1372 = !DIImportedEntity(tag: DW_TAG_imported_declaration, scope: !258, entity: !1373, file: !1158, line: 1156)
!1373 = !DISubprogram(name: "lrintf", scope: !1155, file: !1155, line: 314, type: !1374, flags: DIFlagPrototyped, spFlags: 0)
!1374 = !DISubroutineType(types: !1375)
!1375 = !{!339, !510}
!1376 = !DIImportedEntity(tag: DW_TAG_imported_declaration, scope: !258, entity: !1377, file: !1158, line: 1157)
!1377 = !DISubprogram(name: "lrintl", scope: !1155, file: !1155, line: 314, type: !1378, flags: DIFlagPrototyped, spFlags: 0)
!1378 = !DISubroutineType(types: !1379)
!1379 = !{!339, !515}
!1380 = !DIImportedEntity(tag: DW_TAG_imported_declaration, scope: !258, entity: !1381, file: !1158, line: 1159)
!1381 = !DISubprogram(name: "lround", scope: !1155, file: !1155, line: 320, type: !1370, flags: DIFlagPrototyped, spFlags: 0)
!1382 = !DIImportedEntity(tag: DW_TAG_imported_declaration, scope: !258, entity: !1383, file: !1158, line: 1160)
!1383 = !DISubprogram(name: "lroundf", scope: !1155, file: !1155, line: 320, type: !1374, flags: DIFlagPrototyped, spFlags: 0)
!1384 = !DIImportedEntity(tag: DW_TAG_imported_declaration, scope: !258, entity: !1385, file: !1158, line: 1161)
!1385 = !DISubprogram(name: "lroundl", scope: !1155, file: !1155, line: 320, type: !1378, flags: DIFlagPrototyped, spFlags: 0)
!1386 = !DIImportedEntity(tag: DW_TAG_imported_declaration, scope: !258, entity: !1387, file: !1158, line: 1163)
!1387 = !DISubprogram(name: "nan", scope: !1155, file: !1155, line: 201, type: !354, flags: DIFlagPrototyped, spFlags: 0)
!1388 = !DIImportedEntity(tag: DW_TAG_imported_declaration, scope: !258, entity: !1389, file: !1158, line: 1164)
!1389 = !DISubprogram(name: "nanf", scope: !1155, file: !1155, line: 201, type: !1390, flags: DIFlagPrototyped, spFlags: 0)
!1390 = !DISubroutineType(types: !1391)
!1391 = !{!510, !357}
!1392 = !DIImportedEntity(tag: DW_TAG_imported_declaration, scope: !258, entity: !1393, file: !1158, line: 1165)
!1393 = !DISubprogram(name: "nanl", scope: !1155, file: !1155, line: 201, type: !1394, flags: DIFlagPrototyped, spFlags: 0)
!1394 = !DISubroutineType(types: !1395)
!1395 = !{!515, !357}
!1396 = !DIImportedEntity(tag: DW_TAG_imported_declaration, scope: !258, entity: !1397, file: !1158, line: 1167)
!1397 = !DISubprogram(name: "nearbyint", scope: !1155, file: !1155, line: 294, type: !1156, flags: DIFlagPrototyped, spFlags: 0)
!1398 = !DIImportedEntity(tag: DW_TAG_imported_declaration, scope: !258, entity: !1399, file: !1158, line: 1168)
!1399 = !DISubprogram(name: "nearbyintf", scope: !1155, file: !1155, line: 294, type: !1220, flags: DIFlagPrototyped, spFlags: 0)
!1400 = !DIImportedEntity(tag: DW_TAG_imported_declaration, scope: !258, entity: !1401, file: !1158, line: 1169)
!1401 = !DISubprogram(name: "nearbyintl", scope: !1155, file: !1155, line: 294, type: !1224, flags: DIFlagPrototyped, spFlags: 0)
!1402 = !DIImportedEntity(tag: DW_TAG_imported_declaration, scope: !258, entity: !1403, file: !1158, line: 1171)
!1403 = !DISubprogram(name: "nextafter", scope: !1155, file: !1155, line: 259, type: !1165, flags: DIFlagPrototyped, spFlags: 0)
!1404 = !DIImportedEntity(tag: DW_TAG_imported_declaration, scope: !258, entity: !1405, file: !1158, line: 1172)
!1405 = !DISubprogram(name: "nextafterf", scope: !1155, file: !1155, line: 259, type: !1248, flags: DIFlagPrototyped, spFlags: 0)
!1406 = !DIImportedEntity(tag: DW_TAG_imported_declaration, scope: !258, entity: !1407, file: !1158, line: 1173)
!1407 = !DISubprogram(name: "nextafterl", scope: !1155, file: !1155, line: 259, type: !1252, flags: DIFlagPrototyped, spFlags: 0)
!1408 = !DIImportedEntity(tag: DW_TAG_imported_declaration, scope: !258, entity: !1409, file: !1158, line: 1175)
!1409 = !DISubprogram(name: "nexttoward", scope: !1155, file: !1155, line: 261, type: !1410, flags: DIFlagPrototyped, spFlags: 0)
!1410 = !DISubroutineType(types: !1411)
!1411 = !{!356, !356, !515}
!1412 = !DIImportedEntity(tag: DW_TAG_imported_declaration, scope: !258, entity: !1413, file: !1158, line: 1176)
!1413 = !DISubprogram(name: "nexttowardf", scope: !1155, file: !1155, line: 261, type: !1414, flags: DIFlagPrototyped, spFlags: 0)
!1414 = !DISubroutineType(types: !1415)
!1415 = !{!510, !510, !515}
!1416 = !DIImportedEntity(tag: DW_TAG_imported_declaration, scope: !258, entity: !1417, file: !1158, line: 1177)
!1417 = !DISubprogram(name: "nexttowardl", scope: !1155, file: !1155, line: 261, type: !1252, flags: DIFlagPrototyped, spFlags: 0)
!1418 = !DIImportedEntity(tag: DW_TAG_imported_declaration, scope: !258, entity: !1419, file: !1158, line: 1179)
!1419 = !DISubprogram(name: "remainder", scope: !1155, file: !1155, line: 272, type: !1165, flags: DIFlagPrototyped, spFlags: 0)
!1420 = !DIImportedEntity(tag: DW_TAG_imported_declaration, scope: !258, entity: !1421, file: !1158, line: 1180)
!1421 = !DISubprogram(name: "remainderf", scope: !1155, file: !1155, line: 272, type: !1248, flags: DIFlagPrototyped, spFlags: 0)
!1422 = !DIImportedEntity(tag: DW_TAG_imported_declaration, scope: !258, entity: !1423, file: !1158, line: 1181)
!1423 = !DISubprogram(name: "remainderl", scope: !1155, file: !1155, line: 272, type: !1252, flags: DIFlagPrototyped, spFlags: 0)
!1424 = !DIImportedEntity(tag: DW_TAG_imported_declaration, scope: !258, entity: !1425, file: !1158, line: 1183)
!1425 = !DISubprogram(name: "remquo", scope: !1155, file: !1155, line: 307, type: !1426, flags: DIFlagPrototyped, spFlags: 0)
!1426 = !DISubroutineType(types: !1427)
!1427 = !{!356, !356, !356, !1185}
!1428 = !DIImportedEntity(tag: DW_TAG_imported_declaration, scope: !258, entity: !1429, file: !1158, line: 1184)
!1429 = !DISubprogram(name: "remquof", scope: !1155, file: !1155, line: 307, type: !1430, flags: DIFlagPrototyped, spFlags: 0)
!1430 = !DISubroutineType(types: !1431)
!1431 = !{!510, !510, !510, !1185}
!1432 = !DIImportedEntity(tag: DW_TAG_imported_declaration, scope: !258, entity: !1433, file: !1158, line: 1185)
!1433 = !DISubprogram(name: "remquol", scope: !1155, file: !1155, line: 307, type: !1434, flags: DIFlagPrototyped, spFlags: 0)
!1434 = !DISubroutineType(types: !1435)
!1435 = !{!515, !515, !515, !1185}
!1436 = !DIImportedEntity(tag: DW_TAG_imported_declaration, scope: !258, entity: !1437, file: !1158, line: 1187)
!1437 = !DISubprogram(name: "rint", scope: !1155, file: !1155, line: 256, type: !1156, flags: DIFlagPrototyped, spFlags: 0)
!1438 = !DIImportedEntity(tag: DW_TAG_imported_declaration, scope: !258, entity: !1439, file: !1158, line: 1188)
!1439 = !DISubprogram(name: "rintf", scope: !1155, file: !1155, line: 256, type: !1220, flags: DIFlagPrototyped, spFlags: 0)
!1440 = !DIImportedEntity(tag: DW_TAG_imported_declaration, scope: !258, entity: !1441, file: !1158, line: 1189)
!1441 = !DISubprogram(name: "rintl", scope: !1155, file: !1155, line: 256, type: !1224, flags: DIFlagPrototyped, spFlags: 0)
!1442 = !DIImportedEntity(tag: DW_TAG_imported_declaration, scope: !258, entity: !1443, file: !1158, line: 1191)
!1443 = !DISubprogram(name: "round", scope: !1155, file: !1155, line: 298, type: !1156, flags: DIFlagPrototyped, spFlags: 0)
!1444 = !DIImportedEntity(tag: DW_TAG_imported_declaration, scope: !258, entity: !1445, file: !1158, line: 1192)
!1445 = !DISubprogram(name: "roundf", scope: !1155, file: !1155, line: 298, type: !1220, flags: DIFlagPrototyped, spFlags: 0)
!1446 = !DIImportedEntity(tag: DW_TAG_imported_declaration, scope: !258, entity: !1447, file: !1158, line: 1193)
!1447 = !DISubprogram(name: "roundl", scope: !1155, file: !1155, line: 298, type: !1224, flags: DIFlagPrototyped, spFlags: 0)
!1448 = !DIImportedEntity(tag: DW_TAG_imported_declaration, scope: !258, entity: !1449, file: !1158, line: 1195)
!1449 = !DISubprogram(name: "scalbln", scope: !1155, file: !1155, line: 290, type: !1450, flags: DIFlagPrototyped, spFlags: 0)
!1450 = !DISubroutineType(types: !1451)
!1451 = !{!356, !356, !339}
!1452 = !DIImportedEntity(tag: DW_TAG_imported_declaration, scope: !258, entity: !1453, file: !1158, line: 1196)
!1453 = !DISubprogram(name: "scalblnf", scope: !1155, file: !1155, line: 290, type: !1454, flags: DIFlagPrototyped, spFlags: 0)
!1454 = !DISubroutineType(types: !1455)
!1455 = !{!510, !510, !339}
!1456 = !DIImportedEntity(tag: DW_TAG_imported_declaration, scope: !258, entity: !1457, file: !1158, line: 1197)
!1457 = !DISubprogram(name: "scalblnl", scope: !1155, file: !1155, line: 290, type: !1458, flags: DIFlagPrototyped, spFlags: 0)
!1458 = !DISubroutineType(types: !1459)
!1459 = !{!515, !515, !339}
!1460 = !DIImportedEntity(tag: DW_TAG_imported_declaration, scope: !258, entity: !1461, file: !1158, line: 1199)
!1461 = !DISubprogram(name: "scalbn", scope: !1155, file: !1155, line: 276, type: !1188, flags: DIFlagPrototyped, spFlags: 0)
!1462 = !DIImportedEntity(tag: DW_TAG_imported_declaration, scope: !258, entity: !1463, file: !1158, line: 1200)
!1463 = !DISubprogram(name: "scalbnf", scope: !1155, file: !1155, line: 276, type: !1464, flags: DIFlagPrototyped, spFlags: 0)
!1464 = !DISubroutineType(types: !1465)
!1465 = !{!510, !510, !15}
!1466 = !DIImportedEntity(tag: DW_TAG_imported_declaration, scope: !258, entity: !1467, file: !1158, line: 1201)
!1467 = !DISubprogram(name: "scalbnl", scope: !1155, file: !1155, line: 276, type: !1468, flags: DIFlagPrototyped, spFlags: 0)
!1468 = !DISubroutineType(types: !1469)
!1469 = !{!515, !515, !15}
!1470 = !DIImportedEntity(tag: DW_TAG_imported_declaration, scope: !258, entity: !1471, file: !1158, line: 1203)
!1471 = !DISubprogram(name: "tgamma", scope: !1155, file: !1155, line: 235, type: !1156, flags: DIFlagPrototyped, spFlags: 0)
!1472 = !DIImportedEntity(tag: DW_TAG_imported_declaration, scope: !258, entity: !1473, file: !1158, line: 1204)
!1473 = !DISubprogram(name: "tgammaf", scope: !1155, file: !1155, line: 235, type: !1220, flags: DIFlagPrototyped, spFlags: 0)
!1474 = !DIImportedEntity(tag: DW_TAG_imported_declaration, scope: !258, entity: !1475, file: !1158, line: 1205)
!1475 = !DISubprogram(name: "tgammal", scope: !1155, file: !1155, line: 235, type: !1224, flags: DIFlagPrototyped, spFlags: 0)
!1476 = !DIImportedEntity(tag: DW_TAG_imported_declaration, scope: !258, entity: !1477, file: !1158, line: 1207)
!1477 = !DISubprogram(name: "trunc", scope: !1155, file: !1155, line: 302, type: !1156, flags: DIFlagPrototyped, spFlags: 0)
!1478 = !DIImportedEntity(tag: DW_TAG_imported_declaration, scope: !258, entity: !1479, file: !1158, line: 1208)
!1479 = !DISubprogram(name: "truncf", scope: !1155, file: !1155, line: 302, type: !1220, flags: DIFlagPrototyped, spFlags: 0)
!1480 = !DIImportedEntity(tag: DW_TAG_imported_declaration, scope: !258, entity: !1481, file: !1158, line: 1209)
!1481 = !DISubprogram(name: "truncl", scope: !1155, file: !1155, line: 302, type: !1224, flags: DIFlagPrototyped, spFlags: 0)
!1482 = !DIImportedEntity(tag: DW_TAG_imported_declaration, scope: !14, entity: !565, file: !1483, line: 39)
!1483 = !DIFile(filename: "./xalanc/PlatformSupport/DoubleSupport.hpp", directory: "/home/venkat/IF-DV/spec_build_release/CPU_2017/benchspec/CPU/523.xalancbmk_r/build/build_base_ld-loop-ext-m64.0000")
!1484 = !DIImportedEntity(tag: DW_TAG_imported_declaration, scope: !14, entity: !565, file: !1485, line: 56)
!1485 = !DIFile(filename: "./xalanc/XPath/XPathExpression.hpp", directory: "/home/venkat/IF-DV/spec_build_release/CPU_2017/benchspec/CPU/523.xalancbmk_r/build/build_base_ld-loop-ext-m64.0000")
!1486 = !DIImportedEntity(tag: DW_TAG_imported_declaration, scope: !14, entity: !1139, file: !1487, line: 39)
!1487 = !DIFile(filename: "./xalanc/XPath/XPathConstructionContext.hpp", directory: "/home/venkat/IF-DV/spec_build_release/CPU_2017/benchspec/CPU/523.xalancbmk_r/build/build_base_ld-loop-ext-m64.0000")
!1488 = !DIImportedEntity(tag: DW_TAG_imported_declaration, scope: !258, entity: !3, file: !1489, line: 89)
!1489 = !DIFile(filename: "/usr/lib/gcc/x86_64-linux-gnu/10/../../../../include/c++/10/bits/shared_ptr_base.h", directory: "")
!1490 = !DIImportedEntity(tag: DW_TAG_imported_declaration, scope: !258, entity: !1491, file: !1489, line: 90)
!1491 = !DIGlobalVariable(name: "__default_lock_policy", linkageName: "_ZN9__gnu_cxxL21__default_lock_policyE", scope: !5, file: !4, line: 53, type: !1492, isLocal: true, isDefinition: false)
!1492 = !DIDerivedType(tag: DW_TAG_const_type, baseType: !3)
!1493 = !DIImportedEntity(tag: DW_TAG_imported_declaration, scope: !0, entity: !966, file: !1494, line: 30)
!1494 = !DIFile(filename: "./xalanc/XSLT/StylesheetExecutionContext.hpp", directory: "/home/venkat/IF-DV/spec_build_release/CPU_2017/benchspec/CPU/523.xalancbmk_r/build/build_base_ld-loop-ext-m64.0000")
!1495 = !{i32 7, !"Dwarf Version", i32 4}
!1496 = !{i32 2, !"Debug Info Version", i32 3}
!1497 = !{i32 1, !"wchar_size", i32 4}
!1498 = !{!"clang version 10.0.1 (https://github.com/svkeerthy/IR2Vec-LoopOptimizationFramework.git 561ac470e63b728263a0ac06ef987886ac648486)"}
!1499 = distinct !DISubprogram(name: "~XMLDeleter", linkageName: "_ZN11xercesc_2_710XMLDeleterD0Ev", scope: !1501, file: !1500, line: 845, type: !1507, scopeLine: 846, flags: DIFlagPrototyped, spFlags: DISPFlagDefinition, unit: !0, declaration: !1506, retainedNodes: !62)
!1500 = !DIFile(filename: "./xercesc/util/PlatformUtils.hpp", directory: "/home/venkat/IF-DV/spec_build_release/CPU_2017/benchspec/CPU/523.xalancbmk_r/build/build_base_ld-loop-ext-m64.0000")
!1501 = distinct !DICompositeType(tag: DW_TAG_class_type, name: "XMLDeleter", scope: !253, file: !1500, line: 42, size: 64, flags: DIFlagTypePassByReference | DIFlagNonTrivial, elements: !1502, vtableHolder: !1501, identifier: "_ZTSN11xercesc_2_710XMLDeleterE")
!1502 = !{!1503, !1506, !1510, !1511, !1516}
!1503 = !DIDerivedType(tag: DW_TAG_member, name: "_vptr$XMLDeleter", scope: !1500, file: !1500, baseType: !1504, size: 64, flags: DIFlagArtificial)
!1504 = !DIDerivedType(tag: DW_TAG_pointer_type, baseType: !1505, size: 64)
!1505 = !DIDerivedType(tag: DW_TAG_pointer_type, name: "__vtbl_ptr_type", baseType: !438, size: 64)
!1506 = !DISubprogram(name: "~XMLDeleter", scope: !1501, file: !1500, line: 45, type: !1507, scopeLine: 45, containingType: !1501, virtualIndex: 0, flags: DIFlagPublic | DIFlagPrototyped, spFlags: DISPFlagVirtual)
!1507 = !DISubroutineType(types: !1508)
!1508 = !{null, !1509}
!1509 = !DIDerivedType(tag: DW_TAG_pointer_type, baseType: !1501, size: 64, flags: DIFlagArtificial | DIFlagObjectPointer)
!1510 = !DISubprogram(name: "XMLDeleter", scope: !1501, file: !1500, line: 48, type: !1507, scopeLine: 48, flags: DIFlagProtected | DIFlagPrototyped, spFlags: 0)
!1511 = !DISubprogram(name: "XMLDeleter", scope: !1501, file: !1500, line: 51, type: !1512, scopeLine: 51, flags: DIFlagPrototyped, spFlags: 0)
!1512 = !DISubroutineType(types: !1513)
!1513 = !{null, !1509, !1514}
!1514 = !DIDerivedType(tag: DW_TAG_reference_type, baseType: !1515, size: 64)
!1515 = !DIDerivedType(tag: DW_TAG_const_type, baseType: !1501)
!1516 = !DISubprogram(name: "operator=", linkageName: "_ZN11xercesc_2_710XMLDeleteraSERKS0_", scope: !1501, file: !1500, line: 52, type: !1517, scopeLine: 52, flags: DIFlagPrototyped, spFlags: 0)
!1517 = !DISubroutineType(types: !1518)
!1518 = !{!1519, !1509, !1514}
!1519 = !DIDerivedType(tag: DW_TAG_reference_type, baseType: !1501, size: 64)
!1520 = !DILocalVariable(name: "this", arg: 1, scope: !1499, type: !1521, flags: DIFlagArtificial | DIFlagObjectPointer)
!1521 = !DIDerivedType(tag: DW_TAG_pointer_type, baseType: !1501, size: 64)
!1522 = !DILocation(line: 0, scope: !1499)
!1523 = !DILocation(line: 846, column: 1, scope: !1499)
!1524 = !DILocation(line: 847, column: 1, scope: !1499)
!1525 = distinct !DISubprogram(name: "~XMLDeleter", linkageName: "_ZN11xercesc_2_710XMLDeleterD2Ev", scope: !1501, file: !1500, line: 845, type: !1507, scopeLine: 846, flags: DIFlagPrototyped, spFlags: DISPFlagDefinition, unit: !0, declaration: !1506, retainedNodes: !62)
!1526 = !DILocalVariable(name: "this", arg: 1, scope: !1525, type: !1521, flags: DIFlagArtificial | DIFlagObjectPointer)
!1527 = !DILocation(line: 0, scope: !1525)
!1528 = !DILocation(line: 847, column: 1, scope: !1525)
!1529 = distinct !DISubprogram(name: "ElemAttributeSet", linkageName: "_ZN11xalanc_1_1016ElemAttributeSetC2ERNS_29StylesheetConstructionContextERNS_10StylesheetERKN11xercesc_2_713AttributeListEii", scope: !1530, file: !1, line: 40, type: !2334, scopeLine: 52, flags: DIFlagPrototyped, spFlags: DISPFlagDefinition, unit: !0, declaration: !1541, retainedNodes: !62)
!1530 = distinct !DICompositeType(tag: DW_TAG_class_type, name: "ElemAttributeSet", scope: !14, file: !1531, line: 35, size: 2816, flags: DIFlagTypePassByReference | DIFlagNonTrivial, elements: !1532, vtableHolder: !2332)
!1531 = !DIFile(filename: "./xalanc/XSLT/ElemAttributeSet.hpp", directory: "/home/venkat/IF-DV/spec_build_release/CPU_2017/benchspec/CPU/523.xalancbmk_r/build/build_base_ld-loop-ext-m64.0000")
!1532 = !{!1533, !1536, !1541, !1552, !1555, !1561, !2314, !2322, !2325, !2326, !2329}
!1533 = !DIDerivedType(tag: DW_TAG_inheritance, scope: !1530, baseType: !1534, flags: DIFlagPublic, extraData: i32 0)
!1534 = !DICompositeType(tag: DW_TAG_class_type, name: "ElemUse", scope: !14, file: !1535, line: 35, flags: DIFlagFwdDecl)
!1535 = !DIFile(filename: "./xalanc/XSLT/ElemUse.hpp", directory: "/home/venkat/IF-DV/spec_build_release/CPU_2017/benchspec/CPU/523.xalancbmk_r/build/build_base_ld-loop-ext-m64.0000")
!1536 = !DIDerivedType(tag: DW_TAG_member, name: "m_qname", scope: !1530, file: !1531, line: 103, baseType: !1537, size: 64, offset: 2752)
!1537 = !DIDerivedType(tag: DW_TAG_pointer_type, baseType: !1538, size: 64)
!1538 = !DIDerivedType(tag: DW_TAG_const_type, baseType: !1539)
!1539 = !DICompositeType(tag: DW_TAG_class_type, name: "XalanQName", scope: !14, file: !1540, line: 68, flags: DIFlagFwdDecl, identifier: "_ZTSN11xalanc_1_1010XalanQNameE")
!1540 = !DIFile(filename: "./xalanc/XPath/XalanQName.hpp", directory: "/home/venkat/IF-DV/spec_build_release/CPU_2017/benchspec/CPU/523.xalancbmk_r/build/build_base_ld-loop-ext-m64.0000")
!1541 = !DISubprogram(name: "ElemAttributeSet", scope: !1530, file: !1531, line: 48, type: !1542, scopeLine: 48, flags: DIFlagPublic | DIFlagPrototyped, spFlags: 0)
!1542 = !DISubroutineType(types: !1543)
!1543 = !{null, !1544, !1545, !1546, !1549, !15, !15}
!1544 = !DIDerivedType(tag: DW_TAG_pointer_type, baseType: !1530, size: 64, flags: DIFlagArtificial | DIFlagObjectPointer)
!1545 = !DIDerivedType(tag: DW_TAG_reference_type, baseType: !13, size: 64)
!1546 = !DIDerivedType(tag: DW_TAG_reference_type, baseType: !1547, size: 64)
!1547 = !DICompositeType(tag: DW_TAG_class_type, name: "Stylesheet", scope: !14, file: !1548, line: 84, flags: DIFlagFwdDecl)
