; ModuleID = 'DOMStringHelper.cpp'
source_filename = "DOMStringHelper.cpp"
target datalayout = "e-m:e-p270:32:32-p271:32:32-p272:64:64-i64:64-f80:128-n8:16:32:64-S128"
target triple = "x86_64-unknown-linux-gnu"

%"class.std::ios_base::Init" = type { i8 }
%"union.xalanc_1_10::DoubleSupport::NumberUnion" = type { double }
%"class.xercesc_2_7::XMLDeleter" = type { i32 (...)** }
%"class.xalanc_1_10::XalanDOMString" = type <{ %"class.xalanc_1_10::XalanVector", i32, [4 x i8] }>
%"class.xalanc_1_10::XalanVector" = type { %"class.xercesc_2_7::MemoryManager"*, i64, i64, i16* }
%"class.xercesc_2_7::MemoryManager" = type { i32 (...)** }
%"class.xalanc_1_10::XalanOutputStream" = type { i32 (...)**, i32, %"class.xalanc_1_10::XalanOutputTranscoder"*, i32, %"class.xalanc_1_10::XalanVector", %"class.xalanc_1_10::XalanDOMString", i8, i8, %"class.xalanc_1_10::XalanVector.0" }
%"class.xalanc_1_10::XalanOutputTranscoder" = type { i32 (...)**, %"class.xercesc_2_7::MemoryManager"* }
%"class.xalanc_1_10::XalanVector.0" = type { %"class.xercesc_2_7::MemoryManager"*, i64, i64, i8* }
%"class.std::basic_ostream" = type { i32 (...)**, %"class.std::basic_ios" }
%"class.std::basic_ios" = type { %"class.std::ios_base", %"class.std::basic_ostream"*, i8, i8, %"class.std::basic_streambuf"*, %"class.std::ctype"*, %"class.std::num_put"*, %"class.std::num_get"* }
%"class.std::ios_base" = type { i32 (...)**, i64, i64, i32, i32, i32, %"struct.std::ios_base::_Callback_list"*, %"struct.std::ios_base::_Words", [8 x %"struct.std::ios_base::_Words"], i32, %"struct.std::ios_base::_Words"*, %"class.std::locale" }
%"struct.std::ios_base::_Callback_list" = type { %"struct.std::ios_base::_Callback_list"*, void (i32, %"class.std::ios_base"*, i32)*, i32, i32 }
%"struct.std::ios_base::_Words" = type { i8*, i64 }
%"class.std::locale" = type { %"class.std::locale::_Impl"* }
%"class.std::locale::_Impl" = type { i32, %"class.std::locale::facet"**, i64, %"class.std::locale::facet"**, i8** }
%"class.std::locale::facet" = type <{ i32 (...)**, i32, [4 x i8] }>
%"class.std::basic_streambuf" = type { i32 (...)**, i8*, i8*, i8*, i8*, i8*, i8*, %"class.std::locale" }
%"class.std::ctype" = type <{ %"class.std::locale::facet.base", [4 x i8], %struct.__locale_struct*, i8, [7 x i8], i32*, i32*, i16*, i8, [256 x i8], [256 x i8], i8, [6 x i8] }>
%"class.std::locale::facet.base" = type <{ i32 (...)**, i32 }>
%struct.__locale_struct = type { [13 x %struct.__locale_data*], i16*, i32*, i32*, [13 x i8*] }
%struct.__locale_data = type opaque
%"class.std::num_put" = type { %"class.std::locale::facet.base", [4 x i8] }
%"class.std::num_get" = type { %"class.std::locale::facet.base", [4 x i8] }
%"class.std::back_insert_iterator.2" = type { %"class.xalanc_1_10::XalanDOMString"* }
%"class.xalanc_1_10::IdentityTransform" = type { i8 }
%"class.xalanc_1_10::IdentityTransform.1" = type { i8 }
%"class.std::back_insert_iterator" = type { %"class.xalanc_1_10::XalanVector"* }
%"class.xalanc_1_10::IdentityTransform.3" = type { i8 }
%"class.xalanc_1_10::FormatterListener" = type { %"class.xercesc_2_7::DocumentHandler", %"class.xalanc_1_10::PrefixResolver"*, i32, i32 }
%"class.xercesc_2_7::DocumentHandler" = type { i32 (...)** }
%"class.xalanc_1_10::PrefixResolver" = type opaque
%"struct.std::random_access_iterator_tag" = type { i8 }
%struct.anon = type { i32, i32 }
%"struct.std::iterator" = type { i8 }

$_ZN11xercesc_2_710XMLDeleterD0Ev = comdat any

$_ZN11xercesc_2_710XMLDeleterD2Ev = comdat any

$_ZN11xalanc_1_106lengthEPKt = comdat any

$_ZN11xalanc_1_107isEmptyERKNS_14XalanDOMStringE = comdat any

$_ZNK11xalanc_1_1014XalanDOMString6lengthEv = comdat any

$_ZN11xalanc_1_106c_wstrERKNS_14XalanDOMStringE = comdat any

$_ZNK11xalanc_1_1011XalanVectorIcNS_31MemoryManagedConstructionTraitsIcEEE5emptyEv = comdat any

$_ZN11xalanc_1_1017XalanOutputStream5writeEPKc = comdat any

$_ZN11xalanc_1_105c_strERKNS_11XalanVectorIcNS_31MemoryManagedConstructionTraitsIcEEEE = comdat any

$_ZNK11xalanc_1_1011XalanVectorIcNS_31MemoryManagedConstructionTraitsIcEEE5beginEv = comdat any

$_ZNK11xalanc_1_1011XalanVectorIcNS_31MemoryManagedConstructionTraitsIcEEE4sizeEv = comdat any

$_ZN11xalanc_1_1017XalanOutputStream5writeEPKt = comdat any

$_ZN11xalanc_1_1011XalanVectorIcNS_31MemoryManagedConstructionTraitsIcEEEC2ERN11xercesc_2_713MemoryManagerEm = comdat any

$_ZN11xalanc_1_1011XalanVectorIcNS_31MemoryManagedConstructionTraitsIcEEED2Ev = comdat any

$_ZN11xalanc_1_105clearERNS_14XalanDOMStringE = comdat any

$_ZN11xalanc_1_1014XalanDOMString6assignEPKtj = comdat any

$_ZN11xalanc_1_106lengthERKNS_14XalanDOMStringE = comdat any

$_ZNK11xalanc_1_1014XalanDOMString6substrERS0_jj = comdat any

$_ZN11xalanc_1_1015TransformStringIPFttEEERNS_14XalanDOMStringEPKtjT_S4_ = comdat any

$_ZN11xalanc_1_1012toLowerASCIIEt = comdat any

$_ZN11xalanc_1_1023TransformXalanDOMStringIPFttEEERNS_14XalanDOMStringERKS3_T_S4_ = comdat any

$_ZN11xalanc_1_1015TransformStringIPFttEEERNS_14XalanDOMStringET_S4_ = comdat any

$_ZN11xalanc_1_1012toUpperASCIIEt = comdat any

$_ZN11xalanc_1_1021makeIdentityTransformIccEENS_17IdentityTransformIT_T0_EEPKS2_PKS3_ = comdat any

$_ZN11xalanc_1_1021makeIdentityTransformIttEENS_17IdentityTransformIT_T0_EEPKS2_PKS3_ = comdat any

$_ZN11xalanc_1_109doCompareIcmNS_17IdentityTransformIccEEEEiPKT_T0_S5_S6_T1_ = comdat any

$_ZN11xalanc_1_1011toCharArrayERKNS_11XalanVectorIcNS_31MemoryManagedConstructionTraitsIcEEEE = comdat any

$_ZN11xalanc_1_109doCompareItjNS_17IdentityTransformIttEEEEiPKT_T0_S5_S6_T1_ = comdat any

$_ZN11xalanc_1_109doCompareItjPFttEEEiPKT_T0_S5_S6_T1_ = comdat any

$_ZN11xalanc_1_1018doCollationCompareItjNS_17IdentityTransformIttEEEEiPKT_T0_S5_S6_T1_ = comdat any

$_ZN11xalanc_1_108doEqualsItjNS_17IdentityTransformIttEEEEbPKT_S5_T0_T1_ = comdat any

$_ZN11xalanc_1_1018doEqualsIgnoreCaseItjPFttEEEbPKT_S5_T0_T1_ = comdat any

$_ZN11xalanc_1_1011XalanVectorItNS_31MemoryManagedConstructionTraitsItEEE7reserveEm = comdat any

$_ZSt4copyIPKcSt20back_insert_iteratorIN11xalanc_1_1011XalanVectorItNS3_31MemoryManagedConstructionTraitsItEEEEEET0_T_SA_S9_ = comdat any

$_ZSt13back_inserterIN11xalanc_1_1011XalanVectorItNS0_31MemoryManagedConstructionTraitsItEEEEESt20back_insert_iteratorIT_ERS6_ = comdat any

$_ZN11xalanc_1_1011XalanVectorItNS_31MemoryManagedConstructionTraitsItEEE16getMemoryManagerEv = comdat any

$_ZN11xalanc_1_1011XalanVectorItNS_31MemoryManagedConstructionTraitsItEEEC2EPKtS5_RN11xercesc_2_713MemoryManagerE = comdat any

$_ZN11xalanc_1_1011XalanVectorItNS_31MemoryManagedConstructionTraitsItEEE4swapERS3_ = comdat any

$_ZN11xalanc_1_1011XalanVectorItNS_31MemoryManagedConstructionTraitsItEEED2Ev = comdat any

$_ZN11xalanc_1_1011XalanVectorIcNS_31MemoryManagedConstructionTraitsIcEEE7reserveEm = comdat any

$_ZN11xalanc_1_1011XalanVectorIcNS_31MemoryManagedConstructionTraitsIcEEE9push_backERKc = comdat any

$_ZN11xalanc_1_1011XalanVectorIcNS_31MemoryManagedConstructionTraitsIcEEE6insertEPcPKcS6_ = comdat any

$_ZN11xalanc_1_1011XalanVectorIcNS_31MemoryManagedConstructionTraitsIcEEE3endEv = comdat any

$_ZN11xalanc_1_1020WideStringToIntegralIiEET_PKtS1_ = comdat any

$_ZN11xalanc_1_1020WideStringToIntegralIlEET_PKtS1_ = comdat any

$_ZN11xalanc_1_1020WideStringToIntegralImEET_PKtS1_ = comdat any

$_ZN11xalanc_1_1015isXMLWhitespaceEt = comdat any

$_ZN11xalanc_1_106charAtERKNS_14XalanDOMStringEj = comdat any

$_ZN11xalanc_1_107reserveERNS_14XalanDOMStringEj = comdat any

$_ZN11xalanc_1_1015TranscodeNumberIPcSt20back_insert_iteratorINS_14XalanDOMStringEEEET0_T_S6_S5_ = comdat any

$_ZSt13back_inserterIN11xalanc_1_1014XalanDOMStringEESt20back_insert_iteratorIT_ERS3_ = comdat any

$_ZN11xalanc_1_1013DoubleSupport5isNaNEd = comdat any

$_ZN11xalanc_1_106appendERNS_14XalanDOMStringEPKtj = comdat any

$_ZN11xalanc_1_1013DoubleSupport18isPositiveInfinityEd = comdat any

$_ZN11xalanc_1_1013DoubleSupport18isNegativeInfinityEd = comdat any

$_ZN11xalanc_1_1013DoubleSupport14isPositiveZeroEd = comdat any

$_ZN11xalanc_1_1013DoubleSupport14isNegativeZeroEd = comdat any

$_ZN11xalanc_1_1015TranscodeNumberIPcPtEET0_T_S4_S3_ = comdat any

$_ZN11xalanc_1_1021ScalarToDecimalStringIlEEPtT_S1_ = comdat any

$_ZN11xalanc_1_1033UnsignedScalarToHexadecimalStringIlEEvT_RNS_14XalanDOMStringE = comdat any

$_ZN11xalanc_1_1033UnsignedScalarToHexadecimalStringImEEvT_RNS_14XalanDOMStringE = comdat any

$_ZN11xalanc_1_1021ScalarToDecimalStringIlEEvT_RNS_14XalanDOMStringE = comdat any

$_ZN11xalanc_1_1021ScalarToDecimalStringImEEvT_RNS_14XalanDOMStringE = comdat any

$_ZNK11xalanc_1_1014XalanDOMString5emptyEv = comdat any

$_ZNK11xalanc_1_1014XalanDOMString10invariantsEv = comdat any

$_ZNK11xalanc_1_1014XalanDOMString4sizeEv = comdat any

$_ZNK11xalanc_1_1014XalanDOMString5c_strEv = comdat any

$_ZNK11xalanc_1_1011XalanVectorItNS_31MemoryManagedConstructionTraitsItEEE5emptyEv = comdat any

$_ZNK11xalanc_1_1011XalanVectorItNS_31MemoryManagedConstructionTraitsItEEEixEm = comdat any

$_ZNK11xalanc_1_1011XalanVectorItNS_31MemoryManagedConstructionTraitsItEEE10invariantsEv = comdat any

$_ZN11xalanc_1_1017XalanOutputStream5writeEPKcj = comdat any

$_ZN11xalanc_1_106lengthEPKc = comdat any

$_ZNK11xalanc_1_1011XalanVectorIcNS_31MemoryManagedConstructionTraitsIcEEEixEm = comdat any

$_ZN11xalanc_1_1014XalanDOMString5clearEv = comdat any

$_ZN11xalanc_1_1011XalanVectorItNS_31MemoryManagedConstructionTraitsItEEE5eraseEPtS4_ = comdat any

$_ZN11xalanc_1_1011XalanVectorItNS_31MemoryManagedConstructionTraitsItEEE5beginEv = comdat any

$_ZN11xalanc_1_1011XalanVectorItNS_31MemoryManagedConstructionTraitsItEEE3endEv = comdat any

$_ZSt4copyIPtS0_ET0_T_S2_S1_ = comdat any

$_ZN11xalanc_1_1011XalanVectorItNS_31MemoryManagedConstructionTraitsItEEE11shrinkCountEm = comdat any

$_ZN11xalanc_1_1011XalanVectorItNS_31MemoryManagedConstructionTraitsItEEE14local_distanceEPKtS5_ = comdat any

$_ZSt13__copy_move_aILb0EPtS0_ET1_T0_S2_S1_ = comdat any

$_ZSt12__miter_baseIPtET_S1_ = comdat any

$_ZSt12__niter_wrapIPtET_RKS1_S1_ = comdat any

$_ZSt14__copy_move_a1ILb0EPtS0_ET1_T0_S2_S1_ = comdat any

$_ZSt12__niter_baseIPtET_S1_ = comdat any

$_ZSt14__copy_move_a2ILb0EPtS0_ET1_T0_S2_S1_ = comdat any

$_ZNSt11__copy_moveILb0ELb1ESt26random_access_iterator_tagE8__copy_mItEEPT_PKS3_S6_S4_ = comdat any

$_ZN11xalanc_1_1011XalanVectorItNS_31MemoryManagedConstructionTraitsItEEE8pop_backEv = comdat any

$_ZN11xalanc_1_1011XalanVectorItNS_31MemoryManagedConstructionTraitsItEEE7destroyERt = comdat any

$_ZSt8distanceIPKtENSt15iterator_traitsIT_E15difference_typeES3_S3_ = comdat any

$_ZSt10__distanceIPKtENSt15iterator_traitsIT_E15difference_typeES3_S3_St26random_access_iterator_tag = comdat any

$_ZSt19__iterator_categoryIPKtENSt15iterator_traitsIT_E17iterator_categoryERKS3_ = comdat any

$_ZN11xalanc_1_1011XalanVectorItNS_31MemoryManagedConstructionTraitsItEEE10endPointerEv = comdat any

$_ZN11xalanc_1_1012XalanXMLChar12isWhitespaceEt = comdat any

$_ZNK11xalanc_1_1014XalanDOMStringixEj = comdat any

$_ZN11xalanc_1_1014XalanDOMString7reserveEj = comdat any

$_ZNK11xalanc_1_1013DoubleSupport11NumberUnioneqEd = comdat any

$_ZN11xalanc_1_1014XalanDOMString6appendEPKt = comdat any

$__clang_call_terminate = comdat any

$_ZN11xalanc_1_1011XalanVectorItNS_31MemoryManagedConstructionTraitsItEEE7destroyEPtS4_ = comdat any

$_ZN11xalanc_1_1011XalanVectorItNS_31MemoryManagedConstructionTraitsItEEE10deallocateEPt = comdat any

$_ZN11xalanc_1_1011XalanVectorItNS_31MemoryManagedConstructionTraitsItEEE9doReserveEm = comdat any

$_ZN11xalanc_1_1011XalanVectorItNS_31MemoryManagedConstructionTraitsItEEEC2ERKS3_RN11xercesc_2_713MemoryManagerEm = comdat any

$_ZN11xalanc_1_1011XalanVectorItNS_31MemoryManagedConstructionTraitsItEEE9local_maxEmm = comdat any

$_ZN11xalanc_1_1011XalanVectorItNS_31MemoryManagedConstructionTraitsItEEEC2ERN11xercesc_2_713MemoryManagerEm = comdat any

$_ZN11xalanc_1_1011XalanVectorItNS_31MemoryManagedConstructionTraitsItEEE6insertEPtPKtS6_ = comdat any

$_ZNK11xalanc_1_1011XalanVectorItNS_31MemoryManagedConstructionTraitsItEEE5beginEv = comdat any

$_ZNK11xalanc_1_1011XalanVectorItNS_31MemoryManagedConstructionTraitsItEEE3endEv = comdat any

$_ZN11xalanc_1_1011XalanVectorItNS_31MemoryManagedConstructionTraitsItEEE8allocateEm = comdat any

$_ZNK11xalanc_1_1011XalanVectorItNS_31MemoryManagedConstructionTraitsItEEE4sizeEv = comdat any

$_ZN11xalanc_1_1011XalanVectorItNS_31MemoryManagedConstructionTraitsItEEE14ensureCapacityEm = comdat any

$_ZN11xalanc_1_1028ConstructWithNoMemoryManagerItE9constructEPtRKtRN11xercesc_2_713MemoryManagerE = comdat any

$_ZNK11xalanc_1_1011XalanVectorItNS_31MemoryManagedConstructionTraitsItEEE8capacityEv = comdat any

$_ZN11xalanc_1_1011XalanVectorItNS_31MemoryManagedConstructionTraitsItEEE10doPushBackERKt = comdat any

$_ZSt4copyIPKtPtET0_T_S4_S3_ = comdat any

$_ZSt13copy_backwardIPtS0_ET0_T_S2_S1_ = comdat any

$_ZSt13__copy_move_aILb0EPKtPtET1_T0_S4_S3_ = comdat any

$_ZSt12__miter_baseIPKtET_S2_ = comdat any

$_ZSt14__copy_move_a1ILb0EPKtPtET1_T0_S4_S3_ = comdat any

$_ZSt12__niter_baseIPKtET_S2_ = comdat any

$_ZSt14__copy_move_a2ILb0EPKtPtET1_T0_S4_S3_ = comdat any

$_ZSt22__copy_move_backward_aILb0EPtS0_ET1_T0_S2_S1_ = comdat any

$_ZSt23__copy_move_backward_a1ILb0EPtS0_ET1_T0_S2_S1_ = comdat any

$_ZSt23__copy_move_backward_a2ILb0EPtS0_ET1_T0_S2_S1_ = comdat any

$_ZNSt20__copy_move_backwardILb0ELb1ESt26random_access_iterator_tagE13__copy_move_bItEEPT_PKS3_S6_S4_ = comdat any

$_ZNK11xalanc_1_1011XalanVectorItNS_31MemoryManagedConstructionTraitsItEEE10endPointerEv = comdat any

$_ZN11xalanc_1_1011XalanVectorIcNS_31MemoryManagedConstructionTraitsIcEEE8allocateEm = comdat any

$_ZNK11xalanc_1_1011XalanVectorIcNS_31MemoryManagedConstructionTraitsIcEEE10invariantsEv = comdat any

$_ZN11xalanc_1_1011XalanVectorIcNS_31MemoryManagedConstructionTraitsIcEEE7destroyEPcS4_ = comdat any

$_ZN11xalanc_1_1011XalanVectorIcNS_31MemoryManagedConstructionTraitsIcEEE5beginEv = comdat any

$_ZN11xalanc_1_1011XalanVectorIcNS_31MemoryManagedConstructionTraitsIcEEE10deallocateEPc = comdat any

$_ZN11xalanc_1_1011XalanVectorIcNS_31MemoryManagedConstructionTraitsIcEEE7destroyERc = comdat any

$_ZN11xalanc_1_1015TransformStringIPKtSt20back_insert_iteratorINS_14XalanDOMStringEEPFttEEET0_T_S9_S8_T1_ = comdat any

$_ZSt9transformIPKtSt20back_insert_iteratorIN11xalanc_1_1014XalanDOMStringEEPFttEET0_T_S9_S8_T1_ = comdat any

$_ZNSt20back_insert_iteratorIN11xalanc_1_1014XalanDOMStringEEdeEv = comdat any

$_ZNSt20back_insert_iteratorIN11xalanc_1_1014XalanDOMStringEEaSEOt = comdat any

$_ZNSt20back_insert_iteratorIN11xalanc_1_1014XalanDOMStringEEppEv = comdat any

$_ZN11xalanc_1_1014XalanDOMString9push_backEt = comdat any

$_ZSt4moveIRtEONSt16remove_referenceIT_E4typeEOS2_ = comdat any

$_ZN11xalanc_1_1014XalanDOMStringaSERKS0_ = comdat any

$_ZN11xalanc_1_1014XalanDOMString6assignERKS0_ = comdat any

$_ZN11xalanc_1_1011XalanVectorItNS_31MemoryManagedConstructionTraitsItEEEaSERKS3_ = comdat any

$_ZN11xalanc_1_1011XalanVectorItNS_31MemoryManagedConstructionTraitsItEEE12shrinkToSizeEm = comdat any

$_ZN11xalanc_1_1015TransformStringIPtS1_PFttEEET0_T_S5_S4_T1_ = comdat any

$_ZN11xalanc_1_1014XalanDOMString5beginEv = comdat any

$_ZN11xalanc_1_1014XalanDOMString3endEv = comdat any

$_ZSt9transformIPtS0_PFttEET0_T_S4_S3_T1_ = comdat any

$_ZNK11xalanc_1_1017IdentityTransformIccEclEc = comdat any

$_ZNK11xalanc_1_1017IdentityTransformIttEclEt = comdat any

$_ZNSt20back_insert_iteratorIN11xalanc_1_1011XalanVectorItNS0_31MemoryManagedConstructionTraitsItEEEEEC2ERS4_ = comdat any

$_ZSt11__addressofIN11xalanc_1_1011XalanVectorItNS0_31MemoryManagedConstructionTraitsItEEEEEPT_RS5_ = comdat any

$_ZSt13__copy_move_aILb0EPKcSt20back_insert_iteratorIN11xalanc_1_1011XalanVectorItNS3_31MemoryManagedConstructionTraitsItEEEEEET1_T0_SA_S9_ = comdat any

$_ZSt12__miter_baseIPKcET_S2_ = comdat any

$_ZSt12__niter_wrapISt20back_insert_iteratorIN11xalanc_1_1011XalanVectorItNS1_31MemoryManagedConstructionTraitsItEEEEEET_RKS7_S7_ = comdat any

$_ZSt14__copy_move_a1ILb0EPKcSt20back_insert_iteratorIN11xalanc_1_1011XalanVectorItNS3_31MemoryManagedConstructionTraitsItEEEEEET1_T0_SA_S9_ = comdat any

$_ZSt12__niter_baseIPKcET_S2_ = comdat any

$_ZSt12__niter_baseISt20back_insert_iteratorIN11xalanc_1_1011XalanVectorItNS1_31MemoryManagedConstructionTraitsItEEEEEET_S7_ = comdat any

$_ZSt14__copy_move_a2ILb0EPKcSt20back_insert_iteratorIN11xalanc_1_1011XalanVectorItNS3_31MemoryManagedConstructionTraitsItEEEEEET1_T0_SA_S9_ = comdat any

$_ZNSt11__copy_moveILb0ELb0ESt26random_access_iterator_tagE8__copy_mIPKcSt20back_insert_iteratorIN11xalanc_1_1011XalanVectorItNS6_31MemoryManagedConstructionTraitsItEEEEEEET0_T_SD_SC_ = comdat any

$_ZNSt20back_insert_iteratorIN11xalanc_1_1011XalanVectorItNS0_31MemoryManagedConstructionTraitsItEEEEEdeEv = comdat any

$_ZNSt20back_insert_iteratorIN11xalanc_1_1011XalanVectorItNS0_31MemoryManagedConstructionTraitsItEEEEEaSEOt = comdat any

$_ZNSt20back_insert_iteratorIN11xalanc_1_1011XalanVectorItNS0_31MemoryManagedConstructionTraitsItEEEEEppEv = comdat any

$_ZN11xalanc_1_1011XalanVectorItNS_31MemoryManagedConstructionTraitsItEEE9push_backERKt = comdat any

$_ZN11xalanc_1_1011XalanVectorIcNS_31MemoryManagedConstructionTraitsIcEEE9doReserveEm = comdat any

$_ZN11xalanc_1_1011XalanVectorIcNS_31MemoryManagedConstructionTraitsIcEEEC2ERKS3_RN11xercesc_2_713MemoryManagerEm = comdat any

$_ZN11xalanc_1_1011XalanVectorIcNS_31MemoryManagedConstructionTraitsIcEEE4swapERS3_ = comdat any

$_ZN11xalanc_1_1011XalanVectorIcNS_31MemoryManagedConstructionTraitsIcEEE9local_maxEmm = comdat any

$_ZNK11xalanc_1_1011XalanVectorIcNS_31MemoryManagedConstructionTraitsIcEEE3endEv = comdat any

$_ZNK11xalanc_1_1011XalanVectorIcNS_31MemoryManagedConstructionTraitsIcEEE10endPointerEv = comdat any

$_ZN11xalanc_1_1011XalanVectorIcNS_31MemoryManagedConstructionTraitsIcEEE10doPushBackERKc = comdat any

$_ZN11xalanc_1_1028ConstructWithNoMemoryManagerIcE9constructEPcRKcRN11xercesc_2_713MemoryManagerE = comdat any

$_ZN11xalanc_1_1011XalanVectorIcNS_31MemoryManagedConstructionTraitsIcEEE10endPointerEv = comdat any

$_ZN11xalanc_1_1011XalanVectorIcNS_31MemoryManagedConstructionTraitsIcEEE14local_distanceEPKcS5_ = comdat any

$_ZN11xalanc_1_1011XalanVectorIcNS_31MemoryManagedConstructionTraitsIcEEE14ensureCapacityEm = comdat any

$_ZNK11xalanc_1_1011XalanVectorIcNS_31MemoryManagedConstructionTraitsIcEEE8capacityEv = comdat any

$_ZSt4copyIPKcPcET0_T_S4_S3_ = comdat any

$_ZSt13copy_backwardIPcS0_ET0_T_S2_S1_ = comdat any

$_ZSt8distanceIPKcENSt15iterator_traitsIT_E15difference_typeES3_S3_ = comdat any

$_ZSt10__distanceIPKcENSt15iterator_traitsIT_E15difference_typeES3_S3_St26random_access_iterator_tag = comdat any

$_ZSt19__iterator_categoryIPKcENSt15iterator_traitsIT_E17iterator_categoryERKS3_ = comdat any

$_ZSt13__copy_move_aILb0EPKcPcET1_T0_S4_S3_ = comdat any

$_ZSt12__niter_wrapIPcET_RKS1_S1_ = comdat any

$_ZSt14__copy_move_a1ILb0EPKcPcET1_T0_S4_S3_ = comdat any

$_ZSt12__niter_baseIPcET_S1_ = comdat any

$_ZSt14__copy_move_a2ILb0EPKcPcET1_T0_S4_S3_ = comdat any

$_ZNSt11__copy_moveILb0ELb1ESt26random_access_iterator_tagE8__copy_mIcEEPT_PKS3_S6_S4_ = comdat any

$_ZSt22__copy_move_backward_aILb0EPcS0_ET1_T0_S2_S1_ = comdat any

$_ZSt12__miter_baseIPcET_S1_ = comdat any

$_ZSt23__copy_move_backward_a1ILb0EPcS0_ET1_T0_S2_S1_ = comdat any

$_ZSt23__copy_move_backward_a2ILb0EPcS0_ET1_T0_S2_S1_ = comdat any

$_ZNSt20__copy_move_backwardILb0ELb1ESt26random_access_iterator_tagE13__copy_move_bIcEEPT_PKS3_S6_S4_ = comdat any

$_ZNSt20back_insert_iteratorIN11xalanc_1_1014XalanDOMStringEEC2ERS1_ = comdat any

$_ZSt11__addressofIN11xalanc_1_1014XalanDOMStringEEPT_RS2_ = comdat any

$_ZN11xalanc_1_1015TransformStringIPcSt20back_insert_iteratorINS_14XalanDOMStringEENS_17IdentityTransformIctEEEET0_T_S8_S7_T1_ = comdat any

$_ZSt9transformIPcSt20back_insert_iteratorIN11xalanc_1_1014XalanDOMStringEENS2_17IdentityTransformIctEEET0_T_S8_S7_T1_ = comdat any

$_ZNK11xalanc_1_1017IdentityTransformIctEclEc = comdat any

$_ZN11xalanc_1_1015TransformStringIPcPtNS_17IdentityTransformIctEEEET0_T_S6_S5_T1_ = comdat any

$_ZSt9transformIPcPtN11xalanc_1_1017IdentityTransformIctEEET0_T_S6_S5_T1_ = comdat any

$_ZN11xalanc_1_1033UnsignedScalarToHexadecimalStringIlEEPtT_S1_ = comdat any

$_ZN11xalanc_1_1033UnsignedScalarToHexadecimalStringImEEPtT_S1_ = comdat any

$_ZN11xalanc_1_1021ScalarToDecimalStringImEEPtT_S1_ = comdat any

$_ZTVN11xercesc_2_710XMLDeleterE = comdat any

$_ZTSN11xercesc_2_710XMLDeleterE = comdat any

$_ZTIN11xercesc_2_710XMLDeleterE = comdat any

@_ZStL8__ioinit = internal global %"class.std::ios_base::Init" zeroinitializer, align 1, !dbg !0
@__dso_handle = external hidden global i8
@.str = private unnamed_addr constant [3 x i8] c"%p\00", align 1
@_ZN11xalanc_1_10L12theNaNStringE = internal global [4 x i16] [i16 78, i16 97, i16 78, i16 0], align 2, !dbg !28
@_ZN11xalanc_1_10L25thePositiveInfinityStringE = internal constant [9 x i16] [i16 73, i16 110, i16 102, i16 105, i16 110, i16 105, i16 116, i16 121, i16 0], align 16, !dbg !38
@_ZN11xalanc_1_10L25theNegativeInfinityStringE = internal constant [10 x i16] [i16 45, i16 73, i16 110, i16 102, i16 105, i16 110, i16 105, i16 116, i16 121, i16 0], align 16, !dbg !44
@_ZN11xalanc_1_10L13theZeroStringE = internal constant [2 x i16] [i16 48, i16 0], align 2, !dbg !49
@_ZN11xalanc_1_10L16thePrintfStringsE = internal constant [27 x i8*] [i8* getelementptr inbounds ([6 x i8], [6 x i8]* @.str.1, i32 0, i32 0), i8* getelementptr inbounds ([6 x i8], [6 x i8]* @.str.2, i32 0, i32 0), i8* getelementptr inbounds ([6 x i8], [6 x i8]* @.str.3, i32 0, i32 0), i8* getelementptr inbounds ([6 x i8], [6 x i8]* @.str.4, i32 0, i32 0), i8* getelementptr inbounds ([6 x i8], [6 x i8]* @.str.5, i32 0, i32 0), i8* getelementptr inbounds ([6 x i8], [6 x i8]* @.str.6, i32 0, i32 0), i8* getelementptr inbounds ([6 x i8], [6 x i8]* @.str.7, i32 0, i32 0), i8* getelementptr inbounds ([6 x i8], [6 x i8]* @.str.8, i32 0, i32 0), i8* getelementptr inbounds ([6 x i8], [6 x i8]* @.str.9, i32 0, i32 0), i8* getelementptr inbounds ([6 x i8], [6 x i8]* @.str.10, i32 0, i32 0), i8* getelementptr inbounds ([6 x i8], [6 x i8]* @.str.11, i32 0, i32 0), i8* getelementptr inbounds ([6 x i8], [6 x i8]* @.str.12, i32 0, i32 0), i8* getelementptr inbounds ([6 x i8], [6 x i8]* @.str.13, i32 0, i32 0), i8* getelementptr inbounds ([6 x i8], [6 x i8]* @.str.14, i32 0, i32 0), i8* getelementptr inbounds ([6 x i8], [6 x i8]* @.str.15, i32 0, i32 0), i8* getelementptr inbounds ([6 x i8], [6 x i8]* @.str.16, i32 0, i32 0), i8* getelementptr inbounds ([6 x i8], [6 x i8]* @.str.17, i32 0, i32 0), i8* getelementptr inbounds ([6 x i8], [6 x i8]* @.str.18, i32 0, i32 0), i8* getelementptr inbounds ([6 x i8], [6 x i8]* @.str.19, i32 0, i32 0), i8* getelementptr inbounds ([6 x i8], [6 x i8]* @.str.20, i32 0, i32 0), i8* getelementptr inbounds ([6 x i8], [6 x i8]* @.str.21, i32 0, i32 0), i8* getelementptr inbounds ([6 x i8], [6 x i8]* @.str.22, i32 0, i32 0), i8* getelementptr inbounds ([6 x i8], [6 x i8]* @.str.23, i32 0, i32 0), i8* getelementptr inbounds ([6 x i8], [6 x i8]* @.str.24, i32 0, i32 0), i8* getelementptr inbounds ([6 x i8], [6 x i8]* @.str.25, i32 0, i32 0), i8* getelementptr inbounds ([6 x i8], [6 x i8]* @.str.26, i32 0, i32 0), i8* null], align 16, !dbg !54
@_ZTVN11xercesc_2_710XMLDeleterE = linkonce_odr dso_local unnamed_addr constant { [4 x i8*] } { [4 x i8*] [i8* null, i8* bitcast ({ i8*, i8* }* @_ZTIN11xercesc_2_710XMLDeleterE to i8*), i8* bitcast (void (%"class.xercesc_2_7::XMLDeleter"*)* @_ZN11xercesc_2_710XMLDeleterD2Ev to i8*), i8* bitcast (void (%"class.xercesc_2_7::XMLDeleter"*)* @_ZN11xercesc_2_710XMLDeleterD0Ev to i8*)] }, comdat, align 8
@_ZTVN10__cxxabiv117__class_type_infoE = external dso_local global i8*
@_ZTSN11xercesc_2_710XMLDeleterE = linkonce_odr dso_local constant [28 x i8] c"N11xercesc_2_710XMLDeleterE\00", comdat, align 1
@_ZTIN11xercesc_2_710XMLDeleterE = linkonce_odr dso_local constant { i8*, i8* } { i8* bitcast (i8** getelementptr inbounds (i8*, i8** @_ZTVN10__cxxabiv117__class_type_infoE, i64 2) to i8*), i8* getelementptr inbounds ([28 x i8], [28 x i8]* @_ZTSN11xercesc_2_710XMLDeleterE, i32 0, i32 0) }, comdat, align 8
@_ZN11xalanc_1_1014XalanDOMString7s_emptyE = external dso_local constant i16, align 2
@_ZN11xalanc_1_1012XalanXMLChar15theUnicodeTableE = external dso_local constant [0 x i8], align 1
@_ZN11xalanc_1_1013DoubleSupport5s_NaNE = external dso_local global %"union.xalanc_1_10::DoubleSupport::NumberUnion", align 8
@_ZN11xalanc_1_1013DoubleSupport18s_positiveInfinityE = external dso_local global %"union.xalanc_1_10::DoubleSupport::NumberUnion", align 8
@_ZN11xalanc_1_1013DoubleSupport18s_negativeInfinityE = external dso_local global %"union.xalanc_1_10::DoubleSupport::NumberUnion", align 8
@_ZN11xalanc_1_1013DoubleSupport14s_positiveZeroE = external dso_local global %"union.xalanc_1_10::DoubleSupport::NumberUnion", align 8
@_ZN11xalanc_1_1013DoubleSupport14s_negativeZeroE = external dso_local global %"union.xalanc_1_10::DoubleSupport::NumberUnion", align 8
@.str.1 = private unnamed_addr constant [6 x i8] c"%.10f\00", align 1
@.str.2 = private unnamed_addr constant [6 x i8] c"%.11f\00", align 1
@.str.3 = private unnamed_addr constant [6 x i8] c"%.12f\00", align 1
@.str.4 = private unnamed_addr constant [6 x i8] c"%.13f\00", align 1
@.str.5 = private unnamed_addr constant [6 x i8] c"%.14f\00", align 1
@.str.6 = private unnamed_addr constant [6 x i8] c"%.15f\00", align 1
@.str.7 = private unnamed_addr constant [6 x i8] c"%.16f\00", align 1
@.str.8 = private unnamed_addr constant [6 x i8] c"%.17f\00", align 1
@.str.9 = private unnamed_addr constant [6 x i8] c"%.18f\00", align 1
@.str.10 = private unnamed_addr constant [6 x i8] c"%.19f\00", align 1
@.str.11 = private unnamed_addr constant [6 x i8] c"%.20f\00", align 1
@.str.12 = private unnamed_addr constant [6 x i8] c"%.21f\00", align 1
@.str.13 = private unnamed_addr constant [6 x i8] c"%.22f\00", align 1
@.str.14 = private unnamed_addr constant [6 x i8] c"%.23f\00", align 1
@.str.15 = private unnamed_addr constant [6 x i8] c"%.24f\00", align 1
@.str.16 = private unnamed_addr constant [6 x i8] c"%.25f\00", align 1
@.str.17 = private unnamed_addr constant [6 x i8] c"%.26f\00", align 1
@.str.18 = private unnamed_addr constant [6 x i8] c"%.27f\00", align 1
@.str.19 = private unnamed_addr constant [6 x i8] c"%.28f\00", align 1
@.str.20 = private unnamed_addr constant [6 x i8] c"%.29f\00", align 1
@.str.21 = private unnamed_addr constant [6 x i8] c"%.30f\00", align 1
@.str.22 = private unnamed_addr constant [6 x i8] c"%.31f\00", align 1
@.str.23 = private unnamed_addr constant [6 x i8] c"%.32f\00", align 1
@.str.24 = private unnamed_addr constant [6 x i8] c"%.33f\00", align 1
@.str.25 = private unnamed_addr constant [6 x i8] c"%.34f\00", align 1
@.str.26 = private unnamed_addr constant [6 x i8] c"%.35f\00", align 1
@llvm.global_ctors = appending global [1 x { i32, void ()*, i8* }] [{ i32, void ()*, i8* } { i32 65535, void ()* @_GLOBAL__sub_I_DOMStringHelper.cpp, i8* null }]

; Function Attrs: noinline uwtable
define internal void @__cxx_global_var_init() #0 section ".text.startup" !dbg !2354 {
entry:
  call void @_ZNSt8ios_base4InitC1Ev(%"class.std::ios_base::Init"* @_ZStL8__ioinit), !dbg !2355
  %0 = call i32 @__cxa_atexit(void (i8*)* bitcast (void (%"class.std::ios_base::Init"*)* @_ZNSt8ios_base4InitD1Ev to void (i8*)*), i8* getelementptr inbounds (%"class.std::ios_base::Init", %"class.std::ios_base::Init"* @_ZStL8__ioinit, i32 0, i32 0), i8* @__dso_handle) #3, !dbg !2355
  ret void, !dbg !2355
}

declare dso_local void @_ZNSt8ios_base4InitC1Ev(%"class.std::ios_base::Init"*) unnamed_addr #1

; Function Attrs: nounwind
declare dso_local void @_ZNSt8ios_base4InitD1Ev(%"class.std::ios_base::Init"*) unnamed_addr #2

; Function Attrs: nounwind
declare dso_local i32 @__cxa_atexit(void (i8*)*, i8*, i8*) #3

; Function Attrs: nounwind readnone speculatable willreturn
declare void @llvm.dbg.declare(metadata, metadata, metadata) #4

; Function Attrs: noinline nounwind uwtable
define linkonce_odr dso_local void @_ZN11xercesc_2_710XMLDeleterD0Ev(%"class.xercesc_2_7::XMLDeleter"* %this) unnamed_addr #5 comdat align 2 !dbg !2356 {
entry:
  %this.addr = alloca %"class.xercesc_2_7::XMLDeleter"*, align 8
  store %"class.xercesc_2_7::XMLDeleter"* %this, %"class.xercesc_2_7::XMLDeleter"** %this.addr, align 8
  call void @llvm.dbg.declare(metadata %"class.xercesc_2_7::XMLDeleter"** %this.addr, metadata !2377, metadata !DIExpression()), !dbg !2379
  %this1 = load %"class.xercesc_2_7::XMLDeleter"*, %"class.xercesc_2_7::XMLDeleter"** %this.addr, align 8
  call void @_ZN11xercesc_2_710XMLDeleterD2Ev(%"class.xercesc_2_7::XMLDeleter"* %this1) #3, !dbg !2380
  %0 = bitcast %"class.xercesc_2_7::XMLDeleter"* %this1 to i8*, !dbg !2380
  call void @_ZdlPv(i8* %0) #10, !dbg !2380
  ret void, !dbg !2381
}

; Function Attrs: noinline nounwind uwtable
define linkonce_odr dso_local void @_ZN11xercesc_2_710XMLDeleterD2Ev(%"class.xercesc_2_7::XMLDeleter"* %this) unnamed_addr #5 comdat align 2 !dbg !2382 {
entry:
  %this.addr = alloca %"class.xercesc_2_7::XMLDeleter"*, align 8
  store %"class.xercesc_2_7::XMLDeleter"* %this, %"class.xercesc_2_7::XMLDeleter"** %this.addr, align 8
  call void @llvm.dbg.declare(metadata %"class.xercesc_2_7::XMLDeleter"** %this.addr, metadata !2383, metadata !DIExpression()), !dbg !2384
  %this1 = load %"class.xercesc_2_7::XMLDeleter"*, %"class.xercesc_2_7::XMLDeleter"** %this.addr, align 8
  ret void, !dbg !2385
}

; Function Attrs: nobuiltin nounwind
declare dso_local void @_ZdlPv(i8*) #6

; Function Attrs: noinline nounwind uwtable
define dso_local i32 @_ZN11xalanc_1_107indexOfEPKtjS1_j(i16* %theString, i32 %theStringLength, i16* %theSubstring, i32 %theSubstringLength) #5 !dbg !2386 {
entry:
  %retval = alloca i32, align 4
  %theString.addr = alloca i16*, align 8
  %theStringLength.addr = alloca i32, align 4
  %theSubstring.addr = alloca i16*, align 8
  %theSubstringLength.addr = alloca i32, align 4
  %fMatch = alloca i8, align 1
  %theStringIndex = alloca i32, align 4
  %theSubstringIndex = alloca i32, align 4
  %theOffset = alloca i32, align 4
  store i16* %theString, i16** %theString.addr, align 8
  call void @llvm.dbg.declare(metadata i16** %theString.addr, metadata !2389, metadata !DIExpression()), !dbg !2390
  store i32 %theStringLength, i32* %theStringLength.addr, align 4
  call void @llvm.dbg.declare(metadata i32* %theStringLength.addr, metadata !2391, metadata !DIExpression()), !dbg !2392
  store i16* %theSubstring, i16** %theSubstring.addr, align 8
  call void @llvm.dbg.declare(metadata i16** %theSubstring.addr, metadata !2393, metadata !DIExpression()), !dbg !2394
  store i32 %theSubstringLength, i32* %theSubstringLength.addr, align 4
  call void @llvm.dbg.declare(metadata i32* %theSubstringLength.addr, metadata !2395, metadata !DIExpression()), !dbg !2396
  %0 = load i32, i32* %theStringLength.addr, align 4, !dbg !2397
  %1 = load i32, i32* %theSubstringLength.addr, align 4, !dbg !2399
  %cmp = icmp ult i32 %0, %1, !dbg !2400
  br i1 %cmp, label %if.then, label %if.else, !dbg !2401

if.then:                                          ; preds = %entry
  %2 = load i32, i32* %theStringLength.addr, align 4, !dbg !2402
  store i32 %2, i32* %retval, align 4, !dbg !2404
  br label %return, !dbg !2404

if.else:                                          ; preds = %entry
  call void @llvm.dbg.declare(metadata i8* %fMatch, metadata !2405, metadata !DIExpression()), !dbg !2407
  store i8 0, i8* %fMatch, align 1, !dbg !2407
  call void @llvm.dbg.declare(metadata i32* %theStringIndex, metadata !2408, metadata !DIExpression()), !dbg !2409
  store i32 0, i32* %theStringIndex, align 4, !dbg !2409
  br label %while.cond, !dbg !2410

while.cond:                                       ; preds = %if.end, %if.else
  %3 = load i8, i8* %fMatch, align 1, !dbg !2411
  %tobool = trunc i8 %3 to i1, !dbg !2411
  %conv = zext i1 %tobool to i32, !dbg !2411
  %cmp1 = icmp eq i32 %conv, 0, !dbg !2412
  br i1 %cmp1, label %land.lhs.true, label %land.end, !dbg !2413

land.lhs.true:                                    ; preds = %while.cond
  %4 = load i32, i32* %theStringIndex, align 4, !dbg !2414
  %5 = load i32, i32* %theStringLength.addr, align 4, !dbg !2415
  %cmp2 = icmp ult i32 %4, %5, !dbg !2416
  br i1 %cmp2, label %land.rhs, label %land.end, !dbg !2417

land.rhs:                                         ; preds = %land.lhs.true
  %6 = load i32, i32* %theStringLength.addr, align 4, !dbg !2418
  %7 = load i32, i32* %theStringIndex, align 4, !dbg !2419
  %sub = sub i32 %6, %7, !dbg !2420
  %8 = load i32, i32* %theSubstringLength.addr, align 4, !dbg !2421
  %cmp3 = icmp uge i32 %sub, %8, !dbg !2422
  br label %land.end

land.end:                                         ; preds = %land.rhs, %land.lhs.true, %while.cond
  %9 = phi i1 [ false, %land.lhs.true ], [ false, %while.cond ], [ %cmp3, %land.rhs ], !dbg !2423
  br i1 %9, label %while.body, label %while.end21, !dbg !2410

while.body:                                       ; preds = %land.end
  call void @llvm.dbg.declare(metadata i32* %theSubstringIndex, metadata !2424, metadata !DIExpression()), !dbg !2426
  store i32 0, i32* %theSubstringIndex, align 4, !dbg !2426
  call void @llvm.dbg.declare(metadata i32* %theOffset, metadata !2427, metadata !DIExpression()), !dbg !2428
  store i32 0, i32* %theOffset, align 4, !dbg !2428
  br label %while.cond4, !dbg !2429

while.cond4:                                      ; preds = %while.body15, %while.body
  %10 = load i32, i32* %theStringIndex, align 4, !dbg !2430
  %11 = load i32, i32* %theStringLength.addr, align 4, !dbg !2431
  %cmp5 = icmp ult i32 %10, %11, !dbg !2432
  br i1 %cmp5, label %land.lhs.true6, label %land.end14, !dbg !2433

land.lhs.true6:                                   ; preds = %while.cond4
  %12 = load i32, i32* %theSubstringIndex, align 4, !dbg !2434
  %13 = load i32, i32* %theSubstringLength.addr, align 4, !dbg !2435
  %cmp7 = icmp ult i32 %12, %13, !dbg !2436
  br i1 %cmp7, label %land.rhs8, label %land.end14, !dbg !2437

land.rhs8:                                        ; preds = %land.lhs.true6
  %14 = load i16*, i16** %theString.addr, align 8, !dbg !2438
  %15 = load i32, i32* %theStringIndex, align 4, !dbg !2439
  %16 = load i32, i32* %theOffset, align 4, !dbg !2440
  %add = add i32 %15, %16, !dbg !2441
  %idxprom = zext i32 %add to i64, !dbg !2438
  %arrayidx = getelementptr inbounds i16, i16* %14, i64 %idxprom, !dbg !2438
  %17 = load i16, i16* %arrayidx, align 2, !dbg !2438
  %conv9 = zext i16 %17 to i32, !dbg !2438
  %18 = load i16*, i16** %theSubstring.addr, align 8, !dbg !2442
  %19 = load i32, i32* %theSubstringIndex, align 4, !dbg !2443
  %idxprom10 = zext i32 %19 to i64, !dbg !2442
  %arrayidx11 = getelementptr inbounds i16, i16* %18, i64 %idxprom10, !dbg !2442
  %20 = load i16, i16* %arrayidx11, align 2, !dbg !2442
  %conv12 = zext i16 %20 to i32, !dbg !2442
  %cmp13 = icmp eq i32 %conv9, %conv12, !dbg !2444
  br label %land.end14

land.end14:                                       ; preds = %land.rhs8, %land.lhs.true6, %while.cond4
  %21 = phi i1 [ false, %land.lhs.true6 ], [ false, %while.cond4 ], [ %cmp13, %land.rhs8 ], !dbg !2445
  br i1 %21, label %while.body15, label %while.end, !dbg !2429

while.body15:                                     ; preds = %land.end14
  %22 = load i32, i32* %theOffset, align 4, !dbg !2446
  %inc = add i32 %22, 1, !dbg !2446
  store i32 %inc, i32* %theOffset, align 4, !dbg !2446
  %23 = load i32, i32* %theSubstringIndex, align 4, !dbg !2448
  %inc16 = add i32 %23, 1, !dbg !2448
  store i32 %inc16, i32* %theSubstringIndex, align 4, !dbg !2448
  br label %while.cond4, !dbg !2429, !llvm.loop !2449

while.end:                                        ; preds = %land.end14
  %24 = load i32, i32* %theSubstringIndex, align 4, !dbg !2451
  %25 = load i32, i32* %theSubstringLength.addr, align 4, !dbg !2453
  %cmp17 = icmp eq i32 %24, %25, !dbg !2454
  br i1 %cmp17, label %if.then18, label %if.else19, !dbg !2455

if.then18:                                        ; preds = %while.end
  store i8 1, i8* %fMatch, align 1, !dbg !2456
  br label %if.end, !dbg !2458

if.else19:                                        ; preds = %while.end
  %26 = load i32, i32* %theStringIndex, align 4, !dbg !2459
  %inc20 = add i32 %26, 1, !dbg !2459
  store i32 %inc20, i32* %theStringIndex, align 4, !dbg !2459
  br label %if.end

if.end:                                           ; preds = %if.else19, %if.then18
  br label %while.cond, !dbg !2410, !llvm.loop !2461

while.end21:                                      ; preds = %land.end
  %27 = load i8, i8* %fMatch, align 1, !dbg !2463
  %tobool22 = trunc i8 %27 to i1, !dbg !2463
  %conv23 = zext i1 %tobool22 to i32, !dbg !2463
  %cmp24 = icmp eq i32 %conv23, 0, !dbg !2464
  br i1 %cmp24, label %cond.true, label %cond.false, !dbg !2463

cond.true:                                        ; preds = %while.end21
  %28 = load i32, i32* %theStringLength.addr, align 4, !dbg !2465
  br label %cond.end, !dbg !2463

cond.false:                                       ; preds = %while.end21
  %29 = load i32, i32* %theStringIndex, align 4, !dbg !2466
  br label %cond.end, !dbg !2463

cond.end:                                         ; preds = %cond.false, %cond.true
  %cond = phi i32 [ %28, %cond.true ], [ %29, %cond.false ], !dbg !2463
  store i32 %cond, i32* %retval, align 4, !dbg !2467
  br label %return, !dbg !2467

return:                                           ; preds = %cond.end, %if.then
  %30 = load i32, i32* %retval, align 4, !dbg !2468
  ret i32 %30, !dbg !2468
}

; Function Attrs: noinline uwtable
define dso_local i32 @_ZN11xalanc_1_107indexOfEPKtS1_(i16* %theString, i16* %theSubstring) #0 !dbg !2469 {
entry:
  %theString.addr = alloca i16*, align 8
  %theSubstring.addr = alloca i16*, align 8
  store i16* %theString, i16** %theString.addr, align 8
  call void @llvm.dbg.declare(metadata i16** %theString.addr, metadata !2472, metadata !DIExpression()), !dbg !2473
  store i16* %theSubstring, i16** %theSubstring.addr, align 8
  call void @llvm.dbg.declare(metadata i16** %theSubstring.addr, metadata !2474, metadata !DIExpression()), !dbg !2475
  %0 = load i16*, i16** %theString.addr, align 8, !dbg !2476
  %1 = load i16*, i16** %theString.addr, align 8, !dbg !2477
  %call = call i32 @_ZN11xalanc_1_106lengthEPKt(i16* %1), !dbg !2478
  %2 = load i16*, i16** %theSubstring.addr, align 8, !dbg !2479
  %3 = load i16*, i16** %theSubstring.addr, align 8, !dbg !2480
  %call1 = call i32 @_ZN11xalanc_1_106lengthEPKt(i16* %3), !dbg !2481
  %call2 = call i32 @_ZN11xalanc_1_107indexOfEPKtjS1_j(i16* %0, i32 %call, i16* %2, i32 %call1), !dbg !2482
  ret i32 %call2, !dbg !2483
}

; Function Attrs: noinline nounwind uwtable
define linkonce_odr dso_local i32 @_ZN11xalanc_1_106lengthEPKt(i16* %theString) #5 comdat !dbg !2484 {
entry:
  %theString.addr = alloca i16*, align 8
  %theBufferPointer = alloca i16*, align 8
  store i16* %theString, i16** %theString.addr, align 8
  call void @llvm.dbg.declare(metadata i16** %theString.addr, metadata !2485, metadata !DIExpression()), !dbg !2486
  call void @llvm.dbg.declare(metadata i16** %theBufferPointer, metadata !2487, metadata !DIExpression()), !dbg !2488
  %0 = load i16*, i16** %theString.addr, align 8, !dbg !2489
  store i16* %0, i16** %theBufferPointer, align 8, !dbg !2488
  br label %while.cond, !dbg !2490

while.cond:                                       ; preds = %while.body, %entry
  %1 = load i16*, i16** %theBufferPointer, align 8, !dbg !2491
  %2 = load i16, i16* %1, align 2, !dbg !2492
  %conv = zext i16 %2 to i32, !dbg !2492
  %cmp = icmp ne i32 %conv, 0, !dbg !2493
  br i1 %cmp, label %while.body, label %while.end, !dbg !2490

while.body:                                       ; preds = %while.cond
  %3 = load i16*, i16** %theBufferPointer, align 8, !dbg !2494
  %incdec.ptr = getelementptr inbounds i16, i16* %3, i32 1, !dbg !2494
  store i16* %incdec.ptr, i16** %theBufferPointer, align 8, !dbg !2494
  br label %while.cond, !dbg !2490, !llvm.loop !2496

while.end:                                        ; preds = %while.cond
  %4 = load i16*, i16** %theBufferPointer, align 8, !dbg !2498
  %5 = load i16*, i16** %theString.addr, align 8, !dbg !2499
  %sub.ptr.lhs.cast = ptrtoint i16* %4 to i64, !dbg !2500
  %sub.ptr.rhs.cast = ptrtoint i16* %5 to i64, !dbg !2500
  %sub.ptr.sub = sub i64 %sub.ptr.lhs.cast, %sub.ptr.rhs.cast, !dbg !2500
  %sub.ptr.div = sdiv exact i64 %sub.ptr.sub, 2, !dbg !2500
  %conv1 = trunc i64 %sub.ptr.div to i32, !dbg !2498
  ret i32 %conv1, !dbg !2501
}

; Function Attrs: noinline uwtable
define dso_local i32 @_ZN11xalanc_1_107indexOfERKNS_14XalanDOMStringES2_(%"class.xalanc_1_10::XalanDOMString"* dereferenceable(40) %theString, %"class.xalanc_1_10::XalanDOMString"* dereferenceable(40) %theSubstring) #0 !dbg !2502 {
entry:
  %retval = alloca i32, align 4
  %theString.addr = alloca %"class.xalanc_1_10::XalanDOMString"*, align 8
  %theSubstring.addr = alloca %"class.xalanc_1_10::XalanDOMString"*, align 8
  store %"class.xalanc_1_10::XalanDOMString"* %theString, %"class.xalanc_1_10::XalanDOMString"** %theString.addr, align 8
  call void @llvm.dbg.declare(metadata %"class.xalanc_1_10::XalanDOMString"** %theString.addr, metadata !2505, metadata !DIExpression()), !dbg !2506
  store %"class.xalanc_1_10::XalanDOMString"* %theSubstring, %"class.xalanc_1_10::XalanDOMString"** %theSubstring.addr, align 8
  call void @llvm.dbg.declare(metadata %"class.xalanc_1_10::XalanDOMString"** %theSubstring.addr, metadata !2507, metadata !DIExpression()), !dbg !2508
  %0 = load %"class.xalanc_1_10::XalanDOMString"*, %"class.xalanc_1_10::XalanDOMString"** %theString.addr, align 8, !dbg !2509
  %call = call zeroext i1 @_ZN11xalanc_1_107isEmptyERKNS_14XalanDOMStringE(%"class.xalanc_1_10::XalanDOMString"* dereferenceable(40) %0), !dbg !2511
  %conv = zext i1 %call to i32, !dbg !2511
  %cmp = icmp eq i32 %conv, 1, !dbg !2512
  br i1 %cmp, label %if.then, label %if.else, !dbg !2513

if.then:                                          ; preds = %entry
  store i32 0, i32* %retval, align 4, !dbg !2514
  br label %return, !dbg !2514

if.else:                                          ; preds = %entry
  %1 = load %"class.xalanc_1_10::XalanDOMString"*, %"class.xalanc_1_10::XalanDOMString"** %theSubstring.addr, align 8, !dbg !2516
  %call1 = call zeroext i1 @_ZN11xalanc_1_107isEmptyERKNS_14XalanDOMStringE(%"class.xalanc_1_10::XalanDOMString"* dereferenceable(40) %1), !dbg !2518
  %conv2 = zext i1 %call1 to i32, !dbg !2518
  %cmp3 = icmp eq i32 %conv2, 1, !dbg !2519
  br i1 %cmp3, label %if.then4, label %if.else6, !dbg !2520

if.then4:                                         ; preds = %if.else
  %2 = load %"class.xalanc_1_10::XalanDOMString"*, %"class.xalanc_1_10::XalanDOMString"** %theString.addr, align 8, !dbg !2521
  %call5 = call i32 @_ZNK11xalanc_1_1014XalanDOMString6lengthEv(%"class.xalanc_1_10::XalanDOMString"* %2), !dbg !2523
  store i32 %call5, i32* %retval, align 4, !dbg !2524
  br label %return, !dbg !2524

if.else6:                                         ; preds = %if.else
  %3 = load %"class.xalanc_1_10::XalanDOMString"*, %"class.xalanc_1_10::XalanDOMString"** %theString.addr, align 8, !dbg !2525
  %call7 = call i16* @_ZN11xalanc_1_106c_wstrERKNS_14XalanDOMStringE(%"class.xalanc_1_10::XalanDOMString"* dereferenceable(40) %3), !dbg !2527
  %4 = load %"class.xalanc_1_10::XalanDOMString"*, %"class.xalanc_1_10::XalanDOMString"** %theSubstring.addr, align 8, !dbg !2528
  %call8 = call i16* @_ZN11xalanc_1_106c_wstrERKNS_14XalanDOMStringE(%"class.xalanc_1_10::XalanDOMString"* dereferenceable(40) %4), !dbg !2529
  %call9 = call i32 @_ZN11xalanc_1_107indexOfEPKtS1_(i16* %call7, i16* %call8), !dbg !2530
  store i32 %call9, i32* %retval, align 4, !dbg !2531
  br label %return, !dbg !2531

return:                                           ; preds = %if.else6, %if.then4, %if.then
  %5 = load i32, i32* %retval, align 4, !dbg !2532
  ret i32 %5, !dbg !2532
}

; Function Attrs: noinline uwtable
define linkonce_odr dso_local zeroext i1 @_ZN11xalanc_1_107isEmptyERKNS_14XalanDOMStringE(%"class.xalanc_1_10::XalanDOMString"* dereferenceable(40) %str) #0 comdat !dbg !2533 {
entry:
  %str.addr = alloca %"class.xalanc_1_10::XalanDOMString"*, align 8
  store %"class.xalanc_1_10::XalanDOMString"* %str, %"class.xalanc_1_10::XalanDOMString"** %str.addr, align 8
  call void @llvm.dbg.declare(metadata %"class.xalanc_1_10::XalanDOMString"** %str.addr, metadata !2534, metadata !DIExpression()), !dbg !2535
  %0 = load %"class.xalanc_1_10::XalanDOMString"*, %"class.xalanc_1_10::XalanDOMString"** %str.addr, align 8, !dbg !2536
  %call = call zeroext i1 @_ZNK11xalanc_1_1014XalanDOMString5emptyEv(%"class.xalanc_1_10::XalanDOMString"* %0), !dbg !2537
  ret i1 %call, !dbg !2538
}

; Function Attrs: noinline uwtable
define linkonce_odr dso_local i32 @_ZNK11xalanc_1_1014XalanDOMString6lengthEv(%"class.xalanc_1_10::XalanDOMString"* %this) #0 comdat align 2 !dbg !2539 {
entry:
  %this.addr = alloca %"class.xalanc_1_10::XalanDOMString"*, align 8
  store %"class.xalanc_1_10::XalanDOMString"* %this, %"class.xalanc_1_10::XalanDOMString"** %this.addr, align 8
  call void @llvm.dbg.declare(metadata %"class.xalanc_1_10::XalanDOMString"** %this.addr, metadata !2540, metadata !DIExpression()), !dbg !2542
  %this1 = load %"class.xalanc_1_10::XalanDOMString"*, %"class.xalanc_1_10::XalanDOMString"** %this.addr, align 8
  call void @_ZNK11xalanc_1_1014XalanDOMString10invariantsEv(%"class.xalanc_1_10::XalanDOMString"* %this1), !dbg !2543
  %call = call i32 @_ZNK11xalanc_1_1014XalanDOMString4sizeEv(%"class.xalanc_1_10::XalanDOMString"* %this1), !dbg !2544
  ret i32 %call, !dbg !2545
}

; Function Attrs: noinline uwtable
define linkonce_odr dso_local i16* @_ZN11xalanc_1_106c_wstrERKNS_14XalanDOMStringE(%"class.xalanc_1_10::XalanDOMString"* dereferenceable(40) %theString) #0 comdat !dbg !2546 {
entry:
  %theString.addr = alloca %"class.xalanc_1_10::XalanDOMString"*, align 8
  store %"class.xalanc_1_10::XalanDOMString"* %theString, %"class.xalanc_1_10::XalanDOMString"** %theString.addr, align 8
  call void @llvm.dbg.declare(metadata %"class.xalanc_1_10::XalanDOMString"** %theString.addr, metadata !2549, metadata !DIExpression()), !dbg !2550
  %0 = load %"class.xalanc_1_10::XalanDOMString"*, %"class.xalanc_1_10::XalanDOMString"** %theString.addr, align 8, !dbg !2551
  %call = call i16* @_ZNK11xalanc_1_1014XalanDOMString5c_strEv(%"class.xalanc_1_10::XalanDOMString"* %0), !dbg !2552
  ret i16* %call, !dbg !2553
}

; Function Attrs: noinline uwtable
define dso_local i32 @_ZN11xalanc_1_1011lastIndexOfEPKtt(i16* %theString, i16 zeroext %theChar) #0 !dbg !2554 {
entry:
  %retval = alloca i32, align 4
  %theString.addr = alloca i16*, align 8
  %theChar.addr = alloca i16, align 2
  %theLength = alloca i32, align 4
  %theIndex = alloca i32, align 4
  store i16* %theString, i16** %theString.addr, align 8
  call void @llvm.dbg.declare(metadata i16** %theString.addr, metadata !2557, metadata !DIExpression()), !dbg !2558
  store i16 %theChar, i16* %theChar.addr, align 2
  call void @llvm.dbg.declare(metadata i16* %theChar.addr, metadata !2559, metadata !DIExpression()), !dbg !2560
  call void @llvm.dbg.declare(metadata i32* %theLength, metadata !2561, metadata !DIExpression()), !dbg !2562
  %0 = load i16*, i16** %theString.addr, align 8, !dbg !2563
  %call = call i32 @_ZN11xalanc_1_106lengthEPKt(i16* %0), !dbg !2564
  store i32 %call, i32* %theLength, align 4, !dbg !2562
  %1 = load i32, i32* %theLength, align 4, !dbg !2565
  %cmp = icmp eq i32 %1, 0, !dbg !2567
  br i1 %cmp, label %if.then, label %if.else, !dbg !2568

if.then:                                          ; preds = %entry
  %2 = load i32, i32* %theLength, align 4, !dbg !2569
  store i32 %2, i32* %retval, align 4, !dbg !2571
  br label %return, !dbg !2571

if.else:                                          ; preds = %entry
  call void @llvm.dbg.declare(metadata i32* %theIndex, metadata !2572, metadata !DIExpression()), !dbg !2574
  %3 = load i32, i32* %theLength, align 4, !dbg !2575
  store i32 %3, i32* %theIndex, align 4, !dbg !2574
  br label %while.cond, !dbg !2576

while.cond:                                       ; preds = %while.body, %if.else
  %4 = load i32, i32* %theIndex, align 4, !dbg !2577
  %cmp1 = icmp ugt i32 %4, 0, !dbg !2578
  br i1 %cmp1, label %land.rhs, label %land.end, !dbg !2579

land.rhs:                                         ; preds = %while.cond
  %5 = load i16*, i16** %theString.addr, align 8, !dbg !2580
  %6 = load i32, i32* %theIndex, align 4, !dbg !2581
  %sub = sub i32 %6, 1, !dbg !2582
  %idxprom = zext i32 %sub to i64, !dbg !2580
  %arrayidx = getelementptr inbounds i16, i16* %5, i64 %idxprom, !dbg !2580
  %7 = load i16, i16* %arrayidx, align 2, !dbg !2580
  %conv = zext i16 %7 to i32, !dbg !2580
  %8 = load i16, i16* %theChar.addr, align 2, !dbg !2583
  %conv2 = zext i16 %8 to i32, !dbg !2583
  %cmp3 = icmp ne i32 %conv, %conv2, !dbg !2584
  br label %land.end

land.end:                                         ; preds = %land.rhs, %while.cond
  %9 = phi i1 [ false, %while.cond ], [ %cmp3, %land.rhs ], !dbg !2585
  br i1 %9, label %while.body, label %while.end, !dbg !2576

while.body:                                       ; preds = %land.end
  %10 = load i32, i32* %theIndex, align 4, !dbg !2586
  %dec = add i32 %10, -1, !dbg !2586
  store i32 %dec, i32* %theIndex, align 4, !dbg !2586
  br label %while.cond, !dbg !2576, !llvm.loop !2588

while.end:                                        ; preds = %land.end
  %11 = load i32, i32* %theIndex, align 4, !dbg !2590
  %cmp4 = icmp eq i32 %11, 0, !dbg !2591
  br i1 %cmp4, label %cond.true, label %cond.false, !dbg !2590

cond.true:                                        ; preds = %while.end
  %12 = load i32, i32* %theLength, align 4, !dbg !2592
  br label %cond.end, !dbg !2590

cond.false:                                       ; preds = %while.end
  %13 = load i32, i32* %theIndex, align 4, !dbg !2593
  %sub5 = sub i32 %13, 1, !dbg !2594
  br label %cond.end, !dbg !2590

cond.end:                                         ; preds = %cond.false, %cond.true
  %cond = phi i32 [ %12, %cond.true ], [ %sub5, %cond.false ], !dbg !2590
  store i32 %cond, i32* %retval, align 4, !dbg !2595
  br label %return, !dbg !2595

return:                                           ; preds = %cond.end, %if.then
  %14 = load i32, i32* %retval, align 4, !dbg !2596
  ret i32 %14, !dbg !2596
}

; Function Attrs: noinline nounwind uwtable
define dso_local zeroext i1 @_ZN11xalanc_1_1010startsWithEPKtjS1_j(i16* %theString, i32 %theStringLength, i16* %theSubstring, i32 %theSubstringLength) #5 !dbg !2597 {
entry:
  %retval = alloca i1, align 1
  %theString.addr = alloca i16*, align 8
  %theStringLength.addr = alloca i32, align 4
  %theSubstring.addr = alloca i16*, align 8
  %theSubstringLength.addr = alloca i32, align 4
  %i = alloca i32, align 4
  store i16* %theString, i16** %theString.addr, align 8
  call void @llvm.dbg.declare(metadata i16** %theString.addr, metadata !2598, metadata !DIExpression()), !dbg !2599
  store i32 %theStringLength, i32* %theStringLength.addr, align 4
  call void @llvm.dbg.declare(metadata i32* %theStringLength.addr, metadata !2600, metadata !DIExpression()), !dbg !2601
  store i16* %theSubstring, i16** %theSubstring.addr, align 8
  call void @llvm.dbg.declare(metadata i16** %theSubstring.addr, metadata !2602, metadata !DIExpression()), !dbg !2603
  store i32 %theSubstringLength, i32* %theSubstringLength.addr, align 4
  call void @llvm.dbg.declare(metadata i32* %theSubstringLength.addr, metadata !2604, metadata !DIExpression()), !dbg !2605
  %0 = load i32, i32* %theSubstringLength.addr, align 4, !dbg !2606
  %cmp = icmp eq i32 %0, 0, !dbg !2608
  br i1 %cmp, label %if.then, label %if.else, !dbg !2609

if.then:                                          ; preds = %entry
  store i1 true, i1* %retval, align 1, !dbg !2610
  br label %return, !dbg !2610

if.else:                                          ; preds = %entry
  %1 = load i32, i32* %theStringLength.addr, align 4, !dbg !2612
  %2 = load i32, i32* %theSubstringLength.addr, align 4, !dbg !2614
  %cmp1 = icmp ult i32 %1, %2, !dbg !2615
  br i1 %cmp1, label %if.then2, label %if.else3, !dbg !2616

if.then2:                                         ; preds = %if.else
  store i1 false, i1* %retval, align 1, !dbg !2617
  br label %return, !dbg !2617

if.else3:                                         ; preds = %if.else
  call void @llvm.dbg.declare(metadata i32* %i, metadata !2619, metadata !DIExpression()), !dbg !2621
  store i32 0, i32* %i, align 4, !dbg !2621
  br label %for.cond, !dbg !2622

for.cond:                                         ; preds = %for.inc, %if.else3
  %3 = load i32, i32* %i, align 4, !dbg !2623
  %4 = load i32, i32* %theSubstringLength.addr, align 4, !dbg !2626
  %cmp4 = icmp ult i32 %3, %4, !dbg !2627
  br i1 %cmp4, label %land.rhs, label %land.end, !dbg !2628

land.rhs:                                         ; preds = %for.cond
  %5 = load i16*, i16** %theString.addr, align 8, !dbg !2629
  %6 = load i32, i32* %i, align 4, !dbg !2630
  %idxprom = zext i32 %6 to i64, !dbg !2629
  %arrayidx = getelementptr inbounds i16, i16* %5, i64 %idxprom, !dbg !2629
  %7 = load i16, i16* %arrayidx, align 2, !dbg !2629
  %conv = zext i16 %7 to i32, !dbg !2629
  %8 = load i16*, i16** %theSubstring.addr, align 8, !dbg !2631
  %9 = load i32, i32* %i, align 4, !dbg !2632
  %idxprom5 = zext i32 %9 to i64, !dbg !2631
  %arrayidx6 = getelementptr inbounds i16, i16* %8, i64 %idxprom5, !dbg !2631
  %10 = load i16, i16* %arrayidx6, align 2, !dbg !2631
  %conv7 = zext i16 %10 to i32, !dbg !2631
  %cmp8 = icmp eq i32 %conv, %conv7, !dbg !2633
  br label %land.end

land.end:                                         ; preds = %land.rhs, %for.cond
  %11 = phi i1 [ false, %for.cond ], [ %cmp8, %land.rhs ], !dbg !2634
  br i1 %11, label %for.body, label %for.end, !dbg !2635

for.body:                                         ; preds = %land.end
  br label %for.inc, !dbg !2636

for.inc:                                          ; preds = %for.body
  %12 = load i32, i32* %i, align 4, !dbg !2638
  %inc = add i32 %12, 1, !dbg !2638
  store i32 %inc, i32* %i, align 4, !dbg !2638
  br label %for.cond, !dbg !2639, !llvm.loop !2640

for.end:                                          ; preds = %land.end
  %13 = load i32, i32* %i, align 4, !dbg !2642
  %14 = load i32, i32* %theSubstringLength.addr, align 4, !dbg !2644
  %cmp9 = icmp eq i32 %13, %14, !dbg !2645
  br i1 %cmp9, label %if.then10, label %if.else11, !dbg !2646

if.then10:                                        ; preds = %for.end
  store i1 true, i1* %retval, align 1, !dbg !2647
  br label %return, !dbg !2647

if.else11:                                        ; preds = %for.end
  store i1 false, i1* %retval, align 1, !dbg !2649
  br label %return, !dbg !2649

return:                                           ; preds = %if.else11, %if.then10, %if.then2, %if.then
  %15 = load i1, i1* %retval, align 1, !dbg !2651
  ret i1 %15, !dbg !2651
}

; Function Attrs: noinline nounwind uwtable
define dso_local zeroext i1 @_ZN11xalanc_1_108endsWithEPKtjS1_j(i16* %theString, i32 %theStringLength, i16* %theSubstring, i32 %theSubstringLength) #5 !dbg !2652 {
entry:
  %theString.addr = alloca i16*, align 8
  %theStringLength.addr = alloca i32, align 4
  %theSubstring.addr = alloca i16*, align 8
  %theSubstringLength.addr = alloca i32, align 4
  %fResult = alloca i8, align 1
  %i = alloca i32, align 4
  %j = alloca i32, align 4
  store i16* %theString, i16** %theString.addr, align 8
  call void @llvm.dbg.declare(metadata i16** %theString.addr, metadata !2653, metadata !DIExpression()), !dbg !2654
  store i32 %theStringLength, i32* %theStringLength.addr, align 4
  call void @llvm.dbg.declare(metadata i32* %theStringLength.addr, metadata !2655, metadata !DIExpression()), !dbg !2656
  store i16* %theSubstring, i16** %theSubstring.addr, align 8
  call void @llvm.dbg.declare(metadata i16** %theSubstring.addr, metadata !2657, metadata !DIExpression()), !dbg !2658
  store i32 %theSubstringLength, i32* %theSubstringLength.addr, align 4
  call void @llvm.dbg.declare(metadata i32* %theSubstringLength.addr, metadata !2659, metadata !DIExpression()), !dbg !2660
  call void @llvm.dbg.declare(metadata i8* %fResult, metadata !2661, metadata !DIExpression()), !dbg !2662
  store i8 0, i8* %fResult, align 1, !dbg !2662
  %0 = load i32, i32* %theSubstringLength.addr, align 4, !dbg !2663
  %cmp = icmp ugt i32 %0, 0, !dbg !2665
  br i1 %cmp, label %land.lhs.true, label %if.end11, !dbg !2666

land.lhs.true:                                    ; preds = %entry
  %1 = load i32, i32* %theStringLength.addr, align 4, !dbg !2667
  %2 = load i32, i32* %theSubstringLength.addr, align 4, !dbg !2668
  %cmp1 = icmp uge i32 %1, %2, !dbg !2669
  br i1 %cmp1, label %if.then, label %if.end11, !dbg !2670

if.then:                                          ; preds = %land.lhs.true
  call void @llvm.dbg.declare(metadata i32* %i, metadata !2671, metadata !DIExpression()), !dbg !2673
  %3 = load i32, i32* %theStringLength.addr, align 4, !dbg !2674
  store i32 %3, i32* %i, align 4, !dbg !2673
  call void @llvm.dbg.declare(metadata i32* %j, metadata !2675, metadata !DIExpression()), !dbg !2676
  %4 = load i32, i32* %theSubstringLength.addr, align 4, !dbg !2677
  store i32 %4, i32* %j, align 4, !dbg !2676
  br label %for.cond, !dbg !2678

for.cond:                                         ; preds = %for.inc, %if.then
  %5 = load i32, i32* %j, align 4, !dbg !2679
  %cmp2 = icmp ugt i32 %5, 0, !dbg !2682
  br i1 %cmp2, label %land.rhs, label %land.end, !dbg !2683

land.rhs:                                         ; preds = %for.cond
  %6 = load i16*, i16** %theString.addr, align 8, !dbg !2684
  %7 = load i32, i32* %i, align 4, !dbg !2685
  %sub = sub i32 %7, 1, !dbg !2686
  %idxprom = zext i32 %sub to i64, !dbg !2684
  %arrayidx = getelementptr inbounds i16, i16* %6, i64 %idxprom, !dbg !2684
  %8 = load i16, i16* %arrayidx, align 2, !dbg !2684
  %conv = zext i16 %8 to i32, !dbg !2684
  %9 = load i16*, i16** %theSubstring.addr, align 8, !dbg !2687
  %10 = load i32, i32* %j, align 4, !dbg !2688
  %sub3 = sub i32 %10, 1, !dbg !2689
  %idxprom4 = zext i32 %sub3 to i64, !dbg !2687
  %arrayidx5 = getelementptr inbounds i16, i16* %9, i64 %idxprom4, !dbg !2687
  %11 = load i16, i16* %arrayidx5, align 2, !dbg !2687
  %conv6 = zext i16 %11 to i32, !dbg !2687
  %cmp7 = icmp eq i32 %conv, %conv6, !dbg !2690
  br label %land.end

land.end:                                         ; preds = %land.rhs, %for.cond
  %12 = phi i1 [ false, %for.cond ], [ %cmp7, %land.rhs ], !dbg !2691
  br i1 %12, label %for.body, label %for.end, !dbg !2692

for.body:                                         ; preds = %land.end
  br label %for.inc, !dbg !2693

for.inc:                                          ; preds = %for.body
  %13 = load i32, i32* %j, align 4, !dbg !2695
  %dec = add i32 %13, -1, !dbg !2695
  store i32 %dec, i32* %j, align 4, !dbg !2695
  %14 = load i32, i32* %i, align 4, !dbg !2696
  %dec8 = add i32 %14, -1, !dbg !2696
  store i32 %dec8, i32* %i, align 4, !dbg !2696
  br label %for.cond, !dbg !2697, !llvm.loop !2698

for.end:                                          ; preds = %land.end
  %15 = load i32, i32* %j, align 4, !dbg !2700
  %cmp9 = icmp eq i32 %15, 0, !dbg !2702
  br i1 %cmp9, label %if.then10, label %if.end, !dbg !2703

if.then10:                                        ; preds = %for.end
  store i8 1, i8* %fResult, align 1, !dbg !2704
  br label %if.end, !dbg !2706

if.end:                                           ; preds = %if.then10, %for.end
  br label %if.end11, !dbg !2707

if.end11:                                         ; preds = %if.end, %land.lhs.true, %entry
  %16 = load i8, i8* %fResult, align 1, !dbg !2708
  %tobool = trunc i8 %16 to i1, !dbg !2708
  ret i1 %tobool, !dbg !2709
}

; Function Attrs: noinline uwtable
define dso_local void @_ZN11xalanc_1_1012OutputStringERNS_17XalanOutputStreamERKNS_11XalanVectorIcNS_31MemoryManagedConstructionTraitsIcEEEE(%"class.xalanc_1_10::XalanOutputStream"* dereferenceable(144) %theStream, %"class.xalanc_1_10::XalanVector.0"* dereferenceable(32) %theString) #0 !dbg !2710 {
entry:
  %theStream.addr = alloca %"class.xalanc_1_10::XalanOutputStream"*, align 8
  %theString.addr = alloca %"class.xalanc_1_10::XalanVector.0"*, align 8
  store %"class.xalanc_1_10::XalanOutputStream"* %theStream, %"class.xalanc_1_10::XalanOutputStream"** %theStream.addr, align 8
  call void @llvm.dbg.declare(metadata %"class.xalanc_1_10::XalanOutputStream"** %theStream.addr, metadata !2719, metadata !DIExpression()), !dbg !2720
  store %"class.xalanc_1_10::XalanVector.0"* %theString, %"class.xalanc_1_10::XalanVector.0"** %theString.addr, align 8
  call void @llvm.dbg.declare(metadata %"class.xalanc_1_10::XalanVector.0"** %theString.addr, metadata !2721, metadata !DIExpression()), !dbg !2722
  %0 = load %"class.xalanc_1_10::XalanVector.0"*, %"class.xalanc_1_10::XalanVector.0"** %theString.addr, align 8, !dbg !2723
  %call = call zeroext i1 @_ZNK11xalanc_1_1011XalanVectorIcNS_31MemoryManagedConstructionTraitsIcEEE5emptyEv(%"class.xalanc_1_10::XalanVector.0"* %0), !dbg !2725
  %conv = zext i1 %call to i32, !dbg !2723
  %cmp = icmp eq i32 %conv, 0, !dbg !2726
  br i1 %cmp, label %if.then, label %if.end, !dbg !2727

if.then:                                          ; preds = %entry
  %1 = load %"class.xalanc_1_10::XalanOutputStream"*, %"class.xalanc_1_10::XalanOutputStream"** %theStream.addr, align 8, !dbg !2728
  %2 = load %"class.xalanc_1_10::XalanVector.0"*, %"class.xalanc_1_10::XalanVector.0"** %theString.addr, align 8, !dbg !2730
  %call1 = call i8* @_ZN11xalanc_1_105c_strERKNS_11XalanVectorIcNS_31MemoryManagedConstructionTraitsIcEEEE(%"class.xalanc_1_10::XalanVector.0"* dereferenceable(32) %2), !dbg !2731
  call void @_ZN11xalanc_1_1017XalanOutputStream5writeEPKc(%"class.xalanc_1_10::XalanOutputStream"* %1, i8* %call1), !dbg !2732
  br label %if.end, !dbg !2733

if.end:                                           ; preds = %if.then, %entry
  ret void, !dbg !2734
}

; Function Attrs: noinline nounwind uwtable
define linkonce_odr dso_local zeroext i1 @_ZNK11xalanc_1_1011XalanVectorIcNS_31MemoryManagedConstructionTraitsIcEEE5emptyEv(%"class.xalanc_1_10::XalanVector.0"* %this) #5 comdat align 2 !dbg !2735 {
entry:
  %this.addr = alloca %"class.xalanc_1_10::XalanVector.0"*, align 8
  store %"class.xalanc_1_10::XalanVector.0"* %this, %"class.xalanc_1_10::XalanVector.0"** %this.addr, align 8
  call void @llvm.dbg.declare(metadata %"class.xalanc_1_10::XalanVector.0"** %this.addr, metadata !2736, metadata !DIExpression()), !dbg !2738
  %this1 = load %"class.xalanc_1_10::XalanVector.0"*, %"class.xalanc_1_10::XalanVector.0"** %this.addr, align 8
  call void @_ZNK11xalanc_1_1011XalanVectorIcNS_31MemoryManagedConstructionTraitsIcEEE10invariantsEv(%"class.xalanc_1_10::XalanVector.0"* %this1), !dbg !2739
  %m_size = getelementptr inbounds %"class.xalanc_1_10::XalanVector.0", %"class.xalanc_1_10::XalanVector.0"* %this1, i32 0, i32 1, !dbg !2740
  %0 = load i64, i64* %m_size, align 8, !dbg !2740
  %cmp = icmp eq i64 %0, 0, !dbg !2741
  %1 = zext i1 %cmp to i64, !dbg !2740
  %cond = select i1 %cmp, i1 true, i1 false, !dbg !2740
  ret i1 %cond, !dbg !2742
}

; Function Attrs: noinline uwtable
define linkonce_odr dso_local void @_ZN11xalanc_1_1017XalanOutputStream5writeEPKc(%"class.xalanc_1_10::XalanOutputStream"* %this, i8* %theBuffer) #0 comdat align 2 !dbg !2743 {
entry:
  %this.addr = alloca %"class.xalanc_1_10::XalanOutputStream"*, align 8
  %theBuffer.addr = alloca i8*, align 8
  store %"class.xalanc_1_10::XalanOutputStream"* %this, %"class.xalanc_1_10::XalanOutputStream"** %this.addr, align 8
  call void @llvm.dbg.declare(metadata %"class.xalanc_1_10::XalanOutputStream"** %this.addr, metadata !2748, metadata !DIExpression()), !dbg !2750
  store i8* %theBuffer, i8** %theBuffer.addr, align 8
  call void @llvm.dbg.declare(metadata i8** %theBuffer.addr, metadata !2751, metadata !DIExpression()), !dbg !2752
  %this1 = load %"class.xalanc_1_10::XalanOutputStream"*, %"class.xalanc_1_10::XalanOutputStream"** %this.addr, align 8
  %0 = load i8*, i8** %theBuffer.addr, align 8, !dbg !2753
  %1 = load i8*, i8** %theBuffer.addr, align 8, !dbg !2754
  %call = call i32 @_ZN11xalanc_1_106lengthEPKc(i8* %1), !dbg !2755
  call void @_ZN11xalanc_1_1017XalanOutputStream5writeEPKcj(%"class.xalanc_1_10::XalanOutputStream"* %this1, i8* %0, i32 %call), !dbg !2756
  ret void, !dbg !2757
}

; Function Attrs: noinline uwtable
define linkonce_odr dso_local i8* @_ZN11xalanc_1_105c_strERKNS_11XalanVectorIcNS_31MemoryManagedConstructionTraitsIcEEEE(%"class.xalanc_1_10::XalanVector.0"* dereferenceable(32) %theString) #0 comdat !dbg !2758 {
entry:
  %retval = alloca i8*, align 8
  %theString.addr = alloca %"class.xalanc_1_10::XalanVector.0"*, align 8
  %ptr = alloca i8*, align 8
  store %"class.xalanc_1_10::XalanVector.0"* %theString, %"class.xalanc_1_10::XalanVector.0"** %theString.addr, align 8
  call void @llvm.dbg.declare(metadata %"class.xalanc_1_10::XalanVector.0"** %theString.addr, metadata !2761, metadata !DIExpression()), !dbg !2762
  %0 = load %"class.xalanc_1_10::XalanVector.0"*, %"class.xalanc_1_10::XalanVector.0"** %theString.addr, align 8, !dbg !2763
  %call = call zeroext i1 @_ZNK11xalanc_1_1011XalanVectorIcNS_31MemoryManagedConstructionTraitsIcEEE5emptyEv(%"class.xalanc_1_10::XalanVector.0"* %0), !dbg !2765
  %conv = zext i1 %call to i32, !dbg !2763
  %cmp = icmp eq i32 %conv, 1, !dbg !2766
  br i1 %cmp, label %if.then, label %if.else, !dbg !2767

if.then:                                          ; preds = %entry
  store i8* null, i8** %retval, align 8, !dbg !2768
  br label %return, !dbg !2768

if.else:                                          ; preds = %entry
  call void @llvm.dbg.declare(metadata i8** %ptr, metadata !2770, metadata !DIExpression()), !dbg !2772
  %1 = load %"class.xalanc_1_10::XalanVector.0"*, %"class.xalanc_1_10::XalanVector.0"** %theString.addr, align 8, !dbg !2773
  %call1 = call dereferenceable(1) i8* @_ZNK11xalanc_1_1011XalanVectorIcNS_31MemoryManagedConstructionTraitsIcEEEixEm(%"class.xalanc_1_10::XalanVector.0"* %1, i64 0), !dbg !2773
  store i8* %call1, i8** %ptr, align 8, !dbg !2772
  %2 = load i8*, i8** %ptr, align 8, !dbg !2774
  store i8* %2, i8** %retval, align 8, !dbg !2775
  br label %return, !dbg !2775

return:                                           ; preds = %if.else, %if.then
  %3 = load i8*, i8** %retval, align 8, !dbg !2776
  ret i8* %3, !dbg !2776
}

; Function Attrs: noinline uwtable
define dso_local void @_ZN11xalanc_1_1012OutputStringERSoRKNS_11XalanVectorIcNS_31MemoryManagedConstructionTraitsIcEEEE(%"class.std::basic_ostream"* dereferenceable(272) %theStream, %"class.xalanc_1_10::XalanVector.0"* dereferenceable(32) %theString) #0 !dbg !2777 {
entry:
  %theStream.addr = alloca %"class.std::basic_ostream"*, align 8
  %theString.addr = alloca %"class.xalanc_1_10::XalanVector.0"*, align 8
  store %"class.std::basic_ostream"* %theStream, %"class.std::basic_ostream"** %theStream.addr, align 8
  call void @llvm.dbg.declare(metadata %"class.std::basic_ostream"** %theStream.addr, metadata !2781, metadata !DIExpression()), !dbg !2782
  store %"class.xalanc_1_10::XalanVector.0"* %theString, %"class.xalanc_1_10::XalanVector.0"** %theString.addr, align 8
  call void @llvm.dbg.declare(metadata %"class.xalanc_1_10::XalanVector.0"** %theString.addr, metadata !2783, metadata !DIExpression()), !dbg !2784
  %0 = load %"class.xalanc_1_10::XalanVector.0"*, %"class.xalanc_1_10::XalanVector.0"** %theString.addr, align 8, !dbg !2785
  %call = call zeroext i1 @_ZNK11xalanc_1_1011XalanVectorIcNS_31MemoryManagedConstructionTraitsIcEEE5emptyEv(%"class.xalanc_1_10::XalanVector.0"* %0), !dbg !2787
  %conv = zext i1 %call to i32, !dbg !2785
  %cmp = icmp eq i32 %conv, 0, !dbg !2788
  br i1 %cmp, label %if.then, label %if.end, !dbg !2789

if.then:                                          ; preds = %entry
  %1 = load %"class.std::basic_ostream"*, %"class.std::basic_ostream"** %theStream.addr, align 8, !dbg !2790
  %2 = load %"class.xalanc_1_10::XalanVector.0"*, %"class.xalanc_1_10::XalanVector.0"** %theString.addr, align 8, !dbg !2792
  %call1 = call i8* @_ZNK11xalanc_1_1011XalanVectorIcNS_31MemoryManagedConstructionTraitsIcEEE5beginEv(%"class.xalanc_1_10::XalanVector.0"* %2), !dbg !2793
  %3 = load %"class.xalanc_1_10::XalanVector.0"*, %"class.xalanc_1_10::XalanVector.0"** %theString.addr, align 8, !dbg !2794
  %call2 = call i64 @_ZNK11xalanc_1_1011XalanVectorIcNS_31MemoryManagedConstructionTraitsIcEEE4sizeEv(%"class.xalanc_1_10::XalanVector.0"* %3), !dbg !2795
  %call3 = call dereferenceable(272) %"class.std::basic_ostream"* @_ZNSo5writeEPKcl(%"class.std::basic_ostream"* %1, i8* %call1, i64 %call2), !dbg !2796
  br label %if.end, !dbg !2797

if.end:                                           ; preds = %if.then, %entry
  ret void, !dbg !2798
}

declare dso_local dereferenceable(272) %"class.std::basic_ostream"* @_ZNSo5writeEPKcl(%"class.std::basic_ostream"*, i8*, i64) #1

; Function Attrs: noinline nounwind uwtable
define linkonce_odr dso_local i8* @_ZNK11xalanc_1_1011XalanVectorIcNS_31MemoryManagedConstructionTraitsIcEEE5beginEv(%"class.xalanc_1_10::XalanVector.0"* %this) #5 comdat align 2 !dbg !2799 {
entry:
  %this.addr = alloca %"class.xalanc_1_10::XalanVector.0"*, align 8
  store %"class.xalanc_1_10::XalanVector.0"* %this, %"class.xalanc_1_10::XalanVector.0"** %this.addr, align 8
  call void @llvm.dbg.declare(metadata %"class.xalanc_1_10::XalanVector.0"** %this.addr, metadata !2800, metadata !DIExpression()), !dbg !2801
  %this1 = load %"class.xalanc_1_10::XalanVector.0"*, %"class.xalanc_1_10::XalanVector.0"** %this.addr, align 8
  call void @_ZNK11xalanc_1_1011XalanVectorIcNS_31MemoryManagedConstructionTraitsIcEEE10invariantsEv(%"class.xalanc_1_10::XalanVector.0"* %this1), !dbg !2802
  %m_data = getelementptr inbounds %"class.xalanc_1_10::XalanVector.0", %"class.xalanc_1_10::XalanVector.0"* %this1, i32 0, i32 3, !dbg !2803
  %0 = load i8*, i8** %m_data, align 8, !dbg !2803
  ret i8* %0, !dbg !2804
}

; Function Attrs: noinline nounwind uwtable
define linkonce_odr dso_local i64 @_ZNK11xalanc_1_1011XalanVectorIcNS_31MemoryManagedConstructionTraitsIcEEE4sizeEv(%"class.xalanc_1_10::XalanVector.0"* %this) #5 comdat align 2 !dbg !2805 {
entry:
  %this.addr = alloca %"class.xalanc_1_10::XalanVector.0"*, align 8
  store %"class.xalanc_1_10::XalanVector.0"* %this, %"class.xalanc_1_10::XalanVector.0"** %this.addr, align 8
  call void @llvm.dbg.declare(metadata %"class.xalanc_1_10::XalanVector.0"** %this.addr, metadata !2806, metadata !DIExpression()), !dbg !2807
  %this1 = load %"class.xalanc_1_10::XalanVector.0"*, %"class.xalanc_1_10::XalanVector.0"** %this.addr, align 8
  call void @_ZNK11xalanc_1_1011XalanVectorIcNS_31MemoryManagedConstructionTraitsIcEEE10invariantsEv(%"class.xalanc_1_10::XalanVector.0"* %this1), !dbg !2808
  %m_size = getelementptr inbounds %"class.xalanc_1_10::XalanVector.0", %"class.xalanc_1_10::XalanVector.0"* %this1, i32 0, i32 1, !dbg !2809
  %0 = load i64, i64* %m_size, align 8, !dbg !2809
  ret i64 %0, !dbg !2810
}

; Function Attrs: noinline uwtable
define dso_local void @_ZN11xalanc_1_1012OutputStringERNS_17XalanOutputStreamEPKt(%"class.xalanc_1_10::XalanOutputStream"* dereferenceable(144) %theStream, i16* %theString) #0 !dbg !2811 {
entry:
  %theStream.addr = alloca %"class.xalanc_1_10::XalanOutputStream"*, align 8
  %theString.addr = alloca i16*, align 8
  store %"class.xalanc_1_10::XalanOutputStream"* %theStream, %"class.xalanc_1_10::XalanOutputStream"** %theStream.addr, align 8
  call void @llvm.dbg.declare(metadata %"class.xalanc_1_10::XalanOutputStream"** %theStream.addr, metadata !2814, metadata !DIExpression()), !dbg !2815
  store i16* %theString, i16** %theString.addr, align 8
  call void @llvm.dbg.declare(metadata i16** %theString.addr, metadata !2816, metadata !DIExpression()), !dbg !2817
  %0 = load i16*, i16** %theString.addr, align 8, !dbg !2818
  %cmp = icmp ne i16* %0, null, !dbg !2820
  br i1 %cmp, label %if.then, label %if.end, !dbg !2821

if.then:                                          ; preds = %entry
  %1 = load %"class.xalanc_1_10::XalanOutputStream"*, %"class.xalanc_1_10::XalanOutputStream"** %theStream.addr, align 8, !dbg !2822
  %2 = load i16*, i16** %theString.addr, align 8, !dbg !2824
  call void @_ZN11xalanc_1_1017XalanOutputStream5writeEPKt(%"class.xalanc_1_10::XalanOutputStream"* %1, i16* %2), !dbg !2825
  br label %if.end, !dbg !2826

if.end:                                           ; preds = %if.then, %entry
  ret void, !dbg !2827
}

; Function Attrs: noinline uwtable
define linkonce_odr dso_local void @_ZN11xalanc_1_1017XalanOutputStream5writeEPKt(%"class.xalanc_1_10::XalanOutputStream"* %this, i16* %theBuffer) #0 comdat align 2 !dbg !2828 {
entry:
  %this.addr = alloca %"class.xalanc_1_10::XalanOutputStream"*, align 8
  %theBuffer.addr = alloca i16*, align 8
  store %"class.xalanc_1_10::XalanOutputStream"* %this, %"class.xalanc_1_10::XalanOutputStream"** %this.addr, align 8
  call void @llvm.dbg.declare(metadata %"class.xalanc_1_10::XalanOutputStream"** %this.addr, metadata !2832, metadata !DIExpression()), !dbg !2833
  store i16* %theBuffer, i16** %theBuffer.addr, align 8
  call void @llvm.dbg.declare(metadata i16** %theBuffer.addr, metadata !2834, metadata !DIExpression()), !dbg !2835
  %this1 = load %"class.xalanc_1_10::XalanOutputStream"*, %"class.xalanc_1_10::XalanOutputStream"** %this.addr, align 8
  %0 = load i16*, i16** %theBuffer.addr, align 8, !dbg !2836
  %1 = load i16*, i16** %theBuffer.addr, align 8, !dbg !2837
  %call = call i32 @_ZN11xalanc_1_106lengthEPKt(i16* %1), !dbg !2838
  call void @_ZN11xalanc_1_1017XalanOutputStream5writeEPKtj(%"class.xalanc_1_10::XalanOutputStream"* %this1, i16* %0, i32 %call), !dbg !2839
  ret void, !dbg !2840
}

; Function Attrs: noinline uwtable
define dso_local void @_ZN11xalanc_1_1012OutputStringERSoPKtRN11xercesc_2_713MemoryManagerE(%"class.std::basic_ostream"* dereferenceable(272) %theStream, i16* %theString, %"class.xercesc_2_7::MemoryManager"* dereferenceable(8) %theMemoryManager) #0 personality i8* bitcast (i32 (...)* @__gxx_personality_v0 to i8*) !dbg !2841 {
entry:
  %theStream.addr = alloca %"class.std::basic_ostream"*, align 8
  %theString.addr = alloca i16*, align 8
  %theMemoryManager.addr = alloca %"class.xercesc_2_7::MemoryManager"*, align 8
  %theVector = alloca %"class.xalanc_1_10::XalanVector.0", align 8
  %exn.slot = alloca i8*
  %ehselector.slot = alloca i32
  store %"class.std::basic_ostream"* %theStream, %"class.std::basic_ostream"** %theStream.addr, align 8
  call void @llvm.dbg.declare(metadata %"class.std::basic_ostream"** %theStream.addr, metadata !2844, metadata !DIExpression()), !dbg !2845
  store i16* %theString, i16** %theString.addr, align 8
  call void @llvm.dbg.declare(metadata i16** %theString.addr, metadata !2846, metadata !DIExpression()), !dbg !2847
  store %"class.xercesc_2_7::MemoryManager"* %theMemoryManager, %"class.xercesc_2_7::MemoryManager"** %theMemoryManager.addr, align 8
  call void @llvm.dbg.declare(metadata %"class.xercesc_2_7::MemoryManager"** %theMemoryManager.addr, metadata !2848, metadata !DIExpression()), !dbg !2849
  call void @llvm.dbg.declare(metadata %"class.xalanc_1_10::XalanVector.0"* %theVector, metadata !2850, metadata !DIExpression()), !dbg !2851
  %0 = load %"class.xercesc_2_7::MemoryManager"*, %"class.xercesc_2_7::MemoryManager"** %theMemoryManager.addr, align 8, !dbg !2852
  call void @_ZN11xalanc_1_1011XalanVectorIcNS_31MemoryManagedConstructionTraitsIcEEEC2ERN11xercesc_2_713MemoryManagerEm(%"class.xalanc_1_10::XalanVector.0"* %theVector, %"class.xercesc_2_7::MemoryManager"* dereferenceable(8) %0, i64 0), !dbg !2851
  %1 = load i16*, i16** %theString.addr, align 8, !dbg !2853
  invoke void @_ZN11xalanc_1_1024TranscodeToLocalCodePageEPKtRNS_11XalanVectorIcNS_31MemoryManagedConstructionTraitsIcEEEEbc(i16* %1, %"class.xalanc_1_10::XalanVector.0"* dereferenceable(32) %theVector, i1 zeroext false, i8 signext 63)
          to label %invoke.cont unwind label %lpad, !dbg !2854

invoke.cont:                                      ; preds = %entry
  %2 = load %"class.std::basic_ostream"*, %"class.std::basic_ostream"** %theStream.addr, align 8, !dbg !2855
  invoke void @_ZN11xalanc_1_1012OutputStringERSoRKNS_11XalanVectorIcNS_31MemoryManagedConstructionTraitsIcEEEE(%"class.std::basic_ostream"* dereferenceable(272) %2, %"class.xalanc_1_10::XalanVector.0"* dereferenceable(32) %theVector)
          to label %invoke.cont1 unwind label %lpad, !dbg !2856

invoke.cont1:                                     ; preds = %invoke.cont
  call void @_ZN11xalanc_1_1011XalanVectorIcNS_31MemoryManagedConstructionTraitsIcEEED2Ev(%"class.xalanc_1_10::XalanVector.0"* %theVector) #3, !dbg !2857
  ret void, !dbg !2857

lpad:                                             ; preds = %invoke.cont, %entry
  %3 = landingpad { i8*, i32 }
          cleanup, !dbg !2857
  %4 = extractvalue { i8*, i32 } %3, 0, !dbg !2857
  store i8* %4, i8** %exn.slot, align 8, !dbg !2857
  %5 = extractvalue { i8*, i32 } %3, 1, !dbg !2857
  store i32 %5, i32* %ehselector.slot, align 4, !dbg !2857
  call void @_ZN11xalanc_1_1011XalanVectorIcNS_31MemoryManagedConstructionTraitsIcEEED2Ev(%"class.xalanc_1_10::XalanVector.0"* %theVector) #3, !dbg !2857
  br label %eh.resume, !dbg !2857

eh.resume:                                        ; preds = %lpad
  %exn = load i8*, i8** %exn.slot, align 8, !dbg !2857
  %sel = load i32, i32* %ehselector.slot, align 4, !dbg !2857
  %lpad.val = insertvalue { i8*, i32 } undef, i8* %exn, 0, !dbg !2857
  %lpad.val2 = insertvalue { i8*, i32 } %lpad.val, i32 %sel, 1, !dbg !2857
  resume { i8*, i32 } %lpad.val2, !dbg !2857
}

; Function Attrs: noinline uwtable
define linkonce_odr dso_local void @_ZN11xalanc_1_1011XalanVectorIcNS_31MemoryManagedConstructionTraitsIcEEEC2ERN11xercesc_2_713MemoryManagerEm(%"class.xalanc_1_10::XalanVector.0"* %this, %"class.xercesc_2_7::MemoryManager"* dereferenceable(8) %theManager, i64 %initialAllocation) unnamed_addr #0 comdat align 2 !dbg !2858 {
entry:
  %this.addr = alloca %"class.xalanc_1_10::XalanVector.0"*, align 8
  %theManager.addr = alloca %"class.xercesc_2_7::MemoryManager"*, align 8
  %initialAllocation.addr = alloca i64, align 8
  store %"class.xalanc_1_10::XalanVector.0"* %this, %"class.xalanc_1_10::XalanVector.0"** %this.addr, align 8
  call void @llvm.dbg.declare(metadata %"class.xalanc_1_10::XalanVector.0"** %this.addr, metadata !2859, metadata !DIExpression()), !dbg !2860
  store %"class.xercesc_2_7::MemoryManager"* %theManager, %"class.xercesc_2_7::MemoryManager"** %theManager.addr, align 8
  call void @llvm.dbg.declare(metadata %"class.xercesc_2_7::MemoryManager"** %theManager.addr, metadata !2861, metadata !DIExpression()), !dbg !2862
  store i64 %initialAllocation, i64* %initialAllocation.addr, align 8
  call void @llvm.dbg.declare(metadata i64* %initialAllocation.addr, metadata !2863, metadata !DIExpression()), !dbg !2864
  %this1 = load %"class.xalanc_1_10::XalanVector.0"*, %"class.xalanc_1_10::XalanVector.0"** %this.addr, align 8
  %m_memoryManager = getelementptr inbounds %"class.xalanc_1_10::XalanVector.0", %"class.xalanc_1_10::XalanVector.0"* %this1, i32 0, i32 0, !dbg !2865
  %0 = load %"class.xercesc_2_7::MemoryManager"*, %"class.xercesc_2_7::MemoryManager"** %theManager.addr, align 8, !dbg !2866
  store %"class.xercesc_2_7::MemoryManager"* %0, %"class.xercesc_2_7::MemoryManager"** %m_memoryManager, align 8, !dbg !2865
  %m_size = getelementptr inbounds %"class.xalanc_1_10::XalanVector.0", %"class.xalanc_1_10::XalanVector.0"* %this1, i32 0, i32 1, !dbg !2867
  store i64 0, i64* %m_size, align 8, !dbg !2867
  %m_allocation = getelementptr inbounds %"class.xalanc_1_10::XalanVector.0", %"class.xalanc_1_10::XalanVector.0"* %this1, i32 0, i32 2, !dbg !2868
  %1 = load i64, i64* %initialAllocation.addr, align 8, !dbg !2869
  store i64 %1, i64* %m_allocation, align 8, !dbg !2868
  %m_data = getelementptr inbounds %"class.xalanc_1_10::XalanVector.0", %"class.xalanc_1_10::XalanVector.0"* %this1, i32 0, i32 3, !dbg !2870
  %2 = load i64, i64* %initialAllocation.addr, align 8, !dbg !2871
  %cmp = icmp ugt i64 %2, 0, !dbg !2872
  br i1 %cmp, label %cond.true, label %cond.false, !dbg !2871

cond.true:                                        ; preds = %entry
  %3 = load i64, i64* %initialAllocation.addr, align 8, !dbg !2873
  %call = call i8* @_ZN11xalanc_1_1011XalanVectorIcNS_31MemoryManagedConstructionTraitsIcEEE8allocateEm(%"class.xalanc_1_10::XalanVector.0"* %this1, i64 %3), !dbg !2874
  br label %cond.end, !dbg !2871

cond.false:                                       ; preds = %entry
  br label %cond.end, !dbg !2871

cond.end:                                         ; preds = %cond.false, %cond.true
  %cond = phi i8* [ %call, %cond.true ], [ null, %cond.false ], !dbg !2871
  store i8* %cond, i8** %m_data, align 8, !dbg !2870
  call void @_ZNK11xalanc_1_1011XalanVectorIcNS_31MemoryManagedConstructionTraitsIcEEE10invariantsEv(%"class.xalanc_1_10::XalanVector.0"* %this1), !dbg !2875
  ret void, !dbg !2877
}

declare dso_local void @_ZN11xalanc_1_1024TranscodeToLocalCodePageEPKtRNS_11XalanVectorIcNS_31MemoryManagedConstructionTraitsIcEEEEbc(i16*, %"class.xalanc_1_10::XalanVector.0"* dereferenceable(32), i1 zeroext, i8 signext) #1

declare dso_local i32 @__gxx_personality_v0(...)

; Function Attrs: noinline nounwind uwtable
define linkonce_odr dso_local void @_ZN11xalanc_1_1011XalanVectorIcNS_31MemoryManagedConstructionTraitsIcEEED2Ev(%"class.xalanc_1_10::XalanVector.0"* %this) unnamed_addr #5 comdat align 2 personality i8* bitcast (i32 (...)* @__gxx_personality_v0 to i8*) !dbg !2878 {
entry:
  %this.addr = alloca %"class.xalanc_1_10::XalanVector.0"*, align 8
  store %"class.xalanc_1_10::XalanVector.0"* %this, %"class.xalanc_1_10::XalanVector.0"** %this.addr, align 8
  call void @llvm.dbg.declare(metadata %"class.xalanc_1_10::XalanVector.0"** %this.addr, metadata !2879, metadata !DIExpression()), !dbg !2880
  %this1 = load %"class.xalanc_1_10::XalanVector.0"*, %"class.xalanc_1_10::XalanVector.0"** %this.addr, align 8
  invoke void @_ZNK11xalanc_1_1011XalanVectorIcNS_31MemoryManagedConstructionTraitsIcEEE10invariantsEv(%"class.xalanc_1_10::XalanVector.0"* %this1)
          to label %invoke.cont unwind label %terminate.lpad, !dbg !2881

invoke.cont:                                      ; preds = %entry
  %m_allocation = getelementptr inbounds %"class.xalanc_1_10::XalanVector.0", %"class.xalanc_1_10::XalanVector.0"* %this1, i32 0, i32 2, !dbg !2883
  %0 = load i64, i64* %m_allocation, align 8, !dbg !2883
  %cmp = icmp ne i64 %0, 0, !dbg !2885
  br i1 %cmp, label %if.then, label %if.end, !dbg !2886

if.then:                                          ; preds = %invoke.cont
  %call = invoke i8* @_ZN11xalanc_1_1011XalanVectorIcNS_31MemoryManagedConstructionTraitsIcEEE5beginEv(%"class.xalanc_1_10::XalanVector.0"* %this1)
          to label %invoke.cont2 unwind label %terminate.lpad, !dbg !2887

invoke.cont2:                                     ; preds = %if.then
  %call4 = invoke i8* @_ZN11xalanc_1_1011XalanVectorIcNS_31MemoryManagedConstructionTraitsIcEEE3endEv(%"class.xalanc_1_10::XalanVector.0"* %this1)
          to label %invoke.cont3 unwind label %terminate.lpad, !dbg !2889

invoke.cont3:                                     ; preds = %invoke.cont2
  invoke void @_ZN11xalanc_1_1011XalanVectorIcNS_31MemoryManagedConstructionTraitsIcEEE7destroyEPcS4_(i8* %call, i8* %call4)
          to label %invoke.cont5 unwind label %terminate.lpad, !dbg !2890

invoke.cont5:                                     ; preds = %invoke.cont3
  %m_data = getelementptr inbounds %"class.xalanc_1_10::XalanVector.0", %"class.xalanc_1_10::XalanVector.0"* %this1, i32 0, i32 3, !dbg !2891
  %1 = load i8*, i8** %m_data, align 8, !dbg !2891
  invoke void @_ZN11xalanc_1_1011XalanVectorIcNS_31MemoryManagedConstructionTraitsIcEEE10deallocateEPc(%"class.xalanc_1_10::XalanVector.0"* %this1, i8* %1)
          to label %invoke.cont6 unwind label %terminate.lpad, !dbg !2892

invoke.cont6:                                     ; preds = %invoke.cont5
  br label %if.end, !dbg !2893

if.end:                                           ; preds = %invoke.cont6, %invoke.cont
  ret void, !dbg !2894

terminate.lpad:                                   ; preds = %invoke.cont5, %invoke.cont3, %invoke.cont2, %if.then, %entry
  %2 = landingpad { i8*, i32 }
          catch i8* null, !dbg !2881
  %3 = extractvalue { i8*, i32 } %2, 0, !dbg !2881
  call void @__clang_call_terminate(i8* %3) #11, !dbg !2881
  unreachable, !dbg !2881
}

; Function Attrs: noinline uwtable
define dso_local dereferenceable(40) %"class.xalanc_1_10::XalanDOMString"* @_ZN11xalanc_1_109substringEPKtRNS_14XalanDOMStringEjj(i16* %theString, %"class.xalanc_1_10::XalanDOMString"* dereferenceable(40) %theSubstring, i32 %theStartIndex, i32 %theEndIndex) #0 !dbg !2895 {
entry:
  %theString.addr = alloca i16*, align 8
  %theSubstring.addr = alloca %"class.xalanc_1_10::XalanDOMString"*, align 8
  %theStartIndex.addr = alloca i32, align 4
  %theEndIndex.addr = alloca i32, align 4
  %theStringLength = alloca i32, align 4
  %theLength = alloca i32, align 4
  store i16* %theString, i16** %theString.addr, align 8
  call void @llvm.dbg.declare(metadata i16** %theString.addr, metadata !2898, metadata !DIExpression()), !dbg !2899
  store %"class.xalanc_1_10::XalanDOMString"* %theSubstring, %"class.xalanc_1_10::XalanDOMString"** %theSubstring.addr, align 8
  call void @llvm.dbg.declare(metadata %"class.xalanc_1_10::XalanDOMString"** %theSubstring.addr, metadata !2900, metadata !DIExpression()), !dbg !2901
  store i32 %theStartIndex, i32* %theStartIndex.addr, align 4
  call void @llvm.dbg.declare(metadata i32* %theStartIndex.addr, metadata !2902, metadata !DIExpression()), !dbg !2903
  store i32 %theEndIndex, i32* %theEndIndex.addr, align 4
  call void @llvm.dbg.declare(metadata i32* %theEndIndex.addr, metadata !2904, metadata !DIExpression()), !dbg !2905
  call void @llvm.dbg.declare(metadata i32* %theStringLength, metadata !2906, metadata !DIExpression()), !dbg !2907
  %0 = load i16*, i16** %theString.addr, align 8, !dbg !2908
  %call = call i32 @_ZN11xalanc_1_106lengthEPKt(i16* %0), !dbg !2909
  store i32 %call, i32* %theStringLength, align 4, !dbg !2907
  %1 = load i32, i32* %theStartIndex.addr, align 4, !dbg !2910
  %2 = load i32, i32* %theStringLength, align 4, !dbg !2912
  %cmp = icmp eq i32 %1, %2, !dbg !2913
  br i1 %cmp, label %if.then, label %if.else, !dbg !2914

if.then:                                          ; preds = %entry
  %3 = load %"class.xalanc_1_10::XalanDOMString"*, %"class.xalanc_1_10::XalanDOMString"** %theSubstring.addr, align 8, !dbg !2915
  call void @_ZN11xalanc_1_105clearERNS_14XalanDOMStringE(%"class.xalanc_1_10::XalanDOMString"* dereferenceable(40) %3), !dbg !2917
  br label %if.end, !dbg !2918

if.else:                                          ; preds = %entry
  call void @llvm.dbg.declare(metadata i32* %theLength, metadata !2919, metadata !DIExpression()), !dbg !2921
  %4 = load i32, i32* %theEndIndex.addr, align 4, !dbg !2922
  %cmp1 = icmp eq i32 %4, -1, !dbg !2923
  br i1 %cmp1, label %cond.true, label %cond.false, !dbg !2922

cond.true:                                        ; preds = %if.else
  %5 = load i32, i32* %theStringLength, align 4, !dbg !2924
  %6 = load i32, i32* %theStartIndex.addr, align 4, !dbg !2925
  %sub = sub i32 %5, %6, !dbg !2926
  br label %cond.end, !dbg !2922

cond.false:                                       ; preds = %if.else
  %7 = load i32, i32* %theEndIndex.addr, align 4, !dbg !2927
  %8 = load i32, i32* %theStartIndex.addr, align 4, !dbg !2928
  %sub2 = sub i32 %7, %8, !dbg !2929
  br label %cond.end, !dbg !2922

cond.end:                                         ; preds = %cond.false, %cond.true
  %cond = phi i32 [ %sub, %cond.true ], [ %sub2, %cond.false ], !dbg !2922
  store i32 %cond, i32* %theLength, align 4, !dbg !2921
  %9 = load %"class.xalanc_1_10::XalanDOMString"*, %"class.xalanc_1_10::XalanDOMString"** %theSubstring.addr, align 8, !dbg !2930
  %10 = load i16*, i16** %theString.addr, align 8, !dbg !2931
  %11 = load i32, i32* %theStartIndex.addr, align 4, !dbg !2932
  %idx.ext = zext i32 %11 to i64, !dbg !2933
  %add.ptr = getelementptr inbounds i16, i16* %10, i64 %idx.ext, !dbg !2933
  %12 = load i32, i32* %theLength, align 4, !dbg !2934
  %call3 = call dereferenceable(40) %"class.xalanc_1_10::XalanDOMString"* @_ZN11xalanc_1_1014XalanDOMString6assignEPKtj(%"class.xalanc_1_10::XalanDOMString"* %9, i16* %add.ptr, i32 %12), !dbg !2935
  br label %if.end

if.end:                                           ; preds = %cond.end, %if.then
  %13 = load %"class.xalanc_1_10::XalanDOMString"*, %"class.xalanc_1_10::XalanDOMString"** %theSubstring.addr, align 8, !dbg !2936
  ret %"class.xalanc_1_10::XalanDOMString"* %13, !dbg !2937
}

; Function Attrs: noinline uwtable
define linkonce_odr dso_local void @_ZN11xalanc_1_105clearERNS_14XalanDOMStringE(%"class.xalanc_1_10::XalanDOMString"* dereferenceable(40) %theString) #0 comdat !dbg !2938 {
entry:
  %theString.addr = alloca %"class.xalanc_1_10::XalanDOMString"*, align 8
  store %"class.xalanc_1_10::XalanDOMString"* %theString, %"class.xalanc_1_10::XalanDOMString"** %theString.addr, align 8
  call void @llvm.dbg.declare(metadata %"class.xalanc_1_10::XalanDOMString"** %theString.addr, metadata !2941, metadata !DIExpression()), !dbg !2942
  %0 = load %"class.xalanc_1_10::XalanDOMString"*, %"class.xalanc_1_10::XalanDOMString"** %theString.addr, align 8, !dbg !2943
  call void @_ZN11xalanc_1_1014XalanDOMString5clearEv(%"class.xalanc_1_10::XalanDOMString"* %0), !dbg !2944
  ret void, !dbg !2945
}

; Function Attrs: noinline uwtable
define linkonce_odr dso_local dereferenceable(40) %"class.xalanc_1_10::XalanDOMString"* @_ZN11xalanc_1_1014XalanDOMString6assignEPKtj(%"class.xalanc_1_10::XalanDOMString"* %this, i16* %theSource, i32 %theCount) #0 comdat align 2 !dbg !2946 {
entry:
  %this.addr = alloca %"class.xalanc_1_10::XalanDOMString"*, align 8
  %theSource.addr = alloca i16*, align 8
  %theCount.addr = alloca i32, align 4
  store %"class.xalanc_1_10::XalanDOMString"* %this, %"class.xalanc_1_10::XalanDOMString"** %this.addr, align 8
  call void @llvm.dbg.declare(metadata %"class.xalanc_1_10::XalanDOMString"** %this.addr, metadata !2947, metadata !DIExpression()), !dbg !2948
  store i16* %theSource, i16** %theSource.addr, align 8
  call void @llvm.dbg.declare(metadata i16** %theSource.addr, metadata !2949, metadata !DIExpression()), !dbg !2950
  store i32 %theCount, i32* %theCount.addr, align 4
  call void @llvm.dbg.declare(metadata i32* %theCount.addr, metadata !2951, metadata !DIExpression()), !dbg !2952
  %this1 = load %"class.xalanc_1_10::XalanDOMString"*, %"class.xalanc_1_10::XalanDOMString"** %this.addr, align 8
  call void @_ZNK11xalanc_1_1014XalanDOMString10invariantsEv(%"class.xalanc_1_10::XalanDOMString"* %this1), !dbg !2953
  call void @_ZN11xalanc_1_1014XalanDOMString5eraseEjj(%"class.xalanc_1_10::XalanDOMString"* %this1, i32 0, i32 -1), !dbg !2954
  call void @_ZNK11xalanc_1_1014XalanDOMString10invariantsEv(%"class.xalanc_1_10::XalanDOMString"* %this1), !dbg !2955
  %0 = load i16*, i16** %theSource.addr, align 8, !dbg !2956
  %1 = load i32, i32* %theCount.addr, align 4, !dbg !2957
  %call = call dereferenceable(40) %"class.xalanc_1_10::XalanDOMString"* @_ZN11xalanc_1_1014XalanDOMString6appendEPKtj(%"class.xalanc_1_10::XalanDOMString"* %this1, i16* %0, i32 %1), !dbg !2958
  ret %"class.xalanc_1_10::XalanDOMString"* %call, !dbg !2959
}

; Function Attrs: noinline uwtable
define dso_local void @_ZN11xalanc_1_109substringERKNS_14XalanDOMStringERS0_jj(%"class.xalanc_1_10::XalanDOMString"* dereferenceable(40) %theString, %"class.xalanc_1_10::XalanDOMString"* dereferenceable(40) %theSubstring, i32 %theStartIndex, i32 %theEndIndex) #0 !dbg !2960 {
entry:
  %theString.addr = alloca %"class.xalanc_1_10::XalanDOMString"*, align 8
  %theSubstring.addr = alloca %"class.xalanc_1_10::XalanDOMString"*, align 8
  %theStartIndex.addr = alloca i32, align 4
  %theEndIndex.addr = alloca i32, align 4
  %theStringLength = alloca i32, align 4
  %theLength = alloca i32, align 4
  store %"class.xalanc_1_10::XalanDOMString"* %theString, %"class.xalanc_1_10::XalanDOMString"** %theString.addr, align 8
  call void @llvm.dbg.declare(metadata %"class.xalanc_1_10::XalanDOMString"** %theString.addr, metadata !2963, metadata !DIExpression()), !dbg !2964
  store %"class.xalanc_1_10::XalanDOMString"* %theSubstring, %"class.xalanc_1_10::XalanDOMString"** %theSubstring.addr, align 8
  call void @llvm.dbg.declare(metadata %"class.xalanc_1_10::XalanDOMString"** %theSubstring.addr, metadata !2965, metadata !DIExpression()), !dbg !2966
  store i32 %theStartIndex, i32* %theStartIndex.addr, align 4
  call void @llvm.dbg.declare(metadata i32* %theStartIndex.addr, metadata !2967, metadata !DIExpression()), !dbg !2968
  store i32 %theEndIndex, i32* %theEndIndex.addr, align 4
  call void @llvm.dbg.declare(metadata i32* %theEndIndex.addr, metadata !2969, metadata !DIExpression()), !dbg !2970
  call void @llvm.dbg.declare(metadata i32* %theStringLength, metadata !2971, metadata !DIExpression()), !dbg !2972
  %0 = load %"class.xalanc_1_10::XalanDOMString"*, %"class.xalanc_1_10::XalanDOMString"** %theString.addr, align 8, !dbg !2973
  %call = call i32 @_ZN11xalanc_1_106lengthERKNS_14XalanDOMStringE(%"class.xalanc_1_10::XalanDOMString"* dereferenceable(40) %0), !dbg !2974
  store i32 %call, i32* %theStringLength, align 4, !dbg !2972
  %1 = load i32, i32* %theStartIndex.addr, align 4, !dbg !2975
  %2 = load i32, i32* %theStringLength, align 4, !dbg !2977
  %cmp = icmp eq i32 %1, %2, !dbg !2978
  br i1 %cmp, label %if.then, label %if.else, !dbg !2979

if.then:                                          ; preds = %entry
  %3 = load %"class.xalanc_1_10::XalanDOMString"*, %"class.xalanc_1_10::XalanDOMString"** %theSubstring.addr, align 8, !dbg !2980
  call void @_ZN11xalanc_1_105clearERNS_14XalanDOMStringE(%"class.xalanc_1_10::XalanDOMString"* dereferenceable(40) %3), !dbg !2982
  br label %if.end7, !dbg !2983

if.else:                                          ; preds = %entry
  call void @llvm.dbg.declare(metadata i32* %theLength, metadata !2984, metadata !DIExpression()), !dbg !2986
  %4 = load i32, i32* %theEndIndex.addr, align 4, !dbg !2987
  %cmp1 = icmp eq i32 %4, -1, !dbg !2988
  br i1 %cmp1, label %cond.true, label %cond.false, !dbg !2987

cond.true:                                        ; preds = %if.else
  %5 = load i32, i32* %theStringLength, align 4, !dbg !2989
  %6 = load i32, i32* %theStartIndex.addr, align 4, !dbg !2990
  %sub = sub i32 %5, %6, !dbg !2991
  br label %cond.end, !dbg !2987

cond.false:                                       ; preds = %if.else
  %7 = load i32, i32* %theEndIndex.addr, align 4, !dbg !2992
  %8 = load i32, i32* %theStartIndex.addr, align 4, !dbg !2993
  %sub2 = sub i32 %7, %8, !dbg !2994
  br label %cond.end, !dbg !2987

cond.end:                                         ; preds = %cond.false, %cond.true
  %cond = phi i32 [ %sub, %cond.true ], [ %sub2, %cond.false ], !dbg !2987
  store i32 %cond, i32* %theLength, align 4, !dbg !2986
  %9 = load i32, i32* %theLength, align 4, !dbg !2995
  %cmp3 = icmp eq i32 %9, 0, !dbg !2997
  br i1 %cmp3, label %if.then4, label %if.else5, !dbg !2998

if.then4:                                         ; preds = %cond.end
  %10 = load %"class.xalanc_1_10::XalanDOMString"*, %"class.xalanc_1_10::XalanDOMString"** %theSubstring.addr, align 8, !dbg !2999
  call void @_ZN11xalanc_1_105clearERNS_14XalanDOMStringE(%"class.xalanc_1_10::XalanDOMString"* dereferenceable(40) %10), !dbg !3001
  br label %if.end, !dbg !3002

if.else5:                                         ; preds = %cond.end
  %11 = load %"class.xalanc_1_10::XalanDOMString"*, %"class.xalanc_1_10::XalanDOMString"** %theString.addr, align 8, !dbg !3003
  %12 = load %"class.xalanc_1_10::XalanDOMString"*, %"class.xalanc_1_10::XalanDOMString"** %theSubstring.addr, align 8, !dbg !3005
  %13 = load i32, i32* %theStartIndex.addr, align 4, !dbg !3006
  %14 = load i32, i32* %theLength, align 4, !dbg !3007
  %call6 = call dereferenceable(40) %"class.xalanc_1_10::XalanDOMString"* @_ZNK11xalanc_1_1014XalanDOMString6substrERS0_jj(%"class.xalanc_1_10::XalanDOMString"* %11, %"class.xalanc_1_10::XalanDOMString"* dereferenceable(40) %12, i32 %13, i32 %14), !dbg !3008
  br label %if.end

if.end:                                           ; preds = %if.else5, %if.then4
  br label %if.end7

if.end7:                                          ; preds = %if.end, %if.then
  ret void, !dbg !3009
}

; Function Attrs: noinline uwtable
define linkonce_odr dso_local i32 @_ZN11xalanc_1_106lengthERKNS_14XalanDOMStringE(%"class.xalanc_1_10::XalanDOMString"* dereferenceable(40) %theString) #0 comdat !dbg !3010 {
entry:
  %theString.addr = alloca %"class.xalanc_1_10::XalanDOMString"*, align 8
  store %"class.xalanc_1_10::XalanDOMString"* %theString, %"class.xalanc_1_10::XalanDOMString"** %theString.addr, align 8
  call void @llvm.dbg.declare(metadata %"class.xalanc_1_10::XalanDOMString"** %theString.addr, metadata !3013, metadata !DIExpression()), !dbg !3014
  %0 = load %"class.xalanc_1_10::XalanDOMString"*, %"class.xalanc_1_10::XalanDOMString"** %theString.addr, align 8, !dbg !3015
  %call = call i32 @_ZNK11xalanc_1_1014XalanDOMString6lengthEv(%"class.xalanc_1_10::XalanDOMString"* %0), !dbg !3016
  ret i32 %call, !dbg !3017
}

; Function Attrs: noinline uwtable
define linkonce_odr dso_local dereferenceable(40) %"class.xalanc_1_10::XalanDOMString"* @_ZNK11xalanc_1_1014XalanDOMString6substrERS0_jj(%"class.xalanc_1_10::XalanDOMString"* %this, %"class.xalanc_1_10::XalanDOMString"* dereferenceable(40) %theSubstring, i32 %thePosition, i32 %theCount) #0 comdat align 2 !dbg !3018 {
entry:
  %this.addr = alloca %"class.xalanc_1_10::XalanDOMString"*, align 8
  %theSubstring.addr = alloca %"class.xalanc_1_10::XalanDOMString"*, align 8
  %thePosition.addr = alloca i32, align 4
  %theCount.addr = alloca i32, align 4
  store %"class.xalanc_1_10::XalanDOMString"* %this, %"class.xalanc_1_10::XalanDOMString"** %this.addr, align 8
  call void @llvm.dbg.declare(metadata %"class.xalanc_1_10::XalanDOMString"** %this.addr, metadata !3019, metadata !DIExpression()), !dbg !3020
  store %"class.xalanc_1_10::XalanDOMString"* %theSubstring, %"class.xalanc_1_10::XalanDOMString"** %theSubstring.addr, align 8
  call void @llvm.dbg.declare(metadata %"class.xalanc_1_10::XalanDOMString"** %theSubstring.addr, metadata !3021, metadata !DIExpression()), !dbg !3022
  store i32 %thePosition, i32* %thePosition.addr, align 4
  call void @llvm.dbg.declare(metadata i32* %thePosition.addr, metadata !3023, metadata !DIExpression()), !dbg !3024
  store i32 %theCount, i32* %theCount.addr, align 4
  call void @llvm.dbg.declare(metadata i32* %theCount.addr, metadata !3025, metadata !DIExpression()), !dbg !3026
  %this1 = load %"class.xalanc_1_10::XalanDOMString"*, %"class.xalanc_1_10::XalanDOMString"** %this.addr, align 8
  call void @_ZNK11xalanc_1_1014XalanDOMString10invariantsEv(%"class.xalanc_1_10::XalanDOMString"* %this1), !dbg !3027
  %0 = load %"class.xalanc_1_10::XalanDOMString"*, %"class.xalanc_1_10::XalanDOMString"** %theSubstring.addr, align 8, !dbg !3028
  %1 = load i32, i32* %thePosition.addr, align 4, !dbg !3029
  %2 = load i32, i32* %theCount.addr, align 4, !dbg !3030
  %call = call dereferenceable(40) %"class.xalanc_1_10::XalanDOMString"* @_ZN11xalanc_1_1014XalanDOMString6assignERKS0_jj(%"class.xalanc_1_10::XalanDOMString"* %0, %"class.xalanc_1_10::XalanDOMString"* dereferenceable(40) %this1, i32 %1, i32 %2), !dbg !3031
  ret %"class.xalanc_1_10::XalanDOMString"* %call, !dbg !3032
}

; Function Attrs: noinline uwtable
define dso_local dereferenceable(40) %"class.xalanc_1_10::XalanDOMString"* @_ZN11xalanc_1_1016toLowerCaseASCIIEPKtRNS_14XalanDOMStringE(i16* %theString, %"class.xalanc_1_10::XalanDOMString"* dereferenceable(40) %theResult) #0 !dbg !3033 {
entry:
  %theString.addr = alloca i16*, align 8
  %theResult.addr = alloca %"class.xalanc_1_10::XalanDOMString"*, align 8
  store i16* %theString, i16** %theString.addr, align 8
  call void @llvm.dbg.declare(metadata i16** %theString.addr, metadata !3036, metadata !DIExpression()), !dbg !3037
  store %"class.xalanc_1_10::XalanDOMString"* %theResult, %"class.xalanc_1_10::XalanDOMString"** %theResult.addr, align 8
  call void @llvm.dbg.declare(metadata %"class.xalanc_1_10::XalanDOMString"** %theResult.addr, metadata !3038, metadata !DIExpression()), !dbg !3039
  %0 = load i16*, i16** %theString.addr, align 8, !dbg !3040
  %1 = load i16*, i16** %theString.addr, align 8, !dbg !3041
  %call = call i32 @_ZN11xalanc_1_106lengthEPKt(i16* %1), !dbg !3042
  %2 = load %"class.xalanc_1_10::XalanDOMString"*, %"class.xalanc_1_10::XalanDOMString"** %theResult.addr, align 8, !dbg !3043
  %call1 = call dereferenceable(40) %"class.xalanc_1_10::XalanDOMString"* @_ZN11xalanc_1_1015TransformStringIPFttEEERNS_14XalanDOMStringEPKtjT_S4_(i16* %0, i32 %call, i16 (i16)* @_ZN11xalanc_1_1012toLowerASCIIEt, %"class.xalanc_1_10::XalanDOMString"* dereferenceable(40) %2), !dbg !3044
  %3 = load %"class.xalanc_1_10::XalanDOMString"*, %"class.xalanc_1_10::XalanDOMString"** %theResult.addr, align 8, !dbg !3045
  ret %"class.xalanc_1_10::XalanDOMString"* %3, !dbg !3046
}

; Function Attrs: noinline uwtable
define linkonce_odr dso_local dereferenceable(40) %"class.xalanc_1_10::XalanDOMString"* @_ZN11xalanc_1_1015TransformStringIPFttEEERNS_14XalanDOMStringEPKtjT_S4_(i16* %theInputString, i32 %theInputStringLength, i16 (i16)* %theFunction, %"class.xalanc_1_10::XalanDOMString"* dereferenceable(40) %theConvertedString) #0 comdat !dbg !3047 {
entry:
  %theInputString.addr = alloca i16*, align 8
  %theInputStringLength.addr = alloca i32, align 4
  %theFunction.addr = alloca i16 (i16)*, align 8
  %theConvertedString.addr = alloca %"class.xalanc_1_10::XalanDOMString"*, align 8
  %agg.tmp = alloca %"class.std::back_insert_iterator.2", align 8
  %coerce = alloca %"class.std::back_insert_iterator.2", align 8
  store i16* %theInputString, i16** %theInputString.addr, align 8
  call void @llvm.dbg.declare(metadata i16** %theInputString.addr, metadata !3055, metadata !DIExpression()), !dbg !3056
  store i32 %theInputStringLength, i32* %theInputStringLength.addr, align 4
  call void @llvm.dbg.declare(metadata i32* %theInputStringLength.addr, metadata !3057, metadata !DIExpression()), !dbg !3058
  store i16 (i16)* %theFunction, i16 (i16)** %theFunction.addr, align 8
  call void @llvm.dbg.declare(metadata i16 (i16)** %theFunction.addr, metadata !3059, metadata !DIExpression()), !dbg !3060
  store %"class.xalanc_1_10::XalanDOMString"* %theConvertedString, %"class.xalanc_1_10::XalanDOMString"** %theConvertedString.addr, align 8
  call void @llvm.dbg.declare(metadata %"class.xalanc_1_10::XalanDOMString"** %theConvertedString.addr, metadata !3061, metadata !DIExpression()), !dbg !3062
  %0 = load i16*, i16** %theInputString.addr, align 8, !dbg !3063
  %1 = load i16*, i16** %theInputString.addr, align 8, !dbg !3064
  %2 = load i32, i32* %theInputStringLength.addr, align 4, !dbg !3065
  %idx.ext = zext i32 %2 to i64, !dbg !3066
  %add.ptr = getelementptr inbounds i16, i16* %1, i64 %idx.ext, !dbg !3066
  %3 = load %"class.xalanc_1_10::XalanDOMString"*, %"class.xalanc_1_10::XalanDOMString"** %theConvertedString.addr, align 8, !dbg !3067
  %call = call %"class.xalanc_1_10::XalanDOMString"* @_ZSt13back_inserterIN11xalanc_1_1014XalanDOMStringEESt20back_insert_iteratorIT_ERS3_(%"class.xalanc_1_10::XalanDOMString"* dereferenceable(40) %3), !dbg !3068
  %coerce.dive = getelementptr inbounds %"class.std::back_insert_iterator.2", %"class.std::back_insert_iterator.2"* %agg.tmp, i32 0, i32 0, !dbg !3068
  store %"class.xalanc_1_10::XalanDOMString"* %call, %"class.xalanc_1_10::XalanDOMString"** %coerce.dive, align 8, !dbg !3068
  %4 = load i16 (i16)*, i16 (i16)** %theFunction.addr, align 8, !dbg !3069
  %coerce.dive1 = getelementptr inbounds %"class.std::back_insert_iterator.2", %"class.std::back_insert_iterator.2"* %agg.tmp, i32 0, i32 0, !dbg !3070
  %5 = load %"class.xalanc_1_10::XalanDOMString"*, %"class.xalanc_1_10::XalanDOMString"** %coerce.dive1, align 8, !dbg !3070
  %call2 = call %"class.xalanc_1_10::XalanDOMString"* @_ZN11xalanc_1_1015TransformStringIPKtSt20back_insert_iteratorINS_14XalanDOMStringEEPFttEEET0_T_S9_S8_T1_(i16* %0, i16* %add.ptr, %"class.xalanc_1_10::XalanDOMString"* %5, i16 (i16)* %4), !dbg !3070
  %coerce.dive3 = getelementptr inbounds %"class.std::back_insert_iterator.2", %"class.std::back_insert_iterator.2"* %coerce, i32 0, i32 0, !dbg !3070
  store %"class.xalanc_1_10::XalanDOMString"* %call2, %"class.xalanc_1_10::XalanDOMString"** %coerce.dive3, align 8, !dbg !3070
  %6 = load %"class.xalanc_1_10::XalanDOMString"*, %"class.xalanc_1_10::XalanDOMString"** %theConvertedString.addr, align 8, !dbg !3071
  ret %"class.xalanc_1_10::XalanDOMString"* %6, !dbg !3072
}

; Function Attrs: noinline nounwind uwtable
define linkonce_odr dso_local zeroext i16 @_ZN11xalanc_1_1012toLowerASCIIEt(i16 zeroext %theChar) #5 comdat !dbg !3073 {
entry:
  %retval = alloca i16, align 2
  %theChar.addr = alloca i16, align 2
  store i16 %theChar, i16* %theChar.addr, align 2
  call void @llvm.dbg.declare(metadata i16* %theChar.addr, metadata !3076, metadata !DIExpression()), !dbg !3077
  %0 = load i16, i16* %theChar.addr, align 2, !dbg !3078
  %conv = zext i16 %0 to i32, !dbg !3078
  %cmp = icmp sge i32 %conv, 65, !dbg !3080
  br i1 %cmp, label %land.lhs.true, label %if.else, !dbg !3081

land.lhs.true:                                    ; preds = %entry
  %1 = load i16, i16* %theChar.addr, align 2, !dbg !3082
  %conv1 = zext i16 %1 to i32, !dbg !3082
  %cmp2 = icmp sle i32 %conv1, 90, !dbg !3083
  br i1 %cmp2, label %if.then, label %if.else, !dbg !3084

if.then:                                          ; preds = %land.lhs.true
  %2 = load i16, i16* %theChar.addr, align 2, !dbg !3085
  %conv3 = zext i16 %2 to i32, !dbg !3085
  %sub = sub nsw i32 %conv3, -32, !dbg !3087
  %conv4 = trunc i32 %sub to i16, !dbg !3085
  store i16 %conv4, i16* %retval, align 2, !dbg !3088
  br label %return, !dbg !3088

if.else:                                          ; preds = %land.lhs.true, %entry
  %3 = load i16, i16* %theChar.addr, align 2, !dbg !3089
  store i16 %3, i16* %retval, align 2, !dbg !3091
  br label %return, !dbg !3091

return:                                           ; preds = %if.else, %if.then
  %4 = load i16, i16* %retval, align 2, !dbg !3092
  ret i16 %4, !dbg !3092
}

; Function Attrs: noinline uwtable
define dso_local dereferenceable(40) %"class.xalanc_1_10::XalanDOMString"* @_ZN11xalanc_1_1016toLowerCaseASCIIERKNS_14XalanDOMStringERS0_(%"class.xalanc_1_10::XalanDOMString"* dereferenceable(40) %theString, %"class.xalanc_1_10::XalanDOMString"* dereferenceable(40) %theResult) #0 !dbg !3093 {
entry:
  %theString.addr = alloca %"class.xalanc_1_10::XalanDOMString"*, align 8
  %theResult.addr = alloca %"class.xalanc_1_10::XalanDOMString"*, align 8
  store %"class.xalanc_1_10::XalanDOMString"* %theString, %"class.xalanc_1_10::XalanDOMString"** %theString.addr, align 8
  call void @llvm.dbg.declare(metadata %"class.xalanc_1_10::XalanDOMString"** %theString.addr, metadata !3096, metadata !DIExpression()), !dbg !3097
  store %"class.xalanc_1_10::XalanDOMString"* %theResult, %"class.xalanc_1_10::XalanDOMString"** %theResult.addr, align 8
  call void @llvm.dbg.declare(metadata %"class.xalanc_1_10::XalanDOMString"** %theResult.addr, metadata !3098, metadata !DIExpression()), !dbg !3099
  %0 = load %"class.xalanc_1_10::XalanDOMString"*, %"class.xalanc_1_10::XalanDOMString"** %theString.addr, align 8, !dbg !3100
  %1 = load %"class.xalanc_1_10::XalanDOMString"*, %"class.xalanc_1_10::XalanDOMString"** %theResult.addr, align 8, !dbg !3101
  %call = call dereferenceable(40) %"class.xalanc_1_10::XalanDOMString"* @_ZN11xalanc_1_1023TransformXalanDOMStringIPFttEEERNS_14XalanDOMStringERKS3_T_S4_(%"class.xalanc_1_10::XalanDOMString"* dereferenceable(40) %0, i16 (i16)* @_ZN11xalanc_1_1012toLowerASCIIEt, %"class.xalanc_1_10::XalanDOMString"* dereferenceable(40) %1), !dbg !3102
  %2 = load %"class.xalanc_1_10::XalanDOMString"*, %"class.xalanc_1_10::XalanDOMString"** %theResult.addr, align 8, !dbg !3103
  ret %"class.xalanc_1_10::XalanDOMString"* %2, !dbg !3104
}

; Function Attrs: noinline uwtable
define linkonce_odr dso_local dereferenceable(40) %"class.xalanc_1_10::XalanDOMString"* @_ZN11xalanc_1_1023TransformXalanDOMStringIPFttEEERNS_14XalanDOMStringERKS3_T_S4_(%"class.xalanc_1_10::XalanDOMString"* dereferenceable(40) %theInputString, i16 (i16)* %theFunction, %"class.xalanc_1_10::XalanDOMString"* dereferenceable(40) %theResult) #0 comdat !dbg !3105 {
entry:
  %theInputString.addr = alloca %"class.xalanc_1_10::XalanDOMString"*, align 8
  %theFunction.addr = alloca i16 (i16)*, align 8
  %theResult.addr = alloca %"class.xalanc_1_10::XalanDOMString"*, align 8
  %theStringLength = alloca i32, align 4
  %theBuffer = alloca i16*, align 8
  store %"class.xalanc_1_10::XalanDOMString"* %theInputString, %"class.xalanc_1_10::XalanDOMString"** %theInputString.addr, align 8
  call void @llvm.dbg.declare(metadata %"class.xalanc_1_10::XalanDOMString"** %theInputString.addr, metadata !3108, metadata !DIExpression()), !dbg !3109
  store i16 (i16)* %theFunction, i16 (i16)** %theFunction.addr, align 8
  call void @llvm.dbg.declare(metadata i16 (i16)** %theFunction.addr, metadata !3110, metadata !DIExpression()), !dbg !3111
  store %"class.xalanc_1_10::XalanDOMString"* %theResult, %"class.xalanc_1_10::XalanDOMString"** %theResult.addr, align 8
  call void @llvm.dbg.declare(metadata %"class.xalanc_1_10::XalanDOMString"** %theResult.addr, metadata !3112, metadata !DIExpression()), !dbg !3113
  call void @llvm.dbg.declare(metadata i32* %theStringLength, metadata !3114, metadata !DIExpression()), !dbg !3115
  %0 = load %"class.xalanc_1_10::XalanDOMString"*, %"class.xalanc_1_10::XalanDOMString"** %theInputString.addr, align 8, !dbg !3116
  %call = call i32 @_ZN11xalanc_1_106lengthERKNS_14XalanDOMStringE(%"class.xalanc_1_10::XalanDOMString"* dereferenceable(40) %0), !dbg !3117
  store i32 %call, i32* %theStringLength, align 4, !dbg !3115
  %1 = load i32, i32* %theStringLength, align 4, !dbg !3118
  %cmp = icmp eq i32 %1, 0, !dbg !3120
  br i1 %cmp, label %if.then, label %if.else, !dbg !3121

if.then:                                          ; preds = %entry
  %2 = load %"class.xalanc_1_10::XalanDOMString"*, %"class.xalanc_1_10::XalanDOMString"** %theInputString.addr, align 8, !dbg !3122
  %3 = load %"class.xalanc_1_10::XalanDOMString"*, %"class.xalanc_1_10::XalanDOMString"** %theResult.addr, align 8, !dbg !3124
  %call1 = call dereferenceable(40) %"class.xalanc_1_10::XalanDOMString"* @_ZN11xalanc_1_1014XalanDOMStringaSERKS0_(%"class.xalanc_1_10::XalanDOMString"* %3, %"class.xalanc_1_10::XalanDOMString"* dereferenceable(40) %2), !dbg !3125
  br label %if.end, !dbg !3126

if.else:                                          ; preds = %entry
  call void @llvm.dbg.declare(metadata i16** %theBuffer, metadata !3127, metadata !DIExpression()), !dbg !3130
  %4 = load %"class.xalanc_1_10::XalanDOMString"*, %"class.xalanc_1_10::XalanDOMString"** %theInputString.addr, align 8, !dbg !3131
  %call2 = call i16* @_ZN11xalanc_1_106c_wstrERKNS_14XalanDOMStringE(%"class.xalanc_1_10::XalanDOMString"* dereferenceable(40) %4), !dbg !3132
  store i16* %call2, i16** %theBuffer, align 8, !dbg !3130
  %5 = load i16*, i16** %theBuffer, align 8, !dbg !3133
  %6 = load i32, i32* %theStringLength, align 4, !dbg !3134
  %7 = load i16 (i16)*, i16 (i16)** %theFunction.addr, align 8, !dbg !3135
  %8 = load %"class.xalanc_1_10::XalanDOMString"*, %"class.xalanc_1_10::XalanDOMString"** %theResult.addr, align 8, !dbg !3136
  %call3 = call dereferenceable(40) %"class.xalanc_1_10::XalanDOMString"* @_ZN11xalanc_1_1015TransformStringIPFttEEERNS_14XalanDOMStringEPKtjT_S4_(i16* %5, i32 %6, i16 (i16)* %7, %"class.xalanc_1_10::XalanDOMString"* dereferenceable(40) %8), !dbg !3137
  br label %if.end

if.end:                                           ; preds = %if.else, %if.then
  %9 = load %"class.xalanc_1_10::XalanDOMString"*, %"class.xalanc_1_10::XalanDOMString"** %theResult.addr, align 8, !dbg !3138
  ret %"class.xalanc_1_10::XalanDOMString"* %9, !dbg !3139
}

; Function Attrs: noinline uwtable
define dso_local dereferenceable(40) %"class.xalanc_1_10::XalanDOMString"* @_ZN11xalanc_1_1016toLowerCaseASCIIERNS_14XalanDOMStringE(%"class.xalanc_1_10::XalanDOMString"* dereferenceable(40) %theString) #0 !dbg !3140 {
entry:
  %theString.addr = alloca %"class.xalanc_1_10::XalanDOMString"*, align 8
  store %"class.xalanc_1_10::XalanDOMString"* %theString, %"class.xalanc_1_10::XalanDOMString"** %theString.addr, align 8
  call void @llvm.dbg.declare(metadata %"class.xalanc_1_10::XalanDOMString"** %theString.addr, metadata !3143, metadata !DIExpression()), !dbg !3144
  %0 = load %"class.xalanc_1_10::XalanDOMString"*, %"class.xalanc_1_10::XalanDOMString"** %theString.addr, align 8, !dbg !3145
  %call = call dereferenceable(40) %"class.xalanc_1_10::XalanDOMString"* @_ZN11xalanc_1_1015TransformStringIPFttEEERNS_14XalanDOMStringET_S4_(i16 (i16)* @_ZN11xalanc_1_1012toLowerASCIIEt, %"class.xalanc_1_10::XalanDOMString"* dereferenceable(40) %0), !dbg !3146
  %1 = load %"class.xalanc_1_10::XalanDOMString"*, %"class.xalanc_1_10::XalanDOMString"** %theString.addr, align 8, !dbg !3147
  ret %"class.xalanc_1_10::XalanDOMString"* %1, !dbg !3148
}

; Function Attrs: noinline uwtable
define linkonce_odr dso_local dereferenceable(40) %"class.xalanc_1_10::XalanDOMString"* @_ZN11xalanc_1_1015TransformStringIPFttEEERNS_14XalanDOMStringET_S4_(i16 (i16)* %theFunction, %"class.xalanc_1_10::XalanDOMString"* dereferenceable(40) %theString) #0 comdat !dbg !3149 {
entry:
  %theFunction.addr = alloca i16 (i16)*, align 8
  %theString.addr = alloca %"class.xalanc_1_10::XalanDOMString"*, align 8
  store i16 (i16)* %theFunction, i16 (i16)** %theFunction.addr, align 8
  call void @llvm.dbg.declare(metadata i16 (i16)** %theFunction.addr, metadata !3152, metadata !DIExpression()), !dbg !3153
  store %"class.xalanc_1_10::XalanDOMString"* %theString, %"class.xalanc_1_10::XalanDOMString"** %theString.addr, align 8
  call void @llvm.dbg.declare(metadata %"class.xalanc_1_10::XalanDOMString"** %theString.addr, metadata !3154, metadata !DIExpression()), !dbg !3155
  %0 = load %"class.xalanc_1_10::XalanDOMString"*, %"class.xalanc_1_10::XalanDOMString"** %theString.addr, align 8, !dbg !3156
  %call = call i16* @_ZN11xalanc_1_1014XalanDOMString5beginEv(%"class.xalanc_1_10::XalanDOMString"* %0), !dbg !3157
  %1 = load %"class.xalanc_1_10::XalanDOMString"*, %"class.xalanc_1_10::XalanDOMString"** %theString.addr, align 8, !dbg !3158
  %call1 = call i16* @_ZN11xalanc_1_1014XalanDOMString3endEv(%"class.xalanc_1_10::XalanDOMString"* %1), !dbg !3159
  %2 = load %"class.xalanc_1_10::XalanDOMString"*, %"class.xalanc_1_10::XalanDOMString"** %theString.addr, align 8, !dbg !3160
  %call2 = call i16* @_ZN11xalanc_1_1014XalanDOMString5beginEv(%"class.xalanc_1_10::XalanDOMString"* %2), !dbg !3161
  %3 = load i16 (i16)*, i16 (i16)** %theFunction.addr, align 8, !dbg !3162
  %call3 = call i16* @_ZN11xalanc_1_1015TransformStringIPtS1_PFttEEET0_T_S5_S4_T1_(i16* %call, i16* %call1, i16* %call2, i16 (i16)* %3), !dbg !3163
  %4 = load %"class.xalanc_1_10::XalanDOMString"*, %"class.xalanc_1_10::XalanDOMString"** %theString.addr, align 8, !dbg !3164
  ret %"class.xalanc_1_10::XalanDOMString"* %4, !dbg !3165
}

; Function Attrs: noinline uwtable
define dso_local dereferenceable(40) %"class.xalanc_1_10::XalanDOMString"* @_ZN11xalanc_1_1016toUpperCaseASCIIEPKtRNS_14XalanDOMStringE(i16* %theString, %"class.xalanc_1_10::XalanDOMString"* dereferenceable(40) %theResult) #0 !dbg !3166 {
entry:
  %theString.addr = alloca i16*, align 8
  %theResult.addr = alloca %"class.xalanc_1_10::XalanDOMString"*, align 8
  store i16* %theString, i16** %theString.addr, align 8
  call void @llvm.dbg.declare(metadata i16** %theString.addr, metadata !3167, metadata !DIExpression()), !dbg !3168
  store %"class.xalanc_1_10::XalanDOMString"* %theResult, %"class.xalanc_1_10::XalanDOMString"** %theResult.addr, align 8
  call void @llvm.dbg.declare(metadata %"class.xalanc_1_10::XalanDOMString"** %theResult.addr, metadata !3169, metadata !DIExpression()), !dbg !3170
  %0 = load i16*, i16** %theString.addr, align 8, !dbg !3171
  %1 = load i16*, i16** %theString.addr, align 8, !dbg !3172
  %call = call i32 @_ZN11xalanc_1_106lengthEPKt(i16* %1), !dbg !3173
  %2 = load %"class.xalanc_1_10::XalanDOMString"*, %"class.xalanc_1_10::XalanDOMString"** %theResult.addr, align 8, !dbg !3174
  %call1 = call dereferenceable(40) %"class.xalanc_1_10::XalanDOMString"* @_ZN11xalanc_1_1015TransformStringIPFttEEERNS_14XalanDOMStringEPKtjT_S4_(i16* %0, i32 %call, i16 (i16)* @_ZN11xalanc_1_1012toUpperASCIIEt, %"class.xalanc_1_10::XalanDOMString"* dereferenceable(40) %2), !dbg !3175
  %3 = load %"class.xalanc_1_10::XalanDOMString"*, %"class.xalanc_1_10::XalanDOMString"** %theResult.addr, align 8, !dbg !3176
  ret %"class.xalanc_1_10::XalanDOMString"* %3, !dbg !3177
}

; Function Attrs: noinline nounwind uwtable
define linkonce_odr dso_local zeroext i16 @_ZN11xalanc_1_1012toUpperASCIIEt(i16 zeroext %theChar) #5 comdat !dbg !3178 {
entry:
  %retval = alloca i16, align 2
  %theChar.addr = alloca i16, align 2
  store i16 %theChar, i16* %theChar.addr, align 2
  call void @llvm.dbg.declare(metadata i16* %theChar.addr, metadata !3179, metadata !DIExpression()), !dbg !3180
  %0 = load i16, i16* %theChar.addr, align 2, !dbg !3181
  %conv = zext i16 %0 to i32, !dbg !3181
  %cmp = icmp sge i32 %conv, 97, !dbg !3183
  br i1 %cmp, label %land.lhs.true, label %if.else, !dbg !3184

land.lhs.true:                                    ; preds = %entry
  %1 = load i16, i16* %theChar.addr, align 2, !dbg !3185
  %conv1 = zext i16 %1 to i32, !dbg !3185
  %cmp2 = icmp sle i32 %conv1, 122, !dbg !3186
  br i1 %cmp2, label %if.then, label %if.else, !dbg !3187

if.then:                                          ; preds = %land.lhs.true
  %2 = load i16, i16* %theChar.addr, align 2, !dbg !3188
  %conv3 = zext i16 %2 to i32, !dbg !3188
  %add = add nsw i32 %conv3, -32, !dbg !3190
  %conv4 = trunc i32 %add to i16, !dbg !3188
  store i16 %conv4, i16* %retval, align 2, !dbg !3191
  br label %return, !dbg !3191

if.else:                                          ; preds = %land.lhs.true, %entry
  %3 = load i16, i16* %theChar.addr, align 2, !dbg !3192
  store i16 %3, i16* %retval, align 2, !dbg !3194
  br label %return, !dbg !3194

return:                                           ; preds = %if.else, %if.then
  %4 = load i16, i16* %retval, align 2, !dbg !3195
  ret i16 %4, !dbg !3195
}

; Function Attrs: noinline uwtable
define dso_local dereferenceable(40) %"class.xalanc_1_10::XalanDOMString"* @_ZN11xalanc_1_1016toUpperCaseASCIIERKNS_14XalanDOMStringERS0_(%"class.xalanc_1_10::XalanDOMString"* dereferenceable(40) %theString, %"class.xalanc_1_10::XalanDOMString"* dereferenceable(40) %theResult) #0 !dbg !3196 {
entry:
  %theString.addr = alloca %"class.xalanc_1_10::XalanDOMString"*, align 8
  %theResult.addr = alloca %"class.xalanc_1_10::XalanDOMString"*, align 8
  store %"class.xalanc_1_10::XalanDOMString"* %theString, %"class.xalanc_1_10::XalanDOMString"** %theString.addr, align 8
  call void @llvm.dbg.declare(metadata %"class.xalanc_1_10::XalanDOMString"** %theString.addr, metadata !3197, metadata !DIExpression()), !dbg !3198
  store %"class.xalanc_1_10::XalanDOMString"* %theResult, %"class.xalanc_1_10::XalanDOMString"** %theResult.addr, align 8
  call void @llvm.dbg.declare(metadata %"class.xalanc_1_10::XalanDOMString"** %theResult.addr, metadata !3199, metadata !DIExpression()), !dbg !3200
  %0 = load %"class.xalanc_1_10::XalanDOMString"*, %"class.xalanc_1_10::XalanDOMString"** %theString.addr, align 8, !dbg !3201
  %1 = load %"class.xalanc_1_10::XalanDOMString"*, %"class.xalanc_1_10::XalanDOMString"** %theResult.addr, align 8, !dbg !3202
  %call = call dereferenceable(40) %"class.xalanc_1_10::XalanDOMString"* @_ZN11xalanc_1_1023TransformXalanDOMStringIPFttEEERNS_14XalanDOMStringERKS3_T_S4_(%"class.xalanc_1_10::XalanDOMString"* dereferenceable(40) %0, i16 (i16)* @_ZN11xalanc_1_1012toUpperASCIIEt, %"class.xalanc_1_10::XalanDOMString"* dereferenceable(40) %1), !dbg !3203
  %2 = load %"class.xalanc_1_10::XalanDOMString"*, %"class.xalanc_1_10::XalanDOMString"** %theResult.addr, align 8, !dbg !3204
  ret %"class.xalanc_1_10::XalanDOMString"* %2, !dbg !3205
}

; Function Attrs: noinline uwtable
define dso_local dereferenceable(40) %"class.xalanc_1_10::XalanDOMString"* @_ZN11xalanc_1_1016toUpperCaseASCIIERNS_14XalanDOMStringE(%"class.xalanc_1_10::XalanDOMString"* dereferenceable(40) %theString) #0 !dbg !3206 {
entry:
  %theString.addr = alloca %"class.xalanc_1_10::XalanDOMString"*, align 8
  store %"class.xalanc_1_10::XalanDOMString"* %theString, %"class.xalanc_1_10::XalanDOMString"** %theString.addr, align 8
  call void @llvm.dbg.declare(metadata %"class.xalanc_1_10::XalanDOMString"** %theString.addr, metadata !3207, metadata !DIExpression()), !dbg !3208
  %0 = load %"class.xalanc_1_10::XalanDOMString"*, %"class.xalanc_1_10::XalanDOMString"** %theString.addr, align 8, !dbg !3209
  %call = call dereferenceable(40) %"class.xalanc_1_10::XalanDOMString"* @_ZN11xalanc_1_1015TransformStringIPFttEEERNS_14XalanDOMStringET_S4_(i16 (i16)* @_ZN11xalanc_1_1012toUpperASCIIEt, %"class.xalanc_1_10::XalanDOMString"* dereferenceable(40) %0), !dbg !3210
  %1 = load %"class.xalanc_1_10::XalanDOMString"*, %"class.xalanc_1_10::XalanDOMString"** %theString.addr, align 8, !dbg !3211
  ret %"class.xalanc_1_10::XalanDOMString"* %1, !dbg !3212
}

; Function Attrs: noinline uwtable
define dso_local void @_ZN11xalanc_1_1025makeCharIdentityTransformEv() #0 !dbg !3213 {
entry:
  %theDummy = alloca i8, align 1
  %undef.agg.tmp = alloca %"class.xalanc_1_10::IdentityTransform", align 1
  call void @llvm.dbg.declare(metadata i8* %theDummy, metadata !3226, metadata !DIExpression()), !dbg !3227
  call void @_ZN11xalanc_1_1021makeIdentityTransformIccEENS_17IdentityTransformIT_T0_EEPKS2_PKS3_(i8* %theDummy, i8* %theDummy), !dbg !3228
  ret void, !dbg !3229
}

; Function Attrs: noinline nounwind uwtable
define linkonce_odr dso_local void @_ZN11xalanc_1_1021makeIdentityTransformIccEENS_17IdentityTransformIT_T0_EEPKS2_PKS3_(i8* %0, i8* %1) #5 comdat !dbg !3230 {
entry:
  %.addr = alloca i8*, align 8
  %.addr1 = alloca i8*, align 8
  store i8* %0, i8** %.addr, align 8
  call void @llvm.dbg.declare(metadata i8** %.addr, metadata !3233, metadata !DIExpression()), !dbg !3234
  store i8* %1, i8** %.addr1, align 8
  call void @llvm.dbg.declare(metadata i8** %.addr1, metadata !3235, metadata !DIExpression()), !dbg !3236
  ret void, !dbg !3237
}

; Function Attrs: noinline uwtable
define dso_local void @_ZN11xalanc_1_1033makeXalanDOMCharIdentityTransformEv() #0 !dbg !3238 {
entry:
  %theDummy = alloca i16, align 2
  %undef.agg.tmp = alloca %"class.xalanc_1_10::IdentityTransform.1", align 1
  call void @llvm.dbg.declare(metadata i16* %theDummy, metadata !3251, metadata !DIExpression()), !dbg !3252
  call void @_ZN11xalanc_1_1021makeIdentityTransformIttEENS_17IdentityTransformIT_T0_EEPKS2_PKS3_(i16* %theDummy, i16* %theDummy), !dbg !3253
  ret void, !dbg !3254
}

; Function Attrs: noinline nounwind uwtable
define linkonce_odr dso_local void @_ZN11xalanc_1_1021makeIdentityTransformIttEENS_17IdentityTransformIT_T0_EEPKS2_PKS3_(i16* %0, i16* %1) #5 comdat !dbg !3255 {
entry:
  %.addr = alloca i16*, align 8
  %.addr1 = alloca i16*, align 8
  store i16* %0, i16** %.addr, align 8
  call void @llvm.dbg.declare(metadata i16** %.addr, metadata !3258, metadata !DIExpression()), !dbg !3259
  store i16* %1, i16** %.addr1, align 8
  call void @llvm.dbg.declare(metadata i16** %.addr1, metadata !3260, metadata !DIExpression()), !dbg !3261
  ret void, !dbg !3262
}

; Function Attrs: noinline uwtable
define dso_local i32 @_ZN11xalanc_1_107compareERKNS_11XalanVectorIcNS_31MemoryManagedConstructionTraitsIcEEEES5_(%"class.xalanc_1_10::XalanVector.0"* dereferenceable(32) %theLHS, %"class.xalanc_1_10::XalanVector.0"* dereferenceable(32) %theRHS) #0 !dbg !3263 {
entry:
  %theLHS.addr = alloca %"class.xalanc_1_10::XalanVector.0"*, align 8
  %theRHS.addr = alloca %"class.xalanc_1_10::XalanVector.0"*, align 8
  %agg.tmp = alloca %"class.xalanc_1_10::IdentityTransform", align 1
  %undef.agg.tmp = alloca %"class.xalanc_1_10::IdentityTransform", align 1
  store %"class.xalanc_1_10::XalanVector.0"* %theLHS, %"class.xalanc_1_10::XalanVector.0"** %theLHS.addr, align 8
  call void @llvm.dbg.declare(metadata %"class.xalanc_1_10::XalanVector.0"** %theLHS.addr, metadata !3266, metadata !DIExpression()), !dbg !3267
  store %"class.xalanc_1_10::XalanVector.0"* %theRHS, %"class.xalanc_1_10::XalanVector.0"** %theRHS.addr, align 8
  call void @llvm.dbg.declare(metadata %"class.xalanc_1_10::XalanVector.0"** %theRHS.addr, metadata !3268, metadata !DIExpression()), !dbg !3269
  %0 = load %"class.xalanc_1_10::XalanVector.0"*, %"class.xalanc_1_10::XalanVector.0"** %theLHS.addr, align 8, !dbg !3270
  %call = call i8* @_ZN11xalanc_1_1011toCharArrayERKNS_11XalanVectorIcNS_31MemoryManagedConstructionTraitsIcEEEE(%"class.xalanc_1_10::XalanVector.0"* dereferenceable(32) %0), !dbg !3271
  %1 = load %"class.xalanc_1_10::XalanVector.0"*, %"class.xalanc_1_10::XalanVector.0"** %theLHS.addr, align 8, !dbg !3272
  %call1 = call i64 @_ZNK11xalanc_1_1011XalanVectorIcNS_31MemoryManagedConstructionTraitsIcEEE4sizeEv(%"class.xalanc_1_10::XalanVector.0"* %1), !dbg !3273
  %2 = load %"class.xalanc_1_10::XalanVector.0"*, %"class.xalanc_1_10::XalanVector.0"** %theRHS.addr, align 8, !dbg !3274
  %call2 = call i8* @_ZN11xalanc_1_1011toCharArrayERKNS_11XalanVectorIcNS_31MemoryManagedConstructionTraitsIcEEEE(%"class.xalanc_1_10::XalanVector.0"* dereferenceable(32) %2), !dbg !3275
  %3 = load %"class.xalanc_1_10::XalanVector.0"*, %"class.xalanc_1_10::XalanVector.0"** %theRHS.addr, align 8, !dbg !3276
  %call3 = call i64 @_ZNK11xalanc_1_1011XalanVectorIcNS_31MemoryManagedConstructionTraitsIcEEE4sizeEv(%"class.xalanc_1_10::XalanVector.0"* %3), !dbg !3277
  call void @_ZN11xalanc_1_1025makeCharIdentityTransformEv(), !dbg !3278
  %call4 = call i32 @_ZN11xalanc_1_109doCompareIcmNS_17IdentityTransformIccEEEEiPKT_T0_S5_S6_T1_(i8* %call, i64 %call1, i8* %call2, i64 %call3), !dbg !3279
  ret i32 %call4, !dbg !3280
}

; Function Attrs: noinline uwtable
define linkonce_odr dso_local i32 @_ZN11xalanc_1_109doCompareIcmNS_17IdentityTransformIccEEEEiPKT_T0_S5_S6_T1_(i8* %theLHS, i64 %theLHSLength, i8* %theRHS, i64 %theRHSLength) #0 comdat !dbg !3281 {
entry:
  %retval = alloca i32, align 4
  %theTransformFunction = alloca %"class.xalanc_1_10::IdentityTransform", align 1
  %theLHS.addr = alloca i8*, align 8
  %theLHSLength.addr = alloca i64, align 8
  %theRHS.addr = alloca i8*, align 8
  %theRHSLength.addr = alloca i64, align 8
  %theLHSChar = alloca i8, align 1
  %theRHSChar = alloca i8, align 1
  %i = alloca i64, align 8
  store i8* %theLHS, i8** %theLHS.addr, align 8
  call void @llvm.dbg.declare(metadata i8** %theLHS.addr, metadata !3287, metadata !DIExpression()), !dbg !3288
  store i64 %theLHSLength, i64* %theLHSLength.addr, align 8
  call void @llvm.dbg.declare(metadata i64* %theLHSLength.addr, metadata !3289, metadata !DIExpression()), !dbg !3290
  store i8* %theRHS, i8** %theRHS.addr, align 8
  call void @llvm.dbg.declare(metadata i8** %theRHS.addr, metadata !3291, metadata !DIExpression()), !dbg !3292
  store i64 %theRHSLength, i64* %theRHSLength.addr, align 8
  call void @llvm.dbg.declare(metadata i64* %theRHSLength.addr, metadata !3293, metadata !DIExpression()), !dbg !3294
  call void @llvm.dbg.declare(metadata %"class.xalanc_1_10::IdentityTransform"* %theTransformFunction, metadata !3295, metadata !DIExpression()), !dbg !3296
  %0 = load i64, i64* %theLHSLength.addr, align 8, !dbg !3297
  %1 = load i64, i64* %theRHSLength.addr, align 8, !dbg !3299
  %cmp = icmp ult i64 %0, %1, !dbg !3300
  br i1 %cmp, label %if.then, label %if.else, !dbg !3301

if.then:                                          ; preds = %entry
  store i32 -1, i32* %retval, align 4, !dbg !3302
  br label %return, !dbg !3302

if.else:                                          ; preds = %entry
  %2 = load i64, i64* %theRHSLength.addr, align 8, !dbg !3304
  %3 = load i64, i64* %theLHSLength.addr, align 8, !dbg !3306
  %cmp1 = icmp ult i64 %2, %3, !dbg !3307
  br i1 %cmp1, label %if.then2, label %if.else3, !dbg !3308

if.then2:                                         ; preds = %if.else
  store i32 1, i32* %retval, align 4, !dbg !3309
  br label %return, !dbg !3309

if.else3:                                         ; preds = %if.else
  call void @llvm.dbg.declare(metadata i8* %theLHSChar, metadata !3311, metadata !DIExpression()), !dbg !3313
  store i8 0, i8* %theLHSChar, align 1, !dbg !3313
  call void @llvm.dbg.declare(metadata i8* %theRHSChar, metadata !3314, metadata !DIExpression()), !dbg !3315
  store i8 0, i8* %theRHSChar, align 1, !dbg !3315
  call void @llvm.dbg.declare(metadata i64* %i, metadata !3316, metadata !DIExpression()), !dbg !3318
  store i64 0, i64* %i, align 8, !dbg !3318
  br label %for.cond, !dbg !3319

for.cond:                                         ; preds = %for.inc, %if.else3
  %4 = load i64, i64* %i, align 8, !dbg !3320
  %5 = load i64, i64* %theLHSLength.addr, align 8, !dbg !3322
  %cmp4 = icmp ult i64 %4, %5, !dbg !3323
  br i1 %cmp4, label %for.body, label %for.end, !dbg !3324

for.body:                                         ; preds = %for.cond
  %6 = load i8*, i8** %theLHS.addr, align 8, !dbg !3325
  %7 = load i64, i64* %i, align 8, !dbg !3327
  %arrayidx = getelementptr inbounds i8, i8* %6, i64 %7, !dbg !3325
  %8 = load i8, i8* %arrayidx, align 1, !dbg !3325
  %call = call signext i8 @_ZNK11xalanc_1_1017IdentityTransformIccEclEc(%"class.xalanc_1_10::IdentityTransform"* %theTransformFunction, i8 signext %8), !dbg !3328
  store i8 %call, i8* %theLHSChar, align 1, !dbg !3329
  %9 = load i8*, i8** %theRHS.addr, align 8, !dbg !3330
  %10 = load i64, i64* %i, align 8, !dbg !3331
  %arrayidx5 = getelementptr inbounds i8, i8* %9, i64 %10, !dbg !3330
  %11 = load i8, i8* %arrayidx5, align 1, !dbg !3330
  %call6 = call signext i8 @_ZNK11xalanc_1_1017IdentityTransformIccEclEc(%"class.xalanc_1_10::IdentityTransform"* %theTransformFunction, i8 signext %11), !dbg !3332
  store i8 %call6, i8* %theRHSChar, align 1, !dbg !3333
  %12 = load i8, i8* %theLHSChar, align 1, !dbg !3334
  %conv = sext i8 %12 to i32, !dbg !3334
  %13 = load i8, i8* %theRHSChar, align 1, !dbg !3336
  %conv7 = sext i8 %13 to i32, !dbg !3336
  %cmp8 = icmp ne i32 %conv, %conv7, !dbg !3337
  br i1 %cmp8, label %if.then9, label %if.end, !dbg !3338

if.then9:                                         ; preds = %for.body
  br label %for.end, !dbg !3339

if.end:                                           ; preds = %for.body
  br label %for.inc, !dbg !3341

for.inc:                                          ; preds = %if.end
  %14 = load i64, i64* %i, align 8, !dbg !3342
  %inc = add i64 %14, 1, !dbg !3342
  store i64 %inc, i64* %i, align 8, !dbg !3342
  br label %for.cond, !dbg !3343, !llvm.loop !3344

for.end:                                          ; preds = %if.then9, %for.cond
  %15 = load i8, i8* %theLHSChar, align 1, !dbg !3346
  %conv10 = sext i8 %15 to i32, !dbg !3346
  %16 = load i8, i8* %theRHSChar, align 1, !dbg !3347
  %conv11 = sext i8 %16 to i32, !dbg !3347
  %sub = sub nsw i32 %conv10, %conv11, !dbg !3348
  store i32 %sub, i32* %retval, align 4, !dbg !3349
  br label %return, !dbg !3349

return:                                           ; preds = %for.end, %if.then2, %if.then
  %17 = load i32, i32* %retval, align 4, !dbg !3350
  ret i32 %17, !dbg !3350
}

; Function Attrs: noinline uwtable
define linkonce_odr dso_local i8* @_ZN11xalanc_1_1011toCharArrayERKNS_11XalanVectorIcNS_31MemoryManagedConstructionTraitsIcEEEE(%"class.xalanc_1_10::XalanVector.0"* dereferenceable(32) %theString) #0 comdat !dbg !3351 {
entry:
  %theString.addr = alloca %"class.xalanc_1_10::XalanVector.0"*, align 8
  store %"class.xalanc_1_10::XalanVector.0"* %theString, %"class.xalanc_1_10::XalanVector.0"** %theString.addr, align 8
  call void @llvm.dbg.declare(metadata %"class.xalanc_1_10::XalanVector.0"** %theString.addr, metadata !3352, metadata !DIExpression()), !dbg !3353
  %0 = load %"class.xalanc_1_10::XalanVector.0"*, %"class.xalanc_1_10::XalanVector.0"** %theString.addr, align 8, !dbg !3354
  %call = call zeroext i1 @_ZNK11xalanc_1_1011XalanVectorIcNS_31MemoryManagedConstructionTraitsIcEEE5emptyEv(%"class.xalanc_1_10::XalanVector.0"* %0), !dbg !3355
  %conv = zext i1 %call to i32, !dbg !3354
  %cmp = icmp eq i32 %conv, 1, !dbg !3356
  br i1 %cmp, label %cond.true, label %cond.false, !dbg !3354

cond.true:                                        ; preds = %entry
  br label %cond.end, !dbg !3354

cond.false:                                       ; preds = %entry
  %1 = load %"class.xalanc_1_10::XalanVector.0"*, %"class.xalanc_1_10::XalanVector.0"** %theString.addr, align 8, !dbg !3357
  %call1 = call dereferenceable(1) i8* @_ZNK11xalanc_1_1011XalanVectorIcNS_31MemoryManagedConstructionTraitsIcEEEixEm(%"class.xalanc_1_10::XalanVector.0"* %1, i64 0), !dbg !3357
  br label %cond.end, !dbg !3354

cond.end:                                         ; preds = %cond.false, %cond.true
  %cond = phi i8* [ null, %cond.true ], [ %call1, %cond.false ], !dbg !3354
  ret i8* %cond, !dbg !3358
}

; Function Attrs: noinline uwtable
define dso_local i32 @_ZN11xalanc_1_107compareEPKtjS1_j(i16* %theLHS, i32 %theLHSLength, i16* %theRHS, i32 %theRHSLength) #0 !dbg !3359 {
entry:
  %theLHS.addr = alloca i16*, align 8
  %theLHSLength.addr = alloca i32, align 4
  %theRHS.addr = alloca i16*, align 8
  %theRHSLength.addr = alloca i32, align 4
  %agg.tmp = alloca %"class.xalanc_1_10::IdentityTransform.1", align 1
  %undef.agg.tmp = alloca %"class.xalanc_1_10::IdentityTransform.1", align 1
  store i16* %theLHS, i16** %theLHS.addr, align 8
  call void @llvm.dbg.declare(metadata i16** %theLHS.addr, metadata !3362, metadata !DIExpression()), !dbg !3363
  store i32 %theLHSLength, i32* %theLHSLength.addr, align 4
  call void @llvm.dbg.declare(metadata i32* %theLHSLength.addr, metadata !3364, metadata !DIExpression()), !dbg !3365
  store i16* %theRHS, i16** %theRHS.addr, align 8
  call void @llvm.dbg.declare(metadata i16** %theRHS.addr, metadata !3366, metadata !DIExpression()), !dbg !3367
  store i32 %theRHSLength, i32* %theRHSLength.addr, align 4
  call void @llvm.dbg.declare(metadata i32* %theRHSLength.addr, metadata !3368, metadata !DIExpression()), !dbg !3369
  %0 = load i16*, i16** %theLHS.addr, align 8, !dbg !3370
  %1 = load i32, i32* %theLHSLength.addr, align 4, !dbg !3371
  %2 = load i16*, i16** %theRHS.addr, align 8, !dbg !3372
  %3 = load i32, i32* %theRHSLength.addr, align 4, !dbg !3373
  call void @_ZN11xalanc_1_1033makeXalanDOMCharIdentityTransformEv(), !dbg !3374
  %call = call i32 @_ZN11xalanc_1_109doCompareItjNS_17IdentityTransformIttEEEEiPKT_T0_S5_S6_T1_(i16* %0, i32 %1, i16* %2, i32 %3), !dbg !3375
  ret i32 %call, !dbg !3376
}

; Function Attrs: noinline uwtable
define linkonce_odr dso_local i32 @_ZN11xalanc_1_109doCompareItjNS_17IdentityTransformIttEEEEiPKT_T0_S5_S6_T1_(i16* %theLHS, i32 %theLHSLength, i16* %theRHS, i32 %theRHSLength) #0 comdat !dbg !3377 {
entry:
  %retval = alloca i32, align 4
  %theTransformFunction = alloca %"class.xalanc_1_10::IdentityTransform.1", align 1
  %theLHS.addr = alloca i16*, align 8
  %theLHSLength.addr = alloca i32, align 4
  %theRHS.addr = alloca i16*, align 8
  %theRHSLength.addr = alloca i32, align 4
  %theLHSChar = alloca i16, align 2
  %theRHSChar = alloca i16, align 2
  %i = alloca i32, align 4
  store i16* %theLHS, i16** %theLHS.addr, align 8
  call void @llvm.dbg.declare(metadata i16** %theLHS.addr, metadata !3383, metadata !DIExpression()), !dbg !3384
  store i32 %theLHSLength, i32* %theLHSLength.addr, align 4
  call void @llvm.dbg.declare(metadata i32* %theLHSLength.addr, metadata !3385, metadata !DIExpression()), !dbg !3386
  store i16* %theRHS, i16** %theRHS.addr, align 8
  call void @llvm.dbg.declare(metadata i16** %theRHS.addr, metadata !3387, metadata !DIExpression()), !dbg !3388
  store i32 %theRHSLength, i32* %theRHSLength.addr, align 4
  call void @llvm.dbg.declare(metadata i32* %theRHSLength.addr, metadata !3389, metadata !DIExpression()), !dbg !3390
  call void @llvm.dbg.declare(metadata %"class.xalanc_1_10::IdentityTransform.1"* %theTransformFunction, metadata !3391, metadata !DIExpression()), !dbg !3392
  %0 = load i32, i32* %theLHSLength.addr, align 4, !dbg !3393
  %1 = load i32, i32* %theRHSLength.addr, align 4, !dbg !3395
  %cmp = icmp ult i32 %0, %1, !dbg !3396
  br i1 %cmp, label %if.then, label %if.else, !dbg !3397

if.then:                                          ; preds = %entry
  store i32 -1, i32* %retval, align 4, !dbg !3398
  br label %return, !dbg !3398

if.else:                                          ; preds = %entry
  %2 = load i32, i32* %theRHSLength.addr, align 4, !dbg !3400
  %3 = load i32, i32* %theLHSLength.addr, align 4, !dbg !3402
  %cmp1 = icmp ult i32 %2, %3, !dbg !3403
  br i1 %cmp1, label %if.then2, label %if.else3, !dbg !3404

if.then2:                                         ; preds = %if.else
  store i32 1, i32* %retval, align 4, !dbg !3405
  br label %return, !dbg !3405

if.else3:                                         ; preds = %if.else
  call void @llvm.dbg.declare(metadata i16* %theLHSChar, metadata !3407, metadata !DIExpression()), !dbg !3409
  store i16 0, i16* %theLHSChar, align 2, !dbg !3409
  call void @llvm.dbg.declare(metadata i16* %theRHSChar, metadata !3410, metadata !DIExpression()), !dbg !3411
  store i16 0, i16* %theRHSChar, align 2, !dbg !3411
  call void @llvm.dbg.declare(metadata i32* %i, metadata !3412, metadata !DIExpression()), !dbg !3414
  store i32 0, i32* %i, align 4, !dbg !3414
  br label %for.cond, !dbg !3415

for.cond:                                         ; preds = %for.inc, %if.else3
  %4 = load i32, i32* %i, align 4, !dbg !3416
  %5 = load i32, i32* %theLHSLength.addr, align 4, !dbg !3418
  %cmp4 = icmp ult i32 %4, %5, !dbg !3419
  br i1 %cmp4, label %for.body, label %for.end, !dbg !3420

for.body:                                         ; preds = %for.cond
  %6 = load i16*, i16** %theLHS.addr, align 8, !dbg !3421
  %7 = load i32, i32* %i, align 4, !dbg !3423
  %idxprom = zext i32 %7 to i64, !dbg !3421
  %arrayidx = getelementptr inbounds i16, i16* %6, i64 %idxprom, !dbg !3421
  %8 = load i16, i16* %arrayidx, align 2, !dbg !3421
  %call = call zeroext i16 @_ZNK11xalanc_1_1017IdentityTransformIttEclEt(%"class.xalanc_1_10::IdentityTransform.1"* %theTransformFunction, i16 zeroext %8), !dbg !3424
  store i16 %call, i16* %theLHSChar, align 2, !dbg !3425
  %9 = load i16*, i16** %theRHS.addr, align 8, !dbg !3426
  %10 = load i32, i32* %i, align 4, !dbg !3427
  %idxprom5 = zext i32 %10 to i64, !dbg !3426
  %arrayidx6 = getelementptr inbounds i16, i16* %9, i64 %idxprom5, !dbg !3426
  %11 = load i16, i16* %arrayidx6, align 2, !dbg !3426
  %call7 = call zeroext i16 @_ZNK11xalanc_1_1017IdentityTransformIttEclEt(%"class.xalanc_1_10::IdentityTransform.1"* %theTransformFunction, i16 zeroext %11), !dbg !3428
  store i16 %call7, i16* %theRHSChar, align 2, !dbg !3429
  %12 = load i16, i16* %theLHSChar, align 2, !dbg !3430
  %conv = zext i16 %12 to i32, !dbg !3430
  %13 = load i16, i16* %theRHSChar, align 2, !dbg !3432
  %conv8 = zext i16 %13 to i32, !dbg !3432
  %cmp9 = icmp ne i32 %conv, %conv8, !dbg !3433
  br i1 %cmp9, label %if.then10, label %if.end, !dbg !3434

if.then10:                                        ; preds = %for.body
  br label %for.end, !dbg !3435

if.end:                                           ; preds = %for.body
  br label %for.inc, !dbg !3437

for.inc:                                          ; preds = %if.end
  %14 = load i32, i32* %i, align 4, !dbg !3438
  %inc = add i32 %14, 1, !dbg !3438
  store i32 %inc, i32* %i, align 4, !dbg !3438
  br label %for.cond, !dbg !3439, !llvm.loop !3440

for.end:                                          ; preds = %if.then10, %for.cond
  %15 = load i16, i16* %theLHSChar, align 2, !dbg !3442
  %conv11 = zext i16 %15 to i32, !dbg !3442
  %16 = load i16, i16* %theRHSChar, align 2, !dbg !3443
  %conv12 = zext i16 %16 to i32, !dbg !3443
  %sub = sub nsw i32 %conv11, %conv12, !dbg !3444
  store i32 %sub, i32* %retval, align 4, !dbg !3445
  br label %return, !dbg !3445

return:                                           ; preds = %for.end, %if.then2, %if.then
  %17 = load i32, i32* %retval, align 4, !dbg !3446
  ret i32 %17, !dbg !3446
}

; Function Attrs: noinline uwtable
define dso_local i32 @_ZN11xalanc_1_1022compareIgnoreCaseASCIIEPKtjS1_j(i16* %theLHS, i32 %theLHSLength, i16* %theRHS, i32 %theRHSLength) #0 !dbg !3447 {
entry:
  %theLHS.addr = alloca i16*, align 8
  %theLHSLength.addr = alloca i32, align 4
  %theRHS.addr = alloca i16*, align 8
  %theRHSLength.addr = alloca i32, align 4
  store i16* %theLHS, i16** %theLHS.addr, align 8
  call void @llvm.dbg.declare(metadata i16** %theLHS.addr, metadata !3448, metadata !DIExpression()), !dbg !3449
  store i32 %theLHSLength, i32* %theLHSLength.addr, align 4
  call void @llvm.dbg.declare(metadata i32* %theLHSLength.addr, metadata !3450, metadata !DIExpression()), !dbg !3451
  store i16* %theRHS, i16** %theRHS.addr, align 8
  call void @llvm.dbg.declare(metadata i16** %theRHS.addr, metadata !3452, metadata !DIExpression()), !dbg !3453
  store i32 %theRHSLength, i32* %theRHSLength.addr, align 4
  call void @llvm.dbg.declare(metadata i32* %theRHSLength.addr, metadata !3454, metadata !DIExpression()), !dbg !3455
  %0 = load i16*, i16** %theLHS.addr, align 8, !dbg !3456
  %1 = load i32, i32* %theLHSLength.addr, align 4, !dbg !3457
  %2 = load i16*, i16** %theRHS.addr, align 8, !dbg !3458
  %3 = load i32, i32* %theRHSLength.addr, align 4, !dbg !3459
  %call = call i32 @_ZN11xalanc_1_109doCompareItjPFttEEEiPKT_T0_S5_S6_T1_(i16* %0, i32 %1, i16* %2, i32 %3, i16 (i16)* @_ZN11xalanc_1_1012toUpperASCIIEt), !dbg !3460
  ret i32 %call, !dbg !3461
}

; Function Attrs: noinline uwtable
define linkonce_odr dso_local i32 @_ZN11xalanc_1_109doCompareItjPFttEEEiPKT_T0_S5_S6_T1_(i16* %theLHS, i32 %theLHSLength, i16* %theRHS, i32 %theRHSLength, i16 (i16)* %theTransformFunction) #0 comdat !dbg !3462 {
entry:
  %retval = alloca i32, align 4
  %theLHS.addr = alloca i16*, align 8
  %theLHSLength.addr = alloca i32, align 4
  %theRHS.addr = alloca i16*, align 8
  %theRHSLength.addr = alloca i32, align 4
  %theTransformFunction.addr = alloca i16 (i16)*, align 8
  %theLHSChar = alloca i16, align 2
  %theRHSChar = alloca i16, align 2
  %i = alloca i32, align 4
  store i16* %theLHS, i16** %theLHS.addr, align 8
  call void @llvm.dbg.declare(metadata i16** %theLHS.addr, metadata !3466, metadata !DIExpression()), !dbg !3467
  store i32 %theLHSLength, i32* %theLHSLength.addr, align 4
  call void @llvm.dbg.declare(metadata i32* %theLHSLength.addr, metadata !3468, metadata !DIExpression()), !dbg !3469
  store i16* %theRHS, i16** %theRHS.addr, align 8
  call void @llvm.dbg.declare(metadata i16** %theRHS.addr, metadata !3470, metadata !DIExpression()), !dbg !3471
  store i32 %theRHSLength, i32* %theRHSLength.addr, align 4
  call void @llvm.dbg.declare(metadata i32* %theRHSLength.addr, metadata !3472, metadata !DIExpression()), !dbg !3473
  store i16 (i16)* %theTransformFunction, i16 (i16)** %theTransformFunction.addr, align 8
  call void @llvm.dbg.declare(metadata i16 (i16)** %theTransformFunction.addr, metadata !3474, metadata !DIExpression()), !dbg !3475
  %0 = load i32, i32* %theLHSLength.addr, align 4, !dbg !3476
  %1 = load i32, i32* %theRHSLength.addr, align 4, !dbg !3478
  %cmp = icmp ult i32 %0, %1, !dbg !3479
  br i1 %cmp, label %if.then, label %if.else, !dbg !3480

if.then:                                          ; preds = %entry
  store i32 -1, i32* %retval, align 4, !dbg !3481
  br label %return, !dbg !3481

if.else:                                          ; preds = %entry
  %2 = load i32, i32* %theRHSLength.addr, align 4, !dbg !3483
  %3 = load i32, i32* %theLHSLength.addr, align 4, !dbg !3485
  %cmp1 = icmp ult i32 %2, %3, !dbg !3486
  br i1 %cmp1, label %if.then2, label %if.else3, !dbg !3487

if.then2:                                         ; preds = %if.else
  store i32 1, i32* %retval, align 4, !dbg !3488
  br label %return, !dbg !3488

if.else3:                                         ; preds = %if.else
  call void @llvm.dbg.declare(metadata i16* %theLHSChar, metadata !3490, metadata !DIExpression()), !dbg !3492
  store i16 0, i16* %theLHSChar, align 2, !dbg !3492
  call void @llvm.dbg.declare(metadata i16* %theRHSChar, metadata !3493, metadata !DIExpression()), !dbg !3494
  store i16 0, i16* %theRHSChar, align 2, !dbg !3494
  call void @llvm.dbg.declare(metadata i32* %i, metadata !3495, metadata !DIExpression()), !dbg !3497
  store i32 0, i32* %i, align 4, !dbg !3497
  br label %for.cond, !dbg !3498

for.cond:                                         ; preds = %for.inc, %if.else3
  %4 = load i32, i32* %i, align 4, !dbg !3499
  %5 = load i32, i32* %theLHSLength.addr, align 4, !dbg !3501
  %cmp4 = icmp ult i32 %4, %5, !dbg !3502
  br i1 %cmp4, label %for.body, label %for.end, !dbg !3503

for.body:                                         ; preds = %for.cond
  %6 = load i16 (i16)*, i16 (i16)** %theTransformFunction.addr, align 8, !dbg !3504
  %7 = load i16*, i16** %theLHS.addr, align 8, !dbg !3506
  %8 = load i32, i32* %i, align 4, !dbg !3507
  %idxprom = zext i32 %8 to i64, !dbg !3506
  %arrayidx = getelementptr inbounds i16, i16* %7, i64 %idxprom, !dbg !3506
  %9 = load i16, i16* %arrayidx, align 2, !dbg !3506
  %call = call zeroext i16 %6(i16 zeroext %9), !dbg !3504
  store i16 %call, i16* %theLHSChar, align 2, !dbg !3508
  %10 = load i16 (i16)*, i16 (i16)** %theTransformFunction.addr, align 8, !dbg !3509
  %11 = load i16*, i16** %theRHS.addr, align 8, !dbg !3510
  %12 = load i32, i32* %i, align 4, !dbg !3511
  %idxprom5 = zext i32 %12 to i64, !dbg !3510
  %arrayidx6 = getelementptr inbounds i16, i16* %11, i64 %idxprom5, !dbg !3510
  %13 = load i16, i16* %arrayidx6, align 2, !dbg !3510
  %call7 = call zeroext i16 %10(i16 zeroext %13), !dbg !3509
  store i16 %call7, i16* %theRHSChar, align 2, !dbg !3512
  %14 = load i16, i16* %theLHSChar, align 2, !dbg !3513
  %conv = zext i16 %14 to i32, !dbg !3513
  %15 = load i16, i16* %theRHSChar, align 2, !dbg !3515
  %conv8 = zext i16 %15 to i32, !dbg !3515
  %cmp9 = icmp ne i32 %conv, %conv8, !dbg !3516
  br i1 %cmp9, label %if.then10, label %if.end, !dbg !3517

if.then10:                                        ; preds = %for.body
  br label %for.end, !dbg !3518

if.end:                                           ; preds = %for.body
  br label %for.inc, !dbg !3520

for.inc:                                          ; preds = %if.end
  %16 = load i32, i32* %i, align 4, !dbg !3521
  %inc = add i32 %16, 1, !dbg !3521
  store i32 %inc, i32* %i, align 4, !dbg !3521
  br label %for.cond, !dbg !3522, !llvm.loop !3523

for.end:                                          ; preds = %if.then10, %for.cond
  %17 = load i16, i16* %theLHSChar, align 2, !dbg !3525
  %conv11 = zext i16 %17 to i32, !dbg !3525
  %18 = load i16, i16* %theRHSChar, align 2, !dbg !3526
  %conv12 = zext i16 %18 to i32, !dbg !3526
  %sub = sub nsw i32 %conv11, %conv12, !dbg !3527
  store i32 %sub, i32* %retval, align 4, !dbg !3528
  br label %return, !dbg !3528

return:                                           ; preds = %for.end, %if.then2, %if.then
  %19 = load i32, i32* %retval, align 4, !dbg !3529
  ret i32 %19, !dbg !3529
}

; Function Attrs: noinline uwtable
define dso_local i32 @_ZN11xalanc_1_1016collationCompareEPKtjS1_j(i16* %theLHS, i32 %theLHSLength, i16* %theRHS, i32 %theRHSLength) #0 !dbg !3530 {
entry:
  %theLHS.addr = alloca i16*, align 8
  %theLHSLength.addr = alloca i32, align 4
  %theRHS.addr = alloca i16*, align 8
  %theRHSLength.addr = alloca i32, align 4
  %agg.tmp = alloca %"class.xalanc_1_10::IdentityTransform.1", align 1
  %undef.agg.tmp = alloca %"class.xalanc_1_10::IdentityTransform.1", align 1
  store i16* %theLHS, i16** %theLHS.addr, align 8
  call void @llvm.dbg.declare(metadata i16** %theLHS.addr, metadata !3531, metadata !DIExpression()), !dbg !3532
  store i32 %theLHSLength, i32* %theLHSLength.addr, align 4
  call void @llvm.dbg.declare(metadata i32* %theLHSLength.addr, metadata !3533, metadata !DIExpression()), !dbg !3534
  store i16* %theRHS, i16** %theRHS.addr, align 8
  call void @llvm.dbg.declare(metadata i16** %theRHS.addr, metadata !3535, metadata !DIExpression()), !dbg !3536
  store i32 %theRHSLength, i32* %theRHSLength.addr, align 4
  call void @llvm.dbg.declare(metadata i32* %theRHSLength.addr, metadata !3537, metadata !DIExpression()), !dbg !3538
  %0 = load i16*, i16** %theLHS.addr, align 8, !dbg !3539
  %1 = load i32, i32* %theLHSLength.addr, align 4, !dbg !3540
  %2 = load i16*, i16** %theRHS.addr, align 8, !dbg !3541
  %3 = load i32, i32* %theRHSLength.addr, align 4, !dbg !3542
  call void @_ZN11xalanc_1_1033makeXalanDOMCharIdentityTransformEv(), !dbg !3543
  %call = call i32 @_ZN11xalanc_1_1018doCollationCompareItjNS_17IdentityTransformIttEEEEiPKT_T0_S5_S6_T1_(i16* %0, i32 %1, i16* %2, i32 %3), !dbg !3544
  ret i32 %call, !dbg !3545
}

; Function Attrs: noinline nounwind uwtable
define linkonce_odr dso_local i32 @_ZN11xalanc_1_1018doCollationCompareItjNS_17IdentityTransformIttEEEEiPKT_T0_S5_S6_T1_(i16* %theLHS, i32 %theLHSLength, i16* %theRHS, i32 %theRHSLength) #5 comdat !dbg !3546 {
entry:
  %theTransformFunction = alloca %"class.xalanc_1_10::IdentityTransform.1", align 1
  %theLHS.addr = alloca i16*, align 8
  %theLHSLength.addr = alloca i32, align 4
  %theRHS.addr = alloca i16*, align 8
  %theRHSLength.addr = alloca i32, align 4
  %theResult = alloca i32, align 4
  %theLHSChar = alloca i16, align 2
  %theRHSChar = alloca i16, align 2
  %i = alloca i32, align 4
  store i16* %theLHS, i16** %theLHS.addr, align 8
  call void @llvm.dbg.declare(metadata i16** %theLHS.addr, metadata !3547, metadata !DIExpression()), !dbg !3548
  store i32 %theLHSLength, i32* %theLHSLength.addr, align 4
  call void @llvm.dbg.declare(metadata i32* %theLHSLength.addr, metadata !3549, metadata !DIExpression()), !dbg !3550
  store i16* %theRHS, i16** %theRHS.addr, align 8
  call void @llvm.dbg.declare(metadata i16** %theRHS.addr, metadata !3551, metadata !DIExpression()), !dbg !3552
  store i32 %theRHSLength, i32* %theRHSLength.addr, align 4
  call void @llvm.dbg.declare(metadata i32* %theRHSLength.addr, metadata !3553, metadata !DIExpression()), !dbg !3554
  call void @llvm.dbg.declare(metadata %"class.xalanc_1_10::IdentityTransform.1"* %theTransformFunction, metadata !3555, metadata !DIExpression()), !dbg !3556
  call void @llvm.dbg.declare(metadata i32* %theResult, metadata !3557, metadata !DIExpression()), !dbg !3558
  store i32 0, i32* %theResult, align 4, !dbg !3558
  %0 = load i32, i32* %theLHSLength.addr, align 4, !dbg !3559
  %cmp = icmp ne i32 %0, 0, !dbg !3561
  br i1 %cmp, label %if.then, label %lor.lhs.false, !dbg !3562

lor.lhs.false:                                    ; preds = %entry
  %1 = load i32, i32* %theRHSLength.addr, align 4, !dbg !3563
  %cmp1 = icmp ne i32 %1, 0, !dbg !3564
  br i1 %cmp1, label %if.then, label %if.end25, !dbg !3565

if.then:                                          ; preds = %lor.lhs.false, %entry
  call void @llvm.dbg.declare(metadata i16* %theLHSChar, metadata !3566, metadata !DIExpression()), !dbg !3568
  store i16 0, i16* %theLHSChar, align 2, !dbg !3568
  call void @llvm.dbg.declare(metadata i16* %theRHSChar, metadata !3569, metadata !DIExpression()), !dbg !3570
  store i16 0, i16* %theRHSChar, align 2, !dbg !3570
  call void @llvm.dbg.declare(metadata i32* %i, metadata !3571, metadata !DIExpression()), !dbg !3572
  store i32 0, i32* %i, align 4, !dbg !3572
  br label %for.cond, !dbg !3573

for.cond:                                         ; preds = %for.inc, %if.then
  %2 = load i32, i32* %i, align 4, !dbg !3574
  %3 = load i32, i32* %theLHSLength.addr, align 4, !dbg !3577
  %cmp2 = icmp ult i32 %2, %3, !dbg !3578
  br i1 %cmp2, label %land.rhs, label %land.end, !dbg !3579

land.rhs:                                         ; preds = %for.cond
  %4 = load i32, i32* %i, align 4, !dbg !3580
  %5 = load i32, i32* %theRHSLength.addr, align 4, !dbg !3581
  %cmp3 = icmp ult i32 %4, %5, !dbg !3582
  br label %land.end

land.end:                                         ; preds = %land.rhs, %for.cond
  %6 = phi i1 [ false, %for.cond ], [ %cmp3, %land.rhs ], !dbg !3583
  br i1 %6, label %for.body, label %for.end, !dbg !3584

for.body:                                         ; preds = %land.end
  %7 = load i16*, i16** %theLHS.addr, align 8, !dbg !3585
  %8 = load i32, i32* %i, align 4, !dbg !3587
  %idxprom = zext i32 %8 to i64, !dbg !3585
  %arrayidx = getelementptr inbounds i16, i16* %7, i64 %idxprom, !dbg !3585
  %9 = load i16, i16* %arrayidx, align 2, !dbg !3585
  %call = call zeroext i16 @_ZNK11xalanc_1_1017IdentityTransformIttEclEt(%"class.xalanc_1_10::IdentityTransform.1"* %theTransformFunction, i16 zeroext %9), !dbg !3588
  store i16 %call, i16* %theLHSChar, align 2, !dbg !3589
  %10 = load i16*, i16** %theRHS.addr, align 8, !dbg !3590
  %11 = load i32, i32* %i, align 4, !dbg !3591
  %idxprom4 = zext i32 %11 to i64, !dbg !3590
  %arrayidx5 = getelementptr inbounds i16, i16* %10, i64 %idxprom4, !dbg !3590
  %12 = load i16, i16* %arrayidx5, align 2, !dbg !3590
  %call6 = call zeroext i16 @_ZNK11xalanc_1_1017IdentityTransformIttEclEt(%"class.xalanc_1_10::IdentityTransform.1"* %theTransformFunction, i16 zeroext %12), !dbg !3592
  store i16 %call6, i16* %theRHSChar, align 2, !dbg !3593
  %13 = load i16, i16* %theLHSChar, align 2, !dbg !3594
  %conv = zext i16 %13 to i32, !dbg !3594
  %14 = load i16, i16* %theRHSChar, align 2, !dbg !3596
  %conv7 = zext i16 %14 to i32, !dbg !3596
  %cmp8 = icmp ne i32 %conv, %conv7, !dbg !3597
  br i1 %cmp8, label %if.then9, label %if.end, !dbg !3598

if.then9:                                         ; preds = %for.body
  br label %for.end, !dbg !3599

if.end:                                           ; preds = %for.body
  br label %for.inc, !dbg !3601

for.inc:                                          ; preds = %if.end
  %15 = load i32, i32* %i, align 4, !dbg !3602
  %inc = add i32 %15, 1, !dbg !3602
  store i32 %inc, i32* %i, align 4, !dbg !3602
  br label %for.cond, !dbg !3603, !llvm.loop !3604

for.end:                                          ; preds = %if.then9, %land.end
  %16 = load i32, i32* %i, align 4, !dbg !3606
  %17 = load i32, i32* %theLHSLength.addr, align 4, !dbg !3608
  %cmp10 = icmp eq i32 %16, %17, !dbg !3609
  br i1 %cmp10, label %if.then11, label %if.else, !dbg !3610

if.then11:                                        ; preds = %for.end
  %18 = load i32, i32* %i, align 4, !dbg !3611
  %19 = load i32, i32* %theRHSLength.addr, align 4, !dbg !3614
  %cmp12 = icmp ne i32 %18, %19, !dbg !3615
  br i1 %cmp12, label %if.then13, label %if.end14, !dbg !3616

if.then13:                                        ; preds = %if.then11
  store i32 -1, i32* %theResult, align 4, !dbg !3617
  br label %if.end14, !dbg !3619

if.end14:                                         ; preds = %if.then13, %if.then11
  br label %if.end24, !dbg !3620

if.else:                                          ; preds = %for.end
  %20 = load i32, i32* %i, align 4, !dbg !3621
  %21 = load i32, i32* %theRHSLength.addr, align 4, !dbg !3623
  %cmp15 = icmp eq i32 %20, %21, !dbg !3624
  br i1 %cmp15, label %if.then16, label %if.else20, !dbg !3625

if.then16:                                        ; preds = %if.else
  %22 = load i32, i32* %i, align 4, !dbg !3626
  %23 = load i32, i32* %theLHSLength.addr, align 4, !dbg !3629
  %cmp17 = icmp ne i32 %22, %23, !dbg !3630
  br i1 %cmp17, label %if.then18, label %if.end19, !dbg !3631

if.then18:                                        ; preds = %if.then16
  store i32 1, i32* %theResult, align 4, !dbg !3632
  br label %if.end19, !dbg !3634

if.end19:                                         ; preds = %if.then18, %if.then16
  br label %if.end23, !dbg !3635

if.else20:                                        ; preds = %if.else
  %24 = load i16, i16* %theLHSChar, align 2, !dbg !3636
  %conv21 = zext i16 %24 to i32, !dbg !3636
  %25 = load i16, i16* %theRHSChar, align 2, !dbg !3638
  %conv22 = zext i16 %25 to i32, !dbg !3638
  %sub = sub nsw i32 %conv21, %conv22, !dbg !3639
  store i32 %sub, i32* %theResult, align 4, !dbg !3640
  br label %if.end23

if.end23:                                         ; preds = %if.else20, %if.end19
  br label %if.end24

if.end24:                                         ; preds = %if.end23, %if.end14
  br label %if.end25, !dbg !3641

if.end25:                                         ; preds = %if.end24, %lor.lhs.false
  %26 = load i32, i32* %theResult, align 4, !dbg !3642
  ret i32 %26, !dbg !3643
}

; Function Attrs: noinline uwtable
define dso_local zeroext i1 @_ZN11xalanc_1_106equalsEPKtS1_j(i16* %theLHS, i16* %theRHS, i32 %theLength) #0 !dbg !3644 {
entry:
  %theLHS.addr = alloca i16*, align 8
  %theRHS.addr = alloca i16*, align 8
  %theLength.addr = alloca i32, align 4
  %agg.tmp = alloca %"class.xalanc_1_10::IdentityTransform.1", align 1
  %undef.agg.tmp = alloca %"class.xalanc_1_10::IdentityTransform.1", align 1
  store i16* %theLHS, i16** %theLHS.addr, align 8
  call void @llvm.dbg.declare(metadata i16** %theLHS.addr, metadata !3647, metadata !DIExpression()), !dbg !3648
  store i16* %theRHS, i16** %theRHS.addr, align 8
  call void @llvm.dbg.declare(metadata i16** %theRHS.addr, metadata !3649, metadata !DIExpression()), !dbg !3650
  store i32 %theLength, i32* %theLength.addr, align 4
  call void @llvm.dbg.declare(metadata i32* %theLength.addr, metadata !3651, metadata !DIExpression()), !dbg !3652
  %0 = load i16*, i16** %theLHS.addr, align 8, !dbg !3653
  %1 = load i16*, i16** %theRHS.addr, align 8, !dbg !3654
  %2 = load i32, i32* %theLength.addr, align 4, !dbg !3655
  call void @_ZN11xalanc_1_1033makeXalanDOMCharIdentityTransformEv(), !dbg !3656
  %call = call zeroext i1 @_ZN11xalanc_1_108doEqualsItjNS_17IdentityTransformIttEEEEbPKT_S5_T0_T1_(i16* %0, i16* %1, i32 %2), !dbg !3657
  ret i1 %call, !dbg !3658
}

; Function Attrs: noinline nounwind uwtable
define linkonce_odr dso_local zeroext i1 @_ZN11xalanc_1_108doEqualsItjNS_17IdentityTransformIttEEEEbPKT_S5_T0_T1_(i16* %theLHS, i16* %theRHS, i32 %theLength) #5 comdat !dbg !3659 {
entry:
  %retval = alloca i1, align 1
  %theTransformFunction = alloca %"class.xalanc_1_10::IdentityTransform.1", align 1
  %theLHS.addr = alloca i16*, align 8
  %theRHS.addr = alloca i16*, align 8
  %theLength.addr = alloca i32, align 4
  %theEnd = alloca i16*, align 8
  store i16* %theLHS, i16** %theLHS.addr, align 8
  call void @llvm.dbg.declare(metadata i16** %theLHS.addr, metadata !3662, metadata !DIExpression()), !dbg !3663
  store i16* %theRHS, i16** %theRHS.addr, align 8
  call void @llvm.dbg.declare(metadata i16** %theRHS.addr, metadata !3664, metadata !DIExpression()), !dbg !3665
  store i32 %theLength, i32* %theLength.addr, align 4
  call void @llvm.dbg.declare(metadata i32* %theLength.addr, metadata !3666, metadata !DIExpression()), !dbg !3667
  call void @llvm.dbg.declare(metadata %"class.xalanc_1_10::IdentityTransform.1"* %theTransformFunction, metadata !3668, metadata !DIExpression()), !dbg !3669
  %0 = load i32, i32* %theLength.addr, align 4, !dbg !3670
  %cmp = icmp eq i32 %0, 0, !dbg !3672
  br i1 %cmp, label %if.then, label %if.else, !dbg !3673

if.then:                                          ; preds = %entry
  store i1 true, i1* %retval, align 1, !dbg !3674
  br label %return, !dbg !3674

if.else:                                          ; preds = %entry
  call void @llvm.dbg.declare(metadata i16** %theEnd, metadata !3676, metadata !DIExpression()), !dbg !3679
  %1 = load i16*, i16** %theLHS.addr, align 8, !dbg !3680
  %2 = load i32, i32* %theLength.addr, align 4, !dbg !3681
  %idx.ext = zext i32 %2 to i64, !dbg !3682
  %add.ptr = getelementptr inbounds i16, i16* %1, i64 %idx.ext, !dbg !3682
  store i16* %add.ptr, i16** %theEnd, align 8, !dbg !3679
  br label %while.cond, !dbg !3683

while.cond:                                       ; preds = %if.end, %if.else
  %3 = load i16*, i16** %theLHS.addr, align 8, !dbg !3684
  %4 = load i16, i16* %3, align 2, !dbg !3685
  %call = call zeroext i16 @_ZNK11xalanc_1_1017IdentityTransformIttEclEt(%"class.xalanc_1_10::IdentityTransform.1"* %theTransformFunction, i16 zeroext %4), !dbg !3686
  %conv = zext i16 %call to i32, !dbg !3686
  %5 = load i16*, i16** %theRHS.addr, align 8, !dbg !3687
  %6 = load i16, i16* %5, align 2, !dbg !3688
  %call1 = call zeroext i16 @_ZNK11xalanc_1_1017IdentityTransformIttEclEt(%"class.xalanc_1_10::IdentityTransform.1"* %theTransformFunction, i16 zeroext %6), !dbg !3689
  %conv2 = zext i16 %call1 to i32, !dbg !3689
  %cmp3 = icmp eq i32 %conv, %conv2, !dbg !3690
  br i1 %cmp3, label %while.body, label %while.end, !dbg !3683

while.body:                                       ; preds = %while.cond
  %7 = load i16*, i16** %theLHS.addr, align 8, !dbg !3691
  %incdec.ptr = getelementptr inbounds i16, i16* %7, i32 1, !dbg !3691
  store i16* %incdec.ptr, i16** %theLHS.addr, align 8, !dbg !3691
  %8 = load i16*, i16** %theLHS.addr, align 8, !dbg !3693
  %9 = load i16*, i16** %theEnd, align 8, !dbg !3695
  %cmp4 = icmp eq i16* %8, %9, !dbg !3696
  br i1 %cmp4, label %if.then5, label %if.else6, !dbg !3697

if.then5:                                         ; preds = %while.body
  store i1 true, i1* %retval, align 1, !dbg !3698
  br label %return, !dbg !3698

if.else6:                                         ; preds = %while.body
  %10 = load i16*, i16** %theRHS.addr, align 8, !dbg !3700
  %incdec.ptr7 = getelementptr inbounds i16, i16* %10, i32 1, !dbg !3700
  store i16* %incdec.ptr7, i16** %theRHS.addr, align 8, !dbg !3700
  br label %if.end

if.end:                                           ; preds = %if.else6
  br label %while.cond, !dbg !3683, !llvm.loop !3702

while.end:                                        ; preds = %while.cond
  store i1 false, i1* %retval, align 1, !dbg !3704
  br label %return, !dbg !3704

return:                                           ; preds = %while.end, %if.then5, %if.then
  %11 = load i1, i1* %retval, align 1, !dbg !3705
  ret i1 %11, !dbg !3705
}

; Function Attrs: noinline uwtable
define dso_local zeroext i1 @_ZN11xalanc_1_1021equalsIgnoreCaseASCIIEPKtS1_j(i16* %theLHS, i16* %theRHS, i32 %theLength) #0 !dbg !3706 {
entry:
  %theLHS.addr = alloca i16*, align 8
  %theRHS.addr = alloca i16*, align 8
  %theLength.addr = alloca i32, align 4
  store i16* %theLHS, i16** %theLHS.addr, align 8
  call void @llvm.dbg.declare(metadata i16** %theLHS.addr, metadata !3707, metadata !DIExpression()), !dbg !3708
  store i16* %theRHS, i16** %theRHS.addr, align 8
  call void @llvm.dbg.declare(metadata i16** %theRHS.addr, metadata !3709, metadata !DIExpression()), !dbg !3710
  store i32 %theLength, i32* %theLength.addr, align 4
  call void @llvm.dbg.declare(metadata i32* %theLength.addr, metadata !3711, metadata !DIExpression()), !dbg !3712
  %0 = load i16*, i16** %theLHS.addr, align 8, !dbg !3713
  %1 = load i16*, i16** %theRHS.addr, align 8, !dbg !3714
  %2 = load i32, i32* %theLength.addr, align 4, !dbg !3715
  %call = call zeroext i1 @_ZN11xalanc_1_1018doEqualsIgnoreCaseItjPFttEEEbPKT_S5_T0_T1_(i16* %0, i16* %1, i32 %2, i16 (i16)* @_ZN11xalanc_1_1012toUpperASCIIEt), !dbg !3716
  ret i1 %call, !dbg !3717
}

; Function Attrs: noinline uwtable
define linkonce_odr dso_local zeroext i1 @_ZN11xalanc_1_1018doEqualsIgnoreCaseItjPFttEEEbPKT_S5_T0_T1_(i16* %theLHS, i16* %theRHS, i32 %theLength, i16 (i16)* %theToUpperFunction) #0 comdat !dbg !3718 {
entry:
  %retval = alloca i1, align 1
  %theLHS.addr = alloca i16*, align 8
  %theRHS.addr = alloca i16*, align 8
  %theLength.addr = alloca i32, align 4
  %theToUpperFunction.addr = alloca i16 (i16)*, align 8
  %i = alloca i32, align 4
  %charLHS = alloca i16, align 2
  %charRHS = alloca i16, align 2
  store i16* %theLHS, i16** %theLHS.addr, align 8
  call void @llvm.dbg.declare(metadata i16** %theLHS.addr, metadata !3721, metadata !DIExpression()), !dbg !3722
  store i16* %theRHS, i16** %theRHS.addr, align 8
  call void @llvm.dbg.declare(metadata i16** %theRHS.addr, metadata !3723, metadata !DIExpression()), !dbg !3724
  store i32 %theLength, i32* %theLength.addr, align 4
  call void @llvm.dbg.declare(metadata i32* %theLength.addr, metadata !3725, metadata !DIExpression()), !dbg !3726
  store i16 (i16)* %theToUpperFunction, i16 (i16)** %theToUpperFunction.addr, align 8
  call void @llvm.dbg.declare(metadata i16 (i16)** %theToUpperFunction.addr, metadata !3727, metadata !DIExpression()), !dbg !3728
  call void @llvm.dbg.declare(metadata i32* %i, metadata !3729, metadata !DIExpression()), !dbg !3731
  store i32 0, i32* %i, align 4, !dbg !3731
  br label %for.cond, !dbg !3732

for.cond:                                         ; preds = %for.inc, %entry
  %0 = load i32, i32* %i, align 4, !dbg !3733
  %1 = load i32, i32* %theLength.addr, align 4, !dbg !3735
  %cmp = icmp ult i32 %0, %1, !dbg !3736
  br i1 %cmp, label %for.body, label %for.end, !dbg !3737

for.body:                                         ; preds = %for.cond
  call void @llvm.dbg.declare(metadata i16* %charLHS, metadata !3738, metadata !DIExpression()), !dbg !3740
  %2 = load i16*, i16** %theLHS.addr, align 8, !dbg !3741
  %3 = load i32, i32* %i, align 4, !dbg !3742
  %idxprom = zext i32 %3 to i64, !dbg !3741
  %arrayidx = getelementptr inbounds i16, i16* %2, i64 %idxprom, !dbg !3741
  %4 = load i16, i16* %arrayidx, align 2, !dbg !3741
  store i16 %4, i16* %charLHS, align 2, !dbg !3740
  call void @llvm.dbg.declare(metadata i16* %charRHS, metadata !3743, metadata !DIExpression()), !dbg !3744
  %5 = load i16*, i16** %theRHS.addr, align 8, !dbg !3745
  %6 = load i32, i32* %i, align 4, !dbg !3746
  %idxprom1 = zext i32 %6 to i64, !dbg !3745
  %arrayidx2 = getelementptr inbounds i16, i16* %5, i64 %idxprom1, !dbg !3745
  %7 = load i16, i16* %arrayidx2, align 2, !dbg !3745
  store i16 %7, i16* %charRHS, align 2, !dbg !3744
  %8 = load i16, i16* %charLHS, align 2, !dbg !3747
  %conv = zext i16 %8 to i32, !dbg !3747
  %9 = load i16, i16* %charRHS, align 2, !dbg !3749
  %conv3 = zext i16 %9 to i32, !dbg !3749
  %cmp4 = icmp ne i32 %conv, %conv3, !dbg !3750
  br i1 %cmp4, label %land.lhs.true, label %if.end, !dbg !3751

land.lhs.true:                                    ; preds = %for.body
  %10 = load i16 (i16)*, i16 (i16)** %theToUpperFunction.addr, align 8, !dbg !3752
  %11 = load i16, i16* %charLHS, align 2, !dbg !3753
  %call = call zeroext i16 %10(i16 zeroext %11), !dbg !3752
  %conv5 = zext i16 %call to i32, !dbg !3754
  %12 = load i16, i16* %charRHS, align 2, !dbg !3755
  %conv6 = zext i16 %12 to i32, !dbg !3755
  %cmp7 = icmp ne i32 %conv5, %conv6, !dbg !3756
  br i1 %cmp7, label %land.lhs.true8, label %if.end, !dbg !3757

land.lhs.true8:                                   ; preds = %land.lhs.true
  %13 = load i16, i16* %charLHS, align 2, !dbg !3758
  %conv9 = zext i16 %13 to i32, !dbg !3758
  %14 = load i16 (i16)*, i16 (i16)** %theToUpperFunction.addr, align 8, !dbg !3759
  %15 = load i16, i16* %charRHS, align 2, !dbg !3760
  %call10 = call zeroext i16 %14(i16 zeroext %15), !dbg !3759
  %conv11 = zext i16 %call10 to i32, !dbg !3761
  %cmp12 = icmp ne i32 %conv9, %conv11, !dbg !3762
  br i1 %cmp12, label %if.then, label %if.end, !dbg !3763

if.then:                                          ; preds = %land.lhs.true8
  store i1 false, i1* %retval, align 1, !dbg !3764
  br label %return, !dbg !3764

if.end:                                           ; preds = %land.lhs.true8, %land.lhs.true, %for.body
  br label %for.inc, !dbg !3766

for.inc:                                          ; preds = %if.end
  %16 = load i32, i32* %i, align 4, !dbg !3767
  %inc = add i32 %16, 1, !dbg !3767
  store i32 %inc, i32* %i, align 4, !dbg !3767
  br label %for.cond, !dbg !3768, !llvm.loop !3769

for.end:                                          ; preds = %for.cond
  store i1 true, i1* %retval, align 1, !dbg !3771
  br label %return, !dbg !3771

return:                                           ; preds = %for.end, %if.then
  %17 = load i1, i1* %retval, align 1, !dbg !3772
  ret i1 %17, !dbg !3772
}

; Function Attrs: noinline uwtable
define dso_local dereferenceable(32) %"class.xalanc_1_10::XalanVector"* @_ZN11xalanc_1_1022MakeXalanDOMCharVectorEPKcRNS_11XalanVectorItNS_31MemoryManagedConstructionTraitsItEEEEb(i8* %data, %"class.xalanc_1_10::XalanVector"* dereferenceable(32) %theResult, i1 zeroext %fTranscode) #0 !dbg !3773 {
entry:
  %data.addr = alloca i8*, align 8
  %theResult.addr = alloca %"class.xalanc_1_10::XalanVector"*, align 8
  %fTranscode.addr = alloca i8, align 1
  %theLength = alloca i32, align 4
  %agg.tmp = alloca %"class.std::back_insert_iterator", align 8
  %coerce = alloca %"class.std::back_insert_iterator", align 8
  store i8* %data, i8** %data.addr, align 8
  call void @llvm.dbg.declare(metadata i8** %data.addr, metadata !3778, metadata !DIExpression()), !dbg !3779
  store %"class.xalanc_1_10::XalanVector"* %theResult, %"class.xalanc_1_10::XalanVector"** %theResult.addr, align 8
  call void @llvm.dbg.declare(metadata %"class.xalanc_1_10::XalanVector"** %theResult.addr, metadata !3780, metadata !DIExpression()), !dbg !3781
  %frombool = zext i1 %fTranscode to i8
  store i8 %frombool, i8* %fTranscode.addr, align 1
  call void @llvm.dbg.declare(metadata i8* %fTranscode.addr, metadata !3782, metadata !DIExpression()), !dbg !3783
  %0 = load i8, i8* %fTranscode.addr, align 1, !dbg !3784
  %tobool = trunc i8 %0 to i1, !dbg !3784
  %conv = zext i1 %tobool to i32, !dbg !3784
  %cmp = icmp eq i32 %conv, 1, !dbg !3786
  br i1 %cmp, label %if.then, label %if.else, !dbg !3787

if.then:                                          ; preds = %entry
  %1 = load i8*, i8** %data.addr, align 8, !dbg !3788
  %2 = load %"class.xalanc_1_10::XalanVector"*, %"class.xalanc_1_10::XalanVector"** %theResult.addr, align 8, !dbg !3790
  %call = call zeroext i1 @_ZN11xalanc_1_1026TranscodeFromLocalCodePageEPKcRNS_11XalanVectorItNS_31MemoryManagedConstructionTraitsItEEEEb(i8* %1, %"class.xalanc_1_10::XalanVector"* dereferenceable(32) %2, i1 zeroext true), !dbg !3791
  br label %if.end, !dbg !3792

if.else:                                          ; preds = %entry
  call void @llvm.dbg.declare(metadata i32* %theLength, metadata !3793, metadata !DIExpression()), !dbg !3795
  %3 = load i8*, i8** %data.addr, align 8, !dbg !3796
  %call1 = call i32 @_ZN11xalanc_1_1014XalanDOMString6lengthEPKc(i8* %3), !dbg !3797
  %add = add i32 %call1, 1, !dbg !3798
  store i32 %add, i32* %theLength, align 4, !dbg !3795
  %4 = load %"class.xalanc_1_10::XalanVector"*, %"class.xalanc_1_10::XalanVector"** %theResult.addr, align 8, !dbg !3799
  %5 = load i32, i32* %theLength, align 4, !dbg !3800
  %conv2 = zext i32 %5 to i64, !dbg !3800
  call void @_ZN11xalanc_1_1011XalanVectorItNS_31MemoryManagedConstructionTraitsItEEE7reserveEm(%"class.xalanc_1_10::XalanVector"* %4, i64 %conv2), !dbg !3801
  %6 = load i8*, i8** %data.addr, align 8, !dbg !3802
  %7 = load i8*, i8** %data.addr, align 8, !dbg !3803
  %8 = load i32, i32* %theLength, align 4, !dbg !3804
  %idx.ext = zext i32 %8 to i64, !dbg !3805
  %add.ptr = getelementptr inbounds i8, i8* %7, i64 %idx.ext, !dbg !3805
  %9 = load %"class.xalanc_1_10::XalanVector"*, %"class.xalanc_1_10::XalanVector"** %theResult.addr, align 8, !dbg !3806
  %call3 = call %"class.xalanc_1_10::XalanVector"* @_ZSt13back_inserterIN11xalanc_1_1011XalanVectorItNS0_31MemoryManagedConstructionTraitsItEEEEESt20back_insert_iteratorIT_ERS6_(%"class.xalanc_1_10::XalanVector"* dereferenceable(32) %9), !dbg !3807
  %coerce.dive = getelementptr inbounds %"class.std::back_insert_iterator", %"class.std::back_insert_iterator"* %agg.tmp, i32 0, i32 0, !dbg !3807
  store %"class.xalanc_1_10::XalanVector"* %call3, %"class.xalanc_1_10::XalanVector"** %coerce.dive, align 8, !dbg !3807
  %coerce.dive4 = getelementptr inbounds %"class.std::back_insert_iterator", %"class.std::back_insert_iterator"* %agg.tmp, i32 0, i32 0, !dbg !3808
  %10 = load %"class.xalanc_1_10::XalanVector"*, %"class.xalanc_1_10::XalanVector"** %coerce.dive4, align 8, !dbg !3808
  %call5 = call %"class.xalanc_1_10::XalanVector"* @_ZSt4copyIPKcSt20back_insert_iteratorIN11xalanc_1_1011XalanVectorItNS3_31MemoryManagedConstructionTraitsItEEEEEET0_T_SA_S9_(i8* %6, i8* %add.ptr, %"class.xalanc_1_10::XalanVector"* %10), !dbg !3808
  %coerce.dive6 = getelementptr inbounds %"class.std::back_insert_iterator", %"class.std::back_insert_iterator"* %coerce, i32 0, i32 0, !dbg !3808
  store %"class.xalanc_1_10::XalanVector"* %call5, %"class.xalanc_1_10::XalanVector"** %coerce.dive6, align 8, !dbg !3808
  br label %if.end

if.end:                                           ; preds = %if.else, %if.then
  %11 = load %"class.xalanc_1_10::XalanVector"*, %"class.xalanc_1_10::XalanVector"** %theResult.addr, align 8, !dbg !3809
  ret %"class.xalanc_1_10::XalanVector"* %11, !dbg !3810
}

declare dso_local zeroext i1 @_ZN11xalanc_1_1026TranscodeFromLocalCodePageEPKcRNS_11XalanVectorItNS_31MemoryManagedConstructionTraitsItEEEEb(i8*, %"class.xalanc_1_10::XalanVector"* dereferenceable(32), i1 zeroext) #1

declare dso_local i32 @_ZN11xalanc_1_1014XalanDOMString6lengthEPKc(i8*) #1

; Function Attrs: noinline uwtable
define linkonce_odr dso_local void @_ZN11xalanc_1_1011XalanVectorItNS_31MemoryManagedConstructionTraitsItEEE7reserveEm(%"class.xalanc_1_10::XalanVector"* %this, i64 %theSize) #0 comdat align 2 !dbg !3811 {
entry:
  %this.addr = alloca %"class.xalanc_1_10::XalanVector"*, align 8
  %theSize.addr = alloca i64, align 8
  store %"class.xalanc_1_10::XalanVector"* %this, %"class.xalanc_1_10::XalanVector"** %this.addr, align 8
  call void @llvm.dbg.declare(metadata %"class.xalanc_1_10::XalanVector"** %this.addr, metadata !3812, metadata !DIExpression()), !dbg !3813
  store i64 %theSize, i64* %theSize.addr, align 8
  call void @llvm.dbg.declare(metadata i64* %theSize.addr, metadata !3814, metadata !DIExpression()), !dbg !3815
  %this1 = load %"class.xalanc_1_10::XalanVector"*, %"class.xalanc_1_10::XalanVector"** %this.addr, align 8
  call void @_ZNK11xalanc_1_1011XalanVectorItNS_31MemoryManagedConstructionTraitsItEEE10invariantsEv(%"class.xalanc_1_10::XalanVector"* %this1), !dbg !3816
  %0 = load i64, i64* %theSize.addr, align 8, !dbg !3817
  %m_allocation = getelementptr inbounds %"class.xalanc_1_10::XalanVector", %"class.xalanc_1_10::XalanVector"* %this1, i32 0, i32 2, !dbg !3819
  %1 = load i64, i64* %m_allocation, align 8, !dbg !3819
  %cmp = icmp ugt i64 %0, %1, !dbg !3820
  br i1 %cmp, label %if.then, label %if.end, !dbg !3821

if.then:                                          ; preds = %entry
  %2 = load i64, i64* %theSize.addr, align 8, !dbg !3822
  call void @_ZN11xalanc_1_1011XalanVectorItNS_31MemoryManagedConstructionTraitsItEEE9doReserveEm(%"class.xalanc_1_10::XalanVector"* %this1, i64 %2), !dbg !3824
  br label %if.end, !dbg !3825

if.end:                                           ; preds = %if.then, %entry
  call void @_ZNK11xalanc_1_1011XalanVectorItNS_31MemoryManagedConstructionTraitsItEEE10invariantsEv(%"class.xalanc_1_10::XalanVector"* %this1), !dbg !3826
  ret void, !dbg !3827
}

; Function Attrs: noinline uwtable
define linkonce_odr dso_local %"class.xalanc_1_10::XalanVector"* @_ZSt4copyIPKcSt20back_insert_iteratorIN11xalanc_1_1011XalanVectorItNS3_31MemoryManagedConstructionTraitsItEEEEEET0_T_SA_S9_(i8* %__first, i8* %__last, %"class.xalanc_1_10::XalanVector"* %__result.coerce) #0 comdat !dbg !3828 {
entry:
  %retval = alloca %"class.std::back_insert_iterator", align 8
  %__result = alloca %"class.std::back_insert_iterator", align 8
  %__first.addr = alloca i8*, align 8
  %__last.addr = alloca i8*, align 8
  %agg.tmp = alloca %"class.std::back_insert_iterator", align 8
  %coerce.dive = getelementptr inbounds %"class.std::back_insert_iterator", %"class.std::back_insert_iterator"* %__result, i32 0, i32 0
  store %"class.xalanc_1_10::XalanVector"* %__result.coerce, %"class.xalanc_1_10::XalanVector"** %coerce.dive, align 8
  store i8* %__first, i8** %__first.addr, align 8
  call void @llvm.dbg.declare(metadata i8** %__first.addr, metadata !3835, metadata !DIExpression()), !dbg !3837
  store i8* %__last, i8** %__last.addr, align 8
  call void @llvm.dbg.declare(metadata i8** %__last.addr, metadata !3838, metadata !DIExpression()), !dbg !3839
  call void @llvm.dbg.declare(metadata %"class.std::back_insert_iterator"* %__result, metadata !3840, metadata !DIExpression()), !dbg !3841
  %0 = load i8*, i8** %__first.addr, align 8, !dbg !3842
  %call = call i8* @_ZSt12__miter_baseIPKcET_S2_(i8* %0), !dbg !3843
  %1 = load i8*, i8** %__last.addr, align 8, !dbg !3844
  %call1 = call i8* @_ZSt12__miter_baseIPKcET_S2_(i8* %1), !dbg !3845
  %2 = bitcast %"class.std::back_insert_iterator"* %agg.tmp to i8*, !dbg !3846
  %3 = bitcast %"class.std::back_insert_iterator"* %__result to i8*, !dbg !3846
  call void @llvm.memcpy.p0i8.p0i8.i64(i8* align 8 %2, i8* align 8 %3, i64 8, i1 false), !dbg !3846
  %coerce.dive2 = getelementptr inbounds %"class.std::back_insert_iterator", %"class.std::back_insert_iterator"* %agg.tmp, i32 0, i32 0, !dbg !3847
  %4 = load %"class.xalanc_1_10::XalanVector"*, %"class.xalanc_1_10::XalanVector"** %coerce.dive2, align 8, !dbg !3847
  %call3 = call %"class.xalanc_1_10::XalanVector"* @_ZSt13__copy_move_aILb0EPKcSt20back_insert_iteratorIN11xalanc_1_1011XalanVectorItNS3_31MemoryManagedConstructionTraitsItEEEEEET1_T0_SA_S9_(i8* %call, i8* %call1, %"class.xalanc_1_10::XalanVector"* %4), !dbg !3847
  %coerce.dive4 = getelementptr inbounds %"class.std::back_insert_iterator", %"class.std::back_insert_iterator"* %retval, i32 0, i32 0, !dbg !3847
  store %"class.xalanc_1_10::XalanVector"* %call3, %"class.xalanc_1_10::XalanVector"** %coerce.dive4, align 8, !dbg !3847
  %coerce.dive5 = getelementptr inbounds %"class.std::back_insert_iterator", %"class.std::back_insert_iterator"* %retval, i32 0, i32 0, !dbg !3848
  %5 = load %"class.xalanc_1_10::XalanVector"*, %"class.xalanc_1_10::XalanVector"** %coerce.dive5, align 8, !dbg !3848
  ret %"class.xalanc_1_10::XalanVector"* %5, !dbg !3848
}

; Function Attrs: noinline uwtable
define linkonce_odr dso_local %"class.xalanc_1_10::XalanVector"* @_ZSt13back_inserterIN11xalanc_1_1011XalanVectorItNS0_31MemoryManagedConstructionTraitsItEEEEESt20back_insert_iteratorIT_ERS6_(%"class.xalanc_1_10::XalanVector"* dereferenceable(32) %__x) #0 comdat !dbg !3849 {
entry:
  %retval = alloca %"class.std::back_insert_iterator", align 8
  %__x.addr = alloca %"class.xalanc_1_10::XalanVector"*, align 8
  store %"class.xalanc_1_10::XalanVector"* %__x, %"class.xalanc_1_10::XalanVector"** %__x.addr, align 8
  call void @llvm.dbg.declare(metadata %"class.xalanc_1_10::XalanVector"** %__x.addr, metadata !3852, metadata !DIExpression()), !dbg !3853
  %0 = load %"class.xalanc_1_10::XalanVector"*, %"class.xalanc_1_10::XalanVector"** %__x.addr, align 8, !dbg !3854
  call void @_ZNSt20back_insert_iteratorIN11xalanc_1_1011XalanVectorItNS0_31MemoryManagedConstructionTraitsItEEEEEC2ERS4_(%"class.std::back_insert_iterator"* %retval, %"class.xalanc_1_10::XalanVector"* dereferenceable(32) %0), !dbg !3855
  %coerce.dive = getelementptr inbounds %"class.std::back_insert_iterator", %"class.std::back_insert_iterator"* %retval, i32 0, i32 0, !dbg !3856
  %1 = load %"class.xalanc_1_10::XalanVector"*, %"class.xalanc_1_10::XalanVector"** %coerce.dive, align 8, !dbg !3856
  ret %"class.xalanc_1_10::XalanVector"* %1, !dbg !3856
}

; Function Attrs: noinline uwtable
define dso_local dereferenceable(32) %"class.xalanc_1_10::XalanVector"* @_ZN11xalanc_1_1022MakeXalanDOMCharVectorEPKtRNS_11XalanVectorItNS_31MemoryManagedConstructionTraitsItEEEE(i16* %data, %"class.xalanc_1_10::XalanVector"* dereferenceable(32) %theResult) #0 personality i8* bitcast (i32 (...)* @__gxx_personality_v0 to i8*) !dbg !3857 {
entry:
  %data.addr = alloca i16*, align 8
  %theResult.addr = alloca %"class.xalanc_1_10::XalanVector"*, align 8
  %theLength = alloca i32, align 4
  %tmpVector = alloca %"class.xalanc_1_10::XalanVector", align 8
  %exn.slot = alloca i8*
  %ehselector.slot = alloca i32
  store i16* %data, i16** %data.addr, align 8
  call void @llvm.dbg.declare(metadata i16** %data.addr, metadata !3860, metadata !DIExpression()), !dbg !3861
  store %"class.xalanc_1_10::XalanVector"* %theResult, %"class.xalanc_1_10::XalanVector"** %theResult.addr, align 8
  call void @llvm.dbg.declare(metadata %"class.xalanc_1_10::XalanVector"** %theResult.addr, metadata !3862, metadata !DIExpression()), !dbg !3863
  call void @llvm.dbg.declare(metadata i32* %theLength, metadata !3864, metadata !DIExpression()), !dbg !3865
  %0 = load i16*, i16** %data.addr, align 8, !dbg !3866
  %call = call i32 @_ZN11xalanc_1_106lengthEPKt(i16* %0), !dbg !3867
  store i32 %call, i32* %theLength, align 4, !dbg !3865
  call void @llvm.dbg.declare(metadata %"class.xalanc_1_10::XalanVector"* %tmpVector, metadata !3868, metadata !DIExpression()), !dbg !3869
  %1 = load i16*, i16** %data.addr, align 8, !dbg !3870
  %2 = load i16*, i16** %data.addr, align 8, !dbg !3871
  %3 = load i32, i32* %theLength, align 4, !dbg !3872
  %idx.ext = zext i32 %3 to i64, !dbg !3873
  %add.ptr = getelementptr inbounds i16, i16* %2, i64 %idx.ext, !dbg !3873
  %add.ptr1 = getelementptr inbounds i16, i16* %add.ptr, i64 1, !dbg !3874
  %4 = load %"class.xalanc_1_10::XalanVector"*, %"class.xalanc_1_10::XalanVector"** %theResult.addr, align 8, !dbg !3875
  %call2 = call dereferenceable(8) %"class.xercesc_2_7::MemoryManager"* @_ZN11xalanc_1_1011XalanVectorItNS_31MemoryManagedConstructionTraitsItEEE16getMemoryManagerEv(%"class.xalanc_1_10::XalanVector"* %4), !dbg !3876
  call void @_ZN11xalanc_1_1011XalanVectorItNS_31MemoryManagedConstructionTraitsItEEEC2EPKtS5_RN11xercesc_2_713MemoryManagerE(%"class.xalanc_1_10::XalanVector"* %tmpVector, i16* %1, i16* %add.ptr1, %"class.xercesc_2_7::MemoryManager"* dereferenceable(8) %call2), !dbg !3869
  %5 = load %"class.xalanc_1_10::XalanVector"*, %"class.xalanc_1_10::XalanVector"** %theResult.addr, align 8, !dbg !3877
  invoke void @_ZN11xalanc_1_1011XalanVectorItNS_31MemoryManagedConstructionTraitsItEEE4swapERS3_(%"class.xalanc_1_10::XalanVector"* %5, %"class.xalanc_1_10::XalanVector"* dereferenceable(32) %tmpVector)
          to label %invoke.cont unwind label %lpad, !dbg !3878

invoke.cont:                                      ; preds = %entry
  %6 = load %"class.xalanc_1_10::XalanVector"*, %"class.xalanc_1_10::XalanVector"** %theResult.addr, align 8, !dbg !3879
  call void @_ZN11xalanc_1_1011XalanVectorItNS_31MemoryManagedConstructionTraitsItEEED2Ev(%"class.xalanc_1_10::XalanVector"* %tmpVector) #3, !dbg !3880
  ret %"class.xalanc_1_10::XalanVector"* %6, !dbg !3880

lpad:                                             ; preds = %entry
  %7 = landingpad { i8*, i32 }
          cleanup, !dbg !3880
  %8 = extractvalue { i8*, i32 } %7, 0, !dbg !3880
  store i8* %8, i8** %exn.slot, align 8, !dbg !3880
  %9 = extractvalue { i8*, i32 } %7, 1, !dbg !3880
  store i32 %9, i32* %ehselector.slot, align 4, !dbg !3880
  call void @_ZN11xalanc_1_1011XalanVectorItNS_31MemoryManagedConstructionTraitsItEEED2Ev(%"class.xalanc_1_10::XalanVector"* %tmpVector) #3, !dbg !3880
  br label %eh.resume, !dbg !3880

eh.resume:                                        ; preds = %lpad
  %exn = load i8*, i8** %exn.slot, align 8, !dbg !3880
  %sel = load i32, i32* %ehselector.slot, align 4, !dbg !3880
  %lpad.val = insertvalue { i8*, i32 } undef, i8* %exn, 0, !dbg !3880
  %lpad.val3 = insertvalue { i8*, i32 } %lpad.val, i32 %sel, 1, !dbg !3880
  resume { i8*, i32 } %lpad.val3, !dbg !3880
}

; Function Attrs: noinline nounwind uwtable
define linkonce_odr dso_local dereferenceable(8) %"class.xercesc_2_7::MemoryManager"* @_ZN11xalanc_1_1011XalanVectorItNS_31MemoryManagedConstructionTraitsItEEE16getMemoryManagerEv(%"class.xalanc_1_10::XalanVector"* %this) #5 comdat align 2 !dbg !3881 {
entry:
  %this.addr = alloca %"class.xalanc_1_10::XalanVector"*, align 8
  store %"class.xalanc_1_10::XalanVector"* %this, %"class.xalanc_1_10::XalanVector"** %this.addr, align 8
  call void @llvm.dbg.declare(metadata %"class.xalanc_1_10::XalanVector"** %this.addr, metadata !3882, metadata !DIExpression()), !dbg !3883
  %this1 = load %"class.xalanc_1_10::XalanVector"*, %"class.xalanc_1_10::XalanVector"** %this.addr, align 8
  %m_memoryManager = getelementptr inbounds %"class.xalanc_1_10::XalanVector", %"class.xalanc_1_10::XalanVector"* %this1, i32 0, i32 0, !dbg !3884
  %0 = load %"class.xercesc_2_7::MemoryManager"*, %"class.xercesc_2_7::MemoryManager"** %m_memoryManager, align 8, !dbg !3884
  ret %"class.xercesc_2_7::MemoryManager"* %0, !dbg !3885
}

; Function Attrs: noinline uwtable
define linkonce_odr dso_local void @_ZN11xalanc_1_1011XalanVectorItNS_31MemoryManagedConstructionTraitsItEEEC2EPKtS5_RN11xercesc_2_713MemoryManagerE(%"class.xalanc_1_10::XalanVector"* %this, i16* %theFirst, i16* %theLast, %"class.xercesc_2_7::MemoryManager"* dereferenceable(8) %theManager) unnamed_addr #0 comdat align 2 personality i8* bitcast (i32 (...)* @__gxx_personality_v0 to i8*) !dbg !3886 {
entry:
  %this.addr = alloca %"class.xalanc_1_10::XalanVector"*, align 8
  %theFirst.addr = alloca i16*, align 8
  %theLast.addr = alloca i16*, align 8
  %theManager.addr = alloca %"class.xercesc_2_7::MemoryManager"*, align 8
  %theTemp = alloca %"class.xalanc_1_10::XalanVector", align 8
  %exn.slot = alloca i8*
  %ehselector.slot = alloca i32
  store %"class.xalanc_1_10::XalanVector"* %this, %"class.xalanc_1_10::XalanVector"** %this.addr, align 8
  call void @llvm.dbg.declare(metadata %"class.xalanc_1_10::XalanVector"** %this.addr, metadata !3887, metadata !DIExpression()), !dbg !3888
  store i16* %theFirst, i16** %theFirst.addr, align 8
  call void @llvm.dbg.declare(metadata i16** %theFirst.addr, metadata !3889, metadata !DIExpression()), !dbg !3890
  store i16* %theLast, i16** %theLast.addr, align 8
  call void @llvm.dbg.declare(metadata i16** %theLast.addr, metadata !3891, metadata !DIExpression()), !dbg !3892
  store %"class.xercesc_2_7::MemoryManager"* %theManager, %"class.xercesc_2_7::MemoryManager"** %theManager.addr, align 8
  call void @llvm.dbg.declare(metadata %"class.xercesc_2_7::MemoryManager"** %theManager.addr, metadata !3893, metadata !DIExpression()), !dbg !3894
  %this1 = load %"class.xalanc_1_10::XalanVector"*, %"class.xalanc_1_10::XalanVector"** %this.addr, align 8
  %m_memoryManager = getelementptr inbounds %"class.xalanc_1_10::XalanVector", %"class.xalanc_1_10::XalanVector"* %this1, i32 0, i32 0, !dbg !3895
  %0 = load %"class.xercesc_2_7::MemoryManager"*, %"class.xercesc_2_7::MemoryManager"** %theManager.addr, align 8, !dbg !3896
  store %"class.xercesc_2_7::MemoryManager"* %0, %"class.xercesc_2_7::MemoryManager"** %m_memoryManager, align 8, !dbg !3895
  %m_size = getelementptr inbounds %"class.xalanc_1_10::XalanVector", %"class.xalanc_1_10::XalanVector"* %this1, i32 0, i32 1, !dbg !3897
  store i64 0, i64* %m_size, align 8, !dbg !3897
  %m_allocation = getelementptr inbounds %"class.xalanc_1_10::XalanVector", %"class.xalanc_1_10::XalanVector"* %this1, i32 0, i32 2, !dbg !3898
  store i64 0, i64* %m_allocation, align 8, !dbg !3898
  %m_data = getelementptr inbounds %"class.xalanc_1_10::XalanVector", %"class.xalanc_1_10::XalanVector"* %this1, i32 0, i32 3, !dbg !3899
  store i16* null, i16** %m_data, align 8, !dbg !3899
  call void @llvm.dbg.declare(metadata %"class.xalanc_1_10::XalanVector"* %theTemp, metadata !3900, metadata !DIExpression()), !dbg !3902
  %1 = load %"class.xercesc_2_7::MemoryManager"*, %"class.xercesc_2_7::MemoryManager"** %theManager.addr, align 8, !dbg !3903
  call void @_ZN11xalanc_1_1011XalanVectorItNS_31MemoryManagedConstructionTraitsItEEEC2ERN11xercesc_2_713MemoryManagerEm(%"class.xalanc_1_10::XalanVector"* %theTemp, %"class.xercesc_2_7::MemoryManager"* dereferenceable(8) %1, i64 0), !dbg !3902
  %call = invoke i16* @_ZN11xalanc_1_1011XalanVectorItNS_31MemoryManagedConstructionTraitsItEEE5beginEv(%"class.xalanc_1_10::XalanVector"* %theTemp)
          to label %invoke.cont unwind label %lpad, !dbg !3904

invoke.cont:                                      ; preds = %entry
  %2 = load i16*, i16** %theFirst.addr, align 8, !dbg !3905
  %3 = load i16*, i16** %theLast.addr, align 8, !dbg !3906
  invoke void @_ZN11xalanc_1_1011XalanVectorItNS_31MemoryManagedConstructionTraitsItEEE6insertEPtPKtS6_(%"class.xalanc_1_10::XalanVector"* %theTemp, i16* %call, i16* %2, i16* %3)
          to label %invoke.cont2 unwind label %lpad, !dbg !3907

invoke.cont2:                                     ; preds = %invoke.cont
  invoke void @_ZN11xalanc_1_1011XalanVectorItNS_31MemoryManagedConstructionTraitsItEEE4swapERS3_(%"class.xalanc_1_10::XalanVector"* %this1, %"class.xalanc_1_10::XalanVector"* dereferenceable(32) %theTemp)
          to label %invoke.cont3 unwind label %lpad, !dbg !3908

invoke.cont3:                                     ; preds = %invoke.cont2
  invoke void @_ZNK11xalanc_1_1011XalanVectorItNS_31MemoryManagedConstructionTraitsItEEE10invariantsEv(%"class.xalanc_1_10::XalanVector"* %this1)
          to label %invoke.cont4 unwind label %lpad, !dbg !3909

invoke.cont4:                                     ; preds = %invoke.cont3
  call void @_ZN11xalanc_1_1011XalanVectorItNS_31MemoryManagedConstructionTraitsItEEED2Ev(%"class.xalanc_1_10::XalanVector"* %theTemp) #3, !dbg !3910
  ret void, !dbg !3910

lpad:                                             ; preds = %invoke.cont3, %invoke.cont2, %invoke.cont, %entry
  %4 = landingpad { i8*, i32 }
          cleanup, !dbg !3911
  %5 = extractvalue { i8*, i32 } %4, 0, !dbg !3911
  store i8* %5, i8** %exn.slot, align 8, !dbg !3911
  %6 = extractvalue { i8*, i32 } %4, 1, !dbg !3911
  store i32 %6, i32* %ehselector.slot, align 4, !dbg !3911
  call void @_ZN11xalanc_1_1011XalanVectorItNS_31MemoryManagedConstructionTraitsItEEED2Ev(%"class.xalanc_1_10::XalanVector"* %theTemp) #3, !dbg !3910
  br label %eh.resume, !dbg !3910

eh.resume:                                        ; preds = %lpad
  %exn = load i8*, i8** %exn.slot, align 8, !dbg !3910
  %sel = load i32, i32* %ehselector.slot, align 4, !dbg !3910
  %lpad.val = insertvalue { i8*, i32 } undef, i8* %exn, 0, !dbg !3910
  %lpad.val5 = insertvalue { i8*, i32 } %lpad.val, i32 %sel, 1, !dbg !3910
  resume { i8*, i32 } %lpad.val5, !dbg !3910
}

; Function Attrs: noinline nounwind uwtable
define linkonce_odr dso_local void @_ZN11xalanc_1_1011XalanVectorItNS_31MemoryManagedConstructionTraitsItEEE4swapERS3_(%"class.xalanc_1_10::XalanVector"* %this, %"class.xalanc_1_10::XalanVector"* dereferenceable(32) %theOther) #5 comdat align 2 !dbg !3912 {
entry:
  %this.addr = alloca %"class.xalanc_1_10::XalanVector"*, align 8
  %theOther.addr = alloca %"class.xalanc_1_10::XalanVector"*, align 8
  %theTempManager = alloca %"class.xercesc_2_7::MemoryManager"*, align 8
  %theTempLength = alloca i64, align 8
  %theTempAllocation = alloca i64, align 8
  %theTempData = alloca i16*, align 8
  store %"class.xalanc_1_10::XalanVector"* %this, %"class.xalanc_1_10::XalanVector"** %this.addr, align 8
  call void @llvm.dbg.declare(metadata %"class.xalanc_1_10::XalanVector"** %this.addr, metadata !3913, metadata !DIExpression()), !dbg !3914
  store %"class.xalanc_1_10::XalanVector"* %theOther, %"class.xalanc_1_10::XalanVector"** %theOther.addr, align 8
  call void @llvm.dbg.declare(metadata %"class.xalanc_1_10::XalanVector"** %theOther.addr, metadata !3915, metadata !DIExpression()), !dbg !3916
  %this1 = load %"class.xalanc_1_10::XalanVector"*, %"class.xalanc_1_10::XalanVector"** %this.addr, align 8
  call void @_ZNK11xalanc_1_1011XalanVectorItNS_31MemoryManagedConstructionTraitsItEEE10invariantsEv(%"class.xalanc_1_10::XalanVector"* %this1), !dbg !3917
  call void @llvm.dbg.declare(metadata %"class.xercesc_2_7::MemoryManager"** %theTempManager, metadata !3918, metadata !DIExpression()), !dbg !3920
  %m_memoryManager = getelementptr inbounds %"class.xalanc_1_10::XalanVector", %"class.xalanc_1_10::XalanVector"* %this1, i32 0, i32 0, !dbg !3921
  %0 = load %"class.xercesc_2_7::MemoryManager"*, %"class.xercesc_2_7::MemoryManager"** %m_memoryManager, align 8, !dbg !3921
  store %"class.xercesc_2_7::MemoryManager"* %0, %"class.xercesc_2_7::MemoryManager"** %theTempManager, align 8, !dbg !3920
  call void @llvm.dbg.declare(metadata i64* %theTempLength, metadata !3922, metadata !DIExpression()), !dbg !3924
  %m_size = getelementptr inbounds %"class.xalanc_1_10::XalanVector", %"class.xalanc_1_10::XalanVector"* %this1, i32 0, i32 1, !dbg !3925
  %1 = load i64, i64* %m_size, align 8, !dbg !3925
  store i64 %1, i64* %theTempLength, align 8, !dbg !3924
  call void @llvm.dbg.declare(metadata i64* %theTempAllocation, metadata !3926, metadata !DIExpression()), !dbg !3927
  %m_allocation = getelementptr inbounds %"class.xalanc_1_10::XalanVector", %"class.xalanc_1_10::XalanVector"* %this1, i32 0, i32 2, !dbg !3928
  %2 = load i64, i64* %m_allocation, align 8, !dbg !3928
  store i64 %2, i64* %theTempAllocation, align 8, !dbg !3927
  call void @llvm.dbg.declare(metadata i16** %theTempData, metadata !3929, metadata !DIExpression()), !dbg !3931
  %m_data = getelementptr inbounds %"class.xalanc_1_10::XalanVector", %"class.xalanc_1_10::XalanVector"* %this1, i32 0, i32 3, !dbg !3932
  %3 = load i16*, i16** %m_data, align 8, !dbg !3932
  store i16* %3, i16** %theTempData, align 8, !dbg !3931
  %4 = load %"class.xalanc_1_10::XalanVector"*, %"class.xalanc_1_10::XalanVector"** %theOther.addr, align 8, !dbg !3933
  %m_memoryManager2 = getelementptr inbounds %"class.xalanc_1_10::XalanVector", %"class.xalanc_1_10::XalanVector"* %4, i32 0, i32 0, !dbg !3934
  %5 = load %"class.xercesc_2_7::MemoryManager"*, %"class.xercesc_2_7::MemoryManager"** %m_memoryManager2, align 8, !dbg !3934
  %m_memoryManager3 = getelementptr inbounds %"class.xalanc_1_10::XalanVector", %"class.xalanc_1_10::XalanVector"* %this1, i32 0, i32 0, !dbg !3935
  store %"class.xercesc_2_7::MemoryManager"* %5, %"class.xercesc_2_7::MemoryManager"** %m_memoryManager3, align 8, !dbg !3936
  %6 = load %"class.xalanc_1_10::XalanVector"*, %"class.xalanc_1_10::XalanVector"** %theOther.addr, align 8, !dbg !3937
  %m_size4 = getelementptr inbounds %"class.xalanc_1_10::XalanVector", %"class.xalanc_1_10::XalanVector"* %6, i32 0, i32 1, !dbg !3938
  %7 = load i64, i64* %m_size4, align 8, !dbg !3938
  %m_size5 = getelementptr inbounds %"class.xalanc_1_10::XalanVector", %"class.xalanc_1_10::XalanVector"* %this1, i32 0, i32 1, !dbg !3939
  store i64 %7, i64* %m_size5, align 8, !dbg !3940
  %8 = load %"class.xalanc_1_10::XalanVector"*, %"class.xalanc_1_10::XalanVector"** %theOther.addr, align 8, !dbg !3941
  %m_allocation6 = getelementptr inbounds %"class.xalanc_1_10::XalanVector", %"class.xalanc_1_10::XalanVector"* %8, i32 0, i32 2, !dbg !3942
  %9 = load i64, i64* %m_allocation6, align 8, !dbg !3942
  %m_allocation7 = getelementptr inbounds %"class.xalanc_1_10::XalanVector", %"class.xalanc_1_10::XalanVector"* %this1, i32 0, i32 2, !dbg !3943
  store i64 %9, i64* %m_allocation7, align 8, !dbg !3944
  %10 = load %"class.xalanc_1_10::XalanVector"*, %"class.xalanc_1_10::XalanVector"** %theOther.addr, align 8, !dbg !3945
  %m_data8 = getelementptr inbounds %"class.xalanc_1_10::XalanVector", %"class.xalanc_1_10::XalanVector"* %10, i32 0, i32 3, !dbg !3946
  %11 = load i16*, i16** %m_data8, align 8, !dbg !3946
  %m_data9 = getelementptr inbounds %"class.xalanc_1_10::XalanVector", %"class.xalanc_1_10::XalanVector"* %this1, i32 0, i32 3, !dbg !3947
  store i16* %11, i16** %m_data9, align 8, !dbg !3948
  %12 = load %"class.xercesc_2_7::MemoryManager"*, %"class.xercesc_2_7::MemoryManager"** %theTempManager, align 8, !dbg !3949
  %13 = load %"class.xalanc_1_10::XalanVector"*, %"class.xalanc_1_10::XalanVector"** %theOther.addr, align 8, !dbg !3950
  %m_memoryManager10 = getelementptr inbounds %"class.xalanc_1_10::XalanVector", %"class.xalanc_1_10::XalanVector"* %13, i32 0, i32 0, !dbg !3951
  store %"class.xercesc_2_7::MemoryManager"* %12, %"class.xercesc_2_7::MemoryManager"** %m_memoryManager10, align 8, !dbg !3952
  %14 = load i64, i64* %theTempLength, align 8, !dbg !3953
  %15 = load %"class.xalanc_1_10::XalanVector"*, %"class.xalanc_1_10::XalanVector"** %theOther.addr, align 8, !dbg !3954
  %m_size11 = getelementptr inbounds %"class.xalanc_1_10::XalanVector", %"class.xalanc_1_10::XalanVector"* %15, i32 0, i32 1, !dbg !3955
  store i64 %14, i64* %m_size11, align 8, !dbg !3956
  %16 = load i64, i64* %theTempAllocation, align 8, !dbg !3957
  %17 = load %"class.xalanc_1_10::XalanVector"*, %"class.xalanc_1_10::XalanVector"** %theOther.addr, align 8, !dbg !3958
  %m_allocation12 = getelementptr inbounds %"class.xalanc_1_10::XalanVector", %"class.xalanc_1_10::XalanVector"* %17, i32 0, i32 2, !dbg !3959
  store i64 %16, i64* %m_allocation12, align 8, !dbg !3960
  %18 = load i16*, i16** %theTempData, align 8, !dbg !3961
  %19 = load %"class.xalanc_1_10::XalanVector"*, %"class.xalanc_1_10::XalanVector"** %theOther.addr, align 8, !dbg !3962
  %m_data13 = getelementptr inbounds %"class.xalanc_1_10::XalanVector", %"class.xalanc_1_10::XalanVector"* %19, i32 0, i32 3, !dbg !3963
  store i16* %18, i16** %m_data13, align 8, !dbg !3964
  call void @_ZNK11xalanc_1_1011XalanVectorItNS_31MemoryManagedConstructionTraitsItEEE10invariantsEv(%"class.xalanc_1_10::XalanVector"* %this1), !dbg !3965
  ret void, !dbg !3966
}

; Function Attrs: noinline nounwind uwtable
define linkonce_odr dso_local void @_ZN11xalanc_1_1011XalanVectorItNS_31MemoryManagedConstructionTraitsItEEED2Ev(%"class.xalanc_1_10::XalanVector"* %this) unnamed_addr #5 comdat align 2 personality i8* bitcast (i32 (...)* @__gxx_personality_v0 to i8*) !dbg !3967 {
entry:
  %this.addr = alloca %"class.xalanc_1_10::XalanVector"*, align 8
  store %"class.xalanc_1_10::XalanVector"* %this, %"class.xalanc_1_10::XalanVector"** %this.addr, align 8
  call void @llvm.dbg.declare(metadata %"class.xalanc_1_10::XalanVector"** %this.addr, metadata !3968, metadata !DIExpression()), !dbg !3969
  %this1 = load %"class.xalanc_1_10::XalanVector"*, %"class.xalanc_1_10::XalanVector"** %this.addr, align 8
  invoke void @_ZNK11xalanc_1_1011XalanVectorItNS_31MemoryManagedConstructionTraitsItEEE10invariantsEv(%"class.xalanc_1_10::XalanVector"* %this1)
          to label %invoke.cont unwind label %terminate.lpad, !dbg !3970

invoke.cont:                                      ; preds = %entry
  %m_allocation = getelementptr inbounds %"class.xalanc_1_10::XalanVector", %"class.xalanc_1_10::XalanVector"* %this1, i32 0, i32 2, !dbg !3972
  %0 = load i64, i64* %m_allocation, align 8, !dbg !3972
  %cmp = icmp ne i64 %0, 0, !dbg !3974
  br i1 %cmp, label %if.then, label %if.end, !dbg !3975

if.then:                                          ; preds = %invoke.cont
  %call = invoke i16* @_ZN11xalanc_1_1011XalanVectorItNS_31MemoryManagedConstructionTraitsItEEE5beginEv(%"class.xalanc_1_10::XalanVector"* %this1)
          to label %invoke.cont2 unwind label %terminate.lpad, !dbg !3976

invoke.cont2:                                     ; preds = %if.then
  %call4 = invoke i16* @_ZN11xalanc_1_1011XalanVectorItNS_31MemoryManagedConstructionTraitsItEEE3endEv(%"class.xalanc_1_10::XalanVector"* %this1)
          to label %invoke.cont3 unwind label %terminate.lpad, !dbg !3978

invoke.cont3:                                     ; preds = %invoke.cont2
  invoke void @_ZN11xalanc_1_1011XalanVectorItNS_31MemoryManagedConstructionTraitsItEEE7destroyEPtS4_(i16* %call, i16* %call4)
          to label %invoke.cont5 unwind label %terminate.lpad, !dbg !3979

invoke.cont5:                                     ; preds = %invoke.cont3
  %m_data = getelementptr inbounds %"class.xalanc_1_10::XalanVector", %"class.xalanc_1_10::XalanVector"* %this1, i32 0, i32 3, !dbg !3980
  %1 = load i16*, i16** %m_data, align 8, !dbg !3980
  invoke void @_ZN11xalanc_1_1011XalanVectorItNS_31MemoryManagedConstructionTraitsItEEE10deallocateEPt(%"class.xalanc_1_10::XalanVector"* %this1, i16* %1)
          to label %invoke.cont6 unwind label %terminate.lpad, !dbg !3981

invoke.cont6:                                     ; preds = %invoke.cont5
  br label %if.end, !dbg !3982

if.end:                                           ; preds = %invoke.cont6, %invoke.cont
  ret void, !dbg !3983

terminate.lpad:                                   ; preds = %invoke.cont5, %invoke.cont3, %invoke.cont2, %if.then, %entry
  %2 = landingpad { i8*, i32 }
          catch i8* null, !dbg !3970
  %3 = extractvalue { i8*, i32 } %2, 0, !dbg !3970
  call void @__clang_call_terminate(i8* %3) #11, !dbg !3970
  unreachable, !dbg !3970
}

; Function Attrs: noinline uwtable
define dso_local void @_ZN11xalanc_1_1022CopyWideStringToVectorEPKtRNS_11XalanVectorIcNS_31MemoryManagedConstructionTraitsIcEEEE(i16* %theString, %"class.xalanc_1_10::XalanVector.0"* dereferenceable(32) %theVector) #0 !dbg !3984 {
entry:
  %theString.addr = alloca i16*, align 8
  %theVector.addr = alloca %"class.xalanc_1_10::XalanVector.0"*, align 8
  %theLength = alloca i32, align 4
  %i = alloca i32, align 4
  %ref.tmp = alloca i8, align 1
  %ref.tmp5 = alloca i8, align 1
  store i16* %theString, i16** %theString.addr, align 8
  call void @llvm.dbg.declare(metadata i16** %theString.addr, metadata !3988, metadata !DIExpression()), !dbg !3989
  store %"class.xalanc_1_10::XalanVector.0"* %theVector, %"class.xalanc_1_10::XalanVector.0"** %theVector.addr, align 8
  call void @llvm.dbg.declare(metadata %"class.xalanc_1_10::XalanVector.0"** %theVector.addr, metadata !3990, metadata !DIExpression()), !dbg !3991
  call void @llvm.dbg.declare(metadata i32* %theLength, metadata !3992, metadata !DIExpression()), !dbg !3993
  %0 = load i16*, i16** %theString.addr, align 8, !dbg !3994
  %call = call i32 @_ZN11xalanc_1_106lengthEPKt(i16* %0), !dbg !3995
  store i32 %call, i32* %theLength, align 4, !dbg !3993
  %1 = load i32, i32* %theLength, align 4, !dbg !3996
  %cmp = icmp ne i32 %1, 0, !dbg !3998
  br i1 %cmp, label %if.then, label %if.end, !dbg !3999

if.then:                                          ; preds = %entry
  %2 = load %"class.xalanc_1_10::XalanVector.0"*, %"class.xalanc_1_10::XalanVector.0"** %theVector.addr, align 8, !dbg !4000
  %3 = load %"class.xalanc_1_10::XalanVector.0"*, %"class.xalanc_1_10::XalanVector.0"** %theVector.addr, align 8, !dbg !4002
  %call1 = call i64 @_ZNK11xalanc_1_1011XalanVectorIcNS_31MemoryManagedConstructionTraitsIcEEE4sizeEv(%"class.xalanc_1_10::XalanVector.0"* %3), !dbg !4003
  %4 = load i32, i32* %theLength, align 4, !dbg !4004
  %conv = zext i32 %4 to i64, !dbg !4004
  %add = add i64 %call1, %conv, !dbg !4005
  %add2 = add i64 %add, 1, !dbg !4006
  call void @_ZN11xalanc_1_1011XalanVectorIcNS_31MemoryManagedConstructionTraitsIcEEE7reserveEm(%"class.xalanc_1_10::XalanVector.0"* %2, i64 %add2), !dbg !4007
  call void @llvm.dbg.declare(metadata i32* %i, metadata !4008, metadata !DIExpression()), !dbg !4010
  store i32 0, i32* %i, align 4, !dbg !4010
  br label %for.cond, !dbg !4011

for.cond:                                         ; preds = %for.inc, %if.then
  %5 = load i32, i32* %i, align 4, !dbg !4012
  %6 = load i32, i32* %theLength, align 4, !dbg !4014
  %cmp3 = icmp ult i32 %5, %6, !dbg !4015
  br i1 %cmp3, label %for.body, label %for.end, !dbg !4016

for.body:                                         ; preds = %for.cond
  %7 = load %"class.xalanc_1_10::XalanVector.0"*, %"class.xalanc_1_10::XalanVector.0"** %theVector.addr, align 8, !dbg !4017
  %8 = load i16*, i16** %theString.addr, align 8, !dbg !4019
  %9 = load i32, i32* %i, align 4, !dbg !4020
  %idxprom = zext i32 %9 to i64, !dbg !4019
  %arrayidx = getelementptr inbounds i16, i16* %8, i64 %idxprom, !dbg !4019
  %10 = load i16, i16* %arrayidx, align 2, !dbg !4019
  %conv4 = trunc i16 %10 to i8, !dbg !4019
  store i8 %conv4, i8* %ref.tmp, align 1, !dbg !4021
  call void @_ZN11xalanc_1_1011XalanVectorIcNS_31MemoryManagedConstructionTraitsIcEEE9push_backERKc(%"class.xalanc_1_10::XalanVector.0"* %7, i8* dereferenceable(1) %ref.tmp), !dbg !4022
  br label %for.inc, !dbg !4023

for.inc:                                          ; preds = %for.body
  %11 = load i32, i32* %i, align 4, !dbg !4024
  %inc = add i32 %11, 1, !dbg !4024
  store i32 %inc, i32* %i, align 4, !dbg !4024
  br label %for.cond, !dbg !4025, !llvm.loop !4026

for.end:                                          ; preds = %for.cond
  %12 = load %"class.xalanc_1_10::XalanVector.0"*, %"class.xalanc_1_10::XalanVector.0"** %theVector.addr, align 8, !dbg !4028
  store i8 0, i8* %ref.tmp5, align 1, !dbg !4029
  call void @_ZN11xalanc_1_1011XalanVectorIcNS_31MemoryManagedConstructionTraitsIcEEE9push_backERKc(%"class.xalanc_1_10::XalanVector.0"* %12, i8* dereferenceable(1) %ref.tmp5), !dbg !4030
  br label %if.end, !dbg !4031

if.end:                                           ; preds = %for.end, %entry
  ret void, !dbg !4032
}

; Function Attrs: noinline uwtable
define linkonce_odr dso_local void @_ZN11xalanc_1_1011XalanVectorIcNS_31MemoryManagedConstructionTraitsIcEEE7reserveEm(%"class.xalanc_1_10::XalanVector.0"* %this, i64 %theSize) #0 comdat align 2 !dbg !4033 {
entry:
  %this.addr = alloca %"class.xalanc_1_10::XalanVector.0"*, align 8
  %theSize.addr = alloca i64, align 8
  store %"class.xalanc_1_10::XalanVector.0"* %this, %"class.xalanc_1_10::XalanVector.0"** %this.addr, align 8
  call void @llvm.dbg.declare(metadata %"class.xalanc_1_10::XalanVector.0"** %this.addr, metadata !4034, metadata !DIExpression()), !dbg !4035
  store i64 %theSize, i64* %theSize.addr, align 8
  call void @llvm.dbg.declare(metadata i64* %theSize.addr, metadata !4036, metadata !DIExpression()), !dbg !4037
  %this1 = load %"class.xalanc_1_10::XalanVector.0"*, %"class.xalanc_1_10::XalanVector.0"** %this.addr, align 8
  call void @_ZNK11xalanc_1_1011XalanVectorIcNS_31MemoryManagedConstructionTraitsIcEEE10invariantsEv(%"class.xalanc_1_10::XalanVector.0"* %this1), !dbg !4038
  %0 = load i64, i64* %theSize.addr, align 8, !dbg !4039
  %m_allocation = getelementptr inbounds %"class.xalanc_1_10::XalanVector.0", %"class.xalanc_1_10::XalanVector.0"* %this1, i32 0, i32 2, !dbg !4041
  %1 = load i64, i64* %m_allocation, align 8, !dbg !4041
  %cmp = icmp ugt i64 %0, %1, !dbg !4042
  br i1 %cmp, label %if.then, label %if.end, !dbg !4043

if.then:                                          ; preds = %entry
  %2 = load i64, i64* %theSize.addr, align 8, !dbg !4044
  call void @_ZN11xalanc_1_1011XalanVectorIcNS_31MemoryManagedConstructionTraitsIcEEE9doReserveEm(%"class.xalanc_1_10::XalanVector.0"* %this1, i64 %2), !dbg !4046
  br label %if.end, !dbg !4047

if.end:                                           ; preds = %if.then, %entry
  call void @_ZNK11xalanc_1_1011XalanVectorIcNS_31MemoryManagedConstructionTraitsIcEEE10invariantsEv(%"class.xalanc_1_10::XalanVector.0"* %this1), !dbg !4048
  ret void, !dbg !4049
}

; Function Attrs: noinline uwtable
define linkonce_odr dso_local void @_ZN11xalanc_1_1011XalanVectorIcNS_31MemoryManagedConstructionTraitsIcEEE9push_backERKc(%"class.xalanc_1_10::XalanVector.0"* %this, i8* dereferenceable(1) %data) #0 comdat align 2 !dbg !4050 {
entry:
  %this.addr = alloca %"class.xalanc_1_10::XalanVector.0"*, align 8
  %data.addr = alloca i8*, align 8
  store %"class.xalanc_1_10::XalanVector.0"* %this, %"class.xalanc_1_10::XalanVector.0"** %this.addr, align 8
  call void @llvm.dbg.declare(metadata %"class.xalanc_1_10::XalanVector.0"** %this.addr, metadata !4051, metadata !DIExpression()), !dbg !4052
  store i8* %data, i8** %data.addr, align 8
  call void @llvm.dbg.declare(metadata i8** %data.addr, metadata !4053, metadata !DIExpression()), !dbg !4054
  %this1 = load %"class.xalanc_1_10::XalanVector.0"*, %"class.xalanc_1_10::XalanVector.0"** %this.addr, align 8
  call void @_ZNK11xalanc_1_1011XalanVectorIcNS_31MemoryManagedConstructionTraitsIcEEE10invariantsEv(%"class.xalanc_1_10::XalanVector.0"* %this1), !dbg !4055
  %0 = load i8*, i8** %data.addr, align 8, !dbg !4056
  call void @_ZN11xalanc_1_1011XalanVectorIcNS_31MemoryManagedConstructionTraitsIcEEE10doPushBackERKc(%"class.xalanc_1_10::XalanVector.0"* %this1, i8* dereferenceable(1) %0), !dbg !4057
  call void @_ZNK11xalanc_1_1011XalanVectorIcNS_31MemoryManagedConstructionTraitsIcEEE10invariantsEv(%"class.xalanc_1_10::XalanVector.0"* %this1), !dbg !4058
  ret void, !dbg !4059
}

; Function Attrs: noinline uwtable
define dso_local void @_ZN11xalanc_1_1018CopyStringToVectorEPKcRNS_11XalanVectorIcNS_31MemoryManagedConstructionTraitsIcEEEE(i8* %theString, %"class.xalanc_1_10::XalanVector.0"* dereferenceable(32) %theVector) #0 !dbg !4060 {
entry:
  %theString.addr = alloca i8*, align 8
  %theVector.addr = alloca %"class.xalanc_1_10::XalanVector.0"*, align 8
  store i8* %theString, i8** %theString.addr, align 8
  call void @llvm.dbg.declare(metadata i8** %theString.addr, metadata !4063, metadata !DIExpression()), !dbg !4064
  store %"class.xalanc_1_10::XalanVector.0"* %theVector, %"class.xalanc_1_10::XalanVector.0"** %theVector.addr, align 8
  call void @llvm.dbg.declare(metadata %"class.xalanc_1_10::XalanVector.0"** %theVector.addr, metadata !4065, metadata !DIExpression()), !dbg !4066
  %0 = load %"class.xalanc_1_10::XalanVector.0"*, %"class.xalanc_1_10::XalanVector.0"** %theVector.addr, align 8, !dbg !4067
  %1 = load %"class.xalanc_1_10::XalanVector.0"*, %"class.xalanc_1_10::XalanVector.0"** %theVector.addr, align 8, !dbg !4068
  %call = call i8* @_ZN11xalanc_1_1011XalanVectorIcNS_31MemoryManagedConstructionTraitsIcEEE3endEv(%"class.xalanc_1_10::XalanVector.0"* %1), !dbg !4069
  %2 = load i8*, i8** %theString.addr, align 8, !dbg !4070
  %3 = load i8*, i8** %theString.addr, align 8, !dbg !4071
  %4 = load i8*, i8** %theString.addr, align 8, !dbg !4072
  %call1 = call i32 @_ZN11xalanc_1_1014XalanDOMString6lengthEPKc(i8* %4), !dbg !4073
  %idx.ext = zext i32 %call1 to i64, !dbg !4074
  %add.ptr = getelementptr inbounds i8, i8* %3, i64 %idx.ext, !dbg !4074
  %add.ptr2 = getelementptr inbounds i8, i8* %add.ptr, i64 1, !dbg !4075
  call void @_ZN11xalanc_1_1011XalanVectorIcNS_31MemoryManagedConstructionTraitsIcEEE6insertEPcPKcS6_(%"class.xalanc_1_10::XalanVector.0"* %0, i8* %call, i8* %2, i8* %add.ptr2), !dbg !4076
  ret void, !dbg !4077
}

; Function Attrs: noinline uwtable
define linkonce_odr dso_local void @_ZN11xalanc_1_1011XalanVectorIcNS_31MemoryManagedConstructionTraitsIcEEE6insertEPcPKcS6_(%"class.xalanc_1_10::XalanVector.0"* %this, i8* %thePosition, i8* %theFirst, i8* %theLast) #0 comdat align 2 personality i8* bitcast (i32 (...)* @__gxx_personality_v0 to i8*) !dbg !4078 {
entry:
  %this.addr = alloca %"class.xalanc_1_10::XalanVector.0"*, align 8
  %thePosition.addr = alloca i8*, align 8
  %theFirst.addr = alloca i8*, align 8
  %theLast.addr = alloca i8*, align 8
  %theInsertSize = alloca i64, align 8
  %theTotalSize = alloca i64, align 8
  %thePointer = alloca i8*, align 8
  %theTemp = alloca %"class.xalanc_1_10::XalanVector.0", align 8
  %exn.slot = alloca i8*
  %ehselector.slot = alloca i32
  %theOriginalEnd = alloca i8*, align 8
  %theRightSplitSize = alloca i64, align 8
  %toInsertSplit = alloca i8*, align 8
  %toInsertIter = alloca i8*, align 8
  %toMoveIter = alloca i8*, align 8
  store %"class.xalanc_1_10::XalanVector.0"* %this, %"class.xalanc_1_10::XalanVector.0"** %this.addr, align 8
  call void @llvm.dbg.declare(metadata %"class.xalanc_1_10::XalanVector.0"** %this.addr, metadata !4079, metadata !DIExpression()), !dbg !4080
  store i8* %thePosition, i8** %thePosition.addr, align 8
  call void @llvm.dbg.declare(metadata i8** %thePosition.addr, metadata !4081, metadata !DIExpression()), !dbg !4082
  store i8* %theFirst, i8** %theFirst.addr, align 8
  call void @llvm.dbg.declare(metadata i8** %theFirst.addr, metadata !4083, metadata !DIExpression()), !dbg !4084
  store i8* %theLast, i8** %theLast.addr, align 8
  call void @llvm.dbg.declare(metadata i8** %theLast.addr, metadata !4085, metadata !DIExpression()), !dbg !4086
  %this1 = load %"class.xalanc_1_10::XalanVector.0"*, %"class.xalanc_1_10::XalanVector.0"** %this.addr, align 8
  call void @_ZNK11xalanc_1_1011XalanVectorIcNS_31MemoryManagedConstructionTraitsIcEEE10invariantsEv(%"class.xalanc_1_10::XalanVector.0"* %this1), !dbg !4087
  call void @llvm.dbg.declare(metadata i64* %theInsertSize, metadata !4088, metadata !DIExpression()), !dbg !4089
  %0 = load i8*, i8** %theFirst.addr, align 8, !dbg !4090
  %1 = load i8*, i8** %theLast.addr, align 8, !dbg !4091
  %call = call i64 @_ZN11xalanc_1_1011XalanVectorIcNS_31MemoryManagedConstructionTraitsIcEEE14local_distanceEPKcS5_(%"class.xalanc_1_10::XalanVector.0"* %this1, i8* %0, i8* %1), !dbg !4092
  store i64 %call, i64* %theInsertSize, align 8, !dbg !4089
  %2 = load i64, i64* %theInsertSize, align 8, !dbg !4093
  %cmp = icmp eq i64 %2, 0, !dbg !4095
  br i1 %cmp, label %if.then, label %if.end, !dbg !4096

if.then:                                          ; preds = %entry
  br label %return, !dbg !4097

if.end:                                           ; preds = %entry
  call void @llvm.dbg.declare(metadata i64* %theTotalSize, metadata !4099, metadata !DIExpression()), !dbg !4100
  %call2 = call i64 @_ZNK11xalanc_1_1011XalanVectorIcNS_31MemoryManagedConstructionTraitsIcEEE4sizeEv(%"class.xalanc_1_10::XalanVector.0"* %this1), !dbg !4101
  %3 = load i64, i64* %theInsertSize, align 8, !dbg !4102
  %add = add i64 %call2, %3, !dbg !4103
  store i64 %add, i64* %theTotalSize, align 8, !dbg !4100
  %4 = load i8*, i8** %thePosition.addr, align 8, !dbg !4104
  %call3 = call i8* @_ZN11xalanc_1_1011XalanVectorIcNS_31MemoryManagedConstructionTraitsIcEEE3endEv(%"class.xalanc_1_10::XalanVector.0"* %this1), !dbg !4106
  %cmp4 = icmp eq i8* %4, %call3, !dbg !4107
  br i1 %cmp4, label %if.then5, label %if.else, !dbg !4108

if.then5:                                         ; preds = %if.end
  call void @llvm.dbg.declare(metadata i8** %thePointer, metadata !4109, metadata !DIExpression()), !dbg !4111
  %5 = load i64, i64* %theTotalSize, align 8, !dbg !4112
  %call6 = call i8* @_ZN11xalanc_1_1011XalanVectorIcNS_31MemoryManagedConstructionTraitsIcEEE14ensureCapacityEm(%"class.xalanc_1_10::XalanVector.0"* %this1, i64 %5), !dbg !4113
  store i8* %call6, i8** %thePointer, align 8, !dbg !4111
  br label %while.cond, !dbg !4114

while.cond:                                       ; preds = %while.body, %if.then5
  %6 = load i8*, i8** %theFirst.addr, align 8, !dbg !4115
  %7 = load i8*, i8** %theLast.addr, align 8, !dbg !4116
  %cmp7 = icmp ne i8* %6, %7, !dbg !4117
  br i1 %cmp7, label %while.body, label %while.end, !dbg !4114

while.body:                                       ; preds = %while.cond
  %8 = load i8*, i8** %thePointer, align 8, !dbg !4118
  %9 = load i8*, i8** %theFirst.addr, align 8, !dbg !4120
  %m_memoryManager = getelementptr inbounds %"class.xalanc_1_10::XalanVector.0", %"class.xalanc_1_10::XalanVector.0"* %this1, i32 0, i32 0, !dbg !4121
  %10 = load %"class.xercesc_2_7::MemoryManager"*, %"class.xercesc_2_7::MemoryManager"** %m_memoryManager, align 8, !dbg !4121
  %call8 = call i8* @_ZN11xalanc_1_1028ConstructWithNoMemoryManagerIcE9constructEPcRKcRN11xercesc_2_713MemoryManagerE(i8* %8, i8* dereferenceable(1) %9, %"class.xercesc_2_7::MemoryManager"* dereferenceable(8) %10), !dbg !4122
  %11 = load i8*, i8** %thePointer, align 8, !dbg !4123
  %incdec.ptr = getelementptr inbounds i8, i8* %11, i32 1, !dbg !4123
  store i8* %incdec.ptr, i8** %thePointer, align 8, !dbg !4123
  %m_size = getelementptr inbounds %"class.xalanc_1_10::XalanVector.0", %"class.xalanc_1_10::XalanVector.0"* %this1, i32 0, i32 1, !dbg !4124
  %12 = load i64, i64* %m_size, align 8, !dbg !4125
  %inc = add i64 %12, 1, !dbg !4125
  store i64 %inc, i64* %m_size, align 8, !dbg !4125
  %13 = load i8*, i8** %theFirst.addr, align 8, !dbg !4126
  %incdec.ptr9 = getelementptr inbounds i8, i8* %13, i32 1, !dbg !4126
  store i8* %incdec.ptr9, i8** %theFirst.addr, align 8, !dbg !4126
  br label %while.cond, !dbg !4114, !llvm.loop !4127

while.end:                                        ; preds = %while.cond
  br label %if.end57, !dbg !4129

if.else:                                          ; preds = %if.end
  %14 = load i64, i64* %theTotalSize, align 8, !dbg !4130
  %call10 = call i64 @_ZNK11xalanc_1_1011XalanVectorIcNS_31MemoryManagedConstructionTraitsIcEEE8capacityEv(%"class.xalanc_1_10::XalanVector.0"* %this1), !dbg !4133
  %cmp11 = icmp ugt i64 %14, %call10, !dbg !4134
  br i1 %cmp11, label %if.then12, label %if.else27, !dbg !4135

if.then12:                                        ; preds = %if.else
  call void @llvm.dbg.declare(metadata %"class.xalanc_1_10::XalanVector.0"* %theTemp, metadata !4136, metadata !DIExpression()), !dbg !4138
  %m_memoryManager13 = getelementptr inbounds %"class.xalanc_1_10::XalanVector.0", %"class.xalanc_1_10::XalanVector.0"* %this1, i32 0, i32 0, !dbg !4139
  %15 = load %"class.xercesc_2_7::MemoryManager"*, %"class.xercesc_2_7::MemoryManager"** %m_memoryManager13, align 8, !dbg !4139
  %16 = load i64, i64* %theTotalSize, align 8, !dbg !4140
  call void @_ZN11xalanc_1_1011XalanVectorIcNS_31MemoryManagedConstructionTraitsIcEEEC2ERN11xercesc_2_713MemoryManagerEm(%"class.xalanc_1_10::XalanVector.0"* %theTemp, %"class.xercesc_2_7::MemoryManager"* dereferenceable(8) %15, i64 %16), !dbg !4138
  %call14 = invoke i8* @_ZN11xalanc_1_1011XalanVectorIcNS_31MemoryManagedConstructionTraitsIcEEE3endEv(%"class.xalanc_1_10::XalanVector.0"* %theTemp)
          to label %invoke.cont unwind label %lpad, !dbg !4141

invoke.cont:                                      ; preds = %if.then12
  %call16 = invoke i8* @_ZN11xalanc_1_1011XalanVectorIcNS_31MemoryManagedConstructionTraitsIcEEE5beginEv(%"class.xalanc_1_10::XalanVector.0"* %this1)
          to label %invoke.cont15 unwind label %lpad, !dbg !4142

invoke.cont15:                                    ; preds = %invoke.cont
  %17 = load i8*, i8** %thePosition.addr, align 8, !dbg !4143
  invoke void @_ZN11xalanc_1_1011XalanVectorIcNS_31MemoryManagedConstructionTraitsIcEEE6insertEPcPKcS6_(%"class.xalanc_1_10::XalanVector.0"* %theTemp, i8* %call14, i8* %call16, i8* %17)
          to label %invoke.cont17 unwind label %lpad, !dbg !4144

invoke.cont17:                                    ; preds = %invoke.cont15
  %call19 = invoke i8* @_ZN11xalanc_1_1011XalanVectorIcNS_31MemoryManagedConstructionTraitsIcEEE3endEv(%"class.xalanc_1_10::XalanVector.0"* %theTemp)
          to label %invoke.cont18 unwind label %lpad, !dbg !4145

invoke.cont18:                                    ; preds = %invoke.cont17
  %18 = load i8*, i8** %theFirst.addr, align 8, !dbg !4146
  %19 = load i8*, i8** %theLast.addr, align 8, !dbg !4147
  invoke void @_ZN11xalanc_1_1011XalanVectorIcNS_31MemoryManagedConstructionTraitsIcEEE6insertEPcPKcS6_(%"class.xalanc_1_10::XalanVector.0"* %theTemp, i8* %call19, i8* %18, i8* %19)
          to label %invoke.cont20 unwind label %lpad, !dbg !4148

invoke.cont20:                                    ; preds = %invoke.cont18
  %call22 = invoke i8* @_ZN11xalanc_1_1011XalanVectorIcNS_31MemoryManagedConstructionTraitsIcEEE3endEv(%"class.xalanc_1_10::XalanVector.0"* %theTemp)
          to label %invoke.cont21 unwind label %lpad, !dbg !4149

invoke.cont21:                                    ; preds = %invoke.cont20
  %20 = load i8*, i8** %thePosition.addr, align 8, !dbg !4150
  %call24 = invoke i8* @_ZN11xalanc_1_1011XalanVectorIcNS_31MemoryManagedConstructionTraitsIcEEE3endEv(%"class.xalanc_1_10::XalanVector.0"* %this1)
          to label %invoke.cont23 unwind label %lpad, !dbg !4151

invoke.cont23:                                    ; preds = %invoke.cont21
  invoke void @_ZN11xalanc_1_1011XalanVectorIcNS_31MemoryManagedConstructionTraitsIcEEE6insertEPcPKcS6_(%"class.xalanc_1_10::XalanVector.0"* %theTemp, i8* %call22, i8* %20, i8* %call24)
          to label %invoke.cont25 unwind label %lpad, !dbg !4152

invoke.cont25:                                    ; preds = %invoke.cont23
  invoke void @_ZN11xalanc_1_1011XalanVectorIcNS_31MemoryManagedConstructionTraitsIcEEE4swapERS3_(%"class.xalanc_1_10::XalanVector.0"* %this1, %"class.xalanc_1_10::XalanVector.0"* dereferenceable(32) %theTemp)
          to label %invoke.cont26 unwind label %lpad, !dbg !4153

invoke.cont26:                                    ; preds = %invoke.cont25
  call void @_ZN11xalanc_1_1011XalanVectorIcNS_31MemoryManagedConstructionTraitsIcEEED2Ev(%"class.xalanc_1_10::XalanVector.0"* %theTemp) #3, !dbg !4154
  br label %if.end56, !dbg !4155

lpad:                                             ; preds = %invoke.cont25, %invoke.cont23, %invoke.cont21, %invoke.cont20, %invoke.cont18, %invoke.cont17, %invoke.cont15, %invoke.cont, %if.then12
  %21 = landingpad { i8*, i32 }
          cleanup, !dbg !4156
  %22 = extractvalue { i8*, i32 } %21, 0, !dbg !4156
  store i8* %22, i8** %exn.slot, align 8, !dbg !4156
  %23 = extractvalue { i8*, i32 } %21, 1, !dbg !4156
  store i32 %23, i32* %ehselector.slot, align 4, !dbg !4156
  call void @_ZN11xalanc_1_1011XalanVectorIcNS_31MemoryManagedConstructionTraitsIcEEED2Ev(%"class.xalanc_1_10::XalanVector.0"* %theTemp) #3, !dbg !4154
  br label %eh.resume, !dbg !4154

if.else27:                                        ; preds = %if.else
  call void @llvm.dbg.declare(metadata i8** %theOriginalEnd, metadata !4157, metadata !DIExpression()), !dbg !4160
  %call28 = call i8* @_ZN11xalanc_1_1011XalanVectorIcNS_31MemoryManagedConstructionTraitsIcEEE3endEv(%"class.xalanc_1_10::XalanVector.0"* %this1), !dbg !4161
  store i8* %call28, i8** %theOriginalEnd, align 8, !dbg !4160
  call void @llvm.dbg.declare(metadata i64* %theRightSplitSize, metadata !4162, metadata !DIExpression()), !dbg !4163
  %24 = load i8*, i8** %thePosition.addr, align 8, !dbg !4164
  %25 = load i8*, i8** %theOriginalEnd, align 8, !dbg !4165
  %call29 = call i64 @_ZN11xalanc_1_1011XalanVectorIcNS_31MemoryManagedConstructionTraitsIcEEE14local_distanceEPKcS5_(%"class.xalanc_1_10::XalanVector.0"* %this1, i8* %24, i8* %25), !dbg !4166
  store i64 %call29, i64* %theRightSplitSize, align 8, !dbg !4163
  %26 = load i64, i64* %theRightSplitSize, align 8, !dbg !4167
  %27 = load i64, i64* %theInsertSize, align 8, !dbg !4169
  %cmp30 = icmp ule i64 %26, %27, !dbg !4170
  br i1 %cmp30, label %if.then31, label %if.else43, !dbg !4171

if.then31:                                        ; preds = %if.else27
  call void @llvm.dbg.declare(metadata i8** %toInsertSplit, metadata !4172, metadata !DIExpression()), !dbg !4175
  %28 = load i8*, i8** %theFirst.addr, align 8, !dbg !4176
  %29 = load i64, i64* %theRightSplitSize, align 8, !dbg !4177
  %add.ptr = getelementptr inbounds i8, i8* %28, i64 %29, !dbg !4178
  store i8* %add.ptr, i8** %toInsertSplit, align 8, !dbg !4175
  call void @llvm.dbg.declare(metadata i8** %toInsertIter, metadata !4179, metadata !DIExpression()), !dbg !4180
  %30 = load i8*, i8** %toInsertSplit, align 8, !dbg !4181
  store i8* %30, i8** %toInsertIter, align 8, !dbg !4180
  br label %while.cond32, !dbg !4182

while.cond32:                                     ; preds = %while.body34, %if.then31
  %31 = load i8*, i8** %toInsertIter, align 8, !dbg !4183
  %32 = load i8*, i8** %theLast.addr, align 8, !dbg !4184
  %cmp33 = icmp ne i8* %31, %32, !dbg !4185
  br i1 %cmp33, label %while.body34, label %while.end36, !dbg !4182

while.body34:                                     ; preds = %while.cond32
  %33 = load i8*, i8** %toInsertIter, align 8, !dbg !4186
  call void @_ZN11xalanc_1_1011XalanVectorIcNS_31MemoryManagedConstructionTraitsIcEEE10doPushBackERKc(%"class.xalanc_1_10::XalanVector.0"* %this1, i8* dereferenceable(1) %33), !dbg !4188
  %34 = load i8*, i8** %toInsertIter, align 8, !dbg !4189
  %incdec.ptr35 = getelementptr inbounds i8, i8* %34, i32 1, !dbg !4189
  store i8* %incdec.ptr35, i8** %toInsertIter, align 8, !dbg !4189
  br label %while.cond32, !dbg !4182, !llvm.loop !4190

while.end36:                                      ; preds = %while.cond32
  %35 = load i8*, i8** %thePosition.addr, align 8, !dbg !4192
  store i8* %35, i8** %toInsertIter, align 8, !dbg !4193
  br label %while.cond37, !dbg !4194

while.cond37:                                     ; preds = %while.body39, %while.end36
  %36 = load i8*, i8** %toInsertIter, align 8, !dbg !4195
  %37 = load i8*, i8** %theOriginalEnd, align 8, !dbg !4196
  %cmp38 = icmp ne i8* %36, %37, !dbg !4197
  br i1 %cmp38, label %while.body39, label %while.end41, !dbg !4194

while.body39:                                     ; preds = %while.cond37
  %38 = load i8*, i8** %toInsertIter, align 8, !dbg !4198
  call void @_ZN11xalanc_1_1011XalanVectorIcNS_31MemoryManagedConstructionTraitsIcEEE10doPushBackERKc(%"class.xalanc_1_10::XalanVector.0"* %this1, i8* dereferenceable(1) %38), !dbg !4200
  %39 = load i8*, i8** %toInsertIter, align 8, !dbg !4201
  %incdec.ptr40 = getelementptr inbounds i8, i8* %39, i32 1, !dbg !4201
  store i8* %incdec.ptr40, i8** %toInsertIter, align 8, !dbg !4201
  br label %while.cond37, !dbg !4194, !llvm.loop !4202

while.end41:                                      ; preds = %while.cond37
  %40 = load i8*, i8** %theFirst.addr, align 8, !dbg !4204
  %41 = load i8*, i8** %toInsertSplit, align 8, !dbg !4205
  %42 = load i8*, i8** %thePosition.addr, align 8, !dbg !4206
  %call42 = call i8* @_ZSt4copyIPKcPcET0_T_S4_S3_(i8* %40, i8* %41, i8* %42), !dbg !4207
  br label %if.end55, !dbg !4208

if.else43:                                        ; preds = %if.else27
  call void @llvm.dbg.declare(metadata i8** %toMoveIter, metadata !4209, metadata !DIExpression()), !dbg !4211
  %call44 = call i8* @_ZN11xalanc_1_1011XalanVectorIcNS_31MemoryManagedConstructionTraitsIcEEE3endEv(%"class.xalanc_1_10::XalanVector.0"* %this1), !dbg !4212
  %43 = load i64, i64* %theInsertSize, align 8, !dbg !4213
  %idx.neg = sub i64 0, %43, !dbg !4214
  %add.ptr45 = getelementptr inbounds i8, i8* %call44, i64 %idx.neg, !dbg !4214
  store i8* %add.ptr45, i8** %toMoveIter, align 8, !dbg !4211
  br label %while.cond46, !dbg !4215

while.cond46:                                     ; preds = %while.body48, %if.else43
  %44 = load i8*, i8** %toMoveIter, align 8, !dbg !4216
  %45 = load i8*, i8** %theOriginalEnd, align 8, !dbg !4217
  %cmp47 = icmp ne i8* %44, %45, !dbg !4218
  br i1 %cmp47, label %while.body48, label %while.end50, !dbg !4215

while.body48:                                     ; preds = %while.cond46
  %46 = load i8*, i8** %toMoveIter, align 8, !dbg !4219
  call void @_ZN11xalanc_1_1011XalanVectorIcNS_31MemoryManagedConstructionTraitsIcEEE10doPushBackERKc(%"class.xalanc_1_10::XalanVector.0"* %this1, i8* dereferenceable(1) %46), !dbg !4221
  %47 = load i8*, i8** %toMoveIter, align 8, !dbg !4222
  %incdec.ptr49 = getelementptr inbounds i8, i8* %47, i32 1, !dbg !4222
  store i8* %incdec.ptr49, i8** %toMoveIter, align 8, !dbg !4222
  br label %while.cond46, !dbg !4215, !llvm.loop !4223

while.end50:                                      ; preds = %while.cond46
  %48 = load i8*, i8** %thePosition.addr, align 8, !dbg !4225
  %49 = load i8*, i8** %theOriginalEnd, align 8, !dbg !4226
  %50 = load i64, i64* %theInsertSize, align 8, !dbg !4227
  %idx.neg51 = sub i64 0, %50, !dbg !4228
  %add.ptr52 = getelementptr inbounds i8, i8* %49, i64 %idx.neg51, !dbg !4228
  %51 = load i8*, i8** %theOriginalEnd, align 8, !dbg !4229
  %call53 = call i8* @_ZSt13copy_backwardIPcS0_ET0_T_S2_S1_(i8* %48, i8* %add.ptr52, i8* %51), !dbg !4230
  %52 = load i8*, i8** %theFirst.addr, align 8, !dbg !4231
  %53 = load i8*, i8** %theLast.addr, align 8, !dbg !4232
  %54 = load i8*, i8** %thePosition.addr, align 8, !dbg !4233
  %call54 = call i8* @_ZSt4copyIPKcPcET0_T_S4_S3_(i8* %52, i8* %53, i8* %54), !dbg !4234
  br label %if.end55

if.end55:                                         ; preds = %while.end50, %while.end41
  br label %if.end56

if.end56:                                         ; preds = %if.end55, %invoke.cont26
  br label %if.end57

if.end57:                                         ; preds = %if.end56, %while.end
  call void @_ZNK11xalanc_1_1011XalanVectorIcNS_31MemoryManagedConstructionTraitsIcEEE10invariantsEv(%"class.xalanc_1_10::XalanVector.0"* %this1), !dbg !4235
  br label %return, !dbg !4236

return:                                           ; preds = %if.end57, %if.then
  ret void, !dbg !4236

eh.resume:                                        ; preds = %lpad
  %exn = load i8*, i8** %exn.slot, align 8, !dbg !4154
  %sel = load i32, i32* %ehselector.slot, align 4, !dbg !4154
  %lpad.val = insertvalue { i8*, i32 } undef, i8* %exn, 0, !dbg !4154
  %lpad.val58 = insertvalue { i8*, i32 } %lpad.val, i32 %sel, 1, !dbg !4154
  resume { i8*, i32 } %lpad.val58, !dbg !4154
}

; Function Attrs: noinline nounwind uwtable
define linkonce_odr dso_local i8* @_ZN11xalanc_1_1011XalanVectorIcNS_31MemoryManagedConstructionTraitsIcEEE3endEv(%"class.xalanc_1_10::XalanVector.0"* %this) #5 comdat align 2 !dbg !4237 {
entry:
  %this.addr = alloca %"class.xalanc_1_10::XalanVector.0"*, align 8
  store %"class.xalanc_1_10::XalanVector.0"* %this, %"class.xalanc_1_10::XalanVector.0"** %this.addr, align 8
  call void @llvm.dbg.declare(metadata %"class.xalanc_1_10::XalanVector.0"** %this.addr, metadata !4238, metadata !DIExpression()), !dbg !4239
  %this1 = load %"class.xalanc_1_10::XalanVector.0"*, %"class.xalanc_1_10::XalanVector.0"** %this.addr, align 8
  call void @_ZNK11xalanc_1_1011XalanVectorIcNS_31MemoryManagedConstructionTraitsIcEEE10invariantsEv(%"class.xalanc_1_10::XalanVector.0"* %this1), !dbg !4240
  %call = call i8* @_ZN11xalanc_1_1011XalanVectorIcNS_31MemoryManagedConstructionTraitsIcEEE10endPointerEv(%"class.xalanc_1_10::XalanVector.0"* %this1), !dbg !4241
  ret i8* %call, !dbg !4242
}

; Function Attrs: noinline uwtable
define dso_local i32 @_ZN11xalanc_1_1015WideStringToIntEPKt(i16* %theString) #0 !dbg !4243 {
entry:
  %theString.addr = alloca i16*, align 8
  store i16* %theString, i16** %theString.addr, align 8
  call void @llvm.dbg.declare(metadata i16** %theString.addr, metadata !4246, metadata !DIExpression()), !dbg !4247
  %0 = load i16*, i16** %theString.addr, align 8, !dbg !4248
  %call = call i32 @_ZN11xalanc_1_1020WideStringToIntegralIiEET_PKtS1_(i16* %0, i32 0), !dbg !4249
  ret i32 %call, !dbg !4250
}

; Function Attrs: noinline uwtable
define linkonce_odr dso_local i32 @_ZN11xalanc_1_1020WideStringToIntegralIiEET_PKtS1_(i16* %theString, i32 %0) #0 comdat !dbg !4251 {
entry:
  %retval = alloca i32, align 4
  %theString.addr = alloca i16*, align 8
  %.addr = alloca i32, align 4
  %theResult = alloca i32, align 4
  %isNegative = alloca i8, align 1
  store i16* %theString, i16** %theString.addr, align 8
  call void @llvm.dbg.declare(metadata i16** %theString.addr, metadata !4256, metadata !DIExpression()), !dbg !4257
  store i32 %0, i32* %.addr, align 4
  call void @llvm.dbg.declare(metadata i32* %.addr, metadata !4258, metadata !DIExpression()), !dbg !4259
  %1 = load i16*, i16** %theString.addr, align 8, !dbg !4260
  %cmp = icmp eq i16* %1, null, !dbg !4262
  br i1 %cmp, label %if.then, label %lor.lhs.false, !dbg !4263

lor.lhs.false:                                    ; preds = %entry
  %2 = load i16*, i16** %theString.addr, align 8, !dbg !4264
  %call = call zeroext i1 @_ZN11xalanc_1_1013DoubleSupport7isValidEPKt(i16* %2), !dbg !4265
  %conv = zext i1 %call to i32, !dbg !4265
  %cmp1 = icmp eq i32 %conv, 0, !dbg !4266
  br i1 %cmp1, label %if.then, label %if.else, !dbg !4267

if.then:                                          ; preds = %lor.lhs.false, %entry
  store i32 0, i32* %retval, align 4, !dbg !4268
  br label %return, !dbg !4268

if.else:                                          ; preds = %lor.lhs.false
  call void @llvm.dbg.declare(metadata i32* %theResult, metadata !4270, metadata !DIExpression()), !dbg !4272
  store i32 0, i32* %theResult, align 4, !dbg !4272
  br label %while.cond, !dbg !4273

while.cond:                                       ; preds = %while.body, %if.else
  %3 = load i16*, i16** %theString.addr, align 8, !dbg !4274
  %4 = load i16, i16* %3, align 2, !dbg !4275
  %call2 = call zeroext i1 @_ZN11xalanc_1_1015isXMLWhitespaceEt(i16 zeroext %4), !dbg !4276
  %conv3 = zext i1 %call2 to i32, !dbg !4276
  %cmp4 = icmp eq i32 %conv3, 1, !dbg !4277
  br i1 %cmp4, label %while.body, label %while.end, !dbg !4273

while.body:                                       ; preds = %while.cond
  %5 = load i16*, i16** %theString.addr, align 8, !dbg !4278
  %incdec.ptr = getelementptr inbounds i16, i16* %5, i32 1, !dbg !4278
  store i16* %incdec.ptr, i16** %theString.addr, align 8, !dbg !4278
  br label %while.cond, !dbg !4273, !llvm.loop !4280

while.end:                                        ; preds = %while.cond
  call void @llvm.dbg.declare(metadata i8* %isNegative, metadata !4282, metadata !DIExpression()), !dbg !4284
  %6 = load i16*, i16** %theString.addr, align 8, !dbg !4285
  %7 = load i16, i16* %6, align 2, !dbg !4286
  %conv5 = zext i16 %7 to i32, !dbg !4286
  %cmp6 = icmp eq i32 %conv5, 45, !dbg !4287
  %8 = zext i1 %cmp6 to i64, !dbg !4286
  %cond = select i1 %cmp6, i1 true, i1 false, !dbg !4286
  %frombool = zext i1 %cond to i8, !dbg !4284
  store i8 %frombool, i8* %isNegative, align 1, !dbg !4284
  %9 = load i8, i8* %isNegative, align 1, !dbg !4288
  %tobool = trunc i8 %9 to i1, !dbg !4288
  %conv7 = zext i1 %tobool to i32, !dbg !4288
  %cmp8 = icmp eq i32 %conv7, 1, !dbg !4290
  br i1 %cmp8, label %if.then9, label %if.end, !dbg !4291

if.then9:                                         ; preds = %while.end
  %10 = load i16*, i16** %theString.addr, align 8, !dbg !4292
  %incdec.ptr10 = getelementptr inbounds i16, i16* %10, i32 1, !dbg !4292
  store i16* %incdec.ptr10, i16** %theString.addr, align 8, !dbg !4292
  br label %if.end, !dbg !4294

if.end:                                           ; preds = %if.then9, %while.end
  br label %while.cond11, !dbg !4295

while.cond11:                                     ; preds = %if.end28, %if.end
  %11 = load i16*, i16** %theString.addr, align 8, !dbg !4296
  %12 = load i16, i16* %11, align 2, !dbg !4297
  %conv12 = zext i16 %12 to i32, !dbg !4297
  %cmp13 = icmp ne i32 %conv12, 0, !dbg !4298
  br i1 %cmp13, label %while.body14, label %while.end29, !dbg !4295

while.body14:                                     ; preds = %while.cond11
  %13 = load i16*, i16** %theString.addr, align 8, !dbg !4299
  %14 = load i16, i16* %13, align 2, !dbg !4302
  %conv15 = zext i16 %14 to i32, !dbg !4302
  %cmp16 = icmp sge i32 %conv15, 48, !dbg !4303
  br i1 %cmp16, label %land.lhs.true, label %if.else22, !dbg !4304

land.lhs.true:                                    ; preds = %while.body14
  %15 = load i16*, i16** %theString.addr, align 8, !dbg !4305
  %16 = load i16, i16* %15, align 2, !dbg !4306
  %conv17 = zext i16 %16 to i32, !dbg !4306
  %cmp18 = icmp sle i32 %conv17, 57, !dbg !4307
  br i1 %cmp18, label %if.then19, label %if.else22, !dbg !4308

if.then19:                                        ; preds = %land.lhs.true
  %17 = load i32, i32* %theResult, align 4, !dbg !4309
  %mul = mul nsw i32 %17, 10, !dbg !4309
  store i32 %mul, i32* %theResult, align 4, !dbg !4309
  %18 = load i16*, i16** %theString.addr, align 8, !dbg !4311
  %19 = load i16, i16* %18, align 2, !dbg !4312
  %conv20 = zext i16 %19 to i32, !dbg !4312
  %sub = sub nsw i32 %conv20, 48, !dbg !4313
  %20 = load i32, i32* %theResult, align 4, !dbg !4314
  %add = add nsw i32 %20, %sub, !dbg !4314
  store i32 %add, i32* %theResult, align 4, !dbg !4314
  %21 = load i16*, i16** %theString.addr, align 8, !dbg !4315
  %incdec.ptr21 = getelementptr inbounds i16, i16* %21, i32 1, !dbg !4315
  store i16* %incdec.ptr21, i16** %theString.addr, align 8, !dbg !4315
  br label %if.end28, !dbg !4316

if.else22:                                        ; preds = %land.lhs.true, %while.body14
  %22 = load i16*, i16** %theString.addr, align 8, !dbg !4317
  %23 = load i16, i16* %22, align 2, !dbg !4319
  %call23 = call zeroext i1 @_ZN11xalanc_1_1015isXMLWhitespaceEt(i16 zeroext %23), !dbg !4320
  %conv24 = zext i1 %call23 to i32, !dbg !4320
  %cmp25 = icmp eq i32 %conv24, 1, !dbg !4321
  br i1 %cmp25, label %if.then26, label %if.else27, !dbg !4322

if.then26:                                        ; preds = %if.else22
  br label %while.end29, !dbg !4323

if.else27:                                        ; preds = %if.else22
  store i32 0, i32* %retval, align 4, !dbg !4325
  br label %return, !dbg !4325

if.end28:                                         ; preds = %if.then19
  br label %while.cond11, !dbg !4295, !llvm.loop !4327

while.end29:                                      ; preds = %if.then26, %while.cond11
  %24 = load i8, i8* %isNegative, align 1, !dbg !4329
  %tobool30 = trunc i8 %24 to i1, !dbg !4329
  %conv31 = zext i1 %tobool30 to i32, !dbg !4329
  %cmp32 = icmp eq i32 %conv31, 1, !dbg !4330
  br i1 %cmp32, label %cond.true, label %cond.false, !dbg !4329

cond.true:                                        ; preds = %while.end29
  %25 = load i32, i32* %theResult, align 4, !dbg !4331
  %sub33 = sub nsw i32 0, %25, !dbg !4332
  br label %cond.end, !dbg !4329

cond.false:                                       ; preds = %while.end29
  %26 = load i32, i32* %theResult, align 4, !dbg !4333
  br label %cond.end, !dbg !4329

cond.end:                                         ; preds = %cond.false, %cond.true
  %cond34 = phi i32 [ %sub33, %cond.true ], [ %26, %cond.false ], !dbg !4329
  store i32 %cond34, i32* %retval, align 4, !dbg !4334
  br label %return, !dbg !4334

return:                                           ; preds = %cond.end, %if.else27, %if.then
  %27 = load i32, i32* %retval, align 4, !dbg !4335
  ret i32 %27, !dbg !4335
}

; Function Attrs: noinline uwtable
define dso_local i64 @_ZN11xalanc_1_1016WideStringToLongEPKt(i16* %theString) #0 !dbg !4336 {
entry:
  %theString.addr = alloca i16*, align 8
  store i16* %theString, i16** %theString.addr, align 8
  call void @llvm.dbg.declare(metadata i16** %theString.addr, metadata !4339, metadata !DIExpression()), !dbg !4340
  %0 = load i16*, i16** %theString.addr, align 8, !dbg !4341
  %call = call i64 @_ZN11xalanc_1_1020WideStringToIntegralIlEET_PKtS1_(i16* %0, i64 0), !dbg !4342
  ret i64 %call, !dbg !4343
}

; Function Attrs: noinline uwtable
define linkonce_odr dso_local i64 @_ZN11xalanc_1_1020WideStringToIntegralIlEET_PKtS1_(i16* %theString, i64 %0) #0 comdat !dbg !4344 {
entry:
  %retval = alloca i64, align 8
  %theString.addr = alloca i16*, align 8
  %.addr = alloca i64, align 8
  %theResult = alloca i64, align 8
  %isNegative = alloca i8, align 1
  store i16* %theString, i16** %theString.addr, align 8
  call void @llvm.dbg.declare(metadata i16** %theString.addr, metadata !4349, metadata !DIExpression()), !dbg !4350
  store i64 %0, i64* %.addr, align 8
  call void @llvm.dbg.declare(metadata i64* %.addr, metadata !4351, metadata !DIExpression()), !dbg !4352
  %1 = load i16*, i16** %theString.addr, align 8, !dbg !4353
  %cmp = icmp eq i16* %1, null, !dbg !4355
  br i1 %cmp, label %if.then, label %lor.lhs.false, !dbg !4356

lor.lhs.false:                                    ; preds = %entry
  %2 = load i16*, i16** %theString.addr, align 8, !dbg !4357
  %call = call zeroext i1 @_ZN11xalanc_1_1013DoubleSupport7isValidEPKt(i16* %2), !dbg !4358
  %conv = zext i1 %call to i32, !dbg !4358
  %cmp1 = icmp eq i32 %conv, 0, !dbg !4359
  br i1 %cmp1, label %if.then, label %if.else, !dbg !4360

if.then:                                          ; preds = %lor.lhs.false, %entry
  store i64 0, i64* %retval, align 8, !dbg !4361
  br label %return, !dbg !4361

if.else:                                          ; preds = %lor.lhs.false
  call void @llvm.dbg.declare(metadata i64* %theResult, metadata !4363, metadata !DIExpression()), !dbg !4365
  store i64 0, i64* %theResult, align 8, !dbg !4365
  br label %while.cond, !dbg !4366

while.cond:                                       ; preds = %while.body, %if.else
  %3 = load i16*, i16** %theString.addr, align 8, !dbg !4367
  %4 = load i16, i16* %3, align 2, !dbg !4368
  %call2 = call zeroext i1 @_ZN11xalanc_1_1015isXMLWhitespaceEt(i16 zeroext %4), !dbg !4369
  %conv3 = zext i1 %call2 to i32, !dbg !4369
  %cmp4 = icmp eq i32 %conv3, 1, !dbg !4370
  br i1 %cmp4, label %while.body, label %while.end, !dbg !4366

while.body:                                       ; preds = %while.cond
  %5 = load i16*, i16** %theString.addr, align 8, !dbg !4371
  %incdec.ptr = getelementptr inbounds i16, i16* %5, i32 1, !dbg !4371
  store i16* %incdec.ptr, i16** %theString.addr, align 8, !dbg !4371
  br label %while.cond, !dbg !4366, !llvm.loop !4373

while.end:                                        ; preds = %while.cond
  call void @llvm.dbg.declare(metadata i8* %isNegative, metadata !4375, metadata !DIExpression()), !dbg !4376
  %6 = load i16*, i16** %theString.addr, align 8, !dbg !4377
  %7 = load i16, i16* %6, align 2, !dbg !4378
  %conv5 = zext i16 %7 to i32, !dbg !4378
  %cmp6 = icmp eq i32 %conv5, 45, !dbg !4379
  %8 = zext i1 %cmp6 to i64, !dbg !4378
  %cond = select i1 %cmp6, i1 true, i1 false, !dbg !4378
  %frombool = zext i1 %cond to i8, !dbg !4376
  store i8 %frombool, i8* %isNegative, align 1, !dbg !4376
  %9 = load i8, i8* %isNegative, align 1, !dbg !4380
  %tobool = trunc i8 %9 to i1, !dbg !4380
  %conv7 = zext i1 %tobool to i32, !dbg !4380
  %cmp8 = icmp eq i32 %conv7, 1, !dbg !4382
  br i1 %cmp8, label %if.then9, label %if.end, !dbg !4383

if.then9:                                         ; preds = %while.end
  %10 = load i16*, i16** %theString.addr, align 8, !dbg !4384
  %incdec.ptr10 = getelementptr inbounds i16, i16* %10, i32 1, !dbg !4384
  store i16* %incdec.ptr10, i16** %theString.addr, align 8, !dbg !4384
  br label %if.end, !dbg !4386

if.end:                                           ; preds = %if.then9, %while.end
  br label %while.cond11, !dbg !4387

while.cond11:                                     ; preds = %if.end29, %if.end
  %11 = load i16*, i16** %theString.addr, align 8, !dbg !4388
  %12 = load i16, i16* %11, align 2, !dbg !4389
  %conv12 = zext i16 %12 to i32, !dbg !4389
  %cmp13 = icmp ne i32 %conv12, 0, !dbg !4390
  br i1 %cmp13, label %while.body14, label %while.end30, !dbg !4387

while.body14:                                     ; preds = %while.cond11
  %13 = load i16*, i16** %theString.addr, align 8, !dbg !4391
  %14 = load i16, i16* %13, align 2, !dbg !4394
  %conv15 = zext i16 %14 to i32, !dbg !4394
  %cmp16 = icmp sge i32 %conv15, 48, !dbg !4395
  br i1 %cmp16, label %land.lhs.true, label %if.else23, !dbg !4396

land.lhs.true:                                    ; preds = %while.body14
  %15 = load i16*, i16** %theString.addr, align 8, !dbg !4397
  %16 = load i16, i16* %15, align 2, !dbg !4398
  %conv17 = zext i16 %16 to i32, !dbg !4398
  %cmp18 = icmp sle i32 %conv17, 57, !dbg !4399
  br i1 %cmp18, label %if.then19, label %if.else23, !dbg !4400

if.then19:                                        ; preds = %land.lhs.true
  %17 = load i64, i64* %theResult, align 8, !dbg !4401
  %mul = mul nsw i64 %17, 10, !dbg !4401
  store i64 %mul, i64* %theResult, align 8, !dbg !4401
  %18 = load i16*, i16** %theString.addr, align 8, !dbg !4403
  %19 = load i16, i16* %18, align 2, !dbg !4404
  %conv20 = zext i16 %19 to i32, !dbg !4404
  %sub = sub nsw i32 %conv20, 48, !dbg !4405
  %conv21 = sext i32 %sub to i64, !dbg !4404
  %20 = load i64, i64* %theResult, align 8, !dbg !4406
  %add = add nsw i64 %20, %conv21, !dbg !4406
  store i64 %add, i64* %theResult, align 8, !dbg !4406
  %21 = load i16*, i16** %theString.addr, align 8, !dbg !4407
  %incdec.ptr22 = getelementptr inbounds i16, i16* %21, i32 1, !dbg !4407
  store i16* %incdec.ptr22, i16** %theString.addr, align 8, !dbg !4407
  br label %if.end29, !dbg !4408

if.else23:                                        ; preds = %land.lhs.true, %while.body14
  %22 = load i16*, i16** %theString.addr, align 8, !dbg !4409
  %23 = load i16, i16* %22, align 2, !dbg !4411
  %call24 = call zeroext i1 @_ZN11xalanc_1_1015isXMLWhitespaceEt(i16 zeroext %23), !dbg !4412
  %conv25 = zext i1 %call24 to i32, !dbg !4412
  %cmp26 = icmp eq i32 %conv25, 1, !dbg !4413
  br i1 %cmp26, label %if.then27, label %if.else28, !dbg !4414

if.then27:                                        ; preds = %if.else23
  br label %while.end30, !dbg !4415

if.else28:                                        ; preds = %if.else23
  store i64 0, i64* %retval, align 8, !dbg !4417
  br label %return, !dbg !4417

if.end29:                                         ; preds = %if.then19
  br label %while.cond11, !dbg !4387, !llvm.loop !4419

while.end30:                                      ; preds = %if.then27, %while.cond11
  %24 = load i8, i8* %isNegative, align 1, !dbg !4421
  %tobool31 = trunc i8 %24 to i1, !dbg !4421
  %conv32 = zext i1 %tobool31 to i32, !dbg !4421
  %cmp33 = icmp eq i32 %conv32, 1, !dbg !4422
  br i1 %cmp33, label %cond.true, label %cond.false, !dbg !4421

cond.true:                                        ; preds = %while.end30
  %25 = load i64, i64* %theResult, align 8, !dbg !4423
  %sub34 = sub nsw i64 0, %25, !dbg !4424
  br label %cond.end, !dbg !4421

cond.false:                                       ; preds = %while.end30
  %26 = load i64, i64* %theResult, align 8, !dbg !4425
  br label %cond.end, !dbg !4421

cond.end:                                         ; preds = %cond.false, %cond.true
  %cond35 = phi i64 [ %sub34, %cond.true ], [ %26, %cond.false ], !dbg !4421
  store i64 %cond35, i64* %retval, align 8, !dbg !4426
  br label %return, !dbg !4426

return:                                           ; preds = %cond.end, %if.else28, %if.then
  %27 = load i64, i64* %retval, align 8, !dbg !4427
  ret i64 %27, !dbg !4427
}

; Function Attrs: noinline uwtable
define dso_local i64 @_ZN11xalanc_1_1024WideStringToUnsignedLongEPKt(i16* %theString) #0 !dbg !4428 {
entry:
  %theString.addr = alloca i16*, align 8
  store i16* %theString, i16** %theString.addr, align 8
  call void @llvm.dbg.declare(metadata i16** %theString.addr, metadata !4431, metadata !DIExpression()), !dbg !4432
  %0 = load i16*, i16** %theString.addr, align 8, !dbg !4433
  %call = call i64 @_ZN11xalanc_1_1020WideStringToIntegralImEET_PKtS1_(i16* %0, i64 0), !dbg !4434
  ret i64 %call, !dbg !4435
}

; Function Attrs: noinline uwtable
define linkonce_odr dso_local i64 @_ZN11xalanc_1_1020WideStringToIntegralImEET_PKtS1_(i16* %theString, i64 %0) #0 comdat !dbg !4436 {
entry:
  %retval = alloca i64, align 8
  %theString.addr = alloca i16*, align 8
  %.addr = alloca i64, align 8
  %theResult = alloca i64, align 8
  %isNegative = alloca i8, align 1
  store i16* %theString, i16** %theString.addr, align 8
  call void @llvm.dbg.declare(metadata i16** %theString.addr, metadata !4441, metadata !DIExpression()), !dbg !4442
  store i64 %0, i64* %.addr, align 8
  call void @llvm.dbg.declare(metadata i64* %.addr, metadata !4443, metadata !DIExpression()), !dbg !4444
  %1 = load i16*, i16** %theString.addr, align 8, !dbg !4445
  %cmp = icmp eq i16* %1, null, !dbg !4447
  br i1 %cmp, label %if.then, label %lor.lhs.false, !dbg !4448

lor.lhs.false:                                    ; preds = %entry
  %2 = load i16*, i16** %theString.addr, align 8, !dbg !4449
  %call = call zeroext i1 @_ZN11xalanc_1_1013DoubleSupport7isValidEPKt(i16* %2), !dbg !4450
  %conv = zext i1 %call to i32, !dbg !4450
  %cmp1 = icmp eq i32 %conv, 0, !dbg !4451
  br i1 %cmp1, label %if.then, label %if.else, !dbg !4452

if.then:                                          ; preds = %lor.lhs.false, %entry
  store i64 0, i64* %retval, align 8, !dbg !4453
  br label %return, !dbg !4453

if.else:                                          ; preds = %lor.lhs.false
  call void @llvm.dbg.declare(metadata i64* %theResult, metadata !4455, metadata !DIExpression()), !dbg !4457
  store i64 0, i64* %theResult, align 8, !dbg !4457
  br label %while.cond, !dbg !4458

while.cond:                                       ; preds = %while.body, %if.else
  %3 = load i16*, i16** %theString.addr, align 8, !dbg !4459
  %4 = load i16, i16* %3, align 2, !dbg !4460
  %call2 = call zeroext i1 @_ZN11xalanc_1_1015isXMLWhitespaceEt(i16 zeroext %4), !dbg !4461
  %conv3 = zext i1 %call2 to i32, !dbg !4461
  %cmp4 = icmp eq i32 %conv3, 1, !dbg !4462
