; ModuleID = 'AbstractStringValidator.cpp'
source_filename = "AbstractStringValidator.cpp"
target datalayout = "e-m:e-p270:32:32-p271:32:32-p272:64:64-i64:64-f80:128-n8:16:32:64-S128"
target triple = "x86_64-unknown-linux-gnu"

%"class.xercesc_2_7::XProtoType" = type { i8*, %"class.xercesc_2_7::XSerializable"* (%"class.xercesc_2_7::MemoryManager"*)* }
%"class.xercesc_2_7::XSerializable" = type { i32 (...)** }
%"class.xercesc_2_7::MemoryManager" = type { i32 (...)** }
%"class.xercesc_2_7::AbstractStringValidator" = type { %"class.xercesc_2_7::DatatypeValidator", i32, i32, i32, i8, %"class.xercesc_2_7::RefArrayVectorOf"* }
%"class.xercesc_2_7::DatatypeValidator" = type { %"class.xercesc_2_7::XSerializable", i8, i8, i8, i8, i16, i32, i32, i32, i32, i32, %"class.xercesc_2_7::DatatypeValidator"*, %"class.xercesc_2_7::RefHashTableOf.0"*, i16*, %"class.xercesc_2_7::RegularExpression"*, i16*, i16*, i16*, %"class.xercesc_2_7::MemoryManager"* }
%"class.xercesc_2_7::RefHashTableOf.0" = type { %"class.xercesc_2_7::MemoryManager"*, i8, %"struct.xercesc_2_7::RefHashTableBucketElem.3"**, i32, i32, i32, %"class.xercesc_2_7::HashBase"* }
%"struct.xercesc_2_7::RefHashTableBucketElem.3" = type { %"class.xercesc_2_7::KVStringPair"*, %"struct.xercesc_2_7::RefHashTableBucketElem.3"*, i8* }
%"class.xercesc_2_7::KVStringPair" = type { %"class.xercesc_2_7::XSerializable", i64, i64, i16*, i16*, %"class.xercesc_2_7::MemoryManager"* }
%"class.xercesc_2_7::HashBase" = type { i32 (...)** }
%"class.xercesc_2_7::RegularExpression" = type { i8, i8, i32, i32, i32, i32, %"class.xercesc_2_7::BMPattern"*, i16*, i16*, %"class.xercesc_2_7::Op"*, %"class.xercesc_2_7::Token"*, %"class.xercesc_2_7::RangeToken"*, %"class.xercesc_2_7::OpFactory", %"class.xercesc_2_7::TokenFactory"*, %"class.xercesc_2_7::MemoryManager"* }
%"class.xercesc_2_7::BMPattern" = type { i8, i32, i32*, i16*, i16*, %"class.xercesc_2_7::MemoryManager"* }
%"class.xercesc_2_7::Op" = type { i32 (...)**, %"class.xercesc_2_7::MemoryManager"*, i16, %"class.xercesc_2_7::Op"* }
%"class.xercesc_2_7::Token" = type { i32 (...)**, i16, %"class.xercesc_2_7::MemoryManager"* }
%"class.xercesc_2_7::RangeToken" = type opaque
%"class.xercesc_2_7::OpFactory" = type { %"class.xercesc_2_7::RefVectorOf"*, %"class.xercesc_2_7::MemoryManager"* }
%"class.xercesc_2_7::RefVectorOf" = type { %"class.xercesc_2_7::BaseRefVectorOf" }
%"class.xercesc_2_7::BaseRefVectorOf" = type { i32 (...)**, i8, i32, i32, %"class.xercesc_2_7::Op"**, %"class.xercesc_2_7::MemoryManager"* }
%"class.xercesc_2_7::TokenFactory" = type { %"class.xercesc_2_7::RefVectorOf.1"*, %"class.xercesc_2_7::Token"*, %"class.xercesc_2_7::Token"*, %"class.xercesc_2_7::Token"*, %"class.xercesc_2_7::Token"*, %"class.xercesc_2_7::Token"*, %"class.xercesc_2_7::Token"*, %"class.xercesc_2_7::Token"*, %"class.xercesc_2_7::Token"*, %"class.xercesc_2_7::Token"*, %"class.xercesc_2_7::Token"*, %"class.xercesc_2_7::Token"*, %"class.xercesc_2_7::Token"*, %"class.xercesc_2_7::Token"*, %"class.xercesc_2_7::Token"*, %"class.xercesc_2_7::MemoryManager"* }
%"class.xercesc_2_7::RefVectorOf.1" = type opaque
%"class.xercesc_2_7::RefArrayVectorOf" = type { %"class.xercesc_2_7::BaseRefVectorOf.2" }
%"class.xercesc_2_7::BaseRefVectorOf.2" = type { i32 (...)**, i8, i32, i32, i16**, %"class.xercesc_2_7::MemoryManager"* }
%"class.xercesc_2_7::XMLDeleter" = type { i32 (...)** }
%"class.xercesc_2_7::XMLRefInfo" = type { %"class.xercesc_2_7::XSerializable", i8, i8, i16*, %"class.xercesc_2_7::MemoryManager"* }
%"class.xercesc_2_7::XMLAttDefList" = type { %"class.xercesc_2_7::XSerializable", %"class.xercesc_2_7::MemoryManager"* }
%"class.xercesc_2_7::ContentSpecNode" = type { %"class.xercesc_2_7::XSerializable", %"class.xercesc_2_7::MemoryManager"*, %"class.xercesc_2_7::QName"*, %"class.xercesc_2_7::XMLElementDecl"*, %"class.xercesc_2_7::ContentSpecNode"*, %"class.xercesc_2_7::ContentSpecNode"*, i32, i8, i8, i32, i32 }
%"class.xercesc_2_7::QName" = type { %"class.xercesc_2_7::XSerializable", i32, i32, i32, i32, i16*, i16*, i16*, %"class.xercesc_2_7::MemoryManager"* }
%"class.xercesc_2_7::XMLElementDecl" = type <{ %"class.xercesc_2_7::XSerializable", %"class.xercesc_2_7::MemoryManager"*, %"class.xercesc_2_7::QName"*, i32, i32, i8, [7 x i8] }>
%"class.xercesc_2_7::XMLEntityDecl" = type { %"class.xercesc_2_7::XSerializable", i32, i32, i16*, i16*, i16*, i16*, i16*, i16*, %"class.xercesc_2_7::MemoryManager"* }
%"class.xercesc_2_7::DTDEntityDecl" = type <{ %"class.xercesc_2_7::XMLEntityDecl", i8, i8, i8, [5 x i8] }>
%"class.xercesc_2_7::XPathScanner" = type { i32 (...)**, i32, i32, i32, i32, i32, i32, i32, i32, i32, i32, i32, i32, i32, i32, i32, i32, i32, i32, i32, i32, i32, %"class.xercesc_2_7::XMLStringPool"* }
%"class.xercesc_2_7::XMLStringPool" = type { %"class.xercesc_2_7::XSerializable", %"class.xercesc_2_7::MemoryManager"*, %"struct.xercesc_2_7::XMLStringPool::PoolElem"**, %"class.xercesc_2_7::RefHashTableOf"*, i32, i32 }
%"struct.xercesc_2_7::XMLStringPool::PoolElem" = type { i32, i16* }
%"class.xercesc_2_7::RefHashTableOf" = type { %"class.xercesc_2_7::MemoryManager"*, i8, %"struct.xercesc_2_7::RefHashTableBucketElem"**, i32, i32, i32, %"class.xercesc_2_7::HashBase"* }
%"struct.xercesc_2_7::RefHashTableBucketElem" = type { %"struct.xercesc_2_7::XMLStringPool::PoolElem"*, %"struct.xercesc_2_7::RefHashTableBucketElem"*, i8* }
%"class.xercesc_2_7::ValueVectorOf" = type { i8, i32, i32, i32*, %"class.xercesc_2_7::MemoryManager"* }
%"class.xercesc_2_7::RefHashTableOfEnumerator" = type { %"class.xercesc_2_7::XMLEnumerator", i8, %"struct.xercesc_2_7::RefHashTableBucketElem.3"*, i32, %"class.xercesc_2_7::RefHashTableOf.0"*, %"class.xercesc_2_7::MemoryManager"* }
%"class.xercesc_2_7::XMLEnumerator" = type { i32 (...)** }
%"class.xercesc_2_7::NumberFormatException" = type { %"class.xercesc_2_7::XMLException" }
%"class.xercesc_2_7::XMLException" = type { i32 (...)**, i32, i8*, i32, i16*, %"class.xercesc_2_7::MemoryManager"* }
%"class.xercesc_2_7::RuntimeException" = type { %"class.xercesc_2_7::XMLException" }
%"class.xercesc_2_7::InvalidDatatypeFacetException" = type { %"class.xercesc_2_7::XMLException" }
%"class.xercesc_2_7::XMemory" = type { i8 }
%"class.xercesc_2_7::NullPointerException" = type { %"class.xercesc_2_7::XMLException" }
%"class.xercesc_2_7::NoSuchElementException" = type { %"class.xercesc_2_7::XMLException" }
%"class.xercesc_2_7::ValidationContext" = type { i32 (...)**, %"class.xercesc_2_7::MemoryManager"* }
%"class.xercesc_2_7::ArrayIndexOutOfBoundsException" = type { %"class.xercesc_2_7::XMLException" }
%"class.xercesc_2_7::ArrayJanitor" = type { i16*, %"class.xercesc_2_7::MemoryManager"* }
%"class.xercesc_2_7::InvalidDatatypeValueException" = type { %"class.xercesc_2_7::XMLException" }
%"class.xercesc_2_7::XSerializeEngine" = type <{ i16, i16, [4 x i8], %"class.xercesc_2_7::XMLGrammarPool"*, %"class.xercesc_2_7::BinInputStream"*, %"class.xercesc_2_7::BinOutputStream"*, i64, i64, i8*, i8*, i8*, i8*, %"class.xercesc_2_7::RefHashTableOf.4"*, %"class.xercesc_2_7::ValueVectorOf.5"*, i32, [4 x i8] }>
%"class.xercesc_2_7::XMLGrammarPool" = type opaque
%"class.xercesc_2_7::BinInputStream" = type opaque
%"class.xercesc_2_7::BinOutputStream" = type opaque
%"class.xercesc_2_7::RefHashTableOf.4" = type opaque
%"class.xercesc_2_7::ValueVectorOf.5" = type opaque

$_ZN11xercesc_2_710XMLDeleterD0Ev = comdat any

$_ZN11xercesc_2_710XMLDeleterD2Ev = comdat any

$_ZN11xercesc_2_713XSerializableD2Ev = comdat any

$__clang_call_terminate = comdat any

$_ZN11xercesc_2_710XMLRefInfoD0Ev = comdat any

$_ZN11xercesc_2_710XMLRefInfoD2Ev = comdat any

$_ZN11xercesc_2_713XMLAttDefListD0Ev = comdat any

$_ZN11xercesc_2_715ContentSpecNodeD0Ev = comdat any

$_ZN11xercesc_2_715ContentSpecNodeD2Ev = comdat any

$_ZN11xercesc_2_713DTDEntityDeclD0Ev = comdat any

$_ZN11xercesc_2_713DTDEntityDeclD2Ev = comdat any

$_ZN11xercesc_2_712XPathScanner8addTokenEPNS_13ValueVectorOfIiEEi = comdat any

$_ZN11xercesc_2_713ValueVectorOfIiE10addElementERKi = comdat any

$_ZN11xercesc_2_723AbstractStringValidator14setEnumerationEPNS_16RefArrayVectorOfItEEb = comdat any

$_ZNK11xercesc_2_717DatatypeValidator9getFacetsEv = comdat any

$_ZN11xercesc_2_724RefHashTableOfEnumeratorINS_12KVStringPairEEC2EPNS_14RefHashTableOfIS1_EEbPNS_13MemoryManagerE = comdat any

$_ZNK11xercesc_2_724RefHashTableOfEnumeratorINS_12KVStringPairEE15hasMoreElementsEv = comdat any

$_ZN11xercesc_2_724RefHashTableOfEnumeratorINS_12KVStringPairEE11nextElementEv = comdat any

$_ZN11xercesc_2_712KVStringPair6getKeyEv = comdat any

$_ZN11xercesc_2_712KVStringPair8getValueEv = comdat any

$_ZN11xercesc_2_79XMLString6equalsEPKtS2_ = comdat any

$_ZN11xercesc_2_729InvalidDatatypeFacetExceptionC2EPKcjNS_10XMLExcepts5CodesEPKtS6_S6_S6_PNS_13MemoryManagerE = comdat any

$_ZN11xercesc_2_729InvalidDatatypeFacetExceptionD2Ev = comdat any

$_ZN11xercesc_2_723AbstractStringValidator9setLengthEj = comdat any

$_ZN11xercesc_2_717DatatypeValidator16setFacetsDefinedEi = comdat any

$_ZN11xercesc_2_723AbstractStringValidator12setMinLengthEj = comdat any

$_ZN11xercesc_2_723AbstractStringValidator12setMaxLengthEj = comdat any

$_ZN11xercesc_2_717DatatypeValidator10setPatternEPKt = comdat any

$_ZNK11xercesc_2_717DatatypeValidator10getPatternEv = comdat any

$_ZN11xercesc_2_729InvalidDatatypeFacetExceptionC2EPKcjNS_10XMLExcepts5CodesEPNS_13MemoryManagerE = comdat any

$_ZN11xercesc_2_717DatatypeValidator8setFixedEi = comdat any

$_ZN11xercesc_2_724RefHashTableOfEnumeratorINS_12KVStringPairEED2Ev = comdat any

$_ZNK11xercesc_2_717DatatypeValidator16getFacetsDefinedEv = comdat any

$_ZNK11xercesc_2_723AbstractStringValidator12getMinLengthEv = comdat any

$_ZNK11xercesc_2_723AbstractStringValidator12getMaxLengthEv = comdat any

$_ZNK11xercesc_2_717DatatypeValidator16getBaseValidatorEv = comdat any

$_ZNK11xercesc_2_723AbstractStringValidator9getLengthEv = comdat any

$_ZNK11xercesc_2_717DatatypeValidator8getFixedEv = comdat any

$_ZNK11xercesc_2_723AbstractStringValidator14getEnumerationEv = comdat any

$_ZNK11xercesc_2_715BaseRefVectorOfItE4sizeEv = comdat any

$_ZN11xercesc_2_715BaseRefVectorOfItE9elementAtEj = comdat any

$_ZNK11xercesc_2_717DatatypeValidator8getRegexEv = comdat any

$_ZN11xercesc_2_717DatatypeValidator8setRegexEPNS_17RegularExpressionE = comdat any

$_ZNK11xercesc_2_712XMLException10getMessageEv = comdat any

$_ZN11xercesc_2_729InvalidDatatypeValueExceptionC2EPKcjNS_10XMLExcepts5CodesEPKtS6_S6_S6_PNS_13MemoryManagerE = comdat any

$_ZN11xercesc_2_729InvalidDatatypeValueExceptionD2Ev = comdat any

$_ZN11xercesc_2_79XMLString9replicateEPKtPNS_13MemoryManagerE = comdat any

$_ZN11xercesc_2_712ArrayJanitorItEC2EPtPNS_13MemoryManagerE = comdat any

$_ZN11xercesc_2_712ArrayJanitorItED2Ev = comdat any

$_ZN11xercesc_2_79XMLString9stringLenEPKt = comdat any

$_ZNK11xercesc_2_716XSerializeEngine9isStoringEv = comdat any

$_ZN11xercesc_2_713XMLAttDefListD2Ev = comdat any

$_ZNK11xercesc_2_713DTDEntityDecl22getDeclaredInIntSubsetEv = comdat any

$_ZNK11xercesc_2_713DTDEntityDecl14getIsParameterEv = comdat any

$_ZNK11xercesc_2_713DTDEntityDecl16getIsSpecialCharEv = comdat any

$_ZN11xercesc_2_712XPathScannerD2Ev = comdat any

$_ZN11xercesc_2_712XPathScannerD0Ev = comdat any

$_ZNK11xercesc_2_717DatatypeValidator8isAtomicEv = comdat any

$_ZN11xercesc_2_717DatatypeValidator17isSubstitutableByEPKS0_ = comdat any

$_ZN11xercesc_2_729InvalidDatatypeFacetExceptionD0Ev = comdat any

$_ZNK11xercesc_2_729InvalidDatatypeFacetException7getTypeEv = comdat any

$_ZNK11xercesc_2_729InvalidDatatypeFacetException9duplicateEv = comdat any

$_ZN11xercesc_2_729InvalidDatatypeFacetExceptionC2ERKS0_ = comdat any

$_ZN11xercesc_2_729InvalidDatatypeValueExceptionD0Ev = comdat any

$_ZNK11xercesc_2_729InvalidDatatypeValueException7getTypeEv = comdat any

$_ZNK11xercesc_2_729InvalidDatatypeValueException9duplicateEv = comdat any

$_ZN11xercesc_2_729InvalidDatatypeValueExceptionC2ERKS0_ = comdat any

$_ZN11xercesc_2_713ValueVectorOfIiE19ensureExtraCapacityEj = comdat any

$_ZN11xercesc_2_713XMLEnumeratorINS_12KVStringPairEEC2Ev = comdat any

$_ZN11xercesc_2_77XMemoryC2Ev = comdat any

$_ZN11xercesc_2_720NullPointerExceptionC2EPKcjNS_10XMLExcepts5CodesEPNS_13MemoryManagerE = comdat any

$_ZN11xercesc_2_720NullPointerExceptionD2Ev = comdat any

$_ZN11xercesc_2_724RefHashTableOfEnumeratorINS_12KVStringPairEE8findNextEv = comdat any

$_ZN11xercesc_2_724RefHashTableOfEnumeratorINS_12KVStringPairEED0Ev = comdat any

$_ZN11xercesc_2_724RefHashTableOfEnumeratorINS_12KVStringPairEE5ResetEv = comdat any

$_ZN11xercesc_2_713XMLEnumeratorINS_12KVStringPairEED2Ev = comdat any

$_ZN11xercesc_2_713XMLEnumeratorINS_12KVStringPairEED0Ev = comdat any

$_ZN11xercesc_2_720NullPointerExceptionD0Ev = comdat any

$_ZNK11xercesc_2_720NullPointerException7getTypeEv = comdat any

$_ZNK11xercesc_2_720NullPointerException9duplicateEv = comdat any

$_ZN11xercesc_2_720NullPointerExceptionC2ERKS0_ = comdat any

$_ZN11xercesc_2_714RefHashTableOfINS_12KVStringPairEED2Ev = comdat any

$_ZN11xercesc_2_714RefHashTableOfINS_12KVStringPairEE7cleanupEv = comdat any

$_ZN11xercesc_2_714RefHashTableOfINS_12KVStringPairEE9removeAllEv = comdat any

$_ZNK11xercesc_2_714RefHashTableOfINS_12KVStringPairEE7isEmptyEv = comdat any

$_ZN11xercesc_2_722NoSuchElementExceptionC2EPKcjNS_10XMLExcepts5CodesEPNS_13MemoryManagerE = comdat any

$_ZN11xercesc_2_722NoSuchElementExceptionD2Ev = comdat any

$_ZN11xercesc_2_722NoSuchElementExceptionD0Ev = comdat any

$_ZNK11xercesc_2_722NoSuchElementException7getTypeEv = comdat any

$_ZNK11xercesc_2_722NoSuchElementException9duplicateEv = comdat any

$_ZN11xercesc_2_722NoSuchElementExceptionC2ERKS0_ = comdat any

$_ZN11xercesc_2_730ArrayIndexOutOfBoundsExceptionC2EPKcjNS_10XMLExcepts5CodesEPNS_13MemoryManagerE = comdat any

$_ZN11xercesc_2_730ArrayIndexOutOfBoundsExceptionD2Ev = comdat any

$_ZN11xercesc_2_730ArrayIndexOutOfBoundsExceptionD0Ev = comdat any

$_ZNK11xercesc_2_730ArrayIndexOutOfBoundsException7getTypeEv = comdat any

$_ZNK11xercesc_2_730ArrayIndexOutOfBoundsException9duplicateEv = comdat any

$_ZN11xercesc_2_730ArrayIndexOutOfBoundsExceptionC2ERKS0_ = comdat any

$_ZN11xercesc_2_712ArrayJanitorItE5resetEPt = comdat any

$_ZTVN11xercesc_2_710XMLRefInfoE = comdat any

$_ZTVN11xercesc_2_715ContentSpecNodeE = comdat any

$_ZTSN11xercesc_2_721NumberFormatExceptionE = comdat any

$_ZTIN11xercesc_2_721NumberFormatExceptionE = comdat any

$_ZTSN11xercesc_2_729InvalidDatatypeFacetExceptionE = comdat any

$_ZTIN11xercesc_2_729InvalidDatatypeFacetExceptionE = comdat any

$_ZTSN11xercesc_2_716RuntimeExceptionE = comdat any

$_ZTIN11xercesc_2_716RuntimeExceptionE = comdat any

$_ZTSN11xercesc_2_729InvalidDatatypeValueExceptionE = comdat any

$_ZTIN11xercesc_2_729InvalidDatatypeValueExceptionE = comdat any

$_ZTVN11xercesc_2_710XMLDeleterE = comdat any

$_ZTSN11xercesc_2_710XMLDeleterE = comdat any

$_ZTIN11xercesc_2_710XMLDeleterE = comdat any

$_ZTSN11xercesc_2_710XMLRefInfoE = comdat any

$_ZTSN11xercesc_2_713XSerializableE = comdat any

$_ZTIN11xercesc_2_713XSerializableE = comdat any

$_ZTSN11xercesc_2_77XMemoryE = comdat any

$_ZTIN11xercesc_2_77XMemoryE = comdat any

$_ZTIN11xercesc_2_710XMLRefInfoE = comdat any

$_ZTVN11xercesc_2_713XMLAttDefListE = comdat any

$_ZTSN11xercesc_2_713XMLAttDefListE = comdat any

$_ZTIN11xercesc_2_713XMLAttDefListE = comdat any

$_ZTSN11xercesc_2_715ContentSpecNodeE = comdat any

$_ZTIN11xercesc_2_715ContentSpecNodeE = comdat any

$_ZTVN11xercesc_2_713DTDEntityDeclE = comdat any

$_ZTSN11xercesc_2_713DTDEntityDeclE = comdat any

$_ZTIN11xercesc_2_713DTDEntityDeclE = comdat any

$_ZTVN11xercesc_2_712XPathScannerE = comdat any

$_ZTSN11xercesc_2_712XPathScannerE = comdat any

$_ZTIN11xercesc_2_712XPathScannerE = comdat any

$_ZTVN11xercesc_2_729InvalidDatatypeFacetExceptionE = comdat any

$_ZTVN11xercesc_2_729InvalidDatatypeValueExceptionE = comdat any

$_ZTVN11xercesc_2_724RefHashTableOfEnumeratorINS_12KVStringPairEEE = comdat any

$_ZTSN11xercesc_2_720NullPointerExceptionE = comdat any

$_ZTIN11xercesc_2_720NullPointerExceptionE = comdat any

$_ZTSN11xercesc_2_724RefHashTableOfEnumeratorINS_12KVStringPairEEE = comdat any

$_ZTSN11xercesc_2_713XMLEnumeratorINS_12KVStringPairEEE = comdat any

$_ZTIN11xercesc_2_713XMLEnumeratorINS_12KVStringPairEEE = comdat any

$_ZTIN11xercesc_2_724RefHashTableOfEnumeratorINS_12KVStringPairEEE = comdat any

$_ZTVN11xercesc_2_713XMLEnumeratorINS_12KVStringPairEEE = comdat any

$_ZTVN11xercesc_2_720NullPointerExceptionE = comdat any

$_ZTSN11xercesc_2_722NoSuchElementExceptionE = comdat any

$_ZTIN11xercesc_2_722NoSuchElementExceptionE = comdat any

$_ZTVN11xercesc_2_722NoSuchElementExceptionE = comdat any

$_ZTSN11xercesc_2_730ArrayIndexOutOfBoundsExceptionE = comdat any

$_ZTIN11xercesc_2_730ArrayIndexOutOfBoundsExceptionE = comdat any

$_ZTVN11xercesc_2_730ArrayIndexOutOfBoundsExceptionE = comdat any

@_ZTVN11xercesc_2_710XMLRefInfoE = linkonce_odr dso_local unnamed_addr constant { [7 x i8*] } { [7 x i8*] [i8* null, i8* bitcast ({ i8*, i8*, i32, i32, i8*, i64, i8*, i64 }* @_ZTIN11xercesc_2_710XMLRefInfoE to i8*), i8* bitcast (void (%"class.xercesc_2_7::XMLRefInfo"*)* @_ZN11xercesc_2_710XMLRefInfoD2Ev to i8*), i8* bitcast (void (%"class.xercesc_2_7::XMLRefInfo"*)* @_ZN11xercesc_2_710XMLRefInfoD0Ev to i8*), i8* bitcast (i1 (%"class.xercesc_2_7::XMLRefInfo"*)* @_ZNK11xercesc_2_710XMLRefInfo14isSerializableEv to i8*), i8* bitcast (void (%"class.xercesc_2_7::XMLRefInfo"*, %"class.xercesc_2_7::XSerializeEngine"*)* @_ZN11xercesc_2_710XMLRefInfo9serializeERNS_16XSerializeEngineE to i8*), i8* bitcast (%"class.xercesc_2_7::XProtoType"* (%"class.xercesc_2_7::XMLRefInfo"*)* @_ZNK11xercesc_2_710XMLRefInfo12getProtoTypeEv to i8*)] }, comdat, align 8
@_ZTVN11xercesc_2_715ContentSpecNodeE = linkonce_odr dso_local unnamed_addr constant { [7 x i8*] } { [7 x i8*] [i8* null, i8* bitcast ({ i8*, i8*, i32, i32, i8*, i64, i8*, i64 }* @_ZTIN11xercesc_2_715ContentSpecNodeE to i8*), i8* bitcast (void (%"class.xercesc_2_7::ContentSpecNode"*)* @_ZN11xercesc_2_715ContentSpecNodeD2Ev to i8*), i8* bitcast (void (%"class.xercesc_2_7::ContentSpecNode"*)* @_ZN11xercesc_2_715ContentSpecNodeD0Ev to i8*), i8* bitcast (i1 (%"class.xercesc_2_7::ContentSpecNode"*)* @_ZNK11xercesc_2_715ContentSpecNode14isSerializableEv to i8*), i8* bitcast (void (%"class.xercesc_2_7::ContentSpecNode"*, %"class.xercesc_2_7::XSerializeEngine"*)* @_ZN11xercesc_2_715ContentSpecNode9serializeERNS_16XSerializeEngineE to i8*), i8* bitcast (%"class.xercesc_2_7::XProtoType"* (%"class.xercesc_2_7::ContentSpecNode"*)* @_ZNK11xercesc_2_715ContentSpecNode12getProtoTypeEv to i8*)] }, comdat, align 8
@_ZTVN11xercesc_2_723AbstractStringValidatorE = dso_local unnamed_addr constant { [25 x i8*] } { [25 x i8*] [i8* null, i8* bitcast ({ i8*, i8*, i8* }* @_ZTIN11xercesc_2_723AbstractStringValidatorE to i8*), i8* bitcast (void (%"class.xercesc_2_7::AbstractStringValidator"*)* @_ZN11xercesc_2_723AbstractStringValidatorD1Ev to i8*), i8* bitcast (void (%"class.xercesc_2_7::AbstractStringValidator"*)* @_ZN11xercesc_2_723AbstractStringValidatorD0Ev to i8*), i8* bitcast (i1 (%"class.xercesc_2_7::AbstractStringValidator"*)* @_ZNK11xercesc_2_723AbstractStringValidator14isSerializableEv to i8*), i8* bitcast (void (%"class.xercesc_2_7::AbstractStringValidator"*, %"class.xercesc_2_7::XSerializeEngine"*)* @_ZN11xercesc_2_723AbstractStringValidator9serializeERNS_16XSerializeEngineE to i8*), i8* bitcast (%"class.xercesc_2_7::XProtoType"* (%"class.xercesc_2_7::AbstractStringValidator"*)* @_ZNK11xercesc_2_723AbstractStringValidator12getProtoTypeEv to i8*), i8* bitcast (i1 (%"class.xercesc_2_7::DatatypeValidator"*)* @_ZNK11xercesc_2_717DatatypeValidator8isAtomicEv to i8*), i8* bitcast (%"class.xercesc_2_7::RefArrayVectorOf"* (%"class.xercesc_2_7::AbstractStringValidator"*)* @_ZNK11xercesc_2_723AbstractStringValidator13getEnumStringEv to i8*), i8* bitcast (i16* (%"class.xercesc_2_7::DatatypeValidator"*, i16*, %"class.xercesc_2_7::MemoryManager"*, i1)* @_ZNK11xercesc_2_717DatatypeValidator26getCanonicalRepresentationEPKtPNS_13MemoryManagerEb to i8*), i8* bitcast (void (%"class.xercesc_2_7::AbstractStringValidator"*, i16*, %"class.xercesc_2_7::ValidationContext"*, %"class.xercesc_2_7::MemoryManager"*)* @_ZN11xercesc_2_723AbstractStringValidator8validateEPKtPNS_17ValidationContextEPNS_13MemoryManagerE to i8*), i8* bitcast (i1 (%"class.xercesc_2_7::DatatypeValidator"*, %"class.xercesc_2_7::DatatypeValidator"*)* @_ZN11xercesc_2_717DatatypeValidator17isSubstitutableByEPKS0_ to i8*), i8* bitcast (i32 (%"class.xercesc_2_7::AbstractStringValidator"*, i16*, i16*, %"class.xercesc_2_7::MemoryManager"*)* @_ZN11xercesc_2_723AbstractStringValidator7compareEPKtS2_PNS_13MemoryManagerE to i8*), i8* bitcast (void ()* @__cxa_pure_virtual to i8*), i8* bitcast (void (%"class.xercesc_2_7::AbstractStringValidator"*, i16*, i16*, %"class.xercesc_2_7::MemoryManager"*)* @_ZN11xercesc_2_723AbstractStringValidator21assignAdditionalFacetEPKtS2_PNS_13MemoryManagerE to i8*), i8* bitcast (void (%"class.xercesc_2_7::AbstractStringValidator"*)* @_ZN11xercesc_2_723AbstractStringValidator22inheritAdditionalFacetEv to i8*), i8* bitcast (void (%"class.xercesc_2_7::AbstractStringValidator"*, %"class.xercesc_2_7::MemoryManager"*)* @_ZNK11xercesc_2_723AbstractStringValidator31checkAdditionalFacetConstraintsEPNS_13MemoryManagerE to i8*), i8* bitcast (void (%"class.xercesc_2_7::AbstractStringValidator"*, i16*, %"class.xercesc_2_7::MemoryManager"*)* @_ZNK11xercesc_2_723AbstractStringValidator20checkAdditionalFacetEPKtPNS_13MemoryManagerE to i8*), i8* bitcast (i32 (%"class.xercesc_2_7::AbstractStringValidator"*, i16*, %"class.xercesc_2_7::MemoryManager"*)* @_ZNK11xercesc_2_723AbstractStringValidator9getLengthEPKtPNS_13MemoryManagerE to i8*), i8* bitcast (void ()* @__cxa_pure_virtual to i8*), i8* bitcast (void (%"class.xercesc_2_7::AbstractStringValidator"*, %"class.xercesc_2_7::MemoryManager"*)* @_ZN11xercesc_2_723AbstractStringValidator16inspectFacetBaseEPNS_13MemoryManagerE to i8*), i8* bitcast (void (%"class.xercesc_2_7::AbstractStringValidator"*)* @_ZN11xercesc_2_723AbstractStringValidator12inheritFacetEv to i8*), i8* bitcast (void (%"class.xercesc_2_7::AbstractStringValidator"*, i16*, %"class.xercesc_2_7::ValidationContext"*, i1, %"class.xercesc_2_7::MemoryManager"*)* @_ZN11xercesc_2_723AbstractStringValidator12checkContentEPKtPNS_17ValidationContextEbPNS_13MemoryManagerE to i8*), i8* bitcast (void (%"class.xercesc_2_7::AbstractStringValidator"*, %"class.xercesc_2_7::MemoryManager"*)* @_ZN11xercesc_2_723AbstractStringValidator20normalizeEnumerationEPNS_13MemoryManagerE to i8*), i8* bitcast (void (%"class.xercesc_2_7::AbstractStringValidator"*, i16*, %"class.xercesc_2_7::MemoryManager"*)* @_ZNK11xercesc_2_723AbstractStringValidator16normalizeContentEPtPNS_13MemoryManagerE to i8*)] }, align 8
@_ZN11xercesc_2_713SchemaSymbols15fgINT_MAX_VALUEE = external dso_local constant i32, align 4
@_ZN11xercesc_2_713SchemaSymbols12fgELT_LENGTHE = external dso_local constant [0 x i16], align 2
@_ZTVN10__cxxabiv120__si_class_type_infoE = external dso_local global i8*
@_ZTSN11xercesc_2_721NumberFormatExceptionE = linkonce_odr dso_local constant [39 x i8] c"N11xercesc_2_721NumberFormatExceptionE\00", comdat, align 1
@_ZTIN11xercesc_2_712XMLExceptionE = external dso_local constant i8*
@_ZTIN11xercesc_2_721NumberFormatExceptionE = linkonce_odr dso_local constant { i8*, i8*, i8* } { i8* bitcast (i8** getelementptr inbounds (i8*, i8** @_ZTVN10__cxxabiv120__si_class_type_infoE, i64 2) to i8*), i8* getelementptr inbounds ([39 x i8], [39 x i8]* @_ZTSN11xercesc_2_721NumberFormatExceptionE, i32 0, i32 0), i8* bitcast (i8** @_ZTIN11xercesc_2_712XMLExceptionE to i8*) }, comdat, align 8
@.str = private unnamed_addr constant [28 x i8] c"AbstractStringValidator.cpp\00", align 1
@_ZTSN11xercesc_2_729InvalidDatatypeFacetExceptionE = linkonce_odr dso_local constant [47 x i8] c"N11xercesc_2_729InvalidDatatypeFacetExceptionE\00", comdat, align 1
@_ZTIN11xercesc_2_729InvalidDatatypeFacetExceptionE = linkonce_odr dso_local constant { i8*, i8*, i8* } { i8* bitcast (i8** getelementptr inbounds (i8*, i8** @_ZTVN10__cxxabiv120__si_class_type_infoE, i64 2) to i8*), i8* getelementptr inbounds ([47 x i8], [47 x i8]* @_ZTSN11xercesc_2_729InvalidDatatypeFacetExceptionE, i32 0, i32 0), i8* bitcast (i8** @_ZTIN11xercesc_2_712XMLExceptionE to i8*) }, comdat, align 8
@_ZN11xercesc_2_713SchemaSymbols15fgELT_MINLENGTHE = external dso_local constant [0 x i16], align 2
@_ZN11xercesc_2_713SchemaSymbols15fgELT_MAXLENGTHE = external dso_local constant [0 x i16], align 2
@_ZN11xercesc_2_713SchemaSymbols13fgELT_PATTERNE = external dso_local constant [0 x i16], align 2
@_ZN11xercesc_2_713SchemaSymbols11fgATT_FIXEDE = external dso_local constant [0 x i16], align 2
@_ZTSN11xercesc_2_716RuntimeExceptionE = linkonce_odr dso_local constant [34 x i8] c"N11xercesc_2_716RuntimeExceptionE\00", comdat, align 1
@_ZTIN11xercesc_2_716RuntimeExceptionE = linkonce_odr dso_local constant { i8*, i8*, i8* } { i8* bitcast (i8** getelementptr inbounds (i8*, i8** @_ZTVN10__cxxabiv120__si_class_type_infoE, i64 2) to i8*), i8* getelementptr inbounds ([34 x i8], [34 x i8]* @_ZTSN11xercesc_2_716RuntimeExceptionE, i32 0, i32 0), i8* bitcast (i8** @_ZTIN11xercesc_2_712XMLExceptionE to i8*) }, comdat, align 8
@_ZN11xercesc_2_713SchemaSymbols15fgRegEx_XOptionE = external dso_local constant [0 x i16], align 2
@_ZTSN11xercesc_2_729InvalidDatatypeValueExceptionE = linkonce_odr dso_local constant [47 x i8] c"N11xercesc_2_729InvalidDatatypeValueExceptionE\00", comdat, align 1
@_ZTIN11xercesc_2_729InvalidDatatypeValueExceptionE = linkonce_odr dso_local constant { i8*, i8*, i8* } { i8* bitcast (i8** getelementptr inbounds (i8*, i8** @_ZTVN10__cxxabiv120__si_class_type_infoE, i64 2) to i8*), i8* getelementptr inbounds ([47 x i8], [47 x i8]* @_ZTSN11xercesc_2_729InvalidDatatypeValueExceptionE, i32 0, i32 0), i8* bitcast (i8** @_ZTIN11xercesc_2_712XMLExceptionE to i8*) }, comdat, align 8
@.str.1 = private unnamed_addr constant [24 x i8] c"AbstractStringValidator\00", align 1
@_ZN11xercesc_2_723AbstractStringValidator28classAbstractStringValidatorE = dso_local global %"class.xercesc_2_7::XProtoType" { i8* getelementptr inbounds ([24 x i8], [24 x i8]* @.str.1, i32 0, i32 0), %"class.xercesc_2_7::XSerializable"* (%"class.xercesc_2_7::MemoryManager"*)* @_ZN11xercesc_2_723AbstractStringValidator12createObjectEPNS_13MemoryManagerE }, align 8, !dbg !0
@_ZTVN11xercesc_2_710XMLDeleterE = linkonce_odr dso_local unnamed_addr constant { [4 x i8*] } { [4 x i8*] [i8* null, i8* bitcast ({ i8*, i8* }* @_ZTIN11xercesc_2_710XMLDeleterE to i8*), i8* bitcast (void (%"class.xercesc_2_7::XMLDeleter"*)* @_ZN11xercesc_2_710XMLDeleterD2Ev to i8*), i8* bitcast (void (%"class.xercesc_2_7::XMLDeleter"*)* @_ZN11xercesc_2_710XMLDeleterD0Ev to i8*)] }, comdat, align 8
@_ZTVN10__cxxabiv117__class_type_infoE = external dso_local global i8*
@_ZTSN11xercesc_2_710XMLDeleterE = linkonce_odr dso_local constant [28 x i8] c"N11xercesc_2_710XMLDeleterE\00", comdat, align 1
@_ZTIN11xercesc_2_710XMLDeleterE = linkonce_odr dso_local constant { i8*, i8* } { i8* bitcast (i8** getelementptr inbounds (i8*, i8** @_ZTVN10__cxxabiv117__class_type_infoE, i64 2) to i8*), i8* getelementptr inbounds ([28 x i8], [28 x i8]* @_ZTSN11xercesc_2_710XMLDeleterE, i32 0, i32 0) }, comdat, align 8
@_ZTVN10__cxxabiv121__vmi_class_type_infoE = external dso_local global i8*
@_ZTSN11xercesc_2_710XMLRefInfoE = linkonce_odr dso_local constant [28 x i8] c"N11xercesc_2_710XMLRefInfoE\00", comdat, align 1
@_ZTSN11xercesc_2_713XSerializableE = linkonce_odr dso_local constant [31 x i8] c"N11xercesc_2_713XSerializableE\00", comdat, align 1
@_ZTIN11xercesc_2_713XSerializableE = linkonce_odr dso_local constant { i8*, i8* } { i8* bitcast (i8** getelementptr inbounds (i8*, i8** @_ZTVN10__cxxabiv117__class_type_infoE, i64 2) to i8*), i8* getelementptr inbounds ([31 x i8], [31 x i8]* @_ZTSN11xercesc_2_713XSerializableE, i32 0, i32 0) }, comdat, align 8
@_ZTSN11xercesc_2_77XMemoryE = linkonce_odr dso_local constant [24 x i8] c"N11xercesc_2_77XMemoryE\00", comdat, align 1
@_ZTIN11xercesc_2_77XMemoryE = linkonce_odr dso_local constant { i8*, i8* } { i8* bitcast (i8** getelementptr inbounds (i8*, i8** @_ZTVN10__cxxabiv117__class_type_infoE, i64 2) to i8*), i8* getelementptr inbounds ([24 x i8], [24 x i8]* @_ZTSN11xercesc_2_77XMemoryE, i32 0, i32 0) }, comdat, align 8
@_ZTIN11xercesc_2_710XMLRefInfoE = linkonce_odr dso_local constant { i8*, i8*, i32, i32, i8*, i64, i8*, i64 } { i8* bitcast (i8** getelementptr inbounds (i8*, i8** @_ZTVN10__cxxabiv121__vmi_class_type_infoE, i64 2) to i8*), i8* getelementptr inbounds ([28 x i8], [28 x i8]* @_ZTSN11xercesc_2_710XMLRefInfoE, i32 0, i32 0), i32 0, i32 2, i8* bitcast ({ i8*, i8* }* @_ZTIN11xercesc_2_713XSerializableE to i8*), i64 2, i8* bitcast ({ i8*, i8* }* @_ZTIN11xercesc_2_77XMemoryE to i8*), i64 2 }, comdat, align 8
@_ZTVN11xercesc_2_713XMLAttDefListE = linkonce_odr dso_local unnamed_addr constant { [18 x i8*] } { [18 x i8*] [i8* null, i8* bitcast ({ i8*, i8*, i32, i32, i8*, i64, i8*, i64 }* @_ZTIN11xercesc_2_713XMLAttDefListE to i8*), i8* bitcast (void (%"class.xercesc_2_7::XMLAttDefList"*)* @_ZN11xercesc_2_713XMLAttDefListD2Ev to i8*), i8* bitcast (void (%"class.xercesc_2_7::XMLAttDefList"*)* @_ZN11xercesc_2_713XMLAttDefListD0Ev to i8*), i8* bitcast (i1 (%"class.xercesc_2_7::XMLAttDefList"*)* @_ZNK11xercesc_2_713XMLAttDefList14isSerializableEv to i8*), i8* bitcast (void (%"class.xercesc_2_7::XMLAttDefList"*, %"class.xercesc_2_7::XSerializeEngine"*)* @_ZN11xercesc_2_713XMLAttDefList9serializeERNS_16XSerializeEngineE to i8*), i8* bitcast (%"class.xercesc_2_7::XProtoType"* (%"class.xercesc_2_7::XMLAttDefList"*)* @_ZNK11xercesc_2_713XMLAttDefList12getProtoTypeEv to i8*), i8* bitcast (void ()* @__cxa_pure_virtual to i8*), i8* bitcast (void ()* @__cxa_pure_virtual to i8*), i8* bitcast (void ()* @__cxa_pure_virtual to i8*), i8* bitcast (void ()* @__cxa_pure_virtual to i8*), i8* bitcast (void ()* @__cxa_pure_virtual to i8*), i8* bitcast (void ()* @__cxa_pure_virtual to i8*), i8* bitcast (void ()* @__cxa_pure_virtual to i8*), i8* bitcast (void ()* @__cxa_pure_virtual to i8*), i8* bitcast (void ()* @__cxa_pure_virtual to i8*), i8* bitcast (void ()* @__cxa_pure_virtual to i8*), i8* bitcast (void ()* @__cxa_pure_virtual to i8*)] }, comdat, align 8
@_ZTSN11xercesc_2_713XMLAttDefListE = linkonce_odr dso_local constant [31 x i8] c"N11xercesc_2_713XMLAttDefListE\00", comdat, align 1
@_ZTIN11xercesc_2_713XMLAttDefListE = linkonce_odr dso_local constant { i8*, i8*, i32, i32, i8*, i64, i8*, i64 } { i8* bitcast (i8** getelementptr inbounds (i8*, i8** @_ZTVN10__cxxabiv121__vmi_class_type_infoE, i64 2) to i8*), i8* getelementptr inbounds ([31 x i8], [31 x i8]* @_ZTSN11xercesc_2_713XMLAttDefListE, i32 0, i32 0), i32 0, i32 2, i8* bitcast ({ i8*, i8* }* @_ZTIN11xercesc_2_713XSerializableE to i8*), i64 2, i8* bitcast ({ i8*, i8* }* @_ZTIN11xercesc_2_77XMemoryE to i8*), i64 2 }, comdat, align 8
@_ZTSN11xercesc_2_715ContentSpecNodeE = linkonce_odr dso_local constant [33 x i8] c"N11xercesc_2_715ContentSpecNodeE\00", comdat, align 1
@_ZTIN11xercesc_2_715ContentSpecNodeE = linkonce_odr dso_local constant { i8*, i8*, i32, i32, i8*, i64, i8*, i64 } { i8* bitcast (i8** getelementptr inbounds (i8*, i8** @_ZTVN10__cxxabiv121__vmi_class_type_infoE, i64 2) to i8*), i8* getelementptr inbounds ([33 x i8], [33 x i8]* @_ZTSN11xercesc_2_715ContentSpecNodeE, i32 0, i32 0), i32 0, i32 2, i8* bitcast ({ i8*, i8* }* @_ZTIN11xercesc_2_713XSerializableE to i8*), i64 2, i8* bitcast ({ i8*, i8* }* @_ZTIN11xercesc_2_77XMemoryE to i8*), i64 2 }, comdat, align 8
@_ZTVN11xercesc_2_713DTDEntityDeclE = linkonce_odr dso_local unnamed_addr constant { [10 x i8*] } { [10 x i8*] [i8* null, i8* bitcast ({ i8*, i8*, i8* }* @_ZTIN11xercesc_2_713DTDEntityDeclE to i8*), i8* bitcast (void (%"class.xercesc_2_7::DTDEntityDecl"*)* @_ZN11xercesc_2_713DTDEntityDeclD2Ev to i8*), i8* bitcast (void (%"class.xercesc_2_7::DTDEntityDecl"*)* @_ZN11xercesc_2_713DTDEntityDeclD0Ev to i8*), i8* bitcast (i1 (%"class.xercesc_2_7::DTDEntityDecl"*)* @_ZNK11xercesc_2_713DTDEntityDecl14isSerializableEv to i8*), i8* bitcast (void (%"class.xercesc_2_7::DTDEntityDecl"*, %"class.xercesc_2_7::XSerializeEngine"*)* @_ZN11xercesc_2_713DTDEntityDecl9serializeERNS_16XSerializeEngineE to i8*), i8* bitcast (%"class.xercesc_2_7::XProtoType"* (%"class.xercesc_2_7::DTDEntityDecl"*)* @_ZNK11xercesc_2_713DTDEntityDecl12getProtoTypeEv to i8*), i8* bitcast (i1 (%"class.xercesc_2_7::DTDEntityDecl"*)* @_ZNK11xercesc_2_713DTDEntityDecl22getDeclaredInIntSubsetEv to i8*), i8* bitcast (i1 (%"class.xercesc_2_7::DTDEntityDecl"*)* @_ZNK11xercesc_2_713DTDEntityDecl14getIsParameterEv to i8*), i8* bitcast (i1 (%"class.xercesc_2_7::DTDEntityDecl"*)* @_ZNK11xercesc_2_713DTDEntityDecl16getIsSpecialCharEv to i8*)] }, comdat, align 8
@_ZTSN11xercesc_2_713DTDEntityDeclE = linkonce_odr dso_local constant [31 x i8] c"N11xercesc_2_713DTDEntityDeclE\00", comdat, align 1
@_ZTIN11xercesc_2_713XMLEntityDeclE = external dso_local constant i8*
@_ZTIN11xercesc_2_713DTDEntityDeclE = linkonce_odr dso_local constant { i8*, i8*, i8* } { i8* bitcast (i8** getelementptr inbounds (i8*, i8** @_ZTVN10__cxxabiv120__si_class_type_infoE, i64 2) to i8*), i8* getelementptr inbounds ([31 x i8], [31 x i8]* @_ZTSN11xercesc_2_713DTDEntityDeclE, i32 0, i32 0), i8* bitcast (i8** @_ZTIN11xercesc_2_713XMLEntityDeclE to i8*) }, comdat, align 8
@_ZTVN11xercesc_2_712XPathScannerE = linkonce_odr dso_local unnamed_addr constant { [5 x i8*] } { [5 x i8*] [i8* null, i8* bitcast ({ i8*, i8*, i8* }* @_ZTIN11xercesc_2_712XPathScannerE to i8*), i8* bitcast (void (%"class.xercesc_2_7::XPathScanner"*)* @_ZN11xercesc_2_712XPathScannerD2Ev to i8*), i8* bitcast (void (%"class.xercesc_2_7::XPathScanner"*)* @_ZN11xercesc_2_712XPathScannerD0Ev to i8*), i8* bitcast (void (%"class.xercesc_2_7::XPathScanner"*, %"class.xercesc_2_7::ValueVectorOf"*, i32)* @_ZN11xercesc_2_712XPathScanner8addTokenEPNS_13ValueVectorOfIiEEi to i8*)] }, comdat, align 8
@_ZTSN11xercesc_2_712XPathScannerE = linkonce_odr dso_local constant [30 x i8] c"N11xercesc_2_712XPathScannerE\00", comdat, align 1
@_ZTIN11xercesc_2_712XPathScannerE = linkonce_odr dso_local constant { i8*, i8*, i8* } { i8* bitcast (i8** getelementptr inbounds (i8*, i8** @_ZTVN10__cxxabiv120__si_class_type_infoE, i64 2) to i8*), i8* getelementptr inbounds ([30 x i8], [30 x i8]* @_ZTSN11xercesc_2_712XPathScannerE, i32 0, i32 0), i8* bitcast ({ i8*, i8* }* @_ZTIN11xercesc_2_77XMemoryE to i8*) }, comdat, align 8
@_ZTSN11xercesc_2_723AbstractStringValidatorE = dso_local constant [41 x i8] c"N11xercesc_2_723AbstractStringValidatorE\00", align 1
@_ZTIN11xercesc_2_717DatatypeValidatorE = external dso_local constant i8*
@_ZTIN11xercesc_2_723AbstractStringValidatorE = dso_local constant { i8*, i8*, i8* } { i8* bitcast (i8** getelementptr inbounds (i8*, i8** @_ZTVN10__cxxabiv120__si_class_type_infoE, i64 2) to i8*), i8* getelementptr inbounds ([41 x i8], [41 x i8]* @_ZTSN11xercesc_2_723AbstractStringValidatorE, i32 0, i32 0), i8* bitcast (i8** @_ZTIN11xercesc_2_717DatatypeValidatorE to i8*) }, align 8
@_ZTVN11xercesc_2_729InvalidDatatypeFacetExceptionE = linkonce_odr dso_local unnamed_addr constant { [6 x i8*] } { [6 x i8*] [i8* null, i8* bitcast ({ i8*, i8*, i8* }* @_ZTIN11xercesc_2_729InvalidDatatypeFacetExceptionE to i8*), i8* bitcast (void (%"class.xercesc_2_7::InvalidDatatypeFacetException"*)* @_ZN11xercesc_2_729InvalidDatatypeFacetExceptionD2Ev to i8*), i8* bitcast (void (%"class.xercesc_2_7::InvalidDatatypeFacetException"*)* @_ZN11xercesc_2_729InvalidDatatypeFacetExceptionD0Ev to i8*), i8* bitcast (i16* (%"class.xercesc_2_7::InvalidDatatypeFacetException"*)* @_ZNK11xercesc_2_729InvalidDatatypeFacetException7getTypeEv to i8*), i8* bitcast (%"class.xercesc_2_7::XMLException"* (%"class.xercesc_2_7::InvalidDatatypeFacetException"*)* @_ZNK11xercesc_2_729InvalidDatatypeFacetException9duplicateEv to i8*)] }, comdat, align 8
@_ZN11xercesc_2_76XMLUni36fgInvalidDatatypeFacetException_NameE = external dso_local constant [0 x i16], align 2
@_ZTVN11xercesc_2_729InvalidDatatypeValueExceptionE = linkonce_odr dso_local unnamed_addr constant { [6 x i8*] } { [6 x i8*] [i8* null, i8* bitcast ({ i8*, i8*, i8* }* @_ZTIN11xercesc_2_729InvalidDatatypeValueExceptionE to i8*), i8* bitcast (void (%"class.xercesc_2_7::InvalidDatatypeValueException"*)* @_ZN11xercesc_2_729InvalidDatatypeValueExceptionD2Ev to i8*), i8* bitcast (void (%"class.xercesc_2_7::InvalidDatatypeValueException"*)* @_ZN11xercesc_2_729InvalidDatatypeValueExceptionD0Ev to i8*), i8* bitcast (i16* (%"class.xercesc_2_7::InvalidDatatypeValueException"*)* @_ZNK11xercesc_2_729InvalidDatatypeValueException7getTypeEv to i8*), i8* bitcast (%"class.xercesc_2_7::XMLException"* (%"class.xercesc_2_7::InvalidDatatypeValueException"*)* @_ZNK11xercesc_2_729InvalidDatatypeValueException9duplicateEv to i8*)] }, comdat, align 8
@_ZN11xercesc_2_76XMLUni36fgInvalidDatatypeValueException_NameE = external dso_local constant [0 x i16], align 2
@_ZTVN11xercesc_2_724RefHashTableOfEnumeratorINS_12KVStringPairEEE = linkonce_odr dso_local unnamed_addr constant { [7 x i8*] } { [7 x i8*] [i8* null, i8* bitcast ({ i8*, i8*, i32, i32, i8*, i64, i8*, i64 }* @_ZTIN11xercesc_2_724RefHashTableOfEnumeratorINS_12KVStringPairEEE to i8*), i8* bitcast (void (%"class.xercesc_2_7::RefHashTableOfEnumerator"*)* @_ZN11xercesc_2_724RefHashTableOfEnumeratorINS_12KVStringPairEED2Ev to i8*), i8* bitcast (void (%"class.xercesc_2_7::RefHashTableOfEnumerator"*)* @_ZN11xercesc_2_724RefHashTableOfEnumeratorINS_12KVStringPairEED0Ev to i8*), i8* bitcast (i1 (%"class.xercesc_2_7::RefHashTableOfEnumerator"*)* @_ZNK11xercesc_2_724RefHashTableOfEnumeratorINS_12KVStringPairEE15hasMoreElementsEv to i8*), i8* bitcast (%"class.xercesc_2_7::KVStringPair"* (%"class.xercesc_2_7::RefHashTableOfEnumerator"*)* @_ZN11xercesc_2_724RefHashTableOfEnumeratorINS_12KVStringPairEE11nextElementEv to i8*), i8* bitcast (void (%"class.xercesc_2_7::RefHashTableOfEnumerator"*)* @_ZN11xercesc_2_724RefHashTableOfEnumeratorINS_12KVStringPairEE5ResetEv to i8*)] }, comdat, align 8
@.str.2 = private unnamed_addr constant [32 x i8] c"./xercesc/util/RefHashTableOf.c\00", align 1
@_ZTSN11xercesc_2_720NullPointerExceptionE = linkonce_odr dso_local constant [38 x i8] c"N11xercesc_2_720NullPointerExceptionE\00", comdat, align 1
@_ZTIN11xercesc_2_720NullPointerExceptionE = linkonce_odr dso_local constant { i8*, i8*, i8* } { i8* bitcast (i8** getelementptr inbounds (i8*, i8** @_ZTVN10__cxxabiv120__si_class_type_infoE, i64 2) to i8*), i8* getelementptr inbounds ([38 x i8], [38 x i8]* @_ZTSN11xercesc_2_720NullPointerExceptionE, i32 0, i32 0), i8* bitcast (i8** @_ZTIN11xercesc_2_712XMLExceptionE to i8*) }, comdat, align 8
@_ZTSN11xercesc_2_724RefHashTableOfEnumeratorINS_12KVStringPairEEE = linkonce_odr dso_local constant [62 x i8] c"N11xercesc_2_724RefHashTableOfEnumeratorINS_12KVStringPairEEE\00", comdat, align 1
@_ZTSN11xercesc_2_713XMLEnumeratorINS_12KVStringPairEEE = linkonce_odr dso_local constant [51 x i8] c"N11xercesc_2_713XMLEnumeratorINS_12KVStringPairEEE\00", comdat, align 1
@_ZTIN11xercesc_2_713XMLEnumeratorINS_12KVStringPairEEE = linkonce_odr dso_local constant { i8*, i8* } { i8* bitcast (i8** getelementptr inbounds (i8*, i8** @_ZTVN10__cxxabiv117__class_type_infoE, i64 2) to i8*), i8* getelementptr inbounds ([51 x i8], [51 x i8]* @_ZTSN11xercesc_2_713XMLEnumeratorINS_12KVStringPairEEE, i32 0, i32 0) }, comdat, align 8
@_ZTIN11xercesc_2_724RefHashTableOfEnumeratorINS_12KVStringPairEEE = linkonce_odr dso_local constant { i8*, i8*, i32, i32, i8*, i64, i8*, i64 } { i8* bitcast (i8** getelementptr inbounds (i8*, i8** @_ZTVN10__cxxabiv121__vmi_class_type_infoE, i64 2) to i8*), i8* getelementptr inbounds ([62 x i8], [62 x i8]* @_ZTSN11xercesc_2_724RefHashTableOfEnumeratorINS_12KVStringPairEEE, i32 0, i32 0), i32 0, i32 2, i8* bitcast ({ i8*, i8* }* @_ZTIN11xercesc_2_713XMLEnumeratorINS_12KVStringPairEEE to i8*), i64 2, i8* bitcast ({ i8*, i8* }* @_ZTIN11xercesc_2_77XMemoryE to i8*), i64 2 }, comdat, align 8
@_ZTVN11xercesc_2_713XMLEnumeratorINS_12KVStringPairEEE = linkonce_odr dso_local unnamed_addr constant { [7 x i8*] } { [7 x i8*] [i8* null, i8* bitcast ({ i8*, i8* }* @_ZTIN11xercesc_2_713XMLEnumeratorINS_12KVStringPairEEE to i8*), i8* bitcast (void (%"class.xercesc_2_7::XMLEnumerator"*)* @_ZN11xercesc_2_713XMLEnumeratorINS_12KVStringPairEED2Ev to i8*), i8* bitcast (void (%"class.xercesc_2_7::XMLEnumerator"*)* @_ZN11xercesc_2_713XMLEnumeratorINS_12KVStringPairEED0Ev to i8*), i8* bitcast (void ()* @__cxa_pure_virtual to i8*), i8* bitcast (void ()* @__cxa_pure_virtual to i8*), i8* bitcast (void ()* @__cxa_pure_virtual to i8*)] }, comdat, align 8
@_ZTVN11xercesc_2_720NullPointerExceptionE = linkonce_odr dso_local unnamed_addr constant { [6 x i8*] } { [6 x i8*] [i8* null, i8* bitcast ({ i8*, i8*, i8* }* @_ZTIN11xercesc_2_720NullPointerExceptionE to i8*), i8* bitcast (void (%"class.xercesc_2_7::NullPointerException"*)* @_ZN11xercesc_2_720NullPointerExceptionD2Ev to i8*), i8* bitcast (void (%"class.xercesc_2_7::NullPointerException"*)* @_ZN11xercesc_2_720NullPointerExceptionD0Ev to i8*), i8* bitcast (i16* (%"class.xercesc_2_7::NullPointerException"*)* @_ZNK11xercesc_2_720NullPointerException7getTypeEv to i8*), i8* bitcast (%"class.xercesc_2_7::XMLException"* (%"class.xercesc_2_7::NullPointerException"*)* @_ZNK11xercesc_2_720NullPointerException9duplicateEv to i8*)] }, comdat, align 8
@_ZN11xercesc_2_76XMLUni27fgNullPointerException_NameE = external dso_local constant [0 x i16], align 2
@_ZTSN11xercesc_2_722NoSuchElementExceptionE = linkonce_odr dso_local constant [40 x i8] c"N11xercesc_2_722NoSuchElementExceptionE\00", comdat, align 1
@_ZTIN11xercesc_2_722NoSuchElementExceptionE = linkonce_odr dso_local constant { i8*, i8*, i8* } { i8* bitcast (i8** getelementptr inbounds (i8*, i8** @_ZTVN10__cxxabiv120__si_class_type_infoE, i64 2) to i8*), i8* getelementptr inbounds ([40 x i8], [40 x i8]* @_ZTSN11xercesc_2_722NoSuchElementExceptionE, i32 0, i32 0), i8* bitcast (i8** @_ZTIN11xercesc_2_712XMLExceptionE to i8*) }, comdat, align 8
@_ZTVN11xercesc_2_722NoSuchElementExceptionE = linkonce_odr dso_local unnamed_addr constant { [6 x i8*] } { [6 x i8*] [i8* null, i8* bitcast ({ i8*, i8*, i8* }* @_ZTIN11xercesc_2_722NoSuchElementExceptionE to i8*), i8* bitcast (void (%"class.xercesc_2_7::NoSuchElementException"*)* @_ZN11xercesc_2_722NoSuchElementExceptionD2Ev to i8*), i8* bitcast (void (%"class.xercesc_2_7::NoSuchElementException"*)* @_ZN11xercesc_2_722NoSuchElementExceptionD0Ev to i8*), i8* bitcast (i16* (%"class.xercesc_2_7::NoSuchElementException"*)* @_ZNK11xercesc_2_722NoSuchElementException7getTypeEv to i8*), i8* bitcast (%"class.xercesc_2_7::XMLException"* (%"class.xercesc_2_7::NoSuchElementException"*)* @_ZNK11xercesc_2_722NoSuchElementException9duplicateEv to i8*)] }, comdat, align 8
@_ZN11xercesc_2_76XMLUni29fgNoSuchElementException_NameE = external dso_local constant [0 x i16], align 2
@.str.3 = private unnamed_addr constant [33 x i8] c"./xercesc/util/BaseRefVectorOf.c\00", align 1
@_ZTSN11xercesc_2_730ArrayIndexOutOfBoundsExceptionE = linkonce_odr dso_local constant [48 x i8] c"N11xercesc_2_730ArrayIndexOutOfBoundsExceptionE\00", comdat, align 1
@_ZTIN11xercesc_2_730ArrayIndexOutOfBoundsExceptionE = linkonce_odr dso_local constant { i8*, i8*, i8* } { i8* bitcast (i8** getelementptr inbounds (i8*, i8** @_ZTVN10__cxxabiv120__si_class_type_infoE, i64 2) to i8*), i8* getelementptr inbounds ([48 x i8], [48 x i8]* @_ZTSN11xercesc_2_730ArrayIndexOutOfBoundsExceptionE, i32 0, i32 0), i8* bitcast (i8** @_ZTIN11xercesc_2_712XMLExceptionE to i8*) }, comdat, align 8
@_ZTVN11xercesc_2_730ArrayIndexOutOfBoundsExceptionE = linkonce_odr dso_local unnamed_addr constant { [6 x i8*] } { [6 x i8*] [i8* null, i8* bitcast ({ i8*, i8*, i8* }* @_ZTIN11xercesc_2_730ArrayIndexOutOfBoundsExceptionE to i8*), i8* bitcast (void (%"class.xercesc_2_7::ArrayIndexOutOfBoundsException"*)* @_ZN11xercesc_2_730ArrayIndexOutOfBoundsExceptionD2Ev to i8*), i8* bitcast (void (%"class.xercesc_2_7::ArrayIndexOutOfBoundsException"*)* @_ZN11xercesc_2_730ArrayIndexOutOfBoundsExceptionD0Ev to i8*), i8* bitcast (i16* (%"class.xercesc_2_7::ArrayIndexOutOfBoundsException"*)* @_ZNK11xercesc_2_730ArrayIndexOutOfBoundsException7getTypeEv to i8*), i8* bitcast (%"class.xercesc_2_7::XMLException"* (%"class.xercesc_2_7::ArrayIndexOutOfBoundsException"*)* @_ZNK11xercesc_2_730ArrayIndexOutOfBoundsException9duplicateEv to i8*)] }, comdat, align 8
@_ZN11xercesc_2_76XMLUni37fgArrayIndexOutOfBoundsException_NameE = external dso_local constant [0 x i16], align 2

@_ZN11xercesc_2_723AbstractStringValidatorD1Ev = dso_local unnamed_addr alias void (%"class.xercesc_2_7::AbstractStringValidator"*), void (%"class.xercesc_2_7::AbstractStringValidator"*)* @_ZN11xercesc_2_723AbstractStringValidatorD2Ev

; Function Attrs: nounwind readnone speculatable willreturn
declare void @llvm.dbg.declare(metadata, metadata, metadata) #0

; Function Attrs: noinline nounwind uwtable
define linkonce_odr dso_local void @_ZN11xercesc_2_710XMLDeleterD0Ev(%"class.xercesc_2_7::XMLDeleter"* %this) unnamed_addr #1 comdat align 2 !dbg !1648 {
entry:
  %this.addr = alloca %"class.xercesc_2_7::XMLDeleter"*, align 8
  store %"class.xercesc_2_7::XMLDeleter"* %this, %"class.xercesc_2_7::XMLDeleter"** %this.addr, align 8
  call void @llvm.dbg.declare(metadata %"class.xercesc_2_7::XMLDeleter"** %this.addr, metadata !1670, metadata !DIExpression()), !dbg !1672
  %this1 = load %"class.xercesc_2_7::XMLDeleter"*, %"class.xercesc_2_7::XMLDeleter"** %this.addr, align 8
  call void @_ZN11xercesc_2_710XMLDeleterD2Ev(%"class.xercesc_2_7::XMLDeleter"* %this1) #10, !dbg !1673
  %0 = bitcast %"class.xercesc_2_7::XMLDeleter"* %this1 to i8*, !dbg !1673
  call void @_ZdlPv(i8* %0) #11, !dbg !1673
  ret void, !dbg !1674
}

; Function Attrs: noinline nounwind uwtable
define linkonce_odr dso_local void @_ZN11xercesc_2_710XMLDeleterD2Ev(%"class.xercesc_2_7::XMLDeleter"* %this) unnamed_addr #1 comdat align 2 !dbg !1675 {
entry:
  %this.addr = alloca %"class.xercesc_2_7::XMLDeleter"*, align 8
  store %"class.xercesc_2_7::XMLDeleter"* %this, %"class.xercesc_2_7::XMLDeleter"** %this.addr, align 8
  call void @llvm.dbg.declare(metadata %"class.xercesc_2_7::XMLDeleter"** %this.addr, metadata !1676, metadata !DIExpression()), !dbg !1677
  %this1 = load %"class.xercesc_2_7::XMLDeleter"*, %"class.xercesc_2_7::XMLDeleter"** %this.addr, align 8
  ret void, !dbg !1678
}

; Function Attrs: nobuiltin nounwind
declare dso_local void @_ZdlPv(i8*) #2

declare dso_local i32 @__gxx_personality_v0(...)

; Function Attrs: noinline nounwind uwtable
define linkonce_odr dso_local void @_ZN11xercesc_2_713XSerializableD2Ev(%"class.xercesc_2_7::XSerializable"* %this) unnamed_addr #1 comdat align 2 !dbg !1679 {
entry:
  %this.addr = alloca %"class.xercesc_2_7::XSerializable"*, align 8
  store %"class.xercesc_2_7::XSerializable"* %this, %"class.xercesc_2_7::XSerializable"** %this.addr, align 8
  call void @llvm.dbg.declare(metadata %"class.xercesc_2_7::XSerializable"** %this.addr, metadata !1684, metadata !DIExpression()), !dbg !1685
  %this1 = load %"class.xercesc_2_7::XSerializable"*, %"class.xercesc_2_7::XSerializable"** %this.addr, align 8
  ret void, !dbg !1686
}

; Function Attrs: noinline noreturn nounwind
define linkonce_odr hidden void @__clang_call_terminate(i8* %0) #3 comdat {
  %2 = call i8* @__cxa_begin_catch(i8* %0) #10
  call void @_ZSt9terminatev() #12
  unreachable
}

declare dso_local i8* @__cxa_begin_catch(i8*)

declare dso_local void @_ZSt9terminatev()

; Function Attrs: noinline nounwind uwtable
define linkonce_odr dso_local void @_ZN11xercesc_2_710XMLRefInfoD0Ev(%"class.xercesc_2_7::XMLRefInfo"* %this) unnamed_addr #1 comdat align 2 !dbg !1687 {
entry:
  %this.addr = alloca %"class.xercesc_2_7::XMLRefInfo"*, align 8
  store %"class.xercesc_2_7::XMLRefInfo"* %this, %"class.xercesc_2_7::XMLRefInfo"** %this.addr, align 8
  call void @llvm.dbg.declare(metadata %"class.xercesc_2_7::XMLRefInfo"** %this.addr, metadata !1737, metadata !DIExpression()), !dbg !1739
  %this1 = load %"class.xercesc_2_7::XMLRefInfo"*, %"class.xercesc_2_7::XMLRefInfo"** %this.addr, align 8
  call void @_ZN11xercesc_2_710XMLRefInfoD2Ev(%"class.xercesc_2_7::XMLRefInfo"* %this1) #10, !dbg !1740
  %0 = bitcast %"class.xercesc_2_7::XMLRefInfo"* %this1 to i8*, !dbg !1740
  call void @_ZN11xercesc_2_77XMemorydlEPv(i8* %0) #10, !dbg !1740
  ret void, !dbg !1741
}

; Function Attrs: noinline nounwind uwtable
define linkonce_odr dso_local void @_ZN11xercesc_2_710XMLRefInfoD2Ev(%"class.xercesc_2_7::XMLRefInfo"* %this) unnamed_addr #1 comdat align 2 personality i8* bitcast (i32 (...)* @__gxx_personality_v0 to i8*) !dbg !1742 {
entry:
  %this.addr = alloca %"class.xercesc_2_7::XMLRefInfo"*, align 8
  %exn.slot = alloca i8*
  %ehselector.slot = alloca i32
  store %"class.xercesc_2_7::XMLRefInfo"* %this, %"class.xercesc_2_7::XMLRefInfo"** %this.addr, align 8
  call void @llvm.dbg.declare(metadata %"class.xercesc_2_7::XMLRefInfo"** %this.addr, metadata !1743, metadata !DIExpression()), !dbg !1744
  %this1 = load %"class.xercesc_2_7::XMLRefInfo"*, %"class.xercesc_2_7::XMLRefInfo"** %this.addr, align 8
  %0 = bitcast %"class.xercesc_2_7::XMLRefInfo"* %this1 to i32 (...)***, !dbg !1745
  store i32 (...)** bitcast (i8** getelementptr inbounds ({ [7 x i8*] }, { [7 x i8*] }* @_ZTVN11xercesc_2_710XMLRefInfoE, i32 0, inrange i32 0, i32 2) to i32 (...)**), i32 (...)*** %0, align 8, !dbg !1745
  %fMemoryManager = getelementptr inbounds %"class.xercesc_2_7::XMLRefInfo", %"class.xercesc_2_7::XMLRefInfo"* %this1, i32 0, i32 4, !dbg !1746
  %1 = load %"class.xercesc_2_7::MemoryManager"*, %"class.xercesc_2_7::MemoryManager"** %fMemoryManager, align 8, !dbg !1746
  %fRefName = getelementptr inbounds %"class.xercesc_2_7::XMLRefInfo", %"class.xercesc_2_7::XMLRefInfo"* %this1, i32 0, i32 3, !dbg !1748
  %2 = load i16*, i16** %fRefName, align 8, !dbg !1748
  %3 = bitcast i16* %2 to i8*, !dbg !1748
  %4 = bitcast %"class.xercesc_2_7::MemoryManager"* %1 to void (%"class.xercesc_2_7::MemoryManager"*, i8*)***, !dbg !1749
  %vtable = load void (%"class.xercesc_2_7::MemoryManager"*, i8*)**, void (%"class.xercesc_2_7::MemoryManager"*, i8*)*** %4, align 8, !dbg !1749
  %vfn = getelementptr inbounds void (%"class.xercesc_2_7::MemoryManager"*, i8*)*, void (%"class.xercesc_2_7::MemoryManager"*, i8*)** %vtable, i64 3, !dbg !1749
  %5 = load void (%"class.xercesc_2_7::MemoryManager"*, i8*)*, void (%"class.xercesc_2_7::MemoryManager"*, i8*)** %vfn, align 8, !dbg !1749
  invoke void %5(%"class.xercesc_2_7::MemoryManager"* %1, i8* %3)
          to label %invoke.cont unwind label %lpad, !dbg !1749

invoke.cont:                                      ; preds = %entry
  %6 = bitcast %"class.xercesc_2_7::XMLRefInfo"* %this1 to %"class.xercesc_2_7::XSerializable"*, !dbg !1750
  call void @_ZN11xercesc_2_713XSerializableD2Ev(%"class.xercesc_2_7::XSerializable"* %6) #10, !dbg !1750
  ret void, !dbg !1751

lpad:                                             ; preds = %entry
  %7 = landingpad { i8*, i32 }
          catch i8* null, !dbg !1750
  %8 = extractvalue { i8*, i32 } %7, 0, !dbg !1750
  store i8* %8, i8** %exn.slot, align 8, !dbg !1750
  %9 = extractvalue { i8*, i32 } %7, 1, !dbg !1750
  store i32 %9, i32* %ehselector.slot, align 4, !dbg !1750
  %10 = bitcast %"class.xercesc_2_7::XMLRefInfo"* %this1 to %"class.xercesc_2_7::XSerializable"*, !dbg !1750
  call void @_ZN11xercesc_2_713XSerializableD2Ev(%"class.xercesc_2_7::XSerializable"* %10) #10, !dbg !1750
  br label %terminate.handler, !dbg !1750

terminate.handler:                                ; preds = %lpad
  %exn = load i8*, i8** %exn.slot, align 8, !dbg !1750
  call void @__clang_call_terminate(i8* %exn) #12, !dbg !1750
  unreachable, !dbg !1750
}

; Function Attrs: nounwind
declare dso_local void @_ZN11xercesc_2_77XMemorydlEPv(i8*) #4

; Function Attrs: noinline nounwind uwtable
define linkonce_odr dso_local void @_ZN11xercesc_2_713XMLAttDefListD0Ev(%"class.xercesc_2_7::XMLAttDefList"* %this) unnamed_addr #1 comdat align 2 !dbg !1752 {
entry:
  %this.addr = alloca %"class.xercesc_2_7::XMLAttDefList"*, align 8
  store %"class.xercesc_2_7::XMLAttDefList"* %this, %"class.xercesc_2_7::XMLAttDefList"** %this.addr, align 8
  call void @llvm.dbg.declare(metadata %"class.xercesc_2_7::XMLAttDefList"** %this.addr, metadata !1824, metadata !DIExpression()), !dbg !1826
  %this1 = load %"class.xercesc_2_7::XMLAttDefList"*, %"class.xercesc_2_7::XMLAttDefList"** %this.addr, align 8
  call void @llvm.trap() #12, !dbg !1827
  unreachable, !dbg !1827
}

; Function Attrs: cold noreturn nounwind
declare void @llvm.trap() #5

; Function Attrs: noinline nounwind uwtable
define linkonce_odr dso_local void @_ZN11xercesc_2_715ContentSpecNodeD0Ev(%"class.xercesc_2_7::ContentSpecNode"* %this) unnamed_addr #1 comdat align 2 !dbg !1828 {
entry:
  %this.addr = alloca %"class.xercesc_2_7::ContentSpecNode"*, align 8
  store %"class.xercesc_2_7::ContentSpecNode"* %this, %"class.xercesc_2_7::ContentSpecNode"** %this.addr, align 8
  call void @llvm.dbg.declare(metadata %"class.xercesc_2_7::ContentSpecNode"** %this.addr, metadata !1829, metadata !DIExpression()), !dbg !1830
  %this1 = load %"class.xercesc_2_7::ContentSpecNode"*, %"class.xercesc_2_7::ContentSpecNode"** %this.addr, align 8
  call void @_ZN11xercesc_2_715ContentSpecNodeD2Ev(%"class.xercesc_2_7::ContentSpecNode"* %this1) #10, !dbg !1831
  %0 = bitcast %"class.xercesc_2_7::ContentSpecNode"* %this1 to i8*, !dbg !1831
  call void @_ZN11xercesc_2_77XMemorydlEPv(i8* %0) #10, !dbg !1831
  ret void, !dbg !1832
}

; Function Attrs: noinline nounwind uwtable
define linkonce_odr dso_local void @_ZN11xercesc_2_715ContentSpecNodeD2Ev(%"class.xercesc_2_7::ContentSpecNode"* %this) unnamed_addr #1 comdat align 2 !dbg !1833 {
entry:
  %this.addr = alloca %"class.xercesc_2_7::ContentSpecNode"*, align 8
  store %"class.xercesc_2_7::ContentSpecNode"* %this, %"class.xercesc_2_7::ContentSpecNode"** %this.addr, align 8
  call void @llvm.dbg.declare(metadata %"class.xercesc_2_7::ContentSpecNode"** %this.addr, metadata !1834, metadata !DIExpression()), !dbg !1835
  %this1 = load %"class.xercesc_2_7::ContentSpecNode"*, %"class.xercesc_2_7::ContentSpecNode"** %this.addr, align 8
  %0 = bitcast %"class.xercesc_2_7::ContentSpecNode"* %this1 to i32 (...)***, !dbg !1836
  store i32 (...)** bitcast (i8** getelementptr inbounds ({ [7 x i8*] }, { [7 x i8*] }* @_ZTVN11xercesc_2_715ContentSpecNodeE, i32 0, inrange i32 0, i32 2) to i32 (...)**), i32 (...)*** %0, align 8, !dbg !1836
  %fAdoptFirst = getelementptr inbounds %"class.xercesc_2_7::ContentSpecNode", %"class.xercesc_2_7::ContentSpecNode"* %this1, i32 0, i32 7, !dbg !1837
  %1 = load i8, i8* %fAdoptFirst, align 4, !dbg !1837
  %tobool = trunc i8 %1 to i1, !dbg !1837
  br i1 %tobool, label %if.then, label %if.end, !dbg !1840

if.then:                                          ; preds = %entry
  %fFirst = getelementptr inbounds %"class.xercesc_2_7::ContentSpecNode", %"class.xercesc_2_7::ContentSpecNode"* %this1, i32 0, i32 4, !dbg !1841
  %2 = load %"class.xercesc_2_7::ContentSpecNode"*, %"class.xercesc_2_7::ContentSpecNode"** %fFirst, align 8, !dbg !1841
  %isnull = icmp eq %"class.xercesc_2_7::ContentSpecNode"* %2, null, !dbg !1843
  br i1 %isnull, label %delete.end, label %delete.notnull, !dbg !1843

delete.notnull:                                   ; preds = %if.then
  %3 = bitcast %"class.xercesc_2_7::ContentSpecNode"* %2 to void (%"class.xercesc_2_7::ContentSpecNode"*)***, !dbg !1843
  %vtable = load void (%"class.xercesc_2_7::ContentSpecNode"*)**, void (%"class.xercesc_2_7::ContentSpecNode"*)*** %3, align 8, !dbg !1843
  %vfn = getelementptr inbounds void (%"class.xercesc_2_7::ContentSpecNode"*)*, void (%"class.xercesc_2_7::ContentSpecNode"*)** %vtable, i64 1, !dbg !1843
  %4 = load void (%"class.xercesc_2_7::ContentSpecNode"*)*, void (%"class.xercesc_2_7::ContentSpecNode"*)** %vfn, align 8, !dbg !1843
  call void %4(%"class.xercesc_2_7::ContentSpecNode"* %2) #10, !dbg !1843
  br label %delete.end, !dbg !1843

delete.end:                                       ; preds = %delete.notnull, %if.then
  br label %if.end, !dbg !1844

if.end:                                           ; preds = %delete.end, %entry
  %fAdoptSecond = getelementptr inbounds %"class.xercesc_2_7::ContentSpecNode", %"class.xercesc_2_7::ContentSpecNode"* %this1, i32 0, i32 8, !dbg !1845
  %5 = load i8, i8* %fAdoptSecond, align 1, !dbg !1845
  %tobool2 = trunc i8 %5 to i1, !dbg !1845
  br i1 %tobool2, label %if.then3, label %if.end9, !dbg !1847

if.then3:                                         ; preds = %if.end
  %fSecond = getelementptr inbounds %"class.xercesc_2_7::ContentSpecNode", %"class.xercesc_2_7::ContentSpecNode"* %this1, i32 0, i32 5, !dbg !1848
  %6 = load %"class.xercesc_2_7::ContentSpecNode"*, %"class.xercesc_2_7::ContentSpecNode"** %fSecond, align 8, !dbg !1848
  %isnull4 = icmp eq %"class.xercesc_2_7::ContentSpecNode"* %6, null, !dbg !1850
  br i1 %isnull4, label %delete.end8, label %delete.notnull5, !dbg !1850

delete.notnull5:                                  ; preds = %if.then3
  %7 = bitcast %"class.xercesc_2_7::ContentSpecNode"* %6 to void (%"class.xercesc_2_7::ContentSpecNode"*)***, !dbg !1850
  %vtable6 = load void (%"class.xercesc_2_7::ContentSpecNode"*)**, void (%"class.xercesc_2_7::ContentSpecNode"*)*** %7, align 8, !dbg !1850
  %vfn7 = getelementptr inbounds void (%"class.xercesc_2_7::ContentSpecNode"*)*, void (%"class.xercesc_2_7::ContentSpecNode"*)** %vtable6, i64 1, !dbg !1850
  %8 = load void (%"class.xercesc_2_7::ContentSpecNode"*)*, void (%"class.xercesc_2_7::ContentSpecNode"*)** %vfn7, align 8, !dbg !1850
  call void %8(%"class.xercesc_2_7::ContentSpecNode"* %6) #10, !dbg !1850
  br label %delete.end8, !dbg !1850

delete.end8:                                      ; preds = %delete.notnull5, %if.then3
  br label %if.end9, !dbg !1851

if.end9:                                          ; preds = %delete.end8, %if.end
  %fElement = getelementptr inbounds %"class.xercesc_2_7::ContentSpecNode", %"class.xercesc_2_7::ContentSpecNode"* %this1, i32 0, i32 2, !dbg !1852
  %9 = load %"class.xercesc_2_7::QName"*, %"class.xercesc_2_7::QName"** %fElement, align 8, !dbg !1852
  %isnull10 = icmp eq %"class.xercesc_2_7::QName"* %9, null, !dbg !1853
  br i1 %isnull10, label %delete.end14, label %delete.notnull11, !dbg !1853

delete.notnull11:                                 ; preds = %if.end9
  %10 = bitcast %"class.xercesc_2_7::QName"* %9 to void (%"class.xercesc_2_7::QName"*)***, !dbg !1853
  %vtable12 = load void (%"class.xercesc_2_7::QName"*)**, void (%"class.xercesc_2_7::QName"*)*** %10, align 8, !dbg !1853
  %vfn13 = getelementptr inbounds void (%"class.xercesc_2_7::QName"*)*, void (%"class.xercesc_2_7::QName"*)** %vtable12, i64 1, !dbg !1853
  %11 = load void (%"class.xercesc_2_7::QName"*)*, void (%"class.xercesc_2_7::QName"*)** %vfn13, align 8, !dbg !1853
  call void %11(%"class.xercesc_2_7::QName"* %9) #10, !dbg !1853
  br label %delete.end14, !dbg !1853

delete.end14:                                     ; preds = %delete.notnull11, %if.end9
  %12 = bitcast %"class.xercesc_2_7::ContentSpecNode"* %this1 to %"class.xercesc_2_7::XSerializable"*, !dbg !1854
  call void @_ZN11xercesc_2_713XSerializableD2Ev(%"class.xercesc_2_7::XSerializable"* %12) #10, !dbg !1854
  ret void, !dbg !1855
}

; Function Attrs: nounwind
declare dso_local void @_ZN11xercesc_2_713XMLEntityDeclD2Ev(%"class.xercesc_2_7::XMLEntityDecl"*) unnamed_addr #4

; Function Attrs: noinline nounwind uwtable
define linkonce_odr dso_local void @_ZN11xercesc_2_713DTDEntityDeclD0Ev(%"class.xercesc_2_7::DTDEntityDecl"* %this) unnamed_addr #1 comdat align 2 !dbg !1856 {
entry:
  %this.addr = alloca %"class.xercesc_2_7::DTDEntityDecl"*, align 8
  store %"class.xercesc_2_7::DTDEntityDecl"* %this, %"class.xercesc_2_7::DTDEntityDecl"** %this.addr, align 8
  call void @llvm.dbg.declare(metadata %"class.xercesc_2_7::DTDEntityDecl"** %this.addr, metadata !1911, metadata !DIExpression()), !dbg !1913
  %this1 = load %"class.xercesc_2_7::DTDEntityDecl"*, %"class.xercesc_2_7::DTDEntityDecl"** %this.addr, align 8
  call void @_ZN11xercesc_2_713DTDEntityDeclD2Ev(%"class.xercesc_2_7::DTDEntityDecl"* %this1) #10, !dbg !1914
  %0 = bitcast %"class.xercesc_2_7::DTDEntityDecl"* %this1 to i8*, !dbg !1914
  call void @_ZN11xercesc_2_77XMemorydlEPv(i8* %0) #10, !dbg !1914
  ret void, !dbg !1915
}

; Function Attrs: noinline nounwind uwtable
define linkonce_odr dso_local void @_ZN11xercesc_2_713DTDEntityDeclD2Ev(%"class.xercesc_2_7::DTDEntityDecl"* %this) unnamed_addr #1 comdat align 2 !dbg !1916 {
entry:
  %this.addr = alloca %"class.xercesc_2_7::DTDEntityDecl"*, align 8
  store %"class.xercesc_2_7::DTDEntityDecl"* %this, %"class.xercesc_2_7::DTDEntityDecl"** %this.addr, align 8
  call void @llvm.dbg.declare(metadata %"class.xercesc_2_7::DTDEntityDecl"** %this.addr, metadata !1917, metadata !DIExpression()), !dbg !1918
  %this1 = load %"class.xercesc_2_7::DTDEntityDecl"*, %"class.xercesc_2_7::DTDEntityDecl"** %this.addr, align 8
  %0 = bitcast %"class.xercesc_2_7::DTDEntityDecl"* %this1 to %"class.xercesc_2_7::XMLEntityDecl"*, !dbg !1919
  call void @_ZN11xercesc_2_713XMLEntityDeclD2Ev(%"class.xercesc_2_7::XMLEntityDecl"* %0) #10, !dbg !1919
  ret void, !dbg !1921
}

; Function Attrs: noinline uwtable
define linkonce_odr dso_local void @_ZN11xercesc_2_712XPathScanner8addTokenEPNS_13ValueVectorOfIiEEi(%"class.xercesc_2_7::XPathScanner"* %this, %"class.xercesc_2_7::ValueVectorOf"* %tokens, i32 %aToken) unnamed_addr #6 comdat align 2 !dbg !1922 {
entry:
  %this.addr = alloca %"class.xercesc_2_7::XPathScanner"*, align 8
  %tokens.addr = alloca %"class.xercesc_2_7::ValueVectorOf"*, align 8
  %aToken.addr = alloca i32, align 4
  store %"class.xercesc_2_7::XPathScanner"* %this, %"class.xercesc_2_7::XPathScanner"** %this.addr, align 8
  call void @llvm.dbg.declare(metadata %"class.xercesc_2_7::XPathScanner"** %this.addr, metadata !2046, metadata !DIExpression()), !dbg !2048
  store %"class.xercesc_2_7::ValueVectorOf"* %tokens, %"class.xercesc_2_7::ValueVectorOf"** %tokens.addr, align 8
  call void @llvm.dbg.declare(metadata %"class.xercesc_2_7::ValueVectorOf"** %tokens.addr, metadata !2049, metadata !DIExpression()), !dbg !2050
  store i32 %aToken, i32* %aToken.addr, align 4
  call void @llvm.dbg.declare(metadata i32* %aToken.addr, metadata !2051, metadata !DIExpression()), !dbg !2052
  %this1 = load %"class.xercesc_2_7::XPathScanner"*, %"class.xercesc_2_7::XPathScanner"** %this.addr, align 8
  %0 = load %"class.xercesc_2_7::ValueVectorOf"*, %"class.xercesc_2_7::ValueVectorOf"** %tokens.addr, align 8, !dbg !2053
  call void @_ZN11xercesc_2_713ValueVectorOfIiE10addElementERKi(%"class.xercesc_2_7::ValueVectorOf"* %0, i32* dereferenceable(4) %aToken.addr), !dbg !2054
  ret void, !dbg !2055
}

; Function Attrs: noinline uwtable
define linkonce_odr dso_local void @_ZN11xercesc_2_713ValueVectorOfIiE10addElementERKi(%"class.xercesc_2_7::ValueVectorOf"* %this, i32* dereferenceable(4) %toAdd) #6 comdat align 2 !dbg !2056 {
entry:
  %this.addr = alloca %"class.xercesc_2_7::ValueVectorOf"*, align 8
  %toAdd.addr = alloca i32*, align 8
  store %"class.xercesc_2_7::ValueVectorOf"* %this, %"class.xercesc_2_7::ValueVectorOf"** %this.addr, align 8
  call void @llvm.dbg.declare(metadata %"class.xercesc_2_7::ValueVectorOf"** %this.addr, metadata !2058, metadata !DIExpression()), !dbg !2059
  store i32* %toAdd, i32** %toAdd.addr, align 8
  call void @llvm.dbg.declare(metadata i32** %toAdd.addr, metadata !2060, metadata !DIExpression()), !dbg !2061
  %this1 = load %"class.xercesc_2_7::ValueVectorOf"*, %"class.xercesc_2_7::ValueVectorOf"** %this.addr, align 8
  call void @_ZN11xercesc_2_713ValueVectorOfIiE19ensureExtraCapacityEj(%"class.xercesc_2_7::ValueVectorOf"* %this1, i32 1), !dbg !2062
  %0 = load i32*, i32** %toAdd.addr, align 8, !dbg !2063
  %1 = load i32, i32* %0, align 4, !dbg !2063
  %fElemList = getelementptr inbounds %"class.xercesc_2_7::ValueVectorOf", %"class.xercesc_2_7::ValueVectorOf"* %this1, i32 0, i32 3, !dbg !2064
  %2 = load i32*, i32** %fElemList, align 8, !dbg !2064
  %fCurCount = getelementptr inbounds %"class.xercesc_2_7::ValueVectorOf", %"class.xercesc_2_7::ValueVectorOf"* %this1, i32 0, i32 1, !dbg !2065
  %3 = load i32, i32* %fCurCount, align 4, !dbg !2065
  %idxprom = zext i32 %3 to i64, !dbg !2064
  %arrayidx = getelementptr inbounds i32, i32* %2, i64 %idxprom, !dbg !2064
  store i32 %1, i32* %arrayidx, align 4, !dbg !2066
  %fCurCount2 = getelementptr inbounds %"class.xercesc_2_7::ValueVectorOf", %"class.xercesc_2_7::ValueVectorOf"* %this1, i32 0, i32 1, !dbg !2067
  %4 = load i32, i32* %fCurCount2, align 4, !dbg !2068
  %inc = add i32 %4, 1, !dbg !2068
  store i32 %inc, i32* %fCurCount2, align 4, !dbg !2068
  ret void, !dbg !2069
}

; Function Attrs: noinline nounwind uwtable
define dso_local void @_ZN11xercesc_2_723AbstractStringValidatorD2Ev(%"class.xercesc_2_7::AbstractStringValidator"* %this) unnamed_addr #1 align 2 !dbg !2070 {
entry:
  %this.addr = alloca %"class.xercesc_2_7::AbstractStringValidator"*, align 8
  store %"class.xercesc_2_7::AbstractStringValidator"* %this, %"class.xercesc_2_7::AbstractStringValidator"** %this.addr, align 8
  call void @llvm.dbg.declare(metadata %"class.xercesc_2_7::AbstractStringValidator"** %this.addr, metadata !2071, metadata !DIExpression()), !dbg !2072
  %this1 = load %"class.xercesc_2_7::AbstractStringValidator"*, %"class.xercesc_2_7::AbstractStringValidator"** %this.addr, align 8
  %0 = bitcast %"class.xercesc_2_7::AbstractStringValidator"* %this1 to i32 (...)***, !dbg !2073
  store i32 (...)** bitcast (i8** getelementptr inbounds ({ [25 x i8*] }, { [25 x i8*] }* @_ZTVN11xercesc_2_723AbstractStringValidatorE, i32 0, inrange i32 0, i32 2) to i32 (...)**), i32 (...)*** %0, align 8, !dbg !2073
  %fEnumerationInherited = getelementptr inbounds %"class.xercesc_2_7::AbstractStringValidator", %"class.xercesc_2_7::AbstractStringValidator"* %this1, i32 0, i32 4, !dbg !2074
  %1 = load i8, i8* %fEnumerationInherited, align 4, !dbg !2074
  %tobool = trunc i8 %1 to i1, !dbg !2074
  br i1 %tobool, label %if.end, label %land.lhs.true, !dbg !2077

land.lhs.true:                                    ; preds = %entry
  %fEnumeration = getelementptr inbounds %"class.xercesc_2_7::AbstractStringValidator", %"class.xercesc_2_7::AbstractStringValidator"* %this1, i32 0, i32 5, !dbg !2078
  %2 = load %"class.xercesc_2_7::RefArrayVectorOf"*, %"class.xercesc_2_7::RefArrayVectorOf"** %fEnumeration, align 8, !dbg !2078
  %tobool2 = icmp ne %"class.xercesc_2_7::RefArrayVectorOf"* %2, null, !dbg !2078
  br i1 %tobool2, label %if.then, label %if.end, !dbg !2079

if.then:                                          ; preds = %land.lhs.true
  %fEnumeration3 = getelementptr inbounds %"class.xercesc_2_7::AbstractStringValidator", %"class.xercesc_2_7::AbstractStringValidator"* %this1, i32 0, i32 5, !dbg !2080
  %3 = load %"class.xercesc_2_7::RefArrayVectorOf"*, %"class.xercesc_2_7::RefArrayVectorOf"** %fEnumeration3, align 8, !dbg !2080
  %isnull = icmp eq %"class.xercesc_2_7::RefArrayVectorOf"* %3, null, !dbg !2082
  br i1 %isnull, label %delete.end, label %delete.notnull, !dbg !2082

delete.notnull:                                   ; preds = %if.then
  %4 = bitcast %"class.xercesc_2_7::RefArrayVectorOf"* %3 to void (%"class.xercesc_2_7::RefArrayVectorOf"*)***, !dbg !2082
  %vtable = load void (%"class.xercesc_2_7::RefArrayVectorOf"*)**, void (%"class.xercesc_2_7::RefArrayVectorOf"*)*** %4, align 8, !dbg !2082
  %vfn = getelementptr inbounds void (%"class.xercesc_2_7::RefArrayVectorOf"*)*, void (%"class.xercesc_2_7::RefArrayVectorOf"*)** %vtable, i64 1, !dbg !2082
  %5 = load void (%"class.xercesc_2_7::RefArrayVectorOf"*)*, void (%"class.xercesc_2_7::RefArrayVectorOf"*)** %vfn, align 8, !dbg !2082
  call void %5(%"class.xercesc_2_7::RefArrayVectorOf"* %3) #10, !dbg !2082
  br label %delete.end, !dbg !2082

delete.end:                                       ; preds = %delete.notnull, %if.then
  %fEnumeration4 = getelementptr inbounds %"class.xercesc_2_7::AbstractStringValidator", %"class.xercesc_2_7::AbstractStringValidator"* %this1, i32 0, i32 5, !dbg !2083
  store %"class.xercesc_2_7::RefArrayVectorOf"* null, %"class.xercesc_2_7::RefArrayVectorOf"** %fEnumeration4, align 8, !dbg !2084
  br label %if.end, !dbg !2085

if.end:                                           ; preds = %delete.end, %land.lhs.true, %entry
  %6 = bitcast %"class.xercesc_2_7::AbstractStringValidator"* %this1 to %"class.xercesc_2_7::DatatypeValidator"*, !dbg !2086
  call void @_ZN11xercesc_2_717DatatypeValidatorD2Ev(%"class.xercesc_2_7::DatatypeValidator"* %6) #10, !dbg !2086
  ret void, !dbg !2087
}

; Function Attrs: nounwind
declare dso_local void @_ZN11xercesc_2_717DatatypeValidatorD2Ev(%"class.xercesc_2_7::DatatypeValidator"*) unnamed_addr #4

; Function Attrs: noinline nounwind uwtable
define dso_local void @_ZN11xercesc_2_723AbstractStringValidatorD0Ev(%"class.xercesc_2_7::AbstractStringValidator"* %this) unnamed_addr #1 align 2 !dbg !2088 {
entry:
  %this.addr = alloca %"class.xercesc_2_7::AbstractStringValidator"*, align 8
  store %"class.xercesc_2_7::AbstractStringValidator"* %this, %"class.xercesc_2_7::AbstractStringValidator"** %this.addr, align 8
  call void @llvm.dbg.declare(metadata %"class.xercesc_2_7::AbstractStringValidator"** %this.addr, metadata !2089, metadata !DIExpression()), !dbg !2090
  %this1 = load %"class.xercesc_2_7::AbstractStringValidator"*, %"class.xercesc_2_7::AbstractStringValidator"** %this.addr, align 8
  call void @llvm.trap() #12, !dbg !2091
  unreachable, !dbg !2091
}

; Function Attrs: noinline uwtable
define dso_local void @_ZN11xercesc_2_723AbstractStringValidatorC2EPNS_17DatatypeValidatorEPNS_14RefHashTableOfINS_12KVStringPairEEEiNS1_13ValidatorTypeEPNS_13MemoryManagerE(%"class.xercesc_2_7::AbstractStringValidator"* %this, %"class.xercesc_2_7::DatatypeValidator"* %baseValidator, %"class.xercesc_2_7::RefHashTableOf.0"* %facets, i32 %finalSet, i32 %type, %"class.xercesc_2_7::MemoryManager"* %manager) unnamed_addr #6 align 2 !dbg !2092 {
entry:
  %this.addr = alloca %"class.xercesc_2_7::AbstractStringValidator"*, align 8
  %baseValidator.addr = alloca %"class.xercesc_2_7::DatatypeValidator"*, align 8
  %facets.addr = alloca %"class.xercesc_2_7::RefHashTableOf.0"*, align 8
  %finalSet.addr = alloca i32, align 4
  %type.addr = alloca i32, align 4
  %manager.addr = alloca %"class.xercesc_2_7::MemoryManager"*, align 8
  store %"class.xercesc_2_7::AbstractStringValidator"* %this, %"class.xercesc_2_7::AbstractStringValidator"** %this.addr, align 8
  call void @llvm.dbg.declare(metadata %"class.xercesc_2_7::AbstractStringValidator"** %this.addr, metadata !2093, metadata !DIExpression()), !dbg !2094
  store %"class.xercesc_2_7::DatatypeValidator"* %baseValidator, %"class.xercesc_2_7::DatatypeValidator"** %baseValidator.addr, align 8
  call void @llvm.dbg.declare(metadata %"class.xercesc_2_7::DatatypeValidator"** %baseValidator.addr, metadata !2095, metadata !DIExpression()), !dbg !2096
  store %"class.xercesc_2_7::RefHashTableOf.0"* %facets, %"class.xercesc_2_7::RefHashTableOf.0"** %facets.addr, align 8
  call void @llvm.dbg.declare(metadata %"class.xercesc_2_7::RefHashTableOf.0"** %facets.addr, metadata !2097, metadata !DIExpression()), !dbg !2098
  store i32 %finalSet, i32* %finalSet.addr, align 4
  call void @llvm.dbg.declare(metadata i32* %finalSet.addr, metadata !2099, metadata !DIExpression()), !dbg !2100
  store i32 %type, i32* %type.addr, align 4
  call void @llvm.dbg.declare(metadata i32* %type.addr, metadata !2101, metadata !DIExpression()), !dbg !2102
  store %"class.xercesc_2_7::MemoryManager"* %manager, %"class.xercesc_2_7::MemoryManager"** %manager.addr, align 8
  call void @llvm.dbg.declare(metadata %"class.xercesc_2_7::MemoryManager"** %manager.addr, metadata !2103, metadata !DIExpression()), !dbg !2104
  %this1 = load %"class.xercesc_2_7::AbstractStringValidator"*, %"class.xercesc_2_7::AbstractStringValidator"** %this.addr, align 8
  %0 = bitcast %"class.xercesc_2_7::AbstractStringValidator"* %this1 to %"class.xercesc_2_7::DatatypeValidator"*, !dbg !2105
  %1 = load %"class.xercesc_2_7::DatatypeValidator"*, %"class.xercesc_2_7::DatatypeValidator"** %baseValidator.addr, align 8, !dbg !2106
  %2 = load %"class.xercesc_2_7::RefHashTableOf.0"*, %"class.xercesc_2_7::RefHashTableOf.0"** %facets.addr, align 8, !dbg !2107
  %3 = load i32, i32* %finalSet.addr, align 4, !dbg !2108
  %4 = load i32, i32* %type.addr, align 4, !dbg !2109
  %5 = load %"class.xercesc_2_7::MemoryManager"*, %"class.xercesc_2_7::MemoryManager"** %manager.addr, align 8, !dbg !2110
  call void @_ZN11xercesc_2_717DatatypeValidatorC2EPS0_PNS_14RefHashTableOfINS_12KVStringPairEEEiNS0_13ValidatorTypeEPNS_13MemoryManagerE(%"class.xercesc_2_7::DatatypeValidator"* %0, %"class.xercesc_2_7::DatatypeValidator"* %1, %"class.xercesc_2_7::RefHashTableOf.0"* %2, i32 %3, i32 %4, %"class.xercesc_2_7::MemoryManager"* %5), !dbg !2111
  %6 = bitcast %"class.xercesc_2_7::AbstractStringValidator"* %this1 to i32 (...)***, !dbg !2105
  store i32 (...)** bitcast (i8** getelementptr inbounds ({ [25 x i8*] }, { [25 x i8*] }* @_ZTVN11xercesc_2_723AbstractStringValidatorE, i32 0, inrange i32 0, i32 2) to i32 (...)**), i32 (...)*** %6, align 8, !dbg !2105
  %fLength = getelementptr inbounds %"class.xercesc_2_7::AbstractStringValidator", %"class.xercesc_2_7::AbstractStringValidator"* %this1, i32 0, i32 1, !dbg !2112
  store i32 0, i32* %fLength, align 8, !dbg !2112
  %fMaxLength = getelementptr inbounds %"class.xercesc_2_7::AbstractStringValidator", %"class.xercesc_2_7::AbstractStringValidator"* %this1, i32 0, i32 2, !dbg !2113
  %7 = load i32, i32* @_ZN11xercesc_2_713SchemaSymbols15fgINT_MAX_VALUEE, align 4, !dbg !2114
  store i32 %7, i32* %fMaxLength, align 4, !dbg !2113
  %fMinLength = getelementptr inbounds %"class.xercesc_2_7::AbstractStringValidator", %"class.xercesc_2_7::AbstractStringValidator"* %this1, i32 0, i32 3, !dbg !2115
  store i32 0, i32* %fMinLength, align 8, !dbg !2115
  %fEnumerationInherited = getelementptr inbounds %"class.xercesc_2_7::AbstractStringValidator", %"class.xercesc_2_7::AbstractStringValidator"* %this1, i32 0, i32 4, !dbg !2116
  store i8 0, i8* %fEnumerationInherited, align 4, !dbg !2116
  %fEnumeration = getelementptr inbounds %"class.xercesc_2_7::AbstractStringValidator", %"class.xercesc_2_7::AbstractStringValidator"* %this1, i32 0, i32 5, !dbg !2117
  store %"class.xercesc_2_7::RefArrayVectorOf"* null, %"class.xercesc_2_7::RefArrayVectorOf"** %fEnumeration, align 8, !dbg !2117
  ret void, !dbg !2118
}

declare dso_local void @_ZN11xercesc_2_717DatatypeValidatorC2EPS0_PNS_14RefHashTableOfINS_12KVStringPairEEEiNS0_13ValidatorTypeEPNS_13MemoryManagerE(%"class.xercesc_2_7::DatatypeValidator"*, %"class.xercesc_2_7::DatatypeValidator"*, %"class.xercesc_2_7::RefHashTableOf.0"*, i32, i32, %"class.xercesc_2_7::MemoryManager"*) unnamed_addr #7

; Function Attrs: noinline uwtable
define dso_local void @_ZN11xercesc_2_723AbstractStringValidator4initEPNS_16RefArrayVectorOfItEEPNS_13MemoryManagerE(%"class.xercesc_2_7::AbstractStringValidator"* %this, %"class.xercesc_2_7::RefArrayVectorOf"* %enums, %"class.xercesc_2_7::MemoryManager"* %manager) #6 align 2 !dbg !2119 {
entry:
  %this.addr = alloca %"class.xercesc_2_7::AbstractStringValidator"*, align 8
  %enums.addr = alloca %"class.xercesc_2_7::RefArrayVectorOf"*, align 8
  %manager.addr = alloca %"class.xercesc_2_7::MemoryManager"*, align 8
  store %"class.xercesc_2_7::AbstractStringValidator"* %this, %"class.xercesc_2_7::AbstractStringValidator"** %this.addr, align 8
  call void @llvm.dbg.declare(metadata %"class.xercesc_2_7::AbstractStringValidator"** %this.addr, metadata !2120, metadata !DIExpression()), !dbg !2121
  store %"class.xercesc_2_7::RefArrayVectorOf"* %enums, %"class.xercesc_2_7::RefArrayVectorOf"** %enums.addr, align 8
  call void @llvm.dbg.declare(metadata %"class.xercesc_2_7::RefArrayVectorOf"** %enums.addr, metadata !2122, metadata !DIExpression()), !dbg !2123
  store %"class.xercesc_2_7::MemoryManager"* %manager, %"class.xercesc_2_7::MemoryManager"** %manager.addr, align 8
  call void @llvm.dbg.declare(metadata %"class.xercesc_2_7::MemoryManager"** %manager.addr, metadata !2124, metadata !DIExpression()), !dbg !2125
  %this1 = load %"class.xercesc_2_7::AbstractStringValidator"*, %"class.xercesc_2_7::AbstractStringValidator"** %this.addr, align 8
  %0 = load %"class.xercesc_2_7::RefArrayVectorOf"*, %"class.xercesc_2_7::RefArrayVectorOf"** %enums.addr, align 8, !dbg !2126
  %tobool = icmp ne %"class.xercesc_2_7::RefArrayVectorOf"* %0, null, !dbg !2126
  br i1 %tobool, label %if.then, label %if.end, !dbg !2128

if.then:                                          ; preds = %entry
  %1 = load %"class.xercesc_2_7::RefArrayVectorOf"*, %"class.xercesc_2_7::RefArrayVectorOf"** %enums.addr, align 8, !dbg !2129
  call void @_ZN11xercesc_2_723AbstractStringValidator14setEnumerationEPNS_16RefArrayVectorOfItEEb(%"class.xercesc_2_7::AbstractStringValidator"* %this1, %"class.xercesc_2_7::RefArrayVectorOf"* %1, i1 zeroext false), !dbg !2131
  %2 = load %"class.xercesc_2_7::MemoryManager"*, %"class.xercesc_2_7::MemoryManager"** %manager.addr, align 8, !dbg !2132
  %3 = bitcast %"class.xercesc_2_7::AbstractStringValidator"* %this1 to void (%"class.xercesc_2_7::AbstractStringValidator"*, %"class.xercesc_2_7::MemoryManager"*)***, !dbg !2133
  %vtable = load void (%"class.xercesc_2_7::AbstractStringValidator"*, %"class.xercesc_2_7::MemoryManager"*)**, void (%"class.xercesc_2_7::AbstractStringValidator"*, %"class.xercesc_2_7::MemoryManager"*)*** %3, align 8, !dbg !2133
  %vfn = getelementptr inbounds void (%"class.xercesc_2_7::AbstractStringValidator"*, %"class.xercesc_2_7::MemoryManager"*)*, void (%"class.xercesc_2_7::AbstractStringValidator"*, %"class.xercesc_2_7::MemoryManager"*)** %vtable, i64 21, !dbg !2133
  %4 = load void (%"class.xercesc_2_7::AbstractStringValidator"*, %"class.xercesc_2_7::MemoryManager"*)*, void (%"class.xercesc_2_7::AbstractStringValidator"*, %"class.xercesc_2_7::MemoryManager"*)** %vfn, align 8, !dbg !2133
  call void %4(%"class.xercesc_2_7::AbstractStringValidator"* %this1, %"class.xercesc_2_7::MemoryManager"* %2), !dbg !2133
  br label %if.end, !dbg !2134

if.end:                                           ; preds = %if.then, %entry
  %5 = load %"class.xercesc_2_7::MemoryManager"*, %"class.xercesc_2_7::MemoryManager"** %manager.addr, align 8, !dbg !2135
  call void @_ZN11xercesc_2_723AbstractStringValidator11assignFacetEPNS_13MemoryManagerE(%"class.xercesc_2_7::AbstractStringValidator"* %this1, %"class.xercesc_2_7::MemoryManager"* %5), !dbg !2136
  %6 = load %"class.xercesc_2_7::MemoryManager"*, %"class.xercesc_2_7::MemoryManager"** %manager.addr, align 8, !dbg !2137
  call void @_ZN11xercesc_2_723AbstractStringValidator12inspectFacetEPNS_13MemoryManagerE(%"class.xercesc_2_7::AbstractStringValidator"* %this1, %"class.xercesc_2_7::MemoryManager"* %6), !dbg !2138
  %7 = load %"class.xercesc_2_7::MemoryManager"*, %"class.xercesc_2_7::MemoryManager"** %manager.addr, align 8, !dbg !2139
  %8 = bitcast %"class.xercesc_2_7::AbstractStringValidator"* %this1 to void (%"class.xercesc_2_7::AbstractStringValidator"*, %"class.xercesc_2_7::MemoryManager"*)***, !dbg !2140
  %vtable2 = load void (%"class.xercesc_2_7::AbstractStringValidator"*, %"class.xercesc_2_7::MemoryManager"*)**, void (%"class.xercesc_2_7::AbstractStringValidator"*, %"class.xercesc_2_7::MemoryManager"*)*** %8, align 8, !dbg !2140
  %vfn3 = getelementptr inbounds void (%"class.xercesc_2_7::AbstractStringValidator"*, %"class.xercesc_2_7::MemoryManager"*)*, void (%"class.xercesc_2_7::AbstractStringValidator"*, %"class.xercesc_2_7::MemoryManager"*)** %vtable2, i64 18, !dbg !2140
  %9 = load void (%"class.xercesc_2_7::AbstractStringValidator"*, %"class.xercesc_2_7::MemoryManager"*)*, void (%"class.xercesc_2_7::AbstractStringValidator"*, %"class.xercesc_2_7::MemoryManager"*)** %vfn3, align 8, !dbg !2140
  call void %9(%"class.xercesc_2_7::AbstractStringValidator"* %this1, %"class.xercesc_2_7::MemoryManager"* %7), !dbg !2140
  %10 = bitcast %"class.xercesc_2_7::AbstractStringValidator"* %this1 to void (%"class.xercesc_2_7::AbstractStringValidator"*)***, !dbg !2141
  %vtable4 = load void (%"class.xercesc_2_7::AbstractStringValidator"*)**, void (%"class.xercesc_2_7::AbstractStringValidator"*)*** %10, align 8, !dbg !2141
  %vfn5 = getelementptr inbounds void (%"class.xercesc_2_7::AbstractStringValidator"*)*, void (%"class.xercesc_2_7::AbstractStringValidator"*)** %vtable4, i64 19, !dbg !2141
  %11 = load void (%"class.xercesc_2_7::AbstractStringValidator"*)*, void (%"class.xercesc_2_7::AbstractStringValidator"*)** %vfn5, align 8, !dbg !2141
  call void %11(%"class.xercesc_2_7::AbstractStringValidator"* %this1), !dbg !2141
  ret void, !dbg !2142
}

; Function Attrs: noinline uwtable
define linkonce_odr dso_local void @_ZN11xercesc_2_723AbstractStringValidator14setEnumerationEPNS_16RefArrayVectorOfItEEb(%"class.xercesc_2_7::AbstractStringValidator"* %this, %"class.xercesc_2_7::RefArrayVectorOf"* %enums, i1 zeroext %inherited) #6 comdat align 2 !dbg !2143 {
entry:
  %this.addr = alloca %"class.xercesc_2_7::AbstractStringValidator"*, align 8
  %enums.addr = alloca %"class.xercesc_2_7::RefArrayVectorOf"*, align 8
  %inherited.addr = alloca i8, align 1
  store %"class.xercesc_2_7::AbstractStringValidator"* %this, %"class.xercesc_2_7::AbstractStringValidator"** %this.addr, align 8
  call void @llvm.dbg.declare(metadata %"class.xercesc_2_7::AbstractStringValidator"** %this.addr, metadata !2144, metadata !DIExpression()), !dbg !2145
  store %"class.xercesc_2_7::RefArrayVectorOf"* %enums, %"class.xercesc_2_7::RefArrayVectorOf"** %enums.addr, align 8
  call void @llvm.dbg.declare(metadata %"class.xercesc_2_7::RefArrayVectorOf"** %enums.addr, metadata !2146, metadata !DIExpression()), !dbg !2147
  %frombool = zext i1 %inherited to i8
  store i8 %frombool, i8* %inherited.addr, align 1
  call void @llvm.dbg.declare(metadata i8* %inherited.addr, metadata !2148, metadata !DIExpression()), !dbg !2149
  %this1 = load %"class.xercesc_2_7::AbstractStringValidator"*, %"class.xercesc_2_7::AbstractStringValidator"** %this.addr, align 8
  %0 = load %"class.xercesc_2_7::RefArrayVectorOf"*, %"class.xercesc_2_7::RefArrayVectorOf"** %enums.addr, align 8, !dbg !2150
  %tobool = icmp ne %"class.xercesc_2_7::RefArrayVectorOf"* %0, null, !dbg !2150
  br i1 %tobool, label %if.then, label %if.end10, !dbg !2152

if.then:                                          ; preds = %entry
  %fEnumerationInherited = getelementptr inbounds %"class.xercesc_2_7::AbstractStringValidator", %"class.xercesc_2_7::AbstractStringValidator"* %this1, i32 0, i32 4, !dbg !2153
  %1 = load i8, i8* %fEnumerationInherited, align 4, !dbg !2153
  %tobool2 = trunc i8 %1 to i1, !dbg !2153
  br i1 %tobool2, label %if.end, label %land.lhs.true, !dbg !2156

land.lhs.true:                                    ; preds = %if.then
  %fEnumeration = getelementptr inbounds %"class.xercesc_2_7::AbstractStringValidator", %"class.xercesc_2_7::AbstractStringValidator"* %this1, i32 0, i32 5, !dbg !2157
  %2 = load %"class.xercesc_2_7::RefArrayVectorOf"*, %"class.xercesc_2_7::RefArrayVectorOf"** %fEnumeration, align 8, !dbg !2157
  %tobool3 = icmp ne %"class.xercesc_2_7::RefArrayVectorOf"* %2, null, !dbg !2157
  br i1 %tobool3, label %if.then4, label %if.end, !dbg !2158

if.then4:                                         ; preds = %land.lhs.true
  %fEnumeration5 = getelementptr inbounds %"class.xercesc_2_7::AbstractStringValidator", %"class.xercesc_2_7::AbstractStringValidator"* %this1, i32 0, i32 5, !dbg !2159
  %3 = load %"class.xercesc_2_7::RefArrayVectorOf"*, %"class.xercesc_2_7::RefArrayVectorOf"** %fEnumeration5, align 8, !dbg !2159
  %isnull = icmp eq %"class.xercesc_2_7::RefArrayVectorOf"* %3, null, !dbg !2160
  br i1 %isnull, label %delete.end, label %delete.notnull, !dbg !2160

delete.notnull:                                   ; preds = %if.then4
  %4 = bitcast %"class.xercesc_2_7::RefArrayVectorOf"* %3 to void (%"class.xercesc_2_7::RefArrayVectorOf"*)***, !dbg !2160
  %vtable = load void (%"class.xercesc_2_7::RefArrayVectorOf"*)**, void (%"class.xercesc_2_7::RefArrayVectorOf"*)*** %4, align 8, !dbg !2160
  %vfn = getelementptr inbounds void (%"class.xercesc_2_7::RefArrayVectorOf"*)*, void (%"class.xercesc_2_7::RefArrayVectorOf"*)** %vtable, i64 1, !dbg !2160
  %5 = load void (%"class.xercesc_2_7::RefArrayVectorOf"*)*, void (%"class.xercesc_2_7::RefArrayVectorOf"*)** %vfn, align 8, !dbg !2160
  call void %5(%"class.xercesc_2_7::RefArrayVectorOf"* %3) #10, !dbg !2160
  br label %delete.end, !dbg !2160

delete.end:                                       ; preds = %delete.notnull, %if.then4
  br label %if.end, !dbg !2160

if.end:                                           ; preds = %delete.end, %land.lhs.true, %if.then
  %6 = load %"class.xercesc_2_7::RefArrayVectorOf"*, %"class.xercesc_2_7::RefArrayVectorOf"** %enums.addr, align 8, !dbg !2161
  %fEnumeration6 = getelementptr inbounds %"class.xercesc_2_7::AbstractStringValidator", %"class.xercesc_2_7::AbstractStringValidator"* %this1, i32 0, i32 5, !dbg !2162
  store %"class.xercesc_2_7::RefArrayVectorOf"* %6, %"class.xercesc_2_7::RefArrayVectorOf"** %fEnumeration6, align 8, !dbg !2163
  %7 = load i8, i8* %inherited.addr, align 1, !dbg !2164
  %tobool7 = trunc i8 %7 to i1, !dbg !2164
  %fEnumerationInherited8 = getelementptr inbounds %"class.xercesc_2_7::AbstractStringValidator", %"class.xercesc_2_7::AbstractStringValidator"* %this1, i32 0, i32 4, !dbg !2165
  %frombool9 = zext i1 %tobool7 to i8, !dbg !2166
  store i8 %frombool9, i8* %fEnumerationInherited8, align 4, !dbg !2166
  %8 = bitcast %"class.xercesc_2_7::AbstractStringValidator"* %this1 to %"class.xercesc_2_7::DatatypeValidator"*, !dbg !2167
  call void @_ZN11xercesc_2_717DatatypeValidator16setFacetsDefinedEi(%"class.xercesc_2_7::DatatypeValidator"* %8, i32 16), !dbg !2167
  br label %if.end10, !dbg !2168

if.end10:                                         ; preds = %if.end, %entry
  ret void, !dbg !2169
}

; Function Attrs: noinline uwtable
define dso_local void @_ZN11xercesc_2_723AbstractStringValidator11assignFacetEPNS_13MemoryManagerE(%"class.xercesc_2_7::AbstractStringValidator"* %this, %"class.xercesc_2_7::MemoryManager"* %manager) #6 align 2 personality i8* bitcast (i32 (...)* @__gxx_personality_v0 to i8*) !dbg !2170 {
entry:
  %this.addr = alloca %"class.xercesc_2_7::AbstractStringValidator"*, align 8
  %manager.addr = alloca %"class.xercesc_2_7::MemoryManager"*, align 8
  %facets = alloca %"class.xercesc_2_7::RefHashTableOf.0"*, align 8
  %key = alloca i16*, align 8
  %e = alloca %"class.xercesc_2_7::RefHashTableOfEnumerator", align 8
  %exn.slot = alloca i8*
  %ehselector.slot = alloca i32
  %pair = alloca %"class.xercesc_2_7::KVStringPair", align 8
  %value = alloca i16*, align 8
  %val = alloca i32, align 4
  %0 = alloca %"class.xercesc_2_7::NumberFormatException"*, align 8
  %val32 = alloca i32, align 4
  %1 = alloca %"class.xercesc_2_7::NumberFormatException"*, align 8
  %val63 = alloca i32, align 4
  %2 = alloca %"class.xercesc_2_7::NumberFormatException"*, align 8
  %val105 = alloca i32, align 4
  %retStatus = alloca i8, align 1
  %3 = alloca %"class.xercesc_2_7::RuntimeException"*, align 8
  store %"class.xercesc_2_7::AbstractStringValidator"* %this, %"class.xercesc_2_7::AbstractStringValidator"** %this.addr, align 8
  call void @llvm.dbg.declare(metadata %"class.xercesc_2_7::AbstractStringValidator"** %this.addr, metadata !2171, metadata !DIExpression()), !dbg !2172
  store %"class.xercesc_2_7::MemoryManager"* %manager, %"class.xercesc_2_7::MemoryManager"** %manager.addr, align 8
  call void @llvm.dbg.declare(metadata %"class.xercesc_2_7::MemoryManager"** %manager.addr, metadata !2173, metadata !DIExpression()), !dbg !2174
  %this1 = load %"class.xercesc_2_7::AbstractStringValidator"*, %"class.xercesc_2_7::AbstractStringValidator"** %this.addr, align 8
  call void @llvm.dbg.declare(metadata %"class.xercesc_2_7::RefHashTableOf.0"** %facets, metadata !2175, metadata !DIExpression()), !dbg !2176
  %4 = bitcast %"class.xercesc_2_7::AbstractStringValidator"* %this1 to %"class.xercesc_2_7::DatatypeValidator"*, !dbg !2177
  %call = call %"class.xercesc_2_7::RefHashTableOf.0"* @_ZNK11xercesc_2_717DatatypeValidator9getFacetsEv(%"class.xercesc_2_7::DatatypeValidator"* %4), !dbg !2177
  store %"class.xercesc_2_7::RefHashTableOf.0"* %call, %"class.xercesc_2_7::RefHashTableOf.0"** %facets, align 8, !dbg !2176
  %5 = load %"class.xercesc_2_7::RefHashTableOf.0"*, %"class.xercesc_2_7::RefHashTableOf.0"** %facets, align 8, !dbg !2178
  %tobool = icmp ne %"class.xercesc_2_7::RefHashTableOf.0"* %5, null, !dbg !2178
  br i1 %tobool, label %if.end, label %if.then, !dbg !2180

if.then:                                          ; preds = %entry
  br label %return, !dbg !2181

if.end:                                           ; preds = %entry
  call void @llvm.dbg.declare(metadata i16** %key, metadata !2182, metadata !DIExpression()), !dbg !2183
  call void @llvm.dbg.declare(metadata %"class.xercesc_2_7::RefHashTableOfEnumerator"* %e, metadata !2184, metadata !DIExpression()), !dbg !2251
  %6 = load %"class.xercesc_2_7::RefHashTableOf.0"*, %"class.xercesc_2_7::RefHashTableOf.0"** %facets, align 8, !dbg !2252
  %7 = load %"class.xercesc_2_7::MemoryManager"*, %"class.xercesc_2_7::MemoryManager"** %manager.addr, align 8, !dbg !2253
  call void @_ZN11xercesc_2_724RefHashTableOfEnumeratorINS_12KVStringPairEEC2EPNS_14RefHashTableOfIS1_EEbPNS_13MemoryManagerE(%"class.xercesc_2_7::RefHashTableOfEnumerator"* %e, %"class.xercesc_2_7::RefHashTableOf.0"* %6, i1 zeroext false, %"class.xercesc_2_7::MemoryManager"* %7), !dbg !2251
  br label %while.cond, !dbg !2254

while.cond:                                       ; preds = %if.end137, %if.end
  %call2 = invoke zeroext i1 @_ZNK11xercesc_2_724RefHashTableOfEnumeratorINS_12KVStringPairEE15hasMoreElementsEv(%"class.xercesc_2_7::RefHashTableOfEnumerator"* %e)
          to label %invoke.cont unwind label %lpad, !dbg !2255

invoke.cont:                                      ; preds = %while.cond
  br i1 %call2, label %while.body, label %while.end, !dbg !2254

while.body:                                       ; preds = %invoke.cont
  call void @llvm.dbg.declare(metadata %"class.xercesc_2_7::KVStringPair"* %pair, metadata !2256, metadata !DIExpression()), !dbg !2258
  %call4 = invoke dereferenceable(48) %"class.xercesc_2_7::KVStringPair"* @_ZN11xercesc_2_724RefHashTableOfEnumeratorINS_12KVStringPairEE11nextElementEv(%"class.xercesc_2_7::RefHashTableOfEnumerator"* %e)
          to label %invoke.cont3 unwind label %lpad, !dbg !2259

invoke.cont3:                                     ; preds = %while.body
  invoke void @_ZN11xercesc_2_712KVStringPairC1ERKS0_(%"class.xercesc_2_7::KVStringPair"* %pair, %"class.xercesc_2_7::KVStringPair"* dereferenceable(48) %call4)
          to label %invoke.cont5 unwind label %lpad, !dbg !2260

invoke.cont5:                                     ; preds = %invoke.cont3
  %call8 = invoke i16* @_ZN11xercesc_2_712KVStringPair6getKeyEv(%"class.xercesc_2_7::KVStringPair"* %pair)
          to label %invoke.cont7 unwind label %lpad6, !dbg !2261

invoke.cont7:                                     ; preds = %invoke.cont5
  store i16* %call8, i16** %key, align 8, !dbg !2262
  call void @llvm.dbg.declare(metadata i16** %value, metadata !2263, metadata !DIExpression()), !dbg !2264
  %call10 = invoke i16* @_ZN11xercesc_2_712KVStringPair8getValueEv(%"class.xercesc_2_7::KVStringPair"* %pair)
          to label %invoke.cont9 unwind label %lpad6, !dbg !2265

invoke.cont9:                                     ; preds = %invoke.cont7
  store i16* %call10, i16** %value, align 8, !dbg !2264
  %8 = load i16*, i16** %key, align 8, !dbg !2266
  %call12 = invoke zeroext i1 @_ZN11xercesc_2_79XMLString6equalsEPKtS2_(i16* %8, i16* getelementptr inbounds ([0 x i16], [0 x i16]* @_ZN11xercesc_2_713SchemaSymbols12fgELT_LENGTHE, i64 0, i64 0))
          to label %invoke.cont11 unwind label %lpad6, !dbg !2268

invoke.cont11:                                    ; preds = %invoke.cont9
  br i1 %call12, label %if.then13, label %if.else, !dbg !2269

if.then13:                                        ; preds = %invoke.cont11
  call void @llvm.dbg.declare(metadata i32* %val, metadata !2270, metadata !DIExpression()), !dbg !2272
  %9 = load i16*, i16** %value, align 8, !dbg !2273
  %10 = load %"class.xercesc_2_7::MemoryManager"*, %"class.xercesc_2_7::MemoryManager"** %manager.addr, align 8, !dbg !2275
  %call16 = invoke i32 @_ZN11xercesc_2_79XMLString8parseIntEPKtPNS_13MemoryManagerE(i16* %9, %"class.xercesc_2_7::MemoryManager"* %10)
          to label %invoke.cont15 unwind label %lpad14, !dbg !2276

invoke.cont15:                                    ; preds = %if.then13
  store i32 %call16, i32* %val, align 4, !dbg !2277
  br label %try.cont, !dbg !2278

lpad:                                             ; preds = %invoke.cont3, %while.body, %while.cond
  %11 = landingpad { i8*, i32 }
          cleanup, !dbg !2279
  %12 = extractvalue { i8*, i32 } %11, 0, !dbg !2279
  store i8* %12, i8** %exn.slot, align 8, !dbg !2279
  %13 = extractvalue { i8*, i32 } %11, 1, !dbg !2279
  store i32 %13, i32* %ehselector.slot, align 4, !dbg !2279
  br label %ehcleanup139, !dbg !2279

lpad6:                                            ; preds = %if.else131, %if.end129, %invoke.cont127, %if.else101, %if.then98, %invoke.cont94, %if.then93, %if.else90, %invoke.cont88, %if.end87, %invoke.cont85, %if.else59, %invoke.cont57, %if.end56, %invoke.cont54, %if.else, %invoke.cont27, %if.end26, %invoke.cont24, %invoke.cont9, %invoke.cont7, %invoke.cont5
  %14 = landingpad { i8*, i32 }
          cleanup, !dbg !2280
  %15 = extractvalue { i8*, i32 } %14, 0, !dbg !2280
  store i8* %15, i8** %exn.slot, align 8, !dbg !2280
  %16 = extractvalue { i8*, i32 } %14, 1, !dbg !2280
  store i32 %16, i32* %ehselector.slot, align 4, !dbg !2280
  br label %ehcleanup138, !dbg !2280

lpad14:                                           ; preds = %if.then13
  %17 = landingpad { i8*, i32 }
          cleanup
          catch i8* bitcast ({ i8*, i8*, i8* }* @_ZTIN11xercesc_2_721NumberFormatExceptionE to i8*), !dbg !2281
  %18 = extractvalue { i8*, i32 } %17, 0, !dbg !2281
  store i8* %18, i8** %exn.slot, align 8, !dbg !2281
  %19 = extractvalue { i8*, i32 } %17, 1, !dbg !2281
  store i32 %19, i32* %ehselector.slot, align 4, !dbg !2281
  br label %catch.dispatch, !dbg !2281

catch.dispatch:                                   ; preds = %lpad14
  %sel = load i32, i32* %ehselector.slot, align 4, !dbg !2278
  %20 = call i32 @llvm.eh.typeid.for(i8* bitcast ({ i8*, i8*, i8* }* @_ZTIN11xercesc_2_721NumberFormatExceptionE to i8*)) #10, !dbg !2278
  %matches = icmp eq i32 %sel, %20, !dbg !2278
  br i1 %matches, label %catch, label %ehcleanup138, !dbg !2278

catch:                                            ; preds = %catch.dispatch
  call void @llvm.dbg.declare(metadata %"class.xercesc_2_7::NumberFormatException"** %0, metadata !2282, metadata !DIExpression()), !dbg !2286
  %exn = load i8*, i8** %exn.slot, align 8, !dbg !2278
  %21 = call i8* @__cxa_begin_catch(i8* %exn) #10, !dbg !2278
  %exn.byref = bitcast i8* %21 to %"class.xercesc_2_7::NumberFormatException"*, !dbg !2278
  store %"class.xercesc_2_7::NumberFormatException"* %exn.byref, %"class.xercesc_2_7::NumberFormatException"** %0, align 8, !dbg !2278
  %exception = call i8* @__cxa_allocate_exception(i64 48) #10, !dbg !2287
  %22 = bitcast i8* %exception to %"class.xercesc_2_7::InvalidDatatypeFacetException"*, !dbg !2287
  %23 = load i16*, i16** %value, align 8, !dbg !2287
  %24 = load %"class.xercesc_2_7::MemoryManager"*, %"class.xercesc_2_7::MemoryManager"** %manager.addr, align 8, !dbg !2287
  invoke void @_ZN11xercesc_2_729InvalidDatatypeFacetExceptionC2EPKcjNS_10XMLExcepts5CodesEPKtS6_S6_S6_PNS_13MemoryManagerE(%"class.xercesc_2_7::InvalidDatatypeFacetException"* %22, i8* getelementptr inbounds ([28 x i8], [28 x i8]* @.str, i64 0, i64 0), i32 137, i32 161, i16* %23, i16* null, i16* null, i16* null, %"class.xercesc_2_7::MemoryManager"* %24)
          to label %invoke.cont18 unwind label %lpad17, !dbg !2287

invoke.cont18:                                    ; preds = %catch
  invoke void @__cxa_throw(i8* %exception, i8* bitcast ({ i8*, i8*, i8* }* @_ZTIN11xercesc_2_729InvalidDatatypeFacetExceptionE to i8*), i8* bitcast (void (%"class.xercesc_2_7::InvalidDatatypeFacetException"*)* @_ZN11xercesc_2_729InvalidDatatypeFacetExceptionD2Ev to i8*)) #13
          to label %unreachable unwind label %lpad19, !dbg !2287

lpad17:                                           ; preds = %catch
  %25 = landingpad { i8*, i32 }
          cleanup, !dbg !2289
  %26 = extractvalue { i8*, i32 } %25, 0, !dbg !2289
  store i8* %26, i8** %exn.slot, align 8, !dbg !2289
  %27 = extractvalue { i8*, i32 } %25, 1, !dbg !2289
  store i32 %27, i32* %ehselector.slot, align 4, !dbg !2289
  call void @__cxa_free_exception(i8* %exception) #10, !dbg !2287
  br label %ehcleanup, !dbg !2287

lpad19:                                           ; preds = %invoke.cont18
  %28 = landingpad { i8*, i32 }
          cleanup, !dbg !2289
  %29 = extractvalue { i8*, i32 } %28, 0, !dbg !2289
  store i8* %29, i8** %exn.slot, align 8, !dbg !2289
  %30 = extractvalue { i8*, i32 } %28, 1, !dbg !2289
  store i32 %30, i32* %ehselector.slot, align 4, !dbg !2289
  br label %ehcleanup, !dbg !2289

ehcleanup:                                        ; preds = %lpad19, %lpad17
  invoke void @__cxa_end_catch()
          to label %invoke.cont20 unwind label %terminate.lpad, !dbg !2290

invoke.cont20:                                    ; preds = %ehcleanup
  br label %ehcleanup138, !dbg !2290

try.cont:                                         ; preds = %invoke.cont15
  %31 = load i32, i32* %val, align 4, !dbg !2291
  %cmp = icmp slt i32 %31, 0, !dbg !2293
  br i1 %cmp, label %if.then21, label %if.end26, !dbg !2294

if.then21:                                        ; preds = %try.cont
  %exception22 = call i8* @__cxa_allocate_exception(i64 48) #10, !dbg !2295
  %32 = bitcast i8* %exception22 to %"class.xercesc_2_7::InvalidDatatypeFacetException"*, !dbg !2295
  %33 = load i16*, i16** %value, align 8, !dbg !2295
  %34 = load %"class.xercesc_2_7::MemoryManager"*, %"class.xercesc_2_7::MemoryManager"** %manager.addr, align 8, !dbg !2295
  invoke void @_ZN11xercesc_2_729InvalidDatatypeFacetExceptionC2EPKcjNS_10XMLExcepts5CodesEPKtS6_S6_S6_PNS_13MemoryManagerE(%"class.xercesc_2_7::InvalidDatatypeFacetException"* %32, i8* getelementptr inbounds ([28 x i8], [28 x i8]* @.str, i64 0, i64 0), i32 141, i32 164, i16* %33, i16* null, i16* null, i16* null, %"class.xercesc_2_7::MemoryManager"* %34)
          to label %invoke.cont24 unwind label %lpad23, !dbg !2295

invoke.cont24:                                    ; preds = %if.then21
  invoke void @__cxa_throw(i8* %exception22, i8* bitcast ({ i8*, i8*, i8* }* @_ZTIN11xercesc_2_729InvalidDatatypeFacetExceptionE to i8*), i8* bitcast (void (%"class.xercesc_2_7::InvalidDatatypeFacetException"*)* @_ZN11xercesc_2_729InvalidDatatypeFacetExceptionD2Ev to i8*)) #13
          to label %unreachable unwind label %lpad6, !dbg !2295

lpad23:                                           ; preds = %if.then21
  %35 = landingpad { i8*, i32 }
          cleanup, !dbg !2296
  %36 = extractvalue { i8*, i32 } %35, 0, !dbg !2296
  store i8* %36, i8** %exn.slot, align 8, !dbg !2296
  %37 = extractvalue { i8*, i32 } %35, 1, !dbg !2296
  store i32 %37, i32* %ehselector.slot, align 4, !dbg !2296
  call void @__cxa_free_exception(i8* %exception22) #10, !dbg !2295
  br label %ehcleanup138, !dbg !2295

if.end26:                                         ; preds = %try.cont
  %38 = load i32, i32* %val, align 4, !dbg !2297
  invoke void @_ZN11xercesc_2_723AbstractStringValidator9setLengthEj(%"class.xercesc_2_7::AbstractStringValidator"* %this1, i32 %38)
          to label %invoke.cont27 unwind label %lpad6, !dbg !2298

invoke.cont27:                                    ; preds = %if.end26
  %39 = bitcast %"class.xercesc_2_7::AbstractStringValidator"* %this1 to %"class.xercesc_2_7::DatatypeValidator"*, !dbg !2299
  invoke void @_ZN11xercesc_2_717DatatypeValidator16setFacetsDefinedEi(%"class.xercesc_2_7::DatatypeValidator"* %39, i32 1)
          to label %invoke.cont28 unwind label %lpad6, !dbg !2299

invoke.cont28:                                    ; preds = %invoke.cont27
  br label %if.end137, !dbg !2300

if.else:                                          ; preds = %invoke.cont11
  %40 = load i16*, i16** %key, align 8, !dbg !2301
  %call30 = invoke zeroext i1 @_ZN11xercesc_2_79XMLString6equalsEPKtS2_(i16* %40, i16* getelementptr inbounds ([0 x i16], [0 x i16]* @_ZN11xercesc_2_713SchemaSymbols15fgELT_MINLENGTHE, i64 0, i64 0))
          to label %invoke.cont29 unwind label %lpad6, !dbg !2303

invoke.cont29:                                    ; preds = %if.else
  br i1 %call30, label %if.then31, label %if.else59, !dbg !2304

if.then31:                                        ; preds = %invoke.cont29
  call void @llvm.dbg.declare(metadata i32* %val32, metadata !2305, metadata !DIExpression()), !dbg !2307
  %41 = load i16*, i16** %value, align 8, !dbg !2308
  %42 = load %"class.xercesc_2_7::MemoryManager"*, %"class.xercesc_2_7::MemoryManager"** %manager.addr, align 8, !dbg !2310
  %call35 = invoke i32 @_ZN11xercesc_2_79XMLString8parseIntEPKtPNS_13MemoryManagerE(i16* %41, %"class.xercesc_2_7::MemoryManager"* %42)
          to label %invoke.cont34 unwind label %lpad33, !dbg !2311

invoke.cont34:                                    ; preds = %if.then31
  store i32 %call35, i32* %val32, align 4, !dbg !2312
  br label %try.cont49, !dbg !2313

lpad33:                                           ; preds = %if.then31
  %43 = landingpad { i8*, i32 }
          cleanup
          catch i8* bitcast ({ i8*, i8*, i8* }* @_ZTIN11xercesc_2_721NumberFormatExceptionE to i8*), !dbg !2314
  %44 = extractvalue { i8*, i32 } %43, 0, !dbg !2314
  store i8* %44, i8** %exn.slot, align 8, !dbg !2314
  %45 = extractvalue { i8*, i32 } %43, 1, !dbg !2314
  store i32 %45, i32* %ehselector.slot, align 4, !dbg !2314
  br label %catch.dispatch36, !dbg !2314

catch.dispatch36:                                 ; preds = %lpad33
  %sel37 = load i32, i32* %ehselector.slot, align 4, !dbg !2313
  %46 = call i32 @llvm.eh.typeid.for(i8* bitcast ({ i8*, i8*, i8* }* @_ZTIN11xercesc_2_721NumberFormatExceptionE to i8*)) #10, !dbg !2313
  %matches38 = icmp eq i32 %sel37, %46, !dbg !2313
  br i1 %matches38, label %catch39, label %ehcleanup138, !dbg !2313

catch39:                                          ; preds = %catch.dispatch36
  call void @llvm.dbg.declare(metadata %"class.xercesc_2_7::NumberFormatException"** %1, metadata !2315, metadata !DIExpression()), !dbg !2316
  %exn40 = load i8*, i8** %exn.slot, align 8, !dbg !2313
  %47 = call i8* @__cxa_begin_catch(i8* %exn40) #10, !dbg !2313
  %exn.byref41 = bitcast i8* %47 to %"class.xercesc_2_7::NumberFormatException"*, !dbg !2313
  store %"class.xercesc_2_7::NumberFormatException"* %exn.byref41, %"class.xercesc_2_7::NumberFormatException"** %1, align 8, !dbg !2313
  %exception42 = call i8* @__cxa_allocate_exception(i64 48) #10, !dbg !2317
  %48 = bitcast i8* %exception42 to %"class.xercesc_2_7::InvalidDatatypeFacetException"*, !dbg !2317
  %49 = load i16*, i16** %value, align 8, !dbg !2317
  %50 = load %"class.xercesc_2_7::MemoryManager"*, %"class.xercesc_2_7::MemoryManager"** %manager.addr, align 8, !dbg !2317
  invoke void @_ZN11xercesc_2_729InvalidDatatypeFacetExceptionC2EPKcjNS_10XMLExcepts5CodesEPKtS6_S6_S6_PNS_13MemoryManagerE(%"class.xercesc_2_7::InvalidDatatypeFacetException"* %48, i8* getelementptr inbounds ([28 x i8], [28 x i8]* @.str, i64 0, i64 0), i32 155, i32 163, i16* %49, i16* null, i16* null, i16* null, %"class.xercesc_2_7::MemoryManager"* %50)
          to label %invoke.cont44 unwind label %lpad43, !dbg !2317

invoke.cont44:                                    ; preds = %catch39
  invoke void @__cxa_throw(i8* %exception42, i8* bitcast ({ i8*, i8*, i8* }* @_ZTIN11xercesc_2_729InvalidDatatypeFacetExceptionE to i8*), i8* bitcast (void (%"class.xercesc_2_7::InvalidDatatypeFacetException"*)* @_ZN11xercesc_2_729InvalidDatatypeFacetExceptionD2Ev to i8*)) #13
          to label %unreachable unwind label %lpad46, !dbg !2317

lpad43:                                           ; preds = %catch39
  %51 = landingpad { i8*, i32 }
          cleanup, !dbg !2319
  %52 = extractvalue { i8*, i32 } %51, 0, !dbg !2319
  store i8* %52, i8** %exn.slot, align 8, !dbg !2319
  %53 = extractvalue { i8*, i32 } %51, 1, !dbg !2319
  store i32 %53, i32* %ehselector.slot, align 4, !dbg !2319
  call void @__cxa_free_exception(i8* %exception42) #10, !dbg !2317
  br label %ehcleanup47, !dbg !2317

lpad46:                                           ; preds = %invoke.cont44
  %54 = landingpad { i8*, i32 }
          cleanup, !dbg !2319
  %55 = extractvalue { i8*, i32 } %54, 0, !dbg !2319
  store i8* %55, i8** %exn.slot, align 8, !dbg !2319
  %56 = extractvalue { i8*, i32 } %54, 1, !dbg !2319
  store i32 %56, i32* %ehselector.slot, align 4, !dbg !2319
  br label %ehcleanup47, !dbg !2319

ehcleanup47:                                      ; preds = %lpad46, %lpad43
  invoke void @__cxa_end_catch()
          to label %invoke.cont48 unwind label %terminate.lpad, !dbg !2320

invoke.cont48:                                    ; preds = %ehcleanup47
  br label %ehcleanup138, !dbg !2320

try.cont49:                                       ; preds = %invoke.cont34
  %57 = load i32, i32* %val32, align 4, !dbg !2321
  %cmp50 = icmp slt i32 %57, 0, !dbg !2323
  br i1 %cmp50, label %if.then51, label %if.end56, !dbg !2324

if.then51:                                        ; preds = %try.cont49
  %exception52 = call i8* @__cxa_allocate_exception(i64 48) #10, !dbg !2325
  %58 = bitcast i8* %exception52 to %"class.xercesc_2_7::InvalidDatatypeFacetException"*, !dbg !2325
  %59 = load i16*, i16** %value, align 8, !dbg !2325
  %60 = load %"class.xercesc_2_7::MemoryManager"*, %"class.xercesc_2_7::MemoryManager"** %manager.addr, align 8, !dbg !2325
  invoke void @_ZN11xercesc_2_729InvalidDatatypeFacetExceptionC2EPKcjNS_10XMLExcepts5CodesEPKtS6_S6_S6_PNS_13MemoryManagerE(%"class.xercesc_2_7::InvalidDatatypeFacetException"* %58, i8* getelementptr inbounds ([28 x i8], [28 x i8]* @.str, i64 0, i64 0), i32 159, i32 166, i16* %59, i16* null, i16* null, i16* null, %"class.xercesc_2_7::MemoryManager"* %60)
          to label %invoke.cont54 unwind label %lpad53, !dbg !2325

invoke.cont54:                                    ; preds = %if.then51
  invoke void @__cxa_throw(i8* %exception52, i8* bitcast ({ i8*, i8*, i8* }* @_ZTIN11xercesc_2_729InvalidDatatypeFacetExceptionE to i8*), i8* bitcast (void (%"class.xercesc_2_7::InvalidDatatypeFacetException"*)* @_ZN11xercesc_2_729InvalidDatatypeFacetExceptionD2Ev to i8*)) #13
          to label %unreachable unwind label %lpad6, !dbg !2325

lpad53:                                           ; preds = %if.then51
  %61 = landingpad { i8*, i32 }
          cleanup, !dbg !2326
  %62 = extractvalue { i8*, i32 } %61, 0, !dbg !2326
  store i8* %62, i8** %exn.slot, align 8, !dbg !2326
  %63 = extractvalue { i8*, i32 } %61, 1, !dbg !2326
  store i32 %63, i32* %ehselector.slot, align 4, !dbg !2326
  call void @__cxa_free_exception(i8* %exception52) #10, !dbg !2325
  br label %ehcleanup138, !dbg !2325

if.end56:                                         ; preds = %try.cont49
  %64 = load i32, i32* %val32, align 4, !dbg !2327
  invoke void @_ZN11xercesc_2_723AbstractStringValidator12setMinLengthEj(%"class.xercesc_2_7::AbstractStringValidator"* %this1, i32 %64)
          to label %invoke.cont57 unwind label %lpad6, !dbg !2328

invoke.cont57:                                    ; preds = %if.end56
  %65 = bitcast %"class.xercesc_2_7::AbstractStringValidator"* %this1 to %"class.xercesc_2_7::DatatypeValidator"*, !dbg !2329
  invoke void @_ZN11xercesc_2_717DatatypeValidator16setFacetsDefinedEi(%"class.xercesc_2_7::DatatypeValidator"* %65, i32 2)
          to label %invoke.cont58 unwind label %lpad6, !dbg !2329

invoke.cont58:                                    ; preds = %invoke.cont57
  br label %if.end136, !dbg !2330

if.else59:                                        ; preds = %invoke.cont29
  %66 = load i16*, i16** %key, align 8, !dbg !2331
  %call61 = invoke zeroext i1 @_ZN11xercesc_2_79XMLString6equalsEPKtS2_(i16* %66, i16* getelementptr inbounds ([0 x i16], [0 x i16]* @_ZN11xercesc_2_713SchemaSymbols15fgELT_MAXLENGTHE, i64 0, i64 0))
          to label %invoke.cont60 unwind label %lpad6, !dbg !2333

invoke.cont60:                                    ; preds = %if.else59
  br i1 %call61, label %if.then62, label %if.else90, !dbg !2334

if.then62:                                        ; preds = %invoke.cont60
  call void @llvm.dbg.declare(metadata i32* %val63, metadata !2335, metadata !DIExpression()), !dbg !2337
  %67 = load i16*, i16** %value, align 8, !dbg !2338
  %68 = load %"class.xercesc_2_7::MemoryManager"*, %"class.xercesc_2_7::MemoryManager"** %manager.addr, align 8, !dbg !2340
  %call66 = invoke i32 @_ZN11xercesc_2_79XMLString8parseIntEPKtPNS_13MemoryManagerE(i16* %67, %"class.xercesc_2_7::MemoryManager"* %68)
          to label %invoke.cont65 unwind label %lpad64, !dbg !2341

invoke.cont65:                                    ; preds = %if.then62
  store i32 %call66, i32* %val63, align 4, !dbg !2342
  br label %try.cont80, !dbg !2343

lpad64:                                           ; preds = %if.then62
  %69 = landingpad { i8*, i32 }
          cleanup
          catch i8* bitcast ({ i8*, i8*, i8* }* @_ZTIN11xercesc_2_721NumberFormatExceptionE to i8*), !dbg !2344
  %70 = extractvalue { i8*, i32 } %69, 0, !dbg !2344
  store i8* %70, i8** %exn.slot, align 8, !dbg !2344
  %71 = extractvalue { i8*, i32 } %69, 1, !dbg !2344
  store i32 %71, i32* %ehselector.slot, align 4, !dbg !2344
  br label %catch.dispatch67, !dbg !2344

catch.dispatch67:                                 ; preds = %lpad64
  %sel68 = load i32, i32* %ehselector.slot, align 4, !dbg !2343
  %72 = call i32 @llvm.eh.typeid.for(i8* bitcast ({ i8*, i8*, i8* }* @_ZTIN11xercesc_2_721NumberFormatExceptionE to i8*)) #10, !dbg !2343
  %matches69 = icmp eq i32 %sel68, %72, !dbg !2343
  br i1 %matches69, label %catch70, label %ehcleanup138, !dbg !2343

catch70:                                          ; preds = %catch.dispatch67
  call void @llvm.dbg.declare(metadata %"class.xercesc_2_7::NumberFormatException"** %2, metadata !2345, metadata !DIExpression()), !dbg !2346
  %exn71 = load i8*, i8** %exn.slot, align 8, !dbg !2343
  %73 = call i8* @__cxa_begin_catch(i8* %exn71) #10, !dbg !2343
  %exn.byref72 = bitcast i8* %73 to %"class.xercesc_2_7::NumberFormatException"*, !dbg !2343
  store %"class.xercesc_2_7::NumberFormatException"* %exn.byref72, %"class.xercesc_2_7::NumberFormatException"** %2, align 8, !dbg !2343
  %exception73 = call i8* @__cxa_allocate_exception(i64 48) #10, !dbg !2347
  %74 = bitcast i8* %exception73 to %"class.xercesc_2_7::InvalidDatatypeFacetException"*, !dbg !2347
  %75 = load i16*, i16** %value, align 8, !dbg !2347
  %76 = load %"class.xercesc_2_7::MemoryManager"*, %"class.xercesc_2_7::MemoryManager"** %manager.addr, align 8, !dbg !2347
  invoke void @_ZN11xercesc_2_729InvalidDatatypeFacetExceptionC2EPKcjNS_10XMLExcepts5CodesEPKtS6_S6_S6_PNS_13MemoryManagerE(%"class.xercesc_2_7::InvalidDatatypeFacetException"* %74, i8* getelementptr inbounds ([28 x i8], [28 x i8]* @.str, i64 0, i64 0), i32 173, i32 162, i16* %75, i16* null, i16* null, i16* null, %"class.xercesc_2_7::MemoryManager"* %76)
          to label %invoke.cont75 unwind label %lpad74, !dbg !2347

invoke.cont75:                                    ; preds = %catch70
  invoke void @__cxa_throw(i8* %exception73, i8* bitcast ({ i8*, i8*, i8* }* @_ZTIN11xercesc_2_729InvalidDatatypeFacetExceptionE to i8*), i8* bitcast (void (%"class.xercesc_2_7::InvalidDatatypeFacetException"*)* @_ZN11xercesc_2_729InvalidDatatypeFacetExceptionD2Ev to i8*)) #13
          to label %unreachable unwind label %lpad77, !dbg !2347

lpad74:                                           ; preds = %catch70
  %77 = landingpad { i8*, i32 }
          cleanup, !dbg !2349
  %78 = extractvalue { i8*, i32 } %77, 0, !dbg !2349
  store i8* %78, i8** %exn.slot, align 8, !dbg !2349
  %79 = extractvalue { i8*, i32 } %77, 1, !dbg !2349
  store i32 %79, i32* %ehselector.slot, align 4, !dbg !2349
  call void @__cxa_free_exception(i8* %exception73) #10, !dbg !2347
  br label %ehcleanup78, !dbg !2347

lpad77:                                           ; preds = %invoke.cont75
  %80 = landingpad { i8*, i32 }
          cleanup, !dbg !2349
  %81 = extractvalue { i8*, i32 } %80, 0, !dbg !2349
  store i8* %81, i8** %exn.slot, align 8, !dbg !2349
  %82 = extractvalue { i8*, i32 } %80, 1, !dbg !2349
  store i32 %82, i32* %ehselector.slot, align 4, !dbg !2349
  br label %ehcleanup78, !dbg !2349

ehcleanup78:                                      ; preds = %lpad77, %lpad74
  invoke void @__cxa_end_catch()
          to label %invoke.cont79 unwind label %terminate.lpad, !dbg !2350

invoke.cont79:                                    ; preds = %ehcleanup78
  br label %ehcleanup138, !dbg !2350

try.cont80:                                       ; preds = %invoke.cont65
  %83 = load i32, i32* %val63, align 4, !dbg !2351
  %cmp81 = icmp slt i32 %83, 0, !dbg !2353
  br i1 %cmp81, label %if.then82, label %if.end87, !dbg !2354

if.then82:                                        ; preds = %try.cont80
  %exception83 = call i8* @__cxa_allocate_exception(i64 48) #10, !dbg !2355
  %84 = bitcast i8* %exception83 to %"class.xercesc_2_7::InvalidDatatypeFacetException"*, !dbg !2355
  %85 = load i16*, i16** %value, align 8, !dbg !2355
  %86 = load %"class.xercesc_2_7::MemoryManager"*, %"class.xercesc_2_7::MemoryManager"** %manager.addr, align 8, !dbg !2355
  invoke void @_ZN11xercesc_2_729InvalidDatatypeFacetExceptionC2EPKcjNS_10XMLExcepts5CodesEPKtS6_S6_S6_PNS_13MemoryManagerE(%"class.xercesc_2_7::InvalidDatatypeFacetException"* %84, i8* getelementptr inbounds ([28 x i8], [28 x i8]* @.str, i64 0, i64 0), i32 177, i32 165, i16* %85, i16* null, i16* null, i16* null, %"class.xercesc_2_7::MemoryManager"* %86)
          to label %invoke.cont85 unwind label %lpad84, !dbg !2355

invoke.cont85:                                    ; preds = %if.then82
  invoke void @__cxa_throw(i8* %exception83, i8* bitcast ({ i8*, i8*, i8* }* @_ZTIN11xercesc_2_729InvalidDatatypeFacetExceptionE to i8*), i8* bitcast (void (%"class.xercesc_2_7::InvalidDatatypeFacetException"*)* @_ZN11xercesc_2_729InvalidDatatypeFacetExceptionD2Ev to i8*)) #13
          to label %unreachable unwind label %lpad6, !dbg !2355

lpad84:                                           ; preds = %if.then82
  %87 = landingpad { i8*, i32 }
          cleanup, !dbg !2356
  %88 = extractvalue { i8*, i32 } %87, 0, !dbg !2356
  store i8* %88, i8** %exn.slot, align 8, !dbg !2356
  %89 = extractvalue { i8*, i32 } %87, 1, !dbg !2356
  store i32 %89, i32* %ehselector.slot, align 4, !dbg !2356
  call void @__cxa_free_exception(i8* %exception83) #10, !dbg !2355
  br label %ehcleanup138, !dbg !2355

if.end87:                                         ; preds = %try.cont80
  %90 = load i32, i32* %val63, align 4, !dbg !2357
  invoke void @_ZN11xercesc_2_723AbstractStringValidator12setMaxLengthEj(%"class.xercesc_2_7::AbstractStringValidator"* %this1, i32 %90)
          to label %invoke.cont88 unwind label %lpad6, !dbg !2358

invoke.cont88:                                    ; preds = %if.end87
  %91 = bitcast %"class.xercesc_2_7::AbstractStringValidator"* %this1 to %"class.xercesc_2_7::DatatypeValidator"*, !dbg !2359
  invoke void @_ZN11xercesc_2_717DatatypeValidator16setFacetsDefinedEi(%"class.xercesc_2_7::DatatypeValidator"* %91, i32 4)
          to label %invoke.cont89 unwind label %lpad6, !dbg !2359

invoke.cont89:                                    ; preds = %invoke.cont88
  br label %if.end135, !dbg !2360

if.else90:                                        ; preds = %invoke.cont60
  %92 = load i16*, i16** %key, align 8, !dbg !2361
  %call92 = invoke zeroext i1 @_ZN11xercesc_2_79XMLString6equalsEPKtS2_(i16* %92, i16* getelementptr inbounds ([0 x i16], [0 x i16]* @_ZN11xercesc_2_713SchemaSymbols13fgELT_PATTERNE, i64 0, i64 0))
          to label %invoke.cont91 unwind label %lpad6, !dbg !2363

invoke.cont91:                                    ; preds = %if.else90
  br i1 %call92, label %if.then93, label %if.else101, !dbg !2364

if.then93:                                        ; preds = %invoke.cont91
  %93 = bitcast %"class.xercesc_2_7::AbstractStringValidator"* %this1 to %"class.xercesc_2_7::DatatypeValidator"*, !dbg !2365
  %94 = load i16*, i16** %value, align 8, !dbg !2367
  invoke void @_ZN11xercesc_2_717DatatypeValidator10setPatternEPKt(%"class.xercesc_2_7::DatatypeValidator"* %93, i16* %94)
          to label %invoke.cont94 unwind label %lpad6, !dbg !2365

invoke.cont94:                                    ; preds = %if.then93
  %95 = bitcast %"class.xercesc_2_7::AbstractStringValidator"* %this1 to %"class.xercesc_2_7::DatatypeValidator"*, !dbg !2368
  %call96 = invoke i16* @_ZNK11xercesc_2_717DatatypeValidator10getPatternEv(%"class.xercesc_2_7::DatatypeValidator"* %95)
          to label %invoke.cont95 unwind label %lpad6, !dbg !2368

invoke.cont95:                                    ; preds = %invoke.cont94
  %tobool97 = icmp ne i16* %call96, null, !dbg !2368
  br i1 %tobool97, label %if.then98, label %if.end100, !dbg !2370

if.then98:                                        ; preds = %invoke.cont95
  %96 = bitcast %"class.xercesc_2_7::AbstractStringValidator"* %this1 to %"class.xercesc_2_7::DatatypeValidator"*, !dbg !2371
  invoke void @_ZN11xercesc_2_717DatatypeValidator16setFacetsDefinedEi(%"class.xercesc_2_7::DatatypeValidator"* %96, i32 8)
          to label %invoke.cont99 unwind label %lpad6, !dbg !2371

invoke.cont99:                                    ; preds = %if.then98
  br label %if.end100, !dbg !2371

if.end100:                                        ; preds = %invoke.cont99, %invoke.cont95
  br label %if.end134, !dbg !2372

if.else101:                                       ; preds = %invoke.cont91
  %97 = load i16*, i16** %key, align 8, !dbg !2373
  %call103 = invoke zeroext i1 @_ZN11xercesc_2_79XMLString6equalsEPKtS2_(i16* %97, i16* getelementptr inbounds ([0 x i16], [0 x i16]* @_ZN11xercesc_2_713SchemaSymbols11fgATT_FIXEDE, i64 0, i64 0))
          to label %invoke.cont102 unwind label %lpad6, !dbg !2375

invoke.cont102:                                   ; preds = %if.else101
  br i1 %call103, label %if.then104, label %if.else131, !dbg !2376

if.then104:                                       ; preds = %invoke.cont102
  call void @llvm.dbg.declare(metadata i32* %val105, metadata !2377, metadata !DIExpression()), !dbg !2379
  call void @llvm.dbg.declare(metadata i8* %retStatus, metadata !2380, metadata !DIExpression()), !dbg !2381
  %98 = load i16*, i16** %value, align 8, !dbg !2382
  %99 = bitcast %"class.xercesc_2_7::AbstractStringValidator"* %this1 to %"class.xercesc_2_7::DatatypeValidator"*, !dbg !2384
  %fMemoryManager = getelementptr inbounds %"class.xercesc_2_7::DatatypeValidator", %"class.xercesc_2_7::DatatypeValidator"* %99, i32 0, i32 18, !dbg !2384
  %100 = load %"class.xercesc_2_7::MemoryManager"*, %"class.xercesc_2_7::MemoryManager"** %fMemoryManager, align 8, !dbg !2384
  %call108 = invoke zeroext i1 @_ZN11xercesc_2_79XMLString9textToBinEPKtRjPNS_13MemoryManagerE(i16* %98, i32* dereferenceable(4) %val105, %"class.xercesc_2_7::MemoryManager"* %100)
          to label %invoke.cont107 unwind label %lpad106, !dbg !2385

invoke.cont107:                                   ; preds = %if.then104
  %frombool = zext i1 %call108 to i8, !dbg !2386
  store i8 %frombool, i8* %retStatus, align 1, !dbg !2386
  br label %try.cont122, !dbg !2387

lpad106:                                          ; preds = %if.then104
  %101 = landingpad { i8*, i32 }
          cleanup
          catch i8* bitcast ({ i8*, i8*, i8* }* @_ZTIN11xercesc_2_716RuntimeExceptionE to i8*), !dbg !2388
  %102 = extractvalue { i8*, i32 } %101, 0, !dbg !2388
  store i8* %102, i8** %exn.slot, align 8, !dbg !2388
  %103 = extractvalue { i8*, i32 } %101, 1, !dbg !2388
  store i32 %103, i32* %ehselector.slot, align 4, !dbg !2388
  br label %catch.dispatch109, !dbg !2388

catch.dispatch109:                                ; preds = %lpad106
  %sel110 = load i32, i32* %ehselector.slot, align 4, !dbg !2387
  %104 = call i32 @llvm.eh.typeid.for(i8* bitcast ({ i8*, i8*, i8* }* @_ZTIN11xercesc_2_716RuntimeExceptionE to i8*)) #10, !dbg !2387
  %matches111 = icmp eq i32 %sel110, %104, !dbg !2387
  br i1 %matches111, label %catch112, label %ehcleanup138, !dbg !2387

catch112:                                         ; preds = %catch.dispatch109
  call void @llvm.dbg.declare(metadata %"class.xercesc_2_7::RuntimeException"** %3, metadata !2389, metadata !DIExpression()), !dbg !2393
  %exn113 = load i8*, i8** %exn.slot, align 8, !dbg !2387
  %105 = call i8* @__cxa_begin_catch(i8* %exn113) #10, !dbg !2387
  %exn.byref114 = bitcast i8* %105 to %"class.xercesc_2_7::RuntimeException"*, !dbg !2387
  store %"class.xercesc_2_7::RuntimeException"* %exn.byref114, %"class.xercesc_2_7::RuntimeException"** %3, align 8, !dbg !2387
  %exception115 = call i8* @__cxa_allocate_exception(i64 48) #10, !dbg !2394
  %106 = bitcast i8* %exception115 to %"class.xercesc_2_7::InvalidDatatypeFacetException"*, !dbg !2394
  %107 = load %"class.xercesc_2_7::MemoryManager"*, %"class.xercesc_2_7::MemoryManager"** %manager.addr, align 8, !dbg !2394
  invoke void @_ZN11xercesc_2_729InvalidDatatypeFacetExceptionC2EPKcjNS_10XMLExcepts5CodesEPNS_13MemoryManagerE(%"class.xercesc_2_7::InvalidDatatypeFacetException"* %106, i8* getelementptr inbounds ([28 x i8], [28 x i8]* @.str, i64 0, i64 0), i32 199, i32 233, %"class.xercesc_2_7::MemoryManager"* %107)
          to label %invoke.cont117 unwind label %lpad116, !dbg !2394

invoke.cont117:                                   ; preds = %catch112
  invoke void @__cxa_throw(i8* %exception115, i8* bitcast ({ i8*, i8*, i8* }* @_ZTIN11xercesc_2_729InvalidDatatypeFacetExceptionE to i8*), i8* bitcast (void (%"class.xercesc_2_7::InvalidDatatypeFacetException"*)* @_ZN11xercesc_2_729InvalidDatatypeFacetExceptionD2Ev to i8*)) #13
          to label %unreachable unwind label %lpad119, !dbg !2394

lpad116:                                          ; preds = %catch112
  %108 = landingpad { i8*, i32 }
          cleanup, !dbg !2396
  %109 = extractvalue { i8*, i32 } %108, 0, !dbg !2396
  store i8* %109, i8** %exn.slot, align 8, !dbg !2396
  %110 = extractvalue { i8*, i32 } %108, 1, !dbg !2396
  store i32 %110, i32* %ehselector.slot, align 4, !dbg !2396
  call void @__cxa_free_exception(i8* %exception115) #10, !dbg !2394
  br label %ehcleanup120, !dbg !2394

lpad119:                                          ; preds = %invoke.cont117
  %111 = landingpad { i8*, i32 }
          cleanup, !dbg !2396
  %112 = extractvalue { i8*, i32 } %111, 0, !dbg !2396
  store i8* %112, i8** %exn.slot, align 8, !dbg !2396
  %113 = extractvalue { i8*, i32 } %111, 1, !dbg !2396
  store i32 %113, i32* %ehselector.slot, align 4, !dbg !2396
  br label %ehcleanup120, !dbg !2396

ehcleanup120:                                     ; preds = %lpad119, %lpad116
  invoke void @__cxa_end_catch()
          to label %invoke.cont121 unwind label %terminate.lpad, !dbg !2397

invoke.cont121:                                   ; preds = %ehcleanup120
  br label %ehcleanup138, !dbg !2397

try.cont122:                                      ; preds = %invoke.cont107
  %114 = load i8, i8* %retStatus, align 1, !dbg !2398
  %tobool123 = trunc i8 %114 to i1, !dbg !2398
  br i1 %tobool123, label %if.end129, label %if.then124, !dbg !2400

if.then124:                                       ; preds = %try.cont122
  %exception125 = call i8* @__cxa_allocate_exception(i64 48) #10, !dbg !2401
  %115 = bitcast i8* %exception125 to %"class.xercesc_2_7::InvalidDatatypeFacetException"*, !dbg !2401
  %116 = load %"class.xercesc_2_7::MemoryManager"*, %"class.xercesc_2_7::MemoryManager"** %manager.addr, align 8, !dbg !2401
  invoke void @_ZN11xercesc_2_729InvalidDatatypeFacetExceptionC2EPKcjNS_10XMLExcepts5CodesEPNS_13MemoryManagerE(%"class.xercesc_2_7::InvalidDatatypeFacetException"* %115, i8* getelementptr inbounds ([28 x i8], [28 x i8]* @.str, i64 0, i64 0), i32 204, i32 233, %"class.xercesc_2_7::MemoryManager"* %116)
          to label %invoke.cont127 unwind label %lpad126, !dbg !2401

invoke.cont127:                                   ; preds = %if.then124
  invoke void @__cxa_throw(i8* %exception125, i8* bitcast ({ i8*, i8*, i8* }* @_ZTIN11xercesc_2_729InvalidDatatypeFacetExceptionE to i8*), i8* bitcast (void (%"class.xercesc_2_7::InvalidDatatypeFacetException"*)* @_ZN11xercesc_2_729InvalidDatatypeFacetExceptionD2Ev to i8*)) #13
          to label %unreachable unwind label %lpad6, !dbg !2401

lpad126:                                          ; preds = %if.then124
  %117 = landingpad { i8*, i32 }
          cleanup, !dbg !2403
  %118 = extractvalue { i8*, i32 } %117, 0, !dbg !2403
  store i8* %118, i8** %exn.slot, align 8, !dbg !2403
  %119 = extractvalue { i8*, i32 } %117, 1, !dbg !2403
  store i32 %119, i32* %ehselector.slot, align 4, !dbg !2403
  call void @__cxa_free_exception(i8* %exception125) #10, !dbg !2401
  br label %ehcleanup138, !dbg !2401

if.end129:                                        ; preds = %try.cont122
  %120 = bitcast %"class.xercesc_2_7::AbstractStringValidator"* %this1 to %"class.xercesc_2_7::DatatypeValidator"*, !dbg !2404
  %121 = load i32, i32* %val105, align 4, !dbg !2405
  invoke void @_ZN11xercesc_2_717DatatypeValidator8setFixedEi(%"class.xercesc_2_7::DatatypeValidator"* %120, i32 %121)
          to label %invoke.cont130 unwind label %lpad6, !dbg !2404

invoke.cont130:                                   ; preds = %if.end129
  br label %if.end133, !dbg !2406

if.else131:                                       ; preds = %invoke.cont102
  %122 = load i16*, i16** %key, align 8, !dbg !2407
  %123 = load i16*, i16** %value, align 8, !dbg !2409
  %124 = load %"class.xercesc_2_7::MemoryManager"*, %"class.xercesc_2_7::MemoryManager"** %manager.addr, align 8, !dbg !2410
  %125 = bitcast %"class.xercesc_2_7::AbstractStringValidator"* %this1 to void (%"class.xercesc_2_7::AbstractStringValidator"*, i16*, i16*, %"class.xercesc_2_7::MemoryManager"*)***, !dbg !2411
  %vtable = load void (%"class.xercesc_2_7::AbstractStringValidator"*, i16*, i16*, %"class.xercesc_2_7::MemoryManager"*)**, void (%"class.xercesc_2_7::AbstractStringValidator"*, i16*, i16*, %"class.xercesc_2_7::MemoryManager"*)*** %125, align 8, !dbg !2411
  %vfn = getelementptr inbounds void (%"class.xercesc_2_7::AbstractStringValidator"*, i16*, i16*, %"class.xercesc_2_7::MemoryManager"*)*, void (%"class.xercesc_2_7::AbstractStringValidator"*, i16*, i16*, %"class.xercesc_2_7::MemoryManager"*)** %vtable, i64 12, !dbg !2411
  %126 = load void (%"class.xercesc_2_7::AbstractStringValidator"*, i16*, i16*, %"class.xercesc_2_7::MemoryManager"*)*, void (%"class.xercesc_2_7::AbstractStringValidator"*, i16*, i16*, %"class.xercesc_2_7::MemoryManager"*)** %vfn, align 8, !dbg !2411
  invoke void %126(%"class.xercesc_2_7::AbstractStringValidator"* %this1, i16* %122, i16* %123, %"class.xercesc_2_7::MemoryManager"* %124)
          to label %invoke.cont132 unwind label %lpad6, !dbg !2411

invoke.cont132:                                   ; preds = %if.else131
  br label %if.end133

if.end133:                                        ; preds = %invoke.cont132, %invoke.cont130
  br label %if.end134

if.end134:                                        ; preds = %if.end133, %if.end100
  br label %if.end135

if.end135:                                        ; preds = %if.end134, %invoke.cont89
  br label %if.end136

if.end136:                                        ; preds = %if.end135, %invoke.cont58
  br label %if.end137

if.end137:                                        ; preds = %if.end136, %invoke.cont28
  call void @_ZN11xercesc_2_712KVStringPairD1Ev(%"class.xercesc_2_7::KVStringPair"* %pair) #10, !dbg !2412
  br label %while.cond, !dbg !2254, !llvm.loop !2413

ehcleanup138:                                     ; preds = %lpad126, %invoke.cont121, %catch.dispatch109, %lpad84, %invoke.cont79, %catch.dispatch67, %lpad53, %invoke.cont48, %catch.dispatch36, %lpad23, %invoke.cont20, %catch.dispatch, %lpad6
  call void @_ZN11xercesc_2_712KVStringPairD1Ev(%"class.xercesc_2_7::KVStringPair"* %pair) #10, !dbg !2412
  br label %ehcleanup139, !dbg !2412

while.end:                                        ; preds = %invoke.cont
  call void @_ZN11xercesc_2_724RefHashTableOfEnumeratorINS_12KVStringPairEED2Ev(%"class.xercesc_2_7::RefHashTableOfEnumerator"* %e) #10, !dbg !2279
  br label %return

return:                                           ; preds = %while.end, %if.then
  ret void, !dbg !2279

ehcleanup139:                                     ; preds = %ehcleanup138, %lpad
  call void @_ZN11xercesc_2_724RefHashTableOfEnumeratorINS_12KVStringPairEED2Ev(%"class.xercesc_2_7::RefHashTableOfEnumerator"* %e) #10, !dbg !2279
  br label %eh.resume, !dbg !2279

eh.resume:                                        ; preds = %ehcleanup139
  %exn140 = load i8*, i8** %exn.slot, align 8, !dbg !2279
  %sel141 = load i32, i32* %ehselector.slot, align 4, !dbg !2279
  %lpad.val = insertvalue { i8*, i32 } undef, i8* %exn140, 0, !dbg !2279
  %lpad.val142 = insertvalue { i8*, i32 } %lpad.val, i32 %sel141, 1, !dbg !2279
  resume { i8*, i32 } %lpad.val142, !dbg !2279

terminate.lpad:                                   ; preds = %ehcleanup120, %ehcleanup78, %ehcleanup47, %ehcleanup
  %127 = landingpad { i8*, i32 }
          catch i8* null, !dbg !2290
  %128 = extractvalue { i8*, i32 } %127, 0, !dbg !2290
  call void @__clang_call_terminate(i8* %128) #12, !dbg !2290
  unreachable, !dbg !2290

unreachable:                                      ; preds = %invoke.cont127, %invoke.cont117, %invoke.cont85, %invoke.cont75, %invoke.cont54, %invoke.cont44, %invoke.cont24, %invoke.cont18
  unreachable
}

; Function Attrs: noinline uwtable
define dso_local void @_ZN11xercesc_2_723AbstractStringValidator12inspectFacetEPNS_13MemoryManagerE(%"class.xercesc_2_7::AbstractStringValidator"* %this, %"class.xercesc_2_7::MemoryManager"* %manager) #6 align 2 personality i8* bitcast (i32 (...)* @__gxx_personality_v0 to i8*) !dbg !2414 {
entry:
  %this.addr = alloca %"class.xercesc_2_7::AbstractStringValidator"*, align 8
  %manager.addr = alloca %"class.xercesc_2_7::MemoryManager"*, align 8
  %thisFacetsDefined = alloca i32, align 4
  %exn.slot = alloca i8*
  %ehselector.slot = alloca i32
  %thisMinLength = alloca i32, align 4
  %thisMaxLength = alloca i32, align 4
  %value1 = alloca [65 x i16], align 16
  %value2 = alloca [65 x i16], align 16
  store %"class.xercesc_2_7::AbstractStringValidator"* %this, %"class.xercesc_2_7::AbstractStringValidator"** %this.addr, align 8
  call void @llvm.dbg.declare(metadata %"class.xercesc_2_7::AbstractStringValidator"** %this.addr, metadata !2415, metadata !DIExpression()), !dbg !2416
  store %"class.xercesc_2_7::MemoryManager"* %manager, %"class.xercesc_2_7::MemoryManager"** %manager.addr, align 8
  call void @llvm.dbg.declare(metadata %"class.xercesc_2_7::MemoryManager"** %manager.addr, metadata !2417, metadata !DIExpression()), !dbg !2418
  %this1 = load %"class.xercesc_2_7::AbstractStringValidator"*, %"class.xercesc_2_7::AbstractStringValidator"** %this.addr, align 8
  call void @llvm.dbg.declare(metadata i32* %thisFacetsDefined, metadata !2419, metadata !DIExpression()), !dbg !2420
  %0 = bitcast %"class.xercesc_2_7::AbstractStringValidator"* %this1 to %"class.xercesc_2_7::DatatypeValidator"*, !dbg !2421
  %call = call i32 @_ZNK11xercesc_2_717DatatypeValidator16getFacetsDefinedEv(%"class.xercesc_2_7::DatatypeValidator"* %0), !dbg !2421
  store i32 %call, i32* %thisFacetsDefined, align 4, !dbg !2420
  %1 = load i32, i32* %thisFacetsDefined, align 4, !dbg !2422
  %tobool = icmp ne i32 %1, 0, !dbg !2422
  br i1 %tobool, label %if.end, label %if.then, !dbg !2424

if.then:                                          ; preds = %entry
  br label %if.end29, !dbg !2425

if.end:                                           ; preds = %entry
  %2 = load i32, i32* %thisFacetsDefined, align 4, !dbg !2426
  %and = and i32 %2, 1, !dbg !2428
  %cmp = icmp ne i32 %and, 0, !dbg !2429
  br i1 %cmp, label %if.then2, label %if.end14, !dbg !2430

if.then2:                                         ; preds = %if.end
  %3 = load i32, i32* %thisFacetsDefined, align 4, !dbg !2431
  %and3 = and i32 %3, 4, !dbg !2434
  %cmp4 = icmp ne i32 %and3, 0, !dbg !2435
  br i1 %cmp4, label %if.then5, label %if.else, !dbg !2436

if.then5:                                         ; preds = %if.then2
  %exception = call i8* @__cxa_allocate_exception(i64 48) #10, !dbg !2437
  %4 = bitcast i8* %exception to %"class.xercesc_2_7::InvalidDatatypeFacetException"*, !dbg !2437
  %5 = load %"class.xercesc_2_7::MemoryManager"*, %"class.xercesc_2_7::MemoryManager"** %manager.addr, align 8, !dbg !2437
  invoke void @_ZN11xercesc_2_729InvalidDatatypeFacetExceptionC2EPKcjNS_10XMLExcepts5CodesEPNS_13MemoryManagerE(%"class.xercesc_2_7::InvalidDatatypeFacetException"* %4, i8* getelementptr inbounds ([28 x i8], [28 x i8]* @.str, i64 0, i64 0), i32 240, i32 167, %"class.xercesc_2_7::MemoryManager"* %5)
          to label %invoke.cont unwind label %lpad, !dbg !2437

invoke.cont:                                      ; preds = %if.then5
  call void @__cxa_throw(i8* %exception, i8* bitcast ({ i8*, i8*, i8* }* @_ZTIN11xercesc_2_729InvalidDatatypeFacetExceptionE to i8*), i8* bitcast (void (%"class.xercesc_2_7::InvalidDatatypeFacetException"*)* @_ZN11xercesc_2_729InvalidDatatypeFacetExceptionD2Ev to i8*)) #13, !dbg !2437
  unreachable, !dbg !2437

lpad:                                             ; preds = %if.then5
  %6 = landingpad { i8*, i32 }
          cleanup, !dbg !2438
  %7 = extractvalue { i8*, i32 } %6, 0, !dbg !2438
  store i8* %7, i8** %exn.slot, align 8, !dbg !2438
  %8 = extractvalue { i8*, i32 } %6, 1, !dbg !2438
  store i32 %8, i32* %ehselector.slot, align 4, !dbg !2438
  call void @__cxa_free_exception(i8* %exception) #10, !dbg !2437
  br label %eh.resume, !dbg !2437

if.else:                                          ; preds = %if.then2
  %9 = load i32, i32* %thisFacetsDefined, align 4, !dbg !2439
  %and6 = and i32 %9, 2, !dbg !2441
  %cmp7 = icmp ne i32 %and6, 0, !dbg !2442
  br i1 %cmp7, label %if.then8, label %if.end12, !dbg !2443

if.then8:                                         ; preds = %if.else
  %exception9 = call i8* @__cxa_allocate_exception(i64 48) #10, !dbg !2444
  %10 = bitcast i8* %exception9 to %"class.xercesc_2_7::InvalidDatatypeFacetException"*, !dbg !2444
  %11 = load %"class.xercesc_2_7::MemoryManager"*, %"class.xercesc_2_7::MemoryManager"** %manager.addr, align 8, !dbg !2444
  invoke void @_ZN11xercesc_2_729InvalidDatatypeFacetExceptionC2EPKcjNS_10XMLExcepts5CodesEPNS_13MemoryManagerE(%"class.xercesc_2_7::InvalidDatatypeFacetException"* %10, i8* getelementptr inbounds ([28 x i8], [28 x i8]* @.str, i64 0, i64 0), i32 242, i32 168, %"class.xercesc_2_7::MemoryManager"* %11)
          to label %invoke.cont11 unwind label %lpad10, !dbg !2444

invoke.cont11:                                    ; preds = %if.then8
  call void @__cxa_throw(i8* %exception9, i8* bitcast ({ i8*, i8*, i8* }* @_ZTIN11xercesc_2_729InvalidDatatypeFacetExceptionE to i8*), i8* bitcast (void (%"class.xercesc_2_7::InvalidDatatypeFacetException"*)* @_ZN11xercesc_2_729InvalidDatatypeFacetExceptionD2Ev to i8*)) #13, !dbg !2444
  unreachable, !dbg !2444

lpad10:                                           ; preds = %if.then8
  %12 = landingpad { i8*, i32 }
          cleanup, !dbg !2445
  %13 = extractvalue { i8*, i32 } %12, 0, !dbg !2445
  store i8* %13, i8** %exn.slot, align 8, !dbg !2445
  %14 = extractvalue { i8*, i32 } %12, 1, !dbg !2445
  store i32 %14, i32* %ehselector.slot, align 4, !dbg !2445
  call void @__cxa_free_exception(i8* %exception9) #10, !dbg !2444
  br label %eh.resume, !dbg !2444

if.end12:                                         ; preds = %if.else
  br label %if.end13

if.end13:                                         ; preds = %if.end12
  br label %if.end14, !dbg !2446

if.end14:                                         ; preds = %if.end13, %if.end
  %15 = load i32, i32* %thisFacetsDefined, align 4, !dbg !2447
  %and15 = and i32 %15, 6, !dbg !2449
  %cmp16 = icmp ne i32 %and15, 0, !dbg !2450
  br i1 %cmp16, label %if.then17, label %if.end29, !dbg !2451

if.then17:                                        ; preds = %if.end14
  call void @llvm.dbg.declare(metadata i32* %thisMinLength, metadata !2452, metadata !DIExpression()), !dbg !2454
  %call18 = call i32 @_ZNK11xercesc_2_723AbstractStringValidator12getMinLengthEv(%"class.xercesc_2_7::AbstractStringValidator"* %this1), !dbg !2455
  store i32 %call18, i32* %thisMinLength, align 4, !dbg !2454
  call void @llvm.dbg.declare(metadata i32* %thisMaxLength, metadata !2456, metadata !DIExpression()), !dbg !2457
  %call19 = call i32 @_ZNK11xercesc_2_723AbstractStringValidator12getMaxLengthEv(%"class.xercesc_2_7::AbstractStringValidator"* %this1), !dbg !2458
  store i32 %call19, i32* %thisMaxLength, align 4, !dbg !2457
  %16 = load i32, i32* %thisMinLength, align 4, !dbg !2459
  %17 = load i32, i32* %thisMaxLength, align 4, !dbg !2461
  %cmp20 = icmp sgt i32 %16, %17, !dbg !2462
  br i1 %cmp20, label %if.then21, label %if.end28, !dbg !2463

if.then21:                                        ; preds = %if.then17
  call void @llvm.dbg.declare(metadata [65 x i16]* %value1, metadata !2464, metadata !DIExpression()), !dbg !2469
  call void @llvm.dbg.declare(metadata [65 x i16]* %value2, metadata !2470, metadata !DIExpression()), !dbg !2469
  %18 = load i32, i32* %thisMaxLength, align 4, !dbg !2469
  %arraydecay = getelementptr inbounds [65 x i16], [65 x i16]* %value1, i64 0, i64 0, !dbg !2469
  %19 = load %"class.xercesc_2_7::MemoryManager"*, %"class.xercesc_2_7::MemoryManager"** %manager.addr, align 8, !dbg !2469
  call void @_ZN11xercesc_2_79XMLString9binToTextEiPtjjPNS_13MemoryManagerE(i32 %18, i16* %arraydecay, i32 64, i32 10, %"class.xercesc_2_7::MemoryManager"* %19), !dbg !2469
  %20 = load i32, i32* %thisMinLength, align 4, !dbg !2469
  %arraydecay22 = getelementptr inbounds [65 x i16], [65 x i16]* %value2, i64 0, i64 0, !dbg !2469
  %21 = load %"class.xercesc_2_7::MemoryManager"*, %"class.xercesc_2_7::MemoryManager"** %manager.addr, align 8, !dbg !2469
  call void @_ZN11xercesc_2_79XMLString9binToTextEiPtjjPNS_13MemoryManagerE(i32 %20, i16* %arraydecay22, i32 64, i32 10, %"class.xercesc_2_7::MemoryManager"* %21), !dbg !2469
  %exception23 = call i8* @__cxa_allocate_exception(i64 48) #10, !dbg !2469
  %22 = bitcast i8* %exception23 to %"class.xercesc_2_7::InvalidDatatypeFacetException"*, !dbg !2469
  %arraydecay24 = getelementptr inbounds [65 x i16], [65 x i16]* %value1, i64 0, i64 0, !dbg !2469
  %arraydecay25 = getelementptr inbounds [65 x i16], [65 x i16]* %value2, i64 0, i64 0, !dbg !2469
  %23 = load %"class.xercesc_2_7::MemoryManager"*, %"class.xercesc_2_7::MemoryManager"** %manager.addr, align 8, !dbg !2469
  invoke void @_ZN11xercesc_2_729InvalidDatatypeFacetExceptionC2EPKcjNS_10XMLExcepts5CodesEPKtS6_S6_S6_PNS_13MemoryManagerE(%"class.xercesc_2_7::InvalidDatatypeFacetException"* %22, i8* getelementptr inbounds ([28 x i8], [28 x i8]* @.str, i64 0, i64 0), i32 256, i32 169, i16* %arraydecay24, i16* %arraydecay25, i16* null, i16* null, %"class.xercesc_2_7::MemoryManager"* %23)
          to label %invoke.cont27 unwind label %lpad26, !dbg !2469

invoke.cont27:                                    ; preds = %if.then21
  call void @__cxa_throw(i8* %exception23, i8* bitcast ({ i8*, i8*, i8* }* @_ZTIN11xercesc_2_729InvalidDatatypeFacetExceptionE to i8*), i8* bitcast (void (%"class.xercesc_2_7::InvalidDatatypeFacetException"*)* @_ZN11xercesc_2_729InvalidDatatypeFacetExceptionD2Ev to i8*)) #13, !dbg !2469
  unreachable, !dbg !2469

lpad26:                                           ; preds = %if.then21
  %24 = landingpad { i8*, i32 }
          cleanup, !dbg !2471
  %25 = extractvalue { i8*, i32 } %24, 0, !dbg !2471
  store i8* %25, i8** %exn.slot, align 8, !dbg !2471
  %26 = extractvalue { i8*, i32 } %24, 1, !dbg !2471
  store i32 %26, i32* %ehselector.slot, align 4, !dbg !2471
  call void @__cxa_free_exception(i8* %exception23) #10, !dbg !2469
  br label %eh.resume, !dbg !2469

if.end28:                                         ; preds = %if.then17
  br label %if.end29, !dbg !2472

if.end29:                                         ; preds = %if.then, %if.end28, %if.end14
  ret void, !dbg !2473

eh.resume:                                        ; preds = %lpad26, %lpad10, %lpad
  %exn = load i8*, i8** %exn.slot, align 8, !dbg !2437
  %sel = load i32, i32* %ehselector.slot, align 4, !dbg !2437
  %lpad.val = insertvalue { i8*, i32 } undef, i8* %exn, 0, !dbg !2437
  %lpad.val30 = insertvalue { i8*, i32 } %lpad.val, i32 %sel, 1, !dbg !2437
  resume { i8*, i32 } %lpad.val30, !dbg !2437
}

; Function Attrs: noinline nounwind uwtable
define linkonce_odr dso_local %"class.xercesc_2_7::RefHashTableOf.0"* @_ZNK11xercesc_2_717DatatypeValidator9getFacetsEv(%"class.xercesc_2_7::DatatypeValidator"* %this) #1 comdat align 2 !dbg !2474 {
entry:
  %this.addr = alloca %"class.xercesc_2_7::DatatypeValidator"*, align 8
  store %"class.xercesc_2_7::DatatypeValidator"* %this, %"class.xercesc_2_7::DatatypeValidator"** %this.addr, align 8
  call void @llvm.dbg.declare(metadata %"class.xercesc_2_7::DatatypeValidator"** %this.addr, metadata !2480, metadata !DIExpression()), !dbg !2482
  %this1 = load %"class.xercesc_2_7::DatatypeValidator"*, %"class.xercesc_2_7::DatatypeValidator"** %this.addr, align 8
  %fFacets = getelementptr inbounds %"class.xercesc_2_7::DatatypeValidator", %"class.xercesc_2_7::DatatypeValidator"* %this1, i32 0, i32 12, !dbg !2483
  %0 = load %"class.xercesc_2_7::RefHashTableOf.0"*, %"class.xercesc_2_7::RefHashTableOf.0"** %fFacets, align 8, !dbg !2483
  ret %"class.xercesc_2_7::RefHashTableOf.0"* %0, !dbg !2484
}

; Function Attrs: noinline uwtable
define linkonce_odr dso_local void @_ZN11xercesc_2_724RefHashTableOfEnumeratorINS_12KVStringPairEEC2EPNS_14RefHashTableOfIS1_EEbPNS_13MemoryManagerE(%"class.xercesc_2_7::RefHashTableOfEnumerator"* %this, %"class.xercesc_2_7::RefHashTableOf.0"* %toEnum, i1 zeroext %adopt, %"class.xercesc_2_7::MemoryManager"* %manager) unnamed_addr #6 comdat align 2 personality i8* bitcast (i32 (...)* @__gxx_personality_v0 to i8*) !dbg !2485 {
entry:
  %this.addr = alloca %"class.xercesc_2_7::RefHashTableOfEnumerator"*, align 8
  %toEnum.addr = alloca %"class.xercesc_2_7::RefHashTableOf.0"*, align 8
  %adopt.addr = alloca i8, align 1
  %manager.addr = alloca %"class.xercesc_2_7::MemoryManager"*, align 8
  %exn.slot = alloca i8*
  %ehselector.slot = alloca i32
  store %"class.xercesc_2_7::RefHashTableOfEnumerator"* %this, %"class.xercesc_2_7::RefHashTableOfEnumerator"** %this.addr, align 8
  call void @llvm.dbg.declare(metadata %"class.xercesc_2_7::RefHashTableOfEnumerator"** %this.addr, metadata !2487, metadata !DIExpression()), !dbg !2489
  store %"class.xercesc_2_7::RefHashTableOf.0"* %toEnum, %"class.xercesc_2_7::RefHashTableOf.0"** %toEnum.addr, align 8
  call void @llvm.dbg.declare(metadata %"class.xercesc_2_7::RefHashTableOf.0"** %toEnum.addr, metadata !2490, metadata !DIExpression()), !dbg !2491
  %frombool = zext i1 %adopt to i8
  store i8 %frombool, i8* %adopt.addr, align 1
  call void @llvm.dbg.declare(metadata i8* %adopt.addr, metadata !2492, metadata !DIExpression()), !dbg !2493
  store %"class.xercesc_2_7::MemoryManager"* %manager, %"class.xercesc_2_7::MemoryManager"** %manager.addr, align 8
  call void @llvm.dbg.declare(metadata %"class.xercesc_2_7::MemoryManager"** %manager.addr, metadata !2494, metadata !DIExpression()), !dbg !2495
  %this1 = load %"class.xercesc_2_7::RefHashTableOfEnumerator"*, %"class.xercesc_2_7::RefHashTableOfEnumerator"** %this.addr, align 8
  %0 = bitcast %"class.xercesc_2_7::RefHashTableOfEnumerator"* %this1 to %"class.xercesc_2_7::XMLEnumerator"*, !dbg !2496
  call void @_ZN11xercesc_2_713XMLEnumeratorINS_12KVStringPairEEC2Ev(%"class.xercesc_2_7::XMLEnumerator"* %0), !dbg !2497
  %1 = bitcast %"class.xercesc_2_7::RefHashTableOfEnumerator"* %this1 to %"class.xercesc_2_7::XMemory"*, !dbg !2496
  invoke void @_ZN11xercesc_2_77XMemoryC2Ev(%"class.xercesc_2_7::XMemory"* %1)
          to label %invoke.cont unwind label %lpad, !dbg !2497

invoke.cont:                                      ; preds = %entry
  %2 = bitcast %"class.xercesc_2_7::RefHashTableOfEnumerator"* %this1 to i32 (...)***, !dbg !2496
  store i32 (...)** bitcast (i8** getelementptr inbounds ({ [7 x i8*] }, { [7 x i8*] }* @_ZTVN11xercesc_2_724RefHashTableOfEnumeratorINS_12KVStringPairEEE, i32 0, inrange i32 0, i32 2) to i32 (...)**), i32 (...)*** %2, align 8, !dbg !2496
  %fAdopted = getelementptr inbounds %"class.xercesc_2_7::RefHashTableOfEnumerator", %"class.xercesc_2_7::RefHashTableOfEnumerator"* %this1, i32 0, i32 1, !dbg !2499
  %3 = load i8, i8* %adopt.addr, align 1, !dbg !2501
  %tobool = trunc i8 %3 to i1, !dbg !2501
  %frombool2 = zext i1 %tobool to i8, !dbg !2499
  store i8 %frombool2, i8* %fAdopted, align 8, !dbg !2499
  %fCurElem = getelementptr inbounds %"class.xercesc_2_7::RefHashTableOfEnumerator", %"class.xercesc_2_7::RefHashTableOfEnumerator"* %this1, i32 0, i32 2, !dbg !2502
  store %"struct.xercesc_2_7::RefHashTableBucketElem.3"* null, %"struct.xercesc_2_7::RefHashTableBucketElem.3"** %fCurElem, align 8, !dbg !2502
  %fCurHash = getelementptr inbounds %"class.xercesc_2_7::RefHashTableOfEnumerator", %"class.xercesc_2_7::RefHashTableOfEnumerator"* %this1, i32 0, i32 3, !dbg !2503
  store i32 -1, i32* %fCurHash, align 8, !dbg !2503
  %fToEnum = getelementptr inbounds %"class.xercesc_2_7::RefHashTableOfEnumerator", %"class.xercesc_2_7::RefHashTableOfEnumerator"* %this1, i32 0, i32 4, !dbg !2504
  %4 = load %"class.xercesc_2_7::RefHashTableOf.0"*, %"class.xercesc_2_7::RefHashTableOf.0"** %toEnum.addr, align 8, !dbg !2505
  store %"class.xercesc_2_7::RefHashTableOf.0"* %4, %"class.xercesc_2_7::RefHashTableOf.0"** %fToEnum, align 8, !dbg !2504
  %fMemoryManager = getelementptr inbounds %"class.xercesc_2_7::RefHashTableOfEnumerator", %"class.xercesc_2_7::RefHashTableOfEnumerator"* %this1, i32 0, i32 5, !dbg !2506
  %5 = load %"class.xercesc_2_7::MemoryManager"*, %"class.xercesc_2_7::MemoryManager"** %manager.addr, align 8, !dbg !2507
  store %"class.xercesc_2_7::MemoryManager"* %5, %"class.xercesc_2_7::MemoryManager"** %fMemoryManager, align 8, !dbg !2506
  %6 = load %"class.xercesc_2_7::RefHashTableOf.0"*, %"class.xercesc_2_7::RefHashTableOf.0"** %toEnum.addr, align 8, !dbg !2508
  %tobool3 = icmp ne %"class.xercesc_2_7::RefHashTableOf.0"* %6, null, !dbg !2508
  br i1 %tobool3, label %if.end, label %if.then, !dbg !2511

if.then:                                          ; preds = %invoke.cont
  %exception = call i8* @__cxa_allocate_exception(i64 48) #10, !dbg !2512
  %7 = bitcast i8* %exception to %"class.xercesc_2_7::NullPointerException"*, !dbg !2512
  %fMemoryManager4 = getelementptr inbounds %"class.xercesc_2_7::RefHashTableOfEnumerator", %"class.xercesc_2_7::RefHashTableOfEnumerator"* %this1, i32 0, i32 5, !dbg !2512
  %8 = load %"class.xercesc_2_7::MemoryManager"*, %"class.xercesc_2_7::MemoryManager"** %fMemoryManager4, align 8, !dbg !2512
  invoke void @_ZN11xercesc_2_720NullPointerExceptionC2EPKcjNS_10XMLExcepts5CodesEPNS_13MemoryManagerE(%"class.xercesc_2_7::NullPointerException"* %7, i8* getelementptr inbounds ([32 x i8], [32 x i8]* @.str.2, i64 0, i64 0), i32 527, i32 15, %"class.xercesc_2_7::MemoryManager"* %8)
          to label %invoke.cont6 unwind label %lpad5, !dbg !2512

invoke.cont6:                                     ; preds = %if.then
  invoke void @__cxa_throw(i8* %exception, i8* bitcast ({ i8*, i8*, i8* }* @_ZTIN11xercesc_2_720NullPointerExceptionE to i8*), i8* bitcast (void (%"class.xercesc_2_7::NullPointerException"*)* @_ZN11xercesc_2_720NullPointerExceptionD2Ev to i8*)) #13
          to label %unreachable unwind label %lpad, !dbg !2512

lpad:                                             ; preds = %if.end, %invoke.cont6, %entry
  %9 = landingpad { i8*, i32 }
          cleanup, !dbg !2513
  %10 = extractvalue { i8*, i32 } %9, 0, !dbg !2513
  store i8* %10, i8** %exn.slot, align 8, !dbg !2513
  %11 = extractvalue { i8*, i32 } %9, 1, !dbg !2513
  store i32 %11, i32* %ehselector.slot, align 4, !dbg !2513
  br label %ehcleanup, !dbg !2513

lpad5:                                            ; preds = %if.then
  %12 = landingpad { i8*, i32 }
          cleanup, !dbg !2514
  %13 = extractvalue { i8*, i32 } %12, 0, !dbg !2514
  store i8* %13, i8** %exn.slot, align 8, !dbg !2514
  %14 = extractvalue { i8*, i32 } %12, 1, !dbg !2514
  store i32 %14, i32* %ehselector.slot, align 4, !dbg !2514
  call void @__cxa_free_exception(i8* %exception) #10, !dbg !2512
  br label %ehcleanup, !dbg !2512

if.end:                                           ; preds = %invoke.cont
  invoke void @_ZN11xercesc_2_724RefHashTableOfEnumeratorINS_12KVStringPairEE8findNextEv(%"class.xercesc_2_7::RefHashTableOfEnumerator"* %this1)
          to label %invoke.cont7 unwind label %lpad, !dbg !2515

invoke.cont7:                                     ; preds = %if.end
  ret void, !dbg !2513

ehcleanup:                                        ; preds = %lpad5, %lpad
  %15 = bitcast %"class.xercesc_2_7::RefHashTableOfEnumerator"* %this1 to %"class.xercesc_2_7::XMLEnumerator"*, !dbg !2516
  call void @_ZN11xercesc_2_713XMLEnumeratorINS_12KVStringPairEED2Ev(%"class.xercesc_2_7::XMLEnumerator"* %15) #10, !dbg !2516
  br label %eh.resume, !dbg !2516

eh.resume:                                        ; preds = %ehcleanup
  %exn = load i8*, i8** %exn.slot, align 8, !dbg !2516
  %sel = load i32, i32* %ehselector.slot, align 4, !dbg !2516
  %lpad.val = insertvalue { i8*, i32 } undef, i8* %exn, 0, !dbg !2516
  %lpad.val8 = insertvalue { i8*, i32 } %lpad.val, i32 %sel, 1, !dbg !2516
  resume { i8*, i32 } %lpad.val8, !dbg !2516

unreachable:                                      ; preds = %invoke.cont6
  unreachable
}

; Function Attrs: noinline nounwind uwtable
define linkonce_odr dso_local zeroext i1 @_ZNK11xercesc_2_724RefHashTableOfEnumeratorINS_12KVStringPairEE15hasMoreElementsEv(%"class.xercesc_2_7::RefHashTableOfEnumerator"* %this) unnamed_addr #1 comdat align 2 !dbg !2517 {
entry:
  %retval = alloca i1, align 1
  %this.addr = alloca %"class.xercesc_2_7::RefHashTableOfEnumerator"*, align 8
  store %"class.xercesc_2_7::RefHashTableOfEnumerator"* %this, %"class.xercesc_2_7::RefHashTableOfEnumerator"** %this.addr, align 8
  call void @llvm.dbg.declare(metadata %"class.xercesc_2_7::RefHashTableOfEnumerator"** %this.addr, metadata !2518, metadata !DIExpression()), !dbg !2520
  %this1 = load %"class.xercesc_2_7::RefHashTableOfEnumerator"*, %"class.xercesc_2_7::RefHashTableOfEnumerator"** %this.addr, align 8
  %fCurElem = getelementptr inbounds %"class.xercesc_2_7::RefHashTableOfEnumerator", %"class.xercesc_2_7::RefHashTableOfEnumerator"* %this1, i32 0, i32 2, !dbg !2521
  %0 = load %"struct.xercesc_2_7::RefHashTableBucketElem.3"*, %"struct.xercesc_2_7::RefHashTableBucketElem.3"** %fCurElem, align 8, !dbg !2521
  %tobool = icmp ne %"struct.xercesc_2_7::RefHashTableBucketElem.3"* %0, null, !dbg !2521
  br i1 %tobool, label %if.end, label %land.lhs.true, !dbg !2523

land.lhs.true:                                    ; preds = %entry
  %fCurHash = getelementptr inbounds %"class.xercesc_2_7::RefHashTableOfEnumerator", %"class.xercesc_2_7::RefHashTableOfEnumerator"* %this1, i32 0, i32 3, !dbg !2524
  %1 = load i32, i32* %fCurHash, align 8, !dbg !2524
  %fToEnum = getelementptr inbounds %"class.xercesc_2_7::RefHashTableOfEnumerator", %"class.xercesc_2_7::RefHashTableOfEnumerator"* %this1, i32 0, i32 4, !dbg !2525
  %2 = load %"class.xercesc_2_7::RefHashTableOf.0"*, %"class.xercesc_2_7::RefHashTableOf.0"** %fToEnum, align 8, !dbg !2525
  %fHashModulus = getelementptr inbounds %"class.xercesc_2_7::RefHashTableOf.0", %"class.xercesc_2_7::RefHashTableOf.0"* %2, i32 0, i32 3, !dbg !2526
  %3 = load i32, i32* %fHashModulus, align 8, !dbg !2526
  %cmp = icmp eq i32 %1, %3, !dbg !2527
  br i1 %cmp, label %if.then, label %if.end, !dbg !2528

if.then:                                          ; preds = %land.lhs.true
  store i1 false, i1* %retval, align 1, !dbg !2529
  br label %return, !dbg !2529

if.end:                                           ; preds = %land.lhs.true, %entry
  store i1 true, i1* %retval, align 1, !dbg !2530
  br label %return, !dbg !2530

return:                                           ; preds = %if.end, %if.then
  %4 = load i1, i1* %retval, align 1, !dbg !2531
  ret i1 %4, !dbg !2531
}

; Function Attrs: noinline uwtable
define linkonce_odr dso_local dereferenceable(48) %"class.xercesc_2_7::KVStringPair"* @_ZN11xercesc_2_724RefHashTableOfEnumeratorINS_12KVStringPairEE11nextElementEv(%"class.xercesc_2_7::RefHashTableOfEnumerator"* %this) unnamed_addr #6 comdat align 2 personality i8* bitcast (i32 (...)* @__gxx_personality_v0 to i8*) !dbg !2532 {
entry:
  %this.addr = alloca %"class.xercesc_2_7::RefHashTableOfEnumerator"*, align 8
  %exn.slot = alloca i8*
  %ehselector.slot = alloca i32
  %saveElem = alloca %"struct.xercesc_2_7::RefHashTableBucketElem.3"*, align 8
  store %"class.xercesc_2_7::RefHashTableOfEnumerator"* %this, %"class.xercesc_2_7::RefHashTableOfEnumerator"** %this.addr, align 8
  call void @llvm.dbg.declare(metadata %"class.xercesc_2_7::RefHashTableOfEnumerator"** %this.addr, metadata !2533, metadata !DIExpression()), !dbg !2534
  %this1 = load %"class.xercesc_2_7::RefHashTableOfEnumerator"*, %"class.xercesc_2_7::RefHashTableOfEnumerator"** %this.addr, align 8
  %0 = bitcast %"class.xercesc_2_7::RefHashTableOfEnumerator"* %this1 to i1 (%"class.xercesc_2_7::RefHashTableOfEnumerator"*)***, !dbg !2535
  %vtable = load i1 (%"class.xercesc_2_7::RefHashTableOfEnumerator"*)**, i1 (%"class.xercesc_2_7::RefHashTableOfEnumerator"*)*** %0, align 8, !dbg !2535
  %vfn = getelementptr inbounds i1 (%"class.xercesc_2_7::RefHashTableOfEnumerator"*)*, i1 (%"class.xercesc_2_7::RefHashTableOfEnumerator"*)** %vtable, i64 2, !dbg !2535
  %1 = load i1 (%"class.xercesc_2_7::RefHashTableOfEnumerator"*)*, i1 (%"class.xercesc_2_7::RefHashTableOfEnumerator"*)** %vfn, align 8, !dbg !2535
  %call = call zeroext i1 %1(%"class.xercesc_2_7::RefHashTableOfEnumerator"* %this1), !dbg !2535
  br i1 %call, label %if.end, label %if.then, !dbg !2537

if.then:                                          ; preds = %entry
  %exception = call i8* @__cxa_allocate_exception(i64 48) #10, !dbg !2538
  %2 = bitcast i8* %exception to %"class.xercesc_2_7::NoSuchElementException"*, !dbg !2538
  %fMemoryManager = getelementptr inbounds %"class.xercesc_2_7::RefHashTableOfEnumerator", %"class.xercesc_2_7::RefHashTableOfEnumerator"* %this1, i32 0, i32 5, !dbg !2538
  %3 = load %"class.xercesc_2_7::MemoryManager"*, %"class.xercesc_2_7::MemoryManager"** %fMemoryManager, align 8, !dbg !2538
  invoke void @_ZN11xercesc_2_722NoSuchElementExceptionC2EPKcjNS_10XMLExcepts5CodesEPNS_13MemoryManagerE(%"class.xercesc_2_7::NoSuchElementException"* %2, i8* getelementptr inbounds ([32 x i8], [32 x i8]* @.str.2, i64 0, i64 0), i32 575, i32 30, %"class.xercesc_2_7::MemoryManager"* %3)
          to label %invoke.cont unwind label %lpad, !dbg !2538

invoke.cont:                                      ; preds = %if.then
  call void @__cxa_throw(i8* %exception, i8* bitcast ({ i8*, i8*, i8* }* @_ZTIN11xercesc_2_722NoSuchElementExceptionE to i8*), i8* bitcast (void (%"class.xercesc_2_7::NoSuchElementException"*)* @_ZN11xercesc_2_722NoSuchElementExceptionD2Ev to i8*)) #13, !dbg !2538
  unreachable, !dbg !2538

lpad:                                             ; preds = %if.then
  %4 = landingpad { i8*, i32 }
          cleanup, !dbg !2539
  %5 = extractvalue { i8*, i32 } %4, 0, !dbg !2539
  store i8* %5, i8** %exn.slot, align 8, !dbg !2539
  %6 = extractvalue { i8*, i32 } %4, 1, !dbg !2539
  store i32 %6, i32* %ehselector.slot, align 4, !dbg !2539
  call void @__cxa_free_exception(i8* %exception) #10, !dbg !2538
  br label %eh.resume, !dbg !2538

if.end:                                           ; preds = %entry
  call void @llvm.dbg.declare(metadata %"struct.xercesc_2_7::RefHashTableBucketElem.3"** %saveElem, metadata !2540, metadata !DIExpression()), !dbg !2541
  %fCurElem = getelementptr inbounds %"class.xercesc_2_7::RefHashTableOfEnumerator", %"class.xercesc_2_7::RefHashTableOfEnumerator"* %this1, i32 0, i32 2, !dbg !2542
  %7 = load %"struct.xercesc_2_7::RefHashTableBucketElem.3"*, %"struct.xercesc_2_7::RefHashTableBucketElem.3"** %fCurElem, align 8, !dbg !2542
  store %"struct.xercesc_2_7::RefHashTableBucketElem.3"* %7, %"struct.xercesc_2_7::RefHashTableBucketElem.3"** %saveElem, align 8, !dbg !2541
  call void @_ZN11xercesc_2_724RefHashTableOfEnumeratorINS_12KVStringPairEE8findNextEv(%"class.xercesc_2_7::RefHashTableOfEnumerator"* %this1), !dbg !2543
  %8 = load %"struct.xercesc_2_7::RefHashTableBucketElem.3"*, %"struct.xercesc_2_7::RefHashTableBucketElem.3"** %saveElem, align 8, !dbg !2544
  %fData = getelementptr inbounds %"struct.xercesc_2_7::RefHashTableBucketElem.3", %"struct.xercesc_2_7::RefHashTableBucketElem.3"* %8, i32 0, i32 0, !dbg !2545
  %9 = load %"class.xercesc_2_7::KVStringPair"*, %"class.xercesc_2_7::KVStringPair"** %fData, align 8, !dbg !2545
  ret %"class.xercesc_2_7::KVStringPair"* %9, !dbg !2546

eh.resume:                                        ; preds = %lpad
  %exn = load i8*, i8** %exn.slot, align 8, !dbg !2538
  %sel = load i32, i32* %ehselector.slot, align 4, !dbg !2538
  %lpad.val = insertvalue { i8*, i32 } undef, i8* %exn, 0, !dbg !2538
  %lpad.val2 = insertvalue { i8*, i32 } %lpad.val, i32 %sel, 1, !dbg !2538
  resume { i8*, i32 } %lpad.val2, !dbg !2538
}

declare dso_local void @_ZN11xercesc_2_712KVStringPairC1ERKS0_(%"class.xercesc_2_7::KVStringPair"*, %"class.xercesc_2_7::KVStringPair"* dereferenceable(48)) unnamed_addr #7

; Function Attrs: noinline nounwind uwtable
define linkonce_odr dso_local i16* @_ZN11xercesc_2_712KVStringPair6getKeyEv(%"class.xercesc_2_7::KVStringPair"* %this) #1 comdat align 2 !dbg !2547 {
entry:
  %this.addr = alloca %"class.xercesc_2_7::KVStringPair"*, align 8
  store %"class.xercesc_2_7::KVStringPair"* %this, %"class.xercesc_2_7::KVStringPair"** %this.addr, align 8
  call void @llvm.dbg.declare(metadata %"class.xercesc_2_7::KVStringPair"** %this.addr, metadata !2552, metadata !DIExpression()), !dbg !2553
  %this1 = load %"class.xercesc_2_7::KVStringPair"*, %"class.xercesc_2_7::KVStringPair"** %this.addr, align 8
  %fKey = getelementptr inbounds %"class.xercesc_2_7::KVStringPair", %"class.xercesc_2_7::KVStringPair"* %this1, i32 0, i32 3, !dbg !2554
  %0 = load i16*, i16** %fKey, align 8, !dbg !2554
  ret i16* %0, !dbg !2555
}

; Function Attrs: noinline nounwind uwtable
define linkonce_odr dso_local i16* @_ZN11xercesc_2_712KVStringPair8getValueEv(%"class.xercesc_2_7::KVStringPair"* %this) #1 comdat align 2 !dbg !2556 {
entry:
  %this.addr = alloca %"class.xercesc_2_7::KVStringPair"*, align 8
  store %"class.xercesc_2_7::KVStringPair"* %this, %"class.xercesc_2_7::KVStringPair"** %this.addr, align 8
  call void @llvm.dbg.declare(metadata %"class.xercesc_2_7::KVStringPair"** %this.addr, metadata !2558, metadata !DIExpression()), !dbg !2559
  %this1 = load %"class.xercesc_2_7::KVStringPair"*, %"class.xercesc_2_7::KVStringPair"** %this.addr, align 8
  %fValue = getelementptr inbounds %"class.xercesc_2_7::KVStringPair", %"class.xercesc_2_7::KVStringPair"* %this1, i32 0, i32 4, !dbg !2560
  %0 = load i16*, i16** %fValue, align 8, !dbg !2560
  ret i16* %0, !dbg !2561
}

; Function Attrs: noinline nounwind uwtable
define linkonce_odr dso_local zeroext i1 @_ZN11xercesc_2_79XMLString6equalsEPKtS2_(i16* %str1, i16* %str2) #1 comdat align 2 !dbg !2562 {
entry:
  %retval = alloca i1, align 1
  %str1.addr = alloca i16*, align 8
  %str2.addr = alloca i16*, align 8
  %psz1 = alloca i16*, align 8
  %psz2 = alloca i16*, align 8
  store i16* %str1, i16** %str1.addr, align 8
  call void @llvm.dbg.declare(metadata i16** %str1.addr, metadata !2808, metadata !DIExpression()), !dbg !2809
  store i16* %str2, i16** %str2.addr, align 8
  call void @llvm.dbg.declare(metadata i16** %str2.addr, metadata !2810, metadata !DIExpression()), !dbg !2811
  call void @llvm.dbg.declare(metadata i16** %psz1, metadata !2812, metadata !DIExpression()), !dbg !2813
  %0 = load i16*, i16** %str1.addr, align 8, !dbg !2814
  store i16* %0, i16** %psz1, align 8, !dbg !2813
  call void @llvm.dbg.declare(metadata i16** %psz2, metadata !2815, metadata !DIExpression()), !dbg !2816
  %1 = load i16*, i16** %str2.addr, align 8, !dbg !2817
  store i16* %1, i16** %psz2, align 8, !dbg !2816
  %2 = load i16*, i16** %psz1, align 8, !dbg !2818
  %cmp = icmp eq i16* %2, null, !dbg !2820
  br i1 %cmp, label %if.then, label %lor.lhs.false, !dbg !2821

lor.lhs.false:                                    ; preds = %entry
  %3 = load i16*, i16** %psz2, align 8, !dbg !2822
  %cmp1 = icmp eq i16* %3, null, !dbg !2823
  br i1 %cmp1, label %if.then, label %if.end, !dbg !2824

if.then:                                          ; preds = %lor.lhs.false, %entry
  %4 = load i16*, i16** %psz1, align 8, !dbg !2825
  %cmp2 = icmp ne i16* %4, null, !dbg !2828
  br i1 %cmp2, label %land.lhs.true, label %lor.lhs.false3, !dbg !2829

land.lhs.true:                                    ; preds = %if.then
  %5 = load i16*, i16** %psz1, align 8, !dbg !2830
  %6 = load i16, i16* %5, align 2, !dbg !2831
  %tobool = icmp ne i16 %6, 0, !dbg !2831
  br i1 %tobool, label %if.then7, label %lor.lhs.false3, !dbg !2832

lor.lhs.false3:                                   ; preds = %land.lhs.true, %if.then
  %7 = load i16*, i16** %psz2, align 8, !dbg !2833
  %cmp4 = icmp ne i16* %7, null, !dbg !2834
  br i1 %cmp4, label %land.lhs.true5, label %if.else, !dbg !2835

land.lhs.true5:                                   ; preds = %lor.lhs.false3
  %8 = load i16*, i16** %psz2, align 8, !dbg !2836
  %9 = load i16, i16* %8, align 2, !dbg !2837
  %tobool6 = icmp ne i16 %9, 0, !dbg !2837
  br i1 %tobool6, label %if.then7, label %if.else, !dbg !2838

if.then7:                                         ; preds = %land.lhs.true5, %land.lhs.true
  store i1 false, i1* %retval, align 1, !dbg !2839
  br label %return, !dbg !2839

if.else:                                          ; preds = %land.lhs.true5, %lor.lhs.false3
  store i1 true, i1* %retval, align 1, !dbg !2840
  br label %return, !dbg !2840

if.end:                                           ; preds = %lor.lhs.false
  br label %while.cond, !dbg !2841

while.cond:                                       ; preds = %if.end12, %if.end
  %10 = load i16*, i16** %psz1, align 8, !dbg !2842
  %11 = load i16, i16* %10, align 2, !dbg !2843
  %conv = zext i16 %11 to i32, !dbg !2843
  %12 = load i16*, i16** %psz2, align 8, !dbg !2844
  %13 = load i16, i16* %12, align 2, !dbg !2845
  %conv8 = zext i16 %13 to i32, !dbg !2845
  %cmp9 = icmp eq i32 %conv, %conv8, !dbg !2846
  br i1 %cmp9, label %while.body, label %while.end, !dbg !2841

while.body:                                       ; preds = %while.cond
  %14 = load i16*, i16** %psz1, align 8, !dbg !2847
  %15 = load i16, i16* %14, align 2, !dbg !2850
  %tobool10 = icmp ne i16 %15, 0, !dbg !2850
  br i1 %tobool10, label %if.end12, label %if.then11, !dbg !2851

if.then11:                                        ; preds = %while.body
  store i1 true, i1* %retval, align 1, !dbg !2852
  br label %return, !dbg !2852

if.end12:                                         ; preds = %while.body
  %16 = load i16*, i16** %psz1, align 8, !dbg !2853
  %incdec.ptr = getelementptr inbounds i16, i16* %16, i32 1, !dbg !2853
  store i16* %incdec.ptr, i16** %psz1, align 8, !dbg !2853
  %17 = load i16*, i16** %psz2, align 8, !dbg !2854
  %incdec.ptr13 = getelementptr inbounds i16, i16* %17, i32 1, !dbg !2854
  store i16* %incdec.ptr13, i16** %psz2, align 8, !dbg !2854
  br label %while.cond, !dbg !2841, !llvm.loop !2855

while.end:                                        ; preds = %while.cond
  store i1 false, i1* %retval, align 1, !dbg !2857
  br label %return, !dbg !2857

return:                                           ; preds = %while.end, %if.then11, %if.else, %if.then7
  %18 = load i1, i1* %retval, align 1, !dbg !2858
  ret i1 %18, !dbg !2858
}

declare dso_local i32 @_ZN11xercesc_2_79XMLString8parseIntEPKtPNS_13MemoryManagerE(i16*, %"class.xercesc_2_7::MemoryManager"*) #7

; Function Attrs: nounwind readnone
declare i32 @llvm.eh.typeid.for(i8*) #8

declare dso_local i8* @__cxa_allocate_exception(i64)

; Function Attrs: noinline uwtable
define linkonce_odr dso_local void @_ZN11xercesc_2_729InvalidDatatypeFacetExceptionC2EPKcjNS_10XMLExcepts5CodesEPKtS6_S6_S6_PNS_13MemoryManagerE(%"class.xercesc_2_7::InvalidDatatypeFacetException"* %this, i8* %srcFile, i32 %srcLine, i32 %toThrow, i16* %text1, i16* %text2, i16* %text3, i16* %text4, %"class.xercesc_2_7::MemoryManager"* %memoryManager) unnamed_addr #6 comdat align 2 personality i8* bitcast (i32 (...)* @__gxx_personality_v0 to i8*) !dbg !2859 {
entry:
  %this.addr = alloca %"class.xercesc_2_7::InvalidDatatypeFacetException"*, align 8
  %srcFile.addr = alloca i8*, align 8
  %srcLine.addr = alloca i32, align 4
  %toThrow.addr = alloca i32, align 4
  %text1.addr = alloca i16*, align 8
  %text2.addr = alloca i16*, align 8
  %text3.addr = alloca i16*, align 8
  %text4.addr = alloca i16*, align 8
  %memoryManager.addr = alloca %"class.xercesc_2_7::MemoryManager"*, align 8
  %exn.slot = alloca i8*
  %ehselector.slot = alloca i32
  store %"class.xercesc_2_7::InvalidDatatypeFacetException"* %this, %"class.xercesc_2_7::InvalidDatatypeFacetException"** %this.addr, align 8
  call void @llvm.dbg.declare(metadata %"class.xercesc_2_7::InvalidDatatypeFacetException"** %this.addr, metadata !2897, metadata !DIExpression()), !dbg !2899
  store i8* %srcFile, i8** %srcFile.addr, align 8
  call void @llvm.dbg.declare(metadata i8** %srcFile.addr, metadata !2900, metadata !DIExpression()), !dbg !2901
  store i32 %srcLine, i32* %srcLine.addr, align 4
  call void @llvm.dbg.declare(metadata i32* %srcLine.addr, metadata !2902, metadata !DIExpression()), !dbg !2901
  store i32 %toThrow, i32* %toThrow.addr, align 4
  call void @llvm.dbg.declare(metadata i32* %toThrow.addr, metadata !2903, metadata !DIExpression()), !dbg !2901
  store i16* %text1, i16** %text1.addr, align 8
  call void @llvm.dbg.declare(metadata i16** %text1.addr, metadata !2904, metadata !DIExpression()), !dbg !2901
  store i16* %text2, i16** %text2.addr, align 8
  call void @llvm.dbg.declare(metadata i16** %text2.addr, metadata !2905, metadata !DIExpression()), !dbg !2901
  store i16* %text3, i16** %text3.addr, align 8
  call void @llvm.dbg.declare(metadata i16** %text3.addr, metadata !2906, metadata !DIExpression()), !dbg !2901
  store i16* %text4, i16** %text4.addr, align 8
  call void @llvm.dbg.declare(metadata i16** %text4.addr, metadata !2907, metadata !DIExpression()), !dbg !2901
  store %"class.xercesc_2_7::MemoryManager"* %memoryManager, %"class.xercesc_2_7::MemoryManager"** %memoryManager.addr, align 8
  call void @llvm.dbg.declare(metadata %"class.xercesc_2_7::MemoryManager"** %memoryManager.addr, metadata !2908, metadata !DIExpression()), !dbg !2901
  %this1 = load %"class.xercesc_2_7::InvalidDatatypeFacetException"*, %"class.xercesc_2_7::InvalidDatatypeFacetException"** %this.addr, align 8
  %0 = bitcast %"class.xercesc_2_7::InvalidDatatypeFacetException"* %this1 to %"class.xercesc_2_7::XMLException"*, !dbg !2901
  %1 = load i8*, i8** %srcFile.addr, align 8, !dbg !2901
  %2 = load i32, i32* %srcLine.addr, align 4, !dbg !2901
  %3 = load %"class.xercesc_2_7::MemoryManager"*, %"class.xercesc_2_7::MemoryManager"** %memoryManager.addr, align 8, !dbg !2901
  call void @_ZN11xercesc_2_712XMLExceptionC2EPKcjPNS_13MemoryManagerE(%"class.xercesc_2_7::XMLException"* %0, i8* %1, i32 %2, %"class.xercesc_2_7::MemoryManager"* %3), !dbg !2901
  %4 = bitcast %"class.xercesc_2_7::InvalidDatatypeFacetException"* %this1 to i32 (...)***, !dbg !2901
  store i32 (...)** bitcast (i8** getelementptr inbounds ({ [6 x i8*] }, { [6 x i8*] }* @_ZTVN11xercesc_2_729InvalidDatatypeFacetExceptionE, i32 0, inrange i32 0, i32 2) to i32 (...)**), i32 (...)*** %4, align 8, !dbg !2901
  %5 = bitcast %"class.xercesc_2_7::InvalidDatatypeFacetException"* %this1 to %"class.xercesc_2_7::XMLException"*, !dbg !2909
  %6 = load i32, i32* %toThrow.addr, align 4, !dbg !2909
  %7 = load i16*, i16** %text1.addr, align 8, !dbg !2909
  %8 = load i16*, i16** %text2.addr, align 8, !dbg !2909
  %9 = load i16*, i16** %text3.addr, align 8, !dbg !2909
  %10 = load i16*, i16** %text4.addr, align 8, !dbg !2909
  invoke void @_ZN11xercesc_2_712XMLException14loadExceptTextENS_10XMLExcepts5CodesEPKtS4_S4_S4_(%"class.xercesc_2_7::XMLException"* %5, i32 %6, i16* %7, i16* %8, i16* %9, i16* %10)
          to label %invoke.cont unwind label %lpad, !dbg !2909

invoke.cont:                                      ; preds = %entry
  ret void, !dbg !2901

lpad:                                             ; preds = %entry
  %11 = landingpad { i8*, i32 }
          cleanup, !dbg !2909
  %12 = extractvalue { i8*, i32 } %11, 0, !dbg !2909
  store i8* %12, i8** %exn.slot, align 8, !dbg !2909
  %13 = extractvalue { i8*, i32 } %11, 1, !dbg !2909
  store i32 %13, i32* %ehselector.slot, align 4, !dbg !2909
  %14 = bitcast %"class.xercesc_2_7::InvalidDatatypeFacetException"* %this1 to %"class.xercesc_2_7::XMLException"*, !dbg !2909
  call void @_ZN11xercesc_2_712XMLExceptionD2Ev(%"class.xercesc_2_7::XMLException"* %14) #10, !dbg !2909
  br label %eh.resume, !dbg !2909

eh.resume:                                        ; preds = %lpad
  %exn = load i8*, i8** %exn.slot, align 8, !dbg !2909
  %sel = load i32, i32* %ehselector.slot, align 4, !dbg !2909
  %lpad.val = insertvalue { i8*, i32 } undef, i8* %exn, 0, !dbg !2909
  %lpad.val2 = insertvalue { i8*, i32 } %lpad.val, i32 %sel, 1, !dbg !2909
  resume { i8*, i32 } %lpad.val2, !dbg !2909
}

declare dso_local void @__cxa_free_exception(i8*)

; Function Attrs: noinline nounwind uwtable
define linkonce_odr dso_local void @_ZN11xercesc_2_729InvalidDatatypeFacetExceptionD2Ev(%"class.xercesc_2_7::InvalidDatatypeFacetException"* %this) unnamed_addr #1 comdat align 2 !dbg !2911 {
entry:
  %this.addr = alloca %"class.xercesc_2_7::InvalidDatatypeFacetException"*, align 8
  store %"class.xercesc_2_7::InvalidDatatypeFacetException"* %this, %"class.xercesc_2_7::InvalidDatatypeFacetException"** %this.addr, align 8
  call void @llvm.dbg.declare(metadata %"class.xercesc_2_7::InvalidDatatypeFacetException"** %this.addr, metadata !2912, metadata !DIExpression()), !dbg !2913
  %this1 = load %"class.xercesc_2_7::InvalidDatatypeFacetException"*, %"class.xercesc_2_7::InvalidDatatypeFacetException"** %this.addr, align 8
  %0 = bitcast %"class.xercesc_2_7::InvalidDatatypeFacetException"* %this1 to %"class.xercesc_2_7::XMLException"*, !dbg !2914
  call void @_ZN11xercesc_2_712XMLExceptionD2Ev(%"class.xercesc_2_7::XMLException"* %0) #10, !dbg !2914
  ret void, !dbg !2916
}

declare dso_local void @__cxa_throw(i8*, i8*, i8*)

declare dso_local void @__cxa_end_catch()

; Function Attrs: noinline nounwind uwtable
define linkonce_odr dso_local void @_ZN11xercesc_2_723AbstractStringValidator9setLengthEj(%"class.xercesc_2_7::AbstractStringValidator"* %this, i32 %newLength) #1 comdat align 2 !dbg !2917 {
entry:
  %this.addr = alloca %"class.xercesc_2_7::AbstractStringValidator"*, align 8
  %newLength.addr = alloca i32, align 4
  store %"class.xercesc_2_7::AbstractStringValidator"* %this, %"class.xercesc_2_7::AbstractStringValidator"** %this.addr, align 8
  call void @llvm.dbg.declare(metadata %"class.xercesc_2_7::AbstractStringValidator"** %this.addr, metadata !2918, metadata !DIExpression()), !dbg !2919
  store i32 %newLength, i32* %newLength.addr, align 4
  call void @llvm.dbg.declare(metadata i32* %newLength.addr, metadata !2920, metadata !DIExpression()), !dbg !2921
  %this1 = load %"class.xercesc_2_7::AbstractStringValidator"*, %"class.xercesc_2_7::AbstractStringValidator"** %this.addr, align 8
  %0 = load i32, i32* %newLength.addr, align 4, !dbg !2922
  %fLength = getelementptr inbounds %"class.xercesc_2_7::AbstractStringValidator", %"class.xercesc_2_7::AbstractStringValidator"* %this1, i32 0, i32 1, !dbg !2923
  store i32 %0, i32* %fLength, align 8, !dbg !2924
  ret void, !dbg !2925
}

; Function Attrs: noinline nounwind uwtable
define linkonce_odr dso_local void @_ZN11xercesc_2_717DatatypeValidator16setFacetsDefinedEi(%"class.xercesc_2_7::DatatypeValidator"* %this, i32 %facets) #1 comdat align 2 !dbg !2926 {
entry:
  %this.addr = alloca %"class.xercesc_2_7::DatatypeValidator"*, align 8
  %facets.addr = alloca i32, align 4
  store %"class.xercesc_2_7::DatatypeValidator"* %this, %"class.xercesc_2_7::DatatypeValidator"** %this.addr, align 8
  call void @llvm.dbg.declare(metadata %"class.xercesc_2_7::DatatypeValidator"** %this.addr, metadata !2931, metadata !DIExpression()), !dbg !2932
  store i32 %facets, i32* %facets.addr, align 4
  call void @llvm.dbg.declare(metadata i32* %facets.addr, metadata !2933, metadata !DIExpression()), !dbg !2934
  %this1 = load %"class.xercesc_2_7::DatatypeValidator"*, %"class.xercesc_2_7::DatatypeValidator"** %this.addr, align 8
  %0 = load i32, i32* %facets.addr, align 4, !dbg !2935
  %fFacetsDefined = getelementptr inbounds %"class.xercesc_2_7::DatatypeValidator", %"class.xercesc_2_7::DatatypeValidator"* %this1, i32 0, i32 7, !dbg !2936
  %1 = load i32, i32* %fFacetsDefined, align 4, !dbg !2937
  %or = or i32 %1, %0, !dbg !2937
  store i32 %or, i32* %fFacetsDefined, align 4, !dbg !2937
  ret void, !dbg !2938
}

; Function Attrs: noinline nounwind uwtable
define linkonce_odr dso_local void @_ZN11xercesc_2_723AbstractStringValidator12setMinLengthEj(%"class.xercesc_2_7::AbstractStringValidator"* %this, i32 %newMinLength) #1 comdat align 2 !dbg !2939 {
entry:
  %this.addr = alloca %"class.xercesc_2_7::AbstractStringValidator"*, align 8
  %newMinLength.addr = alloca i32, align 4
  store %"class.xercesc_2_7::AbstractStringValidator"* %this, %"class.xercesc_2_7::AbstractStringValidator"** %this.addr, align 8
  call void @llvm.dbg.declare(metadata %"class.xercesc_2_7::AbstractStringValidator"** %this.addr, metadata !2940, metadata !DIExpression()), !dbg !2941
  store i32 %newMinLength, i32* %newMinLength.addr, align 4
  call void @llvm.dbg.declare(metadata i32* %newMinLength.addr, metadata !2942, metadata !DIExpression()), !dbg !2943
  %this1 = load %"class.xercesc_2_7::AbstractStringValidator"*, %"class.xercesc_2_7::AbstractStringValidator"** %this.addr, align 8
  %0 = load i32, i32* %newMinLength.addr, align 4, !dbg !2944
  %fMinLength = getelementptr inbounds %"class.xercesc_2_7::AbstractStringValidator", %"class.xercesc_2_7::AbstractStringValidator"* %this1, i32 0, i32 3, !dbg !2945
  store i32 %0, i32* %fMinLength, align 8, !dbg !2946
  ret void, !dbg !2947
}

; Function Attrs: noinline nounwind uwtable
define linkonce_odr dso_local void @_ZN11xercesc_2_723AbstractStringValidator12setMaxLengthEj(%"class.xercesc_2_7::AbstractStringValidator"* %this, i32 %newMaxLength) #1 comdat align 2 !dbg !2948 {
entry:
  %this.addr = alloca %"class.xercesc_2_7::AbstractStringValidator"*, align 8
  %newMaxLength.addr = alloca i32, align 4
  store %"class.xercesc_2_7::AbstractStringValidator"* %this, %"class.xercesc_2_7::AbstractStringValidator"** %this.addr, align 8
  call void @llvm.dbg.declare(metadata %"class.xercesc_2_7::AbstractStringValidator"** %this.addr, metadata !2949, metadata !DIExpression()), !dbg !2950
  store i32 %newMaxLength, i32* %newMaxLength.addr, align 4
  call void @llvm.dbg.declare(metadata i32* %newMaxLength.addr, metadata !2951, metadata !DIExpression()), !dbg !2952
  %this1 = load %"class.xercesc_2_7::AbstractStringValidator"*, %"class.xercesc_2_7::AbstractStringValidator"** %this.addr, align 8
  %0 = load i32, i32* %newMaxLength.addr, align 4, !dbg !2953
  %fMaxLength = getelementptr inbounds %"class.xercesc_2_7::AbstractStringValidator", %"class.xercesc_2_7::AbstractStringValidator"* %this1, i32 0, i32 2, !dbg !2954
  store i32 %0, i32* %fMaxLength, align 4, !dbg !2955
  ret void, !dbg !2956
}

; Function Attrs: noinline uwtable
define linkonce_odr dso_local void @_ZN11xercesc_2_717DatatypeValidator10setPatternEPKt(%"class.xercesc_2_7::DatatypeValidator"* %this, i16* %pattern) #6 comdat align 2 !dbg !2957 {
entry:
  %this.addr = alloca %"class.xercesc_2_7::DatatypeValidator"*, align 8
  %pattern.addr = alloca i16*, align 8
  store %"class.xercesc_2_7::DatatypeValidator"* %this, %"class.xercesc_2_7::DatatypeValidator"** %this.addr, align 8
  call void @llvm.dbg.declare(metadata %"class.xercesc_2_7::DatatypeValidator"** %this.addr, metadata !2961, metadata !DIExpression()), !dbg !2962
  store i16* %pattern, i16** %pattern.addr, align 8
  call void @llvm.dbg.declare(metadata i16** %pattern.addr, metadata !2963, metadata !DIExpression()), !dbg !2964
  %this1 = load %"class.xercesc_2_7::DatatypeValidator"*, %"class.xercesc_2_7::DatatypeValidator"** %this.addr, align 8
  %fPattern = getelementptr inbounds %"class.xercesc_2_7::DatatypeValidator", %"class.xercesc_2_7::DatatypeValidator"* %this1, i32 0, i32 13, !dbg !2965
  %0 = load i16*, i16** %fPattern, align 8, !dbg !2965
  %tobool = icmp ne i16* %0, null, !dbg !2965
  br i1 %tobool, label %if.then, label %if.end, !dbg !2967

if.then:                                          ; preds = %entry
  %fMemoryManager = getelementptr inbounds %"class.xercesc_2_7::DatatypeValidator", %"class.xercesc_2_7::DatatypeValidator"* %this1, i32 0, i32 18, !dbg !2968
  %1 = load %"class.xercesc_2_7::MemoryManager"*, %"class.xercesc_2_7::MemoryManager"** %fMemoryManager, align 8, !dbg !2968
  %fPattern2 = getelementptr inbounds %"class.xercesc_2_7::DatatypeValidator", %"class.xercesc_2_7::DatatypeValidator"* %this1, i32 0, i32 13, !dbg !2969
  %2 = load i16*, i16** %fPattern2, align 8, !dbg !2969
  %3 = bitcast i16* %2 to i8*, !dbg !2969
  %4 = bitcast %"class.xercesc_2_7::MemoryManager"* %1 to void (%"class.xercesc_2_7::MemoryManager"*, i8*)***, !dbg !2970
  %vtable = load void (%"class.xercesc_2_7::MemoryManager"*, i8*)**, void (%"class.xercesc_2_7::MemoryManager"*, i8*)*** %4, align 8, !dbg !2970
  %vfn = getelementptr inbounds void (%"class.xercesc_2_7::MemoryManager"*, i8*)*, void (%"class.xercesc_2_7::MemoryManager"*, i8*)** %vtable, i64 3, !dbg !2970
  %5 = load void (%"class.xercesc_2_7::MemoryManager"*, i8*)*, void (%"class.xercesc_2_7::MemoryManager"*, i8*)** %vfn, align 8, !dbg !2970
  call void %5(%"class.xercesc_2_7::MemoryManager"* %1, i8* %3), !dbg !2970
  br label %if.end, !dbg !2968

if.end:                                           ; preds = %if.then, %entry
  %6 = load i16*, i16** %pattern.addr, align 8, !dbg !2971
  %fMemoryManager3 = getelementptr inbounds %"class.xercesc_2_7::DatatypeValidator", %"class.xercesc_2_7::DatatypeValidator"* %this1, i32 0, i32 18, !dbg !2972
  %7 = load %"class.xercesc_2_7::MemoryManager"*, %"class.xercesc_2_7::MemoryManager"** %fMemoryManager3, align 8, !dbg !2972
  %call = call i16* @_ZN11xercesc_2_79XMLString9replicateEPKtPNS_13MemoryManagerE(i16* %6, %"class.xercesc_2_7::MemoryManager"* %7), !dbg !2973
  %fPattern4 = getelementptr inbounds %"class.xercesc_2_7::DatatypeValidator", %"class.xercesc_2_7::DatatypeValidator"* %this1, i32 0, i32 13, !dbg !2974
  store i16* %call, i16** %fPattern4, align 8, !dbg !2975
  ret void, !dbg !2976
}

; Function Attrs: noinline nounwind uwtable
define linkonce_odr dso_local i16* @_ZNK11xercesc_2_717DatatypeValidator10getPatternEv(%"class.xercesc_2_7::DatatypeValidator"* %this) #1 comdat align 2 !dbg !2977 {
entry:
  %this.addr = alloca %"class.xercesc_2_7::DatatypeValidator"*, align 8
  store %"class.xercesc_2_7::DatatypeValidator"* %this, %"class.xercesc_2_7::DatatypeValidator"** %this.addr, align 8
  call void @llvm.dbg.declare(metadata %"class.xercesc_2_7::DatatypeValidator"** %this.addr, metadata !2981, metadata !DIExpression()), !dbg !2982
  %this1 = load %"class.xercesc_2_7::DatatypeValidator"*, %"class.xercesc_2_7::DatatypeValidator"** %this.addr, align 8
  %fPattern = getelementptr inbounds %"class.xercesc_2_7::DatatypeValidator", %"class.xercesc_2_7::DatatypeValidator"* %this1, i32 0, i32 13, !dbg !2983
  %0 = load i16*, i16** %fPattern, align 8, !dbg !2983
  ret i16* %0, !dbg !2984
}

declare dso_local zeroext i1 @_ZN11xercesc_2_79XMLString9textToBinEPKtRjPNS_13MemoryManagerE(i16*, i32* dereferenceable(4), %"class.xercesc_2_7::MemoryManager"*) #7

; Function Attrs: noinline uwtable
define linkonce_odr dso_local void @_ZN11xercesc_2_729InvalidDatatypeFacetExceptionC2EPKcjNS_10XMLExcepts5CodesEPNS_13MemoryManagerE(%"class.xercesc_2_7::InvalidDatatypeFacetException"* %this, i8* %srcFile, i32 %srcLine, i32 %toThrow, %"class.xercesc_2_7::MemoryManager"* %memoryManager) unnamed_addr #6 comdat align 2 personality i8* bitcast (i32 (...)* @__gxx_personality_v0 to i8*) !dbg !2985 {
entry:
  %this.addr = alloca %"class.xercesc_2_7::InvalidDatatypeFacetException"*, align 8
  %srcFile.addr = alloca i8*, align 8
  %srcLine.addr = alloca i32, align 4
  %toThrow.addr = alloca i32, align 4
  %memoryManager.addr = alloca %"class.xercesc_2_7::MemoryManager"*, align 8
  %exn.slot = alloca i8*
  %ehselector.slot = alloca i32
  store %"class.xercesc_2_7::InvalidDatatypeFacetException"* %this, %"class.xercesc_2_7::InvalidDatatypeFacetException"** %this.addr, align 8
  call void @llvm.dbg.declare(metadata %"class.xercesc_2_7::InvalidDatatypeFacetException"** %this.addr, metadata !2986, metadata !DIExpression()), !dbg !2987
  store i8* %srcFile, i8** %srcFile.addr, align 8
  call void @llvm.dbg.declare(metadata i8** %srcFile.addr, metadata !2988, metadata !DIExpression()), !dbg !2989
  store i32 %srcLine, i32* %srcLine.addr, align 4
  call void @llvm.dbg.declare(metadata i32* %srcLine.addr, metadata !2990, metadata !DIExpression()), !dbg !2989
  store i32 %toThrow, i32* %toThrow.addr, align 4
  call void @llvm.dbg.declare(metadata i32* %toThrow.addr, metadata !2991, metadata !DIExpression()), !dbg !2989
  store %"class.xercesc_2_7::MemoryManager"* %memoryManager, %"class.xercesc_2_7::MemoryManager"** %memoryManager.addr, align 8
  call void @llvm.dbg.declare(metadata %"class.xercesc_2_7::MemoryManager"** %memoryManager.addr, metadata !2992, metadata !DIExpression()), !dbg !2989
  %this1 = load %"class.xercesc_2_7::InvalidDatatypeFacetException"*, %"class.xercesc_2_7::InvalidDatatypeFacetException"** %this.addr, align 8
  %0 = bitcast %"class.xercesc_2_7::InvalidDatatypeFacetException"* %this1 to %"class.xercesc_2_7::XMLException"*, !dbg !2989
  %1 = load i8*, i8** %srcFile.addr, align 8, !dbg !2989
  %2 = load i32, i32* %srcLine.addr, align 4, !dbg !2989
  %3 = load %"class.xercesc_2_7::MemoryManager"*, %"class.xercesc_2_7::MemoryManager"** %memoryManager.addr, align 8, !dbg !2989
  call void @_ZN11xercesc_2_712XMLExceptionC2EPKcjPNS_13MemoryManagerE(%"class.xercesc_2_7::XMLException"* %0, i8* %1, i32 %2, %"class.xercesc_2_7::MemoryManager"* %3), !dbg !2989
  %4 = bitcast %"class.xercesc_2_7::InvalidDatatypeFacetException"* %this1 to i32 (...)***, !dbg !2989
  store i32 (...)** bitcast (i8** getelementptr inbounds ({ [6 x i8*] }, { [6 x i8*] }* @_ZTVN11xercesc_2_729InvalidDatatypeFacetExceptionE, i32 0, inrange i32 0, i32 2) to i32 (...)**), i32 (...)*** %4, align 8, !dbg !2989
  %5 = bitcast %"class.xercesc_2_7::InvalidDatatypeFacetException"* %this1 to %"class.xercesc_2_7::XMLException"*, !dbg !2993
  %6 = load i32, i32* %toThrow.addr, align 4, !dbg !2993
  invoke void @_ZN11xercesc_2_712XMLException14loadExceptTextENS_10XMLExcepts5CodesE(%"class.xercesc_2_7::XMLException"* %5, i32 %6)
          to label %invoke.cont unwind label %lpad, !dbg !2993

invoke.cont:                                      ; preds = %entry
  ret void, !dbg !2989

lpad:                                             ; preds = %entry
  %7 = landingpad { i8*, i32 }
          cleanup, !dbg !2993
  %8 = extractvalue { i8*, i32 } %7, 0, !dbg !2993
  store i8* %8, i8** %exn.slot, align 8, !dbg !2993
  %9 = extractvalue { i8*, i32 } %7, 1, !dbg !2993
  store i32 %9, i32* %ehselector.slot, align 4, !dbg !2993
  %10 = bitcast %"class.xercesc_2_7::InvalidDatatypeFacetException"* %this1 to %"class.xercesc_2_7::XMLException"*, !dbg !2993
  call void @_ZN11xercesc_2_712XMLExceptionD2Ev(%"class.xercesc_2_7::XMLException"* %10) #10, !dbg !2993
  br label %eh.resume, !dbg !2993

eh.resume:                                        ; preds = %lpad
  %exn = load i8*, i8** %exn.slot, align 8, !dbg !2993
  %sel = load i32, i32* %ehselector.slot, align 4, !dbg !2993
  %lpad.val = insertvalue { i8*, i32 } undef, i8* %exn, 0, !dbg !2993
  %lpad.val2 = insertvalue { i8*, i32 } %lpad.val, i32 %sel, 1, !dbg !2993
  resume { i8*, i32 } %lpad.val2, !dbg !2993
}

; Function Attrs: noinline nounwind uwtable
define linkonce_odr dso_local void @_ZN11xercesc_2_717DatatypeValidator8setFixedEi(%"class.xercesc_2_7::DatatypeValidator"* %this, i32 %fixed) #1 comdat align 2 !dbg !2995 {
entry:
  %this.addr = alloca %"class.xercesc_2_7::DatatypeValidator"*, align 8
  %fixed.addr = alloca i32, align 4
  store %"class.xercesc_2_7::DatatypeValidator"* %this, %"class.xercesc_2_7::DatatypeValidator"** %this.addr, align 8
  call void @llvm.dbg.declare(metadata %"class.xercesc_2_7::DatatypeValidator"** %this.addr, metadata !2997, metadata !DIExpression()), !dbg !2998
  store i32 %fixed, i32* %fixed.addr, align 4
  call void @llvm.dbg.declare(metadata i32* %fixed.addr, metadata !2999, metadata !DIExpression()), !dbg !3000
  %this1 = load %"class.xercesc_2_7::DatatypeValidator"*, %"class.xercesc_2_7::DatatypeValidator"** %this.addr, align 8
  %0 = load i32, i32* %fixed.addr, align 4, !dbg !3001
  %fFixed = getelementptr inbounds %"class.xercesc_2_7::DatatypeValidator", %"class.xercesc_2_7::DatatypeValidator"* %this1, i32 0, i32 8, !dbg !3002
  %1 = load i32, i32* %fFixed, align 8, !dbg !3003
  %or = or i32 %1, %0, !dbg !3003
  store i32 %or, i32* %fFixed, align 8, !dbg !3003
  ret void, !dbg !3004
}

; Function Attrs: nounwind
declare dso_local void @_ZN11xercesc_2_712KVStringPairD1Ev(%"class.xercesc_2_7::KVStringPair"*) unnamed_addr #4

; Function Attrs: noinline nounwind uwtable
define linkonce_odr dso_local void @_ZN11xercesc_2_724RefHashTableOfEnumeratorINS_12KVStringPairEED2Ev(%"class.xercesc_2_7::RefHashTableOfEnumerator"* %this) unnamed_addr #1 comdat align 2 !dbg !3005 {
entry:
  %this.addr = alloca %"class.xercesc_2_7::RefHashTableOfEnumerator"*, align 8
  store %"class.xercesc_2_7::RefHashTableOfEnumerator"* %this, %"class.xercesc_2_7::RefHashTableOfEnumerator"** %this.addr, align 8
  call void @llvm.dbg.declare(metadata %"class.xercesc_2_7::RefHashTableOfEnumerator"** %this.addr, metadata !3006, metadata !DIExpression()), !dbg !3007
  %this1 = load %"class.xercesc_2_7::RefHashTableOfEnumerator"*, %"class.xercesc_2_7::RefHashTableOfEnumerator"** %this.addr, align 8
  %0 = bitcast %"class.xercesc_2_7::RefHashTableOfEnumerator"* %this1 to i32 (...)***, !dbg !3008
  store i32 (...)** bitcast (i8** getelementptr inbounds ({ [7 x i8*] }, { [7 x i8*] }* @_ZTVN11xercesc_2_724RefHashTableOfEnumeratorINS_12KVStringPairEEE, i32 0, inrange i32 0, i32 2) to i32 (...)**), i32 (...)*** %0, align 8, !dbg !3008
  %fAdopted = getelementptr inbounds %"class.xercesc_2_7::RefHashTableOfEnumerator", %"class.xercesc_2_7::RefHashTableOfEnumerator"* %this1, i32 0, i32 1, !dbg !3009
  %1 = load i8, i8* %fAdopted, align 8, !dbg !3009
  %tobool = trunc i8 %1 to i1, !dbg !3009
  br i1 %tobool, label %if.then, label %if.end, !dbg !3012

if.then:                                          ; preds = %entry
  %fToEnum = getelementptr inbounds %"class.xercesc_2_7::RefHashTableOfEnumerator", %"class.xercesc_2_7::RefHashTableOfEnumerator"* %this1, i32 0, i32 4, !dbg !3013
  %2 = load %"class.xercesc_2_7::RefHashTableOf.0"*, %"class.xercesc_2_7::RefHashTableOf.0"** %fToEnum, align 8, !dbg !3013
  %isnull = icmp eq %"class.xercesc_2_7::RefHashTableOf.0"* %2, null, !dbg !3014
  br i1 %isnull, label %delete.end, label %delete.notnull, !dbg !3014

delete.notnull:                                   ; preds = %if.then
  call void @_ZN11xercesc_2_714RefHashTableOfINS_12KVStringPairEED2Ev(%"class.xercesc_2_7::RefHashTableOf.0"* %2) #10, !dbg !3014
  %3 = bitcast %"class.xercesc_2_7::RefHashTableOf.0"* %2 to i8*, !dbg !3014
  call void @_ZN11xercesc_2_77XMemorydlEPv(i8* %3) #10, !dbg !3014
  br label %delete.end, !dbg !3014

delete.end:                                       ; preds = %delete.notnull, %if.then
  br label %if.end, !dbg !3014

if.end:                                           ; preds = %delete.end, %entry
  %4 = bitcast %"class.xercesc_2_7::RefHashTableOfEnumerator"* %this1 to %"class.xercesc_2_7::XMLEnumerator"*, !dbg !3015
  call void @_ZN11xercesc_2_713XMLEnumeratorINS_12KVStringPairEED2Ev(%"class.xercesc_2_7::XMLEnumerator"* %4) #10, !dbg !3015
  ret void, !dbg !3016
}

; Function Attrs: noinline nounwind uwtable
define linkonce_odr dso_local i32 @_ZNK11xercesc_2_717DatatypeValidator16getFacetsDefinedEv(%"class.xercesc_2_7::DatatypeValidator"* %this) #1 comdat align 2 !dbg !3017 {
entry:
  %this.addr = alloca %"class.xercesc_2_7::DatatypeValidator"*, align 8
  store %"class.xercesc_2_7::DatatypeValidator"* %this, %"class.xercesc_2_7::DatatypeValidator"** %this.addr, align 8
  call void @llvm.dbg.declare(metadata %"class.xercesc_2_7::DatatypeValidator"** %this.addr, metadata !3021, metadata !DIExpression()), !dbg !3022
  %this1 = load %"class.xercesc_2_7::DatatypeValidator"*, %"class.xercesc_2_7::DatatypeValidator"** %this.addr, align 8
  %fFacetsDefined = getelementptr inbounds %"class.xercesc_2_7::DatatypeValidator", %"class.xercesc_2_7::DatatypeValidator"* %this1, i32 0, i32 7, !dbg !3023
  %0 = load i32, i32* %fFacetsDefined, align 4, !dbg !3023
  ret i32 %0, !dbg !3024
}

; Function Attrs: noinline nounwind uwtable
define linkonce_odr dso_local i32 @_ZNK11xercesc_2_723AbstractStringValidator12getMinLengthEv(%"class.xercesc_2_7::AbstractStringValidator"* %this) #1 comdat align 2 !dbg !3025 {
entry:
  %this.addr = alloca %"class.xercesc_2_7::AbstractStringValidator"*, align 8
  store %"class.xercesc_2_7::AbstractStringValidator"* %this, %"class.xercesc_2_7::AbstractStringValidator"** %this.addr, align 8
  call void @llvm.dbg.declare(metadata %"class.xercesc_2_7::AbstractStringValidator"** %this.addr, metadata !3026, metadata !DIExpression()), !dbg !3028
  %this1 = load %"class.xercesc_2_7::AbstractStringValidator"*, %"class.xercesc_2_7::AbstractStringValidator"** %this.addr, align 8
  %fMinLength = getelementptr inbounds %"class.xercesc_2_7::AbstractStringValidator", %"class.xercesc_2_7::AbstractStringValidator"* %this1, i32 0, i32 3, !dbg !3029
  %0 = load i32, i32* %fMinLength, align 8, !dbg !3029
  ret i32 %0, !dbg !3030
}

; Function Attrs: noinline nounwind uwtable
define linkonce_odr dso_local i32 @_ZNK11xercesc_2_723AbstractStringValidator12getMaxLengthEv(%"class.xercesc_2_7::AbstractStringValidator"* %this) #1 comdat align 2 !dbg !3031 {
entry:
  %this.addr = alloca %"class.xercesc_2_7::AbstractStringValidator"*, align 8
  store %"class.xercesc_2_7::AbstractStringValidator"* %this, %"class.xercesc_2_7::AbstractStringValidator"** %this.addr, align 8
  call void @llvm.dbg.declare(metadata %"class.xercesc_2_7::AbstractStringValidator"** %this.addr, metadata !3032, metadata !DIExpression()), !dbg !3033
  %this1 = load %"class.xercesc_2_7::AbstractStringValidator"*, %"class.xercesc_2_7::AbstractStringValidator"** %this.addr, align 8
  %fMaxLength = getelementptr inbounds %"class.xercesc_2_7::AbstractStringValidator", %"class.xercesc_2_7::AbstractStringValidator"* %this1, i32 0, i32 2, !dbg !3034
  %0 = load i32, i32* %fMaxLength, align 4, !dbg !3034
  ret i32 %0, !dbg !3035
}

declare dso_local void @_ZN11xercesc_2_79XMLString9binToTextEiPtjjPNS_13MemoryManagerE(i32, i16*, i32, i32, %"class.xercesc_2_7::MemoryManager"*) #7

; Function Attrs: noinline uwtable
define dso_local void @_ZN11xercesc_2_723AbstractStringValidator16inspectFacetBaseEPNS_13MemoryManagerE(%"class.xercesc_2_7::AbstractStringValidator"* %this, %"class.xercesc_2_7::MemoryManager"* %manager) unnamed_addr #6 align 2 personality i8* bitcast (i32 (...)* @__gxx_personality_v0 to i8*) !dbg !3036 {
entry:
  %this.addr = alloca %"class.xercesc_2_7::AbstractStringValidator"*, align 8
  %manager.addr = alloca %"class.xercesc_2_7::MemoryManager"*, align 8
  %pBaseValidator = alloca %"class.xercesc_2_7::AbstractStringValidator"*, align 8
  %thisFacetsDefined = alloca i32, align 4
  %baseFacetsDefined = alloca i32, align 4
  %thisLength = alloca i32, align 4
  %thisMinLength = alloca i32, align 4
  %thisMaxLength = alloca i32, align 4
  %baseLength = alloca i32, align 4
  %baseMinLength = alloca i32, align 4
  %baseMaxLength = alloca i32, align 4
  %baseFixed = alloca i32, align 4
  %value1 = alloca [65 x i16], align 16
  %value2 = alloca [65 x i16], align 16
  %exn.slot = alloca i8*
  %ehselector.slot = alloca i32
  %value128 = alloca [65 x i16], align 16
  %value229 = alloca [65 x i16], align 16
  %value147 = alloca [65 x i16], align 16
  %value248 = alloca [65 x i16], align 16
  %value162 = alloca [65 x i16], align 16
  %value263 = alloca [65 x i16], align 16
  %value181 = alloca [65 x i16], align 16
  %value282 = alloca [65 x i16], align 16
  %value1100 = alloca [65 x i16], align 16
  %value2101 = alloca [65 x i16], align 16
  %value1122 = alloca [65 x i16], align 16
  %value2123 = alloca [65 x i16], align 16
  %value1134 = alloca [65 x i16], align 16
  %value2135 = alloca [65 x i16], align 16
  %value1154 = alloca [65 x i16], align 16
  %value2155 = alloca [65 x i16], align 16
  %value1176 = alloca [65 x i16], align 16
  %value2177 = alloca [65 x i16], align 16
  %value1189 = alloca [65 x i16], align 16
  %value2190 = alloca [65 x i16], align 16
  %i = alloca i32, align 4
  %enumLength = alloca i32, align 4
  store %"class.xercesc_2_7::AbstractStringValidator"* %this, %"class.xercesc_2_7::AbstractStringValidator"** %this.addr, align 8
  call void @llvm.dbg.declare(metadata %"class.xercesc_2_7::AbstractStringValidator"** %this.addr, metadata !3037, metadata !DIExpression()), !dbg !3038
  store %"class.xercesc_2_7::MemoryManager"* %manager, %"class.xercesc_2_7::MemoryManager"** %manager.addr, align 8
  call void @llvm.dbg.declare(metadata %"class.xercesc_2_7::MemoryManager"** %manager.addr, metadata !3039, metadata !DIExpression()), !dbg !3040
  %this1 = load %"class.xercesc_2_7::AbstractStringValidator"*, %"class.xercesc_2_7::AbstractStringValidator"** %this.addr, align 8
  call void @llvm.dbg.declare(metadata %"class.xercesc_2_7::AbstractStringValidator"** %pBaseValidator, metadata !3041, metadata !DIExpression()), !dbg !3042
  %0 = bitcast %"class.xercesc_2_7::AbstractStringValidator"* %this1 to %"class.xercesc_2_7::DatatypeValidator"*, !dbg !3043
  %call = call %"class.xercesc_2_7::DatatypeValidator"* @_ZNK11xercesc_2_717DatatypeValidator16getBaseValidatorEv(%"class.xercesc_2_7::DatatypeValidator"* %0), !dbg !3043
  %1 = bitcast %"class.xercesc_2_7::DatatypeValidator"* %call to %"class.xercesc_2_7::AbstractStringValidator"*, !dbg !3044
  store %"class.xercesc_2_7::AbstractStringValidator"* %1, %"class.xercesc_2_7::AbstractStringValidator"** %pBaseValidator, align 8, !dbg !3042
  call void @llvm.dbg.declare(metadata i32* %thisFacetsDefined, metadata !3045, metadata !DIExpression()), !dbg !3046
  %2 = bitcast %"class.xercesc_2_7::AbstractStringValidator"* %this1 to %"class.xercesc_2_7::DatatypeValidator"*, !dbg !3047
  %call2 = call i32 @_ZNK11xercesc_2_717DatatypeValidator16getFacetsDefinedEv(%"class.xercesc_2_7::DatatypeValidator"* %2), !dbg !3047
  store i32 %call2, i32* %thisFacetsDefined, align 4, !dbg !3046
  %3 = load i32, i32* %thisFacetsDefined, align 4, !dbg !3048
  %tobool = icmp ne i32 %3, 0, !dbg !3048
  br i1 %tobool, label %lor.lhs.false, label %land.lhs.true, !dbg !3050

land.lhs.true:                                    ; preds = %entry
  %fEnumeration = getelementptr inbounds %"class.xercesc_2_7::AbstractStringValidator", %"class.xercesc_2_7::AbstractStringValidator"* %this1, i32 0, i32 5, !dbg !3051
  %4 = load %"class.xercesc_2_7::RefArrayVectorOf"*, %"class.xercesc_2_7::RefArrayVectorOf"** %fEnumeration, align 8, !dbg !3051
  %tobool3 = icmp ne %"class.xercesc_2_7::RefArrayVectorOf"* %4, null, !dbg !3051
  br i1 %tobool3, label %lor.lhs.false, label %if.then, !dbg !3052

lor.lhs.false:                                    ; preds = %land.lhs.true, %entry
  %5 = load %"class.xercesc_2_7::AbstractStringValidator"*, %"class.xercesc_2_7::AbstractStringValidator"** %pBaseValidator, align 8, !dbg !3053
  %tobool4 = icmp ne %"class.xercesc_2_7::AbstractStringValidator"* %5, null, !dbg !3053
  br i1 %tobool4, label %if.end, label %if.then, !dbg !3054

if.then:                                          ; preds = %lor.lhs.false, %land.lhs.true
  br label %return, !dbg !3055

if.end:                                           ; preds = %lor.lhs.false
  call void @llvm.dbg.declare(metadata i32* %baseFacetsDefined, metadata !3056, metadata !DIExpression()), !dbg !3057
  %6 = load %"class.xercesc_2_7::AbstractStringValidator"*, %"class.xercesc_2_7::AbstractStringValidator"** %pBaseValidator, align 8, !dbg !3058
  %7 = bitcast %"class.xercesc_2_7::AbstractStringValidator"* %6 to %"class.xercesc_2_7::DatatypeValidator"*, !dbg !3059
  %call5 = call i32 @_ZNK11xercesc_2_717DatatypeValidator16getFacetsDefinedEv(%"class.xercesc_2_7::DatatypeValidator"* %7), !dbg !3059
  store i32 %call5, i32* %baseFacetsDefined, align 4, !dbg !3057
  call void @llvm.dbg.declare(metadata i32* %thisLength, metadata !3060, metadata !DIExpression()), !dbg !3061
  %call6 = call i32 @_ZNK11xercesc_2_723AbstractStringValidator9getLengthEv(%"class.xercesc_2_7::AbstractStringValidator"* %this1), !dbg !3062
  store i32 %call6, i32* %thisLength, align 4, !dbg !3061
  call void @llvm.dbg.declare(metadata i32* %thisMinLength, metadata !3063, metadata !DIExpression()), !dbg !3064
  %call7 = call i32 @_ZNK11xercesc_2_723AbstractStringValidator12getMinLengthEv(%"class.xercesc_2_7::AbstractStringValidator"* %this1), !dbg !3065
  store i32 %call7, i32* %thisMinLength, align 4, !dbg !3064
  call void @llvm.dbg.declare(metadata i32* %thisMaxLength, metadata !3066, metadata !DIExpression()), !dbg !3067
  %call8 = call i32 @_ZNK11xercesc_2_723AbstractStringValidator12getMaxLengthEv(%"class.xercesc_2_7::AbstractStringValidator"* %this1), !dbg !3068
  store i32 %call8, i32* %thisMaxLength, align 4, !dbg !3067
  call void @llvm.dbg.declare(metadata i32* %baseLength, metadata !3069, metadata !DIExpression()), !dbg !3070
  %8 = load %"class.xercesc_2_7::AbstractStringValidator"*, %"class.xercesc_2_7::AbstractStringValidator"** %pBaseValidator, align 8, !dbg !3071
  %call9 = call i32 @_ZNK11xercesc_2_723AbstractStringValidator9getLengthEv(%"class.xercesc_2_7::AbstractStringValidator"* %8), !dbg !3072
  store i32 %call9, i32* %baseLength, align 4, !dbg !3070
  call void @llvm.dbg.declare(metadata i32* %baseMinLength, metadata !3073, metadata !DIExpression()), !dbg !3074
  %9 = load %"class.xercesc_2_7::AbstractStringValidator"*, %"class.xercesc_2_7::AbstractStringValidator"** %pBaseValidator, align 8, !dbg !3075
  %call10 = call i32 @_ZNK11xercesc_2_723AbstractStringValidator12getMinLengthEv(%"class.xercesc_2_7::AbstractStringValidator"* %9), !dbg !3076
  store i32 %call10, i32* %baseMinLength, align 4, !dbg !3074
  call void @llvm.dbg.declare(metadata i32* %baseMaxLength, metadata !3077, metadata !DIExpression()), !dbg !3078
  %10 = load %"class.xercesc_2_7::AbstractStringValidator"*, %"class.xercesc_2_7::AbstractStringValidator"** %pBaseValidator, align 8, !dbg !3079
  %call11 = call i32 @_ZNK11xercesc_2_723AbstractStringValidator12getMaxLengthEv(%"class.xercesc_2_7::AbstractStringValidator"* %10), !dbg !3080
  store i32 %call11, i32* %baseMaxLength, align 4, !dbg !3078
  call void @llvm.dbg.declare(metadata i32* %baseFixed, metadata !3081, metadata !DIExpression()), !dbg !3082
  %11 = load %"class.xercesc_2_7::AbstractStringValidator"*, %"class.xercesc_2_7::AbstractStringValidator"** %pBaseValidator, align 8, !dbg !3083
  %12 = bitcast %"class.xercesc_2_7::AbstractStringValidator"* %11 to %"class.xercesc_2_7::DatatypeValidator"*, !dbg !3084
  %call12 = call i32 @_ZNK11xercesc_2_717DatatypeValidator8getFixedEv(%"class.xercesc_2_7::DatatypeValidator"* %12), !dbg !3084
  store i32 %call12, i32* %baseFixed, align 4, !dbg !3082
  %13 = load i32, i32* %thisFacetsDefined, align 4, !dbg !3085
  %and = and i32 %13, 1, !dbg !3087
  %cmp = icmp ne i32 %and, 0, !dbg !3088
  br i1 %cmp, label %if.then13, label %if.end38, !dbg !3089

if.then13:                                        ; preds = %if.end
  %14 = load i32, i32* %baseFacetsDefined, align 4, !dbg !3090
  %and14 = and i32 %14, 4, !dbg !3093
  %cmp15 = icmp ne i32 %and14, 0, !dbg !3094
  br i1 %cmp15, label %land.lhs.true16, label %if.end22, !dbg !3095

land.lhs.true16:                                  ; preds = %if.then13
  %15 = load i32, i32* %thisLength, align 4, !dbg !3096
  %16 = load i32, i32* %baseMaxLength, align 4, !dbg !3097
  %cmp17 = icmp sgt i32 %15, %16, !dbg !3098
  br i1 %cmp17, label %if.then18, label %if.end22, !dbg !3099

if.then18:                                        ; preds = %land.lhs.true16
  call void @llvm.dbg.declare(metadata [65 x i16]* %value1, metadata !3100, metadata !DIExpression()), !dbg !3102
  call void @llvm.dbg.declare(metadata [65 x i16]* %value2, metadata !3103, metadata !DIExpression()), !dbg !3102
  %17 = load i32, i32* %thisLength, align 4, !dbg !3102
  %arraydecay = getelementptr inbounds [65 x i16], [65 x i16]* %value1, i64 0, i64 0, !dbg !3102
  %18 = load %"class.xercesc_2_7::MemoryManager"*, %"class.xercesc_2_7::MemoryManager"** %manager.addr, align 8, !dbg !3102
  call void @_ZN11xercesc_2_79XMLString9binToTextEiPtjjPNS_13MemoryManagerE(i32 %17, i16* %arraydecay, i32 64, i32 10, %"class.xercesc_2_7::MemoryManager"* %18), !dbg !3102
  %19 = load i32, i32* %baseMaxLength, align 4, !dbg !3102
  %arraydecay19 = getelementptr inbounds [65 x i16], [65 x i16]* %value2, i64 0, i64 0, !dbg !3102
  %20 = load %"class.xercesc_2_7::MemoryManager"*, %"class.xercesc_2_7::MemoryManager"** %manager.addr, align 8, !dbg !3102
  call void @_ZN11xercesc_2_79XMLString9binToTextEiPtjjPNS_13MemoryManagerE(i32 %19, i16* %arraydecay19, i32 64, i32 10, %"class.xercesc_2_7::MemoryManager"* %20), !dbg !3102
  %exception = call i8* @__cxa_allocate_exception(i64 48) #10, !dbg !3102
  %21 = bitcast i8* %exception to %"class.xercesc_2_7::InvalidDatatypeFacetException"*, !dbg !3102
  %arraydecay20 = getelementptr inbounds [65 x i16], [65 x i16]* %value1, i64 0, i64 0, !dbg !3102
  %arraydecay21 = getelementptr inbounds [65 x i16], [65 x i16]* %value2, i64 0, i64 0, !dbg !3102
  %22 = load %"class.xercesc_2_7::MemoryManager"*, %"class.xercesc_2_7::MemoryManager"** %manager.addr, align 8, !dbg !3102
  invoke void @_ZN11xercesc_2_729InvalidDatatypeFacetExceptionC2EPKcjNS_10XMLExcepts5CodesEPKtS6_S6_S6_PNS_13MemoryManagerE(%"class.xercesc_2_7::InvalidDatatypeFacetException"* %21, i8* getelementptr inbounds ([28 x i8], [28 x i8]* @.str, i64 0, i64 0), i32 315, i32 178, i16* %arraydecay20, i16* %arraydecay21, i16* null, i16* null, %"class.xercesc_2_7::MemoryManager"* %22)
          to label %invoke.cont unwind label %lpad, !dbg !3102

invoke.cont:                                      ; preds = %if.then18
  call void @__cxa_throw(i8* %exception, i8* bitcast ({ i8*, i8*, i8* }* @_ZTIN11xercesc_2_729InvalidDatatypeFacetExceptionE to i8*), i8* bitcast (void (%"class.xercesc_2_7::InvalidDatatypeFacetException"*)* @_ZN11xercesc_2_729InvalidDatatypeFacetExceptionD2Ev to i8*)) #13, !dbg !3102
  unreachable, !dbg !3102

lpad:                                             ; preds = %if.then18
  %23 = landingpad { i8*, i32 }
          cleanup, !dbg !3104
  %24 = extractvalue { i8*, i32 } %23, 0, !dbg !3104
  store i8* %24, i8** %exn.slot, align 8, !dbg !3104
  %25 = extractvalue { i8*, i32 } %23, 1, !dbg !3104
  store i32 %25, i32* %ehselector.slot, align 4, !dbg !3104
  call void @__cxa_free_exception(i8* %exception) #10, !dbg !3102
  br label %eh.resume, !dbg !3102

if.end22:                                         ; preds = %land.lhs.true16, %if.then13
  %26 = load i32, i32* %baseFacetsDefined, align 4, !dbg !3105
  %and23 = and i32 %26, 2, !dbg !3107
  %cmp24 = icmp ne i32 %and23, 0, !dbg !3108
  br i1 %cmp24, label %land.lhs.true25, label %if.end37, !dbg !3109

land.lhs.true25:                                  ; preds = %if.end22
  %27 = load i32, i32* %thisLength, align 4, !dbg !3110
  %28 = load i32, i32* %baseMinLength, align 4, !dbg !3111
  %cmp26 = icmp slt i32 %27, %28, !dbg !3112
  br i1 %cmp26, label %if.then27, label %if.end37, !dbg !3113

if.then27:                                        ; preds = %land.lhs.true25
  call void @llvm.dbg.declare(metadata [65 x i16]* %value128, metadata !3114, metadata !DIExpression()), !dbg !3116
  call void @llvm.dbg.declare(metadata [65 x i16]* %value229, metadata !3117, metadata !DIExpression()), !dbg !3116
  %29 = load i32, i32* %thisLength, align 4, !dbg !3116
  %arraydecay30 = getelementptr inbounds [65 x i16], [65 x i16]* %value128, i64 0, i64 0, !dbg !3116
  %30 = load %"class.xercesc_2_7::MemoryManager"*, %"class.xercesc_2_7::MemoryManager"** %manager.addr, align 8, !dbg !3116
  call void @_ZN11xercesc_2_79XMLString9binToTextEiPtjjPNS_13MemoryManagerE(i32 %29, i16* %arraydecay30, i32 64, i32 10, %"class.xercesc_2_7::MemoryManager"* %30), !dbg !3116
  %31 = load i32, i32* %baseMinLength, align 4, !dbg !3116
  %arraydecay31 = getelementptr inbounds [65 x i16], [65 x i16]* %value229, i64 0, i64 0, !dbg !3116
  %32 = load %"class.xercesc_2_7::MemoryManager"*, %"class.xercesc_2_7::MemoryManager"** %manager.addr, align 8, !dbg !3116
  call void @_ZN11xercesc_2_79XMLString9binToTextEiPtjjPNS_13MemoryManagerE(i32 %31, i16* %arraydecay31, i32 64, i32 10, %"class.xercesc_2_7::MemoryManager"* %32), !dbg !3116
  %exception32 = call i8* @__cxa_allocate_exception(i64 48) #10, !dbg !3116
  %33 = bitcast i8* %exception32 to %"class.xercesc_2_7::InvalidDatatypeFacetException"*, !dbg !3116
  %arraydecay33 = getelementptr inbounds [65 x i16], [65 x i16]* %value128, i64 0, i64 0, !dbg !3116
  %arraydecay34 = getelementptr inbounds [65 x i16], [65 x i16]* %value229, i64 0, i64 0, !dbg !3116
  %34 = load %"class.xercesc_2_7::MemoryManager"*, %"class.xercesc_2_7::MemoryManager"** %manager.addr, align 8, !dbg !3116
  invoke void @_ZN11xercesc_2_729InvalidDatatypeFacetExceptionC2EPKcjNS_10XMLExcepts5CodesEPKtS6_S6_S6_PNS_13MemoryManagerE(%"class.xercesc_2_7::InvalidDatatypeFacetException"* %33, i8* getelementptr inbounds ([28 x i8], [28 x i8]* @.str, i64 0, i64 0), i32 324, i32 177, i16* %arraydecay33, i16* %arraydecay34, i16* null, i16* null, %"class.xercesc_2_7::MemoryManager"* %34)
          to label %invoke.cont36 unwind label %lpad35, !dbg !3116

invoke.cont36:                                    ; preds = %if.then27
  call void @__cxa_throw(i8* %exception32, i8* bitcast ({ i8*, i8*, i8* }* @_ZTIN11xercesc_2_729InvalidDatatypeFacetExceptionE to i8*), i8* bitcast (void (%"class.xercesc_2_7::InvalidDatatypeFacetException"*)* @_ZN11xercesc_2_729InvalidDatatypeFacetExceptionD2Ev to i8*)) #13, !dbg !3116
  unreachable, !dbg !3116

lpad35:                                           ; preds = %if.then27
  %35 = landingpad { i8*, i32 }
          cleanup, !dbg !3118
  %36 = extractvalue { i8*, i32 } %35, 0, !dbg !3118
  store i8* %36, i8** %exn.slot, align 8, !dbg !3118
  %37 = extractvalue { i8*, i32 } %35, 1, !dbg !3118
  store i32 %37, i32* %ehselector.slot, align 4, !dbg !3118
  call void @__cxa_free_exception(i8* %exception32) #10, !dbg !3116
  br label %eh.resume, !dbg !3116

if.end37:                                         ; preds = %land.lhs.true25, %if.end22
  br label %if.end38, !dbg !3119

if.end38:                                         ; preds = %if.end37, %if.end
  %38 = load i32, i32* %baseFacetsDefined, align 4, !dbg !3120
  %and39 = and i32 %38, 1, !dbg !3122
  %cmp40 = icmp ne i32 %and39, 0, !dbg !3123
  br i1 %cmp40, label %if.then41, label %if.end72, !dbg !3124

if.then41:                                        ; preds = %if.end38
  %39 = load i32, i32* %thisFacetsDefined, align 4, !dbg !3125
  %and42 = and i32 %39, 4, !dbg !3128
  %cmp43 = icmp ne i32 %and42, 0, !dbg !3129
  br i1 %cmp43, label %land.lhs.true44, label %if.end56, !dbg !3130

land.lhs.true44:                                  ; preds = %if.then41
  %40 = load i32, i32* %baseLength, align 4, !dbg !3131
  %41 = load i32, i32* %thisMaxLength, align 4, !dbg !3132
  %cmp45 = icmp sgt i32 %40, %41, !dbg !3133
  br i1 %cmp45, label %if.then46, label %if.end56, !dbg !3134

if.then46:                                        ; preds = %land.lhs.true44
  call void @llvm.dbg.declare(metadata [65 x i16]* %value147, metadata !3135, metadata !DIExpression()), !dbg !3137
  call void @llvm.dbg.declare(metadata [65 x i16]* %value248, metadata !3138, metadata !DIExpression()), !dbg !3137
  %42 = load i32, i32* %thisMaxLength, align 4, !dbg !3137
  %arraydecay49 = getelementptr inbounds [65 x i16], [65 x i16]* %value147, i64 0, i64 0, !dbg !3137
  %43 = load %"class.xercesc_2_7::MemoryManager"*, %"class.xercesc_2_7::MemoryManager"** %manager.addr, align 8, !dbg !3137
  call void @_ZN11xercesc_2_79XMLString9binToTextEiPtjjPNS_13MemoryManagerE(i32 %42, i16* %arraydecay49, i32 64, i32 10, %"class.xercesc_2_7::MemoryManager"* %43), !dbg !3137
  %44 = load i32, i32* %baseLength, align 4, !dbg !3137
  %arraydecay50 = getelementptr inbounds [65 x i16], [65 x i16]* %value248, i64 0, i64 0, !dbg !3137
  %45 = load %"class.xercesc_2_7::MemoryManager"*, %"class.xercesc_2_7::MemoryManager"** %manager.addr, align 8, !dbg !3137
  call void @_ZN11xercesc_2_79XMLString9binToTextEiPtjjPNS_13MemoryManagerE(i32 %44, i16* %arraydecay50, i32 64, i32 10, %"class.xercesc_2_7::MemoryManager"* %45), !dbg !3137
  %exception51 = call i8* @__cxa_allocate_exception(i64 48) #10, !dbg !3137
  %46 = bitcast i8* %exception51 to %"class.xercesc_2_7::InvalidDatatypeFacetException"*, !dbg !3137
  %arraydecay52 = getelementptr inbounds [65 x i16], [65 x i16]* %value147, i64 0, i64 0, !dbg !3137
  %arraydecay53 = getelementptr inbounds [65 x i16], [65 x i16]* %value248, i64 0, i64 0, !dbg !3137
  %47 = load %"class.xercesc_2_7::MemoryManager"*, %"class.xercesc_2_7::MemoryManager"** %manager.addr, align 8, !dbg !3137
  invoke void @_ZN11xercesc_2_729InvalidDatatypeFacetExceptionC2EPKcjNS_10XMLExcepts5CodesEPKtS6_S6_S6_PNS_13MemoryManagerE(%"class.xercesc_2_7::InvalidDatatypeFacetException"* %46, i8* getelementptr inbounds ([28 x i8], [28 x i8]* @.str, i64 0, i64 0), i32 338, i32 180, i16* %arraydecay52, i16* %arraydecay53, i16* null, i16* null, %"class.xercesc_2_7::MemoryManager"* %47)
          to label %invoke.cont55 unwind label %lpad54, !dbg !3137

invoke.cont55:                                    ; preds = %if.then46
  call void @__cxa_throw(i8* %exception51, i8* bitcast ({ i8*, i8*, i8* }* @_ZTIN11xercesc_2_729InvalidDatatypeFacetExceptionE to i8*), i8* bitcast (void (%"class.xercesc_2_7::InvalidDatatypeFacetException"*)* @_ZN11xercesc_2_729InvalidDatatypeFacetExceptionD2Ev to i8*)) #13, !dbg !3137
  unreachable, !dbg !3137

lpad54:                                           ; preds = %if.then46
  %48 = landingpad { i8*, i32 }
          cleanup, !dbg !3139
  %49 = extractvalue { i8*, i32 } %48, 0, !dbg !3139
  store i8* %49, i8** %exn.slot, align 8, !dbg !3139
  %50 = extractvalue { i8*, i32 } %48, 1, !dbg !3139
  store i32 %50, i32* %ehselector.slot, align 4, !dbg !3139
  call void @__cxa_free_exception(i8* %exception51) #10, !dbg !3137
  br label %eh.resume, !dbg !3137

if.end56:                                         ; preds = %land.lhs.true44, %if.then41
  %51 = load i32, i32* %thisFacetsDefined, align 4, !dbg !3140
  %and57 = and i32 %51, 2, !dbg !3142
  %cmp58 = icmp ne i32 %and57, 0, !dbg !3143
  br i1 %cmp58, label %land.lhs.true59, label %if.end71, !dbg !3144

land.lhs.true59:                                  ; preds = %if.end56
  %52 = load i32, i32* %baseLength, align 4, !dbg !3145
  %53 = load i32, i32* %thisMinLength, align 4, !dbg !3146
  %cmp60 = icmp slt i32 %52, %53, !dbg !3147
  br i1 %cmp60, label %if.then61, label %if.end71, !dbg !3148

if.then61:                                        ; preds = %land.lhs.true59
  call void @llvm.dbg.declare(metadata [65 x i16]* %value162, metadata !3149, metadata !DIExpression()), !dbg !3151
  call void @llvm.dbg.declare(metadata [65 x i16]* %value263, metadata !3152, metadata !DIExpression()), !dbg !3151
  %54 = load i32, i32* %thisMinLength, align 4, !dbg !3151
  %arraydecay64 = getelementptr inbounds [65 x i16], [65 x i16]* %value162, i64 0, i64 0, !dbg !3151
  %55 = load %"class.xercesc_2_7::MemoryManager"*, %"class.xercesc_2_7::MemoryManager"** %manager.addr, align 8, !dbg !3151
  call void @_ZN11xercesc_2_79XMLString9binToTextEiPtjjPNS_13MemoryManagerE(i32 %54, i16* %arraydecay64, i32 64, i32 10, %"class.xercesc_2_7::MemoryManager"* %55), !dbg !3151
  %56 = load i32, i32* %baseLength, align 4, !dbg !3151
  %arraydecay65 = getelementptr inbounds [65 x i16], [65 x i16]* %value263, i64 0, i64 0, !dbg !3151
  %57 = load %"class.xercesc_2_7::MemoryManager"*, %"class.xercesc_2_7::MemoryManager"** %manager.addr, align 8, !dbg !3151
  call void @_ZN11xercesc_2_79XMLString9binToTextEiPtjjPNS_13MemoryManagerE(i32 %56, i16* %arraydecay65, i32 64, i32 10, %"class.xercesc_2_7::MemoryManager"* %57), !dbg !3151
  %exception66 = call i8* @__cxa_allocate_exception(i64 48) #10, !dbg !3151
  %58 = bitcast i8* %exception66 to %"class.xercesc_2_7::InvalidDatatypeFacetException"*, !dbg !3151
  %arraydecay67 = getelementptr inbounds [65 x i16], [65 x i16]* %value162, i64 0, i64 0, !dbg !3151
  %arraydecay68 = getelementptr inbounds [65 x i16], [65 x i16]* %value263, i64 0, i64 0, !dbg !3151
  %59 = load %"class.xercesc_2_7::MemoryManager"*, %"class.xercesc_2_7::MemoryManager"** %manager.addr, align 8, !dbg !3151
  invoke void @_ZN11xercesc_2_729InvalidDatatypeFacetExceptionC2EPKcjNS_10XMLExcepts5CodesEPKtS6_S6_S6_PNS_13MemoryManagerE(%"class.xercesc_2_7::InvalidDatatypeFacetException"* %58, i8* getelementptr inbounds ([28 x i8], [28 x i8]* @.str, i64 0, i64 0), i32 347, i32 179, i16* %arraydecay67, i16* %arraydecay68, i16* null, i16* null, %"class.xercesc_2_7::MemoryManager"* %59)
          to label %invoke.cont70 unwind label %lpad69, !dbg !3151

invoke.cont70:                                    ; preds = %if.then61
  call void @__cxa_throw(i8* %exception66, i8* bitcast ({ i8*, i8*, i8* }* @_ZTIN11xercesc_2_729InvalidDatatypeFacetExceptionE to i8*), i8* bitcast (void (%"class.xercesc_2_7::InvalidDatatypeFacetException"*)* @_ZN11xercesc_2_729InvalidDatatypeFacetExceptionD2Ev to i8*)) #13, !dbg !3151
  unreachable, !dbg !3151

lpad69:                                           ; preds = %if.then61
  %60 = landingpad { i8*, i32 }
          cleanup, !dbg !3153
  %61 = extractvalue { i8*, i32 } %60, 0, !dbg !3153
  store i8* %61, i8** %exn.slot, align 8, !dbg !3153
  %62 = extractvalue { i8*, i32 } %60, 1, !dbg !3153
  store i32 %62, i32* %ehselector.slot, align 4, !dbg !3153
  call void @__cxa_free_exception(i8* %exception66) #10, !dbg !3151
  br label %eh.resume, !dbg !3151

if.end71:                                         ; preds = %land.lhs.true59, %if.end56
  br label %if.end72, !dbg !3154

if.end72:                                         ; preds = %if.end71, %if.end38
  %63 = load i32, i32* %thisFacetsDefined, align 4, !dbg !3155
  %and73 = and i32 %63, 1, !dbg !3157
  %cmp74 = icmp ne i32 %and73, 0, !dbg !3158
  br i1 %cmp74, label %land.lhs.true75, label %if.end91, !dbg !3159

land.lhs.true75:                                  ; preds = %if.end72
  %64 = load i32, i32* %baseFacetsDefined, align 4, !dbg !3160
  %and76 = and i32 %64, 1, !dbg !3161
  %cmp77 = icmp ne i32 %and76, 0, !dbg !3162
  br i1 %cmp77, label %if.then78, label %if.end91, !dbg !3163

if.then78:                                        ; preds = %land.lhs.true75
  %65 = load i32, i32* %thisLength, align 4, !dbg !3164
  %66 = load i32, i32* %baseLength, align 4, !dbg !3167
  %cmp79 = icmp ne i32 %65, %66, !dbg !3168
  br i1 %cmp79, label %if.then80, label %if.end90, !dbg !3169

if.then80:                                        ; preds = %if.then78
  call void @llvm.dbg.declare(metadata [65 x i16]* %value181, metadata !3170, metadata !DIExpression()), !dbg !3172
  call void @llvm.dbg.declare(metadata [65 x i16]* %value282, metadata !3173, metadata !DIExpression()), !dbg !3172
  %67 = load i32, i32* %thisLength, align 4, !dbg !3172
  %arraydecay83 = getelementptr inbounds [65 x i16], [65 x i16]* %value181, i64 0, i64 0, !dbg !3172
  %68 = load %"class.xercesc_2_7::MemoryManager"*, %"class.xercesc_2_7::MemoryManager"** %manager.addr, align 8, !dbg !3172
  call void @_ZN11xercesc_2_79XMLString9binToTextEiPtjjPNS_13MemoryManagerE(i32 %67, i16* %arraydecay83, i32 64, i32 10, %"class.xercesc_2_7::MemoryManager"* %68), !dbg !3172
  %69 = load i32, i32* %baseLength, align 4, !dbg !3172
  %arraydecay84 = getelementptr inbounds [65 x i16], [65 x i16]* %value282, i64 0, i64 0, !dbg !3172
  %70 = load %"class.xercesc_2_7::MemoryManager"*, %"class.xercesc_2_7::MemoryManager"** %manager.addr, align 8, !dbg !3172
  call void @_ZN11xercesc_2_79XMLString9binToTextEiPtjjPNS_13MemoryManagerE(i32 %69, i16* %arraydecay84, i32 64, i32 10, %"class.xercesc_2_7::MemoryManager"* %70), !dbg !3172
  %exception85 = call i8* @__cxa_allocate_exception(i64 48) #10, !dbg !3172
  %71 = bitcast i8* %exception85 to %"class.xercesc_2_7::InvalidDatatypeFacetException"*, !dbg !3172
  %arraydecay86 = getelementptr inbounds [65 x i16], [65 x i16]* %value181, i64 0, i64 0, !dbg !3172
  %arraydecay87 = getelementptr inbounds [65 x i16], [65 x i16]* %value282, i64 0, i64 0, !dbg !3172
  %72 = load %"class.xercesc_2_7::MemoryManager"*, %"class.xercesc_2_7::MemoryManager"** %manager.addr, align 8, !dbg !3172
  invoke void @_ZN11xercesc_2_729InvalidDatatypeFacetExceptionC2EPKcjNS_10XMLExcepts5CodesEPKtS6_S6_S6_PNS_13MemoryManagerE(%"class.xercesc_2_7::InvalidDatatypeFacetException"* %71, i8* getelementptr inbounds ([28 x i8], [28 x i8]* @.str, i64 0, i64 0), i32 360, i32 172, i16* %arraydecay86, i16* %arraydecay87, i16* null, i16* null, %"class.xercesc_2_7::MemoryManager"* %72)
          to label %invoke.cont89 unwind label %lpad88, !dbg !3172

invoke.cont89:                                    ; preds = %if.then80
  call void @__cxa_throw(i8* %exception85, i8* bitcast ({ i8*, i8*, i8* }* @_ZTIN11xercesc_2_729InvalidDatatypeFacetExceptionE to i8*), i8* bitcast (void (%"class.xercesc_2_7::InvalidDatatypeFacetException"*)* @_ZN11xercesc_2_729InvalidDatatypeFacetExceptionD2Ev to i8*)) #13, !dbg !3172
  unreachable, !dbg !3172

lpad88:                                           ; preds = %if.then80
  %73 = landingpad { i8*, i32 }
          cleanup, !dbg !3174
  %74 = extractvalue { i8*, i32 } %73, 0, !dbg !3174
  store i8* %74, i8** %exn.slot, align 8, !dbg !3174
  %75 = extractvalue { i8*, i32 } %73, 1, !dbg !3174
  store i32 %75, i32* %ehselector.slot, align 4, !dbg !3174
  call void @__cxa_free_exception(i8* %exception85) #10, !dbg !3172
  br label %eh.resume, !dbg !3172

if.end90:                                         ; preds = %if.then78
  br label %if.end91, !dbg !3175

if.end91:                                         ; preds = %if.end90, %land.lhs.true75, %if.end72
  %76 = load i32, i32* %thisFacetsDefined, align 4, !dbg !3176
  %and92 = and i32 %76, 2, !dbg !3178
  %cmp93 = icmp ne i32 %and92, 0, !dbg !3179
  br i1 %cmp93, label %land.lhs.true94, label %if.end110, !dbg !3180

land.lhs.true94:                                  ; preds = %if.end91
  %77 = load i32, i32* %baseFacetsDefined, align 4, !dbg !3181
  %and95 = and i32 %77, 4, !dbg !3182
  %cmp96 = icmp ne i32 %and95, 0, !dbg !3183
  br i1 %cmp96, label %if.then97, label %if.end110, !dbg !3184

if.then97:                                        ; preds = %land.lhs.true94
  %78 = load i32, i32* %thisMinLength, align 4, !dbg !3185
  %79 = load i32, i32* %baseMaxLength, align 4, !dbg !3188
  %cmp98 = icmp sgt i32 %78, %79, !dbg !3189
  br i1 %cmp98, label %if.then99, label %if.end109, !dbg !3190

if.then99:                                        ; preds = %if.then97
  call void @llvm.dbg.declare(metadata [65 x i16]* %value1100, metadata !3191, metadata !DIExpression()), !dbg !3193
  call void @llvm.dbg.declare(metadata [65 x i16]* %value2101, metadata !3194, metadata !DIExpression()), !dbg !3193
  %80 = load i32, i32* %thisMinLength, align 4, !dbg !3193
  %arraydecay102 = getelementptr inbounds [65 x i16], [65 x i16]* %value1100, i64 0, i64 0, !dbg !3193
  %81 = load %"class.xercesc_2_7::MemoryManager"*, %"class.xercesc_2_7::MemoryManager"** %manager.addr, align 8, !dbg !3193
  call void @_ZN11xercesc_2_79XMLString9binToTextEiPtjjPNS_13MemoryManagerE(i32 %80, i16* %arraydecay102, i32 64, i32 10, %"class.xercesc_2_7::MemoryManager"* %81), !dbg !3193
  %82 = load i32, i32* %baseMaxLength, align 4, !dbg !3193
  %arraydecay103 = getelementptr inbounds [65 x i16], [65 x i16]* %value2101, i64 0, i64 0, !dbg !3193
  %83 = load %"class.xercesc_2_7::MemoryManager"*, %"class.xercesc_2_7::MemoryManager"** %manager.addr, align 8, !dbg !3193
  call void @_ZN11xercesc_2_79XMLString9binToTextEiPtjjPNS_13MemoryManagerE(i32 %82, i16* %arraydecay103, i32 64, i32 10, %"class.xercesc_2_7::MemoryManager"* %83), !dbg !3193
  %exception104 = call i8* @__cxa_allocate_exception(i64 48) #10, !dbg !3193
  %84 = bitcast i8* %exception104 to %"class.xercesc_2_7::InvalidDatatypeFacetException"*, !dbg !3193
  %arraydecay105 = getelementptr inbounds [65 x i16], [65 x i16]* %value1100, i64 0, i64 0, !dbg !3193
  %arraydecay106 = getelementptr inbounds [65 x i16], [65 x i16]* %value2101, i64 0, i64 0, !dbg !3193
  %85 = load %"class.xercesc_2_7::MemoryManager"*, %"class.xercesc_2_7::MemoryManager"** %manager.addr, align 8, !dbg !3193
  invoke void @_ZN11xercesc_2_729InvalidDatatypeFacetExceptionC2EPKcjNS_10XMLExcepts5CodesEPKtS6_S6_S6_PNS_13MemoryManagerE(%"class.xercesc_2_7::InvalidDatatypeFacetException"* %84, i8* getelementptr inbounds ([28 x i8], [28 x i8]* @.str, i64 0, i64 0), i32 379, i32 174, i16* %arraydecay105, i16* %arraydecay106, i16* null, i16* null, %"class.xercesc_2_7::MemoryManager"* %85)
          to label %invoke.cont108 unwind label %lpad107, !dbg !3193

invoke.cont108:                                   ; preds = %if.then99
  call void @__cxa_throw(i8* %exception104, i8* bitcast ({ i8*, i8*, i8* }* @_ZTIN11xercesc_2_729InvalidDatatypeFacetExceptionE to i8*), i8* bitcast (void (%"class.xercesc_2_7::InvalidDatatypeFacetException"*)* @_ZN11xercesc_2_729InvalidDatatypeFacetExceptionD2Ev to i8*)) #13, !dbg !3193
  unreachable, !dbg !3193

lpad107:                                          ; preds = %if.then99
  %86 = landingpad { i8*, i32 }
          cleanup, !dbg !3195
  %87 = extractvalue { i8*, i32 } %86, 0, !dbg !3195
  store i8* %87, i8** %exn.slot, align 8, !dbg !3195
  %88 = extractvalue { i8*, i32 } %86, 1, !dbg !3195
  store i32 %88, i32* %ehselector.slot, align 4, !dbg !3195
  call void @__cxa_free_exception(i8* %exception104) #10, !dbg !3193
  br label %eh.resume, !dbg !3193

if.end109:                                        ; preds = %if.then97
  br label %if.end110, !dbg !3196

if.end110:                                        ; preds = %if.end109, %land.lhs.true94, %if.end91
  %89 = load i32, i32* %thisFacetsDefined, align 4, !dbg !3197
  %and111 = and i32 %89, 2, !dbg !3199
  %cmp112 = icmp ne i32 %and111, 0, !dbg !3200
  br i1 %cmp112, label %land.lhs.true113, label %if.end145, !dbg !3201

land.lhs.true113:                                 ; preds = %if.end110
  %90 = load i32, i32* %baseFacetsDefined, align 4, !dbg !3202
  %and114 = and i32 %90, 2, !dbg !3203
  %cmp115 = icmp ne i32 %and114, 0, !dbg !3204
  br i1 %cmp115, label %if.then116, label %if.end145, !dbg !3205

if.then116:                                       ; preds = %land.lhs.true113
  %91 = load i32, i32* %baseFixed, align 4, !dbg !3206
  %and117 = and i32 %91, 2, !dbg !3209
  %cmp118 = icmp ne i32 %and117, 0, !dbg !3210
  br i1 %cmp118, label %if.then119, label %if.else, !dbg !3211

if.then119:                                       ; preds = %if.then116
  %92 = load i32, i32* %thisMinLength, align 4, !dbg !3212
  %93 = load i32, i32* %baseMinLength, align 4, !dbg !3215
  %cmp120 = icmp ne i32 %92, %93, !dbg !3216
  br i1 %cmp120, label %if.then121, label %if.end131, !dbg !3217

if.then121:                                       ; preds = %if.then119
  call void @llvm.dbg.declare(metadata [65 x i16]* %value1122, metadata !3218, metadata !DIExpression()), !dbg !3220
  call void @llvm.dbg.declare(metadata [65 x i16]* %value2123, metadata !3221, metadata !DIExpression()), !dbg !3220
  %94 = load i32, i32* %thisMinLength, align 4, !dbg !3220
  %arraydecay124 = getelementptr inbounds [65 x i16], [65 x i16]* %value1122, i64 0, i64 0, !dbg !3220
  %95 = load %"class.xercesc_2_7::MemoryManager"*, %"class.xercesc_2_7::MemoryManager"** %manager.addr, align 8, !dbg !3220
  call void @_ZN11xercesc_2_79XMLString9binToTextEiPtjjPNS_13MemoryManagerE(i32 %94, i16* %arraydecay124, i32 64, i32 10, %"class.xercesc_2_7::MemoryManager"* %95), !dbg !3220
  %96 = load i32, i32* %baseMinLength, align 4, !dbg !3220
  %arraydecay125 = getelementptr inbounds [65 x i16], [65 x i16]* %value2123, i64 0, i64 0, !dbg !3220
  %97 = load %"class.xercesc_2_7::MemoryManager"*, %"class.xercesc_2_7::MemoryManager"** %manager.addr, align 8, !dbg !3220
  call void @_ZN11xercesc_2_79XMLString9binToTextEiPtjjPNS_13MemoryManagerE(i32 %96, i16* %arraydecay125, i32 64, i32 10, %"class.xercesc_2_7::MemoryManager"* %97), !dbg !3220
  %exception126 = call i8* @__cxa_allocate_exception(i64 48) #10, !dbg !3220
  %98 = bitcast i8* %exception126 to %"class.xercesc_2_7::InvalidDatatypeFacetException"*, !dbg !3220
  %arraydecay127 = getelementptr inbounds [65 x i16], [65 x i16]* %value1122, i64 0, i64 0, !dbg !3220
  %arraydecay128 = getelementptr inbounds [65 x i16], [65 x i16]* %value2123, i64 0, i64 0, !dbg !3220
  %99 = load %"class.xercesc_2_7::MemoryManager"*, %"class.xercesc_2_7::MemoryManager"** %manager.addr, align 8, !dbg !3220
  invoke void @_ZN11xercesc_2_729InvalidDatatypeFacetExceptionC2EPKcjNS_10XMLExcepts5CodesEPKtS6_S6_S6_PNS_13MemoryManagerE(%"class.xercesc_2_7::InvalidDatatypeFacetException"* %98, i8* getelementptr inbounds ([28 x i8], [28 x i8]* @.str, i64 0, i64 0), i32 394, i32 230, i16* %arraydecay127, i16* %arraydecay128, i16* null, i16* null, %"class.xercesc_2_7::MemoryManager"* %99)
          to label %invoke.cont130 unwind label %lpad129, !dbg !3220

invoke.cont130:                                   ; preds = %if.then121
  call void @__cxa_throw(i8* %exception126, i8* bitcast ({ i8*, i8*, i8* }* @_ZTIN11xercesc_2_729InvalidDatatypeFacetExceptionE to i8*), i8* bitcast (void (%"class.xercesc_2_7::InvalidDatatypeFacetException"*)* @_ZN11xercesc_2_729InvalidDatatypeFacetExceptionD2Ev to i8*)) #13, !dbg !3220
  unreachable, !dbg !3220

lpad129:                                          ; preds = %if.then121
  %100 = landingpad { i8*, i32 }
          cleanup, !dbg !3222
  %101 = extractvalue { i8*, i32 } %100, 0, !dbg !3222
  store i8* %101, i8** %exn.slot, align 8, !dbg !3222
  %102 = extractvalue { i8*, i32 } %100, 1, !dbg !3222
  store i32 %102, i32* %ehselector.slot, align 4, !dbg !3222
  call void @__cxa_free_exception(i8* %exception126) #10, !dbg !3220
  br label %eh.resume, !dbg !3220

if.end131:                                        ; preds = %if.then119
  br label %if.end144, !dbg !3223

if.else:                                          ; preds = %if.then116
  %103 = load i32, i32* %thisMinLength, align 4, !dbg !3224
  %104 = load i32, i32* %baseMinLength, align 4, !dbg !3227
  %cmp132 = icmp slt i32 %103, %104, !dbg !3228
  br i1 %cmp132, label %if.then133, label %if.end143, !dbg !3229

if.then133:                                       ; preds = %if.else
  call void @llvm.dbg.declare(metadata [65 x i16]* %value1134, metadata !3230, metadata !DIExpression()), !dbg !3232
  call void @llvm.dbg.declare(metadata [65 x i16]* %value2135, metadata !3233, metadata !DIExpression()), !dbg !3232
  %105 = load i32, i32* %thisMinLength, align 4, !dbg !3232
  %arraydecay136 = getelementptr inbounds [65 x i16], [65 x i16]* %value1134, i64 0, i64 0, !dbg !3232
  %106 = load %"class.xercesc_2_7::MemoryManager"*, %"class.xercesc_2_7::MemoryManager"** %manager.addr, align 8, !dbg !3232
  call void @_ZN11xercesc_2_79XMLString9binToTextEiPtjjPNS_13MemoryManagerE(i32 %105, i16* %arraydecay136, i32 64, i32 10, %"class.xercesc_2_7::MemoryManager"* %106), !dbg !3232
  %107 = load i32, i32* %baseMinLength, align 4, !dbg !3232
  %arraydecay137 = getelementptr inbounds [65 x i16], [65 x i16]* %value2135, i64 0, i64 0, !dbg !3232
  %108 = load %"class.xercesc_2_7::MemoryManager"*, %"class.xercesc_2_7::MemoryManager"** %manager.addr, align 8, !dbg !3232
  call void @_ZN11xercesc_2_79XMLString9binToTextEiPtjjPNS_13MemoryManagerE(i32 %107, i16* %arraydecay137, i32 64, i32 10, %"class.xercesc_2_7::MemoryManager"* %108), !dbg !3232
  %exception138 = call i8* @__cxa_allocate_exception(i64 48) #10, !dbg !3232
  %109 = bitcast i8* %exception138 to %"class.xercesc_2_7::InvalidDatatypeFacetException"*, !dbg !3232
  %arraydecay139 = getelementptr inbounds [65 x i16], [65 x i16]* %value1134, i64 0, i64 0, !dbg !3232
  %arraydecay140 = getelementptr inbounds [65 x i16], [65 x i16]* %value2135, i64 0, i64 0, !dbg !3232
  %110 = load %"class.xercesc_2_7::MemoryManager"*, %"class.xercesc_2_7::MemoryManager"** %manager.addr, align 8, !dbg !3232
  invoke void @_ZN11xercesc_2_729InvalidDatatypeFacetExceptionC2EPKcjNS_10XMLExcepts5CodesEPKtS6_S6_S6_PNS_13MemoryManagerE(%"class.xercesc_2_7::InvalidDatatypeFacetException"* %109, i8* getelementptr inbounds ([28 x i8], [28 x i8]* @.str, i64 0, i64 0), i32 405, i32 173, i16* %arraydecay139, i16* %arraydecay140, i16* null, i16* null, %"class.xercesc_2_7::MemoryManager"* %110)
          to label %invoke.cont142 unwind label %lpad141, !dbg !3232

invoke.cont142:                                   ; preds = %if.then133
  call void @__cxa_throw(i8* %exception138, i8* bitcast ({ i8*, i8*, i8* }* @_ZTIN11xercesc_2_729InvalidDatatypeFacetExceptionE to i8*), i8* bitcast (void (%"class.xercesc_2_7::InvalidDatatypeFacetException"*)* @_ZN11xercesc_2_729InvalidDatatypeFacetExceptionD2Ev to i8*)) #13, !dbg !3232
  unreachable, !dbg !3232

lpad141:                                          ; preds = %if.then133
  %111 = landingpad { i8*, i32 }
          cleanup, !dbg !3234
  %112 = extractvalue { i8*, i32 } %111, 0, !dbg !3234
  store i8* %112, i8** %exn.slot, align 8, !dbg !3234
  %113 = extractvalue { i8*, i32 } %111, 1, !dbg !3234
  store i32 %113, i32* %ehselector.slot, align 4, !dbg !3234
  call void @__cxa_free_exception(i8* %exception138) #10, !dbg !3232
  br label %eh.resume, !dbg !3232

if.end143:                                        ; preds = %if.else
  br label %if.end144

if.end144:                                        ; preds = %if.end143, %if.end131
  br label %if.end145, !dbg !3235

if.end145:                                        ; preds = %if.end144, %land.lhs.true113, %if.end110
  %114 = load i32, i32* %baseFacetsDefined, align 4, !dbg !3236
  %and146 = and i32 %114, 2, !dbg !3238
  %cmp147 = icmp ne i32 %and146, 0, !dbg !3239
  br i1 %cmp147, label %land.lhs.true148, label %if.end164, !dbg !3240

land.lhs.true148:                                 ; preds = %if.end145
  %115 = load i32, i32* %thisFacetsDefined, align 4, !dbg !3241
  %and149 = and i32 %115, 4, !dbg !3242
  %cmp150 = icmp ne i32 %and149, 0, !dbg !3243
  br i1 %cmp150, label %if.then151, label %if.end164, !dbg !3244

if.then151:                                       ; preds = %land.lhs.true148
  %116 = load i32, i32* %baseMinLength, align 4, !dbg !3245
  %117 = load i32, i32* %thisMaxLength, align 4, !dbg !3248
  %cmp152 = icmp sgt i32 %116, %117, !dbg !3249
  br i1 %cmp152, label %if.then153, label %if.end163, !dbg !3250

if.then153:                                       ; preds = %if.then151
  call void @llvm.dbg.declare(metadata [65 x i16]* %value1154, metadata !3251, metadata !DIExpression()), !dbg !3253
  call void @llvm.dbg.declare(metadata [65 x i16]* %value2155, metadata !3254, metadata !DIExpression()), !dbg !3253
  %118 = load i32, i32* %thisMaxLength, align 4, !dbg !3253
  %arraydecay156 = getelementptr inbounds [65 x i16], [65 x i16]* %value1154, i64 0, i64 0, !dbg !3253
  %119 = load %"class.xercesc_2_7::MemoryManager"*, %"class.xercesc_2_7::MemoryManager"** %manager.addr, align 8, !dbg !3253
  call void @_ZN11xercesc_2_79XMLString9binToTextEiPtjjPNS_13MemoryManagerE(i32 %118, i16* %arraydecay156, i32 64, i32 10, %"class.xercesc_2_7::MemoryManager"* %119), !dbg !3253
  %120 = load i32, i32* %baseMinLength, align 4, !dbg !3253
  %arraydecay157 = getelementptr inbounds [65 x i16], [65 x i16]* %value2155, i64 0, i64 0, !dbg !3253
  %121 = load %"class.xercesc_2_7::MemoryManager"*, %"class.xercesc_2_7::MemoryManager"** %manager.addr, align 8, !dbg !3253
  call void @_ZN11xercesc_2_79XMLString9binToTextEiPtjjPNS_13MemoryManagerE(i32 %120, i16* %arraydecay157, i32 64, i32 10, %"class.xercesc_2_7::MemoryManager"* %121), !dbg !3253
  %exception158 = call i8* @__cxa_allocate_exception(i64 48) #10, !dbg !3253
  %122 = bitcast i8* %exception158 to %"class.xercesc_2_7::InvalidDatatypeFacetException"*, !dbg !3253
  %arraydecay159 = getelementptr inbounds [65 x i16], [65 x i16]* %value1154, i64 0, i64 0, !dbg !3253
  %arraydecay160 = getelementptr inbounds [65 x i16], [65 x i16]* %value2155, i64 0, i64 0, !dbg !3253
  %123 = load %"class.xercesc_2_7::MemoryManager"*, %"class.xercesc_2_7::MemoryManager"** %manager.addr, align 8, !dbg !3253
  invoke void @_ZN11xercesc_2_729InvalidDatatypeFacetExceptionC2EPKcjNS_10XMLExcepts5CodesEPKtS6_S6_S6_PNS_13MemoryManagerE(%"class.xercesc_2_7::InvalidDatatypeFacetException"* %122, i8* getelementptr inbounds ([28 x i8], [28 x i8]* @.str, i64 0, i64 0), i32 419, i32 176, i16* %arraydecay159, i16* %arraydecay160, i16* null, i16* null, %"class.xercesc_2_7::MemoryManager"* %123)
          to label %invoke.cont162 unwind label %lpad161, !dbg !3253

invoke.cont162:                                   ; preds = %if.then153
  call void @__cxa_throw(i8* %exception158, i8* bitcast ({ i8*, i8*, i8* }* @_ZTIN11xercesc_2_729InvalidDatatypeFacetExceptionE to i8*), i8* bitcast (void (%"class.xercesc_2_7::InvalidDatatypeFacetException"*)* @_ZN11xercesc_2_729InvalidDatatypeFacetExceptionD2Ev to i8*)) #13, !dbg !3253
  unreachable, !dbg !3253

lpad161:                                          ; preds = %if.then153
  %124 = landingpad { i8*, i32 }
          cleanup, !dbg !3255
  %125 = extractvalue { i8*, i32 } %124, 0, !dbg !3255
  store i8* %125, i8** %exn.slot, align 8, !dbg !3255
  %126 = extractvalue { i8*, i32 } %124, 1, !dbg !3255
  store i32 %126, i32* %ehselector.slot, align 4, !dbg !3255
  call void @__cxa_free_exception(i8* %exception158) #10, !dbg !3253
  br label %eh.resume, !dbg !3253

if.end163:                                        ; preds = %if.then151
  br label %if.end164, !dbg !3256

if.end164:                                        ; preds = %if.end163, %land.lhs.true148, %if.end145
  %127 = load i32, i32* %thisFacetsDefined, align 4, !dbg !3257
  %and165 = and i32 %127, 4, !dbg !3259
  %cmp166 = icmp ne i32 %and165, 0, !dbg !3260
  br i1 %cmp166, label %land.lhs.true167, label %if.end200, !dbg !3261

land.lhs.true167:                                 ; preds = %if.end164
  %128 = load i32, i32* %baseFacetsDefined, align 4, !dbg !3262
  %and168 = and i32 %128, 4, !dbg !3263
  %cmp169 = icmp ne i32 %and168, 0, !dbg !3264
  br i1 %cmp169, label %if.then170, label %if.end200, !dbg !3265

if.then170:                                       ; preds = %land.lhs.true167
  %129 = load i32, i32* %baseFixed, align 4, !dbg !3266
  %and171 = and i32 %129, 4, !dbg !3269
  %cmp172 = icmp ne i32 %and171, 0, !dbg !3270
  br i1 %cmp172, label %if.then173, label %if.else186, !dbg !3271

if.then173:                                       ; preds = %if.then170
  %130 = load i32, i32* %thisMaxLength, align 4, !dbg !3272
  %131 = load i32, i32* %baseMaxLength, align 4, !dbg !3275
  %cmp174 = icmp ne i32 %130, %131, !dbg !3276
  br i1 %cmp174, label %if.then175, label %if.end185, !dbg !3277

if.then175:                                       ; preds = %if.then173
  call void @llvm.dbg.declare(metadata [65 x i16]* %value1176, metadata !3278, metadata !DIExpression()), !dbg !3280
  call void @llvm.dbg.declare(metadata [65 x i16]* %value2177, metadata !3281, metadata !DIExpression()), !dbg !3280
  %132 = load i32, i32* %thisMaxLength, align 4, !dbg !3280
  %arraydecay178 = getelementptr inbounds [65 x i16], [65 x i16]* %value1176, i64 0, i64 0, !dbg !3280
  %133 = load %"class.xercesc_2_7::MemoryManager"*, %"class.xercesc_2_7::MemoryManager"** %manager.addr, align 8, !dbg !3280
  call void @_ZN11xercesc_2_79XMLString9binToTextEiPtjjPNS_13MemoryManagerE(i32 %132, i16* %arraydecay178, i32 64, i32 10, %"class.xercesc_2_7::MemoryManager"* %133), !dbg !3280
  %134 = load i32, i32* %baseMaxLength, align 4, !dbg !3280
  %arraydecay179 = getelementptr inbounds [65 x i16], [65 x i16]* %value2177, i64 0, i64 0, !dbg !3280
  %135 = load %"class.xercesc_2_7::MemoryManager"*, %"class.xercesc_2_7::MemoryManager"** %manager.addr, align 8, !dbg !3280
  call void @_ZN11xercesc_2_79XMLString9binToTextEiPtjjPNS_13MemoryManagerE(i32 %134, i16* %arraydecay179, i32 64, i32 10, %"class.xercesc_2_7::MemoryManager"* %135), !dbg !3280
  %exception180 = call i8* @__cxa_allocate_exception(i64 48) #10, !dbg !3280
  %136 = bitcast i8* %exception180 to %"class.xercesc_2_7::InvalidDatatypeFacetException"*, !dbg !3280
  %arraydecay181 = getelementptr inbounds [65 x i16], [65 x i16]* %value1176, i64 0, i64 0, !dbg !3280
  %arraydecay182 = getelementptr inbounds [65 x i16], [65 x i16]* %value2177, i64 0, i64 0, !dbg !3280
  %137 = load %"class.xercesc_2_7::MemoryManager"*, %"class.xercesc_2_7::MemoryManager"** %manager.addr, align 8, !dbg !3280
  invoke void @_ZN11xercesc_2_729InvalidDatatypeFacetExceptionC2EPKcjNS_10XMLExcepts5CodesEPKtS6_S6_S6_PNS_13MemoryManagerE(%"class.xercesc_2_7::InvalidDatatypeFacetException"* %136, i8* getelementptr inbounds ([28 x i8], [28 x i8]* @.str, i64 0, i64 0), i32 434, i32 229, i16* %arraydecay181, i16* %arraydecay182, i16* null, i16* null, %"class.xercesc_2_7::MemoryManager"* %137)
          to label %invoke.cont184 unwind label %lpad183, !dbg !3280

invoke.cont184:                                   ; preds = %if.then175
  call void @__cxa_throw(i8* %exception180, i8* bitcast ({ i8*, i8*, i8* }* @_ZTIN11xercesc_2_729InvalidDatatypeFacetExceptionE to i8*), i8* bitcast (void (%"class.xercesc_2_7::InvalidDatatypeFacetException"*)* @_ZN11xercesc_2_729InvalidDatatypeFacetExceptionD2Ev to i8*)) #13, !dbg !3280
  unreachable, !dbg !3280

lpad183:                                          ; preds = %if.then175
  %138 = landingpad { i8*, i32 }
          cleanup, !dbg !3282
  %139 = extractvalue { i8*, i32 } %138, 0, !dbg !3282
  store i8* %139, i8** %exn.slot, align 8, !dbg !3282
  %140 = extractvalue { i8*, i32 } %138, 1, !dbg !3282
  store i32 %140, i32* %ehselector.slot, align 4, !dbg !3282
  call void @__cxa_free_exception(i8* %exception180) #10, !dbg !3280
  br label %eh.resume, !dbg !3280

if.end185:                                        ; preds = %if.then173
  br label %if.end199, !dbg !3283

if.else186:                                       ; preds = %if.then170
  %141 = load i32, i32* %thisMaxLength, align 4, !dbg !3284
  %142 = load i32, i32* %baseMaxLength, align 4, !dbg !3287
  %cmp187 = icmp sgt i32 %141, %142, !dbg !3288
  br i1 %cmp187, label %if.then188, label %if.end198, !dbg !3289

if.then188:                                       ; preds = %if.else186
  call void @llvm.dbg.declare(metadata [65 x i16]* %value1189, metadata !3290, metadata !DIExpression()), !dbg !3292
  call void @llvm.dbg.declare(metadata [65 x i16]* %value2190, metadata !3293, metadata !DIExpression()), !dbg !3292
  %143 = load i32, i32* %thisMaxLength, align 4, !dbg !3292
  %arraydecay191 = getelementptr inbounds [65 x i16], [65 x i16]* %value1189, i64 0, i64 0, !dbg !3292
  %144 = load %"class.xercesc_2_7::MemoryManager"*, %"class.xercesc_2_7::MemoryManager"** %manager.addr, align 8, !dbg !3292
  call void @_ZN11xercesc_2_79XMLString9binToTextEiPtjjPNS_13MemoryManagerE(i32 %143, i16* %arraydecay191, i32 64, i32 10, %"class.xercesc_2_7::MemoryManager"* %144), !dbg !3292
  %145 = load i32, i32* %baseMaxLength, align 4, !dbg !3292
  %arraydecay192 = getelementptr inbounds [65 x i16], [65 x i16]* %value2190, i64 0, i64 0, !dbg !3292
  %146 = load %"class.xercesc_2_7::MemoryManager"*, %"class.xercesc_2_7::MemoryManager"** %manager.addr, align 8, !dbg !3292
  call void @_ZN11xercesc_2_79XMLString9binToTextEiPtjjPNS_13MemoryManagerE(i32 %145, i16* %arraydecay192, i32 64, i32 10, %"class.xercesc_2_7::MemoryManager"* %146), !dbg !3292
  %exception193 = call i8* @__cxa_allocate_exception(i64 48) #10, !dbg !3292
  %147 = bitcast i8* %exception193 to %"class.xercesc_2_7::InvalidDatatypeFacetException"*, !dbg !3292
  %arraydecay194 = getelementptr inbounds [65 x i16], [65 x i16]* %value1189, i64 0, i64 0, !dbg !3292
  %arraydecay195 = getelementptr inbounds [65 x i16], [65 x i16]* %value2190, i64 0, i64 0, !dbg !3292
  %148 = load %"class.xercesc_2_7::MemoryManager"*, %"class.xercesc_2_7::MemoryManager"** %manager.addr, align 8, !dbg !3292
  invoke void @_ZN11xercesc_2_729InvalidDatatypeFacetExceptionC2EPKcjNS_10XMLExcepts5CodesEPKtS6_S6_S6_PNS_13MemoryManagerE(%"class.xercesc_2_7::InvalidDatatypeFacetException"* %147, i8* getelementptr inbounds ([28 x i8], [28 x i8]* @.str, i64 0, i64 0), i32 444, i32 175, i16* %arraydecay194, i16* %arraydecay195, i16* null, i16* null, %"class.xercesc_2_7::MemoryManager"* %148)
          to label %invoke.cont197 unwind label %lpad196, !dbg !3292

invoke.cont197:                                   ; preds = %if.then188
  call void @__cxa_throw(i8* %exception193, i8* bitcast ({ i8*, i8*, i8* }* @_ZTIN11xercesc_2_729InvalidDatatypeFacetExceptionE to i8*), i8* bitcast (void (%"class.xercesc_2_7::InvalidDatatypeFacetException"*)* @_ZN11xercesc_2_729InvalidDatatypeFacetExceptionD2Ev to i8*)) #13, !dbg !3292
  unreachable, !dbg !3292

lpad196:                                          ; preds = %if.then188
  %149 = landingpad { i8*, i32 }
          cleanup, !dbg !3294
  %150 = extractvalue { i8*, i32 } %149, 0, !dbg !3294
  store i8* %150, i8** %exn.slot, align 8, !dbg !3294
  %151 = extractvalue { i8*, i32 } %149, 1, !dbg !3294
  store i32 %151, i32* %ehselector.slot, align 4, !dbg !3294
  call void @__cxa_free_exception(i8* %exception193) #10, !dbg !3292
  br label %eh.resume, !dbg !3292

if.end198:                                        ; preds = %if.else186
  br label %if.end199

if.end199:                                        ; preds = %if.end198, %if.end185
  br label %if.end200, !dbg !3295

if.end200:                                        ; preds = %if.end199, %land.lhs.true167, %if.end164
  %152 = load i32, i32* %thisFacetsDefined, align 4, !dbg !3296
  %and201 = and i32 %152, 16, !dbg !3298
  %cmp202 = icmp ne i32 %and201, 0, !dbg !3299
  br i1 %cmp202, label %land.lhs.true203, label %if.end216, !dbg !3300

land.lhs.true203:                                 ; preds = %if.end200
  %call204 = call %"class.xercesc_2_7::RefArrayVectorOf"* @_ZNK11xercesc_2_723AbstractStringValidator14getEnumerationEv(%"class.xercesc_2_7::AbstractStringValidator"* %this1), !dbg !3301
  %cmp205 = icmp ne %"class.xercesc_2_7::RefArrayVectorOf"* %call204, null, !dbg !3302
  br i1 %cmp205, label %if.then206, label %if.end216, !dbg !3303

if.then206:                                       ; preds = %land.lhs.true203
  call void @llvm.dbg.declare(metadata i32* %i, metadata !3304, metadata !DIExpression()), !dbg !3306
  store i32 0, i32* %i, align 4, !dbg !3306
  call void @llvm.dbg.declare(metadata i32* %enumLength, metadata !3307, metadata !DIExpression()), !dbg !3308
  %call207 = call %"class.xercesc_2_7::RefArrayVectorOf"* @_ZNK11xercesc_2_723AbstractStringValidator14getEnumerationEv(%"class.xercesc_2_7::AbstractStringValidator"* %this1), !dbg !3309
  %153 = bitcast %"class.xercesc_2_7::RefArrayVectorOf"* %call207 to %"class.xercesc_2_7::BaseRefVectorOf.2"*, !dbg !3310
  %call208 = call i32 @_ZNK11xercesc_2_715BaseRefVectorOfItE4sizeEv(%"class.xercesc_2_7::BaseRefVectorOf.2"* %153), !dbg !3310
  store i32 %call208, i32* %enumLength, align 4, !dbg !3308
  br label %for.cond, !dbg !3311

for.cond:                                         ; preds = %for.inc, %if.then206
  %154 = load i32, i32* %i, align 4, !dbg !3312
  %155 = load i32, i32* %enumLength, align 4, !dbg !3315
  %cmp209 = icmp slt i32 %154, %155, !dbg !3316
  br i1 %cmp209, label %for.body, label %for.end, !dbg !3317

for.body:                                         ; preds = %for.cond
  %156 = load %"class.xercesc_2_7::AbstractStringValidator"*, %"class.xercesc_2_7::AbstractStringValidator"** %pBaseValidator, align 8, !dbg !3318
  %call210 = call %"class.xercesc_2_7::RefArrayVectorOf"* @_ZNK11xercesc_2_723AbstractStringValidator14getEnumerationEv(%"class.xercesc_2_7::AbstractStringValidator"* %this1), !dbg !3320
  %157 = bitcast %"class.xercesc_2_7::RefArrayVectorOf"* %call210 to %"class.xercesc_2_7::BaseRefVectorOf.2"*, !dbg !3321
  %158 = load i32, i32* %i, align 4, !dbg !3322
  %call211 = call i16* @_ZN11xercesc_2_715BaseRefVectorOfItE9elementAtEj(%"class.xercesc_2_7::BaseRefVectorOf.2"* %157, i32 %158), !dbg !3321
  %159 = load %"class.xercesc_2_7::MemoryManager"*, %"class.xercesc_2_7::MemoryManager"** %manager.addr, align 8, !dbg !3323
  %160 = bitcast %"class.xercesc_2_7::AbstractStringValidator"* %156 to void (%"class.xercesc_2_7::AbstractStringValidator"*, i16*, %"class.xercesc_2_7::ValidationContext"*, i1, %"class.xercesc_2_7::MemoryManager"*)***, !dbg !3324
  %vtable = load void (%"class.xercesc_2_7::AbstractStringValidator"*, i16*, %"class.xercesc_2_7::ValidationContext"*, i1, %"class.xercesc_2_7::MemoryManager"*)**, void (%"class.xercesc_2_7::AbstractStringValidator"*, i16*, %"class.xercesc_2_7::ValidationContext"*, i1, %"class.xercesc_2_7::MemoryManager"*)*** %160, align 8, !dbg !3324
  %vfn = getelementptr inbounds void (%"class.xercesc_2_7::AbstractStringValidator"*, i16*, %"class.xercesc_2_7::ValidationContext"*, i1, %"class.xercesc_2_7::MemoryManager"*)*, void (%"class.xercesc_2_7::AbstractStringValidator"*, i16*, %"class.xercesc_2_7::ValidationContext"*, i1, %"class.xercesc_2_7::MemoryManager"*)** %vtable, i64 20, !dbg !3324
  %161 = load void (%"class.xercesc_2_7::AbstractStringValidator"*, i16*, %"class.xercesc_2_7::ValidationContext"*, i1, %"class.xercesc_2_7::MemoryManager"*)*, void (%"class.xercesc_2_7::AbstractStringValidator"*, i16*, %"class.xercesc_2_7::ValidationContext"*, i1, %"class.xercesc_2_7::MemoryManager"*)** %vfn, align 8, !dbg !3324
  call void %161(%"class.xercesc_2_7::AbstractStringValidator"* %156, i16* %call211, %"class.xercesc_2_7::ValidationContext"* null, i1 zeroext false, %"class.xercesc_2_7::MemoryManager"* %159), !dbg !3324
  %call212 = call %"class.xercesc_2_7::RefArrayVectorOf"* @_ZNK11xercesc_2_723AbstractStringValidator14getEnumerationEv(%"class.xercesc_2_7::AbstractStringValidator"* %this1), !dbg !3325
  %162 = bitcast %"class.xercesc_2_7::RefArrayVectorOf"* %call212 to %"class.xercesc_2_7::BaseRefVectorOf.2"*, !dbg !3326
  %163 = load i32, i32* %i, align 4, !dbg !3327
  %call213 = call i16* @_ZN11xercesc_2_715BaseRefVectorOfItE9elementAtEj(%"class.xercesc_2_7::BaseRefVectorOf.2"* %162, i32 %163), !dbg !3326
  %164 = load %"class.xercesc_2_7::MemoryManager"*, %"class.xercesc_2_7::MemoryManager"** %manager.addr, align 8, !dbg !3328
