; ModuleID = 'XMLUri.cpp'
source_filename = "XMLUri.cpp"
target datalayout = "e-m:e-p270:32:32-p271:32:32-p272:64:64-i64:64-f80:128-n8:16:32:64-S128"
target triple = "x86_64-unknown-linux-gnu"

%"class.xercesc_2_7::XProtoType" = type { i8*, %"class.xercesc_2_7::XSerializable"* (%"class.xercesc_2_7::MemoryManager"*)* }
%"class.xercesc_2_7::XSerializable" = type { i32 (...)** }
%"class.xercesc_2_7::MemoryManager" = type { i32 (...)** }
%"class.xercesc_2_7::XMLUri" = type { %"class.xercesc_2_7::XSerializable", i32, i16*, i16*, i16*, i16*, i16*, i16*, i16*, i16*, %"class.xercesc_2_7::MemoryManager"* }
%"class.xercesc_2_7::XMLDeleter" = type { i32 (...)** }
%"class.xercesc_2_7::JanitorMemFunCall" = type { %"class.xercesc_2_7::XMLUri"*, { i64, i64 } }
%"class.xercesc_2_7::OutOfMemoryException" = type { i8 }
%"class.xercesc_2_7::XMemory" = type { i8 }
%"class.xercesc_2_7::ArrayJanitor" = type { i16*, %"class.xercesc_2_7::MemoryManager"* }
%"class.xercesc_2_7::MalformedURLException" = type { %"class.xercesc_2_7::XMLException" }
%"class.xercesc_2_7::XMLException" = type { i32 (...)**, i32, i8*, i32, i16*, %"class.xercesc_2_7::MemoryManager"* }
%"class.xercesc_2_7::XMLBuffer" = type { i32, i32, i32, i8, %"class.xercesc_2_7::MemoryManager"*, %"class.xercesc_2_7::XMLBufferFullHandler"*, i16* }
%"class.xercesc_2_7::XMLBufferFullHandler" = type { i32 (...)** }
%"class.xercesc_2_7::XSerializeEngine" = type <{ i16, i16, [4 x i8], %"class.xercesc_2_7::XMLGrammarPool"*, %"class.xercesc_2_7::BinInputStream"*, %"class.xercesc_2_7::BinOutputStream"*, i64, i64, i8*, i8*, i8*, i8*, %"class.xercesc_2_7::RefHashTableOf"*, %"class.xercesc_2_7::ValueVectorOf"*, i32, [4 x i8] }>
%"class.xercesc_2_7::XMLGrammarPool" = type opaque
%"class.xercesc_2_7::BinInputStream" = type opaque
%"class.xercesc_2_7::BinOutputStream" = type opaque
%"class.xercesc_2_7::RefHashTableOf" = type opaque
%"class.xercesc_2_7::ValueVectorOf" = type opaque

$_ZN11xercesc_2_710XMLDeleterD0Ev = comdat any

$_ZN11xercesc_2_710XMLDeleterD2Ev = comdat any

$_ZN11xercesc_2_713XSerializableC2Ev = comdat any

$_ZN11xercesc_2_77XMemoryC2Ev = comdat any

$_ZN11xercesc_2_717JanitorMemFunCallINS_6XMLUriEEC2EPS1_MS1_FvvE = comdat any

$_ZN11xercesc_2_717JanitorMemFunCallINS_6XMLUriEE7releaseEv = comdat any

$__clang_call_terminate = comdat any

$_ZN11xercesc_2_717JanitorMemFunCallINS_6XMLUriEED2Ev = comdat any

$_ZN11xercesc_2_713XSerializableC2ERKS0_ = comdat any

$_ZN11xercesc_2_79XMLString9replicateEPKtPNS_13MemoryManagerE = comdat any

$_ZN11xercesc_2_712ArrayJanitorItEC2EPtPNS_13MemoryManagerE = comdat any

$_ZN11xercesc_2_79XMLString9stringLenEPKt = comdat any

$_ZN11xercesc_2_721MalformedURLExceptionC2EPKcjNS_10XMLExcepts5CodesEPKtS6_S6_S6_PNS_13MemoryManagerE = comdat any

$_ZN11xercesc_2_721MalformedURLExceptionD2Ev = comdat any

$_ZN11xercesc_2_721MalformedURLExceptionC2EPKcjNS_10XMLExcepts5CodesEPNS_13MemoryManagerE = comdat any

$_ZN11xercesc_2_79XMLString10startsWithEPKtS2_ = comdat any

$_ZNK11xercesc_2_76XMLUri9getSchemeEv = comdat any

$_ZNK11xercesc_2_76XMLUri11getUserInfoEv = comdat any

$_ZNK11xercesc_2_76XMLUri7getHostEv = comdat any

$_ZNK11xercesc_2_76XMLUri7getPortEv = comdat any

$_ZNK11xercesc_2_76XMLUri20getRegBasedAuthorityEv = comdat any

$_ZNK11xercesc_2_76XMLUri7getPathEv = comdat any

$_ZNK11xercesc_2_76XMLUri14getQueryStringEv = comdat any

$_ZN11xercesc_2_79XMLString11lastIndexOfEPKtt = comdat any

$_ZN11xercesc_2_79XMLString8endsWithEPKtS2_ = comdat any

$_ZN11xercesc_2_712ArrayJanitorItED2Ev = comdat any

$_ZN11xercesc_2_79XMLString9moveCharsEPtPKtj = comdat any

$_ZN11xercesc_2_76XMLUri21isUnreservedCharacterEt = comdat any

$_ZN11xercesc_2_76XMLUri15isPathCharacterEt = comdat any

$_ZN11xercesc_2_76XMLUri31isReservedOrUnreservedCharacterEt = comdat any

$_ZNK11xercesc_2_76XMLUri11getFragmentEv = comdat any

$_ZN11xercesc_2_710XMLChar1_012isWhitespaceEt = comdat any

$_ZN11xercesc_2_76XMLUri19isReservedCharacterEt = comdat any

$_ZN11xercesc_2_79XMLBuffer5resetEv = comdat any

$_ZN11xercesc_2_79XMLBuffer6appendEt = comdat any

$_ZNK11xercesc_2_716XSerializeEngine9isStoringEv = comdat any

$_ZN11xercesc_2_716XSerializeEngine10readStringERPt = comdat any

$_ZN11xercesc_2_713XSerializableD2Ev = comdat any

$_ZN11xercesc_2_713XSerializableD0Ev = comdat any

$_ZN11xercesc_2_721MalformedURLExceptionD0Ev = comdat any

$_ZNK11xercesc_2_721MalformedURLException7getTypeEv = comdat any

$_ZNK11xercesc_2_721MalformedURLException9duplicateEv = comdat any

$_ZN11xercesc_2_721MalformedURLExceptionC2ERKS0_ = comdat any

$_ZN11xercesc_2_712ArrayJanitorItE5resetEPt = comdat any

$_ZTSN11xercesc_2_720OutOfMemoryExceptionE = comdat any

$_ZTSN11xercesc_2_77XMemoryE = comdat any

$_ZTIN11xercesc_2_77XMemoryE = comdat any

$_ZTIN11xercesc_2_720OutOfMemoryExceptionE = comdat any

$_ZTSN11xercesc_2_721MalformedURLExceptionE = comdat any

$_ZTIN11xercesc_2_721MalformedURLExceptionE = comdat any

$_ZTVN11xercesc_2_710XMLDeleterE = comdat any

$_ZTSN11xercesc_2_710XMLDeleterE = comdat any

$_ZTIN11xercesc_2_710XMLDeleterE = comdat any

$_ZTSN11xercesc_2_713XSerializableE = comdat any

$_ZTIN11xercesc_2_713XSerializableE = comdat any

$_ZTVN11xercesc_2_713XSerializableE = comdat any

$_ZTVN11xercesc_2_721MalformedURLExceptionE = comdat any

@_ZN11xercesc_2_76XMLUri19RESERVED_CHARACTERSE = dso_local constant [13 x i16] [i16 59, i16 47, i16 63, i16 58, i16 64, i16 38, i16 61, i16 43, i16 36, i16 44, i16 91, i16 93, i16 0], align 16, !dbg !0
@_ZN11xercesc_2_76XMLUri15MARK_CHARACTERSE = dso_local constant [10 x i16] [i16 45, i16 95, i16 46, i16 33, i16 126, i16 42, i16 39, i16 40, i16 41, i16 0], align 16, !dbg !1015
@_ZN11xercesc_2_76XMLUri27MARK_OR_RESERVED_CHARACTERSE = dso_local constant [22 x i16] [i16 45, i16 95, i16 46, i16 33, i16 126, i16 42, i16 39, i16 40, i16 41, i16 59, i16 47, i16 63, i16 58, i16 64, i16 38, i16 61, i16 43, i16 36, i16 44, i16 91, i16 93, i16 0], align 16, !dbg !1020
@_ZN11xercesc_2_76XMLUri17SCHEME_CHARACTERSE = dso_local constant [4 x i16] [i16 43, i16 45, i16 46, i16 0], align 2, !dbg !1025
@_ZN11xercesc_2_76XMLUri19USERINFO_CHARACTERSE = dso_local constant [8 x i16] [i16 59, i16 58, i16 38, i16 61, i16 43, i16 36, i16 46, i16 0], align 16, !dbg !1030
@_ZN11xercesc_2_76XMLUri19REG_NAME_CHARACTERSE = dso_local constant [9 x i16] [i16 36, i16 44, i16 59, i16 58, i16 64, i16 38, i16 61, i16 43, i16 0], align 16, !dbg !1035
@_ZN11xercesc_2_76XMLUri15PATH_CHARACTERSE = dso_local constant [10 x i16] [i16 59, i16 47, i16 58, i16 64, i16 38, i16 61, i16 43, i16 36, i16 44, i16 0], align 16, !dbg !1040
@_ZTVN11xercesc_2_76XMLUriE = dso_local unnamed_addr constant { [7 x i8*] } { [7 x i8*] [i8* null, i8* bitcast ({ i8*, i8*, i32, i32, i8*, i64, i8*, i64 }* @_ZTIN11xercesc_2_76XMLUriE to i8*), i8* bitcast (void (%"class.xercesc_2_7::XMLUri"*)* @_ZN11xercesc_2_76XMLUriD1Ev to i8*), i8* bitcast (void (%"class.xercesc_2_7::XMLUri"*)* @_ZN11xercesc_2_76XMLUriD0Ev to i8*), i8* bitcast (i1 (%"class.xercesc_2_7::XMLUri"*)* @_ZNK11xercesc_2_76XMLUri14isSerializableEv to i8*), i8* bitcast (void (%"class.xercesc_2_7::XMLUri"*, %"class.xercesc_2_7::XSerializeEngine"*)* @_ZN11xercesc_2_76XMLUri9serializeERNS_16XSerializeEngineE to i8*), i8* bitcast (%"class.xercesc_2_7::XProtoType"* (%"class.xercesc_2_7::XMLUri"*)* @_ZNK11xercesc_2_76XMLUri12getProtoTypeEv to i8*)] }, align 8
@_ZTVN10__cxxabiv120__si_class_type_infoE = external dso_local global i8*
@_ZTSN11xercesc_2_720OutOfMemoryExceptionE = linkonce_odr dso_local constant [38 x i8] c"N11xercesc_2_720OutOfMemoryExceptionE\00", comdat, align 1
@_ZTVN10__cxxabiv117__class_type_infoE = external dso_local global i8*
@_ZTSN11xercesc_2_77XMemoryE = linkonce_odr dso_local constant [24 x i8] c"N11xercesc_2_77XMemoryE\00", comdat, align 1
@_ZTIN11xercesc_2_77XMemoryE = linkonce_odr dso_local constant { i8*, i8* } { i8* bitcast (i8** getelementptr inbounds (i8*, i8** @_ZTVN10__cxxabiv117__class_type_infoE, i64 2) to i8*), i8* getelementptr inbounds ([24 x i8], [24 x i8]* @_ZTSN11xercesc_2_77XMemoryE, i32 0, i32 0) }, comdat, align 8
@_ZTIN11xercesc_2_720OutOfMemoryExceptionE = linkonce_odr dso_local constant { i8*, i8*, i8* } { i8* bitcast (i8** getelementptr inbounds (i8*, i8** @_ZTVN10__cxxabiv120__si_class_type_infoE, i64 2) to i8*), i8* getelementptr inbounds ([38 x i8], [38 x i8]* @_ZTSN11xercesc_2_720OutOfMemoryExceptionE, i32 0, i32 0), i8* bitcast ({ i8*, i8* }* @_ZTIN11xercesc_2_77XMemoryE to i8*) }, comdat, align 8
@.str = private unnamed_addr constant [11 x i8] c"XMLUri.cpp\00", align 1
@_ZN11xercesc_2_7L13errMsg_PARAMSE = internal constant [11 x i16] [i16 80, i16 97, i16 114, i16 97, i16 109, i16 101, i16 116, i16 101, i16 114, i16 115, i16 0], align 16, !dbg !1042
@_ZTSN11xercesc_2_721MalformedURLExceptionE = linkonce_odr dso_local constant [39 x i8] c"N11xercesc_2_721MalformedURLExceptionE\00", comdat, align 1
@_ZTIN11xercesc_2_712XMLExceptionE = external dso_local constant i8*
@_ZTIN11xercesc_2_721MalformedURLExceptionE = linkonce_odr dso_local constant { i8*, i8*, i8* } { i8* bitcast (i8** getelementptr inbounds (i8*, i8** @_ZTVN10__cxxabiv120__si_class_type_infoE, i64 2) to i8*), i8* getelementptr inbounds ([39 x i8], [39 x i8]* @_ZTSN11xercesc_2_721MalformedURLExceptionE, i32 0, i32 0), i8* bitcast (i8** @_ZTIN11xercesc_2_712XMLExceptionE to i8*) }, comdat, align 8
@_ZN11xercesc_2_7L11errMsg_PATHE = internal constant [5 x i16] [i16 80, i16 97, i16 116, i16 104, i16 0], align 2, !dbg !1047
@_ZN11xercesc_2_7L12DOUBLE_SLASHE = internal constant [3 x i16] [i16 47, i16 47, i16 0], align 2, !dbg !1052
@_ZN11xercesc_2_76XMLUni15fgZeroLenStringE = external dso_local constant [0 x i16], align 2
@_ZN11xercesc_2_7L12SINGLE_SLASHE = internal constant [2 x i16] [i16 47, i16 0], align 2, !dbg !1057
@_ZN11xercesc_2_7L15SLASH_DOT_SLASHE = internal constant [4 x i16] [i16 47, i16 46, i16 47, i16 0], align 2, !dbg !1062
@_ZN11xercesc_2_7L9SLASH_DOTE = internal constant [3 x i16] [i16 47, i16 46, i16 0], align 2, !dbg !1064
@_ZN11xercesc_2_7L18SLASH_DOTDOT_SLASHE = internal constant [5 x i16] [i16 47, i16 46, i16 46, i16 47, i16 0], align 2, !dbg !1066
@_ZN11xercesc_2_7L12SLASH_DOTDOTE = internal constant [4 x i16] [i16 47, i16 46, i16 46, i16 0], align 2, !dbg !1068
@_ZN11xercesc_2_7L17SCHEME_SEPARATORSE = internal constant [5 x i16] [i16 58, i16 47, i16 63, i16 35, i16 0], align 2, !dbg !1070
@_ZN11xercesc_2_7L12errMsg_QUERYE = internal constant [6 x i16] [i16 81, i16 117, i16 101, i16 114, i16 121, i16 0], align 2, !dbg !1072
@_ZN11xercesc_2_7L15errMsg_FRAGMENTE = internal constant [9 x i16] [i16 70, i16 114, i16 97, i16 103, i16 109, i16 101, i16 110, i16 116, i16 0], align 16, !dbg !1077
@_ZN11xercesc_2_7L13errMsg_SCHEMEE = internal constant [7 x i16] [i16 83, i16 99, i16 104, i16 101, i16 109, i16 101, i16 0], align 2, !dbg !1079
@_ZN11xercesc_2_7L15errMsg_USERINFOE = internal constant [9 x i16] [i16 85, i16 115, i16 101, i16 114, i16 105, i16 110, i16 102, i16 111, i16 0], align 16, !dbg !1084
@_ZN11xercesc_2_7L11errMsg_HOSTE = internal constant [5 x i16] [i16 72, i16 111, i16 115, i16 116, i16 0], align 2, !dbg !1086
@_ZN11xercesc_2_7L11errMsg_PORTE = internal constant [5 x i16] [i16 80, i16 111, i16 114, i16 116, i16 0], align 2, !dbg !1088
@_ZN11xercesc_2_7L14errMsg_REGNAMEE = internal constant [8 x i16] [i16 82, i16 101, i16 103, i16 78, i16 97, i16 109, i16 101, i16 0], align 16, !dbg !1090
@.str.1 = private unnamed_addr constant [7 x i8] c"XMLUri\00", align 1
@_ZN11xercesc_2_76XMLUri11classXMLUriE = dso_local global %"class.xercesc_2_7::XProtoType" { i8* getelementptr inbounds ([7 x i8], [7 x i8]* @.str.1, i32 0, i32 0), %"class.xercesc_2_7::XSerializable"* (%"class.xercesc_2_7::MemoryManager"*)* @_ZN11xercesc_2_76XMLUri12createObjectEPNS_13MemoryManagerE }, align 8, !dbg !1092
@_ZTVN11xercesc_2_710XMLDeleterE = linkonce_odr dso_local unnamed_addr constant { [4 x i8*] } { [4 x i8*] [i8* null, i8* bitcast ({ i8*, i8* }* @_ZTIN11xercesc_2_710XMLDeleterE to i8*), i8* bitcast (void (%"class.xercesc_2_7::XMLDeleter"*)* @_ZN11xercesc_2_710XMLDeleterD2Ev to i8*), i8* bitcast (void (%"class.xercesc_2_7::XMLDeleter"*)* @_ZN11xercesc_2_710XMLDeleterD0Ev to i8*)] }, comdat, align 8
@_ZTSN11xercesc_2_710XMLDeleterE = linkonce_odr dso_local constant [28 x i8] c"N11xercesc_2_710XMLDeleterE\00", comdat, align 1
@_ZTIN11xercesc_2_710XMLDeleterE = linkonce_odr dso_local constant { i8*, i8* } { i8* bitcast (i8** getelementptr inbounds (i8*, i8** @_ZTVN10__cxxabiv117__class_type_infoE, i64 2) to i8*), i8* getelementptr inbounds ([28 x i8], [28 x i8]* @_ZTSN11xercesc_2_710XMLDeleterE, i32 0, i32 0) }, comdat, align 8
@_ZTVN10__cxxabiv121__vmi_class_type_infoE = external dso_local global i8*
@_ZTSN11xercesc_2_76XMLUriE = dso_local constant [23 x i8] c"N11xercesc_2_76XMLUriE\00", align 1
@_ZTSN11xercesc_2_713XSerializableE = linkonce_odr dso_local constant [31 x i8] c"N11xercesc_2_713XSerializableE\00", comdat, align 1
@_ZTIN11xercesc_2_713XSerializableE = linkonce_odr dso_local constant { i8*, i8* } { i8* bitcast (i8** getelementptr inbounds (i8*, i8** @_ZTVN10__cxxabiv117__class_type_infoE, i64 2) to i8*), i8* getelementptr inbounds ([31 x i8], [31 x i8]* @_ZTSN11xercesc_2_713XSerializableE, i32 0, i32 0) }, comdat, align 8
@_ZTIN11xercesc_2_76XMLUriE = dso_local constant { i8*, i8*, i32, i32, i8*, i64, i8*, i64 } { i8* bitcast (i8** getelementptr inbounds (i8*, i8** @_ZTVN10__cxxabiv121__vmi_class_type_infoE, i64 2) to i8*), i8* getelementptr inbounds ([23 x i8], [23 x i8]* @_ZTSN11xercesc_2_76XMLUriE, i32 0, i32 0), i32 0, i32 2, i8* bitcast ({ i8*, i8* }* @_ZTIN11xercesc_2_713XSerializableE to i8*), i64 2, i8* bitcast ({ i8*, i8* }* @_ZTIN11xercesc_2_77XMemoryE to i8*), i64 2 }, align 8
@_ZTVN11xercesc_2_713XSerializableE = linkonce_odr dso_local unnamed_addr constant { [7 x i8*] } { [7 x i8*] [i8* null, i8* bitcast ({ i8*, i8* }* @_ZTIN11xercesc_2_713XSerializableE to i8*), i8* bitcast (void (%"class.xercesc_2_7::XSerializable"*)* @_ZN11xercesc_2_713XSerializableD2Ev to i8*), i8* bitcast (void (%"class.xercesc_2_7::XSerializable"*)* @_ZN11xercesc_2_713XSerializableD0Ev to i8*), i8* bitcast (void ()* @__cxa_pure_virtual to i8*), i8* bitcast (void ()* @__cxa_pure_virtual to i8*), i8* bitcast (void ()* @__cxa_pure_virtual to i8*)] }, comdat, align 8
@_ZTVN11xercesc_2_721MalformedURLExceptionE = linkonce_odr dso_local unnamed_addr constant { [6 x i8*] } { [6 x i8*] [i8* null, i8* bitcast ({ i8*, i8*, i8* }* @_ZTIN11xercesc_2_721MalformedURLExceptionE to i8*), i8* bitcast (void (%"class.xercesc_2_7::MalformedURLException"*)* @_ZN11xercesc_2_721MalformedURLExceptionD2Ev to i8*), i8* bitcast (void (%"class.xercesc_2_7::MalformedURLException"*)* @_ZN11xercesc_2_721MalformedURLExceptionD0Ev to i8*), i8* bitcast (i16* (%"class.xercesc_2_7::MalformedURLException"*)* @_ZNK11xercesc_2_721MalformedURLException7getTypeEv to i8*), i8* bitcast (%"class.xercesc_2_7::XMLException"* (%"class.xercesc_2_7::MalformedURLException"*)* @_ZNK11xercesc_2_721MalformedURLException9duplicateEv to i8*)] }, comdat, align 8
@_ZN11xercesc_2_76XMLUni28fgMalformedURLException_NameE = external dso_local constant [0 x i16], align 2
@_ZN11xercesc_2_710XMLChar1_019fgCharCharsTable1_0E = external dso_local global [65536 x i8], align 16

@_ZN11xercesc_2_76XMLUriC1EPKtPNS_13MemoryManagerE = dso_local unnamed_addr alias void (%"class.xercesc_2_7::XMLUri"*, i16*, %"class.xercesc_2_7::MemoryManager"*), void (%"class.xercesc_2_7::XMLUri"*, i16*, %"class.xercesc_2_7::MemoryManager"*)* @_ZN11xercesc_2_76XMLUriC2EPKtPNS_13MemoryManagerE
@_ZN11xercesc_2_76XMLUriC1EPKS0_PKtPNS_13MemoryManagerE = dso_local unnamed_addr alias void (%"class.xercesc_2_7::XMLUri"*, %"class.xercesc_2_7::XMLUri"*, i16*, %"class.xercesc_2_7::MemoryManager"*), void (%"class.xercesc_2_7::XMLUri"*, %"class.xercesc_2_7::XMLUri"*, i16*, %"class.xercesc_2_7::MemoryManager"*)* @_ZN11xercesc_2_76XMLUriC2EPKS0_PKtPNS_13MemoryManagerE
@_ZN11xercesc_2_76XMLUriC1ERKS0_ = dso_local unnamed_addr alias void (%"class.xercesc_2_7::XMLUri"*, %"class.xercesc_2_7::XMLUri"*), void (%"class.xercesc_2_7::XMLUri"*, %"class.xercesc_2_7::XMLUri"*)* @_ZN11xercesc_2_76XMLUriC2ERKS0_
@_ZN11xercesc_2_76XMLUriD1Ev = dso_local unnamed_addr alias void (%"class.xercesc_2_7::XMLUri"*), void (%"class.xercesc_2_7::XMLUri"*)* @_ZN11xercesc_2_76XMLUriD2Ev
@_ZN11xercesc_2_76XMLUriC1EPNS_13MemoryManagerE = dso_local unnamed_addr alias void (%"class.xercesc_2_7::XMLUri"*, %"class.xercesc_2_7::MemoryManager"*), void (%"class.xercesc_2_7::XMLUri"*, %"class.xercesc_2_7::MemoryManager"*)* @_ZN11xercesc_2_76XMLUriC2EPNS_13MemoryManagerE

; Function Attrs: nounwind readnone speculatable willreturn
declare void @llvm.dbg.declare(metadata, metadata, metadata) #0

; Function Attrs: noinline nounwind uwtable
define linkonce_odr dso_local void @_ZN11xercesc_2_710XMLDeleterD0Ev(%"class.xercesc_2_7::XMLDeleter"* %this) unnamed_addr #1 comdat align 2 !dbg !1515 {
entry:
  %this.addr = alloca %"class.xercesc_2_7::XMLDeleter"*, align 8
  store %"class.xercesc_2_7::XMLDeleter"* %this, %"class.xercesc_2_7::XMLDeleter"** %this.addr, align 8
  call void @llvm.dbg.declare(metadata %"class.xercesc_2_7::XMLDeleter"** %this.addr, metadata !1535, metadata !DIExpression()), !dbg !1537
  %this1 = load %"class.xercesc_2_7::XMLDeleter"*, %"class.xercesc_2_7::XMLDeleter"** %this.addr, align 8
  call void @_ZN11xercesc_2_710XMLDeleterD2Ev(%"class.xercesc_2_7::XMLDeleter"* %this1) #10, !dbg !1538
  %0 = bitcast %"class.xercesc_2_7::XMLDeleter"* %this1 to i8*, !dbg !1538
  call void @_ZdlPv(i8* %0) #11, !dbg !1538
  ret void, !dbg !1539
}

; Function Attrs: noinline nounwind uwtable
define linkonce_odr dso_local void @_ZN11xercesc_2_710XMLDeleterD2Ev(%"class.xercesc_2_7::XMLDeleter"* %this) unnamed_addr #1 comdat align 2 !dbg !1540 {
entry:
  %this.addr = alloca %"class.xercesc_2_7::XMLDeleter"*, align 8
  store %"class.xercesc_2_7::XMLDeleter"* %this, %"class.xercesc_2_7::XMLDeleter"** %this.addr, align 8
  call void @llvm.dbg.declare(metadata %"class.xercesc_2_7::XMLDeleter"** %this.addr, metadata !1541, metadata !DIExpression()), !dbg !1542
  %this1 = load %"class.xercesc_2_7::XMLDeleter"*, %"class.xercesc_2_7::XMLDeleter"** %this.addr, align 8
  ret void, !dbg !1543
}

; Function Attrs: nobuiltin nounwind
declare dso_local void @_ZdlPv(i8*) #2

; Function Attrs: noinline uwtable
define dso_local void @_ZN11xercesc_2_76XMLUriC2EPKtPNS_13MemoryManagerE(%"class.xercesc_2_7::XMLUri"* %this, i16* %uriSpec, %"class.xercesc_2_7::MemoryManager"* %manager) unnamed_addr #3 align 2 personality i8* bitcast (i32 (...)* @__gxx_personality_v0 to i8*) !dbg !1544 {
entry:
  %this.addr = alloca %"class.xercesc_2_7::XMLUri"*, align 8
  %uriSpec.addr = alloca i16*, align 8
  %manager.addr = alloca %"class.xercesc_2_7::MemoryManager"*, align 8
  %exn.slot = alloca i8*
  %ehselector.slot = alloca i32
  %cleanup = alloca %"class.xercesc_2_7::JanitorMemFunCall", align 8
  %coerce = alloca { i64, i64 }, align 8
  %0 = alloca %"class.xercesc_2_7::OutOfMemoryException"*, align 8
  store %"class.xercesc_2_7::XMLUri"* %this, %"class.xercesc_2_7::XMLUri"** %this.addr, align 8
  call void @llvm.dbg.declare(metadata %"class.xercesc_2_7::XMLUri"** %this.addr, metadata !1545, metadata !DIExpression()), !dbg !1546
  store i16* %uriSpec, i16** %uriSpec.addr, align 8
  call void @llvm.dbg.declare(metadata i16** %uriSpec.addr, metadata !1547, metadata !DIExpression()), !dbg !1548
  store %"class.xercesc_2_7::MemoryManager"* %manager, %"class.xercesc_2_7::MemoryManager"** %manager.addr, align 8
  call void @llvm.dbg.declare(metadata %"class.xercesc_2_7::MemoryManager"** %manager.addr, metadata !1549, metadata !DIExpression()), !dbg !1550
  %this1 = load %"class.xercesc_2_7::XMLUri"*, %"class.xercesc_2_7::XMLUri"** %this.addr, align 8
  %1 = bitcast %"class.xercesc_2_7::XMLUri"* %this1 to %"class.xercesc_2_7::XSerializable"*, !dbg !1551
  call void @_ZN11xercesc_2_713XSerializableC2Ev(%"class.xercesc_2_7::XSerializable"* %1), !dbg !1552
  %2 = bitcast %"class.xercesc_2_7::XMLUri"* %this1 to %"class.xercesc_2_7::XMemory"*, !dbg !1551
  invoke void @_ZN11xercesc_2_77XMemoryC2Ev(%"class.xercesc_2_7::XMemory"* %2)
          to label %invoke.cont unwind label %lpad, !dbg !1552

invoke.cont:                                      ; preds = %entry
  %3 = bitcast %"class.xercesc_2_7::XMLUri"* %this1 to i32 (...)***, !dbg !1551
  store i32 (...)** bitcast (i8** getelementptr inbounds ({ [7 x i8*] }, { [7 x i8*] }* @_ZTVN11xercesc_2_76XMLUriE, i32 0, inrange i32 0, i32 2) to i32 (...)**), i32 (...)*** %3, align 8, !dbg !1551
  %fPort = getelementptr inbounds %"class.xercesc_2_7::XMLUri", %"class.xercesc_2_7::XMLUri"* %this1, i32 0, i32 1, !dbg !1553
  store i32 -1, i32* %fPort, align 8, !dbg !1553
  %fScheme = getelementptr inbounds %"class.xercesc_2_7::XMLUri", %"class.xercesc_2_7::XMLUri"* %this1, i32 0, i32 2, !dbg !1554
  store i16* null, i16** %fScheme, align 8, !dbg !1554
  %fUserInfo = getelementptr inbounds %"class.xercesc_2_7::XMLUri", %"class.xercesc_2_7::XMLUri"* %this1, i32 0, i32 3, !dbg !1555
  store i16* null, i16** %fUserInfo, align 8, !dbg !1555
  %fHost = getelementptr inbounds %"class.xercesc_2_7::XMLUri", %"class.xercesc_2_7::XMLUri"* %this1, i32 0, i32 4, !dbg !1556
  store i16* null, i16** %fHost, align 8, !dbg !1556
  %fRegAuth = getelementptr inbounds %"class.xercesc_2_7::XMLUri", %"class.xercesc_2_7::XMLUri"* %this1, i32 0, i32 5, !dbg !1557
  store i16* null, i16** %fRegAuth, align 8, !dbg !1557
  %fPath = getelementptr inbounds %"class.xercesc_2_7::XMLUri", %"class.xercesc_2_7::XMLUri"* %this1, i32 0, i32 6, !dbg !1558
  store i16* null, i16** %fPath, align 8, !dbg !1558
  %fQueryString = getelementptr inbounds %"class.xercesc_2_7::XMLUri", %"class.xercesc_2_7::XMLUri"* %this1, i32 0, i32 7, !dbg !1559
  store i16* null, i16** %fQueryString, align 8, !dbg !1559
  %fFragment = getelementptr inbounds %"class.xercesc_2_7::XMLUri", %"class.xercesc_2_7::XMLUri"* %this1, i32 0, i32 8, !dbg !1560
  store i16* null, i16** %fFragment, align 8, !dbg !1560
  %fURIText = getelementptr inbounds %"class.xercesc_2_7::XMLUri", %"class.xercesc_2_7::XMLUri"* %this1, i32 0, i32 9, !dbg !1561
  store i16* null, i16** %fURIText, align 8, !dbg !1561
  %fMemoryManager = getelementptr inbounds %"class.xercesc_2_7::XMLUri", %"class.xercesc_2_7::XMLUri"* %this1, i32 0, i32 10, !dbg !1562
  %4 = load %"class.xercesc_2_7::MemoryManager"*, %"class.xercesc_2_7::MemoryManager"** %manager.addr, align 8, !dbg !1563
  store %"class.xercesc_2_7::MemoryManager"* %4, %"class.xercesc_2_7::MemoryManager"** %fMemoryManager, align 8, !dbg !1562
  call void @llvm.dbg.declare(metadata %"class.xercesc_2_7::JanitorMemFunCall"* %cleanup, metadata !1564, metadata !DIExpression()), !dbg !1594
  store { i64, i64 } { i64 ptrtoint (void (%"class.xercesc_2_7::XMLUri"*)* @_ZN11xercesc_2_76XMLUri7cleanUpEv to i64), i64 0 }, { i64, i64 }* %coerce, align 8, !dbg !1594
  %5 = getelementptr inbounds { i64, i64 }, { i64, i64 }* %coerce, i32 0, i32 0, !dbg !1594
  %6 = load i64, i64* %5, align 8, !dbg !1594
  %7 = getelementptr inbounds { i64, i64 }, { i64, i64 }* %coerce, i32 0, i32 1, !dbg !1594
  %8 = load i64, i64* %7, align 8, !dbg !1594
  invoke void @_ZN11xercesc_2_717JanitorMemFunCallINS_6XMLUriEEC2EPS1_MS1_FvvE(%"class.xercesc_2_7::JanitorMemFunCall"* %cleanup, %"class.xercesc_2_7::XMLUri"* %this1, i64 %6, i64 %8)
          to label %invoke.cont2 unwind label %lpad, !dbg !1594

invoke.cont2:                                     ; preds = %invoke.cont
  %9 = load i16*, i16** %uriSpec.addr, align 8, !dbg !1595
  invoke void @_ZN11xercesc_2_76XMLUri10initializeEPKS0_PKt(%"class.xercesc_2_7::XMLUri"* %this1, %"class.xercesc_2_7::XMLUri"* null, i16* %9)
          to label %invoke.cont4 unwind label %lpad3, !dbg !1597

invoke.cont4:                                     ; preds = %invoke.cont2
  br label %try.cont, !dbg !1598

lpad:                                             ; preds = %invoke.cont, %entry
  %10 = landingpad { i8*, i32 }
          cleanup, !dbg !1599
  %11 = extractvalue { i8*, i32 } %10, 0, !dbg !1599
  store i8* %11, i8** %exn.slot, align 8, !dbg !1599
  %12 = extractvalue { i8*, i32 } %10, 1, !dbg !1599
  store i32 %12, i32* %ehselector.slot, align 4, !dbg !1599
  br label %ehcleanup10, !dbg !1599

lpad3:                                            ; preds = %invoke.cont2
  %13 = landingpad { i8*, i32 }
          cleanup
          catch i8* bitcast ({ i8*, i8*, i8* }* @_ZTIN11xercesc_2_720OutOfMemoryExceptionE to i8*), !dbg !1600
  %14 = extractvalue { i8*, i32 } %13, 0, !dbg !1600
  store i8* %14, i8** %exn.slot, align 8, !dbg !1600
  %15 = extractvalue { i8*, i32 } %13, 1, !dbg !1600
  store i32 %15, i32* %ehselector.slot, align 4, !dbg !1600
  br label %catch.dispatch, !dbg !1600

catch.dispatch:                                   ; preds = %lpad3
  %sel = load i32, i32* %ehselector.slot, align 4, !dbg !1598
  %16 = call i32 @llvm.eh.typeid.for(i8* bitcast ({ i8*, i8*, i8* }* @_ZTIN11xercesc_2_720OutOfMemoryExceptionE to i8*)) #10, !dbg !1598
  %matches = icmp eq i32 %sel, %16, !dbg !1598
  br i1 %matches, label %catch, label %ehcleanup, !dbg !1598

catch:                                            ; preds = %catch.dispatch
  call void @llvm.dbg.declare(metadata %"class.xercesc_2_7::OutOfMemoryException"** %0, metadata !1601, metadata !DIExpression()), !dbg !1634
  %exn = load i8*, i8** %exn.slot, align 8, !dbg !1598
  %17 = call i8* @__cxa_begin_catch(i8* %exn) #10, !dbg !1598
  %exn.byref = bitcast i8* %17 to %"class.xercesc_2_7::OutOfMemoryException"*, !dbg !1598
  store %"class.xercesc_2_7::OutOfMemoryException"* %exn.byref, %"class.xercesc_2_7::OutOfMemoryException"** %0, align 8, !dbg !1598
  invoke void @_ZN11xercesc_2_717JanitorMemFunCallINS_6XMLUriEE7releaseEv(%"class.xercesc_2_7::JanitorMemFunCall"* %cleanup)
          to label %invoke.cont6 unwind label %lpad5, !dbg !1635

invoke.cont6:                                     ; preds = %catch
  invoke void @__cxa_rethrow() #12
          to label %unreachable unwind label %lpad5, !dbg !1637

lpad5:                                            ; preds = %invoke.cont6, %catch
  %18 = landingpad { i8*, i32 }
          cleanup, !dbg !1638
  %19 = extractvalue { i8*, i32 } %18, 0, !dbg !1638
  store i8* %19, i8** %exn.slot, align 8, !dbg !1638
  %20 = extractvalue { i8*, i32 } %18, 1, !dbg !1638
  store i32 %20, i32* %ehselector.slot, align 4, !dbg !1638
  invoke void @__cxa_end_catch()
          to label %invoke.cont7 unwind label %terminate.lpad, !dbg !1639

invoke.cont7:                                     ; preds = %lpad5
  br label %ehcleanup, !dbg !1639

try.cont:                                         ; preds = %invoke.cont4
  invoke void @_ZN11xercesc_2_717JanitorMemFunCallINS_6XMLUriEE7releaseEv(%"class.xercesc_2_7::JanitorMemFunCall"* %cleanup)
          to label %invoke.cont9 unwind label %lpad8, !dbg !1640

invoke.cont9:                                     ; preds = %try.cont
  call void @_ZN11xercesc_2_717JanitorMemFunCallINS_6XMLUriEED2Ev(%"class.xercesc_2_7::JanitorMemFunCall"* %cleanup) #10, !dbg !1599
  ret void, !dbg !1599

lpad8:                                            ; preds = %try.cont
  %21 = landingpad { i8*, i32 }
          cleanup, !dbg !1641
  %22 = extractvalue { i8*, i32 } %21, 0, !dbg !1641
  store i8* %22, i8** %exn.slot, align 8, !dbg !1641
  %23 = extractvalue { i8*, i32 } %21, 1, !dbg !1641
  store i32 %23, i32* %ehselector.slot, align 4, !dbg !1641
  br label %ehcleanup, !dbg !1641

ehcleanup:                                        ; preds = %lpad8, %invoke.cont7, %catch.dispatch
  call void @_ZN11xercesc_2_717JanitorMemFunCallINS_6XMLUriEED2Ev(%"class.xercesc_2_7::JanitorMemFunCall"* %cleanup) #10, !dbg !1599
  br label %ehcleanup10, !dbg !1599

ehcleanup10:                                      ; preds = %ehcleanup, %lpad
  %24 = bitcast %"class.xercesc_2_7::XMLUri"* %this1 to %"class.xercesc_2_7::XSerializable"*, !dbg !1641
  call void @_ZN11xercesc_2_713XSerializableD2Ev(%"class.xercesc_2_7::XSerializable"* %24) #10, !dbg !1641
  br label %eh.resume, !dbg !1641

eh.resume:                                        ; preds = %ehcleanup10
  %exn11 = load i8*, i8** %exn.slot, align 8, !dbg !1641
  %sel12 = load i32, i32* %ehselector.slot, align 4, !dbg !1641
  %lpad.val = insertvalue { i8*, i32 } undef, i8* %exn11, 0, !dbg !1641
  %lpad.val13 = insertvalue { i8*, i32 } %lpad.val, i32 %sel12, 1, !dbg !1641
  resume { i8*, i32 } %lpad.val13, !dbg !1641

terminate.lpad:                                   ; preds = %lpad5
  %25 = landingpad { i8*, i32 }
          catch i8* null, !dbg !1639
  %26 = extractvalue { i8*, i32 } %25, 0, !dbg !1639
  call void @__clang_call_terminate(i8* %26) #13, !dbg !1639
  unreachable, !dbg !1639

unreachable:                                      ; preds = %invoke.cont6
  unreachable
}

; Function Attrs: noinline nounwind uwtable
define linkonce_odr dso_local void @_ZN11xercesc_2_713XSerializableC2Ev(%"class.xercesc_2_7::XSerializable"* %this) unnamed_addr #1 comdat align 2 !dbg !1642 {
entry:
  %this.addr = alloca %"class.xercesc_2_7::XSerializable"*, align 8
  store %"class.xercesc_2_7::XSerializable"* %this, %"class.xercesc_2_7::XSerializable"** %this.addr, align 8
  call void @llvm.dbg.declare(metadata %"class.xercesc_2_7::XSerializable"** %this.addr, metadata !1643, metadata !DIExpression()), !dbg !1644
  %this1 = load %"class.xercesc_2_7::XSerializable"*, %"class.xercesc_2_7::XSerializable"** %this.addr, align 8
  %0 = bitcast %"class.xercesc_2_7::XSerializable"* %this1 to i32 (...)***, !dbg !1645
  store i32 (...)** bitcast (i8** getelementptr inbounds ({ [7 x i8*] }, { [7 x i8*] }* @_ZTVN11xercesc_2_713XSerializableE, i32 0, inrange i32 0, i32 2) to i32 (...)**), i32 (...)*** %0, align 8, !dbg !1645
  ret void, !dbg !1646
}

; Function Attrs: noinline nounwind uwtable
define linkonce_odr dso_local void @_ZN11xercesc_2_77XMemoryC2Ev(%"class.xercesc_2_7::XMemory"* %this) unnamed_addr #1 comdat align 2 !dbg !1647 {
entry:
  %this.addr = alloca %"class.xercesc_2_7::XMemory"*, align 8
  store %"class.xercesc_2_7::XMemory"* %this, %"class.xercesc_2_7::XMemory"** %this.addr, align 8
  call void @llvm.dbg.declare(metadata %"class.xercesc_2_7::XMemory"** %this.addr, metadata !1648, metadata !DIExpression()), !dbg !1650
  %this1 = load %"class.xercesc_2_7::XMemory"*, %"class.xercesc_2_7::XMemory"** %this.addr, align 8
  ret void, !dbg !1651
}

declare dso_local i32 @__gxx_personality_v0(...)

; Function Attrs: noinline uwtable
define dso_local void @_ZN11xercesc_2_76XMLUri7cleanUpEv(%"class.xercesc_2_7::XMLUri"* %this) #3 align 2 !dbg !1652 {
entry:
  %this.addr = alloca %"class.xercesc_2_7::XMLUri"*, align 8
  store %"class.xercesc_2_7::XMLUri"* %this, %"class.xercesc_2_7::XMLUri"** %this.addr, align 8
  call void @llvm.dbg.declare(metadata %"class.xercesc_2_7::XMLUri"** %this.addr, metadata !1653, metadata !DIExpression()), !dbg !1654
  %this1 = load %"class.xercesc_2_7::XMLUri"*, %"class.xercesc_2_7::XMLUri"** %this.addr, align 8
  %fScheme = getelementptr inbounds %"class.xercesc_2_7::XMLUri", %"class.xercesc_2_7::XMLUri"* %this1, i32 0, i32 2, !dbg !1655
  %0 = load i16*, i16** %fScheme, align 8, !dbg !1655
  %tobool = icmp ne i16* %0, null, !dbg !1655
  br i1 %tobool, label %if.then, label %if.end, !dbg !1657

if.then:                                          ; preds = %entry
  %fScheme2 = getelementptr inbounds %"class.xercesc_2_7::XMLUri", %"class.xercesc_2_7::XMLUri"* %this1, i32 0, i32 2, !dbg !1658
  %1 = bitcast i16** %fScheme2 to i8**, !dbg !1659
  %fMemoryManager = getelementptr inbounds %"class.xercesc_2_7::XMLUri", %"class.xercesc_2_7::XMLUri"* %this1, i32 0, i32 10, !dbg !1660
  %2 = load %"class.xercesc_2_7::MemoryManager"*, %"class.xercesc_2_7::MemoryManager"** %fMemoryManager, align 8, !dbg !1660
  call void @_ZN11xercesc_2_79XMLString7releaseEPPvPNS_13MemoryManagerE(i8** %1, %"class.xercesc_2_7::MemoryManager"* %2), !dbg !1661
  br label %if.end, !dbg !1661

if.end:                                           ; preds = %if.then, %entry
  %fUserInfo = getelementptr inbounds %"class.xercesc_2_7::XMLUri", %"class.xercesc_2_7::XMLUri"* %this1, i32 0, i32 3, !dbg !1662
  %3 = load i16*, i16** %fUserInfo, align 8, !dbg !1662
  %tobool3 = icmp ne i16* %3, null, !dbg !1662
  br i1 %tobool3, label %if.then4, label %if.end7, !dbg !1664

if.then4:                                         ; preds = %if.end
  %fUserInfo5 = getelementptr inbounds %"class.xercesc_2_7::XMLUri", %"class.xercesc_2_7::XMLUri"* %this1, i32 0, i32 3, !dbg !1665
  %4 = bitcast i16** %fUserInfo5 to i8**, !dbg !1666
  %fMemoryManager6 = getelementptr inbounds %"class.xercesc_2_7::XMLUri", %"class.xercesc_2_7::XMLUri"* %this1, i32 0, i32 10, !dbg !1667
  %5 = load %"class.xercesc_2_7::MemoryManager"*, %"class.xercesc_2_7::MemoryManager"** %fMemoryManager6, align 8, !dbg !1667
  call void @_ZN11xercesc_2_79XMLString7releaseEPPvPNS_13MemoryManagerE(i8** %4, %"class.xercesc_2_7::MemoryManager"* %5), !dbg !1668
  br label %if.end7, !dbg !1668

if.end7:                                          ; preds = %if.then4, %if.end
  %fHost = getelementptr inbounds %"class.xercesc_2_7::XMLUri", %"class.xercesc_2_7::XMLUri"* %this1, i32 0, i32 4, !dbg !1669
  %6 = load i16*, i16** %fHost, align 8, !dbg !1669
  %tobool8 = icmp ne i16* %6, null, !dbg !1669
  br i1 %tobool8, label %if.then9, label %if.end12, !dbg !1671

if.then9:                                         ; preds = %if.end7
  %fHost10 = getelementptr inbounds %"class.xercesc_2_7::XMLUri", %"class.xercesc_2_7::XMLUri"* %this1, i32 0, i32 4, !dbg !1672
  %7 = bitcast i16** %fHost10 to i8**, !dbg !1673
  %fMemoryManager11 = getelementptr inbounds %"class.xercesc_2_7::XMLUri", %"class.xercesc_2_7::XMLUri"* %this1, i32 0, i32 10, !dbg !1674
  %8 = load %"class.xercesc_2_7::MemoryManager"*, %"class.xercesc_2_7::MemoryManager"** %fMemoryManager11, align 8, !dbg !1674
  call void @_ZN11xercesc_2_79XMLString7releaseEPPvPNS_13MemoryManagerE(i8** %7, %"class.xercesc_2_7::MemoryManager"* %8), !dbg !1675
  br label %if.end12, !dbg !1675

if.end12:                                         ; preds = %if.then9, %if.end7
  %fRegAuth = getelementptr inbounds %"class.xercesc_2_7::XMLUri", %"class.xercesc_2_7::XMLUri"* %this1, i32 0, i32 5, !dbg !1676
  %9 = load i16*, i16** %fRegAuth, align 8, !dbg !1676
  %tobool13 = icmp ne i16* %9, null, !dbg !1676
  br i1 %tobool13, label %if.then14, label %if.end17, !dbg !1678

if.then14:                                        ; preds = %if.end12
  %fRegAuth15 = getelementptr inbounds %"class.xercesc_2_7::XMLUri", %"class.xercesc_2_7::XMLUri"* %this1, i32 0, i32 5, !dbg !1679
  %10 = bitcast i16** %fRegAuth15 to i8**, !dbg !1680
  %fMemoryManager16 = getelementptr inbounds %"class.xercesc_2_7::XMLUri", %"class.xercesc_2_7::XMLUri"* %this1, i32 0, i32 10, !dbg !1681
  %11 = load %"class.xercesc_2_7::MemoryManager"*, %"class.xercesc_2_7::MemoryManager"** %fMemoryManager16, align 8, !dbg !1681
  call void @_ZN11xercesc_2_79XMLString7releaseEPPvPNS_13MemoryManagerE(i8** %10, %"class.xercesc_2_7::MemoryManager"* %11), !dbg !1682
  br label %if.end17, !dbg !1682

if.end17:                                         ; preds = %if.then14, %if.end12
  %fPath = getelementptr inbounds %"class.xercesc_2_7::XMLUri", %"class.xercesc_2_7::XMLUri"* %this1, i32 0, i32 6, !dbg !1683
  %12 = load i16*, i16** %fPath, align 8, !dbg !1683
  %tobool18 = icmp ne i16* %12, null, !dbg !1683
  br i1 %tobool18, label %if.then19, label %if.end22, !dbg !1685

if.then19:                                        ; preds = %if.end17
  %fPath20 = getelementptr inbounds %"class.xercesc_2_7::XMLUri", %"class.xercesc_2_7::XMLUri"* %this1, i32 0, i32 6, !dbg !1686
  %13 = bitcast i16** %fPath20 to i8**, !dbg !1687
  %fMemoryManager21 = getelementptr inbounds %"class.xercesc_2_7::XMLUri", %"class.xercesc_2_7::XMLUri"* %this1, i32 0, i32 10, !dbg !1688
  %14 = load %"class.xercesc_2_7::MemoryManager"*, %"class.xercesc_2_7::MemoryManager"** %fMemoryManager21, align 8, !dbg !1688
  call void @_ZN11xercesc_2_79XMLString7releaseEPPvPNS_13MemoryManagerE(i8** %13, %"class.xercesc_2_7::MemoryManager"* %14), !dbg !1689
  br label %if.end22, !dbg !1689

if.end22:                                         ; preds = %if.then19, %if.end17
  %fQueryString = getelementptr inbounds %"class.xercesc_2_7::XMLUri", %"class.xercesc_2_7::XMLUri"* %this1, i32 0, i32 7, !dbg !1690
  %15 = load i16*, i16** %fQueryString, align 8, !dbg !1690
  %tobool23 = icmp ne i16* %15, null, !dbg !1690
  br i1 %tobool23, label %if.then24, label %if.end27, !dbg !1692

if.then24:                                        ; preds = %if.end22
  %fQueryString25 = getelementptr inbounds %"class.xercesc_2_7::XMLUri", %"class.xercesc_2_7::XMLUri"* %this1, i32 0, i32 7, !dbg !1693
  %16 = bitcast i16** %fQueryString25 to i8**, !dbg !1694
  %fMemoryManager26 = getelementptr inbounds %"class.xercesc_2_7::XMLUri", %"class.xercesc_2_7::XMLUri"* %this1, i32 0, i32 10, !dbg !1695
  %17 = load %"class.xercesc_2_7::MemoryManager"*, %"class.xercesc_2_7::MemoryManager"** %fMemoryManager26, align 8, !dbg !1695
  call void @_ZN11xercesc_2_79XMLString7releaseEPPvPNS_13MemoryManagerE(i8** %16, %"class.xercesc_2_7::MemoryManager"* %17), !dbg !1696
  br label %if.end27, !dbg !1696

if.end27:                                         ; preds = %if.then24, %if.end22
  %fFragment = getelementptr inbounds %"class.xercesc_2_7::XMLUri", %"class.xercesc_2_7::XMLUri"* %this1, i32 0, i32 8, !dbg !1697
  %18 = load i16*, i16** %fFragment, align 8, !dbg !1697
  %tobool28 = icmp ne i16* %18, null, !dbg !1697
  br i1 %tobool28, label %if.then29, label %if.end32, !dbg !1699

if.then29:                                        ; preds = %if.end27
  %fFragment30 = getelementptr inbounds %"class.xercesc_2_7::XMLUri", %"class.xercesc_2_7::XMLUri"* %this1, i32 0, i32 8, !dbg !1700
  %19 = bitcast i16** %fFragment30 to i8**, !dbg !1701
  %fMemoryManager31 = getelementptr inbounds %"class.xercesc_2_7::XMLUri", %"class.xercesc_2_7::XMLUri"* %this1, i32 0, i32 10, !dbg !1702
  %20 = load %"class.xercesc_2_7::MemoryManager"*, %"class.xercesc_2_7::MemoryManager"** %fMemoryManager31, align 8, !dbg !1702
  call void @_ZN11xercesc_2_79XMLString7releaseEPPvPNS_13MemoryManagerE(i8** %19, %"class.xercesc_2_7::MemoryManager"* %20), !dbg !1703
  br label %if.end32, !dbg !1703

if.end32:                                         ; preds = %if.then29, %if.end27
  %fURIText = getelementptr inbounds %"class.xercesc_2_7::XMLUri", %"class.xercesc_2_7::XMLUri"* %this1, i32 0, i32 9, !dbg !1704
  %21 = bitcast i16** %fURIText to i8**, !dbg !1705
  %fMemoryManager33 = getelementptr inbounds %"class.xercesc_2_7::XMLUri", %"class.xercesc_2_7::XMLUri"* %this1, i32 0, i32 10, !dbg !1706
  %22 = load %"class.xercesc_2_7::MemoryManager"*, %"class.xercesc_2_7::MemoryManager"** %fMemoryManager33, align 8, !dbg !1706
  call void @_ZN11xercesc_2_79XMLString7releaseEPPvPNS_13MemoryManagerE(i8** %21, %"class.xercesc_2_7::MemoryManager"* %22), !dbg !1707
  ret void, !dbg !1708
}

; Function Attrs: noinline nounwind uwtable
define linkonce_odr dso_local void @_ZN11xercesc_2_717JanitorMemFunCallINS_6XMLUriEEC2EPS1_MS1_FvvE(%"class.xercesc_2_7::JanitorMemFunCall"* %this, %"class.xercesc_2_7::XMLUri"* %object, i64 %toCall.coerce0, i64 %toCall.coerce1) unnamed_addr #1 comdat align 2 !dbg !1709 {
entry:
  %toCall = alloca { i64, i64 }, align 8
  %this.addr = alloca %"class.xercesc_2_7::JanitorMemFunCall"*, align 8
  %object.addr = alloca %"class.xercesc_2_7::XMLUri"*, align 8
  %toCall.addr = alloca { i64, i64 }, align 8
  %0 = getelementptr inbounds { i64, i64 }, { i64, i64 }* %toCall, i32 0, i32 0
  store i64 %toCall.coerce0, i64* %0, align 8
  %1 = getelementptr inbounds { i64, i64 }, { i64, i64 }* %toCall, i32 0, i32 1
  store i64 %toCall.coerce1, i64* %1, align 8
  %toCall1 = load { i64, i64 }, { i64, i64 }* %toCall, align 8
  store %"class.xercesc_2_7::JanitorMemFunCall"* %this, %"class.xercesc_2_7::JanitorMemFunCall"** %this.addr, align 8
  call void @llvm.dbg.declare(metadata %"class.xercesc_2_7::JanitorMemFunCall"** %this.addr, metadata !1711, metadata !DIExpression()), !dbg !1713
  store %"class.xercesc_2_7::XMLUri"* %object, %"class.xercesc_2_7::XMLUri"** %object.addr, align 8
  call void @llvm.dbg.declare(metadata %"class.xercesc_2_7::XMLUri"** %object.addr, metadata !1714, metadata !DIExpression()), !dbg !1715
  store { i64, i64 } %toCall1, { i64, i64 }* %toCall.addr, align 8
  call void @llvm.dbg.declare(metadata { i64, i64 }* %toCall.addr, metadata !1716, metadata !DIExpression()), !dbg !1717
  %this2 = load %"class.xercesc_2_7::JanitorMemFunCall"*, %"class.xercesc_2_7::JanitorMemFunCall"** %this.addr, align 8
  %fObject = getelementptr inbounds %"class.xercesc_2_7::JanitorMemFunCall", %"class.xercesc_2_7::JanitorMemFunCall"* %this2, i32 0, i32 0, !dbg !1718
  %2 = load %"class.xercesc_2_7::XMLUri"*, %"class.xercesc_2_7::XMLUri"** %object.addr, align 8, !dbg !1719
  store %"class.xercesc_2_7::XMLUri"* %2, %"class.xercesc_2_7::XMLUri"** %fObject, align 8, !dbg !1718
  %fToCall = getelementptr inbounds %"class.xercesc_2_7::JanitorMemFunCall", %"class.xercesc_2_7::JanitorMemFunCall"* %this2, i32 0, i32 1, !dbg !1720
  %3 = load { i64, i64 }, { i64, i64 }* %toCall.addr, align 8, !dbg !1721
  store { i64, i64 } %3, { i64, i64 }* %fToCall, align 8, !dbg !1720
  ret void, !dbg !1722
}

; Function Attrs: noinline uwtable
define dso_local void @_ZN11xercesc_2_76XMLUri10initializeEPKS0_PKt(%"class.xercesc_2_7::XMLUri"* %this, %"class.xercesc_2_7::XMLUri"* %baseURI, i16* %uriSpec) #3 align 2 personality i8* bitcast (i32 (...)* @__gxx_personality_v0 to i8*) !dbg !1723 {
entry:
  %this.addr = alloca %"class.xercesc_2_7::XMLUri"*, align 8
  %baseURI.addr = alloca %"class.xercesc_2_7::XMLUri"*, align 8
  %uriSpec.addr = alloca i16*, align 8
  %trimmedUriSpec = alloca i16*, align 8
  %janName = alloca %"class.xercesc_2_7::ArrayJanitor", align 8
  %trimmedUriSpecLen = alloca i32, align 4
  %exn.slot = alloca i8*
  %ehselector.slot = alloca i32
  %cleanup.dest.slot = alloca i32, align 4
  %index = alloca i32, align 4
  %foundScheme = alloca i8, align 1
  %colonIdx = alloca i32, align 4
  %slashIdx = alloca i32, align 4
  %queryIdx = alloca i32, align 4
  %fragmentIdx = alloca i32, align 4
  %authUriSpec = alloca i16*, align 8
  %authName = alloca %"class.xercesc_2_7::ArrayJanitor", align 8
  %startPos = alloca i32, align 4
  %testChar = alloca i16, align 2
  %pathUriSpec = alloca i16*, align 8
  %pathUriSpecName = alloca %"class.xercesc_2_7::ArrayJanitor", align 8
  %basePath = alloca i16*, align 8
  %basePathName = alloca %"class.xercesc_2_7::ArrayJanitor", align 8
  %bufLen = alloca i32, align 4
  %path = alloca i16*, align 8
  %pathName = alloca %"class.xercesc_2_7::ArrayJanitor", align 8
  %tmp1 = alloca i16*, align 8
  %tmp1Name = alloca %"class.xercesc_2_7::ArrayJanitor", align 8
  %tmp2 = alloca i16*, align 8
  %tmp2Name = alloca %"class.xercesc_2_7::ArrayJanitor", align 8
  %lastSlash = alloca i32, align 4
  %segIndex = alloca i32, align 4
  %offset = alloca i32, align 4
  store %"class.xercesc_2_7::XMLUri"* %this, %"class.xercesc_2_7::XMLUri"** %this.addr, align 8
  call void @llvm.dbg.declare(metadata %"class.xercesc_2_7::XMLUri"** %this.addr, metadata !1724, metadata !DIExpression()), !dbg !1725
  store %"class.xercesc_2_7::XMLUri"* %baseURI, %"class.xercesc_2_7::XMLUri"** %baseURI.addr, align 8
  call void @llvm.dbg.declare(metadata %"class.xercesc_2_7::XMLUri"** %baseURI.addr, metadata !1726, metadata !DIExpression()), !dbg !1727
  store i16* %uriSpec, i16** %uriSpec.addr, align 8
  call void @llvm.dbg.declare(metadata i16** %uriSpec.addr, metadata !1728, metadata !DIExpression()), !dbg !1729
  %this1 = load %"class.xercesc_2_7::XMLUri"*, %"class.xercesc_2_7::XMLUri"** %this.addr, align 8
  call void @llvm.dbg.declare(metadata i16** %trimmedUriSpec, metadata !1730, metadata !DIExpression()), !dbg !1731
  %0 = load i16*, i16** %uriSpec.addr, align 8, !dbg !1732
  %fMemoryManager = getelementptr inbounds %"class.xercesc_2_7::XMLUri", %"class.xercesc_2_7::XMLUri"* %this1, i32 0, i32 10, !dbg !1733
  %1 = load %"class.xercesc_2_7::MemoryManager"*, %"class.xercesc_2_7::MemoryManager"** %fMemoryManager, align 8, !dbg !1733
  %call = call i16* @_ZN11xercesc_2_79XMLString9replicateEPKtPNS_13MemoryManagerE(i16* %0, %"class.xercesc_2_7::MemoryManager"* %1), !dbg !1734
  store i16* %call, i16** %trimmedUriSpec, align 8, !dbg !1731
  %2 = load i16*, i16** %trimmedUriSpec, align 8, !dbg !1735
  call void @_ZN11xercesc_2_79XMLString4trimEPt(i16* %2), !dbg !1736
  call void @llvm.dbg.declare(metadata %"class.xercesc_2_7::ArrayJanitor"* %janName, metadata !1737, metadata !DIExpression()), !dbg !1785
  %3 = load i16*, i16** %trimmedUriSpec, align 8, !dbg !1786
  %fMemoryManager2 = getelementptr inbounds %"class.xercesc_2_7::XMLUri", %"class.xercesc_2_7::XMLUri"* %this1, i32 0, i32 10, !dbg !1787
  %4 = load %"class.xercesc_2_7::MemoryManager"*, %"class.xercesc_2_7::MemoryManager"** %fMemoryManager2, align 8, !dbg !1787
  call void @_ZN11xercesc_2_712ArrayJanitorItEC2EPtPNS_13MemoryManagerE(%"class.xercesc_2_7::ArrayJanitor"* %janName, i16* %3, %"class.xercesc_2_7::MemoryManager"* %4), !dbg !1785
  call void @llvm.dbg.declare(metadata i32* %trimmedUriSpecLen, metadata !1788, metadata !DIExpression()), !dbg !1789
  %5 = load i16*, i16** %trimmedUriSpec, align 8, !dbg !1790
  %call3 = invoke i32 @_ZN11xercesc_2_79XMLString9stringLenEPKt(i16* %5)
          to label %invoke.cont unwind label %lpad, !dbg !1791

invoke.cont:                                      ; preds = %entry
  store i32 %call3, i32* %trimmedUriSpecLen, align 4, !dbg !1789
  %6 = load %"class.xercesc_2_7::XMLUri"*, %"class.xercesc_2_7::XMLUri"** %baseURI.addr, align 8, !dbg !1792
  %tobool = icmp ne %"class.xercesc_2_7::XMLUri"* %6, null, !dbg !1792
  br i1 %tobool, label %if.end, label %land.lhs.true, !dbg !1794

land.lhs.true:                                    ; preds = %invoke.cont
  %7 = load i16*, i16** %trimmedUriSpec, align 8, !dbg !1795
  %tobool4 = icmp ne i16* %7, null, !dbg !1795
  br i1 %tobool4, label %lor.lhs.false, label %if.then, !dbg !1796

lor.lhs.false:                                    ; preds = %land.lhs.true
  %8 = load i32, i32* %trimmedUriSpecLen, align 4, !dbg !1797
  %cmp = icmp eq i32 %8, 0, !dbg !1798
  br i1 %cmp, label %if.then, label %if.end, !dbg !1799

if.then:                                          ; preds = %lor.lhs.false, %land.lhs.true
  %exception = call i8* @__cxa_allocate_exception(i64 48) #10, !dbg !1800
  %9 = bitcast i8* %exception to %"class.xercesc_2_7::MalformedURLException"*, !dbg !1800
  %fMemoryManager5 = getelementptr inbounds %"class.xercesc_2_7::XMLUri", %"class.xercesc_2_7::XMLUri"* %this1, i32 0, i32 10, !dbg !1800
  %10 = load %"class.xercesc_2_7::MemoryManager"*, %"class.xercesc_2_7::MemoryManager"** %fMemoryManager5, align 8, !dbg !1800
  invoke void @_ZN11xercesc_2_721MalformedURLExceptionC2EPKcjNS_10XMLExcepts5CodesEPKtS6_S6_S6_PNS_13MemoryManagerE(%"class.xercesc_2_7::MalformedURLException"* %9, i8* getelementptr inbounds ([11 x i8], [11 x i8]* @.str, i64 0, i64 0), i32 417, i32 266, i16* getelementptr inbounds ([11 x i16], [11 x i16]* @_ZN11xercesc_2_7L13errMsg_PARAMSE, i64 0, i64 0), i16* null, i16* null, i16* null, %"class.xercesc_2_7::MemoryManager"* %10)
          to label %invoke.cont7 unwind label %lpad6, !dbg !1800

invoke.cont7:                                     ; preds = %if.then
  invoke void @__cxa_throw(i8* %exception, i8* bitcast ({ i8*, i8*, i8* }* @_ZTIN11xercesc_2_721MalformedURLExceptionE to i8*), i8* bitcast (void (%"class.xercesc_2_7::MalformedURLException"*)* @_ZN11xercesc_2_721MalformedURLExceptionD2Ev to i8*)) #12
          to label %unreachable unwind label %lpad, !dbg !1800

lpad:                                             ; preds = %invoke.cont65, %if.end61, %invoke.cont60, %invoke.cont47, %if.else, %invoke.cont45, %invoke.cont18, %invoke.cont16, %invoke.cont14, %if.end13, %if.then11, %invoke.cont7, %entry
  %11 = landingpad { i8*, i32 }
          cleanup, !dbg !1802
  %12 = extractvalue { i8*, i32 } %11, 0, !dbg !1802
  store i8* %12, i8** %exn.slot, align 8, !dbg !1802
  %13 = extractvalue { i8*, i32 } %11, 1, !dbg !1802
  store i32 %13, i32* %ehselector.slot, align 4, !dbg !1802
  br label %ehcleanup422, !dbg !1802

lpad6:                                            ; preds = %if.then
  %14 = landingpad { i8*, i32 }
          cleanup, !dbg !1803
  %15 = extractvalue { i8*, i32 } %14, 0, !dbg !1803
  store i8* %15, i8** %exn.slot, align 8, !dbg !1803
  %16 = extractvalue { i8*, i32 } %14, 1, !dbg !1803
  store i32 %16, i32* %ehselector.slot, align 4, !dbg !1803
  call void @__cxa_free_exception(i8* %exception) #10, !dbg !1800
  br label %ehcleanup422, !dbg !1800

if.end:                                           ; preds = %lor.lhs.false, %invoke.cont
  %17 = load i16*, i16** %trimmedUriSpec, align 8, !dbg !1804
  %tobool8 = icmp ne i16* %17, null, !dbg !1804
  br i1 %tobool8, label %lor.lhs.false9, label %if.then11, !dbg !1806

lor.lhs.false9:                                   ; preds = %if.end
  %18 = load i32, i32* %trimmedUriSpecLen, align 4, !dbg !1807
  %cmp10 = icmp eq i32 %18, 0, !dbg !1808
  br i1 %cmp10, label %if.then11, label %if.end13, !dbg !1809

if.then11:                                        ; preds = %lor.lhs.false9, %if.end
  %19 = load %"class.xercesc_2_7::XMLUri"*, %"class.xercesc_2_7::XMLUri"** %baseURI.addr, align 8, !dbg !1810
  invoke void @_ZN11xercesc_2_76XMLUri10initializeERKS0_(%"class.xercesc_2_7::XMLUri"* %this1, %"class.xercesc_2_7::XMLUri"* dereferenceable(88) %19)
          to label %invoke.cont12 unwind label %lpad, !dbg !1812

invoke.cont12:                                    ; preds = %if.then11
  store i32 1, i32* %cleanup.dest.slot, align 4
  br label %cleanup421, !dbg !1813

if.end13:                                         ; preds = %lor.lhs.false9
  call void @llvm.dbg.declare(metadata i32* %index, metadata !1814, metadata !DIExpression()), !dbg !1815
  store i32 0, i32* %index, align 4, !dbg !1815
  call void @llvm.dbg.declare(metadata i8* %foundScheme, metadata !1816, metadata !DIExpression()), !dbg !1817
  store i8 0, i8* %foundScheme, align 1, !dbg !1817
  call void @llvm.dbg.declare(metadata i32* %colonIdx, metadata !1818, metadata !DIExpression()), !dbg !1819
  %20 = load i16*, i16** %trimmedUriSpec, align 8, !dbg !1820
  %call15 = invoke i32 @_ZN11xercesc_2_79XMLString7indexOfEPKtt(i16* %20, i16 zeroext 58)
          to label %invoke.cont14 unwind label %lpad, !dbg !1821

invoke.cont14:                                    ; preds = %if.end13
  store i32 %call15, i32* %colonIdx, align 4, !dbg !1819
  call void @llvm.dbg.declare(metadata i32* %slashIdx, metadata !1822, metadata !DIExpression()), !dbg !1823
  %21 = load i16*, i16** %trimmedUriSpec, align 8, !dbg !1824
  %call17 = invoke i32 @_ZN11xercesc_2_79XMLString7indexOfEPKtt(i16* %21, i16 zeroext 47)
          to label %invoke.cont16 unwind label %lpad, !dbg !1825

invoke.cont16:                                    ; preds = %invoke.cont14
  store i32 %call17, i32* %slashIdx, align 4, !dbg !1823
  call void @llvm.dbg.declare(metadata i32* %queryIdx, metadata !1826, metadata !DIExpression()), !dbg !1827
  %22 = load i16*, i16** %trimmedUriSpec, align 8, !dbg !1828
  %call19 = invoke i32 @_ZN11xercesc_2_79XMLString7indexOfEPKtt(i16* %22, i16 zeroext 63)
          to label %invoke.cont18 unwind label %lpad, !dbg !1829

invoke.cont18:                                    ; preds = %invoke.cont16
  store i32 %call19, i32* %queryIdx, align 4, !dbg !1827
  call void @llvm.dbg.declare(metadata i32* %fragmentIdx, metadata !1830, metadata !DIExpression()), !dbg !1831
  %23 = load i16*, i16** %trimmedUriSpec, align 8, !dbg !1832
  %call21 = invoke i32 @_ZN11xercesc_2_79XMLString7indexOfEPKtt(i16* %23, i16 zeroext 35)
          to label %invoke.cont20 unwind label %lpad, !dbg !1833

invoke.cont20:                                    ; preds = %invoke.cont18
  store i32 %call21, i32* %fragmentIdx, align 4, !dbg !1831
  %24 = load i32, i32* %colonIdx, align 4, !dbg !1834
  %cmp22 = icmp sle i32 %24, 0, !dbg !1836
  br i1 %cmp22, label %if.then35, label %lor.lhs.false23, !dbg !1837

lor.lhs.false23:                                  ; preds = %invoke.cont20
  %25 = load i32, i32* %colonIdx, align 4, !dbg !1838
  %26 = load i32, i32* %slashIdx, align 4, !dbg !1839
  %cmp24 = icmp sgt i32 %25, %26, !dbg !1840
  br i1 %cmp24, label %land.lhs.true25, label %lor.lhs.false27, !dbg !1841

land.lhs.true25:                                  ; preds = %lor.lhs.false23
  %27 = load i32, i32* %slashIdx, align 4, !dbg !1842
  %cmp26 = icmp ne i32 %27, -1, !dbg !1843
  br i1 %cmp26, label %if.then35, label %lor.lhs.false27, !dbg !1844

lor.lhs.false27:                                  ; preds = %land.lhs.true25, %lor.lhs.false23
  %28 = load i32, i32* %colonIdx, align 4, !dbg !1845
  %29 = load i32, i32* %queryIdx, align 4, !dbg !1846
  %cmp28 = icmp sgt i32 %28, %29, !dbg !1847
  br i1 %cmp28, label %land.lhs.true29, label %lor.lhs.false31, !dbg !1848

land.lhs.true29:                                  ; preds = %lor.lhs.false27
  %30 = load i32, i32* %queryIdx, align 4, !dbg !1849
  %cmp30 = icmp ne i32 %30, -1, !dbg !1850
  br i1 %cmp30, label %if.then35, label %lor.lhs.false31, !dbg !1851

lor.lhs.false31:                                  ; preds = %land.lhs.true29, %lor.lhs.false27
  %31 = load i32, i32* %colonIdx, align 4, !dbg !1852
  %32 = load i32, i32* %fragmentIdx, align 4, !dbg !1853
  %cmp32 = icmp sgt i32 %31, %32, !dbg !1854
  br i1 %cmp32, label %land.lhs.true33, label %if.else, !dbg !1855

land.lhs.true33:                                  ; preds = %lor.lhs.false31
  %33 = load i32, i32* %fragmentIdx, align 4, !dbg !1856
  %cmp34 = icmp ne i32 %33, -1, !dbg !1857
  br i1 %cmp34, label %if.then35, label %if.else, !dbg !1858

if.then35:                                        ; preds = %land.lhs.true33, %land.lhs.true29, %land.lhs.true25, %invoke.cont20
  %34 = load i32, i32* %colonIdx, align 4, !dbg !1859
  %cmp36 = icmp eq i32 %34, 0, !dbg !1862
  br i1 %cmp36, label %if.then41, label %lor.lhs.false37, !dbg !1863

lor.lhs.false37:                                  ; preds = %if.then35
  %35 = load %"class.xercesc_2_7::XMLUri"*, %"class.xercesc_2_7::XMLUri"** %baseURI.addr, align 8, !dbg !1864
  %tobool38 = icmp ne %"class.xercesc_2_7::XMLUri"* %35, null, !dbg !1864
  br i1 %tobool38, label %if.end46, label %land.lhs.true39, !dbg !1865

land.lhs.true39:                                  ; preds = %lor.lhs.false37
  %36 = load i32, i32* %fragmentIdx, align 4, !dbg !1866
  %cmp40 = icmp ne i32 %36, 0, !dbg !1867
  br i1 %cmp40, label %if.then41, label %if.end46, !dbg !1868

if.then41:                                        ; preds = %land.lhs.true39, %if.then35
  %exception42 = call i8* @__cxa_allocate_exception(i64 48) #10, !dbg !1869
  %37 = bitcast i8* %exception42 to %"class.xercesc_2_7::MalformedURLException"*, !dbg !1869
  %fMemoryManager43 = getelementptr inbounds %"class.xercesc_2_7::XMLUri", %"class.xercesc_2_7::XMLUri"* %this1, i32 0, i32 10, !dbg !1869
  %38 = load %"class.xercesc_2_7::MemoryManager"*, %"class.xercesc_2_7::MemoryManager"** %fMemoryManager43, align 8, !dbg !1869
  invoke void @_ZN11xercesc_2_721MalformedURLExceptionC2EPKcjNS_10XMLExcepts5CodesEPNS_13MemoryManagerE(%"class.xercesc_2_7::MalformedURLException"* %37, i8* getelementptr inbounds ([11 x i8], [11 x i8]* @.str, i64 0, i64 0), i32 444, i32 272, %"class.xercesc_2_7::MemoryManager"* %38)
          to label %invoke.cont45 unwind label %lpad44, !dbg !1869

invoke.cont45:                                    ; preds = %if.then41
  invoke void @__cxa_throw(i8* %exception42, i8* bitcast ({ i8*, i8*, i8* }* @_ZTIN11xercesc_2_721MalformedURLExceptionE to i8*), i8* bitcast (void (%"class.xercesc_2_7::MalformedURLException"*)* @_ZN11xercesc_2_721MalformedURLExceptionD2Ev to i8*)) #12
          to label %unreachable unwind label %lpad, !dbg !1869

lpad44:                                           ; preds = %if.then41
  %39 = landingpad { i8*, i32 }
          cleanup, !dbg !1871
  %40 = extractvalue { i8*, i32 } %39, 0, !dbg !1871
  store i8* %40, i8** %exn.slot, align 8, !dbg !1871
  %41 = extractvalue { i8*, i32 } %39, 1, !dbg !1871
  store i32 %41, i32* %ehselector.slot, align 4, !dbg !1871
  call void @__cxa_free_exception(i8* %exception42) #10, !dbg !1869
  br label %ehcleanup422, !dbg !1869

if.end46:                                         ; preds = %land.lhs.true39, %lor.lhs.false37
  br label %if.end50, !dbg !1872

if.else:                                          ; preds = %land.lhs.true33, %lor.lhs.false31
  store i8 1, i8* %foundScheme, align 1, !dbg !1873
  %42 = load i16*, i16** %trimmedUriSpec, align 8, !dbg !1875
  invoke void @_ZN11xercesc_2_76XMLUri16initializeSchemeEPKt(%"class.xercesc_2_7::XMLUri"* %this1, i16* %42)
          to label %invoke.cont47 unwind label %lpad, !dbg !1876

invoke.cont47:                                    ; preds = %if.else
  %fScheme = getelementptr inbounds %"class.xercesc_2_7::XMLUri", %"class.xercesc_2_7::XMLUri"* %this1, i32 0, i32 2, !dbg !1877
  %43 = load i16*, i16** %fScheme, align 8, !dbg !1877
  %call49 = invoke i32 @_ZN11xercesc_2_79XMLString9stringLenEPKt(i16* %43)
          to label %invoke.cont48 unwind label %lpad, !dbg !1878

invoke.cont48:                                    ; preds = %invoke.cont47
  %add = add i32 %call49, 1, !dbg !1879
  store i32 %add, i32* %index, align 4, !dbg !1880
  br label %if.end50

if.end50:                                         ; preds = %invoke.cont48, %if.end46
  %44 = load i32, i32* %index, align 4, !dbg !1881
  %45 = load i32, i32* %trimmedUriSpecLen, align 4, !dbg !1883
  %cmp51 = icmp eq i32 %44, %45, !dbg !1884
  br i1 %cmp51, label %if.then56, label %lor.lhs.false52, !dbg !1885

lor.lhs.false52:                                  ; preds = %if.end50
  %46 = load i8, i8* %foundScheme, align 1, !dbg !1886
  %tobool53 = trunc i8 %46 to i1, !dbg !1886
  br i1 %tobool53, label %land.lhs.true54, label %if.end61, !dbg !1887

land.lhs.true54:                                  ; preds = %lor.lhs.false52
  %47 = load i16*, i16** %trimmedUriSpec, align 8, !dbg !1888
  %48 = load i32, i32* %index, align 4, !dbg !1889
  %idxprom = sext i32 %48 to i64, !dbg !1888
  %arrayidx = getelementptr inbounds i16, i16* %47, i64 %idxprom, !dbg !1888
  %49 = load i16, i16* %arrayidx, align 2, !dbg !1888
  %conv = zext i16 %49 to i32, !dbg !1888
  %cmp55 = icmp eq i32 %conv, 35, !dbg !1890
  br i1 %cmp55, label %if.then56, label %if.end61, !dbg !1891

if.then56:                                        ; preds = %land.lhs.true54, %if.end50
  %exception57 = call i8* @__cxa_allocate_exception(i64 48) #10, !dbg !1892
  %50 = bitcast i8* %exception57 to %"class.xercesc_2_7::MalformedURLException"*, !dbg !1892
  %fMemoryManager58 = getelementptr inbounds %"class.xercesc_2_7::XMLUri", %"class.xercesc_2_7::XMLUri"* %this1, i32 0, i32 10, !dbg !1892
  %51 = load %"class.xercesc_2_7::MemoryManager"*, %"class.xercesc_2_7::MemoryManager"** %fMemoryManager58, align 8, !dbg !1892
  invoke void @_ZN11xercesc_2_721MalformedURLExceptionC2EPKcjNS_10XMLExcepts5CodesEPKtS6_S6_S6_PNS_13MemoryManagerE(%"class.xercesc_2_7::MalformedURLException"* %50, i8* getelementptr inbounds ([11 x i8], [11 x i8]* @.str, i64 0, i64 0), i32 460, i32 266, i16* getelementptr inbounds ([5 x i16], [5 x i16]* @_ZN11xercesc_2_7L11errMsg_PATHE, i64 0, i64 0), i16* null, i16* null, i16* null, %"class.xercesc_2_7::MemoryManager"* %51)
          to label %invoke.cont60 unwind label %lpad59, !dbg !1892

invoke.cont60:                                    ; preds = %if.then56
  invoke void @__cxa_throw(i8* %exception57, i8* bitcast ({ i8*, i8*, i8* }* @_ZTIN11xercesc_2_721MalformedURLExceptionE to i8*), i8* bitcast (void (%"class.xercesc_2_7::MalformedURLException"*)* @_ZN11xercesc_2_721MalformedURLExceptionD2Ev to i8*)) #12
          to label %unreachable unwind label %lpad, !dbg !1892

lpad59:                                           ; preds = %if.then56
  %52 = landingpad { i8*, i32 }
          cleanup, !dbg !1894
  %53 = extractvalue { i8*, i32 } %52, 0, !dbg !1894
  store i8* %53, i8** %exn.slot, align 8, !dbg !1894
  %54 = extractvalue { i8*, i32 } %52, 1, !dbg !1894
  store i32 %54, i32* %ehselector.slot, align 4, !dbg !1894
  call void @__cxa_free_exception(i8* %exception57) #10, !dbg !1892
  br label %ehcleanup422, !dbg !1892

if.end61:                                         ; preds = %land.lhs.true54, %lor.lhs.false52
  call void @llvm.dbg.declare(metadata i16** %authUriSpec, metadata !1895, metadata !DIExpression()), !dbg !1896
  %fMemoryManager62 = getelementptr inbounds %"class.xercesc_2_7::XMLUri", %"class.xercesc_2_7::XMLUri"* %this1, i32 0, i32 10, !dbg !1897
  %55 = load %"class.xercesc_2_7::MemoryManager"*, %"class.xercesc_2_7::MemoryManager"** %fMemoryManager62, align 8, !dbg !1897
  %56 = load i32, i32* %trimmedUriSpecLen, align 4, !dbg !1898
  %add63 = add nsw i32 %56, 1, !dbg !1899
  %conv64 = sext i32 %add63 to i64, !dbg !1900
  %mul = mul i64 %conv64, 2, !dbg !1901
  %57 = bitcast %"class.xercesc_2_7::MemoryManager"* %55 to i8* (%"class.xercesc_2_7::MemoryManager"*, i64)***, !dbg !1902
  %vtable = load i8* (%"class.xercesc_2_7::MemoryManager"*, i64)**, i8* (%"class.xercesc_2_7::MemoryManager"*, i64)*** %57, align 8, !dbg !1902
  %vfn = getelementptr inbounds i8* (%"class.xercesc_2_7::MemoryManager"*, i64)*, i8* (%"class.xercesc_2_7::MemoryManager"*, i64)** %vtable, i64 2, !dbg !1902
  %58 = load i8* (%"class.xercesc_2_7::MemoryManager"*, i64)*, i8* (%"class.xercesc_2_7::MemoryManager"*, i64)** %vfn, align 8, !dbg !1902
  %call66 = invoke i8* %58(%"class.xercesc_2_7::MemoryManager"* %55, i64 %mul)
          to label %invoke.cont65 unwind label %lpad, !dbg !1902

invoke.cont65:                                    ; preds = %if.end61
  %59 = bitcast i8* %call66 to i16*, !dbg !1903
  store i16* %59, i16** %authUriSpec, align 8, !dbg !1896
  call void @llvm.dbg.declare(metadata %"class.xercesc_2_7::ArrayJanitor"* %authName, metadata !1904, metadata !DIExpression()), !dbg !1905
  %60 = load i16*, i16** %authUriSpec, align 8, !dbg !1906
  %fMemoryManager67 = getelementptr inbounds %"class.xercesc_2_7::XMLUri", %"class.xercesc_2_7::XMLUri"* %this1, i32 0, i32 10, !dbg !1907
  %61 = load %"class.xercesc_2_7::MemoryManager"*, %"class.xercesc_2_7::MemoryManager"** %fMemoryManager67, align 8, !dbg !1907
  invoke void @_ZN11xercesc_2_712ArrayJanitorItEC2EPtPNS_13MemoryManagerE(%"class.xercesc_2_7::ArrayJanitor"* %authName, i16* %60, %"class.xercesc_2_7::MemoryManager"* %61)
          to label %invoke.cont68 unwind label %lpad, !dbg !1905

invoke.cont68:                                    ; preds = %invoke.cont65
  %62 = load i16*, i16** %authUriSpec, align 8, !dbg !1908
  %63 = load i16*, i16** %trimmedUriSpec, align 8, !dbg !1909
  %64 = load i32, i32* %index, align 4, !dbg !1910
  %65 = load i32, i32* %trimmedUriSpecLen, align 4, !dbg !1911
  %fMemoryManager69 = getelementptr inbounds %"class.xercesc_2_7::XMLUri", %"class.xercesc_2_7::XMLUri"* %this1, i32 0, i32 10, !dbg !1912
  %66 = load %"class.xercesc_2_7::MemoryManager"*, %"class.xercesc_2_7::MemoryManager"** %fMemoryManager69, align 8, !dbg !1912
  invoke void @_ZN11xercesc_2_79XMLString9subStringEPtPKtiiPNS_13MemoryManagerE(i16* %62, i16* %63, i32 %64, i32 %65, %"class.xercesc_2_7::MemoryManager"* %66)
          to label %invoke.cont71 unwind label %lpad70, !dbg !1913

invoke.cont71:                                    ; preds = %invoke.cont68
  %67 = load i32, i32* %index, align 4, !dbg !1914
  %add72 = add nsw i32 %67, 1, !dbg !1916
  %68 = load i32, i32* %trimmedUriSpecLen, align 4, !dbg !1917
  %cmp73 = icmp slt i32 %add72, %68, !dbg !1918
  br i1 %cmp73, label %land.lhs.true74, label %if.end100, !dbg !1919

land.lhs.true74:                                  ; preds = %invoke.cont71
  %69 = load i16*, i16** %authUriSpec, align 8, !dbg !1920
  %call76 = invoke zeroext i1 @_ZN11xercesc_2_79XMLString10startsWithEPKtS2_(i16* %69, i16* getelementptr inbounds ([3 x i16], [3 x i16]* @_ZN11xercesc_2_7L12DOUBLE_SLASHE, i64 0, i64 0))
          to label %invoke.cont75 unwind label %lpad70, !dbg !1921

invoke.cont75:                                    ; preds = %land.lhs.true74
  br i1 %call76, label %if.then77, label %if.end100, !dbg !1922

if.then77:                                        ; preds = %invoke.cont75
  %70 = load i32, i32* %index, align 4, !dbg !1923
  %add78 = add nsw i32 %70, 2, !dbg !1923
  store i32 %add78, i32* %index, align 4, !dbg !1923
  call void @llvm.dbg.declare(metadata i32* %startPos, metadata !1925, metadata !DIExpression()), !dbg !1926
  %71 = load i32, i32* %index, align 4, !dbg !1927
  store i32 %71, i32* %startPos, align 4, !dbg !1926
  call void @llvm.dbg.declare(metadata i16* %testChar, metadata !1928, metadata !DIExpression()), !dbg !1929
  br label %while.cond, !dbg !1930

while.cond:                                       ; preds = %if.end91, %if.then77
  %72 = load i32, i32* %index, align 4, !dbg !1931
  %73 = load i32, i32* %trimmedUriSpecLen, align 4, !dbg !1932
  %cmp79 = icmp slt i32 %72, %73, !dbg !1933
  br i1 %cmp79, label %while.body, label %while.end, !dbg !1930

while.body:                                       ; preds = %while.cond
  %74 = load i16*, i16** %trimmedUriSpec, align 8, !dbg !1934
  %75 = load i32, i32* %index, align 4, !dbg !1936
  %idxprom80 = sext i32 %75 to i64, !dbg !1934
  %arrayidx81 = getelementptr inbounds i16, i16* %74, i64 %idxprom80, !dbg !1934
  %76 = load i16, i16* %arrayidx81, align 2, !dbg !1934
  store i16 %76, i16* %testChar, align 2, !dbg !1937
  %77 = load i16, i16* %testChar, align 2, !dbg !1938
  %conv82 = zext i16 %77 to i32, !dbg !1938
  %cmp83 = icmp eq i32 %conv82, 47, !dbg !1940
  br i1 %cmp83, label %if.then90, label %lor.lhs.false84, !dbg !1941

lor.lhs.false84:                                  ; preds = %while.body
  %78 = load i16, i16* %testChar, align 2, !dbg !1942
  %conv85 = zext i16 %78 to i32, !dbg !1942
  %cmp86 = icmp eq i32 %conv85, 63, !dbg !1943
  br i1 %cmp86, label %if.then90, label %lor.lhs.false87, !dbg !1944

lor.lhs.false87:                                  ; preds = %lor.lhs.false84
  %79 = load i16, i16* %testChar, align 2, !dbg !1945
  %conv88 = zext i16 %79 to i32, !dbg !1945
  %cmp89 = icmp eq i32 %conv88, 35, !dbg !1946
  br i1 %cmp89, label %if.then90, label %if.end91, !dbg !1947

if.then90:                                        ; preds = %lor.lhs.false87, %lor.lhs.false84, %while.body
  br label %while.end, !dbg !1948

lpad70:                                           ; preds = %invoke.cont110, %if.end103, %if.else97, %invoke.cont95, %if.then93, %land.lhs.true74, %invoke.cont68
  %80 = landingpad { i8*, i32 }
          cleanup, !dbg !1802
  %81 = extractvalue { i8*, i32 } %80, 0, !dbg !1802
  store i8* %81, i8** %exn.slot, align 8, !dbg !1802
  %82 = extractvalue { i8*, i32 } %80, 1, !dbg !1802
  store i32 %82, i32* %ehselector.slot, align 4, !dbg !1802
  br label %ehcleanup420, !dbg !1802

if.end91:                                         ; preds = %lor.lhs.false87
  %83 = load i32, i32* %index, align 4, !dbg !1950
  %inc = add nsw i32 %83, 1, !dbg !1950
  store i32 %inc, i32* %index, align 4, !dbg !1950
  br label %while.cond, !dbg !1930, !llvm.loop !1951

while.end:                                        ; preds = %if.then90, %while.cond
  %84 = load i32, i32* %index, align 4, !dbg !1953
  %85 = load i32, i32* %startPos, align 4, !dbg !1955
  %cmp92 = icmp sgt i32 %84, %85, !dbg !1956
  br i1 %cmp92, label %if.then93, label %if.else97, !dbg !1957

if.then93:                                        ; preds = %while.end
  %86 = load i16*, i16** %authUriSpec, align 8, !dbg !1958
  %87 = load i16*, i16** %trimmedUriSpec, align 8, !dbg !1960
  %88 = load i32, i32* %startPos, align 4, !dbg !1961
  %89 = load i32, i32* %index, align 4, !dbg !1962
  %fMemoryManager94 = getelementptr inbounds %"class.xercesc_2_7::XMLUri", %"class.xercesc_2_7::XMLUri"* %this1, i32 0, i32 10, !dbg !1963
  %90 = load %"class.xercesc_2_7::MemoryManager"*, %"class.xercesc_2_7::MemoryManager"** %fMemoryManager94, align 8, !dbg !1963
  invoke void @_ZN11xercesc_2_79XMLString9subStringEPtPKtiiPNS_13MemoryManagerE(i16* %86, i16* %87, i32 %88, i32 %89, %"class.xercesc_2_7::MemoryManager"* %90)
          to label %invoke.cont95 unwind label %lpad70, !dbg !1964

invoke.cont95:                                    ; preds = %if.then93
  %91 = load i16*, i16** %authUriSpec, align 8, !dbg !1965
  invoke void @_ZN11xercesc_2_76XMLUri19initializeAuthorityEPKt(%"class.xercesc_2_7::XMLUri"* %this1, i16* %91)
          to label %invoke.cont96 unwind label %lpad70, !dbg !1966

invoke.cont96:                                    ; preds = %invoke.cont95
  br label %if.end99, !dbg !1967

if.else97:                                        ; preds = %while.end
  invoke void @_ZN11xercesc_2_76XMLUri7setHostEPKt(%"class.xercesc_2_7::XMLUri"* %this1, i16* getelementptr inbounds ([0 x i16], [0 x i16]* @_ZN11xercesc_2_76XMLUni15fgZeroLenStringE, i64 0, i64 0))
          to label %invoke.cont98 unwind label %lpad70, !dbg !1968

invoke.cont98:                                    ; preds = %if.else97
  br label %if.end99

if.end99:                                         ; preds = %invoke.cont98, %invoke.cont96
  br label %if.end100, !dbg !1970

if.end100:                                        ; preds = %if.end99, %invoke.cont75, %invoke.cont71
  %92 = load i32, i32* %index, align 4, !dbg !1971
  %93 = load i32, i32* %trimmedUriSpecLen, align 4, !dbg !1973
  %cmp101 = icmp sge i32 %92, %93, !dbg !1974
  br i1 %cmp101, label %if.then102, label %if.end103, !dbg !1975

if.then102:                                       ; preds = %if.end100
  store i32 1, i32* %cleanup.dest.slot, align 4
  br label %cleanup419, !dbg !1976

if.end103:                                        ; preds = %if.end100
  call void @llvm.dbg.declare(metadata i16** %pathUriSpec, metadata !1977, metadata !DIExpression()), !dbg !1978
  %fMemoryManager104 = getelementptr inbounds %"class.xercesc_2_7::XMLUri", %"class.xercesc_2_7::XMLUri"* %this1, i32 0, i32 10, !dbg !1979
  %94 = load %"class.xercesc_2_7::MemoryManager"*, %"class.xercesc_2_7::MemoryManager"** %fMemoryManager104, align 8, !dbg !1979
  %95 = load i32, i32* %trimmedUriSpecLen, align 4, !dbg !1980
  %add105 = add nsw i32 %95, 1, !dbg !1981
  %conv106 = sext i32 %add105 to i64, !dbg !1982
  %mul107 = mul i64 %conv106, 2, !dbg !1983
  %96 = bitcast %"class.xercesc_2_7::MemoryManager"* %94 to i8* (%"class.xercesc_2_7::MemoryManager"*, i64)***, !dbg !1984
  %vtable108 = load i8* (%"class.xercesc_2_7::MemoryManager"*, i64)**, i8* (%"class.xercesc_2_7::MemoryManager"*, i64)*** %96, align 8, !dbg !1984
  %vfn109 = getelementptr inbounds i8* (%"class.xercesc_2_7::MemoryManager"*, i64)*, i8* (%"class.xercesc_2_7::MemoryManager"*, i64)** %vtable108, i64 2, !dbg !1984
  %97 = load i8* (%"class.xercesc_2_7::MemoryManager"*, i64)*, i8* (%"class.xercesc_2_7::MemoryManager"*, i64)** %vfn109, align 8, !dbg !1984
  %call111 = invoke i8* %97(%"class.xercesc_2_7::MemoryManager"* %94, i64 %mul107)
          to label %invoke.cont110 unwind label %lpad70, !dbg !1984

invoke.cont110:                                   ; preds = %if.end103
  %98 = bitcast i8* %call111 to i16*, !dbg !1985
  store i16* %98, i16** %pathUriSpec, align 8, !dbg !1978
  call void @llvm.dbg.declare(metadata %"class.xercesc_2_7::ArrayJanitor"* %pathUriSpecName, metadata !1986, metadata !DIExpression()), !dbg !1987
  %99 = load i16*, i16** %pathUriSpec, align 8, !dbg !1988
  %fMemoryManager112 = getelementptr inbounds %"class.xercesc_2_7::XMLUri", %"class.xercesc_2_7::XMLUri"* %this1, i32 0, i32 10, !dbg !1989
  %100 = load %"class.xercesc_2_7::MemoryManager"*, %"class.xercesc_2_7::MemoryManager"** %fMemoryManager112, align 8, !dbg !1989
  invoke void @_ZN11xercesc_2_712ArrayJanitorItEC2EPtPNS_13MemoryManagerE(%"class.xercesc_2_7::ArrayJanitor"* %pathUriSpecName, i16* %99, %"class.xercesc_2_7::MemoryManager"* %100)
          to label %invoke.cont113 unwind label %lpad70, !dbg !1987

invoke.cont113:                                   ; preds = %invoke.cont110
  %101 = load i16*, i16** %pathUriSpec, align 8, !dbg !1990
  %102 = load i16*, i16** %trimmedUriSpec, align 8, !dbg !1991
  %103 = load i32, i32* %index, align 4, !dbg !1992
  %104 = load i32, i32* %trimmedUriSpecLen, align 4, !dbg !1993
  %fMemoryManager114 = getelementptr inbounds %"class.xercesc_2_7::XMLUri", %"class.xercesc_2_7::XMLUri"* %this1, i32 0, i32 10, !dbg !1994
  %105 = load %"class.xercesc_2_7::MemoryManager"*, %"class.xercesc_2_7::MemoryManager"** %fMemoryManager114, align 8, !dbg !1994
  invoke void @_ZN11xercesc_2_79XMLString9subStringEPtPKtiiPNS_13MemoryManagerE(i16* %101, i16* %102, i32 %103, i32 %104, %"class.xercesc_2_7::MemoryManager"* %105)
          to label %invoke.cont116 unwind label %lpad115, !dbg !1995

invoke.cont116:                                   ; preds = %invoke.cont113
  %106 = load i16*, i16** %pathUriSpec, align 8, !dbg !1996
  invoke void @_ZN11xercesc_2_76XMLUri14initializePathEPKt(%"class.xercesc_2_7::XMLUri"* %this1, i16* %106)
          to label %invoke.cont117 unwind label %lpad115, !dbg !1997

invoke.cont117:                                   ; preds = %invoke.cont116
  %107 = load %"class.xercesc_2_7::XMLUri"*, %"class.xercesc_2_7::XMLUri"** %baseURI.addr, align 8, !dbg !1998
  %tobool118 = icmp ne %"class.xercesc_2_7::XMLUri"* %107, null, !dbg !1998
  br i1 %tobool118, label %if.then119, label %if.end417, !dbg !2000

if.then119:                                       ; preds = %invoke.cont117
  %fPath = getelementptr inbounds %"class.xercesc_2_7::XMLUri", %"class.xercesc_2_7::XMLUri"* %this1, i32 0, i32 6, !dbg !2001
  %108 = load i16*, i16** %fPath, align 8, !dbg !2001
  %tobool120 = icmp ne i16* %108, null, !dbg !2001
  br i1 %tobool120, label %lor.lhs.false121, label %land.lhs.true124, !dbg !2004

lor.lhs.false121:                                 ; preds = %if.then119
  %fPath122 = getelementptr inbounds %"class.xercesc_2_7::XMLUri", %"class.xercesc_2_7::XMLUri"* %this1, i32 0, i32 6, !dbg !2005
  %109 = load i16*, i16** %fPath122, align 8, !dbg !2005
  %110 = load i16, i16* %109, align 2, !dbg !2006
  %tobool123 = icmp ne i16 %110, 0, !dbg !2006
  br i1 %tobool123, label %if.end182, label %land.lhs.true124, !dbg !2007

land.lhs.true124:                                 ; preds = %lor.lhs.false121, %if.then119
  %fScheme125 = getelementptr inbounds %"class.xercesc_2_7::XMLUri", %"class.xercesc_2_7::XMLUri"* %this1, i32 0, i32 2, !dbg !2008
  %111 = load i16*, i16** %fScheme125, align 8, !dbg !2008
  %cmp126 = icmp eq i16* %111, null, !dbg !2009
  br i1 %cmp126, label %land.lhs.true127, label %if.end182, !dbg !2010

land.lhs.true127:                                 ; preds = %land.lhs.true124
  %fHost = getelementptr inbounds %"class.xercesc_2_7::XMLUri", %"class.xercesc_2_7::XMLUri"* %this1, i32 0, i32 4, !dbg !2011
  %112 = load i16*, i16** %fHost, align 8, !dbg !2011
  %cmp128 = icmp eq i16* %112, null, !dbg !2012
  br i1 %cmp128, label %land.lhs.true129, label %if.end182, !dbg !2013

land.lhs.true129:                                 ; preds = %land.lhs.true127
  %fRegAuth = getelementptr inbounds %"class.xercesc_2_7::XMLUri", %"class.xercesc_2_7::XMLUri"* %this1, i32 0, i32 5, !dbg !2014
  %113 = load i16*, i16** %fRegAuth, align 8, !dbg !2014
  %cmp130 = icmp eq i16* %113, null, !dbg !2015
  br i1 %cmp130, label %if.then131, label %if.end182, !dbg !2016

if.then131:                                       ; preds = %land.lhs.true129
  %114 = load %"class.xercesc_2_7::XMLUri"*, %"class.xercesc_2_7::XMLUri"** %baseURI.addr, align 8, !dbg !2017
  %call133 = invoke i16* @_ZNK11xercesc_2_76XMLUri9getSchemeEv(%"class.xercesc_2_7::XMLUri"* %114)
          to label %invoke.cont132 unwind label %lpad115, !dbg !2019

invoke.cont132:                                   ; preds = %if.then131
  %fMemoryManager134 = getelementptr inbounds %"class.xercesc_2_7::XMLUri", %"class.xercesc_2_7::XMLUri"* %this1, i32 0, i32 10, !dbg !2020
  %115 = load %"class.xercesc_2_7::MemoryManager"*, %"class.xercesc_2_7::MemoryManager"** %fMemoryManager134, align 8, !dbg !2020
  %call136 = invoke i16* @_ZN11xercesc_2_79XMLString9replicateEPKtPNS_13MemoryManagerE(i16* %call133, %"class.xercesc_2_7::MemoryManager"* %115)
          to label %invoke.cont135 unwind label %lpad115, !dbg !2021

invoke.cont135:                                   ; preds = %invoke.cont132
  %fScheme137 = getelementptr inbounds %"class.xercesc_2_7::XMLUri", %"class.xercesc_2_7::XMLUri"* %this1, i32 0, i32 2, !dbg !2022
  store i16* %call136, i16** %fScheme137, align 8, !dbg !2023
  %fMemoryManager138 = getelementptr inbounds %"class.xercesc_2_7::XMLUri", %"class.xercesc_2_7::XMLUri"* %this1, i32 0, i32 10, !dbg !2024
  %116 = load %"class.xercesc_2_7::MemoryManager"*, %"class.xercesc_2_7::MemoryManager"** %fMemoryManager138, align 8, !dbg !2024
  %fUserInfo = getelementptr inbounds %"class.xercesc_2_7::XMLUri", %"class.xercesc_2_7::XMLUri"* %this1, i32 0, i32 3, !dbg !2025
  %117 = load i16*, i16** %fUserInfo, align 8, !dbg !2025
  %118 = bitcast i16* %117 to i8*, !dbg !2025
  %119 = bitcast %"class.xercesc_2_7::MemoryManager"* %116 to void (%"class.xercesc_2_7::MemoryManager"*, i8*)***, !dbg !2026
  %vtable139 = load void (%"class.xercesc_2_7::MemoryManager"*, i8*)**, void (%"class.xercesc_2_7::MemoryManager"*, i8*)*** %119, align 8, !dbg !2026
  %vfn140 = getelementptr inbounds void (%"class.xercesc_2_7::MemoryManager"*, i8*)*, void (%"class.xercesc_2_7::MemoryManager"*, i8*)** %vtable139, i64 3, !dbg !2026
  %120 = load void (%"class.xercesc_2_7::MemoryManager"*, i8*)*, void (%"class.xercesc_2_7::MemoryManager"*, i8*)** %vfn140, align 8, !dbg !2026
  invoke void %120(%"class.xercesc_2_7::MemoryManager"* %116, i8* %118)
          to label %invoke.cont141 unwind label %lpad115, !dbg !2026

invoke.cont141:                                   ; preds = %invoke.cont135
  %121 = load %"class.xercesc_2_7::XMLUri"*, %"class.xercesc_2_7::XMLUri"** %baseURI.addr, align 8, !dbg !2027
  %call143 = invoke i16* @_ZNK11xercesc_2_76XMLUri11getUserInfoEv(%"class.xercesc_2_7::XMLUri"* %121)
          to label %invoke.cont142 unwind label %lpad115, !dbg !2028

invoke.cont142:                                   ; preds = %invoke.cont141
  %fMemoryManager144 = getelementptr inbounds %"class.xercesc_2_7::XMLUri", %"class.xercesc_2_7::XMLUri"* %this1, i32 0, i32 10, !dbg !2029
  %122 = load %"class.xercesc_2_7::MemoryManager"*, %"class.xercesc_2_7::MemoryManager"** %fMemoryManager144, align 8, !dbg !2029
  %call146 = invoke i16* @_ZN11xercesc_2_79XMLString9replicateEPKtPNS_13MemoryManagerE(i16* %call143, %"class.xercesc_2_7::MemoryManager"* %122)
          to label %invoke.cont145 unwind label %lpad115, !dbg !2030

invoke.cont145:                                   ; preds = %invoke.cont142
  %fUserInfo147 = getelementptr inbounds %"class.xercesc_2_7::XMLUri", %"class.xercesc_2_7::XMLUri"* %this1, i32 0, i32 3, !dbg !2031
  store i16* %call146, i16** %fUserInfo147, align 8, !dbg !2032
  %123 = load %"class.xercesc_2_7::XMLUri"*, %"class.xercesc_2_7::XMLUri"** %baseURI.addr, align 8, !dbg !2033
  %call149 = invoke i16* @_ZNK11xercesc_2_76XMLUri7getHostEv(%"class.xercesc_2_7::XMLUri"* %123)
          to label %invoke.cont148 unwind label %lpad115, !dbg !2034

invoke.cont148:                                   ; preds = %invoke.cont145
  %fMemoryManager150 = getelementptr inbounds %"class.xercesc_2_7::XMLUri", %"class.xercesc_2_7::XMLUri"* %this1, i32 0, i32 10, !dbg !2035
  %124 = load %"class.xercesc_2_7::MemoryManager"*, %"class.xercesc_2_7::MemoryManager"** %fMemoryManager150, align 8, !dbg !2035
  %call152 = invoke i16* @_ZN11xercesc_2_79XMLString9replicateEPKtPNS_13MemoryManagerE(i16* %call149, %"class.xercesc_2_7::MemoryManager"* %124)
          to label %invoke.cont151 unwind label %lpad115, !dbg !2036

invoke.cont151:                                   ; preds = %invoke.cont148
  %fHost153 = getelementptr inbounds %"class.xercesc_2_7::XMLUri", %"class.xercesc_2_7::XMLUri"* %this1, i32 0, i32 4, !dbg !2037
  store i16* %call152, i16** %fHost153, align 8, !dbg !2038
  %125 = load %"class.xercesc_2_7::XMLUri"*, %"class.xercesc_2_7::XMLUri"** %baseURI.addr, align 8, !dbg !2039
  %call155 = invoke i32 @_ZNK11xercesc_2_76XMLUri7getPortEv(%"class.xercesc_2_7::XMLUri"* %125)
          to label %invoke.cont154 unwind label %lpad115, !dbg !2040

invoke.cont154:                                   ; preds = %invoke.cont151
  %fPort = getelementptr inbounds %"class.xercesc_2_7::XMLUri", %"class.xercesc_2_7::XMLUri"* %this1, i32 0, i32 1, !dbg !2041
  store i32 %call155, i32* %fPort, align 8, !dbg !2042
  %126 = load %"class.xercesc_2_7::XMLUri"*, %"class.xercesc_2_7::XMLUri"** %baseURI.addr, align 8, !dbg !2043
  %call157 = invoke i16* @_ZNK11xercesc_2_76XMLUri20getRegBasedAuthorityEv(%"class.xercesc_2_7::XMLUri"* %126)
          to label %invoke.cont156 unwind label %lpad115, !dbg !2044

invoke.cont156:                                   ; preds = %invoke.cont154
  %fMemoryManager158 = getelementptr inbounds %"class.xercesc_2_7::XMLUri", %"class.xercesc_2_7::XMLUri"* %this1, i32 0, i32 10, !dbg !2045
  %127 = load %"class.xercesc_2_7::MemoryManager"*, %"class.xercesc_2_7::MemoryManager"** %fMemoryManager158, align 8, !dbg !2045
  %call160 = invoke i16* @_ZN11xercesc_2_79XMLString9replicateEPKtPNS_13MemoryManagerE(i16* %call157, %"class.xercesc_2_7::MemoryManager"* %127)
          to label %invoke.cont159 unwind label %lpad115, !dbg !2046

invoke.cont159:                                   ; preds = %invoke.cont156
  %fRegAuth161 = getelementptr inbounds %"class.xercesc_2_7::XMLUri", %"class.xercesc_2_7::XMLUri"* %this1, i32 0, i32 5, !dbg !2047
  store i16* %call160, i16** %fRegAuth161, align 8, !dbg !2048
  %fMemoryManager162 = getelementptr inbounds %"class.xercesc_2_7::XMLUri", %"class.xercesc_2_7::XMLUri"* %this1, i32 0, i32 10, !dbg !2049
  %128 = load %"class.xercesc_2_7::MemoryManager"*, %"class.xercesc_2_7::MemoryManager"** %fMemoryManager162, align 8, !dbg !2049
  %fPath163 = getelementptr inbounds %"class.xercesc_2_7::XMLUri", %"class.xercesc_2_7::XMLUri"* %this1, i32 0, i32 6, !dbg !2050
  %129 = load i16*, i16** %fPath163, align 8, !dbg !2050
  %130 = bitcast i16* %129 to i8*, !dbg !2050
  %131 = bitcast %"class.xercesc_2_7::MemoryManager"* %128 to void (%"class.xercesc_2_7::MemoryManager"*, i8*)***, !dbg !2051
  %vtable164 = load void (%"class.xercesc_2_7::MemoryManager"*, i8*)**, void (%"class.xercesc_2_7::MemoryManager"*, i8*)*** %131, align 8, !dbg !2051
  %vfn165 = getelementptr inbounds void (%"class.xercesc_2_7::MemoryManager"*, i8*)*, void (%"class.xercesc_2_7::MemoryManager"*, i8*)** %vtable164, i64 3, !dbg !2051
  %132 = load void (%"class.xercesc_2_7::MemoryManager"*, i8*)*, void (%"class.xercesc_2_7::MemoryManager"*, i8*)** %vfn165, align 8, !dbg !2051
  invoke void %132(%"class.xercesc_2_7::MemoryManager"* %128, i8* %130)
          to label %invoke.cont166 unwind label %lpad115, !dbg !2051

invoke.cont166:                                   ; preds = %invoke.cont159
  %133 = load %"class.xercesc_2_7::XMLUri"*, %"class.xercesc_2_7::XMLUri"** %baseURI.addr, align 8, !dbg !2052
  %call168 = invoke i16* @_ZNK11xercesc_2_76XMLUri7getPathEv(%"class.xercesc_2_7::XMLUri"* %133)
          to label %invoke.cont167 unwind label %lpad115, !dbg !2053

invoke.cont167:                                   ; preds = %invoke.cont166
  %fMemoryManager169 = getelementptr inbounds %"class.xercesc_2_7::XMLUri", %"class.xercesc_2_7::XMLUri"* %this1, i32 0, i32 10, !dbg !2054
  %134 = load %"class.xercesc_2_7::MemoryManager"*, %"class.xercesc_2_7::MemoryManager"** %fMemoryManager169, align 8, !dbg !2054
  %call171 = invoke i16* @_ZN11xercesc_2_79XMLString9replicateEPKtPNS_13MemoryManagerE(i16* %call168, %"class.xercesc_2_7::MemoryManager"* %134)
          to label %invoke.cont170 unwind label %lpad115, !dbg !2055

invoke.cont170:                                   ; preds = %invoke.cont167
  %fPath172 = getelementptr inbounds %"class.xercesc_2_7::XMLUri", %"class.xercesc_2_7::XMLUri"* %this1, i32 0, i32 6, !dbg !2056
  store i16* %call171, i16** %fPath172, align 8, !dbg !2057
  %fQueryString = getelementptr inbounds %"class.xercesc_2_7::XMLUri", %"class.xercesc_2_7::XMLUri"* %this1, i32 0, i32 7, !dbg !2058
  %135 = load i16*, i16** %fQueryString, align 8, !dbg !2058
  %tobool173 = icmp ne i16* %135, null, !dbg !2058
  br i1 %tobool173, label %if.end181, label %if.then174, !dbg !2060

if.then174:                                       ; preds = %invoke.cont170
  %136 = load %"class.xercesc_2_7::XMLUri"*, %"class.xercesc_2_7::XMLUri"** %baseURI.addr, align 8, !dbg !2061
  %call176 = invoke i16* @_ZNK11xercesc_2_76XMLUri14getQueryStringEv(%"class.xercesc_2_7::XMLUri"* %136)
          to label %invoke.cont175 unwind label %lpad115, !dbg !2063

invoke.cont175:                                   ; preds = %if.then174
  %fMemoryManager177 = getelementptr inbounds %"class.xercesc_2_7::XMLUri", %"class.xercesc_2_7::XMLUri"* %this1, i32 0, i32 10, !dbg !2064
  %137 = load %"class.xercesc_2_7::MemoryManager"*, %"class.xercesc_2_7::MemoryManager"** %fMemoryManager177, align 8, !dbg !2064
  %call179 = invoke i16* @_ZN11xercesc_2_79XMLString9replicateEPKtPNS_13MemoryManagerE(i16* %call176, %"class.xercesc_2_7::MemoryManager"* %137)
          to label %invoke.cont178 unwind label %lpad115, !dbg !2065

invoke.cont178:                                   ; preds = %invoke.cont175
  %fQueryString180 = getelementptr inbounds %"class.xercesc_2_7::XMLUri", %"class.xercesc_2_7::XMLUri"* %this1, i32 0, i32 7, !dbg !2066
  store i16* %call179, i16** %fQueryString180, align 8, !dbg !2067
  br label %if.end181, !dbg !2068

lpad115:                                          ; preds = %invoke.cont242, %invoke.cont239, %if.end238, %land.lhs.true233, %invoke.cont220, %invoke.cont217, %invoke.cont214, %invoke.cont211, %invoke.cont208, %invoke.cont205, %invoke.cont204, %if.then199, %invoke.cont186, %if.then185, %invoke.cont175, %if.then174, %invoke.cont167, %invoke.cont166, %invoke.cont159, %invoke.cont156, %invoke.cont154, %invoke.cont151, %invoke.cont148, %invoke.cont145, %invoke.cont142, %invoke.cont141, %invoke.cont135, %invoke.cont132, %if.then131, %invoke.cont116, %invoke.cont113
  %138 = landingpad { i8*, i32 }
          cleanup, !dbg !1802
  %139 = extractvalue { i8*, i32 } %138, 0, !dbg !1802
  store i8* %139, i8** %exn.slot, align 8, !dbg !1802
  %140 = extractvalue { i8*, i32 } %138, 1, !dbg !1802
  store i32 %140, i32* %ehselector.slot, align 4, !dbg !1802
  br label %ehcleanup418, !dbg !1802

if.end181:                                        ; preds = %invoke.cont178, %invoke.cont170
  store i32 1, i32* %cleanup.dest.slot, align 4
  br label %cleanup, !dbg !2069

if.end182:                                        ; preds = %land.lhs.true129, %land.lhs.true127, %land.lhs.true124, %lor.lhs.false121
  %fScheme183 = getelementptr inbounds %"class.xercesc_2_7::XMLUri", %"class.xercesc_2_7::XMLUri"* %this1, i32 0, i32 2, !dbg !2070
  %141 = load i16*, i16** %fScheme183, align 8, !dbg !2070
  %cmp184 = icmp eq i16* %141, null, !dbg !2072
  br i1 %cmp184, label %if.then185, label %if.else192, !dbg !2073

if.then185:                                       ; preds = %if.end182
  %142 = load %"class.xercesc_2_7::XMLUri"*, %"class.xercesc_2_7::XMLUri"** %baseURI.addr, align 8, !dbg !2074
  %call187 = invoke i16* @_ZNK11xercesc_2_76XMLUri9getSchemeEv(%"class.xercesc_2_7::XMLUri"* %142)
          to label %invoke.cont186 unwind label %lpad115, !dbg !2076

invoke.cont186:                                   ; preds = %if.then185
  %fMemoryManager188 = getelementptr inbounds %"class.xercesc_2_7::XMLUri", %"class.xercesc_2_7::XMLUri"* %this1, i32 0, i32 10, !dbg !2077
  %143 = load %"class.xercesc_2_7::MemoryManager"*, %"class.xercesc_2_7::MemoryManager"** %fMemoryManager188, align 8, !dbg !2077
  %call190 = invoke i16* @_ZN11xercesc_2_79XMLString9replicateEPKtPNS_13MemoryManagerE(i16* %call187, %"class.xercesc_2_7::MemoryManager"* %143)
          to label %invoke.cont189 unwind label %lpad115, !dbg !2078

invoke.cont189:                                   ; preds = %invoke.cont186
  %fScheme191 = getelementptr inbounds %"class.xercesc_2_7::XMLUri", %"class.xercesc_2_7::XMLUri"* %this1, i32 0, i32 2, !dbg !2079
  store i16* %call190, i16** %fScheme191, align 8, !dbg !2080
  br label %if.end193, !dbg !2081

if.else192:                                       ; preds = %if.end182
  store i32 1, i32* %cleanup.dest.slot, align 4
  br label %cleanup, !dbg !2082

if.end193:                                        ; preds = %invoke.cont189
  %fHost194 = getelementptr inbounds %"class.xercesc_2_7::XMLUri", %"class.xercesc_2_7::XMLUri"* %this1, i32 0, i32 4, !dbg !2084
  %144 = load i16*, i16** %fHost194, align 8, !dbg !2084
  %cmp195 = icmp eq i16* %144, null, !dbg !2086
  br i1 %cmp195, label %land.lhs.true196, label %if.else226, !dbg !2087

land.lhs.true196:                                 ; preds = %if.end193
  %fRegAuth197 = getelementptr inbounds %"class.xercesc_2_7::XMLUri", %"class.xercesc_2_7::XMLUri"* %this1, i32 0, i32 5, !dbg !2088
  %145 = load i16*, i16** %fRegAuth197, align 8, !dbg !2088
  %cmp198 = icmp eq i16* %145, null, !dbg !2089
  br i1 %cmp198, label %if.then199, label %if.else226, !dbg !2090

if.then199:                                       ; preds = %land.lhs.true196
  %fMemoryManager200 = getelementptr inbounds %"class.xercesc_2_7::XMLUri", %"class.xercesc_2_7::XMLUri"* %this1, i32 0, i32 10, !dbg !2091
  %146 = load %"class.xercesc_2_7::MemoryManager"*, %"class.xercesc_2_7::MemoryManager"** %fMemoryManager200, align 8, !dbg !2091
  %fUserInfo201 = getelementptr inbounds %"class.xercesc_2_7::XMLUri", %"class.xercesc_2_7::XMLUri"* %this1, i32 0, i32 3, !dbg !2093
  %147 = load i16*, i16** %fUserInfo201, align 8, !dbg !2093
  %148 = bitcast i16* %147 to i8*, !dbg !2093
  %149 = bitcast %"class.xercesc_2_7::MemoryManager"* %146 to void (%"class.xercesc_2_7::MemoryManager"*, i8*)***, !dbg !2094
  %vtable202 = load void (%"class.xercesc_2_7::MemoryManager"*, i8*)**, void (%"class.xercesc_2_7::MemoryManager"*, i8*)*** %149, align 8, !dbg !2094
  %vfn203 = getelementptr inbounds void (%"class.xercesc_2_7::MemoryManager"*, i8*)*, void (%"class.xercesc_2_7::MemoryManager"*, i8*)** %vtable202, i64 3, !dbg !2094
  %150 = load void (%"class.xercesc_2_7::MemoryManager"*, i8*)*, void (%"class.xercesc_2_7::MemoryManager"*, i8*)** %vfn203, align 8, !dbg !2094
  invoke void %150(%"class.xercesc_2_7::MemoryManager"* %146, i8* %148)
          to label %invoke.cont204 unwind label %lpad115, !dbg !2094

invoke.cont204:                                   ; preds = %if.then199
  %151 = load %"class.xercesc_2_7::XMLUri"*, %"class.xercesc_2_7::XMLUri"** %baseURI.addr, align 8, !dbg !2095
  %call206 = invoke i16* @_ZNK11xercesc_2_76XMLUri11getUserInfoEv(%"class.xercesc_2_7::XMLUri"* %151)
          to label %invoke.cont205 unwind label %lpad115, !dbg !2096

invoke.cont205:                                   ; preds = %invoke.cont204
  %fMemoryManager207 = getelementptr inbounds %"class.xercesc_2_7::XMLUri", %"class.xercesc_2_7::XMLUri"* %this1, i32 0, i32 10, !dbg !2097
  %152 = load %"class.xercesc_2_7::MemoryManager"*, %"class.xercesc_2_7::MemoryManager"** %fMemoryManager207, align 8, !dbg !2097
  %call209 = invoke i16* @_ZN11xercesc_2_79XMLString9replicateEPKtPNS_13MemoryManagerE(i16* %call206, %"class.xercesc_2_7::MemoryManager"* %152)
          to label %invoke.cont208 unwind label %lpad115, !dbg !2098

invoke.cont208:                                   ; preds = %invoke.cont205
  %fUserInfo210 = getelementptr inbounds %"class.xercesc_2_7::XMLUri", %"class.xercesc_2_7::XMLUri"* %this1, i32 0, i32 3, !dbg !2099
  store i16* %call209, i16** %fUserInfo210, align 8, !dbg !2100
  %153 = load %"class.xercesc_2_7::XMLUri"*, %"class.xercesc_2_7::XMLUri"** %baseURI.addr, align 8, !dbg !2101
  %call212 = invoke i16* @_ZNK11xercesc_2_76XMLUri7getHostEv(%"class.xercesc_2_7::XMLUri"* %153)
          to label %invoke.cont211 unwind label %lpad115, !dbg !2102

invoke.cont211:                                   ; preds = %invoke.cont208
  %fMemoryManager213 = getelementptr inbounds %"class.xercesc_2_7::XMLUri", %"class.xercesc_2_7::XMLUri"* %this1, i32 0, i32 10, !dbg !2103
  %154 = load %"class.xercesc_2_7::MemoryManager"*, %"class.xercesc_2_7::MemoryManager"** %fMemoryManager213, align 8, !dbg !2103
  %call215 = invoke i16* @_ZN11xercesc_2_79XMLString9replicateEPKtPNS_13MemoryManagerE(i16* %call212, %"class.xercesc_2_7::MemoryManager"* %154)
          to label %invoke.cont214 unwind label %lpad115, !dbg !2104

invoke.cont214:                                   ; preds = %invoke.cont211
  %fHost216 = getelementptr inbounds %"class.xercesc_2_7::XMLUri", %"class.xercesc_2_7::XMLUri"* %this1, i32 0, i32 4, !dbg !2105
  store i16* %call215, i16** %fHost216, align 8, !dbg !2106
  %155 = load %"class.xercesc_2_7::XMLUri"*, %"class.xercesc_2_7::XMLUri"** %baseURI.addr, align 8, !dbg !2107
  %call218 = invoke i32 @_ZNK11xercesc_2_76XMLUri7getPortEv(%"class.xercesc_2_7::XMLUri"* %155)
          to label %invoke.cont217 unwind label %lpad115, !dbg !2108

invoke.cont217:                                   ; preds = %invoke.cont214
  %fPort219 = getelementptr inbounds %"class.xercesc_2_7::XMLUri", %"class.xercesc_2_7::XMLUri"* %this1, i32 0, i32 1, !dbg !2109
  store i32 %call218, i32* %fPort219, align 8, !dbg !2110
  %156 = load %"class.xercesc_2_7::XMLUri"*, %"class.xercesc_2_7::XMLUri"** %baseURI.addr, align 8, !dbg !2111
  %call221 = invoke i16* @_ZNK11xercesc_2_76XMLUri20getRegBasedAuthorityEv(%"class.xercesc_2_7::XMLUri"* %156)
          to label %invoke.cont220 unwind label %lpad115, !dbg !2112

invoke.cont220:                                   ; preds = %invoke.cont217
  %fMemoryManager222 = getelementptr inbounds %"class.xercesc_2_7::XMLUri", %"class.xercesc_2_7::XMLUri"* %this1, i32 0, i32 10, !dbg !2113
  %157 = load %"class.xercesc_2_7::MemoryManager"*, %"class.xercesc_2_7::MemoryManager"** %fMemoryManager222, align 8, !dbg !2113
  %call224 = invoke i16* @_ZN11xercesc_2_79XMLString9replicateEPKtPNS_13MemoryManagerE(i16* %call221, %"class.xercesc_2_7::MemoryManager"* %157)
          to label %invoke.cont223 unwind label %lpad115, !dbg !2114

invoke.cont223:                                   ; preds = %invoke.cont220
  %fRegAuth225 = getelementptr inbounds %"class.xercesc_2_7::XMLUri", %"class.xercesc_2_7::XMLUri"* %this1, i32 0, i32 5, !dbg !2115
  store i16* %call224, i16** %fRegAuth225, align 8, !dbg !2116
  br label %if.end227, !dbg !2117

if.else226:                                       ; preds = %land.lhs.true196, %if.end193
  store i32 1, i32* %cleanup.dest.slot, align 4
  br label %cleanup, !dbg !2118

if.end227:                                        ; preds = %invoke.cont223
  %fPath228 = getelementptr inbounds %"class.xercesc_2_7::XMLUri", %"class.xercesc_2_7::XMLUri"* %this1, i32 0, i32 6, !dbg !2120
  %158 = load i16*, i16** %fPath228, align 8, !dbg !2120
  %tobool229 = icmp ne i16* %158, null, !dbg !2120
  br i1 %tobool229, label %land.lhs.true230, label %if.end238, !dbg !2122

land.lhs.true230:                                 ; preds = %if.end227
  %fPath231 = getelementptr inbounds %"class.xercesc_2_7::XMLUri", %"class.xercesc_2_7::XMLUri"* %this1, i32 0, i32 6, !dbg !2123
  %159 = load i16*, i16** %fPath231, align 8, !dbg !2123
  %160 = load i16, i16* %159, align 2, !dbg !2124
  %tobool232 = icmp ne i16 %160, 0, !dbg !2124
  br i1 %tobool232, label %land.lhs.true233, label %if.end238, !dbg !2125

land.lhs.true233:                                 ; preds = %land.lhs.true230
  %fPath234 = getelementptr inbounds %"class.xercesc_2_7::XMLUri", %"class.xercesc_2_7::XMLUri"* %this1, i32 0, i32 6, !dbg !2126
  %161 = load i16*, i16** %fPath234, align 8, !dbg !2126
  %call236 = invoke zeroext i1 @_ZN11xercesc_2_79XMLString10startsWithEPKtS2_(i16* %161, i16* getelementptr inbounds ([2 x i16], [2 x i16]* @_ZN11xercesc_2_7L12SINGLE_SLASHE, i64 0, i64 0))
          to label %invoke.cont235 unwind label %lpad115, !dbg !2127

invoke.cont235:                                   ; preds = %land.lhs.true233
  br i1 %call236, label %if.then237, label %if.end238, !dbg !2128

if.then237:                                       ; preds = %invoke.cont235
  store i32 1, i32* %cleanup.dest.slot, align 4
  br label %cleanup, !dbg !2129

if.end238:                                        ; preds = %invoke.cont235, %land.lhs.true230, %if.end227
  call void @llvm.dbg.declare(metadata i16** %basePath, metadata !2131, metadata !DIExpression()), !dbg !2132
  %162 = load %"class.xercesc_2_7::XMLUri"*, %"class.xercesc_2_7::XMLUri"** %baseURI.addr, align 8, !dbg !2133
  %call240 = invoke i16* @_ZNK11xercesc_2_76XMLUri7getPathEv(%"class.xercesc_2_7::XMLUri"* %162)
          to label %invoke.cont239 unwind label %lpad115, !dbg !2134

invoke.cont239:                                   ; preds = %if.end238
  %fMemoryManager241 = getelementptr inbounds %"class.xercesc_2_7::XMLUri", %"class.xercesc_2_7::XMLUri"* %this1, i32 0, i32 10, !dbg !2135
  %163 = load %"class.xercesc_2_7::MemoryManager"*, %"class.xercesc_2_7::MemoryManager"** %fMemoryManager241, align 8, !dbg !2135
  %call243 = invoke i16* @_ZN11xercesc_2_79XMLString9replicateEPKtPNS_13MemoryManagerE(i16* %call240, %"class.xercesc_2_7::MemoryManager"* %163)
          to label %invoke.cont242 unwind label %lpad115, !dbg !2136

invoke.cont242:                                   ; preds = %invoke.cont239
  store i16* %call243, i16** %basePath, align 8, !dbg !2132
  call void @llvm.dbg.declare(metadata %"class.xercesc_2_7::ArrayJanitor"* %basePathName, metadata !2137, metadata !DIExpression()), !dbg !2138
  %164 = load i16*, i16** %basePath, align 8, !dbg !2139
  %fMemoryManager244 = getelementptr inbounds %"class.xercesc_2_7::XMLUri", %"class.xercesc_2_7::XMLUri"* %this1, i32 0, i32 10, !dbg !2140
  %165 = load %"class.xercesc_2_7::MemoryManager"*, %"class.xercesc_2_7::MemoryManager"** %fMemoryManager244, align 8, !dbg !2140
  invoke void @_ZN11xercesc_2_712ArrayJanitorItEC2EPtPNS_13MemoryManagerE(%"class.xercesc_2_7::ArrayJanitor"* %basePathName, i16* %164, %"class.xercesc_2_7::MemoryManager"* %165)
          to label %invoke.cont245 unwind label %lpad115, !dbg !2138

invoke.cont245:                                   ; preds = %invoke.cont242
  call void @llvm.dbg.declare(metadata i32* %bufLen, metadata !2141, metadata !DIExpression()), !dbg !2142
  %166 = load i32, i32* %trimmedUriSpecLen, align 4, !dbg !2143
  %fPath246 = getelementptr inbounds %"class.xercesc_2_7::XMLUri", %"class.xercesc_2_7::XMLUri"* %this1, i32 0, i32 6, !dbg !2144
  %167 = load i16*, i16** %fPath246, align 8, !dbg !2144
  %call249 = invoke i32 @_ZN11xercesc_2_79XMLString9stringLenEPKt(i16* %167)
          to label %invoke.cont248 unwind label %lpad247, !dbg !2145

invoke.cont248:                                   ; preds = %invoke.cont245
  %add250 = add i32 %166, %call249, !dbg !2146
  %168 = load i16*, i16** %basePath, align 8, !dbg !2147
  %call252 = invoke i32 @_ZN11xercesc_2_79XMLString9stringLenEPKt(i16* %168)
          to label %invoke.cont251 unwind label %lpad247, !dbg !2148

invoke.cont251:                                   ; preds = %invoke.cont248
  %add253 = add i32 %add250, %call252, !dbg !2149
  %add254 = add i32 %add253, 1, !dbg !2150
  store i32 %add254, i32* %bufLen, align 4, !dbg !2142
  call void @llvm.dbg.declare(metadata i16** %path, metadata !2151, metadata !DIExpression()), !dbg !2152
  %fMemoryManager255 = getelementptr inbounds %"class.xercesc_2_7::XMLUri", %"class.xercesc_2_7::XMLUri"* %this1, i32 0, i32 10, !dbg !2153
  %169 = load %"class.xercesc_2_7::MemoryManager"*, %"class.xercesc_2_7::MemoryManager"** %fMemoryManager255, align 8, !dbg !2153
  %170 = load i32, i32* %bufLen, align 4, !dbg !2154
  %conv256 = sext i32 %170 to i64, !dbg !2154
  %mul257 = mul i64 %conv256, 2, !dbg !2155
  %171 = bitcast %"class.xercesc_2_7::MemoryManager"* %169 to i8* (%"class.xercesc_2_7::MemoryManager"*, i64)***, !dbg !2156
  %vtable258 = load i8* (%"class.xercesc_2_7::MemoryManager"*, i64)**, i8* (%"class.xercesc_2_7::MemoryManager"*, i64)*** %171, align 8, !dbg !2156
  %vfn259 = getelementptr inbounds i8* (%"class.xercesc_2_7::MemoryManager"*, i64)*, i8* (%"class.xercesc_2_7::MemoryManager"*, i64)** %vtable258, i64 2, !dbg !2156
  %172 = load i8* (%"class.xercesc_2_7::MemoryManager"*, i64)*, i8* (%"class.xercesc_2_7::MemoryManager"*, i64)** %vfn259, align 8, !dbg !2156
  %call261 = invoke i8* %172(%"class.xercesc_2_7::MemoryManager"* %169, i64 %mul257)
          to label %invoke.cont260 unwind label %lpad247, !dbg !2156

invoke.cont260:                                   ; preds = %invoke.cont251
  %173 = bitcast i8* %call261 to i16*, !dbg !2157
  store i16* %173, i16** %path, align 8, !dbg !2152
  call void @llvm.dbg.declare(metadata %"class.xercesc_2_7::ArrayJanitor"* %pathName, metadata !2158, metadata !DIExpression()), !dbg !2159
  %174 = load i16*, i16** %path, align 8, !dbg !2160
  %fMemoryManager262 = getelementptr inbounds %"class.xercesc_2_7::XMLUri", %"class.xercesc_2_7::XMLUri"* %this1, i32 0, i32 10, !dbg !2161
  %175 = load %"class.xercesc_2_7::MemoryManager"*, %"class.xercesc_2_7::MemoryManager"** %fMemoryManager262, align 8, !dbg !2161
  invoke void @_ZN11xercesc_2_712ArrayJanitorItEC2EPtPNS_13MemoryManagerE(%"class.xercesc_2_7::ArrayJanitor"* %pathName, i16* %174, %"class.xercesc_2_7::MemoryManager"* %175)
          to label %invoke.cont263 unwind label %lpad247, !dbg !2159

invoke.cont263:                                   ; preds = %invoke.cont260
  %176 = load i16*, i16** %path, align 8, !dbg !2162
  %arrayidx264 = getelementptr inbounds i16, i16* %176, i64 0, !dbg !2162
  store i16 0, i16* %arrayidx264, align 2, !dbg !2163
  call void @llvm.dbg.declare(metadata i16** %tmp1, metadata !2164, metadata !DIExpression()), !dbg !2165
  %fMemoryManager265 = getelementptr inbounds %"class.xercesc_2_7::XMLUri", %"class.xercesc_2_7::XMLUri"* %this1, i32 0, i32 10, !dbg !2166
  %177 = load %"class.xercesc_2_7::MemoryManager"*, %"class.xercesc_2_7::MemoryManager"** %fMemoryManager265, align 8, !dbg !2166
  %178 = load i32, i32* %bufLen, align 4, !dbg !2167
  %conv266 = sext i32 %178 to i64, !dbg !2167
  %mul267 = mul i64 %conv266, 2, !dbg !2168
  %179 = bitcast %"class.xercesc_2_7::MemoryManager"* %177 to i8* (%"class.xercesc_2_7::MemoryManager"*, i64)***, !dbg !2169
  %vtable268 = load i8* (%"class.xercesc_2_7::MemoryManager"*, i64)**, i8* (%"class.xercesc_2_7::MemoryManager"*, i64)*** %179, align 8, !dbg !2169
  %vfn269 = getelementptr inbounds i8* (%"class.xercesc_2_7::MemoryManager"*, i64)*, i8* (%"class.xercesc_2_7::MemoryManager"*, i64)** %vtable268, i64 2, !dbg !2169
  %180 = load i8* (%"class.xercesc_2_7::MemoryManager"*, i64)*, i8* (%"class.xercesc_2_7::MemoryManager"*, i64)** %vfn269, align 8, !dbg !2169
  %call272 = invoke i8* %180(%"class.xercesc_2_7::MemoryManager"* %177, i64 %mul267)
          to label %invoke.cont271 unwind label %lpad270, !dbg !2169

invoke.cont271:                                   ; preds = %invoke.cont263
  %181 = bitcast i8* %call272 to i16*, !dbg !2170
  store i16* %181, i16** %tmp1, align 8, !dbg !2165
  call void @llvm.dbg.declare(metadata %"class.xercesc_2_7::ArrayJanitor"* %tmp1Name, metadata !2171, metadata !DIExpression()), !dbg !2172
  %182 = load i16*, i16** %tmp1, align 8, !dbg !2173
  %fMemoryManager273 = getelementptr inbounds %"class.xercesc_2_7::XMLUri", %"class.xercesc_2_7::XMLUri"* %this1, i32 0, i32 10, !dbg !2174
  %183 = load %"class.xercesc_2_7::MemoryManager"*, %"class.xercesc_2_7::MemoryManager"** %fMemoryManager273, align 8, !dbg !2174
  invoke void @_ZN11xercesc_2_712ArrayJanitorItEC2EPtPNS_13MemoryManagerE(%"class.xercesc_2_7::ArrayJanitor"* %tmp1Name, i16* %182, %"class.xercesc_2_7::MemoryManager"* %183)
          to label %invoke.cont274 unwind label %lpad270, !dbg !2172

invoke.cont274:                                   ; preds = %invoke.cont271
  call void @llvm.dbg.declare(metadata i16** %tmp2, metadata !2175, metadata !DIExpression()), !dbg !2176
  %fMemoryManager275 = getelementptr inbounds %"class.xercesc_2_7::XMLUri", %"class.xercesc_2_7::XMLUri"* %this1, i32 0, i32 10, !dbg !2177
  %184 = load %"class.xercesc_2_7::MemoryManager"*, %"class.xercesc_2_7::MemoryManager"** %fMemoryManager275, align 8, !dbg !2177
  %185 = load i32, i32* %bufLen, align 4, !dbg !2178
  %conv276 = sext i32 %185 to i64, !dbg !2178
  %mul277 = mul i64 %conv276, 2, !dbg !2179
  %186 = bitcast %"class.xercesc_2_7::MemoryManager"* %184 to i8* (%"class.xercesc_2_7::MemoryManager"*, i64)***, !dbg !2180
  %vtable278 = load i8* (%"class.xercesc_2_7::MemoryManager"*, i64)**, i8* (%"class.xercesc_2_7::MemoryManager"*, i64)*** %186, align 8, !dbg !2180
  %vfn279 = getelementptr inbounds i8* (%"class.xercesc_2_7::MemoryManager"*, i64)*, i8* (%"class.xercesc_2_7::MemoryManager"*, i64)** %vtable278, i64 2, !dbg !2180
  %187 = load i8* (%"class.xercesc_2_7::MemoryManager"*, i64)*, i8* (%"class.xercesc_2_7::MemoryManager"*, i64)** %vfn279, align 8, !dbg !2180
  %call282 = invoke i8* %187(%"class.xercesc_2_7::MemoryManager"* %184, i64 %mul277)
          to label %invoke.cont281 unwind label %lpad280, !dbg !2180

invoke.cont281:                                   ; preds = %invoke.cont274
  %188 = bitcast i8* %call282 to i16*, !dbg !2181
  store i16* %188, i16** %tmp2, align 8, !dbg !2176
  call void @llvm.dbg.declare(metadata %"class.xercesc_2_7::ArrayJanitor"* %tmp2Name, metadata !2182, metadata !DIExpression()), !dbg !2183
  %189 = load i16*, i16** %tmp2, align 8, !dbg !2184
  %fMemoryManager283 = getelementptr inbounds %"class.xercesc_2_7::XMLUri", %"class.xercesc_2_7::XMLUri"* %this1, i32 0, i32 10, !dbg !2185
  %190 = load %"class.xercesc_2_7::MemoryManager"*, %"class.xercesc_2_7::MemoryManager"** %fMemoryManager283, align 8, !dbg !2185
  invoke void @_ZN11xercesc_2_712ArrayJanitorItEC2EPtPNS_13MemoryManagerE(%"class.xercesc_2_7::ArrayJanitor"* %tmp2Name, i16* %189, %"class.xercesc_2_7::MemoryManager"* %190)
          to label %invoke.cont284 unwind label %lpad280, !dbg !2183

invoke.cont284:                                   ; preds = %invoke.cont281
  %191 = load i16*, i16** %basePath, align 8, !dbg !2186
  %tobool285 = icmp ne i16* %191, null, !dbg !2186
  br i1 %tobool285, label %if.then286, label %if.end296, !dbg !2188

if.then286:                                       ; preds = %invoke.cont284
  call void @llvm.dbg.declare(metadata i32* %lastSlash, metadata !2189, metadata !DIExpression()), !dbg !2191
  %192 = load i16*, i16** %basePath, align 8, !dbg !2192
  %call289 = invoke i32 @_ZN11xercesc_2_79XMLString11lastIndexOfEPKtt(i16* %192, i16 zeroext 47)
          to label %invoke.cont288 unwind label %lpad287, !dbg !2193

invoke.cont288:                                   ; preds = %if.then286
  store i32 %call289, i32* %lastSlash, align 4, !dbg !2191
  %193 = load i32, i32* %lastSlash, align 4, !dbg !2194
  %cmp290 = icmp ne i32 %193, -1, !dbg !2196
  br i1 %cmp290, label %if.then291, label %if.end295, !dbg !2197

if.then291:                                       ; preds = %invoke.cont288
  %194 = load i16*, i16** %path, align 8, !dbg !2198
  %195 = load i16*, i16** %basePath, align 8, !dbg !2200
  %196 = load i32, i32* %lastSlash, align 4, !dbg !2201
  %add292 = add nsw i32 %196, 1, !dbg !2202
  %fMemoryManager293 = getelementptr inbounds %"class.xercesc_2_7::XMLUri", %"class.xercesc_2_7::XMLUri"* %this1, i32 0, i32 10, !dbg !2203
  %197 = load %"class.xercesc_2_7::MemoryManager"*, %"class.xercesc_2_7::MemoryManager"** %fMemoryManager293, align 8, !dbg !2203
  invoke void @_ZN11xercesc_2_79XMLString9subStringEPtPKtiiPNS_13MemoryManagerE(i16* %194, i16* %195, i32 0, i32 %add292, %"class.xercesc_2_7::MemoryManager"* %197)
          to label %invoke.cont294 unwind label %lpad287, !dbg !2204

invoke.cont294:                                   ; preds = %if.then291
  br label %if.end295, !dbg !2205

lpad247:                                          ; preds = %invoke.cont260, %invoke.cont251, %invoke.cont248, %invoke.cont245
  %198 = landingpad { i8*, i32 }
          cleanup, !dbg !2206
  %199 = extractvalue { i8*, i32 } %198, 0, !dbg !2206
  store i8* %199, i8** %exn.slot, align 8, !dbg !2206
  %200 = extractvalue { i8*, i32 } %198, 1, !dbg !2206
  store i32 %200, i32* %ehselector.slot, align 4, !dbg !2206
  br label %ehcleanup416, !dbg !2206

lpad270:                                          ; preds = %invoke.cont271, %invoke.cont263
  %201 = landingpad { i8*, i32 }
          cleanup, !dbg !2206
  %202 = extractvalue { i8*, i32 } %201, 0, !dbg !2206
  store i8* %202, i8** %exn.slot, align 8, !dbg !2206
  %203 = extractvalue { i8*, i32 } %201, 1, !dbg !2206
  store i32 %203, i32* %ehselector.slot, align 4, !dbg !2206
  br label %ehcleanup415, !dbg !2206

lpad280:                                          ; preds = %invoke.cont281, %invoke.cont274
  %204 = landingpad { i8*, i32 }
          cleanup, !dbg !2206
  %205 = extractvalue { i8*, i32 } %204, 0, !dbg !2206
  store i8* %205, i8** %exn.slot, align 8, !dbg !2206
  %206 = extractvalue { i8*, i32 } %204, 1, !dbg !2206
  store i32 %206, i32* %ehselector.slot, align 4, !dbg !2206
  br label %ehcleanup, !dbg !2206

lpad287:                                          ; preds = %if.end410, %if.then404, %if.end400, %invoke.cont376, %invoke.cont371, %if.then370, %while.end367, %invoke.cont361, %invoke.cont359, %invoke.cont356, %invoke.cont354, %if.then352, %invoke.cont333, %while.body329, %while.cond323, %if.then317, %while.end314, %invoke.cont312, %invoke.cont310, %invoke.cont307, %invoke.cont305, %while.body303, %while.cond299, %if.end296, %if.then291, %if.then286
  %207 = landingpad { i8*, i32 }
          cleanup, !dbg !2207
  %208 = extractvalue { i8*, i32 } %207, 0, !dbg !2207
  store i8* %208, i8** %exn.slot, align 8, !dbg !2207
  %209 = extractvalue { i8*, i32 } %207, 1, !dbg !2207
  store i32 %209, i32* %ehselector.slot, align 4, !dbg !2207
  call void @_ZN11xercesc_2_712ArrayJanitorItED2Ev(%"class.xercesc_2_7::ArrayJanitor"* %tmp2Name) #10, !dbg !2208
  br label %ehcleanup, !dbg !2208

if.end295:                                        ; preds = %invoke.cont294, %invoke.cont288
  br label %if.end296, !dbg !2209

if.end296:                                        ; preds = %if.end295, %invoke.cont284
  %210 = load i16*, i16** %path, align 8, !dbg !2210
  %fPath297 = getelementptr inbounds %"class.xercesc_2_7::XMLUri", %"class.xercesc_2_7::XMLUri"* %this1, i32 0, i32 6, !dbg !2211
  %211 = load i16*, i16** %fPath297, align 8, !dbg !2211
  invoke void @_ZN11xercesc_2_79XMLString9catStringEPtPKt(i16* %210, i16* %211)
          to label %invoke.cont298 unwind label %lpad287, !dbg !2212

invoke.cont298:                                   ; preds = %if.end296
  store i32 -1, i32* %index, align 4, !dbg !2213
  br label %while.cond299, !dbg !2214

while.cond299:                                    ; preds = %invoke.cont313, %invoke.cont298
  %212 = load i16*, i16** %path, align 8, !dbg !2215
  %call301 = invoke i32 @_ZN11xercesc_2_79XMLString12patternMatchEPKtS2_(i16* %212, i16* getelementptr inbounds ([4 x i16], [4 x i16]* @_ZN11xercesc_2_7L15SLASH_DOT_SLASHE, i64 0, i64 0))
          to label %invoke.cont300 unwind label %lpad287, !dbg !2216

invoke.cont300:                                   ; preds = %while.cond299
  store i32 %call301, i32* %index, align 4, !dbg !2217
  %cmp302 = icmp ne i32 %call301, -1, !dbg !2218
  br i1 %cmp302, label %while.body303, label %while.end314, !dbg !2214

while.body303:                                    ; preds = %invoke.cont300
  %213 = load i16*, i16** %tmp1, align 8, !dbg !2219
  %214 = load i16*, i16** %path, align 8, !dbg !2221
  %215 = load i32, i32* %index, align 4, !dbg !2222
  %fMemoryManager304 = getelementptr inbounds %"class.xercesc_2_7::XMLUri", %"class.xercesc_2_7::XMLUri"* %this1, i32 0, i32 10, !dbg !2223
  %216 = load %"class.xercesc_2_7::MemoryManager"*, %"class.xercesc_2_7::MemoryManager"** %fMemoryManager304, align 8, !dbg !2223
  invoke void @_ZN11xercesc_2_79XMLString9subStringEPtPKtiiPNS_13MemoryManagerE(i16* %213, i16* %214, i32 0, i32 %215, %"class.xercesc_2_7::MemoryManager"* %216)
          to label %invoke.cont305 unwind label %lpad287, !dbg !2224

invoke.cont305:                                   ; preds = %while.body303
  %217 = load i16*, i16** %tmp2, align 8, !dbg !2225
  %218 = load i16*, i16** %path, align 8, !dbg !2226
  %219 = load i32, i32* %index, align 4, !dbg !2227
  %add306 = add nsw i32 %219, 2, !dbg !2228
  %220 = load i16*, i16** %path, align 8, !dbg !2229
  %call308 = invoke i32 @_ZN11xercesc_2_79XMLString9stringLenEPKt(i16* %220)
          to label %invoke.cont307 unwind label %lpad287, !dbg !2230

invoke.cont307:                                   ; preds = %invoke.cont305
  %fMemoryManager309 = getelementptr inbounds %"class.xercesc_2_7::XMLUri", %"class.xercesc_2_7::XMLUri"* %this1, i32 0, i32 10, !dbg !2231
  %221 = load %"class.xercesc_2_7::MemoryManager"*, %"class.xercesc_2_7::MemoryManager"** %fMemoryManager309, align 8, !dbg !2231
  invoke void @_ZN11xercesc_2_79XMLString9subStringEPtPKtiiPNS_13MemoryManagerE(i16* %217, i16* %218, i32 %add306, i32 %call308, %"class.xercesc_2_7::MemoryManager"* %221)
          to label %invoke.cont310 unwind label %lpad287, !dbg !2232

invoke.cont310:                                   ; preds = %invoke.cont307
  %222 = load i16*, i16** %path, align 8, !dbg !2233
  %arrayidx311 = getelementptr inbounds i16, i16* %222, i64 0, !dbg !2233
  store i16 0, i16* %arrayidx311, align 2, !dbg !2234
  %223 = load i16*, i16** %path, align 8, !dbg !2235
  %224 = load i16*, i16** %tmp1, align 8, !dbg !2236
  invoke void @_ZN11xercesc_2_79XMLString9catStringEPtPKt(i16* %223, i16* %224)
          to label %invoke.cont312 unwind label %lpad287, !dbg !2237

invoke.cont312:                                   ; preds = %invoke.cont310
  %225 = load i16*, i16** %path, align 8, !dbg !2238
  %226 = load i16*, i16** %tmp2, align 8, !dbg !2239
  invoke void @_ZN11xercesc_2_79XMLString9catStringEPtPKt(i16* %225, i16* %226)
          to label %invoke.cont313 unwind label %lpad287, !dbg !2240

invoke.cont313:                                   ; preds = %invoke.cont312
  br label %while.cond299, !dbg !2214, !llvm.loop !2241

while.end314:                                     ; preds = %invoke.cont300
  %227 = load i16*, i16** %path, align 8, !dbg !2243
  %call316 = invoke zeroext i1 @_ZN11xercesc_2_79XMLString8endsWithEPKtS2_(i16* %227, i16* getelementptr inbounds ([3 x i16], [3 x i16]* @_ZN11xercesc_2_7L9SLASH_DOTE, i64 0, i64 0))
          to label %invoke.cont315 unwind label %lpad287, !dbg !2245

invoke.cont315:                                   ; preds = %while.end314
  br i1 %call316, label %if.then317, label %if.end322, !dbg !2246

if.then317:                                       ; preds = %invoke.cont315
  %228 = load i16*, i16** %path, align 8, !dbg !2247
  %229 = load i16*, i16** %path, align 8, !dbg !2249
  %call319 = invoke i32 @_ZN11xercesc_2_79XMLString9stringLenEPKt(i16* %229)
          to label %invoke.cont318 unwind label %lpad287, !dbg !2250

invoke.cont318:                                   ; preds = %if.then317
  %sub = sub i32 %call319, 1, !dbg !2251
  %idxprom320 = zext i32 %sub to i64, !dbg !2247
  %arrayidx321 = getelementptr inbounds i16, i16* %228, i64 %idxprom320, !dbg !2247
  store i16 0, i16* %arrayidx321, align 2, !dbg !2252
  br label %if.end322, !dbg !2253

if.end322:                                        ; preds = %invoke.cont318, %invoke.cont315
  store i32 -1, i32* %index, align 4, !dbg !2254
  call void @llvm.dbg.declare(metadata i32* %segIndex, metadata !2255, metadata !DIExpression()), !dbg !2256
  store i32 -1, i32* %segIndex, align 4, !dbg !2256
  call void @llvm.dbg.declare(metadata i32* %offset, metadata !2257, metadata !DIExpression()), !dbg !2258
  store i32 1, i32* %offset, align 4, !dbg !2258
  br label %while.cond323, !dbg !2259

while.cond323:                                    ; preds = %if.end366, %if.end322
  %230 = load i16*, i16** %path, align 8, !dbg !2260
  %231 = load i32, i32* %offset, align 4, !dbg !2261
  %idxprom324 = sext i32 %231 to i64, !dbg !2260
  %arrayidx325 = getelementptr inbounds i16, i16* %230, i64 %idxprom324, !dbg !2260
  %call327 = invoke i32 @_ZN11xercesc_2_79XMLString12patternMatchEPKtS2_(i16* %arrayidx325, i16* getelementptr inbounds ([5 x i16], [5 x i16]* @_ZN11xercesc_2_7L18SLASH_DOTDOT_SLASHE, i64 0, i64 0))
          to label %invoke.cont326 unwind label %lpad287, !dbg !2262

invoke.cont326:                                   ; preds = %while.cond323
  store i32 %call327, i32* %index, align 4, !dbg !2263
  %cmp328 = icmp ne i32 %call327, -1, !dbg !2264
  br i1 %cmp328, label %while.body329, label %while.end367, !dbg !2259

while.body329:                                    ; preds = %invoke.cont326
  %232 = load i32, i32* %offset, align 4, !dbg !2265
  %233 = load i32, i32* %index, align 4, !dbg !2267
  %add330 = add nsw i32 %233, %232, !dbg !2267
  store i32 %add330, i32* %index, align 4, !dbg !2267
  %234 = load i16*, i16** %tmp1, align 8, !dbg !2268
  %235 = load i16*, i16** %path, align 8, !dbg !2269
  %236 = load i32, i32* %index, align 4, !dbg !2270
  %sub331 = sub nsw i32 %236, 1, !dbg !2271
  %fMemoryManager332 = getelementptr inbounds %"class.xercesc_2_7::XMLUri", %"class.xercesc_2_7::XMLUri"* %this1, i32 0, i32 10, !dbg !2272
  %237 = load %"class.xercesc_2_7::MemoryManager"*, %"class.xercesc_2_7::MemoryManager"** %fMemoryManager332, align 8, !dbg !2272
  invoke void @_ZN11xercesc_2_79XMLString9subStringEPtPKtiiPNS_13MemoryManagerE(i16* %234, i16* %235, i32 0, i32 %sub331, %"class.xercesc_2_7::MemoryManager"* %237)
          to label %invoke.cont333 unwind label %lpad287, !dbg !2273

invoke.cont333:                                   ; preds = %while.body329
  %238 = load i16*, i16** %tmp1, align 8, !dbg !2274
  %call335 = invoke i32 @_ZN11xercesc_2_79XMLString11lastIndexOfEPKtt(i16* %238, i16 zeroext 47)
          to label %invoke.cont334 unwind label %lpad287, !dbg !2275

invoke.cont334:                                   ; preds = %invoke.cont333
  store i32 %call335, i32* %segIndex, align 4, !dbg !2276
  %239 = load i32, i32* %segIndex, align 4, !dbg !2277
  %cmp336 = icmp ne i32 %239, -1, !dbg !2279
  br i1 %cmp336, label %land.lhs.true337, label %if.else364, !dbg !2280

land.lhs.true337:                                 ; preds = %invoke.cont334
  %240 = load i16*, i16** %path, align 8, !dbg !2281
  %241 = load i32, i32* %segIndex, align 4, !dbg !2282
  %add338 = add nsw i32 %241, 1, !dbg !2283
  %idxprom339 = sext i32 %add338 to i64, !dbg !2281
  %arrayidx340 = getelementptr inbounds i16, i16* %240, i64 %idxprom339, !dbg !2281
  %242 = load i16, i16* %arrayidx340, align 2, !dbg !2281
  %conv341 = zext i16 %242 to i32, !dbg !2281
  %cmp342 = icmp ne i32 %conv341, 46, !dbg !2284
  br i1 %cmp342, label %if.then352, label %lor.lhs.false343, !dbg !2285

lor.lhs.false343:                                 ; preds = %land.lhs.true337
  %243 = load i16*, i16** %path, align 8, !dbg !2286
  %244 = load i32, i32* %segIndex, align 4, !dbg !2287
  %add344 = add nsw i32 %244, 2, !dbg !2288
  %idxprom345 = sext i32 %add344 to i64, !dbg !2286
  %arrayidx346 = getelementptr inbounds i16, i16* %243, i64 %idxprom345, !dbg !2286
  %245 = load i16, i16* %arrayidx346, align 2, !dbg !2286
  %conv347 = zext i16 %245 to i32, !dbg !2286
  %cmp348 = icmp ne i32 %conv347, 46, !dbg !2289
  br i1 %cmp348, label %if.then352, label %lor.lhs.false349, !dbg !2290

lor.lhs.false349:                                 ; preds = %lor.lhs.false343
  %246 = load i32, i32* %segIndex, align 4, !dbg !2291
  %add350 = add nsw i32 %246, 3, !dbg !2292
  %247 = load i32, i32* %index, align 4, !dbg !2293
  %cmp351 = icmp ne i32 %add350, %247, !dbg !2294
  br i1 %cmp351, label %if.then352, label %if.else364, !dbg !2295

if.then352:                                       ; preds = %lor.lhs.false349, %lor.lhs.false343, %land.lhs.true337
  %248 = load i16*, i16** %tmp1, align 8, !dbg !2296
  %249 = load i16*, i16** %path, align 8, !dbg !2298
  %250 = load i32, i32* %segIndex, align 4, !dbg !2299
  %fMemoryManager353 = getelementptr inbounds %"class.xercesc_2_7::XMLUri", %"class.xercesc_2_7::XMLUri"* %this1, i32 0, i32 10, !dbg !2300
  %251 = load %"class.xercesc_2_7::MemoryManager"*, %"class.xercesc_2_7::MemoryManager"** %fMemoryManager353, align 8, !dbg !2300
  invoke void @_ZN11xercesc_2_79XMLString9subStringEPtPKtiiPNS_13MemoryManagerE(i16* %248, i16* %249, i32 0, i32 %250, %"class.xercesc_2_7::MemoryManager"* %251)
          to label %invoke.cont354 unwind label %lpad287, !dbg !2301

invoke.cont354:                                   ; preds = %if.then352
  %252 = load i16*, i16** %tmp2, align 8, !dbg !2302
  %253 = load i16*, i16** %path, align 8, !dbg !2303
  %254 = load i32, i32* %index, align 4, !dbg !2304
  %add355 = add nsw i32 %254, 3, !dbg !2305
  %255 = load i16*, i16** %path, align 8, !dbg !2306
  %call357 = invoke i32 @_ZN11xercesc_2_79XMLString9stringLenEPKt(i16* %255)
          to label %invoke.cont356 unwind label %lpad287, !dbg !2307

invoke.cont356:                                   ; preds = %invoke.cont354
  %fMemoryManager358 = getelementptr inbounds %"class.xercesc_2_7::XMLUri", %"class.xercesc_2_7::XMLUri"* %this1, i32 0, i32 10, !dbg !2308
  %256 = load %"class.xercesc_2_7::MemoryManager"*, %"class.xercesc_2_7::MemoryManager"** %fMemoryManager358, align 8, !dbg !2308
  invoke void @_ZN11xercesc_2_79XMLString9subStringEPtPKtiiPNS_13MemoryManagerE(i16* %252, i16* %253, i32 %add355, i32 %call357, %"class.xercesc_2_7::MemoryManager"* %256)
          to label %invoke.cont359 unwind label %lpad287, !dbg !2309

invoke.cont359:                                   ; preds = %invoke.cont356
  %257 = load i16*, i16** %path, align 8, !dbg !2310
  %arrayidx360 = getelementptr inbounds i16, i16* %257, i64 0, !dbg !2310
  store i16 0, i16* %arrayidx360, align 2, !dbg !2311
  %258 = load i16*, i16** %path, align 8, !dbg !2312
  %259 = load i16*, i16** %tmp1, align 8, !dbg !2313
  invoke void @_ZN11xercesc_2_79XMLString9catStringEPtPKt(i16* %258, i16* %259)
          to label %invoke.cont361 unwind label %lpad287, !dbg !2314

invoke.cont361:                                   ; preds = %invoke.cont359
  %260 = load i16*, i16** %path, align 8, !dbg !2315
  %261 = load i16*, i16** %tmp2, align 8, !dbg !2316
  invoke void @_ZN11xercesc_2_79XMLString9catStringEPtPKt(i16* %260, i16* %261)
          to label %invoke.cont362 unwind label %lpad287, !dbg !2317

invoke.cont362:                                   ; preds = %invoke.cont361
  %262 = load i32, i32* %segIndex, align 4, !dbg !2318
  %cmp363 = icmp eq i32 %262, 0, !dbg !2319
  br i1 %cmp363, label %cond.true, label %cond.false, !dbg !2318

cond.true:                                        ; preds = %invoke.cont362
  br label %cond.end, !dbg !2318

cond.false:                                       ; preds = %invoke.cont362
  %263 = load i32, i32* %segIndex, align 4, !dbg !2320
  br label %cond.end, !dbg !2318

cond.end:                                         ; preds = %cond.false, %cond.true
  %cond = phi i32 [ 1, %cond.true ], [ %263, %cond.false ], !dbg !2318
  store i32 %cond, i32* %offset, align 4, !dbg !2321
  br label %if.end366, !dbg !2322

if.else364:                                       ; preds = %lor.lhs.false349, %invoke.cont334
  %264 = load i32, i32* %offset, align 4, !dbg !2323
  %add365 = add nsw i32 %264, 4, !dbg !2323
  store i32 %add365, i32* %offset, align 4, !dbg !2323
  br label %if.end366

if.end366:                                        ; preds = %if.else364, %cond.end
  br label %while.cond323, !dbg !2259, !llvm.loop !2325

while.end367:                                     ; preds = %invoke.cont326
  %265 = load i16*, i16** %path, align 8, !dbg !2327
  %call369 = invoke zeroext i1 @_ZN11xercesc_2_79XMLString8endsWithEPKtS2_(i16* %265, i16* getelementptr inbounds ([4 x i16], [4 x i16]* @_ZN11xercesc_2_7L12SLASH_DOTDOTE, i64 0, i64 0))
          to label %invoke.cont368 unwind label %lpad287, !dbg !2329

invoke.cont368:                                   ; preds = %while.end367
  br i1 %call369, label %if.then370, label %if.end400, !dbg !2330

if.then370:                                       ; preds = %invoke.cont368
  %266 = load i16*, i16** %path, align 8, !dbg !2331
  %call372 = invoke i32 @_ZN11xercesc_2_79XMLString9stringLenEPKt(i16* %266)
          to label %invoke.cont371 unwind label %lpad287, !dbg !2333

invoke.cont371:                                   ; preds = %if.then370
  %sub373 = sub i32 %call372, 3, !dbg !2334
  store i32 %sub373, i32* %index, align 4, !dbg !2335
  %267 = load i16*, i16** %tmp1, align 8, !dbg !2336
  %268 = load i16*, i16** %path, align 8, !dbg !2337
  %269 = load i32, i32* %index, align 4, !dbg !2338
  %sub374 = sub nsw i32 %269, 1, !dbg !2339
  %fMemoryManager375 = getelementptr inbounds %"class.xercesc_2_7::XMLUri", %"class.xercesc_2_7::XMLUri"* %this1, i32 0, i32 10, !dbg !2340
  %270 = load %"class.xercesc_2_7::MemoryManager"*, %"class.xercesc_2_7::MemoryManager"** %fMemoryManager375, align 8, !dbg !2340
  invoke void @_ZN11xercesc_2_79XMLString9subStringEPtPKtiiPNS_13MemoryManagerE(i16* %267, i16* %268, i32 0, i32 %sub374, %"class.xercesc_2_7::MemoryManager"* %270)
          to label %invoke.cont376 unwind label %lpad287, !dbg !2341

invoke.cont376:                                   ; preds = %invoke.cont371
  %271 = load i16*, i16** %tmp1, align 8, !dbg !2342
  %call378 = invoke i32 @_ZN11xercesc_2_79XMLString11lastIndexOfEPKtt(i16* %271, i16 zeroext 47)
          to label %invoke.cont377 unwind label %lpad287, !dbg !2343

invoke.cont377:                                   ; preds = %invoke.cont376
  store i32 %call378, i32* %segIndex, align 4, !dbg !2344
  %272 = load i32, i32* %segIndex, align 4, !dbg !2345
  %cmp379 = icmp ne i32 %272, -1, !dbg !2347
  br i1 %cmp379, label %land.lhs.true380, label %if.end399, !dbg !2348

land.lhs.true380:                                 ; preds = %invoke.cont377
  %273 = load i16*, i16** %path, align 8, !dbg !2349
  %274 = load i32, i32* %segIndex, align 4, !dbg !2350
  %add381 = add nsw i32 %274, 1, !dbg !2351
  %idxprom382 = sext i32 %add381 to i64, !dbg !2349
  %arrayidx383 = getelementptr inbounds i16, i16* %273, i64 %idxprom382, !dbg !2349
  %275 = load i16, i16* %arrayidx383, align 2, !dbg !2349
  %conv384 = zext i16 %275 to i32, !dbg !2349
  %cmp385 = icmp ne i32 %conv384, 46, !dbg !2352
  br i1 %cmp385, label %if.then395, label %lor.lhs.false386, !dbg !2353

lor.lhs.false386:                                 ; preds = %land.lhs.true380
  %276 = load i16*, i16** %path, align 8, !dbg !2354
  %277 = load i32, i32* %segIndex, align 4, !dbg !2355
  %add387 = add nsw i32 %277, 2, !dbg !2356
  %idxprom388 = sext i32 %add387 to i64, !dbg !2354
  %arrayidx389 = getelementptr inbounds i16, i16* %276, i64 %idxprom388, !dbg !2354
  %278 = load i16, i16* %arrayidx389, align 2, !dbg !2354
  %conv390 = zext i16 %278 to i32, !dbg !2354
  %cmp391 = icmp ne i32 %conv390, 46, !dbg !2357
  br i1 %cmp391, label %if.then395, label %lor.lhs.false392, !dbg !2358

lor.lhs.false392:                                 ; preds = %lor.lhs.false386
  %279 = load i32, i32* %segIndex, align 4, !dbg !2359
  %add393 = add nsw i32 %279, 3, !dbg !2360
  %280 = load i32, i32* %index, align 4, !dbg !2361
  %cmp394 = icmp ne i32 %add393, %280, !dbg !2362
  br i1 %cmp394, label %if.then395, label %if.end399, !dbg !2363

if.then395:                                       ; preds = %lor.lhs.false392, %lor.lhs.false386, %land.lhs.true380
  %281 = load i16*, i16** %path, align 8, !dbg !2364
  %282 = load i32, i32* %segIndex, align 4, !dbg !2366
  %add396 = add nsw i32 %282, 1, !dbg !2367
  %idxprom397 = sext i32 %add396 to i64, !dbg !2364
  %arrayidx398 = getelementptr inbounds i16, i16* %281, i64 %idxprom397, !dbg !2364
  store i16 0, i16* %arrayidx398, align 2, !dbg !2368
  br label %if.end399, !dbg !2369

if.end399:                                        ; preds = %if.then395, %lor.lhs.false392, %invoke.cont377
  br label %if.end400, !dbg !2370

if.end400:                                        ; preds = %if.end399, %invoke.cont368
  %call402 = invoke i16* @_ZNK11xercesc_2_76XMLUri7getPathEv(%"class.xercesc_2_7::XMLUri"* %this1)
          to label %invoke.cont401 unwind label %lpad287, !dbg !2371

invoke.cont401:                                   ; preds = %if.end400
  %tobool403 = icmp ne i16* %call402, null, !dbg !2371
  br i1 %tobool403, label %if.then404, label %if.end410, !dbg !2373

if.then404:                                       ; preds = %invoke.cont401
  %fMemoryManager405 = getelementptr inbounds %"class.xercesc_2_7::XMLUri", %"class.xercesc_2_7::XMLUri"* %this1, i32 0, i32 10, !dbg !2374
  %283 = load %"class.xercesc_2_7::MemoryManager"*, %"class.xercesc_2_7::MemoryManager"** %fMemoryManager405, align 8, !dbg !2374
  %fPath406 = getelementptr inbounds %"class.xercesc_2_7::XMLUri", %"class.xercesc_2_7::XMLUri"* %this1, i32 0, i32 6, !dbg !2375
  %284 = load i16*, i16** %fPath406, align 8, !dbg !2375
  %285 = bitcast i16* %284 to i8*, !dbg !2375
  %286 = bitcast %"class.xercesc_2_7::MemoryManager"* %283 to void (%"class.xercesc_2_7::MemoryManager"*, i8*)***, !dbg !2376
  %vtable407 = load void (%"class.xercesc_2_7::MemoryManager"*, i8*)**, void (%"class.xercesc_2_7::MemoryManager"*, i8*)*** %286, align 8, !dbg !2376
  %vfn408 = getelementptr inbounds void (%"class.xercesc_2_7::MemoryManager"*, i8*)*, void (%"class.xercesc_2_7::MemoryManager"*, i8*)** %vtable407, i64 3, !dbg !2376
  %287 = load void (%"class.xercesc_2_7::MemoryManager"*, i8*)*, void (%"class.xercesc_2_7::MemoryManager"*, i8*)** %vfn408, align 8, !dbg !2376
  invoke void %287(%"class.xercesc_2_7::MemoryManager"* %283, i8* %285)
          to label %invoke.cont409 unwind label %lpad287, !dbg !2376

invoke.cont409:                                   ; preds = %if.then404
  br label %if.end410, !dbg !2374

if.end410:                                        ; preds = %invoke.cont409, %invoke.cont401
  %288 = load i16*, i16** %path, align 8, !dbg !2377
  %fMemoryManager411 = getelementptr inbounds %"class.xercesc_2_7::XMLUri", %"class.xercesc_2_7::XMLUri"* %this1, i32 0, i32 10, !dbg !2378
  %289 = load %"class.xercesc_2_7::MemoryManager"*, %"class.xercesc_2_7::MemoryManager"** %fMemoryManager411, align 8, !dbg !2378
  %call413 = invoke i16* @_ZN11xercesc_2_79XMLString9replicateEPKtPNS_13MemoryManagerE(i16* %288, %"class.xercesc_2_7::MemoryManager"* %289)
          to label %invoke.cont412 unwind label %lpad287, !dbg !2379

invoke.cont412:                                   ; preds = %if.end410
  %fPath414 = getelementptr inbounds %"class.xercesc_2_7::XMLUri", %"class.xercesc_2_7::XMLUri"* %this1, i32 0, i32 6, !dbg !2380
  store i16* %call413, i16** %fPath414, align 8, !dbg !2381
  call void @_ZN11xercesc_2_712ArrayJanitorItED2Ev(%"class.xercesc_2_7::ArrayJanitor"* %tmp2Name) #10, !dbg !2208
  call void @_ZN11xercesc_2_712ArrayJanitorItED2Ev(%"class.xercesc_2_7::ArrayJanitor"* %tmp1Name) #10, !dbg !2208
  call void @_ZN11xercesc_2_712ArrayJanitorItED2Ev(%"class.xercesc_2_7::ArrayJanitor"* %pathName) #10, !dbg !2208
  call void @_ZN11xercesc_2_712ArrayJanitorItED2Ev(%"class.xercesc_2_7::ArrayJanitor"* %basePathName) #10, !dbg !2208
  br label %if.end417, !dbg !2382

ehcleanup:                                        ; preds = %lpad287, %lpad280
  call void @_ZN11xercesc_2_712ArrayJanitorItED2Ev(%"class.xercesc_2_7::ArrayJanitor"* %tmp1Name) #10, !dbg !2208
  br label %ehcleanup415, !dbg !2208

ehcleanup415:                                     ; preds = %ehcleanup, %lpad270
  call void @_ZN11xercesc_2_712ArrayJanitorItED2Ev(%"class.xercesc_2_7::ArrayJanitor"* %pathName) #10, !dbg !2208
  br label %ehcleanup416, !dbg !2208

ehcleanup416:                                     ; preds = %ehcleanup415, %lpad247
  call void @_ZN11xercesc_2_712ArrayJanitorItED2Ev(%"class.xercesc_2_7::ArrayJanitor"* %basePathName) #10, !dbg !2208
  br label %ehcleanup418, !dbg !2208

if.end417:                                        ; preds = %invoke.cont412, %invoke.cont117
  store i32 0, i32* %cleanup.dest.slot, align 4, !dbg !1802
  br label %cleanup, !dbg !1802

cleanup:                                          ; preds = %if.end417, %if.then237, %if.else226, %if.else192, %if.end181
  call void @_ZN11xercesc_2_712ArrayJanitorItED2Ev(%"class.xercesc_2_7::ArrayJanitor"* %pathUriSpecName) #10, !dbg !1802
  br label %cleanup419

cleanup419:                                       ; preds = %cleanup, %if.then102
  call void @_ZN11xercesc_2_712ArrayJanitorItED2Ev(%"class.xercesc_2_7::ArrayJanitor"* %authName) #10, !dbg !1802
  br label %cleanup421

cleanup421:                                       ; preds = %cleanup419, %invoke.cont12
  call void @_ZN11xercesc_2_712ArrayJanitorItED2Ev(%"class.xercesc_2_7::ArrayJanitor"* %janName) #10, !dbg !1802
  %cleanup.dest = load i32, i32* %cleanup.dest.slot, align 4
  switch i32 %cleanup.dest, label %unreachable [
    i32 0, label %cleanup.cont
    i32 1, label %cleanup.cont
  ]

cleanup.cont:                                     ; preds = %cleanup421, %cleanup421
  ret void, !dbg !1802

ehcleanup418:                                     ; preds = %ehcleanup416, %lpad115
  call void @_ZN11xercesc_2_712ArrayJanitorItED2Ev(%"class.xercesc_2_7::ArrayJanitor"* %pathUriSpecName) #10, !dbg !1802
  br label %ehcleanup420, !dbg !1802

ehcleanup420:                                     ; preds = %ehcleanup418, %lpad70
  call void @_ZN11xercesc_2_712ArrayJanitorItED2Ev(%"class.xercesc_2_7::ArrayJanitor"* %authName) #10, !dbg !1802
  br label %ehcleanup422, !dbg !1802

ehcleanup422:                                     ; preds = %ehcleanup420, %lpad59, %lpad44, %lpad6, %lpad
  call void @_ZN11xercesc_2_712ArrayJanitorItED2Ev(%"class.xercesc_2_7::ArrayJanitor"* %janName) #10, !dbg !1802
  br label %eh.resume, !dbg !1802

eh.resume:                                        ; preds = %ehcleanup422
  %exn = load i8*, i8** %exn.slot, align 8, !dbg !1802
  %sel = load i32, i32* %ehselector.slot, align 4, !dbg !1802
  %lpad.val = insertvalue { i8*, i32 } undef, i8* %exn, 0, !dbg !1802
  %lpad.val423 = insertvalue { i8*, i32 } %lpad.val, i32 %sel, 1, !dbg !1802
  resume { i8*, i32 } %lpad.val423, !dbg !1802

unreachable:                                      ; preds = %cleanup421, %invoke.cont60, %invoke.cont45, %invoke.cont7
  unreachable
}

; Function Attrs: nounwind readnone
declare i32 @llvm.eh.typeid.for(i8*) #4

declare dso_local i8* @__cxa_begin_catch(i8*)

; Function Attrs: noinline nounwind uwtable
define linkonce_odr dso_local void @_ZN11xercesc_2_717JanitorMemFunCallINS_6XMLUriEE7releaseEv(%"class.xercesc_2_7::JanitorMemFunCall"* %this) #1 comdat align 2 !dbg !2383 {
entry:
  %this.addr = alloca %"class.xercesc_2_7::JanitorMemFunCall"*, align 8
  store %"class.xercesc_2_7::JanitorMemFunCall"* %this, %"class.xercesc_2_7::JanitorMemFunCall"** %this.addr, align 8
  call void @llvm.dbg.declare(metadata %"class.xercesc_2_7::JanitorMemFunCall"** %this.addr, metadata !2384, metadata !DIExpression()), !dbg !2385
  %this1 = load %"class.xercesc_2_7::JanitorMemFunCall"*, %"class.xercesc_2_7::JanitorMemFunCall"** %this.addr, align 8
  %fObject = getelementptr inbounds %"class.xercesc_2_7::JanitorMemFunCall", %"class.xercesc_2_7::JanitorMemFunCall"* %this1, i32 0, i32 0, !dbg !2386
  store %"class.xercesc_2_7::XMLUri"* null, %"class.xercesc_2_7::XMLUri"** %fObject, align 8, !dbg !2387
  %fToCall = getelementptr inbounds %"class.xercesc_2_7::JanitorMemFunCall", %"class.xercesc_2_7::JanitorMemFunCall"* %this1, i32 0, i32 1, !dbg !2388
  store { i64, i64 } zeroinitializer, { i64, i64 }* %fToCall, align 8, !dbg !2389
  ret void, !dbg !2390
}

declare dso_local void @__cxa_rethrow()

declare dso_local void @__cxa_end_catch()

; Function Attrs: noinline noreturn nounwind
define linkonce_odr hidden void @__clang_call_terminate(i8* %0) #5 comdat {
  %2 = call i8* @__cxa_begin_catch(i8* %0) #10
  call void @_ZSt9terminatev() #13
  unreachable
}

declare dso_local void @_ZSt9terminatev()

; Function Attrs: noinline nounwind uwtable
define linkonce_odr dso_local void @_ZN11xercesc_2_717JanitorMemFunCallINS_6XMLUriEED2Ev(%"class.xercesc_2_7::JanitorMemFunCall"* %this) unnamed_addr #1 comdat align 2 personality i8* bitcast (i32 (...)* @__gxx_personality_v0 to i8*) !dbg !2391 {
entry:
  %this.addr = alloca %"class.xercesc_2_7::JanitorMemFunCall"*, align 8
  store %"class.xercesc_2_7::JanitorMemFunCall"* %this, %"class.xercesc_2_7::JanitorMemFunCall"** %this.addr, align 8
  call void @llvm.dbg.declare(metadata %"class.xercesc_2_7::JanitorMemFunCall"** %this.addr, metadata !2392, metadata !DIExpression()), !dbg !2393
  %this1 = load %"class.xercesc_2_7::JanitorMemFunCall"*, %"class.xercesc_2_7::JanitorMemFunCall"** %this.addr, align 8
  %fObject = getelementptr inbounds %"class.xercesc_2_7::JanitorMemFunCall", %"class.xercesc_2_7::JanitorMemFunCall"* %this1, i32 0, i32 0, !dbg !2394
  %0 = load %"class.xercesc_2_7::XMLUri"*, %"class.xercesc_2_7::XMLUri"** %fObject, align 8, !dbg !2394
  %cmp = icmp ne %"class.xercesc_2_7::XMLUri"* %0, null, !dbg !2397
  br i1 %cmp, label %land.lhs.true, label %if.end, !dbg !2398

land.lhs.true:                                    ; preds = %entry
  %fToCall = getelementptr inbounds %"class.xercesc_2_7::JanitorMemFunCall", %"class.xercesc_2_7::JanitorMemFunCall"* %this1, i32 0, i32 1, !dbg !2399
  %1 = load { i64, i64 }, { i64, i64 }* %fToCall, align 8, !dbg !2399
  %lhs.memptr.ptr = extractvalue { i64, i64 } %1, 0, !dbg !2400
  %cmp.ptr = icmp ne i64 %lhs.memptr.ptr, 0, !dbg !2400
  %cmp.ptr.null = icmp ne i64 %lhs.memptr.ptr, 0, !dbg !2400
  %lhs.memptr.adj = extractvalue { i64, i64 } %1, 1, !dbg !2400
  %cmp.adj = icmp ne i64 %lhs.memptr.adj, 0, !dbg !2400
  %2 = and i1 %cmp.ptr.null, %cmp.adj, !dbg !2400
  %memptr.ne = or i1 %cmp.ptr, %2, !dbg !2400
  br i1 %memptr.ne, label %if.then, label %if.end, !dbg !2401

if.then:                                          ; preds = %land.lhs.true
  %fObject2 = getelementptr inbounds %"class.xercesc_2_7::JanitorMemFunCall", %"class.xercesc_2_7::JanitorMemFunCall"* %this1, i32 0, i32 0, !dbg !2402
  %3 = load %"class.xercesc_2_7::XMLUri"*, %"class.xercesc_2_7::XMLUri"** %fObject2, align 8, !dbg !2402
  %fToCall3 = getelementptr inbounds %"class.xercesc_2_7::JanitorMemFunCall", %"class.xercesc_2_7::JanitorMemFunCall"* %this1, i32 0, i32 1, !dbg !2404
  %4 = load { i64, i64 }, { i64, i64 }* %fToCall3, align 8, !dbg !2404
  %memptr.adj = extractvalue { i64, i64 } %4, 1, !dbg !2405
  %5 = bitcast %"class.xercesc_2_7::XMLUri"* %3 to i8*, !dbg !2405
  %6 = getelementptr inbounds i8, i8* %5, i64 %memptr.adj, !dbg !2405
  %this.adjusted = bitcast i8* %6 to %"class.xercesc_2_7::XMLUri"*, !dbg !2405
  %memptr.ptr = extractvalue { i64, i64 } %4, 0, !dbg !2405
  %7 = and i64 %memptr.ptr, 1, !dbg !2405
  %memptr.isvirtual = icmp ne i64 %7, 0, !dbg !2405
  br i1 %memptr.isvirtual, label %memptr.virtual, label %memptr.nonvirtual, !dbg !2405

memptr.virtual:                                   ; preds = %if.then
  %8 = bitcast %"class.xercesc_2_7::XMLUri"* %this.adjusted to i8**, !dbg !2405
  %vtable = load i8*, i8** %8, align 8, !dbg !2405
  %9 = sub i64 %memptr.ptr, 1, !dbg !2405
  %10 = getelementptr i8, i8* %vtable, i64 %9, !dbg !2405, !nosanitize !1534
  %11 = bitcast i8* %10 to void (%"class.xercesc_2_7::XMLUri"*)**, !dbg !2405, !nosanitize !1534
  %memptr.virtualfn = load void (%"class.xercesc_2_7::XMLUri"*)*, void (%"class.xercesc_2_7::XMLUri"*)** %11, align 8, !dbg !2405, !nosanitize !1534
  br label %memptr.end, !dbg !2405

memptr.nonvirtual:                                ; preds = %if.then
  %memptr.nonvirtualfn = inttoptr i64 %memptr.ptr to void (%"class.xercesc_2_7::XMLUri"*)*, !dbg !2405
  br label %memptr.end, !dbg !2405

memptr.end:                                       ; preds = %memptr.nonvirtual, %memptr.virtual
  %12 = phi void (%"class.xercesc_2_7::XMLUri"*)* [ %memptr.virtualfn, %memptr.virtual ], [ %memptr.nonvirtualfn, %memptr.nonvirtual ], !dbg !2405
  invoke void %12(%"class.xercesc_2_7::XMLUri"* %this.adjusted)
          to label %invoke.cont unwind label %terminate.lpad, !dbg !2405

invoke.cont:                                      ; preds = %memptr.end
  br label %if.end, !dbg !2406

if.end:                                           ; preds = %invoke.cont, %land.lhs.true, %entry
  ret void, !dbg !2407

terminate.lpad:                                   ; preds = %memptr.end
  %13 = landingpad { i8*, i32 }
          catch i8* null, !dbg !2405
  %14 = extractvalue { i8*, i32 } %13, 0, !dbg !2405
  call void @__clang_call_terminate(i8* %14) #13, !dbg !2405
  unreachable, !dbg !2405
}

; Function Attrs: noinline uwtable
define dso_local void @_ZN11xercesc_2_76XMLUriC2EPKS0_PKtPNS_13MemoryManagerE(%"class.xercesc_2_7::XMLUri"* %this, %"class.xercesc_2_7::XMLUri"* %baseURI, i16* %uriSpec, %"class.xercesc_2_7::MemoryManager"* %manager) unnamed_addr #3 align 2 personality i8* bitcast (i32 (...)* @__gxx_personality_v0 to i8*) !dbg !2408 {
entry:
  %this.addr = alloca %"class.xercesc_2_7::XMLUri"*, align 8
  %baseURI.addr = alloca %"class.xercesc_2_7::XMLUri"*, align 8
  %uriSpec.addr = alloca i16*, align 8
  %manager.addr = alloca %"class.xercesc_2_7::MemoryManager"*, align 8
  %exn.slot = alloca i8*
  %ehselector.slot = alloca i32
  %cleanup = alloca %"class.xercesc_2_7::JanitorMemFunCall", align 8
  %coerce = alloca { i64, i64 }, align 8
  %0 = alloca %"class.xercesc_2_7::OutOfMemoryException"*, align 8
  store %"class.xercesc_2_7::XMLUri"* %this, %"class.xercesc_2_7::XMLUri"** %this.addr, align 8
  call void @llvm.dbg.declare(metadata %"class.xercesc_2_7::XMLUri"** %this.addr, metadata !2409, metadata !DIExpression()), !dbg !2410
  store %"class.xercesc_2_7::XMLUri"* %baseURI, %"class.xercesc_2_7::XMLUri"** %baseURI.addr, align 8
  call void @llvm.dbg.declare(metadata %"class.xercesc_2_7::XMLUri"** %baseURI.addr, metadata !2411, metadata !DIExpression()), !dbg !2412
  store i16* %uriSpec, i16** %uriSpec.addr, align 8
  call void @llvm.dbg.declare(metadata i16** %uriSpec.addr, metadata !2413, metadata !DIExpression()), !dbg !2414
  store %"class.xercesc_2_7::MemoryManager"* %manager, %"class.xercesc_2_7::MemoryManager"** %manager.addr, align 8
  call void @llvm.dbg.declare(metadata %"class.xercesc_2_7::MemoryManager"** %manager.addr, metadata !2415, metadata !DIExpression()), !dbg !2416
  %this1 = load %"class.xercesc_2_7::XMLUri"*, %"class.xercesc_2_7::XMLUri"** %this.addr, align 8
  %1 = bitcast %"class.xercesc_2_7::XMLUri"* %this1 to %"class.xercesc_2_7::XSerializable"*, !dbg !2417
  call void @_ZN11xercesc_2_713XSerializableC2Ev(%"class.xercesc_2_7::XSerializable"* %1), !dbg !2418
  %2 = bitcast %"class.xercesc_2_7::XMLUri"* %this1 to %"class.xercesc_2_7::XMemory"*, !dbg !2417
  invoke void @_ZN11xercesc_2_77XMemoryC2Ev(%"class.xercesc_2_7::XMemory"* %2)
          to label %invoke.cont unwind label %lpad, !dbg !2418

invoke.cont:                                      ; preds = %entry
  %3 = bitcast %"class.xercesc_2_7::XMLUri"* %this1 to i32 (...)***, !dbg !2417
  store i32 (...)** bitcast (i8** getelementptr inbounds ({ [7 x i8*] }, { [7 x i8*] }* @_ZTVN11xercesc_2_76XMLUriE, i32 0, inrange i32 0, i32 2) to i32 (...)**), i32 (...)*** %3, align 8, !dbg !2417
  %fPort = getelementptr inbounds %"class.xercesc_2_7::XMLUri", %"class.xercesc_2_7::XMLUri"* %this1, i32 0, i32 1, !dbg !2419
  store i32 -1, i32* %fPort, align 8, !dbg !2419
  %fScheme = getelementptr inbounds %"class.xercesc_2_7::XMLUri", %"class.xercesc_2_7::XMLUri"* %this1, i32 0, i32 2, !dbg !2420
  store i16* null, i16** %fScheme, align 8, !dbg !2420
  %fUserInfo = getelementptr inbounds %"class.xercesc_2_7::XMLUri", %"class.xercesc_2_7::XMLUri"* %this1, i32 0, i32 3, !dbg !2421
  store i16* null, i16** %fUserInfo, align 8, !dbg !2421
  %fHost = getelementptr inbounds %"class.xercesc_2_7::XMLUri", %"class.xercesc_2_7::XMLUri"* %this1, i32 0, i32 4, !dbg !2422
  store i16* null, i16** %fHost, align 8, !dbg !2422
  %fRegAuth = getelementptr inbounds %"class.xercesc_2_7::XMLUri", %"class.xercesc_2_7::XMLUri"* %this1, i32 0, i32 5, !dbg !2423
  store i16* null, i16** %fRegAuth, align 8, !dbg !2423
  %fPath = getelementptr inbounds %"class.xercesc_2_7::XMLUri", %"class.xercesc_2_7::XMLUri"* %this1, i32 0, i32 6, !dbg !2424
  store i16* null, i16** %fPath, align 8, !dbg !2424
  %fQueryString = getelementptr inbounds %"class.xercesc_2_7::XMLUri", %"class.xercesc_2_7::XMLUri"* %this1, i32 0, i32 7, !dbg !2425
  store i16* null, i16** %fQueryString, align 8, !dbg !2425
  %fFragment = getelementptr inbounds %"class.xercesc_2_7::XMLUri", %"class.xercesc_2_7::XMLUri"* %this1, i32 0, i32 8, !dbg !2426
  store i16* null, i16** %fFragment, align 8, !dbg !2426
  %fURIText = getelementptr inbounds %"class.xercesc_2_7::XMLUri", %"class.xercesc_2_7::XMLUri"* %this1, i32 0, i32 9, !dbg !2427
  store i16* null, i16** %fURIText, align 8, !dbg !2427
  %fMemoryManager = getelementptr inbounds %"class.xercesc_2_7::XMLUri", %"class.xercesc_2_7::XMLUri"* %this1, i32 0, i32 10, !dbg !2428
  %4 = load %"class.xercesc_2_7::MemoryManager"*, %"class.xercesc_2_7::MemoryManager"** %manager.addr, align 8, !dbg !2429
  store %"class.xercesc_2_7::MemoryManager"* %4, %"class.xercesc_2_7::MemoryManager"** %fMemoryManager, align 8, !dbg !2428
  call void @llvm.dbg.declare(metadata %"class.xercesc_2_7::JanitorMemFunCall"* %cleanup, metadata !2430, metadata !DIExpression()), !dbg !2432
  store { i64, i64 } { i64 ptrtoint (void (%"class.xercesc_2_7::XMLUri"*)* @_ZN11xercesc_2_76XMLUri7cleanUpEv to i64), i64 0 }, { i64, i64 }* %coerce, align 8, !dbg !2432
  %5 = getelementptr inbounds { i64, i64 }, { i64, i64 }* %coerce, i32 0, i32 0, !dbg !2432
  %6 = load i64, i64* %5, align 8, !dbg !2432
  %7 = getelementptr inbounds { i64, i64 }, { i64, i64 }* %coerce, i32 0, i32 1, !dbg !2432
  %8 = load i64, i64* %7, align 8, !dbg !2432
  invoke void @_ZN11xercesc_2_717JanitorMemFunCallINS_6XMLUriEEC2EPS1_MS1_FvvE(%"class.xercesc_2_7::JanitorMemFunCall"* %cleanup, %"class.xercesc_2_7::XMLUri"* %this1, i64 %6, i64 %8)
          to label %invoke.cont2 unwind label %lpad, !dbg !2432

invoke.cont2:                                     ; preds = %invoke.cont
  %9 = load %"class.xercesc_2_7::XMLUri"*, %"class.xercesc_2_7::XMLUri"** %baseURI.addr, align 8, !dbg !2433
  %10 = load i16*, i16** %uriSpec.addr, align 8, !dbg !2435
  invoke void @_ZN11xercesc_2_76XMLUri10initializeEPKS0_PKt(%"class.xercesc_2_7::XMLUri"* %this1, %"class.xercesc_2_7::XMLUri"* %9, i16* %10)
          to label %invoke.cont4 unwind label %lpad3, !dbg !2436

invoke.cont4:                                     ; preds = %invoke.cont2
  br label %try.cont, !dbg !2437

lpad:                                             ; preds = %invoke.cont, %entry
  %11 = landingpad { i8*, i32 }
          cleanup, !dbg !2438
  %12 = extractvalue { i8*, i32 } %11, 0, !dbg !2438
  store i8* %12, i8** %exn.slot, align 8, !dbg !2438
  %13 = extractvalue { i8*, i32 } %11, 1, !dbg !2438
  store i32 %13, i32* %ehselector.slot, align 4, !dbg !2438
  br label %ehcleanup10, !dbg !2438

lpad3:                                            ; preds = %invoke.cont2
  %14 = landingpad { i8*, i32 }
          cleanup
          catch i8* bitcast ({ i8*, i8*, i8* }* @_ZTIN11xercesc_2_720OutOfMemoryExceptionE to i8*), !dbg !2439
  %15 = extractvalue { i8*, i32 } %14, 0, !dbg !2439
  store i8* %15, i8** %exn.slot, align 8, !dbg !2439
  %16 = extractvalue { i8*, i32 } %14, 1, !dbg !2439
  store i32 %16, i32* %ehselector.slot, align 4, !dbg !2439
  br label %catch.dispatch, !dbg !2439

catch.dispatch:                                   ; preds = %lpad3
  %sel = load i32, i32* %ehselector.slot, align 4, !dbg !2437
  %17 = call i32 @llvm.eh.typeid.for(i8* bitcast ({ i8*, i8*, i8* }* @_ZTIN11xercesc_2_720OutOfMemoryExceptionE to i8*)) #10, !dbg !2437
  %matches = icmp eq i32 %sel, %17, !dbg !2437
  br i1 %matches, label %catch, label %ehcleanup, !dbg !2437

catch:                                            ; preds = %catch.dispatch
  call void @llvm.dbg.declare(metadata %"class.xercesc_2_7::OutOfMemoryException"** %0, metadata !2440, metadata !DIExpression()), !dbg !2441
  %exn = load i8*, i8** %exn.slot, align 8, !dbg !2437
  %18 = call i8* @__cxa_begin_catch(i8* %exn) #10, !dbg !2437
  %exn.byref = bitcast i8* %18 to %"class.xercesc_2_7::OutOfMemoryException"*, !dbg !2437
  store %"class.xercesc_2_7::OutOfMemoryException"* %exn.byref, %"class.xercesc_2_7::OutOfMemoryException"** %0, align 8, !dbg !2437
  invoke void @_ZN11xercesc_2_717JanitorMemFunCallINS_6XMLUriEE7releaseEv(%"class.xercesc_2_7::JanitorMemFunCall"* %cleanup)
          to label %invoke.cont6 unwind label %lpad5, !dbg !2442

invoke.cont6:                                     ; preds = %catch
  invoke void @__cxa_rethrow() #12
          to label %unreachable unwind label %lpad5, !dbg !2444

lpad5:                                            ; preds = %invoke.cont6, %catch
  %19 = landingpad { i8*, i32 }
          cleanup, !dbg !2445
  %20 = extractvalue { i8*, i32 } %19, 0, !dbg !2445
  store i8* %20, i8** %exn.slot, align 8, !dbg !2445
  %21 = extractvalue { i8*, i32 } %19, 1, !dbg !2445
  store i32 %21, i32* %ehselector.slot, align 4, !dbg !2445
  invoke void @__cxa_end_catch()
          to label %invoke.cont7 unwind label %terminate.lpad, !dbg !2446

invoke.cont7:                                     ; preds = %lpad5
  br label %ehcleanup, !dbg !2446

try.cont:                                         ; preds = %invoke.cont4
  invoke void @_ZN11xercesc_2_717JanitorMemFunCallINS_6XMLUriEE7releaseEv(%"class.xercesc_2_7::JanitorMemFunCall"* %cleanup)
          to label %invoke.cont9 unwind label %lpad8, !dbg !2447

invoke.cont9:                                     ; preds = %try.cont
  call void @_ZN11xercesc_2_717JanitorMemFunCallINS_6XMLUriEED2Ev(%"class.xercesc_2_7::JanitorMemFunCall"* %cleanup) #10, !dbg !2438
  ret void, !dbg !2438

lpad8:                                            ; preds = %try.cont
  %22 = landingpad { i8*, i32 }
          cleanup, !dbg !2448
  %23 = extractvalue { i8*, i32 } %22, 0, !dbg !2448
  store i8* %23, i8** %exn.slot, align 8, !dbg !2448
  %24 = extractvalue { i8*, i32 } %22, 1, !dbg !2448
  store i32 %24, i32* %ehselector.slot, align 4, !dbg !2448
  br label %ehcleanup, !dbg !2448

ehcleanup:                                        ; preds = %lpad8, %invoke.cont7, %catch.dispatch
  call void @_ZN11xercesc_2_717JanitorMemFunCallINS_6XMLUriEED2Ev(%"class.xercesc_2_7::JanitorMemFunCall"* %cleanup) #10, !dbg !2438
  br label %ehcleanup10, !dbg !2438

ehcleanup10:                                      ; preds = %ehcleanup, %lpad
  %25 = bitcast %"class.xercesc_2_7::XMLUri"* %this1 to %"class.xercesc_2_7::XSerializable"*, !dbg !2448
  call void @_ZN11xercesc_2_713XSerializableD2Ev(%"class.xercesc_2_7::XSerializable"* %25) #10, !dbg !2448
  br label %eh.resume, !dbg !2448

eh.resume:                                        ; preds = %ehcleanup10
  %exn11 = load i8*, i8** %exn.slot, align 8, !dbg !2448
  %sel12 = load i32, i32* %ehselector.slot, align 4, !dbg !2448
  %lpad.val = insertvalue { i8*, i32 } undef, i8* %exn11, 0, !dbg !2448
  %lpad.val13 = insertvalue { i8*, i32 } %lpad.val, i32 %sel12, 1, !dbg !2448
  resume { i8*, i32 } %lpad.val13, !dbg !2448

terminate.lpad:                                   ; preds = %lpad5
  %26 = landingpad { i8*, i32 }
          catch i8* null, !dbg !2446
  %27 = extractvalue { i8*, i32 } %26, 0, !dbg !2446
  call void @__clang_call_terminate(i8* %27) #13, !dbg !2446
  unreachable, !dbg !2446

unreachable:                                      ; preds = %invoke.cont6
  unreachable
}

; Function Attrs: noinline uwtable
define dso_local void @_ZN11xercesc_2_76XMLUriC2ERKS0_(%"class.xercesc_2_7::XMLUri"* %this, %"class.xercesc_2_7::XMLUri"* dereferenceable(88) %toCopy) unnamed_addr #3 align 2 personality i8* bitcast (i32 (...)* @__gxx_personality_v0 to i8*) !dbg !2449 {
entry:
  %this.addr = alloca %"class.xercesc_2_7::XMLUri"*, align 8
  %toCopy.addr = alloca %"class.xercesc_2_7::XMLUri"*, align 8
  %cleanup = alloca %"class.xercesc_2_7::JanitorMemFunCall", align 8
  %coerce = alloca { i64, i64 }, align 8
  %exn.slot = alloca i8*
  %ehselector.slot = alloca i32
  %0 = alloca %"class.xercesc_2_7::OutOfMemoryException"*, align 8
  store %"class.xercesc_2_7::XMLUri"* %this, %"class.xercesc_2_7::XMLUri"** %this.addr, align 8
  call void @llvm.dbg.declare(metadata %"class.xercesc_2_7::XMLUri"** %this.addr, metadata !2450, metadata !DIExpression()), !dbg !2451
  store %"class.xercesc_2_7::XMLUri"* %toCopy, %"class.xercesc_2_7::XMLUri"** %toCopy.addr, align 8
  call void @llvm.dbg.declare(metadata %"class.xercesc_2_7::XMLUri"** %toCopy.addr, metadata !2452, metadata !DIExpression()), !dbg !2453
  %this1 = load %"class.xercesc_2_7::XMLUri"*, %"class.xercesc_2_7::XMLUri"** %this.addr, align 8
  %1 = bitcast %"class.xercesc_2_7::XMLUri"* %this1 to %"class.xercesc_2_7::XSerializable"*, !dbg !2454
  %2 = load %"class.xercesc_2_7::XMLUri"*, %"class.xercesc_2_7::XMLUri"** %toCopy.addr, align 8, !dbg !2455
  %3 = bitcast %"class.xercesc_2_7::XMLUri"* %2 to %"class.xercesc_2_7::XSerializable"*, !dbg !2455
  call void @_ZN11xercesc_2_713XSerializableC2ERKS0_(%"class.xercesc_2_7::XSerializable"* %1, %"class.xercesc_2_7::XSerializable"* dereferenceable(8) %3), !dbg !2456
  %4 = bitcast %"class.xercesc_2_7::XMLUri"* %this1 to %"class.xercesc_2_7::XMemory"*, !dbg !2454
  %5 = load %"class.xercesc_2_7::XMLUri"*, %"class.xercesc_2_7::XMLUri"** %toCopy.addr, align 8, !dbg !2457
  %6 = bitcast %"class.xercesc_2_7::XMLUri"* %5 to %"class.xercesc_2_7::XMemory"*, !dbg !2457
  %7 = bitcast %"class.xercesc_2_7::XMLUri"* %this1 to i32 (...)***, !dbg !2454
  store i32 (...)** bitcast (i8** getelementptr inbounds ({ [7 x i8*] }, { [7 x i8*] }* @_ZTVN11xercesc_2_76XMLUriE, i32 0, inrange i32 0, i32 2) to i32 (...)**), i32 (...)*** %7, align 8, !dbg !2454
  %fPort = getelementptr inbounds %"class.xercesc_2_7::XMLUri", %"class.xercesc_2_7::XMLUri"* %this1, i32 0, i32 1, !dbg !2458
  store i32 -1, i32* %fPort, align 8, !dbg !2458
  %fScheme = getelementptr inbounds %"class.xercesc_2_7::XMLUri", %"class.xercesc_2_7::XMLUri"* %this1, i32 0, i32 2, !dbg !2459
  store i16* null, i16** %fScheme, align 8, !dbg !2459
  %fUserInfo = getelementptr inbounds %"class.xercesc_2_7::XMLUri", %"class.xercesc_2_7::XMLUri"* %this1, i32 0, i32 3, !dbg !2460
  store i16* null, i16** %fUserInfo, align 8, !dbg !2460
  %fHost = getelementptr inbounds %"class.xercesc_2_7::XMLUri", %"class.xercesc_2_7::XMLUri"* %this1, i32 0, i32 4, !dbg !2461
  store i16* null, i16** %fHost, align 8, !dbg !2461
  %fRegAuth = getelementptr inbounds %"class.xercesc_2_7::XMLUri", %"class.xercesc_2_7::XMLUri"* %this1, i32 0, i32 5, !dbg !2462
  store i16* null, i16** %fRegAuth, align 8, !dbg !2462
  %fPath = getelementptr inbounds %"class.xercesc_2_7::XMLUri", %"class.xercesc_2_7::XMLUri"* %this1, i32 0, i32 6, !dbg !2463
  store i16* null, i16** %fPath, align 8, !dbg !2463
  %fQueryString = getelementptr inbounds %"class.xercesc_2_7::XMLUri", %"class.xercesc_2_7::XMLUri"* %this1, i32 0, i32 7, !dbg !2464
  store i16* null, i16** %fQueryString, align 8, !dbg !2464
  %fFragment = getelementptr inbounds %"class.xercesc_2_7::XMLUri", %"class.xercesc_2_7::XMLUri"* %this1, i32 0, i32 8, !dbg !2465
  store i16* null, i16** %fFragment, align 8, !dbg !2465
  %fURIText = getelementptr inbounds %"class.xercesc_2_7::XMLUri", %"class.xercesc_2_7::XMLUri"* %this1, i32 0, i32 9, !dbg !2466
  store i16* null, i16** %fURIText, align 8, !dbg !2466
  %fMemoryManager = getelementptr inbounds %"class.xercesc_2_7::XMLUri", %"class.xercesc_2_7::XMLUri"* %this1, i32 0, i32 10, !dbg !2467
  %8 = load %"class.xercesc_2_7::XMLUri"*, %"class.xercesc_2_7::XMLUri"** %toCopy.addr, align 8, !dbg !2468
  %fMemoryManager2 = getelementptr inbounds %"class.xercesc_2_7::XMLUri", %"class.xercesc_2_7::XMLUri"* %8, i32 0, i32 10, !dbg !2469
  %9 = load %"class.xercesc_2_7::MemoryManager"*, %"class.xercesc_2_7::MemoryManager"** %fMemoryManager2, align 8, !dbg !2469
  store %"class.xercesc_2_7::MemoryManager"* %9, %"class.xercesc_2_7::MemoryManager"** %fMemoryManager, align 8, !dbg !2467
  call void @llvm.dbg.declare(metadata %"class.xercesc_2_7::JanitorMemFunCall"* %cleanup, metadata !2470, metadata !DIExpression()), !dbg !2472
  store { i64, i64 } { i64 ptrtoint (void (%"class.xercesc_2_7::XMLUri"*)* @_ZN11xercesc_2_76XMLUri7cleanUpEv to i64), i64 0 }, { i64, i64 }* %coerce, align 8, !dbg !2472
  %10 = getelementptr inbounds { i64, i64 }, { i64, i64 }* %coerce, i32 0, i32 0, !dbg !2472
  %11 = load i64, i64* %10, align 8, !dbg !2472
  %12 = getelementptr inbounds { i64, i64 }, { i64, i64 }* %coerce, i32 0, i32 1, !dbg !2472
  %13 = load i64, i64* %12, align 8, !dbg !2472
  invoke void @_ZN11xercesc_2_717JanitorMemFunCallINS_6XMLUriEEC2EPS1_MS1_FvvE(%"class.xercesc_2_7::JanitorMemFunCall"* %cleanup, %"class.xercesc_2_7::XMLUri"* %this1, i64 %11, i64 %13)
          to label %invoke.cont unwind label %lpad, !dbg !2472

invoke.cont:                                      ; preds = %entry
  %14 = load %"class.xercesc_2_7::XMLUri"*, %"class.xercesc_2_7::XMLUri"** %toCopy.addr, align 8, !dbg !2473
  invoke void @_ZN11xercesc_2_76XMLUri10initializeERKS0_(%"class.xercesc_2_7::XMLUri"* %this1, %"class.xercesc_2_7::XMLUri"* dereferenceable(88) %14)
          to label %invoke.cont4 unwind label %lpad3, !dbg !2475

invoke.cont4:                                     ; preds = %invoke.cont
  br label %try.cont, !dbg !2476

lpad:                                             ; preds = %entry
  %15 = landingpad { i8*, i32 }
          cleanup, !dbg !2477
  %16 = extractvalue { i8*, i32 } %15, 0, !dbg !2477
  store i8* %16, i8** %exn.slot, align 8, !dbg !2477
  %17 = extractvalue { i8*, i32 } %15, 1, !dbg !2477
  store i32 %17, i32* %ehselector.slot, align 4, !dbg !2477
  br label %ehcleanup10, !dbg !2477

lpad3:                                            ; preds = %invoke.cont
  %18 = landingpad { i8*, i32 }
          cleanup
          catch i8* bitcast ({ i8*, i8*, i8* }* @_ZTIN11xercesc_2_720OutOfMemoryExceptionE to i8*), !dbg !2478
  %19 = extractvalue { i8*, i32 } %18, 0, !dbg !2478
  store i8* %19, i8** %exn.slot, align 8, !dbg !2478
  %20 = extractvalue { i8*, i32 } %18, 1, !dbg !2478
  store i32 %20, i32* %ehselector.slot, align 4, !dbg !2478
  br label %catch.dispatch, !dbg !2478

catch.dispatch:                                   ; preds = %lpad3
  %sel = load i32, i32* %ehselector.slot, align 4, !dbg !2476
  %21 = call i32 @llvm.eh.typeid.for(i8* bitcast ({ i8*, i8*, i8* }* @_ZTIN11xercesc_2_720OutOfMemoryExceptionE to i8*)) #10, !dbg !2476
  %matches = icmp eq i32 %sel, %21, !dbg !2476
  br i1 %matches, label %catch, label %ehcleanup, !dbg !2476

catch:                                            ; preds = %catch.dispatch
  call void @llvm.dbg.declare(metadata %"class.xercesc_2_7::OutOfMemoryException"** %0, metadata !2479, metadata !DIExpression()), !dbg !2480
  %exn = load i8*, i8** %exn.slot, align 8, !dbg !2476
  %22 = call i8* @__cxa_begin_catch(i8* %exn) #10, !dbg !2476
  %exn.byref = bitcast i8* %22 to %"class.xercesc_2_7::OutOfMemoryException"*, !dbg !2476
  store %"class.xercesc_2_7::OutOfMemoryException"* %exn.byref, %"class.xercesc_2_7::OutOfMemoryException"** %0, align 8, !dbg !2476
  invoke void @_ZN11xercesc_2_717JanitorMemFunCallINS_6XMLUriEE7releaseEv(%"class.xercesc_2_7::JanitorMemFunCall"* %cleanup)
          to label %invoke.cont6 unwind label %lpad5, !dbg !2481

invoke.cont6:                                     ; preds = %catch
  invoke void @__cxa_rethrow() #12
          to label %unreachable unwind label %lpad5, !dbg !2483

lpad5:                                            ; preds = %invoke.cont6, %catch
  %23 = landingpad { i8*, i32 }
          cleanup, !dbg !2484
  %24 = extractvalue { i8*, i32 } %23, 0, !dbg !2484
  store i8* %24, i8** %exn.slot, align 8, !dbg !2484
  %25 = extractvalue { i8*, i32 } %23, 1, !dbg !2484
  store i32 %25, i32* %ehselector.slot, align 4, !dbg !2484
  invoke void @__cxa_end_catch()
          to label %invoke.cont7 unwind label %terminate.lpad, !dbg !2485

invoke.cont7:                                     ; preds = %lpad5
  br label %ehcleanup, !dbg !2485

try.cont:                                         ; preds = %invoke.cont4
  invoke void @_ZN11xercesc_2_717JanitorMemFunCallINS_6XMLUriEE7releaseEv(%"class.xercesc_2_7::JanitorMemFunCall"* %cleanup)
          to label %invoke.cont9 unwind label %lpad8, !dbg !2486

invoke.cont9:                                     ; preds = %try.cont
  call void @_ZN11xercesc_2_717JanitorMemFunCallINS_6XMLUriEED2Ev(%"class.xercesc_2_7::JanitorMemFunCall"* %cleanup) #10, !dbg !2487
  ret void, !dbg !2487

lpad8:                                            ; preds = %try.cont
  %26 = landingpad { i8*, i32 }
          cleanup, !dbg !2477
  %27 = extractvalue { i8*, i32 } %26, 0, !dbg !2477
  store i8* %27, i8** %exn.slot, align 8, !dbg !2477
  %28 = extractvalue { i8*, i32 } %26, 1, !dbg !2477
  store i32 %28, i32* %ehselector.slot, align 4, !dbg !2477
  br label %ehcleanup, !dbg !2477

ehcleanup:                                        ; preds = %lpad8, %invoke.cont7, %catch.dispatch
  call void @_ZN11xercesc_2_717JanitorMemFunCallINS_6XMLUriEED2Ev(%"class.xercesc_2_7::JanitorMemFunCall"* %cleanup) #10, !dbg !2487
  br label %ehcleanup10, !dbg !2487

ehcleanup10:                                      ; preds = %ehcleanup, %lpad
  %29 = bitcast %"class.xercesc_2_7::XMLUri"* %this1 to %"class.xercesc_2_7::XSerializable"*, !dbg !2477
  call void @_ZN11xercesc_2_713XSerializableD2Ev(%"class.xercesc_2_7::XSerializable"* %29) #10, !dbg !2477
  br label %eh.resume, !dbg !2477

eh.resume:                                        ; preds = %ehcleanup10
  %exn11 = load i8*, i8** %exn.slot, align 8, !dbg !2477
  %sel12 = load i32, i32* %ehselector.slot, align 4, !dbg !2477
  %lpad.val = insertvalue { i8*, i32 } undef, i8* %exn11, 0, !dbg !2477
  %lpad.val13 = insertvalue { i8*, i32 } %lpad.val, i32 %sel12, 1, !dbg !2477
  resume { i8*, i32 } %lpad.val13, !dbg !2477

terminate.lpad:                                   ; preds = %lpad5
  %30 = landingpad { i8*, i32 }
          catch i8* null, !dbg !2485
  %31 = extractvalue { i8*, i32 } %30, 0, !dbg !2485
  call void @__clang_call_terminate(i8* %31) #13, !dbg !2485
  unreachable, !dbg !2485

unreachable:                                      ; preds = %invoke.cont6
  unreachable
}

; Function Attrs: noinline nounwind uwtable
define linkonce_odr dso_local void @_ZN11xercesc_2_713XSerializableC2ERKS0_(%"class.xercesc_2_7::XSerializable"* %this, %"class.xercesc_2_7::XSerializable"* dereferenceable(8) %0) unnamed_addr #1 comdat align 2 !dbg !2488 {
entry:
  %this.addr = alloca %"class.xercesc_2_7::XSerializable"*, align 8
  %.addr = alloca %"class.xercesc_2_7::XSerializable"*, align 8
  store %"class.xercesc_2_7::XSerializable"* %this, %"class.xercesc_2_7::XSerializable"** %this.addr, align 8
  call void @llvm.dbg.declare(metadata %"class.xercesc_2_7::XSerializable"** %this.addr, metadata !2489, metadata !DIExpression()), !dbg !2490
  store %"class.xercesc_2_7::XSerializable"* %0, %"class.xercesc_2_7::XSerializable"** %.addr, align 8
  call void @llvm.dbg.declare(metadata %"class.xercesc_2_7::XSerializable"** %.addr, metadata !2491, metadata !DIExpression()), !dbg !2492
  %this1 = load %"class.xercesc_2_7::XSerializable"*, %"class.xercesc_2_7::XSerializable"** %this.addr, align 8
  %1 = bitcast %"class.xercesc_2_7::XSerializable"* %this1 to i32 (...)***, !dbg !2493
  store i32 (...)** bitcast (i8** getelementptr inbounds ({ [7 x i8*] }, { [7 x i8*] }* @_ZTVN11xercesc_2_713XSerializableE, i32 0, inrange i32 0, i32 2) to i32 (...)**), i32 (...)*** %1, align 8, !dbg !2493
  ret void, !dbg !2494
}

; Function Attrs: noinline uwtable
define dso_local void @_ZN11xercesc_2_76XMLUri10initializeERKS0_(%"class.xercesc_2_7::XMLUri"* %this, %"class.xercesc_2_7::XMLUri"* dereferenceable(88) %toCopy) #3 align 2 !dbg !2495 {
entry:
  %this.addr = alloca %"class.xercesc_2_7::XMLUri"*, align 8
  %toCopy.addr = alloca %"class.xercesc_2_7::XMLUri"*, align 8
  store %"class.xercesc_2_7::XMLUri"* %this, %"class.xercesc_2_7::XMLUri"** %this.addr, align 8
  call void @llvm.dbg.declare(metadata %"class.xercesc_2_7::XMLUri"** %this.addr, metadata !2496, metadata !DIExpression()), !dbg !2497
  store %"class.xercesc_2_7::XMLUri"* %toCopy, %"class.xercesc_2_7::XMLUri"** %toCopy.addr, align 8
  call void @llvm.dbg.declare(metadata %"class.xercesc_2_7::XMLUri"** %toCopy.addr, metadata !2498, metadata !DIExpression()), !dbg !2499
  %this1 = load %"class.xercesc_2_7::XMLUri"*, %"class.xercesc_2_7::XMLUri"** %this.addr, align 8
  %0 = load %"class.xercesc_2_7::XMLUri"*, %"class.xercesc_2_7::XMLUri"** %toCopy.addr, align 8, !dbg !2500
  %fMemoryManager = getelementptr inbounds %"class.xercesc_2_7::XMLUri", %"class.xercesc_2_7::XMLUri"* %0, i32 0, i32 10, !dbg !2501
  %1 = load %"class.xercesc_2_7::MemoryManager"*, %"class.xercesc_2_7::MemoryManager"** %fMemoryManager, align 8, !dbg !2501
  %fMemoryManager2 = getelementptr inbounds %"class.xercesc_2_7::XMLUri", %"class.xercesc_2_7::XMLUri"* %this1, i32 0, i32 10, !dbg !2502
  store %"class.xercesc_2_7::MemoryManager"* %1, %"class.xercesc_2_7::MemoryManager"** %fMemoryManager2, align 8, !dbg !2503
  %2 = load %"class.xercesc_2_7::XMLUri"*, %"class.xercesc_2_7::XMLUri"** %toCopy.addr, align 8, !dbg !2504
  %fScheme = getelementptr inbounds %"class.xercesc_2_7::XMLUri", %"class.xercesc_2_7::XMLUri"* %2, i32 0, i32 2, !dbg !2505
  %3 = load i16*, i16** %fScheme, align 8, !dbg !2505
  %fMemoryManager3 = getelementptr inbounds %"class.xercesc_2_7::XMLUri", %"class.xercesc_2_7::XMLUri"* %this1, i32 0, i32 10, !dbg !2506
  %4 = load %"class.xercesc_2_7::MemoryManager"*, %"class.xercesc_2_7::MemoryManager"** %fMemoryManager3, align 8, !dbg !2506
  %call = call i16* @_ZN11xercesc_2_79XMLString9replicateEPKtPNS_13MemoryManagerE(i16* %3, %"class.xercesc_2_7::MemoryManager"* %4), !dbg !2507
  %fScheme4 = getelementptr inbounds %"class.xercesc_2_7::XMLUri", %"class.xercesc_2_7::XMLUri"* %this1, i32 0, i32 2, !dbg !2508
  store i16* %call, i16** %fScheme4, align 8, !dbg !2509
  %5 = load %"class.xercesc_2_7::XMLUri"*, %"class.xercesc_2_7::XMLUri"** %toCopy.addr, align 8, !dbg !2510
  %fUserInfo = getelementptr inbounds %"class.xercesc_2_7::XMLUri", %"class.xercesc_2_7::XMLUri"* %5, i32 0, i32 3, !dbg !2511
  %6 = load i16*, i16** %fUserInfo, align 8, !dbg !2511
  %fMemoryManager5 = getelementptr inbounds %"class.xercesc_2_7::XMLUri", %"class.xercesc_2_7::XMLUri"* %this1, i32 0, i32 10, !dbg !2512
  %7 = load %"class.xercesc_2_7::MemoryManager"*, %"class.xercesc_2_7::MemoryManager"** %fMemoryManager5, align 8, !dbg !2512
  %call6 = call i16* @_ZN11xercesc_2_79XMLString9replicateEPKtPNS_13MemoryManagerE(i16* %6, %"class.xercesc_2_7::MemoryManager"* %7), !dbg !2513
  %fUserInfo7 = getelementptr inbounds %"class.xercesc_2_7::XMLUri", %"class.xercesc_2_7::XMLUri"* %this1, i32 0, i32 3, !dbg !2514
  store i16* %call6, i16** %fUserInfo7, align 8, !dbg !2515
  %8 = load %"class.xercesc_2_7::XMLUri"*, %"class.xercesc_2_7::XMLUri"** %toCopy.addr, align 8, !dbg !2516
  %fHost = getelementptr inbounds %"class.xercesc_2_7::XMLUri", %"class.xercesc_2_7::XMLUri"* %8, i32 0, i32 4, !dbg !2517
  %9 = load i16*, i16** %fHost, align 8, !dbg !2517
  %fMemoryManager8 = getelementptr inbounds %"class.xercesc_2_7::XMLUri", %"class.xercesc_2_7::XMLUri"* %this1, i32 0, i32 10, !dbg !2518
  %10 = load %"class.xercesc_2_7::MemoryManager"*, %"class.xercesc_2_7::MemoryManager"** %fMemoryManager8, align 8, !dbg !2518
  %call9 = call i16* @_ZN11xercesc_2_79XMLString9replicateEPKtPNS_13MemoryManagerE(i16* %9, %"class.xercesc_2_7::MemoryManager"* %10), !dbg !2519
  %fHost10 = getelementptr inbounds %"class.xercesc_2_7::XMLUri", %"class.xercesc_2_7::XMLUri"* %this1, i32 0, i32 4, !dbg !2520
  store i16* %call9, i16** %fHost10, align 8, !dbg !2521
  %11 = load %"class.xercesc_2_7::XMLUri"*, %"class.xercesc_2_7::XMLUri"** %toCopy.addr, align 8, !dbg !2522
  %fPort = getelementptr inbounds %"class.xercesc_2_7::XMLUri", %"class.xercesc_2_7::XMLUri"* %11, i32 0, i32 1, !dbg !2523
  %12 = load i32, i32* %fPort, align 8, !dbg !2523
  %fPort11 = getelementptr inbounds %"class.xercesc_2_7::XMLUri", %"class.xercesc_2_7::XMLUri"* %this1, i32 0, i32 1, !dbg !2524
  store i32 %12, i32* %fPort11, align 8, !dbg !2525
  %13 = load %"class.xercesc_2_7::XMLUri"*, %"class.xercesc_2_7::XMLUri"** %toCopy.addr, align 8, !dbg !2526
  %fRegAuth = getelementptr inbounds %"class.xercesc_2_7::XMLUri", %"class.xercesc_2_7::XMLUri"* %13, i32 0, i32 5, !dbg !2527
  %14 = load i16*, i16** %fRegAuth, align 8, !dbg !2527
  %fMemoryManager12 = getelementptr inbounds %"class.xercesc_2_7::XMLUri", %"class.xercesc_2_7::XMLUri"* %this1, i32 0, i32 10, !dbg !2528
  %15 = load %"class.xercesc_2_7::MemoryManager"*, %"class.xercesc_2_7::MemoryManager"** %fMemoryManager12, align 8, !dbg !2528
  %call13 = call i16* @_ZN11xercesc_2_79XMLString9replicateEPKtPNS_13MemoryManagerE(i16* %14, %"class.xercesc_2_7::MemoryManager"* %15), !dbg !2529
  %fRegAuth14 = getelementptr inbounds %"class.xercesc_2_7::XMLUri", %"class.xercesc_2_7::XMLUri"* %this1, i32 0, i32 5, !dbg !2530
  store i16* %call13, i16** %fRegAuth14, align 8, !dbg !2531
  %16 = load %"class.xercesc_2_7::XMLUri"*, %"class.xercesc_2_7::XMLUri"** %toCopy.addr, align 8, !dbg !2532
  %fPath = getelementptr inbounds %"class.xercesc_2_7::XMLUri", %"class.xercesc_2_7::XMLUri"* %16, i32 0, i32 6, !dbg !2533
  %17 = load i16*, i16** %fPath, align 8, !dbg !2533
  %fMemoryManager15 = getelementptr inbounds %"class.xercesc_2_7::XMLUri", %"class.xercesc_2_7::XMLUri"* %this1, i32 0, i32 10, !dbg !2534
  %18 = load %"class.xercesc_2_7::MemoryManager"*, %"class.xercesc_2_7::MemoryManager"** %fMemoryManager15, align 8, !dbg !2534
  %call16 = call i16* @_ZN11xercesc_2_79XMLString9replicateEPKtPNS_13MemoryManagerE(i16* %17, %"class.xercesc_2_7::MemoryManager"* %18), !dbg !2535
  %fPath17 = getelementptr inbounds %"class.xercesc_2_7::XMLUri", %"class.xercesc_2_7::XMLUri"* %this1, i32 0, i32 6, !dbg !2536
  store i16* %call16, i16** %fPath17, align 8, !dbg !2537
  %19 = load %"class.xercesc_2_7::XMLUri"*, %"class.xercesc_2_7::XMLUri"** %toCopy.addr, align 8, !dbg !2538
  %fQueryString = getelementptr inbounds %"class.xercesc_2_7::XMLUri", %"class.xercesc_2_7::XMLUri"* %19, i32 0, i32 7, !dbg !2539
  %20 = load i16*, i16** %fQueryString, align 8, !dbg !2539
  %fMemoryManager18 = getelementptr inbounds %"class.xercesc_2_7::XMLUri", %"class.xercesc_2_7::XMLUri"* %this1, i32 0, i32 10, !dbg !2540
  %21 = load %"class.xercesc_2_7::MemoryManager"*, %"class.xercesc_2_7::MemoryManager"** %fMemoryManager18, align 8, !dbg !2540
  %call19 = call i16* @_ZN11xercesc_2_79XMLString9replicateEPKtPNS_13MemoryManagerE(i16* %20, %"class.xercesc_2_7::MemoryManager"* %21), !dbg !2541
  %fQueryString20 = getelementptr inbounds %"class.xercesc_2_7::XMLUri", %"class.xercesc_2_7::XMLUri"* %this1, i32 0, i32 7, !dbg !2542
  store i16* %call19, i16** %fQueryString20, align 8, !dbg !2543
  %22 = load %"class.xercesc_2_7::XMLUri"*, %"class.xercesc_2_7::XMLUri"** %toCopy.addr, align 8, !dbg !2544
  %fFragment = getelementptr inbounds %"class.xercesc_2_7::XMLUri", %"class.xercesc_2_7::XMLUri"* %22, i32 0, i32 8, !dbg !2545
  %23 = load i16*, i16** %fFragment, align 8, !dbg !2545
  %fMemoryManager21 = getelementptr inbounds %"class.xercesc_2_7::XMLUri", %"class.xercesc_2_7::XMLUri"* %this1, i32 0, i32 10, !dbg !2546
  %24 = load %"class.xercesc_2_7::MemoryManager"*, %"class.xercesc_2_7::MemoryManager"** %fMemoryManager21, align 8, !dbg !2546
  %call22 = call i16* @_ZN11xercesc_2_79XMLString9replicateEPKtPNS_13MemoryManagerE(i16* %23, %"class.xercesc_2_7::MemoryManager"* %24), !dbg !2547
  %fFragment23 = getelementptr inbounds %"class.xercesc_2_7::XMLUri", %"class.xercesc_2_7::XMLUri"* %this1, i32 0, i32 8, !dbg !2548
  store i16* %call22, i16** %fFragment23, align 8, !dbg !2549
  ret void, !dbg !2550
}

; Function Attrs: noinline uwtable
define dso_local dereferenceable(88) %"class.xercesc_2_7::XMLUri"* @_ZN11xercesc_2_76XMLUriaSERKS0_(%"class.xercesc_2_7::XMLUri"* %this, %"class.xercesc_2_7::XMLUri"* dereferenceable(88) %toAssign) #3 align 2 personality i8* bitcast (i32 (...)* @__gxx_personality_v0 to i8*) !dbg !2551 {
entry:
  %this.addr = alloca %"class.xercesc_2_7::XMLUri"*, align 8
  %toAssign.addr = alloca %"class.xercesc_2_7::XMLUri"*, align 8
  %cleanup = alloca %"class.xercesc_2_7::JanitorMemFunCall", align 8
  %coerce = alloca { i64, i64 }, align 8
  %exn.slot = alloca i8*
  %ehselector.slot = alloca i32
  %0 = alloca %"class.xercesc_2_7::OutOfMemoryException"*, align 8
  store %"class.xercesc_2_7::XMLUri"* %this, %"class.xercesc_2_7::XMLUri"** %this.addr, align 8
  call void @llvm.dbg.declare(metadata %"class.xercesc_2_7::XMLUri"** %this.addr, metadata !2552, metadata !DIExpression()), !dbg !2553
  store %"class.xercesc_2_7::XMLUri"* %toAssign, %"class.xercesc_2_7::XMLUri"** %toAssign.addr, align 8
  call void @llvm.dbg.declare(metadata %"class.xercesc_2_7::XMLUri"** %toAssign.addr, metadata !2554, metadata !DIExpression()), !dbg !2555
  %this1 = load %"class.xercesc_2_7::XMLUri"*, %"class.xercesc_2_7::XMLUri"** %this.addr, align 8
  call void @_ZN11xercesc_2_76XMLUri7cleanUpEv(%"class.xercesc_2_7::XMLUri"* %this1), !dbg !2556
  call void @llvm.dbg.declare(metadata %"class.xercesc_2_7::JanitorMemFunCall"* %cleanup, metadata !2557, metadata !DIExpression()), !dbg !2558
  store { i64, i64 } { i64 ptrtoint (void (%"class.xercesc_2_7::XMLUri"*)* @_ZN11xercesc_2_76XMLUri7cleanUpEv to i64), i64 0 }, { i64, i64 }* %coerce, align 8, !dbg !2558
  %1 = getelementptr inbounds { i64, i64 }, { i64, i64 }* %coerce, i32 0, i32 0, !dbg !2558
  %2 = load i64, i64* %1, align 8, !dbg !2558
  %3 = getelementptr inbounds { i64, i64 }, { i64, i64 }* %coerce, i32 0, i32 1, !dbg !2558
  %4 = load i64, i64* %3, align 8, !dbg !2558
  call void @_ZN11xercesc_2_717JanitorMemFunCallINS_6XMLUriEEC2EPS1_MS1_FvvE(%"class.xercesc_2_7::JanitorMemFunCall"* %cleanup, %"class.xercesc_2_7::XMLUri"* %this1, i64 %2, i64 %4), !dbg !2558
  %5 = load %"class.xercesc_2_7::XMLUri"*, %"class.xercesc_2_7::XMLUri"** %toAssign.addr, align 8, !dbg !2559
  invoke void @_ZN11xercesc_2_76XMLUri10initializeERKS0_(%"class.xercesc_2_7::XMLUri"* %this1, %"class.xercesc_2_7::XMLUri"* dereferenceable(88) %5)
          to label %invoke.cont unwind label %lpad, !dbg !2561

invoke.cont:                                      ; preds = %entry
  br label %try.cont, !dbg !2562

lpad:                                             ; preds = %entry
  %6 = landingpad { i8*, i32 }
          cleanup
          catch i8* bitcast ({ i8*, i8*, i8* }* @_ZTIN11xercesc_2_720OutOfMemoryExceptionE to i8*), !dbg !2563
  %7 = extractvalue { i8*, i32 } %6, 0, !dbg !2563
  store i8* %7, i8** %exn.slot, align 8, !dbg !2563
  %8 = extractvalue { i8*, i32 } %6, 1, !dbg !2563
  store i32 %8, i32* %ehselector.slot, align 4, !dbg !2563
  br label %catch.dispatch, !dbg !2563

catch.dispatch:                                   ; preds = %lpad
  %sel = load i32, i32* %ehselector.slot, align 4, !dbg !2562
  %9 = call i32 @llvm.eh.typeid.for(i8* bitcast ({ i8*, i8*, i8* }* @_ZTIN11xercesc_2_720OutOfMemoryExceptionE to i8*)) #10, !dbg !2562
  %matches = icmp eq i32 %sel, %9, !dbg !2562
  br i1 %matches, label %catch, label %ehcleanup, !dbg !2562

catch:                                            ; preds = %catch.dispatch
  call void @llvm.dbg.declare(metadata %"class.xercesc_2_7::OutOfMemoryException"** %0, metadata !2564, metadata !DIExpression()), !dbg !2565
  %exn = load i8*, i8** %exn.slot, align 8, !dbg !2562
  %10 = call i8* @__cxa_begin_catch(i8* %exn) #10, !dbg !2562
  %exn.byref = bitcast i8* %10 to %"class.xercesc_2_7::OutOfMemoryException"*, !dbg !2562
  store %"class.xercesc_2_7::OutOfMemoryException"* %exn.byref, %"class.xercesc_2_7::OutOfMemoryException"** %0, align 8, !dbg !2562
  invoke void @_ZN11xercesc_2_717JanitorMemFunCallINS_6XMLUriEE7releaseEv(%"class.xercesc_2_7::JanitorMemFunCall"* %cleanup)
          to label %invoke.cont3 unwind label %lpad2, !dbg !2566

invoke.cont3:                                     ; preds = %catch
  invoke void @__cxa_rethrow() #12
          to label %unreachable unwind label %lpad2, !dbg !2568

lpad2:                                            ; preds = %invoke.cont3, %catch
  %11 = landingpad { i8*, i32 }
          cleanup, !dbg !2569
  %12 = extractvalue { i8*, i32 } %11, 0, !dbg !2569
  store i8* %12, i8** %exn.slot, align 8, !dbg !2569
  %13 = extractvalue { i8*, i32 } %11, 1, !dbg !2569
  store i32 %13, i32* %ehselector.slot, align 4, !dbg !2569
  invoke void @__cxa_end_catch()
          to label %invoke.cont4 unwind label %terminate.lpad, !dbg !2570

invoke.cont4:                                     ; preds = %lpad2
  br label %ehcleanup, !dbg !2570

try.cont:                                         ; preds = %invoke.cont
  invoke void @_ZN11xercesc_2_717JanitorMemFunCallINS_6XMLUriEE7releaseEv(%"class.xercesc_2_7::JanitorMemFunCall"* %cleanup)
          to label %invoke.cont6 unwind label %lpad5, !dbg !2571

invoke.cont6:                                     ; preds = %try.cont
  call void @_ZN11xercesc_2_717JanitorMemFunCallINS_6XMLUriEED2Ev(%"class.xercesc_2_7::JanitorMemFunCall"* %cleanup) #10, !dbg !2572
  ret %"class.xercesc_2_7::XMLUri"* %this1, !dbg !2572

lpad5:                                            ; preds = %try.cont
  %14 = landingpad { i8*, i32 }
          cleanup, !dbg !2572
  %15 = extractvalue { i8*, i32 } %14, 0, !dbg !2572
  store i8* %15, i8** %exn.slot, align 8, !dbg !2572
  %16 = extractvalue { i8*, i32 } %14, 1, !dbg !2572
  store i32 %16, i32* %ehselector.slot, align 4, !dbg !2572
  br label %ehcleanup, !dbg !2572

ehcleanup:                                        ; preds = %lpad5, %invoke.cont4, %catch.dispatch
  call void @_ZN11xercesc_2_717JanitorMemFunCallINS_6XMLUriEED2Ev(%"class.xercesc_2_7::JanitorMemFunCall"* %cleanup) #10, !dbg !2572
  br label %eh.resume, !dbg !2572

eh.resume:                                        ; preds = %ehcleanup
  %exn8 = load i8*, i8** %exn.slot, align 8, !dbg !2572
  %sel9 = load i32, i32* %ehselector.slot, align 4, !dbg !2572
  %lpad.val = insertvalue { i8*, i32 } undef, i8* %exn8, 0, !dbg !2572
  %lpad.val10 = insertvalue { i8*, i32 } %lpad.val, i32 %sel9, 1, !dbg !2572
  resume { i8*, i32 } %lpad.val10, !dbg !2572

terminate.lpad:                                   ; preds = %lpad2
  %17 = landingpad { i8*, i32 }
          catch i8* null, !dbg !2570
  %18 = extractvalue { i8*, i32 } %17, 0, !dbg !2570
  call void @__clang_call_terminate(i8* %18) #13, !dbg !2570
  unreachable, !dbg !2570

unreachable:                                      ; preds = %invoke.cont3
  unreachable
}

; Function Attrs: noinline nounwind uwtable
define dso_local void @_ZN11xercesc_2_76XMLUriD2Ev(%"class.xercesc_2_7::XMLUri"* %this) unnamed_addr #1 align 2 personality i8* bitcast (i32 (...)* @__gxx_personality_v0 to i8*) !dbg !2573 {
entry:
  %this.addr = alloca %"class.xercesc_2_7::XMLUri"*, align 8
  %exn.slot = alloca i8*
  %ehselector.slot = alloca i32
  store %"class.xercesc_2_7::XMLUri"* %this, %"class.xercesc_2_7::XMLUri"** %this.addr, align 8
  call void @llvm.dbg.declare(metadata %"class.xercesc_2_7::XMLUri"** %this.addr, metadata !2574, metadata !DIExpression()), !dbg !2575
  %this1 = load %"class.xercesc_2_7::XMLUri"*, %"class.xercesc_2_7::XMLUri"** %this.addr, align 8
  %0 = bitcast %"class.xercesc_2_7::XMLUri"* %this1 to i32 (...)***, !dbg !2576
  store i32 (...)** bitcast (i8** getelementptr inbounds ({ [7 x i8*] }, { [7 x i8*] }* @_ZTVN11xercesc_2_76XMLUriE, i32 0, inrange i32 0, i32 2) to i32 (...)**), i32 (...)*** %0, align 8, !dbg !2576
  invoke void @_ZN11xercesc_2_76XMLUri7cleanUpEv(%"class.xercesc_2_7::XMLUri"* %this1)
          to label %invoke.cont unwind label %lpad, !dbg !2577

invoke.cont:                                      ; preds = %entry
  %1 = bitcast %"class.xercesc_2_7::XMLUri"* %this1 to %"class.xercesc_2_7::XSerializable"*, !dbg !2579
  call void @_ZN11xercesc_2_713XSerializableD2Ev(%"class.xercesc_2_7::XSerializable"* %1) #10, !dbg !2579
  ret void, !dbg !2580

lpad:                                             ; preds = %entry
  %2 = landingpad { i8*, i32 }
          catch i8* null, !dbg !2579
  %3 = extractvalue { i8*, i32 } %2, 0, !dbg !2579
  store i8* %3, i8** %exn.slot, align 8, !dbg !2579
  %4 = extractvalue { i8*, i32 } %2, 1, !dbg !2579
  store i32 %4, i32* %ehselector.slot, align 4, !dbg !2579
  %5 = bitcast %"class.xercesc_2_7::XMLUri"* %this1 to %"class.xercesc_2_7::XSerializable"*, !dbg !2579
  call void @_ZN11xercesc_2_713XSerializableD2Ev(%"class.xercesc_2_7::XSerializable"* %5) #10, !dbg !2579
  br label %terminate.handler, !dbg !2579

terminate.handler:                                ; preds = %lpad
  %exn = load i8*, i8** %exn.slot, align 8, !dbg !2579
  call void @__clang_call_terminate(i8* %exn) #13, !dbg !2579
  unreachable, !dbg !2579
}

; Function Attrs: noinline nounwind uwtable
define dso_local void @_ZN11xercesc_2_76XMLUriD0Ev(%"class.xercesc_2_7::XMLUri"* %this) unnamed_addr #1 align 2 !dbg !2581 {
entry:
  %this.addr = alloca %"class.xercesc_2_7::XMLUri"*, align 8
  store %"class.xercesc_2_7::XMLUri"* %this, %"class.xercesc_2_7::XMLUri"** %this.addr, align 8
  call void @llvm.dbg.declare(metadata %"class.xercesc_2_7::XMLUri"** %this.addr, metadata !2582, metadata !DIExpression()), !dbg !2583
  %this1 = load %"class.xercesc_2_7::XMLUri"*, %"class.xercesc_2_7::XMLUri"** %this.addr, align 8
  call void @_ZN11xercesc_2_76XMLUriD1Ev(%"class.xercesc_2_7::XMLUri"* %this1) #10, !dbg !2584
  %0 = bitcast %"class.xercesc_2_7::XMLUri"* %this1 to i8*, !dbg !2584
  call void @_ZN11xercesc_2_77XMemorydlEPv(i8* %0) #10, !dbg !2584
  ret void, !dbg !2585
}

; Function Attrs: nounwind
declare dso_local void @_ZN11xercesc_2_77XMemorydlEPv(i8*) #6

declare dso_local void @_ZN11xercesc_2_79XMLString7releaseEPPvPNS_13MemoryManagerE(i8**, %"class.xercesc_2_7::MemoryManager"*) #7

; Function Attrs: noinline uwtable
define linkonce_odr dso_local i16* @_ZN11xercesc_2_79XMLString9replicateEPKtPNS_13MemoryManagerE(i16* %toRep, %"class.xercesc_2_7::MemoryManager"* %manager) #3 comdat align 2 !dbg !2586 {
entry:
  %toRep.addr = alloca i16*, align 8
  %manager.addr = alloca %"class.xercesc_2_7::MemoryManager"*, align 8
  %ret = alloca i16*, align 8
  %len = alloca i32, align 4
  store i16* %toRep, i16** %toRep.addr, align 8
  call void @llvm.dbg.declare(metadata i16** %toRep.addr, metadata !2826, metadata !DIExpression()), !dbg !2827
  store %"class.xercesc_2_7::MemoryManager"* %manager, %"class.xercesc_2_7::MemoryManager"** %manager.addr, align 8
  call void @llvm.dbg.declare(metadata %"class.xercesc_2_7::MemoryManager"** %manager.addr, metadata !2828, metadata !DIExpression()), !dbg !2829
  call void @llvm.dbg.declare(metadata i16** %ret, metadata !2830, metadata !DIExpression()), !dbg !2831
  store i16* null, i16** %ret, align 8, !dbg !2831
  %0 = load i16*, i16** %toRep.addr, align 8, !dbg !2832
  %tobool = icmp ne i16* %0, null, !dbg !2832
  br i1 %tobool, label %if.then, label %if.end, !dbg !2834

if.then:                                          ; preds = %entry
  call void @llvm.dbg.declare(metadata i32* %len, metadata !2835, metadata !DIExpression()), !dbg !2837
  %1 = load i16*, i16** %toRep.addr, align 8, !dbg !2838
  %call = call i32 @_ZN11xercesc_2_79XMLString9stringLenEPKt(i16* %1), !dbg !2839
  store i32 %call, i32* %len, align 4, !dbg !2837
  %2 = load %"class.xercesc_2_7::MemoryManager"*, %"class.xercesc_2_7::MemoryManager"** %manager.addr, align 8, !dbg !2840
  %3 = load i32, i32* %len, align 4, !dbg !2841
  %add = add i32 %3, 1, !dbg !2842
  %conv = zext i32 %add to i64, !dbg !2843
  %mul = mul i64 %conv, 2, !dbg !2844
  %4 = bitcast %"class.xercesc_2_7::MemoryManager"* %2 to i8* (%"class.xercesc_2_7::MemoryManager"*, i64)***, !dbg !2845
  %vtable = load i8* (%"class.xercesc_2_7::MemoryManager"*, i64)**, i8* (%"class.xercesc_2_7::MemoryManager"*, i64)*** %4, align 8, !dbg !2845
  %vfn = getelementptr inbounds i8* (%"class.xercesc_2_7::MemoryManager"*, i64)*, i8* (%"class.xercesc_2_7::MemoryManager"*, i64)** %vtable, i64 2, !dbg !2845
  %5 = load i8* (%"class.xercesc_2_7::MemoryManager"*, i64)*, i8* (%"class.xercesc_2_7::MemoryManager"*, i64)** %vfn, align 8, !dbg !2845
  %call1 = call i8* %5(%"class.xercesc_2_7::MemoryManager"* %2, i64 %mul), !dbg !2845
  %6 = bitcast i8* %call1 to i16*, !dbg !2846
  store i16* %6, i16** %ret, align 8, !dbg !2847
  %7 = load i16*, i16** %ret, align 8, !dbg !2848
  %8 = bitcast i16* %7 to i8*, !dbg !2849
  %9 = load i16*, i16** %toRep.addr, align 8, !dbg !2850
  %10 = bitcast i16* %9 to i8*, !dbg !2849
  %11 = load i32, i32* %len, align 4, !dbg !2851
  %add2 = add i32 %11, 1, !dbg !2852
  %conv3 = zext i32 %add2 to i64, !dbg !2853
  %mul4 = mul i64 %conv3, 2, !dbg !2854
  call void @llvm.memcpy.p0i8.p0i8.i64(i8* align 2 %8, i8* align 2 %10, i64 %mul4, i1 false), !dbg !2849
  br label %if.end, !dbg !2855

if.end:                                           ; preds = %if.then, %entry
  %12 = load i16*, i16** %ret, align 8, !dbg !2856
  ret i16* %12, !dbg !2857
}

declare dso_local void @_ZN11xercesc_2_79XMLString4trimEPt(i16*) #7

; Function Attrs: noinline nounwind uwtable
define linkonce_odr dso_local void @_ZN11xercesc_2_712ArrayJanitorItEC2EPtPNS_13MemoryManagerE(%"class.xercesc_2_7::ArrayJanitor"* %this, i16* %toDelete, %"class.xercesc_2_7::MemoryManager"* %manager) unnamed_addr #1 comdat align 2 !dbg !2858 {
entry:
  %this.addr = alloca %"class.xercesc_2_7::ArrayJanitor"*, align 8
  %toDelete.addr = alloca i16*, align 8
  %manager.addr = alloca %"class.xercesc_2_7::MemoryManager"*, align 8
  store %"class.xercesc_2_7::ArrayJanitor"* %this, %"class.xercesc_2_7::ArrayJanitor"** %this.addr, align 8
  call void @llvm.dbg.declare(metadata %"class.xercesc_2_7::ArrayJanitor"** %this.addr, metadata !2859, metadata !DIExpression()), !dbg !2861
  store i16* %toDelete, i16** %toDelete.addr, align 8
  call void @llvm.dbg.declare(metadata i16** %toDelete.addr, metadata !2862, metadata !DIExpression()), !dbg !2863
  store %"class.xercesc_2_7::MemoryManager"* %manager, %"class.xercesc_2_7::MemoryManager"** %manager.addr, align 8
  call void @llvm.dbg.declare(metadata %"class.xercesc_2_7::MemoryManager"** %manager.addr, metadata !2864, metadata !DIExpression()), !dbg !2865
  %this1 = load %"class.xercesc_2_7::ArrayJanitor"*, %"class.xercesc_2_7::ArrayJanitor"** %this.addr, align 8
  %0 = bitcast %"class.xercesc_2_7::ArrayJanitor"* %this1 to %"class.xercesc_2_7::XMemory"*, !dbg !2866
  call void @_ZN11xercesc_2_77XMemoryC2Ev(%"class.xercesc_2_7::XMemory"* %0), !dbg !2867
  %fData = getelementptr inbounds %"class.xercesc_2_7::ArrayJanitor", %"class.xercesc_2_7::ArrayJanitor"* %this1, i32 0, i32 0, !dbg !2869
  %1 = load i16*, i16** %toDelete.addr, align 8, !dbg !2871
  store i16* %1, i16** %fData, align 8, !dbg !2869
  %fMemoryManager = getelementptr inbounds %"class.xercesc_2_7::ArrayJanitor", %"class.xercesc_2_7::ArrayJanitor"* %this1, i32 0, i32 1, !dbg !2872
  %2 = load %"class.xercesc_2_7::MemoryManager"*, %"class.xercesc_2_7::MemoryManager"** %manager.addr, align 8, !dbg !2873
  store %"class.xercesc_2_7::MemoryManager"* %2, %"class.xercesc_2_7::MemoryManager"** %fMemoryManager, align 8, !dbg !2872
  ret void, !dbg !2874
}

; Function Attrs: noinline nounwind uwtable
define linkonce_odr dso_local i32 @_ZN11xercesc_2_79XMLString9stringLenEPKt(i16* %src) #1 comdat align 2 !dbg !2875 {
entry:
  %retval = alloca i32, align 4
  %src.addr = alloca i16*, align 8
  %pszTmp = alloca i16*, align 8
  store i16* %src, i16** %src.addr, align 8
  call void @llvm.dbg.declare(metadata i16** %src.addr, metadata !2876, metadata !DIExpression()), !dbg !2877
  %0 = load i16*, i16** %src.addr, align 8, !dbg !2878
  %cmp = icmp eq i16* %0, null, !dbg !2880
  br i1 %cmp, label %if.then, label %lor.lhs.false, !dbg !2881

lor.lhs.false:                                    ; preds = %entry
  %1 = load i16*, i16** %src.addr, align 8, !dbg !2882
  %2 = load i16, i16* %1, align 2, !dbg !2883
  %conv = zext i16 %2 to i32, !dbg !2883
  %cmp1 = icmp eq i32 %conv, 0, !dbg !2884
  br i1 %cmp1, label %if.then, label %if.else, !dbg !2885

if.then:                                          ; preds = %lor.lhs.false, %entry
  store i32 0, i32* %retval, align 4, !dbg !2886
  br label %return, !dbg !2886

if.else:                                          ; preds = %lor.lhs.false
  call void @llvm.dbg.declare(metadata i16** %pszTmp, metadata !2888, metadata !DIExpression()), !dbg !2890
  %3 = load i16*, i16** %src.addr, align 8, !dbg !2891
  %add.ptr = getelementptr inbounds i16, i16* %3, i64 1, !dbg !2892
  store i16* %add.ptr, i16** %pszTmp, align 8, !dbg !2890
  br label %while.cond, !dbg !2893

while.cond:                                       ; preds = %while.body, %if.else
  %4 = load i16*, i16** %pszTmp, align 8, !dbg !2894
  %5 = load i16, i16* %4, align 2, !dbg !2895
  %tobool = icmp ne i16 %5, 0, !dbg !2895
  br i1 %tobool, label %while.body, label %while.end, !dbg !2893

while.body:                                       ; preds = %while.cond
  %6 = load i16*, i16** %pszTmp, align 8, !dbg !2896
  %incdec.ptr = getelementptr inbounds i16, i16* %6, i32 1, !dbg !2896
  store i16* %incdec.ptr, i16** %pszTmp, align 8, !dbg !2896
  br label %while.cond, !dbg !2893, !llvm.loop !2897

while.end:                                        ; preds = %while.cond
  %7 = load i16*, i16** %pszTmp, align 8, !dbg !2899
  %8 = load i16*, i16** %src.addr, align 8, !dbg !2900
  %sub.ptr.lhs.cast = ptrtoint i16* %7 to i64, !dbg !2901
  %sub.ptr.rhs.cast = ptrtoint i16* %8 to i64, !dbg !2901
  %sub.ptr.sub = sub i64 %sub.ptr.lhs.cast, %sub.ptr.rhs.cast, !dbg !2901
  %sub.ptr.div = sdiv exact i64 %sub.ptr.sub, 2, !dbg !2901
  %conv2 = trunc i64 %sub.ptr.div to i32, !dbg !2902
  store i32 %conv2, i32* %retval, align 4, !dbg !2903
  br label %return, !dbg !2903

return:                                           ; preds = %while.end, %if.then
  %9 = load i32, i32* %retval, align 4, !dbg !2904
  ret i32 %9, !dbg !2904
}

declare dso_local i8* @__cxa_allocate_exception(i64)

; Function Attrs: noinline uwtable
define linkonce_odr dso_local void @_ZN11xercesc_2_721MalformedURLExceptionC2EPKcjNS_10XMLExcepts5CodesEPKtS6_S6_S6_PNS_13MemoryManagerE(%"class.xercesc_2_7::MalformedURLException"* %this, i8* %srcFile, i32 %srcLine, i32 %toThrow, i16* %text1, i16* %text2, i16* %text3, i16* %text4, %"class.xercesc_2_7::MemoryManager"* %memoryManager) unnamed_addr #3 comdat align 2 personality i8* bitcast (i32 (...)* @__gxx_personality_v0 to i8*) !dbg !2905 {
entry:
  %this.addr = alloca %"class.xercesc_2_7::MalformedURLException"*, align 8
  %srcFile.addr = alloca i8*, align 8
  %srcLine.addr = alloca i32, align 4
  %toThrow.addr = alloca i32, align 4
  %text1.addr = alloca i16*, align 8
  %text2.addr = alloca i16*, align 8
  %text3.addr = alloca i16*, align 8
  %text4.addr = alloca i16*, align 8
  %memoryManager.addr = alloca %"class.xercesc_2_7::MemoryManager"*, align 8
  %exn.slot = alloca i8*
  %ehselector.slot = alloca i32
  store %"class.xercesc_2_7::MalformedURLException"* %this, %"class.xercesc_2_7::MalformedURLException"** %this.addr, align 8
  call void @llvm.dbg.declare(metadata %"class.xercesc_2_7::MalformedURLException"** %this.addr, metadata !2942, metadata !DIExpression()), !dbg !2944
  store i8* %srcFile, i8** %srcFile.addr, align 8
  call void @llvm.dbg.declare(metadata i8** %srcFile.addr, metadata !2945, metadata !DIExpression()), !dbg !2946
  store i32 %srcLine, i32* %srcLine.addr, align 4
  call void @llvm.dbg.declare(metadata i32* %srcLine.addr, metadata !2947, metadata !DIExpression()), !dbg !2946
  store i32 %toThrow, i32* %toThrow.addr, align 4
  call void @llvm.dbg.declare(metadata i32* %toThrow.addr, metadata !2948, metadata !DIExpression()), !dbg !2946
  store i16* %text1, i16** %text1.addr, align 8
  call void @llvm.dbg.declare(metadata i16** %text1.addr, metadata !2949, metadata !DIExpression()), !dbg !2946
  store i16* %text2, i16** %text2.addr, align 8
  call void @llvm.dbg.declare(metadata i16** %text2.addr, metadata !2950, metadata !DIExpression()), !dbg !2946
  store i16* %text3, i16** %text3.addr, align 8
  call void @llvm.dbg.declare(metadata i16** %text3.addr, metadata !2951, metadata !DIExpression()), !dbg !2946
  store i16* %text4, i16** %text4.addr, align 8
  call void @llvm.dbg.declare(metadata i16** %text4.addr, metadata !2952, metadata !DIExpression()), !dbg !2946
  store %"class.xercesc_2_7::MemoryManager"* %memoryManager, %"class.xercesc_2_7::MemoryManager"** %memoryManager.addr, align 8
  call void @llvm.dbg.declare(metadata %"class.xercesc_2_7::MemoryManager"** %memoryManager.addr, metadata !2953, metadata !DIExpression()), !dbg !2946
  %this1 = load %"class.xercesc_2_7::MalformedURLException"*, %"class.xercesc_2_7::MalformedURLException"** %this.addr, align 8
  %0 = bitcast %"class.xercesc_2_7::MalformedURLException"* %this1 to %"class.xercesc_2_7::XMLException"*, !dbg !2946
  %1 = load i8*, i8** %srcFile.addr, align 8, !dbg !2946
  %2 = load i32, i32* %srcLine.addr, align 4, !dbg !2946
  %3 = load %"class.xercesc_2_7::MemoryManager"*, %"class.xercesc_2_7::MemoryManager"** %memoryManager.addr, align 8, !dbg !2946
  call void @_ZN11xercesc_2_712XMLExceptionC2EPKcjPNS_13MemoryManagerE(%"class.xercesc_2_7::XMLException"* %0, i8* %1, i32 %2, %"class.xercesc_2_7::MemoryManager"* %3), !dbg !2946
  %4 = bitcast %"class.xercesc_2_7::MalformedURLException"* %this1 to i32 (...)***, !dbg !2946
  store i32 (...)** bitcast (i8** getelementptr inbounds ({ [6 x i8*] }, { [6 x i8*] }* @_ZTVN11xercesc_2_721MalformedURLExceptionE, i32 0, inrange i32 0, i32 2) to i32 (...)**), i32 (...)*** %4, align 8, !dbg !2946
  %5 = bitcast %"class.xercesc_2_7::MalformedURLException"* %this1 to %"class.xercesc_2_7::XMLException"*, !dbg !2954
  %6 = load i32, i32* %toThrow.addr, align 4, !dbg !2954
  %7 = load i16*, i16** %text1.addr, align 8, !dbg !2954
  %8 = load i16*, i16** %text2.addr, align 8, !dbg !2954
  %9 = load i16*, i16** %text3.addr, align 8, !dbg !2954
  %10 = load i16*, i16** %text4.addr, align 8, !dbg !2954
  invoke void @_ZN11xercesc_2_712XMLException14loadExceptTextENS_10XMLExcepts5CodesEPKtS4_S4_S4_(%"class.xercesc_2_7::XMLException"* %5, i32 %6, i16* %7, i16* %8, i16* %9, i16* %10)
          to label %invoke.cont unwind label %lpad, !dbg !2954

invoke.cont:                                      ; preds = %entry
  ret void, !dbg !2946

lpad:                                             ; preds = %entry
  %11 = landingpad { i8*, i32 }
          cleanup, !dbg !2954
  %12 = extractvalue { i8*, i32 } %11, 0, !dbg !2954
  store i8* %12, i8** %exn.slot, align 8, !dbg !2954
  %13 = extractvalue { i8*, i32 } %11, 1, !dbg !2954
  store i32 %13, i32* %ehselector.slot, align 4, !dbg !2954
  %14 = bitcast %"class.xercesc_2_7::MalformedURLException"* %this1 to %"class.xercesc_2_7::XMLException"*, !dbg !2954
  call void @_ZN11xercesc_2_712XMLExceptionD2Ev(%"class.xercesc_2_7::XMLException"* %14) #10, !dbg !2954
  br label %eh.resume, !dbg !2954

eh.resume:                                        ; preds = %lpad
  %exn = load i8*, i8** %exn.slot, align 8, !dbg !2954
  %sel = load i32, i32* %ehselector.slot, align 4, !dbg !2954
  %lpad.val = insertvalue { i8*, i32 } undef, i8* %exn, 0, !dbg !2954
  %lpad.val2 = insertvalue { i8*, i32 } %lpad.val, i32 %sel, 1, !dbg !2954
  resume { i8*, i32 } %lpad.val2, !dbg !2954
}

declare dso_local void @__cxa_free_exception(i8*)

; Function Attrs: noinline nounwind uwtable
define linkonce_odr dso_local void @_ZN11xercesc_2_721MalformedURLExceptionD2Ev(%"class.xercesc_2_7::MalformedURLException"* %this) unnamed_addr #1 comdat align 2 !dbg !2956 {
entry:
  %this.addr = alloca %"class.xercesc_2_7::MalformedURLException"*, align 8
  store %"class.xercesc_2_7::MalformedURLException"* %this, %"class.xercesc_2_7::MalformedURLException"** %this.addr, align 8
  call void @llvm.dbg.declare(metadata %"class.xercesc_2_7::MalformedURLException"** %this.addr, metadata !2957, metadata !DIExpression()), !dbg !2958
  %this1 = load %"class.xercesc_2_7::MalformedURLException"*, %"class.xercesc_2_7::MalformedURLException"** %this.addr, align 8
  %0 = bitcast %"class.xercesc_2_7::MalformedURLException"* %this1 to %"class.xercesc_2_7::XMLException"*, !dbg !2959
  call void @_ZN11xercesc_2_712XMLExceptionD2Ev(%"class.xercesc_2_7::XMLException"* %0) #10, !dbg !2959
  ret void, !dbg !2961
}

declare dso_local void @__cxa_throw(i8*, i8*, i8*)

declare dso_local i32 @_ZN11xercesc_2_79XMLString7indexOfEPKtt(i16*, i16 zeroext) #7

; Function Attrs: noinline uwtable
define linkonce_odr dso_local void @_ZN11xercesc_2_721MalformedURLExceptionC2EPKcjNS_10XMLExcepts5CodesEPNS_13MemoryManagerE(%"class.xercesc_2_7::MalformedURLException"* %this, i8* %srcFile, i32 %srcLine, i32 %toThrow, %"class.xercesc_2_7::MemoryManager"* %memoryManager) unnamed_addr #3 comdat align 2 personality i8* bitcast (i32 (...)* @__gxx_personality_v0 to i8*) !dbg !2962 {
entry:
  %this.addr = alloca %"class.xercesc_2_7::MalformedURLException"*, align 8
  %srcFile.addr = alloca i8*, align 8
  %srcLine.addr = alloca i32, align 4
  %toThrow.addr = alloca i32, align 4
  %memoryManager.addr = alloca %"class.xercesc_2_7::MemoryManager"*, align 8
  %exn.slot = alloca i8*
  %ehselector.slot = alloca i32
  store %"class.xercesc_2_7::MalformedURLException"* %this, %"class.xercesc_2_7::MalformedURLException"** %this.addr, align 8
  call void @llvm.dbg.declare(metadata %"class.xercesc_2_7::MalformedURLException"** %this.addr, metadata !2963, metadata !DIExpression()), !dbg !2964
  store i8* %srcFile, i8** %srcFile.addr, align 8
  call void @llvm.dbg.declare(metadata i8** %srcFile.addr, metadata !2965, metadata !DIExpression()), !dbg !2966
  store i32 %srcLine, i32* %srcLine.addr, align 4
  call void @llvm.dbg.declare(metadata i32* %srcLine.addr, metadata !2967, metadata !DIExpression()), !dbg !2966
  store i32 %toThrow, i32* %toThrow.addr, align 4
  call void @llvm.dbg.declare(metadata i32* %toThrow.addr, metadata !2968, metadata !DIExpression()), !dbg !2966
  store %"class.xercesc_2_7::MemoryManager"* %memoryManager, %"class.xercesc_2_7::MemoryManager"** %memoryManager.addr, align 8
  call void @llvm.dbg.declare(metadata %"class.xercesc_2_7::MemoryManager"** %memoryManager.addr, metadata !2969, metadata !DIExpression()), !dbg !2966
  %this1 = load %"class.xercesc_2_7::MalformedURLException"*, %"class.xercesc_2_7::MalformedURLException"** %this.addr, align 8
  %0 = bitcast %"class.xercesc_2_7::MalformedURLException"* %this1 to %"class.xercesc_2_7::XMLException"*, !dbg !2966
  %1 = load i8*, i8** %srcFile.addr, align 8, !dbg !2966
  %2 = load i32, i32* %srcLine.addr, align 4, !dbg !2966
  %3 = load %"class.xercesc_2_7::MemoryManager"*, %"class.xercesc_2_7::MemoryManager"** %memoryManager.addr, align 8, !dbg !2966
  call void @_ZN11xercesc_2_712XMLExceptionC2EPKcjPNS_13MemoryManagerE(%"class.xercesc_2_7::XMLException"* %0, i8* %1, i32 %2, %"class.xercesc_2_7::MemoryManager"* %3), !dbg !2966
  %4 = bitcast %"class.xercesc_2_7::MalformedURLException"* %this1 to i32 (...)***, !dbg !2966
  store i32 (...)** bitcast (i8** getelementptr inbounds ({ [6 x i8*] }, { [6 x i8*] }* @_ZTVN11xercesc_2_721MalformedURLExceptionE, i32 0, inrange i32 0, i32 2) to i32 (...)**), i32 (...)*** %4, align 8, !dbg !2966
  %5 = bitcast %"class.xercesc_2_7::MalformedURLException"* %this1 to %"class.xercesc_2_7::XMLException"*, !dbg !2970
  %6 = load i32, i32* %toThrow.addr, align 4, !dbg !2970
  invoke void @_ZN11xercesc_2_712XMLException14loadExceptTextENS_10XMLExcepts5CodesE(%"class.xercesc_2_7::XMLException"* %5, i32 %6)
          to label %invoke.cont unwind label %lpad, !dbg !2970

invoke.cont:                                      ; preds = %entry
  ret void, !dbg !2966

lpad:                                             ; preds = %entry
  %7 = landingpad { i8*, i32 }
          cleanup, !dbg !2970
  %8 = extractvalue { i8*, i32 } %7, 0, !dbg !2970
  store i8* %8, i8** %exn.slot, align 8, !dbg !2970
  %9 = extractvalue { i8*, i32 } %7, 1, !dbg !2970
  store i32 %9, i32* %ehselector.slot, align 4, !dbg !2970
  %10 = bitcast %"class.xercesc_2_7::MalformedURLException"* %this1 to %"class.xercesc_2_7::XMLException"*, !dbg !2970
  call void @_ZN11xercesc_2_712XMLExceptionD2Ev(%"class.xercesc_2_7::XMLException"* %10) #10, !dbg !2970
  br label %eh.resume, !dbg !2970

eh.resume:                                        ; preds = %lpad
  %exn = load i8*, i8** %exn.slot, align 8, !dbg !2970
  %sel = load i32, i32* %ehselector.slot, align 4, !dbg !2970
  %lpad.val = insertvalue { i8*, i32 } undef, i8* %exn, 0, !dbg !2970
  %lpad.val2 = insertvalue { i8*, i32 } %lpad.val, i32 %sel, 1, !dbg !2970
  resume { i8*, i32 } %lpad.val2, !dbg !2970
}

; Function Attrs: noinline uwtable
define dso_local void @_ZN11xercesc_2_76XMLUri16initializeSchemeEPKt(%"class.xercesc_2_7::XMLUri"* %this, i16* %uriSpec) #3 align 2 personality i8* bitcast (i32 (...)* @__gxx_personality_v0 to i8*) !dbg !2972 {
entry:
  %this.addr = alloca %"class.xercesc_2_7::XMLUri"*, align 8
  %uriSpec.addr = alloca i16*, align 8
  %tmpPtr = alloca i16*, align 8
  %exn.slot = alloca i8*
  %ehselector.slot = alloca i32
  %scheme = alloca i16*, align 8
  %tmpName = alloca %"class.xercesc_2_7::ArrayJanitor", align 8
  store %"class.xercesc_2_7::XMLUri"* %this, %"class.xercesc_2_7::XMLUri"** %this.addr, align 8
  call void @llvm.dbg.declare(metadata %"class.xercesc_2_7::XMLUri"** %this.addr, metadata !2973, metadata !DIExpression()), !dbg !2974
  store i16* %uriSpec, i16** %uriSpec.addr, align 8
  call void @llvm.dbg.declare(metadata i16** %uriSpec.addr, metadata !2975, metadata !DIExpression()), !dbg !2976
  %this1 = load %"class.xercesc_2_7::XMLUri"*, %"class.xercesc_2_7::XMLUri"** %this.addr, align 8
  call void @llvm.dbg.declare(metadata i16** %tmpPtr, metadata !2977, metadata !DIExpression()), !dbg !2978
  %0 = load i16*, i16** %uriSpec.addr, align 8, !dbg !2979
  %call = call i16* @_ZN11xercesc_2_79XMLString7findAnyEPKtS2_(i16* %0, i16* getelementptr inbounds ([5 x i16], [5 x i16]* @_ZN11xercesc_2_7L17SCHEME_SEPARATORSE, i64 0, i64 0)), !dbg !2980
  store i16* %call, i16** %tmpPtr, align 8, !dbg !2978
  %1 = load i16*, i16** %tmpPtr, align 8, !dbg !2981
  %tobool = icmp ne i16* %1, null, !dbg !2981
  br i1 %tobool, label %if.else, label %if.then, !dbg !2983

if.then:                                          ; preds = %entry
  %exception = call i8* @__cxa_allocate_exception(i64 48) #10, !dbg !2984
  %2 = bitcast i8* %exception to %"class.xercesc_2_7::MalformedURLException"*, !dbg !2984
  %fMemoryManager = getelementptr inbounds %"class.xercesc_2_7::XMLUri", %"class.xercesc_2_7::XMLUri"* %this1, i32 0, i32 10, !dbg !2984
  %3 = load %"class.xercesc_2_7::MemoryManager"*, %"class.xercesc_2_7::MemoryManager"** %fMemoryManager, align 8, !dbg !2984
  invoke void @_ZN11xercesc_2_721MalformedURLExceptionC2EPKcjNS_10XMLExcepts5CodesEPNS_13MemoryManagerE(%"class.xercesc_2_7::MalformedURLException"* %2, i8* getelementptr inbounds ([11 x i8], [11 x i8]* @.str, i64 0, i64 0), i32 827, i32 272, %"class.xercesc_2_7::MemoryManager"* %3)
          to label %invoke.cont unwind label %lpad, !dbg !2984

invoke.cont:                                      ; preds = %if.then
  call void @__cxa_throw(i8* %exception, i8* bitcast ({ i8*, i8*, i8* }* @_ZTIN11xercesc_2_721MalformedURLExceptionE to i8*), i8* bitcast (void (%"class.xercesc_2_7::MalformedURLException"*)* @_ZN11xercesc_2_721MalformedURLExceptionD2Ev to i8*)) #12, !dbg !2984
  unreachable, !dbg !2984

lpad:                                             ; preds = %if.then
  %4 = landingpad { i8*, i32 }
          cleanup, !dbg !2986
  %5 = extractvalue { i8*, i32 } %4, 0, !dbg !2986
  store i8* %5, i8** %exn.slot, align 8, !dbg !2986
  %6 = extractvalue { i8*, i32 } %4, 1, !dbg !2986
  store i32 %6, i32* %ehselector.slot, align 4, !dbg !2986
  call void @__cxa_free_exception(i8* %exception) #10, !dbg !2984
  br label %eh.resume, !dbg !2984

if.else:                                          ; preds = %entry
  call void @llvm.dbg.declare(metadata i16** %scheme, metadata !2987, metadata !DIExpression()), !dbg !2989
  %fMemoryManager2 = getelementptr inbounds %"class.xercesc_2_7::XMLUri", %"class.xercesc_2_7::XMLUri"* %this1, i32 0, i32 10, !dbg !2990
  %7 = load %"class.xercesc_2_7::MemoryManager"*, %"class.xercesc_2_7::MemoryManager"** %fMemoryManager2, align 8, !dbg !2990
  %8 = load i16*, i16** %uriSpec.addr, align 8, !dbg !2991
  %call3 = call i32 @_ZN11xercesc_2_79XMLString9stringLenEPKt(i16* %8), !dbg !2992
  %add = add i32 %call3, 1, !dbg !2993
  %conv = zext i32 %add to i64, !dbg !2994
  %mul = mul i64 %conv, 2, !dbg !2995
  %9 = bitcast %"class.xercesc_2_7::MemoryManager"* %7 to i8* (%"class.xercesc_2_7::MemoryManager"*, i64)***, !dbg !2996
  %vtable = load i8* (%"class.xercesc_2_7::MemoryManager"*, i64)**, i8* (%"class.xercesc_2_7::MemoryManager"*, i64)*** %9, align 8, !dbg !2996
  %vfn = getelementptr inbounds i8* (%"class.xercesc_2_7::MemoryManager"*, i64)*, i8* (%"class.xercesc_2_7::MemoryManager"*, i64)** %vtable, i64 2, !dbg !2996
  %10 = load i8* (%"class.xercesc_2_7::MemoryManager"*, i64)*, i8* (%"class.xercesc_2_7::MemoryManager"*, i64)** %vfn, align 8, !dbg !2996
  %call4 = call i8* %10(%"class.xercesc_2_7::MemoryManager"* %7, i64 %mul), !dbg !2996
  %11 = bitcast i8* %call4 to i16*, !dbg !2997
  store i16* %11, i16** %scheme, align 8, !dbg !2989
  call void @llvm.dbg.declare(metadata %"class.xercesc_2_7::ArrayJanitor"* %tmpName, metadata !2998, metadata !DIExpression()), !dbg !2999
  %12 = load i16*, i16** %scheme, align 8, !dbg !3000
  %fMemoryManager5 = getelementptr inbounds %"class.xercesc_2_7::XMLUri", %"class.xercesc_2_7::XMLUri"* %this1, i32 0, i32 10, !dbg !3001
  %13 = load %"class.xercesc_2_7::MemoryManager"*, %"class.xercesc_2_7::MemoryManager"** %fMemoryManager5, align 8, !dbg !3001
  call void @_ZN11xercesc_2_712ArrayJanitorItEC2EPtPNS_13MemoryManagerE(%"class.xercesc_2_7::ArrayJanitor"* %tmpName, i16* %12, %"class.xercesc_2_7::MemoryManager"* %13), !dbg !2999
  %14 = load i16*, i16** %scheme, align 8, !dbg !3002
  %15 = load i16*, i16** %uriSpec.addr, align 8, !dbg !3003
  %16 = load i16*, i16** %tmpPtr, align 8, !dbg !3004
  %17 = load i16*, i16** %uriSpec.addr, align 8, !dbg !3005
  %sub.ptr.lhs.cast = ptrtoint i16* %16 to i64, !dbg !3006
  %sub.ptr.rhs.cast = ptrtoint i16* %17 to i64, !dbg !3006
  %sub.ptr.sub = sub i64 %sub.ptr.lhs.cast, %sub.ptr.rhs.cast, !dbg !3006
  %sub.ptr.div = sdiv exact i64 %sub.ptr.sub, 2, !dbg !3006
  %conv6 = trunc i64 %sub.ptr.div to i32, !dbg !3007
  %fMemoryManager7 = getelementptr inbounds %"class.xercesc_2_7::XMLUri", %"class.xercesc_2_7::XMLUri"* %this1, i32 0, i32 10, !dbg !3008
  %18 = load %"class.xercesc_2_7::MemoryManager"*, %"class.xercesc_2_7::MemoryManager"** %fMemoryManager7, align 8, !dbg !3008
  invoke void @_ZN11xercesc_2_79XMLString9subStringEPtPKtiiPNS_13MemoryManagerE(i16* %14, i16* %15, i32 0, i32 %conv6, %"class.xercesc_2_7::MemoryManager"* %18)
          to label %invoke.cont9 unwind label %lpad8, !dbg !3009

invoke.cont9:                                     ; preds = %if.else
  %19 = load i16*, i16** %scheme, align 8, !dbg !3010
  invoke void @_ZN11xercesc_2_76XMLUri9setSchemeEPKt(%"class.xercesc_2_7::XMLUri"* %this1, i16* %19)
          to label %invoke.cont10 unwind label %lpad8, !dbg !3011

invoke.cont10:                                    ; preds = %invoke.cont9
  call void @_ZN11xercesc_2_712ArrayJanitorItED2Ev(%"class.xercesc_2_7::ArrayJanitor"* %tmpName) #10, !dbg !3012
  br label %if.end

lpad8:                                            ; preds = %invoke.cont9, %if.else
  %20 = landingpad { i8*, i32 }
          cleanup, !dbg !3013
  %21 = extractvalue { i8*, i32 } %20, 0, !dbg !3013
  store i8* %21, i8** %exn.slot, align 8, !dbg !3013
  %22 = extractvalue { i8*, i32 } %20, 1, !dbg !3013
  store i32 %22, i32* %ehselector.slot, align 4, !dbg !3013
  call void @_ZN11xercesc_2_712ArrayJanitorItED2Ev(%"class.xercesc_2_7::ArrayJanitor"* %tmpName) #10, !dbg !3012
  br label %eh.resume, !dbg !3012

if.end:                                           ; preds = %invoke.cont10
  ret void, !dbg !3014

eh.resume:                                        ; preds = %lpad8, %lpad
  %exn = load i8*, i8** %exn.slot, align 8, !dbg !2984
  %sel = load i32, i32* %ehselector.slot, align 4, !dbg !2984
  %lpad.val = insertvalue { i8*, i32 } undef, i8* %exn, 0, !dbg !2984
  %lpad.val11 = insertvalue { i8*, i32 } %lpad.val, i32 %sel, 1, !dbg !2984
  resume { i8*, i32 } %lpad.val11, !dbg !2984
}

declare dso_local void @_ZN11xercesc_2_79XMLString9subStringEPtPKtiiPNS_13MemoryManagerE(i16*, i16*, i32, i32, %"class.xercesc_2_7::MemoryManager"*) #7

; Function Attrs: noinline uwtable
define linkonce_odr dso_local zeroext i1 @_ZN11xercesc_2_79XMLString10startsWithEPKtS2_(i16* %toTest, i16* %prefix) #3 comdat align 2 !dbg !3015 {
entry:
  %toTest.addr = alloca i16*, align 8
  %prefix.addr = alloca i16*, align 8
  store i16* %toTest, i16** %toTest.addr, align 8
  call void @llvm.dbg.declare(metadata i16** %toTest.addr, metadata !3016, metadata !DIExpression()), !dbg !3017
  store i16* %prefix, i16** %prefix.addr, align 8
  call void @llvm.dbg.declare(metadata i16** %prefix.addr, metadata !3018, metadata !DIExpression()), !dbg !3019
  %0 = load i16*, i16** %toTest.addr, align 8, !dbg !3020
  %1 = load i16*, i16** %prefix.addr, align 8, !dbg !3021
  %2 = load i16*, i16** %prefix.addr, align 8, !dbg !3022
  %call = call i32 @_ZN11xercesc_2_79XMLString9stringLenEPKt(i16* %2), !dbg !3023
  %call1 = call i32 @_ZN11xercesc_2_79XMLString14compareNStringEPKtS2_j(i16* %0, i16* %1, i32 %call), !dbg !3024
  %cmp = icmp eq i32 %call1, 0, !dbg !3025
  ret i1 %cmp, !dbg !3026
}

; Function Attrs: noinline uwtable
define dso_local void @_ZN11xercesc_2_76XMLUri19initializeAuthorityEPKt(%"class.xercesc_2_7::XMLUri"* %this, i16* %uriSpec) #3 align 2 personality i8* bitcast (i32 (...)* @__gxx_personality_v0 to i8*) !dbg !3027 {
entry:
  %this.addr = alloca %"class.xercesc_2_7::XMLUri"*, align 8
  %uriSpec.addr = alloca i16*, align 8
  %index = alloca i32, align 4
  %start = alloca i32, align 4
  %end = alloca i32, align 4
  %userinfo = alloca i16*, align 8
  %userName = alloca %"class.xercesc_2_7::ArrayJanitor", align 8
  %exn.slot = alloca i8*
  %ehselector.slot = alloca i32
  %host = alloca i16*, align 8
  %hostName = alloca %"class.xercesc_2_7::ArrayJanitor", align 8
  %portStr = alloca i16*, align 8
  %portName = alloca %"class.xercesc_2_7::ArrayJanitor", align 8
  %port = alloca i32, align 4
  %cleanup.dest.slot = alloca i32, align 4
  store %"class.xercesc_2_7::XMLUri"* %this, %"class.xercesc_2_7::XMLUri"** %this.addr, align 8
  call void @llvm.dbg.declare(metadata %"class.xercesc_2_7::XMLUri"** %this.addr, metadata !3028, metadata !DIExpression()), !dbg !3029
  store i16* %uriSpec, i16** %uriSpec.addr, align 8
  call void @llvm.dbg.declare(metadata i16** %uriSpec.addr, metadata !3030, metadata !DIExpression()), !dbg !3031
  %this1 = load %"class.xercesc_2_7::XMLUri"*, %"class.xercesc_2_7::XMLUri"** %this.addr, align 8
  call void @llvm.dbg.declare(metadata i32* %index, metadata !3032, metadata !DIExpression()), !dbg !3033
  store i32 0, i32* %index, align 4, !dbg !3033
  call void @llvm.dbg.declare(metadata i32* %start, metadata !3034, metadata !DIExpression()), !dbg !3035
  store i32 0, i32* %start, align 4, !dbg !3035
  call void @llvm.dbg.declare(metadata i32* %end, metadata !3036, metadata !DIExpression()), !dbg !3037
  %0 = load i16*, i16** %uriSpec.addr, align 8, !dbg !3038
  %call = call i32 @_ZN11xercesc_2_79XMLString9stringLenEPKt(i16* %0), !dbg !3039
  store i32 %call, i32* %end, align 4, !dbg !3037
  call void @llvm.dbg.declare(metadata i16** %userinfo, metadata !3040, metadata !DIExpression()), !dbg !3041
  %fMemoryManager = getelementptr inbounds %"class.xercesc_2_7::XMLUri", %"class.xercesc_2_7::XMLUri"* %this1, i32 0, i32 10, !dbg !3042
  %1 = load %"class.xercesc_2_7::MemoryManager"*, %"class.xercesc_2_7::MemoryManager"** %fMemoryManager, align 8, !dbg !3042
  %2 = load i32, i32* %end, align 4, !dbg !3043
  %add = add nsw i32 %2, 1, !dbg !3044
  %conv = sext i32 %add to i64, !dbg !3045
  %mul = mul i64 %conv, 2, !dbg !3046
  %3 = bitcast %"class.xercesc_2_7::MemoryManager"* %1 to i8* (%"class.xercesc_2_7::MemoryManager"*, i64)***, !dbg !3047
  %vtable = load i8* (%"class.xercesc_2_7::MemoryManager"*, i64)**, i8* (%"class.xercesc_2_7::MemoryManager"*, i64)*** %3, align 8, !dbg !3047
  %vfn = getelementptr inbounds i8* (%"class.xercesc_2_7::MemoryManager"*, i64)*, i8* (%"class.xercesc_2_7::MemoryManager"*, i64)** %vtable, i64 2, !dbg !3047
  %4 = load i8* (%"class.xercesc_2_7::MemoryManager"*, i64)*, i8* (%"class.xercesc_2_7::MemoryManager"*, i64)** %vfn, align 8, !dbg !3047
  %call2 = call i8* %4(%"class.xercesc_2_7::MemoryManager"* %1, i64 %mul), !dbg !3047
  %5 = bitcast i8* %call2 to i16*, !dbg !3048
  store i16* %5, i16** %userinfo, align 8, !dbg !3041
  call void @llvm.dbg.declare(metadata %"class.xercesc_2_7::ArrayJanitor"* %userName, metadata !3049, metadata !DIExpression()), !dbg !3050
  %6 = load i16*, i16** %userinfo, align 8, !dbg !3051
  %fMemoryManager3 = getelementptr inbounds %"class.xercesc_2_7::XMLUri", %"class.xercesc_2_7::XMLUri"* %this1, i32 0, i32 10, !dbg !3052
  %7 = load %"class.xercesc_2_7::MemoryManager"*, %"class.xercesc_2_7::MemoryManager"** %fMemoryManager3, align 8, !dbg !3052
  call void @_ZN11xercesc_2_712ArrayJanitorItEC2EPtPNS_13MemoryManagerE(%"class.xercesc_2_7::ArrayJanitor"* %userName, i16* %6, %"class.xercesc_2_7::MemoryManager"* %7), !dbg !3050
  %8 = load i16*, i16** %uriSpec.addr, align 8, !dbg !3053
  %9 = load i32, i32* %start, align 4, !dbg !3054
  %idxprom = sext i32 %9 to i64, !dbg !3053
  %arrayidx = getelementptr inbounds i16, i16* %8, i64 %idxprom, !dbg !3053
  %call4 = invoke i32 @_ZN11xercesc_2_79XMLString7indexOfEPKtt(i16* %arrayidx, i16 zeroext 64)
          to label %invoke.cont unwind label %lpad, !dbg !3055

invoke.cont:                                      ; preds = %entry
  store i32 %call4, i32* %index, align 4, !dbg !3056
  %10 = load i32, i32* %index, align 4, !dbg !3057
  %cmp = icmp ne i32 %10, -1, !dbg !3059
  br i1 %cmp, label %if.then, label %if.else, !dbg !3060

if.then:                                          ; preds = %invoke.cont
  %11 = load i16*, i16** %userinfo, align 8, !dbg !3061
  %12 = load i16*, i16** %uriSpec.addr, align 8, !dbg !3063
  %13 = load i32, i32* %start, align 4, !dbg !3064
  %idxprom5 = sext i32 %13 to i64, !dbg !3063
  %arrayidx6 = getelementptr inbounds i16, i16* %12, i64 %idxprom5, !dbg !3063
  %14 = load i32, i32* %index, align 4, !dbg !3065
  %fMemoryManager7 = getelementptr inbounds %"class.xercesc_2_7::XMLUri", %"class.xercesc_2_7::XMLUri"* %this1, i32 0, i32 10, !dbg !3066
  %15 = load %"class.xercesc_2_7::MemoryManager"*, %"class.xercesc_2_7::MemoryManager"** %fMemoryManager7, align 8, !dbg !3066
  invoke void @_ZN11xercesc_2_79XMLString9subStringEPtPKtiiPNS_13MemoryManagerE(i16* %11, i16* %arrayidx6, i32 0, i32 %14, %"class.xercesc_2_7::MemoryManager"* %15)
          to label %invoke.cont8 unwind label %lpad, !dbg !3067

invoke.cont8:                                     ; preds = %if.then
  %16 = load i32, i32* %index, align 4, !dbg !3068
  %inc = add nsw i32 %16, 1, !dbg !3068
  store i32 %inc, i32* %index, align 4, !dbg !3068
  %17 = load i32, i32* %index, align 4, !dbg !3069
  %18 = load i32, i32* %start, align 4, !dbg !3070
  %add9 = add nsw i32 %18, %17, !dbg !3070
  store i32 %add9, i32* %start, align 4, !dbg !3070
  br label %if.end, !dbg !3071

lpad:                                             ; preds = %invoke.cont16, %if.end, %if.then, %entry
  %19 = landingpad { i8*, i32 }
          cleanup, !dbg !3072
  %20 = extractvalue { i8*, i32 } %19, 0, !dbg !3072
  store i8* %20, i8** %exn.slot, align 8, !dbg !3072
  %21 = extractvalue { i8*, i32 } %19, 1, !dbg !3072
  store i32 %21, i32* %ehselector.slot, align 4, !dbg !3072
  br label %ehcleanup129, !dbg !3072

if.else:                                          ; preds = %invoke.cont
  store i16* null, i16** %userinfo, align 8, !dbg !3073
  br label %if.end

if.end:                                           ; preds = %if.else, %invoke.cont8
  call void @llvm.dbg.declare(metadata i16** %host, metadata !3075, metadata !DIExpression()), !dbg !3076
  %fMemoryManager10 = getelementptr inbounds %"class.xercesc_2_7::XMLUri", %"class.xercesc_2_7::XMLUri"* %this1, i32 0, i32 10, !dbg !3077
  %22 = load %"class.xercesc_2_7::MemoryManager"*, %"class.xercesc_2_7::MemoryManager"** %fMemoryManager10, align 8, !dbg !3077
  %23 = load i32, i32* %end, align 4, !dbg !3078
  %add11 = add nsw i32 %23, 1, !dbg !3079
  %conv12 = sext i32 %add11 to i64, !dbg !3080
  %mul13 = mul i64 %conv12, 2, !dbg !3081
  %24 = bitcast %"class.xercesc_2_7::MemoryManager"* %22 to i8* (%"class.xercesc_2_7::MemoryManager"*, i64)***, !dbg !3082
  %vtable14 = load i8* (%"class.xercesc_2_7::MemoryManager"*, i64)**, i8* (%"class.xercesc_2_7::MemoryManager"*, i64)*** %24, align 8, !dbg !3082
  %vfn15 = getelementptr inbounds i8* (%"class.xercesc_2_7::MemoryManager"*, i64)*, i8* (%"class.xercesc_2_7::MemoryManager"*, i64)** %vtable14, i64 2, !dbg !3082
  %25 = load i8* (%"class.xercesc_2_7::MemoryManager"*, i64)*, i8* (%"class.xercesc_2_7::MemoryManager"*, i64)** %vfn15, align 8, !dbg !3082
  %call17 = invoke i8* %25(%"class.xercesc_2_7::MemoryManager"* %22, i64 %mul13)
          to label %invoke.cont16 unwind label %lpad, !dbg !3082

invoke.cont16:                                    ; preds = %if.end
  %26 = bitcast i8* %call17 to i16*, !dbg !3083
  store i16* %26, i16** %host, align 8, !dbg !3076
  call void @llvm.dbg.declare(metadata %"class.xercesc_2_7::ArrayJanitor"* %hostName, metadata !3084, metadata !DIExpression()), !dbg !3085
  %27 = load i16*, i16** %host, align 8, !dbg !3086
  %fMemoryManager18 = getelementptr inbounds %"class.xercesc_2_7::XMLUri", %"class.xercesc_2_7::XMLUri"* %this1, i32 0, i32 10, !dbg !3087
  %28 = load %"class.xercesc_2_7::MemoryManager"*, %"class.xercesc_2_7::MemoryManager"** %fMemoryManager18, align 8, !dbg !3087
  invoke void @_ZN11xercesc_2_712ArrayJanitorItEC2EPtPNS_13MemoryManagerE(%"class.xercesc_2_7::ArrayJanitor"* %hostName, i16* %27, %"class.xercesc_2_7::MemoryManager"* %28)
          to label %invoke.cont19 unwind label %lpad, !dbg !3085

invoke.cont19:                                    ; preds = %invoke.cont16
  %29 = load i32, i32* %start, align 4, !dbg !3088
  %30 = load i32, i32* %end, align 4, !dbg !3090
  %cmp20 = icmp slt i32 %29, %30, !dbg !3091
  br i1 %cmp20, label %land.lhs.true, label %if.else45, !dbg !3092

land.lhs.true:                                    ; preds = %invoke.cont19
  %31 = load i16*, i16** %uriSpec.addr, align 8, !dbg !3093
  %32 = load i32, i32* %start, align 4, !dbg !3094
  %idxprom21 = sext i32 %32 to i64, !dbg !3093
  %arrayidx22 = getelementptr inbounds i16, i16* %31, i64 %idxprom21, !dbg !3093
  %33 = load i16, i16* %arrayidx22, align 2, !dbg !3093
  %conv23 = zext i16 %33 to i32, !dbg !3093
  %cmp24 = icmp eq i32 %conv23, 91, !dbg !3095
  br i1 %cmp24, label %if.then25, label %if.else45, !dbg !3096

if.then25:                                        ; preds = %land.lhs.true
  %34 = load i16*, i16** %uriSpec.addr, align 8, !dbg !3097
  %35 = load i32, i32* %start, align 4, !dbg !3099
  %idxprom26 = sext i32 %35 to i64, !dbg !3097
  %arrayidx27 = getelementptr inbounds i16, i16* %34, i64 %idxprom26, !dbg !3097
  %call30 = invoke i32 @_ZN11xercesc_2_79XMLString7indexOfEPKtt(i16* %arrayidx27, i16 zeroext 93)
          to label %invoke.cont29 unwind label %lpad28, !dbg !3100

invoke.cont29:                                    ; preds = %if.then25
  store i32 %call30, i32* %index, align 4, !dbg !3101
  %36 = load i32, i32* %index, align 4, !dbg !3102
  %cmp31 = icmp ne i32 %36, -1, !dbg !3104
  br i1 %cmp31, label %if.then32, label %if.end44, !dbg !3105

if.then32:                                        ; preds = %invoke.cont29
  %37 = load i32, i32* %start, align 4, !dbg !3106
  %38 = load i32, i32* %index, align 4, !dbg !3108
  %add33 = add nsw i32 %37, %38, !dbg !3109
  %add34 = add nsw i32 %add33, 1, !dbg !3110
  %39 = load i32, i32* %end, align 4, !dbg !3111
  %cmp35 = icmp slt i32 %add34, %39, !dbg !3112
  br i1 %cmp35, label %land.lhs.true36, label %cond.false, !dbg !3113

land.lhs.true36:                                  ; preds = %if.then32
  %40 = load i16*, i16** %uriSpec.addr, align 8, !dbg !3114
  %41 = load i32, i32* %start, align 4, !dbg !3115
  %42 = load i32, i32* %index, align 4, !dbg !3116
  %add37 = add nsw i32 %41, %42, !dbg !3117
  %add38 = add nsw i32 %add37, 1, !dbg !3118
  %idxprom39 = sext i32 %add38 to i64, !dbg !3114
  %arrayidx40 = getelementptr inbounds i16, i16* %40, i64 %idxprom39, !dbg !3114
  %43 = load i16, i16* %arrayidx40, align 2, !dbg !3114
  %conv41 = zext i16 %43 to i32, !dbg !3114
  %cmp42 = icmp eq i32 %conv41, 58, !dbg !3119
  br i1 %cmp42, label %cond.true, label %cond.false, !dbg !3120

cond.true:                                        ; preds = %land.lhs.true36
  %44 = load i32, i32* %index, align 4, !dbg !3121
  %add43 = add nsw i32 %44, 1, !dbg !3122
  br label %cond.end, !dbg !3120

cond.false:                                       ; preds = %land.lhs.true36, %if.then32
  br label %cond.end, !dbg !3120

cond.end:                                         ; preds = %cond.false, %cond.true
  %cond = phi i32 [ %add43, %cond.true ], [ -1, %cond.false ], !dbg !3120
  store i32 %cond, i32* %index, align 4, !dbg !3123
  br label %if.end44, !dbg !3124

lpad28:                                           ; preds = %invoke.cont71, %if.end64, %if.else59, %if.then52, %if.else45, %if.then25
  %45 = landingpad { i8*, i32 }
          cleanup, !dbg !3125
  %46 = extractvalue { i8*, i32 } %45, 0, !dbg !3125
  store i8* %46, i8** %exn.slot, align 8, !dbg !3125
  %47 = extractvalue { i8*, i32 } %45, 1, !dbg !3125
  store i32 %47, i32* %ehselector.slot, align 4, !dbg !3125
  br label %ehcleanup, !dbg !3125

if.end44:                                         ; preds = %cond.end, %invoke.cont29
  br label %if.end50, !dbg !3126

if.else45:                                        ; preds = %land.lhs.true, %invoke.cont19
  %48 = load i16*, i16** %uriSpec.addr, align 8, !dbg !3127
  %49 = load i32, i32* %start, align 4, !dbg !3129
  %idxprom46 = sext i32 %49 to i64, !dbg !3127
  %arrayidx47 = getelementptr inbounds i16, i16* %48, i64 %idxprom46, !dbg !3127
  %call49 = invoke i32 @_ZN11xercesc_2_79XMLString7indexOfEPKtt(i16* %arrayidx47, i16 zeroext 58)
          to label %invoke.cont48 unwind label %lpad28, !dbg !3130

invoke.cont48:                                    ; preds = %if.else45
  store i32 %call49, i32* %index, align 4, !dbg !3131
  br label %if.end50

if.end50:                                         ; preds = %invoke.cont48, %if.end44
  %50 = load i32, i32* %index, align 4, !dbg !3132
  %cmp51 = icmp ne i32 %50, -1, !dbg !3134
  br i1 %cmp51, label %if.then52, label %if.else59, !dbg !3135

if.then52:                                        ; preds = %if.end50
  %51 = load i16*, i16** %host, align 8, !dbg !3136
  %52 = load i16*, i16** %uriSpec.addr, align 8, !dbg !3138
  %53 = load i32, i32* %start, align 4, !dbg !3139
  %idxprom53 = sext i32 %53 to i64, !dbg !3138
  %arrayidx54 = getelementptr inbounds i16, i16* %52, i64 %idxprom53, !dbg !3138
  %54 = load i32, i32* %index, align 4, !dbg !3140
  %fMemoryManager55 = getelementptr inbounds %"class.xercesc_2_7::XMLUri", %"class.xercesc_2_7::XMLUri"* %this1, i32 0, i32 10, !dbg !3141
  %55 = load %"class.xercesc_2_7::MemoryManager"*, %"class.xercesc_2_7::MemoryManager"** %fMemoryManager55, align 8, !dbg !3141
  invoke void @_ZN11xercesc_2_79XMLString9subStringEPtPKtiiPNS_13MemoryManagerE(i16* %51, i16* %arrayidx54, i32 0, i32 %54, %"class.xercesc_2_7::MemoryManager"* %55)
          to label %invoke.cont56 unwind label %lpad28, !dbg !3142

invoke.cont56:                                    ; preds = %if.then52
  %56 = load i32, i32* %index, align 4, !dbg !3143
  %inc57 = add nsw i32 %56, 1, !dbg !3143
  store i32 %inc57, i32* %index, align 4, !dbg !3143
  %57 = load i32, i32* %index, align 4, !dbg !3144
  %58 = load i32, i32* %start, align 4, !dbg !3145
  %add58 = add nsw i32 %58, %57, !dbg !3145
  store i32 %add58, i32* %start, align 4, !dbg !3145
  br label %if.end64, !dbg !3146

if.else59:                                        ; preds = %if.end50
  %59 = load i16*, i16** %host, align 8, !dbg !3147
  %60 = load i16*, i16** %uriSpec.addr, align 8, !dbg !3149
  %61 = load i32, i32* %start, align 4, !dbg !3150
  %idxprom60 = sext i32 %61 to i64, !dbg !3149
  %arrayidx61 = getelementptr inbounds i16, i16* %60, i64 %idxprom60, !dbg !3149
  %62 = load i32, i32* %end, align 4, !dbg !3151
  %63 = load i32, i32* %start, align 4, !dbg !3152
  %sub = sub nsw i32 %62, %63, !dbg !3153
  %fMemoryManager62 = getelementptr inbounds %"class.xercesc_2_7::XMLUri", %"class.xercesc_2_7::XMLUri"* %this1, i32 0, i32 10, !dbg !3154
  %64 = load %"class.xercesc_2_7::MemoryManager"*, %"class.xercesc_2_7::MemoryManager"** %fMemoryManager62, align 8, !dbg !3154
  invoke void @_ZN11xercesc_2_79XMLString9subStringEPtPKtiiPNS_13MemoryManagerE(i16* %59, i16* %arrayidx61, i32 0, i32 %sub, %"class.xercesc_2_7::MemoryManager"* %64)
          to label %invoke.cont63 unwind label %lpad28, !dbg !3155

invoke.cont63:                                    ; preds = %if.else59
  %65 = load i32, i32* %end, align 4, !dbg !3156
  store i32 %65, i32* %start, align 4, !dbg !3157
  br label %if.end64

if.end64:                                         ; preds = %invoke.cont63, %invoke.cont56
  call void @llvm.dbg.declare(metadata i16** %portStr, metadata !3158, metadata !DIExpression()), !dbg !3159
  %fMemoryManager65 = getelementptr inbounds %"class.xercesc_2_7::XMLUri", %"class.xercesc_2_7::XMLUri"* %this1, i32 0, i32 10, !dbg !3160
  %66 = load %"class.xercesc_2_7::MemoryManager"*, %"class.xercesc_2_7::MemoryManager"** %fMemoryManager65, align 8, !dbg !3160
  %67 = load i32, i32* %end, align 4, !dbg !3161
  %add66 = add nsw i32 %67, 1, !dbg !3162
  %conv67 = sext i32 %add66 to i64, !dbg !3163
  %mul68 = mul i64 %conv67, 2, !dbg !3164
  %68 = bitcast %"class.xercesc_2_7::MemoryManager"* %66 to i8* (%"class.xercesc_2_7::MemoryManager"*, i64)***, !dbg !3165
  %vtable69 = load i8* (%"class.xercesc_2_7::MemoryManager"*, i64)**, i8* (%"class.xercesc_2_7::MemoryManager"*, i64)*** %68, align 8, !dbg !3165
  %vfn70 = getelementptr inbounds i8* (%"class.xercesc_2_7::MemoryManager"*, i64)*, i8* (%"class.xercesc_2_7::MemoryManager"*, i64)** %vtable69, i64 2, !dbg !3165
  %69 = load i8* (%"class.xercesc_2_7::MemoryManager"*, i64)*, i8* (%"class.xercesc_2_7::MemoryManager"*, i64)** %vfn70, align 8, !dbg !3165
  %call72 = invoke i8* %69(%"class.xercesc_2_7::MemoryManager"* %66, i64 %mul68)
          to label %invoke.cont71 unwind label %lpad28, !dbg !3165

invoke.cont71:                                    ; preds = %if.end64
  %70 = bitcast i8* %call72 to i16*, !dbg !3166
  store i16* %70, i16** %portStr, align 8, !dbg !3159
  call void @llvm.dbg.declare(metadata %"class.xercesc_2_7::ArrayJanitor"* %portName, metadata !3167, metadata !DIExpression()), !dbg !3168
  %71 = load i16*, i16** %portStr, align 8, !dbg !3169
  %fMemoryManager73 = getelementptr inbounds %"class.xercesc_2_7::XMLUri", %"class.xercesc_2_7::XMLUri"* %this1, i32 0, i32 10, !dbg !3170
  %72 = load %"class.xercesc_2_7::MemoryManager"*, %"class.xercesc_2_7::MemoryManager"** %fMemoryManager73, align 8, !dbg !3170
  invoke void @_ZN11xercesc_2_712ArrayJanitorItEC2EPtPNS_13MemoryManagerE(%"class.xercesc_2_7::ArrayJanitor"* %portName, i16* %71, %"class.xercesc_2_7::MemoryManager"* %72)
          to label %invoke.cont74 unwind label %lpad28, !dbg !3168

invoke.cont74:                                    ; preds = %invoke.cont71
  call void @llvm.dbg.declare(metadata i32* %port, metadata !3171, metadata !DIExpression()), !dbg !3172
  store i32 -1, i32* %port, align 4, !dbg !3172
  %73 = load i16*, i16** %host, align 8, !dbg !3173
  %tobool = icmp ne i16* %73, null, !dbg !3173
  br i1 %tobool, label %land.lhs.true75, label %if.end96, !dbg !3175

land.lhs.true75:                                  ; preds = %invoke.cont74
  %74 = load i16*, i16** %host, align 8, !dbg !3176
  %75 = load i16, i16* %74, align 2, !dbg !3177
  %tobool76 = icmp ne i16 %75, 0, !dbg !3177
  br i1 %tobool76, label %land.lhs.true77, label %if.end96, !dbg !3178

land.lhs.true77:                                  ; preds = %land.lhs.true75
  %76 = load i32, i32* %index, align 4, !dbg !3179
  %cmp78 = icmp ne i32 %76, -1, !dbg !3180
  br i1 %cmp78, label %land.lhs.true79, label %if.end96, !dbg !3181

land.lhs.true79:                                  ; preds = %land.lhs.true77
  %77 = load i32, i32* %start, align 4, !dbg !3182
  %78 = load i32, i32* %end, align 4, !dbg !3183
  %cmp80 = icmp slt i32 %77, %78, !dbg !3184
  br i1 %cmp80, label %if.then81, label %if.end96, !dbg !3185

if.then81:                                        ; preds = %land.lhs.true79
  %79 = load i16*, i16** %portStr, align 8, !dbg !3186
  %80 = load i16*, i16** %uriSpec.addr, align 8, !dbg !3188
  %81 = load i32, i32* %start, align 4, !dbg !3189
  %idxprom82 = sext i32 %81 to i64, !dbg !3188
  %arrayidx83 = getelementptr inbounds i16, i16* %80, i64 %idxprom82, !dbg !3188
  %82 = load i32, i32* %end, align 4, !dbg !3190
  %83 = load i32, i32* %start, align 4, !dbg !3191
  %sub84 = sub nsw i32 %82, %83, !dbg !3192
  %fMemoryManager85 = getelementptr inbounds %"class.xercesc_2_7::XMLUri", %"class.xercesc_2_7::XMLUri"* %this1, i32 0, i32 10, !dbg !3193
  %84 = load %"class.xercesc_2_7::MemoryManager"*, %"class.xercesc_2_7::MemoryManager"** %fMemoryManager85, align 8, !dbg !3193
  invoke void @_ZN11xercesc_2_79XMLString9subStringEPtPKtiiPNS_13MemoryManagerE(i16* %79, i16* %arrayidx83, i32 0, i32 %sub84, %"class.xercesc_2_7::MemoryManager"* %84)
          to label %invoke.cont87 unwind label %lpad86, !dbg !3194

invoke.cont87:                                    ; preds = %if.then81
  %85 = load i16*, i16** %portStr, align 8, !dbg !3195
  %tobool88 = icmp ne i16* %85, null, !dbg !3195
  br i1 %tobool88, label %land.lhs.true89, label %if.end95, !dbg !3197

land.lhs.true89:                                  ; preds = %invoke.cont87
  %86 = load i16*, i16** %portStr, align 8, !dbg !3198
  %87 = load i16, i16* %86, align 2, !dbg !3199
  %tobool90 = icmp ne i16 %87, 0, !dbg !3199
  br i1 %tobool90, label %if.then91, label %if.end95, !dbg !3200

if.then91:                                        ; preds = %land.lhs.true89
  %88 = load i16*, i16** %portStr, align 8, !dbg !3201
  %fMemoryManager92 = getelementptr inbounds %"class.xercesc_2_7::XMLUri", %"class.xercesc_2_7::XMLUri"* %this1, i32 0, i32 10, !dbg !3203
  %89 = load %"class.xercesc_2_7::MemoryManager"*, %"class.xercesc_2_7::MemoryManager"** %fMemoryManager92, align 8, !dbg !3203
  %call94 = invoke i32 @_ZN11xercesc_2_79XMLString8parseIntEPKtPNS_13MemoryManagerE(i16* %88, %"class.xercesc_2_7::MemoryManager"* %89)
          to label %invoke.cont93 unwind label %lpad86, !dbg !3204

invoke.cont93:                                    ; preds = %if.then91
  store i32 %call94, i32* %port, align 4, !dbg !3205
  br label %if.end95, !dbg !3206

lpad86:                                           ; preds = %if.end125, %invoke.cont118, %if.end116, %if.then110, %if.then102, %if.end96, %if.then91, %if.then81
  %90 = landingpad { i8*, i32 }
          cleanup, !dbg !3207
  %91 = extractvalue { i8*, i32 } %90, 0, !dbg !3207
  store i8* %91, i8** %exn.slot, align 8, !dbg !3207
  %92 = extractvalue { i8*, i32 } %90, 1, !dbg !3207
  store i32 %92, i32* %ehselector.slot, align 4, !dbg !3207
  call void @_ZN11xercesc_2_712ArrayJanitorItED2Ev(%"class.xercesc_2_7::ArrayJanitor"* %portName) #10, !dbg !3072
  br label %ehcleanup, !dbg !3072

if.end95:                                         ; preds = %invoke.cont93, %land.lhs.true89, %invoke.cont87
  br label %if.end96, !dbg !3208

if.end96:                                         ; preds = %if.end95, %land.lhs.true79, %land.lhs.true77, %land.lhs.true75, %invoke.cont74
  %93 = load i16*, i16** %host, align 8, !dbg !3209
  %94 = load i32, i32* %port, align 4, !dbg !3211
  %95 = load i16*, i16** %userinfo, align 8, !dbg !3212
  %fMemoryManager97 = getelementptr inbounds %"class.xercesc_2_7::XMLUri", %"class.xercesc_2_7::XMLUri"* %this1, i32 0, i32 10, !dbg !3213
  %96 = load %"class.xercesc_2_7::MemoryManager"*, %"class.xercesc_2_7::MemoryManager"** %fMemoryManager97, align 8, !dbg !3213
  %call99 = invoke zeroext i1 @_ZN11xercesc_2_76XMLUri27isValidServerBasedAuthorityEPKtiS2_PNS_13MemoryManagerE(i16* %93, i32 %94, i16* %95, %"class.xercesc_2_7::MemoryManager"* %96)
          to label %invoke.cont98 unwind label %lpad86, !dbg !3214

invoke.cont98:                                    ; preds = %if.end96
  br i1 %call99, label %if.then100, label %if.end125, !dbg !3215

if.then100:                                       ; preds = %invoke.cont98
  %fHost = getelementptr inbounds %"class.xercesc_2_7::XMLUri", %"class.xercesc_2_7::XMLUri"* %this1, i32 0, i32 4, !dbg !3216
  %97 = load i16*, i16** %fHost, align 8, !dbg !3216
  %tobool101 = icmp ne i16* %97, null, !dbg !3216
  br i1 %tobool101, label %if.then102, label %if.end108, !dbg !3219

if.then102:                                       ; preds = %if.then100
  %fMemoryManager103 = getelementptr inbounds %"class.xercesc_2_7::XMLUri", %"class.xercesc_2_7::XMLUri"* %this1, i32 0, i32 10, !dbg !3220
  %98 = load %"class.xercesc_2_7::MemoryManager"*, %"class.xercesc_2_7::MemoryManager"** %fMemoryManager103, align 8, !dbg !3220
  %fHost104 = getelementptr inbounds %"class.xercesc_2_7::XMLUri", %"class.xercesc_2_7::XMLUri"* %this1, i32 0, i32 4, !dbg !3221
  %99 = load i16*, i16** %fHost104, align 8, !dbg !3221
  %100 = bitcast i16* %99 to i8*, !dbg !3221
  %101 = bitcast %"class.xercesc_2_7::MemoryManager"* %98 to void (%"class.xercesc_2_7::MemoryManager"*, i8*)***, !dbg !3222
  %vtable105 = load void (%"class.xercesc_2_7::MemoryManager"*, i8*)**, void (%"class.xercesc_2_7::MemoryManager"*, i8*)*** %101, align 8, !dbg !3222
  %vfn106 = getelementptr inbounds void (%"class.xercesc_2_7::MemoryManager"*, i8*)*, void (%"class.xercesc_2_7::MemoryManager"*, i8*)** %vtable105, i64 3, !dbg !3222
  %102 = load void (%"class.xercesc_2_7::MemoryManager"*, i8*)*, void (%"class.xercesc_2_7::MemoryManager"*, i8*)** %vfn106, align 8, !dbg !3222
  invoke void %102(%"class.xercesc_2_7::MemoryManager"* %98, i8* %100)
          to label %invoke.cont107 unwind label %lpad86, !dbg !3222

invoke.cont107:                                   ; preds = %if.then102
  br label %if.end108, !dbg !3220

if.end108:                                        ; preds = %invoke.cont107, %if.then100
  %fUserInfo = getelementptr inbounds %"class.xercesc_2_7::XMLUri", %"class.xercesc_2_7::XMLUri"* %this1, i32 0, i32 3, !dbg !3223
  %103 = load i16*, i16** %fUserInfo, align 8, !dbg !3223
  %tobool109 = icmp ne i16* %103, null, !dbg !3223
  br i1 %tobool109, label %if.then110, label %if.end116, !dbg !3225

if.then110:                                       ; preds = %if.end108
  %fMemoryManager111 = getelementptr inbounds %"class.xercesc_2_7::XMLUri", %"class.xercesc_2_7::XMLUri"* %this1, i32 0, i32 10, !dbg !3226
  %104 = load %"class.xercesc_2_7::MemoryManager"*, %"class.xercesc_2_7::MemoryManager"** %fMemoryManager111, align 8, !dbg !3226
  %fUserInfo112 = getelementptr inbounds %"class.xercesc_2_7::XMLUri", %"class.xercesc_2_7::XMLUri"* %this1, i32 0, i32 3, !dbg !3227
  %105 = load i16*, i16** %fUserInfo112, align 8, !dbg !3227
  %106 = bitcast i16* %105 to i8*, !dbg !3227
  %107 = bitcast %"class.xercesc_2_7::MemoryManager"* %104 to void (%"class.xercesc_2_7::MemoryManager"*, i8*)***, !dbg !3228
  %vtable113 = load void (%"class.xercesc_2_7::MemoryManager"*, i8*)**, void (%"class.xercesc_2_7::MemoryManager"*, i8*)*** %107, align 8, !dbg !3228
  %vfn114 = getelementptr inbounds void (%"class.xercesc_2_7::MemoryManager"*, i8*)*, void (%"class.xercesc_2_7::MemoryManager"*, i8*)** %vtable113, i64 3, !dbg !3228
  %108 = load void (%"class.xercesc_2_7::MemoryManager"*, i8*)*, void (%"class.xercesc_2_7::MemoryManager"*, i8*)** %vfn114, align 8, !dbg !3228
  invoke void %108(%"class.xercesc_2_7::MemoryManager"* %104, i8* %106)
          to label %invoke.cont115 unwind label %lpad86, !dbg !3228

invoke.cont115:                                   ; preds = %if.then110
  br label %if.end116, !dbg !3226

if.end116:                                        ; preds = %invoke.cont115, %if.end108
  %109 = load i16*, i16** %host, align 8, !dbg !3229
  %fMemoryManager117 = getelementptr inbounds %"class.xercesc_2_7::XMLUri", %"class.xercesc_2_7::XMLUri"* %this1, i32 0, i32 10, !dbg !3230
  %110 = load %"class.xercesc_2_7::MemoryManager"*, %"class.xercesc_2_7::MemoryManager"** %fMemoryManager117, align 8, !dbg !3230
  %call119 = invoke i16* @_ZN11xercesc_2_79XMLString9replicateEPKtPNS_13MemoryManagerE(i16* %109, %"class.xercesc_2_7::MemoryManager"* %110)
          to label %invoke.cont118 unwind label %lpad86, !dbg !3231

invoke.cont118:                                   ; preds = %if.end116
  %fHost120 = getelementptr inbounds %"class.xercesc_2_7::XMLUri", %"class.xercesc_2_7::XMLUri"* %this1, i32 0, i32 4, !dbg !3232
  store i16* %call119, i16** %fHost120, align 8, !dbg !3233
  %111 = load i32, i32* %port, align 4, !dbg !3234
  %fPort = getelementptr inbounds %"class.xercesc_2_7::XMLUri", %"class.xercesc_2_7::XMLUri"* %this1, i32 0, i32 1, !dbg !3235
  store i32 %111, i32* %fPort, align 8, !dbg !3236
  %112 = load i16*, i16** %userinfo, align 8, !dbg !3237
  %fMemoryManager121 = getelementptr inbounds %"class.xercesc_2_7::XMLUri", %"class.xercesc_2_7::XMLUri"* %this1, i32 0, i32 10, !dbg !3238
  %113 = load %"class.xercesc_2_7::MemoryManager"*, %"class.xercesc_2_7::MemoryManager"** %fMemoryManager121, align 8, !dbg !3238
  %call123 = invoke i16* @_ZN11xercesc_2_79XMLString9replicateEPKtPNS_13MemoryManagerE(i16* %112, %"class.xercesc_2_7::MemoryManager"* %113)
          to label %invoke.cont122 unwind label %lpad86, !dbg !3239

invoke.cont122:                                   ; preds = %invoke.cont118
  %fUserInfo124 = getelementptr inbounds %"class.xercesc_2_7::XMLUri", %"class.xercesc_2_7::XMLUri"* %this1, i32 0, i32 3, !dbg !3240
  store i16* %call123, i16** %fUserInfo124, align 8, !dbg !3241
  store i32 1, i32* %cleanup.dest.slot, align 4
  br label %cleanup, !dbg !3242

if.end125:                                        ; preds = %invoke.cont98
  %114 = load i16*, i16** %uriSpec.addr, align 8, !dbg !3243
  invoke void @_ZN11xercesc_2_76XMLUri20setRegBasedAuthorityEPKt(%"class.xercesc_2_7::XMLUri"* %this1, i16* %114)
          to label %invoke.cont126 unwind label %lpad86, !dbg !3244

invoke.cont126:                                   ; preds = %if.end125
  store i32 0, i32* %cleanup.dest.slot, align 4, !dbg !3072
  br label %cleanup, !dbg !3072

cleanup:                                          ; preds = %invoke.cont126, %invoke.cont122
  call void @_ZN11xercesc_2_712ArrayJanitorItED2Ev(%"class.xercesc_2_7::ArrayJanitor"* %portName) #10, !dbg !3072
  call void @_ZN11xercesc_2_712ArrayJanitorItED2Ev(%"class.xercesc_2_7::ArrayJanitor"* %hostName) #10, !dbg !3072
  call void @_ZN11xercesc_2_712ArrayJanitorItED2Ev(%"class.xercesc_2_7::ArrayJanitor"* %userName) #10, !dbg !3072
  %cleanup.dest = load i32, i32* %cleanup.dest.slot, align 4
  switch i32 %cleanup.dest, label %unreachable [
    i32 0, label %cleanup.cont
    i32 1, label %cleanup.cont
  ]

cleanup.cont:                                     ; preds = %cleanup, %cleanup
  ret void, !dbg !3072

ehcleanup:                                        ; preds = %lpad86, %lpad28
  call void @_ZN11xercesc_2_712ArrayJanitorItED2Ev(%"class.xercesc_2_7::ArrayJanitor"* %hostName) #10, !dbg !3072
  br label %ehcleanup129, !dbg !3072

ehcleanup129:                                     ; preds = %ehcleanup, %lpad
  call void @_ZN11xercesc_2_712ArrayJanitorItED2Ev(%"class.xercesc_2_7::ArrayJanitor"* %userName) #10, !dbg !3072
  br label %eh.resume, !dbg !3072

eh.resume:                                        ; preds = %ehcleanup129
  %exn = load i8*, i8** %exn.slot, align 8, !dbg !3072
  %sel = load i32, i32* %ehselector.slot, align 4, !dbg !3072
  %lpad.val = insertvalue { i8*, i32 } undef, i8* %exn, 0, !dbg !3072
  %lpad.val130 = insertvalue { i8*, i32 } %lpad.val, i32 %sel, 1, !dbg !3072
  resume { i8*, i32 } %lpad.val130, !dbg !3072

unreachable:                                      ; preds = %cleanup
  unreachable
}

; Function Attrs: noinline uwtable
define dso_local void @_ZN11xercesc_2_76XMLUri7setHostEPKt(%"class.xercesc_2_7::XMLUri"* %this, i16* %newHost) #3 align 2 personality i8* bitcast (i32 (...)* @__gxx_personality_v0 to i8*) !dbg !3245 {
entry:
  %this.addr = alloca %"class.xercesc_2_7::XMLUri"*, align 8
  %newHost.addr = alloca i16*, align 8
  %exn.slot = alloca i8*
  %ehselector.slot = alloca i32
  store %"class.xercesc_2_7::XMLUri"* %this, %"class.xercesc_2_7::XMLUri"** %this.addr, align 8
  call void @llvm.dbg.declare(metadata %"class.xercesc_2_7::XMLUri"** %this.addr, metadata !3246, metadata !DIExpression()), !dbg !3247
  store i16* %newHost, i16** %newHost.addr, align 8
  call void @llvm.dbg.declare(metadata i16** %newHost.addr, metadata !3248, metadata !DIExpression()), !dbg !3249
  %this1 = load %"class.xercesc_2_7::XMLUri"*, %"class.xercesc_2_7::XMLUri"** %this.addr, align 8
  %0 = load i16*, i16** %newHost.addr, align 8, !dbg !3250
  %tobool = icmp ne i16* %0, null, !dbg !3250
  br i1 %tobool, label %if.end5, label %if.then, !dbg !3252

if.then:                                          ; preds = %entry
  %call = call i16* @_ZNK11xercesc_2_76XMLUri7getHostEv(%"class.xercesc_2_7::XMLUri"* %this1), !dbg !3253
  %tobool2 = icmp ne i16* %call, null, !dbg !3253
  br i1 %tobool2, label %if.then3, label %if.end, !dbg !3256

if.then3:                                         ; preds = %if.then
  %fMemoryManager = getelementptr inbounds %"class.xercesc_2_7::XMLUri", %"class.xercesc_2_7::XMLUri"* %this1, i32 0, i32 10, !dbg !3257
  %1 = load %"class.xercesc_2_7::MemoryManager"*, %"class.xercesc_2_7::MemoryManager"** %fMemoryManager, align 8, !dbg !3257
  %fHost = getelementptr inbounds %"class.xercesc_2_7::XMLUri", %"class.xercesc_2_7::XMLUri"* %this1, i32 0, i32 4, !dbg !3258
  %2 = load i16*, i16** %fHost, align 8, !dbg !3258
  %3 = bitcast i16* %2 to i8*, !dbg !3258
  %4 = bitcast %"class.xercesc_2_7::MemoryManager"* %1 to void (%"class.xercesc_2_7::MemoryManager"*, i8*)***, !dbg !3259
  %vtable = load void (%"class.xercesc_2_7::MemoryManager"*, i8*)**, void (%"class.xercesc_2_7::MemoryManager"*, i8*)*** %4, align 8, !dbg !3259
  %vfn = getelementptr inbounds void (%"class.xercesc_2_7::MemoryManager"*, i8*)*, void (%"class.xercesc_2_7::MemoryManager"*, i8*)** %vtable, i64 3, !dbg !3259
  %5 = load void (%"class.xercesc_2_7::MemoryManager"*, i8*)*, void (%"class.xercesc_2_7::MemoryManager"*, i8*)** %vfn, align 8, !dbg !3259
  call void %5(%"class.xercesc_2_7::MemoryManager"* %1, i8* %3), !dbg !3259
  br label %if.end, !dbg !3257

if.end:                                           ; preds = %if.then3, %if.then
  %fHost4 = getelementptr inbounds %"class.xercesc_2_7::XMLUri", %"class.xercesc_2_7::XMLUri"* %this1, i32 0, i32 4, !dbg !3260
  store i16* null, i16** %fHost4, align 8, !dbg !3261
  call void @_ZN11xercesc_2_76XMLUri11setUserInfoEPKt(%"class.xercesc_2_7::XMLUri"* %this1, i16* null), !dbg !3262
  call void @_ZN11xercesc_2_76XMLUri7setPortEi(%"class.xercesc_2_7::XMLUri"* %this1, i32 -1), !dbg !3263
  br label %return, !dbg !3264

if.end5:                                          ; preds = %entry
  %6 = load i16*, i16** %newHost.addr, align 8, !dbg !3265
  %7 = load i16, i16* %6, align 2, !dbg !3267
  %tobool6 = icmp ne i16 %7, 0, !dbg !3267
  br i1 %tobool6, label %land.lhs.true, label %if.end11, !dbg !3268

land.lhs.true:                                    ; preds = %if.end5
  %8 = load i16*, i16** %newHost.addr, align 8, !dbg !3269
  %fMemoryManager7 = getelementptr inbounds %"class.xercesc_2_7::XMLUri", %"class.xercesc_2_7::XMLUri"* %this1, i32 0, i32 10, !dbg !3270
  %9 = load %"class.xercesc_2_7::MemoryManager"*, %"class.xercesc_2_7::MemoryManager"** %fMemoryManager7, align 8, !dbg !3270
  %call8 = call zeroext i1 @_ZN11xercesc_2_76XMLUri19isWellFormedAddressEPKtPNS_13MemoryManagerE(i16* %8, %"class.xercesc_2_7::MemoryManager"* %9), !dbg !3271
  br i1 %call8, label %if.end11, label %if.then9, !dbg !3272

if.then9:                                         ; preds = %land.lhs.true
  %exception = call i8* @__cxa_allocate_exception(i64 48) #10, !dbg !3273
  %10 = bitcast i8* %exception to %"class.xercesc_2_7::MalformedURLException"*, !dbg !3273
  %11 = load i16*, i16** %newHost.addr, align 8, !dbg !3273
  %fMemoryManager10 = getelementptr inbounds %"class.xercesc_2_7::XMLUri", %"class.xercesc_2_7::XMLUri"* %this1, i32 0, i32 10, !dbg !3273
  %12 = load %"class.xercesc_2_7::MemoryManager"*, %"class.xercesc_2_7::MemoryManager"** %fMemoryManager10, align 8, !dbg !3273
  invoke void @_ZN11xercesc_2_721MalformedURLExceptionC2EPKcjNS_10XMLExcepts5CodesEPKtS6_S6_S6_PNS_13MemoryManagerE(%"class.xercesc_2_7::MalformedURLException"* %10, i8* getelementptr inbounds ([11 x i8], [11 x i8]* @.str, i64 0, i64 0), i32 1179, i32 271, i16* getelementptr inbounds ([5 x i16], [5 x i16]* @_ZN11xercesc_2_7L11errMsg_HOSTE, i64 0, i64 0), i16* %11, i16* null, i16* null, %"class.xercesc_2_7::MemoryManager"* %12)
          to label %invoke.cont unwind label %lpad, !dbg !3273

invoke.cont:                                      ; preds = %if.then9
  call void @__cxa_throw(i8* %exception, i8* bitcast ({ i8*, i8*, i8* }* @_ZTIN11xercesc_2_721MalformedURLExceptionE to i8*), i8* bitcast (void (%"class.xercesc_2_7::MalformedURLException"*)* @_ZN11xercesc_2_721MalformedURLExceptionD2Ev to i8*)) #12, !dbg !3273
  unreachable, !dbg !3273

lpad:                                             ; preds = %if.then9
  %13 = landingpad { i8*, i32 }
          cleanup, !dbg !3275
  %14 = extractvalue { i8*, i32 } %13, 0, !dbg !3275
  store i8* %14, i8** %exn.slot, align 8, !dbg !3275
  %15 = extractvalue { i8*, i32 } %13, 1, !dbg !3275
  store i32 %15, i32* %ehselector.slot, align 4, !dbg !3275
  call void @__cxa_free_exception(i8* %exception) #10, !dbg !3273
  br label %eh.resume, !dbg !3273

if.end11:                                         ; preds = %land.lhs.true, %if.end5
  %call12 = call i16* @_ZNK11xercesc_2_76XMLUri7getHostEv(%"class.xercesc_2_7::XMLUri"* %this1), !dbg !3276
  %tobool13 = icmp ne i16* %call12, null, !dbg !3276
  br i1 %tobool13, label %if.then14, label %if.end19, !dbg !3278

if.then14:                                        ; preds = %if.end11
  %fMemoryManager15 = getelementptr inbounds %"class.xercesc_2_7::XMLUri", %"class.xercesc_2_7::XMLUri"* %this1, i32 0, i32 10, !dbg !3279
  %16 = load %"class.xercesc_2_7::MemoryManager"*, %"class.xercesc_2_7::MemoryManager"** %fMemoryManager15, align 8, !dbg !3279
  %fHost16 = getelementptr inbounds %"class.xercesc_2_7::XMLUri", %"class.xercesc_2_7::XMLUri"* %this1, i32 0, i32 4, !dbg !3281
  %17 = load i16*, i16** %fHost16, align 8, !dbg !3281
  %18 = bitcast i16* %17 to i8*, !dbg !3281
  %19 = bitcast %"class.xercesc_2_7::MemoryManager"* %16 to void (%"class.xercesc_2_7::MemoryManager"*, i8*)***, !dbg !3282
  %vtable17 = load void (%"class.xercesc_2_7::MemoryManager"*, i8*)**, void (%"class.xercesc_2_7::MemoryManager"*, i8*)*** %19, align 8, !dbg !3282
  %vfn18 = getelementptr inbounds void (%"class.xercesc_2_7::MemoryManager"*, i8*)*, void (%"class.xercesc_2_7::MemoryManager"*, i8*)** %vtable17, i64 3, !dbg !3282
  %20 = load void (%"class.xercesc_2_7::MemoryManager"*, i8*)*, void (%"class.xercesc_2_7::MemoryManager"*, i8*)** %vfn18, align 8, !dbg !3282
