; ModuleID = 'DTDScanner.cpp'
source_filename = "DTDScanner.cpp"
target datalayout = "e-m:e-p270:32:32-p271:32:32-p272:64:64-i64:64-f80:128-n8:16:32:64-S128"
target triple = "x86_64-unknown-linux-gnu"

%"class.xercesc_2_7::NameIdPool.0" = type <{ %"class.xercesc_2_7::MemoryManager"*, %"struct.xercesc_2_7::NameIdPoolBucketElem.1"**, %"class.xercesc_2_7::DTDEntityDecl"**, i32, i32, i32, [4 x i8] }>
%"class.xercesc_2_7::MemoryManager" = type { i32 (...)** }
%"struct.xercesc_2_7::NameIdPoolBucketElem.1" = type { %"class.xercesc_2_7::DTDEntityDecl"*, %"struct.xercesc_2_7::NameIdPoolBucketElem.1"* }
%"class.xercesc_2_7::DTDEntityDecl" = type <{ %"class.xercesc_2_7::XMLEntityDecl", i8, i8, i8, [5 x i8] }>
%"class.xercesc_2_7::XMLEntityDecl" = type { %"class.xercesc_2_7::XSerializable", i32, i32, i16*, i16*, i16*, i16*, i16*, i16*, %"class.xercesc_2_7::MemoryManager"* }
%"class.xercesc_2_7::XSerializable" = type { i32 (...)** }
%"class.xercesc_2_7::DTDScanner" = type { i32 (...)**, %"class.xercesc_2_7::MemoryManager"*, %"class.xercesc_2_7::MemoryManager"*, %"class.xercesc_2_7::DocTypeHandler"*, %"class.xercesc_2_7::DTDAttDef"*, %"class.xercesc_2_7::DTDElementDecl"*, %"class.xercesc_2_7::DTDEntityDecl"*, i8, i32, %"class.xercesc_2_7::DTDGrammar"*, %"class.xercesc_2_7::XMLBufferMgr"*, %"class.xercesc_2_7::ReaderMgr"*, %"class.xercesc_2_7::XMLScanner"*, %"class.xercesc_2_7::NameIdPool.0"*, i32, i32 }
%"class.xercesc_2_7::DTDAttDef" = type { %"class.xercesc_2_7::XMLAttDef", i32, i16* }
%"class.xercesc_2_7::XMLAttDef" = type { %"class.xercesc_2_7::XSerializable", i32, i32, i32, i8, i8, i32, i16*, i16*, %"class.xercesc_2_7::MemoryManager"* }
%"class.xercesc_2_7::DTDElementDecl" = type { %"class.xercesc_2_7::XMLElementDecl.base", i32, %"class.xercesc_2_7::RefHashTableOf"*, %"class.xercesc_2_7::DTDAttDefList"*, %"class.xercesc_2_7::ContentSpecNode"*, %"class.xercesc_2_7::XMLContentModel"*, i16* }
%"class.xercesc_2_7::XMLElementDecl.base" = type <{ %"class.xercesc_2_7::XSerializable", %"class.xercesc_2_7::MemoryManager"*, %"class.xercesc_2_7::QName"*, i32, i32, i8 }>
%"class.xercesc_2_7::QName" = type { %"class.xercesc_2_7::XSerializable", i32, i32, i32, i32, i16*, i16*, i16*, %"class.xercesc_2_7::MemoryManager"* }
%"class.xercesc_2_7::RefHashTableOf" = type opaque
%"class.xercesc_2_7::DTDAttDefList" = type opaque
%"class.xercesc_2_7::ContentSpecNode" = type { %"class.xercesc_2_7::XSerializable", %"class.xercesc_2_7::MemoryManager"*, %"class.xercesc_2_7::QName"*, %"class.xercesc_2_7::XMLElementDecl"*, %"class.xercesc_2_7::ContentSpecNode"*, %"class.xercesc_2_7::ContentSpecNode"*, i32, i8, i8, i32, i32 }
%"class.xercesc_2_7::XMLElementDecl" = type <{ %"class.xercesc_2_7::XSerializable", %"class.xercesc_2_7::MemoryManager"*, %"class.xercesc_2_7::QName"*, i32, i32, i8, [7 x i8] }>
%"class.xercesc_2_7::XMLContentModel" = type { i32 (...)** }
%"class.xercesc_2_7::XMLBufferMgr" = type { i32, %"class.xercesc_2_7::MemoryManager"*, %"class.xercesc_2_7::XMLBuffer"** }
%"class.xercesc_2_7::XMLBuffer" = type { i32, i32, i32, i8, %"class.xercesc_2_7::MemoryManager"*, %"class.xercesc_2_7::XMLBufferFullHandler"*, i16* }
%"class.xercesc_2_7::XMLBufferFullHandler" = type { i32 (...)** }
%"class.xercesc_2_7::ReaderMgr" = type { %"class.xercesc_2_7::Locator", %"class.xercesc_2_7::XMLEntityDecl"*, %"class.xercesc_2_7::XMLReader"*, %"class.xercesc_2_7::XMLEntityHandler"*, %"class.xercesc_2_7::RefStackOf"*, i32, %"class.xercesc_2_7::RefStackOf.6"*, i8, i32, i8, %"class.xercesc_2_7::MemoryManager"* }
%"class.xercesc_2_7::Locator" = type { i32 (...)** }
%"class.xercesc_2_7::XMLReader" = type { i32, [16384 x i16], i32, [16384 x i8], [16384 x i32], i64, i64, i32, i16*, i8, i8, i16*, i32, [49152 x i8], i32, i32, i32, i8, i32, i32, i8, i8, i16*, %"class.xercesc_2_7::BinInputStream"*, i8, i8, %"class.xercesc_2_7::XMLTranscoder"*, i32, i8*, i8, i32, %"class.xercesc_2_7::MemoryManager"* }
%"class.xercesc_2_7::BinInputStream" = type { i32 (...)** }
%"class.xercesc_2_7::XMLTranscoder" = type opaque
%"class.xercesc_2_7::XMLEntityHandler" = type { i32 (...)** }
%"class.xercesc_2_7::RefStackOf" = type opaque
%"class.xercesc_2_7::RefStackOf.6" = type opaque
%"class.xercesc_2_7::XMLScanner" = type { %"class.xercesc_2_7::XMLBufferFullHandler", i64, i8, i8, i8, i8, i8, i8, i8, i8, i8, i8, i8, i8, i8, i8, i8, i8, i8, i8, i8, i8, i8, i8, i8, i32, i32, i32, i32, i32, i32, i32, i32, i32**, i32, i32, i32, i32, i32, %"class.xercesc_2_7::RefVectorOf"*, %"class.xercesc_2_7::RefHash2KeysTableOf"*, %"class.xercesc_2_7::XMLDocumentHandler"*, %"class.xercesc_2_7::DocTypeHandler"*, %"class.xercesc_2_7::XMLEntityHandler"*, %"class.xercesc_2_7::XMLErrorReporter"*, %"class.xercesc_2_7::ErrorHandler"*, %"class.xercesc_2_7::PSVIHandler"*, %"class.xercesc_2_7::ValidationContext"*, i8, %"class.xercesc_2_7::ReaderMgr", %"class.xercesc_2_7::XMLValidator"*, i32, %"class.xercesc_2_7::GrammarResolver"*, %"class.xercesc_2_7::MemoryManager"*, %"class.xercesc_2_7::Grammar"*, %"class.xercesc_2_7::Grammar"*, %"class.xercesc_2_7::XMLStringPool"*, i16*, i16*, i16*, %"class.xercesc_2_7::SecurityManager"*, i32, %"class.xercesc_2_7::MemoryManager"*, %"class.xercesc_2_7::XMLBufferMgr", %"class.xercesc_2_7::XMLBuffer", %"class.xercesc_2_7::XMLBuffer", %"class.xercesc_2_7::XMLBuffer", %"class.xercesc_2_7::XMLBuffer", %"class.xercesc_2_7::XMLBuffer", %"class.xercesc_2_7::XMLBuffer", %"class.xercesc_2_7::XMLBuffer", %"class.xercesc_2_7::ElemStack" }
%"class.xercesc_2_7::RefVectorOf" = type opaque
%"class.xercesc_2_7::RefHash2KeysTableOf" = type { %"class.xercesc_2_7::MemoryManager"*, i8, %"struct.xercesc_2_7::RefHash2KeysTableBucketElem"**, i32, i32, %"class.xercesc_2_7::HashBase"* }
%"struct.xercesc_2_7::RefHash2KeysTableBucketElem" = type <{ %"class.xercesc_2_7::XMLAttr"*, %"struct.xercesc_2_7::RefHash2KeysTableBucketElem"*, i8*, i32, [4 x i8] }>
%"class.xercesc_2_7::XMLAttr" = type <{ i8, [3 x i8], i32, i32, [4 x i8], i16*, %"class.xercesc_2_7::QName"*, %"class.xercesc_2_7::MemoryManager"*, %"class.xercesc_2_7::DatatypeValidator"*, i8, [7 x i8] }>
%"class.xercesc_2_7::DatatypeValidator" = type { %"class.xercesc_2_7::XSerializable", i8, i8, i8, i8, i16, i32, i32, i32, i32, i32, %"class.xercesc_2_7::DatatypeValidator"*, %"class.xercesc_2_7::RefHashTableOf.16"*, i16*, %"class.xercesc_2_7::RegularExpression"*, i16*, i16*, i16*, %"class.xercesc_2_7::MemoryManager"* }
%"class.xercesc_2_7::RefHashTableOf.16" = type opaque
%"class.xercesc_2_7::RegularExpression" = type { i8, i8, i32, i32, i32, i32, %"class.xercesc_2_7::BMPattern"*, i16*, i16*, %"class.xercesc_2_7::Op"*, %"class.xercesc_2_7::Token"*, %"class.xercesc_2_7::RangeToken"*, %"class.xercesc_2_7::OpFactory", %"class.xercesc_2_7::TokenFactory"*, %"class.xercesc_2_7::MemoryManager"* }
%"class.xercesc_2_7::BMPattern" = type { i8, i32, i32*, i16*, i16*, %"class.xercesc_2_7::MemoryManager"* }
%"class.xercesc_2_7::Op" = type { i32 (...)**, %"class.xercesc_2_7::MemoryManager"*, i16, %"class.xercesc_2_7::Op"* }
%"class.xercesc_2_7::Token" = type { i32 (...)**, i16, %"class.xercesc_2_7::MemoryManager"* }
%"class.xercesc_2_7::RangeToken" = type opaque
%"class.xercesc_2_7::OpFactory" = type { %"class.xercesc_2_7::RefVectorOf.17"*, %"class.xercesc_2_7::MemoryManager"* }
%"class.xercesc_2_7::RefVectorOf.17" = type { %"class.xercesc_2_7::BaseRefVectorOf.18" }
%"class.xercesc_2_7::BaseRefVectorOf.18" = type { i32 (...)**, i8, i32, i32, %"class.xercesc_2_7::Op"**, %"class.xercesc_2_7::MemoryManager"* }
%"class.xercesc_2_7::TokenFactory" = type { %"class.xercesc_2_7::RefVectorOf.19"*, %"class.xercesc_2_7::Token"*, %"class.xercesc_2_7::Token"*, %"class.xercesc_2_7::Token"*, %"class.xercesc_2_7::Token"*, %"class.xercesc_2_7::Token"*, %"class.xercesc_2_7::Token"*, %"class.xercesc_2_7::Token"*, %"class.xercesc_2_7::Token"*, %"class.xercesc_2_7::Token"*, %"class.xercesc_2_7::Token"*, %"class.xercesc_2_7::Token"*, %"class.xercesc_2_7::Token"*, %"class.xercesc_2_7::Token"*, %"class.xercesc_2_7::Token"*, %"class.xercesc_2_7::MemoryManager"* }
%"class.xercesc_2_7::RefVectorOf.19" = type opaque
%"class.xercesc_2_7::HashBase" = type { i32 (...)** }
%"class.xercesc_2_7::XMLDocumentHandler" = type { i32 (...)** }
%"class.xercesc_2_7::XMLErrorReporter" = type { i32 (...)** }
%"class.xercesc_2_7::ErrorHandler" = type opaque
%"class.xercesc_2_7::PSVIHandler" = type opaque
%"class.xercesc_2_7::ValidationContext" = type { i32 (...)**, %"class.xercesc_2_7::MemoryManager"* }
%"class.xercesc_2_7::XMLValidator" = type { i32 (...)**, %"class.xercesc_2_7::XMLBufferMgr"*, %"class.xercesc_2_7::XMLErrorReporter"*, %"class.xercesc_2_7::ReaderMgr"*, %"class.xercesc_2_7::XMLScanner"* }
%"class.xercesc_2_7::GrammarResolver" = type { i8, i8, i8, %"class.xercesc_2_7::XMLStringPool"*, %"class.xercesc_2_7::RefHashTableOf.8"*, %"class.xercesc_2_7::RefHashTableOf.8"*, %"class.xercesc_2_7::DatatypeValidatorFactory"*, %"class.xercesc_2_7::MemoryManager"*, %"class.xercesc_2_7::XMLGrammarPool"*, %"class.xercesc_2_7::XSModel"*, %"class.xercesc_2_7::XSModel"*, %"class.xercesc_2_7::ValueVectorOf"* }
%"class.xercesc_2_7::RefHashTableOf.8" = type opaque
%"class.xercesc_2_7::DatatypeValidatorFactory" = type opaque
%"class.xercesc_2_7::XMLGrammarPool" = type <{ i32 (...)**, %"class.xercesc_2_7::MemoryManager"*, i8, [7 x i8] }>
%"class.xercesc_2_7::XSModel" = type <{ %"class.xercesc_2_7::MemoryManager"*, %"class.xercesc_2_7::RefArrayVectorOf"*, %"class.xercesc_2_7::RefVectorOf.9"*, [14 x %"class.xercesc_2_7::RefVectorOf.10"*], [14 x %"class.xercesc_2_7::XSNamedMap"*], %"class.xercesc_2_7::XMLStringPool"*, %"class.xercesc_2_7::RefVectorOf.11"*, %"class.xercesc_2_7::RefHashTableOf.12"*, %"class.xercesc_2_7::XSObjectFactory"*, %"class.xercesc_2_7::RefVectorOf.9"*, %"class.xercesc_2_7::XSModel"*, i8, i8, [6 x i8] }>
%"class.xercesc_2_7::RefArrayVectorOf" = type { %"class.xercesc_2_7::BaseRefVectorOf" }
%"class.xercesc_2_7::BaseRefVectorOf" = type { i32 (...)**, i8, i32, i32, i16**, %"class.xercesc_2_7::MemoryManager"* }
%"class.xercesc_2_7::RefVectorOf.10" = type opaque
%"class.xercesc_2_7::XSNamedMap" = type opaque
%"class.xercesc_2_7::RefVectorOf.11" = type opaque
%"class.xercesc_2_7::RefHashTableOf.12" = type opaque
%"class.xercesc_2_7::XSObjectFactory" = type opaque
%"class.xercesc_2_7::RefVectorOf.9" = type opaque
%"class.xercesc_2_7::ValueVectorOf" = type opaque
%"class.xercesc_2_7::Grammar" = type { %"class.xercesc_2_7::XSerializable" }
%"class.xercesc_2_7::XMLStringPool" = type { %"class.xercesc_2_7::XSerializable", %"class.xercesc_2_7::MemoryManager"*, %"struct.xercesc_2_7::XMLStringPool::PoolElem"**, %"class.xercesc_2_7::RefHashTableOf.7"*, i32, i32 }
%"struct.xercesc_2_7::XMLStringPool::PoolElem" = type { i32, i16* }
%"class.xercesc_2_7::RefHashTableOf.7" = type { %"class.xercesc_2_7::MemoryManager"*, i8, %"struct.xercesc_2_7::RefHashTableBucketElem"**, i32, i32, i32, %"class.xercesc_2_7::HashBase"* }
%"struct.xercesc_2_7::RefHashTableBucketElem" = type { %"struct.xercesc_2_7::XMLStringPool::PoolElem"*, %"struct.xercesc_2_7::RefHashTableBucketElem"*, i8* }
%"class.xercesc_2_7::SecurityManager" = type <{ i32 (...)**, i32, [4 x i8] }>
%"class.xercesc_2_7::ElemStack" = type { i32, i32, %"class.xercesc_2_7::XMLStringPool", %"struct.xercesc_2_7::ElemStack::StackElem"**, i32, i32, i32, i32, i32, i32, i32, %"class.xercesc_2_7::ValueVectorOf.13"*, %"class.xercesc_2_7::MemoryManager"* }
%"struct.xercesc_2_7::ElemStack::StackElem" = type { %"class.xercesc_2_7::XMLElementDecl"*, i32, i32, i32, %"class.xercesc_2_7::QName"**, %"struct.xercesc_2_7::PrefMapElem"*, i32, i32, i8, i8, i8, i32, %"class.xercesc_2_7::Grammar"*, i32, i16*, i32, i32 }
%"struct.xercesc_2_7::PrefMapElem" = type { i32, i32 }
%"class.xercesc_2_7::ValueVectorOf.13" = type opaque
%"class.xercesc_2_7::DTDGrammar" = type <{ %"class.xercesc_2_7::Grammar", %"class.xercesc_2_7::MemoryManager"*, %"class.xercesc_2_7::NameIdPool"*, %"class.xercesc_2_7::NameIdPool"*, %"class.xercesc_2_7::NameIdPool.0"*, %"class.xercesc_2_7::NameIdPool.3"*, %"class.xercesc_2_7::XMLDTDDescription"*, i32, i8, [3 x i8] }>
%"class.xercesc_2_7::NameIdPool" = type <{ %"class.xercesc_2_7::MemoryManager"*, %"struct.xercesc_2_7::NameIdPoolBucketElem"**, %"class.xercesc_2_7::DTDElementDecl"**, i32, i32, i32, [4 x i8] }>
%"struct.xercesc_2_7::NameIdPoolBucketElem" = type { %"class.xercesc_2_7::DTDElementDecl"*, %"struct.xercesc_2_7::NameIdPoolBucketElem"* }
%"class.xercesc_2_7::NameIdPool.3" = type <{ %"class.xercesc_2_7::MemoryManager"*, %"struct.xercesc_2_7::NameIdPoolBucketElem.4"**, %"class.xercesc_2_7::XMLNotationDecl"**, i32, i32, i32, [4 x i8] }>
%"struct.xercesc_2_7::NameIdPoolBucketElem.4" = type { %"class.xercesc_2_7::XMLNotationDecl"*, %"struct.xercesc_2_7::NameIdPoolBucketElem.4"* }
%"class.xercesc_2_7::XMLNotationDecl" = type { %"class.xercesc_2_7::XSerializable", i32, i32, i16*, i16*, i16*, i16*, %"class.xercesc_2_7::MemoryManager"* }
%"class.xercesc_2_7::XMLDTDDescription" = type { %"class.xercesc_2_7::XMLGrammarDescription" }
%"class.xercesc_2_7::XMLGrammarDescription" = type { %"class.xercesc_2_7::XSerializable", %"class.xercesc_2_7::MemoryManager"* }
%"class.xercesc_2_7::DocTypeHandler" = type { i32 (...)** }
%"class.xercesc_2_7::XMLDeleter" = type { i32 (...)** }
%"class.xercesc_2_7::XMLRefInfo" = type { %"class.xercesc_2_7::XSerializable", i8, i8, i16*, %"class.xercesc_2_7::MemoryManager"* }
%"class.xercesc_2_7::XMLAttDefList" = type { %"class.xercesc_2_7::XSerializable", %"class.xercesc_2_7::MemoryManager"* }
%"class.xercesc_2_7::XMemory" = type { i8 }
%"class.xercesc_2_7::IllegalArgumentException" = type { %"class.xercesc_2_7::XMLException" }
%"class.xercesc_2_7::XMLException" = type { i32 (...)**, i32, i8*, i32, i16*, %"class.xercesc_2_7::MemoryManager"* }
%"class.xercesc_2_7::XMLBufBid" = type { %"class.xercesc_2_7::XMLBuffer"*, %"class.xercesc_2_7::XMLBufferMgr"* }
%"class.xercesc_2_7::InputSource" = type <{ i32 (...)**, %"class.xercesc_2_7::MemoryManager"*, i16*, i16*, i16*, i8, [7 x i8] }>
%"class.xercesc_2_7::Janitor" = type { %"class.xercesc_2_7::InputSource"* }
%"class.xercesc_2_7::OutOfMemoryException" = type { i8 }
%"class.xercesc_2_7::RuntimeException" = type { %"class.xercesc_2_7::XMLException" }
%"class.xercesc_2_7::FlagJanitor" = type { i8, i8* }
%"class.xercesc_2_7::EndOfEntityException" = type <{ %"class.xercesc_2_7::XMLEntityDecl"*, i32, [4 x i8] }>
%"class.xercesc_2_7::ArrayIndexOutOfBoundsException" = type { %"class.xercesc_2_7::XMLException" }
%"class.xercesc_2_7::UnexpectedEOFException" = type { %"class.xercesc_2_7::XMLException" }
%"class.xercesc_2_7::MixedContentModel" = type { %"class.xercesc_2_7::XMLContentModel", i32, %"class.xercesc_2_7::QName"**, i32*, i8, i8, %"class.xercesc_2_7::MemoryManager"* }
%"struct.xercesc_2_7::ReaderMgr::LastExtEntityInfo" = type { i16*, i16*, i64, i64 }
%"class.xercesc_2_7::XSerializeEngine" = type <{ i16, i16, [4 x i8], %"class.xercesc_2_7::XMLGrammarPool"*, %"class.xercesc_2_7::BinInputStream"*, %"class.xercesc_2_7::BinOutputStream"*, i64, i64, i8*, i8*, i8*, i8*, %"class.xercesc_2_7::RefHashTableOf.14"*, %"class.xercesc_2_7::ValueVectorOf.15"*, i32, [4 x i8] }>
%"class.xercesc_2_7::BinOutputStream" = type opaque
%"class.xercesc_2_7::RefHashTableOf.14" = type opaque
%"class.xercesc_2_7::ValueVectorOf.15" = type opaque
%"class.xercesc_2_7::XProtoType" = type { i8*, %"class.xercesc_2_7::XSerializable"* (%"class.xercesc_2_7::MemoryManager"*)* }

$_ZN11xercesc_2_710XMLDeleterD0Ev = comdat any

$_ZN11xercesc_2_710XMLDeleterD2Ev = comdat any

$__clang_call_terminate = comdat any

$_ZN11xercesc_2_710XMLRefInfoD0Ev = comdat any

$_ZN11xercesc_2_710XMLRefInfoD2Ev = comdat any

$_ZN11xercesc_2_713DTDEntityDeclD0Ev = comdat any

$_ZN11xercesc_2_713DTDEntityDeclD2Ev = comdat any

$_ZN11xercesc_2_713XMLAttDefListD0Ev = comdat any

$_ZN11xercesc_2_715ContentSpecNodeD0Ev = comdat any

$_ZN11xercesc_2_715ContentSpecNodeD2Ev = comdat any

$_ZN11xercesc_2_77XMemoryC2Ev = comdat any

$_ZN11xercesc_2_710NameIdPoolINS_13DTDEntityDeclEEC2EjjPNS_13MemoryManagerE = comdat any

$_ZN11xercesc_2_710NameIdPoolINS_13DTDEntityDeclEED2Ev = comdat any

$_ZNK11xercesc_2_710XMLScanner15getDoNamespacesEv = comdat any

$_ZNK11xercesc_2_710XMLScanner19getEmptyNamespaceIdEv = comdat any

$_ZNK11xercesc_2_79ReaderMgr19getCurrentReaderNumEv = comdat any

$_ZN11xercesc_2_710XMLScanner11setHasNoDTDEb = comdat any

$_ZN11xercesc_2_79XMLBufBidC2EPNS_12XMLBufferMgrE = comdat any

$_ZN11xercesc_2_79ReaderMgr7getNameERNS_9XMLBufferE = comdat any

$_ZN11xercesc_2_79XMLBufBid9getBufferEv = comdat any

$_ZN11xercesc_2_79XMLBufBid12getRawBufferEv = comdat any

$_ZN11xercesc_2_710NameIdPoolINS_13DTDEntityDeclEE8getByKeyEPKt = comdat any

$_ZNK11xercesc_2_710XMLScanner13getStandaloneEv = comdat any

$_ZNK11xercesc_2_710XMLScanner15getDoValidationEv = comdat any

$_ZN11xercesc_2_710XMLScanner12getValidatorEv = comdat any

$_ZNK11xercesc_2_713XMLEntityDecl10isExternalEv = comdat any

$_ZNK11xercesc_2_713XMLEntityDecl10getBaseURIEv = comdat any

$_ZNK11xercesc_2_713XMLEntityDecl11getSystemIdEv = comdat any

$_ZNK11xercesc_2_713XMLEntityDecl11getPublicIdEv = comdat any

$_ZNK11xercesc_2_710XMLScanner18getCalculateSrcOfsEv = comdat any

$_ZNK11xercesc_2_710XMLScanner33getDisableDefaultEntityResolutionEv = comdat any

$_ZN11xercesc_2_77JanitorINS_11InputSourceEEC2EPS1_ = comdat any

$_ZN11xercesc_2_716RuntimeExceptionC2EPKcjNS_10XMLExcepts5CodesEPKtS6_S6_S6_PNS_13MemoryManagerE = comdat any

$_ZN11xercesc_2_716RuntimeExceptionD2Ev = comdat any

$_ZN11xercesc_2_79XMLReader13setThrowAtEndEb = comdat any

$_ZNK11xercesc_2_713XMLEntityDecl7getNameEv = comdat any

$_ZN11xercesc_2_710XMLScanner16getEntityHandlerEv = comdat any

$_ZN11xercesc_2_77JanitorINS_11InputSourceEED2Ev = comdat any

$_ZNK11xercesc_2_713XMLEntityDecl8getValueEv = comdat any

$_ZNK11xercesc_2_713XMLEntityDecl11getValueLenEv = comdat any

$_ZN11xercesc_2_79XMLBufBidD2Ev = comdat any

$_ZN11xercesc_2_79XMLBuffer5resetEv = comdat any

$_ZN11xercesc_2_79XMLBuffer6appendEt = comdat any

$_ZN11xercesc_2_79XMLBuffer12getRawBufferEv = comdat any

$_ZNK11xercesc_2_714XMLElementDecl11getFullNameEv = comdat any

$_ZN11xercesc_2_79XMLAttDef5setIdEj = comdat any

$_ZN11xercesc_2_79XMLAttDef25setExternalAttDeclarationEb = comdat any

$_ZN11xercesc_2_710DTDScanner23isReadingExternalEntityEv = comdat any

$_ZN11xercesc_2_79ReaderMgr13skippedStringEPKt = comdat any

$_ZN11xercesc_2_79XMLAttDef7setTypeENS0_8AttTypesE = comdat any

$_ZN11xercesc_2_79XMLAttDef14setEnumerationEPKt = comdat any

$_ZNK11xercesc_2_79XMLAttDef7getTypeEv = comdat any

$_ZNK11xercesc_2_79XMLAttDef14getDefaultTypeEv = comdat any

$_ZN11xercesc_2_79XMLString6equalsEPKtS2_ = comdat any

$_ZNK11xercesc_2_79XMLAttDef14getEnumerationEv = comdat any

$_ZNK11xercesc_2_715BaseRefVectorOfItE4sizeEv = comdat any

$_ZN11xercesc_2_715BaseRefVectorOfItE9elementAtEj = comdat any

$_ZN11xercesc_2_79ReaderMgr12skipPastCharEt = comdat any

$_ZN11xercesc_2_714XMLElementDecl15setCreateReasonENS0_13CreateReasonsE = comdat any

$_ZN11xercesc_2_714XMLElementDecl26setExternalElemDeclarationEb = comdat any

$_ZN11xercesc_2_722UnexpectedEOFExceptionC2EPKcjNS_10XMLExcepts5CodesEPNS_13MemoryManagerE = comdat any

$_ZN11xercesc_2_722UnexpectedEOFExceptionD2Ev = comdat any

$_ZN11xercesc_2_79ReaderMgr16getCurrentReaderEv = comdat any

$_ZNK11xercesc_2_79XMLReader12isWhitespaceEt = comdat any

$_ZNK11xercesc_2_79XMLBuffer6getLenEv = comdat any

$_ZNK11xercesc_2_79XMLReader9isXMLCharEt = comdat any

$_ZNK11xercesc_2_79XMLReader13isControlCharEt = comdat any

$_ZN11xercesc_2_714XMLElementDecl14getElementNameEv = comdat any

$_ZN11xercesc_2_715ContentSpecNodeC2EPNS_5QNameEPNS_13MemoryManagerE = comdat any

$_ZN11xercesc_2_715ContentSpecNodeC2ENS0_9NodeTypesEPS0_S2_bbPNS_13MemoryManagerE = comdat any

$_ZN11xercesc_2_79ReaderMgr13lookingAtCharEt = comdat any

$_ZNK11xercesc_2_715ContentSpecNode7getTypeEv = comdat any

$_ZN11xercesc_2_715ContentSpecNode9getSecondEv = comdat any

$_ZN11xercesc_2_715ContentSpecNode11orphanFirstEv = comdat any

$_ZN11xercesc_2_715ContentSpecNode9setSecondEPS0_ = comdat any

$_ZN11xercesc_2_79XMLBufBid6appendEt = comdat any

$_ZN11xercesc_2_714DTDElementDecl12setModelTypeENS0_10ModelTypesE = comdat any

$_ZN11xercesc_2_79XMLAttDef14setDefaultTypeENS0_11DefAttTypesE = comdat any

$_ZN11xercesc_2_79XMLAttDef8setValueEPKt = comdat any

$_ZNK11xercesc_2_714XMLElementDecl10isDeclaredEv = comdat any

$_ZN11xercesc_2_79ReaderMgr14lookingAtSpaceEv = comdat any

$_ZN11xercesc_2_710DTDGrammar13getEntityDeclEPKt = comdat any

$_ZN11xercesc_2_713DTDEntityDeclC2EPNS_13MemoryManagerE = comdat any

$_ZN11xercesc_2_713DTDEntityDeclC2EPKtbPNS_13MemoryManagerE = comdat any

$_ZN11xercesc_2_713DTDEntityDecl22setDeclaredInIntSubsetEb = comdat any

$_ZN11xercesc_2_710NameIdPoolINS_13DTDEntityDeclEE3putEPS1_ = comdat any

$_ZNK11xercesc_2_710DTDGrammar13putEntityDeclEPNS_13DTDEntityDeclE = comdat any

$_ZN11xercesc_2_713DTDEntityDecl14setIsParameterEb = comdat any

$_ZNK11xercesc_2_710XMLScanner11getHasNoDTDEv = comdat any

$_ZNK11xercesc_2_713XMLEntityDecl10isUnparsedEv = comdat any

$_ZN11xercesc_2_79XMLBuffer6appendEPKt = comdat any

$_ZN11xercesc_2_713XMLEntityDecl8setValueEPKt = comdat any

$_ZN11xercesc_2_79ReaderMgr17LastExtEntityInfoC2Ev = comdat any

$_ZN11xercesc_2_713XMLEntityDecl11setPublicIdEPKt = comdat any

$_ZN11xercesc_2_713XMLEntityDecl11setSystemIdEPKt = comdat any

$_ZN11xercesc_2_713XMLEntityDecl10setBaseURIEPKt = comdat any

$_ZN11xercesc_2_713XMLEntityDecl15setNotationNameEPKt = comdat any

$_ZN11xercesc_2_79ReaderMgr12getNameTokenERNS_9XMLBufferE = comdat any

$_ZN11xercesc_2_79XMLBuffer6appendEPKtj = comdat any

$_ZNK11xercesc_2_79XMLBufBid6getLenEv = comdat any

$_ZN11xercesc_2_711FlagJanitorIbEC2EPbb = comdat any

$_ZNK11xercesc_2_79XMLReader7getTypeEv = comdat any

$_ZNK11xercesc_2_720EndOfEntityException12getReaderNumEv = comdat any

$_ZN11xercesc_2_711FlagJanitorIbED2Ev = comdat any

$_ZN11xercesc_2_715ContentSpecNodeC2EPNS_5QNameEbPNS_13MemoryManagerE = comdat any

$_ZN11xercesc_2_75QName12getLocalPartEv = comdat any

$_ZN11xercesc_2_715ContentSpecNode12orphanSecondEv = comdat any

$_ZNK11xercesc_2_710XMLScanner13getXMLVersionEv = comdat any

$_ZNK11xercesc_2_79XMLBufBid7isEmptyEv = comdat any

$_ZNK11xercesc_2_713DTDEntityDecl22getDeclaredInIntSubsetEv = comdat any

$_ZNK11xercesc_2_713DTDEntityDecl14getIsParameterEv = comdat any

$_ZNK11xercesc_2_713DTDEntityDecl16getIsSpecialCharEv = comdat any

$_ZN11xercesc_2_713XMLAttDefListD2Ev = comdat any

$_ZNK11xercesc_2_79XMLReader12getReaderNumEv = comdat any

$_ZN11xercesc_2_716RuntimeExceptionD0Ev = comdat any

$_ZNK11xercesc_2_716RuntimeException7getTypeEv = comdat any

$_ZNK11xercesc_2_716RuntimeException9duplicateEv = comdat any

$_ZN11xercesc_2_716RuntimeExceptionC2ERKS0_ = comdat any

$_ZN11xercesc_2_79XMLString9replicateEPKtPNS_13MemoryManagerE = comdat any

$_ZN11xercesc_2_79XMLString9stringLenEPKt = comdat any

$_ZN11xercesc_2_722UnexpectedEOFExceptionD0Ev = comdat any

$_ZNK11xercesc_2_722UnexpectedEOFException7getTypeEv = comdat any

$_ZNK11xercesc_2_722UnexpectedEOFException9duplicateEv = comdat any

$_ZN11xercesc_2_722UnexpectedEOFExceptionC2ERKS0_ = comdat any

$_ZN11xercesc_2_713XSerializableC2Ev = comdat any

$_ZN11xercesc_2_713XSerializableD2Ev = comdat any

$_ZN11xercesc_2_713XSerializableD0Ev = comdat any

$_ZN11xercesc_2_710NameIdPoolINS_13DTDEntityDeclEE14findBucketElemEPKtRj = comdat any

$_ZN11xercesc_2_79XMLString4hashEPKtjPNS_13MemoryManagerE = comdat any

$_ZNK11xercesc_2_713XMLEntityDecl6getKeyEv = comdat any

$_ZN11xercesc_2_724IllegalArgumentExceptionC2EPKcjNS_10XMLExcepts5CodesEPKtS6_S6_S6_PNS_13MemoryManagerE = comdat any

$_ZN11xercesc_2_724IllegalArgumentExceptionD2Ev = comdat any

$_ZN11xercesc_2_720NameIdPoolBucketElemINS_13DTDEntityDeclEEC2EPS1_PS2_ = comdat any

$_ZN11xercesc_2_713XMLEntityDecl5setIdEj = comdat any

$_ZN11xercesc_2_724IllegalArgumentExceptionD0Ev = comdat any

$_ZNK11xercesc_2_724IllegalArgumentException7getTypeEv = comdat any

$_ZNK11xercesc_2_724IllegalArgumentException9duplicateEv = comdat any

$_ZN11xercesc_2_724IllegalArgumentExceptionC2ERKS0_ = comdat any

$_ZN11xercesc_2_724IllegalArgumentExceptionC2EPKcjNS_10XMLExcepts5CodesEPNS_13MemoryManagerE = comdat any

$_ZN11xercesc_2_710NameIdPoolINS_13DTDEntityDeclEE9removeAllEv = comdat any

$_ZN11xercesc_2_77JanitorINS_11InputSourceEE5resetEPS1_ = comdat any

$_ZN11xercesc_2_730ArrayIndexOutOfBoundsExceptionC2EPKcjNS_10XMLExcepts5CodesEPNS_13MemoryManagerE = comdat any

$_ZN11xercesc_2_730ArrayIndexOutOfBoundsExceptionD2Ev = comdat any

$_ZN11xercesc_2_730ArrayIndexOutOfBoundsExceptionD0Ev = comdat any

$_ZNK11xercesc_2_730ArrayIndexOutOfBoundsException7getTypeEv = comdat any

$_ZNK11xercesc_2_730ArrayIndexOutOfBoundsException9duplicateEv = comdat any

$_ZN11xercesc_2_730ArrayIndexOutOfBoundsExceptionC2ERKS0_ = comdat any

$_ZTVN11xercesc_2_710XMLRefInfoE = comdat any

$_ZTVN11xercesc_2_715ContentSpecNodeE = comdat any

$_ZTSN11xercesc_2_716RuntimeExceptionE = comdat any

$_ZTIN11xercesc_2_716RuntimeExceptionE = comdat any

$_ZTSN11xercesc_2_720OutOfMemoryExceptionE = comdat any

$_ZTSN11xercesc_2_77XMemoryE = comdat any

$_ZTIN11xercesc_2_77XMemoryE = comdat any

$_ZTIN11xercesc_2_720OutOfMemoryExceptionE = comdat any

$_ZTSN11xercesc_2_722UnexpectedEOFExceptionE = comdat any

$_ZTIN11xercesc_2_722UnexpectedEOFExceptionE = comdat any

$_ZTSN11xercesc_2_720EndOfEntityExceptionE = comdat any

$_ZTIN11xercesc_2_720EndOfEntityExceptionE = comdat any

$_ZTSN11xercesc_2_77XMLErrs5CodesE = comdat any

$_ZTIN11xercesc_2_77XMLErrs5CodesE = comdat any

$_ZTVN11xercesc_2_710XMLDeleterE = comdat any

$_ZTSN11xercesc_2_710XMLDeleterE = comdat any

$_ZTIN11xercesc_2_710XMLDeleterE = comdat any

$_ZTSN11xercesc_2_710XMLRefInfoE = comdat any

$_ZTSN11xercesc_2_713XSerializableE = comdat any

$_ZTIN11xercesc_2_713XSerializableE = comdat any

$_ZTIN11xercesc_2_710XMLRefInfoE = comdat any

$_ZTVN11xercesc_2_713DTDEntityDeclE = comdat any

$_ZTSN11xercesc_2_713DTDEntityDeclE = comdat any

$_ZTIN11xercesc_2_713DTDEntityDeclE = comdat any

$_ZTVN11xercesc_2_713XMLAttDefListE = comdat any

$_ZTSN11xercesc_2_713XMLAttDefListE = comdat any

$_ZTIN11xercesc_2_713XMLAttDefListE = comdat any

$_ZTSN11xercesc_2_715ContentSpecNodeE = comdat any

$_ZTIN11xercesc_2_715ContentSpecNodeE = comdat any

$_ZTVN11xercesc_2_716RuntimeExceptionE = comdat any

$_ZTVN11xercesc_2_722UnexpectedEOFExceptionE = comdat any

$_ZTVN11xercesc_2_713XSerializableE = comdat any

$_ZTSN11xercesc_2_724IllegalArgumentExceptionE = comdat any

$_ZTIN11xercesc_2_724IllegalArgumentExceptionE = comdat any

$_ZTVN11xercesc_2_724IllegalArgumentExceptionE = comdat any

$_ZTSN11xercesc_2_730ArrayIndexOutOfBoundsExceptionE = comdat any

$_ZTIN11xercesc_2_730ArrayIndexOutOfBoundsExceptionE = comdat any

$_ZTVN11xercesc_2_730ArrayIndexOutOfBoundsExceptionE = comdat any

@_ZTVN11xercesc_2_710XMLRefInfoE = linkonce_odr dso_local unnamed_addr constant { [7 x i8*] } { [7 x i8*] [i8* null, i8* bitcast ({ i8*, i8*, i32, i32, i8*, i64, i8*, i64 }* @_ZTIN11xercesc_2_710XMLRefInfoE to i8*), i8* bitcast (void (%"class.xercesc_2_7::XMLRefInfo"*)* @_ZN11xercesc_2_710XMLRefInfoD2Ev to i8*), i8* bitcast (void (%"class.xercesc_2_7::XMLRefInfo"*)* @_ZN11xercesc_2_710XMLRefInfoD0Ev to i8*), i8* bitcast (i1 (%"class.xercesc_2_7::XMLRefInfo"*)* @_ZNK11xercesc_2_710XMLRefInfo14isSerializableEv to i8*), i8* bitcast (void (%"class.xercesc_2_7::XMLRefInfo"*, %"class.xercesc_2_7::XSerializeEngine"*)* @_ZN11xercesc_2_710XMLRefInfo9serializeERNS_16XSerializeEngineE to i8*), i8* bitcast (%"class.xercesc_2_7::XProtoType"* (%"class.xercesc_2_7::XMLRefInfo"*)* @_ZNK11xercesc_2_710XMLRefInfo12getProtoTypeEv to i8*)] }, comdat, align 8
@_ZTVN11xercesc_2_715ContentSpecNodeE = linkonce_odr dso_local unnamed_addr constant { [7 x i8*] } { [7 x i8*] [i8* null, i8* bitcast ({ i8*, i8*, i32, i32, i8*, i64, i8*, i64 }* @_ZTIN11xercesc_2_715ContentSpecNodeE to i8*), i8* bitcast (void (%"class.xercesc_2_7::ContentSpecNode"*)* @_ZN11xercesc_2_715ContentSpecNodeD2Ev to i8*), i8* bitcast (void (%"class.xercesc_2_7::ContentSpecNode"*)* @_ZN11xercesc_2_715ContentSpecNodeD0Ev to i8*), i8* bitcast (i1 (%"class.xercesc_2_7::ContentSpecNode"*)* @_ZNK11xercesc_2_715ContentSpecNode14isSerializableEv to i8*), i8* bitcast (void (%"class.xercesc_2_7::ContentSpecNode"*, %"class.xercesc_2_7::XSerializeEngine"*)* @_ZN11xercesc_2_715ContentSpecNode9serializeERNS_16XSerializeEngineE to i8*), i8* bitcast (%"class.xercesc_2_7::XProtoType"* (%"class.xercesc_2_7::ContentSpecNode"*)* @_ZNK11xercesc_2_715ContentSpecNode12getProtoTypeEv to i8*)] }, comdat, align 8
@_ZTVN11xercesc_2_710DTDScannerE = dso_local unnamed_addr constant { [4 x i8*] } { [4 x i8*] [i8* null, i8* bitcast ({ i8*, i8*, i8* }* @_ZTIN11xercesc_2_710DTDScannerE to i8*), i8* bitcast (void (%"class.xercesc_2_7::DTDScanner"*)* @_ZN11xercesc_2_710DTDScannerD1Ev to i8*), i8* bitcast (void (%"class.xercesc_2_7::DTDScanner"*)* @_ZN11xercesc_2_710DTDScannerD0Ev to i8*)] }, align 8
@.str = private unnamed_addr constant [15 x i8] c"DTDScanner.cpp\00", align 1
@_ZTVN10__cxxabiv120__si_class_type_infoE = external dso_local global i8*
@_ZTSN11xercesc_2_716RuntimeExceptionE = linkonce_odr dso_local constant [34 x i8] c"N11xercesc_2_716RuntimeExceptionE\00", comdat, align 1
@_ZTIN11xercesc_2_712XMLExceptionE = external dso_local constant i8*
@_ZTIN11xercesc_2_716RuntimeExceptionE = linkonce_odr dso_local constant { i8*, i8*, i8* } { i8* bitcast (i8** getelementptr inbounds (i8*, i8** @_ZTVN10__cxxabiv120__si_class_type_infoE, i64 2) to i8*), i8* getelementptr inbounds ([34 x i8], [34 x i8]* @_ZTSN11xercesc_2_716RuntimeExceptionE, i32 0, i32 0), i8* bitcast (i8** @_ZTIN11xercesc_2_712XMLExceptionE to i8*) }, comdat, align 8
@_ZTSN11xercesc_2_720OutOfMemoryExceptionE = linkonce_odr dso_local constant [38 x i8] c"N11xercesc_2_720OutOfMemoryExceptionE\00", comdat, align 1
@_ZTVN10__cxxabiv117__class_type_infoE = external dso_local global i8*
@_ZTSN11xercesc_2_77XMemoryE = linkonce_odr dso_local constant [24 x i8] c"N11xercesc_2_77XMemoryE\00", comdat, align 1
@_ZTIN11xercesc_2_77XMemoryE = linkonce_odr dso_local constant { i8*, i8* } { i8* bitcast (i8** getelementptr inbounds (i8*, i8** @_ZTVN10__cxxabiv117__class_type_infoE, i64 2) to i8*), i8* getelementptr inbounds ([24 x i8], [24 x i8]* @_ZTSN11xercesc_2_77XMemoryE, i32 0, i32 0) }, comdat, align 8
@_ZTIN11xercesc_2_720OutOfMemoryExceptionE = linkonce_odr dso_local constant { i8*, i8*, i8* } { i8* bitcast (i8** getelementptr inbounds (i8*, i8** @_ZTVN10__cxxabiv120__si_class_type_infoE, i64 2) to i8*), i8* getelementptr inbounds ([38 x i8], [38 x i8]* @_ZTSN11xercesc_2_720OutOfMemoryExceptionE, i32 0, i32 0), i8* bitcast ({ i8*, i8* }* @_ZTIN11xercesc_2_77XMemoryE to i8*) }, comdat, align 8
@_ZN11xercesc_2_76XMLUni13fgCDATAStringE = external dso_local constant [0 x i16], align 2
@_ZN11xercesc_2_76XMLUni10fgIDStringE = external dso_local constant [0 x i16], align 2
@_ZN11xercesc_2_76XMLUni11fgRefStringE = external dso_local constant [0 x i16], align 2
@_ZN11xercesc_2_76XMLUni13fgEntitStringE = external dso_local constant [0 x i16], align 2
@_ZN11xercesc_2_76XMLUni11fgIESStringE = external dso_local constant [0 x i16], align 2
@_ZN11xercesc_2_76XMLUni15fgNmTokenStringE = external dso_local constant [0 x i16], align 2
@_ZN11xercesc_2_76XMLUni16fgNotationStringE = external dso_local constant [0 x i16], align 2
@__const._ZN11xercesc_2_710DTDScanner10scanAttDefERNS_14DTDElementDeclERNS_9XMLBufferE.fgXMLSpace = private unnamed_addr constant [10 x i16] [i16 120, i16 109, i16 108, i16 58, i16 115, i16 112, i16 97, i16 99, i16 101, i16 0], align 16
@__const._ZN11xercesc_2_710DTDScanner10scanAttDefERNS_14DTDElementDeclERNS_9XMLBufferE.fgPreserve = private unnamed_addr constant [9 x i16] [i16 112, i16 114, i16 101, i16 115, i16 101, i16 114, i16 118, i16 101, i16 0], align 16
@__const._ZN11xercesc_2_710DTDScanner10scanAttDefERNS_14DTDElementDeclERNS_9XMLBufferE.fgDefault = private unnamed_addr constant [8 x i16] [i16 100, i16 101, i16 102, i16 97, i16 117, i16 108, i16 116, i16 0], align 16
@_ZTSN11xercesc_2_722UnexpectedEOFExceptionE = linkonce_odr dso_local constant [40 x i8] c"N11xercesc_2_722UnexpectedEOFExceptionE\00", comdat, align 1
@_ZTIN11xercesc_2_722UnexpectedEOFExceptionE = linkonce_odr dso_local constant { i8*, i8*, i8* } { i8* bitcast (i8** getelementptr inbounds (i8*, i8** @_ZTVN10__cxxabiv120__si_class_type_infoE, i64 2) to i8*), i8* getelementptr inbounds ([40 x i8], [40 x i8]* @_ZTSN11xercesc_2_722UnexpectedEOFExceptionE, i32 0, i32 0), i8* bitcast (i8** @_ZTIN11xercesc_2_712XMLExceptionE to i8*) }, comdat, align 8
@_ZTSN11xercesc_2_720EndOfEntityExceptionE = linkonce_odr dso_local constant [38 x i8] c"N11xercesc_2_720EndOfEntityExceptionE\00", comdat, align 1
@_ZTIN11xercesc_2_720EndOfEntityExceptionE = linkonce_odr dso_local constant { i8*, i8* } { i8* bitcast (i8** getelementptr inbounds (i8*, i8** @_ZTVN10__cxxabiv117__class_type_infoE, i64 2) to i8*), i8* getelementptr inbounds ([38 x i8], [38 x i8]* @_ZTSN11xercesc_2_720EndOfEntityExceptionE, i32 0, i32 0) }, comdat, align 8
@_ZTVN10__cxxabiv116__enum_type_infoE = external dso_local global i8*
@_ZTSN11xercesc_2_77XMLErrs5CodesE = linkonce_odr dso_local constant [30 x i8] c"N11xercesc_2_77XMLErrs5CodesE\00", comdat, align 1
@_ZTIN11xercesc_2_77XMLErrs5CodesE = linkonce_odr dso_local constant { i8*, i8* } { i8* bitcast (i8** getelementptr inbounds (i8*, i8** @_ZTVN10__cxxabiv116__enum_type_infoE, i64 2) to i8*), i8* getelementptr inbounds ([30 x i8], [30 x i8]* @_ZTSN11xercesc_2_77XMLErrs5CodesE, i32 0, i32 0) }, comdat, align 8
@_ZN11xercesc_2_76XMLUni13fgEmptyStringE = external dso_local constant [0 x i16], align 2
@_ZN11xercesc_2_76XMLUni11fgAnyStringE = external dso_local constant [0 x i16], align 2
@_ZN11xercesc_2_76XMLUni14fgPCDATAStringE = external dso_local constant [0 x i16], align 2
@_ZN11xercesc_2_76XMLUni16fgRequiredStringE = external dso_local constant [0 x i16], align 2
@_ZN11xercesc_2_76XMLUni15fgImpliedStringE = external dso_local constant [0 x i16], align 2
@_ZN11xercesc_2_76XMLUni13fgFixedStringE = external dso_local constant [0 x i16], align 2
@_ZN11xercesc_2_76XMLUni13fgNDATAStringE = external dso_local constant [0 x i16], align 2
@_ZZN11xercesc_2_710DTDScanner17scanExtSubsetDeclEbbE6toSkip = internal constant [4 x i16] [i16 37, i16 93, i16 60, i16 0], align 2, !dbg !0
@_ZN11xercesc_2_76XMLUni13fgSysIDStringE = external dso_local constant [0 x i16], align 2
@_ZN11xercesc_2_76XMLUni13fgPubIDStringE = external dso_local constant [0 x i16], align 2
@_ZZN11xercesc_2_710DTDScanner18scanInternalSubsetEvE6toSkip = internal constant [4 x i16] [i16 37, i16 93, i16 60, i16 0], align 2, !dbg !2220
@_ZN11xercesc_2_76XMLUni15fgIncludeStringE = external dso_local constant [0 x i16], align 2
@_ZN11xercesc_2_76XMLUni14fgIgnoreStringE = external dso_local constant [0 x i16], align 2
@_ZN11xercesc_2_76XMLUni15fgAttListStringE = external dso_local constant [0 x i16], align 2
@_ZN11xercesc_2_76XMLUni12fgElemStringE = external dso_local constant [0 x i16], align 2
@_ZN11xercesc_2_76XMLUni14fgEntityStringE = external dso_local constant [0 x i16], align 2
@_ZN11xercesc_2_76XMLUni15fgZeroLenStringE = external dso_local constant [0 x i16], align 2
@_ZN11xercesc_2_714XMLElementDecl14fgPCDataElemIdE = external dso_local constant i32, align 4
@_ZN11xercesc_2_76XMLUni15fgVersionStringE = external dso_local constant [0 x i16], align 2
@_ZN11xercesc_2_76XMLUni12fgVersion1_1E = external dso_local constant [0 x i16], align 2
@_ZN11xercesc_2_76XMLUni12fgVersion1_0E = external dso_local constant [0 x i16], align 2
@_ZN11xercesc_2_76XMLUni16fgEncodingStringE = external dso_local constant [0 x i16], align 2
@_ZTVN11xercesc_2_710XMLDeleterE = linkonce_odr dso_local unnamed_addr constant { [4 x i8*] } { [4 x i8*] [i8* null, i8* bitcast ({ i8*, i8* }* @_ZTIN11xercesc_2_710XMLDeleterE to i8*), i8* bitcast (void (%"class.xercesc_2_7::XMLDeleter"*)* @_ZN11xercesc_2_710XMLDeleterD2Ev to i8*), i8* bitcast (void (%"class.xercesc_2_7::XMLDeleter"*)* @_ZN11xercesc_2_710XMLDeleterD0Ev to i8*)] }, comdat, align 8
@_ZTSN11xercesc_2_710XMLDeleterE = linkonce_odr dso_local constant [28 x i8] c"N11xercesc_2_710XMLDeleterE\00", comdat, align 1
@_ZTIN11xercesc_2_710XMLDeleterE = linkonce_odr dso_local constant { i8*, i8* } { i8* bitcast (i8** getelementptr inbounds (i8*, i8** @_ZTVN10__cxxabiv117__class_type_infoE, i64 2) to i8*), i8* getelementptr inbounds ([28 x i8], [28 x i8]* @_ZTSN11xercesc_2_710XMLDeleterE, i32 0, i32 0) }, comdat, align 8
@_ZTVN10__cxxabiv121__vmi_class_type_infoE = external dso_local global i8*
@_ZTSN11xercesc_2_710XMLRefInfoE = linkonce_odr dso_local constant [28 x i8] c"N11xercesc_2_710XMLRefInfoE\00", comdat, align 1
@_ZTSN11xercesc_2_713XSerializableE = linkonce_odr dso_local constant [31 x i8] c"N11xercesc_2_713XSerializableE\00", comdat, align 1
@_ZTIN11xercesc_2_713XSerializableE = linkonce_odr dso_local constant { i8*, i8* } { i8* bitcast (i8** getelementptr inbounds (i8*, i8** @_ZTVN10__cxxabiv117__class_type_infoE, i64 2) to i8*), i8* getelementptr inbounds ([31 x i8], [31 x i8]* @_ZTSN11xercesc_2_713XSerializableE, i32 0, i32 0) }, comdat, align 8
@_ZTIN11xercesc_2_710XMLRefInfoE = linkonce_odr dso_local constant { i8*, i8*, i32, i32, i8*, i64, i8*, i64 } { i8* bitcast (i8** getelementptr inbounds (i8*, i8** @_ZTVN10__cxxabiv121__vmi_class_type_infoE, i64 2) to i8*), i8* getelementptr inbounds ([28 x i8], [28 x i8]* @_ZTSN11xercesc_2_710XMLRefInfoE, i32 0, i32 0), i32 0, i32 2, i8* bitcast ({ i8*, i8* }* @_ZTIN11xercesc_2_713XSerializableE to i8*), i64 2, i8* bitcast ({ i8*, i8* }* @_ZTIN11xercesc_2_77XMemoryE to i8*), i64 2 }, comdat, align 8
@_ZTVN11xercesc_2_713DTDEntityDeclE = linkonce_odr dso_local unnamed_addr constant { [10 x i8*] } { [10 x i8*] [i8* null, i8* bitcast ({ i8*, i8*, i8* }* @_ZTIN11xercesc_2_713DTDEntityDeclE to i8*), i8* bitcast (void (%"class.xercesc_2_7::DTDEntityDecl"*)* @_ZN11xercesc_2_713DTDEntityDeclD2Ev to i8*), i8* bitcast (void (%"class.xercesc_2_7::DTDEntityDecl"*)* @_ZN11xercesc_2_713DTDEntityDeclD0Ev to i8*), i8* bitcast (i1 (%"class.xercesc_2_7::DTDEntityDecl"*)* @_ZNK11xercesc_2_713DTDEntityDecl14isSerializableEv to i8*), i8* bitcast (void (%"class.xercesc_2_7::DTDEntityDecl"*, %"class.xercesc_2_7::XSerializeEngine"*)* @_ZN11xercesc_2_713DTDEntityDecl9serializeERNS_16XSerializeEngineE to i8*), i8* bitcast (%"class.xercesc_2_7::XProtoType"* (%"class.xercesc_2_7::DTDEntityDecl"*)* @_ZNK11xercesc_2_713DTDEntityDecl12getProtoTypeEv to i8*), i8* bitcast (i1 (%"class.xercesc_2_7::DTDEntityDecl"*)* @_ZNK11xercesc_2_713DTDEntityDecl22getDeclaredInIntSubsetEv to i8*), i8* bitcast (i1 (%"class.xercesc_2_7::DTDEntityDecl"*)* @_ZNK11xercesc_2_713DTDEntityDecl14getIsParameterEv to i8*), i8* bitcast (i1 (%"class.xercesc_2_7::DTDEntityDecl"*)* @_ZNK11xercesc_2_713DTDEntityDecl16getIsSpecialCharEv to i8*)] }, comdat, align 8
@_ZTSN11xercesc_2_713DTDEntityDeclE = linkonce_odr dso_local constant [31 x i8] c"N11xercesc_2_713DTDEntityDeclE\00", comdat, align 1
@_ZTIN11xercesc_2_713XMLEntityDeclE = external dso_local constant i8*
@_ZTIN11xercesc_2_713DTDEntityDeclE = linkonce_odr dso_local constant { i8*, i8*, i8* } { i8* bitcast (i8** getelementptr inbounds (i8*, i8** @_ZTVN10__cxxabiv120__si_class_type_infoE, i64 2) to i8*), i8* getelementptr inbounds ([31 x i8], [31 x i8]* @_ZTSN11xercesc_2_713DTDEntityDeclE, i32 0, i32 0), i8* bitcast (i8** @_ZTIN11xercesc_2_713XMLEntityDeclE to i8*) }, comdat, align 8
@_ZTVN11xercesc_2_713XMLAttDefListE = linkonce_odr dso_local unnamed_addr constant { [18 x i8*] } { [18 x i8*] [i8* null, i8* bitcast ({ i8*, i8*, i32, i32, i8*, i64, i8*, i64 }* @_ZTIN11xercesc_2_713XMLAttDefListE to i8*), i8* bitcast (void (%"class.xercesc_2_7::XMLAttDefList"*)* @_ZN11xercesc_2_713XMLAttDefListD2Ev to i8*), i8* bitcast (void (%"class.xercesc_2_7::XMLAttDefList"*)* @_ZN11xercesc_2_713XMLAttDefListD0Ev to i8*), i8* bitcast (i1 (%"class.xercesc_2_7::XMLAttDefList"*)* @_ZNK11xercesc_2_713XMLAttDefList14isSerializableEv to i8*), i8* bitcast (void (%"class.xercesc_2_7::XMLAttDefList"*, %"class.xercesc_2_7::XSerializeEngine"*)* @_ZN11xercesc_2_713XMLAttDefList9serializeERNS_16XSerializeEngineE to i8*), i8* bitcast (%"class.xercesc_2_7::XProtoType"* (%"class.xercesc_2_7::XMLAttDefList"*)* @_ZNK11xercesc_2_713XMLAttDefList12getProtoTypeEv to i8*), i8* bitcast (void ()* @__cxa_pure_virtual to i8*), i8* bitcast (void ()* @__cxa_pure_virtual to i8*), i8* bitcast (void ()* @__cxa_pure_virtual to i8*), i8* bitcast (void ()* @__cxa_pure_virtual to i8*), i8* bitcast (void ()* @__cxa_pure_virtual to i8*), i8* bitcast (void ()* @__cxa_pure_virtual to i8*), i8* bitcast (void ()* @__cxa_pure_virtual to i8*), i8* bitcast (void ()* @__cxa_pure_virtual to i8*), i8* bitcast (void ()* @__cxa_pure_virtual to i8*), i8* bitcast (void ()* @__cxa_pure_virtual to i8*), i8* bitcast (void ()* @__cxa_pure_virtual to i8*)] }, comdat, align 8
@_ZTSN11xercesc_2_713XMLAttDefListE = linkonce_odr dso_local constant [31 x i8] c"N11xercesc_2_713XMLAttDefListE\00", comdat, align 1
@_ZTIN11xercesc_2_713XMLAttDefListE = linkonce_odr dso_local constant { i8*, i8*, i32, i32, i8*, i64, i8*, i64 } { i8* bitcast (i8** getelementptr inbounds (i8*, i8** @_ZTVN10__cxxabiv121__vmi_class_type_infoE, i64 2) to i8*), i8* getelementptr inbounds ([31 x i8], [31 x i8]* @_ZTSN11xercesc_2_713XMLAttDefListE, i32 0, i32 0), i32 0, i32 2, i8* bitcast ({ i8*, i8* }* @_ZTIN11xercesc_2_713XSerializableE to i8*), i64 2, i8* bitcast ({ i8*, i8* }* @_ZTIN11xercesc_2_77XMemoryE to i8*), i64 2 }, comdat, align 8
@_ZTSN11xercesc_2_715ContentSpecNodeE = linkonce_odr dso_local constant [33 x i8] c"N11xercesc_2_715ContentSpecNodeE\00", comdat, align 1
@_ZTIN11xercesc_2_715ContentSpecNodeE = linkonce_odr dso_local constant { i8*, i8*, i32, i32, i8*, i64, i8*, i64 } { i8* bitcast (i8** getelementptr inbounds (i8*, i8** @_ZTVN10__cxxabiv121__vmi_class_type_infoE, i64 2) to i8*), i8* getelementptr inbounds ([33 x i8], [33 x i8]* @_ZTSN11xercesc_2_715ContentSpecNodeE, i32 0, i32 0), i32 0, i32 2, i8* bitcast ({ i8*, i8* }* @_ZTIN11xercesc_2_713XSerializableE to i8*), i64 2, i8* bitcast ({ i8*, i8* }* @_ZTIN11xercesc_2_77XMemoryE to i8*), i64 2 }, comdat, align 8
@_ZTSN11xercesc_2_710DTDScannerE = dso_local constant [28 x i8] c"N11xercesc_2_710DTDScannerE\00", align 1
@_ZTIN11xercesc_2_710DTDScannerE = dso_local constant { i8*, i8*, i8* } { i8* bitcast (i8** getelementptr inbounds (i8*, i8** @_ZTVN10__cxxabiv120__si_class_type_infoE, i64 2) to i8*), i8* getelementptr inbounds ([28 x i8], [28 x i8]* @_ZTSN11xercesc_2_710DTDScannerE, i32 0, i32 0), i8* bitcast ({ i8*, i8* }* @_ZTIN11xercesc_2_77XMemoryE to i8*) }, align 8
@_ZTVN11xercesc_2_716RuntimeExceptionE = linkonce_odr dso_local unnamed_addr constant { [6 x i8*] } { [6 x i8*] [i8* null, i8* bitcast ({ i8*, i8*, i8* }* @_ZTIN11xercesc_2_716RuntimeExceptionE to i8*), i8* bitcast (void (%"class.xercesc_2_7::RuntimeException"*)* @_ZN11xercesc_2_716RuntimeExceptionD2Ev to i8*), i8* bitcast (void (%"class.xercesc_2_7::RuntimeException"*)* @_ZN11xercesc_2_716RuntimeExceptionD0Ev to i8*), i8* bitcast (i16* (%"class.xercesc_2_7::RuntimeException"*)* @_ZNK11xercesc_2_716RuntimeException7getTypeEv to i8*), i8* bitcast (%"class.xercesc_2_7::XMLException"* (%"class.xercesc_2_7::RuntimeException"*)* @_ZNK11xercesc_2_716RuntimeException9duplicateEv to i8*)] }, comdat, align 8
@_ZN11xercesc_2_76XMLUni23fgRuntimeException_NameE = external dso_local constant [0 x i16], align 2
@_ZTVN11xercesc_2_722UnexpectedEOFExceptionE = linkonce_odr dso_local unnamed_addr constant { [6 x i8*] } { [6 x i8*] [i8* null, i8* bitcast ({ i8*, i8*, i8* }* @_ZTIN11xercesc_2_722UnexpectedEOFExceptionE to i8*), i8* bitcast (void (%"class.xercesc_2_7::UnexpectedEOFException"*)* @_ZN11xercesc_2_722UnexpectedEOFExceptionD2Ev to i8*), i8* bitcast (void (%"class.xercesc_2_7::UnexpectedEOFException"*)* @_ZN11xercesc_2_722UnexpectedEOFExceptionD0Ev to i8*), i8* bitcast (i16* (%"class.xercesc_2_7::UnexpectedEOFException"*)* @_ZNK11xercesc_2_722UnexpectedEOFException7getTypeEv to i8*), i8* bitcast (%"class.xercesc_2_7::XMLException"* (%"class.xercesc_2_7::UnexpectedEOFException"*)* @_ZNK11xercesc_2_722UnexpectedEOFException9duplicateEv to i8*)] }, comdat, align 8
@_ZN11xercesc_2_76XMLUni29fgUnexpectedEOFException_NameE = external dso_local constant [0 x i16], align 2
@_ZTVN11xercesc_2_713XSerializableE = linkonce_odr dso_local unnamed_addr constant { [7 x i8*] } { [7 x i8*] [i8* null, i8* bitcast ({ i8*, i8* }* @_ZTIN11xercesc_2_713XSerializableE to i8*), i8* bitcast (void (%"class.xercesc_2_7::XSerializable"*)* @_ZN11xercesc_2_713XSerializableD2Ev to i8*), i8* bitcast (void (%"class.xercesc_2_7::XSerializable"*)* @_ZN11xercesc_2_713XSerializableD0Ev to i8*), i8* bitcast (void ()* @__cxa_pure_virtual to i8*), i8* bitcast (void ()* @__cxa_pure_virtual to i8*), i8* bitcast (void ()* @__cxa_pure_virtual to i8*)] }, comdat, align 8
@_ZN11xercesc_2_710DTDGrammar16fDefaultEntitiesE = external dso_local global %"class.xercesc_2_7::NameIdPool.0"*, align 8
@.str.1 = private unnamed_addr constant [28 x i8] c"./xercesc/util/NameIdPool.c\00", align 1
@_ZTSN11xercesc_2_724IllegalArgumentExceptionE = linkonce_odr dso_local constant [42 x i8] c"N11xercesc_2_724IllegalArgumentExceptionE\00", comdat, align 1
@_ZTIN11xercesc_2_724IllegalArgumentExceptionE = linkonce_odr dso_local constant { i8*, i8*, i8* } { i8* bitcast (i8** getelementptr inbounds (i8*, i8** @_ZTVN10__cxxabiv120__si_class_type_infoE, i64 2) to i8*), i8* getelementptr inbounds ([42 x i8], [42 x i8]* @_ZTSN11xercesc_2_724IllegalArgumentExceptionE, i32 0, i32 0), i8* bitcast (i8** @_ZTIN11xercesc_2_712XMLExceptionE to i8*) }, comdat, align 8
@_ZTVN11xercesc_2_724IllegalArgumentExceptionE = linkonce_odr dso_local unnamed_addr constant { [6 x i8*] } { [6 x i8*] [i8* null, i8* bitcast ({ i8*, i8*, i8* }* @_ZTIN11xercesc_2_724IllegalArgumentExceptionE to i8*), i8* bitcast (void (%"class.xercesc_2_7::IllegalArgumentException"*)* @_ZN11xercesc_2_724IllegalArgumentExceptionD2Ev to i8*), i8* bitcast (void (%"class.xercesc_2_7::IllegalArgumentException"*)* @_ZN11xercesc_2_724IllegalArgumentExceptionD0Ev to i8*), i8* bitcast (i16* (%"class.xercesc_2_7::IllegalArgumentException"*)* @_ZNK11xercesc_2_724IllegalArgumentException7getTypeEv to i8*), i8* bitcast (%"class.xercesc_2_7::XMLException"* (%"class.xercesc_2_7::IllegalArgumentException"*)* @_ZNK11xercesc_2_724IllegalArgumentException9duplicateEv to i8*)] }, comdat, align 8
@_ZN11xercesc_2_76XMLUni31fgIllegalArgumentException_NameE = external dso_local constant [0 x i16], align 2
@.str.2 = private unnamed_addr constant [33 x i8] c"./xercesc/util/BaseRefVectorOf.c\00", align 1
@_ZTSN11xercesc_2_730ArrayIndexOutOfBoundsExceptionE = linkonce_odr dso_local constant [48 x i8] c"N11xercesc_2_730ArrayIndexOutOfBoundsExceptionE\00", comdat, align 1
@_ZTIN11xercesc_2_730ArrayIndexOutOfBoundsExceptionE = linkonce_odr dso_local constant { i8*, i8*, i8* } { i8* bitcast (i8** getelementptr inbounds (i8*, i8** @_ZTVN10__cxxabiv120__si_class_type_infoE, i64 2) to i8*), i8* getelementptr inbounds ([48 x i8], [48 x i8]* @_ZTSN11xercesc_2_730ArrayIndexOutOfBoundsExceptionE, i32 0, i32 0), i8* bitcast (i8** @_ZTIN11xercesc_2_712XMLExceptionE to i8*) }, comdat, align 8
@_ZTVN11xercesc_2_730ArrayIndexOutOfBoundsExceptionE = linkonce_odr dso_local unnamed_addr constant { [6 x i8*] } { [6 x i8*] [i8* null, i8* bitcast ({ i8*, i8*, i8* }* @_ZTIN11xercesc_2_730ArrayIndexOutOfBoundsExceptionE to i8*), i8* bitcast (void (%"class.xercesc_2_7::ArrayIndexOutOfBoundsException"*)* @_ZN11xercesc_2_730ArrayIndexOutOfBoundsExceptionD2Ev to i8*), i8* bitcast (void (%"class.xercesc_2_7::ArrayIndexOutOfBoundsException"*)* @_ZN11xercesc_2_730ArrayIndexOutOfBoundsExceptionD0Ev to i8*), i8* bitcast (i16* (%"class.xercesc_2_7::ArrayIndexOutOfBoundsException"*)* @_ZNK11xercesc_2_730ArrayIndexOutOfBoundsException7getTypeEv to i8*), i8* bitcast (%"class.xercesc_2_7::XMLException"* (%"class.xercesc_2_7::ArrayIndexOutOfBoundsException"*)* @_ZNK11xercesc_2_730ArrayIndexOutOfBoundsException9duplicateEv to i8*)] }, comdat, align 8
@_ZN11xercesc_2_76XMLUni37fgArrayIndexOutOfBoundsException_NameE = external dso_local constant [0 x i16], align 2

@_ZN11xercesc_2_710DTDScannerC1EPNS_10DTDGrammarEPNS_14DocTypeHandlerEPNS_13MemoryManagerES6_ = dso_local unnamed_addr alias void (%"class.xercesc_2_7::DTDScanner"*, %"class.xercesc_2_7::DTDGrammar"*, %"class.xercesc_2_7::DocTypeHandler"*, %"class.xercesc_2_7::MemoryManager"*, %"class.xercesc_2_7::MemoryManager"*), void (%"class.xercesc_2_7::DTDScanner"*, %"class.xercesc_2_7::DTDGrammar"*, %"class.xercesc_2_7::DocTypeHandler"*, %"class.xercesc_2_7::MemoryManager"*, %"class.xercesc_2_7::MemoryManager"*)* @_ZN11xercesc_2_710DTDScannerC2EPNS_10DTDGrammarEPNS_14DocTypeHandlerEPNS_13MemoryManagerES6_
@_ZN11xercesc_2_710DTDScannerD1Ev = dso_local unnamed_addr alias void (%"class.xercesc_2_7::DTDScanner"*), void (%"class.xercesc_2_7::DTDScanner"*)* @_ZN11xercesc_2_710DTDScannerD2Ev

; Function Attrs: nounwind readnone speculatable willreturn
declare void @llvm.dbg.declare(metadata, metadata, metadata) #0

; Function Attrs: noinline nounwind uwtable
define linkonce_odr dso_local void @_ZN11xercesc_2_710XMLDeleterD0Ev(%"class.xercesc_2_7::XMLDeleter"* %this) unnamed_addr #1 comdat align 2 !dbg !2620 {
entry:
  %this.addr = alloca %"class.xercesc_2_7::XMLDeleter"*, align 8
  store %"class.xercesc_2_7::XMLDeleter"* %this, %"class.xercesc_2_7::XMLDeleter"** %this.addr, align 8
  call void @llvm.dbg.declare(metadata %"class.xercesc_2_7::XMLDeleter"** %this.addr, metadata !2639, metadata !DIExpression()), !dbg !2641
  %this1 = load %"class.xercesc_2_7::XMLDeleter"*, %"class.xercesc_2_7::XMLDeleter"** %this.addr, align 8
  call void @_ZN11xercesc_2_710XMLDeleterD2Ev(%"class.xercesc_2_7::XMLDeleter"* %this1) #10, !dbg !2642
  %0 = bitcast %"class.xercesc_2_7::XMLDeleter"* %this1 to i8*, !dbg !2642
  call void @_ZdlPv(i8* %0) #11, !dbg !2642
  ret void, !dbg !2643
}

; Function Attrs: noinline nounwind uwtable
define linkonce_odr dso_local void @_ZN11xercesc_2_710XMLDeleterD2Ev(%"class.xercesc_2_7::XMLDeleter"* %this) unnamed_addr #1 comdat align 2 !dbg !2644 {
entry:
  %this.addr = alloca %"class.xercesc_2_7::XMLDeleter"*, align 8
  store %"class.xercesc_2_7::XMLDeleter"* %this, %"class.xercesc_2_7::XMLDeleter"** %this.addr, align 8
  call void @llvm.dbg.declare(metadata %"class.xercesc_2_7::XMLDeleter"** %this.addr, metadata !2645, metadata !DIExpression()), !dbg !2646
  %this1 = load %"class.xercesc_2_7::XMLDeleter"*, %"class.xercesc_2_7::XMLDeleter"** %this.addr, align 8
  ret void, !dbg !2647
}

; Function Attrs: nobuiltin nounwind
declare dso_local void @_ZdlPv(i8*) #2

declare dso_local i32 @__gxx_personality_v0(...)

; Function Attrs: noinline noreturn nounwind
define linkonce_odr hidden void @__clang_call_terminate(i8* %0) #3 comdat {
  %2 = call i8* @__cxa_begin_catch(i8* %0) #10
  call void @_ZSt9terminatev() #12
  unreachable
}

declare dso_local i8* @__cxa_begin_catch(i8*)

declare dso_local void @_ZSt9terminatev()

; Function Attrs: noinline nounwind uwtable
define linkonce_odr dso_local void @_ZN11xercesc_2_710XMLRefInfoD0Ev(%"class.xercesc_2_7::XMLRefInfo"* %this) unnamed_addr #1 comdat align 2 !dbg !2648 {
entry:
  %this.addr = alloca %"class.xercesc_2_7::XMLRefInfo"*, align 8
  store %"class.xercesc_2_7::XMLRefInfo"* %this, %"class.xercesc_2_7::XMLRefInfo"** %this.addr, align 8
  call void @llvm.dbg.declare(metadata %"class.xercesc_2_7::XMLRefInfo"** %this.addr, metadata !2698, metadata !DIExpression()), !dbg !2700
  %this1 = load %"class.xercesc_2_7::XMLRefInfo"*, %"class.xercesc_2_7::XMLRefInfo"** %this.addr, align 8
  call void @_ZN11xercesc_2_710XMLRefInfoD2Ev(%"class.xercesc_2_7::XMLRefInfo"* %this1) #10, !dbg !2701
  %0 = bitcast %"class.xercesc_2_7::XMLRefInfo"* %this1 to i8*, !dbg !2701
  call void @_ZN11xercesc_2_77XMemorydlEPv(i8* %0) #10, !dbg !2701
  ret void, !dbg !2702
}

; Function Attrs: noinline nounwind uwtable
define linkonce_odr dso_local void @_ZN11xercesc_2_710XMLRefInfoD2Ev(%"class.xercesc_2_7::XMLRefInfo"* %this) unnamed_addr #1 comdat align 2 personality i8* bitcast (i32 (...)* @__gxx_personality_v0 to i8*) !dbg !2703 {
entry:
  %this.addr = alloca %"class.xercesc_2_7::XMLRefInfo"*, align 8
  %exn.slot = alloca i8*
  %ehselector.slot = alloca i32
  store %"class.xercesc_2_7::XMLRefInfo"* %this, %"class.xercesc_2_7::XMLRefInfo"** %this.addr, align 8
  call void @llvm.dbg.declare(metadata %"class.xercesc_2_7::XMLRefInfo"** %this.addr, metadata !2704, metadata !DIExpression()), !dbg !2705
  %this1 = load %"class.xercesc_2_7::XMLRefInfo"*, %"class.xercesc_2_7::XMLRefInfo"** %this.addr, align 8
  %0 = bitcast %"class.xercesc_2_7::XMLRefInfo"* %this1 to i32 (...)***, !dbg !2706
  store i32 (...)** bitcast (i8** getelementptr inbounds ({ [7 x i8*] }, { [7 x i8*] }* @_ZTVN11xercesc_2_710XMLRefInfoE, i32 0, inrange i32 0, i32 2) to i32 (...)**), i32 (...)*** %0, align 8, !dbg !2706
  %fMemoryManager = getelementptr inbounds %"class.xercesc_2_7::XMLRefInfo", %"class.xercesc_2_7::XMLRefInfo"* %this1, i32 0, i32 4, !dbg !2707
  %1 = load %"class.xercesc_2_7::MemoryManager"*, %"class.xercesc_2_7::MemoryManager"** %fMemoryManager, align 8, !dbg !2707
  %fRefName = getelementptr inbounds %"class.xercesc_2_7::XMLRefInfo", %"class.xercesc_2_7::XMLRefInfo"* %this1, i32 0, i32 3, !dbg !2709
  %2 = load i16*, i16** %fRefName, align 8, !dbg !2709
  %3 = bitcast i16* %2 to i8*, !dbg !2709
  %4 = bitcast %"class.xercesc_2_7::MemoryManager"* %1 to void (%"class.xercesc_2_7::MemoryManager"*, i8*)***, !dbg !2710
  %vtable = load void (%"class.xercesc_2_7::MemoryManager"*, i8*)**, void (%"class.xercesc_2_7::MemoryManager"*, i8*)*** %4, align 8, !dbg !2710
  %vfn = getelementptr inbounds void (%"class.xercesc_2_7::MemoryManager"*, i8*)*, void (%"class.xercesc_2_7::MemoryManager"*, i8*)** %vtable, i64 3, !dbg !2710
  %5 = load void (%"class.xercesc_2_7::MemoryManager"*, i8*)*, void (%"class.xercesc_2_7::MemoryManager"*, i8*)** %vfn, align 8, !dbg !2710
  invoke void %5(%"class.xercesc_2_7::MemoryManager"* %1, i8* %3)
          to label %invoke.cont unwind label %lpad, !dbg !2710

invoke.cont:                                      ; preds = %entry
  %6 = bitcast %"class.xercesc_2_7::XMLRefInfo"* %this1 to %"class.xercesc_2_7::XSerializable"*, !dbg !2711
  call void @_ZN11xercesc_2_713XSerializableD2Ev(%"class.xercesc_2_7::XSerializable"* %6) #10, !dbg !2711
  ret void, !dbg !2712

lpad:                                             ; preds = %entry
  %7 = landingpad { i8*, i32 }
          catch i8* null, !dbg !2711
  %8 = extractvalue { i8*, i32 } %7, 0, !dbg !2711
  store i8* %8, i8** %exn.slot, align 8, !dbg !2711
  %9 = extractvalue { i8*, i32 } %7, 1, !dbg !2711
  store i32 %9, i32* %ehselector.slot, align 4, !dbg !2711
  %10 = bitcast %"class.xercesc_2_7::XMLRefInfo"* %this1 to %"class.xercesc_2_7::XSerializable"*, !dbg !2711
  call void @_ZN11xercesc_2_713XSerializableD2Ev(%"class.xercesc_2_7::XSerializable"* %10) #10, !dbg !2711
  br label %terminate.handler, !dbg !2711

terminate.handler:                                ; preds = %lpad
  %exn = load i8*, i8** %exn.slot, align 8, !dbg !2711
  call void @__clang_call_terminate(i8* %exn) #12, !dbg !2711
  unreachable, !dbg !2711
}

; Function Attrs: nounwind
declare dso_local void @_ZN11xercesc_2_77XMemorydlEPv(i8*) #4

; Function Attrs: nounwind
declare dso_local void @_ZN11xercesc_2_713XMLEntityDeclD2Ev(%"class.xercesc_2_7::XMLEntityDecl"*) unnamed_addr #4

; Function Attrs: noinline nounwind uwtable
define linkonce_odr dso_local void @_ZN11xercesc_2_713DTDEntityDeclD0Ev(%"class.xercesc_2_7::DTDEntityDecl"* %this) unnamed_addr #1 comdat align 2 !dbg !2713 {
entry:
  %this.addr = alloca %"class.xercesc_2_7::DTDEntityDecl"*, align 8
  store %"class.xercesc_2_7::DTDEntityDecl"* %this, %"class.xercesc_2_7::DTDEntityDecl"** %this.addr, align 8
  call void @llvm.dbg.declare(metadata %"class.xercesc_2_7::DTDEntityDecl"** %this.addr, metadata !2714, metadata !DIExpression()), !dbg !2715
  %this1 = load %"class.xercesc_2_7::DTDEntityDecl"*, %"class.xercesc_2_7::DTDEntityDecl"** %this.addr, align 8
  call void @_ZN11xercesc_2_713DTDEntityDeclD2Ev(%"class.xercesc_2_7::DTDEntityDecl"* %this1) #10, !dbg !2716
  %0 = bitcast %"class.xercesc_2_7::DTDEntityDecl"* %this1 to i8*, !dbg !2716
  call void @_ZN11xercesc_2_77XMemorydlEPv(i8* %0) #10, !dbg !2716
  ret void, !dbg !2717
}

; Function Attrs: noinline nounwind uwtable
define linkonce_odr dso_local void @_ZN11xercesc_2_713DTDEntityDeclD2Ev(%"class.xercesc_2_7::DTDEntityDecl"* %this) unnamed_addr #1 comdat align 2 !dbg !2718 {
entry:
  %this.addr = alloca %"class.xercesc_2_7::DTDEntityDecl"*, align 8
  store %"class.xercesc_2_7::DTDEntityDecl"* %this, %"class.xercesc_2_7::DTDEntityDecl"** %this.addr, align 8
  call void @llvm.dbg.declare(metadata %"class.xercesc_2_7::DTDEntityDecl"** %this.addr, metadata !2719, metadata !DIExpression()), !dbg !2720
  %this1 = load %"class.xercesc_2_7::DTDEntityDecl"*, %"class.xercesc_2_7::DTDEntityDecl"** %this.addr, align 8
  %0 = bitcast %"class.xercesc_2_7::DTDEntityDecl"* %this1 to %"class.xercesc_2_7::XMLEntityDecl"*, !dbg !2721
  call void @_ZN11xercesc_2_713XMLEntityDeclD2Ev(%"class.xercesc_2_7::XMLEntityDecl"* %0) #10, !dbg !2721
  ret void, !dbg !2723
}

; Function Attrs: noinline nounwind uwtable
define linkonce_odr dso_local void @_ZN11xercesc_2_713XMLAttDefListD0Ev(%"class.xercesc_2_7::XMLAttDefList"* %this) unnamed_addr #1 comdat align 2 !dbg !2724 {
entry:
  %this.addr = alloca %"class.xercesc_2_7::XMLAttDefList"*, align 8
  store %"class.xercesc_2_7::XMLAttDefList"* %this, %"class.xercesc_2_7::XMLAttDefList"** %this.addr, align 8
  call void @llvm.dbg.declare(metadata %"class.xercesc_2_7::XMLAttDefList"** %this.addr, metadata !2793, metadata !DIExpression()), !dbg !2795
  %this1 = load %"class.xercesc_2_7::XMLAttDefList"*, %"class.xercesc_2_7::XMLAttDefList"** %this.addr, align 8
  call void @llvm.trap() #12, !dbg !2796
  unreachable, !dbg !2796
}

; Function Attrs: cold noreturn nounwind
declare void @llvm.trap() #5

; Function Attrs: noinline nounwind uwtable
define linkonce_odr dso_local void @_ZN11xercesc_2_715ContentSpecNodeD0Ev(%"class.xercesc_2_7::ContentSpecNode"* %this) unnamed_addr #1 comdat align 2 !dbg !2797 {
entry:
  %this.addr = alloca %"class.xercesc_2_7::ContentSpecNode"*, align 8
  store %"class.xercesc_2_7::ContentSpecNode"* %this, %"class.xercesc_2_7::ContentSpecNode"** %this.addr, align 8
  call void @llvm.dbg.declare(metadata %"class.xercesc_2_7::ContentSpecNode"** %this.addr, metadata !2798, metadata !DIExpression()), !dbg !2799
  %this1 = load %"class.xercesc_2_7::ContentSpecNode"*, %"class.xercesc_2_7::ContentSpecNode"** %this.addr, align 8
  call void @_ZN11xercesc_2_715ContentSpecNodeD2Ev(%"class.xercesc_2_7::ContentSpecNode"* %this1) #10, !dbg !2800
  %0 = bitcast %"class.xercesc_2_7::ContentSpecNode"* %this1 to i8*, !dbg !2800
  call void @_ZN11xercesc_2_77XMemorydlEPv(i8* %0) #10, !dbg !2800
  ret void, !dbg !2801
}

; Function Attrs: noinline nounwind uwtable
define linkonce_odr dso_local void @_ZN11xercesc_2_715ContentSpecNodeD2Ev(%"class.xercesc_2_7::ContentSpecNode"* %this) unnamed_addr #1 comdat align 2 !dbg !2802 {
entry:
  %this.addr = alloca %"class.xercesc_2_7::ContentSpecNode"*, align 8
  store %"class.xercesc_2_7::ContentSpecNode"* %this, %"class.xercesc_2_7::ContentSpecNode"** %this.addr, align 8
  call void @llvm.dbg.declare(metadata %"class.xercesc_2_7::ContentSpecNode"** %this.addr, metadata !2803, metadata !DIExpression()), !dbg !2804
  %this1 = load %"class.xercesc_2_7::ContentSpecNode"*, %"class.xercesc_2_7::ContentSpecNode"** %this.addr, align 8
  %0 = bitcast %"class.xercesc_2_7::ContentSpecNode"* %this1 to i32 (...)***, !dbg !2805
  store i32 (...)** bitcast (i8** getelementptr inbounds ({ [7 x i8*] }, { [7 x i8*] }* @_ZTVN11xercesc_2_715ContentSpecNodeE, i32 0, inrange i32 0, i32 2) to i32 (...)**), i32 (...)*** %0, align 8, !dbg !2805
  %fAdoptFirst = getelementptr inbounds %"class.xercesc_2_7::ContentSpecNode", %"class.xercesc_2_7::ContentSpecNode"* %this1, i32 0, i32 7, !dbg !2806
  %1 = load i8, i8* %fAdoptFirst, align 4, !dbg !2806
  %tobool = trunc i8 %1 to i1, !dbg !2806
  br i1 %tobool, label %if.then, label %if.end, !dbg !2809

if.then:                                          ; preds = %entry
  %fFirst = getelementptr inbounds %"class.xercesc_2_7::ContentSpecNode", %"class.xercesc_2_7::ContentSpecNode"* %this1, i32 0, i32 4, !dbg !2810
  %2 = load %"class.xercesc_2_7::ContentSpecNode"*, %"class.xercesc_2_7::ContentSpecNode"** %fFirst, align 8, !dbg !2810
  %isnull = icmp eq %"class.xercesc_2_7::ContentSpecNode"* %2, null, !dbg !2812
  br i1 %isnull, label %delete.end, label %delete.notnull, !dbg !2812

delete.notnull:                                   ; preds = %if.then
  %3 = bitcast %"class.xercesc_2_7::ContentSpecNode"* %2 to void (%"class.xercesc_2_7::ContentSpecNode"*)***, !dbg !2812
  %vtable = load void (%"class.xercesc_2_7::ContentSpecNode"*)**, void (%"class.xercesc_2_7::ContentSpecNode"*)*** %3, align 8, !dbg !2812
  %vfn = getelementptr inbounds void (%"class.xercesc_2_7::ContentSpecNode"*)*, void (%"class.xercesc_2_7::ContentSpecNode"*)** %vtable, i64 1, !dbg !2812
  %4 = load void (%"class.xercesc_2_7::ContentSpecNode"*)*, void (%"class.xercesc_2_7::ContentSpecNode"*)** %vfn, align 8, !dbg !2812
  call void %4(%"class.xercesc_2_7::ContentSpecNode"* %2) #10, !dbg !2812
  br label %delete.end, !dbg !2812

delete.end:                                       ; preds = %delete.notnull, %if.then
  br label %if.end, !dbg !2813

if.end:                                           ; preds = %delete.end, %entry
  %fAdoptSecond = getelementptr inbounds %"class.xercesc_2_7::ContentSpecNode", %"class.xercesc_2_7::ContentSpecNode"* %this1, i32 0, i32 8, !dbg !2814
  %5 = load i8, i8* %fAdoptSecond, align 1, !dbg !2814
  %tobool2 = trunc i8 %5 to i1, !dbg !2814
  br i1 %tobool2, label %if.then3, label %if.end9, !dbg !2816

if.then3:                                         ; preds = %if.end
  %fSecond = getelementptr inbounds %"class.xercesc_2_7::ContentSpecNode", %"class.xercesc_2_7::ContentSpecNode"* %this1, i32 0, i32 5, !dbg !2817
  %6 = load %"class.xercesc_2_7::ContentSpecNode"*, %"class.xercesc_2_7::ContentSpecNode"** %fSecond, align 8, !dbg !2817
  %isnull4 = icmp eq %"class.xercesc_2_7::ContentSpecNode"* %6, null, !dbg !2819
  br i1 %isnull4, label %delete.end8, label %delete.notnull5, !dbg !2819

delete.notnull5:                                  ; preds = %if.then3
  %7 = bitcast %"class.xercesc_2_7::ContentSpecNode"* %6 to void (%"class.xercesc_2_7::ContentSpecNode"*)***, !dbg !2819
  %vtable6 = load void (%"class.xercesc_2_7::ContentSpecNode"*)**, void (%"class.xercesc_2_7::ContentSpecNode"*)*** %7, align 8, !dbg !2819
  %vfn7 = getelementptr inbounds void (%"class.xercesc_2_7::ContentSpecNode"*)*, void (%"class.xercesc_2_7::ContentSpecNode"*)** %vtable6, i64 1, !dbg !2819
  %8 = load void (%"class.xercesc_2_7::ContentSpecNode"*)*, void (%"class.xercesc_2_7::ContentSpecNode"*)** %vfn7, align 8, !dbg !2819
  call void %8(%"class.xercesc_2_7::ContentSpecNode"* %6) #10, !dbg !2819
  br label %delete.end8, !dbg !2819

delete.end8:                                      ; preds = %delete.notnull5, %if.then3
  br label %if.end9, !dbg !2820

if.end9:                                          ; preds = %delete.end8, %if.end
  %fElement = getelementptr inbounds %"class.xercesc_2_7::ContentSpecNode", %"class.xercesc_2_7::ContentSpecNode"* %this1, i32 0, i32 2, !dbg !2821
  %9 = load %"class.xercesc_2_7::QName"*, %"class.xercesc_2_7::QName"** %fElement, align 8, !dbg !2821
  %isnull10 = icmp eq %"class.xercesc_2_7::QName"* %9, null, !dbg !2822
  br i1 %isnull10, label %delete.end14, label %delete.notnull11, !dbg !2822

delete.notnull11:                                 ; preds = %if.end9
  %10 = bitcast %"class.xercesc_2_7::QName"* %9 to void (%"class.xercesc_2_7::QName"*)***, !dbg !2822
  %vtable12 = load void (%"class.xercesc_2_7::QName"*)**, void (%"class.xercesc_2_7::QName"*)*** %10, align 8, !dbg !2822
  %vfn13 = getelementptr inbounds void (%"class.xercesc_2_7::QName"*)*, void (%"class.xercesc_2_7::QName"*)** %vtable12, i64 1, !dbg !2822
  %11 = load void (%"class.xercesc_2_7::QName"*)*, void (%"class.xercesc_2_7::QName"*)** %vfn13, align 8, !dbg !2822
  call void %11(%"class.xercesc_2_7::QName"* %9) #10, !dbg !2822
  br label %delete.end14, !dbg !2822

delete.end14:                                     ; preds = %delete.notnull11, %if.end9
  %12 = bitcast %"class.xercesc_2_7::ContentSpecNode"* %this1 to %"class.xercesc_2_7::XSerializable"*, !dbg !2823
  call void @_ZN11xercesc_2_713XSerializableD2Ev(%"class.xercesc_2_7::XSerializable"* %12) #10, !dbg !2823
  ret void, !dbg !2824
}

; Function Attrs: noinline uwtable
define dso_local void @_ZN11xercesc_2_710DTDScannerC2EPNS_10DTDGrammarEPNS_14DocTypeHandlerEPNS_13MemoryManagerES6_(%"class.xercesc_2_7::DTDScanner"* %this, %"class.xercesc_2_7::DTDGrammar"* %dtdGrammar, %"class.xercesc_2_7::DocTypeHandler"* %docTypeHandler, %"class.xercesc_2_7::MemoryManager"* %grammarPoolMemoryManager, %"class.xercesc_2_7::MemoryManager"* %manager) unnamed_addr #6 align 2 personality i8* bitcast (i32 (...)* @__gxx_personality_v0 to i8*) !dbg !2825 {
entry:
  %this.addr = alloca %"class.xercesc_2_7::DTDScanner"*, align 8
  %dtdGrammar.addr = alloca %"class.xercesc_2_7::DTDGrammar"*, align 8
  %docTypeHandler.addr = alloca %"class.xercesc_2_7::DocTypeHandler"*, align 8
  %grammarPoolMemoryManager.addr = alloca %"class.xercesc_2_7::MemoryManager"*, align 8
  %manager.addr = alloca %"class.xercesc_2_7::MemoryManager"*, align 8
  %exn.slot = alloca i8*
  %ehselector.slot = alloca i32
  store %"class.xercesc_2_7::DTDScanner"* %this, %"class.xercesc_2_7::DTDScanner"** %this.addr, align 8
  call void @llvm.dbg.declare(metadata %"class.xercesc_2_7::DTDScanner"** %this.addr, metadata !2826, metadata !DIExpression()), !dbg !2828
  store %"class.xercesc_2_7::DTDGrammar"* %dtdGrammar, %"class.xercesc_2_7::DTDGrammar"** %dtdGrammar.addr, align 8
  call void @llvm.dbg.declare(metadata %"class.xercesc_2_7::DTDGrammar"** %dtdGrammar.addr, metadata !2829, metadata !DIExpression()), !dbg !2830
  store %"class.xercesc_2_7::DocTypeHandler"* %docTypeHandler, %"class.xercesc_2_7::DocTypeHandler"** %docTypeHandler.addr, align 8
  call void @llvm.dbg.declare(metadata %"class.xercesc_2_7::DocTypeHandler"** %docTypeHandler.addr, metadata !2831, metadata !DIExpression()), !dbg !2832
  store %"class.xercesc_2_7::MemoryManager"* %grammarPoolMemoryManager, %"class.xercesc_2_7::MemoryManager"** %grammarPoolMemoryManager.addr, align 8
  call void @llvm.dbg.declare(metadata %"class.xercesc_2_7::MemoryManager"** %grammarPoolMemoryManager.addr, metadata !2833, metadata !DIExpression()), !dbg !2834
  store %"class.xercesc_2_7::MemoryManager"* %manager, %"class.xercesc_2_7::MemoryManager"** %manager.addr, align 8
  call void @llvm.dbg.declare(metadata %"class.xercesc_2_7::MemoryManager"** %manager.addr, metadata !2835, metadata !DIExpression()), !dbg !2836
  %this1 = load %"class.xercesc_2_7::DTDScanner"*, %"class.xercesc_2_7::DTDScanner"** %this.addr, align 8
  %0 = bitcast %"class.xercesc_2_7::DTDScanner"* %this1 to %"class.xercesc_2_7::XMemory"*, !dbg !2837
  call void @_ZN11xercesc_2_77XMemoryC2Ev(%"class.xercesc_2_7::XMemory"* %0), !dbg !2838
  %1 = bitcast %"class.xercesc_2_7::DTDScanner"* %this1 to i32 (...)***, !dbg !2837
  store i32 (...)** bitcast (i8** getelementptr inbounds ({ [4 x i8*] }, { [4 x i8*] }* @_ZTVN11xercesc_2_710DTDScannerE, i32 0, inrange i32 0, i32 2) to i32 (...)**), i32 (...)*** %1, align 8, !dbg !2837
  %fMemoryManager = getelementptr inbounds %"class.xercesc_2_7::DTDScanner", %"class.xercesc_2_7::DTDScanner"* %this1, i32 0, i32 1, !dbg !2839
  %2 = load %"class.xercesc_2_7::MemoryManager"*, %"class.xercesc_2_7::MemoryManager"** %manager.addr, align 8, !dbg !2840
  store %"class.xercesc_2_7::MemoryManager"* %2, %"class.xercesc_2_7::MemoryManager"** %fMemoryManager, align 8, !dbg !2839
  %fGrammarPoolMemoryManager = getelementptr inbounds %"class.xercesc_2_7::DTDScanner", %"class.xercesc_2_7::DTDScanner"* %this1, i32 0, i32 2, !dbg !2841
  %3 = load %"class.xercesc_2_7::MemoryManager"*, %"class.xercesc_2_7::MemoryManager"** %grammarPoolMemoryManager.addr, align 8, !dbg !2842
  store %"class.xercesc_2_7::MemoryManager"* %3, %"class.xercesc_2_7::MemoryManager"** %fGrammarPoolMemoryManager, align 8, !dbg !2841
  %fDocTypeHandler = getelementptr inbounds %"class.xercesc_2_7::DTDScanner", %"class.xercesc_2_7::DTDScanner"* %this1, i32 0, i32 3, !dbg !2843
  %4 = load %"class.xercesc_2_7::DocTypeHandler"*, %"class.xercesc_2_7::DocTypeHandler"** %docTypeHandler.addr, align 8, !dbg !2844
  store %"class.xercesc_2_7::DocTypeHandler"* %4, %"class.xercesc_2_7::DocTypeHandler"** %fDocTypeHandler, align 8, !dbg !2843
  %fDumAttDef = getelementptr inbounds %"class.xercesc_2_7::DTDScanner", %"class.xercesc_2_7::DTDScanner"* %this1, i32 0, i32 4, !dbg !2845
  store %"class.xercesc_2_7::DTDAttDef"* null, %"class.xercesc_2_7::DTDAttDef"** %fDumAttDef, align 8, !dbg !2845
  %fDumElemDecl = getelementptr inbounds %"class.xercesc_2_7::DTDScanner", %"class.xercesc_2_7::DTDScanner"* %this1, i32 0, i32 5, !dbg !2846
  store %"class.xercesc_2_7::DTDElementDecl"* null, %"class.xercesc_2_7::DTDElementDecl"** %fDumElemDecl, align 8, !dbg !2846
  %fDumEntityDecl = getelementptr inbounds %"class.xercesc_2_7::DTDScanner", %"class.xercesc_2_7::DTDScanner"* %this1, i32 0, i32 6, !dbg !2847
  store %"class.xercesc_2_7::DTDEntityDecl"* null, %"class.xercesc_2_7::DTDEntityDecl"** %fDumEntityDecl, align 8, !dbg !2847
  %fInternalSubset = getelementptr inbounds %"class.xercesc_2_7::DTDScanner", %"class.xercesc_2_7::DTDScanner"* %this1, i32 0, i32 7, !dbg !2848
  store i8 0, i8* %fInternalSubset, align 8, !dbg !2848
  %fNextAttrId = getelementptr inbounds %"class.xercesc_2_7::DTDScanner", %"class.xercesc_2_7::DTDScanner"* %this1, i32 0, i32 8, !dbg !2849
  store i32 1, i32* %fNextAttrId, align 4, !dbg !2849
  %fDTDGrammar = getelementptr inbounds %"class.xercesc_2_7::DTDScanner", %"class.xercesc_2_7::DTDScanner"* %this1, i32 0, i32 9, !dbg !2850
  %5 = load %"class.xercesc_2_7::DTDGrammar"*, %"class.xercesc_2_7::DTDGrammar"** %dtdGrammar.addr, align 8, !dbg !2851
  store %"class.xercesc_2_7::DTDGrammar"* %5, %"class.xercesc_2_7::DTDGrammar"** %fDTDGrammar, align 8, !dbg !2850
  %fBufMgr = getelementptr inbounds %"class.xercesc_2_7::DTDScanner", %"class.xercesc_2_7::DTDScanner"* %this1, i32 0, i32 10, !dbg !2852
  store %"class.xercesc_2_7::XMLBufferMgr"* null, %"class.xercesc_2_7::XMLBufferMgr"** %fBufMgr, align 8, !dbg !2852
  %fReaderMgr = getelementptr inbounds %"class.xercesc_2_7::DTDScanner", %"class.xercesc_2_7::DTDScanner"* %this1, i32 0, i32 11, !dbg !2853
  store %"class.xercesc_2_7::ReaderMgr"* null, %"class.xercesc_2_7::ReaderMgr"** %fReaderMgr, align 8, !dbg !2853
  %fScanner = getelementptr inbounds %"class.xercesc_2_7::DTDScanner", %"class.xercesc_2_7::DTDScanner"* %this1, i32 0, i32 12, !dbg !2854
  store %"class.xercesc_2_7::XMLScanner"* null, %"class.xercesc_2_7::XMLScanner"** %fScanner, align 8, !dbg !2854
  %fPEntityDeclPool = getelementptr inbounds %"class.xercesc_2_7::DTDScanner", %"class.xercesc_2_7::DTDScanner"* %this1, i32 0, i32 13, !dbg !2855
  store %"class.xercesc_2_7::NameIdPool.0"* null, %"class.xercesc_2_7::NameIdPool.0"** %fPEntityDeclPool, align 8, !dbg !2855
  %fEmptyNamespaceId = getelementptr inbounds %"class.xercesc_2_7::DTDScanner", %"class.xercesc_2_7::DTDScanner"* %this1, i32 0, i32 14, !dbg !2856
  store i32 0, i32* %fEmptyNamespaceId, align 8, !dbg !2856
  %fDocTypeReaderId = getelementptr inbounds %"class.xercesc_2_7::DTDScanner", %"class.xercesc_2_7::DTDScanner"* %this1, i32 0, i32 15, !dbg !2857
  store i32 0, i32* %fDocTypeReaderId, align 4, !dbg !2857
  %fMemoryManager2 = getelementptr inbounds %"class.xercesc_2_7::DTDScanner", %"class.xercesc_2_7::DTDScanner"* %this1, i32 0, i32 1, !dbg !2858
  %6 = load %"class.xercesc_2_7::MemoryManager"*, %"class.xercesc_2_7::MemoryManager"** %fMemoryManager2, align 8, !dbg !2858
  %call = call i8* @_ZN11xercesc_2_77XMemorynwEmPNS_13MemoryManagerE(i64 40, %"class.xercesc_2_7::MemoryManager"* %6), !dbg !2860
  %7 = bitcast i8* %call to %"class.xercesc_2_7::NameIdPool.0"*, !dbg !2860
  %fMemoryManager3 = getelementptr inbounds %"class.xercesc_2_7::DTDScanner", %"class.xercesc_2_7::DTDScanner"* %this1, i32 0, i32 1, !dbg !2861
  %8 = load %"class.xercesc_2_7::MemoryManager"*, %"class.xercesc_2_7::MemoryManager"** %fMemoryManager3, align 8, !dbg !2861
  invoke void @_ZN11xercesc_2_710NameIdPoolINS_13DTDEntityDeclEEC2EjjPNS_13MemoryManagerE(%"class.xercesc_2_7::NameIdPool.0"* %7, i32 109, i32 128, %"class.xercesc_2_7::MemoryManager"* %8)
          to label %invoke.cont unwind label %lpad, !dbg !2862

invoke.cont:                                      ; preds = %entry
  %fPEntityDeclPool4 = getelementptr inbounds %"class.xercesc_2_7::DTDScanner", %"class.xercesc_2_7::DTDScanner"* %this1, i32 0, i32 13, !dbg !2863
  store %"class.xercesc_2_7::NameIdPool.0"* %7, %"class.xercesc_2_7::NameIdPool.0"** %fPEntityDeclPool4, align 8, !dbg !2864
  ret void, !dbg !2865

lpad:                                             ; preds = %entry
  %9 = landingpad { i8*, i32 }
          cleanup, !dbg !2866
  %10 = extractvalue { i8*, i32 } %9, 0, !dbg !2866
  store i8* %10, i8** %exn.slot, align 8, !dbg !2866
  %11 = extractvalue { i8*, i32 } %9, 1, !dbg !2866
  store i32 %11, i32* %ehselector.slot, align 4, !dbg !2866
  call void @_ZN11xercesc_2_77XMemorydlEPvPNS_13MemoryManagerE(i8* %call, %"class.xercesc_2_7::MemoryManager"* %6) #10, !dbg !2860
  br label %eh.resume, !dbg !2860

eh.resume:                                        ; preds = %lpad
  %exn = load i8*, i8** %exn.slot, align 8, !dbg !2860
  %sel = load i32, i32* %ehselector.slot, align 4, !dbg !2860
  %lpad.val = insertvalue { i8*, i32 } undef, i8* %exn, 0, !dbg !2860
  %lpad.val5 = insertvalue { i8*, i32 } %lpad.val, i32 %sel, 1, !dbg !2860
  resume { i8*, i32 } %lpad.val5, !dbg !2860
}

; Function Attrs: noinline nounwind uwtable
define linkonce_odr dso_local void @_ZN11xercesc_2_77XMemoryC2Ev(%"class.xercesc_2_7::XMemory"* %this) unnamed_addr #1 comdat align 2 !dbg !2867 {
entry:
  %this.addr = alloca %"class.xercesc_2_7::XMemory"*, align 8
  store %"class.xercesc_2_7::XMemory"* %this, %"class.xercesc_2_7::XMemory"** %this.addr, align 8
  call void @llvm.dbg.declare(metadata %"class.xercesc_2_7::XMemory"** %this.addr, metadata !2868, metadata !DIExpression()), !dbg !2870
  %this1 = load %"class.xercesc_2_7::XMemory"*, %"class.xercesc_2_7::XMemory"** %this.addr, align 8
  ret void, !dbg !2871
}

declare dso_local i8* @_ZN11xercesc_2_77XMemorynwEmPNS_13MemoryManagerE(i64, %"class.xercesc_2_7::MemoryManager"*) #7

; Function Attrs: noinline uwtable
define linkonce_odr dso_local void @_ZN11xercesc_2_710NameIdPoolINS_13DTDEntityDeclEEC2EjjPNS_13MemoryManagerE(%"class.xercesc_2_7::NameIdPool.0"* %this, i32 %hashModulus, i32 %initSize, %"class.xercesc_2_7::MemoryManager"* %manager) unnamed_addr #6 comdat align 2 personality i8* bitcast (i32 (...)* @__gxx_personality_v0 to i8*) !dbg !2872 {
entry:
  %this.addr = alloca %"class.xercesc_2_7::NameIdPool.0"*, align 8
  %hashModulus.addr = alloca i32, align 4
  %initSize.addr = alloca i32, align 4
  %manager.addr = alloca %"class.xercesc_2_7::MemoryManager"*, align 8
  %exn.slot = alloca i8*
  %ehselector.slot = alloca i32
  %index = alloca i32, align 4
  store %"class.xercesc_2_7::NameIdPool.0"* %this, %"class.xercesc_2_7::NameIdPool.0"** %this.addr, align 8
  call void @llvm.dbg.declare(metadata %"class.xercesc_2_7::NameIdPool.0"** %this.addr, metadata !2874, metadata !DIExpression()), !dbg !2875
  store i32 %hashModulus, i32* %hashModulus.addr, align 4
  call void @llvm.dbg.declare(metadata i32* %hashModulus.addr, metadata !2876, metadata !DIExpression()), !dbg !2877
  store i32 %initSize, i32* %initSize.addr, align 4
  call void @llvm.dbg.declare(metadata i32* %initSize.addr, metadata !2878, metadata !DIExpression()), !dbg !2879
  store %"class.xercesc_2_7::MemoryManager"* %manager, %"class.xercesc_2_7::MemoryManager"** %manager.addr, align 8
  call void @llvm.dbg.declare(metadata %"class.xercesc_2_7::MemoryManager"** %manager.addr, metadata !2880, metadata !DIExpression()), !dbg !2881
  %this1 = load %"class.xercesc_2_7::NameIdPool.0"*, %"class.xercesc_2_7::NameIdPool.0"** %this.addr, align 8
  %0 = bitcast %"class.xercesc_2_7::NameIdPool.0"* %this1 to %"class.xercesc_2_7::XMemory"*, !dbg !2882
  call void @_ZN11xercesc_2_77XMemoryC2Ev(%"class.xercesc_2_7::XMemory"* %0), !dbg !2883
  %fMemoryManager = getelementptr inbounds %"class.xercesc_2_7::NameIdPool.0", %"class.xercesc_2_7::NameIdPool.0"* %this1, i32 0, i32 0, !dbg !2885
  %1 = load %"class.xercesc_2_7::MemoryManager"*, %"class.xercesc_2_7::MemoryManager"** %manager.addr, align 8, !dbg !2887
  store %"class.xercesc_2_7::MemoryManager"* %1, %"class.xercesc_2_7::MemoryManager"** %fMemoryManager, align 8, !dbg !2885
  %fBucketList = getelementptr inbounds %"class.xercesc_2_7::NameIdPool.0", %"class.xercesc_2_7::NameIdPool.0"* %this1, i32 0, i32 1, !dbg !2888
  store %"struct.xercesc_2_7::NameIdPoolBucketElem.1"** null, %"struct.xercesc_2_7::NameIdPoolBucketElem.1"*** %fBucketList, align 8, !dbg !2888
  %fIdPtrs = getelementptr inbounds %"class.xercesc_2_7::NameIdPool.0", %"class.xercesc_2_7::NameIdPool.0"* %this1, i32 0, i32 2, !dbg !2889
  store %"class.xercesc_2_7::DTDEntityDecl"** null, %"class.xercesc_2_7::DTDEntityDecl"*** %fIdPtrs, align 8, !dbg !2889
  %fIdPtrsCount = getelementptr inbounds %"class.xercesc_2_7::NameIdPool.0", %"class.xercesc_2_7::NameIdPool.0"* %this1, i32 0, i32 3, !dbg !2890
  %2 = load i32, i32* %initSize.addr, align 4, !dbg !2891
  store i32 %2, i32* %fIdPtrsCount, align 8, !dbg !2890
  %fIdCounter = getelementptr inbounds %"class.xercesc_2_7::NameIdPool.0", %"class.xercesc_2_7::NameIdPool.0"* %this1, i32 0, i32 4, !dbg !2892
  store i32 0, i32* %fIdCounter, align 4, !dbg !2892
  %fHashModulus = getelementptr inbounds %"class.xercesc_2_7::NameIdPool.0", %"class.xercesc_2_7::NameIdPool.0"* %this1, i32 0, i32 5, !dbg !2893
  %3 = load i32, i32* %hashModulus.addr, align 4, !dbg !2894
  store i32 %3, i32* %fHashModulus, align 8, !dbg !2893
  %fHashModulus2 = getelementptr inbounds %"class.xercesc_2_7::NameIdPool.0", %"class.xercesc_2_7::NameIdPool.0"* %this1, i32 0, i32 5, !dbg !2895
  %4 = load i32, i32* %fHashModulus2, align 8, !dbg !2895
  %tobool = icmp ne i32 %4, 0, !dbg !2895
  br i1 %tobool, label %if.end, label %if.then, !dbg !2898

if.then:                                          ; preds = %entry
  %exception = call i8* @__cxa_allocate_exception(i64 48) #10, !dbg !2899
  %5 = bitcast i8* %exception to %"class.xercesc_2_7::IllegalArgumentException"*, !dbg !2899
  %fMemoryManager3 = getelementptr inbounds %"class.xercesc_2_7::NameIdPool.0", %"class.xercesc_2_7::NameIdPool.0"* %this1, i32 0, i32 0, !dbg !2899
  %6 = load %"class.xercesc_2_7::MemoryManager"*, %"class.xercesc_2_7::MemoryManager"** %fMemoryManager3, align 8, !dbg !2899
  invoke void @_ZN11xercesc_2_724IllegalArgumentExceptionC2EPKcjNS_10XMLExcepts5CodesEPNS_13MemoryManagerE(%"class.xercesc_2_7::IllegalArgumentException"* %5, i8* getelementptr inbounds ([28 x i8], [28 x i8]* @.str.1, i64 0, i64 0), i32 69, i32 68, %"class.xercesc_2_7::MemoryManager"* %6)
          to label %invoke.cont unwind label %lpad, !dbg !2899

invoke.cont:                                      ; preds = %if.then
  call void @__cxa_throw(i8* %exception, i8* bitcast ({ i8*, i8*, i8* }* @_ZTIN11xercesc_2_724IllegalArgumentExceptionE to i8*), i8* bitcast (void (%"class.xercesc_2_7::IllegalArgumentException"*)* @_ZN11xercesc_2_724IllegalArgumentExceptionD2Ev to i8*)) #13, !dbg !2899
  unreachable, !dbg !2899

lpad:                                             ; preds = %if.then
  %7 = landingpad { i8*, i32 }
          cleanup, !dbg !2900
  %8 = extractvalue { i8*, i32 } %7, 0, !dbg !2900
  store i8* %8, i8** %exn.slot, align 8, !dbg !2900
  %9 = extractvalue { i8*, i32 } %7, 1, !dbg !2900
  store i32 %9, i32* %ehselector.slot, align 4, !dbg !2900
  call void @__cxa_free_exception(i8* %exception) #10, !dbg !2899
  br label %eh.resume, !dbg !2899

if.end:                                           ; preds = %entry
  %fMemoryManager4 = getelementptr inbounds %"class.xercesc_2_7::NameIdPool.0", %"class.xercesc_2_7::NameIdPool.0"* %this1, i32 0, i32 0, !dbg !2901
  %10 = load %"class.xercesc_2_7::MemoryManager"*, %"class.xercesc_2_7::MemoryManager"** %fMemoryManager4, align 8, !dbg !2901
  %fHashModulus5 = getelementptr inbounds %"class.xercesc_2_7::NameIdPool.0", %"class.xercesc_2_7::NameIdPool.0"* %this1, i32 0, i32 5, !dbg !2902
  %11 = load i32, i32* %fHashModulus5, align 8, !dbg !2902
  %conv = zext i32 %11 to i64, !dbg !2902
  %mul = mul i64 %conv, 8, !dbg !2903
  %12 = bitcast %"class.xercesc_2_7::MemoryManager"* %10 to i8* (%"class.xercesc_2_7::MemoryManager"*, i64)***, !dbg !2904
  %vtable = load i8* (%"class.xercesc_2_7::MemoryManager"*, i64)**, i8* (%"class.xercesc_2_7::MemoryManager"*, i64)*** %12, align 8, !dbg !2904
  %vfn = getelementptr inbounds i8* (%"class.xercesc_2_7::MemoryManager"*, i64)*, i8* (%"class.xercesc_2_7::MemoryManager"*, i64)** %vtable, i64 2, !dbg !2904
  %13 = load i8* (%"class.xercesc_2_7::MemoryManager"*, i64)*, i8* (%"class.xercesc_2_7::MemoryManager"*, i64)** %vfn, align 8, !dbg !2904
  %call = call i8* %13(%"class.xercesc_2_7::MemoryManager"* %10, i64 %mul), !dbg !2904
  %14 = bitcast i8* %call to %"struct.xercesc_2_7::NameIdPoolBucketElem.1"**, !dbg !2905
  %fBucketList6 = getelementptr inbounds %"class.xercesc_2_7::NameIdPool.0", %"class.xercesc_2_7::NameIdPool.0"* %this1, i32 0, i32 1, !dbg !2906
  store %"struct.xercesc_2_7::NameIdPoolBucketElem.1"** %14, %"struct.xercesc_2_7::NameIdPoolBucketElem.1"*** %fBucketList6, align 8, !dbg !2907
  call void @llvm.dbg.declare(metadata i32* %index, metadata !2908, metadata !DIExpression()), !dbg !2910
  store i32 0, i32* %index, align 4, !dbg !2910
  br label %for.cond, !dbg !2911

for.cond:                                         ; preds = %for.inc, %if.end
  %15 = load i32, i32* %index, align 4, !dbg !2912
  %fHashModulus7 = getelementptr inbounds %"class.xercesc_2_7::NameIdPool.0", %"class.xercesc_2_7::NameIdPool.0"* %this1, i32 0, i32 5, !dbg !2914
  %16 = load i32, i32* %fHashModulus7, align 8, !dbg !2914
  %cmp = icmp ult i32 %15, %16, !dbg !2915
  br i1 %cmp, label %for.body, label %for.end, !dbg !2916

for.body:                                         ; preds = %for.cond
  %fBucketList8 = getelementptr inbounds %"class.xercesc_2_7::NameIdPool.0", %"class.xercesc_2_7::NameIdPool.0"* %this1, i32 0, i32 1, !dbg !2917
  %17 = load %"struct.xercesc_2_7::NameIdPoolBucketElem.1"**, %"struct.xercesc_2_7::NameIdPoolBucketElem.1"*** %fBucketList8, align 8, !dbg !2917
  %18 = load i32, i32* %index, align 4, !dbg !2918
  %idxprom = zext i32 %18 to i64, !dbg !2917
  %arrayidx = getelementptr inbounds %"struct.xercesc_2_7::NameIdPoolBucketElem.1"*, %"struct.xercesc_2_7::NameIdPoolBucketElem.1"** %17, i64 %idxprom, !dbg !2917
  store %"struct.xercesc_2_7::NameIdPoolBucketElem.1"* null, %"struct.xercesc_2_7::NameIdPoolBucketElem.1"** %arrayidx, align 8, !dbg !2919
  br label %for.inc, !dbg !2917

for.inc:                                          ; preds = %for.body
  %19 = load i32, i32* %index, align 4, !dbg !2920
  %inc = add i32 %19, 1, !dbg !2920
  store i32 %inc, i32* %index, align 4, !dbg !2920
  br label %for.cond, !dbg !2921, !llvm.loop !2922

for.end:                                          ; preds = %for.cond
  %fIdPtrsCount9 = getelementptr inbounds %"class.xercesc_2_7::NameIdPool.0", %"class.xercesc_2_7::NameIdPool.0"* %this1, i32 0, i32 3, !dbg !2924
  %20 = load i32, i32* %fIdPtrsCount9, align 8, !dbg !2924
  %tobool10 = icmp ne i32 %20, 0, !dbg !2924
  br i1 %tobool10, label %if.end13, label %if.then11, !dbg !2926

if.then11:                                        ; preds = %for.end
  %fIdPtrsCount12 = getelementptr inbounds %"class.xercesc_2_7::NameIdPool.0", %"class.xercesc_2_7::NameIdPool.0"* %this1, i32 0, i32 3, !dbg !2927
  store i32 256, i32* %fIdPtrsCount12, align 8, !dbg !2928
  br label %if.end13, !dbg !2927

if.end13:                                         ; preds = %if.then11, %for.end
  %fMemoryManager14 = getelementptr inbounds %"class.xercesc_2_7::NameIdPool.0", %"class.xercesc_2_7::NameIdPool.0"* %this1, i32 0, i32 0, !dbg !2929
  %21 = load %"class.xercesc_2_7::MemoryManager"*, %"class.xercesc_2_7::MemoryManager"** %fMemoryManager14, align 8, !dbg !2929
  %fIdPtrsCount15 = getelementptr inbounds %"class.xercesc_2_7::NameIdPool.0", %"class.xercesc_2_7::NameIdPool.0"* %this1, i32 0, i32 3, !dbg !2930
  %22 = load i32, i32* %fIdPtrsCount15, align 8, !dbg !2930
  %conv16 = zext i32 %22 to i64, !dbg !2930
  %mul17 = mul i64 %conv16, 8, !dbg !2931
  %23 = bitcast %"class.xercesc_2_7::MemoryManager"* %21 to i8* (%"class.xercesc_2_7::MemoryManager"*, i64)***, !dbg !2932
  %vtable18 = load i8* (%"class.xercesc_2_7::MemoryManager"*, i64)**, i8* (%"class.xercesc_2_7::MemoryManager"*, i64)*** %23, align 8, !dbg !2932
  %vfn19 = getelementptr inbounds i8* (%"class.xercesc_2_7::MemoryManager"*, i64)*, i8* (%"class.xercesc_2_7::MemoryManager"*, i64)** %vtable18, i64 2, !dbg !2932
  %24 = load i8* (%"class.xercesc_2_7::MemoryManager"*, i64)*, i8* (%"class.xercesc_2_7::MemoryManager"*, i64)** %vfn19, align 8, !dbg !2932
  %call20 = call i8* %24(%"class.xercesc_2_7::MemoryManager"* %21, i64 %mul17), !dbg !2932
  %25 = bitcast i8* %call20 to %"class.xercesc_2_7::DTDEntityDecl"**, !dbg !2933
  %fIdPtrs21 = getelementptr inbounds %"class.xercesc_2_7::NameIdPool.0", %"class.xercesc_2_7::NameIdPool.0"* %this1, i32 0, i32 2, !dbg !2934
  store %"class.xercesc_2_7::DTDEntityDecl"** %25, %"class.xercesc_2_7::DTDEntityDecl"*** %fIdPtrs21, align 8, !dbg !2935
  %fIdPtrs22 = getelementptr inbounds %"class.xercesc_2_7::NameIdPool.0", %"class.xercesc_2_7::NameIdPool.0"* %this1, i32 0, i32 2, !dbg !2936
  %26 = load %"class.xercesc_2_7::DTDEntityDecl"**, %"class.xercesc_2_7::DTDEntityDecl"*** %fIdPtrs22, align 8, !dbg !2936
  %arrayidx23 = getelementptr inbounds %"class.xercesc_2_7::DTDEntityDecl"*, %"class.xercesc_2_7::DTDEntityDecl"** %26, i64 0, !dbg !2936
  store %"class.xercesc_2_7::DTDEntityDecl"* null, %"class.xercesc_2_7::DTDEntityDecl"** %arrayidx23, align 8, !dbg !2937
  ret void, !dbg !2938

eh.resume:                                        ; preds = %lpad
  %exn = load i8*, i8** %exn.slot, align 8, !dbg !2899
  %sel = load i32, i32* %ehselector.slot, align 4, !dbg !2899
  %lpad.val = insertvalue { i8*, i32 } undef, i8* %exn, 0, !dbg !2899
  %lpad.val24 = insertvalue { i8*, i32 } %lpad.val, i32 %sel, 1, !dbg !2899
  resume { i8*, i32 } %lpad.val24, !dbg !2899
}

; Function Attrs: nounwind
declare dso_local void @_ZN11xercesc_2_77XMemorydlEPvPNS_13MemoryManagerE(i8*, %"class.xercesc_2_7::MemoryManager"*) #4

; Function Attrs: noinline nounwind uwtable
define dso_local void @_ZN11xercesc_2_710DTDScannerD2Ev(%"class.xercesc_2_7::DTDScanner"* %this) unnamed_addr #1 align 2 !dbg !2939 {
entry:
  %this.addr = alloca %"class.xercesc_2_7::DTDScanner"*, align 8
  store %"class.xercesc_2_7::DTDScanner"* %this, %"class.xercesc_2_7::DTDScanner"** %this.addr, align 8
  call void @llvm.dbg.declare(metadata %"class.xercesc_2_7::DTDScanner"** %this.addr, metadata !2940, metadata !DIExpression()), !dbg !2941
  %this1 = load %"class.xercesc_2_7::DTDScanner"*, %"class.xercesc_2_7::DTDScanner"** %this.addr, align 8
  %0 = bitcast %"class.xercesc_2_7::DTDScanner"* %this1 to i32 (...)***, !dbg !2942
  store i32 (...)** bitcast (i8** getelementptr inbounds ({ [4 x i8*] }, { [4 x i8*] }* @_ZTVN11xercesc_2_710DTDScannerE, i32 0, inrange i32 0, i32 2) to i32 (...)**), i32 (...)*** %0, align 8, !dbg !2942
  %fDumAttDef = getelementptr inbounds %"class.xercesc_2_7::DTDScanner", %"class.xercesc_2_7::DTDScanner"* %this1, i32 0, i32 4, !dbg !2943
  %1 = load %"class.xercesc_2_7::DTDAttDef"*, %"class.xercesc_2_7::DTDAttDef"** %fDumAttDef, align 8, !dbg !2943
  %isnull = icmp eq %"class.xercesc_2_7::DTDAttDef"* %1, null, !dbg !2945
  br i1 %isnull, label %delete.end, label %delete.notnull, !dbg !2945

delete.notnull:                                   ; preds = %entry
  %2 = bitcast %"class.xercesc_2_7::DTDAttDef"* %1 to void (%"class.xercesc_2_7::DTDAttDef"*)***, !dbg !2945
  %vtable = load void (%"class.xercesc_2_7::DTDAttDef"*)**, void (%"class.xercesc_2_7::DTDAttDef"*)*** %2, align 8, !dbg !2945
  %vfn = getelementptr inbounds void (%"class.xercesc_2_7::DTDAttDef"*)*, void (%"class.xercesc_2_7::DTDAttDef"*)** %vtable, i64 1, !dbg !2945
  %3 = load void (%"class.xercesc_2_7::DTDAttDef"*)*, void (%"class.xercesc_2_7::DTDAttDef"*)** %vfn, align 8, !dbg !2945
  call void %3(%"class.xercesc_2_7::DTDAttDef"* %1) #10, !dbg !2945
  br label %delete.end, !dbg !2945

delete.end:                                       ; preds = %delete.notnull, %entry
  %fDumElemDecl = getelementptr inbounds %"class.xercesc_2_7::DTDScanner", %"class.xercesc_2_7::DTDScanner"* %this1, i32 0, i32 5, !dbg !2946
  %4 = load %"class.xercesc_2_7::DTDElementDecl"*, %"class.xercesc_2_7::DTDElementDecl"** %fDumElemDecl, align 8, !dbg !2946
  %isnull2 = icmp eq %"class.xercesc_2_7::DTDElementDecl"* %4, null, !dbg !2947
  br i1 %isnull2, label %delete.end6, label %delete.notnull3, !dbg !2947

delete.notnull3:                                  ; preds = %delete.end
  %5 = bitcast %"class.xercesc_2_7::DTDElementDecl"* %4 to void (%"class.xercesc_2_7::DTDElementDecl"*)***, !dbg !2947
  %vtable4 = load void (%"class.xercesc_2_7::DTDElementDecl"*)**, void (%"class.xercesc_2_7::DTDElementDecl"*)*** %5, align 8, !dbg !2947
  %vfn5 = getelementptr inbounds void (%"class.xercesc_2_7::DTDElementDecl"*)*, void (%"class.xercesc_2_7::DTDElementDecl"*)** %vtable4, i64 1, !dbg !2947
  %6 = load void (%"class.xercesc_2_7::DTDElementDecl"*)*, void (%"class.xercesc_2_7::DTDElementDecl"*)** %vfn5, align 8, !dbg !2947
  call void %6(%"class.xercesc_2_7::DTDElementDecl"* %4) #10, !dbg !2947
  br label %delete.end6, !dbg !2947

delete.end6:                                      ; preds = %delete.notnull3, %delete.end
  %fDumEntityDecl = getelementptr inbounds %"class.xercesc_2_7::DTDScanner", %"class.xercesc_2_7::DTDScanner"* %this1, i32 0, i32 6, !dbg !2948
  %7 = load %"class.xercesc_2_7::DTDEntityDecl"*, %"class.xercesc_2_7::DTDEntityDecl"** %fDumEntityDecl, align 8, !dbg !2948
  %isnull7 = icmp eq %"class.xercesc_2_7::DTDEntityDecl"* %7, null, !dbg !2949
  br i1 %isnull7, label %delete.end11, label %delete.notnull8, !dbg !2949

delete.notnull8:                                  ; preds = %delete.end6
  %8 = bitcast %"class.xercesc_2_7::DTDEntityDecl"* %7 to void (%"class.xercesc_2_7::DTDEntityDecl"*)***, !dbg !2949
  %vtable9 = load void (%"class.xercesc_2_7::DTDEntityDecl"*)**, void (%"class.xercesc_2_7::DTDEntityDecl"*)*** %8, align 8, !dbg !2949
  %vfn10 = getelementptr inbounds void (%"class.xercesc_2_7::DTDEntityDecl"*)*, void (%"class.xercesc_2_7::DTDEntityDecl"*)** %vtable9, i64 1, !dbg !2949
  %9 = load void (%"class.xercesc_2_7::DTDEntityDecl"*)*, void (%"class.xercesc_2_7::DTDEntityDecl"*)** %vfn10, align 8, !dbg !2949
  call void %9(%"class.xercesc_2_7::DTDEntityDecl"* %7) #10, !dbg !2949
  br label %delete.end11, !dbg !2949

delete.end11:                                     ; preds = %delete.notnull8, %delete.end6
  %fPEntityDeclPool = getelementptr inbounds %"class.xercesc_2_7::DTDScanner", %"class.xercesc_2_7::DTDScanner"* %this1, i32 0, i32 13, !dbg !2950
  %10 = load %"class.xercesc_2_7::NameIdPool.0"*, %"class.xercesc_2_7::NameIdPool.0"** %fPEntityDeclPool, align 8, !dbg !2950
  %isnull12 = icmp eq %"class.xercesc_2_7::NameIdPool.0"* %10, null, !dbg !2951
  br i1 %isnull12, label %delete.end14, label %delete.notnull13, !dbg !2951

delete.notnull13:                                 ; preds = %delete.end11
  call void @_ZN11xercesc_2_710NameIdPoolINS_13DTDEntityDeclEED2Ev(%"class.xercesc_2_7::NameIdPool.0"* %10) #10, !dbg !2951
  %11 = bitcast %"class.xercesc_2_7::NameIdPool.0"* %10 to i8*, !dbg !2951
  call void @_ZN11xercesc_2_77XMemorydlEPv(i8* %11) #10, !dbg !2951
  br label %delete.end14, !dbg !2951

delete.end14:                                     ; preds = %delete.notnull13, %delete.end11
  ret void, !dbg !2952
}

; Function Attrs: noinline nounwind uwtable
define linkonce_odr dso_local void @_ZN11xercesc_2_710NameIdPoolINS_13DTDEntityDeclEED2Ev(%"class.xercesc_2_7::NameIdPool.0"* %this) unnamed_addr #1 comdat align 2 personality i8* bitcast (i32 (...)* @__gxx_personality_v0 to i8*) !dbg !2953 {
entry:
  %this.addr = alloca %"class.xercesc_2_7::NameIdPool.0"*, align 8
  store %"class.xercesc_2_7::NameIdPool.0"* %this, %"class.xercesc_2_7::NameIdPool.0"** %this.addr, align 8
  call void @llvm.dbg.declare(metadata %"class.xercesc_2_7::NameIdPool.0"** %this.addr, metadata !2954, metadata !DIExpression()), !dbg !2955
  %this1 = load %"class.xercesc_2_7::NameIdPool.0"*, %"class.xercesc_2_7::NameIdPool.0"** %this.addr, align 8
  %fMemoryManager = getelementptr inbounds %"class.xercesc_2_7::NameIdPool.0", %"class.xercesc_2_7::NameIdPool.0"* %this1, i32 0, i32 0, !dbg !2956
  %0 = load %"class.xercesc_2_7::MemoryManager"*, %"class.xercesc_2_7::MemoryManager"** %fMemoryManager, align 8, !dbg !2956
  %fIdPtrs = getelementptr inbounds %"class.xercesc_2_7::NameIdPool.0", %"class.xercesc_2_7::NameIdPool.0"* %this1, i32 0, i32 2, !dbg !2958
  %1 = load %"class.xercesc_2_7::DTDEntityDecl"**, %"class.xercesc_2_7::DTDEntityDecl"*** %fIdPtrs, align 8, !dbg !2958
  %2 = bitcast %"class.xercesc_2_7::DTDEntityDecl"** %1 to i8*, !dbg !2958
  %3 = bitcast %"class.xercesc_2_7::MemoryManager"* %0 to void (%"class.xercesc_2_7::MemoryManager"*, i8*)***, !dbg !2959
  %vtable = load void (%"class.xercesc_2_7::MemoryManager"*, i8*)**, void (%"class.xercesc_2_7::MemoryManager"*, i8*)*** %3, align 8, !dbg !2959
  %vfn = getelementptr inbounds void (%"class.xercesc_2_7::MemoryManager"*, i8*)*, void (%"class.xercesc_2_7::MemoryManager"*, i8*)** %vtable, i64 3, !dbg !2959
  %4 = load void (%"class.xercesc_2_7::MemoryManager"*, i8*)*, void (%"class.xercesc_2_7::MemoryManager"*, i8*)** %vfn, align 8, !dbg !2959
  invoke void %4(%"class.xercesc_2_7::MemoryManager"* %0, i8* %2)
          to label %invoke.cont unwind label %terminate.lpad, !dbg !2959

invoke.cont:                                      ; preds = %entry
  invoke void @_ZN11xercesc_2_710NameIdPoolINS_13DTDEntityDeclEE9removeAllEv(%"class.xercesc_2_7::NameIdPool.0"* %this1)
          to label %invoke.cont2 unwind label %terminate.lpad, !dbg !2960

invoke.cont2:                                     ; preds = %invoke.cont
  %fMemoryManager3 = getelementptr inbounds %"class.xercesc_2_7::NameIdPool.0", %"class.xercesc_2_7::NameIdPool.0"* %this1, i32 0, i32 0, !dbg !2961
  %5 = load %"class.xercesc_2_7::MemoryManager"*, %"class.xercesc_2_7::MemoryManager"** %fMemoryManager3, align 8, !dbg !2961
  %fBucketList = getelementptr inbounds %"class.xercesc_2_7::NameIdPool.0", %"class.xercesc_2_7::NameIdPool.0"* %this1, i32 0, i32 1, !dbg !2962
  %6 = load %"struct.xercesc_2_7::NameIdPoolBucketElem.1"**, %"struct.xercesc_2_7::NameIdPoolBucketElem.1"*** %fBucketList, align 8, !dbg !2962
  %7 = bitcast %"struct.xercesc_2_7::NameIdPoolBucketElem.1"** %6 to i8*, !dbg !2962
  %8 = bitcast %"class.xercesc_2_7::MemoryManager"* %5 to void (%"class.xercesc_2_7::MemoryManager"*, i8*)***, !dbg !2963
  %vtable4 = load void (%"class.xercesc_2_7::MemoryManager"*, i8*)**, void (%"class.xercesc_2_7::MemoryManager"*, i8*)*** %8, align 8, !dbg !2963
  %vfn5 = getelementptr inbounds void (%"class.xercesc_2_7::MemoryManager"*, i8*)*, void (%"class.xercesc_2_7::MemoryManager"*, i8*)** %vtable4, i64 3, !dbg !2963
  %9 = load void (%"class.xercesc_2_7::MemoryManager"*, i8*)*, void (%"class.xercesc_2_7::MemoryManager"*, i8*)** %vfn5, align 8, !dbg !2963
  invoke void %9(%"class.xercesc_2_7::MemoryManager"* %5, i8* %7)
          to label %invoke.cont6 unwind label %terminate.lpad, !dbg !2963

invoke.cont6:                                     ; preds = %invoke.cont2
  ret void, !dbg !2964

terminate.lpad:                                   ; preds = %invoke.cont2, %invoke.cont, %entry
  %10 = landingpad { i8*, i32 }
          catch i8* null, !dbg !2959
  %11 = extractvalue { i8*, i32 } %10, 0, !dbg !2959
  call void @__clang_call_terminate(i8* %11) #12, !dbg !2959
  unreachable, !dbg !2959
}

; Function Attrs: noinline nounwind uwtable
define dso_local void @_ZN11xercesc_2_710DTDScannerD0Ev(%"class.xercesc_2_7::DTDScanner"* %this) unnamed_addr #1 align 2 !dbg !2965 {
entry:
  %this.addr = alloca %"class.xercesc_2_7::DTDScanner"*, align 8
  store %"class.xercesc_2_7::DTDScanner"* %this, %"class.xercesc_2_7::DTDScanner"** %this.addr, align 8
  call void @llvm.dbg.declare(metadata %"class.xercesc_2_7::DTDScanner"** %this.addr, metadata !2966, metadata !DIExpression()), !dbg !2967
  %this1 = load %"class.xercesc_2_7::DTDScanner"*, %"class.xercesc_2_7::DTDScanner"** %this.addr, align 8
  call void @_ZN11xercesc_2_710DTDScannerD1Ev(%"class.xercesc_2_7::DTDScanner"* %this1) #10, !dbg !2968
  %0 = bitcast %"class.xercesc_2_7::DTDScanner"* %this1 to i8*, !dbg !2968
  call void @_ZN11xercesc_2_77XMemorydlEPv(i8* %0) #10, !dbg !2968
  ret void, !dbg !2969
}

; Function Attrs: noinline uwtable
define dso_local void @_ZN11xercesc_2_710DTDScanner14setScannerInfoEPNS_10XMLScannerEPNS_9ReaderMgrEPNS_12XMLBufferMgrE(%"class.xercesc_2_7::DTDScanner"* %this, %"class.xercesc_2_7::XMLScanner"* %owningScanner, %"class.xercesc_2_7::ReaderMgr"* %readerMgr, %"class.xercesc_2_7::XMLBufferMgr"* %bufMgr) #6 align 2 !dbg !2970 {
entry:
  %this.addr = alloca %"class.xercesc_2_7::DTDScanner"*, align 8
  %owningScanner.addr = alloca %"class.xercesc_2_7::XMLScanner"*, align 8
  %readerMgr.addr = alloca %"class.xercesc_2_7::ReaderMgr"*, align 8
  %bufMgr.addr = alloca %"class.xercesc_2_7::XMLBufferMgr"*, align 8
  store %"class.xercesc_2_7::DTDScanner"* %this, %"class.xercesc_2_7::DTDScanner"** %this.addr, align 8
  call void @llvm.dbg.declare(metadata %"class.xercesc_2_7::DTDScanner"** %this.addr, metadata !2971, metadata !DIExpression()), !dbg !2972
  store %"class.xercesc_2_7::XMLScanner"* %owningScanner, %"class.xercesc_2_7::XMLScanner"** %owningScanner.addr, align 8
  call void @llvm.dbg.declare(metadata %"class.xercesc_2_7::XMLScanner"** %owningScanner.addr, metadata !2973, metadata !DIExpression()), !dbg !2974
  store %"class.xercesc_2_7::ReaderMgr"* %readerMgr, %"class.xercesc_2_7::ReaderMgr"** %readerMgr.addr, align 8
  call void @llvm.dbg.declare(metadata %"class.xercesc_2_7::ReaderMgr"** %readerMgr.addr, metadata !2975, metadata !DIExpression()), !dbg !2976
  store %"class.xercesc_2_7::XMLBufferMgr"* %bufMgr, %"class.xercesc_2_7::XMLBufferMgr"** %bufMgr.addr, align 8
  call void @llvm.dbg.declare(metadata %"class.xercesc_2_7::XMLBufferMgr"** %bufMgr.addr, metadata !2977, metadata !DIExpression()), !dbg !2978
  %this1 = load %"class.xercesc_2_7::DTDScanner"*, %"class.xercesc_2_7::DTDScanner"** %this.addr, align 8
  %0 = load %"class.xercesc_2_7::XMLScanner"*, %"class.xercesc_2_7::XMLScanner"** %owningScanner.addr, align 8, !dbg !2979
  %fScanner = getelementptr inbounds %"class.xercesc_2_7::DTDScanner", %"class.xercesc_2_7::DTDScanner"* %this1, i32 0, i32 12, !dbg !2980
  store %"class.xercesc_2_7::XMLScanner"* %0, %"class.xercesc_2_7::XMLScanner"** %fScanner, align 8, !dbg !2981
  %1 = load %"class.xercesc_2_7::ReaderMgr"*, %"class.xercesc_2_7::ReaderMgr"** %readerMgr.addr, align 8, !dbg !2982
  %fReaderMgr = getelementptr inbounds %"class.xercesc_2_7::DTDScanner", %"class.xercesc_2_7::DTDScanner"* %this1, i32 0, i32 11, !dbg !2983
  store %"class.xercesc_2_7::ReaderMgr"* %1, %"class.xercesc_2_7::ReaderMgr"** %fReaderMgr, align 8, !dbg !2984
  %2 = load %"class.xercesc_2_7::XMLBufferMgr"*, %"class.xercesc_2_7::XMLBufferMgr"** %bufMgr.addr, align 8, !dbg !2985
  %fBufMgr = getelementptr inbounds %"class.xercesc_2_7::DTDScanner", %"class.xercesc_2_7::DTDScanner"* %this1, i32 0, i32 10, !dbg !2986
  store %"class.xercesc_2_7::XMLBufferMgr"* %2, %"class.xercesc_2_7::XMLBufferMgr"** %fBufMgr, align 8, !dbg !2987
  %fScanner2 = getelementptr inbounds %"class.xercesc_2_7::DTDScanner", %"class.xercesc_2_7::DTDScanner"* %this1, i32 0, i32 12, !dbg !2988
  %3 = load %"class.xercesc_2_7::XMLScanner"*, %"class.xercesc_2_7::XMLScanner"** %fScanner2, align 8, !dbg !2988
  %call = call zeroext i1 @_ZNK11xercesc_2_710XMLScanner15getDoNamespacesEv(%"class.xercesc_2_7::XMLScanner"* %3), !dbg !2990
  br i1 %call, label %if.then, label %if.else, !dbg !2991

if.then:                                          ; preds = %entry
  %fScanner3 = getelementptr inbounds %"class.xercesc_2_7::DTDScanner", %"class.xercesc_2_7::DTDScanner"* %this1, i32 0, i32 12, !dbg !2992
  %4 = load %"class.xercesc_2_7::XMLScanner"*, %"class.xercesc_2_7::XMLScanner"** %fScanner3, align 8, !dbg !2992
  %call4 = call i32 @_ZNK11xercesc_2_710XMLScanner19getEmptyNamespaceIdEv(%"class.xercesc_2_7::XMLScanner"* %4), !dbg !2993
  %fEmptyNamespaceId = getelementptr inbounds %"class.xercesc_2_7::DTDScanner", %"class.xercesc_2_7::DTDScanner"* %this1, i32 0, i32 14, !dbg !2994
  store i32 %call4, i32* %fEmptyNamespaceId, align 8, !dbg !2995
  br label %if.end, !dbg !2994

if.else:                                          ; preds = %entry
  %fEmptyNamespaceId5 = getelementptr inbounds %"class.xercesc_2_7::DTDScanner", %"class.xercesc_2_7::DTDScanner"* %this1, i32 0, i32 14, !dbg !2996
  store i32 0, i32* %fEmptyNamespaceId5, align 8, !dbg !2997
  br label %if.end

if.end:                                           ; preds = %if.else, %if.then
  %fReaderMgr6 = getelementptr inbounds %"class.xercesc_2_7::DTDScanner", %"class.xercesc_2_7::DTDScanner"* %this1, i32 0, i32 11, !dbg !2998
  %5 = load %"class.xercesc_2_7::ReaderMgr"*, %"class.xercesc_2_7::ReaderMgr"** %fReaderMgr6, align 8, !dbg !2998
  %call7 = call i32 @_ZNK11xercesc_2_79ReaderMgr19getCurrentReaderNumEv(%"class.xercesc_2_7::ReaderMgr"* %5), !dbg !2999
  %fDocTypeReaderId = getelementptr inbounds %"class.xercesc_2_7::DTDScanner", %"class.xercesc_2_7::DTDScanner"* %this1, i32 0, i32 15, !dbg !3000
  store i32 %call7, i32* %fDocTypeReaderId, align 4, !dbg !3001
  ret void, !dbg !3002
}

; Function Attrs: noinline nounwind uwtable
define linkonce_odr dso_local zeroext i1 @_ZNK11xercesc_2_710XMLScanner15getDoNamespacesEv(%"class.xercesc_2_7::XMLScanner"* %this) #1 comdat align 2 !dbg !3003 {
entry:
  %this.addr = alloca %"class.xercesc_2_7::XMLScanner"*, align 8
  store %"class.xercesc_2_7::XMLScanner"* %this, %"class.xercesc_2_7::XMLScanner"** %this.addr, align 8
  call void @llvm.dbg.declare(metadata %"class.xercesc_2_7::XMLScanner"** %this.addr, metadata !3009, metadata !DIExpression()), !dbg !3011
  %this1 = load %"class.xercesc_2_7::XMLScanner"*, %"class.xercesc_2_7::XMLScanner"** %this.addr, align 8
  %fDoNamespaces = getelementptr inbounds %"class.xercesc_2_7::XMLScanner", %"class.xercesc_2_7::XMLScanner"* %this1, i32 0, i32 4, !dbg !3012
  %0 = load i8, i8* %fDoNamespaces, align 2, !dbg !3012
  %tobool = trunc i8 %0 to i1, !dbg !3012
  ret i1 %tobool, !dbg !3013
}

; Function Attrs: noinline nounwind uwtable
define linkonce_odr dso_local i32 @_ZNK11xercesc_2_710XMLScanner19getEmptyNamespaceIdEv(%"class.xercesc_2_7::XMLScanner"* %this) #1 comdat align 2 !dbg !3014 {
entry:
  %this.addr = alloca %"class.xercesc_2_7::XMLScanner"*, align 8
  store %"class.xercesc_2_7::XMLScanner"* %this, %"class.xercesc_2_7::XMLScanner"** %this.addr, align 8
  call void @llvm.dbg.declare(metadata %"class.xercesc_2_7::XMLScanner"** %this.addr, metadata !3018, metadata !DIExpression()), !dbg !3019
  %this1 = load %"class.xercesc_2_7::XMLScanner"*, %"class.xercesc_2_7::XMLScanner"** %this.addr, align 8
  %fEmptyNamespaceId = getelementptr inbounds %"class.xercesc_2_7::XMLScanner", %"class.xercesc_2_7::XMLScanner"* %this1, i32 0, i32 28, !dbg !3020
  %0 = load i32, i32* %fEmptyNamespaceId, align 4, !dbg !3020
  ret i32 %0, !dbg !3021
}

; Function Attrs: noinline uwtable
define linkonce_odr dso_local i32 @_ZNK11xercesc_2_79ReaderMgr19getCurrentReaderNumEv(%"class.xercesc_2_7::ReaderMgr"* %this) #6 comdat align 2 !dbg !3022 {
entry:
  %this.addr = alloca %"class.xercesc_2_7::ReaderMgr"*, align 8
  store %"class.xercesc_2_7::ReaderMgr"* %this, %"class.xercesc_2_7::ReaderMgr"** %this.addr, align 8
  call void @llvm.dbg.declare(metadata %"class.xercesc_2_7::ReaderMgr"** %this.addr, metadata !3028, metadata !DIExpression()), !dbg !3030
  %this1 = load %"class.xercesc_2_7::ReaderMgr"*, %"class.xercesc_2_7::ReaderMgr"** %this.addr, align 8
  %fCurReader = getelementptr inbounds %"class.xercesc_2_7::ReaderMgr", %"class.xercesc_2_7::ReaderMgr"* %this1, i32 0, i32 2, !dbg !3031
  %0 = load %"class.xercesc_2_7::XMLReader"*, %"class.xercesc_2_7::XMLReader"** %fCurReader, align 8, !dbg !3031
  %call = call i32 @_ZNK11xercesc_2_79XMLReader12getReaderNumEv(%"class.xercesc_2_7::XMLReader"* %0), !dbg !3032
  ret i32 %call, !dbg !3033
}

; Function Attrs: noinline uwtable
define dso_local zeroext i1 @_ZN11xercesc_2_710DTDScanner13checkForPERefEbb(%"class.xercesc_2_7::DTDScanner"* %this, i1 zeroext %inLiteral, i1 zeroext %inMarkup) #6 align 2 !dbg !3034 {
entry:
  %retval = alloca i1, align 1
  %this.addr = alloca %"class.xercesc_2_7::DTDScanner"*, align 8
  %inLiteral.addr = alloca i8, align 1
  %inMarkup.addr = alloca i8, align 1
  %gotSpace = alloca i8, align 1
  store %"class.xercesc_2_7::DTDScanner"* %this, %"class.xercesc_2_7::DTDScanner"** %this.addr, align 8
  call void @llvm.dbg.declare(metadata %"class.xercesc_2_7::DTDScanner"** %this.addr, metadata !3035, metadata !DIExpression()), !dbg !3036
  %frombool = zext i1 %inLiteral to i8
  store i8 %frombool, i8* %inLiteral.addr, align 1
  call void @llvm.dbg.declare(metadata i8* %inLiteral.addr, metadata !3037, metadata !DIExpression()), !dbg !3038
  %frombool1 = zext i1 %inMarkup to i8
  store i8 %frombool1, i8* %inMarkup.addr, align 1
  call void @llvm.dbg.declare(metadata i8* %inMarkup.addr, metadata !3039, metadata !DIExpression()), !dbg !3040
  %this2 = load %"class.xercesc_2_7::DTDScanner"*, %"class.xercesc_2_7::DTDScanner"** %this.addr, align 8
  call void @llvm.dbg.declare(metadata i8* %gotSpace, metadata !3041, metadata !DIExpression()), !dbg !3042
  store i8 0, i8* %gotSpace, align 1, !dbg !3042
  %fReaderMgr = getelementptr inbounds %"class.xercesc_2_7::DTDScanner", %"class.xercesc_2_7::DTDScanner"* %this2, i32 0, i32 11, !dbg !3043
  %0 = load %"class.xercesc_2_7::ReaderMgr"*, %"class.xercesc_2_7::ReaderMgr"** %fReaderMgr, align 8, !dbg !3043
  %call = call zeroext i1 @_ZN11xercesc_2_79ReaderMgr12skippedSpaceEv(%"class.xercesc_2_7::ReaderMgr"* %0), !dbg !3045
  br i1 %call, label %if.then, label %if.end, !dbg !3046

if.then:                                          ; preds = %entry
  %fReaderMgr3 = getelementptr inbounds %"class.xercesc_2_7::DTDScanner", %"class.xercesc_2_7::DTDScanner"* %this2, i32 0, i32 11, !dbg !3047
  %1 = load %"class.xercesc_2_7::ReaderMgr"*, %"class.xercesc_2_7::ReaderMgr"** %fReaderMgr3, align 8, !dbg !3047
  %call4 = call zeroext i1 @_ZN11xercesc_2_79ReaderMgr14skipPastSpacesEb(%"class.xercesc_2_7::ReaderMgr"* %1, i1 zeroext false), !dbg !3049
  store i8 1, i8* %gotSpace, align 1, !dbg !3050
  br label %if.end, !dbg !3051

if.end:                                           ; preds = %if.then, %entry
  %fReaderMgr5 = getelementptr inbounds %"class.xercesc_2_7::DTDScanner", %"class.xercesc_2_7::DTDScanner"* %this2, i32 0, i32 11, !dbg !3052
  %2 = load %"class.xercesc_2_7::ReaderMgr"*, %"class.xercesc_2_7::ReaderMgr"** %fReaderMgr5, align 8, !dbg !3052
  %call6 = call zeroext i1 @_ZN11xercesc_2_79ReaderMgr11skippedCharEt(%"class.xercesc_2_7::ReaderMgr"* %2, i16 zeroext 37), !dbg !3054
  br i1 %call6, label %if.end8, label %if.then7, !dbg !3055

if.then7:                                         ; preds = %if.end
  %3 = load i8, i8* %gotSpace, align 1, !dbg !3056
  %tobool = trunc i8 %3 to i1, !dbg !3056
  store i1 %tobool, i1* %retval, align 1, !dbg !3057
  br label %return, !dbg !3057

if.end8:                                          ; preds = %if.end
  br label %while.body, !dbg !3058

while.body:                                       ; preds = %if.end8, %if.end23
  %4 = load i8, i8* %inLiteral.addr, align 1, !dbg !3059
  %tobool9 = trunc i8 %4 to i1, !dbg !3059
  %5 = load i8, i8* %inMarkup.addr, align 1, !dbg !3062
  %tobool10 = trunc i8 %5 to i1, !dbg !3062
  %call11 = call zeroext i1 @_ZN11xercesc_2_710DTDScanner11expandPERefEbbbb(%"class.xercesc_2_7::DTDScanner"* %this2, i1 zeroext false, i1 zeroext %tobool9, i1 zeroext %tobool10, i1 zeroext false), !dbg !3063
  br i1 %call11, label %if.end13, label %if.then12, !dbg !3064

if.then12:                                        ; preds = %while.body
  %fScanner = getelementptr inbounds %"class.xercesc_2_7::DTDScanner", %"class.xercesc_2_7::DTDScanner"* %this2, i32 0, i32 12, !dbg !3065
  %6 = load %"class.xercesc_2_7::XMLScanner"*, %"class.xercesc_2_7::XMLScanner"** %fScanner, align 8, !dbg !3065
  call void @_ZN11xercesc_2_710XMLScanner9emitErrorENS_7XMLErrs5CodesE(%"class.xercesc_2_7::XMLScanner"* %6, i32 226), !dbg !3066
  br label %if.end13, !dbg !3065

if.end13:                                         ; preds = %if.then12, %while.body
  %fReaderMgr14 = getelementptr inbounds %"class.xercesc_2_7::DTDScanner", %"class.xercesc_2_7::DTDScanner"* %this2, i32 0, i32 11, !dbg !3067
  %7 = load %"class.xercesc_2_7::ReaderMgr"*, %"class.xercesc_2_7::ReaderMgr"** %fReaderMgr14, align 8, !dbg !3067
  %call15 = call zeroext i1 @_ZN11xercesc_2_79ReaderMgr12skippedSpaceEv(%"class.xercesc_2_7::ReaderMgr"* %7), !dbg !3069
  br i1 %call15, label %if.then16, label %if.end19, !dbg !3070

if.then16:                                        ; preds = %if.end13
  %fReaderMgr17 = getelementptr inbounds %"class.xercesc_2_7::DTDScanner", %"class.xercesc_2_7::DTDScanner"* %this2, i32 0, i32 11, !dbg !3071
  %8 = load %"class.xercesc_2_7::ReaderMgr"*, %"class.xercesc_2_7::ReaderMgr"** %fReaderMgr17, align 8, !dbg !3071
  %call18 = call zeroext i1 @_ZN11xercesc_2_79ReaderMgr14skipPastSpacesEb(%"class.xercesc_2_7::ReaderMgr"* %8, i1 zeroext false), !dbg !3073
  store i8 1, i8* %gotSpace, align 1, !dbg !3074
  br label %if.end19, !dbg !3075

if.end19:                                         ; preds = %if.then16, %if.end13
  %fReaderMgr20 = getelementptr inbounds %"class.xercesc_2_7::DTDScanner", %"class.xercesc_2_7::DTDScanner"* %this2, i32 0, i32 11, !dbg !3076
  %9 = load %"class.xercesc_2_7::ReaderMgr"*, %"class.xercesc_2_7::ReaderMgr"** %fReaderMgr20, align 8, !dbg !3076
  %call21 = call zeroext i1 @_ZN11xercesc_2_79ReaderMgr11skippedCharEt(%"class.xercesc_2_7::ReaderMgr"* %9, i16 zeroext 37), !dbg !3078
  br i1 %call21, label %if.end23, label %if.then22, !dbg !3079

if.then22:                                        ; preds = %if.end19
  br label %while.end, !dbg !3080

if.end23:                                         ; preds = %if.end19
  br label %while.body, !dbg !3058, !llvm.loop !3081

while.end:                                        ; preds = %if.then22
  %10 = load i8, i8* %gotSpace, align 1, !dbg !3083
  %tobool24 = trunc i8 %10 to i1, !dbg !3083
  store i1 %tobool24, i1* %retval, align 1, !dbg !3084
  br label %return, !dbg !3084

return:                                           ; preds = %while.end, %if.then7
  %11 = load i1, i1* %retval, align 1, !dbg !3085
  ret i1 %11, !dbg !3085
}

declare dso_local zeroext i1 @_ZN11xercesc_2_79ReaderMgr12skippedSpaceEv(%"class.xercesc_2_7::ReaderMgr"*) #7

declare dso_local zeroext i1 @_ZN11xercesc_2_79ReaderMgr14skipPastSpacesEb(%"class.xercesc_2_7::ReaderMgr"*, i1 zeroext) #7

declare dso_local zeroext i1 @_ZN11xercesc_2_79ReaderMgr11skippedCharEt(%"class.xercesc_2_7::ReaderMgr"*, i16 zeroext) #7

; Function Attrs: noinline uwtable
define dso_local zeroext i1 @_ZN11xercesc_2_710DTDScanner11expandPERefEbbbb(%"class.xercesc_2_7::DTDScanner"* %this, i1 zeroext %scanExternal, i1 zeroext %inLiteral, i1 zeroext %inMarkup, i1 zeroext %throwEndOfExt) #6 align 2 personality i8* bitcast (i32 (...)* @__gxx_personality_v0 to i8*) !dbg !3086 {
entry:
  %retval = alloca i1, align 1
  %this.addr = alloca %"class.xercesc_2_7::DTDScanner"*, align 8
  %scanExternal.addr = alloca i8, align 1
  %inLiteral.addr = alloca i8, align 1
  %inMarkup.addr = alloca i8, align 1
  %throwEndOfExt.addr = alloca i8, align 1
  %bbName = alloca %"class.xercesc_2_7::XMLBufBid", align 8
  %exn.slot = alloca i8*
  %ehselector.slot = alloca i32
  %cleanup.dest.slot = alloca i32, align 4
  %decl = alloca %"class.xercesc_2_7::XMLEntityDecl"*, align 8
  %srcUsed = alloca %"class.xercesc_2_7::InputSource"*, align 8
  %reader = alloca %"class.xercesc_2_7::XMLReader"*, align 8
  %janSrc = alloca %"class.xercesc_2_7::Janitor", align 8
  %entHandler = alloca %"class.xercesc_2_7::XMLEntityHandler"*, align 8
  %readerNum = alloca i32, align 4
  %0 = alloca %"class.xercesc_2_7::OutOfMemoryException"*, align 8
  %valueReader = alloca %"class.xercesc_2_7::XMLReader"*, align 8
  store %"class.xercesc_2_7::DTDScanner"* %this, %"class.xercesc_2_7::DTDScanner"** %this.addr, align 8
  call void @llvm.dbg.declare(metadata %"class.xercesc_2_7::DTDScanner"** %this.addr, metadata !3087, metadata !DIExpression()), !dbg !3088
  %frombool = zext i1 %scanExternal to i8
  store i8 %frombool, i8* %scanExternal.addr, align 1
  call void @llvm.dbg.declare(metadata i8* %scanExternal.addr, metadata !3089, metadata !DIExpression()), !dbg !3090
  %frombool1 = zext i1 %inLiteral to i8
  store i8 %frombool1, i8* %inLiteral.addr, align 1
  call void @llvm.dbg.declare(metadata i8* %inLiteral.addr, metadata !3091, metadata !DIExpression()), !dbg !3092
  %frombool2 = zext i1 %inMarkup to i8
  store i8 %frombool2, i8* %inMarkup.addr, align 1
  call void @llvm.dbg.declare(metadata i8* %inMarkup.addr, metadata !3093, metadata !DIExpression()), !dbg !3094
  %frombool3 = zext i1 %throwEndOfExt to i8
  store i8 %frombool3, i8* %throwEndOfExt.addr, align 1
  call void @llvm.dbg.declare(metadata i8* %throwEndOfExt.addr, metadata !3095, metadata !DIExpression()), !dbg !3096
  %this4 = load %"class.xercesc_2_7::DTDScanner"*, %"class.xercesc_2_7::DTDScanner"** %this.addr, align 8
  %fScanner = getelementptr inbounds %"class.xercesc_2_7::DTDScanner", %"class.xercesc_2_7::DTDScanner"* %this4, i32 0, i32 12, !dbg !3097
  %1 = load %"class.xercesc_2_7::XMLScanner"*, %"class.xercesc_2_7::XMLScanner"** %fScanner, align 8, !dbg !3097
  call void @_ZN11xercesc_2_710XMLScanner11setHasNoDTDEb(%"class.xercesc_2_7::XMLScanner"* %1, i1 zeroext false), !dbg !3098
  call void @llvm.dbg.declare(metadata %"class.xercesc_2_7::XMLBufBid"* %bbName, metadata !3099, metadata !DIExpression()), !dbg !3148
  %fBufMgr = getelementptr inbounds %"class.xercesc_2_7::DTDScanner", %"class.xercesc_2_7::DTDScanner"* %this4, i32 0, i32 10, !dbg !3149
  %2 = load %"class.xercesc_2_7::XMLBufferMgr"*, %"class.xercesc_2_7::XMLBufferMgr"** %fBufMgr, align 8, !dbg !3149
  call void @_ZN11xercesc_2_79XMLBufBidC2EPNS_12XMLBufferMgrE(%"class.xercesc_2_7::XMLBufBid"* %bbName, %"class.xercesc_2_7::XMLBufferMgr"* %2), !dbg !3148
  %fInternalSubset = getelementptr inbounds %"class.xercesc_2_7::DTDScanner", %"class.xercesc_2_7::DTDScanner"* %this4, i32 0, i32 7, !dbg !3150
  %3 = load i8, i8* %fInternalSubset, align 8, !dbg !3150
  %tobool = trunc i8 %3 to i1, !dbg !3150
  br i1 %tobool, label %land.lhs.true, label %if.end, !dbg !3152

land.lhs.true:                                    ; preds = %entry
  %4 = load i8, i8* %inMarkup.addr, align 1, !dbg !3153
  %tobool5 = trunc i8 %4 to i1, !dbg !3153
  br i1 %tobool5, label %if.then, label %if.end, !dbg !3154

if.then:                                          ; preds = %land.lhs.true
  %fScanner6 = getelementptr inbounds %"class.xercesc_2_7::DTDScanner", %"class.xercesc_2_7::DTDScanner"* %this4, i32 0, i32 12, !dbg !3155
  %5 = load %"class.xercesc_2_7::XMLScanner"*, %"class.xercesc_2_7::XMLScanner"** %fScanner6, align 8, !dbg !3155
  invoke void @_ZN11xercesc_2_710XMLScanner9emitErrorENS_7XMLErrs5CodesE(%"class.xercesc_2_7::XMLScanner"* %5, i32 258)
          to label %invoke.cont unwind label %lpad, !dbg !3156

invoke.cont:                                      ; preds = %if.then
  br label %if.end, !dbg !3155

lpad:                                             ; preds = %invoke.cont177, %if.then175, %invoke.cont170, %invoke.cont168, %invoke.cont166, %invoke.cont162, %if.else160, %invoke.cont88, %invoke.cont86, %invoke.cont83, %invoke.cont79, %invoke.cont77, %invoke.cont75, %if.then73, %if.end70, %invoke.cont67, %invoke.cont65, %if.then63, %land.lhs.true60, %land.lhs.true56, %if.end52, %invoke.cont47, %invoke.cont45, %if.then43, %if.else, %invoke.cont37, %if.then35, %if.then31, %invoke.cont26, %if.end25, %invoke.cont22, %if.then20, %if.end16, %invoke.cont12, %if.then10, %invoke.cont7, %if.end, %if.then
  %6 = landingpad { i8*, i32 }
          cleanup, !dbg !3157
  %7 = extractvalue { i8*, i32 } %6, 0, !dbg !3157
  store i8* %7, i8** %exn.slot, align 8, !dbg !3157
  %8 = extractvalue { i8*, i32 } %6, 1, !dbg !3157
  store i32 %8, i32* %ehselector.slot, align 4, !dbg !3157
  br label %ehcleanup183, !dbg !3157

if.end:                                           ; preds = %invoke.cont, %land.lhs.true, %entry
  %fReaderMgr = getelementptr inbounds %"class.xercesc_2_7::DTDScanner", %"class.xercesc_2_7::DTDScanner"* %this4, i32 0, i32 11, !dbg !3158
  %9 = load %"class.xercesc_2_7::ReaderMgr"*, %"class.xercesc_2_7::ReaderMgr"** %fReaderMgr, align 8, !dbg !3158
  %call = invoke dereferenceable(40) %"class.xercesc_2_7::XMLBuffer"* @_ZN11xercesc_2_79XMLBufBid9getBufferEv(%"class.xercesc_2_7::XMLBufBid"* %bbName)
          to label %invoke.cont7 unwind label %lpad, !dbg !3160

invoke.cont7:                                     ; preds = %if.end
  %call9 = invoke zeroext i1 @_ZN11xercesc_2_79ReaderMgr7getNameERNS_9XMLBufferE(%"class.xercesc_2_7::ReaderMgr"* %9, %"class.xercesc_2_7::XMLBuffer"* dereferenceable(40) %call)
          to label %invoke.cont8 unwind label %lpad, !dbg !3161

invoke.cont8:                                     ; preds = %invoke.cont7
  br i1 %call9, label %if.end16, label %if.then10, !dbg !3162

if.then10:                                        ; preds = %invoke.cont8
  %fScanner11 = getelementptr inbounds %"class.xercesc_2_7::DTDScanner", %"class.xercesc_2_7::DTDScanner"* %this4, i32 0, i32 12, !dbg !3163
  %10 = load %"class.xercesc_2_7::XMLScanner"*, %"class.xercesc_2_7::XMLScanner"** %fScanner11, align 8, !dbg !3163
  invoke void @_ZN11xercesc_2_710XMLScanner9emitErrorENS_7XMLErrs5CodesE(%"class.xercesc_2_7::XMLScanner"* %10, i32 222)
          to label %invoke.cont12 unwind label %lpad, !dbg !3165

invoke.cont12:                                    ; preds = %if.then10
  %fReaderMgr13 = getelementptr inbounds %"class.xercesc_2_7::DTDScanner", %"class.xercesc_2_7::DTDScanner"* %this4, i32 0, i32 11, !dbg !3166
  %11 = load %"class.xercesc_2_7::ReaderMgr"*, %"class.xercesc_2_7::ReaderMgr"** %fReaderMgr13, align 8, !dbg !3166
  %call15 = invoke zeroext i1 @_ZN11xercesc_2_79ReaderMgr11skippedCharEt(%"class.xercesc_2_7::ReaderMgr"* %11, i16 zeroext 59)
          to label %invoke.cont14 unwind label %lpad, !dbg !3167

invoke.cont14:                                    ; preds = %invoke.cont12
  store i1 false, i1* %retval, align 1, !dbg !3168
  store i32 1, i32* %cleanup.dest.slot, align 4
  br label %cleanup182, !dbg !3168

if.end16:                                         ; preds = %invoke.cont8
  %fReaderMgr17 = getelementptr inbounds %"class.xercesc_2_7::DTDScanner", %"class.xercesc_2_7::DTDScanner"* %this4, i32 0, i32 11, !dbg !3169
  %12 = load %"class.xercesc_2_7::ReaderMgr"*, %"class.xercesc_2_7::ReaderMgr"** %fReaderMgr17, align 8, !dbg !3169
  %call19 = invoke zeroext i1 @_ZN11xercesc_2_79ReaderMgr11skippedCharEt(%"class.xercesc_2_7::ReaderMgr"* %12, i16 zeroext 59)
          to label %invoke.cont18 unwind label %lpad, !dbg !3171

invoke.cont18:                                    ; preds = %if.end16
  br i1 %call19, label %if.end25, label %if.then20, !dbg !3172

if.then20:                                        ; preds = %invoke.cont18
  %fScanner21 = getelementptr inbounds %"class.xercesc_2_7::DTDScanner", %"class.xercesc_2_7::DTDScanner"* %this4, i32 0, i32 12, !dbg !3173
  %13 = load %"class.xercesc_2_7::XMLScanner"*, %"class.xercesc_2_7::XMLScanner"** %fScanner21, align 8, !dbg !3173
  %call23 = invoke i16* @_ZN11xercesc_2_79XMLBufBid12getRawBufferEv(%"class.xercesc_2_7::XMLBufBid"* %bbName)
          to label %invoke.cont22 unwind label %lpad, !dbg !3174

invoke.cont22:                                    ; preds = %if.then20
  invoke void @_ZN11xercesc_2_710XMLScanner9emitErrorENS_7XMLErrs5CodesEPKtS4_S4_S4_(%"class.xercesc_2_7::XMLScanner"* %13, i32 229, i16* %call23, i16* null, i16* null, i16* null)
          to label %invoke.cont24 unwind label %lpad, !dbg !3175

invoke.cont24:                                    ; preds = %invoke.cont22
  br label %if.end25, !dbg !3173

if.end25:                                         ; preds = %invoke.cont24, %invoke.cont18
  call void @llvm.dbg.declare(metadata %"class.xercesc_2_7::XMLEntityDecl"** %decl, metadata !3176, metadata !DIExpression()), !dbg !3178
  %fPEntityDeclPool = getelementptr inbounds %"class.xercesc_2_7::DTDScanner", %"class.xercesc_2_7::DTDScanner"* %this4, i32 0, i32 13, !dbg !3179
  %14 = load %"class.xercesc_2_7::NameIdPool.0"*, %"class.xercesc_2_7::NameIdPool.0"** %fPEntityDeclPool, align 8, !dbg !3179
  %call27 = invoke i16* @_ZN11xercesc_2_79XMLBufBid12getRawBufferEv(%"class.xercesc_2_7::XMLBufBid"* %bbName)
          to label %invoke.cont26 unwind label %lpad, !dbg !3180

invoke.cont26:                                    ; preds = %if.end25
  %call29 = invoke %"class.xercesc_2_7::DTDEntityDecl"* @_ZN11xercesc_2_710NameIdPoolINS_13DTDEntityDeclEE8getByKeyEPKt(%"class.xercesc_2_7::NameIdPool.0"* %14, i16* %call27)
          to label %invoke.cont28 unwind label %lpad, !dbg !3181

invoke.cont28:                                    ; preds = %invoke.cont26
  %15 = bitcast %"class.xercesc_2_7::DTDEntityDecl"* %call29 to %"class.xercesc_2_7::XMLEntityDecl"*, !dbg !3179
  store %"class.xercesc_2_7::XMLEntityDecl"* %15, %"class.xercesc_2_7::XMLEntityDecl"** %decl, align 8, !dbg !3178
  %16 = load %"class.xercesc_2_7::XMLEntityDecl"*, %"class.xercesc_2_7::XMLEntityDecl"** %decl, align 8, !dbg !3182
  %tobool30 = icmp ne %"class.xercesc_2_7::XMLEntityDecl"* %16, null, !dbg !3182
  br i1 %tobool30, label %if.end52, label %if.then31, !dbg !3184

if.then31:                                        ; preds = %invoke.cont28
  %fScanner32 = getelementptr inbounds %"class.xercesc_2_7::DTDScanner", %"class.xercesc_2_7::DTDScanner"* %this4, i32 0, i32 12, !dbg !3185
  %17 = load %"class.xercesc_2_7::XMLScanner"*, %"class.xercesc_2_7::XMLScanner"** %fScanner32, align 8, !dbg !3185
  %call34 = invoke zeroext i1 @_ZNK11xercesc_2_710XMLScanner13getStandaloneEv(%"class.xercesc_2_7::XMLScanner"* %17)
          to label %invoke.cont33 unwind label %lpad, !dbg !3188

invoke.cont33:                                    ; preds = %if.then31
  br i1 %call34, label %if.then35, label %if.else, !dbg !3189

if.then35:                                        ; preds = %invoke.cont33
  %fScanner36 = getelementptr inbounds %"class.xercesc_2_7::DTDScanner", %"class.xercesc_2_7::DTDScanner"* %this4, i32 0, i32 12, !dbg !3190
  %18 = load %"class.xercesc_2_7::XMLScanner"*, %"class.xercesc_2_7::XMLScanner"** %fScanner36, align 8, !dbg !3190
  %call38 = invoke i16* @_ZN11xercesc_2_79XMLBufBid12getRawBufferEv(%"class.xercesc_2_7::XMLBufBid"* %bbName)
          to label %invoke.cont37 unwind label %lpad, !dbg !3192

invoke.cont37:                                    ; preds = %if.then35
  invoke void @_ZN11xercesc_2_710XMLScanner9emitErrorENS_7XMLErrs5CodesEPKtS4_S4_S4_(%"class.xercesc_2_7::XMLScanner"* %18, i32 227, i16* %call38, i16* null, i16* null, i16* null)
          to label %invoke.cont39 unwind label %lpad, !dbg !3193

invoke.cont39:                                    ; preds = %invoke.cont37
  br label %if.end51, !dbg !3194

if.else:                                          ; preds = %invoke.cont33
  %fScanner40 = getelementptr inbounds %"class.xercesc_2_7::DTDScanner", %"class.xercesc_2_7::DTDScanner"* %this4, i32 0, i32 12, !dbg !3195
  %19 = load %"class.xercesc_2_7::XMLScanner"*, %"class.xercesc_2_7::XMLScanner"** %fScanner40, align 8, !dbg !3195
  %call42 = invoke zeroext i1 @_ZNK11xercesc_2_710XMLScanner15getDoValidationEv(%"class.xercesc_2_7::XMLScanner"* %19)
          to label %invoke.cont41 unwind label %lpad, !dbg !3198

invoke.cont41:                                    ; preds = %if.else
  br i1 %call42, label %if.then43, label %if.end50, !dbg !3199

if.then43:                                        ; preds = %invoke.cont41
  %fScanner44 = getelementptr inbounds %"class.xercesc_2_7::DTDScanner", %"class.xercesc_2_7::DTDScanner"* %this4, i32 0, i32 12, !dbg !3200
  %20 = load %"class.xercesc_2_7::XMLScanner"*, %"class.xercesc_2_7::XMLScanner"** %fScanner44, align 8, !dbg !3200
  %call46 = invoke %"class.xercesc_2_7::XMLValidator"* @_ZN11xercesc_2_710XMLScanner12getValidatorEv(%"class.xercesc_2_7::XMLScanner"* %20)
          to label %invoke.cont45 unwind label %lpad, !dbg !3201

invoke.cont45:                                    ; preds = %if.then43
  %call48 = invoke i16* @_ZN11xercesc_2_79XMLBufBid12getRawBufferEv(%"class.xercesc_2_7::XMLBufBid"* %bbName)
          to label %invoke.cont47 unwind label %lpad, !dbg !3202

invoke.cont47:                                    ; preds = %invoke.cont45
  invoke void @_ZN11xercesc_2_712XMLValidator9emitErrorENS_8XMLValid5CodesEPKtS4_S4_S4_(%"class.xercesc_2_7::XMLValidator"* %call46, i32 85, i16* %call48, i16* null, i16* null, i16* null)
          to label %invoke.cont49 unwind label %lpad, !dbg !3203

invoke.cont49:                                    ; preds = %invoke.cont47
  br label %if.end50, !dbg !3200

if.end50:                                         ; preds = %invoke.cont49, %invoke.cont41
  br label %if.end51

if.end51:                                         ; preds = %if.end50, %invoke.cont39
  store i1 false, i1* %retval, align 1, !dbg !3204
  store i32 1, i32* %cleanup.dest.slot, align 4
  br label %cleanup182, !dbg !3204

if.end52:                                         ; preds = %invoke.cont28
  %fScanner53 = getelementptr inbounds %"class.xercesc_2_7::DTDScanner", %"class.xercesc_2_7::DTDScanner"* %this4, i32 0, i32 12, !dbg !3205
  %21 = load %"class.xercesc_2_7::XMLScanner"*, %"class.xercesc_2_7::XMLScanner"** %fScanner53, align 8, !dbg !3205
  %call55 = invoke zeroext i1 @_ZNK11xercesc_2_710XMLScanner15getDoValidationEv(%"class.xercesc_2_7::XMLScanner"* %21)
          to label %invoke.cont54 unwind label %lpad, !dbg !3207

invoke.cont54:                                    ; preds = %if.end52
  br i1 %call55, label %land.lhs.true56, label %if.end70, !dbg !3208

land.lhs.true56:                                  ; preds = %invoke.cont54
  %fScanner57 = getelementptr inbounds %"class.xercesc_2_7::DTDScanner", %"class.xercesc_2_7::DTDScanner"* %this4, i32 0, i32 12, !dbg !3209
  %22 = load %"class.xercesc_2_7::XMLScanner"*, %"class.xercesc_2_7::XMLScanner"** %fScanner57, align 8, !dbg !3209
  %call59 = invoke zeroext i1 @_ZNK11xercesc_2_710XMLScanner13getStandaloneEv(%"class.xercesc_2_7::XMLScanner"* %22)
          to label %invoke.cont58 unwind label %lpad, !dbg !3210

invoke.cont58:                                    ; preds = %land.lhs.true56
  br i1 %call59, label %land.lhs.true60, label %if.end70, !dbg !3211

land.lhs.true60:                                  ; preds = %invoke.cont58
  %23 = load %"class.xercesc_2_7::XMLEntityDecl"*, %"class.xercesc_2_7::XMLEntityDecl"** %decl, align 8, !dbg !3212
  %24 = bitcast %"class.xercesc_2_7::XMLEntityDecl"* %23 to i1 (%"class.xercesc_2_7::XMLEntityDecl"*)***, !dbg !3213
  %vtable = load i1 (%"class.xercesc_2_7::XMLEntityDecl"*)**, i1 (%"class.xercesc_2_7::XMLEntityDecl"*)*** %24, align 8, !dbg !3213
  %vfn = getelementptr inbounds i1 (%"class.xercesc_2_7::XMLEntityDecl"*)*, i1 (%"class.xercesc_2_7::XMLEntityDecl"*)** %vtable, i64 5, !dbg !3213
  %25 = load i1 (%"class.xercesc_2_7::XMLEntityDecl"*)*, i1 (%"class.xercesc_2_7::XMLEntityDecl"*)** %vfn, align 8, !dbg !3213
  %call62 = invoke zeroext i1 %25(%"class.xercesc_2_7::XMLEntityDecl"* %23)
          to label %invoke.cont61 unwind label %lpad, !dbg !3213

invoke.cont61:                                    ; preds = %land.lhs.true60
  br i1 %call62, label %if.end70, label %if.then63, !dbg !3214

if.then63:                                        ; preds = %invoke.cont61
  %fScanner64 = getelementptr inbounds %"class.xercesc_2_7::DTDScanner", %"class.xercesc_2_7::DTDScanner"* %this4, i32 0, i32 12, !dbg !3215
  %26 = load %"class.xercesc_2_7::XMLScanner"*, %"class.xercesc_2_7::XMLScanner"** %fScanner64, align 8, !dbg !3215
  %call66 = invoke %"class.xercesc_2_7::XMLValidator"* @_ZN11xercesc_2_710XMLScanner12getValidatorEv(%"class.xercesc_2_7::XMLScanner"* %26)
          to label %invoke.cont65 unwind label %lpad, !dbg !3216

invoke.cont65:                                    ; preds = %if.then63
  %call68 = invoke i16* @_ZN11xercesc_2_79XMLBufBid12getRawBufferEv(%"class.xercesc_2_7::XMLBufBid"* %bbName)
          to label %invoke.cont67 unwind label %lpad, !dbg !3217

invoke.cont67:                                    ; preds = %invoke.cont65
  invoke void @_ZN11xercesc_2_712XMLValidator9emitErrorENS_8XMLValid5CodesEPKtS4_S4_S4_(%"class.xercesc_2_7::XMLValidator"* %call66, i32 81, i16* %call68, i16* null, i16* null, i16* null)
          to label %invoke.cont69 unwind label %lpad, !dbg !3218

invoke.cont69:                                    ; preds = %invoke.cont67
  br label %if.end70, !dbg !3215

if.end70:                                         ; preds = %invoke.cont69, %invoke.cont61, %invoke.cont58, %invoke.cont54
  %27 = load %"class.xercesc_2_7::XMLEntityDecl"*, %"class.xercesc_2_7::XMLEntityDecl"** %decl, align 8, !dbg !3219
  %call72 = invoke zeroext i1 @_ZNK11xercesc_2_713XMLEntityDecl10isExternalEv(%"class.xercesc_2_7::XMLEntityDecl"* %27)
          to label %invoke.cont71 unwind label %lpad, !dbg !3221

invoke.cont71:                                    ; preds = %if.end70
  br i1 %call72, label %if.then73, label %if.else160, !dbg !3222

if.then73:                                        ; preds = %invoke.cont71
  call void @llvm.dbg.declare(metadata %"class.xercesc_2_7::InputSource"** %srcUsed, metadata !3223, metadata !DIExpression()), !dbg !3228
  call void @llvm.dbg.declare(metadata %"class.xercesc_2_7::XMLReader"** %reader, metadata !3229, metadata !DIExpression()), !dbg !3231
  %fReaderMgr74 = getelementptr inbounds %"class.xercesc_2_7::DTDScanner", %"class.xercesc_2_7::DTDScanner"* %this4, i32 0, i32 11, !dbg !3232
  %28 = load %"class.xercesc_2_7::ReaderMgr"*, %"class.xercesc_2_7::ReaderMgr"** %fReaderMgr74, align 8, !dbg !3232
  %29 = load %"class.xercesc_2_7::XMLEntityDecl"*, %"class.xercesc_2_7::XMLEntityDecl"** %decl, align 8, !dbg !3233
  %call76 = invoke i16* @_ZNK11xercesc_2_713XMLEntityDecl10getBaseURIEv(%"class.xercesc_2_7::XMLEntityDecl"* %29)
          to label %invoke.cont75 unwind label %lpad, !dbg !3234

invoke.cont75:                                    ; preds = %if.then73
  %30 = load %"class.xercesc_2_7::XMLEntityDecl"*, %"class.xercesc_2_7::XMLEntityDecl"** %decl, align 8, !dbg !3235
  %call78 = invoke i16* @_ZNK11xercesc_2_713XMLEntityDecl11getSystemIdEv(%"class.xercesc_2_7::XMLEntityDecl"* %30)
          to label %invoke.cont77 unwind label %lpad, !dbg !3236

invoke.cont77:                                    ; preds = %invoke.cont75
  %31 = load %"class.xercesc_2_7::XMLEntityDecl"*, %"class.xercesc_2_7::XMLEntityDecl"** %decl, align 8, !dbg !3237
  %call80 = invoke i16* @_ZNK11xercesc_2_713XMLEntityDecl11getPublicIdEv(%"class.xercesc_2_7::XMLEntityDecl"* %31)
          to label %invoke.cont79 unwind label %lpad, !dbg !3238

invoke.cont79:                                    ; preds = %invoke.cont77
  %32 = load i8, i8* %inLiteral.addr, align 1, !dbg !3239
  %tobool81 = trunc i8 %32 to i1, !dbg !3239
  %33 = zext i1 %tobool81 to i64, !dbg !3239
  %cond = select i1 %tobool81, i32 0, i32 1, !dbg !3239
  %fScanner82 = getelementptr inbounds %"class.xercesc_2_7::DTDScanner", %"class.xercesc_2_7::DTDScanner"* %this4, i32 0, i32 12, !dbg !3240
  %34 = load %"class.xercesc_2_7::XMLScanner"*, %"class.xercesc_2_7::XMLScanner"** %fScanner82, align 8, !dbg !3240
  %call84 = invoke zeroext i1 @_ZNK11xercesc_2_710XMLScanner18getCalculateSrcOfsEv(%"class.xercesc_2_7::XMLScanner"* %34)
          to label %invoke.cont83 unwind label %lpad, !dbg !3241

invoke.cont83:                                    ; preds = %invoke.cont79
  %fScanner85 = getelementptr inbounds %"class.xercesc_2_7::DTDScanner", %"class.xercesc_2_7::DTDScanner"* %this4, i32 0, i32 12, !dbg !3242
  %35 = load %"class.xercesc_2_7::XMLScanner"*, %"class.xercesc_2_7::XMLScanner"** %fScanner85, align 8, !dbg !3242
  %call87 = invoke zeroext i1 @_ZNK11xercesc_2_710XMLScanner33getDisableDefaultEntityResolutionEv(%"class.xercesc_2_7::XMLScanner"* %35)
          to label %invoke.cont86 unwind label %lpad, !dbg !3243

invoke.cont86:                                    ; preds = %invoke.cont83
  %call89 = invoke %"class.xercesc_2_7::XMLReader"* @_ZN11xercesc_2_79ReaderMgr12createReaderEPKtS2_S2_bNS_9XMLReader7RefFromENS3_5TypesENS3_7SourcesERPNS_11InputSourceEbb(%"class.xercesc_2_7::ReaderMgr"* %28, i16* %call76, i16* %call78, i16* %call80, i1 zeroext false, i32 %cond, i32 0, i32 1, %"class.xercesc_2_7::InputSource"** dereferenceable(8) %srcUsed, i1 zeroext %call84, i1 zeroext %call87)
          to label %invoke.cont88 unwind label %lpad, !dbg !3244

invoke.cont88:                                    ; preds = %invoke.cont86
  store %"class.xercesc_2_7::XMLReader"* %call89, %"class.xercesc_2_7::XMLReader"** %reader, align 8, !dbg !3231
  call void @llvm.dbg.declare(metadata %"class.xercesc_2_7::Janitor"* %janSrc, metadata !3245, metadata !DIExpression()), !dbg !3290
  %36 = load %"class.xercesc_2_7::InputSource"*, %"class.xercesc_2_7::InputSource"** %srcUsed, align 8, !dbg !3291
  invoke void @_ZN11xercesc_2_77JanitorINS_11InputSourceEEC2EPS1_(%"class.xercesc_2_7::Janitor"* %janSrc, %"class.xercesc_2_7::InputSource"* %36)
          to label %invoke.cont90 unwind label %lpad, !dbg !3290

invoke.cont90:                                    ; preds = %invoke.cont88
  %37 = load %"class.xercesc_2_7::XMLReader"*, %"class.xercesc_2_7::XMLReader"** %reader, align 8, !dbg !3292
  %tobool91 = icmp ne %"class.xercesc_2_7::XMLReader"* %37, null, !dbg !3292
  br i1 %tobool91, label %if.end104, label %if.then92, !dbg !3294

if.then92:                                        ; preds = %invoke.cont90
  %exception = call i8* @__cxa_allocate_exception(i64 48) #10, !dbg !3295
  %38 = bitcast i8* %exception to %"class.xercesc_2_7::RuntimeException"*, !dbg !3295
  %39 = load %"class.xercesc_2_7::InputSource"*, %"class.xercesc_2_7::InputSource"** %srcUsed, align 8, !dbg !3295
  %tobool93 = icmp ne %"class.xercesc_2_7::InputSource"* %39, null, !dbg !3295
  br i1 %tobool93, label %cond.true, label %cond.false, !dbg !3295

cond.true:                                        ; preds = %if.then92
  %40 = load %"class.xercesc_2_7::InputSource"*, %"class.xercesc_2_7::InputSource"** %srcUsed, align 8, !dbg !3295
  %41 = bitcast %"class.xercesc_2_7::InputSource"* %40 to i16* (%"class.xercesc_2_7::InputSource"*)***, !dbg !3295
  %vtable94 = load i16* (%"class.xercesc_2_7::InputSource"*)**, i16* (%"class.xercesc_2_7::InputSource"*)*** %41, align 8, !dbg !3295
  %vfn95 = getelementptr inbounds i16* (%"class.xercesc_2_7::InputSource"*)*, i16* (%"class.xercesc_2_7::InputSource"*)** %vtable94, i64 5, !dbg !3295
  %42 = load i16* (%"class.xercesc_2_7::InputSource"*)*, i16* (%"class.xercesc_2_7::InputSource"*)** %vfn95, align 8, !dbg !3295
  %call98 = invoke i16* %42(%"class.xercesc_2_7::InputSource"* %40)
          to label %invoke.cont97 unwind label %lpad96, !dbg !3295

invoke.cont97:                                    ; preds = %cond.true
  br label %cond.end, !dbg !3295

cond.false:                                       ; preds = %if.then92
  %43 = load %"class.xercesc_2_7::XMLEntityDecl"*, %"class.xercesc_2_7::XMLEntityDecl"** %decl, align 8, !dbg !3295
  %call100 = invoke i16* @_ZNK11xercesc_2_713XMLEntityDecl11getSystemIdEv(%"class.xercesc_2_7::XMLEntityDecl"* %43)
          to label %invoke.cont99 unwind label %lpad96, !dbg !3295

invoke.cont99:                                    ; preds = %cond.false
  br label %cond.end, !dbg !3295

cond.end:                                         ; preds = %invoke.cont99, %invoke.cont97
  %cond101 = phi i16* [ %call98, %invoke.cont97 ], [ %call100, %invoke.cont99 ], !dbg !3295
  %fMemoryManager = getelementptr inbounds %"class.xercesc_2_7::DTDScanner", %"class.xercesc_2_7::DTDScanner"* %this4, i32 0, i32 1, !dbg !3295
  %44 = load %"class.xercesc_2_7::MemoryManager"*, %"class.xercesc_2_7::MemoryManager"** %fMemoryManager, align 8, !dbg !3295
  invoke void @_ZN11xercesc_2_716RuntimeExceptionC2EPKcjNS_10XMLExcepts5CodesEPKtS6_S6_S6_PNS_13MemoryManagerE(%"class.xercesc_2_7::RuntimeException"* %38, i8* getelementptr inbounds ([15 x i8], [15 x i8]* @.str, i64 0, i64 0), i32 277, i32 46, i16* %cond101, i16* null, i16* null, i16* null, %"class.xercesc_2_7::MemoryManager"* %44)
          to label %invoke.cont102 unwind label %lpad96, !dbg !3295

invoke.cont102:                                   ; preds = %cond.end
  invoke void @__cxa_throw(i8* %exception, i8* bitcast ({ i8*, i8*, i8* }* @_ZTIN11xercesc_2_716RuntimeExceptionE to i8*), i8* bitcast (void (%"class.xercesc_2_7::RuntimeException"*)* @_ZN11xercesc_2_716RuntimeExceptionD2Ev to i8*)) #13
          to label %unreachable unwind label %lpad103, !dbg !3295

lpad96:                                           ; preds = %cond.end, %cond.false, %cond.true
  %45 = landingpad { i8*, i32 }
          cleanup, !dbg !3296
  %46 = extractvalue { i8*, i32 } %45, 0, !dbg !3296
  store i8* %46, i8** %exn.slot, align 8, !dbg !3296
  %47 = extractvalue { i8*, i32 } %45, 1, !dbg !3296
  store i32 %47, i32* %ehselector.slot, align 4, !dbg !3296
  call void @__cxa_free_exception(i8* %exception) #10, !dbg !3295
  br label %ehcleanup, !dbg !3295

lpad103:                                          ; preds = %if.then156, %if.else152, %if.then147, %if.end126, %if.then122, %if.then117, %invoke.cont112, %if.then110, %invoke.cont106, %if.end104, %invoke.cont102
  %48 = landingpad { i8*, i32 }
          cleanup, !dbg !3296
  %49 = extractvalue { i8*, i32 } %48, 0, !dbg !3296
  store i8* %49, i8** %exn.slot, align 8, !dbg !3296
  %50 = extractvalue { i8*, i32 } %48, 1, !dbg !3296
  store i32 %50, i32* %ehselector.slot, align 4, !dbg !3296
  br label %ehcleanup, !dbg !3296

if.end104:                                        ; preds = %invoke.cont90
  %51 = load %"class.xercesc_2_7::XMLReader"*, %"class.xercesc_2_7::XMLReader"** %reader, align 8, !dbg !3297
  %52 = load i8, i8* %throwEndOfExt.addr, align 1, !dbg !3298
  %tobool105 = trunc i8 %52 to i1, !dbg !3298
  invoke void @_ZN11xercesc_2_79XMLReader13setThrowAtEndEb(%"class.xercesc_2_7::XMLReader"* %51, i1 zeroext %tobool105)
          to label %invoke.cont106 unwind label %lpad103, !dbg !3299

invoke.cont106:                                   ; preds = %if.end104
  %fReaderMgr107 = getelementptr inbounds %"class.xercesc_2_7::DTDScanner", %"class.xercesc_2_7::DTDScanner"* %this4, i32 0, i32 11, !dbg !3300
  %53 = load %"class.xercesc_2_7::ReaderMgr"*, %"class.xercesc_2_7::ReaderMgr"** %fReaderMgr107, align 8, !dbg !3300
  %54 = load %"class.xercesc_2_7::XMLReader"*, %"class.xercesc_2_7::XMLReader"** %reader, align 8, !dbg !3302
  %55 = load %"class.xercesc_2_7::XMLEntityDecl"*, %"class.xercesc_2_7::XMLEntityDecl"** %decl, align 8, !dbg !3303
  %call109 = invoke zeroext i1 @_ZN11xercesc_2_79ReaderMgr10pushReaderEPNS_9XMLReaderEPNS_13XMLEntityDeclE(%"class.xercesc_2_7::ReaderMgr"* %53, %"class.xercesc_2_7::XMLReader"* %54, %"class.xercesc_2_7::XMLEntityDecl"* %55)
          to label %invoke.cont108 unwind label %lpad103, !dbg !3304

invoke.cont108:                                   ; preds = %invoke.cont106
  br i1 %call109, label %if.end115, label %if.then110, !dbg !3305

if.then110:                                       ; preds = %invoke.cont108
  %fScanner111 = getelementptr inbounds %"class.xercesc_2_7::DTDScanner", %"class.xercesc_2_7::DTDScanner"* %this4, i32 0, i32 12, !dbg !3306
  %56 = load %"class.xercesc_2_7::XMLScanner"*, %"class.xercesc_2_7::XMLScanner"** %fScanner111, align 8, !dbg !3306
  %57 = load %"class.xercesc_2_7::XMLEntityDecl"*, %"class.xercesc_2_7::XMLEntityDecl"** %decl, align 8, !dbg !3308
  %call113 = invoke i16* @_ZNK11xercesc_2_713XMLEntityDecl7getNameEv(%"class.xercesc_2_7::XMLEntityDecl"* %57)
          to label %invoke.cont112 unwind label %lpad103, !dbg !3309

invoke.cont112:                                   ; preds = %if.then110
  invoke void @_ZN11xercesc_2_710XMLScanner9emitErrorENS_7XMLErrs5CodesEPKtS4_S4_S4_(%"class.xercesc_2_7::XMLScanner"* %56, i32 230, i16* %call113, i16* null, i16* null, i16* null)
          to label %invoke.cont114 unwind label %lpad103, !dbg !3310

invoke.cont114:                                   ; preds = %invoke.cont112
  store i1 false, i1* %retval, align 1, !dbg !3311
  store i32 1, i32* %cleanup.dest.slot, align 4
  br label %cleanup, !dbg !3311

if.end115:                                        ; preds = %invoke.cont108
  %58 = load i8, i8* %scanExternal.addr, align 1, !dbg !3312
  %tobool116 = trunc i8 %58 to i1, !dbg !3312
  br i1 %tobool116, label %if.then117, label %if.else152, !dbg !3314

if.then117:                                       ; preds = %if.end115
  call void @llvm.dbg.declare(metadata %"class.xercesc_2_7::XMLEntityHandler"** %entHandler, metadata !3315, metadata !DIExpression()), !dbg !3320
  %fScanner118 = getelementptr inbounds %"class.xercesc_2_7::DTDScanner", %"class.xercesc_2_7::DTDScanner"* %this4, i32 0, i32 12, !dbg !3321
  %59 = load %"class.xercesc_2_7::XMLScanner"*, %"class.xercesc_2_7::XMLScanner"** %fScanner118, align 8, !dbg !3321
  %call120 = invoke %"class.xercesc_2_7::XMLEntityHandler"* @_ZN11xercesc_2_710XMLScanner16getEntityHandlerEv(%"class.xercesc_2_7::XMLScanner"* %59)
          to label %invoke.cont119 unwind label %lpad103, !dbg !3322

invoke.cont119:                                   ; preds = %if.then117
  store %"class.xercesc_2_7::XMLEntityHandler"* %call120, %"class.xercesc_2_7::XMLEntityHandler"** %entHandler, align 8, !dbg !3320
  %60 = load %"class.xercesc_2_7::XMLEntityHandler"*, %"class.xercesc_2_7::XMLEntityHandler"** %entHandler, align 8, !dbg !3323
  %tobool121 = icmp ne %"class.xercesc_2_7::XMLEntityHandler"* %60, null, !dbg !3323
  br i1 %tobool121, label %if.then122, label %if.end126, !dbg !3325

if.then122:                                       ; preds = %invoke.cont119
  %61 = load %"class.xercesc_2_7::XMLEntityHandler"*, %"class.xercesc_2_7::XMLEntityHandler"** %entHandler, align 8, !dbg !3326
  %62 = load %"class.xercesc_2_7::InputSource"*, %"class.xercesc_2_7::InputSource"** %srcUsed, align 8, !dbg !3327
  %63 = bitcast %"class.xercesc_2_7::XMLEntityHandler"* %61 to void (%"class.xercesc_2_7::XMLEntityHandler"*, %"class.xercesc_2_7::InputSource"*)***, !dbg !3328
  %vtable123 = load void (%"class.xercesc_2_7::XMLEntityHandler"*, %"class.xercesc_2_7::InputSource"*)**, void (%"class.xercesc_2_7::XMLEntityHandler"*, %"class.xercesc_2_7::InputSource"*)*** %63, align 8, !dbg !3328
  %vfn124 = getelementptr inbounds void (%"class.xercesc_2_7::XMLEntityHandler"*, %"class.xercesc_2_7::InputSource"*)*, void (%"class.xercesc_2_7::XMLEntityHandler"*, %"class.xercesc_2_7::InputSource"*)** %vtable123, i64 7, !dbg !3328
  %64 = load void (%"class.xercesc_2_7::XMLEntityHandler"*, %"class.xercesc_2_7::InputSource"*)*, void (%"class.xercesc_2_7::XMLEntityHandler"*, %"class.xercesc_2_7::InputSource"*)** %vfn124, align 8, !dbg !3328
  invoke void %64(%"class.xercesc_2_7::XMLEntityHandler"* %61, %"class.xercesc_2_7::InputSource"* dereferenceable(48) %62)
          to label %invoke.cont125 unwind label %lpad103, !dbg !3328

invoke.cont125:                                   ; preds = %if.then122
  br label %if.end126, !dbg !3326

if.end126:                                        ; preds = %invoke.cont125, %invoke.cont119
  call void @llvm.dbg.declare(metadata i32* %readerNum, metadata !3329, metadata !DIExpression()), !dbg !3330
  %fReaderMgr127 = getelementptr inbounds %"class.xercesc_2_7::DTDScanner", %"class.xercesc_2_7::DTDScanner"* %this4, i32 0, i32 11, !dbg !3331
  %65 = load %"class.xercesc_2_7::ReaderMgr"*, %"class.xercesc_2_7::ReaderMgr"** %fReaderMgr127, align 8, !dbg !3331
  %call129 = invoke i32 @_ZNK11xercesc_2_79ReaderMgr19getCurrentReaderNumEv(%"class.xercesc_2_7::ReaderMgr"* %65)
          to label %invoke.cont128 unwind label %lpad103, !dbg !3332

invoke.cont128:                                   ; preds = %if.end126
  store i32 %call129, i32* %readerNum, align 4, !dbg !3330
  invoke void @_ZN11xercesc_2_710DTDScanner17scanExtSubsetDeclEbb(%"class.xercesc_2_7::DTDScanner"* %this4, i1 zeroext false, i1 zeroext false)
          to label %invoke.cont131 unwind label %lpad130, !dbg !3333

invoke.cont131:                                   ; preds = %invoke.cont128
  br label %try.cont, !dbg !3335

lpad130:                                          ; preds = %invoke.cont128
  %66 = landingpad { i8*, i32 }
          catch i8* bitcast ({ i8*, i8*, i8* }* @_ZTIN11xercesc_2_720OutOfMemoryExceptionE to i8*)
          catch i8* null, !dbg !3336
  %67 = extractvalue { i8*, i32 } %66, 0, !dbg !3336
  store i8* %67, i8** %exn.slot, align 8, !dbg !3336
  %68 = extractvalue { i8*, i32 } %66, 1, !dbg !3336
  store i32 %68, i32* %ehselector.slot, align 4, !dbg !3336
  br label %catch.dispatch, !dbg !3336

catch.dispatch:                                   ; preds = %lpad130
  %sel = load i32, i32* %ehselector.slot, align 4, !dbg !3335
  %69 = call i32 @llvm.eh.typeid.for(i8* bitcast ({ i8*, i8*, i8* }* @_ZTIN11xercesc_2_720OutOfMemoryExceptionE to i8*)) #10, !dbg !3335
  %matches = icmp eq i32 %sel, %69, !dbg !3335
  br i1 %matches, label %catch142, label %catch, !dbg !3335

catch142:                                         ; preds = %catch.dispatch
  call void @llvm.dbg.declare(metadata %"class.xercesc_2_7::OutOfMemoryException"** %0, metadata !3337, metadata !DIExpression()), !dbg !3370
  %exn143 = load i8*, i8** %exn.slot, align 8, !dbg !3371
  %70 = call i8* @__cxa_begin_catch(i8* %exn143) #10, !dbg !3371
  %exn.byref = bitcast i8* %70 to %"class.xercesc_2_7::OutOfMemoryException"*, !dbg !3371
  store %"class.xercesc_2_7::OutOfMemoryException"* %exn.byref, %"class.xercesc_2_7::OutOfMemoryException"** %0, align 8, !dbg !3371
  invoke void @__cxa_rethrow() #13
          to label %unreachable unwind label %lpad144, !dbg !3373

catch:                                            ; preds = %catch.dispatch
  %exn = load i8*, i8** %exn.slot, align 8, !dbg !3335
  %71 = call i8* @__cxa_begin_catch(i8* %exn) #10, !dbg !3335
  %fReaderMgr132 = getelementptr inbounds %"class.xercesc_2_7::DTDScanner", %"class.xercesc_2_7::DTDScanner"* %this4, i32 0, i32 11, !dbg !3375
  %72 = load %"class.xercesc_2_7::ReaderMgr"*, %"class.xercesc_2_7::ReaderMgr"** %fReaderMgr132, align 8, !dbg !3375
  %73 = load i32, i32* %readerNum, align 4, !dbg !3376
  invoke void @_ZN11xercesc_2_79ReaderMgr16cleanStackBackToEj(%"class.xercesc_2_7::ReaderMgr"* %72, i32 %73)
          to label %invoke.cont134 unwind label %lpad133, !dbg !3377

invoke.cont134:                                   ; preds = %catch
  %74 = load %"class.xercesc_2_7::XMLEntityHandler"*, %"class.xercesc_2_7::XMLEntityHandler"** %entHandler, align 8, !dbg !3378
  %tobool135 = icmp ne %"class.xercesc_2_7::XMLEntityHandler"* %74, null, !dbg !3378
  br i1 %tobool135, label %if.then136, label %if.end140, !dbg !3380

if.then136:                                       ; preds = %invoke.cont134
  %75 = load %"class.xercesc_2_7::XMLEntityHandler"*, %"class.xercesc_2_7::XMLEntityHandler"** %entHandler, align 8, !dbg !3381
  %76 = load %"class.xercesc_2_7::InputSource"*, %"class.xercesc_2_7::InputSource"** %srcUsed, align 8, !dbg !3382
  %77 = bitcast %"class.xercesc_2_7::XMLEntityHandler"* %75 to void (%"class.xercesc_2_7::XMLEntityHandler"*, %"class.xercesc_2_7::InputSource"*)***, !dbg !3383
  %vtable137 = load void (%"class.xercesc_2_7::XMLEntityHandler"*, %"class.xercesc_2_7::InputSource"*)**, void (%"class.xercesc_2_7::XMLEntityHandler"*, %"class.xercesc_2_7::InputSource"*)*** %77, align 8, !dbg !3383
  %vfn138 = getelementptr inbounds void (%"class.xercesc_2_7::XMLEntityHandler"*, %"class.xercesc_2_7::InputSource"*)*, void (%"class.xercesc_2_7::XMLEntityHandler"*, %"class.xercesc_2_7::InputSource"*)** %vtable137, i64 2, !dbg !3383
  %78 = load void (%"class.xercesc_2_7::XMLEntityHandler"*, %"class.xercesc_2_7::InputSource"*)*, void (%"class.xercesc_2_7::XMLEntityHandler"*, %"class.xercesc_2_7::InputSource"*)** %vfn138, align 8, !dbg !3383
  invoke void %78(%"class.xercesc_2_7::XMLEntityHandler"* %75, %"class.xercesc_2_7::InputSource"* dereferenceable(48) %76)
          to label %invoke.cont139 unwind label %lpad133, !dbg !3383

invoke.cont139:                                   ; preds = %if.then136
  br label %if.end140, !dbg !3381

lpad133:                                          ; preds = %if.end140, %if.then136, %catch
  %79 = landingpad { i8*, i32 }
          cleanup, !dbg !3384
  %80 = extractvalue { i8*, i32 } %79, 0, !dbg !3384
  store i8* %80, i8** %exn.slot, align 8, !dbg !3384
  %81 = extractvalue { i8*, i32 } %79, 1, !dbg !3384
  store i32 %81, i32* %ehselector.slot, align 4, !dbg !3384
  invoke void @__cxa_end_catch()
          to label %invoke.cont141 unwind label %terminate.lpad, !dbg !3371

if.end140:                                        ; preds = %invoke.cont139, %invoke.cont134
  invoke void @__cxa_rethrow() #13
          to label %unreachable unwind label %lpad133, !dbg !3385

invoke.cont141:                                   ; preds = %lpad133
  br label %ehcleanup, !dbg !3371

lpad144:                                          ; preds = %catch142
  %82 = landingpad { i8*, i32 }
          cleanup, !dbg !3386
  %83 = extractvalue { i8*, i32 } %82, 0, !dbg !3386
  store i8* %83, i8** %exn.slot, align 8, !dbg !3386
  %84 = extractvalue { i8*, i32 } %82, 1, !dbg !3386
  store i32 %84, i32* %ehselector.slot, align 4, !dbg !3386
  invoke void @__cxa_end_catch()
          to label %invoke.cont145 unwind label %terminate.lpad, !dbg !3387

invoke.cont145:                                   ; preds = %lpad144
  br label %ehcleanup, !dbg !3387

try.cont:                                         ; preds = %invoke.cont131
  %85 = load %"class.xercesc_2_7::XMLEntityHandler"*, %"class.xercesc_2_7::XMLEntityHandler"** %entHandler, align 8, !dbg !3388
  %tobool146 = icmp ne %"class.xercesc_2_7::XMLEntityHandler"* %85, null, !dbg !3388
  br i1 %tobool146, label %if.then147, label %if.end151, !dbg !3390

if.then147:                                       ; preds = %try.cont
  %86 = load %"class.xercesc_2_7::XMLEntityHandler"*, %"class.xercesc_2_7::XMLEntityHandler"** %entHandler, align 8, !dbg !3391
  %87 = load %"class.xercesc_2_7::InputSource"*, %"class.xercesc_2_7::InputSource"** %srcUsed, align 8, !dbg !3392
  %88 = bitcast %"class.xercesc_2_7::XMLEntityHandler"* %86 to void (%"class.xercesc_2_7::XMLEntityHandler"*, %"class.xercesc_2_7::InputSource"*)***, !dbg !3393
  %vtable148 = load void (%"class.xercesc_2_7::XMLEntityHandler"*, %"class.xercesc_2_7::InputSource"*)**, void (%"class.xercesc_2_7::XMLEntityHandler"*, %"class.xercesc_2_7::InputSource"*)*** %88, align 8, !dbg !3393
  %vfn149 = getelementptr inbounds void (%"class.xercesc_2_7::XMLEntityHandler"*, %"class.xercesc_2_7::InputSource"*)*, void (%"class.xercesc_2_7::XMLEntityHandler"*, %"class.xercesc_2_7::InputSource"*)** %vtable148, i64 2, !dbg !3393
  %89 = load void (%"class.xercesc_2_7::XMLEntityHandler"*, %"class.xercesc_2_7::InputSource"*)*, void (%"class.xercesc_2_7::XMLEntityHandler"*, %"class.xercesc_2_7::InputSource"*)** %vfn149, align 8, !dbg !3393
  invoke void %89(%"class.xercesc_2_7::XMLEntityHandler"* %86, %"class.xercesc_2_7::InputSource"* dereferenceable(48) %87)
          to label %invoke.cont150 unwind label %lpad103, !dbg !3393

invoke.cont150:                                   ; preds = %if.then147
  br label %if.end151, !dbg !3391

if.end151:                                        ; preds = %invoke.cont150, %try.cont
  br label %if.end159, !dbg !3394

if.else152:                                       ; preds = %if.end115
  %fScanner153 = getelementptr inbounds %"class.xercesc_2_7::DTDScanner", %"class.xercesc_2_7::DTDScanner"* %this4, i32 0, i32 12, !dbg !3395
  %90 = load %"class.xercesc_2_7::XMLScanner"*, %"class.xercesc_2_7::XMLScanner"** %fScanner153, align 8, !dbg !3395
  %call155 = invoke zeroext i1 @_ZN11xercesc_2_710XMLScanner12checkXMLDeclEb(%"class.xercesc_2_7::XMLScanner"* %90, i1 zeroext true)
          to label %invoke.cont154 unwind label %lpad103, !dbg !3398

invoke.cont154:                                   ; preds = %if.else152
  br i1 %call155, label %if.then156, label %if.end158, !dbg !3399

if.then156:                                       ; preds = %invoke.cont154
  invoke void @_ZN11xercesc_2_710DTDScanner12scanTextDeclEv(%"class.xercesc_2_7::DTDScanner"* %this4)
          to label %invoke.cont157 unwind label %lpad103, !dbg !3400

invoke.cont157:                                   ; preds = %if.then156
  br label %if.end158, !dbg !3400

if.end158:                                        ; preds = %invoke.cont157, %invoke.cont154
  br label %if.end159

if.end159:                                        ; preds = %if.end158, %if.end151
  store i32 0, i32* %cleanup.dest.slot, align 4, !dbg !3401
  br label %cleanup, !dbg !3401

cleanup:                                          ; preds = %if.end159, %invoke.cont114
  call void @_ZN11xercesc_2_77JanitorINS_11InputSourceEED2Ev(%"class.xercesc_2_7::Janitor"* %janSrc) #10, !dbg !3401
  %cleanup.dest = load i32, i32* %cleanup.dest.slot, align 4
  switch i32 %cleanup.dest, label %cleanup182 [
    i32 0, label %cleanup.cont
  ]

cleanup.cont:                                     ; preds = %cleanup
  br label %if.end181, !dbg !3402

ehcleanup:                                        ; preds = %invoke.cont145, %invoke.cont141, %lpad103, %lpad96
  call void @_ZN11xercesc_2_77JanitorINS_11InputSourceEED2Ev(%"class.xercesc_2_7::Janitor"* %janSrc) #10, !dbg !3401
  br label %ehcleanup183, !dbg !3401

if.else160:                                       ; preds = %invoke.cont71
  call void @llvm.dbg.declare(metadata %"class.xercesc_2_7::XMLReader"** %valueReader, metadata !3403, metadata !DIExpression()), !dbg !3405
  %fReaderMgr161 = getelementptr inbounds %"class.xercesc_2_7::DTDScanner", %"class.xercesc_2_7::DTDScanner"* %this4, i32 0, i32 11, !dbg !3406
  %91 = load %"class.xercesc_2_7::ReaderMgr"*, %"class.xercesc_2_7::ReaderMgr"** %fReaderMgr161, align 8, !dbg !3406
  %92 = load %"class.xercesc_2_7::XMLEntityDecl"*, %"class.xercesc_2_7::XMLEntityDecl"** %decl, align 8, !dbg !3407
  %call163 = invoke i16* @_ZNK11xercesc_2_713XMLEntityDecl7getNameEv(%"class.xercesc_2_7::XMLEntityDecl"* %92)
          to label %invoke.cont162 unwind label %lpad, !dbg !3408

invoke.cont162:                                   ; preds = %if.else160
  %93 = load i8, i8* %inLiteral.addr, align 1, !dbg !3409
  %tobool164 = trunc i8 %93 to i1, !dbg !3409
  %94 = zext i1 %tobool164 to i64, !dbg !3409
  %cond165 = select i1 %tobool164, i32 0, i32 1, !dbg !3409
  %95 = load %"class.xercesc_2_7::XMLEntityDecl"*, %"class.xercesc_2_7::XMLEntityDecl"** %decl, align 8, !dbg !3410
  %call167 = invoke i16* @_ZNK11xercesc_2_713XMLEntityDecl8getValueEv(%"class.xercesc_2_7::XMLEntityDecl"* %95)
          to label %invoke.cont166 unwind label %lpad, !dbg !3411

invoke.cont166:                                   ; preds = %invoke.cont162
  %96 = load %"class.xercesc_2_7::XMLEntityDecl"*, %"class.xercesc_2_7::XMLEntityDecl"** %decl, align 8, !dbg !3412
  %call169 = invoke i32 @_ZNK11xercesc_2_713XMLEntityDecl11getValueLenEv(%"class.xercesc_2_7::XMLEntityDecl"* %96)
          to label %invoke.cont168 unwind label %lpad, !dbg !3413

invoke.cont168:                                   ; preds = %invoke.cont166
  %call171 = invoke %"class.xercesc_2_7::XMLReader"* @_ZN11xercesc_2_79ReaderMgr18createIntEntReaderEPKtNS_9XMLReader7RefFromENS3_5TypesES2_jbb(%"class.xercesc_2_7::ReaderMgr"* %91, i16* %call163, i32 %cond165, i32 0, i16* %call167, i32 %call169, i1 zeroext false, i1 zeroext true)
          to label %invoke.cont170 unwind label %lpad, !dbg !3414

invoke.cont170:                                   ; preds = %invoke.cont168
  store %"class.xercesc_2_7::XMLReader"* %call171, %"class.xercesc_2_7::XMLReader"** %valueReader, align 8, !dbg !3405
  %fReaderMgr172 = getelementptr inbounds %"class.xercesc_2_7::DTDScanner", %"class.xercesc_2_7::DTDScanner"* %this4, i32 0, i32 11, !dbg !3415
  %97 = load %"class.xercesc_2_7::ReaderMgr"*, %"class.xercesc_2_7::ReaderMgr"** %fReaderMgr172, align 8, !dbg !3415
  %98 = load %"class.xercesc_2_7::XMLReader"*, %"class.xercesc_2_7::XMLReader"** %valueReader, align 8, !dbg !3417
  %99 = load %"class.xercesc_2_7::XMLEntityDecl"*, %"class.xercesc_2_7::XMLEntityDecl"** %decl, align 8, !dbg !3418
  %call174 = invoke zeroext i1 @_ZN11xercesc_2_79ReaderMgr10pushReaderEPNS_9XMLReaderEPNS_13XMLEntityDeclE(%"class.xercesc_2_7::ReaderMgr"* %97, %"class.xercesc_2_7::XMLReader"* %98, %"class.xercesc_2_7::XMLEntityDecl"* %99)
          to label %invoke.cont173 unwind label %lpad, !dbg !3419

invoke.cont173:                                   ; preds = %invoke.cont170
  br i1 %call174, label %if.end180, label %if.then175, !dbg !3420

if.then175:                                       ; preds = %invoke.cont173
  %fScanner176 = getelementptr inbounds %"class.xercesc_2_7::DTDScanner", %"class.xercesc_2_7::DTDScanner"* %this4, i32 0, i32 12, !dbg !3421
  %100 = load %"class.xercesc_2_7::XMLScanner"*, %"class.xercesc_2_7::XMLScanner"** %fScanner176, align 8, !dbg !3421
  %101 = load %"class.xercesc_2_7::XMLEntityDecl"*, %"class.xercesc_2_7::XMLEntityDecl"** %decl, align 8, !dbg !3422
  %call178 = invoke i16* @_ZNK11xercesc_2_713XMLEntityDecl7getNameEv(%"class.xercesc_2_7::XMLEntityDecl"* %101)
          to label %invoke.cont177 unwind label %lpad, !dbg !3423

invoke.cont177:                                   ; preds = %if.then175
  invoke void @_ZN11xercesc_2_710XMLScanner9emitErrorENS_7XMLErrs5CodesEPKtS4_S4_S4_(%"class.xercesc_2_7::XMLScanner"* %100, i32 230, i16* %call178, i16* null, i16* null, i16* null)
          to label %invoke.cont179 unwind label %lpad, !dbg !3424

invoke.cont179:                                   ; preds = %invoke.cont177
  br label %if.end180, !dbg !3421

if.end180:                                        ; preds = %invoke.cont179, %invoke.cont173
  br label %if.end181

if.end181:                                        ; preds = %if.end180, %cleanup.cont
  store i1 true, i1* %retval, align 1, !dbg !3425
  store i32 1, i32* %cleanup.dest.slot, align 4
  br label %cleanup182, !dbg !3425

cleanup182:                                       ; preds = %if.end181, %cleanup, %if.end51, %invoke.cont14
  call void @_ZN11xercesc_2_79XMLBufBidD2Ev(%"class.xercesc_2_7::XMLBufBid"* %bbName) #10, !dbg !3426
  %102 = load i1, i1* %retval, align 1, !dbg !3426
  ret i1 %102, !dbg !3426

ehcleanup183:                                     ; preds = %ehcleanup, %lpad
  call void @_ZN11xercesc_2_79XMLBufBidD2Ev(%"class.xercesc_2_7::XMLBufBid"* %bbName) #10, !dbg !3426
  br label %eh.resume, !dbg !3426

eh.resume:                                        ; preds = %ehcleanup183
  %exn184 = load i8*, i8** %exn.slot, align 8, !dbg !3426
  %sel185 = load i32, i32* %ehselector.slot, align 4, !dbg !3426
  %lpad.val = insertvalue { i8*, i32 } undef, i8* %exn184, 0, !dbg !3426
  %lpad.val186 = insertvalue { i8*, i32 } %lpad.val, i32 %sel185, 1, !dbg !3426
  resume { i8*, i32 } %lpad.val186, !dbg !3426

terminate.lpad:                                   ; preds = %lpad144, %lpad133
  %103 = landingpad { i8*, i32 }
          catch i8* null, !dbg !3371
  %104 = extractvalue { i8*, i32 } %103, 0, !dbg !3371
  call void @__clang_call_terminate(i8* %104) #12, !dbg !3371
  unreachable, !dbg !3371

unreachable:                                      ; preds = %catch142, %if.end140, %invoke.cont102
  unreachable
}

declare dso_local void @_ZN11xercesc_2_710XMLScanner9emitErrorENS_7XMLErrs5CodesE(%"class.xercesc_2_7::XMLScanner"*, i32) #7

; Function Attrs: noinline nounwind uwtable
define linkonce_odr dso_local void @_ZN11xercesc_2_710XMLScanner11setHasNoDTDEb(%"class.xercesc_2_7::XMLScanner"* %this, i1 zeroext %hasNoDTD) #1 comdat align 2 !dbg !3427 {
entry:
  %this.addr = alloca %"class.xercesc_2_7::XMLScanner"*, align 8
  %hasNoDTD.addr = alloca i8, align 1
  store %"class.xercesc_2_7::XMLScanner"* %this, %"class.xercesc_2_7::XMLScanner"** %this.addr, align 8
  call void @llvm.dbg.declare(metadata %"class.xercesc_2_7::XMLScanner"** %this.addr, metadata !3432, metadata !DIExpression()), !dbg !3433
  %frombool = zext i1 %hasNoDTD to i8
  store i8 %frombool, i8* %hasNoDTD.addr, align 1
  call void @llvm.dbg.declare(metadata i8* %hasNoDTD.addr, metadata !3434, metadata !DIExpression()), !dbg !3435
  %this1 = load %"class.xercesc_2_7::XMLScanner"*, %"class.xercesc_2_7::XMLScanner"** %this.addr, align 8
  %0 = load i8, i8* %hasNoDTD.addr, align 1, !dbg !3436
  %tobool = trunc i8 %0 to i1, !dbg !3436
  %fHasNoDTD = getelementptr inbounds %"class.xercesc_2_7::XMLScanner", %"class.xercesc_2_7::XMLScanner"* %this1, i32 0, i32 9, !dbg !3437
  %frombool2 = zext i1 %tobool to i8, !dbg !3438
  store i8 %frombool2, i8* %fHasNoDTD, align 1, !dbg !3438
  ret void, !dbg !3439
}

; Function Attrs: noinline uwtable
define linkonce_odr dso_local void @_ZN11xercesc_2_79XMLBufBidC2EPNS_12XMLBufferMgrE(%"class.xercesc_2_7::XMLBufBid"* %this, %"class.xercesc_2_7::XMLBufferMgr"* %srcMgr) unnamed_addr #6 comdat align 2 !dbg !3440 {
entry:
  %this.addr = alloca %"class.xercesc_2_7::XMLBufBid"*, align 8
  %srcMgr.addr = alloca %"class.xercesc_2_7::XMLBufferMgr"*, align 8
  store %"class.xercesc_2_7::XMLBufBid"* %this, %"class.xercesc_2_7::XMLBufBid"** %this.addr, align 8
  call void @llvm.dbg.declare(metadata %"class.xercesc_2_7::XMLBufBid"** %this.addr, metadata !3441, metadata !DIExpression()), !dbg !3443
  store %"class.xercesc_2_7::XMLBufferMgr"* %srcMgr, %"class.xercesc_2_7::XMLBufferMgr"** %srcMgr.addr, align 8
  call void @llvm.dbg.declare(metadata %"class.xercesc_2_7::XMLBufferMgr"** %srcMgr.addr, metadata !3444, metadata !DIExpression()), !dbg !3445
  %this1 = load %"class.xercesc_2_7::XMLBufBid"*, %"class.xercesc_2_7::XMLBufBid"** %this.addr, align 8
  %0 = bitcast %"class.xercesc_2_7::XMLBufBid"* %this1 to %"class.xercesc_2_7::XMemory"*, !dbg !3446
  call void @_ZN11xercesc_2_77XMemoryC2Ev(%"class.xercesc_2_7::XMemory"* %0), !dbg !3447
  %fBuffer = getelementptr inbounds %"class.xercesc_2_7::XMLBufBid", %"class.xercesc_2_7::XMLBufBid"* %this1, i32 0, i32 0, !dbg !3448
  %1 = load %"class.xercesc_2_7::XMLBufferMgr"*, %"class.xercesc_2_7::XMLBufferMgr"** %srcMgr.addr, align 8, !dbg !3449
  %call = call dereferenceable(40) %"class.xercesc_2_7::XMLBuffer"* @_ZN11xercesc_2_712XMLBufferMgr11bidOnBufferEv(%"class.xercesc_2_7::XMLBufferMgr"* %1), !dbg !3450
  store %"class.xercesc_2_7::XMLBuffer"* %call, %"class.xercesc_2_7::XMLBuffer"** %fBuffer, align 8, !dbg !3448
  %fMgr = getelementptr inbounds %"class.xercesc_2_7::XMLBufBid", %"class.xercesc_2_7::XMLBufBid"* %this1, i32 0, i32 1, !dbg !3451
  %2 = load %"class.xercesc_2_7::XMLBufferMgr"*, %"class.xercesc_2_7::XMLBufferMgr"** %srcMgr.addr, align 8, !dbg !3452
  store %"class.xercesc_2_7::XMLBufferMgr"* %2, %"class.xercesc_2_7::XMLBufferMgr"** %fMgr, align 8, !dbg !3451
  ret void, !dbg !3453
}

; Function Attrs: noinline uwtable
define linkonce_odr dso_local zeroext i1 @_ZN11xercesc_2_79ReaderMgr7getNameERNS_9XMLBufferE(%"class.xercesc_2_7::ReaderMgr"* %this, %"class.xercesc_2_7::XMLBuffer"* dereferenceable(40) %toFill) #6 comdat align 2 !dbg !3454 {
entry:
  %this.addr = alloca %"class.xercesc_2_7::ReaderMgr"*, align 8
  %toFill.addr = alloca %"class.xercesc_2_7::XMLBuffer"*, align 8
  store %"class.xercesc_2_7::ReaderMgr"* %this, %"class.xercesc_2_7::ReaderMgr"** %this.addr, align 8
  call void @llvm.dbg.declare(metadata %"class.xercesc_2_7::ReaderMgr"** %this.addr, metadata !3459, metadata !DIExpression()), !dbg !3460
  store %"class.xercesc_2_7::XMLBuffer"* %toFill, %"class.xercesc_2_7::XMLBuffer"** %toFill.addr, align 8
  call void @llvm.dbg.declare(metadata %"class.xercesc_2_7::XMLBuffer"** %toFill.addr, metadata !3461, metadata !DIExpression()), !dbg !3462
  %this1 = load %"class.xercesc_2_7::ReaderMgr"*, %"class.xercesc_2_7::ReaderMgr"** %this.addr, align 8
  %0 = load %"class.xercesc_2_7::XMLBuffer"*, %"class.xercesc_2_7::XMLBuffer"** %toFill.addr, align 8, !dbg !3463
  call void @_ZN11xercesc_2_79XMLBuffer5resetEv(%"class.xercesc_2_7::XMLBuffer"* %0), !dbg !3464
  %fCurReader = getelementptr inbounds %"class.xercesc_2_7::ReaderMgr", %"class.xercesc_2_7::ReaderMgr"* %this1, i32 0, i32 2, !dbg !3465
  %1 = load %"class.xercesc_2_7::XMLReader"*, %"class.xercesc_2_7::XMLReader"** %fCurReader, align 8, !dbg !3465
  %2 = load %"class.xercesc_2_7::XMLBuffer"*, %"class.xercesc_2_7::XMLBuffer"** %toFill.addr, align 8, !dbg !3466
  %call = call zeroext i1 @_ZN11xercesc_2_79XMLReader7getNameERNS_9XMLBufferEb(%"class.xercesc_2_7::XMLReader"* %1, %"class.xercesc_2_7::XMLBuffer"* dereferenceable(40) %2, i1 zeroext false), !dbg !3467
  ret i1 %call, !dbg !3468
}

; Function Attrs: noinline nounwind uwtable
define linkonce_odr dso_local dereferenceable(40) %"class.xercesc_2_7::XMLBuffer"* @_ZN11xercesc_2_79XMLBufBid9getBufferEv(%"class.xercesc_2_7::XMLBufBid"* %this) #1 comdat align 2 !dbg !3469 {
entry:
  %this.addr = alloca %"class.xercesc_2_7::XMLBufBid"*, align 8
  store %"class.xercesc_2_7::XMLBufBid"* %this, %"class.xercesc_2_7::XMLBufBid"** %this.addr, align 8
  call void @llvm.dbg.declare(metadata %"class.xercesc_2_7::XMLBufBid"** %this.addr, metadata !3470, metadata !DIExpression()), !dbg !3471
  %this1 = load %"class.xercesc_2_7::XMLBufBid"*, %"class.xercesc_2_7::XMLBufBid"** %this.addr, align 8
  %fBuffer = getelementptr inbounds %"class.xercesc_2_7::XMLBufBid", %"class.xercesc_2_7::XMLBufBid"* %this1, i32 0, i32 0, !dbg !3472
  %0 = load %"class.xercesc_2_7::XMLBuffer"*, %"class.xercesc_2_7::XMLBuffer"** %fBuffer, align 8, !dbg !3472
  ret %"class.xercesc_2_7::XMLBuffer"* %0, !dbg !3473
}

declare dso_local void @_ZN11xercesc_2_710XMLScanner9emitErrorENS_7XMLErrs5CodesEPKtS4_S4_S4_(%"class.xercesc_2_7::XMLScanner"*, i32, i16*, i16*, i16*, i16*) #7

; Function Attrs: noinline nounwind uwtable
define linkonce_odr dso_local i16* @_ZN11xercesc_2_79XMLBufBid12getRawBufferEv(%"class.xercesc_2_7::XMLBufBid"* %this) #1 comdat align 2 !dbg !3474 {
entry:
  %this.addr = alloca %"class.xercesc_2_7::XMLBufBid"*, align 8
  store %"class.xercesc_2_7::XMLBufBid"* %this, %"class.xercesc_2_7::XMLBufBid"** %this.addr, align 8
  call void @llvm.dbg.declare(metadata %"class.xercesc_2_7::XMLBufBid"** %this.addr, metadata !3475, metadata !DIExpression()), !dbg !3476
  %this1 = load %"class.xercesc_2_7::XMLBufBid"*, %"class.xercesc_2_7::XMLBufBid"** %this.addr, align 8
  %fBuffer = getelementptr inbounds %"class.xercesc_2_7::XMLBufBid", %"class.xercesc_2_7::XMLBufBid"* %this1, i32 0, i32 0, !dbg !3477
  %0 = load %"class.xercesc_2_7::XMLBuffer"*, %"class.xercesc_2_7::XMLBuffer"** %fBuffer, align 8, !dbg !3477
  %fBuffer2 = getelementptr inbounds %"class.xercesc_2_7::XMLBuffer", %"class.xercesc_2_7::XMLBuffer"* %0, i32 0, i32 6, !dbg !3478
  %1 = load i16*, i16** %fBuffer2, align 8, !dbg !3478
  %fBuffer3 = getelementptr inbounds %"class.xercesc_2_7::XMLBufBid", %"class.xercesc_2_7::XMLBufBid"* %this1, i32 0, i32 0, !dbg !3479
  %2 = load %"class.xercesc_2_7::XMLBuffer"*, %"class.xercesc_2_7::XMLBuffer"** %fBuffer3, align 8, !dbg !3479
  %fIndex = getelementptr inbounds %"class.xercesc_2_7::XMLBuffer", %"class.xercesc_2_7::XMLBuffer"* %2, i32 0, i32 0, !dbg !3480
  %3 = load i32, i32* %fIndex, align 8, !dbg !3480
  %idxprom = zext i32 %3 to i64, !dbg !3477
  %arrayidx = getelementptr inbounds i16, i16* %1, i64 %idxprom, !dbg !3477
  store i16 0, i16* %arrayidx, align 2, !dbg !3481
  %fBuffer4 = getelementptr inbounds %"class.xercesc_2_7::XMLBufBid", %"class.xercesc_2_7::XMLBufBid"* %this1, i32 0, i32 0, !dbg !3482
  %4 = load %"class.xercesc_2_7::XMLBuffer"*, %"class.xercesc_2_7::XMLBuffer"** %fBuffer4, align 8, !dbg !3482
  %fBuffer5 = getelementptr inbounds %"class.xercesc_2_7::XMLBuffer", %"class.xercesc_2_7::XMLBuffer"* %4, i32 0, i32 6, !dbg !3483
  %5 = load i16*, i16** %fBuffer5, align 8, !dbg !3483
  ret i16* %5, !dbg !3484
}

; Function Attrs: noinline uwtable
define linkonce_odr dso_local %"class.xercesc_2_7::DTDEntityDecl"* @_ZN11xercesc_2_710NameIdPoolINS_13DTDEntityDeclEE8getByKeyEPKt(%"class.xercesc_2_7::NameIdPool.0"* %this, i16* %key) #6 comdat align 2 !dbg !3485 {
entry:
  %retval = alloca %"class.xercesc_2_7::DTDEntityDecl"*, align 8
  %this.addr = alloca %"class.xercesc_2_7::NameIdPool.0"*, align 8
  %key.addr = alloca i16*, align 8
  %hashVal = alloca i32, align 4
  %findIt = alloca %"struct.xercesc_2_7::NameIdPoolBucketElem.1"*, align 8
  store %"class.xercesc_2_7::NameIdPool.0"* %this, %"class.xercesc_2_7::NameIdPool.0"** %this.addr, align 8
  call void @llvm.dbg.declare(metadata %"class.xercesc_2_7::NameIdPool.0"** %this.addr, metadata !3486, metadata !DIExpression()), !dbg !3487
  store i16* %key, i16** %key.addr, align 8
  call void @llvm.dbg.declare(metadata i16** %key.addr, metadata !3488, metadata !DIExpression()), !dbg !3489
  %this1 = load %"class.xercesc_2_7::NameIdPool.0"*, %"class.xercesc_2_7::NameIdPool.0"** %this.addr, align 8
  call void @llvm.dbg.declare(metadata i32* %hashVal, metadata !3490, metadata !DIExpression()), !dbg !3491
  call void @llvm.dbg.declare(metadata %"struct.xercesc_2_7::NameIdPoolBucketElem.1"** %findIt, metadata !3492, metadata !DIExpression()), !dbg !3493
  %0 = load i16*, i16** %key.addr, align 8, !dbg !3494
  %call = call %"struct.xercesc_2_7::NameIdPoolBucketElem.1"* @_ZN11xercesc_2_710NameIdPoolINS_13DTDEntityDeclEE14findBucketElemEPKtRj(%"class.xercesc_2_7::NameIdPool.0"* %this1, i16* %0, i32* dereferenceable(4) %hashVal), !dbg !3495
  store %"struct.xercesc_2_7::NameIdPoolBucketElem.1"* %call, %"struct.xercesc_2_7::NameIdPoolBucketElem.1"** %findIt, align 8, !dbg !3493
  %1 = load %"struct.xercesc_2_7::NameIdPoolBucketElem.1"*, %"struct.xercesc_2_7::NameIdPoolBucketElem.1"** %findIt, align 8, !dbg !3496
  %tobool = icmp ne %"struct.xercesc_2_7::NameIdPoolBucketElem.1"* %1, null, !dbg !3496
  br i1 %tobool, label %if.end, label %if.then, !dbg !3498

if.then:                                          ; preds = %entry
  store %"class.xercesc_2_7::DTDEntityDecl"* null, %"class.xercesc_2_7::DTDEntityDecl"** %retval, align 8, !dbg !3499
  br label %return, !dbg !3499

if.end:                                           ; preds = %entry
  %2 = load %"struct.xercesc_2_7::NameIdPoolBucketElem.1"*, %"struct.xercesc_2_7::NameIdPoolBucketElem.1"** %findIt, align 8, !dbg !3500
  %fData = getelementptr inbounds %"struct.xercesc_2_7::NameIdPoolBucketElem.1", %"struct.xercesc_2_7::NameIdPoolBucketElem.1"* %2, i32 0, i32 0, !dbg !3501
  %3 = load %"class.xercesc_2_7::DTDEntityDecl"*, %"class.xercesc_2_7::DTDEntityDecl"** %fData, align 8, !dbg !3501
  store %"class.xercesc_2_7::DTDEntityDecl"* %3, %"class.xercesc_2_7::DTDEntityDecl"** %retval, align 8, !dbg !3502
  br label %return, !dbg !3502

return:                                           ; preds = %if.end, %if.then
  %4 = load %"class.xercesc_2_7::DTDEntityDecl"*, %"class.xercesc_2_7::DTDEntityDecl"** %retval, align 8, !dbg !3503
  ret %"class.xercesc_2_7::DTDEntityDecl"* %4, !dbg !3503
}

; Function Attrs: noinline nounwind uwtable
define linkonce_odr dso_local zeroext i1 @_ZNK11xercesc_2_710XMLScanner13getStandaloneEv(%"class.xercesc_2_7::XMLScanner"* %this) #1 comdat align 2 !dbg !3504 {
entry:
  %this.addr = alloca %"class.xercesc_2_7::XMLScanner"*, align 8
  store %"class.xercesc_2_7::XMLScanner"* %this, %"class.xercesc_2_7::XMLScanner"** %this.addr, align 8
  call void @llvm.dbg.declare(metadata %"class.xercesc_2_7::XMLScanner"** %this.addr, metadata !3506, metadata !DIExpression()), !dbg !3507
  %this1 = load %"class.xercesc_2_7::XMLScanner"*, %"class.xercesc_2_7::XMLScanner"** %this.addr, align 8
  %fStandalone = getelementptr inbounds %"class.xercesc_2_7::XMLScanner", %"class.xercesc_2_7::XMLScanner"* %this1, i32 0, i32 8, !dbg !3508
  %0 = load i8, i8* %fStandalone, align 2, !dbg !3508
  %tobool = trunc i8 %0 to i1, !dbg !3508
  ret i1 %tobool, !dbg !3509
}

; Function Attrs: noinline nounwind uwtable
define linkonce_odr dso_local zeroext i1 @_ZNK11xercesc_2_710XMLScanner15getDoValidationEv(%"class.xercesc_2_7::XMLScanner"* %this) #1 comdat align 2 !dbg !3510 {
entry:
  %this.addr = alloca %"class.xercesc_2_7::XMLScanner"*, align 8
  store %"class.xercesc_2_7::XMLScanner"* %this, %"class.xercesc_2_7::XMLScanner"** %this.addr, align 8
  call void @llvm.dbg.declare(metadata %"class.xercesc_2_7::XMLScanner"** %this.addr, metadata !3512, metadata !DIExpression()), !dbg !3513
  %this1 = load %"class.xercesc_2_7::XMLScanner"*, %"class.xercesc_2_7::XMLScanner"** %this.addr, align 8
  %fValidate = getelementptr inbounds %"class.xercesc_2_7::XMLScanner", %"class.xercesc_2_7::XMLScanner"* %this1, i32 0, i32 10, !dbg !3514
  %0 = load i8, i8* %fValidate, align 8, !dbg !3514
  %tobool = trunc i8 %0 to i1, !dbg !3514
  ret i1 %tobool, !dbg !3515
}

; Function Attrs: noinline nounwind uwtable
define linkonce_odr dso_local %"class.xercesc_2_7::XMLValidator"* @_ZN11xercesc_2_710XMLScanner12getValidatorEv(%"class.xercesc_2_7::XMLScanner"* %this) #1 comdat align 2 !dbg !3516 {
entry:
  %this.addr = alloca %"class.xercesc_2_7::XMLScanner"*, align 8
  store %"class.xercesc_2_7::XMLScanner"* %this, %"class.xercesc_2_7::XMLScanner"** %this.addr, align 8
  call void @llvm.dbg.declare(metadata %"class.xercesc_2_7::XMLScanner"** %this.addr, metadata !3523, metadata !DIExpression()), !dbg !3524
  %this1 = load %"class.xercesc_2_7::XMLScanner"*, %"class.xercesc_2_7::XMLScanner"** %this.addr, align 8
  %fValidator = getelementptr inbounds %"class.xercesc_2_7::XMLScanner", %"class.xercesc_2_7::XMLScanner"* %this1, i32 0, i32 50, !dbg !3525
  %0 = load %"class.xercesc_2_7::XMLValidator"*, %"class.xercesc_2_7::XMLValidator"** %fValidator, align 8, !dbg !3525
  ret %"class.xercesc_2_7::XMLValidator"* %0, !dbg !3526
}

declare dso_local void @_ZN11xercesc_2_712XMLValidator9emitErrorENS_8XMLValid5CodesEPKtS4_S4_S4_(%"class.xercesc_2_7::XMLValidator"*, i32, i16*, i16*, i16*, i16*) #7

; Function Attrs: noinline nounwind uwtable
define linkonce_odr dso_local zeroext i1 @_ZNK11xercesc_2_713XMLEntityDecl10isExternalEv(%"class.xercesc_2_7::XMLEntityDecl"* %this) #1 comdat align 2 !dbg !3527 {
entry:
  %this.addr = alloca %"class.xercesc_2_7::XMLEntityDecl"*, align 8
  store %"class.xercesc_2_7::XMLEntityDecl"* %this, %"class.xercesc_2_7::XMLEntityDecl"** %this.addr, align 8
  call void @llvm.dbg.declare(metadata %"class.xercesc_2_7::XMLEntityDecl"** %this.addr, metadata !3533, metadata !DIExpression()), !dbg !3535
  %this1 = load %"class.xercesc_2_7::XMLEntityDecl"*, %"class.xercesc_2_7::XMLEntityDecl"** %this.addr, align 8
  %fPublicId = getelementptr inbounds %"class.xercesc_2_7::XMLEntityDecl", %"class.xercesc_2_7::XMLEntityDecl"* %this1, i32 0, i32 6, !dbg !3536
  %0 = load i16*, i16** %fPublicId, align 8, !dbg !3536
  %cmp = icmp ne i16* %0, null, !dbg !3537
  br i1 %cmp, label %lor.end, label %lor.rhs, !dbg !3538

lor.rhs:                                          ; preds = %entry
  %fSystemId = getelementptr inbounds %"class.xercesc_2_7::XMLEntityDecl", %"class.xercesc_2_7::XMLEntityDecl"* %this1, i32 0, i32 7, !dbg !3539
  %1 = load i16*, i16** %fSystemId, align 8, !dbg !3539
  %cmp2 = icmp ne i16* %1, null, !dbg !3540
  br label %lor.end, !dbg !3538

lor.end:                                          ; preds = %lor.rhs, %entry
  %2 = phi i1 [ true, %entry ], [ %cmp2, %lor.rhs ]
  ret i1 %2, !dbg !3541
}

declare dso_local %"class.xercesc_2_7::XMLReader"* @_ZN11xercesc_2_79ReaderMgr12createReaderEPKtS2_S2_bNS_9XMLReader7RefFromENS3_5TypesENS3_7SourcesERPNS_11InputSourceEbb(%"class.xercesc_2_7::ReaderMgr"*, i16*, i16*, i16*, i1 zeroext, i32, i32, i32, %"class.xercesc_2_7::InputSource"** dereferenceable(8), i1 zeroext, i1 zeroext) #7

; Function Attrs: noinline nounwind uwtable
define linkonce_odr dso_local i16* @_ZNK11xercesc_2_713XMLEntityDecl10getBaseURIEv(%"class.xercesc_2_7::XMLEntityDecl"* %this) #1 comdat align 2 !dbg !3542 {
entry:
  %this.addr = alloca %"class.xercesc_2_7::XMLEntityDecl"*, align 8
  store %"class.xercesc_2_7::XMLEntityDecl"* %this, %"class.xercesc_2_7::XMLEntityDecl"** %this.addr, align 8
  call void @llvm.dbg.declare(metadata %"class.xercesc_2_7::XMLEntityDecl"** %this.addr, metadata !3546, metadata !DIExpression()), !dbg !3547
  %this1 = load %"class.xercesc_2_7::XMLEntityDecl"*, %"class.xercesc_2_7::XMLEntityDecl"** %this.addr, align 8
  %fBaseURI = getelementptr inbounds %"class.xercesc_2_7::XMLEntityDecl", %"class.xercesc_2_7::XMLEntityDecl"* %this1, i32 0, i32 8, !dbg !3548
  %0 = load i16*, i16** %fBaseURI, align 8, !dbg !3548
  ret i16* %0, !dbg !3549
}

; Function Attrs: noinline nounwind uwtable
define linkonce_odr dso_local i16* @_ZNK11xercesc_2_713XMLEntityDecl11getSystemIdEv(%"class.xercesc_2_7::XMLEntityDecl"* %this) #1 comdat align 2 !dbg !3550 {
entry:
  %this.addr = alloca %"class.xercesc_2_7::XMLEntityDecl"*, align 8
  store %"class.xercesc_2_7::XMLEntityDecl"* %this, %"class.xercesc_2_7::XMLEntityDecl"** %this.addr, align 8
  call void @llvm.dbg.declare(metadata %"class.xercesc_2_7::XMLEntityDecl"** %this.addr, metadata !3552, metadata !DIExpression()), !dbg !3553
  %this1 = load %"class.xercesc_2_7::XMLEntityDecl"*, %"class.xercesc_2_7::XMLEntityDecl"** %this.addr, align 8
  %fSystemId = getelementptr inbounds %"class.xercesc_2_7::XMLEntityDecl", %"class.xercesc_2_7::XMLEntityDecl"* %this1, i32 0, i32 7, !dbg !3554
  %0 = load i16*, i16** %fSystemId, align 8, !dbg !3554
  ret i16* %0, !dbg !3555
}

; Function Attrs: noinline nounwind uwtable
define linkonce_odr dso_local i16* @_ZNK11xercesc_2_713XMLEntityDecl11getPublicIdEv(%"class.xercesc_2_7::XMLEntityDecl"* %this) #1 comdat align 2 !dbg !3556 {
entry:
  %this.addr = alloca %"class.xercesc_2_7::XMLEntityDecl"*, align 8
  store %"class.xercesc_2_7::XMLEntityDecl"* %this, %"class.xercesc_2_7::XMLEntityDecl"** %this.addr, align 8
  call void @llvm.dbg.declare(metadata %"class.xercesc_2_7::XMLEntityDecl"** %this.addr, metadata !3558, metadata !DIExpression()), !dbg !3559
  %this1 = load %"class.xercesc_2_7::XMLEntityDecl"*, %"class.xercesc_2_7::XMLEntityDecl"** %this.addr, align 8
  %fPublicId = getelementptr inbounds %"class.xercesc_2_7::XMLEntityDecl", %"class.xercesc_2_7::XMLEntityDecl"* %this1, i32 0, i32 6, !dbg !3560
  %0 = load i16*, i16** %fPublicId, align 8, !dbg !3560
  ret i16* %0, !dbg !3561
}

; Function Attrs: noinline nounwind uwtable
define linkonce_odr dso_local zeroext i1 @_ZNK11xercesc_2_710XMLScanner18getCalculateSrcOfsEv(%"class.xercesc_2_7::XMLScanner"* %this) #1 comdat align 2 !dbg !3562 {
entry:
  %this.addr = alloca %"class.xercesc_2_7::XMLScanner"*, align 8
  store %"class.xercesc_2_7::XMLScanner"* %this, %"class.xercesc_2_7::XMLScanner"** %this.addr, align 8
  call void @llvm.dbg.declare(metadata %"class.xercesc_2_7::XMLScanner"** %this.addr, metadata !3564, metadata !DIExpression()), !dbg !3565
  %this1 = load %"class.xercesc_2_7::XMLScanner"*, %"class.xercesc_2_7::XMLScanner"** %this.addr, align 8
  %fCalculateSrcOfs = getelementptr inbounds %"class.xercesc_2_7::XMLScanner", %"class.xercesc_2_7::XMLScanner"* %this1, i32 0, i32 3, !dbg !3566
  %0 = load i8, i8* %fCalculateSrcOfs, align 1, !dbg !3566
  %tobool = trunc i8 %0 to i1, !dbg !3566
  ret i1 %tobool, !dbg !3567
}

; Function Attrs: noinline nounwind uwtable
define linkonce_odr dso_local zeroext i1 @_ZNK11xercesc_2_710XMLScanner33getDisableDefaultEntityResolutionEv(%"class.xercesc_2_7::XMLScanner"* %this) #1 comdat align 2 !dbg !3568 {
entry:
  %this.addr = alloca %"class.xercesc_2_7::XMLScanner"*, align 8
  store %"class.xercesc_2_7::XMLScanner"* %this, %"class.xercesc_2_7::XMLScanner"** %this.addr, align 8
  call void @llvm.dbg.declare(metadata %"class.xercesc_2_7::XMLScanner"** %this.addr, metadata !3570, metadata !DIExpression()), !dbg !3571
  %this1 = load %"class.xercesc_2_7::XMLScanner"*, %"class.xercesc_2_7::XMLScanner"** %this.addr, align 8
  %fDisableDefaultEntityResolution = getelementptr inbounds %"class.xercesc_2_7::XMLScanner", %"class.xercesc_2_7::XMLScanner"* %this1, i32 0, i32 23, !dbg !3572
  %0 = load i8, i8* %fDisableDefaultEntityResolution, align 1, !dbg !3572
  %tobool = trunc i8 %0 to i1, !dbg !3572
  ret i1 %tobool, !dbg !3573
}

; Function Attrs: noinline nounwind uwtable
define linkonce_odr dso_local void @_ZN11xercesc_2_77JanitorINS_11InputSourceEEC2EPS1_(%"class.xercesc_2_7::Janitor"* %this, %"class.xercesc_2_7::InputSource"* %toDelete) unnamed_addr #1 comdat align 2 !dbg !3574 {
entry:
  %this.addr = alloca %"class.xercesc_2_7::Janitor"*, align 8
  %toDelete.addr = alloca %"class.xercesc_2_7::InputSource"*, align 8
  store %"class.xercesc_2_7::Janitor"* %this, %"class.xercesc_2_7::Janitor"** %this.addr, align 8
  call void @llvm.dbg.declare(metadata %"class.xercesc_2_7::Janitor"** %this.addr, metadata !3576, metadata !DIExpression()), !dbg !3578
  store %"class.xercesc_2_7::InputSource"* %toDelete, %"class.xercesc_2_7::InputSource"** %toDelete.addr, align 8
  call void @llvm.dbg.declare(metadata %"class.xercesc_2_7::InputSource"** %toDelete.addr, metadata !3579, metadata !DIExpression()), !dbg !3580
  %this1 = load %"class.xercesc_2_7::Janitor"*, %"class.xercesc_2_7::Janitor"** %this.addr, align 8
  %0 = bitcast %"class.xercesc_2_7::Janitor"* %this1 to %"class.xercesc_2_7::XMemory"*, !dbg !3581
  call void @_ZN11xercesc_2_77XMemoryC2Ev(%"class.xercesc_2_7::XMemory"* %0), !dbg !3582
  %fData = getelementptr inbounds %"class.xercesc_2_7::Janitor", %"class.xercesc_2_7::Janitor"* %this1, i32 0, i32 0, !dbg !3584
  %1 = load %"class.xercesc_2_7::InputSource"*, %"class.xercesc_2_7::InputSource"** %toDelete.addr, align 8, !dbg !3586
  store %"class.xercesc_2_7::InputSource"* %1, %"class.xercesc_2_7::InputSource"** %fData, align 8, !dbg !3584
  ret void, !dbg !3587
}

declare dso_local i8* @__cxa_allocate_exception(i64)

; Function Attrs: noinline uwtable
define linkonce_odr dso_local void @_ZN11xercesc_2_716RuntimeExceptionC2EPKcjNS_10XMLExcepts5CodesEPKtS6_S6_S6_PNS_13MemoryManagerE(%"class.xercesc_2_7::RuntimeException"* %this, i8* %srcFile, i32 %srcLine, i32 %toThrow, i16* %text1, i16* %text2, i16* %text3, i16* %text4, %"class.xercesc_2_7::MemoryManager"* %memoryManager) unnamed_addr #6 comdat align 2 personality i8* bitcast (i32 (...)* @__gxx_personality_v0 to i8*) !dbg !3588 {
entry:
  %this.addr = alloca %"class.xercesc_2_7::RuntimeException"*, align 8
  %srcFile.addr = alloca i8*, align 8
  %srcLine.addr = alloca i32, align 4
  %toThrow.addr = alloca i32, align 4
  %text1.addr = alloca i16*, align 8
  %text2.addr = alloca i16*, align 8
  %text3.addr = alloca i16*, align 8
  %text4.addr = alloca i16*, align 8
  %memoryManager.addr = alloca %"class.xercesc_2_7::MemoryManager"*, align 8
  %exn.slot = alloca i8*
  %ehselector.slot = alloca i32
  store %"class.xercesc_2_7::RuntimeException"* %this, %"class.xercesc_2_7::RuntimeException"** %this.addr, align 8
  call void @llvm.dbg.declare(metadata %"class.xercesc_2_7::RuntimeException"** %this.addr, metadata !3627, metadata !DIExpression()), !dbg !3629
  store i8* %srcFile, i8** %srcFile.addr, align 8
  call void @llvm.dbg.declare(metadata i8** %srcFile.addr, metadata !3630, metadata !DIExpression()), !dbg !3631
  store i32 %srcLine, i32* %srcLine.addr, align 4
  call void @llvm.dbg.declare(metadata i32* %srcLine.addr, metadata !3632, metadata !DIExpression()), !dbg !3631
  store i32 %toThrow, i32* %toThrow.addr, align 4
  call void @llvm.dbg.declare(metadata i32* %toThrow.addr, metadata !3633, metadata !DIExpression()), !dbg !3631
  store i16* %text1, i16** %text1.addr, align 8
  call void @llvm.dbg.declare(metadata i16** %text1.addr, metadata !3634, metadata !DIExpression()), !dbg !3631
  store i16* %text2, i16** %text2.addr, align 8
  call void @llvm.dbg.declare(metadata i16** %text2.addr, metadata !3635, metadata !DIExpression()), !dbg !3631
  store i16* %text3, i16** %text3.addr, align 8
  call void @llvm.dbg.declare(metadata i16** %text3.addr, metadata !3636, metadata !DIExpression()), !dbg !3631
  store i16* %text4, i16** %text4.addr, align 8
  call void @llvm.dbg.declare(metadata i16** %text4.addr, metadata !3637, metadata !DIExpression()), !dbg !3631
  store %"class.xercesc_2_7::MemoryManager"* %memoryManager, %"class.xercesc_2_7::MemoryManager"** %memoryManager.addr, align 8
  call void @llvm.dbg.declare(metadata %"class.xercesc_2_7::MemoryManager"** %memoryManager.addr, metadata !3638, metadata !DIExpression()), !dbg !3631
  %this1 = load %"class.xercesc_2_7::RuntimeException"*, %"class.xercesc_2_7::RuntimeException"** %this.addr, align 8
  %0 = bitcast %"class.xercesc_2_7::RuntimeException"* %this1 to %"class.xercesc_2_7::XMLException"*, !dbg !3631
  %1 = load i8*, i8** %srcFile.addr, align 8, !dbg !3631
  %2 = load i32, i32* %srcLine.addr, align 4, !dbg !3631
  %3 = load %"class.xercesc_2_7::MemoryManager"*, %"class.xercesc_2_7::MemoryManager"** %memoryManager.addr, align 8, !dbg !3631
  call void @_ZN11xercesc_2_712XMLExceptionC2EPKcjPNS_13MemoryManagerE(%"class.xercesc_2_7::XMLException"* %0, i8* %1, i32 %2, %"class.xercesc_2_7::MemoryManager"* %3), !dbg !3631
  %4 = bitcast %"class.xercesc_2_7::RuntimeException"* %this1 to i32 (...)***, !dbg !3631
  store i32 (...)** bitcast (i8** getelementptr inbounds ({ [6 x i8*] }, { [6 x i8*] }* @_ZTVN11xercesc_2_716RuntimeExceptionE, i32 0, inrange i32 0, i32 2) to i32 (...)**), i32 (...)*** %4, align 8, !dbg !3631
  %5 = bitcast %"class.xercesc_2_7::RuntimeException"* %this1 to %"class.xercesc_2_7::XMLException"*, !dbg !3639
  %6 = load i32, i32* %toThrow.addr, align 4, !dbg !3639
  %7 = load i16*, i16** %text1.addr, align 8, !dbg !3639
  %8 = load i16*, i16** %text2.addr, align 8, !dbg !3639
  %9 = load i16*, i16** %text3.addr, align 8, !dbg !3639
  %10 = load i16*, i16** %text4.addr, align 8, !dbg !3639
  invoke void @_ZN11xercesc_2_712XMLException14loadExceptTextENS_10XMLExcepts5CodesEPKtS4_S4_S4_(%"class.xercesc_2_7::XMLException"* %5, i32 %6, i16* %7, i16* %8, i16* %9, i16* %10)
          to label %invoke.cont unwind label %lpad, !dbg !3639

invoke.cont:                                      ; preds = %entry
  ret void, !dbg !3631

lpad:                                             ; preds = %entry
  %11 = landingpad { i8*, i32 }
          cleanup, !dbg !3639
  %12 = extractvalue { i8*, i32 } %11, 0, !dbg !3639
  store i8* %12, i8** %exn.slot, align 8, !dbg !3639
  %13 = extractvalue { i8*, i32 } %11, 1, !dbg !3639
  store i32 %13, i32* %ehselector.slot, align 4, !dbg !3639
  %14 = bitcast %"class.xercesc_2_7::RuntimeException"* %this1 to %"class.xercesc_2_7::XMLException"*, !dbg !3639
  call void @_ZN11xercesc_2_712XMLExceptionD2Ev(%"class.xercesc_2_7::XMLException"* %14) #10, !dbg !3639
  br label %eh.resume, !dbg !3639

eh.resume:                                        ; preds = %lpad
  %exn = load i8*, i8** %exn.slot, align 8, !dbg !3639
  %sel = load i32, i32* %ehselector.slot, align 4, !dbg !3639
  %lpad.val = insertvalue { i8*, i32 } undef, i8* %exn, 0, !dbg !3639
  %lpad.val2 = insertvalue { i8*, i32 } %lpad.val, i32 %sel, 1, !dbg !3639
  resume { i8*, i32 } %lpad.val2, !dbg !3639
}

declare dso_local void @__cxa_free_exception(i8*)

; Function Attrs: noinline nounwind uwtable
define linkonce_odr dso_local void @_ZN11xercesc_2_716RuntimeExceptionD2Ev(%"class.xercesc_2_7::RuntimeException"* %this) unnamed_addr #1 comdat align 2 !dbg !3641 {
entry:
  %this.addr = alloca %"class.xercesc_2_7::RuntimeException"*, align 8
  store %"class.xercesc_2_7::RuntimeException"* %this, %"class.xercesc_2_7::RuntimeException"** %this.addr, align 8
  call void @llvm.dbg.declare(metadata %"class.xercesc_2_7::RuntimeException"** %this.addr, metadata !3642, metadata !DIExpression()), !dbg !3643
  %this1 = load %"class.xercesc_2_7::RuntimeException"*, %"class.xercesc_2_7::RuntimeException"** %this.addr, align 8
  %0 = bitcast %"class.xercesc_2_7::RuntimeException"* %this1 to %"class.xercesc_2_7::XMLException"*, !dbg !3644
  call void @_ZN11xercesc_2_712XMLExceptionD2Ev(%"class.xercesc_2_7::XMLException"* %0) #10, !dbg !3644
  ret void, !dbg !3646
}

declare dso_local void @__cxa_throw(i8*, i8*, i8*)

; Function Attrs: noinline nounwind uwtable
define linkonce_odr dso_local void @_ZN11xercesc_2_79XMLReader13setThrowAtEndEb(%"class.xercesc_2_7::XMLReader"* %this, i1 zeroext %newValue) #1 comdat align 2 !dbg !3647 {
entry:
  %this.addr = alloca %"class.xercesc_2_7::XMLReader"*, align 8
  %newValue.addr = alloca i8, align 1
  store %"class.xercesc_2_7::XMLReader"* %this, %"class.xercesc_2_7::XMLReader"** %this.addr, align 8
  call void @llvm.dbg.declare(metadata %"class.xercesc_2_7::XMLReader"** %this.addr, metadata !3648, metadata !DIExpression()), !dbg !3649
  %frombool = zext i1 %newValue to i8
  store i8 %frombool, i8* %newValue.addr, align 1
  call void @llvm.dbg.declare(metadata i8* %newValue.addr, metadata !3650, metadata !DIExpression()), !dbg !3651
  %this1 = load %"class.xercesc_2_7::XMLReader"*, %"class.xercesc_2_7::XMLReader"** %this.addr, align 8
  %0 = load i8, i8* %newValue.addr, align 1, !dbg !3652
  %tobool = trunc i8 %0 to i1, !dbg !3652
  %fThrowAtEnd = getelementptr inbounds %"class.xercesc_2_7::XMLReader", %"class.xercesc_2_7::XMLReader"* %this1, i32 0, i32 25, !dbg !3653
  %frombool2 = zext i1 %tobool to i8, !dbg !3654
  store i8 %frombool2, i8* %fThrowAtEnd, align 1, !dbg !3654
  ret void, !dbg !3655
}

declare dso_local zeroext i1 @_ZN11xercesc_2_79ReaderMgr10pushReaderEPNS_9XMLReaderEPNS_13XMLEntityDeclE(%"class.xercesc_2_7::ReaderMgr"*, %"class.xercesc_2_7::XMLReader"*, %"class.xercesc_2_7::XMLEntityDecl"*) #7

; Function Attrs: noinline nounwind uwtable
define linkonce_odr dso_local i16* @_ZNK11xercesc_2_713XMLEntityDecl7getNameEv(%"class.xercesc_2_7::XMLEntityDecl"* %this) #1 comdat align 2 !dbg !3656 {
entry:
  %this.addr = alloca %"class.xercesc_2_7::XMLEntityDecl"*, align 8
  store %"class.xercesc_2_7::XMLEntityDecl"* %this, %"class.xercesc_2_7::XMLEntityDecl"** %this.addr, align 8
  call void @llvm.dbg.declare(metadata %"class.xercesc_2_7::XMLEntityDecl"** %this.addr, metadata !3658, metadata !DIExpression()), !dbg !3659
  %this1 = load %"class.xercesc_2_7::XMLEntityDecl"*, %"class.xercesc_2_7::XMLEntityDecl"** %this.addr, align 8
  %fName = getelementptr inbounds %"class.xercesc_2_7::XMLEntityDecl", %"class.xercesc_2_7::XMLEntityDecl"* %this1, i32 0, i32 4, !dbg !3660
  %0 = load i16*, i16** %fName, align 8, !dbg !3660
  ret i16* %0, !dbg !3661
}

; Function Attrs: noinline nounwind uwtable
define linkonce_odr dso_local %"class.xercesc_2_7::XMLEntityHandler"* @_ZN11xercesc_2_710XMLScanner16getEntityHandlerEv(%"class.xercesc_2_7::XMLScanner"* %this) #1 comdat align 2 !dbg !3662 {
entry:
  %this.addr = alloca %"class.xercesc_2_7::XMLScanner"*, align 8
  store %"class.xercesc_2_7::XMLScanner"* %this, %"class.xercesc_2_7::XMLScanner"** %this.addr, align 8
  call void @llvm.dbg.declare(metadata %"class.xercesc_2_7::XMLScanner"** %this.addr, metadata !3666, metadata !DIExpression()), !dbg !3667
  %this1 = load %"class.xercesc_2_7::XMLScanner"*, %"class.xercesc_2_7::XMLScanner"** %this.addr, align 8
  %fEntityHandler = getelementptr inbounds %"class.xercesc_2_7::XMLScanner", %"class.xercesc_2_7::XMLScanner"* %this1, i32 0, i32 43, !dbg !3668
  %0 = load %"class.xercesc_2_7::XMLEntityHandler"*, %"class.xercesc_2_7::XMLEntityHandler"** %fEntityHandler, align 8, !dbg !3668
  ret %"class.xercesc_2_7::XMLEntityHandler"* %0, !dbg !3669
}

; Function Attrs: noinline uwtable
define dso_local void @_ZN11xercesc_2_710DTDScanner17scanExtSubsetDeclEbb(%"class.xercesc_2_7::DTDScanner"* %this, i1 zeroext %inIncludeSect, i1 zeroext %isDTD) #6 align 2 personality i8* bitcast (i32 (...)* @__gxx_personality_v0 to i8*) !dbg !2 {
entry:
  %this.addr = alloca %"class.xercesc_2_7::DTDScanner"*, align 8
  %inIncludeSect.addr = alloca i8, align 1
  %isDTD.addr = alloca i8, align 1
  %janContentFlag = alloca %"class.xercesc_2_7::FlagJanitor", align 8
  %bAcceptDecl = alloca i8, align 1
  %bbSpace = alloca %"class.xercesc_2_7::XMLBufBid", align 8
  %exn.slot = alloca i8*
  %ehselector.slot = alloca i32
  %orgReader = alloca i32, align 4
  %inMarkup = alloca i8, align 1
  %inCharData = alloca i8, align 1
  %bDoBreak = alloca i8, align 1
  %nextCh = alloca i16, align 2
  %orgReader32 = alloca i32, align 4
  %wasInPE = alloca i8, align 1
  %cleanup.dest.slot = alloca i32, align 4
  %tmpBuf = alloca [9 x i16], align 16
  %toCatch = alloca %"class.xercesc_2_7::EndOfEntityException"*, align 8
  store %"class.xercesc_2_7::DTDScanner"* %this, %"class.xercesc_2_7::DTDScanner"** %this.addr, align 8
  call void @llvm.dbg.declare(metadata %"class.xercesc_2_7::DTDScanner"** %this.addr, metadata !3670, metadata !DIExpression()), !dbg !3671
  %frombool = zext i1 %inIncludeSect to i8
  store i8 %frombool, i8* %inIncludeSect.addr, align 1
  call void @llvm.dbg.declare(metadata i8* %inIncludeSect.addr, metadata !3672, metadata !DIExpression()), !dbg !3673
  %frombool1 = zext i1 %isDTD to i8
  store i8 %frombool1, i8* %isDTD.addr, align 1
  call void @llvm.dbg.declare(metadata i8* %isDTD.addr, metadata !3674, metadata !DIExpression()), !dbg !3675
  %this2 = load %"class.xercesc_2_7::DTDScanner"*, %"class.xercesc_2_7::DTDScanner"** %this.addr, align 8
  call void @llvm.dbg.declare(metadata %"class.xercesc_2_7::FlagJanitor"* %janContentFlag, metadata !3676, metadata !DIExpression()), !dbg !3704
  %fInternalSubset = getelementptr inbounds %"class.xercesc_2_7::DTDScanner", %"class.xercesc_2_7::DTDScanner"* %this2, i32 0, i32 7, !dbg !3705
  call void @_ZN11xercesc_2_711FlagJanitorIbEC2EPbb(%"class.xercesc_2_7::FlagJanitor"* %janContentFlag, i8* %fInternalSubset, i1 zeroext false), !dbg !3704
  call void @llvm.dbg.declare(metadata i8* %bAcceptDecl, metadata !3706, metadata !DIExpression()), !dbg !3707
  %0 = load i8, i8* %inIncludeSect.addr, align 1, !dbg !3708
  %tobool = trunc i8 %0 to i1, !dbg !3708
  %lnot = xor i1 %tobool, true, !dbg !3709
  %frombool3 = zext i1 %lnot to i8, !dbg !3707
  store i8 %frombool3, i8* %bAcceptDecl, align 1, !dbg !3707
  call void @llvm.dbg.declare(metadata %"class.xercesc_2_7::XMLBufBid"* %bbSpace, metadata !3710, metadata !DIExpression()), !dbg !3711
  %fBufMgr = getelementptr inbounds %"class.xercesc_2_7::DTDScanner", %"class.xercesc_2_7::DTDScanner"* %this2, i32 0, i32 10, !dbg !3712
  %1 = load %"class.xercesc_2_7::XMLBufferMgr"*, %"class.xercesc_2_7::XMLBufferMgr"** %fBufMgr, align 8, !dbg !3712
  invoke void @_ZN11xercesc_2_79XMLBufBidC2EPNS_12XMLBufferMgrE(%"class.xercesc_2_7::XMLBufBid"* %bbSpace, %"class.xercesc_2_7::XMLBufferMgr"* %1)
          to label %invoke.cont unwind label %lpad, !dbg !3711

invoke.cont:                                      ; preds = %entry
  %fDocTypeHandler = getelementptr inbounds %"class.xercesc_2_7::DTDScanner", %"class.xercesc_2_7::DTDScanner"* %this2, i32 0, i32 3, !dbg !3713
  %2 = load %"class.xercesc_2_7::DocTypeHandler"*, %"class.xercesc_2_7::DocTypeHandler"** %fDocTypeHandler, align 8, !dbg !3713
  %tobool4 = icmp ne %"class.xercesc_2_7::DocTypeHandler"* %2, null, !dbg !3713
  br i1 %tobool4, label %land.lhs.true, label %if.end, !dbg !3715

land.lhs.true:                                    ; preds = %invoke.cont
  %3 = load i8, i8* %inIncludeSect.addr, align 1, !dbg !3716
  %tobool5 = trunc i8 %3 to i1, !dbg !3716
  br i1 %tobool5, label %if.end, label %if.then, !dbg !3717

if.then:                                          ; preds = %land.lhs.true
  %fDocTypeHandler6 = getelementptr inbounds %"class.xercesc_2_7::DTDScanner", %"class.xercesc_2_7::DTDScanner"* %this2, i32 0, i32 3, !dbg !3718
  %4 = load %"class.xercesc_2_7::DocTypeHandler"*, %"class.xercesc_2_7::DocTypeHandler"** %fDocTypeHandler6, align 8, !dbg !3718
  %5 = bitcast %"class.xercesc_2_7::DocTypeHandler"* %4 to void (%"class.xercesc_2_7::DocTypeHandler"*)***, !dbg !3719
  %vtable = load void (%"class.xercesc_2_7::DocTypeHandler"*)**, void (%"class.xercesc_2_7::DocTypeHandler"*)*** %5, align 8, !dbg !3719
  %vfn = getelementptr inbounds void (%"class.xercesc_2_7::DocTypeHandler"*)*, void (%"class.xercesc_2_7::DocTypeHandler"*)** %vtable, i64 16, !dbg !3719
  %6 = load void (%"class.xercesc_2_7::DocTypeHandler"*)*, void (%"class.xercesc_2_7::DocTypeHandler"*)** %vfn, align 8, !dbg !3719
  invoke void %6(%"class.xercesc_2_7::DocTypeHandler"* %4)
          to label %invoke.cont8 unwind label %lpad7, !dbg !3719

invoke.cont8:                                     ; preds = %if.then
  br label %if.end, !dbg !3718

lpad:                                             ; preds = %entry
  %7 = landingpad { i8*, i32 }
          cleanup, !dbg !3720
  %8 = extractvalue { i8*, i32 } %7, 0, !dbg !3720
  store i8* %8, i8** %exn.slot, align 8, !dbg !3720
  %9 = extractvalue { i8*, i32 } %7, 1, !dbg !3720
  store i32 %9, i32* %ehselector.slot, align 4, !dbg !3720
  br label %ehcleanup204, !dbg !3720

lpad7:                                            ; preds = %if.then197, %if.end187, %if.end21, %if.then17, %if.then14, %if.then10, %if.end, %if.then
  %10 = landingpad { i8*, i32 }
          cleanup, !dbg !3721
  %11 = extractvalue { i8*, i32 } %10, 0, !dbg !3721
  store i8* %11, i8** %exn.slot, align 8, !dbg !3721
  %12 = extractvalue { i8*, i32 } %10, 1, !dbg !3721
  store i32 %12, i32* %ehselector.slot, align 4, !dbg !3721
  br label %ehcleanup, !dbg !3721

if.end:                                           ; preds = %invoke.cont8, %land.lhs.true, %invoke.cont
  %fReaderMgr = getelementptr inbounds %"class.xercesc_2_7::DTDScanner", %"class.xercesc_2_7::DTDScanner"* %this2, i32 0, i32 11, !dbg !3722
  %13 = load %"class.xercesc_2_7::ReaderMgr"*, %"class.xercesc_2_7::ReaderMgr"** %fReaderMgr, align 8, !dbg !3722
  %call = invoke zeroext i1 @_ZNK11xercesc_2_79ReaderMgr27isScanningPERefOutOfLiteralEv(%"class.xercesc_2_7::ReaderMgr"* %13)
          to label %invoke.cont9 unwind label %lpad7, !dbg !3724

invoke.cont9:                                     ; preds = %if.end
  br i1 %call, label %if.then10, label %if.end21, !dbg !3725

if.then10:                                        ; preds = %invoke.cont9
  %fReaderMgr11 = getelementptr inbounds %"class.xercesc_2_7::DTDScanner", %"class.xercesc_2_7::DTDScanner"* %this2, i32 0, i32 11, !dbg !3726
  %14 = load %"class.xercesc_2_7::ReaderMgr"*, %"class.xercesc_2_7::ReaderMgr"** %fReaderMgr11, align 8, !dbg !3726
  %call13 = invoke zeroext i1 @_ZN11xercesc_2_79ReaderMgr12skippedSpaceEv(%"class.xercesc_2_7::ReaderMgr"* %14)
          to label %invoke.cont12 unwind label %lpad7, !dbg !3729

invoke.cont12:                                    ; preds = %if.then10
  br i1 %call13, label %if.then14, label %if.end20, !dbg !3730

if.then14:                                        ; preds = %invoke.cont12
  %fScanner = getelementptr inbounds %"class.xercesc_2_7::DTDScanner", %"class.xercesc_2_7::DTDScanner"* %this2, i32 0, i32 12, !dbg !3731
  %15 = load %"class.xercesc_2_7::XMLScanner"*, %"class.xercesc_2_7::XMLScanner"** %fScanner, align 8, !dbg !3731
  %call16 = invoke zeroext i1 @_ZN11xercesc_2_710XMLScanner12checkXMLDeclEb(%"class.xercesc_2_7::XMLScanner"* %15, i1 zeroext true)
          to label %invoke.cont15 unwind label %lpad7, !dbg !3734

invoke.cont15:                                    ; preds = %if.then14
  br i1 %call16, label %if.then17, label %if.end19, !dbg !3735

if.then17:                                        ; preds = %invoke.cont15
  invoke void @_ZN11xercesc_2_710DTDScanner12scanTextDeclEv(%"class.xercesc_2_7::DTDScanner"* %this2)
          to label %invoke.cont18 unwind label %lpad7, !dbg !3736

invoke.cont18:                                    ; preds = %if.then17
  store i8 0, i8* %bAcceptDecl, align 1, !dbg !3738
  br label %if.end19, !dbg !3739

if.end19:                                         ; preds = %invoke.cont18, %invoke.cont15
  br label %if.end20, !dbg !3740

if.end20:                                         ; preds = %if.end19, %invoke.cont12
  br label %if.end21, !dbg !3741

if.end21:                                         ; preds = %if.end20, %invoke.cont9
  call void @llvm.dbg.declare(metadata i32* %orgReader, metadata !3742, metadata !DIExpression()), !dbg !3743
  %fReaderMgr22 = getelementptr inbounds %"class.xercesc_2_7::DTDScanner", %"class.xercesc_2_7::DTDScanner"* %this2, i32 0, i32 11, !dbg !3744
  %16 = load %"class.xercesc_2_7::ReaderMgr"*, %"class.xercesc_2_7::ReaderMgr"** %fReaderMgr22, align 8, !dbg !3744
  %call24 = invoke i32 @_ZNK11xercesc_2_79ReaderMgr19getCurrentReaderNumEv(%"class.xercesc_2_7::ReaderMgr"* %16)
          to label %invoke.cont23 unwind label %lpad7, !dbg !3745

invoke.cont23:                                    ; preds = %if.end21
  store i32 %call24, i32* %orgReader, align 4, !dbg !3743
  call void @llvm.dbg.declare(metadata i8* %inMarkup, metadata !3746, metadata !DIExpression()), !dbg !3747
  store i8 0, i8* %inMarkup, align 1, !dbg !3747
  call void @llvm.dbg.declare(metadata i8* %inCharData, metadata !3748, metadata !DIExpression()), !dbg !3749
  store i8 0, i8* %inCharData, align 1, !dbg !3749
  br label %while.cond, !dbg !3750

while.cond:                                       ; preds = %if.end192, %invoke.cont23
  br label %while.body, !dbg !3750

while.body:                                       ; preds = %while.cond
  call void @llvm.dbg.declare(metadata i8* %bDoBreak, metadata !3751, metadata !DIExpression()), !dbg !3753
  store i8 0, i8* %bDoBreak, align 1, !dbg !3753
  br label %while.cond25, !dbg !3754

while.cond25:                                     ; preds = %if.end161, %while.body
  br label %while.body26, !dbg !3754

while.body26:                                     ; preds = %while.cond25
  call void @llvm.dbg.declare(metadata i16* %nextCh, metadata !3756, metadata !DIExpression()), !dbg !3758
  %fReaderMgr27 = getelementptr inbounds %"class.xercesc_2_7::DTDScanner", %"class.xercesc_2_7::DTDScanner"* %this2, i32 0, i32 11, !dbg !3759
  %17 = load %"class.xercesc_2_7::ReaderMgr"*, %"class.xercesc_2_7::ReaderMgr"** %fReaderMgr27, align 8, !dbg !3759
  %call30 = invoke zeroext i16 @_ZN11xercesc_2_79ReaderMgr12peekNextCharEv(%"class.xercesc_2_7::ReaderMgr"* %17)
          to label %invoke.cont29 unwind label %lpad28, !dbg !3760

invoke.cont29:                                    ; preds = %while.body26
  store i16 %call30, i16* %nextCh, align 2, !dbg !3758
  %18 = load i16, i16* %nextCh, align 2, !dbg !3761
  %conv = zext i16 %18 to i32, !dbg !3761
  %cmp = icmp eq i32 %conv, 60, !dbg !3763
  br i1 %cmp, label %if.then31, label %if.else68, !dbg !3764

if.then31:                                        ; preds = %invoke.cont29
  call void @llvm.dbg.declare(metadata i32* %orgReader32, metadata !3765, metadata !DIExpression()), !dbg !3767
  %fReaderMgr33 = getelementptr inbounds %"class.xercesc_2_7::DTDScanner", %"class.xercesc_2_7::DTDScanner"* %this2, i32 0, i32 11, !dbg !3768
  %19 = load %"class.xercesc_2_7::ReaderMgr"*, %"class.xercesc_2_7::ReaderMgr"** %fReaderMgr33, align 8, !dbg !3768
  %call35 = invoke i32 @_ZNK11xercesc_2_79ReaderMgr19getCurrentReaderNumEv(%"class.xercesc_2_7::ReaderMgr"* %19)
          to label %invoke.cont34 unwind label %lpad28, !dbg !3769

invoke.cont34:                                    ; preds = %if.then31
  store i32 %call35, i32* %orgReader32, align 4, !dbg !3767
  call void @llvm.dbg.declare(metadata i8* %wasInPE, metadata !3770, metadata !DIExpression()), !dbg !3771
  %fReaderMgr36 = getelementptr inbounds %"class.xercesc_2_7::DTDScanner", %"class.xercesc_2_7::DTDScanner"* %this2, i32 0, i32 11, !dbg !3772
  %20 = load %"class.xercesc_2_7::ReaderMgr"*, %"class.xercesc_2_7::ReaderMgr"** %fReaderMgr36, align 8, !dbg !3772
  %call38 = invoke %"class.xercesc_2_7::XMLReader"* @_ZN11xercesc_2_79ReaderMgr16getCurrentReaderEv(%"class.xercesc_2_7::ReaderMgr"* %20)
          to label %invoke.cont37 unwind label %lpad28, !dbg !3773

invoke.cont37:                                    ; preds = %invoke.cont34
  %call40 = invoke i32 @_ZNK11xercesc_2_79XMLReader7getTypeEv(%"class.xercesc_2_7::XMLReader"* %call38)
          to label %invoke.cont39 unwind label %lpad28, !dbg !3774

invoke.cont39:                                    ; preds = %invoke.cont37
  %cmp41 = icmp eq i32 %call40, 0, !dbg !3775
  %frombool42 = zext i1 %cmp41 to i8, !dbg !3771
  store i8 %frombool42, i8* %wasInPE, align 1, !dbg !3771
  %fReaderMgr43 = getelementptr inbounds %"class.xercesc_2_7::DTDScanner", %"class.xercesc_2_7::DTDScanner"* %this2, i32 0, i32 11, !dbg !3776
  %21 = load %"class.xercesc_2_7::ReaderMgr"*, %"class.xercesc_2_7::ReaderMgr"** %fReaderMgr43, align 8, !dbg !3776
  %call45 = invoke zeroext i16 @_ZN11xercesc_2_79ReaderMgr11getNextCharEv(%"class.xercesc_2_7::ReaderMgr"* %21)
          to label %invoke.cont44 unwind label %lpad28, !dbg !3777

invoke.cont44:                                    ; preds = %invoke.cont39
  store i8 1, i8* %inMarkup, align 1, !dbg !3778
  %22 = load i8, i8* %bAcceptDecl, align 1, !dbg !3779
  %tobool46 = trunc i8 %22 to i1, !dbg !3779
  invoke void @_ZN11xercesc_2_710DTDScanner14scanMarkupDeclEb(%"class.xercesc_2_7::DTDScanner"* %this2, i1 zeroext %tobool46)
          to label %invoke.cont47 unwind label %lpad28, !dbg !3780

invoke.cont47:                                    ; preds = %invoke.cont44
  store i8 0, i8* %inMarkup, align 1, !dbg !3781
  %fReaderMgr48 = getelementptr inbounds %"class.xercesc_2_7::DTDScanner", %"class.xercesc_2_7::DTDScanner"* %this2, i32 0, i32 11, !dbg !3782
  %23 = load %"class.xercesc_2_7::ReaderMgr"*, %"class.xercesc_2_7::ReaderMgr"** %fReaderMgr48, align 8, !dbg !3782
  %call50 = invoke i32 @_ZNK11xercesc_2_79ReaderMgr19getCurrentReaderNumEv(%"class.xercesc_2_7::ReaderMgr"* %23)
          to label %invoke.cont49 unwind label %lpad28, !dbg !3784

invoke.cont49:                                    ; preds = %invoke.cont47
  %24 = load i32, i32* %orgReader32, align 4, !dbg !3785
  %cmp51 = icmp ne i32 %call50, %24, !dbg !3786
  br i1 %cmp51, label %if.then52, label %if.end67, !dbg !3787

if.then52:                                        ; preds = %invoke.cont49
  %25 = load i8, i8* %wasInPE, align 1, !dbg !3788
  %tobool53 = trunc i8 %25 to i1, !dbg !3788
  br i1 %tobool53, label %if.then54, label %if.else, !dbg !3791

if.then54:                                        ; preds = %if.then52
  %fScanner55 = getelementptr inbounds %"class.xercesc_2_7::DTDScanner", %"class.xercesc_2_7::DTDScanner"* %this2, i32 0, i32 12, !dbg !3792
  %26 = load %"class.xercesc_2_7::XMLScanner"*, %"class.xercesc_2_7::XMLScanner"** %fScanner55, align 8, !dbg !3792
  invoke void @_ZN11xercesc_2_710XMLScanner9emitErrorENS_7XMLErrs5CodesE(%"class.xercesc_2_7::XMLScanner"* %26, i32 299)
          to label %invoke.cont56 unwind label %lpad28, !dbg !3793

invoke.cont56:                                    ; preds = %if.then54
  br label %if.end66, !dbg !3792

lpad28:                                           ; preds = %if.end153, %if.else150, %invoke.cont146, %if.then144, %invoke.cont140, %invoke.cont137, %if.else135, %invoke.cont127, %if.then125, %if.else121, %invoke.cont118, %if.then116, %invoke.cont111, %if.then109, %invoke.cont100, %if.then98, %if.else90, %invoke.cont85, %invoke.cont83, %invoke.cont81, %invoke.cont79, %if.then77, %invoke.cont70, %if.else68, %invoke.cont62, %if.then60, %if.else, %if.then54, %invoke.cont47, %invoke.cont44, %invoke.cont39, %invoke.cont37, %invoke.cont34, %if.then31, %while.body26
  %27 = landingpad { i8*, i32 }
          cleanup
          catch i8* bitcast ({ i8*, i8* }* @_ZTIN11xercesc_2_720EndOfEntityExceptionE to i8*), !dbg !3794
  %28 = extractvalue { i8*, i32 } %27, 0, !dbg !3794
  store i8* %28, i8** %exn.slot, align 8, !dbg !3794
  %29 = extractvalue { i8*, i32 } %27, 1, !dbg !3794
  store i32 %29, i32* %ehselector.slot, align 4, !dbg !3794
  br label %catch.dispatch, !dbg !3794

catch.dispatch:                                   ; preds = %lpad28
  %sel = load i32, i32* %ehselector.slot, align 4, !dbg !3795
  %30 = call i32 @llvm.eh.typeid.for(i8* bitcast ({ i8*, i8* }* @_ZTIN11xercesc_2_720EndOfEntityExceptionE to i8*)) #10, !dbg !3795
  %matches = icmp eq i32 %sel, %30, !dbg !3795
  br i1 %matches, label %catch, label %ehcleanup, !dbg !3795

catch:                                            ; preds = %catch.dispatch
  call void @llvm.dbg.declare(metadata %"class.xercesc_2_7::EndOfEntityException"** %toCatch, metadata !3796, metadata !DIExpression()), !dbg !3830
  %exn = load i8*, i8** %exn.slot, align 8, !dbg !3795
  %31 = call i8* @__cxa_begin_catch(i8* %exn) #10, !dbg !3795
  %exn.byref = bitcast i8* %31 to %"class.xercesc_2_7::EndOfEntityException"*, !dbg !3795
  store %"class.xercesc_2_7::EndOfEntityException"* %exn.byref, %"class.xercesc_2_7::EndOfEntityException"** %toCatch, align 8, !dbg !3795
  %32 = load i8, i8* %inMarkup, align 1, !dbg !3831
  %tobool162 = trunc i8 %32 to i1, !dbg !3831
  br i1 %tobool162, label %if.then163, label %if.end167, !dbg !3834

if.then163:                                       ; preds = %catch
  %fScanner164 = getelementptr inbounds %"class.xercesc_2_7::DTDScanner", %"class.xercesc_2_7::DTDScanner"* %this2, i32 0, i32 12, !dbg !3835
  %33 = load %"class.xercesc_2_7::XMLScanner"*, %"class.xercesc_2_7::XMLScanner"** %fScanner164, align 8, !dbg !3835
  invoke void @_ZN11xercesc_2_710XMLScanner9emitErrorENS_7XMLErrs5CodesE(%"class.xercesc_2_7::XMLScanner"* %33, i32 231)
          to label %invoke.cont166 unwind label %lpad165, !dbg !3837

invoke.cont166:                                   ; preds = %if.then163
  store i8 0, i8* %inMarkup, align 1, !dbg !3838
  br label %if.end167, !dbg !3839

if.else:                                          ; preds = %if.then52
  %fScanner57 = getelementptr inbounds %"class.xercesc_2_7::DTDScanner", %"class.xercesc_2_7::DTDScanner"* %this2, i32 0, i32 12, !dbg !3840
  %34 = load %"class.xercesc_2_7::XMLScanner"*, %"class.xercesc_2_7::XMLScanner"** %fScanner57, align 8, !dbg !3840
  %call59 = invoke zeroext i1 @_ZNK11xercesc_2_710XMLScanner15getDoValidationEv(%"class.xercesc_2_7::XMLScanner"* %34)
          to label %invoke.cont58 unwind label %lpad28, !dbg !3842

invoke.cont58:                                    ; preds = %if.else
  br i1 %call59, label %if.then60, label %if.end65, !dbg !3843

if.then60:                                        ; preds = %invoke.cont58
  %fScanner61 = getelementptr inbounds %"class.xercesc_2_7::DTDScanner", %"class.xercesc_2_7::DTDScanner"* %this2, i32 0, i32 12, !dbg !3844
  %35 = load %"class.xercesc_2_7::XMLScanner"*, %"class.xercesc_2_7::XMLScanner"** %fScanner61, align 8, !dbg !3844
  %call63 = invoke %"class.xercesc_2_7::XMLValidator"* @_ZN11xercesc_2_710XMLScanner12getValidatorEv(%"class.xercesc_2_7::XMLScanner"* %35)
          to label %invoke.cont62 unwind label %lpad28, !dbg !3845

invoke.cont62:                                    ; preds = %if.then60
  invoke void @_ZN11xercesc_2_712XMLValidator9emitErrorENS_8XMLValid5CodesE(%"class.xercesc_2_7::XMLValidator"* %call63, i32 86)
          to label %invoke.cont64 unwind label %lpad28, !dbg !3846

invoke.cont64:                                    ; preds = %invoke.cont62
  br label %if.end65, !dbg !3844

if.end65:                                         ; preds = %invoke.cont64, %invoke.cont58
  br label %if.end66

if.end66:                                         ; preds = %if.end65, %invoke.cont56
  br label %if.end67, !dbg !3847

if.end67:                                         ; preds = %if.end66, %invoke.cont49
  br label %if.end161, !dbg !3848

if.else68:                                        ; preds = %invoke.cont29
  %fReaderMgr69 = getelementptr inbounds %"class.xercesc_2_7::DTDScanner", %"class.xercesc_2_7::DTDScanner"* %this2, i32 0, i32 11, !dbg !3849
  %36 = load %"class.xercesc_2_7::ReaderMgr"*, %"class.xercesc_2_7::ReaderMgr"** %fReaderMgr69, align 8, !dbg !3849
  %call71 = invoke %"class.xercesc_2_7::XMLReader"* @_ZN11xercesc_2_79ReaderMgr16getCurrentReaderEv(%"class.xercesc_2_7::ReaderMgr"* %36)
          to label %invoke.cont70 unwind label %lpad28, !dbg !3851

invoke.cont70:                                    ; preds = %if.else68
  %37 = load i16, i16* %nextCh, align 2, !dbg !3852
  %call73 = invoke zeroext i1 @_ZNK11xercesc_2_79XMLReader12isWhitespaceEt(%"class.xercesc_2_7::XMLReader"* %call71, i16 zeroext %37)
          to label %invoke.cont72 unwind label %lpad28, !dbg !3853

invoke.cont72:                                    ; preds = %invoke.cont70
  br i1 %call73, label %if.then74, label %if.else95, !dbg !3854

if.then74:                                        ; preds = %invoke.cont72
  %fDocTypeHandler75 = getelementptr inbounds %"class.xercesc_2_7::DTDScanner", %"class.xercesc_2_7::DTDScanner"* %this2, i32 0, i32 3, !dbg !3855
  %38 = load %"class.xercesc_2_7::DocTypeHandler"*, %"class.xercesc_2_7::DocTypeHandler"** %fDocTypeHandler75, align 8, !dbg !3855
  %tobool76 = icmp ne %"class.xercesc_2_7::DocTypeHandler"* %38, null, !dbg !3855
  br i1 %tobool76, label %if.then77, label %if.else90, !dbg !3858

if.then77:                                        ; preds = %if.then74
  store i8 1, i8* %inCharData, align 1, !dbg !3859
  %fReaderMgr78 = getelementptr inbounds %"class.xercesc_2_7::DTDScanner", %"class.xercesc_2_7::DTDScanner"* %this2, i32 0, i32 11, !dbg !3861
  %39 = load %"class.xercesc_2_7::ReaderMgr"*, %"class.xercesc_2_7::ReaderMgr"** %fReaderMgr78, align 8, !dbg !3861
  %call80 = invoke dereferenceable(40) %"class.xercesc_2_7::XMLBuffer"* @_ZN11xercesc_2_79XMLBufBid9getBufferEv(%"class.xercesc_2_7::XMLBufBid"* %bbSpace)
          to label %invoke.cont79 unwind label %lpad28, !dbg !3862

invoke.cont79:                                    ; preds = %if.then77
  invoke void @_ZN11xercesc_2_79ReaderMgr9getSpacesERNS_9XMLBufferE(%"class.xercesc_2_7::ReaderMgr"* %39, %"class.xercesc_2_7::XMLBuffer"* dereferenceable(40) %call80)
          to label %invoke.cont81 unwind label %lpad28, !dbg !3863

invoke.cont81:                                    ; preds = %invoke.cont79
  store i8 0, i8* %inCharData, align 1, !dbg !3864
  %fDocTypeHandler82 = getelementptr inbounds %"class.xercesc_2_7::DTDScanner", %"class.xercesc_2_7::DTDScanner"* %this2, i32 0, i32 3, !dbg !3865
  %40 = load %"class.xercesc_2_7::DocTypeHandler"*, %"class.xercesc_2_7::DocTypeHandler"** %fDocTypeHandler82, align 8, !dbg !3865
  %call84 = invoke i16* @_ZN11xercesc_2_79XMLBufBid12getRawBufferEv(%"class.xercesc_2_7::XMLBufBid"* %bbSpace)
          to label %invoke.cont83 unwind label %lpad28, !dbg !3866

invoke.cont83:                                    ; preds = %invoke.cont81
  %call86 = invoke i32 @_ZNK11xercesc_2_79XMLBufBid6getLenEv(%"class.xercesc_2_7::XMLBufBid"* %bbSpace)
          to label %invoke.cont85 unwind label %lpad28, !dbg !3867

invoke.cont85:                                    ; preds = %invoke.cont83
  %41 = bitcast %"class.xercesc_2_7::DocTypeHandler"* %40 to void (%"class.xercesc_2_7::DocTypeHandler"*, i16*, i32)***, !dbg !3868
  %vtable87 = load void (%"class.xercesc_2_7::DocTypeHandler"*, i16*, i32)**, void (%"class.xercesc_2_7::DocTypeHandler"*, i16*, i32)*** %41, align 8, !dbg !3868
  %vfn88 = getelementptr inbounds void (%"class.xercesc_2_7::DocTypeHandler"*, i16*, i32)*, void (%"class.xercesc_2_7::DocTypeHandler"*, i16*, i32)** %vtable87, i64 6, !dbg !3868
  %42 = load void (%"class.xercesc_2_7::DocTypeHandler"*, i16*, i32)*, void (%"class.xercesc_2_7::DocTypeHandler"*, i16*, i32)** %vfn88, align 8, !dbg !3868
  invoke void %42(%"class.xercesc_2_7::DocTypeHandler"* %40, i16* %call84, i32 %call86)
          to label %invoke.cont89 unwind label %lpad28, !dbg !3868

invoke.cont89:                                    ; preds = %invoke.cont85
  br label %if.end94, !dbg !3869

if.else90:                                        ; preds = %if.then74
  %fReaderMgr91 = getelementptr inbounds %"class.xercesc_2_7::DTDScanner", %"class.xercesc_2_7::DTDScanner"* %this2, i32 0, i32 11, !dbg !3870
  %43 = load %"class.xercesc_2_7::ReaderMgr"*, %"class.xercesc_2_7::ReaderMgr"** %fReaderMgr91, align 8, !dbg !3870
  %call93 = invoke zeroext i1 @_ZN11xercesc_2_79ReaderMgr14skipPastSpacesEb(%"class.xercesc_2_7::ReaderMgr"* %43, i1 zeroext false)
          to label %invoke.cont92 unwind label %lpad28, !dbg !3872

invoke.cont92:                                    ; preds = %if.else90
  br label %if.end94

if.end94:                                         ; preds = %invoke.cont92, %invoke.cont89
  br label %if.end160, !dbg !3873

if.else95:                                        ; preds = %invoke.cont72
  %44 = load i16, i16* %nextCh, align 2, !dbg !3874
  %conv96 = zext i16 %44 to i32, !dbg !3874
  %cmp97 = icmp eq i32 %conv96, 37, !dbg !3876
  br i1 %cmp97, label %if.then98, label %if.else104, !dbg !3877

if.then98:                                        ; preds = %if.else95
  %fReaderMgr99 = getelementptr inbounds %"class.xercesc_2_7::DTDScanner", %"class.xercesc_2_7::DTDScanner"* %this2, i32 0, i32 11, !dbg !3878
  %45 = load %"class.xercesc_2_7::ReaderMgr"*, %"class.xercesc_2_7::ReaderMgr"** %fReaderMgr99, align 8, !dbg !3878
  %call101 = invoke zeroext i16 @_ZN11xercesc_2_79ReaderMgr11getNextCharEv(%"class.xercesc_2_7::ReaderMgr"* %45)
          to label %invoke.cont100 unwind label %lpad28, !dbg !3880

invoke.cont100:                                   ; preds = %if.then98
  %call103 = invoke zeroext i1 @_ZN11xercesc_2_710DTDScanner11expandPERefEbbbb(%"class.xercesc_2_7::DTDScanner"* %this2, i1 zeroext true, i1 zeroext false, i1 zeroext false, i1 zeroext true)
          to label %invoke.cont102 unwind label %lpad28, !dbg !3881

invoke.cont102:                                   ; preds = %invoke.cont100
  br label %if.end159, !dbg !3882

if.else104:                                       ; preds = %if.else95
  %46 = load i8, i8* %inIncludeSect.addr, align 1, !dbg !3883
  %tobool105 = trunc i8 %46 to i1, !dbg !3883
  br i1 %tobool105, label %land.lhs.true106, label %if.else132, !dbg !3885

land.lhs.true106:                                 ; preds = %if.else104
  %47 = load i16, i16* %nextCh, align 2, !dbg !3886
  %conv107 = zext i16 %47 to i32, !dbg !3886
  %cmp108 = icmp eq i32 %conv107, 93, !dbg !3887
  br i1 %cmp108, label %if.then109, label %if.else132, !dbg !3888

if.then109:                                       ; preds = %land.lhs.true106
  %fReaderMgr110 = getelementptr inbounds %"class.xercesc_2_7::DTDScanner", %"class.xercesc_2_7::DTDScanner"* %this2, i32 0, i32 11, !dbg !3889
  %48 = load %"class.xercesc_2_7::ReaderMgr"*, %"class.xercesc_2_7::ReaderMgr"** %fReaderMgr110, align 8, !dbg !3889
  %call112 = invoke zeroext i16 @_ZN11xercesc_2_79ReaderMgr11getNextCharEv(%"class.xercesc_2_7::ReaderMgr"* %48)
          to label %invoke.cont111 unwind label %lpad28, !dbg !3891

invoke.cont111:                                   ; preds = %if.then109
  %fReaderMgr113 = getelementptr inbounds %"class.xercesc_2_7::DTDScanner", %"class.xercesc_2_7::DTDScanner"* %this2, i32 0, i32 11, !dbg !3892
  %49 = load %"class.xercesc_2_7::ReaderMgr"*, %"class.xercesc_2_7::ReaderMgr"** %fReaderMgr113, align 8, !dbg !3892
  %call115 = invoke zeroext i1 @_ZN11xercesc_2_79ReaderMgr11skippedCharEt(%"class.xercesc_2_7::ReaderMgr"* %49, i16 zeroext 93)
          to label %invoke.cont114 unwind label %lpad28, !dbg !3894

invoke.cont114:                                   ; preds = %invoke.cont111
  br i1 %call115, label %if.else121, label %if.then116, !dbg !3895

if.then116:                                       ; preds = %invoke.cont114
  %fScanner117 = getelementptr inbounds %"class.xercesc_2_7::DTDScanner", %"class.xercesc_2_7::DTDScanner"* %this2, i32 0, i32 12, !dbg !3896
  %50 = load %"class.xercesc_2_7::XMLScanner"*, %"class.xercesc_2_7::XMLScanner"** %fScanner117, align 8, !dbg !3896
  invoke void @_ZN11xercesc_2_710XMLScanner9emitErrorENS_7XMLErrs5CodesE(%"class.xercesc_2_7::XMLScanner"* %50, i32 250)
          to label %invoke.cont118 unwind label %lpad28, !dbg !3898

invoke.cont118:                                   ; preds = %if.then116
  %fReaderMgr119 = getelementptr inbounds %"class.xercesc_2_7::DTDScanner", %"class.xercesc_2_7::DTDScanner"* %this2, i32 0, i32 11, !dbg !3899
  %51 = load %"class.xercesc_2_7::ReaderMgr"*, %"class.xercesc_2_7::ReaderMgr"** %fReaderMgr119, align 8, !dbg !3899
  invoke void @_ZN11xercesc_2_79ReaderMgr12skipPastCharEt(%"class.xercesc_2_7::ReaderMgr"* %51, i16 zeroext 62)
          to label %invoke.cont120 unwind label %lpad28, !dbg !3900

invoke.cont120:                                   ; preds = %invoke.cont118
  br label %if.end131, !dbg !3901

if.else121:                                       ; preds = %invoke.cont114
  %fReaderMgr122 = getelementptr inbounds %"class.xercesc_2_7::DTDScanner", %"class.xercesc_2_7::DTDScanner"* %this2, i32 0, i32 11, !dbg !3902
  %52 = load %"class.xercesc_2_7::ReaderMgr"*, %"class.xercesc_2_7::ReaderMgr"** %fReaderMgr122, align 8, !dbg !3902
  %call124 = invoke zeroext i1 @_ZN11xercesc_2_79ReaderMgr11skippedCharEt(%"class.xercesc_2_7::ReaderMgr"* %52, i16 zeroext 62)
          to label %invoke.cont123 unwind label %lpad28, !dbg !3904

invoke.cont123:                                   ; preds = %if.else121
  br i1 %call124, label %if.end130, label %if.then125, !dbg !3905

if.then125:                                       ; preds = %invoke.cont123
  %fScanner126 = getelementptr inbounds %"class.xercesc_2_7::DTDScanner", %"class.xercesc_2_7::DTDScanner"* %this2, i32 0, i32 12, !dbg !3906
  %53 = load %"class.xercesc_2_7::XMLScanner"*, %"class.xercesc_2_7::XMLScanner"** %fScanner126, align 8, !dbg !3906
  invoke void @_ZN11xercesc_2_710XMLScanner9emitErrorENS_7XMLErrs5CodesE(%"class.xercesc_2_7::XMLScanner"* %53, i32 250)
          to label %invoke.cont127 unwind label %lpad28, !dbg !3908

invoke.cont127:                                   ; preds = %if.then125
  %fReaderMgr128 = getelementptr inbounds %"class.xercesc_2_7::DTDScanner", %"class.xercesc_2_7::DTDScanner"* %this2, i32 0, i32 11, !dbg !3909
  %54 = load %"class.xercesc_2_7::ReaderMgr"*, %"class.xercesc_2_7::ReaderMgr"** %fReaderMgr128, align 8, !dbg !3909
  invoke void @_ZN11xercesc_2_79ReaderMgr12skipPastCharEt(%"class.xercesc_2_7::ReaderMgr"* %54, i16 zeroext 62)
          to label %invoke.cont129 unwind label %lpad28, !dbg !3910

invoke.cont129:                                   ; preds = %invoke.cont127
  br label %if.end130, !dbg !3911

if.end130:                                        ; preds = %invoke.cont129, %invoke.cont123
  br label %if.end131

if.end131:                                        ; preds = %if.end130, %invoke.cont120
  store i32 1, i32* %cleanup.dest.slot, align 4
  br label %cleanup, !dbg !3912

if.else132:                                       ; preds = %land.lhs.true106, %if.else104
  %55 = load i16, i16* %nextCh, align 2, !dbg !3913
  %tobool133 = icmp ne i16 %55, 0, !dbg !3913
  br i1 %tobool133, label %if.else135, label %if.then134, !dbg !3915

if.then134:                                       ; preds = %if.else132
  store i32 1, i32* %cleanup.dest.slot, align 4
  br label %cleanup, !dbg !3916

if.else135:                                       ; preds = %if.else132
  %fReaderMgr136 = getelementptr inbounds %"class.xercesc_2_7::DTDScanner", %"class.xercesc_2_7::DTDScanner"* %this2, i32 0, i32 11, !dbg !3918
  %56 = load %"class.xercesc_2_7::ReaderMgr"*, %"class.xercesc_2_7::ReaderMgr"** %fReaderMgr136, align 8, !dbg !3918
  %call138 = invoke zeroext i16 @_ZN11xercesc_2_79ReaderMgr11getNextCharEv(%"class.xercesc_2_7::ReaderMgr"* %56)
          to label %invoke.cont137 unwind label %lpad28, !dbg !3920

invoke.cont137:                                   ; preds = %if.else135
  %fReaderMgr139 = getelementptr inbounds %"class.xercesc_2_7::DTDScanner", %"class.xercesc_2_7::DTDScanner"* %this2, i32 0, i32 11, !dbg !3921
  %57 = load %"class.xercesc_2_7::ReaderMgr"*, %"class.xercesc_2_7::ReaderMgr"** %fReaderMgr139, align 8, !dbg !3921
  %call141 = invoke %"class.xercesc_2_7::XMLReader"* @_ZN11xercesc_2_79ReaderMgr16getCurrentReaderEv(%"class.xercesc_2_7::ReaderMgr"* %57)
          to label %invoke.cont140 unwind label %lpad28, !dbg !3923

invoke.cont140:                                   ; preds = %invoke.cont137
  %58 = load i16, i16* %nextCh, align 2, !dbg !3924
  %call143 = invoke zeroext i1 @_ZNK11xercesc_2_79XMLReader9isXMLCharEt(%"class.xercesc_2_7::XMLReader"* %call141, i16 zeroext %58)
          to label %invoke.cont142 unwind label %lpad28, !dbg !3925

invoke.cont142:                                   ; preds = %invoke.cont140
  br i1 %call143, label %if.else150, label %if.then144, !dbg !3926

if.then144:                                       ; preds = %invoke.cont142
  call void @llvm.dbg.declare(metadata [9 x i16]* %tmpBuf, metadata !3927, metadata !DIExpression()), !dbg !3932
  %59 = load i16, i16* %nextCh, align 2, !dbg !3933
  %conv145 = zext i16 %59 to i32, !dbg !3933
  %arraydecay = getelementptr inbounds [9 x i16], [9 x i16]* %tmpBuf, i64 0, i64 0, !dbg !3934
  %fMemoryManager = getelementptr inbounds %"class.xercesc_2_7::DTDScanner", %"class.xercesc_2_7::DTDScanner"* %this2, i32 0, i32 1, !dbg !3935
  %60 = load %"class.xercesc_2_7::MemoryManager"*, %"class.xercesc_2_7::MemoryManager"** %fMemoryManager, align 8, !dbg !3935
  invoke void @_ZN11xercesc_2_79XMLString9binToTextEiPtjjPNS_13MemoryManagerE(i32 %conv145, i16* %arraydecay, i32 8, i32 16, %"class.xercesc_2_7::MemoryManager"* %60)
          to label %invoke.cont146 unwind label %lpad28, !dbg !3936

invoke.cont146:                                   ; preds = %if.then144
  %fScanner147 = getelementptr inbounds %"class.xercesc_2_7::DTDScanner", %"class.xercesc_2_7::DTDScanner"* %this2, i32 0, i32 12, !dbg !3937
  %61 = load %"class.xercesc_2_7::XMLScanner"*, %"class.xercesc_2_7::XMLScanner"** %fScanner147, align 8, !dbg !3937
  %arraydecay148 = getelementptr inbounds [9 x i16], [9 x i16]* %tmpBuf, i64 0, i64 0, !dbg !3938
  invoke void @_ZN11xercesc_2_710XMLScanner9emitErrorENS_7XMLErrs5CodesEPKtS4_S4_S4_(%"class.xercesc_2_7::XMLScanner"* %61, i32 196, i16* %arraydecay148, i16* null, i16* null, i16* null)
          to label %invoke.cont149 unwind label %lpad28, !dbg !3939

invoke.cont149:                                   ; preds = %invoke.cont146
  br label %if.end153, !dbg !3940

if.else150:                                       ; preds = %invoke.cont142
  %fScanner151 = getelementptr inbounds %"class.xercesc_2_7::DTDScanner", %"class.xercesc_2_7::DTDScanner"* %this2, i32 0, i32 12, !dbg !3941
  %62 = load %"class.xercesc_2_7::XMLScanner"*, %"class.xercesc_2_7::XMLScanner"** %fScanner151, align 8, !dbg !3941
  invoke void @_ZN11xercesc_2_710XMLScanner9emitErrorENS_7XMLErrs5CodesE(%"class.xercesc_2_7::XMLScanner"* %62, i32 186)
          to label %invoke.cont152 unwind label %lpad28, !dbg !3943

invoke.cont152:                                   ; preds = %if.else150
  br label %if.end153

if.end153:                                        ; preds = %invoke.cont152, %invoke.cont149
  %fReaderMgr154 = getelementptr inbounds %"class.xercesc_2_7::DTDScanner", %"class.xercesc_2_7::DTDScanner"* %this2, i32 0, i32 11, !dbg !3944
  %63 = load %"class.xercesc_2_7::ReaderMgr"*, %"class.xercesc_2_7::ReaderMgr"** %fReaderMgr154, align 8, !dbg !3944
  %call156 = invoke zeroext i16 @_ZN11xercesc_2_79ReaderMgr15skipUntilInOrWSEPKt(%"class.xercesc_2_7::ReaderMgr"* %63, i16* getelementptr inbounds ([4 x i16], [4 x i16]* @_ZZN11xercesc_2_710DTDScanner17scanExtSubsetDeclEbbE6toSkip, i64 0, i64 0))
          to label %invoke.cont155 unwind label %lpad28, !dbg !3945

invoke.cont155:                                   ; preds = %if.end153
  br label %if.end157

if.end157:                                        ; preds = %invoke.cont155
  br label %if.end158

if.end158:                                        ; preds = %if.end157
  br label %if.end159

if.end159:                                        ; preds = %if.end158, %invoke.cont102
  br label %if.end160

if.end160:                                        ; preds = %if.end159, %if.end94
  br label %if.end161

if.end161:                                        ; preds = %if.end160, %if.end67
  store i8 0, i8* %bAcceptDecl, align 1, !dbg !3946
  br label %while.cond25, !dbg !3754, !llvm.loop !3947

lpad165:                                          ; preds = %if.end182, %invoke.cont176, %invoke.cont174, %if.then172, %if.then163
  %64 = landingpad { i8*, i32 }
          cleanup, !dbg !3949
  %65 = extractvalue { i8*, i32 } %64, 0, !dbg !3949
  store i8* %65, i8** %exn.slot, align 8, !dbg !3949
  %66 = extractvalue { i8*, i32 } %64, 1, !dbg !3949
  store i32 %66, i32* %ehselector.slot, align 4, !dbg !3949
  invoke void @__cxa_end_catch()
          to label %invoke.cont189 unwind label %terminate.lpad, !dbg !3950

if.end167:                                        ; preds = %invoke.cont166, %catch
  %67 = load i8, i8* %inCharData, align 1, !dbg !3951
  %tobool168 = trunc i8 %67 to i1, !dbg !3951
  br i1 %tobool168, label %if.then169, label %if.end182, !dbg !3953

if.then169:                                       ; preds = %if.end167
  %fDocTypeHandler170 = getelementptr inbounds %"class.xercesc_2_7::DTDScanner", %"class.xercesc_2_7::DTDScanner"* %this2, i32 0, i32 3, !dbg !3954
  %68 = load %"class.xercesc_2_7::DocTypeHandler"*, %"class.xercesc_2_7::DocTypeHandler"** %fDocTypeHandler170, align 8, !dbg !3954
  %tobool171 = icmp ne %"class.xercesc_2_7::DocTypeHandler"* %68, null, !dbg !3954
  br i1 %tobool171, label %if.then172, label %if.end181, !dbg !3957

if.then172:                                       ; preds = %if.then169
  %fDocTypeHandler173 = getelementptr inbounds %"class.xercesc_2_7::DTDScanner", %"class.xercesc_2_7::DTDScanner"* %this2, i32 0, i32 3, !dbg !3958
  %69 = load %"class.xercesc_2_7::DocTypeHandler"*, %"class.xercesc_2_7::DocTypeHandler"** %fDocTypeHandler173, align 8, !dbg !3958
  %call175 = invoke i16* @_ZN11xercesc_2_79XMLBufBid12getRawBufferEv(%"class.xercesc_2_7::XMLBufBid"* %bbSpace)
          to label %invoke.cont174 unwind label %lpad165, !dbg !3960

invoke.cont174:                                   ; preds = %if.then172
  %call177 = invoke i32 @_ZNK11xercesc_2_79XMLBufBid6getLenEv(%"class.xercesc_2_7::XMLBufBid"* %bbSpace)
          to label %invoke.cont176 unwind label %lpad165, !dbg !3961

invoke.cont176:                                   ; preds = %invoke.cont174
  %70 = bitcast %"class.xercesc_2_7::DocTypeHandler"* %69 to void (%"class.xercesc_2_7::DocTypeHandler"*, i16*, i32)***, !dbg !3962
  %vtable178 = load void (%"class.xercesc_2_7::DocTypeHandler"*, i16*, i32)**, void (%"class.xercesc_2_7::DocTypeHandler"*, i16*, i32)*** %70, align 8, !dbg !3962
  %vfn179 = getelementptr inbounds void (%"class.xercesc_2_7::DocTypeHandler"*, i16*, i32)*, void (%"class.xercesc_2_7::DocTypeHandler"*, i16*, i32)** %vtable178, i64 6, !dbg !3962
  %71 = load void (%"class.xercesc_2_7::DocTypeHandler"*, i16*, i32)*, void (%"class.xercesc_2_7::DocTypeHandler"*, i16*, i32)** %vfn179, align 8, !dbg !3962
  invoke void %71(%"class.xercesc_2_7::DocTypeHandler"* %69, i16* %call175, i32 %call177)
          to label %invoke.cont180 unwind label %lpad165, !dbg !3962

invoke.cont180:                                   ; preds = %invoke.cont176
  br label %if.end181, !dbg !3963

if.end181:                                        ; preds = %invoke.cont180, %if.then169
  store i8 0, i8* %inCharData, align 1, !dbg !3964
  br label %if.end182, !dbg !3965

if.end182:                                        ; preds = %if.end181, %if.end167
  %72 = load i32, i32* %orgReader, align 4, !dbg !3966
  %73 = load %"class.xercesc_2_7::EndOfEntityException"*, %"class.xercesc_2_7::EndOfEntityException"** %toCatch, align 8, !dbg !3968
  %call184 = invoke i32 @_ZNK11xercesc_2_720EndOfEntityException12getReaderNumEv(%"class.xercesc_2_7::EndOfEntityException"* %73)
          to label %invoke.cont183 unwind label %lpad165, !dbg !3969

invoke.cont183:                                   ; preds = %if.end182
  %cmp185 = icmp eq i32 %72, %call184, !dbg !3970
  br i1 %cmp185, label %if.then186, label %if.end187, !dbg !3971

if.then186:                                       ; preds = %invoke.cont183
  store i8 1, i8* %bDoBreak, align 1, !dbg !3972
  br label %if.end187, !dbg !3973

if.end187:                                        ; preds = %if.then186, %invoke.cont183
  invoke void @__cxa_end_catch()
          to label %invoke.cont188 unwind label %lpad7, !dbg !3950

invoke.cont188:                                   ; preds = %if.end187
  br label %try.cont, !dbg !3950

try.cont:                                         ; preds = %invoke.cont188
  %74 = load i8, i8* %bDoBreak, align 1, !dbg !3974
  %tobool190 = trunc i8 %74 to i1, !dbg !3974
  br i1 %tobool190, label %if.then191, label %if.end192, !dbg !3976

if.then191:                                       ; preds = %try.cont
  br label %while.end, !dbg !3977

invoke.cont189:                                   ; preds = %lpad165
  br label %ehcleanup, !dbg !3950

if.end192:                                        ; preds = %try.cont
  br label %while.cond, !dbg !3750, !llvm.loop !3978

while.end:                                        ; preds = %if.then191
  %fDocTypeHandler193 = getelementptr inbounds %"class.xercesc_2_7::DTDScanner", %"class.xercesc_2_7::DTDScanner"* %this2, i32 0, i32 3, !dbg !3980
  %75 = load %"class.xercesc_2_7::DocTypeHandler"*, %"class.xercesc_2_7::DocTypeHandler"** %fDocTypeHandler193, align 8, !dbg !3980
  %tobool194 = icmp ne %"class.xercesc_2_7::DocTypeHandler"* %75, null, !dbg !3980
  br i1 %tobool194, label %land.lhs.true195, label %if.end202, !dbg !3982

land.lhs.true195:                                 ; preds = %while.end
  %76 = load i8, i8* %isDTD.addr, align 1, !dbg !3983
  %tobool196 = trunc i8 %76 to i1, !dbg !3983
  br i1 %tobool196, label %if.then197, label %if.end202, !dbg !3984

if.then197:                                       ; preds = %land.lhs.true195
  %fDocTypeHandler198 = getelementptr inbounds %"class.xercesc_2_7::DTDScanner", %"class.xercesc_2_7::DTDScanner"* %this2, i32 0, i32 3, !dbg !3985
  %77 = load %"class.xercesc_2_7::DocTypeHandler"*, %"class.xercesc_2_7::DocTypeHandler"** %fDocTypeHandler198, align 8, !dbg !3985
  %78 = bitcast %"class.xercesc_2_7::DocTypeHandler"* %77 to void (%"class.xercesc_2_7::DocTypeHandler"*)***, !dbg !3986
  %vtable199 = load void (%"class.xercesc_2_7::DocTypeHandler"*)**, void (%"class.xercesc_2_7::DocTypeHandler"*)*** %78, align 8, !dbg !3986
  %vfn200 = getelementptr inbounds void (%"class.xercesc_2_7::DocTypeHandler"*)*, void (%"class.xercesc_2_7::DocTypeHandler"*)** %vtable199, i64 10, !dbg !3986
  %79 = load void (%"class.xercesc_2_7::DocTypeHandler"*)*, void (%"class.xercesc_2_7::DocTypeHandler"*)** %vfn200, align 8, !dbg !3986
  invoke void %79(%"class.xercesc_2_7::DocTypeHandler"* %77)
          to label %invoke.cont201 unwind label %lpad7, !dbg !3986

invoke.cont201:                                   ; preds = %if.then197
  br label %if.end202, !dbg !3985

if.end202:                                        ; preds = %invoke.cont201, %land.lhs.true195, %while.end
  store i32 0, i32* %cleanup.dest.slot, align 4, !dbg !3720
  br label %cleanup, !dbg !3720

cleanup:                                          ; preds = %if.end202, %if.then134, %if.end131
  call void @_ZN11xercesc_2_79XMLBufBidD2Ev(%"class.xercesc_2_7::XMLBufBid"* %bbSpace) #10, !dbg !3720
  call void @_ZN11xercesc_2_711FlagJanitorIbED2Ev(%"class.xercesc_2_7::FlagJanitor"* %janContentFlag) #10, !dbg !3720
  %cleanup.dest = load i32, i32* %cleanup.dest.slot, align 4
  switch i32 %cleanup.dest, label %unreachable [
    i32 0, label %cleanup.cont
    i32 1, label %cleanup.cont
  ]

cleanup.cont:                                     ; preds = %cleanup, %cleanup
  ret void, !dbg !3720

ehcleanup:                                        ; preds = %invoke.cont189, %catch.dispatch, %lpad7
  call void @_ZN11xercesc_2_79XMLBufBidD2Ev(%"class.xercesc_2_7::XMLBufBid"* %bbSpace) #10, !dbg !3720
  br label %ehcleanup204, !dbg !3720

ehcleanup204:                                     ; preds = %ehcleanup, %lpad
  call void @_ZN11xercesc_2_711FlagJanitorIbED2Ev(%"class.xercesc_2_7::FlagJanitor"* %janContentFlag) #10, !dbg !3720
  br label %eh.resume, !dbg !3720

eh.resume:                                        ; preds = %ehcleanup204
  %exn205 = load i8*, i8** %exn.slot, align 8, !dbg !3720
  %sel206 = load i32, i32* %ehselector.slot, align 4, !dbg !3720
  %lpad.val = insertvalue { i8*, i32 } undef, i8* %exn205, 0, !dbg !3720
  %lpad.val207 = insertvalue { i8*, i32 } %lpad.val, i32 %sel206, 1, !dbg !3720
  resume { i8*, i32 } %lpad.val207, !dbg !3720

terminate.lpad:                                   ; preds = %lpad165
  %80 = landingpad { i8*, i32 }
          catch i8* null, !dbg !3950
  %81 = extractvalue { i8*, i32 } %80, 0, !dbg !3950
  call void @__clang_call_terminate(i8* %81) #12, !dbg !3950
  unreachable, !dbg !3950

unreachable:                                      ; preds = %cleanup
  unreachable
}

; Function Attrs: nounwind readnone
declare i32 @llvm.eh.typeid.for(i8*) #8

declare dso_local void @_ZN11xercesc_2_79ReaderMgr16cleanStackBackToEj(%"class.xercesc_2_7::ReaderMgr"*, i32) #7

declare dso_local void @__cxa_rethrow()

declare dso_local void @__cxa_end_catch()

declare dso_local zeroext i1 @_ZN11xercesc_2_710XMLScanner12checkXMLDeclEb(%"class.xercesc_2_7::XMLScanner"*, i1 zeroext) #7

; Function Attrs: noinline uwtable
define dso_local void @_ZN11xercesc_2_710DTDScanner12scanTextDeclEv(%"class.xercesc_2_7::DTDScanner"* %this) #6 align 2 personality i8* bitcast (i32 (...)* @__gxx_personality_v0 to i8*) !dbg !3987 {
entry:
  %this.addr = alloca %"class.xercesc_2_7::DTDScanner"*, align 8
  %bbVersion = alloca %"class.xercesc_2_7::XMLBufBid", align 8
  %exn.slot = alloca i8*
  %ehselector.slot = alloca i32
  %cleanup.dest.slot = alloca i32, align 4
  %bbEncoding = alloca %"class.xercesc_2_7::XMLBufBid", align 8
  %gotEncoding = alloca i8, align 1
  store %"class.xercesc_2_7::DTDScanner"* %this, %"class.xercesc_2_7::DTDScanner"** %this.addr, align 8
  call void @llvm.dbg.declare(metadata %"class.xercesc_2_7::DTDScanner"** %this.addr, metadata !3988, metadata !DIExpression()), !dbg !3989
  %this1 = load %"class.xercesc_2_7::DTDScanner"*, %"class.xercesc_2_7::DTDScanner"** %this.addr, align 8
  %fReaderMgr = getelementptr inbounds %"class.xercesc_2_7::DTDScanner", %"class.xercesc_2_7::DTDScanner"* %this1, i32 0, i32 11, !dbg !3990
  %0 = load %"class.xercesc_2_7::ReaderMgr"*, %"class.xercesc_2_7::ReaderMgr"** %fReaderMgr, align 8, !dbg !3990
  %call = call zeroext i1 @_ZN11xercesc_2_79ReaderMgr14skipPastSpacesEb(%"class.xercesc_2_7::ReaderMgr"* %0, i1 zeroext false), !dbg !3991
  call void @llvm.dbg.declare(metadata %"class.xercesc_2_7::XMLBufBid"* %bbVersion, metadata !3992, metadata !DIExpression()), !dbg !3993
  %fBufMgr = getelementptr inbounds %"class.xercesc_2_7::DTDScanner", %"class.xercesc_2_7::DTDScanner"* %this1, i32 0, i32 10, !dbg !3994
  %1 = load %"class.xercesc_2_7::XMLBufferMgr"*, %"class.xercesc_2_7::XMLBufferMgr"** %fBufMgr, align 8, !dbg !3994
  call void @_ZN11xercesc_2_79XMLBufBidC2EPNS_12XMLBufferMgrE(%"class.xercesc_2_7::XMLBufBid"* %bbVersion, %"class.xercesc_2_7::XMLBufferMgr"* %1), !dbg !3993
  %fReaderMgr2 = getelementptr inbounds %"class.xercesc_2_7::DTDScanner", %"class.xercesc_2_7::DTDScanner"* %this1, i32 0, i32 11, !dbg !3995
  %2 = load %"class.xercesc_2_7::ReaderMgr"*, %"class.xercesc_2_7::ReaderMgr"** %fReaderMgr2, align 8, !dbg !3995
  %call3 = invoke zeroext i1 @_ZN11xercesc_2_79ReaderMgr13skippedStringEPKt(%"class.xercesc_2_7::ReaderMgr"* %2, i16* getelementptr inbounds ([0 x i16], [0 x i16]* @_ZN11xercesc_2_76XMLUni15fgVersionStringE, i64 0, i64 0))
          to label %invoke.cont unwind label %lpad, !dbg !3997

invoke.cont:                                      ; preds = %entry
  br i1 %call3, label %if.then, label %if.end45, !dbg !3998

if.then:                                          ; preds = %invoke.cont
  %call5 = invoke zeroext i1 @_ZN11xercesc_2_710DTDScanner6scanEqEv(%"class.xercesc_2_7::DTDScanner"* %this1)
          to label %invoke.cont4 unwind label %lpad, !dbg !3999

invoke.cont4:                                     ; preds = %if.then
  br i1 %call5, label %if.end, label %if.then6, !dbg !4002

if.then6:                                         ; preds = %invoke.cont4
  %fScanner = getelementptr inbounds %"class.xercesc_2_7::DTDScanner", %"class.xercesc_2_7::DTDScanner"* %this1, i32 0, i32 12, !dbg !4003
  %3 = load %"class.xercesc_2_7::XMLScanner"*, %"class.xercesc_2_7::XMLScanner"** %fScanner, align 8, !dbg !4003
  invoke void @_ZN11xercesc_2_710XMLScanner9emitErrorENS_7XMLErrs5CodesE(%"class.xercesc_2_7::XMLScanner"* %3, i32 180)
          to label %invoke.cont7 unwind label %lpad, !dbg !4005

invoke.cont7:                                     ; preds = %if.then6
  %fReaderMgr8 = getelementptr inbounds %"class.xercesc_2_7::DTDScanner", %"class.xercesc_2_7::DTDScanner"* %this1, i32 0, i32 11, !dbg !4006
  %4 = load %"class.xercesc_2_7::ReaderMgr"*, %"class.xercesc_2_7::ReaderMgr"** %fReaderMgr8, align 8, !dbg !4006
  invoke void @_ZN11xercesc_2_79ReaderMgr12skipPastCharEt(%"class.xercesc_2_7::ReaderMgr"* %4, i16 zeroext 62)
          to label %invoke.cont9 unwind label %lpad, !dbg !4007

invoke.cont9:                                     ; preds = %invoke.cont7
  store i32 1, i32* %cleanup.dest.slot, align 4
  br label %cleanup137, !dbg !4008

lpad:                                             ; preds = %if.end45, %invoke.cont40, %if.then38, %invoke.cont34, %if.else, %invoke.cont30, %if.then28, %if.then24, %invoke.cont20, %if.end19, %invoke.cont16, %if.then14, %invoke.cont10, %if.end, %invoke.cont7, %if.then6, %if.then, %entry
  %5 = landingpad { i8*, i32 }
          cleanup, !dbg !4009
  %6 = extractvalue { i8*, i32 } %5, 0, !dbg !4009
  store i8* %6, i8** %exn.slot, align 8, !dbg !4009
  %7 = extractvalue { i8*, i32 } %5, 1, !dbg !4009
  store i32 %7, i32* %ehselector.slot, align 4, !dbg !4009
  br label %ehcleanup, !dbg !4009

if.end:                                           ; preds = %invoke.cont4
  %call11 = invoke dereferenceable(40) %"class.xercesc_2_7::XMLBuffer"* @_ZN11xercesc_2_79XMLBufBid9getBufferEv(%"class.xercesc_2_7::XMLBufBid"* %bbVersion)
          to label %invoke.cont10 unwind label %lpad, !dbg !4010

invoke.cont10:                                    ; preds = %if.end
  %call13 = invoke zeroext i1 @_ZN11xercesc_2_710DTDScanner15getQuotedStringERNS_9XMLBufferE(%"class.xercesc_2_7::DTDScanner"* %this1, %"class.xercesc_2_7::XMLBuffer"* dereferenceable(40) %call11)
          to label %invoke.cont12 unwind label %lpad, !dbg !4012

invoke.cont12:                                    ; preds = %invoke.cont10
  br i1 %call13, label %if.end19, label %if.then14, !dbg !4013

if.then14:                                        ; preds = %invoke.cont12
  %fScanner15 = getelementptr inbounds %"class.xercesc_2_7::DTDScanner", %"class.xercesc_2_7::DTDScanner"* %this1, i32 0, i32 12, !dbg !4014
  %8 = load %"class.xercesc_2_7::XMLScanner"*, %"class.xercesc_2_7::XMLScanner"** %fScanner15, align 8, !dbg !4014
  invoke void @_ZN11xercesc_2_710XMLScanner9emitErrorENS_7XMLErrs5CodesE(%"class.xercesc_2_7::XMLScanner"* %8, i32 188)
          to label %invoke.cont16 unwind label %lpad, !dbg !4016

invoke.cont16:                                    ; preds = %if.then14
  %fReaderMgr17 = getelementptr inbounds %"class.xercesc_2_7::DTDScanner", %"class.xercesc_2_7::DTDScanner"* %this1, i32 0, i32 11, !dbg !4017
  %9 = load %"class.xercesc_2_7::ReaderMgr"*, %"class.xercesc_2_7::ReaderMgr"** %fReaderMgr17, align 8, !dbg !4017
  invoke void @_ZN11xercesc_2_79ReaderMgr12skipPastCharEt(%"class.xercesc_2_7::ReaderMgr"* %9, i16 zeroext 62)
          to label %invoke.cont18 unwind label %lpad, !dbg !4018

invoke.cont18:                                    ; preds = %invoke.cont16
  store i32 1, i32* %cleanup.dest.slot, align 4
  br label %cleanup137, !dbg !4019

if.end19:                                         ; preds = %invoke.cont12
  %call21 = invoke i16* @_ZN11xercesc_2_79XMLBufBid12getRawBufferEv(%"class.xercesc_2_7::XMLBufBid"* %bbVersion)
          to label %invoke.cont20 unwind label %lpad, !dbg !4020

invoke.cont20:                                    ; preds = %if.end19
  %call23 = invoke zeroext i1 @_ZN11xercesc_2_79XMLString6equalsEPKtS2_(i16* %call21, i16* getelementptr inbounds ([0 x i16], [0 x i16]* @_ZN11xercesc_2_76XMLUni12fgVersion1_1E, i64 0, i64 0))
          to label %invoke.cont22 unwind label %lpad, !dbg !4022

invoke.cont22:                                    ; preds = %invoke.cont20
  br i1 %call23, label %if.then24, label %if.else, !dbg !4023

if.then24:                                        ; preds = %invoke.cont22
  %fScanner25 = getelementptr inbounds %"class.xercesc_2_7::DTDScanner", %"class.xercesc_2_7::DTDScanner"* %this1, i32 0, i32 12, !dbg !4024
  %10 = load %"class.xercesc_2_7::XMLScanner"*, %"class.xercesc_2_7::XMLScanner"** %fScanner25, align 8, !dbg !4024
  %call27 = invoke i32 @_ZNK11xercesc_2_710XMLScanner13getXMLVersionEv(%"class.xercesc_2_7::XMLScanner"* %10)
          to label %invoke.cont26 unwind label %lpad, !dbg !4027

invoke.cont26:                                    ; preds = %if.then24
  %cmp = icmp ne i32 %call27, 1, !dbg !4028
  br i1 %cmp, label %if.then28, label %if.end33, !dbg !4029

if.then28:                                        ; preds = %invoke.cont26
  %fScanner29 = getelementptr inbounds %"class.xercesc_2_7::DTDScanner", %"class.xercesc_2_7::DTDScanner"* %this1, i32 0, i32 12, !dbg !4030
  %11 = load %"class.xercesc_2_7::XMLScanner"*, %"class.xercesc_2_7::XMLScanner"** %fScanner29, align 8, !dbg !4030
  %call31 = invoke i16* @_ZN11xercesc_2_79XMLBufBid12getRawBufferEv(%"class.xercesc_2_7::XMLBufBid"* %bbVersion)
          to label %invoke.cont30 unwind label %lpad, !dbg !4031

invoke.cont30:                                    ; preds = %if.then28
  invoke void @_ZN11xercesc_2_710XMLScanner9emitErrorENS_7XMLErrs5CodesEPKtS4_S4_S4_(%"class.xercesc_2_7::XMLScanner"* %11, i32 189, i16* %call31, i16* null, i16* null, i16* null)
          to label %invoke.cont32 unwind label %lpad, !dbg !4032

invoke.cont32:                                    ; preds = %invoke.cont30
  br label %if.end33, !dbg !4030

if.end33:                                         ; preds = %invoke.cont32, %invoke.cont26
  br label %if.end44, !dbg !4033

if.else:                                          ; preds = %invoke.cont22
  %call35 = invoke i16* @_ZN11xercesc_2_79XMLBufBid12getRawBufferEv(%"class.xercesc_2_7::XMLBufBid"* %bbVersion)
          to label %invoke.cont34 unwind label %lpad, !dbg !4034

invoke.cont34:                                    ; preds = %if.else
  %call37 = invoke zeroext i1 @_ZN11xercesc_2_79XMLString6equalsEPKtS2_(i16* %call35, i16* getelementptr inbounds ([0 x i16], [0 x i16]* @_ZN11xercesc_2_76XMLUni12fgVersion1_0E, i64 0, i64 0))
          to label %invoke.cont36 unwind label %lpad, !dbg !4036

invoke.cont36:                                    ; preds = %invoke.cont34
  br i1 %call37, label %if.end43, label %if.then38, !dbg !4037

