; ModuleID = 'XalanNumberFormat.cpp'
source_filename = "XalanNumberFormat.cpp"
target datalayout = "e-m:e-p270:32:32-p271:32:32-p272:64:64-i64:64-f80:128-n8:16:32:64-S128"
target triple = "x86_64-unknown-linux-gnu"

%"class.xalanc_1_10::XalanNumberFormat" = type { i32 (...)**, i8, [7 x i8], %"class.xalanc_1_10::XalanDOMString", i64 }
%"class.xalanc_1_10::XalanDOMString" = type <{ %"class.xalanc_1_10::XalanVector", i32, [4 x i8] }>
%"class.xalanc_1_10::XalanVector" = type { %"class.xercesc_2_7::MemoryManager"*, i64, i64, i16* }
%"class.xercesc_2_7::MemoryManager" = type { i32 (...)** }
%"class.xalanc_1_10::XalanMemMgrAutoPtrArray" = type { %"class.xalanc_1_10::XalanMemMgrAutoPtrArray<unsigned short>::MemMgrAutoPtrArrayData" }
%"class.xalanc_1_10::XalanMemMgrAutoPtrArray<unsigned short>::MemMgrAutoPtrArrayData" = type { %"class.xercesc_2_7::MemoryManager"*, i16*, i64 }
%"struct.std::random_access_iterator_tag" = type { i8 }

$_ZN11xalanc_1_1014XalanDOMStringD2Ev = comdat any

$_ZN11xalanc_1_1014XalanDOMStringaSERKS0_ = comdat any

$_ZN11xalanc_1_106lengthERKNS_14XalanDOMStringE = comdat any

$_ZN11xalanc_1_1024XalanMemMngArrayAllocateItE8allocateEmRN11xercesc_2_713MemoryManagerE = comdat any

$_ZN11xalanc_1_1014XalanDOMString16getMemoryManagerEv = comdat any

$_ZN11xalanc_1_1023XalanMemMgrAutoPtrArrayItEC2ERN11xercesc_2_713MemoryManagerEPtm = comdat any

$_ZN11xalanc_1_106charAtERKNS_14XalanDOMStringEj = comdat any

$_ZNK11xalanc_1_1014XalanDOMString6lengthEv = comdat any

$_ZN11xalanc_1_1014XalanDOMStringaSEPKt = comdat any

$_ZN11xalanc_1_1023XalanMemMgrAutoPtrArrayItED2Ev = comdat any

$_ZN11xalanc_1_1011XalanVectorItNS_31MemoryManagedConstructionTraitsItEEED2Ev = comdat any

$_ZNK11xalanc_1_1011XalanVectorItNS_31MemoryManagedConstructionTraitsItEEE10invariantsEv = comdat any

$__clang_call_terminate = comdat any

$_ZN11xalanc_1_1011XalanVectorItNS_31MemoryManagedConstructionTraitsItEEE7destroyEPtS4_ = comdat any

$_ZN11xalanc_1_1011XalanVectorItNS_31MemoryManagedConstructionTraitsItEEE5beginEv = comdat any

$_ZN11xalanc_1_1011XalanVectorItNS_31MemoryManagedConstructionTraitsItEEE3endEv = comdat any

$_ZN11xalanc_1_1011XalanVectorItNS_31MemoryManagedConstructionTraitsItEEE10deallocateEPt = comdat any

$_ZN11xalanc_1_1011XalanVectorItNS_31MemoryManagedConstructionTraitsItEEE7destroyERt = comdat any

$_ZN11xalanc_1_1011XalanVectorItNS_31MemoryManagedConstructionTraitsItEEE10endPointerEv = comdat any

$_ZN11xalanc_1_1014XalanDOMString6assignERKS0_ = comdat any

$_ZNK11xalanc_1_1014XalanDOMString10invariantsEv = comdat any

$_ZN11xalanc_1_1011XalanVectorItNS_31MemoryManagedConstructionTraitsItEEEaSERKS3_ = comdat any

$_ZN11xalanc_1_1011XalanVectorItNS_31MemoryManagedConstructionTraitsItEEEC2ERKS3_RN11xercesc_2_713MemoryManagerEm = comdat any

$_ZN11xalanc_1_1011XalanVectorItNS_31MemoryManagedConstructionTraitsItEEE4swapERS3_ = comdat any

$_ZNK11xalanc_1_1011XalanVectorItNS_31MemoryManagedConstructionTraitsItEEE3endEv = comdat any

$_ZN11xalanc_1_1011XalanVectorItNS_31MemoryManagedConstructionTraitsItEEE12shrinkToSizeEm = comdat any

$_ZNK11xalanc_1_1011XalanVectorItNS_31MemoryManagedConstructionTraitsItEEE5beginEv = comdat any

$_ZN11xalanc_1_1011XalanVectorItNS_31MemoryManagedConstructionTraitsItEEE6insertEPtPKtS6_ = comdat any

$_ZSt4copyIPKtPtET0_T_S4_S3_ = comdat any

$_ZN11xalanc_1_1011XalanVectorItNS_31MemoryManagedConstructionTraitsItEEE9local_maxEmm = comdat any

$_ZN11xalanc_1_1011XalanVectorItNS_31MemoryManagedConstructionTraitsItEEEC2ERN11xercesc_2_713MemoryManagerEm = comdat any

$_ZN11xalanc_1_1011XalanVectorItNS_31MemoryManagedConstructionTraitsItEEE8allocateEm = comdat any

$_ZNK11xalanc_1_1011XalanVectorItNS_31MemoryManagedConstructionTraitsItEEE10endPointerEv = comdat any

$_ZN11xalanc_1_1011XalanVectorItNS_31MemoryManagedConstructionTraitsItEEE8pop_backEv = comdat any

$_ZN11xalanc_1_1011XalanVectorItNS_31MemoryManagedConstructionTraitsItEEE14local_distanceEPKtS5_ = comdat any

$_ZNK11xalanc_1_1011XalanVectorItNS_31MemoryManagedConstructionTraitsItEEE4sizeEv = comdat any

$_ZN11xalanc_1_1011XalanVectorItNS_31MemoryManagedConstructionTraitsItEEE14ensureCapacityEm = comdat any

$_ZN11xalanc_1_1028ConstructWithNoMemoryManagerItE9constructEPtRKtRN11xercesc_2_713MemoryManagerE = comdat any

$_ZNK11xalanc_1_1011XalanVectorItNS_31MemoryManagedConstructionTraitsItEEE8capacityEv = comdat any

$_ZN11xalanc_1_1011XalanVectorItNS_31MemoryManagedConstructionTraitsItEEE10doPushBackERKt = comdat any

$_ZSt13copy_backwardIPtS0_ET0_T_S2_S1_ = comdat any

$_ZSt8distanceIPKtENSt15iterator_traitsIT_E15difference_typeES3_S3_ = comdat any

$_ZSt10__distanceIPKtENSt15iterator_traitsIT_E15difference_typeES3_S3_St26random_access_iterator_tag = comdat any

$_ZSt19__iterator_categoryIPKtENSt15iterator_traitsIT_E17iterator_categoryERKS3_ = comdat any

$_ZN11xalanc_1_1011XalanVectorItNS_31MemoryManagedConstructionTraitsItEEE9doReserveEm = comdat any

$_ZSt22__copy_move_backward_aILb0EPtS0_ET1_T0_S2_S1_ = comdat any

$_ZSt12__miter_baseIPtET_S1_ = comdat any

$_ZSt12__niter_wrapIPtET_RKS1_S1_ = comdat any

$_ZSt23__copy_move_backward_a1ILb0EPtS0_ET1_T0_S2_S1_ = comdat any

$_ZSt12__niter_baseIPtET_S1_ = comdat any

$_ZSt23__copy_move_backward_a2ILb0EPtS0_ET1_T0_S2_S1_ = comdat any

$_ZNSt20__copy_move_backwardILb0ELb1ESt26random_access_iterator_tagE13__copy_move_bItEEPT_PKS3_S6_S4_ = comdat any

$_ZSt13__copy_move_aILb0EPKtPtET1_T0_S4_S3_ = comdat any

$_ZSt12__miter_baseIPKtET_S2_ = comdat any

$_ZSt14__copy_move_a1ILb0EPKtPtET1_T0_S4_S3_ = comdat any

$_ZSt12__niter_baseIPKtET_S2_ = comdat any

$_ZSt14__copy_move_a2ILb0EPKtPtET1_T0_S4_S3_ = comdat any

$_ZNSt11__copy_moveILb0ELb1ESt26random_access_iterator_tagE8__copy_mItEEPT_PKS3_S6_S4_ = comdat any

$_ZN11xalanc_1_1011XalanVectorItNS_31MemoryManagedConstructionTraitsItEEE16getMemoryManagerEv = comdat any

$_ZNK11xalanc_1_1014XalanDOMStringixEj = comdat any

$_ZNK11xalanc_1_1011XalanVectorItNS_31MemoryManagedConstructionTraitsItEEEixEm = comdat any

$_ZNK11xalanc_1_1014XalanDOMString4sizeEv = comdat any

$_ZN11xalanc_1_1014XalanDOMString6assignEPKt = comdat any

$_ZN11xalanc_1_1014XalanDOMString6appendEPKt = comdat any

$_ZNK11xalanc_1_1023XalanMemMgrAutoPtrArrayItE3getEv = comdat any

$_ZN11xalanc_1_1023XalanMemMgrAutoPtrArrayItEppEv = comdat any

$_ZN11xalanc_1_1023XalanMemMgrAutoPtrArrayItE7releaseEv = comdat any

$_ZN11xalanc_1_1023XalanMemMgrAutoPtrArrayItE22MemMgrAutoPtrArrayData5resetEPN11xercesc_2_713MemoryManagerEPtm = comdat any

$_ZNK11xalanc_1_1023XalanMemMgrAutoPtrArrayItE22MemMgrAutoPtrArrayData10invariantsEv = comdat any

$_ZN11xalanc_1_1023XalanMemMgrAutoPtrArrayItE22MemMgrAutoPtrArrayDataC2EPN11xercesc_2_713MemoryManagerEPtm = comdat any

$_ZN11xalanc_1_1023XalanMemMgrAutoPtrArrayItE22MemMgrAutoPtrArrayData10deallocateEv = comdat any

$_ZNK11xalanc_1_1023XalanMemMgrAutoPtrArrayItE22MemMgrAutoPtrArrayData12isInitilizedEv = comdat any

@_ZN11xalanc_1_1017XalanNumberFormat26s_defaultGroupingSeparatorE = dso_local constant [2 x i16] [i16 44, i16 0], align 2, !dbg !0
@_ZTVN11xalanc_1_1017XalanNumberFormatE = dso_local unnamed_addr constant { [13 x i8*] } { [13 x i8*] [i8* null, i8* bitcast ({ i8*, i8* }* @_ZTIN11xalanc_1_1017XalanNumberFormatE to i8*), i8* bitcast (void (%"class.xalanc_1_10::XalanNumberFormat"*)* @_ZN11xalanc_1_1017XalanNumberFormatD1Ev to i8*), i8* bitcast (void (%"class.xalanc_1_10::XalanNumberFormat"*)* @_ZN11xalanc_1_1017XalanNumberFormatD0Ev to i8*), i8* bitcast (%"class.xalanc_1_10::XalanDOMString"* (%"class.xalanc_1_10::XalanNumberFormat"*, double, %"class.xalanc_1_10::XalanDOMString"*)* @_ZN11xalanc_1_1017XalanNumberFormat6formatEdRNS_14XalanDOMStringE to i8*), i8* bitcast (%"class.xalanc_1_10::XalanDOMString"* (%"class.xalanc_1_10::XalanNumberFormat"*, i32, %"class.xalanc_1_10::XalanDOMString"*)* @_ZN11xalanc_1_1017XalanNumberFormat6formatEiRNS_14XalanDOMStringE to i8*), i8* bitcast (%"class.xalanc_1_10::XalanDOMString"* (%"class.xalanc_1_10::XalanNumberFormat"*, i32, %"class.xalanc_1_10::XalanDOMString"*)* @_ZN11xalanc_1_1017XalanNumberFormat6formatEjRNS_14XalanDOMStringE to i8*), i8* bitcast (%"class.xalanc_1_10::XalanDOMString"* (%"class.xalanc_1_10::XalanNumberFormat"*, i64, %"class.xalanc_1_10::XalanDOMString"*)* @_ZN11xalanc_1_1017XalanNumberFormat6formatElRNS_14XalanDOMStringE to i8*), i8* bitcast (%"class.xalanc_1_10::XalanDOMString"* (%"class.xalanc_1_10::XalanNumberFormat"*, i64, %"class.xalanc_1_10::XalanDOMString"*)* @_ZN11xalanc_1_1017XalanNumberFormat6formatEmRNS_14XalanDOMStringE to i8*), i8* bitcast (i1 (%"class.xalanc_1_10::XalanNumberFormat"*)* @_ZNK11xalanc_1_1017XalanNumberFormat14isGroupingUsedEv to i8*), i8* bitcast (void (%"class.xalanc_1_10::XalanNumberFormat"*, i1)* @_ZN11xalanc_1_1017XalanNumberFormat15setGroupingUsedEb to i8*), i8* bitcast (void (%"class.xalanc_1_10::XalanNumberFormat"*, i64)* @_ZN11xalanc_1_1017XalanNumberFormat15setGroupingSizeEm to i8*), i8* bitcast (void (%"class.xalanc_1_10::XalanNumberFormat"*, %"class.xalanc_1_10::XalanDOMString"*)* @_ZN11xalanc_1_1017XalanNumberFormat20setGroupingSeparatorERKNS_14XalanDOMStringE to i8*)] }, align 8
@_ZTVN10__cxxabiv117__class_type_infoE = external dso_local global i8*
@_ZTSN11xalanc_1_1017XalanNumberFormatE = dso_local constant [35 x i8] c"N11xalanc_1_1017XalanNumberFormatE\00", align 1
@_ZTIN11xalanc_1_1017XalanNumberFormatE = dso_local constant { i8*, i8* } { i8* bitcast (i8** getelementptr inbounds (i8*, i8** @_ZTVN10__cxxabiv117__class_type_infoE, i64 2) to i8*), i8* getelementptr inbounds ([35 x i8], [35 x i8]* @_ZTSN11xalanc_1_1017XalanNumberFormatE, i32 0, i32 0) }, align 8

@_ZN11xalanc_1_1017XalanNumberFormatC1ERN11xercesc_2_713MemoryManagerE = dso_local unnamed_addr alias void (%"class.xalanc_1_10::XalanNumberFormat"*, %"class.xercesc_2_7::MemoryManager"*), void (%"class.xalanc_1_10::XalanNumberFormat"*, %"class.xercesc_2_7::MemoryManager"*)* @_ZN11xalanc_1_1017XalanNumberFormatC2ERN11xercesc_2_713MemoryManagerE
@_ZN11xalanc_1_1017XalanNumberFormatD1Ev = dso_local unnamed_addr alias void (%"class.xalanc_1_10::XalanNumberFormat"*), void (%"class.xalanc_1_10::XalanNumberFormat"*)* @_ZN11xalanc_1_1017XalanNumberFormatD2Ev

; Function Attrs: noinline uwtable
define dso_local void @_ZN11xalanc_1_1017XalanNumberFormatC2ERN11xercesc_2_713MemoryManagerE(%"class.xalanc_1_10::XalanNumberFormat"* %this, %"class.xercesc_2_7::MemoryManager"* dereferenceable(8) %theManager) unnamed_addr #0 align 2 !dbg !1821 {
entry:
  %this.addr = alloca %"class.xalanc_1_10::XalanNumberFormat"*, align 8
  %theManager.addr = alloca %"class.xercesc_2_7::MemoryManager"*, align 8
  store %"class.xalanc_1_10::XalanNumberFormat"* %this, %"class.xalanc_1_10::XalanNumberFormat"** %this.addr, align 8
  call void @llvm.dbg.declare(metadata %"class.xalanc_1_10::XalanNumberFormat"** %this.addr, metadata !1822, metadata !DIExpression()), !dbg !1823
  store %"class.xercesc_2_7::MemoryManager"* %theManager, %"class.xercesc_2_7::MemoryManager"** %theManager.addr, align 8
  call void @llvm.dbg.declare(metadata %"class.xercesc_2_7::MemoryManager"** %theManager.addr, metadata !1824, metadata !DIExpression()), !dbg !1825
  %this1 = load %"class.xalanc_1_10::XalanNumberFormat"*, %"class.xalanc_1_10::XalanNumberFormat"** %this.addr, align 8
  %0 = bitcast %"class.xalanc_1_10::XalanNumberFormat"* %this1 to i32 (...)***, !dbg !1826
  store i32 (...)** bitcast (i8** getelementptr inbounds ({ [13 x i8*] }, { [13 x i8*] }* @_ZTVN11xalanc_1_1017XalanNumberFormatE, i32 0, inrange i32 0, i32 2) to i32 (...)**), i32 (...)*** %0, align 8, !dbg !1826
  %m_isGroupingUsed = getelementptr inbounds %"class.xalanc_1_10::XalanNumberFormat", %"class.xalanc_1_10::XalanNumberFormat"* %this1, i32 0, i32 1, !dbg !1827
  store i8 0, i8* %m_isGroupingUsed, align 8, !dbg !1827
  %m_groupingSeparator = getelementptr inbounds %"class.xalanc_1_10::XalanNumberFormat", %"class.xalanc_1_10::XalanNumberFormat"* %this1, i32 0, i32 3, !dbg !1828
  %1 = load %"class.xercesc_2_7::MemoryManager"*, %"class.xercesc_2_7::MemoryManager"** %theManager.addr, align 8, !dbg !1829
  call void @_ZN11xalanc_1_1014XalanDOMStringC1EPKtRN11xercesc_2_713MemoryManagerEj(%"class.xalanc_1_10::XalanDOMString"* %m_groupingSeparator, i16* getelementptr inbounds ([2 x i16], [2 x i16]* @_ZN11xalanc_1_1017XalanNumberFormat26s_defaultGroupingSeparatorE, i64 0, i64 0), %"class.xercesc_2_7::MemoryManager"* dereferenceable(8) %1, i32 -1), !dbg !1828
  %m_groupingSize = getelementptr inbounds %"class.xalanc_1_10::XalanNumberFormat", %"class.xalanc_1_10::XalanNumberFormat"* %this1, i32 0, i32 4, !dbg !1830
  store i64 3, i64* %m_groupingSize, align 8, !dbg !1830
  ret void, !dbg !1831
}

; Function Attrs: nounwind readnone speculatable willreturn
declare void @llvm.dbg.declare(metadata, metadata, metadata) #1

declare dso_local void @_ZN11xalanc_1_1014XalanDOMStringC1EPKtRN11xercesc_2_713MemoryManagerEj(%"class.xalanc_1_10::XalanDOMString"*, i16*, %"class.xercesc_2_7::MemoryManager"* dereferenceable(8), i32) unnamed_addr #2

; Function Attrs: noinline nounwind uwtable
define dso_local void @_ZN11xalanc_1_1017XalanNumberFormatD2Ev(%"class.xalanc_1_10::XalanNumberFormat"* %this) unnamed_addr #3 align 2 !dbg !1832 {
entry:
  %this.addr = alloca %"class.xalanc_1_10::XalanNumberFormat"*, align 8
  store %"class.xalanc_1_10::XalanNumberFormat"* %this, %"class.xalanc_1_10::XalanNumberFormat"** %this.addr, align 8
  call void @llvm.dbg.declare(metadata %"class.xalanc_1_10::XalanNumberFormat"** %this.addr, metadata !1833, metadata !DIExpression()), !dbg !1834
  %this1 = load %"class.xalanc_1_10::XalanNumberFormat"*, %"class.xalanc_1_10::XalanNumberFormat"** %this.addr, align 8
  %0 = bitcast %"class.xalanc_1_10::XalanNumberFormat"* %this1 to i32 (...)***, !dbg !1835
  store i32 (...)** bitcast (i8** getelementptr inbounds ({ [13 x i8*] }, { [13 x i8*] }* @_ZTVN11xalanc_1_1017XalanNumberFormatE, i32 0, inrange i32 0, i32 2) to i32 (...)**), i32 (...)*** %0, align 8, !dbg !1835
  %m_groupingSeparator = getelementptr inbounds %"class.xalanc_1_10::XalanNumberFormat", %"class.xalanc_1_10::XalanNumberFormat"* %this1, i32 0, i32 3, !dbg !1836
  call void @_ZN11xalanc_1_1014XalanDOMStringD2Ev(%"class.xalanc_1_10::XalanDOMString"* %m_groupingSeparator) #7, !dbg !1836
  ret void, !dbg !1838
}

; Function Attrs: noinline nounwind uwtable
define linkonce_odr dso_local void @_ZN11xalanc_1_1014XalanDOMStringD2Ev(%"class.xalanc_1_10::XalanDOMString"* %this) unnamed_addr #3 comdat align 2 !dbg !1839 {
entry:
  %this.addr = alloca %"class.xalanc_1_10::XalanDOMString"*, align 8
  store %"class.xalanc_1_10::XalanDOMString"* %this, %"class.xalanc_1_10::XalanDOMString"** %this.addr, align 8
  call void @llvm.dbg.declare(metadata %"class.xalanc_1_10::XalanDOMString"** %this.addr, metadata !1840, metadata !DIExpression()), !dbg !1841
  %this1 = load %"class.xalanc_1_10::XalanDOMString"*, %"class.xalanc_1_10::XalanDOMString"** %this.addr, align 8
  %m_data = getelementptr inbounds %"class.xalanc_1_10::XalanDOMString", %"class.xalanc_1_10::XalanDOMString"* %this1, i32 0, i32 0, !dbg !1842
  call void @_ZN11xalanc_1_1011XalanVectorItNS_31MemoryManagedConstructionTraitsItEEED2Ev(%"class.xalanc_1_10::XalanVector"* %m_data) #7, !dbg !1842
  ret void, !dbg !1844
}

; Function Attrs: noinline nounwind uwtable
define dso_local void @_ZN11xalanc_1_1017XalanNumberFormatD0Ev(%"class.xalanc_1_10::XalanNumberFormat"* %this) unnamed_addr #3 align 2 !dbg !1845 {
entry:
  %this.addr = alloca %"class.xalanc_1_10::XalanNumberFormat"*, align 8
  store %"class.xalanc_1_10::XalanNumberFormat"* %this, %"class.xalanc_1_10::XalanNumberFormat"** %this.addr, align 8
  call void @llvm.dbg.declare(metadata %"class.xalanc_1_10::XalanNumberFormat"** %this.addr, metadata !1846, metadata !DIExpression()), !dbg !1847
  %this1 = load %"class.xalanc_1_10::XalanNumberFormat"*, %"class.xalanc_1_10::XalanNumberFormat"** %this.addr, align 8
  call void @_ZN11xalanc_1_1017XalanNumberFormatD1Ev(%"class.xalanc_1_10::XalanNumberFormat"* %this1) #7, !dbg !1848
  %0 = bitcast %"class.xalanc_1_10::XalanNumberFormat"* %this1 to i8*, !dbg !1848
  call void @_ZdlPv(i8* %0) #8, !dbg !1848
  ret void, !dbg !1849
}

; Function Attrs: nobuiltin nounwind
declare dso_local void @_ZdlPv(i8*) #4

; Function Attrs: noinline uwtable
define dso_local dereferenceable(40) %"class.xalanc_1_10::XalanDOMString"* @_ZN11xalanc_1_1017XalanNumberFormat6formatEdRNS_14XalanDOMStringE(%"class.xalanc_1_10::XalanNumberFormat"* %this, double %theValue, %"class.xalanc_1_10::XalanDOMString"* dereferenceable(40) %theResult) unnamed_addr #0 align 2 !dbg !1850 {
entry:
  %this.addr = alloca %"class.xalanc_1_10::XalanNumberFormat"*, align 8
  %theValue.addr = alloca double, align 8
  %theResult.addr = alloca %"class.xalanc_1_10::XalanDOMString"*, align 8
  store %"class.xalanc_1_10::XalanNumberFormat"* %this, %"class.xalanc_1_10::XalanNumberFormat"** %this.addr, align 8
  call void @llvm.dbg.declare(metadata %"class.xalanc_1_10::XalanNumberFormat"** %this.addr, metadata !1851, metadata !DIExpression()), !dbg !1852
  store double %theValue, double* %theValue.addr, align 8
  call void @llvm.dbg.declare(metadata double* %theValue.addr, metadata !1853, metadata !DIExpression()), !dbg !1854
  store %"class.xalanc_1_10::XalanDOMString"* %theResult, %"class.xalanc_1_10::XalanDOMString"** %theResult.addr, align 8
  call void @llvm.dbg.declare(metadata %"class.xalanc_1_10::XalanDOMString"** %theResult.addr, metadata !1855, metadata !DIExpression()), !dbg !1856
  %this1 = load %"class.xalanc_1_10::XalanNumberFormat"*, %"class.xalanc_1_10::XalanNumberFormat"** %this.addr, align 8
  %0 = load double, double* %theValue.addr, align 8, !dbg !1857
  %1 = load %"class.xalanc_1_10::XalanDOMString"*, %"class.xalanc_1_10::XalanDOMString"** %theResult.addr, align 8, !dbg !1858
  %call = call dereferenceable(40) %"class.xalanc_1_10::XalanDOMString"* @_ZN11xalanc_1_1017DoubleToDOMStringEdRNS_14XalanDOMStringE(double %0, %"class.xalanc_1_10::XalanDOMString"* dereferenceable(40) %1), !dbg !1859
  %2 = load %"class.xalanc_1_10::XalanDOMString"*, %"class.xalanc_1_10::XalanDOMString"** %theResult.addr, align 8, !dbg !1860
  %3 = load %"class.xalanc_1_10::XalanDOMString"*, %"class.xalanc_1_10::XalanDOMString"** %theResult.addr, align 8, !dbg !1861
  call void @_ZN11xalanc_1_1017XalanNumberFormat13applyGroupingERKNS_14XalanDOMStringERS1_(%"class.xalanc_1_10::XalanNumberFormat"* %this1, %"class.xalanc_1_10::XalanDOMString"* dereferenceable(40) %2, %"class.xalanc_1_10::XalanDOMString"* dereferenceable(40) %3), !dbg !1862
  %4 = load %"class.xalanc_1_10::XalanDOMString"*, %"class.xalanc_1_10::XalanDOMString"** %theResult.addr, align 8, !dbg !1863
  ret %"class.xalanc_1_10::XalanDOMString"* %4, !dbg !1864
}

declare dso_local dereferenceable(40) %"class.xalanc_1_10::XalanDOMString"* @_ZN11xalanc_1_1017DoubleToDOMStringEdRNS_14XalanDOMStringE(double, %"class.xalanc_1_10::XalanDOMString"* dereferenceable(40)) #2

; Function Attrs: noinline uwtable
define dso_local void @_ZN11xalanc_1_1017XalanNumberFormat13applyGroupingERKNS_14XalanDOMStringERS1_(%"class.xalanc_1_10::XalanNumberFormat"* %this, %"class.xalanc_1_10::XalanDOMString"* dereferenceable(40) %value, %"class.xalanc_1_10::XalanDOMString"* dereferenceable(40) %result) #0 align 2 personality i8* bitcast (i32 (...)* @__gxx_personality_v0 to i8*) !dbg !1865 {
entry:
  %this.addr = alloca %"class.xalanc_1_10::XalanNumberFormat"*, align 8
  %value.addr = alloca %"class.xalanc_1_10::XalanDOMString"*, align 8
  %result.addr = alloca %"class.xalanc_1_10::XalanDOMString"*, align 8
  %len = alloca i32, align 4
  %bufsize = alloca i32, align 4
  %buffer = alloca i16*, align 8
  %theGuard = alloca %"class.xalanc_1_10::XalanMemMgrAutoPtrArray", align 8
  %p = alloca i16*, align 8
  %i = alloca i32, align 4
  %ix = alloca i32, align 4
  %c = alloca i16, align 2
  %exn.slot = alloca i8*
  %ehselector.slot = alloca i32
  %j = alloca i64, align 8
  store %"class.xalanc_1_10::XalanNumberFormat"* %this, %"class.xalanc_1_10::XalanNumberFormat"** %this.addr, align 8
  call void @llvm.dbg.declare(metadata %"class.xalanc_1_10::XalanNumberFormat"** %this.addr, metadata !1866, metadata !DIExpression()), !dbg !1867
  store %"class.xalanc_1_10::XalanDOMString"* %value, %"class.xalanc_1_10::XalanDOMString"** %value.addr, align 8
  call void @llvm.dbg.declare(metadata %"class.xalanc_1_10::XalanDOMString"** %value.addr, metadata !1868, metadata !DIExpression()), !dbg !1869
  store %"class.xalanc_1_10::XalanDOMString"* %result, %"class.xalanc_1_10::XalanDOMString"** %result.addr, align 8
  call void @llvm.dbg.declare(metadata %"class.xalanc_1_10::XalanDOMString"** %result.addr, metadata !1870, metadata !DIExpression()), !dbg !1871
  %this1 = load %"class.xalanc_1_10::XalanNumberFormat"*, %"class.xalanc_1_10::XalanNumberFormat"** %this.addr, align 8
  %m_isGroupingUsed = getelementptr inbounds %"class.xalanc_1_10::XalanNumberFormat", %"class.xalanc_1_10::XalanNumberFormat"* %this1, i32 0, i32 1, !dbg !1872
  %0 = load i8, i8* %m_isGroupingUsed, align 8, !dbg !1872
  %tobool = trunc i8 %0 to i1, !dbg !1872
  %conv = zext i1 %tobool to i32, !dbg !1872
  %cmp = icmp eq i32 %conv, 0, !dbg !1874
  br i1 %cmp, label %if.then, label %lor.lhs.false, !dbg !1875

lor.lhs.false:                                    ; preds = %entry
  %m_groupingSize = getelementptr inbounds %"class.xalanc_1_10::XalanNumberFormat", %"class.xalanc_1_10::XalanNumberFormat"* %this1, i32 0, i32 4, !dbg !1876
  %1 = load i64, i64* %m_groupingSize, align 8, !dbg !1876
  %cmp2 = icmp eq i64 %1, 0, !dbg !1877
  br i1 %cmp2, label %if.then, label %if.else, !dbg !1878

if.then:                                          ; preds = %lor.lhs.false, %entry
  %2 = load %"class.xalanc_1_10::XalanDOMString"*, %"class.xalanc_1_10::XalanDOMString"** %value.addr, align 8, !dbg !1879
  %3 = load %"class.xalanc_1_10::XalanDOMString"*, %"class.xalanc_1_10::XalanDOMString"** %result.addr, align 8, !dbg !1881
  %call = call dereferenceable(40) %"class.xalanc_1_10::XalanDOMString"* @_ZN11xalanc_1_1014XalanDOMStringaSERKS0_(%"class.xalanc_1_10::XalanDOMString"* %3, %"class.xalanc_1_10::XalanDOMString"* dereferenceable(40) %2), !dbg !1882
  br label %if.end50, !dbg !1883

if.else:                                          ; preds = %lor.lhs.false
  call void @llvm.dbg.declare(metadata i32* %len, metadata !1884, metadata !DIExpression()), !dbg !1886
  %4 = load %"class.xalanc_1_10::XalanDOMString"*, %"class.xalanc_1_10::XalanDOMString"** %value.addr, align 8, !dbg !1887
  %call3 = call i32 @_ZN11xalanc_1_106lengthERKNS_14XalanDOMStringE(%"class.xalanc_1_10::XalanDOMString"* dereferenceable(40) %4), !dbg !1888
  store i32 %call3, i32* %len, align 4, !dbg !1886
  %5 = load i32, i32* %len, align 4, !dbg !1889
  %cmp4 = icmp eq i32 %5, 0, !dbg !1891
  br i1 %cmp4, label %if.then5, label %if.else7, !dbg !1892

if.then5:                                         ; preds = %if.else
  %6 = load %"class.xalanc_1_10::XalanDOMString"*, %"class.xalanc_1_10::XalanDOMString"** %value.addr, align 8, !dbg !1893
  %7 = load %"class.xalanc_1_10::XalanDOMString"*, %"class.xalanc_1_10::XalanDOMString"** %result.addr, align 8, !dbg !1895
  %call6 = call dereferenceable(40) %"class.xalanc_1_10::XalanDOMString"* @_ZN11xalanc_1_1014XalanDOMStringaSERKS0_(%"class.xalanc_1_10::XalanDOMString"* %7, %"class.xalanc_1_10::XalanDOMString"* dereferenceable(40) %6), !dbg !1896
  br label %if.end49, !dbg !1897

if.else7:                                         ; preds = %if.else
  call void @llvm.dbg.declare(metadata i32* %bufsize, metadata !1898, metadata !DIExpression()), !dbg !1900
  %8 = load i32, i32* %len, align 4, !dbg !1901
  %conv8 = zext i32 %8 to i64, !dbg !1901
  %9 = load i32, i32* %len, align 4, !dbg !1902
  %conv9 = zext i32 %9 to i64, !dbg !1902
  %m_groupingSize10 = getelementptr inbounds %"class.xalanc_1_10::XalanNumberFormat", %"class.xalanc_1_10::XalanNumberFormat"* %this1, i32 0, i32 4, !dbg !1903
  %10 = load i64, i64* %m_groupingSize10, align 8, !dbg !1903
  %div = udiv i64 %conv9, %10, !dbg !1904
  %add = add i64 %conv8, %div, !dbg !1905
  %add11 = add i64 %add, 2, !dbg !1906
  %conv12 = trunc i64 %add11 to i32, !dbg !1901
  store i32 %conv12, i32* %bufsize, align 4, !dbg !1900
  call void @llvm.dbg.declare(metadata i16** %buffer, metadata !1907, metadata !DIExpression()), !dbg !1910
  %11 = load i32, i32* %bufsize, align 4, !dbg !1911
  %conv13 = zext i32 %11 to i64, !dbg !1911
  %12 = load %"class.xalanc_1_10::XalanDOMString"*, %"class.xalanc_1_10::XalanDOMString"** %result.addr, align 8, !dbg !1912
  %call14 = call dereferenceable(8) %"class.xercesc_2_7::MemoryManager"* @_ZN11xalanc_1_1014XalanDOMString16getMemoryManagerEv(%"class.xalanc_1_10::XalanDOMString"* %12), !dbg !1913
  %call15 = call i16* @_ZN11xalanc_1_1024XalanMemMngArrayAllocateItE8allocateEmRN11xercesc_2_713MemoryManagerE(i64 %conv13, %"class.xercesc_2_7::MemoryManager"* dereferenceable(8) %call14), !dbg !1914
  store i16* %call15, i16** %buffer, align 8, !dbg !1910
  call void @llvm.dbg.declare(metadata %"class.xalanc_1_10::XalanMemMgrAutoPtrArray"* %theGuard, metadata !1915, metadata !DIExpression()), !dbg !1916
  %13 = load %"class.xalanc_1_10::XalanDOMString"*, %"class.xalanc_1_10::XalanDOMString"** %result.addr, align 8, !dbg !1917
  %call16 = call dereferenceable(8) %"class.xercesc_2_7::MemoryManager"* @_ZN11xalanc_1_1014XalanDOMString16getMemoryManagerEv(%"class.xalanc_1_10::XalanDOMString"* %13), !dbg !1918
  %14 = load i16*, i16** %buffer, align 8, !dbg !1919
  %15 = load i32, i32* %bufsize, align 4, !dbg !1920
  %conv17 = zext i32 %15 to i64, !dbg !1920
  call void @_ZN11xalanc_1_1023XalanMemMgrAutoPtrArrayItEC2ERN11xercesc_2_713MemoryManagerEPtm(%"class.xalanc_1_10::XalanMemMgrAutoPtrArray"* %theGuard, %"class.xercesc_2_7::MemoryManager"* dereferenceable(8) %call16, i16* %14, i64 %conv17), !dbg !1916
  call void @llvm.dbg.declare(metadata i16** %p, metadata !1921, metadata !DIExpression()), !dbg !1922
  %16 = load i16*, i16** %buffer, align 8, !dbg !1923
  %17 = load i32, i32* %bufsize, align 4, !dbg !1924
  %idx.ext = zext i32 %17 to i64, !dbg !1925
  %add.ptr = getelementptr inbounds i16, i16* %16, i64 %idx.ext, !dbg !1925
  %add.ptr18 = getelementptr inbounds i16, i16* %add.ptr, i64 -1, !dbg !1926
  store i16* %add.ptr18, i16** %p, align 8, !dbg !1922
  %18 = load i16*, i16** %p, align 8, !dbg !1927
  %incdec.ptr = getelementptr inbounds i16, i16* %18, i32 -1, !dbg !1927
  store i16* %incdec.ptr, i16** %p, align 8, !dbg !1927
  store i16 0, i16* %18, align 2, !dbg !1928
  call void @llvm.dbg.declare(metadata i32* %i, metadata !1929, metadata !DIExpression()), !dbg !1931
  store i32 0, i32* %i, align 4, !dbg !1931
  call void @llvm.dbg.declare(metadata i32* %ix, metadata !1932, metadata !DIExpression()), !dbg !1933
  %19 = load i32, i32* %len, align 4, !dbg !1934
  %sub = sub i32 %19, 1, !dbg !1935
  store i32 %sub, i32* %ix, align 4, !dbg !1933
  br label %for.cond, !dbg !1936

for.cond:                                         ; preds = %for.inc43, %if.else7
  %20 = load i32, i32* %i, align 4, !dbg !1937
  %21 = load i32, i32* %len, align 4, !dbg !1939
  %cmp19 = icmp ult i32 %20, %21, !dbg !1940
  br i1 %cmp19, label %land.rhs, label %land.end, !dbg !1941

land.rhs:                                         ; preds = %for.cond
  %22 = load i16*, i16** %p, align 8, !dbg !1942
  %23 = load i16*, i16** %buffer, align 8, !dbg !1943
  %cmp20 = icmp ugt i16* %22, %23, !dbg !1944
  br label %land.end

land.end:                                         ; preds = %land.rhs, %for.cond
  %24 = phi i1 [ false, %for.cond ], [ %cmp20, %land.rhs ], !dbg !1945
  br i1 %24, label %for.body, label %for.end45, !dbg !1946

for.body:                                         ; preds = %land.end
  call void @llvm.dbg.declare(metadata i16* %c, metadata !1947, metadata !DIExpression()), !dbg !1949
  %25 = load %"class.xalanc_1_10::XalanDOMString"*, %"class.xalanc_1_10::XalanDOMString"** %value.addr, align 8, !dbg !1950
  %26 = load i32, i32* %ix, align 4, !dbg !1951
  %call21 = invoke zeroext i16 @_ZN11xalanc_1_106charAtERKNS_14XalanDOMStringEj(%"class.xalanc_1_10::XalanDOMString"* dereferenceable(40) %25, i32 %26)
          to label %invoke.cont unwind label %lpad, !dbg !1952

invoke.cont:                                      ; preds = %for.body
  store i16 %call21, i16* %c, align 2, !dbg !1949
  %27 = load i32, i32* %i, align 4, !dbg !1953
  %tobool22 = icmp ne i32 %27, 0, !dbg !1953
  br i1 %tobool22, label %land.lhs.true, label %if.end, !dbg !1955

land.lhs.true:                                    ; preds = %invoke.cont
  %28 = load i32, i32* %i, align 4, !dbg !1956
  %conv23 = zext i32 %28 to i64, !dbg !1956
  %m_groupingSize24 = getelementptr inbounds %"class.xalanc_1_10::XalanNumberFormat", %"class.xalanc_1_10::XalanNumberFormat"* %this1, i32 0, i32 4, !dbg !1957
  %29 = load i64, i64* %m_groupingSize24, align 8, !dbg !1957
  %rem = urem i64 %conv23, %29, !dbg !1958
  %tobool25 = icmp ne i64 %rem, 0, !dbg !1959
  br i1 %tobool25, label %if.end, label %if.then26, !dbg !1960

if.then26:                                        ; preds = %land.lhs.true
  call void @llvm.dbg.declare(metadata i64* %j, metadata !1961, metadata !DIExpression()), !dbg !1964
  %m_groupingSeparator = getelementptr inbounds %"class.xalanc_1_10::XalanNumberFormat", %"class.xalanc_1_10::XalanNumberFormat"* %this1, i32 0, i32 3, !dbg !1965
  %call28 = invoke i32 @_ZNK11xalanc_1_1014XalanDOMString6lengthEv(%"class.xalanc_1_10::XalanDOMString"* %m_groupingSeparator)
          to label %invoke.cont27 unwind label %lpad, !dbg !1966

invoke.cont27:                                    ; preds = %if.then26
  %sub29 = sub i32 %call28, 1, !dbg !1967
  %conv30 = zext i32 %sub29 to i64, !dbg !1965
  store i64 %conv30, i64* %j, align 8, !dbg !1964
  br label %for.cond31, !dbg !1968

for.cond31:                                       ; preds = %for.inc, %invoke.cont27
  %30 = load i64, i64* %j, align 8, !dbg !1969
  %cmp32 = icmp sge i64 %30, 0, !dbg !1971
  br i1 %cmp32, label %land.rhs33, label %land.end35, !dbg !1972

land.rhs33:                                       ; preds = %for.cond31
  %31 = load i16*, i16** %p, align 8, !dbg !1973
  %32 = load i16*, i16** %buffer, align 8, !dbg !1974
  %cmp34 = icmp ugt i16* %31, %32, !dbg !1975
  br label %land.end35

land.end35:                                       ; preds = %land.rhs33, %for.cond31
  %33 = phi i1 [ false, %for.cond31 ], [ %cmp34, %land.rhs33 ], !dbg !1976
  br i1 %33, label %for.body36, label %for.end, !dbg !1977

for.body36:                                       ; preds = %land.end35
  %m_groupingSeparator37 = getelementptr inbounds %"class.xalanc_1_10::XalanNumberFormat", %"class.xalanc_1_10::XalanNumberFormat"* %this1, i32 0, i32 3, !dbg !1978
  %34 = load i64, i64* %j, align 8, !dbg !1979
  %conv38 = trunc i64 %34 to i32, !dbg !1979
  %call40 = invoke zeroext i16 @_ZN11xalanc_1_106charAtERKNS_14XalanDOMStringEj(%"class.xalanc_1_10::XalanDOMString"* dereferenceable(40) %m_groupingSeparator37, i32 %conv38)
          to label %invoke.cont39 unwind label %lpad, !dbg !1980

invoke.cont39:                                    ; preds = %for.body36
  %35 = load i16*, i16** %p, align 8, !dbg !1981
  %incdec.ptr41 = getelementptr inbounds i16, i16* %35, i32 -1, !dbg !1981
  store i16* %incdec.ptr41, i16** %p, align 8, !dbg !1981
  store i16 %call40, i16* %35, align 2, !dbg !1982
  br label %for.inc, !dbg !1983

for.inc:                                          ; preds = %invoke.cont39
  %36 = load i64, i64* %j, align 8, !dbg !1984
  %dec = add nsw i64 %36, -1, !dbg !1984
  store i64 %dec, i64* %j, align 8, !dbg !1984
  br label %for.cond31, !dbg !1985, !llvm.loop !1986

lpad:                                             ; preds = %for.end45, %for.body36, %if.then26, %for.body
  %37 = landingpad { i8*, i32 }
          cleanup, !dbg !1988
  %38 = extractvalue { i8*, i32 } %37, 0, !dbg !1988
  store i8* %38, i8** %exn.slot, align 8, !dbg !1988
  %39 = extractvalue { i8*, i32 } %37, 1, !dbg !1988
  store i32 %39, i32* %ehselector.slot, align 4, !dbg !1988
  call void @_ZN11xalanc_1_1023XalanMemMgrAutoPtrArrayItED2Ev(%"class.xalanc_1_10::XalanMemMgrAutoPtrArray"* %theGuard) #7, !dbg !1989
  br label %eh.resume, !dbg !1989

for.end:                                          ; preds = %land.end35
  br label %if.end, !dbg !1990

if.end:                                           ; preds = %for.end, %land.lhs.true, %invoke.cont
  %40 = load i16, i16* %c, align 2, !dbg !1991
  %41 = load i16*, i16** %p, align 8, !dbg !1992
  %incdec.ptr42 = getelementptr inbounds i16, i16* %41, i32 -1, !dbg !1992
  store i16* %incdec.ptr42, i16** %p, align 8, !dbg !1992
  store i16 %40, i16* %41, align 2, !dbg !1993
  br label %for.inc43, !dbg !1994

for.inc43:                                        ; preds = %if.end
  %42 = load i32, i32* %i, align 4, !dbg !1995
  %inc = add i32 %42, 1, !dbg !1995
  store i32 %inc, i32* %i, align 4, !dbg !1995
  %43 = load i32, i32* %ix, align 4, !dbg !1996
  %dec44 = add i32 %43, -1, !dbg !1996
  store i32 %dec44, i32* %ix, align 4, !dbg !1996
  br label %for.cond, !dbg !1997, !llvm.loop !1998

for.end45:                                        ; preds = %land.end
  %44 = load i16*, i16** %p, align 8, !dbg !2000
  %incdec.ptr46 = getelementptr inbounds i16, i16* %44, i32 1, !dbg !2000
  store i16* %incdec.ptr46, i16** %p, align 8, !dbg !2000
  %45 = load %"class.xalanc_1_10::XalanDOMString"*, %"class.xalanc_1_10::XalanDOMString"** %result.addr, align 8, !dbg !2001
  %call48 = invoke dereferenceable(40) %"class.xalanc_1_10::XalanDOMString"* @_ZN11xalanc_1_1014XalanDOMStringaSEPKt(%"class.xalanc_1_10::XalanDOMString"* %45, i16* %incdec.ptr46)
          to label %invoke.cont47 unwind label %lpad, !dbg !2002

invoke.cont47:                                    ; preds = %for.end45
  call void @_ZN11xalanc_1_1023XalanMemMgrAutoPtrArrayItED2Ev(%"class.xalanc_1_10::XalanMemMgrAutoPtrArray"* %theGuard) #7, !dbg !1989
  br label %if.end49

if.end49:                                         ; preds = %invoke.cont47, %if.then5
  br label %if.end50

if.end50:                                         ; preds = %if.end49, %if.then
  ret void, !dbg !2003

eh.resume:                                        ; preds = %lpad
  %exn = load i8*, i8** %exn.slot, align 8, !dbg !1989
  %sel = load i32, i32* %ehselector.slot, align 4, !dbg !1989
  %lpad.val = insertvalue { i8*, i32 } undef, i8* %exn, 0, !dbg !1989
  %lpad.val51 = insertvalue { i8*, i32 } %lpad.val, i32 %sel, 1, !dbg !1989
  resume { i8*, i32 } %lpad.val51, !dbg !1989
}

; Function Attrs: noinline uwtable
define dso_local dereferenceable(40) %"class.xalanc_1_10::XalanDOMString"* @_ZN11xalanc_1_1017XalanNumberFormat6formatEiRNS_14XalanDOMStringE(%"class.xalanc_1_10::XalanNumberFormat"* %this, i32 %theValue, %"class.xalanc_1_10::XalanDOMString"* dereferenceable(40) %theResult) unnamed_addr #0 align 2 !dbg !2004 {
entry:
  %this.addr = alloca %"class.xalanc_1_10::XalanNumberFormat"*, align 8
  %theValue.addr = alloca i32, align 4
  %theResult.addr = alloca %"class.xalanc_1_10::XalanDOMString"*, align 8
  store %"class.xalanc_1_10::XalanNumberFormat"* %this, %"class.xalanc_1_10::XalanNumberFormat"** %this.addr, align 8
  call void @llvm.dbg.declare(metadata %"class.xalanc_1_10::XalanNumberFormat"** %this.addr, metadata !2005, metadata !DIExpression()), !dbg !2006
  store i32 %theValue, i32* %theValue.addr, align 4
  call void @llvm.dbg.declare(metadata i32* %theValue.addr, metadata !2007, metadata !DIExpression()), !dbg !2008
  store %"class.xalanc_1_10::XalanDOMString"* %theResult, %"class.xalanc_1_10::XalanDOMString"** %theResult.addr, align 8
  call void @llvm.dbg.declare(metadata %"class.xalanc_1_10::XalanDOMString"** %theResult.addr, metadata !2009, metadata !DIExpression()), !dbg !2010
  %this1 = load %"class.xalanc_1_10::XalanNumberFormat"*, %"class.xalanc_1_10::XalanNumberFormat"** %this.addr, align 8
  %0 = load i32, i32* %theValue.addr, align 4, !dbg !2011
  %conv = sext i32 %0 to i64, !dbg !2011
  %1 = load %"class.xalanc_1_10::XalanDOMString"*, %"class.xalanc_1_10::XalanDOMString"** %theResult.addr, align 8, !dbg !2012
  %call = call dereferenceable(40) %"class.xalanc_1_10::XalanDOMString"* @_ZN11xalanc_1_1015LongToDOMStringElRNS_14XalanDOMStringE(i64 %conv, %"class.xalanc_1_10::XalanDOMString"* dereferenceable(40) %1), !dbg !2013
  %2 = load %"class.xalanc_1_10::XalanDOMString"*, %"class.xalanc_1_10::XalanDOMString"** %theResult.addr, align 8, !dbg !2014
  %3 = load %"class.xalanc_1_10::XalanDOMString"*, %"class.xalanc_1_10::XalanDOMString"** %theResult.addr, align 8, !dbg !2015
  call void @_ZN11xalanc_1_1017XalanNumberFormat13applyGroupingERKNS_14XalanDOMStringERS1_(%"class.xalanc_1_10::XalanNumberFormat"* %this1, %"class.xalanc_1_10::XalanDOMString"* dereferenceable(40) %2, %"class.xalanc_1_10::XalanDOMString"* dereferenceable(40) %3), !dbg !2016
  %4 = load %"class.xalanc_1_10::XalanDOMString"*, %"class.xalanc_1_10::XalanDOMString"** %theResult.addr, align 8, !dbg !2017
  ret %"class.xalanc_1_10::XalanDOMString"* %4, !dbg !2018
}

declare dso_local dereferenceable(40) %"class.xalanc_1_10::XalanDOMString"* @_ZN11xalanc_1_1015LongToDOMStringElRNS_14XalanDOMStringE(i64, %"class.xalanc_1_10::XalanDOMString"* dereferenceable(40)) #2

; Function Attrs: noinline uwtable
define dso_local dereferenceable(40) %"class.xalanc_1_10::XalanDOMString"* @_ZN11xalanc_1_1017XalanNumberFormat6formatEjRNS_14XalanDOMStringE(%"class.xalanc_1_10::XalanNumberFormat"* %this, i32 %theValue, %"class.xalanc_1_10::XalanDOMString"* dereferenceable(40) %theResult) unnamed_addr #0 align 2 !dbg !2019 {
entry:
  %this.addr = alloca %"class.xalanc_1_10::XalanNumberFormat"*, align 8
  %theValue.addr = alloca i32, align 4
  %theResult.addr = alloca %"class.xalanc_1_10::XalanDOMString"*, align 8
  store %"class.xalanc_1_10::XalanNumberFormat"* %this, %"class.xalanc_1_10::XalanNumberFormat"** %this.addr, align 8
  call void @llvm.dbg.declare(metadata %"class.xalanc_1_10::XalanNumberFormat"** %this.addr, metadata !2020, metadata !DIExpression()), !dbg !2021
  store i32 %theValue, i32* %theValue.addr, align 4
  call void @llvm.dbg.declare(metadata i32* %theValue.addr, metadata !2022, metadata !DIExpression()), !dbg !2023
  store %"class.xalanc_1_10::XalanDOMString"* %theResult, %"class.xalanc_1_10::XalanDOMString"** %theResult.addr, align 8
  call void @llvm.dbg.declare(metadata %"class.xalanc_1_10::XalanDOMString"** %theResult.addr, metadata !2024, metadata !DIExpression()), !dbg !2025
  %this1 = load %"class.xalanc_1_10::XalanNumberFormat"*, %"class.xalanc_1_10::XalanNumberFormat"** %this.addr, align 8
  %0 = load i32, i32* %theValue.addr, align 4, !dbg !2026
  %conv = zext i32 %0 to i64, !dbg !2026
  %1 = load %"class.xalanc_1_10::XalanDOMString"*, %"class.xalanc_1_10::XalanDOMString"** %theResult.addr, align 8, !dbg !2027
  %call = call dereferenceable(40) %"class.xalanc_1_10::XalanDOMString"* @_ZN11xalanc_1_1023UnsignedLongToDOMStringEmRNS_14XalanDOMStringE(i64 %conv, %"class.xalanc_1_10::XalanDOMString"* dereferenceable(40) %1), !dbg !2028
  %2 = load %"class.xalanc_1_10::XalanDOMString"*, %"class.xalanc_1_10::XalanDOMString"** %theResult.addr, align 8, !dbg !2029
  %3 = load %"class.xalanc_1_10::XalanDOMString"*, %"class.xalanc_1_10::XalanDOMString"** %theResult.addr, align 8, !dbg !2030
  call void @_ZN11xalanc_1_1017XalanNumberFormat13applyGroupingERKNS_14XalanDOMStringERS1_(%"class.xalanc_1_10::XalanNumberFormat"* %this1, %"class.xalanc_1_10::XalanDOMString"* dereferenceable(40) %2, %"class.xalanc_1_10::XalanDOMString"* dereferenceable(40) %3), !dbg !2031
  %4 = load %"class.xalanc_1_10::XalanDOMString"*, %"class.xalanc_1_10::XalanDOMString"** %theResult.addr, align 8, !dbg !2032
  ret %"class.xalanc_1_10::XalanDOMString"* %4, !dbg !2033
}

declare dso_local dereferenceable(40) %"class.xalanc_1_10::XalanDOMString"* @_ZN11xalanc_1_1023UnsignedLongToDOMStringEmRNS_14XalanDOMStringE(i64, %"class.xalanc_1_10::XalanDOMString"* dereferenceable(40)) #2

; Function Attrs: noinline uwtable
define dso_local dereferenceable(40) %"class.xalanc_1_10::XalanDOMString"* @_ZN11xalanc_1_1017XalanNumberFormat6formatElRNS_14XalanDOMStringE(%"class.xalanc_1_10::XalanNumberFormat"* %this, i64 %theValue, %"class.xalanc_1_10::XalanDOMString"* dereferenceable(40) %theResult) unnamed_addr #0 align 2 !dbg !2034 {
entry:
  %this.addr = alloca %"class.xalanc_1_10::XalanNumberFormat"*, align 8
  %theValue.addr = alloca i64, align 8
  %theResult.addr = alloca %"class.xalanc_1_10::XalanDOMString"*, align 8
  store %"class.xalanc_1_10::XalanNumberFormat"* %this, %"class.xalanc_1_10::XalanNumberFormat"** %this.addr, align 8
  call void @llvm.dbg.declare(metadata %"class.xalanc_1_10::XalanNumberFormat"** %this.addr, metadata !2035, metadata !DIExpression()), !dbg !2036
  store i64 %theValue, i64* %theValue.addr, align 8
  call void @llvm.dbg.declare(metadata i64* %theValue.addr, metadata !2037, metadata !DIExpression()), !dbg !2038
  store %"class.xalanc_1_10::XalanDOMString"* %theResult, %"class.xalanc_1_10::XalanDOMString"** %theResult.addr, align 8
  call void @llvm.dbg.declare(metadata %"class.xalanc_1_10::XalanDOMString"** %theResult.addr, metadata !2039, metadata !DIExpression()), !dbg !2040
  %this1 = load %"class.xalanc_1_10::XalanNumberFormat"*, %"class.xalanc_1_10::XalanNumberFormat"** %this.addr, align 8
  %0 = load i64, i64* %theValue.addr, align 8, !dbg !2041
  %1 = load %"class.xalanc_1_10::XalanDOMString"*, %"class.xalanc_1_10::XalanDOMString"** %theResult.addr, align 8, !dbg !2042
  %call = call dereferenceable(40) %"class.xalanc_1_10::XalanDOMString"* @_ZN11xalanc_1_1015LongToDOMStringElRNS_14XalanDOMStringE(i64 %0, %"class.xalanc_1_10::XalanDOMString"* dereferenceable(40) %1), !dbg !2043
  %2 = load %"class.xalanc_1_10::XalanDOMString"*, %"class.xalanc_1_10::XalanDOMString"** %theResult.addr, align 8, !dbg !2044
  %3 = load %"class.xalanc_1_10::XalanDOMString"*, %"class.xalanc_1_10::XalanDOMString"** %theResult.addr, align 8, !dbg !2045
  call void @_ZN11xalanc_1_1017XalanNumberFormat13applyGroupingERKNS_14XalanDOMStringERS1_(%"class.xalanc_1_10::XalanNumberFormat"* %this1, %"class.xalanc_1_10::XalanDOMString"* dereferenceable(40) %2, %"class.xalanc_1_10::XalanDOMString"* dereferenceable(40) %3), !dbg !2046
  %4 = load %"class.xalanc_1_10::XalanDOMString"*, %"class.xalanc_1_10::XalanDOMString"** %theResult.addr, align 8, !dbg !2047
  ret %"class.xalanc_1_10::XalanDOMString"* %4, !dbg !2048
}

; Function Attrs: noinline uwtable
define dso_local dereferenceable(40) %"class.xalanc_1_10::XalanDOMString"* @_ZN11xalanc_1_1017XalanNumberFormat6formatEmRNS_14XalanDOMStringE(%"class.xalanc_1_10::XalanNumberFormat"* %this, i64 %theValue, %"class.xalanc_1_10::XalanDOMString"* dereferenceable(40) %theResult) unnamed_addr #0 align 2 !dbg !2049 {
entry:
  %this.addr = alloca %"class.xalanc_1_10::XalanNumberFormat"*, align 8
  %theValue.addr = alloca i64, align 8
  %theResult.addr = alloca %"class.xalanc_1_10::XalanDOMString"*, align 8
  store %"class.xalanc_1_10::XalanNumberFormat"* %this, %"class.xalanc_1_10::XalanNumberFormat"** %this.addr, align 8
  call void @llvm.dbg.declare(metadata %"class.xalanc_1_10::XalanNumberFormat"** %this.addr, metadata !2050, metadata !DIExpression()), !dbg !2051
  store i64 %theValue, i64* %theValue.addr, align 8
  call void @llvm.dbg.declare(metadata i64* %theValue.addr, metadata !2052, metadata !DIExpression()), !dbg !2053
  store %"class.xalanc_1_10::XalanDOMString"* %theResult, %"class.xalanc_1_10::XalanDOMString"** %theResult.addr, align 8
  call void @llvm.dbg.declare(metadata %"class.xalanc_1_10::XalanDOMString"** %theResult.addr, metadata !2054, metadata !DIExpression()), !dbg !2055
  %this1 = load %"class.xalanc_1_10::XalanNumberFormat"*, %"class.xalanc_1_10::XalanNumberFormat"** %this.addr, align 8
  %0 = load i64, i64* %theValue.addr, align 8, !dbg !2056
  %1 = load %"class.xalanc_1_10::XalanDOMString"*, %"class.xalanc_1_10::XalanDOMString"** %theResult.addr, align 8, !dbg !2057
  %call = call dereferenceable(40) %"class.xalanc_1_10::XalanDOMString"* @_ZN11xalanc_1_1023UnsignedLongToDOMStringEmRNS_14XalanDOMStringE(i64 %0, %"class.xalanc_1_10::XalanDOMString"* dereferenceable(40) %1), !dbg !2058
  %2 = load %"class.xalanc_1_10::XalanDOMString"*, %"class.xalanc_1_10::XalanDOMString"** %theResult.addr, align 8, !dbg !2059
  %3 = load %"class.xalanc_1_10::XalanDOMString"*, %"class.xalanc_1_10::XalanDOMString"** %theResult.addr, align 8, !dbg !2060
  call void @_ZN11xalanc_1_1017XalanNumberFormat13applyGroupingERKNS_14XalanDOMStringERS1_(%"class.xalanc_1_10::XalanNumberFormat"* %this1, %"class.xalanc_1_10::XalanDOMString"* dereferenceable(40) %2, %"class.xalanc_1_10::XalanDOMString"* dereferenceable(40) %3), !dbg !2061
  %4 = load %"class.xalanc_1_10::XalanDOMString"*, %"class.xalanc_1_10::XalanDOMString"** %theResult.addr, align 8, !dbg !2062
  ret %"class.xalanc_1_10::XalanDOMString"* %4, !dbg !2063
}

; Function Attrs: noinline uwtable
define linkonce_odr dso_local dereferenceable(40) %"class.xalanc_1_10::XalanDOMString"* @_ZN11xalanc_1_1014XalanDOMStringaSERKS0_(%"class.xalanc_1_10::XalanDOMString"* %this, %"class.xalanc_1_10::XalanDOMString"* dereferenceable(40) %theRHS) #0 comdat align 2 !dbg !2064 {
entry:
  %this.addr = alloca %"class.xalanc_1_10::XalanDOMString"*, align 8
  %theRHS.addr = alloca %"class.xalanc_1_10::XalanDOMString"*, align 8
  store %"class.xalanc_1_10::XalanDOMString"* %this, %"class.xalanc_1_10::XalanDOMString"** %this.addr, align 8
  call void @llvm.dbg.declare(metadata %"class.xalanc_1_10::XalanDOMString"** %this.addr, metadata !2065, metadata !DIExpression()), !dbg !2066
  store %"class.xalanc_1_10::XalanDOMString"* %theRHS, %"class.xalanc_1_10::XalanDOMString"** %theRHS.addr, align 8
  call void @llvm.dbg.declare(metadata %"class.xalanc_1_10::XalanDOMString"** %theRHS.addr, metadata !2067, metadata !DIExpression()), !dbg !2068
  %this1 = load %"class.xalanc_1_10::XalanDOMString"*, %"class.xalanc_1_10::XalanDOMString"** %this.addr, align 8
  %0 = load %"class.xalanc_1_10::XalanDOMString"*, %"class.xalanc_1_10::XalanDOMString"** %theRHS.addr, align 8, !dbg !2069
  %call = call dereferenceable(40) %"class.xalanc_1_10::XalanDOMString"* @_ZN11xalanc_1_1014XalanDOMString6assignERKS0_(%"class.xalanc_1_10::XalanDOMString"* %this1, %"class.xalanc_1_10::XalanDOMString"* dereferenceable(40) %0), !dbg !2070
  ret %"class.xalanc_1_10::XalanDOMString"* %call, !dbg !2071
}

; Function Attrs: noinline uwtable
define linkonce_odr dso_local i32 @_ZN11xalanc_1_106lengthERKNS_14XalanDOMStringE(%"class.xalanc_1_10::XalanDOMString"* dereferenceable(40) %theString) #0 comdat !dbg !2072 {
entry:
  %theString.addr = alloca %"class.xalanc_1_10::XalanDOMString"*, align 8
  store %"class.xalanc_1_10::XalanDOMString"* %theString, %"class.xalanc_1_10::XalanDOMString"** %theString.addr, align 8
  call void @llvm.dbg.declare(metadata %"class.xalanc_1_10::XalanDOMString"** %theString.addr, metadata !2075, metadata !DIExpression()), !dbg !2076
  %0 = load %"class.xalanc_1_10::XalanDOMString"*, %"class.xalanc_1_10::XalanDOMString"** %theString.addr, align 8, !dbg !2077
  %call = call i32 @_ZNK11xalanc_1_1014XalanDOMString6lengthEv(%"class.xalanc_1_10::XalanDOMString"* %0), !dbg !2078
  ret i32 %call, !dbg !2079
}

; Function Attrs: noinline uwtable
define linkonce_odr dso_local i16* @_ZN11xalanc_1_1024XalanMemMngArrayAllocateItE8allocateEmRN11xercesc_2_713MemoryManagerE(i64 %size, %"class.xercesc_2_7::MemoryManager"* dereferenceable(8) %memoryManager) #0 comdat align 2 personality i8* bitcast (i32 (...)* @__gxx_personality_v0 to i8*) !dbg !2080 {
entry:
  %size.addr = alloca i64, align 8
  %memoryManager.addr = alloca %"class.xercesc_2_7::MemoryManager"*, align 8
  %theGuard = alloca %"class.xalanc_1_10::XalanMemMgrAutoPtrArray", align 8
  %allocated = alloca i64, align 8
  %runPtr = alloca i16*, align 8
  %exn.slot = alloca i8*
  %ehselector.slot = alloca i32
  %theResult = alloca i16*, align 8
  %tmp = alloca %"class.xalanc_1_10::XalanMemMgrAutoPtrArray<unsigned short>::MemMgrAutoPtrArrayData", align 8
  store i64 %size, i64* %size.addr, align 8
  call void @llvm.dbg.declare(metadata i64* %size.addr, metadata !2081, metadata !DIExpression()), !dbg !2082
  store %"class.xercesc_2_7::MemoryManager"* %memoryManager, %"class.xercesc_2_7::MemoryManager"** %memoryManager.addr, align 8
  call void @llvm.dbg.declare(metadata %"class.xercesc_2_7::MemoryManager"** %memoryManager.addr, metadata !2083, metadata !DIExpression()), !dbg !2084
  call void @llvm.dbg.declare(metadata %"class.xalanc_1_10::XalanMemMgrAutoPtrArray"* %theGuard, metadata !2085, metadata !DIExpression()), !dbg !2086
  %0 = load %"class.xercesc_2_7::MemoryManager"*, %"class.xercesc_2_7::MemoryManager"** %memoryManager.addr, align 8, !dbg !2087
  %1 = load %"class.xercesc_2_7::MemoryManager"*, %"class.xercesc_2_7::MemoryManager"** %memoryManager.addr, align 8, !dbg !2088
  %2 = load i64, i64* %size.addr, align 8, !dbg !2089
  %mul = mul i64 2, %2, !dbg !2090
  %3 = bitcast %"class.xercesc_2_7::MemoryManager"* %1 to i8* (%"class.xercesc_2_7::MemoryManager"*, i64)***, !dbg !2091
  %vtable = load i8* (%"class.xercesc_2_7::MemoryManager"*, i64)**, i8* (%"class.xercesc_2_7::MemoryManager"*, i64)*** %3, align 8, !dbg !2091
  %vfn = getelementptr inbounds i8* (%"class.xercesc_2_7::MemoryManager"*, i64)*, i8* (%"class.xercesc_2_7::MemoryManager"*, i64)** %vtable, i64 2, !dbg !2091
  %4 = load i8* (%"class.xercesc_2_7::MemoryManager"*, i64)*, i8* (%"class.xercesc_2_7::MemoryManager"*, i64)** %vfn, align 8, !dbg !2091
  %call = call i8* %4(%"class.xercesc_2_7::MemoryManager"* %1, i64 %mul), !dbg !2091
  %5 = bitcast i8* %call to i16*, !dbg !2092
  %6 = load i64, i64* %size.addr, align 8, !dbg !2093
  call void @_ZN11xalanc_1_1023XalanMemMgrAutoPtrArrayItEC2ERN11xercesc_2_713MemoryManagerEPtm(%"class.xalanc_1_10::XalanMemMgrAutoPtrArray"* %theGuard, %"class.xercesc_2_7::MemoryManager"* dereferenceable(8) %0, i16* %5, i64 %6), !dbg !2086
  call void @llvm.dbg.declare(metadata i64* %allocated, metadata !2094, metadata !DIExpression()), !dbg !2095
  store i64 0, i64* %allocated, align 8, !dbg !2095
  call void @llvm.dbg.declare(metadata i16** %runPtr, metadata !2096, metadata !DIExpression()), !dbg !2098
  %call1 = invoke i16* @_ZNK11xalanc_1_1023XalanMemMgrAutoPtrArrayItE3getEv(%"class.xalanc_1_10::XalanMemMgrAutoPtrArray"* %theGuard)
          to label %invoke.cont unwind label %lpad, !dbg !2099

invoke.cont:                                      ; preds = %entry
  store i16* %call1, i16** %runPtr, align 8, !dbg !2098
  br label %for.cond, !dbg !2100

for.cond:                                         ; preds = %for.inc, %invoke.cont
  %7 = load i64, i64* %allocated, align 8, !dbg !2101
  %8 = load i64, i64* %size.addr, align 8, !dbg !2103
  %cmp = icmp ult i64 %7, %8, !dbg !2104
  br i1 %cmp, label %for.body, label %for.end, !dbg !2105

for.body:                                         ; preds = %for.cond
  %9 = load i16*, i16** %runPtr, align 8, !dbg !2106
  %10 = load i64, i64* %allocated, align 8, !dbg !2108
  %add.ptr = getelementptr inbounds i16, i16* %9, i64 %10, !dbg !2109
  %11 = bitcast i16* %add.ptr to i8*, !dbg !2110
  %12 = bitcast i8* %11 to i16*, !dbg !2110
  store i16 0, i16* %12, align 2, !dbg !2110
  %call3 = invoke dereferenceable(24) %"class.xalanc_1_10::XalanMemMgrAutoPtrArray"* @_ZN11xalanc_1_1023XalanMemMgrAutoPtrArrayItEppEv(%"class.xalanc_1_10::XalanMemMgrAutoPtrArray"* %theGuard)
          to label %invoke.cont2 unwind label %lpad, !dbg !2111

invoke.cont2:                                     ; preds = %for.body
  br label %for.inc, !dbg !2112

for.inc:                                          ; preds = %invoke.cont2
  %13 = load i64, i64* %allocated, align 8, !dbg !2113
  %inc = add i64 %13, 1, !dbg !2113
  store i64 %inc, i64* %allocated, align 8, !dbg !2113
  br label %for.cond, !dbg !2114, !llvm.loop !2115

lpad:                                             ; preds = %invoke.cont4, %for.end, %for.body, %entry
  %14 = landingpad { i8*, i32 }
          cleanup, !dbg !2117
  %15 = extractvalue { i8*, i32 } %14, 0, !dbg !2117
  store i8* %15, i8** %exn.slot, align 8, !dbg !2117
  %16 = extractvalue { i8*, i32 } %14, 1, !dbg !2117
  store i32 %16, i32* %ehselector.slot, align 4, !dbg !2117
  call void @_ZN11xalanc_1_1023XalanMemMgrAutoPtrArrayItED2Ev(%"class.xalanc_1_10::XalanMemMgrAutoPtrArray"* %theGuard) #7, !dbg !2118
  br label %eh.resume, !dbg !2118

for.end:                                          ; preds = %for.cond
  call void @llvm.dbg.declare(metadata i16** %theResult, metadata !2119, metadata !DIExpression()), !dbg !2120
  %call5 = invoke i16* @_ZNK11xalanc_1_1023XalanMemMgrAutoPtrArrayItE3getEv(%"class.xalanc_1_10::XalanMemMgrAutoPtrArray"* %theGuard)
          to label %invoke.cont4 unwind label %lpad, !dbg !2121

invoke.cont4:                                     ; preds = %for.end
  store i16* %call5, i16** %theResult, align 8, !dbg !2120
  invoke void @_ZN11xalanc_1_1023XalanMemMgrAutoPtrArrayItE7releaseEv(%"class.xalanc_1_10::XalanMemMgrAutoPtrArray<unsigned short>::MemMgrAutoPtrArrayData"* sret %tmp, %"class.xalanc_1_10::XalanMemMgrAutoPtrArray"* %theGuard)
          to label %invoke.cont6 unwind label %lpad, !dbg !2122

invoke.cont6:                                     ; preds = %invoke.cont4
  %17 = load i16*, i16** %theResult, align 8, !dbg !2123
  call void @_ZN11xalanc_1_1023XalanMemMgrAutoPtrArrayItED2Ev(%"class.xalanc_1_10::XalanMemMgrAutoPtrArray"* %theGuard) #7, !dbg !2118
  ret i16* %17, !dbg !2118

eh.resume:                                        ; preds = %lpad
  %exn = load i8*, i8** %exn.slot, align 8, !dbg !2118
  %sel = load i32, i32* %ehselector.slot, align 4, !dbg !2118
  %lpad.val = insertvalue { i8*, i32 } undef, i8* %exn, 0, !dbg !2118
  %lpad.val7 = insertvalue { i8*, i32 } %lpad.val, i32 %sel, 1, !dbg !2118
  resume { i8*, i32 } %lpad.val7, !dbg !2118
}

; Function Attrs: noinline uwtable
define linkonce_odr dso_local dereferenceable(8) %"class.xercesc_2_7::MemoryManager"* @_ZN11xalanc_1_1014XalanDOMString16getMemoryManagerEv(%"class.xalanc_1_10::XalanDOMString"* %this) #0 comdat align 2 !dbg !2124 {
entry:
  %this.addr = alloca %"class.xalanc_1_10::XalanDOMString"*, align 8
  store %"class.xalanc_1_10::XalanDOMString"* %this, %"class.xalanc_1_10::XalanDOMString"** %this.addr, align 8
  call void @llvm.dbg.declare(metadata %"class.xalanc_1_10::XalanDOMString"** %this.addr, metadata !2125, metadata !DIExpression()), !dbg !2126
  %this1 = load %"class.xalanc_1_10::XalanDOMString"*, %"class.xalanc_1_10::XalanDOMString"** %this.addr, align 8
  %m_data = getelementptr inbounds %"class.xalanc_1_10::XalanDOMString", %"class.xalanc_1_10::XalanDOMString"* %this1, i32 0, i32 0, !dbg !2127
  %call = call dereferenceable(8) %"class.xercesc_2_7::MemoryManager"* @_ZN11xalanc_1_1011XalanVectorItNS_31MemoryManagedConstructionTraitsItEEE16getMemoryManagerEv(%"class.xalanc_1_10::XalanVector"* %m_data), !dbg !2128
  ret %"class.xercesc_2_7::MemoryManager"* %call, !dbg !2129
}

; Function Attrs: noinline uwtable
define linkonce_odr dso_local void @_ZN11xalanc_1_1023XalanMemMgrAutoPtrArrayItEC2ERN11xercesc_2_713MemoryManagerEPtm(%"class.xalanc_1_10::XalanMemMgrAutoPtrArray"* %this, %"class.xercesc_2_7::MemoryManager"* dereferenceable(8) %theManager, i16* %ptr, i64 %size) unnamed_addr #0 comdat align 2 !dbg !2130 {
entry:
  %this.addr = alloca %"class.xalanc_1_10::XalanMemMgrAutoPtrArray"*, align 8
  %theManager.addr = alloca %"class.xercesc_2_7::MemoryManager"*, align 8
  %ptr.addr = alloca i16*, align 8
  %size.addr = alloca i64, align 8
  store %"class.xalanc_1_10::XalanMemMgrAutoPtrArray"* %this, %"class.xalanc_1_10::XalanMemMgrAutoPtrArray"** %this.addr, align 8
  call void @llvm.dbg.declare(metadata %"class.xalanc_1_10::XalanMemMgrAutoPtrArray"** %this.addr, metadata !2131, metadata !DIExpression()), !dbg !2133
  store %"class.xercesc_2_7::MemoryManager"* %theManager, %"class.xercesc_2_7::MemoryManager"** %theManager.addr, align 8
  call void @llvm.dbg.declare(metadata %"class.xercesc_2_7::MemoryManager"** %theManager.addr, metadata !2134, metadata !DIExpression()), !dbg !2135
  store i16* %ptr, i16** %ptr.addr, align 8
  call void @llvm.dbg.declare(metadata i16** %ptr.addr, metadata !2136, metadata !DIExpression()), !dbg !2137
  store i64 %size, i64* %size.addr, align 8
  call void @llvm.dbg.declare(metadata i64* %size.addr, metadata !2138, metadata !DIExpression()), !dbg !2139
  %this1 = load %"class.xalanc_1_10::XalanMemMgrAutoPtrArray"*, %"class.xalanc_1_10::XalanMemMgrAutoPtrArray"** %this.addr, align 8
  %m_pointerInfo = getelementptr inbounds %"class.xalanc_1_10::XalanMemMgrAutoPtrArray", %"class.xalanc_1_10::XalanMemMgrAutoPtrArray"* %this1, i32 0, i32 0, !dbg !2140
  %0 = load %"class.xercesc_2_7::MemoryManager"*, %"class.xercesc_2_7::MemoryManager"** %theManager.addr, align 8, !dbg !2141
  %1 = load i16*, i16** %ptr.addr, align 8, !dbg !2142
  %2 = load i64, i64* %size.addr, align 8, !dbg !2143
  call void @_ZN11xalanc_1_1023XalanMemMgrAutoPtrArrayItE22MemMgrAutoPtrArrayDataC2EPN11xercesc_2_713MemoryManagerEPtm(%"class.xalanc_1_10::XalanMemMgrAutoPtrArray<unsigned short>::MemMgrAutoPtrArrayData"* %m_pointerInfo, %"class.xercesc_2_7::MemoryManager"* %0, i16* %1, i64 %2), !dbg !2140
  ret void, !dbg !2144
}

; Function Attrs: noinline uwtable
define linkonce_odr dso_local zeroext i16 @_ZN11xalanc_1_106charAtERKNS_14XalanDOMStringEj(%"class.xalanc_1_10::XalanDOMString"* dereferenceable(40) %theString, i32 %theIndex) #0 comdat !dbg !2145 {
entry:
  %theString.addr = alloca %"class.xalanc_1_10::XalanDOMString"*, align 8
  %theIndex.addr = alloca i32, align 4
  store %"class.xalanc_1_10::XalanDOMString"* %theString, %"class.xalanc_1_10::XalanDOMString"** %theString.addr, align 8
  call void @llvm.dbg.declare(metadata %"class.xalanc_1_10::XalanDOMString"** %theString.addr, metadata !2148, metadata !DIExpression()), !dbg !2149
  store i32 %theIndex, i32* %theIndex.addr, align 4
  call void @llvm.dbg.declare(metadata i32* %theIndex.addr, metadata !2150, metadata !DIExpression()), !dbg !2151
  %0 = load %"class.xalanc_1_10::XalanDOMString"*, %"class.xalanc_1_10::XalanDOMString"** %theString.addr, align 8, !dbg !2152
  %1 = load i32, i32* %theIndex.addr, align 4, !dbg !2153
  %call = call dereferenceable(2) i16* @_ZNK11xalanc_1_1014XalanDOMStringixEj(%"class.xalanc_1_10::XalanDOMString"* %0, i32 %1), !dbg !2152
  %2 = load i16, i16* %call, align 2, !dbg !2152
  ret i16 %2, !dbg !2154
}

declare dso_local i32 @__gxx_personality_v0(...)

; Function Attrs: noinline uwtable
define linkonce_odr dso_local i32 @_ZNK11xalanc_1_1014XalanDOMString6lengthEv(%"class.xalanc_1_10::XalanDOMString"* %this) #0 comdat align 2 !dbg !2155 {
entry:
  %this.addr = alloca %"class.xalanc_1_10::XalanDOMString"*, align 8
  store %"class.xalanc_1_10::XalanDOMString"* %this, %"class.xalanc_1_10::XalanDOMString"** %this.addr, align 8
  call void @llvm.dbg.declare(metadata %"class.xalanc_1_10::XalanDOMString"** %this.addr, metadata !2156, metadata !DIExpression()), !dbg !2158
  %this1 = load %"class.xalanc_1_10::XalanDOMString"*, %"class.xalanc_1_10::XalanDOMString"** %this.addr, align 8
  call void @_ZNK11xalanc_1_1014XalanDOMString10invariantsEv(%"class.xalanc_1_10::XalanDOMString"* %this1), !dbg !2159
  %call = call i32 @_ZNK11xalanc_1_1014XalanDOMString4sizeEv(%"class.xalanc_1_10::XalanDOMString"* %this1), !dbg !2160
  ret i32 %call, !dbg !2161
}

; Function Attrs: noinline uwtable
define linkonce_odr dso_local dereferenceable(40) %"class.xalanc_1_10::XalanDOMString"* @_ZN11xalanc_1_1014XalanDOMStringaSEPKt(%"class.xalanc_1_10::XalanDOMString"* %this, i16* %theRHS) #0 comdat align 2 !dbg !2162 {
entry:
  %this.addr = alloca %"class.xalanc_1_10::XalanDOMString"*, align 8
  %theRHS.addr = alloca i16*, align 8
  store %"class.xalanc_1_10::XalanDOMString"* %this, %"class.xalanc_1_10::XalanDOMString"** %this.addr, align 8
  call void @llvm.dbg.declare(metadata %"class.xalanc_1_10::XalanDOMString"** %this.addr, metadata !2163, metadata !DIExpression()), !dbg !2164
  store i16* %theRHS, i16** %theRHS.addr, align 8
  call void @llvm.dbg.declare(metadata i16** %theRHS.addr, metadata !2165, metadata !DIExpression()), !dbg !2166
  %this1 = load %"class.xalanc_1_10::XalanDOMString"*, %"class.xalanc_1_10::XalanDOMString"** %this.addr, align 8
  %0 = load i16*, i16** %theRHS.addr, align 8, !dbg !2167
  %call = call dereferenceable(40) %"class.xalanc_1_10::XalanDOMString"* @_ZN11xalanc_1_1014XalanDOMString6assignEPKt(%"class.xalanc_1_10::XalanDOMString"* %this1, i16* %0), !dbg !2168
  ret %"class.xalanc_1_10::XalanDOMString"* %call, !dbg !2169
}

; Function Attrs: noinline nounwind uwtable
define linkonce_odr dso_local void @_ZN11xalanc_1_1023XalanMemMgrAutoPtrArrayItED2Ev(%"class.xalanc_1_10::XalanMemMgrAutoPtrArray"* %this) unnamed_addr #3 comdat align 2 personality i8* bitcast (i32 (...)* @__gxx_personality_v0 to i8*) !dbg !2170 {
entry:
  %this.addr = alloca %"class.xalanc_1_10::XalanMemMgrAutoPtrArray"*, align 8
  store %"class.xalanc_1_10::XalanMemMgrAutoPtrArray"* %this, %"class.xalanc_1_10::XalanMemMgrAutoPtrArray"** %this.addr, align 8
  call void @llvm.dbg.declare(metadata %"class.xalanc_1_10::XalanMemMgrAutoPtrArray"** %this.addr, metadata !2171, metadata !DIExpression()), !dbg !2172
  %this1 = load %"class.xalanc_1_10::XalanMemMgrAutoPtrArray"*, %"class.xalanc_1_10::XalanMemMgrAutoPtrArray"** %this.addr, align 8
  %m_pointerInfo = getelementptr inbounds %"class.xalanc_1_10::XalanMemMgrAutoPtrArray", %"class.xalanc_1_10::XalanMemMgrAutoPtrArray"* %this1, i32 0, i32 0, !dbg !2173
  invoke void @_ZN11xalanc_1_1023XalanMemMgrAutoPtrArrayItE22MemMgrAutoPtrArrayData10deallocateEv(%"class.xalanc_1_10::XalanMemMgrAutoPtrArray<unsigned short>::MemMgrAutoPtrArrayData"* %m_pointerInfo)
          to label %invoke.cont unwind label %terminate.lpad, !dbg !2175

invoke.cont:                                      ; preds = %entry
  ret void, !dbg !2176

terminate.lpad:                                   ; preds = %entry
  %0 = landingpad { i8*, i32 }
          catch i8* null, !dbg !2175
  %1 = extractvalue { i8*, i32 } %0, 0, !dbg !2175
  call void @__clang_call_terminate(i8* %1) #9, !dbg !2175
  unreachable, !dbg !2175
}

; Function Attrs: noinline nounwind uwtable
define dso_local zeroext i1 @_ZNK11xalanc_1_1017XalanNumberFormat14isGroupingUsedEv(%"class.xalanc_1_10::XalanNumberFormat"* %this) unnamed_addr #3 align 2 !dbg !2177 {
entry:
  %this.addr = alloca %"class.xalanc_1_10::XalanNumberFormat"*, align 8
  store %"class.xalanc_1_10::XalanNumberFormat"* %this, %"class.xalanc_1_10::XalanNumberFormat"** %this.addr, align 8
  call void @llvm.dbg.declare(metadata %"class.xalanc_1_10::XalanNumberFormat"** %this.addr, metadata !2178, metadata !DIExpression()), !dbg !2180
  %this1 = load %"class.xalanc_1_10::XalanNumberFormat"*, %"class.xalanc_1_10::XalanNumberFormat"** %this.addr, align 8
  %m_isGroupingUsed = getelementptr inbounds %"class.xalanc_1_10::XalanNumberFormat", %"class.xalanc_1_10::XalanNumberFormat"* %this1, i32 0, i32 1, !dbg !2181
  %0 = load i8, i8* %m_isGroupingUsed, align 8, !dbg !2181
  %tobool = trunc i8 %0 to i1, !dbg !2181
  ret i1 %tobool, !dbg !2182
}

; Function Attrs: noinline nounwind uwtable
define dso_local void @_ZN11xalanc_1_1017XalanNumberFormat15setGroupingUsedEb(%"class.xalanc_1_10::XalanNumberFormat"* %this, i1 zeroext %bUsed) unnamed_addr #3 align 2 !dbg !2183 {
entry:
  %this.addr = alloca %"class.xalanc_1_10::XalanNumberFormat"*, align 8
  %bUsed.addr = alloca i8, align 1
  store %"class.xalanc_1_10::XalanNumberFormat"* %this, %"class.xalanc_1_10::XalanNumberFormat"** %this.addr, align 8
  call void @llvm.dbg.declare(metadata %"class.xalanc_1_10::XalanNumberFormat"** %this.addr, metadata !2184, metadata !DIExpression()), !dbg !2185
  %frombool = zext i1 %bUsed to i8
  store i8 %frombool, i8* %bUsed.addr, align 1
  call void @llvm.dbg.declare(metadata i8* %bUsed.addr, metadata !2186, metadata !DIExpression()), !dbg !2187
  %this1 = load %"class.xalanc_1_10::XalanNumberFormat"*, %"class.xalanc_1_10::XalanNumberFormat"** %this.addr, align 8
  %0 = load i8, i8* %bUsed.addr, align 1, !dbg !2188
  %tobool = trunc i8 %0 to i1, !dbg !2188
  %m_isGroupingUsed = getelementptr inbounds %"class.xalanc_1_10::XalanNumberFormat", %"class.xalanc_1_10::XalanNumberFormat"* %this1, i32 0, i32 1, !dbg !2189
  %frombool2 = zext i1 %tobool to i8, !dbg !2190
  store i8 %frombool2, i8* %m_isGroupingUsed, align 8, !dbg !2190
  ret void, !dbg !2191
}

; Function Attrs: noinline nounwind uwtable
define dso_local void @_ZN11xalanc_1_1017XalanNumberFormat15setGroupingSizeEm(%"class.xalanc_1_10::XalanNumberFormat"* %this, i64 %size) unnamed_addr #3 align 2 !dbg !2192 {
entry:
  %this.addr = alloca %"class.xalanc_1_10::XalanNumberFormat"*, align 8
  %size.addr = alloca i64, align 8
  store %"class.xalanc_1_10::XalanNumberFormat"* %this, %"class.xalanc_1_10::XalanNumberFormat"** %this.addr, align 8
  call void @llvm.dbg.declare(metadata %"class.xalanc_1_10::XalanNumberFormat"** %this.addr, metadata !2193, metadata !DIExpression()), !dbg !2194
  store i64 %size, i64* %size.addr, align 8
  call void @llvm.dbg.declare(metadata i64* %size.addr, metadata !2195, metadata !DIExpression()), !dbg !2196
  %this1 = load %"class.xalanc_1_10::XalanNumberFormat"*, %"class.xalanc_1_10::XalanNumberFormat"** %this.addr, align 8
  %0 = load i64, i64* %size.addr, align 8, !dbg !2197
  %m_groupingSize = getelementptr inbounds %"class.xalanc_1_10::XalanNumberFormat", %"class.xalanc_1_10::XalanNumberFormat"* %this1, i32 0, i32 4, !dbg !2198
  store i64 %0, i64* %m_groupingSize, align 8, !dbg !2199
  ret void, !dbg !2200
}

; Function Attrs: noinline uwtable
define dso_local void @_ZN11xalanc_1_1017XalanNumberFormat20setGroupingSeparatorERKNS_14XalanDOMStringE(%"class.xalanc_1_10::XalanNumberFormat"* %this, %"class.xalanc_1_10::XalanDOMString"* dereferenceable(40) %s) unnamed_addr #0 align 2 !dbg !2201 {
entry:
  %this.addr = alloca %"class.xalanc_1_10::XalanNumberFormat"*, align 8
  %s.addr = alloca %"class.xalanc_1_10::XalanDOMString"*, align 8
  store %"class.xalanc_1_10::XalanNumberFormat"* %this, %"class.xalanc_1_10::XalanNumberFormat"** %this.addr, align 8
  call void @llvm.dbg.declare(metadata %"class.xalanc_1_10::XalanNumberFormat"** %this.addr, metadata !2202, metadata !DIExpression()), !dbg !2203
  store %"class.xalanc_1_10::XalanDOMString"* %s, %"class.xalanc_1_10::XalanDOMString"** %s.addr, align 8
  call void @llvm.dbg.declare(metadata %"class.xalanc_1_10::XalanDOMString"** %s.addr, metadata !2204, metadata !DIExpression()), !dbg !2205
  %this1 = load %"class.xalanc_1_10::XalanNumberFormat"*, %"class.xalanc_1_10::XalanNumberFormat"** %this.addr, align 8
  %0 = load %"class.xalanc_1_10::XalanDOMString"*, %"class.xalanc_1_10::XalanDOMString"** %s.addr, align 8, !dbg !2206
  %m_groupingSeparator = getelementptr inbounds %"class.xalanc_1_10::XalanNumberFormat", %"class.xalanc_1_10::XalanNumberFormat"* %this1, i32 0, i32 3, !dbg !2207
  %call = call dereferenceable(40) %"class.xalanc_1_10::XalanDOMString"* @_ZN11xalanc_1_1014XalanDOMStringaSERKS0_(%"class.xalanc_1_10::XalanDOMString"* %m_groupingSeparator, %"class.xalanc_1_10::XalanDOMString"* dereferenceable(40) %0), !dbg !2208
  ret void, !dbg !2209
}

; Function Attrs: noinline nounwind uwtable
define linkonce_odr dso_local void @_ZN11xalanc_1_1011XalanVectorItNS_31MemoryManagedConstructionTraitsItEEED2Ev(%"class.xalanc_1_10::XalanVector"* %this) unnamed_addr #3 comdat align 2 personality i8* bitcast (i32 (...)* @__gxx_personality_v0 to i8*) !dbg !2210 {
entry:
  %this.addr = alloca %"class.xalanc_1_10::XalanVector"*, align 8
  store %"class.xalanc_1_10::XalanVector"* %this, %"class.xalanc_1_10::XalanVector"** %this.addr, align 8
  call void @llvm.dbg.declare(metadata %"class.xalanc_1_10::XalanVector"** %this.addr, metadata !2211, metadata !DIExpression()), !dbg !2212
  %this1 = load %"class.xalanc_1_10::XalanVector"*, %"class.xalanc_1_10::XalanVector"** %this.addr, align 8
  invoke void @_ZNK11xalanc_1_1011XalanVectorItNS_31MemoryManagedConstructionTraitsItEEE10invariantsEv(%"class.xalanc_1_10::XalanVector"* %this1)
          to label %invoke.cont unwind label %terminate.lpad, !dbg !2213

invoke.cont:                                      ; preds = %entry
  %m_allocation = getelementptr inbounds %"class.xalanc_1_10::XalanVector", %"class.xalanc_1_10::XalanVector"* %this1, i32 0, i32 2, !dbg !2215
  %0 = load i64, i64* %m_allocation, align 8, !dbg !2215
  %cmp = icmp ne i64 %0, 0, !dbg !2217
  br i1 %cmp, label %if.then, label %if.end, !dbg !2218

if.then:                                          ; preds = %invoke.cont
  %call = invoke i16* @_ZN11xalanc_1_1011XalanVectorItNS_31MemoryManagedConstructionTraitsItEEE5beginEv(%"class.xalanc_1_10::XalanVector"* %this1)
          to label %invoke.cont2 unwind label %terminate.lpad, !dbg !2219

invoke.cont2:                                     ; preds = %if.then
  %call4 = invoke i16* @_ZN11xalanc_1_1011XalanVectorItNS_31MemoryManagedConstructionTraitsItEEE3endEv(%"class.xalanc_1_10::XalanVector"* %this1)
          to label %invoke.cont3 unwind label %terminate.lpad, !dbg !2221

invoke.cont3:                                     ; preds = %invoke.cont2
  invoke void @_ZN11xalanc_1_1011XalanVectorItNS_31MemoryManagedConstructionTraitsItEEE7destroyEPtS4_(i16* %call, i16* %call4)
          to label %invoke.cont5 unwind label %terminate.lpad, !dbg !2222

invoke.cont5:                                     ; preds = %invoke.cont3
  %m_data = getelementptr inbounds %"class.xalanc_1_10::XalanVector", %"class.xalanc_1_10::XalanVector"* %this1, i32 0, i32 3, !dbg !2223
  %1 = load i16*, i16** %m_data, align 8, !dbg !2223
  invoke void @_ZN11xalanc_1_1011XalanVectorItNS_31MemoryManagedConstructionTraitsItEEE10deallocateEPt(%"class.xalanc_1_10::XalanVector"* %this1, i16* %1)
          to label %invoke.cont6 unwind label %terminate.lpad, !dbg !2224

invoke.cont6:                                     ; preds = %invoke.cont5
  br label %if.end, !dbg !2225

if.end:                                           ; preds = %invoke.cont6, %invoke.cont
  ret void, !dbg !2226

terminate.lpad:                                   ; preds = %invoke.cont5, %invoke.cont3, %invoke.cont2, %if.then, %entry
  %2 = landingpad { i8*, i32 }
          catch i8* null, !dbg !2213
  %3 = extractvalue { i8*, i32 } %2, 0, !dbg !2213
  call void @__clang_call_terminate(i8* %3) #9, !dbg !2213
  unreachable, !dbg !2213
}

; Function Attrs: noinline nounwind uwtable
define linkonce_odr dso_local void @_ZNK11xalanc_1_1011XalanVectorItNS_31MemoryManagedConstructionTraitsItEEE10invariantsEv(%"class.xalanc_1_10::XalanVector"* %this) #3 comdat align 2 !dbg !2227 {
entry:
  %this.addr = alloca %"class.xalanc_1_10::XalanVector"*, align 8
  store %"class.xalanc_1_10::XalanVector"* %this, %"class.xalanc_1_10::XalanVector"** %this.addr, align 8
  call void @llvm.dbg.declare(metadata %"class.xalanc_1_10::XalanVector"** %this.addr, metadata !2228, metadata !DIExpression()), !dbg !2230
  %this1 = load %"class.xalanc_1_10::XalanVector"*, %"class.xalanc_1_10::XalanVector"** %this.addr, align 8
  ret void, !dbg !2231
}

; Function Attrs: noinline noreturn nounwind
define linkonce_odr hidden void @__clang_call_terminate(i8* %0) #5 comdat {
  %2 = call i8* @__cxa_begin_catch(i8* %0) #7
  call void @_ZSt9terminatev() #9
  unreachable
}

declare dso_local i8* @__cxa_begin_catch(i8*)

declare dso_local void @_ZSt9terminatev()

; Function Attrs: noinline uwtable
define linkonce_odr dso_local void @_ZN11xalanc_1_1011XalanVectorItNS_31MemoryManagedConstructionTraitsItEEE7destroyEPtS4_(i16* %theFirst, i16* %theLast) #0 comdat align 2 !dbg !2232 {
entry:
  %theFirst.addr = alloca i16*, align 8
  %theLast.addr = alloca i16*, align 8
  store i16* %theFirst, i16** %theFirst.addr, align 8
  call void @llvm.dbg.declare(metadata i16** %theFirst.addr, metadata !2233, metadata !DIExpression()), !dbg !2234
  store i16* %theLast, i16** %theLast.addr, align 8
  call void @llvm.dbg.declare(metadata i16** %theLast.addr, metadata !2235, metadata !DIExpression()), !dbg !2236
  br label %for.cond, !dbg !2237

for.cond:                                         ; preds = %for.inc, %entry
  %0 = load i16*, i16** %theFirst.addr, align 8, !dbg !2238
  %1 = load i16*, i16** %theLast.addr, align 8, !dbg !2241
  %cmp = icmp ne i16* %0, %1, !dbg !2242
  br i1 %cmp, label %for.body, label %for.end, !dbg !2243

for.body:                                         ; preds = %for.cond
  %2 = load i16*, i16** %theFirst.addr, align 8, !dbg !2244
  call void @_ZN11xalanc_1_1011XalanVectorItNS_31MemoryManagedConstructionTraitsItEEE7destroyERt(i16* dereferenceable(2) %2), !dbg !2246
  br label %for.inc, !dbg !2247

for.inc:                                          ; preds = %for.body
  %3 = load i16*, i16** %theFirst.addr, align 8, !dbg !2248
  %incdec.ptr = getelementptr inbounds i16, i16* %3, i32 1, !dbg !2248
  store i16* %incdec.ptr, i16** %theFirst.addr, align 8, !dbg !2248
  br label %for.cond, !dbg !2249, !llvm.loop !2250

for.end:                                          ; preds = %for.cond
  ret void, !dbg !2252
}

; Function Attrs: noinline nounwind uwtable
define linkonce_odr dso_local i16* @_ZN11xalanc_1_1011XalanVectorItNS_31MemoryManagedConstructionTraitsItEEE5beginEv(%"class.xalanc_1_10::XalanVector"* %this) #3 comdat align 2 !dbg !2253 {
entry:
  %this.addr = alloca %"class.xalanc_1_10::XalanVector"*, align 8
  store %"class.xalanc_1_10::XalanVector"* %this, %"class.xalanc_1_10::XalanVector"** %this.addr, align 8
  call void @llvm.dbg.declare(metadata %"class.xalanc_1_10::XalanVector"** %this.addr, metadata !2254, metadata !DIExpression()), !dbg !2255
  %this1 = load %"class.xalanc_1_10::XalanVector"*, %"class.xalanc_1_10::XalanVector"** %this.addr, align 8
  call void @_ZNK11xalanc_1_1011XalanVectorItNS_31MemoryManagedConstructionTraitsItEEE10invariantsEv(%"class.xalanc_1_10::XalanVector"* %this1), !dbg !2256
  %m_data = getelementptr inbounds %"class.xalanc_1_10::XalanVector", %"class.xalanc_1_10::XalanVector"* %this1, i32 0, i32 3, !dbg !2257
  %0 = load i16*, i16** %m_data, align 8, !dbg !2257
  ret i16* %0, !dbg !2258
}

; Function Attrs: noinline uwtable
define linkonce_odr dso_local i16* @_ZN11xalanc_1_1011XalanVectorItNS_31MemoryManagedConstructionTraitsItEEE3endEv(%"class.xalanc_1_10::XalanVector"* %this) #0 comdat align 2 !dbg !2259 {
entry:
  %this.addr = alloca %"class.xalanc_1_10::XalanVector"*, align 8
  store %"class.xalanc_1_10::XalanVector"* %this, %"class.xalanc_1_10::XalanVector"** %this.addr, align 8
  call void @llvm.dbg.declare(metadata %"class.xalanc_1_10::XalanVector"** %this.addr, metadata !2260, metadata !DIExpression()), !dbg !2261
  %this1 = load %"class.xalanc_1_10::XalanVector"*, %"class.xalanc_1_10::XalanVector"** %this.addr, align 8
  call void @_ZNK11xalanc_1_1011XalanVectorItNS_31MemoryManagedConstructionTraitsItEEE10invariantsEv(%"class.xalanc_1_10::XalanVector"* %this1), !dbg !2262
  %call = call i16* @_ZN11xalanc_1_1011XalanVectorItNS_31MemoryManagedConstructionTraitsItEEE10endPointerEv(%"class.xalanc_1_10::XalanVector"* %this1), !dbg !2263
  ret i16* %call, !dbg !2264
}

; Function Attrs: noinline uwtable
define linkonce_odr dso_local void @_ZN11xalanc_1_1011XalanVectorItNS_31MemoryManagedConstructionTraitsItEEE10deallocateEPt(%"class.xalanc_1_10::XalanVector"* %this, i16* %pointer) #0 comdat align 2 !dbg !2265 {
entry:
  %this.addr = alloca %"class.xalanc_1_10::XalanVector"*, align 8
  %pointer.addr = alloca i16*, align 8
  store %"class.xalanc_1_10::XalanVector"* %this, %"class.xalanc_1_10::XalanVector"** %this.addr, align 8
  call void @llvm.dbg.declare(metadata %"class.xalanc_1_10::XalanVector"** %this.addr, metadata !2266, metadata !DIExpression()), !dbg !2267
  store i16* %pointer, i16** %pointer.addr, align 8
  call void @llvm.dbg.declare(metadata i16** %pointer.addr, metadata !2268, metadata !DIExpression()), !dbg !2269
  %this1 = load %"class.xalanc_1_10::XalanVector"*, %"class.xalanc_1_10::XalanVector"** %this.addr, align 8
  %m_memoryManager = getelementptr inbounds %"class.xalanc_1_10::XalanVector", %"class.xalanc_1_10::XalanVector"* %this1, i32 0, i32 0, !dbg !2270
  %0 = load %"class.xercesc_2_7::MemoryManager"*, %"class.xercesc_2_7::MemoryManager"** %m_memoryManager, align 8, !dbg !2270
  %1 = load i16*, i16** %pointer.addr, align 8, !dbg !2271
  %2 = bitcast i16* %1 to i8*, !dbg !2271
  %3 = bitcast %"class.xercesc_2_7::MemoryManager"* %0 to void (%"class.xercesc_2_7::MemoryManager"*, i8*)***, !dbg !2272
  %vtable = load void (%"class.xercesc_2_7::MemoryManager"*, i8*)**, void (%"class.xercesc_2_7::MemoryManager"*, i8*)*** %3, align 8, !dbg !2272
  %vfn = getelementptr inbounds void (%"class.xercesc_2_7::MemoryManager"*, i8*)*, void (%"class.xercesc_2_7::MemoryManager"*, i8*)** %vtable, i64 3, !dbg !2272
  %4 = load void (%"class.xercesc_2_7::MemoryManager"*, i8*)*, void (%"class.xercesc_2_7::MemoryManager"*, i8*)** %vfn, align 8, !dbg !2272
  call void %4(%"class.xercesc_2_7::MemoryManager"* %0, i8* %2), !dbg !2272
  ret void, !dbg !2273
}

; Function Attrs: noinline nounwind uwtable
define linkonce_odr dso_local void @_ZN11xalanc_1_1011XalanVectorItNS_31MemoryManagedConstructionTraitsItEEE7destroyERt(i16* dereferenceable(2) %theValue) #3 comdat align 2 !dbg !2274 {
entry:
  %theValue.addr = alloca i16*, align 8
  store i16* %theValue, i16** %theValue.addr, align 8
  call void @llvm.dbg.declare(metadata i16** %theValue.addr, metadata !2275, metadata !DIExpression()), !dbg !2276
  %0 = load i16*, i16** %theValue.addr, align 8, !dbg !2277
  ret void, !dbg !2278
}

; Function Attrs: noinline nounwind uwtable
define linkonce_odr dso_local i16* @_ZN11xalanc_1_1011XalanVectorItNS_31MemoryManagedConstructionTraitsItEEE10endPointerEv(%"class.xalanc_1_10::XalanVector"* %this) #3 comdat align 2 !dbg !2279 {
entry:
  %this.addr = alloca %"class.xalanc_1_10::XalanVector"*, align 8
  store %"class.xalanc_1_10::XalanVector"* %this, %"class.xalanc_1_10::XalanVector"** %this.addr, align 8
  call void @llvm.dbg.declare(metadata %"class.xalanc_1_10::XalanVector"** %this.addr, metadata !2280, metadata !DIExpression()), !dbg !2281
  %this1 = load %"class.xalanc_1_10::XalanVector"*, %"class.xalanc_1_10::XalanVector"** %this.addr, align 8
  %m_data = getelementptr inbounds %"class.xalanc_1_10::XalanVector", %"class.xalanc_1_10::XalanVector"* %this1, i32 0, i32 3, !dbg !2282
  %0 = load i16*, i16** %m_data, align 8, !dbg !2282
  %m_size = getelementptr inbounds %"class.xalanc_1_10::XalanVector", %"class.xalanc_1_10::XalanVector"* %this1, i32 0, i32 1, !dbg !2283
  %1 = load i64, i64* %m_size, align 8, !dbg !2283
  %add.ptr = getelementptr inbounds i16, i16* %0, i64 %1, !dbg !2284
  ret i16* %add.ptr, !dbg !2285
}

; Function Attrs: noinline uwtable
define linkonce_odr dso_local dereferenceable(40) %"class.xalanc_1_10::XalanDOMString"* @_ZN11xalanc_1_1014XalanDOMString6assignERKS0_(%"class.xalanc_1_10::XalanDOMString"* %this, %"class.xalanc_1_10::XalanDOMString"* dereferenceable(40) %theSource) #0 comdat align 2 !dbg !2286 {
entry:
  %this.addr = alloca %"class.xalanc_1_10::XalanDOMString"*, align 8
  %theSource.addr = alloca %"class.xalanc_1_10::XalanDOMString"*, align 8
  store %"class.xalanc_1_10::XalanDOMString"* %this, %"class.xalanc_1_10::XalanDOMString"** %this.addr, align 8
  call void @llvm.dbg.declare(metadata %"class.xalanc_1_10::XalanDOMString"** %this.addr, metadata !2287, metadata !DIExpression()), !dbg !2288
  store %"class.xalanc_1_10::XalanDOMString"* %theSource, %"class.xalanc_1_10::XalanDOMString"** %theSource.addr, align 8
  call void @llvm.dbg.declare(metadata %"class.xalanc_1_10::XalanDOMString"** %theSource.addr, metadata !2289, metadata !DIExpression()), !dbg !2290
  %this1 = load %"class.xalanc_1_10::XalanDOMString"*, %"class.xalanc_1_10::XalanDOMString"** %this.addr, align 8
  call void @_ZNK11xalanc_1_1014XalanDOMString10invariantsEv(%"class.xalanc_1_10::XalanDOMString"* %this1), !dbg !2291
  %0 = load %"class.xalanc_1_10::XalanDOMString"*, %"class.xalanc_1_10::XalanDOMString"** %theSource.addr, align 8, !dbg !2292
  %cmp = icmp ne %"class.xalanc_1_10::XalanDOMString"* %0, %this1, !dbg !2294
  br i1 %cmp, label %if.then, label %if.end, !dbg !2295

if.then:                                          ; preds = %entry
  %1 = load %"class.xalanc_1_10::XalanDOMString"*, %"class.xalanc_1_10::XalanDOMString"** %theSource.addr, align 8, !dbg !2296
  %m_data = getelementptr inbounds %"class.xalanc_1_10::XalanDOMString", %"class.xalanc_1_10::XalanDOMString"* %1, i32 0, i32 0, !dbg !2298
  %m_data2 = getelementptr inbounds %"class.xalanc_1_10::XalanDOMString", %"class.xalanc_1_10::XalanDOMString"* %this1, i32 0, i32 0, !dbg !2299
  %call = call dereferenceable(32) %"class.xalanc_1_10::XalanVector"* @_ZN11xalanc_1_1011XalanVectorItNS_31MemoryManagedConstructionTraitsItEEEaSERKS3_(%"class.xalanc_1_10::XalanVector"* %m_data2, %"class.xalanc_1_10::XalanVector"* dereferenceable(32) %m_data), !dbg !2300
  %2 = load %"class.xalanc_1_10::XalanDOMString"*, %"class.xalanc_1_10::XalanDOMString"** %theSource.addr, align 8, !dbg !2301
  %m_size = getelementptr inbounds %"class.xalanc_1_10::XalanDOMString", %"class.xalanc_1_10::XalanDOMString"* %2, i32 0, i32 1, !dbg !2302
  %3 = load i32, i32* %m_size, align 8, !dbg !2302
  %m_size3 = getelementptr inbounds %"class.xalanc_1_10::XalanDOMString", %"class.xalanc_1_10::XalanDOMString"* %this1, i32 0, i32 1, !dbg !2303
  store i32 %3, i32* %m_size3, align 8, !dbg !2304
  br label %if.end, !dbg !2305

if.end:                                           ; preds = %if.then, %entry
  call void @_ZNK11xalanc_1_1014XalanDOMString10invariantsEv(%"class.xalanc_1_10::XalanDOMString"* %this1), !dbg !2306
  ret %"class.xalanc_1_10::XalanDOMString"* %this1, !dbg !2307
}

; Function Attrs: noinline nounwind uwtable
define linkonce_odr dso_local void @_ZNK11xalanc_1_1014XalanDOMString10invariantsEv(%"class.xalanc_1_10::XalanDOMString"* %this) #3 comdat align 2 !dbg !2308 {
entry:
  %this.addr = alloca %"class.xalanc_1_10::XalanDOMString"*, align 8
  store %"class.xalanc_1_10::XalanDOMString"* %this, %"class.xalanc_1_10::XalanDOMString"** %this.addr, align 8
  call void @llvm.dbg.declare(metadata %"class.xalanc_1_10::XalanDOMString"** %this.addr, metadata !2309, metadata !DIExpression()), !dbg !2310
  %this1 = load %"class.xalanc_1_10::XalanDOMString"*, %"class.xalanc_1_10::XalanDOMString"** %this.addr, align 8
  ret void, !dbg !2311
}

; Function Attrs: noinline uwtable
define linkonce_odr dso_local dereferenceable(32) %"class.xalanc_1_10::XalanVector"* @_ZN11xalanc_1_1011XalanVectorItNS_31MemoryManagedConstructionTraitsItEEEaSERKS3_(%"class.xalanc_1_10::XalanVector"* %this, %"class.xalanc_1_10::XalanVector"* dereferenceable(32) %theRHS) #0 comdat align 2 personality i8* bitcast (i32 (...)* @__gxx_personality_v0 to i8*) !dbg !2312 {
entry:
  %this.addr = alloca %"class.xalanc_1_10::XalanVector"*, align 8
  %theRHS.addr = alloca %"class.xalanc_1_10::XalanVector"*, align 8
  %theTemp = alloca %"class.xalanc_1_10::XalanVector", align 8
  %exn.slot = alloca i8*
  %ehselector.slot = alloca i32
  %theRHSCopyEnd = alloca i16*, align 8
  store %"class.xalanc_1_10::XalanVector"* %this, %"class.xalanc_1_10::XalanVector"** %this.addr, align 8
  call void @llvm.dbg.declare(metadata %"class.xalanc_1_10::XalanVector"** %this.addr, metadata !2313, metadata !DIExpression()), !dbg !2314
  store %"class.xalanc_1_10::XalanVector"* %theRHS, %"class.xalanc_1_10::XalanVector"** %theRHS.addr, align 8
  call void @llvm.dbg.declare(metadata %"class.xalanc_1_10::XalanVector"** %theRHS.addr, metadata !2315, metadata !DIExpression()), !dbg !2316
  %this1 = load %"class.xalanc_1_10::XalanVector"*, %"class.xalanc_1_10::XalanVector"** %this.addr, align 8
  call void @_ZNK11xalanc_1_1011XalanVectorItNS_31MemoryManagedConstructionTraitsItEEE10invariantsEv(%"class.xalanc_1_10::XalanVector"* %this1), !dbg !2317
  %0 = load %"class.xalanc_1_10::XalanVector"*, %"class.xalanc_1_10::XalanVector"** %theRHS.addr, align 8, !dbg !2318
  %cmp = icmp ne %"class.xalanc_1_10::XalanVector"* %0, %this1, !dbg !2320
  br i1 %cmp, label %if.then, label %if.end23, !dbg !2321

if.then:                                          ; preds = %entry
  %m_allocation = getelementptr inbounds %"class.xalanc_1_10::XalanVector", %"class.xalanc_1_10::XalanVector"* %this1, i32 0, i32 2, !dbg !2322
  %1 = load i64, i64* %m_allocation, align 8, !dbg !2322
  %2 = load %"class.xalanc_1_10::XalanVector"*, %"class.xalanc_1_10::XalanVector"** %theRHS.addr, align 8, !dbg !2325
  %m_size = getelementptr inbounds %"class.xalanc_1_10::XalanVector", %"class.xalanc_1_10::XalanVector"* %2, i32 0, i32 1, !dbg !2326
  %3 = load i64, i64* %m_size, align 8, !dbg !2326
  %cmp2 = icmp ult i64 %1, %3, !dbg !2327
  br i1 %cmp2, label %if.then3, label %if.else, !dbg !2328

if.then3:                                         ; preds = %if.then
  call void @llvm.dbg.declare(metadata %"class.xalanc_1_10::XalanVector"* %theTemp, metadata !2329, metadata !DIExpression()), !dbg !2331
  %4 = load %"class.xalanc_1_10::XalanVector"*, %"class.xalanc_1_10::XalanVector"** %theRHS.addr, align 8, !dbg !2332
  %m_memoryManager = getelementptr inbounds %"class.xalanc_1_10::XalanVector", %"class.xalanc_1_10::XalanVector"* %this1, i32 0, i32 0, !dbg !2333
  %5 = load %"class.xercesc_2_7::MemoryManager"*, %"class.xercesc_2_7::MemoryManager"** %m_memoryManager, align 8, !dbg !2333
  call void @_ZN11xalanc_1_1011XalanVectorItNS_31MemoryManagedConstructionTraitsItEEEC2ERKS3_RN11xercesc_2_713MemoryManagerEm(%"class.xalanc_1_10::XalanVector"* %theTemp, %"class.xalanc_1_10::XalanVector"* dereferenceable(32) %4, %"class.xercesc_2_7::MemoryManager"* dereferenceable(8) %5, i64 0), !dbg !2331
  invoke void @_ZN11xalanc_1_1011XalanVectorItNS_31MemoryManagedConstructionTraitsItEEE4swapERS3_(%"class.xalanc_1_10::XalanVector"* %this1, %"class.xalanc_1_10::XalanVector"* dereferenceable(32) %theTemp)
          to label %invoke.cont unwind label %lpad, !dbg !2334

invoke.cont:                                      ; preds = %if.then3
  call void @_ZN11xalanc_1_1011XalanVectorItNS_31MemoryManagedConstructionTraitsItEEED2Ev(%"class.xalanc_1_10::XalanVector"* %theTemp) #7, !dbg !2335
  br label %if.end22, !dbg !2336

lpad:                                             ; preds = %if.then3
  %6 = landingpad { i8*, i32 }
          cleanup, !dbg !2337
  %7 = extractvalue { i8*, i32 } %6, 0, !dbg !2337
  store i8* %7, i8** %exn.slot, align 8, !dbg !2337
  %8 = extractvalue { i8*, i32 } %6, 1, !dbg !2337
  store i32 %8, i32* %ehselector.slot, align 4, !dbg !2337
  call void @_ZN11xalanc_1_1011XalanVectorItNS_31MemoryManagedConstructionTraitsItEEED2Ev(%"class.xalanc_1_10::XalanVector"* %theTemp) #7, !dbg !2335
  br label %eh.resume, !dbg !2335

if.else:                                          ; preds = %if.then
  call void @llvm.dbg.declare(metadata i16** %theRHSCopyEnd, metadata !2338, metadata !DIExpression()), !dbg !2340
  %9 = load %"class.xalanc_1_10::XalanVector"*, %"class.xalanc_1_10::XalanVector"** %theRHS.addr, align 8, !dbg !2341
  %call = call i16* @_ZNK11xalanc_1_1011XalanVectorItNS_31MemoryManagedConstructionTraitsItEEE3endEv(%"class.xalanc_1_10::XalanVector"* %9), !dbg !2342
  store i16* %call, i16** %theRHSCopyEnd, align 8, !dbg !2340
  %m_size4 = getelementptr inbounds %"class.xalanc_1_10::XalanVector", %"class.xalanc_1_10::XalanVector"* %this1, i32 0, i32 1, !dbg !2343
  %10 = load i64, i64* %m_size4, align 8, !dbg !2343
  %11 = load %"class.xalanc_1_10::XalanVector"*, %"class.xalanc_1_10::XalanVector"** %theRHS.addr, align 8, !dbg !2345
  %m_size5 = getelementptr inbounds %"class.xalanc_1_10::XalanVector", %"class.xalanc_1_10::XalanVector"* %11, i32 0, i32 1, !dbg !2346
  %12 = load i64, i64* %m_size5, align 8, !dbg !2346
  %cmp6 = icmp ugt i64 %10, %12, !dbg !2347
  br i1 %cmp6, label %if.then7, label %if.else9, !dbg !2348

if.then7:                                         ; preds = %if.else
  %13 = load %"class.xalanc_1_10::XalanVector"*, %"class.xalanc_1_10::XalanVector"** %theRHS.addr, align 8, !dbg !2349
  %m_size8 = getelementptr inbounds %"class.xalanc_1_10::XalanVector", %"class.xalanc_1_10::XalanVector"* %13, i32 0, i32 1, !dbg !2351
  %14 = load i64, i64* %m_size8, align 8, !dbg !2351
  call void @_ZN11xalanc_1_1011XalanVectorItNS_31MemoryManagedConstructionTraitsItEEE12shrinkToSizeEm(%"class.xalanc_1_10::XalanVector"* %this1, i64 %14), !dbg !2352
  br label %if.end18, !dbg !2353

if.else9:                                         ; preds = %if.else
  %m_size10 = getelementptr inbounds %"class.xalanc_1_10::XalanVector", %"class.xalanc_1_10::XalanVector"* %this1, i32 0, i32 1, !dbg !2354
  %15 = load i64, i64* %m_size10, align 8, !dbg !2354
  %16 = load %"class.xalanc_1_10::XalanVector"*, %"class.xalanc_1_10::XalanVector"** %theRHS.addr, align 8, !dbg !2356
  %m_size11 = getelementptr inbounds %"class.xalanc_1_10::XalanVector", %"class.xalanc_1_10::XalanVector"* %16, i32 0, i32 1, !dbg !2357
  %17 = load i64, i64* %m_size11, align 8, !dbg !2357
  %cmp12 = icmp ult i64 %15, %17, !dbg !2358
  br i1 %cmp12, label %if.then13, label %if.end, !dbg !2359

if.then13:                                        ; preds = %if.else9
  %18 = load %"class.xalanc_1_10::XalanVector"*, %"class.xalanc_1_10::XalanVector"** %theRHS.addr, align 8, !dbg !2360
  %call14 = call i16* @_ZNK11xalanc_1_1011XalanVectorItNS_31MemoryManagedConstructionTraitsItEEE5beginEv(%"class.xalanc_1_10::XalanVector"* %18), !dbg !2362
  %m_size15 = getelementptr inbounds %"class.xalanc_1_10::XalanVector", %"class.xalanc_1_10::XalanVector"* %this1, i32 0, i32 1, !dbg !2363
  %19 = load i64, i64* %m_size15, align 8, !dbg !2363
  %add.ptr = getelementptr inbounds i16, i16* %call14, i64 %19, !dbg !2364
  store i16* %add.ptr, i16** %theRHSCopyEnd, align 8, !dbg !2365
  %call16 = call i16* @_ZN11xalanc_1_1011XalanVectorItNS_31MemoryManagedConstructionTraitsItEEE3endEv(%"class.xalanc_1_10::XalanVector"* %this1), !dbg !2366
  %20 = load i16*, i16** %theRHSCopyEnd, align 8, !dbg !2367
  %21 = load %"class.xalanc_1_10::XalanVector"*, %"class.xalanc_1_10::XalanVector"** %theRHS.addr, align 8, !dbg !2368
  %call17 = call i16* @_ZNK11xalanc_1_1011XalanVectorItNS_31MemoryManagedConstructionTraitsItEEE3endEv(%"class.xalanc_1_10::XalanVector"* %21), !dbg !2369
  call void @_ZN11xalanc_1_1011XalanVectorItNS_31MemoryManagedConstructionTraitsItEEE6insertEPtPKtS6_(%"class.xalanc_1_10::XalanVector"* %this1, i16* %call16, i16* %20, i16* %call17), !dbg !2370
  br label %if.end, !dbg !2371

if.end:                                           ; preds = %if.then13, %if.else9
  br label %if.end18

if.end18:                                         ; preds = %if.end, %if.then7
  %22 = load %"class.xalanc_1_10::XalanVector"*, %"class.xalanc_1_10::XalanVector"** %theRHS.addr, align 8, !dbg !2372
  %call19 = call i16* @_ZNK11xalanc_1_1011XalanVectorItNS_31MemoryManagedConstructionTraitsItEEE5beginEv(%"class.xalanc_1_10::XalanVector"* %22), !dbg !2373
  %23 = load i16*, i16** %theRHSCopyEnd, align 8, !dbg !2374
  %call20 = call i16* @_ZN11xalanc_1_1011XalanVectorItNS_31MemoryManagedConstructionTraitsItEEE5beginEv(%"class.xalanc_1_10::XalanVector"* %this1), !dbg !2375
  %call21 = call i16* @_ZSt4copyIPKtPtET0_T_S4_S3_(i16* %call19, i16* %23, i16* %call20), !dbg !2376
  br label %if.end22

if.end22:                                         ; preds = %if.end18, %invoke.cont
  br label %if.end23, !dbg !2377

if.end23:                                         ; preds = %if.end22, %entry
  call void @_ZNK11xalanc_1_1011XalanVectorItNS_31MemoryManagedConstructionTraitsItEEE10invariantsEv(%"class.xalanc_1_10::XalanVector"* %this1), !dbg !2378
  ret %"class.xalanc_1_10::XalanVector"* %this1, !dbg !2379

eh.resume:                                        ; preds = %lpad
  %exn = load i8*, i8** %exn.slot, align 8, !dbg !2335
  %sel = load i32, i32* %ehselector.slot, align 4, !dbg !2335
  %lpad.val = insertvalue { i8*, i32 } undef, i8* %exn, 0, !dbg !2335
  %lpad.val24 = insertvalue { i8*, i32 } %lpad.val, i32 %sel, 1, !dbg !2335
  resume { i8*, i32 } %lpad.val24, !dbg !2335
}

; Function Attrs: noinline uwtable
define linkonce_odr dso_local void @_ZN11xalanc_1_1011XalanVectorItNS_31MemoryManagedConstructionTraitsItEEEC2ERKS3_RN11xercesc_2_713MemoryManagerEm(%"class.xalanc_1_10::XalanVector"* %this, %"class.xalanc_1_10::XalanVector"* dereferenceable(32) %theSource, %"class.xercesc_2_7::MemoryManager"* dereferenceable(8) %theManager, i64 %theInitialAllocation) unnamed_addr #0 comdat align 2 personality i8* bitcast (i32 (...)* @__gxx_personality_v0 to i8*) !dbg !2380 {
entry:
  %this.addr = alloca %"class.xalanc_1_10::XalanVector"*, align 8
  %theSource.addr = alloca %"class.xalanc_1_10::XalanVector"*, align 8
  %theManager.addr = alloca %"class.xercesc_2_7::MemoryManager"*, align 8
  %theInitialAllocation.addr = alloca i64, align 8
  %theTemp = alloca %"class.xalanc_1_10::XalanVector", align 8
  %exn.slot = alloca i8*
  %ehselector.slot = alloca i32
  store %"class.xalanc_1_10::XalanVector"* %this, %"class.xalanc_1_10::XalanVector"** %this.addr, align 8
  call void @llvm.dbg.declare(metadata %"class.xalanc_1_10::XalanVector"** %this.addr, metadata !2381, metadata !DIExpression()), !dbg !2382
  store %"class.xalanc_1_10::XalanVector"* %theSource, %"class.xalanc_1_10::XalanVector"** %theSource.addr, align 8
  call void @llvm.dbg.declare(metadata %"class.xalanc_1_10::XalanVector"** %theSource.addr, metadata !2383, metadata !DIExpression()), !dbg !2384
  store %"class.xercesc_2_7::MemoryManager"* %theManager, %"class.xercesc_2_7::MemoryManager"** %theManager.addr, align 8
  call void @llvm.dbg.declare(metadata %"class.xercesc_2_7::MemoryManager"** %theManager.addr, metadata !2385, metadata !DIExpression()), !dbg !2386
  store i64 %theInitialAllocation, i64* %theInitialAllocation.addr, align 8
  call void @llvm.dbg.declare(metadata i64* %theInitialAllocation.addr, metadata !2387, metadata !DIExpression()), !dbg !2388
  %this1 = load %"class.xalanc_1_10::XalanVector"*, %"class.xalanc_1_10::XalanVector"** %this.addr, align 8
  %m_memoryManager = getelementptr inbounds %"class.xalanc_1_10::XalanVector", %"class.xalanc_1_10::XalanVector"* %this1, i32 0, i32 0, !dbg !2389
  %0 = load %"class.xercesc_2_7::MemoryManager"*, %"class.xercesc_2_7::MemoryManager"** %theManager.addr, align 8, !dbg !2390
  store %"class.xercesc_2_7::MemoryManager"* %0, %"class.xercesc_2_7::MemoryManager"** %m_memoryManager, align 8, !dbg !2389
  %m_size = getelementptr inbounds %"class.xalanc_1_10::XalanVector", %"class.xalanc_1_10::XalanVector"* %this1, i32 0, i32 1, !dbg !2391
  store i64 0, i64* %m_size, align 8, !dbg !2391
  %m_allocation = getelementptr inbounds %"class.xalanc_1_10::XalanVector", %"class.xalanc_1_10::XalanVector"* %this1, i32 0, i32 2, !dbg !2392
  store i64 0, i64* %m_allocation, align 8, !dbg !2392
  %m_data = getelementptr inbounds %"class.xalanc_1_10::XalanVector", %"class.xalanc_1_10::XalanVector"* %this1, i32 0, i32 3, !dbg !2393
  store i16* null, i16** %m_data, align 8, !dbg !2393
  %1 = load %"class.xalanc_1_10::XalanVector"*, %"class.xalanc_1_10::XalanVector"** %theSource.addr, align 8, !dbg !2394
  %m_size2 = getelementptr inbounds %"class.xalanc_1_10::XalanVector", %"class.xalanc_1_10::XalanVector"* %1, i32 0, i32 1, !dbg !2397
  %2 = load i64, i64* %m_size2, align 8, !dbg !2397
  %cmp = icmp ugt i64 %2, 0, !dbg !2398
  br i1 %cmp, label %if.then, label %if.else, !dbg !2399

if.then:                                          ; preds = %entry
  call void @llvm.dbg.declare(metadata %"class.xalanc_1_10::XalanVector"* %theTemp, metadata !2400, metadata !DIExpression()), !dbg !2402
  %3 = load %"class.xercesc_2_7::MemoryManager"*, %"class.xercesc_2_7::MemoryManager"** %theManager.addr, align 8, !dbg !2403
  %4 = load %"class.xalanc_1_10::XalanVector"*, %"class.xalanc_1_10::XalanVector"** %theSource.addr, align 8, !dbg !2404
  %m_size3 = getelementptr inbounds %"class.xalanc_1_10::XalanVector", %"class.xalanc_1_10::XalanVector"* %4, i32 0, i32 1, !dbg !2405
  %5 = load i64, i64* %m_size3, align 8, !dbg !2405
  %6 = load i64, i64* %theInitialAllocation.addr, align 8, !dbg !2406
  %call = call i64 @_ZN11xalanc_1_1011XalanVectorItNS_31MemoryManagedConstructionTraitsItEEE9local_maxEmm(%"class.xalanc_1_10::XalanVector"* %this1, i64 %5, i64 %6), !dbg !2407
  call void @_ZN11xalanc_1_1011XalanVectorItNS_31MemoryManagedConstructionTraitsItEEEC2ERN11xercesc_2_713MemoryManagerEm(%"class.xalanc_1_10::XalanVector"* %theTemp, %"class.xercesc_2_7::MemoryManager"* dereferenceable(8) %3, i64 %call), !dbg !2402
  %call4 = invoke i16* @_ZN11xalanc_1_1011XalanVectorItNS_31MemoryManagedConstructionTraitsItEEE5beginEv(%"class.xalanc_1_10::XalanVector"* %theTemp)
          to label %invoke.cont unwind label %lpad, !dbg !2408

invoke.cont:                                      ; preds = %if.then
  %7 = load %"class.xalanc_1_10::XalanVector"*, %"class.xalanc_1_10::XalanVector"** %theSource.addr, align 8, !dbg !2409
  %call6 = invoke i16* @_ZNK11xalanc_1_1011XalanVectorItNS_31MemoryManagedConstructionTraitsItEEE5beginEv(%"class.xalanc_1_10::XalanVector"* %7)
          to label %invoke.cont5 unwind label %lpad, !dbg !2410

invoke.cont5:                                     ; preds = %invoke.cont
  %8 = load %"class.xalanc_1_10::XalanVector"*, %"class.xalanc_1_10::XalanVector"** %theSource.addr, align 8, !dbg !2411
  %call8 = invoke i16* @_ZNK11xalanc_1_1011XalanVectorItNS_31MemoryManagedConstructionTraitsItEEE3endEv(%"class.xalanc_1_10::XalanVector"* %8)
          to label %invoke.cont7 unwind label %lpad, !dbg !2412

invoke.cont7:                                     ; preds = %invoke.cont5
  invoke void @_ZN11xalanc_1_1011XalanVectorItNS_31MemoryManagedConstructionTraitsItEEE6insertEPtPKtS6_(%"class.xalanc_1_10::XalanVector"* %theTemp, i16* %call4, i16* %call6, i16* %call8)
          to label %invoke.cont9 unwind label %lpad, !dbg !2413

invoke.cont9:                                     ; preds = %invoke.cont7
  invoke void @_ZN11xalanc_1_1011XalanVectorItNS_31MemoryManagedConstructionTraitsItEEE4swapERS3_(%"class.xalanc_1_10::XalanVector"* %this1, %"class.xalanc_1_10::XalanVector"* dereferenceable(32) %theTemp)
          to label %invoke.cont10 unwind label %lpad, !dbg !2414

invoke.cont10:                                    ; preds = %invoke.cont9
  call void @_ZN11xalanc_1_1011XalanVectorItNS_31MemoryManagedConstructionTraitsItEEED2Ev(%"class.xalanc_1_10::XalanVector"* %theTemp) #7, !dbg !2415
  br label %if.end16, !dbg !2416

lpad:                                             ; preds = %invoke.cont9, %invoke.cont7, %invoke.cont5, %invoke.cont, %if.then
  %9 = landingpad { i8*, i32 }
          cleanup, !dbg !2417
  %10 = extractvalue { i8*, i32 } %9, 0, !dbg !2417
  store i8* %10, i8** %exn.slot, align 8, !dbg !2417
  %11 = extractvalue { i8*, i32 } %9, 1, !dbg !2417
  store i32 %11, i32* %ehselector.slot, align 4, !dbg !2417
  call void @_ZN11xalanc_1_1011XalanVectorItNS_31MemoryManagedConstructionTraitsItEEED2Ev(%"class.xalanc_1_10::XalanVector"* %theTemp) #7, !dbg !2415
  br label %eh.resume, !dbg !2415

if.else:                                          ; preds = %entry
  %12 = load i64, i64* %theInitialAllocation.addr, align 8, !dbg !2418
  %cmp11 = icmp ugt i64 %12, 0, !dbg !2420
  br i1 %cmp11, label %if.then12, label %if.end, !dbg !2421

if.then12:                                        ; preds = %if.else
  %13 = load i64, i64* %theInitialAllocation.addr, align 8, !dbg !2422
  %call13 = call i16* @_ZN11xalanc_1_1011XalanVectorItNS_31MemoryManagedConstructionTraitsItEEE8allocateEm(%"class.xalanc_1_10::XalanVector"* %this1, i64 %13), !dbg !2424
  %m_data14 = getelementptr inbounds %"class.xalanc_1_10::XalanVector", %"class.xalanc_1_10::XalanVector"* %this1, i32 0, i32 3, !dbg !2425
  store i16* %call13, i16** %m_data14, align 8, !dbg !2426
  %14 = load i64, i64* %theInitialAllocation.addr, align 8, !dbg !2427
  %m_allocation15 = getelementptr inbounds %"class.xalanc_1_10::XalanVector", %"class.xalanc_1_10::XalanVector"* %this1, i32 0, i32 2, !dbg !2428
  store i64 %14, i64* %m_allocation15, align 8, !dbg !2429
  br label %if.end, !dbg !2430

if.end:                                           ; preds = %if.then12, %if.else
  br label %if.end16

if.end16:                                         ; preds = %if.end, %invoke.cont10
  call void @_ZNK11xalanc_1_1011XalanVectorItNS_31MemoryManagedConstructionTraitsItEEE10invariantsEv(%"class.xalanc_1_10::XalanVector"* %this1), !dbg !2431
  ret void, !dbg !2432

eh.resume:                                        ; preds = %lpad
  %exn = load i8*, i8** %exn.slot, align 8, !dbg !2415
  %sel = load i32, i32* %ehselector.slot, align 4, !dbg !2415
  %lpad.val = insertvalue { i8*, i32 } undef, i8* %exn, 0, !dbg !2415
  %lpad.val17 = insertvalue { i8*, i32 } %lpad.val, i32 %sel, 1, !dbg !2415
  resume { i8*, i32 } %lpad.val17, !dbg !2415
}

; Function Attrs: noinline nounwind uwtable
define linkonce_odr dso_local void @_ZN11xalanc_1_1011XalanVectorItNS_31MemoryManagedConstructionTraitsItEEE4swapERS3_(%"class.xalanc_1_10::XalanVector"* %this, %"class.xalanc_1_10::XalanVector"* dereferenceable(32) %theOther) #3 comdat align 2 !dbg !2433 {
entry:
  %this.addr = alloca %"class.xalanc_1_10::XalanVector"*, align 8
  %theOther.addr = alloca %"class.xalanc_1_10::XalanVector"*, align 8
  %theTempManager = alloca %"class.xercesc_2_7::MemoryManager"*, align 8
  %theTempLength = alloca i64, align 8
  %theTempAllocation = alloca i64, align 8
  %theTempData = alloca i16*, align 8
  store %"class.xalanc_1_10::XalanVector"* %this, %"class.xalanc_1_10::XalanVector"** %this.addr, align 8
  call void @llvm.dbg.declare(metadata %"class.xalanc_1_10::XalanVector"** %this.addr, metadata !2434, metadata !DIExpression()), !dbg !2435
  store %"class.xalanc_1_10::XalanVector"* %theOther, %"class.xalanc_1_10::XalanVector"** %theOther.addr, align 8
  call void @llvm.dbg.declare(metadata %"class.xalanc_1_10::XalanVector"** %theOther.addr, metadata !2436, metadata !DIExpression()), !dbg !2437
  %this1 = load %"class.xalanc_1_10::XalanVector"*, %"class.xalanc_1_10::XalanVector"** %this.addr, align 8
  call void @_ZNK11xalanc_1_1011XalanVectorItNS_31MemoryManagedConstructionTraitsItEEE10invariantsEv(%"class.xalanc_1_10::XalanVector"* %this1), !dbg !2438
  call void @llvm.dbg.declare(metadata %"class.xercesc_2_7::MemoryManager"** %theTempManager, metadata !2439, metadata !DIExpression()), !dbg !2441
  %m_memoryManager = getelementptr inbounds %"class.xalanc_1_10::XalanVector", %"class.xalanc_1_10::XalanVector"* %this1, i32 0, i32 0, !dbg !2442
  %0 = load %"class.xercesc_2_7::MemoryManager"*, %"class.xercesc_2_7::MemoryManager"** %m_memoryManager, align 8, !dbg !2442
  store %"class.xercesc_2_7::MemoryManager"* %0, %"class.xercesc_2_7::MemoryManager"** %theTempManager, align 8, !dbg !2441
  call void @llvm.dbg.declare(metadata i64* %theTempLength, metadata !2443, metadata !DIExpression()), !dbg !2445
  %m_size = getelementptr inbounds %"class.xalanc_1_10::XalanVector", %"class.xalanc_1_10::XalanVector"* %this1, i32 0, i32 1, !dbg !2446
  %1 = load i64, i64* %m_size, align 8, !dbg !2446
  store i64 %1, i64* %theTempLength, align 8, !dbg !2445
  call void @llvm.dbg.declare(metadata i64* %theTempAllocation, metadata !2447, metadata !DIExpression()), !dbg !2448
  %m_allocation = getelementptr inbounds %"class.xalanc_1_10::XalanVector", %"class.xalanc_1_10::XalanVector"* %this1, i32 0, i32 2, !dbg !2449
  %2 = load i64, i64* %m_allocation, align 8, !dbg !2449
  store i64 %2, i64* %theTempAllocation, align 8, !dbg !2448
  call void @llvm.dbg.declare(metadata i16** %theTempData, metadata !2450, metadata !DIExpression()), !dbg !2452
  %m_data = getelementptr inbounds %"class.xalanc_1_10::XalanVector", %"class.xalanc_1_10::XalanVector"* %this1, i32 0, i32 3, !dbg !2453
  %3 = load i16*, i16** %m_data, align 8, !dbg !2453
  store i16* %3, i16** %theTempData, align 8, !dbg !2452
  %4 = load %"class.xalanc_1_10::XalanVector"*, %"class.xalanc_1_10::XalanVector"** %theOther.addr, align 8, !dbg !2454
  %m_memoryManager2 = getelementptr inbounds %"class.xalanc_1_10::XalanVector", %"class.xalanc_1_10::XalanVector"* %4, i32 0, i32 0, !dbg !2455
  %5 = load %"class.xercesc_2_7::MemoryManager"*, %"class.xercesc_2_7::MemoryManager"** %m_memoryManager2, align 8, !dbg !2455
  %m_memoryManager3 = getelementptr inbounds %"class.xalanc_1_10::XalanVector", %"class.xalanc_1_10::XalanVector"* %this1, i32 0, i32 0, !dbg !2456
  store %"class.xercesc_2_7::MemoryManager"* %5, %"class.xercesc_2_7::MemoryManager"** %m_memoryManager3, align 8, !dbg !2457
  %6 = load %"class.xalanc_1_10::XalanVector"*, %"class.xalanc_1_10::XalanVector"** %theOther.addr, align 8, !dbg !2458
  %m_size4 = getelementptr inbounds %"class.xalanc_1_10::XalanVector", %"class.xalanc_1_10::XalanVector"* %6, i32 0, i32 1, !dbg !2459
  %7 = load i64, i64* %m_size4, align 8, !dbg !2459
  %m_size5 = getelementptr inbounds %"class.xalanc_1_10::XalanVector", %"class.xalanc_1_10::XalanVector"* %this1, i32 0, i32 1, !dbg !2460
  store i64 %7, i64* %m_size5, align 8, !dbg !2461
  %8 = load %"class.xalanc_1_10::XalanVector"*, %"class.xalanc_1_10::XalanVector"** %theOther.addr, align 8, !dbg !2462
  %m_allocation6 = getelementptr inbounds %"class.xalanc_1_10::XalanVector", %"class.xalanc_1_10::XalanVector"* %8, i32 0, i32 2, !dbg !2463
  %9 = load i64, i64* %m_allocation6, align 8, !dbg !2463
  %m_allocation7 = getelementptr inbounds %"class.xalanc_1_10::XalanVector", %"class.xalanc_1_10::XalanVector"* %this1, i32 0, i32 2, !dbg !2464
  store i64 %9, i64* %m_allocation7, align 8, !dbg !2465
  %10 = load %"class.xalanc_1_10::XalanVector"*, %"class.xalanc_1_10::XalanVector"** %theOther.addr, align 8, !dbg !2466
  %m_data8 = getelementptr inbounds %"class.xalanc_1_10::XalanVector", %"class.xalanc_1_10::XalanVector"* %10, i32 0, i32 3, !dbg !2467
  %11 = load i16*, i16** %m_data8, align 8, !dbg !2467
  %m_data9 = getelementptr inbounds %"class.xalanc_1_10::XalanVector", %"class.xalanc_1_10::XalanVector"* %this1, i32 0, i32 3, !dbg !2468
  store i16* %11, i16** %m_data9, align 8, !dbg !2469
  %12 = load %"class.xercesc_2_7::MemoryManager"*, %"class.xercesc_2_7::MemoryManager"** %theTempManager, align 8, !dbg !2470
  %13 = load %"class.xalanc_1_10::XalanVector"*, %"class.xalanc_1_10::XalanVector"** %theOther.addr, align 8, !dbg !2471
  %m_memoryManager10 = getelementptr inbounds %"class.xalanc_1_10::XalanVector", %"class.xalanc_1_10::XalanVector"* %13, i32 0, i32 0, !dbg !2472
  store %"class.xercesc_2_7::MemoryManager"* %12, %"class.xercesc_2_7::MemoryManager"** %m_memoryManager10, align 8, !dbg !2473
  %14 = load i64, i64* %theTempLength, align 8, !dbg !2474
  %15 = load %"class.xalanc_1_10::XalanVector"*, %"class.xalanc_1_10::XalanVector"** %theOther.addr, align 8, !dbg !2475
  %m_size11 = getelementptr inbounds %"class.xalanc_1_10::XalanVector", %"class.xalanc_1_10::XalanVector"* %15, i32 0, i32 1, !dbg !2476
  store i64 %14, i64* %m_size11, align 8, !dbg !2477
  %16 = load i64, i64* %theTempAllocation, align 8, !dbg !2478
  %17 = load %"class.xalanc_1_10::XalanVector"*, %"class.xalanc_1_10::XalanVector"** %theOther.addr, align 8, !dbg !2479
  %m_allocation12 = getelementptr inbounds %"class.xalanc_1_10::XalanVector", %"class.xalanc_1_10::XalanVector"* %17, i32 0, i32 2, !dbg !2480
  store i64 %16, i64* %m_allocation12, align 8, !dbg !2481
  %18 = load i16*, i16** %theTempData, align 8, !dbg !2482
  %19 = load %"class.xalanc_1_10::XalanVector"*, %"class.xalanc_1_10::XalanVector"** %theOther.addr, align 8, !dbg !2483
  %m_data13 = getelementptr inbounds %"class.xalanc_1_10::XalanVector", %"class.xalanc_1_10::XalanVector"* %19, i32 0, i32 3, !dbg !2484
  store i16* %18, i16** %m_data13, align 8, !dbg !2485
  call void @_ZNK11xalanc_1_1011XalanVectorItNS_31MemoryManagedConstructionTraitsItEEE10invariantsEv(%"class.xalanc_1_10::XalanVector"* %this1), !dbg !2486
  ret void, !dbg !2487
}

; Function Attrs: noinline uwtable
define linkonce_odr dso_local i16* @_ZNK11xalanc_1_1011XalanVectorItNS_31MemoryManagedConstructionTraitsItEEE3endEv(%"class.xalanc_1_10::XalanVector"* %this) #0 comdat align 2 !dbg !2488 {
entry:
  %this.addr = alloca %"class.xalanc_1_10::XalanVector"*, align 8
  store %"class.xalanc_1_10::XalanVector"* %this, %"class.xalanc_1_10::XalanVector"** %this.addr, align 8
  call void @llvm.dbg.declare(metadata %"class.xalanc_1_10::XalanVector"** %this.addr, metadata !2489, metadata !DIExpression()), !dbg !2490
  %this1 = load %"class.xalanc_1_10::XalanVector"*, %"class.xalanc_1_10::XalanVector"** %this.addr, align 8
  call void @_ZNK11xalanc_1_1011XalanVectorItNS_31MemoryManagedConstructionTraitsItEEE10invariantsEv(%"class.xalanc_1_10::XalanVector"* %this1), !dbg !2491
  %call = call i16* @_ZNK11xalanc_1_1011XalanVectorItNS_31MemoryManagedConstructionTraitsItEEE10endPointerEv(%"class.xalanc_1_10::XalanVector"* %this1), !dbg !2492
  ret i16* %call, !dbg !2493
}

; Function Attrs: noinline uwtable
define linkonce_odr dso_local void @_ZN11xalanc_1_1011XalanVectorItNS_31MemoryManagedConstructionTraitsItEEE12shrinkToSizeEm(%"class.xalanc_1_10::XalanVector"* %this, i64 %theSize) #0 comdat align 2 !dbg !2494 {
entry:
  %this.addr = alloca %"class.xalanc_1_10::XalanVector"*, align 8
  %theSize.addr = alloca i64, align 8
  store %"class.xalanc_1_10::XalanVector"* %this, %"class.xalanc_1_10::XalanVector"** %this.addr, align 8
  call void @llvm.dbg.declare(metadata %"class.xalanc_1_10::XalanVector"** %this.addr, metadata !2495, metadata !DIExpression()), !dbg !2496
  store i64 %theSize, i64* %theSize.addr, align 8
  call void @llvm.dbg.declare(metadata i64* %theSize.addr, metadata !2497, metadata !DIExpression()), !dbg !2498
  %this1 = load %"class.xalanc_1_10::XalanVector"*, %"class.xalanc_1_10::XalanVector"** %this.addr, align 8
  br label %do.body, !dbg !2499

do.body:                                          ; preds = %do.cond, %entry
  call void @_ZN11xalanc_1_1011XalanVectorItNS_31MemoryManagedConstructionTraitsItEEE8pop_backEv(%"class.xalanc_1_10::XalanVector"* %this1), !dbg !2500
  br label %do.cond, !dbg !2502

do.cond:                                          ; preds = %do.body
  %m_size = getelementptr inbounds %"class.xalanc_1_10::XalanVector", %"class.xalanc_1_10::XalanVector"* %this1, i32 0, i32 1, !dbg !2503
  %0 = load i64, i64* %m_size, align 8, !dbg !2503
  %1 = load i64, i64* %theSize.addr, align 8, !dbg !2504
  %cmp = icmp ugt i64 %0, %1, !dbg !2505
  br i1 %cmp, label %do.body, label %do.end, !dbg !2502, !llvm.loop !2506

do.end:                                           ; preds = %do.cond
  ret void, !dbg !2508
}

; Function Attrs: noinline nounwind uwtable
define linkonce_odr dso_local i16* @_ZNK11xalanc_1_1011XalanVectorItNS_31MemoryManagedConstructionTraitsItEEE5beginEv(%"class.xalanc_1_10::XalanVector"* %this) #3 comdat align 2 !dbg !2509 {
entry:
  %this.addr = alloca %"class.xalanc_1_10::XalanVector"*, align 8
  store %"class.xalanc_1_10::XalanVector"* %this, %"class.xalanc_1_10::XalanVector"** %this.addr, align 8
  call void @llvm.dbg.declare(metadata %"class.xalanc_1_10::XalanVector"** %this.addr, metadata !2510, metadata !DIExpression()), !dbg !2511
  %this1 = load %"class.xalanc_1_10::XalanVector"*, %"class.xalanc_1_10::XalanVector"** %this.addr, align 8
  call void @_ZNK11xalanc_1_1011XalanVectorItNS_31MemoryManagedConstructionTraitsItEEE10invariantsEv(%"class.xalanc_1_10::XalanVector"* %this1), !dbg !2512
  %m_data = getelementptr inbounds %"class.xalanc_1_10::XalanVector", %"class.xalanc_1_10::XalanVector"* %this1, i32 0, i32 3, !dbg !2513
  %0 = load i16*, i16** %m_data, align 8, !dbg !2513
  ret i16* %0, !dbg !2514
}

; Function Attrs: noinline uwtable
define linkonce_odr dso_local void @_ZN11xalanc_1_1011XalanVectorItNS_31MemoryManagedConstructionTraitsItEEE6insertEPtPKtS6_(%"class.xalanc_1_10::XalanVector"* %this, i16* %thePosition, i16* %theFirst, i16* %theLast) #0 comdat align 2 personality i8* bitcast (i32 (...)* @__gxx_personality_v0 to i8*) !dbg !2515 {
entry:
  %this.addr = alloca %"class.xalanc_1_10::XalanVector"*, align 8
  %thePosition.addr = alloca i16*, align 8
  %theFirst.addr = alloca i16*, align 8
  %theLast.addr = alloca i16*, align 8
  %theInsertSize = alloca i64, align 8
  %theTotalSize = alloca i64, align 8
  %thePointer = alloca i16*, align 8
  %theTemp = alloca %"class.xalanc_1_10::XalanVector", align 8
  %exn.slot = alloca i8*
  %ehselector.slot = alloca i32
  %theOriginalEnd = alloca i16*, align 8
  %theRightSplitSize = alloca i64, align 8
  %toInsertSplit = alloca i16*, align 8
  %toInsertIter = alloca i16*, align 8
  %toMoveIter = alloca i16*, align 8
  store %"class.xalanc_1_10::XalanVector"* %this, %"class.xalanc_1_10::XalanVector"** %this.addr, align 8
  call void @llvm.dbg.declare(metadata %"class.xalanc_1_10::XalanVector"** %this.addr, metadata !2516, metadata !DIExpression()), !dbg !2517
  store i16* %thePosition, i16** %thePosition.addr, align 8
  call void @llvm.dbg.declare(metadata i16** %thePosition.addr, metadata !2518, metadata !DIExpression()), !dbg !2519
  store i16* %theFirst, i16** %theFirst.addr, align 8
  call void @llvm.dbg.declare(metadata i16** %theFirst.addr, metadata !2520, metadata !DIExpression()), !dbg !2521
  store i16* %theLast, i16** %theLast.addr, align 8
  call void @llvm.dbg.declare(metadata i16** %theLast.addr, metadata !2522, metadata !DIExpression()), !dbg !2523
  %this1 = load %"class.xalanc_1_10::XalanVector"*, %"class.xalanc_1_10::XalanVector"** %this.addr, align 8
  call void @_ZNK11xalanc_1_1011XalanVectorItNS_31MemoryManagedConstructionTraitsItEEE10invariantsEv(%"class.xalanc_1_10::XalanVector"* %this1), !dbg !2524
  call void @llvm.dbg.declare(metadata i64* %theInsertSize, metadata !2525, metadata !DIExpression()), !dbg !2526
  %0 = load i16*, i16** %theFirst.addr, align 8, !dbg !2527
  %1 = load i16*, i16** %theLast.addr, align 8, !dbg !2528
  %call = call i64 @_ZN11xalanc_1_1011XalanVectorItNS_31MemoryManagedConstructionTraitsItEEE14local_distanceEPKtS5_(%"class.xalanc_1_10::XalanVector"* %this1, i16* %0, i16* %1), !dbg !2529
  store i64 %call, i64* %theInsertSize, align 8, !dbg !2526
  %2 = load i64, i64* %theInsertSize, align 8, !dbg !2530
  %cmp = icmp eq i64 %2, 0, !dbg !2532
  br i1 %cmp, label %if.then, label %if.end, !dbg !2533

if.then:                                          ; preds = %entry
  br label %return, !dbg !2534

if.end:                                           ; preds = %entry
  call void @llvm.dbg.declare(metadata i64* %theTotalSize, metadata !2536, metadata !DIExpression()), !dbg !2537
  %call2 = call i64 @_ZNK11xalanc_1_1011XalanVectorItNS_31MemoryManagedConstructionTraitsItEEE4sizeEv(%"class.xalanc_1_10::XalanVector"* %this1), !dbg !2538
  %3 = load i64, i64* %theInsertSize, align 8, !dbg !2539
  %add = add i64 %call2, %3, !dbg !2540
  store i64 %add, i64* %theTotalSize, align 8, !dbg !2537
  %4 = load i16*, i16** %thePosition.addr, align 8, !dbg !2541
  %call3 = call i16* @_ZN11xalanc_1_1011XalanVectorItNS_31MemoryManagedConstructionTraitsItEEE3endEv(%"class.xalanc_1_10::XalanVector"* %this1), !dbg !2543
  %cmp4 = icmp eq i16* %4, %call3, !dbg !2544
  br i1 %cmp4, label %if.then5, label %if.else, !dbg !2545

if.then5:                                         ; preds = %if.end
  call void @llvm.dbg.declare(metadata i16** %thePointer, metadata !2546, metadata !DIExpression()), !dbg !2548
  %5 = load i64, i64* %theTotalSize, align 8, !dbg !2549
  %call6 = call i16* @_ZN11xalanc_1_1011XalanVectorItNS_31MemoryManagedConstructionTraitsItEEE14ensureCapacityEm(%"class.xalanc_1_10::XalanVector"* %this1, i64 %5), !dbg !2550
  store i16* %call6, i16** %thePointer, align 8, !dbg !2548
  br label %while.cond, !dbg !2551

while.cond:                                       ; preds = %while.body, %if.then5
  %6 = load i16*, i16** %theFirst.addr, align 8, !dbg !2552
  %7 = load i16*, i16** %theLast.addr, align 8, !dbg !2553
  %cmp7 = icmp ne i16* %6, %7, !dbg !2554
  br i1 %cmp7, label %while.body, label %while.end, !dbg !2551

while.body:                                       ; preds = %while.cond
  %8 = load i16*, i16** %thePointer, align 8, !dbg !2555
  %9 = load i16*, i16** %theFirst.addr, align 8, !dbg !2557
  %m_memoryManager = getelementptr inbounds %"class.xalanc_1_10::XalanVector", %"class.xalanc_1_10::XalanVector"* %this1, i32 0, i32 0, !dbg !2558
  %10 = load %"class.xercesc_2_7::MemoryManager"*, %"class.xercesc_2_7::MemoryManager"** %m_memoryManager, align 8, !dbg !2558
  %call8 = call i16* @_ZN11xalanc_1_1028ConstructWithNoMemoryManagerItE9constructEPtRKtRN11xercesc_2_713MemoryManagerE(i16* %8, i16* dereferenceable(2) %9, %"class.xercesc_2_7::MemoryManager"* dereferenceable(8) %10), !dbg !2559
  %11 = load i16*, i16** %thePointer, align 8, !dbg !2560
  %incdec.ptr = getelementptr inbounds i16, i16* %11, i32 1, !dbg !2560
  store i16* %incdec.ptr, i16** %thePointer, align 8, !dbg !2560
  %m_size = getelementptr inbounds %"class.xalanc_1_10::XalanVector", %"class.xalanc_1_10::XalanVector"* %this1, i32 0, i32 1, !dbg !2561
  %12 = load i64, i64* %m_size, align 8, !dbg !2562
  %inc = add i64 %12, 1, !dbg !2562
  store i64 %inc, i64* %m_size, align 8, !dbg !2562
  %13 = load i16*, i16** %theFirst.addr, align 8, !dbg !2563
  %incdec.ptr9 = getelementptr inbounds i16, i16* %13, i32 1, !dbg !2563
  store i16* %incdec.ptr9, i16** %theFirst.addr, align 8, !dbg !2563
  br label %while.cond, !dbg !2551, !llvm.loop !2564

while.end:                                        ; preds = %while.cond
  br label %if.end57, !dbg !2566

if.else:                                          ; preds = %if.end
  %14 = load i64, i64* %theTotalSize, align 8, !dbg !2567
  %call10 = call i64 @_ZNK11xalanc_1_1011XalanVectorItNS_31MemoryManagedConstructionTraitsItEEE8capacityEv(%"class.xalanc_1_10::XalanVector"* %this1), !dbg !2570
  %cmp11 = icmp ugt i64 %14, %call10, !dbg !2571
  br i1 %cmp11, label %if.then12, label %if.else27, !dbg !2572

if.then12:                                        ; preds = %if.else
  call void @llvm.dbg.declare(metadata %"class.xalanc_1_10::XalanVector"* %theTemp, metadata !2573, metadata !DIExpression()), !dbg !2575
  %m_memoryManager13 = getelementptr inbounds %"class.xalanc_1_10::XalanVector", %"class.xalanc_1_10::XalanVector"* %this1, i32 0, i32 0, !dbg !2576
  %15 = load %"class.xercesc_2_7::MemoryManager"*, %"class.xercesc_2_7::MemoryManager"** %m_memoryManager13, align 8, !dbg !2576
  %16 = load i64, i64* %theTotalSize, align 8, !dbg !2577
  call void @_ZN11xalanc_1_1011XalanVectorItNS_31MemoryManagedConstructionTraitsItEEEC2ERN11xercesc_2_713MemoryManagerEm(%"class.xalanc_1_10::XalanVector"* %theTemp, %"class.xercesc_2_7::MemoryManager"* dereferenceable(8) %15, i64 %16), !dbg !2575
  %call14 = invoke i16* @_ZN11xalanc_1_1011XalanVectorItNS_31MemoryManagedConstructionTraitsItEEE3endEv(%"class.xalanc_1_10::XalanVector"* %theTemp)
          to label %invoke.cont unwind label %lpad, !dbg !2578

invoke.cont:                                      ; preds = %if.then12
  %call16 = invoke i16* @_ZN11xalanc_1_1011XalanVectorItNS_31MemoryManagedConstructionTraitsItEEE5beginEv(%"class.xalanc_1_10::XalanVector"* %this1)
          to label %invoke.cont15 unwind label %lpad, !dbg !2579

invoke.cont15:                                    ; preds = %invoke.cont
  %17 = load i16*, i16** %thePosition.addr, align 8, !dbg !2580
  invoke void @_ZN11xalanc_1_1011XalanVectorItNS_31MemoryManagedConstructionTraitsItEEE6insertEPtPKtS6_(%"class.xalanc_1_10::XalanVector"* %theTemp, i16* %call14, i16* %call16, i16* %17)
          to label %invoke.cont17 unwind label %lpad, !dbg !2581

invoke.cont17:                                    ; preds = %invoke.cont15
  %call19 = invoke i16* @_ZN11xalanc_1_1011XalanVectorItNS_31MemoryManagedConstructionTraitsItEEE3endEv(%"class.xalanc_1_10::XalanVector"* %theTemp)
          to label %invoke.cont18 unwind label %lpad, !dbg !2582

invoke.cont18:                                    ; preds = %invoke.cont17
  %18 = load i16*, i16** %theFirst.addr, align 8, !dbg !2583
  %19 = load i16*, i16** %theLast.addr, align 8, !dbg !2584
  invoke void @_ZN11xalanc_1_1011XalanVectorItNS_31MemoryManagedConstructionTraitsItEEE6insertEPtPKtS6_(%"class.xalanc_1_10::XalanVector"* %theTemp, i16* %call19, i16* %18, i16* %19)
          to label %invoke.cont20 unwind label %lpad, !dbg !2585

invoke.cont20:                                    ; preds = %invoke.cont18
  %call22 = invoke i16* @_ZN11xalanc_1_1011XalanVectorItNS_31MemoryManagedConstructionTraitsItEEE3endEv(%"class.xalanc_1_10::XalanVector"* %theTemp)
          to label %invoke.cont21 unwind label %lpad, !dbg !2586

invoke.cont21:                                    ; preds = %invoke.cont20
  %20 = load i16*, i16** %thePosition.addr, align 8, !dbg !2587
  %call24 = invoke i16* @_ZN11xalanc_1_1011XalanVectorItNS_31MemoryManagedConstructionTraitsItEEE3endEv(%"class.xalanc_1_10::XalanVector"* %this1)
          to label %invoke.cont23 unwind label %lpad, !dbg !2588

invoke.cont23:                                    ; preds = %invoke.cont21
  invoke void @_ZN11xalanc_1_1011XalanVectorItNS_31MemoryManagedConstructionTraitsItEEE6insertEPtPKtS6_(%"class.xalanc_1_10::XalanVector"* %theTemp, i16* %call22, i16* %20, i16* %call24)
          to label %invoke.cont25 unwind label %lpad, !dbg !2589

invoke.cont25:                                    ; preds = %invoke.cont23
  invoke void @_ZN11xalanc_1_1011XalanVectorItNS_31MemoryManagedConstructionTraitsItEEE4swapERS3_(%"class.xalanc_1_10::XalanVector"* %this1, %"class.xalanc_1_10::XalanVector"* dereferenceable(32) %theTemp)
          to label %invoke.cont26 unwind label %lpad, !dbg !2590

invoke.cont26:                                    ; preds = %invoke.cont25
  call void @_ZN11xalanc_1_1011XalanVectorItNS_31MemoryManagedConstructionTraitsItEEED2Ev(%"class.xalanc_1_10::XalanVector"* %theTemp) #7, !dbg !2591
  br label %if.end56, !dbg !2592

lpad:                                             ; preds = %invoke.cont25, %invoke.cont23, %invoke.cont21, %invoke.cont20, %invoke.cont18, %invoke.cont17, %invoke.cont15, %invoke.cont, %if.then12
  %21 = landingpad { i8*, i32 }
          cleanup, !dbg !2593
  %22 = extractvalue { i8*, i32 } %21, 0, !dbg !2593
  store i8* %22, i8** %exn.slot, align 8, !dbg !2593
  %23 = extractvalue { i8*, i32 } %21, 1, !dbg !2593
  store i32 %23, i32* %ehselector.slot, align 4, !dbg !2593
  call void @_ZN11xalanc_1_1011XalanVectorItNS_31MemoryManagedConstructionTraitsItEEED2Ev(%"class.xalanc_1_10::XalanVector"* %theTemp) #7, !dbg !2591
  br label %eh.resume, !dbg !2591

if.else27:                                        ; preds = %if.else
  call void @llvm.dbg.declare(metadata i16** %theOriginalEnd, metadata !2594, metadata !DIExpression()), !dbg !2597
  %call28 = call i16* @_ZN11xalanc_1_1011XalanVectorItNS_31MemoryManagedConstructionTraitsItEEE3endEv(%"class.xalanc_1_10::XalanVector"* %this1), !dbg !2598
  store i16* %call28, i16** %theOriginalEnd, align 8, !dbg !2597
  call void @llvm.dbg.declare(metadata i64* %theRightSplitSize, metadata !2599, metadata !DIExpression()), !dbg !2600
  %24 = load i16*, i16** %thePosition.addr, align 8, !dbg !2601
  %25 = load i16*, i16** %theOriginalEnd, align 8, !dbg !2602
  %call29 = call i64 @_ZN11xalanc_1_1011XalanVectorItNS_31MemoryManagedConstructionTraitsItEEE14local_distanceEPKtS5_(%"class.xalanc_1_10::XalanVector"* %this1, i16* %24, i16* %25), !dbg !2603
  store i64 %call29, i64* %theRightSplitSize, align 8, !dbg !2600
  %26 = load i64, i64* %theRightSplitSize, align 8, !dbg !2604
  %27 = load i64, i64* %theInsertSize, align 8, !dbg !2606
  %cmp30 = icmp ule i64 %26, %27, !dbg !2607
  br i1 %cmp30, label %if.then31, label %if.else43, !dbg !2608

if.then31:                                        ; preds = %if.else27
  call void @llvm.dbg.declare(metadata i16** %toInsertSplit, metadata !2609, metadata !DIExpression()), !dbg !2612
  %28 = load i16*, i16** %theFirst.addr, align 8, !dbg !2613
  %29 = load i64, i64* %theRightSplitSize, align 8, !dbg !2614
  %add.ptr = getelementptr inbounds i16, i16* %28, i64 %29, !dbg !2615
  store i16* %add.ptr, i16** %toInsertSplit, align 8, !dbg !2612
  call void @llvm.dbg.declare(metadata i16** %toInsertIter, metadata !2616, metadata !DIExpression()), !dbg !2617
  %30 = load i16*, i16** %toInsertSplit, align 8, !dbg !2618
  store i16* %30, i16** %toInsertIter, align 8, !dbg !2617
  br label %while.cond32, !dbg !2619

while.cond32:                                     ; preds = %while.body34, %if.then31
  %31 = load i16*, i16** %toInsertIter, align 8, !dbg !2620
  %32 = load i16*, i16** %theLast.addr, align 8, !dbg !2621
  %cmp33 = icmp ne i16* %31, %32, !dbg !2622
  br i1 %cmp33, label %while.body34, label %while.end36, !dbg !2619

while.body34:                                     ; preds = %while.cond32
  %33 = load i16*, i16** %toInsertIter, align 8, !dbg !2623
  call void @_ZN11xalanc_1_1011XalanVectorItNS_31MemoryManagedConstructionTraitsItEEE10doPushBackERKt(%"class.xalanc_1_10::XalanVector"* %this1, i16* dereferenceable(2) %33), !dbg !2625
  %34 = load i16*, i16** %toInsertIter, align 8, !dbg !2626
  %incdec.ptr35 = getelementptr inbounds i16, i16* %34, i32 1, !dbg !2626
  store i16* %incdec.ptr35, i16** %toInsertIter, align 8, !dbg !2626
  br label %while.cond32, !dbg !2619, !llvm.loop !2627

while.end36:                                      ; preds = %while.cond32
  %35 = load i16*, i16** %thePosition.addr, align 8, !dbg !2629
  store i16* %35, i16** %toInsertIter, align 8, !dbg !2630
  br label %while.cond37, !dbg !2631

while.cond37:                                     ; preds = %while.body39, %while.end36
  %36 = load i16*, i16** %toInsertIter, align 8, !dbg !2632
  %37 = load i16*, i16** %theOriginalEnd, align 8, !dbg !2633
  %cmp38 = icmp ne i16* %36, %37, !dbg !2634
  br i1 %cmp38, label %while.body39, label %while.end41, !dbg !2631

while.body39:                                     ; preds = %while.cond37
  %38 = load i16*, i16** %toInsertIter, align 8, !dbg !2635
  call void @_ZN11xalanc_1_1011XalanVectorItNS_31MemoryManagedConstructionTraitsItEEE10doPushBackERKt(%"class.xalanc_1_10::XalanVector"* %this1, i16* dereferenceable(2) %38), !dbg !2637
  %39 = load i16*, i16** %toInsertIter, align 8, !dbg !2638
  %incdec.ptr40 = getelementptr inbounds i16, i16* %39, i32 1, !dbg !2638
  store i16* %incdec.ptr40, i16** %toInsertIter, align 8, !dbg !2638
  br label %while.cond37, !dbg !2631, !llvm.loop !2639

while.end41:                                      ; preds = %while.cond37
  %40 = load i16*, i16** %theFirst.addr, align 8, !dbg !2641
  %41 = load i16*, i16** %toInsertSplit, align 8, !dbg !2642
  %42 = load i16*, i16** %thePosition.addr, align 8, !dbg !2643
  %call42 = call i16* @_ZSt4copyIPKtPtET0_T_S4_S3_(i16* %40, i16* %41, i16* %42), !dbg !2644
  br label %if.end55, !dbg !2645

if.else43:                                        ; preds = %if.else27
  call void @llvm.dbg.declare(metadata i16** %toMoveIter, metadata !2646, metadata !DIExpression()), !dbg !2648
  %call44 = call i16* @_ZN11xalanc_1_1011XalanVectorItNS_31MemoryManagedConstructionTraitsItEEE3endEv(%"class.xalanc_1_10::XalanVector"* %this1), !dbg !2649
  %43 = load i64, i64* %theInsertSize, align 8, !dbg !2650
  %idx.neg = sub i64 0, %43, !dbg !2651
  %add.ptr45 = getelementptr inbounds i16, i16* %call44, i64 %idx.neg, !dbg !2651
  store i16* %add.ptr45, i16** %toMoveIter, align 8, !dbg !2648
  br label %while.cond46, !dbg !2652

while.cond46:                                     ; preds = %while.body48, %if.else43
  %44 = load i16*, i16** %toMoveIter, align 8, !dbg !2653
  %45 = load i16*, i16** %theOriginalEnd, align 8, !dbg !2654
  %cmp47 = icmp ne i16* %44, %45, !dbg !2655
  br i1 %cmp47, label %while.body48, label %while.end50, !dbg !2652

while.body48:                                     ; preds = %while.cond46
  %46 = load i16*, i16** %toMoveIter, align 8, !dbg !2656
  call void @_ZN11xalanc_1_1011XalanVectorItNS_31MemoryManagedConstructionTraitsItEEE10doPushBackERKt(%"class.xalanc_1_10::XalanVector"* %this1, i16* dereferenceable(2) %46), !dbg !2658
  %47 = load i16*, i16** %toMoveIter, align 8, !dbg !2659
  %incdec.ptr49 = getelementptr inbounds i16, i16* %47, i32 1, !dbg !2659
  store i16* %incdec.ptr49, i16** %toMoveIter, align 8, !dbg !2659
  br label %while.cond46, !dbg !2652, !llvm.loop !2660

while.end50:                                      ; preds = %while.cond46
  %48 = load i16*, i16** %thePosition.addr, align 8, !dbg !2662
  %49 = load i16*, i16** %theOriginalEnd, align 8, !dbg !2663
  %50 = load i64, i64* %theInsertSize, align 8, !dbg !2664
  %idx.neg51 = sub i64 0, %50, !dbg !2665
  %add.ptr52 = getelementptr inbounds i16, i16* %49, i64 %idx.neg51, !dbg !2665
  %51 = load i16*, i16** %theOriginalEnd, align 8, !dbg !2666
  %call53 = call i16* @_ZSt13copy_backwardIPtS0_ET0_T_S2_S1_(i16* %48, i16* %add.ptr52, i16* %51), !dbg !2667
  %52 = load i16*, i16** %theFirst.addr, align 8, !dbg !2668
  %53 = load i16*, i16** %theLast.addr, align 8, !dbg !2669
  %54 = load i16*, i16** %thePosition.addr, align 8, !dbg !2670
  %call54 = call i16* @_ZSt4copyIPKtPtET0_T_S4_S3_(i16* %52, i16* %53, i16* %54), !dbg !2671
  br label %if.end55

if.end55:                                         ; preds = %while.end50, %while.end41
  br label %if.end56

if.end56:                                         ; preds = %if.end55, %invoke.cont26
  br label %if.end57

if.end57:                                         ; preds = %if.end56, %while.end
  call void @_ZNK11xalanc_1_1011XalanVectorItNS_31MemoryManagedConstructionTraitsItEEE10invariantsEv(%"class.xalanc_1_10::XalanVector"* %this1), !dbg !2672
  br label %return, !dbg !2673

return:                                           ; preds = %if.end57, %if.then
  ret void, !dbg !2673

eh.resume:                                        ; preds = %lpad
  %exn = load i8*, i8** %exn.slot, align 8, !dbg !2591
  %sel = load i32, i32* %ehselector.slot, align 4, !dbg !2591
  %lpad.val = insertvalue { i8*, i32 } undef, i8* %exn, 0, !dbg !2591
  %lpad.val58 = insertvalue { i8*, i32 } %lpad.val, i32 %sel, 1, !dbg !2591
  resume { i8*, i32 } %lpad.val58, !dbg !2591
}

; Function Attrs: noinline uwtable
define linkonce_odr dso_local i16* @_ZSt4copyIPKtPtET0_T_S4_S3_(i16* %__first, i16* %__last, i16* %__result) #0 comdat !dbg !2674 {
entry:
  %__first.addr = alloca i16*, align 8
  %__last.addr = alloca i16*, align 8
  %__result.addr = alloca i16*, align 8
  store i16* %__first, i16** %__first.addr, align 8
  call void @llvm.dbg.declare(metadata i16** %__first.addr, metadata !2681, metadata !DIExpression()), !dbg !2683
  store i16* %__last, i16** %__last.addr, align 8
  call void @llvm.dbg.declare(metadata i16** %__last.addr, metadata !2684, metadata !DIExpression()), !dbg !2685
  store i16* %__result, i16** %__result.addr, align 8
  call void @llvm.dbg.declare(metadata i16** %__result.addr, metadata !2686, metadata !DIExpression()), !dbg !2687
  %0 = load i16*, i16** %__first.addr, align 8, !dbg !2688
  %call = call i16* @_ZSt12__miter_baseIPKtET_S2_(i16* %0), !dbg !2689
  %1 = load i16*, i16** %__last.addr, align 8, !dbg !2690
  %call1 = call i16* @_ZSt12__miter_baseIPKtET_S2_(i16* %1), !dbg !2691
  %2 = load i16*, i16** %__result.addr, align 8, !dbg !2692
  %call2 = call i16* @_ZSt13__copy_move_aILb0EPKtPtET1_T0_S4_S3_(i16* %call, i16* %call1, i16* %2), !dbg !2693
  ret i16* %call2, !dbg !2694
}

; Function Attrs: noinline nounwind uwtable
define linkonce_odr dso_local i64 @_ZN11xalanc_1_1011XalanVectorItNS_31MemoryManagedConstructionTraitsItEEE9local_maxEmm(%"class.xalanc_1_10::XalanVector"* %this, i64 %theLHS, i64 %theRHS) #3 comdat align 2 !dbg !2695 {
entry:
  %this.addr = alloca %"class.xalanc_1_10::XalanVector"*, align 8
  %theLHS.addr = alloca i64, align 8
  %theRHS.addr = alloca i64, align 8
  store %"class.xalanc_1_10::XalanVector"* %this, %"class.xalanc_1_10::XalanVector"** %this.addr, align 8
  call void @llvm.dbg.declare(metadata %"class.xalanc_1_10::XalanVector"** %this.addr, metadata !2696, metadata !DIExpression()), !dbg !2697
  store i64 %theLHS, i64* %theLHS.addr, align 8
  call void @llvm.dbg.declare(metadata i64* %theLHS.addr, metadata !2698, metadata !DIExpression()), !dbg !2699
  store i64 %theRHS, i64* %theRHS.addr, align 8
  call void @llvm.dbg.declare(metadata i64* %theRHS.addr, metadata !2700, metadata !DIExpression()), !dbg !2701
  %this1 = load %"class.xalanc_1_10::XalanVector"*, %"class.xalanc_1_10::XalanVector"** %this.addr, align 8
  %0 = load i64, i64* %theLHS.addr, align 8, !dbg !2702
  %1 = load i64, i64* %theRHS.addr, align 8, !dbg !2703
  %cmp = icmp ugt i64 %0, %1, !dbg !2704
  br i1 %cmp, label %cond.true, label %cond.false, !dbg !2702

cond.true:                                        ; preds = %entry
  %2 = load i64, i64* %theLHS.addr, align 8, !dbg !2705
  br label %cond.end, !dbg !2702

cond.false:                                       ; preds = %entry
  %3 = load i64, i64* %theRHS.addr, align 8, !dbg !2706
  br label %cond.end, !dbg !2702

cond.end:                                         ; preds = %cond.false, %cond.true
  %cond = phi i64 [ %2, %cond.true ], [ %3, %cond.false ], !dbg !2702
  ret i64 %cond, !dbg !2707
}

; Function Attrs: noinline uwtable
define linkonce_odr dso_local void @_ZN11xalanc_1_1011XalanVectorItNS_31MemoryManagedConstructionTraitsItEEEC2ERN11xercesc_2_713MemoryManagerEm(%"class.xalanc_1_10::XalanVector"* %this, %"class.xercesc_2_7::MemoryManager"* dereferenceable(8) %theManager, i64 %initialAllocation) unnamed_addr #0 comdat align 2 !dbg !2708 {
entry:
  %this.addr = alloca %"class.xalanc_1_10::XalanVector"*, align 8
  %theManager.addr = alloca %"class.xercesc_2_7::MemoryManager"*, align 8
  %initialAllocation.addr = alloca i64, align 8
  store %"class.xalanc_1_10::XalanVector"* %this, %"class.xalanc_1_10::XalanVector"** %this.addr, align 8
  call void @llvm.dbg.declare(metadata %"class.xalanc_1_10::XalanVector"** %this.addr, metadata !2709, metadata !DIExpression()), !dbg !2710
  store %"class.xercesc_2_7::MemoryManager"* %theManager, %"class.xercesc_2_7::MemoryManager"** %theManager.addr, align 8
  call void @llvm.dbg.declare(metadata %"class.xercesc_2_7::MemoryManager"** %theManager.addr, metadata !2711, metadata !DIExpression()), !dbg !2712
  store i64 %initialAllocation, i64* %initialAllocation.addr, align 8
  call void @llvm.dbg.declare(metadata i64* %initialAllocation.addr, metadata !2713, metadata !DIExpression()), !dbg !2714
  %this1 = load %"class.xalanc_1_10::XalanVector"*, %"class.xalanc_1_10::XalanVector"** %this.addr, align 8
  %m_memoryManager = getelementptr inbounds %"class.xalanc_1_10::XalanVector", %"class.xalanc_1_10::XalanVector"* %this1, i32 0, i32 0, !dbg !2715
  %0 = load %"class.xercesc_2_7::MemoryManager"*, %"class.xercesc_2_7::MemoryManager"** %theManager.addr, align 8, !dbg !2716
  store %"class.xercesc_2_7::MemoryManager"* %0, %"class.xercesc_2_7::MemoryManager"** %m_memoryManager, align 8, !dbg !2715
  %m_size = getelementptr inbounds %"class.xalanc_1_10::XalanVector", %"class.xalanc_1_10::XalanVector"* %this1, i32 0, i32 1, !dbg !2717
  store i64 0, i64* %m_size, align 8, !dbg !2717
  %m_allocation = getelementptr inbounds %"class.xalanc_1_10::XalanVector", %"class.xalanc_1_10::XalanVector"* %this1, i32 0, i32 2, !dbg !2718
  %1 = load i64, i64* %initialAllocation.addr, align 8, !dbg !2719
  store i64 %1, i64* %m_allocation, align 8, !dbg !2718
  %m_data = getelementptr inbounds %"class.xalanc_1_10::XalanVector", %"class.xalanc_1_10::XalanVector"* %this1, i32 0, i32 3, !dbg !2720
  %2 = load i64, i64* %initialAllocation.addr, align 8, !dbg !2721
  %cmp = icmp ugt i64 %2, 0, !dbg !2722
  br i1 %cmp, label %cond.true, label %cond.false, !dbg !2721

cond.true:                                        ; preds = %entry
  %3 = load i64, i64* %initialAllocation.addr, align 8, !dbg !2723
  %call = call i16* @_ZN11xalanc_1_1011XalanVectorItNS_31MemoryManagedConstructionTraitsItEEE8allocateEm(%"class.xalanc_1_10::XalanVector"* %this1, i64 %3), !dbg !2724
  br label %cond.end, !dbg !2721

cond.false:                                       ; preds = %entry
  br label %cond.end, !dbg !2721

cond.end:                                         ; preds = %cond.false, %cond.true
  %cond = phi i16* [ %call, %cond.true ], [ null, %cond.false ], !dbg !2721
  store i16* %cond, i16** %m_data, align 8, !dbg !2720
  call void @_ZNK11xalanc_1_1011XalanVectorItNS_31MemoryManagedConstructionTraitsItEEE10invariantsEv(%"class.xalanc_1_10::XalanVector"* %this1), !dbg !2725
  ret void, !dbg !2727
}

; Function Attrs: noinline uwtable
define linkonce_odr dso_local i16* @_ZN11xalanc_1_1011XalanVectorItNS_31MemoryManagedConstructionTraitsItEEE8allocateEm(%"class.xalanc_1_10::XalanVector"* %this, i64 %size) #0 comdat align 2 !dbg !2728 {
entry:
  %this.addr = alloca %"class.xalanc_1_10::XalanVector"*, align 8
  %size.addr = alloca i64, align 8
  %theBytesNeeded = alloca i64, align 8
  %pointer = alloca i8*, align 8
  store %"class.xalanc_1_10::XalanVector"* %this, %"class.xalanc_1_10::XalanVector"** %this.addr, align 8
  call void @llvm.dbg.declare(metadata %"class.xalanc_1_10::XalanVector"** %this.addr, metadata !2729, metadata !DIExpression()), !dbg !2730
  store i64 %size, i64* %size.addr, align 8
  call void @llvm.dbg.declare(metadata i64* %size.addr, metadata !2731, metadata !DIExpression()), !dbg !2732
  %this1 = load %"class.xalanc_1_10::XalanVector"*, %"class.xalanc_1_10::XalanVector"** %this.addr, align 8
  call void @llvm.dbg.declare(metadata i64* %theBytesNeeded, metadata !2733, metadata !DIExpression()), !dbg !2734
  %0 = load i64, i64* %size.addr, align 8, !dbg !2735
  %mul = mul i64 %0, 2, !dbg !2736
  store i64 %mul, i64* %theBytesNeeded, align 8, !dbg !2734
  call void @llvm.dbg.declare(metadata i8** %pointer, metadata !2737, metadata !DIExpression()), !dbg !2738
  %m_memoryManager = getelementptr inbounds %"class.xalanc_1_10::XalanVector", %"class.xalanc_1_10::XalanVector"* %this1, i32 0, i32 0, !dbg !2739
  %1 = load %"class.xercesc_2_7::MemoryManager"*, %"class.xercesc_2_7::MemoryManager"** %m_memoryManager, align 8, !dbg !2739
  %2 = load i64, i64* %theBytesNeeded, align 8, !dbg !2740
  %3 = bitcast %"class.xercesc_2_7::MemoryManager"* %1 to i8* (%"class.xercesc_2_7::MemoryManager"*, i64)***, !dbg !2741
  %vtable = load i8* (%"class.xercesc_2_7::MemoryManager"*, i64)**, i8* (%"class.xercesc_2_7::MemoryManager"*, i64)*** %3, align 8, !dbg !2741
  %vfn = getelementptr inbounds i8* (%"class.xercesc_2_7::MemoryManager"*, i64)*, i8* (%"class.xercesc_2_7::MemoryManager"*, i64)** %vtable, i64 2, !dbg !2741
  %4 = load i8* (%"class.xercesc_2_7::MemoryManager"*, i64)*, i8* (%"class.xercesc_2_7::MemoryManager"*, i64)** %vfn, align 8, !dbg !2741
  %call = call i8* %4(%"class.xercesc_2_7::MemoryManager"* %1, i64 %2), !dbg !2741
  store i8* %call, i8** %pointer, align 8, !dbg !2738
  %5 = load i8*, i8** %pointer, align 8, !dbg !2742
  %6 = bitcast i8* %5 to i16*, !dbg !2743
  ret i16* %6, !dbg !2744
}

; Function Attrs: noinline nounwind uwtable
define linkonce_odr dso_local i16* @_ZNK11xalanc_1_1011XalanVectorItNS_31MemoryManagedConstructionTraitsItEEE10endPointerEv(%"class.xalanc_1_10::XalanVector"* %this) #3 comdat align 2 !dbg !2745 {
entry:
  %this.addr = alloca %"class.xalanc_1_10::XalanVector"*, align 8
  store %"class.xalanc_1_10::XalanVector"* %this, %"class.xalanc_1_10::XalanVector"** %this.addr, align 8
  call void @llvm.dbg.declare(metadata %"class.xalanc_1_10::XalanVector"** %this.addr, metadata !2746, metadata !DIExpression()), !dbg !2747
  %this1 = load %"class.xalanc_1_10::XalanVector"*, %"class.xalanc_1_10::XalanVector"** %this.addr, align 8
  %m_data = getelementptr inbounds %"class.xalanc_1_10::XalanVector", %"class.xalanc_1_10::XalanVector"* %this1, i32 0, i32 3, !dbg !2748
  %0 = load i16*, i16** %m_data, align 8, !dbg !2748
  %m_size = getelementptr inbounds %"class.xalanc_1_10::XalanVector", %"class.xalanc_1_10::XalanVector"* %this1, i32 0, i32 1, !dbg !2749
  %1 = load i64, i64* %m_size, align 8, !dbg !2749
  %add.ptr = getelementptr inbounds i16, i16* %0, i64 %1, !dbg !2750
  ret i16* %add.ptr, !dbg !2751
}

; Function Attrs: noinline nounwind uwtable
define linkonce_odr dso_local void @_ZN11xalanc_1_1011XalanVectorItNS_31MemoryManagedConstructionTraitsItEEE8pop_backEv(%"class.xalanc_1_10::XalanVector"* %this) #3 comdat align 2 !dbg !2752 {
entry:
  %this.addr = alloca %"class.xalanc_1_10::XalanVector"*, align 8
  store %"class.xalanc_1_10::XalanVector"* %this, %"class.xalanc_1_10::XalanVector"** %this.addr, align 8
  call void @llvm.dbg.declare(metadata %"class.xalanc_1_10::XalanVector"** %this.addr, metadata !2753, metadata !DIExpression()), !dbg !2754
  %this1 = load %"class.xalanc_1_10::XalanVector"*, %"class.xalanc_1_10::XalanVector"** %this.addr, align 8
  call void @_ZNK11xalanc_1_1011XalanVectorItNS_31MemoryManagedConstructionTraitsItEEE10invariantsEv(%"class.xalanc_1_10::XalanVector"* %this1), !dbg !2755
  %m_size = getelementptr inbounds %"class.xalanc_1_10::XalanVector", %"class.xalanc_1_10::XalanVector"* %this1, i32 0, i32 1, !dbg !2756
  %0 = load i64, i64* %m_size, align 8, !dbg !2757
  %dec = add i64 %0, -1, !dbg !2757
  store i64 %dec, i64* %m_size, align 8, !dbg !2757
  %m_data = getelementptr inbounds %"class.xalanc_1_10::XalanVector", %"class.xalanc_1_10::XalanVector"* %this1, i32 0, i32 3, !dbg !2758
  %1 = load i16*, i16** %m_data, align 8, !dbg !2758
  %m_size2 = getelementptr inbounds %"class.xalanc_1_10::XalanVector", %"class.xalanc_1_10::XalanVector"* %this1, i32 0, i32 1, !dbg !2759
  %2 = load i64, i64* %m_size2, align 8, !dbg !2759
  %arrayidx = getelementptr inbounds i16, i16* %1, i64 %2, !dbg !2758
  call void @_ZN11xalanc_1_1011XalanVectorItNS_31MemoryManagedConstructionTraitsItEEE7destroyERt(i16* dereferenceable(2) %arrayidx), !dbg !2760
  call void @_ZNK11xalanc_1_1011XalanVectorItNS_31MemoryManagedConstructionTraitsItEEE10invariantsEv(%"class.xalanc_1_10::XalanVector"* %this1), !dbg !2761
  ret void, !dbg !2762
}

; Function Attrs: noinline uwtable
define linkonce_odr dso_local i64 @_ZN11xalanc_1_1011XalanVectorItNS_31MemoryManagedConstructionTraitsItEEE14local_distanceEPKtS5_(%"class.xalanc_1_10::XalanVector"* %this, i16* %theFirst, i16* %theLast) #0 comdat align 2 !dbg !2763 {
entry:
  %this.addr = alloca %"class.xalanc_1_10::XalanVector"*, align 8
  %theFirst.addr = alloca i16*, align 8
  %theLast.addr = alloca i16*, align 8
  store %"class.xalanc_1_10::XalanVector"* %this, %"class.xalanc_1_10::XalanVector"** %this.addr, align 8
  call void @llvm.dbg.declare(metadata %"class.xalanc_1_10::XalanVector"** %this.addr, metadata !2764, metadata !DIExpression()), !dbg !2765
  store i16* %theFirst, i16** %theFirst.addr, align 8
  call void @llvm.dbg.declare(metadata i16** %theFirst.addr, metadata !2766, metadata !DIExpression()), !dbg !2767
  store i16* %theLast, i16** %theLast.addr, align 8
  call void @llvm.dbg.declare(metadata i16** %theLast.addr, metadata !2768, metadata !DIExpression()), !dbg !2769
  %this1 = load %"class.xalanc_1_10::XalanVector"*, %"class.xalanc_1_10::XalanVector"** %this.addr, align 8
  %0 = load i16*, i16** %theFirst.addr, align 8, !dbg !2770
  %1 = load i16*, i16** %theLast.addr, align 8, !dbg !2771
  %call = call i64 @_ZSt8distanceIPKtENSt15iterator_traitsIT_E15difference_typeES3_S3_(i16* %0, i16* %1), !dbg !2772
  ret i64 %call, !dbg !2773
}

; Function Attrs: noinline nounwind uwtable
define linkonce_odr dso_local i64 @_ZNK11xalanc_1_1011XalanVectorItNS_31MemoryManagedConstructionTraitsItEEE4sizeEv(%"class.xalanc_1_10::XalanVector"* %this) #3 comdat align 2 !dbg !2774 {
entry:
  %this.addr = alloca %"class.xalanc_1_10::XalanVector"*, align 8
  store %"class.xalanc_1_10::XalanVector"* %this, %"class.xalanc_1_10::XalanVector"** %this.addr, align 8
  call void @llvm.dbg.declare(metadata %"class.xalanc_1_10::XalanVector"** %this.addr, metadata !2775, metadata !DIExpression()), !dbg !2776
  %this1 = load %"class.xalanc_1_10::XalanVector"*, %"class.xalanc_1_10::XalanVector"** %this.addr, align 8
  call void @_ZNK11xalanc_1_1011XalanVectorItNS_31MemoryManagedConstructionTraitsItEEE10invariantsEv(%"class.xalanc_1_10::XalanVector"* %this1), !dbg !2777
  %m_size = getelementptr inbounds %"class.xalanc_1_10::XalanVector", %"class.xalanc_1_10::XalanVector"* %this1, i32 0, i32 1, !dbg !2778
  %0 = load i64, i64* %m_size, align 8, !dbg !2778
  ret i64 %0, !dbg !2779
}

; Function Attrs: noinline uwtable
define linkonce_odr dso_local i16* @_ZN11xalanc_1_1011XalanVectorItNS_31MemoryManagedConstructionTraitsItEEE14ensureCapacityEm(%"class.xalanc_1_10::XalanVector"* %this, i64 %theSize) #0 comdat align 2 !dbg !2780 {
entry:
  %this.addr = alloca %"class.xalanc_1_10::XalanVector"*, align 8
  %theSize.addr = alloca i64, align 8
  store %"class.xalanc_1_10::XalanVector"* %this, %"class.xalanc_1_10::XalanVector"** %this.addr, align 8
  call void @llvm.dbg.declare(metadata %"class.xalanc_1_10::XalanVector"** %this.addr, metadata !2781, metadata !DIExpression()), !dbg !2782
  store i64 %theSize, i64* %theSize.addr, align 8
  call void @llvm.dbg.declare(metadata i64* %theSize.addr, metadata !2783, metadata !DIExpression()), !dbg !2784
  %this1 = load %"class.xalanc_1_10::XalanVector"*, %"class.xalanc_1_10::XalanVector"** %this.addr, align 8
  %0 = load i64, i64* %theSize.addr, align 8, !dbg !2785
  %call = call i64 @_ZNK11xalanc_1_1011XalanVectorItNS_31MemoryManagedConstructionTraitsItEEE8capacityEv(%"class.xalanc_1_10::XalanVector"* %this1), !dbg !2787
  %cmp = icmp ugt i64 %0, %call, !dbg !2788
  br i1 %cmp, label %if.then, label %if.end, !dbg !2789

if.then:                                          ; preds = %entry
  %1 = load i64, i64* %theSize.addr, align 8, !dbg !2790
  call void @_ZN11xalanc_1_1011XalanVectorItNS_31MemoryManagedConstructionTraitsItEEE9doReserveEm(%"class.xalanc_1_10::XalanVector"* %this1, i64 %1), !dbg !2792
  br label %if.end, !dbg !2793

if.end:                                           ; preds = %if.then, %entry
  %call2 = call i16* @_ZN11xalanc_1_1011XalanVectorItNS_31MemoryManagedConstructionTraitsItEEE10endPointerEv(%"class.xalanc_1_10::XalanVector"* %this1), !dbg !2794
  ret i16* %call2, !dbg !2795
}

; Function Attrs: noinline nounwind uwtable
define linkonce_odr dso_local i16* @_ZN11xalanc_1_1028ConstructWithNoMemoryManagerItE9constructEPtRKtRN11xercesc_2_713MemoryManagerE(i16* %address, i16* dereferenceable(2) %theRhs, %"class.xercesc_2_7::MemoryManager"* dereferenceable(8) %0) #3 comdat align 2 !dbg !2796 {
entry:
  %address.addr = alloca i16*, align 8
  %theRhs.addr = alloca i16*, align 8
  %.addr = alloca %"class.xercesc_2_7::MemoryManager"*, align 8
  store i16* %address, i16** %address.addr, align 8
  call void @llvm.dbg.declare(metadata i16** %address.addr, metadata !2805, metadata !DIExpression()), !dbg !2806
  store i16* %theRhs, i16** %theRhs.addr, align 8
  call void @llvm.dbg.declare(metadata i16** %theRhs.addr, metadata !2807, metadata !DIExpression()), !dbg !2808
  store %"class.xercesc_2_7::MemoryManager"* %0, %"class.xercesc_2_7::MemoryManager"** %.addr, align 8
  call void @llvm.dbg.declare(metadata %"class.xercesc_2_7::MemoryManager"** %.addr, metadata !2809, metadata !DIExpression()), !dbg !2810
  %1 = load i16*, i16** %address.addr, align 8, !dbg !2811
  %2 = bitcast i16* %1 to i8*, !dbg !2812
  %3 = bitcast i8* %2 to i16*, !dbg !2812
  %4 = load i16*, i16** %theRhs.addr, align 8, !dbg !2813
  %5 = load i16, i16* %4, align 2, !dbg !2813
  store i16 %5, i16* %3, align 2, !dbg !2812
  ret i16* %3, !dbg !2814
}

; Function Attrs: noinline nounwind uwtable
define linkonce_odr dso_local i64 @_ZNK11xalanc_1_1011XalanVectorItNS_31MemoryManagedConstructionTraitsItEEE8capacityEv(%"class.xalanc_1_10::XalanVector"* %this) #3 comdat align 2 !dbg !2815 {
entry:
  %this.addr = alloca %"class.xalanc_1_10::XalanVector"*, align 8
  store %"class.xalanc_1_10::XalanVector"* %this, %"class.xalanc_1_10::XalanVector"** %this.addr, align 8
  call void @llvm.dbg.declare(metadata %"class.xalanc_1_10::XalanVector"** %this.addr, metadata !2816, metadata !DIExpression()), !dbg !2817
  %this1 = load %"class.xalanc_1_10::XalanVector"*, %"class.xalanc_1_10::XalanVector"** %this.addr, align 8
  call void @_ZNK11xalanc_1_1011XalanVectorItNS_31MemoryManagedConstructionTraitsItEEE10invariantsEv(%"class.xalanc_1_10::XalanVector"* %this1), !dbg !2818
  %m_allocation = getelementptr inbounds %"class.xalanc_1_10::XalanVector", %"class.xalanc_1_10::XalanVector"* %this1, i32 0, i32 2, !dbg !2819
  %0 = load i64, i64* %m_allocation, align 8, !dbg !2819
  ret i64 %0, !dbg !2820
}

; Function Attrs: noinline uwtable
define linkonce_odr dso_local void @_ZN11xalanc_1_1011XalanVectorItNS_31MemoryManagedConstructionTraitsItEEE10doPushBackERKt(%"class.xalanc_1_10::XalanVector"* %this, i16* dereferenceable(2) %data) #0 comdat align 2 personality i8* bitcast (i32 (...)* @__gxx_personality_v0 to i8*) !dbg !2821 {
entry:
  %this.addr = alloca %"class.xalanc_1_10::XalanVector"*, align 8
  %data.addr = alloca i16*, align 8
  %theNewSize = alloca i64, align 8
  %theTemp = alloca %"class.xalanc_1_10::XalanVector", align 8
  %exn.slot = alloca i8*
  %ehselector.slot = alloca i32
  store %"class.xalanc_1_10::XalanVector"* %this, %"class.xalanc_1_10::XalanVector"** %this.addr, align 8
  call void @llvm.dbg.declare(metadata %"class.xalanc_1_10::XalanVector"** %this.addr, metadata !2822, metadata !DIExpression()), !dbg !2823
  store i16* %data, i16** %data.addr, align 8
  call void @llvm.dbg.declare(metadata i16** %data.addr, metadata !2824, metadata !DIExpression()), !dbg !2825
  %this1 = load %"class.xalanc_1_10::XalanVector"*, %"class.xalanc_1_10::XalanVector"** %this.addr, align 8
  call void @_ZNK11xalanc_1_1011XalanVectorItNS_31MemoryManagedConstructionTraitsItEEE10invariantsEv(%"class.xalanc_1_10::XalanVector"* %this1), !dbg !2826
  %m_size = getelementptr inbounds %"class.xalanc_1_10::XalanVector", %"class.xalanc_1_10::XalanVector"* %this1, i32 0, i32 1, !dbg !2827
  %0 = load i64, i64* %m_size, align 8, !dbg !2827
  %m_allocation = getelementptr inbounds %"class.xalanc_1_10::XalanVector", %"class.xalanc_1_10::XalanVector"* %this1, i32 0, i32 2, !dbg !2829
  %1 = load i64, i64* %m_allocation, align 8, !dbg !2829
  %cmp = icmp ult i64 %0, %1, !dbg !2830
  br i1 %cmp, label %if.then, label %if.else, !dbg !2831

if.then:                                          ; preds = %entry
  %call = call i16* @_ZN11xalanc_1_1011XalanVectorItNS_31MemoryManagedConstructionTraitsItEEE10endPointerEv(%"class.xalanc_1_10::XalanVector"* %this1), !dbg !2832
  %2 = load i16*, i16** %data.addr, align 8, !dbg !2834
  %m_memoryManager = getelementptr inbounds %"class.xalanc_1_10::XalanVector", %"class.xalanc_1_10::XalanVector"* %this1, i32 0, i32 0, !dbg !2835
  %3 = load %"class.xercesc_2_7::MemoryManager"*, %"class.xercesc_2_7::MemoryManager"** %m_memoryManager, align 8, !dbg !2835
  %call2 = call i16* @_ZN11xalanc_1_1028ConstructWithNoMemoryManagerItE9constructEPtRKtRN11xercesc_2_713MemoryManagerE(i16* %call, i16* dereferenceable(2) %2, %"class.xercesc_2_7::MemoryManager"* dereferenceable(8) %3), !dbg !2836
  %m_size3 = getelementptr inbounds %"class.xalanc_1_10::XalanVector", %"class.xalanc_1_10::XalanVector"* %this1, i32 0, i32 1, !dbg !2837
  %4 = load i64, i64* %m_size3, align 8, !dbg !2838
  %inc = add i64 %4, 1, !dbg !2838
  store i64 %inc, i64* %m_size3, align 8, !dbg !2838
  br label %if.end, !dbg !2839

if.else:                                          ; preds = %entry
  call void @llvm.dbg.declare(metadata i64* %theNewSize, metadata !2840, metadata !DIExpression()), !dbg !2842
  %m_size4 = getelementptr inbounds %"class.xalanc_1_10::XalanVector", %"class.xalanc_1_10::XalanVector"* %this1, i32 0, i32 1, !dbg !2843
  %5 = load i64, i64* %m_size4, align 8, !dbg !2843
  %cmp5 = icmp eq i64 %5, 0, !dbg !2844
  br i1 %cmp5, label %cond.true, label %cond.false, !dbg !2843

cond.true:                                        ; preds = %if.else
  br label %cond.end, !dbg !2843

cond.false:                                       ; preds = %if.else
  %m_size6 = getelementptr inbounds %"class.xalanc_1_10::XalanVector", %"class.xalanc_1_10::XalanVector"* %this1, i32 0, i32 1, !dbg !2845
  %6 = load i64, i64* %m_size6, align 8, !dbg !2845
  %conv = uitofp i64 %6 to double, !dbg !2845
  %mul = fmul double %conv, 1.600000e+00, !dbg !2846
  %add = fadd double %mul, 5.000000e-01, !dbg !2847
  %conv7 = fptoui double %add to i64, !dbg !2848
  br label %cond.end, !dbg !2843

cond.end:                                         ; preds = %cond.false, %cond.true
  %cond = phi i64 [ 1, %cond.true ], [ %conv7, %cond.false ], !dbg !2843
  store i64 %cond, i64* %theNewSize, align 8, !dbg !2842
  call void @llvm.dbg.declare(metadata %"class.xalanc_1_10::XalanVector"* %theTemp, metadata !2849, metadata !DIExpression()), !dbg !2850
  %m_memoryManager8 = getelementptr inbounds %"class.xalanc_1_10::XalanVector", %"class.xalanc_1_10::XalanVector"* %this1, i32 0, i32 0, !dbg !2851
  %7 = load %"class.xercesc_2_7::MemoryManager"*, %"class.xercesc_2_7::MemoryManager"** %m_memoryManager8, align 8, !dbg !2851
  %8 = load i64, i64* %theNewSize, align 8, !dbg !2852
  call void @_ZN11xalanc_1_1011XalanVectorItNS_31MemoryManagedConstructionTraitsItEEEC2ERKS3_RN11xercesc_2_713MemoryManagerEm(%"class.xalanc_1_10::XalanVector"* %theTemp, %"class.xalanc_1_10::XalanVector"* dereferenceable(32) %this1, %"class.xercesc_2_7::MemoryManager"* dereferenceable(8) %7, i64 %8), !dbg !2850
  %9 = load i16*, i16** %data.addr, align 8, !dbg !2853
  invoke void @_ZN11xalanc_1_1011XalanVectorItNS_31MemoryManagedConstructionTraitsItEEE10doPushBackERKt(%"class.xalanc_1_10::XalanVector"* %theTemp, i16* dereferenceable(2) %9)
          to label %invoke.cont unwind label %lpad, !dbg !2854

invoke.cont:                                      ; preds = %cond.end
  invoke void @_ZN11xalanc_1_1011XalanVectorItNS_31MemoryManagedConstructionTraitsItEEE4swapERS3_(%"class.xalanc_1_10::XalanVector"* %this1, %"class.xalanc_1_10::XalanVector"* dereferenceable(32) %theTemp)
          to label %invoke.cont9 unwind label %lpad, !dbg !2855

invoke.cont9:                                     ; preds = %invoke.cont
  call void @_ZN11xalanc_1_1011XalanVectorItNS_31MemoryManagedConstructionTraitsItEEED2Ev(%"class.xalanc_1_10::XalanVector"* %theTemp) #7, !dbg !2856
  br label %if.end

lpad:                                             ; preds = %invoke.cont, %cond.end
  %10 = landingpad { i8*, i32 }
          cleanup, !dbg !2857
  %11 = extractvalue { i8*, i32 } %10, 0, !dbg !2857
  store i8* %11, i8** %exn.slot, align 8, !dbg !2857
  %12 = extractvalue { i8*, i32 } %10, 1, !dbg !2857
  store i32 %12, i32* %ehselector.slot, align 4, !dbg !2857
  call void @_ZN11xalanc_1_1011XalanVectorItNS_31MemoryManagedConstructionTraitsItEEED2Ev(%"class.xalanc_1_10::XalanVector"* %theTemp) #7, !dbg !2856
  br label %eh.resume, !dbg !2856

if.end:                                           ; preds = %invoke.cont9, %if.then
  call void @_ZNK11xalanc_1_1011XalanVectorItNS_31MemoryManagedConstructionTraitsItEEE10invariantsEv(%"class.xalanc_1_10::XalanVector"* %this1), !dbg !2858
  ret void, !dbg !2859

eh.resume:                                        ; preds = %lpad
  %exn = load i8*, i8** %exn.slot, align 8, !dbg !2856
  %sel = load i32, i32* %ehselector.slot, align 4, !dbg !2856
  %lpad.val = insertvalue { i8*, i32 } undef, i8* %exn, 0, !dbg !2856
  %lpad.val10 = insertvalue { i8*, i32 } %lpad.val, i32 %sel, 1, !dbg !2856
  resume { i8*, i32 } %lpad.val10, !dbg !2856
}

; Function Attrs: noinline uwtable
define linkonce_odr dso_local i16* @_ZSt13copy_backwardIPtS0_ET0_T_S2_S1_(i16* %__first, i16* %__last, i16* %__result) #0 comdat !dbg !2860 {
entry:
  %__first.addr = alloca i16*, align 8
  %__last.addr = alloca i16*, align 8
  %__result.addr = alloca i16*, align 8
  store i16* %__first, i16** %__first.addr, align 8
  call void @llvm.dbg.declare(metadata i16** %__first.addr, metadata !2866, metadata !DIExpression()), !dbg !2867
  store i16* %__last, i16** %__last.addr, align 8
  call void @llvm.dbg.declare(metadata i16** %__last.addr, metadata !2868, metadata !DIExpression()), !dbg !2869
  store i16* %__result, i16** %__result.addr, align 8
  call void @llvm.dbg.declare(metadata i16** %__result.addr, metadata !2870, metadata !DIExpression()), !dbg !2871
  %0 = load i16*, i16** %__first.addr, align 8, !dbg !2872
  %call = call i16* @_ZSt12__miter_baseIPtET_S1_(i16* %0), !dbg !2873
  %1 = load i16*, i16** %__last.addr, align 8, !dbg !2874
  %call1 = call i16* @_ZSt12__miter_baseIPtET_S1_(i16* %1), !dbg !2875
  %2 = load i16*, i16** %__result.addr, align 8, !dbg !2876
  %call2 = call i16* @_ZSt22__copy_move_backward_aILb0EPtS0_ET1_T0_S2_S1_(i16* %call, i16* %call1, i16* %2), !dbg !2877
  ret i16* %call2, !dbg !2878
}

; Function Attrs: noinline uwtable
define linkonce_odr dso_local i64 @_ZSt8distanceIPKtENSt15iterator_traitsIT_E15difference_typeES3_S3_(i16* %__first, i16* %__last) #0 comdat !dbg !2879 {
entry:
  %__first.addr = alloca i16*, align 8
  %__last.addr = alloca i16*, align 8
  %agg.tmp = alloca %"struct.std::random_access_iterator_tag", align 1
  %undef.agg.tmp = alloca %"struct.std::random_access_iterator_tag", align 1
  store i16* %__first, i16** %__first.addr, align 8
  call void @llvm.dbg.declare(metadata i16** %__first.addr, metadata !2885, metadata !DIExpression()), !dbg !2886
  store i16* %__last, i16** %__last.addr, align 8
  call void @llvm.dbg.declare(metadata i16** %__last.addr, metadata !2887, metadata !DIExpression()), !dbg !2888
  %0 = load i16*, i16** %__first.addr, align 8, !dbg !2889
  %1 = load i16*, i16** %__last.addr, align 8, !dbg !2890
  call void @_ZSt19__iterator_categoryIPKtENSt15iterator_traitsIT_E17iterator_categoryERKS3_(i16** dereferenceable(8) %__first.addr), !dbg !2891
  %call = call i64 @_ZSt10__distanceIPKtENSt15iterator_traitsIT_E15difference_typeES3_S3_St26random_access_iterator_tag(i16* %0, i16* %1), !dbg !2892
  ret i64 %call, !dbg !2893
}

; Function Attrs: noinline nounwind uwtable
define linkonce_odr dso_local i64 @_ZSt10__distanceIPKtENSt15iterator_traitsIT_E15difference_typeES3_S3_St26random_access_iterator_tag(i16* %__first, i16* %__last) #3 comdat !dbg !2894 {
entry:
  %0 = alloca %"struct.std::random_access_iterator_tag", align 1
  %__first.addr = alloca i16*, align 8
  %__last.addr = alloca i16*, align 8
  store i16* %__first, i16** %__first.addr, align 8
  call void @llvm.dbg.declare(metadata i16** %__first.addr, metadata !2899, metadata !DIExpression()), !dbg !2900
  store i16* %__last, i16** %__last.addr, align 8
  call void @llvm.dbg.declare(metadata i16** %__last.addr, metadata !2901, metadata !DIExpression()), !dbg !2902
  call void @llvm.dbg.declare(metadata %"struct.std::random_access_iterator_tag"* %0, metadata !2903, metadata !DIExpression()), !dbg !2904
  %1 = load i16*, i16** %__last.addr, align 8, !dbg !2905
  %2 = load i16*, i16** %__first.addr, align 8, !dbg !2906
  %sub.ptr.lhs.cast = ptrtoint i16* %1 to i64, !dbg !2907
  %sub.ptr.rhs.cast = ptrtoint i16* %2 to i64, !dbg !2907
  %sub.ptr.sub = sub i64 %sub.ptr.lhs.cast, %sub.ptr.rhs.cast, !dbg !2907
  %sub.ptr.div = sdiv exact i64 %sub.ptr.sub, 2, !dbg !2907
  ret i64 %sub.ptr.div, !dbg !2908
}

; Function Attrs: noinline nounwind uwtable
define linkonce_odr dso_local void @_ZSt19__iterator_categoryIPKtENSt15iterator_traitsIT_E17iterator_categoryERKS3_(i16** dereferenceable(8) %0) #3 comdat !dbg !2909 {
entry:
  %.addr = alloca i16**, align 8
  store i16** %0, i16*** %.addr, align 8
  call void @llvm.dbg.declare(metadata i16*** %.addr, metadata !2917, metadata !DIExpression()), !dbg !2918
  ret void, !dbg !2919
}

; Function Attrs: noinline uwtable
define linkonce_odr dso_local void @_ZN11xalanc_1_1011XalanVectorItNS_31MemoryManagedConstructionTraitsItEEE9doReserveEm(%"class.xalanc_1_10::XalanVector"* %this, i64 %theSize) #0 comdat align 2 personality i8* bitcast (i32 (...)* @__gxx_personality_v0 to i8*) !dbg !2920 {
entry:
  %this.addr = alloca %"class.xalanc_1_10::XalanVector"*, align 8
  %theSize.addr = alloca i64, align 8
  %theTemp = alloca %"class.xalanc_1_10::XalanVector", align 8
  %exn.slot = alloca i8*
  %ehselector.slot = alloca i32
  store %"class.xalanc_1_10::XalanVector"* %this, %"class.xalanc_1_10::XalanVector"** %this.addr, align 8
  call void @llvm.dbg.declare(metadata %"class.xalanc_1_10::XalanVector"** %this.addr, metadata !2921, metadata !DIExpression()), !dbg !2922
  store i64 %theSize, i64* %theSize.addr, align 8
  call void @llvm.dbg.declare(metadata i64* %theSize.addr, metadata !2923, metadata !DIExpression()), !dbg !2924
  %this1 = load %"class.xalanc_1_10::XalanVector"*, %"class.xalanc_1_10::XalanVector"** %this.addr, align 8
  call void @_ZNK11xalanc_1_1011XalanVectorItNS_31MemoryManagedConstructionTraitsItEEE10invariantsEv(%"class.xalanc_1_10::XalanVector"* %this1), !dbg !2925
  call void @llvm.dbg.declare(metadata %"class.xalanc_1_10::XalanVector"* %theTemp, metadata !2926, metadata !DIExpression()), !dbg !2927
  %m_memoryManager = getelementptr inbounds %"class.xalanc_1_10::XalanVector", %"class.xalanc_1_10::XalanVector"* %this1, i32 0, i32 0, !dbg !2928
  %0 = load %"class.xercesc_2_7::MemoryManager"*, %"class.xercesc_2_7::MemoryManager"** %m_memoryManager, align 8, !dbg !2928
  %1 = load i64, i64* %theSize.addr, align 8, !dbg !2929
  call void @_ZN11xalanc_1_1011XalanVectorItNS_31MemoryManagedConstructionTraitsItEEEC2ERKS3_RN11xercesc_2_713MemoryManagerEm(%"class.xalanc_1_10::XalanVector"* %theTemp, %"class.xalanc_1_10::XalanVector"* dereferenceable(32) %this1, %"class.xercesc_2_7::MemoryManager"* dereferenceable(8) %0, i64 %1), !dbg !2927
  invoke void @_ZN11xalanc_1_1011XalanVectorItNS_31MemoryManagedConstructionTraitsItEEE4swapERS3_(%"class.xalanc_1_10::XalanVector"* %this1, %"class.xalanc_1_10::XalanVector"* dereferenceable(32) %theTemp)
          to label %invoke.cont unwind label %lpad, !dbg !2930

invoke.cont:                                      ; preds = %entry
  invoke void @_ZNK11xalanc_1_1011XalanVectorItNS_31MemoryManagedConstructionTraitsItEEE10invariantsEv(%"class.xalanc_1_10::XalanVector"* %this1)
          to label %invoke.cont2 unwind label %lpad, !dbg !2931

invoke.cont2:                                     ; preds = %invoke.cont
  call void @_ZN11xalanc_1_1011XalanVectorItNS_31MemoryManagedConstructionTraitsItEEED2Ev(%"class.xalanc_1_10::XalanVector"* %theTemp) #7, !dbg !2932
  ret void, !dbg !2932

lpad:                                             ; preds = %invoke.cont, %entry
  %2 = landingpad { i8*, i32 }
          cleanup, !dbg !2932
  %3 = extractvalue { i8*, i32 } %2, 0, !dbg !2932
  store i8* %3, i8** %exn.slot, align 8, !dbg !2932
  %4 = extractvalue { i8*, i32 } %2, 1, !dbg !2932
  store i32 %4, i32* %ehselector.slot, align 4, !dbg !2932
  call void @_ZN11xalanc_1_1011XalanVectorItNS_31MemoryManagedConstructionTraitsItEEED2Ev(%"class.xalanc_1_10::XalanVector"* %theTemp) #7, !dbg !2932
  br label %eh.resume, !dbg !2932

eh.resume:                                        ; preds = %lpad
  %exn = load i8*, i8** %exn.slot, align 8, !dbg !2932
  %sel = load i32, i32* %ehselector.slot, align 4, !dbg !2932
  %lpad.val = insertvalue { i8*, i32 } undef, i8* %exn, 0, !dbg !2932
  %lpad.val3 = insertvalue { i8*, i32 } %lpad.val, i32 %sel, 1, !dbg !2932
  resume { i8*, i32 } %lpad.val3, !dbg !2932
}

; Function Attrs: noinline uwtable
define linkonce_odr dso_local i16* @_ZSt22__copy_move_backward_aILb0EPtS0_ET1_T0_S2_S1_(i16* %__first, i16* %__last, i16* %__result) #0 comdat !dbg !2933 {
entry:
  %__first.addr = alloca i16*, align 8
  %__last.addr = alloca i16*, align 8
  %__result.addr = alloca i16*, align 8
  store i16* %__first, i16** %__first.addr, align 8
  call void @llvm.dbg.declare(metadata i16** %__first.addr, metadata !2938, metadata !DIExpression()), !dbg !2939
  store i16* %__last, i16** %__last.addr, align 8
  call void @llvm.dbg.declare(metadata i16** %__last.addr, metadata !2940, metadata !DIExpression()), !dbg !2941
  store i16* %__result, i16** %__result.addr, align 8
  call void @llvm.dbg.declare(metadata i16** %__result.addr, metadata !2942, metadata !DIExpression()), !dbg !2943
  %0 = load i16*, i16** %__first.addr, align 8, !dbg !2944
  %call = call i16* @_ZSt12__niter_baseIPtET_S1_(i16* %0) #7, !dbg !2945
  %1 = load i16*, i16** %__last.addr, align 8, !dbg !2946
  %call1 = call i16* @_ZSt12__niter_baseIPtET_S1_(i16* %1) #7, !dbg !2947
  %2 = load i16*, i16** %__result.addr, align 8, !dbg !2948
  %call2 = call i16* @_ZSt12__niter_baseIPtET_S1_(i16* %2) #7, !dbg !2949
  %call3 = call i16* @_ZSt23__copy_move_backward_a1ILb0EPtS0_ET1_T0_S2_S1_(i16* %call, i16* %call1, i16* %call2), !dbg !2950
  %call4 = call i16* @_ZSt12__niter_wrapIPtET_RKS1_S1_(i16** dereferenceable(8) %__result.addr, i16* %call3), !dbg !2951
  ret i16* %call4, !dbg !2952
}

; Function Attrs: noinline nounwind uwtable
define linkonce_odr dso_local i16* @_ZSt12__miter_baseIPtET_S1_(i16* %__it) #3 comdat !dbg !2953 {
entry:
  %__it.addr = alloca i16*, align 8
  store i16* %__it, i16** %__it.addr, align 8
  call void @llvm.dbg.declare(metadata i16** %__it.addr, metadata !2957, metadata !DIExpression()), !dbg !2958
  %0 = load i16*, i16** %__it.addr, align 8, !dbg !2959
  ret i16* %0, !dbg !2960
}

; Function Attrs: noinline nounwind uwtable
define linkonce_odr dso_local i16* @_ZSt12__niter_wrapIPtET_RKS1_S1_(i16** dereferenceable(8) %0, i16* %__res) #3 comdat !dbg !2961 {
entry:
  %.addr = alloca i16**, align 8
  %__res.addr = alloca i16*, align 8
  store i16** %0, i16*** %.addr, align 8
  call void @llvm.dbg.declare(metadata i16*** %.addr, metadata !2966, metadata !DIExpression()), !dbg !2967
  store i16* %__res, i16** %__res.addr, align 8
  call void @llvm.dbg.declare(metadata i16** %__res.addr, metadata !2968, metadata !DIExpression()), !dbg !2969
  %1 = load i16*, i16** %__res.addr, align 8, !dbg !2970
  ret i16* %1, !dbg !2971
}

; Function Attrs: noinline uwtable
define linkonce_odr dso_local i16* @_ZSt23__copy_move_backward_a1ILb0EPtS0_ET1_T0_S2_S1_(i16* %__first, i16* %__last, i16* %__result) #0 comdat !dbg !2972 {
entry:
  %__first.addr = alloca i16*, align 8
  %__last.addr = alloca i16*, align 8
  %__result.addr = alloca i16*, align 8
  store i16* %__first, i16** %__first.addr, align 8
  call void @llvm.dbg.declare(metadata i16** %__first.addr, metadata !2976, metadata !DIExpression()), !dbg !2977
  store i16* %__last, i16** %__last.addr, align 8
  call void @llvm.dbg.declare(metadata i16** %__last.addr, metadata !2978, metadata !DIExpression()), !dbg !2979
  store i16* %__result, i16** %__result.addr, align 8
  call void @llvm.dbg.declare(metadata i16** %__result.addr, metadata !2980, metadata !DIExpression()), !dbg !2981
  %0 = load i16*, i16** %__first.addr, align 8, !dbg !2982
  %1 = load i16*, i16** %__last.addr, align 8, !dbg !2983
  %2 = load i16*, i16** %__result.addr, align 8, !dbg !2984
  %call = call i16* @_ZSt23__copy_move_backward_a2ILb0EPtS0_ET1_T0_S2_S1_(i16* %0, i16* %1, i16* %2), !dbg !2985
  ret i16* %call, !dbg !2986
}

; Function Attrs: noinline nounwind uwtable
define linkonce_odr dso_local i16* @_ZSt12__niter_baseIPtET_S1_(i16* %__it) #3 comdat !dbg !2987 {
entry:
  %__it.addr = alloca i16*, align 8
  store i16* %__it, i16** %__it.addr, align 8
  call void @llvm.dbg.declare(metadata i16** %__it.addr, metadata !2988, metadata !DIExpression()), !dbg !2989
  %0 = load i16*, i16** %__it.addr, align 8, !dbg !2990
  ret i16* %0, !dbg !2991
}

; Function Attrs: noinline uwtable
define linkonce_odr dso_local i16* @_ZSt23__copy_move_backward_a2ILb0EPtS0_ET1_T0_S2_S1_(i16* %__first, i16* %__last, i16* %__result) #0 comdat !dbg !2992 {
entry:
  %__first.addr = alloca i16*, align 8
  %__last.addr = alloca i16*, align 8
  %__result.addr = alloca i16*, align 8
  store i16* %__first, i16** %__first.addr, align 8
  call void @llvm.dbg.declare(metadata i16** %__first.addr, metadata !2993, metadata !DIExpression()), !dbg !2994
  store i16* %__last, i16** %__last.addr, align 8
  call void @llvm.dbg.declare(metadata i16** %__last.addr, metadata !2995, metadata !DIExpression()), !dbg !2996
  store i16* %__result, i16** %__result.addr, align 8
  call void @llvm.dbg.declare(metadata i16** %__result.addr, metadata !2997, metadata !DIExpression()), !dbg !2998
  %0 = load i16*, i16** %__first.addr, align 8, !dbg !2999
  %1 = load i16*, i16** %__last.addr, align 8, !dbg !3000
  %2 = load i16*, i16** %__result.addr, align 8, !dbg !3001
  %call = call i16* @_ZNSt20__copy_move_backwardILb0ELb1ESt26random_access_iterator_tagE13__copy_move_bItEEPT_PKS3_S6_S4_(i16* %0, i16* %1, i16* %2), !dbg !3002
  ret i16* %call, !dbg !3003
}

; Function Attrs: noinline nounwind uwtable
define linkonce_odr dso_local i16* @_ZNSt20__copy_move_backwardILb0ELb1ESt26random_access_iterator_tagE13__copy_move_bItEEPT_PKS3_S6_S4_(i16* %__first, i16* %__last, i16* %__result) #3 comdat align 2 !dbg !3004 {
entry:
  %__first.addr = alloca i16*, align 8
  %__last.addr = alloca i16*, align 8
  %__result.addr = alloca i16*, align 8
  %_Num = alloca i64, align 8
  store i16* %__first, i16** %__first.addr, align 8
  call void @llvm.dbg.declare(metadata i16** %__first.addr, metadata !3010, metadata !DIExpression()), !dbg !3011
  store i16* %__last, i16** %__last.addr, align 8
  call void @llvm.dbg.declare(metadata i16** %__last.addr, metadata !3012, metadata !DIExpression()), !dbg !3013
  store i16* %__result, i16** %__result.addr, align 8
  call void @llvm.dbg.declare(metadata i16** %__result.addr, metadata !3014, metadata !DIExpression()), !dbg !3015
  call void @llvm.dbg.declare(metadata i64* %_Num, metadata !3016, metadata !DIExpression()), !dbg !3018
  %0 = load i16*, i16** %__last.addr, align 8, !dbg !3019
  %1 = load i16*, i16** %__first.addr, align 8, !dbg !3020
  %sub.ptr.lhs.cast = ptrtoint i16* %0 to i64, !dbg !3021
  %sub.ptr.rhs.cast = ptrtoint i16* %1 to i64, !dbg !3021
  %sub.ptr.sub = sub i64 %sub.ptr.lhs.cast, %sub.ptr.rhs.cast, !dbg !3021
  %sub.ptr.div = sdiv exact i64 %sub.ptr.sub, 2, !dbg !3021
  store i64 %sub.ptr.div, i64* %_Num, align 8, !dbg !3018
  %2 = load i64, i64* %_Num, align 8, !dbg !3022
  %tobool = icmp ne i64 %2, 0, !dbg !3022
  br i1 %tobool, label %if.then, label %if.end, !dbg !3024

if.then:                                          ; preds = %entry
  %3 = load i16*, i16** %__result.addr, align 8, !dbg !3025
  %4 = load i64, i64* %_Num, align 8, !dbg !3026
  %idx.neg = sub i64 0, %4, !dbg !3027
  %add.ptr = getelementptr inbounds i16, i16* %3, i64 %idx.neg, !dbg !3027
  %5 = bitcast i16* %add.ptr to i8*, !dbg !3028
  %6 = load i16*, i16** %__first.addr, align 8, !dbg !3029
  %7 = bitcast i16* %6 to i8*, !dbg !3028
  %8 = load i64, i64* %_Num, align 8, !dbg !3030
  %mul = mul i64 2, %8, !dbg !3031
  call void @llvm.memmove.p0i8.p0i8.i64(i8* align 2 %5, i8* align 2 %7, i64 %mul, i1 false), !dbg !3028
  br label %if.end, !dbg !3028

if.end:                                           ; preds = %if.then, %entry
  %9 = load i16*, i16** %__result.addr, align 8, !dbg !3032
  %10 = load i64, i64* %_Num, align 8, !dbg !3033
  %idx.neg1 = sub i64 0, %10, !dbg !3034
  %add.ptr2 = getelementptr inbounds i16, i16* %9, i64 %idx.neg1, !dbg !3034
  ret i16* %add.ptr2, !dbg !3035
}

; Function Attrs: argmemonly nounwind willreturn
declare void @llvm.memmove.p0i8.p0i8.i64(i8* nocapture, i8* nocapture readonly, i64, i1 immarg) #6

; Function Attrs: noinline uwtable
define linkonce_odr dso_local i16* @_ZSt13__copy_move_aILb0EPKtPtET1_T0_S4_S3_(i16* %__first, i16* %__last, i16* %__result) #0 comdat !dbg !3036 {
entry:
  %__first.addr = alloca i16*, align 8
  %__last.addr = alloca i16*, align 8
  %__result.addr = alloca i16*, align 8
  store i16* %__first, i16** %__first.addr, align 8
  call void @llvm.dbg.declare(metadata i16** %__first.addr, metadata !3039, metadata !DIExpression()), !dbg !3040
  store i16* %__last, i16** %__last.addr, align 8
  call void @llvm.dbg.declare(metadata i16** %__last.addr, metadata !3041, metadata !DIExpression()), !dbg !3042
  store i16* %__result, i16** %__result.addr, align 8
  call void @llvm.dbg.declare(metadata i16** %__result.addr, metadata !3043, metadata !DIExpression()), !dbg !3044
  %0 = load i16*, i16** %__first.addr, align 8, !dbg !3045
  %call = call i16* @_ZSt12__niter_baseIPKtET_S2_(i16* %0) #7, !dbg !3046
  %1 = load i16*, i16** %__last.addr, align 8, !dbg !3047
  %call1 = call i16* @_ZSt12__niter_baseIPKtET_S2_(i16* %1) #7, !dbg !3048
  %2 = load i16*, i16** %__result.addr, align 8, !dbg !3049
  %call2 = call i16* @_ZSt12__niter_baseIPtET_S1_(i16* %2) #7, !dbg !3050
  %call3 = call i16* @_ZSt14__copy_move_a1ILb0EPKtPtET1_T0_S4_S3_(i16* %call, i16* %call1, i16* %call2), !dbg !3051
  %call4 = call i16* @_ZSt12__niter_wrapIPtET_RKS1_S1_(i16** dereferenceable(8) %__result.addr, i16* %call3), !dbg !3052
  ret i16* %call4, !dbg !3053
}

; Function Attrs: noinline nounwind uwtable
define linkonce_odr dso_local i16* @_ZSt12__miter_baseIPKtET_S2_(i16* %__it) #3 comdat !dbg !3054 {
entry:
  %__it.addr = alloca i16*, align 8
  store i16* %__it, i16** %__it.addr, align 8
  call void @llvm.dbg.declare(metadata i16** %__it.addr, metadata !3057, metadata !DIExpression()), !dbg !3058
  %0 = load i16*, i16** %__it.addr, align 8, !dbg !3059
  ret i16* %0, !dbg !3060
}

; Function Attrs: noinline uwtable
define linkonce_odr dso_local i16* @_ZSt14__copy_move_a1ILb0EPKtPtET1_T0_S4_S3_(i16* %__first, i16* %__last, i16* %__result) #0 comdat !dbg !3061 {
entry:
  %__first.addr = alloca i16*, align 8
  %__last.addr = alloca i16*, align 8
  %__result.addr = alloca i16*, align 8
  store i16* %__first, i16** %__first.addr, align 8
  call void @llvm.dbg.declare(metadata i16** %__first.addr, metadata !3062, metadata !DIExpression()), !dbg !3063
  store i16* %__last, i16** %__last.addr, align 8
  call void @llvm.dbg.declare(metadata i16** %__last.addr, metadata !3064, metadata !DIExpression()), !dbg !3065
  store i16* %__result, i16** %__result.addr, align 8
  call void @llvm.dbg.declare(metadata i16** %__result.addr, metadata !3066, metadata !DIExpression()), !dbg !3067
  %0 = load i16*, i16** %__first.addr, align 8, !dbg !3068
  %1 = load i16*, i16** %__last.addr, align 8, !dbg !3069
  %2 = load i16*, i16** %__result.addr, align 8, !dbg !3070
  %call = call i16* @_ZSt14__copy_move_a2ILb0EPKtPtET1_T0_S4_S3_(i16* %0, i16* %1, i16* %2), !dbg !3071
  ret i16* %call, !dbg !3072
}

; Function Attrs: noinline nounwind uwtable
define linkonce_odr dso_local i16* @_ZSt12__niter_baseIPKtET_S2_(i16* %__it) #3 comdat !dbg !3073 {
entry:
  %__it.addr = alloca i16*, align 8
  store i16* %__it, i16** %__it.addr, align 8
  call void @llvm.dbg.declare(metadata i16** %__it.addr, metadata !3074, metadata !DIExpression()), !dbg !3075
  %0 = load i16*, i16** %__it.addr, align 8, !dbg !3076
  ret i16* %0, !dbg !3077
}

; Function Attrs: noinline uwtable
define linkonce_odr dso_local i16* @_ZSt14__copy_move_a2ILb0EPKtPtET1_T0_S4_S3_(i16* %__first, i16* %__last, i16* %__result) #0 comdat !dbg !3078 {
entry:
  %__first.addr = alloca i16*, align 8
  %__last.addr = alloca i16*, align 8
  %__result.addr = alloca i16*, align 8
  store i16* %__first, i16** %__first.addr, align 8
  call void @llvm.dbg.declare(metadata i16** %__first.addr, metadata !3079, metadata !DIExpression()), !dbg !3080
  store i16* %__last, i16** %__last.addr, align 8
  call void @llvm.dbg.declare(metadata i16** %__last.addr, metadata !3081, metadata !DIExpression()), !dbg !3082
  store i16* %__result, i16** %__result.addr, align 8
  call void @llvm.dbg.declare(metadata i16** %__result.addr, metadata !3083, metadata !DIExpression()), !dbg !3084
  %0 = load i16*, i16** %__first.addr, align 8, !dbg !3085
  %1 = load i16*, i16** %__last.addr, align 8, !dbg !3086
  %2 = load i16*, i16** %__result.addr, align 8, !dbg !3087
  %call = call i16* @_ZNSt11__copy_moveILb0ELb1ESt26random_access_iterator_tagE8__copy_mItEEPT_PKS3_S6_S4_(i16* %0, i16* %1, i16* %2), !dbg !3088
  ret i16* %call, !dbg !3089
}

; Function Attrs: noinline nounwind uwtable
define linkonce_odr dso_local i16* @_ZNSt11__copy_moveILb0ELb1ESt26random_access_iterator_tagE8__copy_mItEEPT_PKS3_S6_S4_(i16* %__first, i16* %__last, i16* %__result) #3 comdat align 2 !dbg !3090 {
entry:
  %__first.addr = alloca i16*, align 8
  %__last.addr = alloca i16*, align 8
  %__result.addr = alloca i16*, align 8
  %_Num = alloca i64, align 8
  store i16* %__first, i16** %__first.addr, align 8
  call void @llvm.dbg.declare(metadata i16** %__first.addr, metadata !3093, metadata !DIExpression()), !dbg !3094
  store i16* %__last, i16** %__last.addr, align 8
  call void @llvm.dbg.declare(metadata i16** %__last.addr, metadata !3095, metadata !DIExpression()), !dbg !3096
  store i16* %__result, i16** %__result.addr, align 8
  call void @llvm.dbg.declare(metadata i16** %__result.addr, metadata !3097, metadata !DIExpression()), !dbg !3098
  call void @llvm.dbg.declare(metadata i64* %_Num, metadata !3099, metadata !DIExpression()), !dbg !3100
  %0 = load i16*, i16** %__last.addr, align 8, !dbg !3101
  %1 = load i16*, i16** %__first.addr, align 8, !dbg !3102
  %sub.ptr.lhs.cast = ptrtoint i16* %0 to i64, !dbg !3103
  %sub.ptr.rhs.cast = ptrtoint i16* %1 to i64, !dbg !3103
  %sub.ptr.sub = sub i64 %sub.ptr.lhs.cast, %sub.ptr.rhs.cast, !dbg !3103
  %sub.ptr.div = sdiv exact i64 %sub.ptr.sub, 2, !dbg !3103
  store i64 %sub.ptr.div, i64* %_Num, align 8, !dbg !3100
  %2 = load i64, i64* %_Num, align 8, !dbg !3104
  %tobool = icmp ne i64 %2, 0, !dbg !3104
  br i1 %tobool, label %if.then, label %if.end, !dbg !3106

if.then:                                          ; preds = %entry
  %3 = load i16*, i16** %__result.addr, align 8, !dbg !3107
  %4 = bitcast i16* %3 to i8*, !dbg !3108
  %5 = load i16*, i16** %__first.addr, align 8, !dbg !3109
  %6 = bitcast i16* %5 to i8*, !dbg !3108
  %7 = load i64, i64* %_Num, align 8, !dbg !3110
  %mul = mul i64 2, %7, !dbg !3111
  call void @llvm.memmove.p0i8.p0i8.i64(i8* align 2 %4, i8* align 2 %6, i64 %mul, i1 false), !dbg !3108
  br label %if.end, !dbg !3108

if.end:                                           ; preds = %if.then, %entry
  %8 = load i16*, i16** %__result.addr, align 8, !dbg !3112
  %9 = load i64, i64* %_Num, align 8, !dbg !3113
  %add.ptr = getelementptr inbounds i16, i16* %8, i64 %9, !dbg !3114
  ret i16* %add.ptr, !dbg !3115
}

; Function Attrs: noinline nounwind uwtable
define linkonce_odr dso_local dereferenceable(8) %"class.xercesc_2_7::MemoryManager"* @_ZN11xalanc_1_1011XalanVectorItNS_31MemoryManagedConstructionTraitsItEEE16getMemoryManagerEv(%"class.xalanc_1_10::XalanVector"* %this) #3 comdat align 2 !dbg !3116 {
entry:
  %this.addr = alloca %"class.xalanc_1_10::XalanVector"*, align 8
  store %"class.xalanc_1_10::XalanVector"* %this, %"class.xalanc_1_10::XalanVector"** %this.addr, align 8
  call void @llvm.dbg.declare(metadata %"class.xalanc_1_10::XalanVector"** %this.addr, metadata !3117, metadata !DIExpression()), !dbg !3118
  %this1 = load %"class.xalanc_1_10::XalanVector"*, %"class.xalanc_1_10::XalanVector"** %this.addr, align 8
  %m_memoryManager = getelementptr inbounds %"class.xalanc_1_10::XalanVector", %"class.xalanc_1_10::XalanVector"* %this1, i32 0, i32 0, !dbg !3119
  %0 = load %"class.xercesc_2_7::MemoryManager"*, %"class.xercesc_2_7::MemoryManager"** %m_memoryManager, align 8, !dbg !3119
  ret %"class.xercesc_2_7::MemoryManager"* %0, !dbg !3120
}

; Function Attrs: noinline uwtable
define linkonce_odr dso_local dereferenceable(2) i16* @_ZNK11xalanc_1_1014XalanDOMStringixEj(%"class.xalanc_1_10::XalanDOMString"* %this, i32 %theIndex) #0 comdat align 2 !dbg !3121 {
entry:
  %this.addr = alloca %"class.xalanc_1_10::XalanDOMString"*, align 8
  %theIndex.addr = alloca i32, align 4
  store %"class.xalanc_1_10::XalanDOMString"* %this, %"class.xalanc_1_10::XalanDOMString"** %this.addr, align 8
  call void @llvm.dbg.declare(metadata %"class.xalanc_1_10::XalanDOMString"** %this.addr, metadata !3122, metadata !DIExpression()), !dbg !3123
  store i32 %theIndex, i32* %theIndex.addr, align 4
  call void @llvm.dbg.declare(metadata i32* %theIndex.addr, metadata !3124, metadata !DIExpression()), !dbg !3125
  %this1 = load %"class.xalanc_1_10::XalanDOMString"*, %"class.xalanc_1_10::XalanDOMString"** %this.addr, align 8
  call void @_ZNK11xalanc_1_1014XalanDOMString10invariantsEv(%"class.xalanc_1_10::XalanDOMString"* %this1), !dbg !3126
  %m_data = getelementptr inbounds %"class.xalanc_1_10::XalanDOMString", %"class.xalanc_1_10::XalanDOMString"* %this1, i32 0, i32 0, !dbg !3127
  %0 = load i32, i32* %theIndex.addr, align 4, !dbg !3128
  %conv = zext i32 %0 to i64, !dbg !3128
  %call = call dereferenceable(2) i16* @_ZNK11xalanc_1_1011XalanVectorItNS_31MemoryManagedConstructionTraitsItEEEixEm(%"class.xalanc_1_10::XalanVector"* %m_data, i64 %conv), !dbg !3127
  ret i16* %call, !dbg !3129
}

; Function Attrs: noinline nounwind uwtable
define linkonce_odr dso_local dereferenceable(2) i16* @_ZNK11xalanc_1_1011XalanVectorItNS_31MemoryManagedConstructionTraitsItEEEixEm(%"class.xalanc_1_10::XalanVector"* %this, i64 %theIndex) #3 comdat align 2 !dbg !3130 {
entry:
  %this.addr = alloca %"class.xalanc_1_10::XalanVector"*, align 8
  %theIndex.addr = alloca i64, align 8
  store %"class.xalanc_1_10::XalanVector"* %this, %"class.xalanc_1_10::XalanVector"** %this.addr, align 8
  call void @llvm.dbg.declare(metadata %"class.xalanc_1_10::XalanVector"** %this.addr, metadata !3131, metadata !DIExpression()), !dbg !3132
  store i64 %theIndex, i64* %theIndex.addr, align 8
  call void @llvm.dbg.declare(metadata i64* %theIndex.addr, metadata !3133, metadata !DIExpression()), !dbg !3134
  %this1 = load %"class.xalanc_1_10::XalanVector"*, %"class.xalanc_1_10::XalanVector"** %this.addr, align 8
  %m_data = getelementptr inbounds %"class.xalanc_1_10::XalanVector", %"class.xalanc_1_10::XalanVector"* %this1, i32 0, i32 3, !dbg !3135
  %0 = load i16*, i16** %m_data, align 8, !dbg !3135
  %1 = load i64, i64* %theIndex.addr, align 8, !dbg !3136
  %arrayidx = getelementptr inbounds i16, i16* %0, i64 %1, !dbg !3135
  ret i16* %arrayidx, !dbg !3137
}

; Function Attrs: noinline nounwind uwtable
define linkonce_odr dso_local i32 @_ZNK11xalanc_1_1014XalanDOMString4sizeEv(%"class.xalanc_1_10::XalanDOMString"* %this) #3 comdat align 2 !dbg !3138 {
entry:
  %this.addr = alloca %"class.xalanc_1_10::XalanDOMString"*, align 8
  store %"class.xalanc_1_10::XalanDOMString"* %this, %"class.xalanc_1_10::XalanDOMString"** %this.addr, align 8
  call void @llvm.dbg.declare(metadata %"class.xalanc_1_10::XalanDOMString"** %this.addr, metadata !3139, metadata !DIExpression()), !dbg !3140
  %this1 = load %"class.xalanc_1_10::XalanDOMString"*, %"class.xalanc_1_10::XalanDOMString"** %this.addr, align 8
  call void @_ZNK11xalanc_1_1014XalanDOMString10invariantsEv(%"class.xalanc_1_10::XalanDOMString"* %this1), !dbg !3141
  %m_size = getelementptr inbounds %"class.xalanc_1_10::XalanDOMString", %"class.xalanc_1_10::XalanDOMString"* %this1, i32 0, i32 1, !dbg !3142
  %0 = load i32, i32* %m_size, align 8, !dbg !3142
  ret i32 %0, !dbg !3143
}

; Function Attrs: noinline uwtable
define linkonce_odr dso_local dereferenceable(40) %"class.xalanc_1_10::XalanDOMString"* @_ZN11xalanc_1_1014XalanDOMString6assignEPKt(%"class.xalanc_1_10::XalanDOMString"* %this, i16* %theSource) #0 comdat align 2 !dbg !3144 {
entry:
  %this.addr = alloca %"class.xalanc_1_10::XalanDOMString"*, align 8
  %theSource.addr = alloca i16*, align 8
  store %"class.xalanc_1_10::XalanDOMString"* %this, %"class.xalanc_1_10::XalanDOMString"** %this.addr, align 8
  call void @llvm.dbg.declare(metadata %"class.xalanc_1_10::XalanDOMString"** %this.addr, metadata !3145, metadata !DIExpression()), !dbg !3146
  store i16* %theSource, i16** %theSource.addr, align 8
  call void @llvm.dbg.declare(metadata i16** %theSource.addr, metadata !3147, metadata !DIExpression()), !dbg !3148
  %this1 = load %"class.xalanc_1_10::XalanDOMString"*, %"class.xalanc_1_10::XalanDOMString"** %this.addr, align 8
  call void @_ZNK11xalanc_1_1014XalanDOMString10invariantsEv(%"class.xalanc_1_10::XalanDOMString"* %this1), !dbg !3149
  call void @_ZN11xalanc_1_1014XalanDOMString5eraseEjj(%"class.xalanc_1_10::XalanDOMString"* %this1, i32 0, i32 -1), !dbg !3150
  call void @_ZNK11xalanc_1_1014XalanDOMString10invariantsEv(%"class.xalanc_1_10::XalanDOMString"* %this1), !dbg !3151
  %0 = load i16*, i16** %theSource.addr, align 8, !dbg !3152
  %call = call dereferenceable(40) %"class.xalanc_1_10::XalanDOMString"* @_ZN11xalanc_1_1014XalanDOMString6appendEPKt(%"class.xalanc_1_10::XalanDOMString"* %this1, i16* %0), !dbg !3153
  ret %"class.xalanc_1_10::XalanDOMString"* %call, !dbg !3154
}

declare dso_local void @_ZN11xalanc_1_1014XalanDOMString5eraseEjj(%"class.xalanc_1_10::XalanDOMString"*, i32, i32) #2

; Function Attrs: noinline uwtable
define linkonce_odr dso_local dereferenceable(40) %"class.xalanc_1_10::XalanDOMString"* @_ZN11xalanc_1_1014XalanDOMString6appendEPKt(%"class.xalanc_1_10::XalanDOMString"* %this, i16* %theString) #0 comdat align 2 !dbg !3155 {
entry:
  %this.addr = alloca %"class.xalanc_1_10::XalanDOMString"*, align 8
  %theString.addr = alloca i16*, align 8
  store %"class.xalanc_1_10::XalanDOMString"* %this, %"class.xalanc_1_10::XalanDOMString"** %this.addr, align 8
  call void @llvm.dbg.declare(metadata %"class.xalanc_1_10::XalanDOMString"** %this.addr, metadata !3156, metadata !DIExpression()), !dbg !3157
  store i16* %theString, i16** %theString.addr, align 8
  call void @llvm.dbg.declare(metadata i16** %theString.addr, metadata !3158, metadata !DIExpression()), !dbg !3159
  %this1 = load %"class.xalanc_1_10::XalanDOMString"*, %"class.xalanc_1_10::XalanDOMString"** %this.addr, align 8
  %0 = load i16*, i16** %theString.addr, align 8, !dbg !3160
  %1 = load i16*, i16** %theString.addr, align 8, !dbg !3161
  %call = call i32 @_ZN11xalanc_1_1014XalanDOMString6lengthEPKt(i16* %1), !dbg !3162
  %call2 = call dereferenceable(40) %"class.xalanc_1_10::XalanDOMString"* @_ZN11xalanc_1_1014XalanDOMString6appendEPKtj(%"class.xalanc_1_10::XalanDOMString"* %this1, i16* %0, i32 %call), !dbg !3163
  ret %"class.xalanc_1_10::XalanDOMString"* %call2, !dbg !3164
}

declare dso_local dereferenceable(40) %"class.xalanc_1_10::XalanDOMString"* @_ZN11xalanc_1_1014XalanDOMString6appendEPKtj(%"class.xalanc_1_10::XalanDOMString"*, i16*, i32) #2

declare dso_local i32 @_ZN11xalanc_1_1014XalanDOMString6lengthEPKt(i16*) #2

; Function Attrs: noinline nounwind uwtable
define linkonce_odr dso_local i16* @_ZNK11xalanc_1_1023XalanMemMgrAutoPtrArrayItE3getEv(%"class.xalanc_1_10::XalanMemMgrAutoPtrArray"* %this) #3 comdat align 2 !dbg !3165 {
entry:
  %this.addr = alloca %"class.xalanc_1_10::XalanMemMgrAutoPtrArray"*, align 8
  store %"class.xalanc_1_10::XalanMemMgrAutoPtrArray"* %this, %"class.xalanc_1_10::XalanMemMgrAutoPtrArray"** %this.addr, align 8
  call void @llvm.dbg.declare(metadata %"class.xalanc_1_10::XalanMemMgrAutoPtrArray"** %this.addr, metadata !3166, metadata !DIExpression()), !dbg !3168
  %this1 = load %"class.xalanc_1_10::XalanMemMgrAutoPtrArray"*, %"class.xalanc_1_10::XalanMemMgrAutoPtrArray"** %this.addr, align 8
  %m_pointerInfo = getelementptr inbounds %"class.xalanc_1_10::XalanMemMgrAutoPtrArray", %"class.xalanc_1_10::XalanMemMgrAutoPtrArray"* %this1, i32 0, i32 0, !dbg !3169
  %m_dataArray = getelementptr inbounds %"class.xalanc_1_10::XalanMemMgrAutoPtrArray<unsigned short>::MemMgrAutoPtrArrayData", %"class.xalanc_1_10::XalanMemMgrAutoPtrArray<unsigned short>::MemMgrAutoPtrArrayData"* %m_pointerInfo, i32 0, i32 1, !dbg !3170
  %0 = load i16*, i16** %m_dataArray, align 8, !dbg !3170
  ret i16* %0, !dbg !3171
}

; Function Attrs: noinline nounwind uwtable
define linkonce_odr dso_local dereferenceable(24) %"class.xalanc_1_10::XalanMemMgrAutoPtrArray"* @_ZN11xalanc_1_1023XalanMemMgrAutoPtrArrayItEppEv(%"class.xalanc_1_10::XalanMemMgrAutoPtrArray"* %this) #3 comdat align 2 !dbg !3172 {
entry:
  %this.addr = alloca %"class.xalanc_1_10::XalanMemMgrAutoPtrArray"*, align 8
  store %"class.xalanc_1_10::XalanMemMgrAutoPtrArray"* %this, %"class.xalanc_1_10::XalanMemMgrAutoPtrArray"** %this.addr, align 8
  call void @llvm.dbg.declare(metadata %"class.xalanc_1_10::XalanMemMgrAutoPtrArray"** %this.addr, metadata !3173, metadata !DIExpression()), !dbg !3174
  %this1 = load %"class.xalanc_1_10::XalanMemMgrAutoPtrArray"*, %"class.xalanc_1_10::XalanMemMgrAutoPtrArray"** %this.addr, align 8
  %m_pointerInfo = getelementptr inbounds %"class.xalanc_1_10::XalanMemMgrAutoPtrArray", %"class.xalanc_1_10::XalanMemMgrAutoPtrArray"* %this1, i32 0, i32 0, !dbg !3175
  %m_size = getelementptr inbounds %"class.xalanc_1_10::XalanMemMgrAutoPtrArray<unsigned short>::MemMgrAutoPtrArrayData", %"class.xalanc_1_10::XalanMemMgrAutoPtrArray<unsigned short>::MemMgrAutoPtrArrayData"* %m_pointerInfo, i32 0, i32 2, !dbg !3176
  %0 = load i64, i64* %m_size, align 8, !dbg !3177
  %inc = add i64 %0, 1, !dbg !3177
  store i64 %inc, i64* %m_size, align 8, !dbg !3177
  ret %"class.xalanc_1_10::XalanMemMgrAutoPtrArray"* %this1, !dbg !3178
}

; Function Attrs: noinline uwtable
define linkonce_odr dso_local void @_ZN11xalanc_1_1023XalanMemMgrAutoPtrArrayItE7releaseEv(%"class.xalanc_1_10::XalanMemMgrAutoPtrArray<unsigned short>::MemMgrAutoPtrArrayData"* noalias sret %agg.result, %"class.xalanc_1_10::XalanMemMgrAutoPtrArray"* %this) #0 comdat align 2 !dbg !3179 {
entry:
  %this.addr = alloca %"class.xalanc_1_10::XalanMemMgrAutoPtrArray"*, align 8
  %tmp = alloca %"class.xalanc_1_10::XalanMemMgrAutoPtrArray<unsigned short>::MemMgrAutoPtrArrayData", align 8
  store %"class.xalanc_1_10::XalanMemMgrAutoPtrArray"* %this, %"class.xalanc_1_10::XalanMemMgrAutoPtrArray"** %this.addr, align 8
  call void @llvm.dbg.declare(metadata %"class.xalanc_1_10::XalanMemMgrAutoPtrArray"** %this.addr, metadata !3180, metadata !DIExpression()), !dbg !3181
  %this1 = load %"class.xalanc_1_10::XalanMemMgrAutoPtrArray"*, %"class.xalanc_1_10::XalanMemMgrAutoPtrArray"** %this.addr, align 8
  call void @llvm.dbg.declare(metadata %"class.xalanc_1_10::XalanMemMgrAutoPtrArray<unsigned short>::MemMgrAutoPtrArrayData"* %tmp, metadata !3182, metadata !DIExpression()), !dbg !3183
  %m_pointerInfo = getelementptr inbounds %"class.xalanc_1_10::XalanMemMgrAutoPtrArray", %"class.xalanc_1_10::XalanMemMgrAutoPtrArray"* %this1, i32 0, i32 0, !dbg !3184
  %0 = bitcast %"class.xalanc_1_10::XalanMemMgrAutoPtrArray<unsigned short>::MemMgrAutoPtrArrayData"* %tmp to i8*, !dbg !3184
  %1 = bitcast %"class.xalanc_1_10::XalanMemMgrAutoPtrArray<unsigned short>::MemMgrAutoPtrArrayData"* %m_pointerInfo to i8*, !dbg !3184
  call void @llvm.memcpy.p0i8.p0i8.i64(i8* align 8 %0, i8* align 8 %1, i64 24, i1 false), !dbg !3184
  %m_pointerInfo2 = getelementptr inbounds %"class.xalanc_1_10::XalanMemMgrAutoPtrArray", %"class.xalanc_1_10::XalanMemMgrAutoPtrArray"* %this1, i32 0, i32 0, !dbg !3185
  call void @_ZN11xalanc_1_1023XalanMemMgrAutoPtrArrayItE22MemMgrAutoPtrArrayData5resetEPN11xercesc_2_713MemoryManagerEPtm(%"class.xalanc_1_10::XalanMemMgrAutoPtrArray<unsigned short>::MemMgrAutoPtrArrayData"* %m_pointerInfo2, %"class.xercesc_2_7::MemoryManager"* null, i16* null, i64 0), !dbg !3186
  %2 = bitcast %"class.xalanc_1_10::XalanMemMgrAutoPtrArray<unsigned short>::MemMgrAutoPtrArrayData"* %agg.result to i8*, !dbg !3187
  %3 = bitcast %"class.xalanc_1_10::XalanMemMgrAutoPtrArray<unsigned short>::MemMgrAutoPtrArrayData"* %tmp to i8*, !dbg !3187
  call void @llvm.memcpy.p0i8.p0i8.i64(i8* align 8 %2, i8* align 8 %3, i64 24, i1 false), !dbg !3187
  ret void, !dbg !3188
}

; Function Attrs: argmemonly nounwind willreturn
declare void @llvm.memcpy.p0i8.p0i8.i64(i8* noalias nocapture writeonly, i8* noalias nocapture readonly, i64, i1 immarg) #6

; Function Attrs: noinline uwtable
define linkonce_odr dso_local void @_ZN11xalanc_1_1023XalanMemMgrAutoPtrArrayItE22MemMgrAutoPtrArrayData5resetEPN11xercesc_2_713MemoryManagerEPtm(%"class.xalanc_1_10::XalanMemMgrAutoPtrArray<unsigned short>::MemMgrAutoPtrArrayData"* %this, %"class.xercesc_2_7::MemoryManager"* %theMemoryManager, i16* %thePointer, i64 %size) #0 comdat align 2 !dbg !3189 {
entry:
  %this.addr = alloca %"class.xalanc_1_10::XalanMemMgrAutoPtrArray<unsigned short>::MemMgrAutoPtrArrayData"*, align 8
  %theMemoryManager.addr = alloca %"class.xercesc_2_7::MemoryManager"*, align 8
  %thePointer.addr = alloca i16*, align 8
  %size.addr = alloca i64, align 8
  store %"class.xalanc_1_10::XalanMemMgrAutoPtrArray<unsigned short>::MemMgrAutoPtrArrayData"* %this, %"class.xalanc_1_10::XalanMemMgrAutoPtrArray<unsigned short>::MemMgrAutoPtrArrayData"** %this.addr, align 8
  call void @llvm.dbg.declare(metadata %"class.xalanc_1_10::XalanMemMgrAutoPtrArray<unsigned short>::MemMgrAutoPtrArrayData"** %this.addr, metadata !3190, metadata !DIExpression()), !dbg !3192
  store %"class.xercesc_2_7::MemoryManager"* %theMemoryManager, %"class.xercesc_2_7::MemoryManager"** %theMemoryManager.addr, align 8
  call void @llvm.dbg.declare(metadata %"class.xercesc_2_7::MemoryManager"** %theMemoryManager.addr, metadata !3193, metadata !DIExpression()), !dbg !3194
  store i16* %thePointer, i16** %thePointer.addr, align 8
  call void @llvm.dbg.declare(metadata i16** %thePointer.addr, metadata !3195, metadata !DIExpression()), !dbg !3196
  store i64 %size, i64* %size.addr, align 8
  call void @llvm.dbg.declare(metadata i64* %size.addr, metadata !3197, metadata !DIExpression()), !dbg !3198
  %this1 = load %"class.xalanc_1_10::XalanMemMgrAutoPtrArray<unsigned short>::MemMgrAutoPtrArrayData"*, %"class.xalanc_1_10::XalanMemMgrAutoPtrArray<unsigned short>::MemMgrAutoPtrArrayData"** %this.addr, align 8
  call void @_ZNK11xalanc_1_1023XalanMemMgrAutoPtrArrayItE22MemMgrAutoPtrArrayData10invariantsEv(%"class.xalanc_1_10::XalanMemMgrAutoPtrArray<unsigned short>::MemMgrAutoPtrArrayData"* %this1), !dbg !3199
  %0 = load %"class.xercesc_2_7::MemoryManager"*, %"class.xercesc_2_7::MemoryManager"** %theMemoryManager.addr, align 8, !dbg !3200
  %m_memoryManager = getelementptr inbounds %"class.xalanc_1_10::XalanMemMgrAutoPtrArray<unsigned short>::MemMgrAutoPtrArrayData", %"class.xalanc_1_10::XalanMemMgrAutoPtrArray<unsigned short>::MemMgrAutoPtrArrayData"* %this1, i32 0, i32 0, !dbg !3201
  store %"class.xercesc_2_7::MemoryManager"* %0, %"class.xercesc_2_7::MemoryManager"** %m_memoryManager, align 8, !dbg !3202
  %1 = load i16*, i16** %thePointer.addr, align 8, !dbg !3203
  %m_dataArray = getelementptr inbounds %"class.xalanc_1_10::XalanMemMgrAutoPtrArray<unsigned short>::MemMgrAutoPtrArrayData", %"class.xalanc_1_10::XalanMemMgrAutoPtrArray<unsigned short>::MemMgrAutoPtrArrayData"* %this1, i32 0, i32 1, !dbg !3204
  store i16* %1, i16** %m_dataArray, align 8, !dbg !3205
  %2 = load i64, i64* %size.addr, align 8, !dbg !3206
  %m_size = getelementptr inbounds %"class.xalanc_1_10::XalanMemMgrAutoPtrArray<unsigned short>::MemMgrAutoPtrArrayData", %"class.xalanc_1_10::XalanMemMgrAutoPtrArray<unsigned short>::MemMgrAutoPtrArrayData"* %this1, i32 0, i32 2, !dbg !3207
  store i64 %2, i64* %m_size, align 8, !dbg !3208
  call void @_ZNK11xalanc_1_1023XalanMemMgrAutoPtrArrayItE22MemMgrAutoPtrArrayData10invariantsEv(%"class.xalanc_1_10::XalanMemMgrAutoPtrArray<unsigned short>::MemMgrAutoPtrArrayData"* %this1), !dbg !3209
  ret void, !dbg !3210
}

; Function Attrs: noinline nounwind uwtable
define linkonce_odr dso_local void @_ZNK11xalanc_1_1023XalanMemMgrAutoPtrArrayItE22MemMgrAutoPtrArrayData10invariantsEv(%"class.xalanc_1_10::XalanMemMgrAutoPtrArray<unsigned short>::MemMgrAutoPtrArrayData"* %this) #3 comdat align 2 !dbg !3211 {
entry:
  %this.addr = alloca %"class.xalanc_1_10::XalanMemMgrAutoPtrArray<unsigned short>::MemMgrAutoPtrArrayData"*, align 8
  store %"class.xalanc_1_10::XalanMemMgrAutoPtrArray<unsigned short>::MemMgrAutoPtrArrayData"* %this, %"class.xalanc_1_10::XalanMemMgrAutoPtrArray<unsigned short>::MemMgrAutoPtrArrayData"** %this.addr, align 8
  call void @llvm.dbg.declare(metadata %"class.xalanc_1_10::XalanMemMgrAutoPtrArray<unsigned short>::MemMgrAutoPtrArrayData"** %this.addr, metadata !3212, metadata !DIExpression()), !dbg !3214
  %this1 = load %"class.xalanc_1_10::XalanMemMgrAutoPtrArray<unsigned short>::MemMgrAutoPtrArrayData"*, %"class.xalanc_1_10::XalanMemMgrAutoPtrArray<unsigned short>::MemMgrAutoPtrArrayData"** %this.addr, align 8
  ret void, !dbg !3215
}

; Function Attrs: noinline nounwind uwtable
define linkonce_odr dso_local void @_ZN11xalanc_1_1023XalanMemMgrAutoPtrArrayItE22MemMgrAutoPtrArrayDataC2EPN11xercesc_2_713MemoryManagerEPtm(%"class.xalanc_1_10::XalanMemMgrAutoPtrArray<unsigned short>::MemMgrAutoPtrArrayData"* %this, %"class.xercesc_2_7::MemoryManager"* %memoryManager, i16* %dataPointer, i64 %size) unnamed_addr #3 comdat align 2 !dbg !3216 {
entry:
  %this.addr = alloca %"class.xalanc_1_10::XalanMemMgrAutoPtrArray<unsigned short>::MemMgrAutoPtrArrayData"*, align 8
  %memoryManager.addr = alloca %"class.xercesc_2_7::MemoryManager"*, align 8
  %dataPointer.addr = alloca i16*, align 8
  %size.addr = alloca i64, align 8
  store %"class.xalanc_1_10::XalanMemMgrAutoPtrArray<unsigned short>::MemMgrAutoPtrArrayData"* %this, %"class.xalanc_1_10::XalanMemMgrAutoPtrArray<unsigned short>::MemMgrAutoPtrArrayData"** %this.addr, align 8
  call void @llvm.dbg.declare(metadata %"class.xalanc_1_10::XalanMemMgrAutoPtrArray<unsigned short>::MemMgrAutoPtrArrayData"** %this.addr, metadata !3217, metadata !DIExpression()), !dbg !3218
  store %"class.xercesc_2_7::MemoryManager"* %memoryManager, %"class.xercesc_2_7::MemoryManager"** %memoryManager.addr, align 8
  call void @llvm.dbg.declare(metadata %"class.xercesc_2_7::MemoryManager"** %memoryManager.addr, metadata !3219, metadata !DIExpression()), !dbg !3220
  store i16* %dataPointer, i16** %dataPointer.addr, align 8
  call void @llvm.dbg.declare(metadata i16** %dataPointer.addr, metadata !3221, metadata !DIExpression()), !dbg !3222
  store i64 %size, i64* %size.addr, align 8
  call void @llvm.dbg.declare(metadata i64* %size.addr, metadata !3223, metadata !DIExpression()), !dbg !3224
  %this1 = load %"class.xalanc_1_10::XalanMemMgrAutoPtrArray<unsigned short>::MemMgrAutoPtrArrayData"*, %"class.xalanc_1_10::XalanMemMgrAutoPtrArray<unsigned short>::MemMgrAutoPtrArrayData"** %this.addr, align 8
  %m_memoryManager = getelementptr inbounds %"class.xalanc_1_10::XalanMemMgrAutoPtrArray<unsigned short>::MemMgrAutoPtrArrayData", %"class.xalanc_1_10::XalanMemMgrAutoPtrArray<unsigned short>::MemMgrAutoPtrArrayData"* %this1, i32 0, i32 0, !dbg !3225
  %0 = load %"class.xercesc_2_7::MemoryManager"*, %"class.xercesc_2_7::MemoryManager"** %memoryManager.addr, align 8, !dbg !3226
  store %"class.xercesc_2_7::MemoryManager"* %0, %"class.xercesc_2_7::MemoryManager"** %m_memoryManager, align 8, !dbg !3225
  %m_dataArray = getelementptr inbounds %"class.xalanc_1_10::XalanMemMgrAutoPtrArray<unsigned short>::MemMgrAutoPtrArrayData", %"class.xalanc_1_10::XalanMemMgrAutoPtrArray<unsigned short>::MemMgrAutoPtrArrayData"* %this1, i32 0, i32 1, !dbg !3227
  %1 = load i16*, i16** %dataPointer.addr, align 8, !dbg !3228
  store i16* %1, i16** %m_dataArray, align 8, !dbg !3227
  %m_size = getelementptr inbounds %"class.xalanc_1_10::XalanMemMgrAutoPtrArray<unsigned short>::MemMgrAutoPtrArrayData", %"class.xalanc_1_10::XalanMemMgrAutoPtrArray<unsigned short>::MemMgrAutoPtrArrayData"* %this1, i32 0, i32 2, !dbg !3229
  %2 = load i64, i64* %size.addr, align 8, !dbg !3230
  store i64 %2, i64* %m_size, align 8, !dbg !3229
  call void @_ZNK11xalanc_1_1023XalanMemMgrAutoPtrArrayItE22MemMgrAutoPtrArrayData10invariantsEv(%"class.xalanc_1_10::XalanMemMgrAutoPtrArray<unsigned short>::MemMgrAutoPtrArrayData"* %this1), !dbg !3231
  ret void, !dbg !3233
}

; Function Attrs: noinline uwtable
define linkonce_odr dso_local void @_ZN11xalanc_1_1023XalanMemMgrAutoPtrArrayItE22MemMgrAutoPtrArrayData10deallocateEv(%"class.xalanc_1_10::XalanMemMgrAutoPtrArray<unsigned short>::MemMgrAutoPtrArrayData"* %this) #0 comdat align 2 !dbg !3234 {
entry:
  %this.addr = alloca %"class.xalanc_1_10::XalanMemMgrAutoPtrArray<unsigned short>::MemMgrAutoPtrArrayData"*, align 8
  %i = alloca i64, align 8
  store %"class.xalanc_1_10::XalanMemMgrAutoPtrArray<unsigned short>::MemMgrAutoPtrArrayData"* %this, %"class.xalanc_1_10::XalanMemMgrAutoPtrArray<unsigned short>::MemMgrAutoPtrArrayData"** %this.addr, align 8
  call void @llvm.dbg.declare(metadata %"class.xalanc_1_10::XalanMemMgrAutoPtrArray<unsigned short>::MemMgrAutoPtrArrayData"** %this.addr, metadata !3235, metadata !DIExpression()), !dbg !3236
  %this1 = load %"class.xalanc_1_10::XalanMemMgrAutoPtrArray<unsigned short>::MemMgrAutoPtrArrayData"*, %"class.xalanc_1_10::XalanMemMgrAutoPtrArray<unsigned short>::MemMgrAutoPtrArrayData"** %this.addr, align 8
  call void @_ZNK11xalanc_1_1023XalanMemMgrAutoPtrArrayItE22MemMgrAutoPtrArrayData10invariantsEv(%"class.xalanc_1_10::XalanMemMgrAutoPtrArray<unsigned short>::MemMgrAutoPtrArrayData"* %this1), !dbg !3237
  %call = call zeroext i1 @_ZNK11xalanc_1_1023XalanMemMgrAutoPtrArrayItE22MemMgrAutoPtrArrayData12isInitilizedEv(%"class.xalanc_1_10::XalanMemMgrAutoPtrArray<unsigned short>::MemMgrAutoPtrArrayData"* %this1), !dbg !3238
  br i1 %call, label %if.then, label %if.end, !dbg !3240

if.then:                                          ; preds = %entry
  call void @llvm.dbg.declare(metadata i64* %i, metadata !3241, metadata !DIExpression()), !dbg !3244
  store i64 0, i64* %i, align 8, !dbg !3244
  br label %for.cond, !dbg !3245

for.cond:                                         ; preds = %for.inc, %if.then
  %0 = load i64, i64* %i, align 8, !dbg !3246
  %m_size = getelementptr inbounds %"class.xalanc_1_10::XalanMemMgrAutoPtrArray<unsigned short>::MemMgrAutoPtrArrayData", %"class.xalanc_1_10::XalanMemMgrAutoPtrArray<unsigned short>::MemMgrAutoPtrArrayData"* %this1, i32 0, i32 2, !dbg !3248
  %1 = load i64, i64* %m_size, align 8, !dbg !3248
  %cmp = icmp ult i64 %0, %1, !dbg !3249
  br i1 %cmp, label %for.body, label %for.end, !dbg !3250

for.body:                                         ; preds = %for.cond
  %m_dataArray = getelementptr inbounds %"class.xalanc_1_10::XalanMemMgrAutoPtrArray<unsigned short>::MemMgrAutoPtrArrayData", %"class.xalanc_1_10::XalanMemMgrAutoPtrArray<unsigned short>::MemMgrAutoPtrArrayData"* %this1, i32 0, i32 1, !dbg !3251
  %2 = load i16*, i16** %m_dataArray, align 8, !dbg !3251
  %3 = load i64, i64* %i, align 8, !dbg !3253
  %arrayidx = getelementptr inbounds i16, i16* %2, i64 %3, !dbg !3251
  br label %for.inc, !dbg !3254

for.inc:                                          ; preds = %for.body
  %4 = load i64, i64* %i, align 8, !dbg !3255
  %inc = add i64 %4, 1, !dbg !3255
  store i64 %inc, i64* %i, align 8, !dbg !3255
  br label %for.cond, !dbg !3256, !llvm.loop !3257

for.end:                                          ; preds = %for.cond
  %m_memoryManager = getelementptr inbounds %"class.xalanc_1_10::XalanMemMgrAutoPtrArray<unsigned short>::MemMgrAutoPtrArrayData", %"class.xalanc_1_10::XalanMemMgrAutoPtrArray<unsigned short>::MemMgrAutoPtrArrayData"* %this1, i32 0, i32 0, !dbg !3259
  %5 = load %"class.xercesc_2_7::MemoryManager"*, %"class.xercesc_2_7::MemoryManager"** %m_memoryManager, align 8, !dbg !3259
  %m_dataArray2 = getelementptr inbounds %"class.xalanc_1_10::XalanMemMgrAutoPtrArray<unsigned short>::MemMgrAutoPtrArrayData", %"class.xalanc_1_10::XalanMemMgrAutoPtrArray<unsigned short>::MemMgrAutoPtrArrayData"* %this1, i32 0, i32 1, !dbg !3260
  %6 = load i16*, i16** %m_dataArray2, align 8, !dbg !3260
  %7 = bitcast i16* %6 to i8*, !dbg !3260
  %8 = bitcast %"class.xercesc_2_7::MemoryManager"* %5 to void (%"class.xercesc_2_7::MemoryManager"*, i8*)***, !dbg !3261
  %vtable = load void (%"class.xercesc_2_7::MemoryManager"*, i8*)**, void (%"class.xercesc_2_7::MemoryManager"*, i8*)*** %8, align 8, !dbg !3261
  %vfn = getelementptr inbounds void (%"class.xercesc_2_7::MemoryManager"*, i8*)*, void (%"class.xercesc_2_7::MemoryManager"*, i8*)** %vtable, i64 3, !dbg !3261
  %9 = load void (%"class.xercesc_2_7::MemoryManager"*, i8*)*, void (%"class.xercesc_2_7::MemoryManager"*, i8*)** %vfn, align 8, !dbg !3261
  call void %9(%"class.xercesc_2_7::MemoryManager"* %5, i8* %7), !dbg !3261
  br label %if.end, !dbg !3262

if.end:                                           ; preds = %for.end, %entry
  ret void, !dbg !3263
}

; Function Attrs: noinline nounwind uwtable
define linkonce_odr dso_local zeroext i1 @_ZNK11xalanc_1_1023XalanMemMgrAutoPtrArrayItE22MemMgrAutoPtrArrayData12isInitilizedEv(%"class.xalanc_1_10::XalanMemMgrAutoPtrArray<unsigned short>::MemMgrAutoPtrArrayData"* %this) #3 comdat align 2 !dbg !3264 {
entry:
  %this.addr = alloca %"class.xalanc_1_10::XalanMemMgrAutoPtrArray<unsigned short>::MemMgrAutoPtrArrayData"*, align 8
  store %"class.xalanc_1_10::XalanMemMgrAutoPtrArray<unsigned short>::MemMgrAutoPtrArrayData"* %this, %"class.xalanc_1_10::XalanMemMgrAutoPtrArray<unsigned short>::MemMgrAutoPtrArrayData"** %this.addr, align 8
  call void @llvm.dbg.declare(metadata %"class.xalanc_1_10::XalanMemMgrAutoPtrArray<unsigned short>::MemMgrAutoPtrArrayData"** %this.addr, metadata !3265, metadata !DIExpression()), !dbg !3266
  %this1 = load %"class.xalanc_1_10::XalanMemMgrAutoPtrArray<unsigned short>::MemMgrAutoPtrArrayData"*, %"class.xalanc_1_10::XalanMemMgrAutoPtrArray<unsigned short>::MemMgrAutoPtrArrayData"** %this.addr, align 8
  %m_memoryManager = getelementptr inbounds %"class.xalanc_1_10::XalanMemMgrAutoPtrArray<unsigned short>::MemMgrAutoPtrArrayData", %"class.xalanc_1_10::XalanMemMgrAutoPtrArray<unsigned short>::MemMgrAutoPtrArrayData"* %this1, i32 0, i32 0, !dbg !3267
  %0 = load %"class.xercesc_2_7::MemoryManager"*, %"class.xercesc_2_7::MemoryManager"** %m_memoryManager, align 8, !dbg !3267
  %cmp = icmp ne %"class.xercesc_2_7::MemoryManager"* %0, null, !dbg !3268
  br i1 %cmp, label %land.lhs.true, label %land.end, !dbg !3269

land.lhs.true:                                    ; preds = %entry
  %m_dataArray = getelementptr inbounds %"class.xalanc_1_10::XalanMemMgrAutoPtrArray<unsigned short>::MemMgrAutoPtrArrayData", %"class.xalanc_1_10::XalanMemMgrAutoPtrArray<unsigned short>::MemMgrAutoPtrArrayData"* %this1, i32 0, i32 1, !dbg !3270
  %1 = load i16*, i16** %m_dataArray, align 8, !dbg !3270
  %cmp2 = icmp ne i16* %1, null, !dbg !3271
  br i1 %cmp2, label %land.rhs, label %land.end, !dbg !3272

land.rhs:                                         ; preds = %land.lhs.true
  %m_size = getelementptr inbounds %"class.xalanc_1_10::XalanMemMgrAutoPtrArray<unsigned short>::MemMgrAutoPtrArrayData", %"class.xalanc_1_10::XalanMemMgrAutoPtrArray<unsigned short>::MemMgrAutoPtrArrayData"* %this1, i32 0, i32 2, !dbg !3273
  %2 = load i64, i64* %m_size, align 8, !dbg !3273
  %cmp3 = icmp ne i64 %2, 0, !dbg !3274
  br label %land.end

land.end:                                         ; preds = %land.rhs, %land.lhs.true, %entry
  %3 = phi i1 [ false, %land.lhs.true ], [ false, %entry ], [ %cmp3, %land.rhs ], !dbg !3266
  ret i1 %3, !dbg !3275
}

attributes #0 = { noinline uwtable "correctly-rounded-divide-sqrt-fp-math"="false" "disable-tail-calls"="false" "frame-pointer"="all" "less-precise-fpmad"="false" "min-legal-vector-width"="0" "no-infs-fp-math"="false" "no-jump-tables"="false" "no-nans-fp-math"="false" "no-signed-zeros-fp-math"="false" "no-trapping-math"="false" "stack-protector-buffer-size"="8" "target-cpu"="x86-64" "target-features"="+cx8,+fxsr,+mmx,+sse,+sse2,+x87" "unsafe-fp-math"="false" "use-soft-float"="false" }
attributes #1 = { nounwind readnone speculatable willreturn }
attributes #2 = { "correctly-rounded-divide-sqrt-fp-math"="false" "disable-tail-calls"="false" "frame-pointer"="all" "less-precise-fpmad"="false" "no-infs-fp-math"="false" "no-nans-fp-math"="false" "no-signed-zeros-fp-math"="false" "no-trapping-math"="false" "stack-protector-buffer-size"="8" "target-cpu"="x86-64" "target-features"="+cx8,+fxsr,+mmx,+sse,+sse2,+x87" "unsafe-fp-math"="false" "use-soft-float"="false" }
attributes #3 = { noinline nounwind uwtable "correctly-rounded-divide-sqrt-fp-math"="false" "disable-tail-calls"="false" "frame-pointer"="all" "less-precise-fpmad"="false" "min-legal-vector-width"="0" "no-infs-fp-math"="false" "no-jump-tables"="false" "no-nans-fp-math"="false" "no-signed-zeros-fp-math"="false" "no-trapping-math"="false" "stack-protector-buffer-size"="8" "target-cpu"="x86-64" "target-features"="+cx8,+fxsr,+mmx,+sse,+sse2,+x87" "unsafe-fp-math"="false" "use-soft-float"="false" }
attributes #4 = { nobuiltin nounwind "correctly-rounded-divide-sqrt-fp-math"="false" "disable-tail-calls"="false" "frame-pointer"="all" "less-precise-fpmad"="false" "no-infs-fp-math"="false" "no-nans-fp-math"="false" "no-signed-zeros-fp-math"="false" "no-trapping-math"="false" "stack-protector-buffer-size"="8" "target-cpu"="x86-64" "target-features"="+cx8,+fxsr,+mmx,+sse,+sse2,+x87" "unsafe-fp-math"="false" "use-soft-float"="false" }
attributes #5 = { noinline noreturn nounwind }
attributes #6 = { argmemonly nounwind willreturn }
attributes #7 = { nounwind }
attributes #8 = { builtin nounwind }
attributes #9 = { noreturn nounwind }

!llvm.dbg.cu = !{!852}
!llvm.module.flags = !{!1817, !1818, !1819}
!llvm.ident = !{!1820}

!0 = !DIGlobalVariableExpression(var: !1, expr: !DIExpression())
!1 = distinct !DIGlobalVariable(name: "s_defaultGroupingSeparator", linkageName: "_ZN11xalanc_1_1017XalanNumberFormat26s_defaultGroupingSeparatorE", scope: !2, file: !3, line: 36, type: !4, isLocal: false, isDefinition: true, declaration: !11)
!2 = !DINamespace(name: "xalanc_1_10", scope: null)
!3 = !DIFile(filename: "XalanNumberFormat.cpp", directory: "/home/venkat/IF-DV/spec_build_release/CPU_2017/benchspec/CPU/523.xalancbmk_r/build/build_base_ld-loop-ext-m64.0000")
!4 = !DICompositeType(tag: DW_TAG_array_type, baseType: !5, size: 32, elements: !9)
!5 = !DIDerivedType(tag: DW_TAG_const_type, baseType: !6)
!6 = !DIDerivedType(tag: DW_TAG_typedef, name: "XalanDOMChar", scope: !2, file: !7, line: 127, baseType: !8)
!7 = !DIFile(filename: "./xalanc/Include/PlatformDefinitions.hpp", directory: "/home/venkat/IF-DV/spec_build_release/CPU_2017/benchspec/CPU/523.xalancbmk_r/build/build_base_ld-loop-ext-m64.0000")
!8 = !DIBasicType(name: "unsigned short", size: 16, encoding: DW_ATE_unsigned)
!9 = !{!10}
!10 = !DISubrange(count: 2)
!11 = !DIDerivedType(tag: DW_TAG_member, name: "s_defaultGroupingSeparator", scope: !13, file: !12, line: 176, baseType: !849, flags: DIFlagStaticMember)
!12 = !DIFile(filename: "./xalanc/PlatformSupport/XalanNumberFormat.hpp", directory: "/home/venkat/IF-DV/spec_build_release/CPU_2017/benchspec/CPU/523.xalancbmk_r/build/build_base_ld-loop-ext-m64.0000")
!13 = distinct !DICompositeType(tag: DW_TAG_class_type, name: "XalanNumberFormat", scope: !2, file: !12, line: 34, size: 512, flags: DIFlagTypePassByReference | DIFlagNonTrivial, elements: !14, vtableHolder: !13)
!14 = !{!15, !21, !23, !790, !11, !791, !795, !799, !802, !805, !809, !812, !815, !818, !821, !826, !829, !832, !835, !838, !842, !846}
!15 = !DIDerivedType(tag: DW_TAG_member, name: "_vptr$XalanNumberFormat", scope: !12, file: !12, baseType: !16, size: 64, flags: DIFlagArtificial)
!16 = !DIDerivedType(tag: DW_TAG_pointer_type, baseType: !17, size: 64)
!17 = !DIDerivedType(tag: DW_TAG_pointer_type, name: "__vtbl_ptr_type", baseType: !18, size: 64)
!18 = !DISubroutineType(types: !19)
!19 = !{!20}
!20 = !DIBasicType(name: "int", size: 32, encoding: DW_ATE_signed)
!21 = !DIDerivedType(tag: DW_TAG_member, name: "m_isGroupingUsed", scope: !13, file: !12, line: 170, baseType: !22, size: 8, offset: 64)
!22 = !DIBasicType(name: "bool", size: 8, encoding: DW_ATE_boolean)
!23 = !DIDerivedType(tag: DW_TAG_member, name: "m_groupingSeparator", scope: !13, file: !12, line: 172, baseType: !24, size: 320, offset: 128)
!24 = distinct !DICompositeType(tag: DW_TAG_class_type, name: "XalanDOMString", scope: !2, file: !25, line: 42, size: 320, flags: DIFlagTypePassByReference | DIFlagNonTrivial, elements: !26, identifier: "_ZTSN11xalanc_1_1014XalanDOMStringE")
!25 = !DIFile(filename: "./xalanc/XalanDOM/XalanDOMString.hpp", directory: "/home/venkat/IF-DV/spec_build_release/CPU_2017/benchspec/CPU/523.xalancbmk_r/build/build_base_ld-loop-ext-m64.0000")
!26 = !{!27, !31, !379, !380, !381, !387, !393, !398, !402, !405, !409, !412, !416, !419, !422, !425, !429, !434, !435, !436, !440, !444, !445, !446, !449, !450, !451, !454, !457, !458, !459, !460, !463, !466, !471, !476, !477, !478, !481, !482, !485, !486, !487, !488, !489, !492, !493, !496, !499, !500, !503, !506, !507, !508, !509, !510, !511, !512, !513, !516, !519, !522, !525, !528, !531, !534, !537, !540, !543, !546, !549, !552, !555, !558, !561, !564, !751, !754, !755, !758, !761, !764, !767, !770, !773, !776, !779, !782, !783, !784, !787}
!27 = !DIDerivedType(tag: DW_TAG_member, name: "npos", scope: !24, file: !25, line: 61, baseType: !28, flags: DIFlagPublic | DIFlagStaticMember, extraData: i32 -1)
!28 = !DIDerivedType(tag: DW_TAG_const_type, baseType: !29)
!29 = !DIDerivedType(tag: DW_TAG_typedef, name: "size_type", scope: !24, file: !25, line: 53, baseType: !30)
!30 = !DIBasicType(name: "unsigned int", size: 32, encoding: DW_ATE_unsigned)
!31 = !DIDerivedType(tag: DW_TAG_member, name: "m_data", scope: !24, file: !25, line: 793, baseType: !32, size: 256)
!32 = !DIDerivedType(tag: DW_TAG_typedef, name: "XalanDOMCharVectorType", scope: !24, file: !25, line: 45, baseType: !33)
!33 = distinct !DICompositeType(tag: DW_TAG_class_type, name: "XalanVector<unsigned short, xalanc_1_10::MemoryManagedConstructionTraits<unsigned short> >", scope: !2, file: !34, line: 61, size: 256, flags: DIFlagTypePassByReference | DIFlagNonTrivial, elements: !35, templateParams: !372, identifier: "_ZTSN11xalanc_1_1011XalanVectorItNS_31MemoryManagedConstructionTraitsItEEEE")
!34 = !DIFile(filename: "./xalanc/Include/XalanVector.hpp", directory: "/home/venkat/IF-DV/spec_build_release/CPU_2017/benchspec/CPU/523.xalancbmk_r/build/build_base_ld-loop-ext-m64.0000")
!35 = !{!36, !41, !46, !47, !50, !55, !59, !65, !71, !74, !78, !81, !84, !85, !89, !92, !95, !98, !101, !104, !107, !110, !115, !116, !119, !120, !121, !124, !125, !130, !134, !135, !136, !139, !142, !143, !144, !234, !305, !306, !307, !310, !313, !314, !315, !316, !320, !323, !328, !331, !335, !338, !342, !345, !348, !351, !354, !355, !358, !359, !360, !364, !367, !368, !369}
!36 = !DIDerivedType(tag: DW_TAG_member, name: "m_memoryManager", scope: !33, file: !34, line: 1087, baseType: !37, size: 64)
!37 = !DIDerivedType(tag: DW_TAG_pointer_type, baseType: !38, size: 64)
!38 = !DICompositeType(tag: DW_TAG_class_type, name: "MemoryManager", scope: !40, file: !39, line: 38, flags: DIFlagFwdDecl, identifier: "_ZTSN11xercesc_2_713MemoryManagerE")
!39 = !DIFile(filename: "./xercesc/framework/MemoryManager.hpp", directory: "/home/venkat/IF-DV/spec_build_release/CPU_2017/benchspec/CPU/523.xalancbmk_r/build/build_base_ld-loop-ext-m64.0000")
!40 = !DINamespace(name: "xercesc_2_7", scope: null)
!41 = !DIDerivedType(tag: DW_TAG_member, name: "m_size", scope: !33, file: !34, line: 1089, baseType: !42, size: 64, offset: 64)
!42 = !DIDerivedType(tag: DW_TAG_typedef, name: "size_type", file: !34, line: 71, baseType: !43)
!43 = !DIDerivedType(tag: DW_TAG_typedef, name: "size_t", file: !44, line: 46, baseType: !45)
!44 = !DIFile(filename: "Rohit/IR2Vec-LoopOptimizationFramework/build_REL_AsrtON/lib/clang/10.0.1/include/stddef.h", directory: "/home/venkat/IF-DV")
!45 = !DIBasicType(name: "long unsigned int", size: 64, encoding: DW_ATE_unsigned)
!46 = !DIDerivedType(tag: DW_TAG_member, name: "m_allocation", scope: !33, file: !34, line: 1091, baseType: !42, size: 64, offset: 128)
!47 = !DIDerivedType(tag: DW_TAG_member, name: "m_data", scope: !33, file: !34, line: 1093, baseType: !48, size: 64, offset: 192)
!48 = !DIDerivedType(tag: DW_TAG_pointer_type, baseType: !49, size: 64)
!49 = !DIDerivedType(tag: DW_TAG_typedef, name: "value_type", scope: !33, file: !34, line: 66, baseType: !8)
!50 = !DISubprogram(name: "XalanVector", scope: !33, file: !34, line: 120, type: !51, scopeLine: 120, flags: DIFlagPublic | DIFlagPrototyped, spFlags: 0)
!51 = !DISubroutineType(types: !52)
!52 = !{null, !53, !54, !42}
!53 = !DIDerivedType(tag: DW_TAG_pointer_type, baseType: !33, size: 64, flags: DIFlagArtificial | DIFlagObjectPointer)
!54 = !DIDerivedType(tag: DW_TAG_reference_type, baseType: !38, size: 64)
!55 = !DISubprogram(name: "create", linkageName: "_ZN11xalanc_1_1011XalanVectorItNS_31MemoryManagedConstructionTraitsItEEE6createERN11xercesc_2_713MemoryManagerEm", scope: !33, file: !34, line: 132, type: !56, scopeLine: 132, flags: DIFlagPublic | DIFlagPrototyped | DIFlagStaticMember, spFlags: 0)
!56 = !DISubroutineType(types: !57)
!57 = !{!58, !54, !42}
!58 = !DIDerivedType(tag: DW_TAG_pointer_type, baseType: !33, size: 64)
!59 = !DISubprogram(name: "XalanVector", scope: !33, file: !34, line: 149, type: !60, scopeLine: 149, flags: DIFlagPublic | DIFlagPrototyped, spFlags: 0)
!60 = !DISubroutineType(types: !61)
!61 = !{null, !53, !62, !54, !42}
!62 = !DIDerivedType(tag: DW_TAG_reference_type, baseType: !63, size: 64)
!63 = !DIDerivedType(tag: DW_TAG_const_type, baseType: !64)
!64 = !DIDerivedType(tag: DW_TAG_typedef, name: "ThisType", scope: !33, file: !34, line: 115, baseType: !33)
!65 = !DISubprogram(name: "XalanVector", scope: !33, file: !34, line: 177, type: !66, scopeLine: 177, flags: DIFlagPublic | DIFlagPrototyped, spFlags: 0)
!66 = !DISubroutineType(types: !67)
!67 = !{null, !53, !68, !68, !54}
!68 = !DIDerivedType(tag: DW_TAG_typedef, name: "const_iterator", scope: !33, file: !34, line: 92, baseType: !69)
!69 = !DIDerivedType(tag: DW_TAG_pointer_type, baseType: !70, size: 64)
!70 = !DIDerivedType(tag: DW_TAG_const_type, baseType: !49)
!71 = !DISubprogram(name: "create", linkageName: "_ZN11xalanc_1_1011XalanVectorItNS_31MemoryManagedConstructionTraitsItEEE6createEPKtS5_RN11xercesc_2_713MemoryManagerE", scope: !33, file: !34, line: 197, type: !72, scopeLine: 197, flags: DIFlagPublic | DIFlagPrototyped | DIFlagStaticMember, spFlags: 0)
!72 = !DISubroutineType(types: !73)
!73 = !{!58, !68, !68, !54}
!74 = !DISubprogram(name: "XalanVector", scope: !33, file: !34, line: 215, type: !75, scopeLine: 215, flags: DIFlagPublic | DIFlagPrototyped, spFlags: 0)
!75 = !DISubroutineType(types: !76)
!76 = !{null, !53, !42, !77, !54}
!77 = !DIDerivedType(tag: DW_TAG_reference_type, baseType: !70, size: 64)
!78 = !DISubprogram(name: "~XalanVector", scope: !33, file: !34, line: 233, type: !79, scopeLine: 233, flags: DIFlagPublic | DIFlagPrototyped, spFlags: 0)
!79 = !DISubroutineType(types: !80)
!80 = !{null, !53}
!81 = !DISubprogram(name: "push_back", linkageName: "_ZN11xalanc_1_1011XalanVectorItNS_31MemoryManagedConstructionTraitsItEEE9push_backERKt", scope: !33, file: !34, line: 246, type: !82, scopeLine: 246, flags: DIFlagPublic | DIFlagPrototyped, spFlags: 0)
!82 = !DISubroutineType(types: !83)
!83 = !{null, !53, !77}
!84 = !DISubprogram(name: "pop_back", linkageName: "_ZN11xalanc_1_1011XalanVectorItNS_31MemoryManagedConstructionTraitsItEEE8pop_backEv", scope: !33, file: !34, line: 256, type: !79, scopeLine: 256, flags: DIFlagPublic | DIFlagPrototyped, spFlags: 0)
!85 = !DISubprogram(name: "erase", linkageName: "_ZN11xalanc_1_1011XalanVectorItNS_31MemoryManagedConstructionTraitsItEEE5eraseEPtS4_", scope: !33, file: !34, line: 268, type: !86, scopeLine: 268, flags: DIFlagPublic | DIFlagPrototyped, spFlags: 0)
!86 = !DISubroutineType(types: !87)
!87 = !{!88, !53, !88, !88}
!88 = !DIDerivedType(tag: DW_TAG_typedef, name: "iterator", scope: !33, file: !34, line: 91, baseType: !48)
!89 = !DISubprogram(name: "erase", linkageName: "_ZN11xalanc_1_1011XalanVectorItNS_31MemoryManagedConstructionTraitsItEEE5eraseEPt", scope: !33, file: !34, line: 290, type: !90, scopeLine: 290, flags: DIFlagPublic | DIFlagPrototyped, spFlags: 0)
!90 = !DISubroutineType(types: !91)
!91 = !{!88, !53, !88}
!92 = !DISubprogram(name: "insert", linkageName: "_ZN11xalanc_1_1011XalanVectorItNS_31MemoryManagedConstructionTraitsItEEE6insertEPtPKtS6_", scope: !33, file: !34, line: 296, type: !93, scopeLine: 296, flags: DIFlagPublic | DIFlagPrototyped, spFlags: 0)
!93 = !DISubroutineType(types: !94)
!94 = !{null, !53, !88, !68, !68}
!95 = !DISubprogram(name: "insert", linkageName: "_ZN11xalanc_1_1011XalanVectorItNS_31MemoryManagedConstructionTraitsItEEE6insertEPtmRKt", scope: !33, file: !34, line: 415, type: !96, scopeLine: 415, flags: DIFlagPublic | DIFlagPrototyped, spFlags: 0)
!96 = !DISubroutineType(types: !97)
!97 = !{null, !53, !88, !42, !77}
!98 = !DISubprogram(name: "insert", linkageName: "_ZN11xalanc_1_1011XalanVectorItNS_31MemoryManagedConstructionTraitsItEEE6insertEPtRKt", scope: !33, file: !34, line: 516, type: !99, scopeLine: 516, flags: DIFlagPublic | DIFlagPrototyped, spFlags: 0)
!99 = !DISubroutineType(types: !100)
!100 = !{!88, !53, !88, !77}
!101 = !DISubprogram(name: "assign", linkageName: "_ZN11xalanc_1_1011XalanVectorItNS_31MemoryManagedConstructionTraitsItEEE6assignEPKtS5_", scope: !33, file: !34, line: 538, type: !102, scopeLine: 538, flags: DIFlagPublic | DIFlagPrototyped, spFlags: 0)
!102 = !DISubroutineType(types: !103)
!103 = !{null, !53, !68, !68}
!104 = !DISubprogram(name: "assign", linkageName: "_ZN11xalanc_1_1011XalanVectorItNS_31MemoryManagedConstructionTraitsItEEE6assignEPtS4_", scope: !33, file: !34, line: 551, type: !105, scopeLine: 551, flags: DIFlagPublic | DIFlagPrototyped, spFlags: 0)
!105 = !DISubroutineType(types: !106)
!106 = !{null, !53, !88, !88}
!107 = !DISubprogram(name: "assign", linkageName: "_ZN11xalanc_1_1011XalanVectorItNS_31MemoryManagedConstructionTraitsItEEE6assignEmRKt", scope: !33, file: !34, line: 561, type: !108, scopeLine: 561, flags: DIFlagPublic | DIFlagPrototyped, spFlags: 0)
!108 = !DISubroutineType(types: !109)
!109 = !{null, !53, !42, !77}
!110 = !DISubprogram(name: "size", linkageName: "_ZNK11xalanc_1_1011XalanVectorItNS_31MemoryManagedConstructionTraitsItEEE4sizeEv", scope: !33, file: !34, line: 571, type: !111, scopeLine: 571, flags: DIFlagPublic | DIFlagPrototyped, spFlags: 0)
!111 = !DISubroutineType(types: !112)
!112 = !{!42, !113}
!113 = !DIDerivedType(tag: DW_TAG_pointer_type, baseType: !114, size: 64, flags: DIFlagArtificial | DIFlagObjectPointer)
!114 = !DIDerivedType(tag: DW_TAG_const_type, baseType: !33)
!115 = !DISubprogram(name: "max_size", linkageName: "_ZNK11xalanc_1_1011XalanVectorItNS_31MemoryManagedConstructionTraitsItEEE8max_sizeEv", scope: !33, file: !34, line: 579, type: !111, scopeLine: 579, flags: DIFlagPublic | DIFlagPrototyped, spFlags: 0)
!116 = !DISubprogram(name: "resize", linkageName: "_ZN11xalanc_1_1011XalanVectorItNS_31MemoryManagedConstructionTraitsItEEE6resizeEm", scope: !33, file: !34, line: 587, type: !117, scopeLine: 587, flags: DIFlagPublic | DIFlagPrototyped, spFlags: 0)
!117 = !DISubroutineType(types: !118)
!118 = !{null, !53, !42}
!119 = !DISubprogram(name: "resize", linkageName: "_ZN11xalanc_1_1011XalanVectorItNS_31MemoryManagedConstructionTraitsItEEE6resizeEmRKt", scope: !33, file: !34, line: 595, type: !108, scopeLine: 595, flags: DIFlagPublic | DIFlagPrototyped, spFlags: 0)
!120 = !DISubprogram(name: "capacity", linkageName: "_ZNK11xalanc_1_1011XalanVectorItNS_31MemoryManagedConstructionTraitsItEEE8capacityEv", scope: !33, file: !34, line: 628, type: !111, scopeLine: 628, flags: DIFlagPublic | DIFlagPrototyped, spFlags: 0)
!121 = !DISubprogram(name: "empty", linkageName: "_ZNK11xalanc_1_1011XalanVectorItNS_31MemoryManagedConstructionTraitsItEEE5emptyEv", scope: !33, file: !34, line: 636, type: !122, scopeLine: 636, flags: DIFlagPublic | DIFlagPrototyped, spFlags: 0)
!122 = !DISubroutineType(types: !123)
!123 = !{!22, !113}
!124 = !DISubprogram(name: "reserve", linkageName: "_ZN11xalanc_1_1011XalanVectorItNS_31MemoryManagedConstructionTraitsItEEE7reserveEm", scope: !33, file: !34, line: 644, type: !117, scopeLine: 644, flags: DIFlagPublic | DIFlagPrototyped, spFlags: 0)
!125 = !DISubprogram(name: "front", linkageName: "_ZN11xalanc_1_1011XalanVectorItNS_31MemoryManagedConstructionTraitsItEEE5frontEv", scope: !33, file: !34, line: 657, type: !126, scopeLine: 657, flags: DIFlagPublic | DIFlagPrototyped, spFlags: 0)
!126 = !DISubroutineType(types: !127)
!127 = !{!128, !53}
!128 = !DIDerivedType(tag: DW_TAG_typedef, name: "reference", scope: !33, file: !34, line: 69, baseType: !129)
!129 = !DIDerivedType(tag: DW_TAG_reference_type, baseType: !49, size: 64)
!130 = !DISubprogram(name: "front", linkageName: "_ZNK11xalanc_1_1011XalanVectorItNS_31MemoryManagedConstructionTraitsItEEE5frontEv", scope: !33, file: !34, line: 665, type: !131, scopeLine: 665, flags: DIFlagPublic | DIFlagPrototyped, spFlags: 0)
!131 = !DISubroutineType(types: !132)
!132 = !{!133, !113}
!133 = !DIDerivedType(tag: DW_TAG_typedef, name: "const_reference", scope: !33, file: !34, line: 70, baseType: !77)
!134 = !DISubprogram(name: "back", linkageName: "_ZN11xalanc_1_1011XalanVectorItNS_31MemoryManagedConstructionTraitsItEEE4backEv", scope: !33, file: !34, line: 673, type: !126, scopeLine: 673, flags: DIFlagPublic | DIFlagPrototyped, spFlags: 0)
!135 = !DISubprogram(name: "back", linkageName: "_ZNK11xalanc_1_1011XalanVectorItNS_31MemoryManagedConstructionTraitsItEEE4backEv", scope: !33, file: !34, line: 679, type: !131, scopeLine: 679, flags: DIFlagPublic | DIFlagPrototyped, spFlags: 0)
!136 = !DISubprogram(name: "begin", linkageName: "_ZN11xalanc_1_1011XalanVectorItNS_31MemoryManagedConstructionTraitsItEEE5beginEv", scope: !33, file: !34, line: 685, type: !137, scopeLine: 685, flags: DIFlagPublic | DIFlagPrototyped, spFlags: 0)
!137 = !DISubroutineType(types: !138)
!138 = !{!88, !53}
!139 = !DISubprogram(name: "begin", linkageName: "_ZNK11xalanc_1_1011XalanVectorItNS_31MemoryManagedConstructionTraitsItEEE5beginEv", scope: !33, file: !34, line: 693, type: !140, scopeLine: 693, flags: DIFlagPublic | DIFlagPrototyped, spFlags: 0)
!140 = !DISubroutineType(types: !141)
!141 = !{!68, !113}
!142 = !DISubprogram(name: "end", linkageName: "_ZN11xalanc_1_1011XalanVectorItNS_31MemoryManagedConstructionTraitsItEEE3endEv", scope: !33, file: !34, line: 701, type: !137, scopeLine: 701, flags: DIFlagPublic | DIFlagPrototyped, spFlags: 0)
!143 = !DISubprogram(name: "end", linkageName: "_ZNK11xalanc_1_1011XalanVectorItNS_31MemoryManagedConstructionTraitsItEEE3endEv", scope: !33, file: !34, line: 709, type: !140, scopeLine: 709, flags: DIFlagPublic | DIFlagPrototyped, spFlags: 0)
!144 = !DISubprogram(name: "rbegin", linkageName: "_ZN11xalanc_1_1011XalanVectorItNS_31MemoryManagedConstructionTraitsItEEE6rbeginEv", scope: !33, file: !34, line: 717, type: !145, scopeLine: 717, flags: DIFlagPublic | DIFlagPrototyped, spFlags: 0)
!145 = !DISubroutineType(types: !146)
!146 = !{!147, !53}
!147 = !DIDerivedType(tag: DW_TAG_typedef, name: "reverse_iterator", scope: !33, file: !34, line: 112, baseType: !148)
!148 = !DIDerivedType(tag: DW_TAG_typedef, name: "reverse_iterator_", scope: !33, file: !34, line: 96, baseType: !149)
!149 = distinct !DICompositeType(tag: DW_TAG_class_type, name: "reverse_iterator<unsigned short *>", scope: !151, file: !150, line: 125, size: 64, flags: DIFlagTypePassByReference | DIFlagNonTrivial, elements: !152, templateParams: !204, identifier: "_ZTSSt16reverse_iteratorIPtE")
!150 = !DIFile(filename: "/usr/lib/gcc/x86_64-linux-gnu/10/../../../../include/c++/10/bits/stl_iterator.h", directory: "")
!151 = !DINamespace(name: "std", scope: null)
!152 = !{!153, !176, !177, !181, !185, !190, !194, !198, !206, !211, !214, !217, !218, !219, !226, !229, !230, !231}
!153 = !DIDerivedType(tag: DW_TAG_inheritance, scope: !149, baseType: !154, flags: DIFlagPublic, extraData: i32 0)
!154 = distinct !DICompositeType(tag: DW_TAG_structure_type, name: "iterator<std::random_access_iterator_tag, unsigned short, long, unsigned short *, unsigned short &>", scope: !151, file: !155, line: 127, size: 8, flags: DIFlagTypePassByValue, elements: !156, templateParams: !157, identifier: "_ZTSSt8iteratorISt26random_access_iterator_tagtlPtRtE")
!155 = !DIFile(filename: "/usr/lib/gcc/x86_64-linux-gnu/10/../../../../include/c++/10/bits/stl_iterator_base_types.h", directory: "")
!156 = !{}
!157 = !{!158, !169, !170, !172, !174}
!158 = !DITemplateTypeParameter(name: "_Category", type: !159)
!159 = distinct !DICompositeType(tag: DW_TAG_structure_type, name: "random_access_iterator_tag", scope: !151, file: !155, line: 107, size: 8, flags: DIFlagTypePassByValue, elements: !160, identifier: "_ZTSSt26random_access_iterator_tag")
!160 = !{!161}
!161 = !DIDerivedType(tag: DW_TAG_inheritance, scope: !159, baseType: !162, extraData: i32 0)
!162 = distinct !DICompositeType(tag: DW_TAG_structure_type, name: "bidirectional_iterator_tag", scope: !151, file: !155, line: 103, size: 8, flags: DIFlagTypePassByValue, elements: !163, identifier: "_ZTSSt26bidirectional_iterator_tag")
!163 = !{!164}
!164 = !DIDerivedType(tag: DW_TAG_inheritance, scope: !162, baseType: !165, extraData: i32 0)
!165 = distinct !DICompositeType(tag: DW_TAG_structure_type, name: "forward_iterator_tag", scope: !151, file: !155, line: 99, size: 8, flags: DIFlagTypePassByValue, elements: !166, identifier: "_ZTSSt20forward_iterator_tag")
!166 = !{!167}
!167 = !DIDerivedType(tag: DW_TAG_inheritance, scope: !165, baseType: !168, extraData: i32 0)
!168 = distinct !DICompositeType(tag: DW_TAG_structure_type, name: "input_iterator_tag", scope: !151, file: !155, line: 93, size: 8, flags: DIFlagTypePassByValue, elements: !156, identifier: "_ZTSSt18input_iterator_tag")
!169 = !DITemplateTypeParameter(name: "_Tp", type: !8)
!170 = !DITemplateTypeParameter(name: "_Distance", type: !171)
!171 = !DIBasicType(name: "long int", size: 64, encoding: DW_ATE_signed)
!172 = !DITemplateTypeParameter(name: "_Pointer", type: !173)
!173 = !DIDerivedType(tag: DW_TAG_pointer_type, baseType: !8, size: 64)
!174 = !DITemplateTypeParameter(name: "_Reference", type: !175)
!175 = !DIDerivedType(tag: DW_TAG_reference_type, baseType: !8, size: 64)
!176 = !DIDerivedType(tag: DW_TAG_member, name: "current", scope: !149, file: !150, line: 133, baseType: !173, size: 64, flags: DIFlagProtected)
!177 = !DISubprogram(name: "reverse_iterator", scope: !149, file: !150, line: 161, type: !178, scopeLine: 161, flags: DIFlagPublic | DIFlagPrototyped, spFlags: 0)
!178 = !DISubroutineType(types: !179)
!179 = !{null, !180}
!180 = !DIDerivedType(tag: DW_TAG_pointer_type, baseType: !149, size: 64, flags: DIFlagArtificial | DIFlagObjectPointer)
!181 = !DISubprogram(name: "reverse_iterator", scope: !149, file: !150, line: 167, type: !182, scopeLine: 167, flags: DIFlagPublic | DIFlagExplicit | DIFlagPrototyped, spFlags: 0)
!182 = !DISubroutineType(types: !183)
!183 = !{null, !180, !184}
!184 = !DIDerivedType(tag: DW_TAG_typedef, name: "iterator_type", scope: !149, file: !150, line: 138, baseType: !173)
!185 = !DISubprogram(name: "reverse_iterator", scope: !149, file: !150, line: 173, type: !186, scopeLine: 173, flags: DIFlagPublic | DIFlagPrototyped, spFlags: 0)
!186 = !DISubroutineType(types: !187)
!187 = !{null, !180, !188}
!188 = !DIDerivedType(tag: DW_TAG_reference_type, baseType: !189, size: 64)
!189 = !DIDerivedType(tag: DW_TAG_const_type, baseType: !149)
!190 = !DISubprogram(name: "operator=", linkageName: "_ZNSt16reverse_iteratorIPtEaSERKS1_", scope: !149, file: !150, line: 177, type: !191, scopeLine: 177, flags: DIFlagPublic | DIFlagPrototyped, spFlags: 0)
!191 = !DISubroutineType(types: !192)
!192 = !{!193, !180, !188}
!193 = !DIDerivedType(tag: DW_TAG_reference_type, baseType: !149, size: 64)
!194 = !DISubprogram(name: "base", linkageName: "_ZNKSt16reverse_iteratorIPtE4baseEv", scope: !149, file: !150, line: 193, type: !195, scopeLine: 193, flags: DIFlagPublic | DIFlagPrototyped, spFlags: 0)
!195 = !DISubroutineType(types: !196)
!196 = !{!184, !197}
!197 = !DIDerivedType(tag: DW_TAG_pointer_type, baseType: !189, size: 64, flags: DIFlagArtificial | DIFlagObjectPointer)
!198 = !DISubprogram(name: "operator*", linkageName: "_ZNKSt16reverse_iteratorIPtEdeEv", scope: !149, file: !150, line: 207, type: !199, scopeLine: 207, flags: DIFlagPublic | DIFlagPrototyped, spFlags: 0)
!199 = !DISubroutineType(types: !200)
!200 = !{!201, !197}
!201 = !DIDerivedType(tag: DW_TAG_typedef, name: "reference", scope: !149, file: !150, line: 141, baseType: !202)
!202 = !DIDerivedType(tag: DW_TAG_typedef, name: "reference", scope: !203, file: !155, line: 216, baseType: !175)
!203 = distinct !DICompositeType(tag: DW_TAG_structure_type, name: "iterator_traits<unsigned short *>", scope: !151, file: !155, line: 210, size: 8, flags: DIFlagTypePassByValue, elements: !156, templateParams: !204, identifier: "_ZTSSt15iterator_traitsIPtE")
!204 = !{!205}
!205 = !DITemplateTypeParameter(name: "_Iterator", type: !173)
!206 = !DISubprogram(name: "operator->", linkageName: "_ZNKSt16reverse_iteratorIPtEptEv", scope: !149, file: !150, line: 219, type: !207, scopeLine: 219, flags: DIFlagPublic | DIFlagPrototyped, spFlags: 0)
!207 = !DISubroutineType(types: !208)
!208 = !{!209, !197}
!209 = !DIDerivedType(tag: DW_TAG_typedef, name: "pointer", scope: !149, file: !150, line: 140, baseType: !210)
!210 = !DIDerivedType(tag: DW_TAG_typedef, name: "pointer", scope: !203, file: !155, line: 215, baseType: !173)
!211 = !DISubprogram(name: "operator++", linkageName: "_ZNSt16reverse_iteratorIPtEppEv", scope: !149, file: !150, line: 238, type: !212, scopeLine: 238, flags: DIFlagPublic | DIFlagPrototyped, spFlags: 0)
!212 = !DISubroutineType(types: !213)
!213 = !{!193, !180}
!214 = !DISubprogram(name: "operator++", linkageName: "_ZNSt16reverse_iteratorIPtEppEi", scope: !149, file: !150, line: 250, type: !215, scopeLine: 250, flags: DIFlagPublic | DIFlagPrototyped, spFlags: 0)
!215 = !DISubroutineType(types: !216)
!216 = !{!149, !180, !20}
!217 = !DISubprogram(name: "operator--", linkageName: "_ZNSt16reverse_iteratorIPtEmmEv", scope: !149, file: !150, line: 263, type: !212, scopeLine: 263, flags: DIFlagPublic | DIFlagPrototyped, spFlags: 0)
!218 = !DISubprogram(name: "operator--", linkageName: "_ZNSt16reverse_iteratorIPtEmmEi", scope: !149, file: !150, line: 275, type: !215, scopeLine: 275, flags: DIFlagPublic | DIFlagPrototyped, spFlags: 0)
!219 = !DISubprogram(name: "operator+", linkageName: "_ZNKSt16reverse_iteratorIPtEplEl", scope: !149, file: !150, line: 288, type: !220, scopeLine: 288, flags: DIFlagPublic | DIFlagPrototyped, spFlags: 0)
!220 = !DISubroutineType(types: !221)
!221 = !{!149, !197, !222}
!222 = !DIDerivedType(tag: DW_TAG_typedef, name: "difference_type", scope: !149, file: !150, line: 139, baseType: !223)
!223 = !DIDerivedType(tag: DW_TAG_typedef, name: "difference_type", scope: !203, file: !155, line: 214, baseType: !224)
!224 = !DIDerivedType(tag: DW_TAG_typedef, name: "ptrdiff_t", scope: !151, file: !225, line: 261, baseType: !171)
!225 = !DIFile(filename: "/usr/lib/gcc/x86_64-linux-gnu/10/../../../../include/x86_64-linux-gnu/c++/10/bits/c++config.h", directory: "")
!226 = !DISubprogram(name: "operator+=", linkageName: "_ZNSt16reverse_iteratorIPtEpLEl", scope: !149, file: !150, line: 298, type: !227, scopeLine: 298, flags: DIFlagPublic | DIFlagPrototyped, spFlags: 0)
!227 = !DISubroutineType(types: !228)
!228 = !{!193, !180, !222}
!229 = !DISubprogram(name: "operator-", linkageName: "_ZNKSt16reverse_iteratorIPtEmiEl", scope: !149, file: !150, line: 310, type: !220, scopeLine: 310, flags: DIFlagPublic | DIFlagPrototyped, spFlags: 0)
!230 = !DISubprogram(name: "operator-=", linkageName: "_ZNSt16reverse_iteratorIPtEmIEl", scope: !149, file: !150, line: 320, type: !227, scopeLine: 320, flags: DIFlagPublic | DIFlagPrototyped, spFlags: 0)
!231 = !DISubprogram(name: "operator[]", linkageName: "_ZNKSt16reverse_iteratorIPtEixEl", scope: !149, file: !150, line: 332, type: !232, scopeLine: 332, flags: DIFlagPublic | DIFlagPrototyped, spFlags: 0)
!232 = !DISubroutineType(types: !233)
!233 = !{!201, !197, !222}
!234 = !DISubprogram(name: "rbegin", linkageName: "_ZNK11xalanc_1_1011XalanVectorItNS_31MemoryManagedConstructionTraitsItEEE6rbeginEv", scope: !33, file: !34, line: 725, type: !235, scopeLine: 725, flags: DIFlagPublic | DIFlagPrototyped, spFlags: 0)
!235 = !DISubroutineType(types: !236)
!236 = !{!237, !113}
!237 = !DIDerivedType(tag: DW_TAG_typedef, name: "const_reverse_iterator", scope: !33, file: !34, line: 113, baseType: !238)
!238 = !DIDerivedType(tag: DW_TAG_typedef, name: "const_reverse_iterator_", scope: !33, file: !34, line: 97, baseType: !239)
!239 = distinct !DICompositeType(tag: DW_TAG_class_type, name: "reverse_iterator<const unsigned short *>", scope: !151, file: !150, line: 125, size: 64, flags: DIFlagTypePassByReference | DIFlagNonTrivial, elements: !240, templateParams: !277, identifier: "_ZTSSt16reverse_iteratorIPKtE")
!240 = !{!241, !249, !250, !254, !258, !263, !267, !271, !279, !284, !287, !290, !291, !292, !297, !300, !301, !302}
!241 = !DIDerivedType(tag: DW_TAG_inheritance, scope: !239, baseType: !242, flags: DIFlagPublic, extraData: i32 0)
!242 = distinct !DICompositeType(tag: DW_TAG_structure_type, name: "iterator<std::random_access_iterator_tag, unsigned short, long, const unsigned short *, const unsigned short &>", scope: !151, file: !155, line: 127, size: 8, flags: DIFlagTypePassByValue, elements: !156, templateParams: !243, identifier: "_ZTSSt8iteratorISt26random_access_iterator_tagtlPKtRS1_E")
!243 = !{!158, !169, !170, !244, !247}
!244 = !DITemplateTypeParameter(name: "_Pointer", type: !245)
!245 = !DIDerivedType(tag: DW_TAG_pointer_type, baseType: !246, size: 64)
!246 = !DIDerivedType(tag: DW_TAG_const_type, baseType: !8)
!247 = !DITemplateTypeParameter(name: "_Reference", type: !248)
!248 = !DIDerivedType(tag: DW_TAG_reference_type, baseType: !246, size: 64)
!249 = !DIDerivedType(tag: DW_TAG_member, name: "current", scope: !239, file: !150, line: 133, baseType: !245, size: 64, flags: DIFlagProtected)
!250 = !DISubprogram(name: "reverse_iterator", scope: !239, file: !150, line: 161, type: !251, scopeLine: 161, flags: DIFlagPublic | DIFlagPrototyped, spFlags: 0)
!251 = !DISubroutineType(types: !252)
!252 = !{null, !253}
!253 = !DIDerivedType(tag: DW_TAG_pointer_type, baseType: !239, size: 64, flags: DIFlagArtificial | DIFlagObjectPointer)
!254 = !DISubprogram(name: "reverse_iterator", scope: !239, file: !150, line: 167, type: !255, scopeLine: 167, flags: DIFlagPublic | DIFlagExplicit | DIFlagPrototyped, spFlags: 0)
!255 = !DISubroutineType(types: !256)
!256 = !{null, !253, !257}
!257 = !DIDerivedType(tag: DW_TAG_typedef, name: "iterator_type", scope: !239, file: !150, line: 138, baseType: !245)
!258 = !DISubprogram(name: "reverse_iterator", scope: !239, file: !150, line: 173, type: !259, scopeLine: 173, flags: DIFlagPublic | DIFlagPrototyped, spFlags: 0)
!259 = !DISubroutineType(types: !260)
!260 = !{null, !253, !261}
!261 = !DIDerivedType(tag: DW_TAG_reference_type, baseType: !262, size: 64)
!262 = !DIDerivedType(tag: DW_TAG_const_type, baseType: !239)
!263 = !DISubprogram(name: "operator=", linkageName: "_ZNSt16reverse_iteratorIPKtEaSERKS2_", scope: !239, file: !150, line: 177, type: !264, scopeLine: 177, flags: DIFlagPublic | DIFlagPrototyped, spFlags: 0)
!264 = !DISubroutineType(types: !265)
!265 = !{!266, !253, !261}
!266 = !DIDerivedType(tag: DW_TAG_reference_type, baseType: !239, size: 64)
!267 = !DISubprogram(name: "base", linkageName: "_ZNKSt16reverse_iteratorIPKtE4baseEv", scope: !239, file: !150, line: 193, type: !268, scopeLine: 193, flags: DIFlagPublic | DIFlagPrototyped, spFlags: 0)
!268 = !DISubroutineType(types: !269)
!269 = !{!257, !270}
!270 = !DIDerivedType(tag: DW_TAG_pointer_type, baseType: !262, size: 64, flags: DIFlagArtificial | DIFlagObjectPointer)
!271 = !DISubprogram(name: "operator*", linkageName: "_ZNKSt16reverse_iteratorIPKtEdeEv", scope: !239, file: !150, line: 207, type: !272, scopeLine: 207, flags: DIFlagPublic | DIFlagPrototyped, spFlags: 0)
!272 = !DISubroutineType(types: !273)
!273 = !{!274, !270}
!274 = !DIDerivedType(tag: DW_TAG_typedef, name: "reference", scope: !239, file: !150, line: 141, baseType: !275)
!275 = !DIDerivedType(tag: DW_TAG_typedef, name: "reference", scope: !276, file: !155, line: 227, baseType: !248)
!276 = distinct !DICompositeType(tag: DW_TAG_structure_type, name: "iterator_traits<const unsigned short *>", scope: !151, file: !155, line: 221, size: 8, flags: DIFlagTypePassByValue, elements: !156, templateParams: !277, identifier: "_ZTSSt15iterator_traitsIPKtE")
!277 = !{!278}
!278 = !DITemplateTypeParameter(name: "_Iterator", type: !245)
!279 = !DISubprogram(name: "operator->", linkageName: "_ZNKSt16reverse_iteratorIPKtEptEv", scope: !239, file: !150, line: 219, type: !280, scopeLine: 219, flags: DIFlagPublic | DIFlagPrototyped, spFlags: 0)
!280 = !DISubroutineType(types: !281)
!281 = !{!282, !270}
!282 = !DIDerivedType(tag: DW_TAG_typedef, name: "pointer", scope: !239, file: !150, line: 140, baseType: !283)
!283 = !DIDerivedType(tag: DW_TAG_typedef, name: "pointer", scope: !276, file: !155, line: 226, baseType: !245)
!284 = !DISubprogram(name: "operator++", linkageName: "_ZNSt16reverse_iteratorIPKtEppEv", scope: !239, file: !150, line: 238, type: !285, scopeLine: 238, flags: DIFlagPublic | DIFlagPrototyped, spFlags: 0)
!285 = !DISubroutineType(types: !286)
!286 = !{!266, !253}
!287 = !DISubprogram(name: "operator++", linkageName: "_ZNSt16reverse_iteratorIPKtEppEi", scope: !239, file: !150, line: 250, type: !288, scopeLine: 250, flags: DIFlagPublic | DIFlagPrototyped, spFlags: 0)
!288 = !DISubroutineType(types: !289)
!289 = !{!239, !253, !20}
!290 = !DISubprogram(name: "operator--", linkageName: "_ZNSt16reverse_iteratorIPKtEmmEv", scope: !239, file: !150, line: 263, type: !285, scopeLine: 263, flags: DIFlagPublic | DIFlagPrototyped, spFlags: 0)
!291 = !DISubprogram(name: "operator--", linkageName: "_ZNSt16reverse_iteratorIPKtEmmEi", scope: !239, file: !150, line: 275, type: !288, scopeLine: 275, flags: DIFlagPublic | DIFlagPrototyped, spFlags: 0)
!292 = !DISubprogram(name: "operator+", linkageName: "_ZNKSt16reverse_iteratorIPKtEplEl", scope: !239, file: !150, line: 288, type: !293, scopeLine: 288, flags: DIFlagPublic | DIFlagPrototyped, spFlags: 0)
!293 = !DISubroutineType(types: !294)
!294 = !{!239, !270, !295}
!295 = !DIDerivedType(tag: DW_TAG_typedef, name: "difference_type", scope: !239, file: !150, line: 139, baseType: !296)
!296 = !DIDerivedType(tag: DW_TAG_typedef, name: "difference_type", scope: !276, file: !155, line: 225, baseType: !224)
!297 = !DISubprogram(name: "operator+=", linkageName: "_ZNSt16reverse_iteratorIPKtEpLEl", scope: !239, file: !150, line: 298, type: !298, scopeLine: 298, flags: DIFlagPublic | DIFlagPrototyped, spFlags: 0)
!298 = !DISubroutineType(types: !299)
!299 = !{!266, !253, !295}
!300 = !DISubprogram(name: "operator-", linkageName: "_ZNKSt16reverse_iteratorIPKtEmiEl", scope: !239, file: !150, line: 310, type: !293, scopeLine: 310, flags: DIFlagPublic | DIFlagPrototyped, spFlags: 0)
!301 = !DISubprogram(name: "operator-=", linkageName: "_ZNSt16reverse_iteratorIPKtEmIEl", scope: !239, file: !150, line: 320, type: !298, scopeLine: 320, flags: DIFlagPublic | DIFlagPrototyped, spFlags: 0)
!302 = !DISubprogram(name: "operator[]", linkageName: "_ZNKSt16reverse_iteratorIPKtEixEl", scope: !239, file: !150, line: 332, type: !303, scopeLine: 332, flags: DIFlagPublic | DIFlagPrototyped, spFlags: 0)
!303 = !DISubroutineType(types: !304)
!304 = !{!274, !270, !295}
!305 = !DISubprogram(name: "rend", linkageName: "_ZN11xalanc_1_1011XalanVectorItNS_31MemoryManagedConstructionTraitsItEEE4rendEv", scope: !33, file: !34, line: 733, type: !145, scopeLine: 733, flags: DIFlagPublic | DIFlagPrototyped, spFlags: 0)
!306 = !DISubprogram(name: "rend", linkageName: "_ZNK11xalanc_1_1011XalanVectorItNS_31MemoryManagedConstructionTraitsItEEE4rendEv", scope: !33, file: !34, line: 741, type: !235, scopeLine: 741, flags: DIFlagPublic | DIFlagPrototyped, spFlags: 0)
!307 = !DISubprogram(name: "at", linkageName: "_ZN11xalanc_1_1011XalanVectorItNS_31MemoryManagedConstructionTraitsItEEE2atEm", scope: !33, file: !34, line: 750, type: !308, scopeLine: 750, flags: DIFlagPublic | DIFlagPrototyped, spFlags: 0)
!308 = !DISubroutineType(types: !309)
!309 = !{!128, !53, !42}
!310 = !DISubprogram(name: "at", linkageName: "_ZNK11xalanc_1_1011XalanVectorItNS_31MemoryManagedConstructionTraitsItEEE2atEm", scope: !33, file: !34, line: 761, type: !311, scopeLine: 761, flags: DIFlagPublic | DIFlagPrototyped, spFlags: 0)
!311 = !DISubroutineType(types: !312)
!312 = !{!133, !113, !42}
!313 = !DISubprogram(name: "operator[]", linkageName: "_ZN11xalanc_1_1011XalanVectorItNS_31MemoryManagedConstructionTraitsItEEEixEm", scope: !33, file: !34, line: 772, type: !308, scopeLine: 772, flags: DIFlagPublic | DIFlagPrototyped, spFlags: 0)
!314 = !DISubprogram(name: "operator[]", linkageName: "_ZNK11xalanc_1_1011XalanVectorItNS_31MemoryManagedConstructionTraitsItEEEixEm", scope: !33, file: !34, line: 780, type: !311, scopeLine: 780, flags: DIFlagPublic | DIFlagPrototyped, spFlags: 0)
!315 = !DISubprogram(name: "clear", linkageName: "_ZN11xalanc_1_1011XalanVectorItNS_31MemoryManagedConstructionTraitsItEEE5clearEv", scope: !33, file: !34, line: 788, type: !79, scopeLine: 788, flags: DIFlagPublic | DIFlagPrototyped, spFlags: 0)
!316 = !DISubprogram(name: "operator=", linkageName: "_ZN11xalanc_1_1011XalanVectorItNS_31MemoryManagedConstructionTraitsItEEEaSERKS3_", scope: !33, file: !34, line: 802, type: !317, scopeLine: 802, flags: DIFlagPublic | DIFlagPrototyped, spFlags: 0)
!317 = !DISubroutineType(types: !318)
!318 = !{!319, !53, !62}
!319 = !DIDerivedType(tag: DW_TAG_reference_type, baseType: !64, size: 64)
!320 = !DISubprogram(name: "swap", linkageName: "_ZN11xalanc_1_1011XalanVectorItNS_31MemoryManagedConstructionTraitsItEEE4swapERS3_", scope: !33, file: !34, line: 848, type: !321, scopeLine: 848, flags: DIFlagPublic | DIFlagPrototyped, spFlags: 0)
!321 = !DISubroutineType(types: !322)
!322 = !{null, !53, !319}
!323 = !DISubprogram(name: "getMemoryManager", linkageName: "_ZNK11xalanc_1_1011XalanVectorItNS_31MemoryManagedConstructionTraitsItEEE16getMemoryManagerEv", scope: !33, file: !34, line: 871, type: !324, scopeLine: 871, flags: DIFlagPublic | DIFlagPrototyped, spFlags: 0)
!324 = !DISubroutineType(types: !325)
!325 = !{!326, !113}
!326 = !DIDerivedType(tag: DW_TAG_pointer_type, baseType: !327, size: 64)
!327 = !DIDerivedType(tag: DW_TAG_const_type, baseType: !38)
!328 = !DISubprogram(name: "getMemoryManager", linkageName: "_ZN11xalanc_1_1011XalanVectorItNS_31MemoryManagedConstructionTraitsItEEE16getMemoryManagerEv", scope: !33, file: !34, line: 877, type: !329, scopeLine: 877, flags: DIFlagPublic | DIFlagPrototyped, spFlags: 0)
!329 = !DISubroutineType(types: !330)
!330 = !{!54, !53}
!331 = !DISubprogram(name: "detach", linkageName: "_ZN11xalanc_1_1011XalanVectorItNS_31MemoryManagedConstructionTraitsItEEE6detachEv", scope: !33, file: !34, line: 889, type: !332, scopeLine: 889, flags: DIFlagPublic | DIFlagPrototyped, spFlags: 0)
!332 = !DISubroutineType(types: !333)
!333 = !{!334, !53}
!334 = !DIDerivedType(tag: DW_TAG_typedef, name: "pointer", scope: !33, file: !34, line: 67, baseType: !48)
!335 = !DISubprogram(name: "invariants", linkageName: "_ZNK11xalanc_1_1011XalanVectorItNS_31MemoryManagedConstructionTraitsItEEE10invariantsEv", scope: !33, file: !34, line: 905, type: !336, scopeLine: 905, flags: DIFlagPrototyped, spFlags: 0)
!336 = !DISubroutineType(types: !337)
!337 = !{null, !113}
!338 = !DISubprogram(name: "local_distance", linkageName: "_ZN11xalanc_1_1011XalanVectorItNS_31MemoryManagedConstructionTraitsItEEE14local_distanceEPKtS5_", scope: !33, file: !34, line: 918, type: !339, scopeLine: 918, flags: DIFlagPrototyped, spFlags: 0)
!339 = !DISubroutineType(types: !340)
!340 = !{!341, !53, !68, !68}
!341 = !DIDerivedType(tag: DW_TAG_typedef, name: "size_type", scope: !33, file: !34, line: 71, baseType: !43)
!342 = !DISubprogram(name: "allocate", linkageName: "_ZN11xalanc_1_1011XalanVectorItNS_31MemoryManagedConstructionTraitsItEEE8allocateEm", scope: !33, file: !34, line: 938, type: !343, scopeLine: 938, flags: DIFlagPrototyped, spFlags: 0)
!343 = !DISubroutineType(types: !344)
!344 = !{!48, !53, !42}
!345 = !DISubprogram(name: "deallocate", linkageName: "_ZN11xalanc_1_1011XalanVectorItNS_31MemoryManagedConstructionTraitsItEEE10deallocateEPt", scope: !33, file: !34, line: 952, type: !346, scopeLine: 952, flags: DIFlagPrototyped, spFlags: 0)
!346 = !DISubroutineType(types: !347)
!347 = !{null, !53, !48}
!348 = !DISubprogram(name: "destroy", linkageName: "_ZN11xalanc_1_1011XalanVectorItNS_31MemoryManagedConstructionTraitsItEEE7destroyERt", scope: !33, file: !34, line: 961, type: !349, scopeLine: 961, flags: DIFlagPrototyped | DIFlagStaticMember, spFlags: 0)
!349 = !DISubroutineType(types: !350)
!350 = !{null, !129}
