; ModuleID = 'DocumentImpl.cpp'
source_filename = "DocumentImpl.cpp"
target datalayout = "e-m:e-p270:32:32-p271:32:32-p272:64:64-i64:64-f80:128-n8:16:32:64-S128"
target triple = "x86_64-unknown-linux-gnu"

%"class.xercesc_2_7::XMLRegisterCleanup" = type { void ()*, %"class.xercesc_2_7::XMLRegisterCleanup"*, %"class.xercesc_2_7::XMLRegisterCleanup"* }
%"class.xercesc_2_7::DOMString" = type { %"class.xercesc_2_7::DOMStringHandle"* }
%"class.xercesc_2_7::DOMStringHandle" = type opaque
%"class.xercesc_2_7::DocumentImpl" = type { %"class.xercesc_2_7::ParentNode.base", %"class.xercesc_2_7::DocumentTypeImpl"*, %"class.xercesc_2_7::ElementImpl"*, %"class.xercesc_2_7::DStringPool"*, %"class.xercesc_2_7::NodeIDMap"*, %"class.xercesc_2_7::RefVectorOf"*, %"class.xercesc_2_7::RefVectorOf.0"*, %"class.xercesc_2_7::RefHashTableOf"*, %"class.xercesc_2_7::RefVectorOf.2"*, i32, i8, %"class.xercesc_2_7::MemoryManager"* }
%"class.xercesc_2_7::ParentNode.base" = type <{ %"class.xercesc_2_7::ChildNode", %"class.xercesc_2_7::DocumentImpl"*, %"class.xercesc_2_7::ChildNode"*, i32, [4 x i8], %"class.xercesc_2_7::ChildNode"*, i32 }>
%"class.xercesc_2_7::ChildNode" = type { %"class.xercesc_2_7::NodeImpl.base", %"class.xercesc_2_7::ChildNode"*, %"class.xercesc_2_7::ChildNode"* }
%"class.xercesc_2_7::NodeImpl.base" = type <{ %"class.xercesc_2_7::NodeListImpl.base", [4 x i8], %"class.xercesc_2_7::NodeImpl"*, i16 }>
%"class.xercesc_2_7::NodeListImpl.base" = type { %"class.xercesc_2_7::RefCountedImpl.base" }
%"class.xercesc_2_7::RefCountedImpl.base" = type <{ i32 (...)**, i32 }>
%"class.xercesc_2_7::NodeImpl" = type <{ %"class.xercesc_2_7::NodeListImpl.base", [4 x i8], %"class.xercesc_2_7::NodeImpl"*, i16, [6 x i8] }>
%"class.xercesc_2_7::DocumentTypeImpl" = type <{ %"class.xercesc_2_7::ParentNode.base", [4 x i8], %"class.xercesc_2_7::DOMString", %"class.xercesc_2_7::NamedNodeMapImpl"*, %"class.xercesc_2_7::NamedNodeMapImpl"*, %"class.xercesc_2_7::NamedNodeMapImpl"*, %"class.xercesc_2_7::DOMString", %"class.xercesc_2_7::DOMString", %"class.xercesc_2_7::DOMString", i8, [7 x i8] }>
%"class.xercesc_2_7::NamedNodeMapImpl" = type { i32 (...)**, %"class.xercesc_2_7::NodeVector"*, %"class.xercesc_2_7::NodeImpl"*, i8, i32 }
%"class.xercesc_2_7::NodeVector" = type opaque
%"class.xercesc_2_7::ElementImpl" = type { %"class.xercesc_2_7::ParentNode.base", %"class.xercesc_2_7::DOMString", %"class.xercesc_2_7::AttrMapImpl"* }
%"class.xercesc_2_7::AttrMapImpl" = type <{ %"class.xercesc_2_7::NamedNodeMapImpl", i8, [7 x i8] }>
%"class.xercesc_2_7::DStringPool" = type { %"struct.xercesc_2_7::DStringPoolEntry"**, i32, %"class.xercesc_2_7::MemoryManager"* }
%"struct.xercesc_2_7::DStringPoolEntry" = type opaque
%"class.xercesc_2_7::NodeIDMap" = type { i32 (...)**, %"class.xercesc_2_7::AttrImpl"**, i32, i32, i32, i32, %"class.xercesc_2_7::MemoryManager"* }
%"class.xercesc_2_7::AttrImpl" = type { %"class.xercesc_2_7::NodeImpl.base", %"class.xercesc_2_7::DOMString", %union.anon }
%union.anon = type { %"class.xercesc_2_7::ChildNode"* }
%"class.xercesc_2_7::RefVectorOf" = type { %"class.xercesc_2_7::BaseRefVectorOf" }
%"class.xercesc_2_7::BaseRefVectorOf" = type { i32 (...)**, i8, i32, i32, %"class.xercesc_2_7::NodeIteratorImpl"**, %"class.xercesc_2_7::MemoryManager"* }
%"class.xercesc_2_7::NodeIteratorImpl" = type <{ %"class.xercesc_2_7::RefCountedImpl.base", [4 x i8], %"class.xercesc_2_7::DOM_Node", i64, %"class.xercesc_2_7::DOM_NodeFilter"*, i8, i8, [6 x i8], %"class.xercesc_2_7::DOM_Node", i8, [7 x i8] }>
%"class.xercesc_2_7::DOM_NodeFilter" = type { i32 (...)** }
%"class.xercesc_2_7::DOM_Node" = type { %"class.xercesc_2_7::NodeImpl"* }
%"class.xercesc_2_7::RefVectorOf.0" = type { %"class.xercesc_2_7::BaseRefVectorOf.1" }
%"class.xercesc_2_7::BaseRefVectorOf.1" = type { i32 (...)**, i8, i32, i32, %"class.xercesc_2_7::TreeWalkerImpl"**, %"class.xercesc_2_7::MemoryManager"* }
%"class.xercesc_2_7::TreeWalkerImpl" = type <{ %"class.xercesc_2_7::RefCountedImpl.base", [4 x i8], i64, %"class.xercesc_2_7::DOM_NodeFilter"*, %"class.xercesc_2_7::DOM_Node", %"class.xercesc_2_7::DOM_Node", i8, [7 x i8] }>
%"class.xercesc_2_7::RefHashTableOf" = type { %"class.xercesc_2_7::MemoryManager"*, i8, %"struct.xercesc_2_7::RefHashTableBucketElem"**, i32, i32, i32, %"class.xercesc_2_7::HashBase"* }
%"struct.xercesc_2_7::RefHashTableBucketElem" = type { i8*, %"struct.xercesc_2_7::RefHashTableBucketElem"*, i8* }
%"class.xercesc_2_7::HashBase" = type { i32 (...)** }
%"class.xercesc_2_7::RefVectorOf.2" = type { %"class.xercesc_2_7::BaseRefVectorOf.3" }
%"class.xercesc_2_7::BaseRefVectorOf.3" = type { i32 (...)**, i8, i32, i32, %"class.xercesc_2_7::RangeImpl"**, %"class.xercesc_2_7::MemoryManager"* }
%"class.xercesc_2_7::RangeImpl" = type { %"class.xercesc_2_7::RefCountedImpl.base", %"class.xercesc_2_7::DOM_Node", i32, %"class.xercesc_2_7::DOM_Node", i32, i8, %"class.xercesc_2_7::DOM_Document", i8, %"class.xercesc_2_7::DOM_Node" }
%"class.xercesc_2_7::DOM_Document" = type { %"class.xercesc_2_7::DOM_Node" }
%"class.xercesc_2_7::MemoryManager" = type { i32 (...)** }
%"class.xercesc_2_7::XMLDeleter" = type { i32 (...)** }
%"class.xercesc_2_7::ParentNode" = type <{ %"class.xercesc_2_7::ChildNode", %"class.xercesc_2_7::DocumentImpl"*, %"class.xercesc_2_7::ChildNode"*, i32, [4 x i8], %"class.xercesc_2_7::ChildNode"*, i32, [4 x i8] }>
%"class.xercesc_2_7::DOM_DOMException" = type { i32 (...)**, i32, %"class.xercesc_2_7::DOMString" }
%"class.xercesc_2_7::CDATASectionImpl" = type { %"class.xercesc_2_7::TextImpl" }
%"class.xercesc_2_7::TextImpl" = type { %"class.xercesc_2_7::CharacterDataImpl" }
%"class.xercesc_2_7::CharacterDataImpl" = type { %"class.xercesc_2_7::ChildNode", %"class.xercesc_2_7::DOMString" }
%"class.xercesc_2_7::CommentImpl" = type { %"class.xercesc_2_7::CharacterDataImpl" }
%"class.xercesc_2_7::DocumentFragmentImpl" = type { %"class.xercesc_2_7::ParentNode.base", [4 x i8] }
%"class.xercesc_2_7::EntityImpl" = type { %"class.xercesc_2_7::ParentNode.base", %"class.xercesc_2_7::DOMString", %"class.xercesc_2_7::DOMString", %"class.xercesc_2_7::DOMString", %"class.xercesc_2_7::DOMString" }
%"class.xercesc_2_7::EntityReferenceImpl" = type { %"class.xercesc_2_7::ParentNode.base", %"class.xercesc_2_7::DOMString" }
%"class.xercesc_2_7::NotationImpl" = type { %"class.xercesc_2_7::NodeImpl.base", %"class.xercesc_2_7::DOMString", %"class.xercesc_2_7::DOMString", %"class.xercesc_2_7::DOMString" }
%"class.xercesc_2_7::ProcessingInstructionImpl" = type { %"class.xercesc_2_7::ChildNode", %"class.xercesc_2_7::DOMString", %"class.xercesc_2_7::DOMString" }
%"class.xercesc_2_7::DeepNodeListImpl" = type <{ %"class.xercesc_2_7::NodeListImpl.base", [4 x i8], %"class.xercesc_2_7::NodeImpl"*, %"class.xercesc_2_7::DOMString", i8, [3 x i8], i32, %"class.xercesc_2_7::NodeVector"*, %"class.xercesc_2_7::DOMString", i8, i8, [6 x i8] }>
%"class.xercesc_2_7::DOM_NullPtr" = type opaque
%"class.xercesc_2_7::RefCountedImpl" = type <{ i32 (...)**, i32, [4 x i8] }>
%"class.xercesc_2_7::ElementNSImpl" = type { %"class.xercesc_2_7::ElementImpl", %"class.xercesc_2_7::DOMString", %"class.xercesc_2_7::DOMString" }
%"class.xercesc_2_7::AttrNSImpl" = type { %"class.xercesc_2_7::AttrImpl", %"class.xercesc_2_7::DOMString", %"class.xercesc_2_7::DOMString" }
%"class.xercesc_2_7::XMLDeclImpl" = type { %"class.xercesc_2_7::ChildNode", %"class.xercesc_2_7::DOMString", %"class.xercesc_2_7::DOMString", %"class.xercesc_2_7::DOMString" }
%"class.xercesc_2_7::ArrayIndexOutOfBoundsException" = type { %"class.xercesc_2_7::XMLException" }
%"class.xercesc_2_7::XMLException" = type { i32 (...)**, i32, i8*, i32, i16*, %"class.xercesc_2_7::MemoryManager"* }
%"class.xercesc_2_7::HashPtr" = type { %"class.xercesc_2_7::HashBase" }
%"class.xercesc_2_7::XMemory" = type { i8 }
%"class.xercesc_2_7::NoSuchElementException" = type { %"class.xercesc_2_7::XMLException" }
%"class.xercesc_2_7::NodeListImpl" = type { %"class.xercesc_2_7::RefCountedImpl.base", [4 x i8] }
%"class.xercesc_2_7::IllegalArgumentException" = type { %"class.xercesc_2_7::XMLException" }
%"class.xercesc_2_7::ArrayJanitor" = type { %"struct.xercesc_2_7::RefHashTableBucketElem"**, %"class.xercesc_2_7::MemoryManager"* }

$_ZN11xercesc_2_710XMLDeleterD0Ev = comdat any

$_ZN11xercesc_2_710XMLDeleterD2Ev = comdat any

$_ZN11xercesc_2_710ParentNodeD2Ev = comdat any

$_ZN11xercesc_2_78NodeImpl11hasUserDataEb = comdat any

$_ZN11xercesc_2_714RefHashTableOfIvED2Ev = comdat any

$__clang_call_terminate = comdat any

$_ZN11xercesc_2_712DocumentImpl16setErrorCheckingEb = comdat any

$_ZN11xercesc_2_711RefVectorOfINS_16NodeIteratorImplEEC2EjbPNS_13MemoryManagerE = comdat any

$_ZN11xercesc_2_715BaseRefVectorOfINS_16NodeIteratorImplEE10addElementEPS1_ = comdat any

$_ZN11xercesc_2_711RefVectorOfINS_14TreeWalkerImplEEC2EjbPNS_13MemoryManagerE = comdat any

$_ZN11xercesc_2_715BaseRefVectorOfINS_14TreeWalkerImplEE10addElementEPS1_ = comdat any

$_ZNK11xercesc_2_78NodeImpl14hasStringValueEv = comdat any

$_ZN11xercesc_2_711RefVectorOfINS_9RangeImplEEC2EjbPNS_13MemoryManagerE = comdat any

$_ZN11xercesc_2_715BaseRefVectorOfINS_9RangeImplEE10addElementEPS1_ = comdat any

$_ZNK11xercesc_2_715BaseRefVectorOfINS_9RangeImplEE4sizeEv = comdat any

$_ZN11xercesc_2_715BaseRefVectorOfINS_9RangeImplEE9elementAtEj = comdat any

$_ZN11xercesc_2_714RefHashTableOfIvEC2EjbPNS_8HashBaseEPNS_13MemoryManagerE = comdat any

$_ZN11xercesc_2_714RefHashTableOfIvE9removeKeyEPKv = comdat any

$_ZN11xercesc_2_714RefHashTableOfIvE3putEPvS2_ = comdat any

$_ZN11xercesc_2_714RefHashTableOfIvE3getEPKv = comdat any

$_ZNK11xercesc_2_78NodeImpl11hasUserDataEv = comdat any

$_ZN11xercesc_2_714RefHashTableOfIvE7cleanupEv = comdat any

$_ZN11xercesc_2_714RefHashTableOfIvE9removeAllEv = comdat any

$_ZNK11xercesc_2_714RefHashTableOfIvE7isEmptyEv = comdat any

$_ZN11xercesc_2_715BaseRefVectorOfINS_16NodeIteratorImplEEC2EjbPNS_13MemoryManagerE = comdat any

$_ZN11xercesc_2_711RefVectorOfINS_16NodeIteratorImplEED2Ev = comdat any

$_ZN11xercesc_2_711RefVectorOfINS_16NodeIteratorImplEED0Ev = comdat any

$_ZN11xercesc_2_715BaseRefVectorOfINS_16NodeIteratorImplEE12setElementAtEPS1_j = comdat any

$_ZN11xercesc_2_715BaseRefVectorOfINS_16NodeIteratorImplEE17removeAllElementsEv = comdat any

$_ZN11xercesc_2_715BaseRefVectorOfINS_16NodeIteratorImplEE15removeElementAtEj = comdat any

$_ZN11xercesc_2_715BaseRefVectorOfINS_16NodeIteratorImplEE17removeLastElementEv = comdat any

$_ZN11xercesc_2_715BaseRefVectorOfINS_16NodeIteratorImplEE7cleanupEv = comdat any

$_ZN11xercesc_2_77XMemoryC2Ev = comdat any

$_ZN11xercesc_2_715BaseRefVectorOfINS_16NodeIteratorImplEED2Ev = comdat any

$_ZN11xercesc_2_715BaseRefVectorOfINS_16NodeIteratorImplEED0Ev = comdat any

$_ZN11xercesc_2_730ArrayIndexOutOfBoundsExceptionC2EPKcjNS_10XMLExcepts5CodesEPNS_13MemoryManagerE = comdat any

$_ZN11xercesc_2_730ArrayIndexOutOfBoundsExceptionD2Ev = comdat any

$_ZN11xercesc_2_730ArrayIndexOutOfBoundsExceptionD0Ev = comdat any

$_ZNK11xercesc_2_730ArrayIndexOutOfBoundsException7getTypeEv = comdat any

$_ZNK11xercesc_2_730ArrayIndexOutOfBoundsException9duplicateEv = comdat any

$_ZN11xercesc_2_730ArrayIndexOutOfBoundsExceptionC2ERKS0_ = comdat any

$_ZN11xercesc_2_715BaseRefVectorOfINS_16NodeIteratorImplEE19ensureExtraCapacityEj = comdat any

$_ZN11xercesc_2_715BaseRefVectorOfINS_14TreeWalkerImplEEC2EjbPNS_13MemoryManagerE = comdat any

$_ZN11xercesc_2_711RefVectorOfINS_14TreeWalkerImplEED2Ev = comdat any

$_ZN11xercesc_2_711RefVectorOfINS_14TreeWalkerImplEED0Ev = comdat any

$_ZN11xercesc_2_715BaseRefVectorOfINS_14TreeWalkerImplEE12setElementAtEPS1_j = comdat any

$_ZN11xercesc_2_715BaseRefVectorOfINS_14TreeWalkerImplEE17removeAllElementsEv = comdat any

$_ZN11xercesc_2_715BaseRefVectorOfINS_14TreeWalkerImplEE15removeElementAtEj = comdat any

$_ZN11xercesc_2_715BaseRefVectorOfINS_14TreeWalkerImplEE17removeLastElementEv = comdat any

$_ZN11xercesc_2_715BaseRefVectorOfINS_14TreeWalkerImplEE7cleanupEv = comdat any

$_ZN11xercesc_2_715BaseRefVectorOfINS_14TreeWalkerImplEED2Ev = comdat any

$_ZN11xercesc_2_715BaseRefVectorOfINS_14TreeWalkerImplEED0Ev = comdat any

$_ZN11xercesc_2_715BaseRefVectorOfINS_14TreeWalkerImplEE19ensureExtraCapacityEj = comdat any

$_ZN11xercesc_2_715BaseRefVectorOfINS_9RangeImplEEC2EjbPNS_13MemoryManagerE = comdat any

$_ZN11xercesc_2_711RefVectorOfINS_9RangeImplEED2Ev = comdat any

$_ZN11xercesc_2_711RefVectorOfINS_9RangeImplEED0Ev = comdat any

$_ZN11xercesc_2_715BaseRefVectorOfINS_9RangeImplEE12setElementAtEPS1_j = comdat any

$_ZN11xercesc_2_715BaseRefVectorOfINS_9RangeImplEE17removeAllElementsEv = comdat any

$_ZN11xercesc_2_715BaseRefVectorOfINS_9RangeImplEE15removeElementAtEj = comdat any

$_ZN11xercesc_2_715BaseRefVectorOfINS_9RangeImplEE17removeLastElementEv = comdat any

$_ZN11xercesc_2_715BaseRefVectorOfINS_9RangeImplEE7cleanupEv = comdat any

$_ZN11xercesc_2_715BaseRefVectorOfINS_9RangeImplEED2Ev = comdat any

$_ZN11xercesc_2_715BaseRefVectorOfINS_9RangeImplEED0Ev = comdat any

$_ZN11xercesc_2_715BaseRefVectorOfINS_9RangeImplEE19ensureExtraCapacityEj = comdat any

$_ZN11xercesc_2_714RefHashTableOfIvE10initializeEj = comdat any

$_ZN11xercesc_2_724IllegalArgumentExceptionC2EPKcjNS_10XMLExcepts5CodesEPNS_13MemoryManagerE = comdat any

$_ZN11xercesc_2_724IllegalArgumentExceptionD2Ev = comdat any

$_ZN11xercesc_2_724IllegalArgumentExceptionD0Ev = comdat any

$_ZNK11xercesc_2_724IllegalArgumentException7getTypeEv = comdat any

$_ZNK11xercesc_2_724IllegalArgumentException9duplicateEv = comdat any

$_ZN11xercesc_2_724IllegalArgumentExceptionC2ERKS0_ = comdat any

$_ZN11xercesc_2_722NoSuchElementExceptionC2EPKcjNS_10XMLExcepts5CodesEPNS_13MemoryManagerE = comdat any

$_ZN11xercesc_2_722NoSuchElementExceptionD2Ev = comdat any

$_ZN11xercesc_2_722NoSuchElementExceptionD0Ev = comdat any

$_ZNK11xercesc_2_722NoSuchElementException7getTypeEv = comdat any

$_ZNK11xercesc_2_722NoSuchElementException9duplicateEv = comdat any

$_ZN11xercesc_2_722NoSuchElementExceptionC2ERKS0_ = comdat any

$_ZN11xercesc_2_714RefHashTableOfIvE6rehashEv = comdat any

$_ZN11xercesc_2_714RefHashTableOfIvE14findBucketElemEPKvRj = comdat any

$_ZN11xercesc_2_722RefHashTableBucketElemIvEC2EPvS2_PS1_ = comdat any

$_ZN11xercesc_2_712ArrayJanitorIPNS_22RefHashTableBucketElemIvEEEC2EPS3_PNS_13MemoryManagerE = comdat any

$_ZN11xercesc_2_712ArrayJanitorIPNS_22RefHashTableBucketElemIvEEE7releaseEv = comdat any

$_ZN11xercesc_2_712ArrayJanitorIPNS_22RefHashTableBucketElemIvEEED2Ev = comdat any

$_ZN11xercesc_2_712ArrayJanitorIPNS_22RefHashTableBucketElemIvEEE5resetEPS3_ = comdat any

$_ZTVN11xercesc_2_710XMLDeleterE = comdat any

$_ZTSN11xercesc_2_710XMLDeleterE = comdat any

$_ZTIN11xercesc_2_710XMLDeleterE = comdat any

$_ZTVN11xercesc_2_711RefVectorOfINS_16NodeIteratorImplEEE = comdat any

$_ZTSN11xercesc_2_711RefVectorOfINS_16NodeIteratorImplEEE = comdat any

$_ZTSN11xercesc_2_715BaseRefVectorOfINS_16NodeIteratorImplEEE = comdat any

$_ZTSN11xercesc_2_77XMemoryE = comdat any

$_ZTIN11xercesc_2_77XMemoryE = comdat any

$_ZTIN11xercesc_2_715BaseRefVectorOfINS_16NodeIteratorImplEEE = comdat any

$_ZTIN11xercesc_2_711RefVectorOfINS_16NodeIteratorImplEEE = comdat any

$_ZTVN11xercesc_2_715BaseRefVectorOfINS_16NodeIteratorImplEEE = comdat any

$_ZTSN11xercesc_2_730ArrayIndexOutOfBoundsExceptionE = comdat any

$_ZTIN11xercesc_2_730ArrayIndexOutOfBoundsExceptionE = comdat any

$_ZTVN11xercesc_2_730ArrayIndexOutOfBoundsExceptionE = comdat any

$_ZTVN11xercesc_2_711RefVectorOfINS_14TreeWalkerImplEEE = comdat any

$_ZTSN11xercesc_2_711RefVectorOfINS_14TreeWalkerImplEEE = comdat any

$_ZTSN11xercesc_2_715BaseRefVectorOfINS_14TreeWalkerImplEEE = comdat any

$_ZTIN11xercesc_2_715BaseRefVectorOfINS_14TreeWalkerImplEEE = comdat any

$_ZTIN11xercesc_2_711RefVectorOfINS_14TreeWalkerImplEEE = comdat any

$_ZTVN11xercesc_2_715BaseRefVectorOfINS_14TreeWalkerImplEEE = comdat any

$_ZTVN11xercesc_2_711RefVectorOfINS_9RangeImplEEE = comdat any

$_ZTSN11xercesc_2_711RefVectorOfINS_9RangeImplEEE = comdat any

$_ZTSN11xercesc_2_715BaseRefVectorOfINS_9RangeImplEEE = comdat any

$_ZTIN11xercesc_2_715BaseRefVectorOfINS_9RangeImplEEE = comdat any

$_ZTIN11xercesc_2_711RefVectorOfINS_9RangeImplEEE = comdat any

$_ZTVN11xercesc_2_715BaseRefVectorOfINS_9RangeImplEEE = comdat any

$_ZTSN11xercesc_2_724IllegalArgumentExceptionE = comdat any

$_ZTIN11xercesc_2_724IllegalArgumentExceptionE = comdat any

$_ZTVN11xercesc_2_724IllegalArgumentExceptionE = comdat any

$_ZTSN11xercesc_2_722NoSuchElementExceptionE = comdat any

$_ZTIN11xercesc_2_722NoSuchElementExceptionE = comdat any

$_ZTVN11xercesc_2_722NoSuchElementExceptionE = comdat any

@_ZN11xercesc_2_7L10namCleanupE = internal global %"class.xercesc_2_7::XMLRegisterCleanup" zeroinitializer, align 8, !dbg !0
@_ZTVN11xercesc_2_712DocumentImplE = dso_local unnamed_addr constant { [76 x i8*] } { [76 x i8*] [i8* null, i8* bitcast ({ i8*, i8*, i8* }* @_ZTIN11xercesc_2_712DocumentImplE to i8*), i8* bitcast (void (%"class.xercesc_2_7::DocumentImpl"*)* @_ZN11xercesc_2_712DocumentImplD1Ev to i8*), i8* bitcast (void (%"class.xercesc_2_7::DocumentImpl"*)* @_ZN11xercesc_2_712DocumentImplD0Ev to i8*), i8* bitcast (void (%"class.xercesc_2_7::DocumentImpl"*)* @_ZN11xercesc_2_712DocumentImpl10referencedEv to i8*), i8* bitcast (void (%"class.xercesc_2_7::DocumentImpl"*)* @_ZN11xercesc_2_712DocumentImpl12unreferencedEv to i8*), i8* bitcast (%"class.xercesc_2_7::NodeImpl"* (%"class.xercesc_2_7::ParentNode"*, i32)* @_ZN11xercesc_2_710ParentNode4itemEj to i8*), i8* bitcast (i32 (%"class.xercesc_2_7::ParentNode"*)* @_ZN11xercesc_2_710ParentNode9getLengthEv to i8*), i8* bitcast (i1 (%"class.xercesc_2_7::NodeImpl"*)* @_ZN11xercesc_2_78NodeImpl10isAttrImplEv to i8*), i8* bitcast (i1 (%"class.xercesc_2_7::NodeImpl"*)* @_ZN11xercesc_2_78NodeImpl18isCDATASectionImplEv to i8*), i8* bitcast (i1 (%"class.xercesc_2_7::NodeImpl"*)* @_ZN11xercesc_2_78NodeImpl22isDocumentFragmentImplEv to i8*), i8* bitcast (i1 (%"class.xercesc_2_7::DocumentImpl"*)* @_ZN11xercesc_2_712DocumentImpl14isDocumentImplEv to i8*), i8* bitcast (i1 (%"class.xercesc_2_7::NodeImpl"*)* @_ZN11xercesc_2_78NodeImpl18isDocumentTypeImplEv to i8*), i8* bitcast (i1 (%"class.xercesc_2_7::NodeImpl"*)* @_ZN11xercesc_2_78NodeImpl13isElementImplEv to i8*), i8* bitcast (i1 (%"class.xercesc_2_7::NodeImpl"*)* @_ZN11xercesc_2_78NodeImpl17isEntityReferenceEv to i8*), i8* bitcast (i1 (%"class.xercesc_2_7::NodeImpl"*)* @_ZN11xercesc_2_78NodeImpl10isTextImplEv to i8*), i8* bitcast (void (%"class.xercesc_2_7::DocumentImpl"*)* @_ZN11xercesc_2_712DocumentImpl7changedEv to i8*), i8* bitcast (i32 (%"class.xercesc_2_7::DocumentImpl"*)* @_ZN11xercesc_2_712DocumentImpl7changesEv to i8*), i8* bitcast (%"class.xercesc_2_7::NodeImpl"* (%"class.xercesc_2_7::NodeImpl"*, %"class.xercesc_2_7::NodeImpl"*)* @_ZN11xercesc_2_78NodeImpl11appendChildEPS0_ to i8*), i8* bitcast (%"class.xercesc_2_7::NodeImpl"* (%"class.xercesc_2_7::DocumentImpl"*, i1)* @_ZN11xercesc_2_712DocumentImpl9cloneNodeEb to i8*), i8* bitcast (%"class.xercesc_2_7::NamedNodeMapImpl"* (%"class.xercesc_2_7::NodeImpl"*)* @_ZN11xercesc_2_78NodeImpl13getAttributesEv to i8*), i8* bitcast (%"class.xercesc_2_7::NodeListImpl"* (%"class.xercesc_2_7::ParentNode"*)* @_ZN11xercesc_2_710ParentNode13getChildNodesEv to i8*), i8* bitcast (%"class.xercesc_2_7::NodeImpl"* (%"class.xercesc_2_7::ParentNode"*)* @_ZN11xercesc_2_710ParentNode13getFirstChildEv to i8*), i8* bitcast (%"class.xercesc_2_7::NodeImpl"* (%"class.xercesc_2_7::ParentNode"*)* @_ZN11xercesc_2_710ParentNode12getLastChildEv to i8*), i8* bitcast (%"class.xercesc_2_7::NodeImpl"* (%"class.xercesc_2_7::ChildNode"*)* @_ZN11xercesc_2_79ChildNode14getNextSiblingEv to i8*), i8* bitcast (void (%"class.xercesc_2_7::DOMString"*, %"class.xercesc_2_7::DocumentImpl"*)* @_ZN11xercesc_2_712DocumentImpl11getNodeNameEv to i8*), i8* bitcast (i16 (%"class.xercesc_2_7::DocumentImpl"*)* @_ZN11xercesc_2_712DocumentImpl11getNodeTypeEv to i8*), i8* bitcast (void (%"class.xercesc_2_7::DOMString"*, %"class.xercesc_2_7::NodeImpl"*)* @_ZN11xercesc_2_78NodeImpl12getNodeValueEv to i8*), i8* bitcast (%"class.xercesc_2_7::DocumentImpl"* (%"class.xercesc_2_7::DocumentImpl"*)* @_ZN11xercesc_2_712DocumentImpl16getOwnerDocumentEv to i8*), i8* bitcast (%"class.xercesc_2_7::NodeImpl"* (%"class.xercesc_2_7::ChildNode"*)* @_ZN11xercesc_2_79ChildNode13getParentNodeEv to i8*), i8* bitcast (%"class.xercesc_2_7::NodeImpl"* (%"class.xercesc_2_7::ChildNode"*)* @_ZN11xercesc_2_79ChildNode18getPreviousSiblingEv to i8*), i8* bitcast (i8* (%"class.xercesc_2_7::DocumentImpl"*)* @_ZN11xercesc_2_712DocumentImpl11getUserDataEv to i8*), i8* bitcast (i1 (%"class.xercesc_2_7::ParentNode"*)* @_ZN11xercesc_2_710ParentNode13hasChildNodesEv to i8*), i8* bitcast (%"class.xercesc_2_7::NodeImpl"* (%"class.xercesc_2_7::DocumentImpl"*, %"class.xercesc_2_7::NodeImpl"*, %"class.xercesc_2_7::NodeImpl"*)* @_ZN11xercesc_2_712DocumentImpl12insertBeforeEPNS_8NodeImplES2_ to i8*), i8* bitcast (%"class.xercesc_2_7::NodeImpl"* (%"class.xercesc_2_7::DocumentImpl"*, %"class.xercesc_2_7::NodeImpl"*)* @_ZN11xercesc_2_712DocumentImpl11removeChildEPNS_8NodeImplE to i8*), i8* bitcast (%"class.xercesc_2_7::NodeImpl"* (%"class.xercesc_2_7::ParentNode"*, %"class.xercesc_2_7::NodeImpl"*, %"class.xercesc_2_7::NodeImpl"*)* @_ZN11xercesc_2_710ParentNode12replaceChildEPNS_8NodeImplES2_ to i8*), i8* bitcast (void (%"class.xercesc_2_7::NodeImpl"*, %"class.xercesc_2_7::DOMString"*)* @_ZN11xercesc_2_78NodeImpl12setNodeValueERKNS_9DOMStringE to i8*), i8* bitcast (void (%"class.xercesc_2_7::ParentNode"*, i1, i1)* @_ZN11xercesc_2_710ParentNode11setReadOnlyEbb to i8*), i8* bitcast (void (%"class.xercesc_2_7::DocumentImpl"*, i8*)* @_ZN11xercesc_2_712DocumentImpl11setUserDataEPv to i8*), i8* bitcast (void (%"class.xercesc_2_7::DOMString"*, %"class.xercesc_2_7::NodeImpl"*)* @_ZN11xercesc_2_78NodeImpl8toStringEv to i8*), i8* bitcast (void (%"class.xercesc_2_7::ParentNode"*)* @_ZN11xercesc_2_710ParentNode9normalizeEv to i8*), i8* bitcast (i1 (%"class.xercesc_2_7::NodeImpl"*, %"class.xercesc_2_7::DOMString"*, %"class.xercesc_2_7::DOMString"*)* @_ZN11xercesc_2_78NodeImpl11isSupportedERKNS_9DOMStringES3_ to i8*), i8* bitcast (void (%"class.xercesc_2_7::DOMString"*, %"class.xercesc_2_7::NodeImpl"*)* @_ZN11xercesc_2_78NodeImpl15getNamespaceURIEv to i8*), i8* bitcast (void (%"class.xercesc_2_7::DOMString"*, %"class.xercesc_2_7::NodeImpl"*)* @_ZN11xercesc_2_78NodeImpl9getPrefixEv to i8*), i8* bitcast (void (%"class.xercesc_2_7::DOMString"*, %"class.xercesc_2_7::NodeImpl"*)* @_ZN11xercesc_2_78NodeImpl12getLocalNameEv to i8*), i8* bitcast (void (%"class.xercesc_2_7::NodeImpl"*, %"class.xercesc_2_7::DOMString"*)* @_ZN11xercesc_2_78NodeImpl9setPrefixERKNS_9DOMStringE to i8*), i8* bitcast (i1 (%"class.xercesc_2_7::NodeImpl"*)* @_ZN11xercesc_2_78NodeImpl13hasAttributesEv to i8*), i8* bitcast (void (%"class.xercesc_2_7::ParentNode"*, %"class.xercesc_2_7::DocumentImpl"*)* @_ZN11xercesc_2_710ParentNode16setOwnerDocumentEPNS_12DocumentImplE to i8*), i8* bitcast (%"class.xercesc_2_7::DocumentImpl"* (%"class.xercesc_2_7::ParentNode"*)* @_ZN11xercesc_2_710ParentNode11getDocumentEv to i8*), i8* bitcast (%"class.xercesc_2_7::AttrImpl"* (%"class.xercesc_2_7::DocumentImpl"*, %"class.xercesc_2_7::DOMString"*)* @_ZN11xercesc_2_712DocumentImpl15createAttributeERKNS_9DOMStringE to i8*), i8* bitcast (%"class.xercesc_2_7::CDATASectionImpl"* (%"class.xercesc_2_7::DocumentImpl"*, %"class.xercesc_2_7::DOMString"*)* @_ZN11xercesc_2_712DocumentImpl18createCDATASectionERKNS_9DOMStringE to i8*), i8* bitcast (%"class.xercesc_2_7::CommentImpl"* (%"class.xercesc_2_7::DocumentImpl"*, %"class.xercesc_2_7::DOMString"*)* @_ZN11xercesc_2_712DocumentImpl13createCommentERKNS_9DOMStringE to i8*), i8* bitcast (%"class.xercesc_2_7::DocumentFragmentImpl"* (%"class.xercesc_2_7::DocumentImpl"*)* @_ZN11xercesc_2_712DocumentImpl22createDocumentFragmentEv to i8*), i8* bitcast (%"class.xercesc_2_7::DocumentTypeImpl"* (%"class.xercesc_2_7::DocumentImpl"*, %"class.xercesc_2_7::DOMString"*)* @_ZN11xercesc_2_712DocumentImpl18createDocumentTypeERKNS_9DOMStringE to i8*), i8* bitcast (%"class.xercesc_2_7::DocumentTypeImpl"* (%"class.xercesc_2_7::DocumentImpl"*, %"class.xercesc_2_7::DOMString"*, %"class.xercesc_2_7::DOMString"*, %"class.xercesc_2_7::DOMString"*)* @_ZN11xercesc_2_712DocumentImpl18createDocumentTypeERKNS_9DOMStringES3_S3_ to i8*), i8* bitcast (%"class.xercesc_2_7::ElementImpl"* (%"class.xercesc_2_7::DocumentImpl"*, %"class.xercesc_2_7::DOMString"*)* @_ZN11xercesc_2_712DocumentImpl13createElementERKNS_9DOMStringE to i8*), i8* bitcast (%"class.xercesc_2_7::ElementImpl"* (%"class.xercesc_2_7::DocumentImpl"*, i16*)* @_ZN11xercesc_2_712DocumentImpl13createElementEPKt to i8*), i8* bitcast (%"class.xercesc_2_7::EntityImpl"* (%"class.xercesc_2_7::DocumentImpl"*, %"class.xercesc_2_7::DOMString"*)* @_ZN11xercesc_2_712DocumentImpl12createEntityERKNS_9DOMStringE to i8*), i8* bitcast (%"class.xercesc_2_7::EntityReferenceImpl"* (%"class.xercesc_2_7::DocumentImpl"*, %"class.xercesc_2_7::DOMString"*)* @_ZN11xercesc_2_712DocumentImpl21createEntityReferenceERKNS_9DOMStringE to i8*), i8* bitcast (%"class.xercesc_2_7::NotationImpl"* (%"class.xercesc_2_7::DocumentImpl"*, %"class.xercesc_2_7::DOMString"*)* @_ZN11xercesc_2_712DocumentImpl14createNotationERKNS_9DOMStringE to i8*), i8* bitcast (%"class.xercesc_2_7::ProcessingInstructionImpl"* (%"class.xercesc_2_7::DocumentImpl"*, %"class.xercesc_2_7::DOMString"*, %"class.xercesc_2_7::DOMString"*)* @_ZN11xercesc_2_712DocumentImpl27createProcessingInstructionERKNS_9DOMStringES3_ to i8*), i8* bitcast (%"class.xercesc_2_7::TextImpl"* (%"class.xercesc_2_7::DocumentImpl"*, %"class.xercesc_2_7::DOMString"*)* @_ZN11xercesc_2_712DocumentImpl14createTextNodeERKNS_9DOMStringE to i8*), i8* bitcast (%"class.xercesc_2_7::DocumentTypeImpl"* (%"class.xercesc_2_7::DocumentImpl"*)* @_ZN11xercesc_2_712DocumentImpl10getDoctypeEv to i8*), i8* bitcast (%"class.xercesc_2_7::ElementImpl"* (%"class.xercesc_2_7::DocumentImpl"*)* @_ZN11xercesc_2_712DocumentImpl18getDocumentElementEv to i8*), i8* bitcast (%"class.xercesc_2_7::DeepNodeListImpl"* (%"class.xercesc_2_7::DocumentImpl"*, %"class.xercesc_2_7::DOMString"*)* @_ZN11xercesc_2_712DocumentImpl20getElementsByTagNameERKNS_9DOMStringE to i8*), i8* bitcast (%"class.xercesc_2_7::XMLDeclImpl"* (%"class.xercesc_2_7::DocumentImpl"*, %"class.xercesc_2_7::DOMString"*, %"class.xercesc_2_7::DOMString"*, %"class.xercesc_2_7::DOMString"*)* @_ZN11xercesc_2_712DocumentImpl13createXMLDeclERKNS_9DOMStringES3_S3_ to i8*), i8* bitcast (%"class.xercesc_2_7::RangeImpl"* (%"class.xercesc_2_7::DocumentImpl"*)* @_ZN11xercesc_2_712DocumentImpl11createRangeEv to i8*), i8* bitcast (%"class.xercesc_2_7::RefVectorOf.2"* (%"class.xercesc_2_7::DocumentImpl"*)* @_ZN11xercesc_2_712DocumentImpl9getRangesEv to i8*), i8* bitcast (void (%"class.xercesc_2_7::DocumentImpl"*, %"class.xercesc_2_7::RangeImpl"*)* @_ZN11xercesc_2_712DocumentImpl11removeRangeEPNS_9RangeImplE to i8*), i8* bitcast (void (%"class.xercesc_2_7::DocumentImpl"*, %"class.xercesc_2_7::NodeImpl"*, i8*)* @_ZN11xercesc_2_712DocumentImpl11setUserDataEPNS_8NodeImplEPv to i8*), i8* bitcast (i8* (%"class.xercesc_2_7::DocumentImpl"*, %"class.xercesc_2_7::NodeImpl"*)* @_ZN11xercesc_2_712DocumentImpl11getUserDataEPNS_8NodeImplE to i8*), i8* bitcast (%"class.xercesc_2_7::NodeImpl"* (%"class.xercesc_2_7::DocumentImpl"*, %"class.xercesc_2_7::NodeImpl"*, i1)* @_ZN11xercesc_2_712DocumentImpl10importNodeEPNS_8NodeImplEb to i8*), i8* bitcast (%"class.xercesc_2_7::ElementImpl"* (%"class.xercesc_2_7::DocumentImpl"*, %"class.xercesc_2_7::DOMString"*, %"class.xercesc_2_7::DOMString"*)* @_ZN11xercesc_2_712DocumentImpl15createElementNSERKNS_9DOMStringES3_ to i8*), i8* bitcast (%"class.xercesc_2_7::AttrImpl"* (%"class.xercesc_2_7::DocumentImpl"*, %"class.xercesc_2_7::DOMString"*, %"class.xercesc_2_7::DOMString"*)* @_ZN11xercesc_2_712DocumentImpl17createAttributeNSERKNS_9DOMStringES3_ to i8*), i8* bitcast (%"class.xercesc_2_7::DeepNodeListImpl"* (%"class.xercesc_2_7::DocumentImpl"*, %"class.xercesc_2_7::DOMString"*, %"class.xercesc_2_7::DOMString"*)* @_ZN11xercesc_2_712DocumentImpl22getElementsByTagNameNSERKNS_9DOMStringES3_ to i8*), i8* bitcast (%"class.xercesc_2_7::ElementImpl"* (%"class.xercesc_2_7::DocumentImpl"*, %"class.xercesc_2_7::DOMString"*)* @_ZN11xercesc_2_712DocumentImpl14getElementByIdERKNS_9DOMStringE to i8*)] }, align 8
@_ZTIN11xercesc_2_716DOM_DOMExceptionE = external dso_local constant i8*
@.str = private unnamed_addr constant [10 x i8] c"#document\00", align 1
@_ZN11xercesc_2_7L3namE = internal global %"class.xercesc_2_7::DOMString"* null, align 8, !dbg !34
@_ZZN11xercesc_2_712DocumentImpl7isKidOKEPNS_8NodeImplES2_E5kidOK = internal global [14 x i32] zeroinitializer, align 16, !dbg !192
@_ZTVN11xercesc_2_710XMLDeleterE = linkonce_odr dso_local unnamed_addr constant { [4 x i8*] } { [4 x i8*] [i8* null, i8* bitcast ({ i8*, i8* }* @_ZTIN11xercesc_2_710XMLDeleterE to i8*), i8* bitcast (void (%"class.xercesc_2_7::XMLDeleter"*)* @_ZN11xercesc_2_710XMLDeleterD2Ev to i8*), i8* bitcast (void (%"class.xercesc_2_7::XMLDeleter"*)* @_ZN11xercesc_2_710XMLDeleterD0Ev to i8*)] }, comdat, align 8
@_ZTVN10__cxxabiv117__class_type_infoE = external dso_local global i8*
@_ZTSN11xercesc_2_710XMLDeleterE = linkonce_odr dso_local constant [28 x i8] c"N11xercesc_2_710XMLDeleterE\00", comdat, align 1
@_ZTIN11xercesc_2_710XMLDeleterE = linkonce_odr dso_local constant { i8*, i8* } { i8* bitcast (i8** getelementptr inbounds (i8*, i8** @_ZTVN10__cxxabiv117__class_type_infoE, i64 2) to i8*), i8* getelementptr inbounds ([28 x i8], [28 x i8]* @_ZTSN11xercesc_2_710XMLDeleterE, i32 0, i32 0) }, comdat, align 8
@_ZTVN10__cxxabiv120__si_class_type_infoE = external dso_local global i8*
@_ZTSN11xercesc_2_712DocumentImplE = dso_local constant [30 x i8] c"N11xercesc_2_712DocumentImplE\00", align 1
@_ZTIN11xercesc_2_710ParentNodeE = external dso_local constant i8*
@_ZTIN11xercesc_2_712DocumentImplE = dso_local constant { i8*, i8*, i8* } { i8* bitcast (i8** getelementptr inbounds (i8*, i8** @_ZTVN10__cxxabiv120__si_class_type_infoE, i64 2) to i8*), i8* getelementptr inbounds ([30 x i8], [30 x i8]* @_ZTSN11xercesc_2_712DocumentImplE, i32 0, i32 0), i8* bitcast (i8** @_ZTIN11xercesc_2_710ParentNodeE to i8*) }, align 8
@_ZN11xercesc_2_78NodeImpl8USERDATAE = external dso_local constant i16, align 2
@_ZN11xercesc_2_78NodeImpl9HASSTRINGE = external dso_local constant i16, align 2
@_ZTVN11xercesc_2_711RefVectorOfINS_16NodeIteratorImplEEE = linkonce_odr dso_local unnamed_addr constant { [9 x i8*] } { [9 x i8*] [i8* null, i8* bitcast ({ i8*, i8*, i8* }* @_ZTIN11xercesc_2_711RefVectorOfINS_16NodeIteratorImplEEE to i8*), i8* bitcast (void (%"class.xercesc_2_7::RefVectorOf"*)* @_ZN11xercesc_2_711RefVectorOfINS_16NodeIteratorImplEED2Ev to i8*), i8* bitcast (void (%"class.xercesc_2_7::RefVectorOf"*)* @_ZN11xercesc_2_711RefVectorOfINS_16NodeIteratorImplEED0Ev to i8*), i8* bitcast (void (%"class.xercesc_2_7::BaseRefVectorOf"*, %"class.xercesc_2_7::NodeIteratorImpl"*, i32)* @_ZN11xercesc_2_715BaseRefVectorOfINS_16NodeIteratorImplEE12setElementAtEPS1_j to i8*), i8* bitcast (void (%"class.xercesc_2_7::BaseRefVectorOf"*)* @_ZN11xercesc_2_715BaseRefVectorOfINS_16NodeIteratorImplEE17removeAllElementsEv to i8*), i8* bitcast (void (%"class.xercesc_2_7::BaseRefVectorOf"*, i32)* @_ZN11xercesc_2_715BaseRefVectorOfINS_16NodeIteratorImplEE15removeElementAtEj to i8*), i8* bitcast (void (%"class.xercesc_2_7::BaseRefVectorOf"*)* @_ZN11xercesc_2_715BaseRefVectorOfINS_16NodeIteratorImplEE17removeLastElementEv to i8*), i8* bitcast (void (%"class.xercesc_2_7::BaseRefVectorOf"*)* @_ZN11xercesc_2_715BaseRefVectorOfINS_16NodeIteratorImplEE7cleanupEv to i8*)] }, comdat, align 8
@_ZTSN11xercesc_2_711RefVectorOfINS_16NodeIteratorImplEEE = linkonce_odr dso_local constant [53 x i8] c"N11xercesc_2_711RefVectorOfINS_16NodeIteratorImplEEE\00", comdat, align 1
@_ZTSN11xercesc_2_715BaseRefVectorOfINS_16NodeIteratorImplEEE = linkonce_odr dso_local constant [57 x i8] c"N11xercesc_2_715BaseRefVectorOfINS_16NodeIteratorImplEEE\00", comdat, align 1
@_ZTSN11xercesc_2_77XMemoryE = linkonce_odr dso_local constant [24 x i8] c"N11xercesc_2_77XMemoryE\00", comdat, align 1
@_ZTIN11xercesc_2_77XMemoryE = linkonce_odr dso_local constant { i8*, i8* } { i8* bitcast (i8** getelementptr inbounds (i8*, i8** @_ZTVN10__cxxabiv117__class_type_infoE, i64 2) to i8*), i8* getelementptr inbounds ([24 x i8], [24 x i8]* @_ZTSN11xercesc_2_77XMemoryE, i32 0, i32 0) }, comdat, align 8
@_ZTIN11xercesc_2_715BaseRefVectorOfINS_16NodeIteratorImplEEE = linkonce_odr dso_local constant { i8*, i8*, i8* } { i8* bitcast (i8** getelementptr inbounds (i8*, i8** @_ZTVN10__cxxabiv120__si_class_type_infoE, i64 2) to i8*), i8* getelementptr inbounds ([57 x i8], [57 x i8]* @_ZTSN11xercesc_2_715BaseRefVectorOfINS_16NodeIteratorImplEEE, i32 0, i32 0), i8* bitcast ({ i8*, i8* }* @_ZTIN11xercesc_2_77XMemoryE to i8*) }, comdat, align 8
@_ZTIN11xercesc_2_711RefVectorOfINS_16NodeIteratorImplEEE = linkonce_odr dso_local constant { i8*, i8*, i8* } { i8* bitcast (i8** getelementptr inbounds (i8*, i8** @_ZTVN10__cxxabiv120__si_class_type_infoE, i64 2) to i8*), i8* getelementptr inbounds ([53 x i8], [53 x i8]* @_ZTSN11xercesc_2_711RefVectorOfINS_16NodeIteratorImplEEE, i32 0, i32 0), i8* bitcast ({ i8*, i8*, i8* }* @_ZTIN11xercesc_2_715BaseRefVectorOfINS_16NodeIteratorImplEEE to i8*) }, comdat, align 8
@_ZTVN11xercesc_2_715BaseRefVectorOfINS_16NodeIteratorImplEEE = linkonce_odr dso_local unnamed_addr constant { [9 x i8*] } { [9 x i8*] [i8* null, i8* bitcast ({ i8*, i8*, i8* }* @_ZTIN11xercesc_2_715BaseRefVectorOfINS_16NodeIteratorImplEEE to i8*), i8* bitcast (void (%"class.xercesc_2_7::BaseRefVectorOf"*)* @_ZN11xercesc_2_715BaseRefVectorOfINS_16NodeIteratorImplEED2Ev to i8*), i8* bitcast (void (%"class.xercesc_2_7::BaseRefVectorOf"*)* @_ZN11xercesc_2_715BaseRefVectorOfINS_16NodeIteratorImplEED0Ev to i8*), i8* bitcast (void (%"class.xercesc_2_7::BaseRefVectorOf"*, %"class.xercesc_2_7::NodeIteratorImpl"*, i32)* @_ZN11xercesc_2_715BaseRefVectorOfINS_16NodeIteratorImplEE12setElementAtEPS1_j to i8*), i8* bitcast (void (%"class.xercesc_2_7::BaseRefVectorOf"*)* @_ZN11xercesc_2_715BaseRefVectorOfINS_16NodeIteratorImplEE17removeAllElementsEv to i8*), i8* bitcast (void (%"class.xercesc_2_7::BaseRefVectorOf"*, i32)* @_ZN11xercesc_2_715BaseRefVectorOfINS_16NodeIteratorImplEE15removeElementAtEj to i8*), i8* bitcast (void (%"class.xercesc_2_7::BaseRefVectorOf"*)* @_ZN11xercesc_2_715BaseRefVectorOfINS_16NodeIteratorImplEE17removeLastElementEv to i8*), i8* bitcast (void (%"class.xercesc_2_7::BaseRefVectorOf"*)* @_ZN11xercesc_2_715BaseRefVectorOfINS_16NodeIteratorImplEE7cleanupEv to i8*)] }, comdat, align 8
@.str.1 = private unnamed_addr constant [33 x i8] c"./xercesc/util/BaseRefVectorOf.c\00", align 1
@_ZTSN11xercesc_2_730ArrayIndexOutOfBoundsExceptionE = linkonce_odr dso_local constant [48 x i8] c"N11xercesc_2_730ArrayIndexOutOfBoundsExceptionE\00", comdat, align 1
@_ZTIN11xercesc_2_712XMLExceptionE = external dso_local constant i8*
@_ZTIN11xercesc_2_730ArrayIndexOutOfBoundsExceptionE = linkonce_odr dso_local constant { i8*, i8*, i8* } { i8* bitcast (i8** getelementptr inbounds (i8*, i8** @_ZTVN10__cxxabiv120__si_class_type_infoE, i64 2) to i8*), i8* getelementptr inbounds ([48 x i8], [48 x i8]* @_ZTSN11xercesc_2_730ArrayIndexOutOfBoundsExceptionE, i32 0, i32 0), i8* bitcast (i8** @_ZTIN11xercesc_2_712XMLExceptionE to i8*) }, comdat, align 8
@_ZTVN11xercesc_2_730ArrayIndexOutOfBoundsExceptionE = linkonce_odr dso_local unnamed_addr constant { [6 x i8*] } { [6 x i8*] [i8* null, i8* bitcast ({ i8*, i8*, i8* }* @_ZTIN11xercesc_2_730ArrayIndexOutOfBoundsExceptionE to i8*), i8* bitcast (void (%"class.xercesc_2_7::ArrayIndexOutOfBoundsException"*)* @_ZN11xercesc_2_730ArrayIndexOutOfBoundsExceptionD2Ev to i8*), i8* bitcast (void (%"class.xercesc_2_7::ArrayIndexOutOfBoundsException"*)* @_ZN11xercesc_2_730ArrayIndexOutOfBoundsExceptionD0Ev to i8*), i8* bitcast (i16* (%"class.xercesc_2_7::ArrayIndexOutOfBoundsException"*)* @_ZNK11xercesc_2_730ArrayIndexOutOfBoundsException7getTypeEv to i8*), i8* bitcast (%"class.xercesc_2_7::XMLException"* (%"class.xercesc_2_7::ArrayIndexOutOfBoundsException"*)* @_ZNK11xercesc_2_730ArrayIndexOutOfBoundsException9duplicateEv to i8*)] }, comdat, align 8
@_ZN11xercesc_2_76XMLUni37fgArrayIndexOutOfBoundsException_NameE = external dso_local constant [0 x i16], align 2
@_ZTVN11xercesc_2_711RefVectorOfINS_14TreeWalkerImplEEE = linkonce_odr dso_local unnamed_addr constant { [9 x i8*] } { [9 x i8*] [i8* null, i8* bitcast ({ i8*, i8*, i8* }* @_ZTIN11xercesc_2_711RefVectorOfINS_14TreeWalkerImplEEE to i8*), i8* bitcast (void (%"class.xercesc_2_7::RefVectorOf.0"*)* @_ZN11xercesc_2_711RefVectorOfINS_14TreeWalkerImplEED2Ev to i8*), i8* bitcast (void (%"class.xercesc_2_7::RefVectorOf.0"*)* @_ZN11xercesc_2_711RefVectorOfINS_14TreeWalkerImplEED0Ev to i8*), i8* bitcast (void (%"class.xercesc_2_7::BaseRefVectorOf.1"*, %"class.xercesc_2_7::TreeWalkerImpl"*, i32)* @_ZN11xercesc_2_715BaseRefVectorOfINS_14TreeWalkerImplEE12setElementAtEPS1_j to i8*), i8* bitcast (void (%"class.xercesc_2_7::BaseRefVectorOf.1"*)* @_ZN11xercesc_2_715BaseRefVectorOfINS_14TreeWalkerImplEE17removeAllElementsEv to i8*), i8* bitcast (void (%"class.xercesc_2_7::BaseRefVectorOf.1"*, i32)* @_ZN11xercesc_2_715BaseRefVectorOfINS_14TreeWalkerImplEE15removeElementAtEj to i8*), i8* bitcast (void (%"class.xercesc_2_7::BaseRefVectorOf.1"*)* @_ZN11xercesc_2_715BaseRefVectorOfINS_14TreeWalkerImplEE17removeLastElementEv to i8*), i8* bitcast (void (%"class.xercesc_2_7::BaseRefVectorOf.1"*)* @_ZN11xercesc_2_715BaseRefVectorOfINS_14TreeWalkerImplEE7cleanupEv to i8*)] }, comdat, align 8
@_ZTSN11xercesc_2_711RefVectorOfINS_14TreeWalkerImplEEE = linkonce_odr dso_local constant [51 x i8] c"N11xercesc_2_711RefVectorOfINS_14TreeWalkerImplEEE\00", comdat, align 1
@_ZTSN11xercesc_2_715BaseRefVectorOfINS_14TreeWalkerImplEEE = linkonce_odr dso_local constant [55 x i8] c"N11xercesc_2_715BaseRefVectorOfINS_14TreeWalkerImplEEE\00", comdat, align 1
@_ZTIN11xercesc_2_715BaseRefVectorOfINS_14TreeWalkerImplEEE = linkonce_odr dso_local constant { i8*, i8*, i8* } { i8* bitcast (i8** getelementptr inbounds (i8*, i8** @_ZTVN10__cxxabiv120__si_class_type_infoE, i64 2) to i8*), i8* getelementptr inbounds ([55 x i8], [55 x i8]* @_ZTSN11xercesc_2_715BaseRefVectorOfINS_14TreeWalkerImplEEE, i32 0, i32 0), i8* bitcast ({ i8*, i8* }* @_ZTIN11xercesc_2_77XMemoryE to i8*) }, comdat, align 8
@_ZTIN11xercesc_2_711RefVectorOfINS_14TreeWalkerImplEEE = linkonce_odr dso_local constant { i8*, i8*, i8* } { i8* bitcast (i8** getelementptr inbounds (i8*, i8** @_ZTVN10__cxxabiv120__si_class_type_infoE, i64 2) to i8*), i8* getelementptr inbounds ([51 x i8], [51 x i8]* @_ZTSN11xercesc_2_711RefVectorOfINS_14TreeWalkerImplEEE, i32 0, i32 0), i8* bitcast ({ i8*, i8*, i8* }* @_ZTIN11xercesc_2_715BaseRefVectorOfINS_14TreeWalkerImplEEE to i8*) }, comdat, align 8
@_ZTVN11xercesc_2_715BaseRefVectorOfINS_14TreeWalkerImplEEE = linkonce_odr dso_local unnamed_addr constant { [9 x i8*] } { [9 x i8*] [i8* null, i8* bitcast ({ i8*, i8*, i8* }* @_ZTIN11xercesc_2_715BaseRefVectorOfINS_14TreeWalkerImplEEE to i8*), i8* bitcast (void (%"class.xercesc_2_7::BaseRefVectorOf.1"*)* @_ZN11xercesc_2_715BaseRefVectorOfINS_14TreeWalkerImplEED2Ev to i8*), i8* bitcast (void (%"class.xercesc_2_7::BaseRefVectorOf.1"*)* @_ZN11xercesc_2_715BaseRefVectorOfINS_14TreeWalkerImplEED0Ev to i8*), i8* bitcast (void (%"class.xercesc_2_7::BaseRefVectorOf.1"*, %"class.xercesc_2_7::TreeWalkerImpl"*, i32)* @_ZN11xercesc_2_715BaseRefVectorOfINS_14TreeWalkerImplEE12setElementAtEPS1_j to i8*), i8* bitcast (void (%"class.xercesc_2_7::BaseRefVectorOf.1"*)* @_ZN11xercesc_2_715BaseRefVectorOfINS_14TreeWalkerImplEE17removeAllElementsEv to i8*), i8* bitcast (void (%"class.xercesc_2_7::BaseRefVectorOf.1"*, i32)* @_ZN11xercesc_2_715BaseRefVectorOfINS_14TreeWalkerImplEE15removeElementAtEj to i8*), i8* bitcast (void (%"class.xercesc_2_7::BaseRefVectorOf.1"*)* @_ZN11xercesc_2_715BaseRefVectorOfINS_14TreeWalkerImplEE17removeLastElementEv to i8*), i8* bitcast (void (%"class.xercesc_2_7::BaseRefVectorOf.1"*)* @_ZN11xercesc_2_715BaseRefVectorOfINS_14TreeWalkerImplEE7cleanupEv to i8*)] }, comdat, align 8
@_ZTVN11xercesc_2_711RefVectorOfINS_9RangeImplEEE = linkonce_odr dso_local unnamed_addr constant { [9 x i8*] } { [9 x i8*] [i8* null, i8* bitcast ({ i8*, i8*, i8* }* @_ZTIN11xercesc_2_711RefVectorOfINS_9RangeImplEEE to i8*), i8* bitcast (void (%"class.xercesc_2_7::RefVectorOf.2"*)* @_ZN11xercesc_2_711RefVectorOfINS_9RangeImplEED2Ev to i8*), i8* bitcast (void (%"class.xercesc_2_7::RefVectorOf.2"*)* @_ZN11xercesc_2_711RefVectorOfINS_9RangeImplEED0Ev to i8*), i8* bitcast (void (%"class.xercesc_2_7::BaseRefVectorOf.3"*, %"class.xercesc_2_7::RangeImpl"*, i32)* @_ZN11xercesc_2_715BaseRefVectorOfINS_9RangeImplEE12setElementAtEPS1_j to i8*), i8* bitcast (void (%"class.xercesc_2_7::BaseRefVectorOf.3"*)* @_ZN11xercesc_2_715BaseRefVectorOfINS_9RangeImplEE17removeAllElementsEv to i8*), i8* bitcast (void (%"class.xercesc_2_7::BaseRefVectorOf.3"*, i32)* @_ZN11xercesc_2_715BaseRefVectorOfINS_9RangeImplEE15removeElementAtEj to i8*), i8* bitcast (void (%"class.xercesc_2_7::BaseRefVectorOf.3"*)* @_ZN11xercesc_2_715BaseRefVectorOfINS_9RangeImplEE17removeLastElementEv to i8*), i8* bitcast (void (%"class.xercesc_2_7::BaseRefVectorOf.3"*)* @_ZN11xercesc_2_715BaseRefVectorOfINS_9RangeImplEE7cleanupEv to i8*)] }, comdat, align 8
@_ZTSN11xercesc_2_711RefVectorOfINS_9RangeImplEEE = linkonce_odr dso_local constant [45 x i8] c"N11xercesc_2_711RefVectorOfINS_9RangeImplEEE\00", comdat, align 1
@_ZTSN11xercesc_2_715BaseRefVectorOfINS_9RangeImplEEE = linkonce_odr dso_local constant [49 x i8] c"N11xercesc_2_715BaseRefVectorOfINS_9RangeImplEEE\00", comdat, align 1
@_ZTIN11xercesc_2_715BaseRefVectorOfINS_9RangeImplEEE = linkonce_odr dso_local constant { i8*, i8*, i8* } { i8* bitcast (i8** getelementptr inbounds (i8*, i8** @_ZTVN10__cxxabiv120__si_class_type_infoE, i64 2) to i8*), i8* getelementptr inbounds ([49 x i8], [49 x i8]* @_ZTSN11xercesc_2_715BaseRefVectorOfINS_9RangeImplEEE, i32 0, i32 0), i8* bitcast ({ i8*, i8* }* @_ZTIN11xercesc_2_77XMemoryE to i8*) }, comdat, align 8
@_ZTIN11xercesc_2_711RefVectorOfINS_9RangeImplEEE = linkonce_odr dso_local constant { i8*, i8*, i8* } { i8* bitcast (i8** getelementptr inbounds (i8*, i8** @_ZTVN10__cxxabiv120__si_class_type_infoE, i64 2) to i8*), i8* getelementptr inbounds ([45 x i8], [45 x i8]* @_ZTSN11xercesc_2_711RefVectorOfINS_9RangeImplEEE, i32 0, i32 0), i8* bitcast ({ i8*, i8*, i8* }* @_ZTIN11xercesc_2_715BaseRefVectorOfINS_9RangeImplEEE to i8*) }, comdat, align 8
@_ZTVN11xercesc_2_715BaseRefVectorOfINS_9RangeImplEEE = linkonce_odr dso_local unnamed_addr constant { [9 x i8*] } { [9 x i8*] [i8* null, i8* bitcast ({ i8*, i8*, i8* }* @_ZTIN11xercesc_2_715BaseRefVectorOfINS_9RangeImplEEE to i8*), i8* bitcast (void (%"class.xercesc_2_7::BaseRefVectorOf.3"*)* @_ZN11xercesc_2_715BaseRefVectorOfINS_9RangeImplEED2Ev to i8*), i8* bitcast (void (%"class.xercesc_2_7::BaseRefVectorOf.3"*)* @_ZN11xercesc_2_715BaseRefVectorOfINS_9RangeImplEED0Ev to i8*), i8* bitcast (void (%"class.xercesc_2_7::BaseRefVectorOf.3"*, %"class.xercesc_2_7::RangeImpl"*, i32)* @_ZN11xercesc_2_715BaseRefVectorOfINS_9RangeImplEE12setElementAtEPS1_j to i8*), i8* bitcast (void (%"class.xercesc_2_7::BaseRefVectorOf.3"*)* @_ZN11xercesc_2_715BaseRefVectorOfINS_9RangeImplEE17removeAllElementsEv to i8*), i8* bitcast (void (%"class.xercesc_2_7::BaseRefVectorOf.3"*, i32)* @_ZN11xercesc_2_715BaseRefVectorOfINS_9RangeImplEE15removeElementAtEj to i8*), i8* bitcast (void (%"class.xercesc_2_7::BaseRefVectorOf.3"*)* @_ZN11xercesc_2_715BaseRefVectorOfINS_9RangeImplEE17removeLastElementEv to i8*), i8* bitcast (void (%"class.xercesc_2_7::BaseRefVectorOf.3"*)* @_ZN11xercesc_2_715BaseRefVectorOfINS_9RangeImplEE7cleanupEv to i8*)] }, comdat, align 8
@.str.2 = private unnamed_addr constant [32 x i8] c"./xercesc/util/RefHashTableOf.c\00", align 1
@_ZTSN11xercesc_2_724IllegalArgumentExceptionE = linkonce_odr dso_local constant [42 x i8] c"N11xercesc_2_724IllegalArgumentExceptionE\00", comdat, align 1
@_ZTIN11xercesc_2_724IllegalArgumentExceptionE = linkonce_odr dso_local constant { i8*, i8*, i8* } { i8* bitcast (i8** getelementptr inbounds (i8*, i8** @_ZTVN10__cxxabiv120__si_class_type_infoE, i64 2) to i8*), i8* getelementptr inbounds ([42 x i8], [42 x i8]* @_ZTSN11xercesc_2_724IllegalArgumentExceptionE, i32 0, i32 0), i8* bitcast (i8** @_ZTIN11xercesc_2_712XMLExceptionE to i8*) }, comdat, align 8
@_ZTVN11xercesc_2_724IllegalArgumentExceptionE = linkonce_odr dso_local unnamed_addr constant { [6 x i8*] } { [6 x i8*] [i8* null, i8* bitcast ({ i8*, i8*, i8* }* @_ZTIN11xercesc_2_724IllegalArgumentExceptionE to i8*), i8* bitcast (void (%"class.xercesc_2_7::IllegalArgumentException"*)* @_ZN11xercesc_2_724IllegalArgumentExceptionD2Ev to i8*), i8* bitcast (void (%"class.xercesc_2_7::IllegalArgumentException"*)* @_ZN11xercesc_2_724IllegalArgumentExceptionD0Ev to i8*), i8* bitcast (i16* (%"class.xercesc_2_7::IllegalArgumentException"*)* @_ZNK11xercesc_2_724IllegalArgumentException7getTypeEv to i8*), i8* bitcast (%"class.xercesc_2_7::XMLException"* (%"class.xercesc_2_7::IllegalArgumentException"*)* @_ZNK11xercesc_2_724IllegalArgumentException9duplicateEv to i8*)] }, comdat, align 8
@_ZN11xercesc_2_76XMLUni31fgIllegalArgumentException_NameE = external dso_local constant [0 x i16], align 2
@_ZTSN11xercesc_2_722NoSuchElementExceptionE = linkonce_odr dso_local constant [40 x i8] c"N11xercesc_2_722NoSuchElementExceptionE\00", comdat, align 1
@_ZTIN11xercesc_2_722NoSuchElementExceptionE = linkonce_odr dso_local constant { i8*, i8*, i8* } { i8* bitcast (i8** getelementptr inbounds (i8*, i8** @_ZTVN10__cxxabiv120__si_class_type_infoE, i64 2) to i8*), i8* getelementptr inbounds ([40 x i8], [40 x i8]* @_ZTSN11xercesc_2_722NoSuchElementExceptionE, i32 0, i32 0), i8* bitcast (i8** @_ZTIN11xercesc_2_712XMLExceptionE to i8*) }, comdat, align 8
@_ZTVN11xercesc_2_722NoSuchElementExceptionE = linkonce_odr dso_local unnamed_addr constant { [6 x i8*] } { [6 x i8*] [i8* null, i8* bitcast ({ i8*, i8*, i8* }* @_ZTIN11xercesc_2_722NoSuchElementExceptionE to i8*), i8* bitcast (void (%"class.xercesc_2_7::NoSuchElementException"*)* @_ZN11xercesc_2_722NoSuchElementExceptionD2Ev to i8*), i8* bitcast (void (%"class.xercesc_2_7::NoSuchElementException"*)* @_ZN11xercesc_2_722NoSuchElementExceptionD0Ev to i8*), i8* bitcast (i16* (%"class.xercesc_2_7::NoSuchElementException"*)* @_ZNK11xercesc_2_722NoSuchElementException7getTypeEv to i8*), i8* bitcast (%"class.xercesc_2_7::XMLException"* (%"class.xercesc_2_7::NoSuchElementException"*)* @_ZNK11xercesc_2_722NoSuchElementException9duplicateEv to i8*)] }, comdat, align 8
@_ZN11xercesc_2_76XMLUni29fgNoSuchElementException_NameE = external dso_local constant [0 x i16], align 2
@llvm.global_ctors = appending global [1 x { i32, void ()*, i8* }] [{ i32, void ()*, i8* } { i32 65535, void ()* @_GLOBAL__sub_I_DocumentImpl.cpp, i8* null }]

@_ZN11xercesc_2_712DocumentImplC1EPNS_13MemoryManagerE = dso_local unnamed_addr alias void (%"class.xercesc_2_7::DocumentImpl"*, %"class.xercesc_2_7::MemoryManager"*), void (%"class.xercesc_2_7::DocumentImpl"*, %"class.xercesc_2_7::MemoryManager"*)* @_ZN11xercesc_2_712DocumentImplC2EPNS_13MemoryManagerE
@_ZN11xercesc_2_712DocumentImplC1ERKNS_9DOMStringES3_PNS_16DocumentTypeImplEPNS_13MemoryManagerE = dso_local unnamed_addr alias void (%"class.xercesc_2_7::DocumentImpl"*, %"class.xercesc_2_7::DOMString"*, %"class.xercesc_2_7::DOMString"*, %"class.xercesc_2_7::DocumentTypeImpl"*, %"class.xercesc_2_7::MemoryManager"*), void (%"class.xercesc_2_7::DocumentImpl"*, %"class.xercesc_2_7::DOMString"*, %"class.xercesc_2_7::DOMString"*, %"class.xercesc_2_7::DocumentTypeImpl"*, %"class.xercesc_2_7::MemoryManager"*)* @_ZN11xercesc_2_712DocumentImplC2ERKNS_9DOMStringES3_PNS_16DocumentTypeImplEPNS_13MemoryManagerE
@_ZN11xercesc_2_712DocumentImplD1Ev = dso_local unnamed_addr alias void (%"class.xercesc_2_7::DocumentImpl"*), void (%"class.xercesc_2_7::DocumentImpl"*)* @_ZN11xercesc_2_712DocumentImplD2Ev

; Function Attrs: nounwind readnone speculatable willreturn
declare void @llvm.dbg.declare(metadata, metadata, metadata) #0

; Function Attrs: noinline nounwind uwtable
define linkonce_odr dso_local void @_ZN11xercesc_2_710XMLDeleterD0Ev(%"class.xercesc_2_7::XMLDeleter"* %this) unnamed_addr #1 comdat align 2 !dbg !2072 {
entry:
  %this.addr = alloca %"class.xercesc_2_7::XMLDeleter"*, align 8
  store %"class.xercesc_2_7::XMLDeleter"* %this, %"class.xercesc_2_7::XMLDeleter"** %this.addr, align 8
  call void @llvm.dbg.declare(metadata %"class.xercesc_2_7::XMLDeleter"** %this.addr, metadata !2091, metadata !DIExpression()), !dbg !2093
  %this1 = load %"class.xercesc_2_7::XMLDeleter"*, %"class.xercesc_2_7::XMLDeleter"** %this.addr, align 8
  call void @_ZN11xercesc_2_710XMLDeleterD2Ev(%"class.xercesc_2_7::XMLDeleter"* %this1) #8, !dbg !2094
  %0 = bitcast %"class.xercesc_2_7::XMLDeleter"* %this1 to i8*, !dbg !2094
  call void @_ZdlPv(i8* %0) #9, !dbg !2094
  ret void, !dbg !2095
}

; Function Attrs: noinline nounwind uwtable
define linkonce_odr dso_local void @_ZN11xercesc_2_710XMLDeleterD2Ev(%"class.xercesc_2_7::XMLDeleter"* %this) unnamed_addr #1 comdat align 2 !dbg !2096 {
entry:
  %this.addr = alloca %"class.xercesc_2_7::XMLDeleter"*, align 8
  store %"class.xercesc_2_7::XMLDeleter"* %this, %"class.xercesc_2_7::XMLDeleter"** %this.addr, align 8
  call void @llvm.dbg.declare(metadata %"class.xercesc_2_7::XMLDeleter"** %this.addr, metadata !2097, metadata !DIExpression()), !dbg !2098
  %this1 = load %"class.xercesc_2_7::XMLDeleter"*, %"class.xercesc_2_7::XMLDeleter"** %this.addr, align 8
  ret void, !dbg !2099
}

; Function Attrs: nobuiltin nounwind
declare dso_local void @_ZdlPv(i8*) #2

; Function Attrs: noinline uwtable
define internal void @__cxx_global_var_init() #3 section ".text.startup" !dbg !2100 {
entry:
  call void @_ZN11xercesc_2_718XMLRegisterCleanupC1Ev(%"class.xercesc_2_7::XMLRegisterCleanup"* @_ZN11xercesc_2_7L10namCleanupE), !dbg !2101
  ret void, !dbg !2101
}

declare dso_local void @_ZN11xercesc_2_718XMLRegisterCleanupC1Ev(%"class.xercesc_2_7::XMLRegisterCleanup"*) unnamed_addr #4

; Function Attrs: noinline uwtable
define dso_local void @_ZN11xercesc_2_712DocumentImplC2EPNS_13MemoryManagerE(%"class.xercesc_2_7::DocumentImpl"* %this, %"class.xercesc_2_7::MemoryManager"* %manager) unnamed_addr #3 align 2 personality i8* bitcast (i32 (...)* @__gxx_personality_v0 to i8*) !dbg !2102 {
entry:
  %this.addr = alloca %"class.xercesc_2_7::DocumentImpl"*, align 8
  %manager.addr = alloca %"class.xercesc_2_7::MemoryManager"*, align 8
  %exn.slot = alloca i8*
  %ehselector.slot = alloca i32
  store %"class.xercesc_2_7::DocumentImpl"* %this, %"class.xercesc_2_7::DocumentImpl"** %this.addr, align 8
  call void @llvm.dbg.declare(metadata %"class.xercesc_2_7::DocumentImpl"** %this.addr, metadata !2103, metadata !DIExpression()), !dbg !2104
  store %"class.xercesc_2_7::MemoryManager"* %manager, %"class.xercesc_2_7::MemoryManager"** %manager.addr, align 8
  call void @llvm.dbg.declare(metadata %"class.xercesc_2_7::MemoryManager"** %manager.addr, metadata !2105, metadata !DIExpression()), !dbg !2106
  %this1 = load %"class.xercesc_2_7::DocumentImpl"*, %"class.xercesc_2_7::DocumentImpl"** %this.addr, align 8
  %0 = bitcast %"class.xercesc_2_7::DocumentImpl"* %this1 to i32 (...)***, !dbg !2107
  store i32 (...)** bitcast (i8** getelementptr inbounds ({ [76 x i8*] }, { [76 x i8*] }* @_ZTVN11xercesc_2_712DocumentImplE, i32 0, inrange i32 0, i32 2) to i32 (...)**), i32 (...)*** %0, align 8, !dbg !2107
  %1 = bitcast %"class.xercesc_2_7::DocumentImpl"* %this1 to %"class.xercesc_2_7::ParentNode"*, !dbg !2107
  call void @_ZN11xercesc_2_710ParentNodeC2EPNS_12DocumentImplE(%"class.xercesc_2_7::ParentNode"* %1, %"class.xercesc_2_7::DocumentImpl"* %this1), !dbg !2108
  %2 = bitcast %"class.xercesc_2_7::DocumentImpl"* %this1 to i32 (...)***, !dbg !2107
  store i32 (...)** bitcast (i8** getelementptr inbounds ({ [76 x i8*] }, { [76 x i8*] }* @_ZTVN11xercesc_2_712DocumentImplE, i32 0, inrange i32 0, i32 2) to i32 (...)**), i32 (...)*** %2, align 8, !dbg !2107
  %docType = getelementptr inbounds %"class.xercesc_2_7::DocumentImpl", %"class.xercesc_2_7::DocumentImpl"* %this1, i32 0, i32 1, !dbg !2109
  store %"class.xercesc_2_7::DocumentTypeImpl"* null, %"class.xercesc_2_7::DocumentTypeImpl"** %docType, align 8, !dbg !2109
  %docElement = getelementptr inbounds %"class.xercesc_2_7::DocumentImpl", %"class.xercesc_2_7::DocumentImpl"* %this1, i32 0, i32 2, !dbg !2110
  store %"class.xercesc_2_7::ElementImpl"* null, %"class.xercesc_2_7::ElementImpl"** %docElement, align 8, !dbg !2110
  %namePool = getelementptr inbounds %"class.xercesc_2_7::DocumentImpl", %"class.xercesc_2_7::DocumentImpl"* %this1, i32 0, i32 3, !dbg !2111
  store %"class.xercesc_2_7::DStringPool"* null, %"class.xercesc_2_7::DStringPool"** %namePool, align 8, !dbg !2111
  %fNodeIDMap = getelementptr inbounds %"class.xercesc_2_7::DocumentImpl", %"class.xercesc_2_7::DocumentImpl"* %this1, i32 0, i32 4, !dbg !2112
  store %"class.xercesc_2_7::NodeIDMap"* null, %"class.xercesc_2_7::NodeIDMap"** %fNodeIDMap, align 8, !dbg !2112
  %iterators = getelementptr inbounds %"class.xercesc_2_7::DocumentImpl", %"class.xercesc_2_7::DocumentImpl"* %this1, i32 0, i32 5, !dbg !2113
  store %"class.xercesc_2_7::RefVectorOf"* null, %"class.xercesc_2_7::RefVectorOf"** %iterators, align 8, !dbg !2113
  %treeWalkers = getelementptr inbounds %"class.xercesc_2_7::DocumentImpl", %"class.xercesc_2_7::DocumentImpl"* %this1, i32 0, i32 6, !dbg !2114
  store %"class.xercesc_2_7::RefVectorOf.0"* null, %"class.xercesc_2_7::RefVectorOf.0"** %treeWalkers, align 8, !dbg !2114
  %userData = getelementptr inbounds %"class.xercesc_2_7::DocumentImpl", %"class.xercesc_2_7::DocumentImpl"* %this1, i32 0, i32 7, !dbg !2115
  store %"class.xercesc_2_7::RefHashTableOf"* null, %"class.xercesc_2_7::RefHashTableOf"** %userData, align 8, !dbg !2115
  %ranges = getelementptr inbounds %"class.xercesc_2_7::DocumentImpl", %"class.xercesc_2_7::DocumentImpl"* %this1, i32 0, i32 8, !dbg !2116
  store %"class.xercesc_2_7::RefVectorOf.2"* null, %"class.xercesc_2_7::RefVectorOf.2"** %ranges, align 8, !dbg !2116
  %fChanges = getelementptr inbounds %"class.xercesc_2_7::DocumentImpl", %"class.xercesc_2_7::DocumentImpl"* %this1, i32 0, i32 9, !dbg !2117
  store i32 0, i32* %fChanges, align 8, !dbg !2117
  %errorChecking = getelementptr inbounds %"class.xercesc_2_7::DocumentImpl", %"class.xercesc_2_7::DocumentImpl"* %this1, i32 0, i32 10, !dbg !2118
  store i8 1, i8* %errorChecking, align 4, !dbg !2118
  %fMemoryManager = getelementptr inbounds %"class.xercesc_2_7::DocumentImpl", %"class.xercesc_2_7::DocumentImpl"* %this1, i32 0, i32 11, !dbg !2119
  %3 = load %"class.xercesc_2_7::MemoryManager"*, %"class.xercesc_2_7::MemoryManager"** %manager.addr, align 8, !dbg !2120
  store %"class.xercesc_2_7::MemoryManager"* %3, %"class.xercesc_2_7::MemoryManager"** %fMemoryManager, align 8, !dbg !2119
  %fMemoryManager2 = getelementptr inbounds %"class.xercesc_2_7::DocumentImpl", %"class.xercesc_2_7::DocumentImpl"* %this1, i32 0, i32 11, !dbg !2121
  %4 = load %"class.xercesc_2_7::MemoryManager"*, %"class.xercesc_2_7::MemoryManager"** %fMemoryManager2, align 8, !dbg !2121
  %call = invoke i8* @_ZN11xercesc_2_77XMemorynwEmPNS_13MemoryManagerE(i64 24, %"class.xercesc_2_7::MemoryManager"* %4)
          to label %invoke.cont unwind label %lpad, !dbg !2123

invoke.cont:                                      ; preds = %entry
  %5 = bitcast i8* %call to %"class.xercesc_2_7::DStringPool"*, !dbg !2123
  %fMemoryManager3 = getelementptr inbounds %"class.xercesc_2_7::DocumentImpl", %"class.xercesc_2_7::DocumentImpl"* %this1, i32 0, i32 11, !dbg !2124
  %6 = load %"class.xercesc_2_7::MemoryManager"*, %"class.xercesc_2_7::MemoryManager"** %fMemoryManager3, align 8, !dbg !2124
  invoke void @_ZN11xercesc_2_711DStringPoolC1EiPNS_13MemoryManagerE(%"class.xercesc_2_7::DStringPool"* %5, i32 257, %"class.xercesc_2_7::MemoryManager"* %6)
          to label %invoke.cont5 unwind label %lpad4, !dbg !2125

invoke.cont5:                                     ; preds = %invoke.cont
  %namePool6 = getelementptr inbounds %"class.xercesc_2_7::DocumentImpl", %"class.xercesc_2_7::DocumentImpl"* %this1, i32 0, i32 3, !dbg !2126
  store %"class.xercesc_2_7::DStringPool"* %5, %"class.xercesc_2_7::DStringPool"** %namePool6, align 8, !dbg !2127
  ret void, !dbg !2128

lpad:                                             ; preds = %entry
  %7 = landingpad { i8*, i32 }
          cleanup, !dbg !2129
  %8 = extractvalue { i8*, i32 } %7, 0, !dbg !2129
  store i8* %8, i8** %exn.slot, align 8, !dbg !2129
  %9 = extractvalue { i8*, i32 } %7, 1, !dbg !2129
  store i32 %9, i32* %ehselector.slot, align 4, !dbg !2129
  br label %ehcleanup, !dbg !2129

lpad4:                                            ; preds = %invoke.cont
  %10 = landingpad { i8*, i32 }
          cleanup, !dbg !2129
  %11 = extractvalue { i8*, i32 } %10, 0, !dbg !2129
  store i8* %11, i8** %exn.slot, align 8, !dbg !2129
  %12 = extractvalue { i8*, i32 } %10, 1, !dbg !2129
  store i32 %12, i32* %ehselector.slot, align 4, !dbg !2129
  call void @_ZN11xercesc_2_77XMemorydlEPvPNS_13MemoryManagerE(i8* %call, %"class.xercesc_2_7::MemoryManager"* %4) #8, !dbg !2123
  br label %ehcleanup, !dbg !2123

ehcleanup:                                        ; preds = %lpad4, %lpad
  %13 = bitcast %"class.xercesc_2_7::DocumentImpl"* %this1 to %"class.xercesc_2_7::ParentNode"*, !dbg !2129
  call void @_ZN11xercesc_2_710ParentNodeD2Ev(%"class.xercesc_2_7::ParentNode"* %13) #8, !dbg !2129
  br label %eh.resume, !dbg !2129

eh.resume:                                        ; preds = %ehcleanup
  %exn = load i8*, i8** %exn.slot, align 8, !dbg !2129
  %sel = load i32, i32* %ehselector.slot, align 4, !dbg !2129
  %lpad.val = insertvalue { i8*, i32 } undef, i8* %exn, 0, !dbg !2129
  %lpad.val7 = insertvalue { i8*, i32 } %lpad.val, i32 %sel, 1, !dbg !2129
  resume { i8*, i32 } %lpad.val7, !dbg !2129
}

declare dso_local void @_ZN11xercesc_2_710ParentNodeC2EPNS_12DocumentImplE(%"class.xercesc_2_7::ParentNode"*, %"class.xercesc_2_7::DocumentImpl"*) unnamed_addr #4

declare dso_local i8* @_ZN11xercesc_2_77XMemorynwEmPNS_13MemoryManagerE(i64, %"class.xercesc_2_7::MemoryManager"*) #4

declare dso_local i32 @__gxx_personality_v0(...)

declare dso_local void @_ZN11xercesc_2_711DStringPoolC1EiPNS_13MemoryManagerE(%"class.xercesc_2_7::DStringPool"*, i32, %"class.xercesc_2_7::MemoryManager"*) unnamed_addr #4

; Function Attrs: nounwind
declare dso_local void @_ZN11xercesc_2_77XMemorydlEPvPNS_13MemoryManagerE(i8*, %"class.xercesc_2_7::MemoryManager"*) #5

; Function Attrs: noinline nounwind uwtable
define linkonce_odr dso_local void @_ZN11xercesc_2_710ParentNodeD2Ev(%"class.xercesc_2_7::ParentNode"* %this) unnamed_addr #1 comdat align 2 !dbg !2130 {
entry:
  %this.addr = alloca %"class.xercesc_2_7::ParentNode"*, align 8
  store %"class.xercesc_2_7::ParentNode"* %this, %"class.xercesc_2_7::ParentNode"** %this.addr, align 8
  call void @llvm.dbg.declare(metadata %"class.xercesc_2_7::ParentNode"** %this.addr, metadata !2135, metadata !DIExpression()), !dbg !2137
  %this1 = load %"class.xercesc_2_7::ParentNode"*, %"class.xercesc_2_7::ParentNode"** %this.addr, align 8
  %0 = bitcast %"class.xercesc_2_7::ParentNode"* %this1 to %"class.xercesc_2_7::ChildNode"*, !dbg !2138
  call void @_ZN11xercesc_2_79ChildNodeD2Ev(%"class.xercesc_2_7::ChildNode"* %0) #8, !dbg !2138
  ret void, !dbg !2140
}

; Function Attrs: noinline uwtable
define dso_local void @_ZN11xercesc_2_712DocumentImplC2ERKNS_9DOMStringES3_PNS_16DocumentTypeImplEPNS_13MemoryManagerE(%"class.xercesc_2_7::DocumentImpl"* %this, %"class.xercesc_2_7::DOMString"* dereferenceable(8) %fNamespaceURI, %"class.xercesc_2_7::DOMString"* dereferenceable(8) %qualifiedName, %"class.xercesc_2_7::DocumentTypeImpl"* %doctype, %"class.xercesc_2_7::MemoryManager"* %manager) unnamed_addr #3 align 2 personality i8* bitcast (i32 (...)* @__gxx_personality_v0 to i8*) !dbg !2141 {
entry:
  %this.addr = alloca %"class.xercesc_2_7::DocumentImpl"*, align 8
  %fNamespaceURI.addr = alloca %"class.xercesc_2_7::DOMString"*, align 8
  %qualifiedName.addr = alloca %"class.xercesc_2_7::DOMString"*, align 8
  %doctype.addr = alloca %"class.xercesc_2_7::DocumentTypeImpl"*, align 8
  %manager.addr = alloca %"class.xercesc_2_7::MemoryManager"*, align 8
  %exn.slot = alloca i8*
  %ehselector.slot = alloca i32
  store %"class.xercesc_2_7::DocumentImpl"* %this, %"class.xercesc_2_7::DocumentImpl"** %this.addr, align 8
  call void @llvm.dbg.declare(metadata %"class.xercesc_2_7::DocumentImpl"** %this.addr, metadata !2142, metadata !DIExpression()), !dbg !2143
  store %"class.xercesc_2_7::DOMString"* %fNamespaceURI, %"class.xercesc_2_7::DOMString"** %fNamespaceURI.addr, align 8
  call void @llvm.dbg.declare(metadata %"class.xercesc_2_7::DOMString"** %fNamespaceURI.addr, metadata !2144, metadata !DIExpression()), !dbg !2145
  store %"class.xercesc_2_7::DOMString"* %qualifiedName, %"class.xercesc_2_7::DOMString"** %qualifiedName.addr, align 8
  call void @llvm.dbg.declare(metadata %"class.xercesc_2_7::DOMString"** %qualifiedName.addr, metadata !2146, metadata !DIExpression()), !dbg !2147
  store %"class.xercesc_2_7::DocumentTypeImpl"* %doctype, %"class.xercesc_2_7::DocumentTypeImpl"** %doctype.addr, align 8
  call void @llvm.dbg.declare(metadata %"class.xercesc_2_7::DocumentTypeImpl"** %doctype.addr, metadata !2148, metadata !DIExpression()), !dbg !2149
  store %"class.xercesc_2_7::MemoryManager"* %manager, %"class.xercesc_2_7::MemoryManager"** %manager.addr, align 8
  call void @llvm.dbg.declare(metadata %"class.xercesc_2_7::MemoryManager"** %manager.addr, metadata !2150, metadata !DIExpression()), !dbg !2151
  %this1 = load %"class.xercesc_2_7::DocumentImpl"*, %"class.xercesc_2_7::DocumentImpl"** %this.addr, align 8
  %0 = bitcast %"class.xercesc_2_7::DocumentImpl"* %this1 to i32 (...)***, !dbg !2152
  store i32 (...)** bitcast (i8** getelementptr inbounds ({ [76 x i8*] }, { [76 x i8*] }* @_ZTVN11xercesc_2_712DocumentImplE, i32 0, inrange i32 0, i32 2) to i32 (...)**), i32 (...)*** %0, align 8, !dbg !2152
  %1 = bitcast %"class.xercesc_2_7::DocumentImpl"* %this1 to %"class.xercesc_2_7::ParentNode"*, !dbg !2152
  call void @_ZN11xercesc_2_710ParentNodeC2EPNS_12DocumentImplE(%"class.xercesc_2_7::ParentNode"* %1, %"class.xercesc_2_7::DocumentImpl"* %this1), !dbg !2153
  %2 = bitcast %"class.xercesc_2_7::DocumentImpl"* %this1 to i32 (...)***, !dbg !2152
  store i32 (...)** bitcast (i8** getelementptr inbounds ({ [76 x i8*] }, { [76 x i8*] }* @_ZTVN11xercesc_2_712DocumentImplE, i32 0, inrange i32 0, i32 2) to i32 (...)**), i32 (...)*** %2, align 8, !dbg !2152
  %docType = getelementptr inbounds %"class.xercesc_2_7::DocumentImpl", %"class.xercesc_2_7::DocumentImpl"* %this1, i32 0, i32 1, !dbg !2154
  store %"class.xercesc_2_7::DocumentTypeImpl"* null, %"class.xercesc_2_7::DocumentTypeImpl"** %docType, align 8, !dbg !2154
  %docElement = getelementptr inbounds %"class.xercesc_2_7::DocumentImpl", %"class.xercesc_2_7::DocumentImpl"* %this1, i32 0, i32 2, !dbg !2155
  store %"class.xercesc_2_7::ElementImpl"* null, %"class.xercesc_2_7::ElementImpl"** %docElement, align 8, !dbg !2155
  %namePool = getelementptr inbounds %"class.xercesc_2_7::DocumentImpl", %"class.xercesc_2_7::DocumentImpl"* %this1, i32 0, i32 3, !dbg !2156
  store %"class.xercesc_2_7::DStringPool"* null, %"class.xercesc_2_7::DStringPool"** %namePool, align 8, !dbg !2156
  %fNodeIDMap = getelementptr inbounds %"class.xercesc_2_7::DocumentImpl", %"class.xercesc_2_7::DocumentImpl"* %this1, i32 0, i32 4, !dbg !2157
  store %"class.xercesc_2_7::NodeIDMap"* null, %"class.xercesc_2_7::NodeIDMap"** %fNodeIDMap, align 8, !dbg !2157
  %iterators = getelementptr inbounds %"class.xercesc_2_7::DocumentImpl", %"class.xercesc_2_7::DocumentImpl"* %this1, i32 0, i32 5, !dbg !2158
  store %"class.xercesc_2_7::RefVectorOf"* null, %"class.xercesc_2_7::RefVectorOf"** %iterators, align 8, !dbg !2158
  %treeWalkers = getelementptr inbounds %"class.xercesc_2_7::DocumentImpl", %"class.xercesc_2_7::DocumentImpl"* %this1, i32 0, i32 6, !dbg !2159
  store %"class.xercesc_2_7::RefVectorOf.0"* null, %"class.xercesc_2_7::RefVectorOf.0"** %treeWalkers, align 8, !dbg !2159
  %userData = getelementptr inbounds %"class.xercesc_2_7::DocumentImpl", %"class.xercesc_2_7::DocumentImpl"* %this1, i32 0, i32 7, !dbg !2160
  store %"class.xercesc_2_7::RefHashTableOf"* null, %"class.xercesc_2_7::RefHashTableOf"** %userData, align 8, !dbg !2160
  %ranges = getelementptr inbounds %"class.xercesc_2_7::DocumentImpl", %"class.xercesc_2_7::DocumentImpl"* %this1, i32 0, i32 8, !dbg !2161
  store %"class.xercesc_2_7::RefVectorOf.2"* null, %"class.xercesc_2_7::RefVectorOf.2"** %ranges, align 8, !dbg !2161
  %fChanges = getelementptr inbounds %"class.xercesc_2_7::DocumentImpl", %"class.xercesc_2_7::DocumentImpl"* %this1, i32 0, i32 9, !dbg !2162
  store i32 0, i32* %fChanges, align 8, !dbg !2162
  %errorChecking = getelementptr inbounds %"class.xercesc_2_7::DocumentImpl", %"class.xercesc_2_7::DocumentImpl"* %this1, i32 0, i32 10, !dbg !2163
  store i8 1, i8* %errorChecking, align 4, !dbg !2163
  %fMemoryManager = getelementptr inbounds %"class.xercesc_2_7::DocumentImpl", %"class.xercesc_2_7::DocumentImpl"* %this1, i32 0, i32 11, !dbg !2164
  %3 = load %"class.xercesc_2_7::MemoryManager"*, %"class.xercesc_2_7::MemoryManager"** %manager.addr, align 8, !dbg !2165
  store %"class.xercesc_2_7::MemoryManager"* %3, %"class.xercesc_2_7::MemoryManager"** %fMemoryManager, align 8, !dbg !2164
  %4 = load %"class.xercesc_2_7::DocumentTypeImpl"*, %"class.xercesc_2_7::DocumentTypeImpl"** %doctype.addr, align 8, !dbg !2166
  invoke void @_ZN11xercesc_2_712DocumentImpl15setDocumentTypeEPNS_16DocumentTypeImplE(%"class.xercesc_2_7::DocumentImpl"* %this1, %"class.xercesc_2_7::DocumentTypeImpl"* %4)
          to label %invoke.cont unwind label %lpad, !dbg !2168

invoke.cont:                                      ; preds = %entry
  %fMemoryManager2 = getelementptr inbounds %"class.xercesc_2_7::DocumentImpl", %"class.xercesc_2_7::DocumentImpl"* %this1, i32 0, i32 11, !dbg !2169
  %5 = load %"class.xercesc_2_7::MemoryManager"*, %"class.xercesc_2_7::MemoryManager"** %fMemoryManager2, align 8, !dbg !2169
  %call = invoke i8* @_ZN11xercesc_2_77XMemorynwEmPNS_13MemoryManagerE(i64 24, %"class.xercesc_2_7::MemoryManager"* %5)
          to label %invoke.cont3 unwind label %lpad, !dbg !2170

invoke.cont3:                                     ; preds = %invoke.cont
  %6 = bitcast i8* %call to %"class.xercesc_2_7::DStringPool"*, !dbg !2170
  %fMemoryManager4 = getelementptr inbounds %"class.xercesc_2_7::DocumentImpl", %"class.xercesc_2_7::DocumentImpl"* %this1, i32 0, i32 11, !dbg !2171
  %7 = load %"class.xercesc_2_7::MemoryManager"*, %"class.xercesc_2_7::MemoryManager"** %fMemoryManager4, align 8, !dbg !2171
  invoke void @_ZN11xercesc_2_711DStringPoolC1EiPNS_13MemoryManagerE(%"class.xercesc_2_7::DStringPool"* %6, i32 257, %"class.xercesc_2_7::MemoryManager"* %7)
          to label %invoke.cont6 unwind label %lpad5, !dbg !2172

invoke.cont6:                                     ; preds = %invoke.cont3
  %namePool7 = getelementptr inbounds %"class.xercesc_2_7::DocumentImpl", %"class.xercesc_2_7::DocumentImpl"* %this1, i32 0, i32 3, !dbg !2173
  store %"class.xercesc_2_7::DStringPool"* %6, %"class.xercesc_2_7::DStringPool"** %namePool7, align 8, !dbg !2174
  %8 = bitcast %"class.xercesc_2_7::DocumentImpl"* %this1 to %"class.xercesc_2_7::NodeImpl"*, !dbg !2175
  %9 = load %"class.xercesc_2_7::DOMString"*, %"class.xercesc_2_7::DOMString"** %fNamespaceURI.addr, align 8, !dbg !2176
  %10 = load %"class.xercesc_2_7::DOMString"*, %"class.xercesc_2_7::DOMString"** %qualifiedName.addr, align 8, !dbg !2177
  %11 = bitcast %"class.xercesc_2_7::DocumentImpl"* %this1 to %"class.xercesc_2_7::ElementImpl"* (%"class.xercesc_2_7::DocumentImpl"*, %"class.xercesc_2_7::DOMString"*, %"class.xercesc_2_7::DOMString"*)***, !dbg !2178
  %vtable = load %"class.xercesc_2_7::ElementImpl"* (%"class.xercesc_2_7::DocumentImpl"*, %"class.xercesc_2_7::DOMString"*, %"class.xercesc_2_7::DOMString"*)**, %"class.xercesc_2_7::ElementImpl"* (%"class.xercesc_2_7::DocumentImpl"*, %"class.xercesc_2_7::DOMString"*, %"class.xercesc_2_7::DOMString"*)*** %11, align 8, !dbg !2178
  %vfn = getelementptr inbounds %"class.xercesc_2_7::ElementImpl"* (%"class.xercesc_2_7::DocumentImpl"*, %"class.xercesc_2_7::DOMString"*, %"class.xercesc_2_7::DOMString"*)*, %"class.xercesc_2_7::ElementImpl"* (%"class.xercesc_2_7::DocumentImpl"*, %"class.xercesc_2_7::DOMString"*, %"class.xercesc_2_7::DOMString"*)** %vtable, i64 70, !dbg !2178
  %12 = load %"class.xercesc_2_7::ElementImpl"* (%"class.xercesc_2_7::DocumentImpl"*, %"class.xercesc_2_7::DOMString"*, %"class.xercesc_2_7::DOMString"*)*, %"class.xercesc_2_7::ElementImpl"* (%"class.xercesc_2_7::DocumentImpl"*, %"class.xercesc_2_7::DOMString"*, %"class.xercesc_2_7::DOMString"*)** %vfn, align 8, !dbg !2178
  %call9 = invoke %"class.xercesc_2_7::ElementImpl"* %12(%"class.xercesc_2_7::DocumentImpl"* %this1, %"class.xercesc_2_7::DOMString"* dereferenceable(8) %9, %"class.xercesc_2_7::DOMString"* dereferenceable(8) %10)
          to label %invoke.cont8 unwind label %lpad, !dbg !2178

invoke.cont8:                                     ; preds = %invoke.cont6
  %13 = bitcast %"class.xercesc_2_7::ElementImpl"* %call9 to %"class.xercesc_2_7::NodeImpl"*, !dbg !2178
  %14 = bitcast %"class.xercesc_2_7::NodeImpl"* %8 to %"class.xercesc_2_7::NodeImpl"* (%"class.xercesc_2_7::NodeImpl"*, %"class.xercesc_2_7::NodeImpl"*)***, !dbg !2175
  %vtable10 = load %"class.xercesc_2_7::NodeImpl"* (%"class.xercesc_2_7::NodeImpl"*, %"class.xercesc_2_7::NodeImpl"*)**, %"class.xercesc_2_7::NodeImpl"* (%"class.xercesc_2_7::NodeImpl"*, %"class.xercesc_2_7::NodeImpl"*)*** %14, align 8, !dbg !2175
  %vfn11 = getelementptr inbounds %"class.xercesc_2_7::NodeImpl"* (%"class.xercesc_2_7::NodeImpl"*, %"class.xercesc_2_7::NodeImpl"*)*, %"class.xercesc_2_7::NodeImpl"* (%"class.xercesc_2_7::NodeImpl"*, %"class.xercesc_2_7::NodeImpl"*)** %vtable10, i64 16, !dbg !2175
  %15 = load %"class.xercesc_2_7::NodeImpl"* (%"class.xercesc_2_7::NodeImpl"*, %"class.xercesc_2_7::NodeImpl"*)*, %"class.xercesc_2_7::NodeImpl"* (%"class.xercesc_2_7::NodeImpl"*, %"class.xercesc_2_7::NodeImpl"*)** %vfn11, align 8, !dbg !2175
  %call13 = invoke %"class.xercesc_2_7::NodeImpl"* %15(%"class.xercesc_2_7::NodeImpl"* %8, %"class.xercesc_2_7::NodeImpl"* %13)
          to label %invoke.cont12 unwind label %lpad, !dbg !2175

invoke.cont12:                                    ; preds = %invoke.cont8
  ret void, !dbg !2179

lpad:                                             ; preds = %invoke.cont8, %invoke.cont6, %invoke.cont, %entry
  %16 = landingpad { i8*, i32 }
          cleanup, !dbg !2180
  %17 = extractvalue { i8*, i32 } %16, 0, !dbg !2180
  store i8* %17, i8** %exn.slot, align 8, !dbg !2180
  %18 = extractvalue { i8*, i32 } %16, 1, !dbg !2180
  store i32 %18, i32* %ehselector.slot, align 4, !dbg !2180
  br label %ehcleanup, !dbg !2180

lpad5:                                            ; preds = %invoke.cont3
  %19 = landingpad { i8*, i32 }
          cleanup, !dbg !2180
  %20 = extractvalue { i8*, i32 } %19, 0, !dbg !2180
  store i8* %20, i8** %exn.slot, align 8, !dbg !2180
  %21 = extractvalue { i8*, i32 } %19, 1, !dbg !2180
  store i32 %21, i32* %ehselector.slot, align 4, !dbg !2180
  call void @_ZN11xercesc_2_77XMemorydlEPvPNS_13MemoryManagerE(i8* %call, %"class.xercesc_2_7::MemoryManager"* %5) #8, !dbg !2170
  br label %ehcleanup, !dbg !2170

ehcleanup:                                        ; preds = %lpad5, %lpad
  %22 = bitcast %"class.xercesc_2_7::DocumentImpl"* %this1 to %"class.xercesc_2_7::ParentNode"*, !dbg !2180
  call void @_ZN11xercesc_2_710ParentNodeD2Ev(%"class.xercesc_2_7::ParentNode"* %22) #8, !dbg !2180
  br label %eh.resume, !dbg !2180

eh.resume:                                        ; preds = %ehcleanup
  %exn = load i8*, i8** %exn.slot, align 8, !dbg !2180
  %sel = load i32, i32* %ehselector.slot, align 4, !dbg !2180
  %lpad.val = insertvalue { i8*, i32 } undef, i8* %exn, 0, !dbg !2180
  %lpad.val14 = insertvalue { i8*, i32 } %lpad.val, i32 %sel, 1, !dbg !2180
  resume { i8*, i32 } %lpad.val14, !dbg !2180
}

; Function Attrs: noinline uwtable
define dso_local void @_ZN11xercesc_2_712DocumentImpl15setDocumentTypeEPNS_16DocumentTypeImplE(%"class.xercesc_2_7::DocumentImpl"* %this, %"class.xercesc_2_7::DocumentTypeImpl"* %doctype) #3 align 2 personality i8* bitcast (i32 (...)* @__gxx_personality_v0 to i8*) !dbg !2181 {
entry:
  %this.addr = alloca %"class.xercesc_2_7::DocumentImpl"*, align 8
  %doctype.addr = alloca %"class.xercesc_2_7::DocumentTypeImpl"*, align 8
  %ref.tmp = alloca %"class.xercesc_2_7::DOMString", align 8
  %exn.slot = alloca i8*
  %ehselector.slot = alloca i32
  %cleanup.isactive = alloca i1, align 1
  store %"class.xercesc_2_7::DocumentImpl"* %this, %"class.xercesc_2_7::DocumentImpl"** %this.addr, align 8
  call void @llvm.dbg.declare(metadata %"class.xercesc_2_7::DocumentImpl"** %this.addr, metadata !2182, metadata !DIExpression()), !dbg !2183
  store %"class.xercesc_2_7::DocumentTypeImpl"* %doctype, %"class.xercesc_2_7::DocumentTypeImpl"** %doctype.addr, align 8
  call void @llvm.dbg.declare(metadata %"class.xercesc_2_7::DocumentTypeImpl"** %doctype.addr, metadata !2184, metadata !DIExpression()), !dbg !2185
  %this1 = load %"class.xercesc_2_7::DocumentImpl"*, %"class.xercesc_2_7::DocumentImpl"** %this.addr, align 8
  %0 = load %"class.xercesc_2_7::DocumentTypeImpl"*, %"class.xercesc_2_7::DocumentTypeImpl"** %doctype.addr, align 8, !dbg !2186
  %tobool = icmp ne %"class.xercesc_2_7::DocumentTypeImpl"* %0, null, !dbg !2186
  br i1 %tobool, label %if.end, label %if.then, !dbg !2188

if.then:                                          ; preds = %entry
  br label %return, !dbg !2189

if.end:                                           ; preds = %entry
  %1 = load %"class.xercesc_2_7::DocumentTypeImpl"*, %"class.xercesc_2_7::DocumentTypeImpl"** %doctype.addr, align 8, !dbg !2190
  %2 = bitcast %"class.xercesc_2_7::DocumentTypeImpl"* %1 to %"class.xercesc_2_7::ParentNode"*, !dbg !2192
  %3 = bitcast %"class.xercesc_2_7::ParentNode"* %2 to %"class.xercesc_2_7::DocumentImpl"* (%"class.xercesc_2_7::ParentNode"*)***, !dbg !2192
  %vtable = load %"class.xercesc_2_7::DocumentImpl"* (%"class.xercesc_2_7::ParentNode"*)**, %"class.xercesc_2_7::DocumentImpl"* (%"class.xercesc_2_7::ParentNode"*)*** %3, align 8, !dbg !2192
  %vfn = getelementptr inbounds %"class.xercesc_2_7::DocumentImpl"* (%"class.xercesc_2_7::ParentNode"*)*, %"class.xercesc_2_7::DocumentImpl"* (%"class.xercesc_2_7::ParentNode"*)** %vtable, i64 26, !dbg !2192
  %4 = load %"class.xercesc_2_7::DocumentImpl"* (%"class.xercesc_2_7::ParentNode"*)*, %"class.xercesc_2_7::DocumentImpl"* (%"class.xercesc_2_7::ParentNode"*)** %vfn, align 8, !dbg !2192
  %call = call %"class.xercesc_2_7::DocumentImpl"* %4(%"class.xercesc_2_7::ParentNode"* %2), !dbg !2192
  %cmp = icmp ne %"class.xercesc_2_7::DocumentImpl"* %call, null, !dbg !2193
  br i1 %cmp, label %if.then2, label %if.end5, !dbg !2194

if.then2:                                         ; preds = %if.end
  %exception = call i8* @__cxa_allocate_exception(i64 24) #8, !dbg !2195
  store i1 true, i1* %cleanup.isactive, align 1
  %5 = bitcast i8* %exception to %"class.xercesc_2_7::DOM_DOMException"*, !dbg !2195
  invoke void @_ZN11xercesc_2_79DOMStringC1Ei(%"class.xercesc_2_7::DOMString"* %ref.tmp, i32 0)
          to label %invoke.cont unwind label %lpad, !dbg !2196

invoke.cont:                                      ; preds = %if.then2
  invoke void @_ZN11xercesc_2_716DOM_DOMExceptionC1EsRKNS_9DOMStringE(%"class.xercesc_2_7::DOM_DOMException"* %5, i16 signext 4, %"class.xercesc_2_7::DOMString"* dereferenceable(8) %ref.tmp)
          to label %invoke.cont4 unwind label %lpad3, !dbg !2197

invoke.cont4:                                     ; preds = %invoke.cont
  store i1 false, i1* %cleanup.isactive, align 1, !dbg !2195
  invoke void @__cxa_throw(i8* %exception, i8* bitcast (i8** @_ZTIN11xercesc_2_716DOM_DOMExceptionE to i8*), i8* bitcast (void (%"class.xercesc_2_7::DOM_DOMException"*)* @_ZN11xercesc_2_716DOM_DOMExceptionD1Ev to i8*)) #10
          to label %unreachable unwind label %lpad3, !dbg !2195

lpad:                                             ; preds = %if.then2
  %6 = landingpad { i8*, i32 }
          cleanup, !dbg !2198
  %7 = extractvalue { i8*, i32 } %6, 0, !dbg !2198
  store i8* %7, i8** %exn.slot, align 8, !dbg !2198
  %8 = extractvalue { i8*, i32 } %6, 1, !dbg !2198
  store i32 %8, i32* %ehselector.slot, align 4, !dbg !2198
  br label %ehcleanup, !dbg !2198

lpad3:                                            ; preds = %invoke.cont4, %invoke.cont
  %9 = landingpad { i8*, i32 }
          cleanup, !dbg !2198
  %10 = extractvalue { i8*, i32 } %9, 0, !dbg !2198
  store i8* %10, i8** %exn.slot, align 8, !dbg !2198
  %11 = extractvalue { i8*, i32 } %9, 1, !dbg !2198
  store i32 %11, i32* %ehselector.slot, align 4, !dbg !2198
  call void @_ZN11xercesc_2_79DOMStringD1Ev(%"class.xercesc_2_7::DOMString"* %ref.tmp) #8, !dbg !2195
  br label %ehcleanup, !dbg !2195

ehcleanup:                                        ; preds = %lpad3, %lpad
  %cleanup.is_active = load i1, i1* %cleanup.isactive, align 1, !dbg !2195
  br i1 %cleanup.is_active, label %cleanup.action, label %cleanup.done, !dbg !2195

cleanup.action:                                   ; preds = %ehcleanup
  call void @__cxa_free_exception(i8* %exception) #8, !dbg !2195
  br label %cleanup.done, !dbg !2195

cleanup.done:                                     ; preds = %cleanup.action, %ehcleanup
  br label %eh.resume, !dbg !2195

if.end5:                                          ; preds = %if.end
  %12 = load %"class.xercesc_2_7::DocumentTypeImpl"*, %"class.xercesc_2_7::DocumentTypeImpl"** %doctype.addr, align 8, !dbg !2199
  %13 = bitcast %"class.xercesc_2_7::DocumentTypeImpl"* %12 to void (%"class.xercesc_2_7::DocumentTypeImpl"*, %"class.xercesc_2_7::DocumentImpl"*)***, !dbg !2200
  %vtable6 = load void (%"class.xercesc_2_7::DocumentTypeImpl"*, %"class.xercesc_2_7::DocumentImpl"*)**, void (%"class.xercesc_2_7::DocumentTypeImpl"*, %"class.xercesc_2_7::DocumentImpl"*)*** %13, align 8, !dbg !2200
  %vfn7 = getelementptr inbounds void (%"class.xercesc_2_7::DocumentTypeImpl"*, %"class.xercesc_2_7::DocumentImpl"*)*, void (%"class.xercesc_2_7::DocumentTypeImpl"*, %"class.xercesc_2_7::DocumentImpl"*)** %vtable6, i64 45, !dbg !2200
  %14 = load void (%"class.xercesc_2_7::DocumentTypeImpl"*, %"class.xercesc_2_7::DocumentImpl"*)*, void (%"class.xercesc_2_7::DocumentTypeImpl"*, %"class.xercesc_2_7::DocumentImpl"*)** %vfn7, align 8, !dbg !2200
  call void %14(%"class.xercesc_2_7::DocumentTypeImpl"* %12, %"class.xercesc_2_7::DocumentImpl"* %this1), !dbg !2200
  %15 = load %"class.xercesc_2_7::DocumentTypeImpl"*, %"class.xercesc_2_7::DocumentTypeImpl"** %doctype.addr, align 8, !dbg !2201
  %16 = bitcast %"class.xercesc_2_7::DocumentTypeImpl"* %15 to %"class.xercesc_2_7::NamedNodeMapImpl"* (%"class.xercesc_2_7::DocumentTypeImpl"*)***, !dbg !2202
  %vtable8 = load %"class.xercesc_2_7::NamedNodeMapImpl"* (%"class.xercesc_2_7::DocumentTypeImpl"*)**, %"class.xercesc_2_7::NamedNodeMapImpl"* (%"class.xercesc_2_7::DocumentTypeImpl"*)*** %16, align 8, !dbg !2202
  %vfn9 = getelementptr inbounds %"class.xercesc_2_7::NamedNodeMapImpl"* (%"class.xercesc_2_7::DocumentTypeImpl"*)*, %"class.xercesc_2_7::NamedNodeMapImpl"* (%"class.xercesc_2_7::DocumentTypeImpl"*)** %vtable8, i64 50, !dbg !2202
  %17 = load %"class.xercesc_2_7::NamedNodeMapImpl"* (%"class.xercesc_2_7::DocumentTypeImpl"*)*, %"class.xercesc_2_7::NamedNodeMapImpl"* (%"class.xercesc_2_7::DocumentTypeImpl"*)** %vfn9, align 8, !dbg !2202
  %call10 = call %"class.xercesc_2_7::NamedNodeMapImpl"* %17(%"class.xercesc_2_7::DocumentTypeImpl"* %15), !dbg !2202
  %ownerNode = getelementptr inbounds %"class.xercesc_2_7::NamedNodeMapImpl", %"class.xercesc_2_7::NamedNodeMapImpl"* %call10, i32 0, i32 2, !dbg !2203
  %18 = load %"class.xercesc_2_7::NodeImpl"*, %"class.xercesc_2_7::NodeImpl"** %ownerNode, align 8, !dbg !2203
  %19 = bitcast %"class.xercesc_2_7::NodeImpl"* %18 to void (%"class.xercesc_2_7::NodeImpl"*, %"class.xercesc_2_7::DocumentImpl"*)***, !dbg !2204
  %vtable11 = load void (%"class.xercesc_2_7::NodeImpl"*, %"class.xercesc_2_7::DocumentImpl"*)**, void (%"class.xercesc_2_7::NodeImpl"*, %"class.xercesc_2_7::DocumentImpl"*)*** %19, align 8, !dbg !2204
  %vfn12 = getelementptr inbounds void (%"class.xercesc_2_7::NodeImpl"*, %"class.xercesc_2_7::DocumentImpl"*)*, void (%"class.xercesc_2_7::NodeImpl"*, %"class.xercesc_2_7::DocumentImpl"*)** %vtable11, i64 45, !dbg !2204
  %20 = load void (%"class.xercesc_2_7::NodeImpl"*, %"class.xercesc_2_7::DocumentImpl"*)*, void (%"class.xercesc_2_7::NodeImpl"*, %"class.xercesc_2_7::DocumentImpl"*)** %vfn12, align 8, !dbg !2204
  call void %20(%"class.xercesc_2_7::NodeImpl"* %18, %"class.xercesc_2_7::DocumentImpl"* %this1), !dbg !2204
  %21 = load %"class.xercesc_2_7::DocumentTypeImpl"*, %"class.xercesc_2_7::DocumentTypeImpl"** %doctype.addr, align 8, !dbg !2205
  %22 = bitcast %"class.xercesc_2_7::DocumentTypeImpl"* %21 to %"class.xercesc_2_7::NamedNodeMapImpl"* (%"class.xercesc_2_7::DocumentTypeImpl"*)***, !dbg !2206
  %vtable13 = load %"class.xercesc_2_7::NamedNodeMapImpl"* (%"class.xercesc_2_7::DocumentTypeImpl"*)**, %"class.xercesc_2_7::NamedNodeMapImpl"* (%"class.xercesc_2_7::DocumentTypeImpl"*)*** %22, align 8, !dbg !2206
  %vfn14 = getelementptr inbounds %"class.xercesc_2_7::NamedNodeMapImpl"* (%"class.xercesc_2_7::DocumentTypeImpl"*)*, %"class.xercesc_2_7::NamedNodeMapImpl"* (%"class.xercesc_2_7::DocumentTypeImpl"*)** %vtable13, i64 52, !dbg !2206
  %23 = load %"class.xercesc_2_7::NamedNodeMapImpl"* (%"class.xercesc_2_7::DocumentTypeImpl"*)*, %"class.xercesc_2_7::NamedNodeMapImpl"* (%"class.xercesc_2_7::DocumentTypeImpl"*)** %vfn14, align 8, !dbg !2206
  %call15 = call %"class.xercesc_2_7::NamedNodeMapImpl"* %23(%"class.xercesc_2_7::DocumentTypeImpl"* %21), !dbg !2206
  %ownerNode16 = getelementptr inbounds %"class.xercesc_2_7::NamedNodeMapImpl", %"class.xercesc_2_7::NamedNodeMapImpl"* %call15, i32 0, i32 2, !dbg !2207
  %24 = load %"class.xercesc_2_7::NodeImpl"*, %"class.xercesc_2_7::NodeImpl"** %ownerNode16, align 8, !dbg !2207
  %25 = bitcast %"class.xercesc_2_7::NodeImpl"* %24 to void (%"class.xercesc_2_7::NodeImpl"*, %"class.xercesc_2_7::DocumentImpl"*)***, !dbg !2208
  %vtable17 = load void (%"class.xercesc_2_7::NodeImpl"*, %"class.xercesc_2_7::DocumentImpl"*)**, void (%"class.xercesc_2_7::NodeImpl"*, %"class.xercesc_2_7::DocumentImpl"*)*** %25, align 8, !dbg !2208
  %vfn18 = getelementptr inbounds void (%"class.xercesc_2_7::NodeImpl"*, %"class.xercesc_2_7::DocumentImpl"*)*, void (%"class.xercesc_2_7::NodeImpl"*, %"class.xercesc_2_7::DocumentImpl"*)** %vtable17, i64 45, !dbg !2208
  %26 = load void (%"class.xercesc_2_7::NodeImpl"*, %"class.xercesc_2_7::DocumentImpl"*)*, void (%"class.xercesc_2_7::NodeImpl"*, %"class.xercesc_2_7::DocumentImpl"*)** %vfn18, align 8, !dbg !2208
  call void %26(%"class.xercesc_2_7::NodeImpl"* %24, %"class.xercesc_2_7::DocumentImpl"* %this1), !dbg !2208
  %27 = load %"class.xercesc_2_7::DocumentTypeImpl"*, %"class.xercesc_2_7::DocumentTypeImpl"** %doctype.addr, align 8, !dbg !2209
  %28 = bitcast %"class.xercesc_2_7::DocumentTypeImpl"* %27 to %"class.xercesc_2_7::NodeImpl"*, !dbg !2210
  %29 = bitcast %"class.xercesc_2_7::NodeImpl"* %28 to void (%"class.xercesc_2_7::NodeImpl"*)***, !dbg !2210
  %vtable19 = load void (%"class.xercesc_2_7::NodeImpl"*)**, void (%"class.xercesc_2_7::NodeImpl"*)*** %29, align 8, !dbg !2210
  %vfn20 = getelementptr inbounds void (%"class.xercesc_2_7::NodeImpl"*)*, void (%"class.xercesc_2_7::NodeImpl"*)** %vtable19, i64 2, !dbg !2210
  %30 = load void (%"class.xercesc_2_7::NodeImpl"*)*, void (%"class.xercesc_2_7::NodeImpl"*)** %vfn20, align 8, !dbg !2210
  call void %30(%"class.xercesc_2_7::NodeImpl"* %28), !dbg !2210
  %31 = bitcast %"class.xercesc_2_7::DocumentImpl"* %this1 to %"class.xercesc_2_7::NodeImpl"*, !dbg !2211
  %32 = load %"class.xercesc_2_7::DocumentTypeImpl"*, %"class.xercesc_2_7::DocumentTypeImpl"** %doctype.addr, align 8, !dbg !2212
  %33 = bitcast %"class.xercesc_2_7::DocumentTypeImpl"* %32 to %"class.xercesc_2_7::NodeImpl"*, !dbg !2212
  %34 = bitcast %"class.xercesc_2_7::NodeImpl"* %31 to %"class.xercesc_2_7::NodeImpl"* (%"class.xercesc_2_7::NodeImpl"*, %"class.xercesc_2_7::NodeImpl"*)***, !dbg !2211
  %vtable21 = load %"class.xercesc_2_7::NodeImpl"* (%"class.xercesc_2_7::NodeImpl"*, %"class.xercesc_2_7::NodeImpl"*)**, %"class.xercesc_2_7::NodeImpl"* (%"class.xercesc_2_7::NodeImpl"*, %"class.xercesc_2_7::NodeImpl"*)*** %34, align 8, !dbg !2211
  %vfn22 = getelementptr inbounds %"class.xercesc_2_7::NodeImpl"* (%"class.xercesc_2_7::NodeImpl"*, %"class.xercesc_2_7::NodeImpl"*)*, %"class.xercesc_2_7::NodeImpl"* (%"class.xercesc_2_7::NodeImpl"*, %"class.xercesc_2_7::NodeImpl"*)** %vtable21, i64 16, !dbg !2211
  %35 = load %"class.xercesc_2_7::NodeImpl"* (%"class.xercesc_2_7::NodeImpl"*, %"class.xercesc_2_7::NodeImpl"*)*, %"class.xercesc_2_7::NodeImpl"* (%"class.xercesc_2_7::NodeImpl"*, %"class.xercesc_2_7::NodeImpl"*)** %vfn22, align 8, !dbg !2211
  %call23 = call %"class.xercesc_2_7::NodeImpl"* %35(%"class.xercesc_2_7::NodeImpl"* %31, %"class.xercesc_2_7::NodeImpl"* %33), !dbg !2211
  br label %return, !dbg !2213

return:                                           ; preds = %if.end5, %if.then
  ret void, !dbg !2213

eh.resume:                                        ; preds = %cleanup.done
  %exn = load i8*, i8** %exn.slot, align 8, !dbg !2195
  %sel = load i32, i32* %ehselector.slot, align 4, !dbg !2195
  %lpad.val = insertvalue { i8*, i32 } undef, i8* %exn, 0, !dbg !2195
  %lpad.val24 = insertvalue { i8*, i32 } %lpad.val, i32 %sel, 1, !dbg !2195
  resume { i8*, i32 } %lpad.val24, !dbg !2195

unreachable:                                      ; preds = %invoke.cont4
  unreachable
}

declare dso_local i8* @__cxa_allocate_exception(i64)

declare dso_local void @_ZN11xercesc_2_79DOMStringC1Ei(%"class.xercesc_2_7::DOMString"*, i32) unnamed_addr #4

declare dso_local void @_ZN11xercesc_2_716DOM_DOMExceptionC1EsRKNS_9DOMStringE(%"class.xercesc_2_7::DOM_DOMException"*, i16 signext, %"class.xercesc_2_7::DOMString"* dereferenceable(8)) unnamed_addr #4

; Function Attrs: nounwind
declare dso_local void @_ZN11xercesc_2_716DOM_DOMExceptionD1Ev(%"class.xercesc_2_7::DOM_DOMException"*) unnamed_addr #5

declare dso_local void @__cxa_throw(i8*, i8*, i8*)

; Function Attrs: nounwind
declare dso_local void @_ZN11xercesc_2_79DOMStringD1Ev(%"class.xercesc_2_7::DOMString"*) unnamed_addr #5

declare dso_local void @__cxa_free_exception(i8*)

; Function Attrs: noinline nounwind uwtable
define dso_local void @_ZN11xercesc_2_712DocumentImplD2Ev(%"class.xercesc_2_7::DocumentImpl"* %this) unnamed_addr #1 align 2 personality i8* bitcast (i32 (...)* @__gxx_personality_v0 to i8*) !dbg !2214 {
entry:
  %this.addr = alloca %"class.xercesc_2_7::DocumentImpl"*, align 8
  %exn.slot = alloca i8*
  %ehselector.slot = alloca i32
  store %"class.xercesc_2_7::DocumentImpl"* %this, %"class.xercesc_2_7::DocumentImpl"** %this.addr, align 8
  call void @llvm.dbg.declare(metadata %"class.xercesc_2_7::DocumentImpl"** %this.addr, metadata !2215, metadata !DIExpression()), !dbg !2216
  %this1 = load %"class.xercesc_2_7::DocumentImpl"*, %"class.xercesc_2_7::DocumentImpl"** %this.addr, align 8
  %0 = bitcast %"class.xercesc_2_7::DocumentImpl"* %this1 to i32 (...)***, !dbg !2217
  store i32 (...)** bitcast (i8** getelementptr inbounds ({ [76 x i8*] }, { [76 x i8*] }* @_ZTVN11xercesc_2_712DocumentImplE, i32 0, inrange i32 0, i32 2) to i32 (...)**), i32 (...)*** %0, align 8, !dbg !2217
  %iterators = getelementptr inbounds %"class.xercesc_2_7::DocumentImpl", %"class.xercesc_2_7::DocumentImpl"* %this1, i32 0, i32 5, !dbg !2218
  %1 = load %"class.xercesc_2_7::RefVectorOf"*, %"class.xercesc_2_7::RefVectorOf"** %iterators, align 8, !dbg !2218
  %cmp = icmp ne %"class.xercesc_2_7::RefVectorOf"* %1, null, !dbg !2221
  br i1 %cmp, label %if.then, label %if.end, !dbg !2222

if.then:                                          ; preds = %entry
  %iterators2 = getelementptr inbounds %"class.xercesc_2_7::DocumentImpl", %"class.xercesc_2_7::DocumentImpl"* %this1, i32 0, i32 5, !dbg !2223
  %2 = load %"class.xercesc_2_7::RefVectorOf"*, %"class.xercesc_2_7::RefVectorOf"** %iterators2, align 8, !dbg !2223
  %isnull = icmp eq %"class.xercesc_2_7::RefVectorOf"* %2, null, !dbg !2225
  br i1 %isnull, label %delete.end, label %delete.notnull, !dbg !2225

delete.notnull:                                   ; preds = %if.then
  %3 = bitcast %"class.xercesc_2_7::RefVectorOf"* %2 to void (%"class.xercesc_2_7::RefVectorOf"*)***, !dbg !2225
  %vtable = load void (%"class.xercesc_2_7::RefVectorOf"*)**, void (%"class.xercesc_2_7::RefVectorOf"*)*** %3, align 8, !dbg !2225
  %vfn = getelementptr inbounds void (%"class.xercesc_2_7::RefVectorOf"*)*, void (%"class.xercesc_2_7::RefVectorOf"*)** %vtable, i64 1, !dbg !2225
  %4 = load void (%"class.xercesc_2_7::RefVectorOf"*)*, void (%"class.xercesc_2_7::RefVectorOf"*)** %vfn, align 8, !dbg !2225
  call void %4(%"class.xercesc_2_7::RefVectorOf"* %2) #8, !dbg !2225
  br label %delete.end, !dbg !2225

delete.end:                                       ; preds = %delete.notnull, %if.then
  br label %if.end, !dbg !2226

if.end:                                           ; preds = %delete.end, %entry
  %treeWalkers = getelementptr inbounds %"class.xercesc_2_7::DocumentImpl", %"class.xercesc_2_7::DocumentImpl"* %this1, i32 0, i32 6, !dbg !2227
  %5 = load %"class.xercesc_2_7::RefVectorOf.0"*, %"class.xercesc_2_7::RefVectorOf.0"** %treeWalkers, align 8, !dbg !2227
  %cmp3 = icmp ne %"class.xercesc_2_7::RefVectorOf.0"* %5, null, !dbg !2229
  br i1 %cmp3, label %if.then4, label %if.end11, !dbg !2230

if.then4:                                         ; preds = %if.end
  %treeWalkers5 = getelementptr inbounds %"class.xercesc_2_7::DocumentImpl", %"class.xercesc_2_7::DocumentImpl"* %this1, i32 0, i32 6, !dbg !2231
  %6 = load %"class.xercesc_2_7::RefVectorOf.0"*, %"class.xercesc_2_7::RefVectorOf.0"** %treeWalkers5, align 8, !dbg !2231
  %isnull6 = icmp eq %"class.xercesc_2_7::RefVectorOf.0"* %6, null, !dbg !2233
  br i1 %isnull6, label %delete.end10, label %delete.notnull7, !dbg !2233

delete.notnull7:                                  ; preds = %if.then4
  %7 = bitcast %"class.xercesc_2_7::RefVectorOf.0"* %6 to void (%"class.xercesc_2_7::RefVectorOf.0"*)***, !dbg !2233
  %vtable8 = load void (%"class.xercesc_2_7::RefVectorOf.0"*)**, void (%"class.xercesc_2_7::RefVectorOf.0"*)*** %7, align 8, !dbg !2233
  %vfn9 = getelementptr inbounds void (%"class.xercesc_2_7::RefVectorOf.0"*)*, void (%"class.xercesc_2_7::RefVectorOf.0"*)** %vtable8, i64 1, !dbg !2233
  %8 = load void (%"class.xercesc_2_7::RefVectorOf.0"*)*, void (%"class.xercesc_2_7::RefVectorOf.0"*)** %vfn9, align 8, !dbg !2233
  call void %8(%"class.xercesc_2_7::RefVectorOf.0"* %6) #8, !dbg !2233
  br label %delete.end10, !dbg !2233

delete.end10:                                     ; preds = %delete.notnull7, %if.then4
  br label %if.end11, !dbg !2234

if.end11:                                         ; preds = %delete.end10, %if.end
  %ranges = getelementptr inbounds %"class.xercesc_2_7::DocumentImpl", %"class.xercesc_2_7::DocumentImpl"* %this1, i32 0, i32 8, !dbg !2235
  %9 = load %"class.xercesc_2_7::RefVectorOf.2"*, %"class.xercesc_2_7::RefVectorOf.2"** %ranges, align 8, !dbg !2235
  %cmp12 = icmp ne %"class.xercesc_2_7::RefVectorOf.2"* %9, null, !dbg !2237
  br i1 %cmp12, label %if.then13, label %if.end21, !dbg !2238

if.then13:                                        ; preds = %if.end11
  %ranges14 = getelementptr inbounds %"class.xercesc_2_7::DocumentImpl", %"class.xercesc_2_7::DocumentImpl"* %this1, i32 0, i32 8, !dbg !2239
  %10 = load %"class.xercesc_2_7::RefVectorOf.2"*, %"class.xercesc_2_7::RefVectorOf.2"** %ranges14, align 8, !dbg !2239
  %isnull15 = icmp eq %"class.xercesc_2_7::RefVectorOf.2"* %10, null, !dbg !2241
  br i1 %isnull15, label %delete.end19, label %delete.notnull16, !dbg !2241

delete.notnull16:                                 ; preds = %if.then13
  %11 = bitcast %"class.xercesc_2_7::RefVectorOf.2"* %10 to void (%"class.xercesc_2_7::RefVectorOf.2"*)***, !dbg !2241
  %vtable17 = load void (%"class.xercesc_2_7::RefVectorOf.2"*)**, void (%"class.xercesc_2_7::RefVectorOf.2"*)*** %11, align 8, !dbg !2241
  %vfn18 = getelementptr inbounds void (%"class.xercesc_2_7::RefVectorOf.2"*)*, void (%"class.xercesc_2_7::RefVectorOf.2"*)** %vtable17, i64 1, !dbg !2241
  %12 = load void (%"class.xercesc_2_7::RefVectorOf.2"*)*, void (%"class.xercesc_2_7::RefVectorOf.2"*)** %vfn18, align 8, !dbg !2241
  call void %12(%"class.xercesc_2_7::RefVectorOf.2"* %10) #8, !dbg !2241
  br label %delete.end19, !dbg !2241

delete.end19:                                     ; preds = %delete.notnull16, %if.then13
  %ranges20 = getelementptr inbounds %"class.xercesc_2_7::DocumentImpl", %"class.xercesc_2_7::DocumentImpl"* %this1, i32 0, i32 8, !dbg !2242
  store %"class.xercesc_2_7::RefVectorOf.2"* null, %"class.xercesc_2_7::RefVectorOf.2"** %ranges20, align 8, !dbg !2243
  br label %if.end21, !dbg !2244

if.end21:                                         ; preds = %delete.end19, %if.end11
  %userData = getelementptr inbounds %"class.xercesc_2_7::DocumentImpl", %"class.xercesc_2_7::DocumentImpl"* %this1, i32 0, i32 7, !dbg !2245
  %13 = load %"class.xercesc_2_7::RefHashTableOf"*, %"class.xercesc_2_7::RefHashTableOf"** %userData, align 8, !dbg !2245
  %tobool = icmp ne %"class.xercesc_2_7::RefHashTableOf"* %13, null, !dbg !2245
  br i1 %tobool, label %if.then22, label %if.end27, !dbg !2247

if.then22:                                        ; preds = %if.end21
  %14 = bitcast %"class.xercesc_2_7::DocumentImpl"* %this1 to %"class.xercesc_2_7::NodeImpl"*, !dbg !2248
  invoke void @_ZN11xercesc_2_78NodeImpl11hasUserDataEb(%"class.xercesc_2_7::NodeImpl"* %14, i1 zeroext false)
          to label %invoke.cont unwind label %lpad, !dbg !2248

invoke.cont:                                      ; preds = %if.then22
  %userData23 = getelementptr inbounds %"class.xercesc_2_7::DocumentImpl", %"class.xercesc_2_7::DocumentImpl"* %this1, i32 0, i32 7, !dbg !2250
  %15 = load %"class.xercesc_2_7::RefHashTableOf"*, %"class.xercesc_2_7::RefHashTableOf"** %userData23, align 8, !dbg !2250
  %isnull24 = icmp eq %"class.xercesc_2_7::RefHashTableOf"* %15, null, !dbg !2251
  br i1 %isnull24, label %delete.end26, label %delete.notnull25, !dbg !2251

delete.notnull25:                                 ; preds = %invoke.cont
  call void @_ZN11xercesc_2_714RefHashTableOfIvED2Ev(%"class.xercesc_2_7::RefHashTableOf"* %15) #8, !dbg !2251
  %16 = bitcast %"class.xercesc_2_7::RefHashTableOf"* %15 to i8*, !dbg !2251
  call void @_ZN11xercesc_2_77XMemorydlEPv(i8* %16) #8, !dbg !2251
  br label %delete.end26, !dbg !2251

delete.end26:                                     ; preds = %delete.notnull25, %invoke.cont
  br label %if.end27, !dbg !2252

lpad:                                             ; preds = %if.then22
  %17 = landingpad { i8*, i32 }
          catch i8* null, !dbg !2253
  %18 = extractvalue { i8*, i32 } %17, 0, !dbg !2253
  store i8* %18, i8** %exn.slot, align 8, !dbg !2253
  %19 = extractvalue { i8*, i32 } %17, 1, !dbg !2253
  store i32 %19, i32* %ehselector.slot, align 4, !dbg !2253
  %20 = bitcast %"class.xercesc_2_7::DocumentImpl"* %this1 to %"class.xercesc_2_7::ParentNode"*, !dbg !2254
  call void @_ZN11xercesc_2_710ParentNodeD2Ev(%"class.xercesc_2_7::ParentNode"* %20) #8, !dbg !2254
  br label %terminate.handler, !dbg !2254

if.end27:                                         ; preds = %delete.end26, %if.end21
  %namePool = getelementptr inbounds %"class.xercesc_2_7::DocumentImpl", %"class.xercesc_2_7::DocumentImpl"* %this1, i32 0, i32 3, !dbg !2255
  %21 = load %"class.xercesc_2_7::DStringPool"*, %"class.xercesc_2_7::DStringPool"** %namePool, align 8, !dbg !2255
  %isnull28 = icmp eq %"class.xercesc_2_7::DStringPool"* %21, null, !dbg !2256
  br i1 %isnull28, label %delete.end30, label %delete.notnull29, !dbg !2256

delete.notnull29:                                 ; preds = %if.end27
  call void @_ZN11xercesc_2_711DStringPoolD1Ev(%"class.xercesc_2_7::DStringPool"* %21) #8, !dbg !2256
  %22 = bitcast %"class.xercesc_2_7::DStringPool"* %21 to i8*, !dbg !2256
  call void @_ZN11xercesc_2_77XMemorydlEPv(i8* %22) #8, !dbg !2256
  br label %delete.end30, !dbg !2256

delete.end30:                                     ; preds = %delete.notnull29, %if.end27
  %fNodeIDMap = getelementptr inbounds %"class.xercesc_2_7::DocumentImpl", %"class.xercesc_2_7::DocumentImpl"* %this1, i32 0, i32 4, !dbg !2257
  %23 = load %"class.xercesc_2_7::NodeIDMap"*, %"class.xercesc_2_7::NodeIDMap"** %fNodeIDMap, align 8, !dbg !2257
  %isnull31 = icmp eq %"class.xercesc_2_7::NodeIDMap"* %23, null, !dbg !2258
  br i1 %isnull31, label %delete.end35, label %delete.notnull32, !dbg !2258

delete.notnull32:                                 ; preds = %delete.end30
  %24 = bitcast %"class.xercesc_2_7::NodeIDMap"* %23 to void (%"class.xercesc_2_7::NodeIDMap"*)***, !dbg !2258
  %vtable33 = load void (%"class.xercesc_2_7::NodeIDMap"*)**, void (%"class.xercesc_2_7::NodeIDMap"*)*** %24, align 8, !dbg !2258
  %vfn34 = getelementptr inbounds void (%"class.xercesc_2_7::NodeIDMap"*)*, void (%"class.xercesc_2_7::NodeIDMap"*)** %vtable33, i64 1, !dbg !2258
  %25 = load void (%"class.xercesc_2_7::NodeIDMap"*)*, void (%"class.xercesc_2_7::NodeIDMap"*)** %vfn34, align 8, !dbg !2258
  call void %25(%"class.xercesc_2_7::NodeIDMap"* %23) #8, !dbg !2258
  br label %delete.end35, !dbg !2258

delete.end35:                                     ; preds = %delete.notnull32, %delete.end30
  %26 = bitcast %"class.xercesc_2_7::DocumentImpl"* %this1 to %"class.xercesc_2_7::ParentNode"*, !dbg !2254
  call void @_ZN11xercesc_2_710ParentNodeD2Ev(%"class.xercesc_2_7::ParentNode"* %26) #8, !dbg !2254
  ret void, !dbg !2259

terminate.handler:                                ; preds = %lpad
  %exn = load i8*, i8** %exn.slot, align 8, !dbg !2254
  call void @__clang_call_terminate(i8* %exn) #11, !dbg !2254
  unreachable, !dbg !2254
}

; Function Attrs: noinline nounwind uwtable
define linkonce_odr dso_local void @_ZN11xercesc_2_78NodeImpl11hasUserDataEb(%"class.xercesc_2_7::NodeImpl"* %this, i1 zeroext %value) #1 comdat align 2 !dbg !2260 {
entry:
  %this.addr = alloca %"class.xercesc_2_7::NodeImpl"*, align 8
  %value.addr = alloca i8, align 1
  store %"class.xercesc_2_7::NodeImpl"* %this, %"class.xercesc_2_7::NodeImpl"** %this.addr, align 8
  call void @llvm.dbg.declare(metadata %"class.xercesc_2_7::NodeImpl"** %this.addr, metadata !2265, metadata !DIExpression()), !dbg !2266
  %frombool = zext i1 %value to i8
  store i8 %frombool, i8* %value.addr, align 1
  call void @llvm.dbg.declare(metadata i8* %value.addr, metadata !2267, metadata !DIExpression()), !dbg !2268
  %this1 = load %"class.xercesc_2_7::NodeImpl"*, %"class.xercesc_2_7::NodeImpl"** %this.addr, align 8
  %0 = load i8, i8* %value.addr, align 1, !dbg !2269
  %tobool = trunc i8 %0 to i1, !dbg !2269
  br i1 %tobool, label %cond.true, label %cond.false, !dbg !2269

cond.true:                                        ; preds = %entry
  %flags = getelementptr inbounds %"class.xercesc_2_7::NodeImpl", %"class.xercesc_2_7::NodeImpl"* %this1, i32 0, i32 3, !dbg !2270
  %1 = load i16, i16* %flags, align 8, !dbg !2270
  %conv = zext i16 %1 to i32, !dbg !2270
  %2 = load i16, i16* @_ZN11xercesc_2_78NodeImpl8USERDATAE, align 2, !dbg !2271
  %conv2 = zext i16 %2 to i32, !dbg !2271
  %or = or i32 %conv, %conv2, !dbg !2272
  br label %cond.end, !dbg !2269

cond.false:                                       ; preds = %entry
  %flags3 = getelementptr inbounds %"class.xercesc_2_7::NodeImpl", %"class.xercesc_2_7::NodeImpl"* %this1, i32 0, i32 3, !dbg !2273
  %3 = load i16, i16* %flags3, align 8, !dbg !2273
  %conv4 = zext i16 %3 to i32, !dbg !2273
  %4 = load i16, i16* @_ZN11xercesc_2_78NodeImpl8USERDATAE, align 2, !dbg !2274
  %conv5 = zext i16 %4 to i32, !dbg !2274
  %neg = xor i32 %conv5, -1, !dbg !2275
  %and = and i32 %conv4, %neg, !dbg !2276
  br label %cond.end, !dbg !2269

cond.end:                                         ; preds = %cond.false, %cond.true
  %cond = phi i32 [ %or, %cond.true ], [ %and, %cond.false ], !dbg !2269
  %conv6 = trunc i32 %cond to i16, !dbg !2277
  %flags7 = getelementptr inbounds %"class.xercesc_2_7::NodeImpl", %"class.xercesc_2_7::NodeImpl"* %this1, i32 0, i32 3, !dbg !2278
  store i16 %conv6, i16* %flags7, align 8, !dbg !2279
  ret void, !dbg !2280
}

; Function Attrs: noinline nounwind uwtable
define linkonce_odr dso_local void @_ZN11xercesc_2_714RefHashTableOfIvED2Ev(%"class.xercesc_2_7::RefHashTableOf"* %this) unnamed_addr #1 comdat align 2 personality i8* bitcast (i32 (...)* @__gxx_personality_v0 to i8*) !dbg !2281 {
entry:
  %this.addr = alloca %"class.xercesc_2_7::RefHashTableOf"*, align 8
  store %"class.xercesc_2_7::RefHashTableOf"* %this, %"class.xercesc_2_7::RefHashTableOf"** %this.addr, align 8
  call void @llvm.dbg.declare(metadata %"class.xercesc_2_7::RefHashTableOf"** %this.addr, metadata !2283, metadata !DIExpression()), !dbg !2284
  %this1 = load %"class.xercesc_2_7::RefHashTableOf"*, %"class.xercesc_2_7::RefHashTableOf"** %this.addr, align 8
  invoke void @_ZN11xercesc_2_714RefHashTableOfIvE7cleanupEv(%"class.xercesc_2_7::RefHashTableOf"* %this1)
          to label %invoke.cont unwind label %terminate.lpad, !dbg !2285

invoke.cont:                                      ; preds = %entry
  ret void, !dbg !2287

terminate.lpad:                                   ; preds = %entry
  %0 = landingpad { i8*, i32 }
          catch i8* null, !dbg !2285
  %1 = extractvalue { i8*, i32 } %0, 0, !dbg !2285
  call void @__clang_call_terminate(i8* %1) #11, !dbg !2285
  unreachable, !dbg !2285
}

; Function Attrs: nounwind
declare dso_local void @_ZN11xercesc_2_77XMemorydlEPv(i8*) #5

; Function Attrs: nounwind
declare dso_local void @_ZN11xercesc_2_711DStringPoolD1Ev(%"class.xercesc_2_7::DStringPool"*) unnamed_addr #5

; Function Attrs: noinline noreturn nounwind
define linkonce_odr hidden void @__clang_call_terminate(i8* %0) #6 comdat {
  %2 = call i8* @__cxa_begin_catch(i8* %0) #8
  call void @_ZSt9terminatev() #11
  unreachable
}

declare dso_local i8* @__cxa_begin_catch(i8*)

declare dso_local void @_ZSt9terminatev()

; Function Attrs: noinline nounwind uwtable
define dso_local void @_ZN11xercesc_2_712DocumentImplD0Ev(%"class.xercesc_2_7::DocumentImpl"* %this) unnamed_addr #1 align 2 !dbg !2288 {
entry:
  %this.addr = alloca %"class.xercesc_2_7::DocumentImpl"*, align 8
  store %"class.xercesc_2_7::DocumentImpl"* %this, %"class.xercesc_2_7::DocumentImpl"** %this.addr, align 8
  call void @llvm.dbg.declare(metadata %"class.xercesc_2_7::DocumentImpl"** %this.addr, metadata !2289, metadata !DIExpression()), !dbg !2290
  %this1 = load %"class.xercesc_2_7::DocumentImpl"*, %"class.xercesc_2_7::DocumentImpl"** %this.addr, align 8
  call void @_ZN11xercesc_2_712DocumentImplD1Ev(%"class.xercesc_2_7::DocumentImpl"* %this1) #8, !dbg !2291
  %0 = bitcast %"class.xercesc_2_7::DocumentImpl"* %this1 to i8*, !dbg !2291
  call void @_ZN11xercesc_2_77XMemorydlEPv(i8* %0) #8, !dbg !2291
  ret void, !dbg !2292
}

; Function Attrs: noinline uwtable
define dso_local %"class.xercesc_2_7::NodeImpl"* @_ZN11xercesc_2_712DocumentImpl9cloneNodeEb(%"class.xercesc_2_7::DocumentImpl"* %this, i1 zeroext %deep) unnamed_addr #3 align 2 personality i8* bitcast (i32 (...)* @__gxx_personality_v0 to i8*) !dbg !2293 {
entry:
  %this.addr = alloca %"class.xercesc_2_7::DocumentImpl"*, align 8
  %deep.addr = alloca i8, align 1
  %newdoc = alloca %"class.xercesc_2_7::DocumentImpl"*, align 8
  %exn.slot = alloca i8*
  %ehselector.slot = alloca i32
  %n = alloca %"class.xercesc_2_7::ChildNode"*, align 8
  store %"class.xercesc_2_7::DocumentImpl"* %this, %"class.xercesc_2_7::DocumentImpl"** %this.addr, align 8
  call void @llvm.dbg.declare(metadata %"class.xercesc_2_7::DocumentImpl"** %this.addr, metadata !2294, metadata !DIExpression()), !dbg !2295
  %frombool = zext i1 %deep to i8
  store i8 %frombool, i8* %deep.addr, align 1
  call void @llvm.dbg.declare(metadata i8* %deep.addr, metadata !2296, metadata !DIExpression()), !dbg !2297
  %this1 = load %"class.xercesc_2_7::DocumentImpl"*, %"class.xercesc_2_7::DocumentImpl"** %this.addr, align 8
  call void @llvm.dbg.declare(metadata %"class.xercesc_2_7::DocumentImpl"** %newdoc, metadata !2298, metadata !DIExpression()), !dbg !2299
  %fMemoryManager = getelementptr inbounds %"class.xercesc_2_7::DocumentImpl", %"class.xercesc_2_7::DocumentImpl"* %this1, i32 0, i32 11, !dbg !2300
  %0 = load %"class.xercesc_2_7::MemoryManager"*, %"class.xercesc_2_7::MemoryManager"** %fMemoryManager, align 8, !dbg !2300
  %call = call i8* @_ZN11xercesc_2_77XMemorynwEmPNS_13MemoryManagerE(i64 168, %"class.xercesc_2_7::MemoryManager"* %0), !dbg !2301
  %1 = bitcast i8* %call to %"class.xercesc_2_7::DocumentImpl"*, !dbg !2301
  %fMemoryManager2 = getelementptr inbounds %"class.xercesc_2_7::DocumentImpl", %"class.xercesc_2_7::DocumentImpl"* %this1, i32 0, i32 11, !dbg !2302
  %2 = load %"class.xercesc_2_7::MemoryManager"*, %"class.xercesc_2_7::MemoryManager"** %fMemoryManager2, align 8, !dbg !2302
  invoke void @_ZN11xercesc_2_712DocumentImplC1EPNS_13MemoryManagerE(%"class.xercesc_2_7::DocumentImpl"* %1, %"class.xercesc_2_7::MemoryManager"* %2)
          to label %invoke.cont unwind label %lpad, !dbg !2303

invoke.cont:                                      ; preds = %entry
  store %"class.xercesc_2_7::DocumentImpl"* %1, %"class.xercesc_2_7::DocumentImpl"** %newdoc, align 8, !dbg !2299
  %3 = load i8, i8* %deep.addr, align 1, !dbg !2304
  %tobool = trunc i8 %3 to i1, !dbg !2304
  br i1 %tobool, label %if.then, label %if.end, !dbg !2306

if.then:                                          ; preds = %invoke.cont
  call void @llvm.dbg.declare(metadata %"class.xercesc_2_7::ChildNode"** %n, metadata !2307, metadata !DIExpression()), !dbg !2313
  %4 = bitcast %"class.xercesc_2_7::DocumentImpl"* %this1 to %"class.xercesc_2_7::ParentNode"*, !dbg !2314
  %firstChild = getelementptr inbounds %"class.xercesc_2_7::ParentNode", %"class.xercesc_2_7::ParentNode"* %4, i32 0, i32 2, !dbg !2314
  %5 = load %"class.xercesc_2_7::ChildNode"*, %"class.xercesc_2_7::ChildNode"** %firstChild, align 8, !dbg !2314
  store %"class.xercesc_2_7::ChildNode"* %5, %"class.xercesc_2_7::ChildNode"** %n, align 8, !dbg !2313
  br label %for.cond, !dbg !2315

for.cond:                                         ; preds = %for.inc, %if.then
  %6 = load %"class.xercesc_2_7::ChildNode"*, %"class.xercesc_2_7::ChildNode"** %n, align 8, !dbg !2316
  %cmp = icmp ne %"class.xercesc_2_7::ChildNode"* %6, null, !dbg !2318
  br i1 %cmp, label %for.body, label %for.end, !dbg !2319

for.body:                                         ; preds = %for.cond
  %7 = load %"class.xercesc_2_7::DocumentImpl"*, %"class.xercesc_2_7::DocumentImpl"** %newdoc, align 8, !dbg !2320
  %8 = bitcast %"class.xercesc_2_7::DocumentImpl"* %7 to %"class.xercesc_2_7::NodeImpl"*, !dbg !2322
  %9 = load %"class.xercesc_2_7::DocumentImpl"*, %"class.xercesc_2_7::DocumentImpl"** %newdoc, align 8, !dbg !2323
  %10 = load %"class.xercesc_2_7::ChildNode"*, %"class.xercesc_2_7::ChildNode"** %n, align 8, !dbg !2324
  %11 = bitcast %"class.xercesc_2_7::ChildNode"* %10 to %"class.xercesc_2_7::NodeImpl"*, !dbg !2324
  %12 = bitcast %"class.xercesc_2_7::DocumentImpl"* %9 to %"class.xercesc_2_7::NodeImpl"* (%"class.xercesc_2_7::DocumentImpl"*, %"class.xercesc_2_7::NodeImpl"*, i1)***, !dbg !2325
  %vtable = load %"class.xercesc_2_7::NodeImpl"* (%"class.xercesc_2_7::DocumentImpl"*, %"class.xercesc_2_7::NodeImpl"*, i1)**, %"class.xercesc_2_7::NodeImpl"* (%"class.xercesc_2_7::DocumentImpl"*, %"class.xercesc_2_7::NodeImpl"*, i1)*** %12, align 8, !dbg !2325
  %vfn = getelementptr inbounds %"class.xercesc_2_7::NodeImpl"* (%"class.xercesc_2_7::DocumentImpl"*, %"class.xercesc_2_7::NodeImpl"*, i1)*, %"class.xercesc_2_7::NodeImpl"* (%"class.xercesc_2_7::DocumentImpl"*, %"class.xercesc_2_7::NodeImpl"*, i1)** %vtable, i64 69, !dbg !2325
  %13 = load %"class.xercesc_2_7::NodeImpl"* (%"class.xercesc_2_7::DocumentImpl"*, %"class.xercesc_2_7::NodeImpl"*, i1)*, %"class.xercesc_2_7::NodeImpl"* (%"class.xercesc_2_7::DocumentImpl"*, %"class.xercesc_2_7::NodeImpl"*, i1)** %vfn, align 8, !dbg !2325
  %call3 = call %"class.xercesc_2_7::NodeImpl"* %13(%"class.xercesc_2_7::DocumentImpl"* %9, %"class.xercesc_2_7::NodeImpl"* %11, i1 zeroext true), !dbg !2325
  %14 = bitcast %"class.xercesc_2_7::NodeImpl"* %8 to %"class.xercesc_2_7::NodeImpl"* (%"class.xercesc_2_7::NodeImpl"*, %"class.xercesc_2_7::NodeImpl"*)***, !dbg !2322
  %vtable4 = load %"class.xercesc_2_7::NodeImpl"* (%"class.xercesc_2_7::NodeImpl"*, %"class.xercesc_2_7::NodeImpl"*)**, %"class.xercesc_2_7::NodeImpl"* (%"class.xercesc_2_7::NodeImpl"*, %"class.xercesc_2_7::NodeImpl"*)*** %14, align 8, !dbg !2322
  %vfn5 = getelementptr inbounds %"class.xercesc_2_7::NodeImpl"* (%"class.xercesc_2_7::NodeImpl"*, %"class.xercesc_2_7::NodeImpl"*)*, %"class.xercesc_2_7::NodeImpl"* (%"class.xercesc_2_7::NodeImpl"*, %"class.xercesc_2_7::NodeImpl"*)** %vtable4, i64 16, !dbg !2322
  %15 = load %"class.xercesc_2_7::NodeImpl"* (%"class.xercesc_2_7::NodeImpl"*, %"class.xercesc_2_7::NodeImpl"*)*, %"class.xercesc_2_7::NodeImpl"* (%"class.xercesc_2_7::NodeImpl"*, %"class.xercesc_2_7::NodeImpl"*)** %vfn5, align 8, !dbg !2322
  %call6 = call %"class.xercesc_2_7::NodeImpl"* %15(%"class.xercesc_2_7::NodeImpl"* %8, %"class.xercesc_2_7::NodeImpl"* %call3), !dbg !2322
  br label %for.inc, !dbg !2326

for.inc:                                          ; preds = %for.body
  %16 = load %"class.xercesc_2_7::ChildNode"*, %"class.xercesc_2_7::ChildNode"** %n, align 8, !dbg !2327
  %nextSibling = getelementptr inbounds %"class.xercesc_2_7::ChildNode", %"class.xercesc_2_7::ChildNode"* %16, i32 0, i32 2, !dbg !2328
  %17 = load %"class.xercesc_2_7::ChildNode"*, %"class.xercesc_2_7::ChildNode"** %nextSibling, align 8, !dbg !2328
  store %"class.xercesc_2_7::ChildNode"* %17, %"class.xercesc_2_7::ChildNode"** %n, align 8, !dbg !2329
  br label %for.cond, !dbg !2330, !llvm.loop !2331

lpad:                                             ; preds = %entry
  %18 = landingpad { i8*, i32 }
          cleanup, !dbg !2333
  %19 = extractvalue { i8*, i32 } %18, 0, !dbg !2333
  store i8* %19, i8** %exn.slot, align 8, !dbg !2333
  %20 = extractvalue { i8*, i32 } %18, 1, !dbg !2333
  store i32 %20, i32* %ehselector.slot, align 4, !dbg !2333
  call void @_ZN11xercesc_2_77XMemorydlEPvPNS_13MemoryManagerE(i8* %call, %"class.xercesc_2_7::MemoryManager"* %0) #8, !dbg !2301
  br label %eh.resume, !dbg !2301

for.end:                                          ; preds = %for.cond
  br label %if.end, !dbg !2334

if.end:                                           ; preds = %for.end, %invoke.cont
  %21 = load %"class.xercesc_2_7::DocumentImpl"*, %"class.xercesc_2_7::DocumentImpl"** %newdoc, align 8, !dbg !2335
  %errorChecking = getelementptr inbounds %"class.xercesc_2_7::DocumentImpl", %"class.xercesc_2_7::DocumentImpl"* %this1, i32 0, i32 10, !dbg !2336
  %22 = load i8, i8* %errorChecking, align 4, !dbg !2336
  %tobool7 = trunc i8 %22 to i1, !dbg !2336
  call void @_ZN11xercesc_2_712DocumentImpl16setErrorCheckingEb(%"class.xercesc_2_7::DocumentImpl"* %21, i1 zeroext %tobool7), !dbg !2337
  %23 = load %"class.xercesc_2_7::DocumentImpl"*, %"class.xercesc_2_7::DocumentImpl"** %newdoc, align 8, !dbg !2338
  %24 = bitcast %"class.xercesc_2_7::DocumentImpl"* %23 to %"class.xercesc_2_7::NodeImpl"*, !dbg !2338
  ret %"class.xercesc_2_7::NodeImpl"* %24, !dbg !2339

eh.resume:                                        ; preds = %lpad
  %exn = load i8*, i8** %exn.slot, align 8, !dbg !2301
  %sel = load i32, i32* %ehselector.slot, align 4, !dbg !2301
  %lpad.val = insertvalue { i8*, i32 } undef, i8* %exn, 0, !dbg !2301
  %lpad.val8 = insertvalue { i8*, i32 } %lpad.val, i32 %sel, 1, !dbg !2301
  resume { i8*, i32 } %lpad.val8, !dbg !2301
}

; Function Attrs: noinline nounwind uwtable
define linkonce_odr dso_local void @_ZN11xercesc_2_712DocumentImpl16setErrorCheckingEb(%"class.xercesc_2_7::DocumentImpl"* %this, i1 zeroext %check) #1 comdat align 2 !dbg !2340 {
entry:
  %this.addr = alloca %"class.xercesc_2_7::DocumentImpl"*, align 8
  %check.addr = alloca i8, align 1
  store %"class.xercesc_2_7::DocumentImpl"* %this, %"class.xercesc_2_7::DocumentImpl"** %this.addr, align 8
  call void @llvm.dbg.declare(metadata %"class.xercesc_2_7::DocumentImpl"** %this.addr, metadata !2341, metadata !DIExpression()), !dbg !2342
  %frombool = zext i1 %check to i8
  store i8 %frombool, i8* %check.addr, align 1
  call void @llvm.dbg.declare(metadata i8* %check.addr, metadata !2343, metadata !DIExpression()), !dbg !2344
  %this1 = load %"class.xercesc_2_7::DocumentImpl"*, %"class.xercesc_2_7::DocumentImpl"** %this.addr, align 8
  %0 = load i8, i8* %check.addr, align 1, !dbg !2345
  %tobool = trunc i8 %0 to i1, !dbg !2345
  %errorChecking = getelementptr inbounds %"class.xercesc_2_7::DocumentImpl", %"class.xercesc_2_7::DocumentImpl"* %this1, i32 0, i32 10, !dbg !2346
  %frombool2 = zext i1 %tobool to i8, !dbg !2347
  store i8 %frombool2, i8* %errorChecking, align 4, !dbg !2347
  ret void, !dbg !2348
}

; Function Attrs: noinline uwtable
define dso_local void @_ZN11xercesc_2_712DocumentImpl11getNodeNameEv(%"class.xercesc_2_7::DOMString"* noalias sret %agg.result, %"class.xercesc_2_7::DocumentImpl"* %this) unnamed_addr #3 align 2 !dbg !2349 {
entry:
  %result.ptr = alloca i8*, align 8
  %this.addr = alloca %"class.xercesc_2_7::DocumentImpl"*, align 8
  %0 = bitcast %"class.xercesc_2_7::DOMString"* %agg.result to i8*
  store i8* %0, i8** %result.ptr, align 8
  store %"class.xercesc_2_7::DocumentImpl"* %this, %"class.xercesc_2_7::DocumentImpl"** %this.addr, align 8
  call void @llvm.dbg.declare(metadata %"class.xercesc_2_7::DocumentImpl"** %this.addr, metadata !2350, metadata !DIExpression()), !dbg !2351
  %this1 = load %"class.xercesc_2_7::DocumentImpl"*, %"class.xercesc_2_7::DocumentImpl"** %this.addr, align 8
  %call = call dereferenceable(8) %"class.xercesc_2_7::DOMString"* @_ZN11xercesc_2_711DStringPool15getStaticStringEPKcPPNS_9DOMStringEPFvvERNS_18XMLRegisterCleanupE(i8* getelementptr inbounds ([10 x i8], [10 x i8]* @.str, i64 0, i64 0), %"class.xercesc_2_7::DOMString"** @_ZN11xercesc_2_7L3namE, void ()* @_ZN11xercesc_2_712DocumentImpl18reinitDocumentImplEv, %"class.xercesc_2_7::XMLRegisterCleanup"* dereferenceable(24) @_ZN11xercesc_2_7L10namCleanupE), !dbg !2352
  call void @_ZN11xercesc_2_79DOMStringC1ERKS0_(%"class.xercesc_2_7::DOMString"* %agg.result, %"class.xercesc_2_7::DOMString"* dereferenceable(8) %call), !dbg !2352
  ret void, !dbg !2353
}

declare dso_local dereferenceable(8) %"class.xercesc_2_7::DOMString"* @_ZN11xercesc_2_711DStringPool15getStaticStringEPKcPPNS_9DOMStringEPFvvERNS_18XMLRegisterCleanupE(i8*, %"class.xercesc_2_7::DOMString"**, void ()*, %"class.xercesc_2_7::XMLRegisterCleanup"* dereferenceable(24)) #4

; Function Attrs: noinline nounwind uwtable
define dso_local void @_ZN11xercesc_2_712DocumentImpl18reinitDocumentImplEv() #1 align 2 !dbg !2354 {
entry:
  %0 = load %"class.xercesc_2_7::DOMString"*, %"class.xercesc_2_7::DOMString"** @_ZN11xercesc_2_7L3namE, align 8, !dbg !2355
  %isnull = icmp eq %"class.xercesc_2_7::DOMString"* %0, null, !dbg !2356
  br i1 %isnull, label %delete.end, label %delete.notnull, !dbg !2356

delete.notnull:                                   ; preds = %entry
  call void @_ZN11xercesc_2_79DOMStringD1Ev(%"class.xercesc_2_7::DOMString"* %0) #8, !dbg !2356
  %1 = bitcast %"class.xercesc_2_7::DOMString"* %0 to i8*, !dbg !2356
  call void @_ZN11xercesc_2_77XMemorydlEPv(i8* %1) #8, !dbg !2356
  br label %delete.end, !dbg !2356

delete.end:                                       ; preds = %delete.notnull, %entry
  store %"class.xercesc_2_7::DOMString"* null, %"class.xercesc_2_7::DOMString"** @_ZN11xercesc_2_7L3namE, align 8, !dbg !2357
  ret void, !dbg !2358
}

declare dso_local void @_ZN11xercesc_2_79DOMStringC1ERKS0_(%"class.xercesc_2_7::DOMString"*, %"class.xercesc_2_7::DOMString"* dereferenceable(8)) unnamed_addr #4

; Function Attrs: noinline nounwind uwtable
define dso_local signext i16 @_ZN11xercesc_2_712DocumentImpl11getNodeTypeEv(%"class.xercesc_2_7::DocumentImpl"* %this) unnamed_addr #1 align 2 !dbg !2359 {
entry:
  %this.addr = alloca %"class.xercesc_2_7::DocumentImpl"*, align 8
  store %"class.xercesc_2_7::DocumentImpl"* %this, %"class.xercesc_2_7::DocumentImpl"** %this.addr, align 8
  call void @llvm.dbg.declare(metadata %"class.xercesc_2_7::DocumentImpl"** %this.addr, metadata !2360, metadata !DIExpression()), !dbg !2361
  %this1 = load %"class.xercesc_2_7::DocumentImpl"*, %"class.xercesc_2_7::DocumentImpl"** %this.addr, align 8
  ret i16 9, !dbg !2362
}

; Function Attrs: noinline nounwind uwtable
define dso_local %"class.xercesc_2_7::DocumentImpl"* @_ZN11xercesc_2_712DocumentImpl16getOwnerDocumentEv(%"class.xercesc_2_7::DocumentImpl"* %this) unnamed_addr #1 align 2 !dbg !2363 {
entry:
  %this.addr = alloca %"class.xercesc_2_7::DocumentImpl"*, align 8
  store %"class.xercesc_2_7::DocumentImpl"* %this, %"class.xercesc_2_7::DocumentImpl"** %this.addr, align 8
  call void @llvm.dbg.declare(metadata %"class.xercesc_2_7::DocumentImpl"** %this.addr, metadata !2364, metadata !DIExpression()), !dbg !2365
  %this1 = load %"class.xercesc_2_7::DocumentImpl"*, %"class.xercesc_2_7::DocumentImpl"** %this.addr, align 8
  ret %"class.xercesc_2_7::DocumentImpl"* null, !dbg !2366
}

; Function Attrs: noinline nounwind uwtable
define dso_local zeroext i1 @_ZN11xercesc_2_712DocumentImpl14isDocumentImplEv(%"class.xercesc_2_7::DocumentImpl"* %this) unnamed_addr #1 align 2 !dbg !2367 {
entry:
  %this.addr = alloca %"class.xercesc_2_7::DocumentImpl"*, align 8
  store %"class.xercesc_2_7::DocumentImpl"* %this, %"class.xercesc_2_7::DocumentImpl"** %this.addr, align 8
  call void @llvm.dbg.declare(metadata %"class.xercesc_2_7::DocumentImpl"** %this.addr, metadata !2368, metadata !DIExpression()), !dbg !2369
  %this1 = load %"class.xercesc_2_7::DocumentImpl"*, %"class.xercesc_2_7::DocumentImpl"** %this.addr, align 8
  ret i1 true, !dbg !2370
}

; Function Attrs: noinline uwtable
define dso_local %"class.xercesc_2_7::AttrImpl"* @_ZN11xercesc_2_712DocumentImpl15createAttributeERKNS_9DOMStringE(%"class.xercesc_2_7::DocumentImpl"* %this, %"class.xercesc_2_7::DOMString"* dereferenceable(8) %nam) unnamed_addr #3 align 2 personality i8* bitcast (i32 (...)* @__gxx_personality_v0 to i8*) !dbg !2371 {
entry:
  %this.addr = alloca %"class.xercesc_2_7::DocumentImpl"*, align 8
  %nam.addr = alloca %"class.xercesc_2_7::DOMString"*, align 8
  %ref.tmp = alloca %"class.xercesc_2_7::DOMString", align 8
  %exn.slot = alloca i8*
  %ehselector.slot = alloca i32
  %cleanup.isactive = alloca i1, align 1
  store %"class.xercesc_2_7::DocumentImpl"* %this, %"class.xercesc_2_7::DocumentImpl"** %this.addr, align 8
  call void @llvm.dbg.declare(metadata %"class.xercesc_2_7::DocumentImpl"** %this.addr, metadata !2372, metadata !DIExpression()), !dbg !2373
  store %"class.xercesc_2_7::DOMString"* %nam, %"class.xercesc_2_7::DOMString"** %nam.addr, align 8
  call void @llvm.dbg.declare(metadata %"class.xercesc_2_7::DOMString"** %nam.addr, metadata !2374, metadata !DIExpression()), !dbg !2375
  %this1 = load %"class.xercesc_2_7::DocumentImpl"*, %"class.xercesc_2_7::DocumentImpl"** %this.addr, align 8
  %errorChecking = getelementptr inbounds %"class.xercesc_2_7::DocumentImpl", %"class.xercesc_2_7::DocumentImpl"* %this1, i32 0, i32 10, !dbg !2376
  %0 = load i8, i8* %errorChecking, align 4, !dbg !2376
  %tobool = trunc i8 %0 to i1, !dbg !2376
  br i1 %tobool, label %land.lhs.true, label %if.end, !dbg !2378

land.lhs.true:                                    ; preds = %entry
  %1 = load %"class.xercesc_2_7::DOMString"*, %"class.xercesc_2_7::DOMString"** %nam.addr, align 8, !dbg !2379
  %call = call zeroext i1 @_ZN11xercesc_2_712DocumentImpl9isXMLNameERKNS_9DOMStringE(%"class.xercesc_2_7::DocumentImpl"* %this1, %"class.xercesc_2_7::DOMString"* dereferenceable(8) %1), !dbg !2380
  br i1 %call, label %if.end, label %if.then, !dbg !2381

if.then:                                          ; preds = %land.lhs.true
  %exception = call i8* @__cxa_allocate_exception(i64 24) #8, !dbg !2382
  store i1 true, i1* %cleanup.isactive, align 1
  %2 = bitcast i8* %exception to %"class.xercesc_2_7::DOM_DOMException"*, !dbg !2382
  invoke void @_ZN11xercesc_2_79DOMStringC1Ei(%"class.xercesc_2_7::DOMString"* %ref.tmp, i32 0)
          to label %invoke.cont unwind label %lpad, !dbg !2384

invoke.cont:                                      ; preds = %if.then
  invoke void @_ZN11xercesc_2_716DOM_DOMExceptionC1EsRKNS_9DOMStringE(%"class.xercesc_2_7::DOM_DOMException"* %2, i16 signext 5, %"class.xercesc_2_7::DOMString"* dereferenceable(8) %ref.tmp)
          to label %invoke.cont3 unwind label %lpad2, !dbg !2385

invoke.cont3:                                     ; preds = %invoke.cont
  store i1 false, i1* %cleanup.isactive, align 1, !dbg !2382
  invoke void @__cxa_throw(i8* %exception, i8* bitcast (i8** @_ZTIN11xercesc_2_716DOM_DOMExceptionE to i8*), i8* bitcast (void (%"class.xercesc_2_7::DOM_DOMException"*)* @_ZN11xercesc_2_716DOM_DOMExceptionD1Ev to i8*)) #10
          to label %unreachable unwind label %lpad2, !dbg !2382

lpad:                                             ; preds = %if.then
  %3 = landingpad { i8*, i32 }
          cleanup, !dbg !2386
  %4 = extractvalue { i8*, i32 } %3, 0, !dbg !2386
  store i8* %4, i8** %exn.slot, align 8, !dbg !2386
  %5 = extractvalue { i8*, i32 } %3, 1, !dbg !2386
  store i32 %5, i32* %ehselector.slot, align 4, !dbg !2386
  br label %ehcleanup, !dbg !2386

lpad2:                                            ; preds = %invoke.cont3, %invoke.cont
  %6 = landingpad { i8*, i32 }
          cleanup, !dbg !2386
  %7 = extractvalue { i8*, i32 } %6, 0, !dbg !2386
  store i8* %7, i8** %exn.slot, align 8, !dbg !2386
  %8 = extractvalue { i8*, i32 } %6, 1, !dbg !2386
  store i32 %8, i32* %ehselector.slot, align 4, !dbg !2386
  call void @_ZN11xercesc_2_79DOMStringD1Ev(%"class.xercesc_2_7::DOMString"* %ref.tmp) #8, !dbg !2382
  br label %ehcleanup, !dbg !2382

ehcleanup:                                        ; preds = %lpad2, %lpad
  %cleanup.is_active = load i1, i1* %cleanup.isactive, align 1, !dbg !2382
  br i1 %cleanup.is_active, label %cleanup.action, label %cleanup.done, !dbg !2382

cleanup.action:                                   ; preds = %ehcleanup
  call void @__cxa_free_exception(i8* %exception) #8, !dbg !2382
  br label %cleanup.done, !dbg !2382

cleanup.done:                                     ; preds = %cleanup.action, %ehcleanup
  br label %eh.resume, !dbg !2382

if.end:                                           ; preds = %land.lhs.true, %entry
  %fMemoryManager = getelementptr inbounds %"class.xercesc_2_7::DocumentImpl", %"class.xercesc_2_7::DocumentImpl"* %this1, i32 0, i32 11, !dbg !2387
  %9 = load %"class.xercesc_2_7::MemoryManager"*, %"class.xercesc_2_7::MemoryManager"** %fMemoryManager, align 8, !dbg !2387
  %call4 = call i8* @_ZN11xercesc_2_77XMemorynwEmPNS_13MemoryManagerE(i64 48, %"class.xercesc_2_7::MemoryManager"* %9), !dbg !2388
  %10 = bitcast i8* %call4 to %"class.xercesc_2_7::AttrImpl"*, !dbg !2388
  %11 = load %"class.xercesc_2_7::DOMString"*, %"class.xercesc_2_7::DOMString"** %nam.addr, align 8, !dbg !2389
  invoke void @_ZN11xercesc_2_78AttrImplC1EPNS_12DocumentImplERKNS_9DOMStringE(%"class.xercesc_2_7::AttrImpl"* %10, %"class.xercesc_2_7::DocumentImpl"* %this1, %"class.xercesc_2_7::DOMString"* dereferenceable(8) %11)
          to label %invoke.cont6 unwind label %lpad5, !dbg !2390

invoke.cont6:                                     ; preds = %if.end
  ret %"class.xercesc_2_7::AttrImpl"* %10, !dbg !2391

lpad5:                                            ; preds = %if.end
  %12 = landingpad { i8*, i32 }
          cleanup, !dbg !2392
  %13 = extractvalue { i8*, i32 } %12, 0, !dbg !2392
  store i8* %13, i8** %exn.slot, align 8, !dbg !2392
  %14 = extractvalue { i8*, i32 } %12, 1, !dbg !2392
  store i32 %14, i32* %ehselector.slot, align 4, !dbg !2392
  call void @_ZN11xercesc_2_77XMemorydlEPvPNS_13MemoryManagerE(i8* %call4, %"class.xercesc_2_7::MemoryManager"* %9) #8, !dbg !2388
  br label %eh.resume, !dbg !2388

eh.resume:                                        ; preds = %lpad5, %cleanup.done
  %exn = load i8*, i8** %exn.slot, align 8, !dbg !2382
  %sel = load i32, i32* %ehselector.slot, align 4, !dbg !2382
  %lpad.val = insertvalue { i8*, i32 } undef, i8* %exn, 0, !dbg !2382
  %lpad.val8 = insertvalue { i8*, i32 } %lpad.val, i32 %sel, 1, !dbg !2382
  resume { i8*, i32 } %lpad.val8, !dbg !2382

unreachable:                                      ; preds = %invoke.cont3
  unreachable
}

; Function Attrs: noinline uwtable
define dso_local zeroext i1 @_ZN11xercesc_2_712DocumentImpl9isXMLNameERKNS_9DOMStringE(%"class.xercesc_2_7::DocumentImpl"* %this, %"class.xercesc_2_7::DOMString"* dereferenceable(8) %s) #3 align 2 !dbg !2393 {
entry:
  %this.addr = alloca %"class.xercesc_2_7::DocumentImpl"*, align 8
  %s.addr = alloca %"class.xercesc_2_7::DOMString"*, align 8
  store %"class.xercesc_2_7::DocumentImpl"* %this, %"class.xercesc_2_7::DocumentImpl"** %this.addr, align 8
  call void @llvm.dbg.declare(metadata %"class.xercesc_2_7::DocumentImpl"** %this.addr, metadata !2394, metadata !DIExpression()), !dbg !2395
  store %"class.xercesc_2_7::DOMString"* %s, %"class.xercesc_2_7::DOMString"** %s.addr, align 8
  call void @llvm.dbg.declare(metadata %"class.xercesc_2_7::DOMString"** %s.addr, metadata !2396, metadata !DIExpression()), !dbg !2397
  %this1 = load %"class.xercesc_2_7::DocumentImpl"*, %"class.xercesc_2_7::DocumentImpl"** %this.addr, align 8
  %0 = load %"class.xercesc_2_7::DOMString"*, %"class.xercesc_2_7::DOMString"** %s.addr, align 8, !dbg !2398
  %call = call i16* @_ZNK11xercesc_2_79DOMString9rawBufferEv(%"class.xercesc_2_7::DOMString"* %0), !dbg !2399
  %1 = load %"class.xercesc_2_7::DOMString"*, %"class.xercesc_2_7::DOMString"** %s.addr, align 8, !dbg !2400
  %call2 = call i32 @_ZNK11xercesc_2_79DOMString6lengthEv(%"class.xercesc_2_7::DOMString"* %1), !dbg !2401
  %call3 = call zeroext i1 @_ZN11xercesc_2_710XMLChar1_011isValidNameEPKtj(i16* %call, i32 %call2), !dbg !2402
  ret i1 %call3, !dbg !2403
}

declare dso_local void @_ZN11xercesc_2_78AttrImplC1EPNS_12DocumentImplERKNS_9DOMStringE(%"class.xercesc_2_7::AttrImpl"*, %"class.xercesc_2_7::DocumentImpl"*, %"class.xercesc_2_7::DOMString"* dereferenceable(8)) unnamed_addr #4

; Function Attrs: noinline uwtable
define dso_local %"class.xercesc_2_7::CDATASectionImpl"* @_ZN11xercesc_2_712DocumentImpl18createCDATASectionERKNS_9DOMStringE(%"class.xercesc_2_7::DocumentImpl"* %this, %"class.xercesc_2_7::DOMString"* dereferenceable(8) %data) unnamed_addr #3 align 2 personality i8* bitcast (i32 (...)* @__gxx_personality_v0 to i8*) !dbg !2404 {
entry:
  %this.addr = alloca %"class.xercesc_2_7::DocumentImpl"*, align 8
  %data.addr = alloca %"class.xercesc_2_7::DOMString"*, align 8
  %exn.slot = alloca i8*
  %ehselector.slot = alloca i32
  store %"class.xercesc_2_7::DocumentImpl"* %this, %"class.xercesc_2_7::DocumentImpl"** %this.addr, align 8
  call void @llvm.dbg.declare(metadata %"class.xercesc_2_7::DocumentImpl"** %this.addr, metadata !2405, metadata !DIExpression()), !dbg !2406
  store %"class.xercesc_2_7::DOMString"* %data, %"class.xercesc_2_7::DOMString"** %data.addr, align 8
  call void @llvm.dbg.declare(metadata %"class.xercesc_2_7::DOMString"** %data.addr, metadata !2407, metadata !DIExpression()), !dbg !2408
  %this1 = load %"class.xercesc_2_7::DocumentImpl"*, %"class.xercesc_2_7::DocumentImpl"** %this.addr, align 8
  %fMemoryManager = getelementptr inbounds %"class.xercesc_2_7::DocumentImpl", %"class.xercesc_2_7::DocumentImpl"* %this1, i32 0, i32 11, !dbg !2409
  %0 = load %"class.xercesc_2_7::MemoryManager"*, %"class.xercesc_2_7::MemoryManager"** %fMemoryManager, align 8, !dbg !2409
  %call = call i8* @_ZN11xercesc_2_77XMemorynwEmPNS_13MemoryManagerE(i64 56, %"class.xercesc_2_7::MemoryManager"* %0), !dbg !2410
  %1 = bitcast i8* %call to %"class.xercesc_2_7::CDATASectionImpl"*, !dbg !2410
  %2 = load %"class.xercesc_2_7::DOMString"*, %"class.xercesc_2_7::DOMString"** %data.addr, align 8, !dbg !2411
  invoke void @_ZN11xercesc_2_716CDATASectionImplC1EPNS_12DocumentImplERKNS_9DOMStringE(%"class.xercesc_2_7::CDATASectionImpl"* %1, %"class.xercesc_2_7::DocumentImpl"* %this1, %"class.xercesc_2_7::DOMString"* dereferenceable(8) %2)
          to label %invoke.cont unwind label %lpad, !dbg !2412

invoke.cont:                                      ; preds = %entry
  ret %"class.xercesc_2_7::CDATASectionImpl"* %1, !dbg !2413

lpad:                                             ; preds = %entry
  %3 = landingpad { i8*, i32 }
          cleanup, !dbg !2414
  %4 = extractvalue { i8*, i32 } %3, 0, !dbg !2414
  store i8* %4, i8** %exn.slot, align 8, !dbg !2414
  %5 = extractvalue { i8*, i32 } %3, 1, !dbg !2414
  store i32 %5, i32* %ehselector.slot, align 4, !dbg !2414
  call void @_ZN11xercesc_2_77XMemorydlEPvPNS_13MemoryManagerE(i8* %call, %"class.xercesc_2_7::MemoryManager"* %0) #8, !dbg !2410
  br label %eh.resume, !dbg !2410

eh.resume:                                        ; preds = %lpad
  %exn = load i8*, i8** %exn.slot, align 8, !dbg !2410
  %sel = load i32, i32* %ehselector.slot, align 4, !dbg !2410
  %lpad.val = insertvalue { i8*, i32 } undef, i8* %exn, 0, !dbg !2410
  %lpad.val2 = insertvalue { i8*, i32 } %lpad.val, i32 %sel, 1, !dbg !2410
  resume { i8*, i32 } %lpad.val2, !dbg !2410
}

declare dso_local void @_ZN11xercesc_2_716CDATASectionImplC1EPNS_12DocumentImplERKNS_9DOMStringE(%"class.xercesc_2_7::CDATASectionImpl"*, %"class.xercesc_2_7::DocumentImpl"*, %"class.xercesc_2_7::DOMString"* dereferenceable(8)) unnamed_addr #4

; Function Attrs: noinline uwtable
define dso_local %"class.xercesc_2_7::CommentImpl"* @_ZN11xercesc_2_712DocumentImpl13createCommentERKNS_9DOMStringE(%"class.xercesc_2_7::DocumentImpl"* %this, %"class.xercesc_2_7::DOMString"* dereferenceable(8) %data) unnamed_addr #3 align 2 personality i8* bitcast (i32 (...)* @__gxx_personality_v0 to i8*) !dbg !2415 {
entry:
  %this.addr = alloca %"class.xercesc_2_7::DocumentImpl"*, align 8
  %data.addr = alloca %"class.xercesc_2_7::DOMString"*, align 8
  %exn.slot = alloca i8*
  %ehselector.slot = alloca i32
  store %"class.xercesc_2_7::DocumentImpl"* %this, %"class.xercesc_2_7::DocumentImpl"** %this.addr, align 8
  call void @llvm.dbg.declare(metadata %"class.xercesc_2_7::DocumentImpl"** %this.addr, metadata !2416, metadata !DIExpression()), !dbg !2417
  store %"class.xercesc_2_7::DOMString"* %data, %"class.xercesc_2_7::DOMString"** %data.addr, align 8
  call void @llvm.dbg.declare(metadata %"class.xercesc_2_7::DOMString"** %data.addr, metadata !2418, metadata !DIExpression()), !dbg !2419
  %this1 = load %"class.xercesc_2_7::DocumentImpl"*, %"class.xercesc_2_7::DocumentImpl"** %this.addr, align 8
  %fMemoryManager = getelementptr inbounds %"class.xercesc_2_7::DocumentImpl", %"class.xercesc_2_7::DocumentImpl"* %this1, i32 0, i32 11, !dbg !2420
  %0 = load %"class.xercesc_2_7::MemoryManager"*, %"class.xercesc_2_7::MemoryManager"** %fMemoryManager, align 8, !dbg !2420
  %call = call i8* @_ZN11xercesc_2_77XMemorynwEmPNS_13MemoryManagerE(i64 56, %"class.xercesc_2_7::MemoryManager"* %0), !dbg !2421
  %1 = bitcast i8* %call to %"class.xercesc_2_7::CommentImpl"*, !dbg !2421
  %2 = load %"class.xercesc_2_7::DOMString"*, %"class.xercesc_2_7::DOMString"** %data.addr, align 8, !dbg !2422
  invoke void @_ZN11xercesc_2_711CommentImplC1EPNS_12DocumentImplERKNS_9DOMStringE(%"class.xercesc_2_7::CommentImpl"* %1, %"class.xercesc_2_7::DocumentImpl"* %this1, %"class.xercesc_2_7::DOMString"* dereferenceable(8) %2)
          to label %invoke.cont unwind label %lpad, !dbg !2423

invoke.cont:                                      ; preds = %entry
  ret %"class.xercesc_2_7::CommentImpl"* %1, !dbg !2424

lpad:                                             ; preds = %entry
  %3 = landingpad { i8*, i32 }
          cleanup, !dbg !2425
  %4 = extractvalue { i8*, i32 } %3, 0, !dbg !2425
  store i8* %4, i8** %exn.slot, align 8, !dbg !2425
  %5 = extractvalue { i8*, i32 } %3, 1, !dbg !2425
  store i32 %5, i32* %ehselector.slot, align 4, !dbg !2425
  call void @_ZN11xercesc_2_77XMemorydlEPvPNS_13MemoryManagerE(i8* %call, %"class.xercesc_2_7::MemoryManager"* %0) #8, !dbg !2421
  br label %eh.resume, !dbg !2421

eh.resume:                                        ; preds = %lpad
  %exn = load i8*, i8** %exn.slot, align 8, !dbg !2421
  %sel = load i32, i32* %ehselector.slot, align 4, !dbg !2421
  %lpad.val = insertvalue { i8*, i32 } undef, i8* %exn, 0, !dbg !2421
  %lpad.val2 = insertvalue { i8*, i32 } %lpad.val, i32 %sel, 1, !dbg !2421
  resume { i8*, i32 } %lpad.val2, !dbg !2421
}

declare dso_local void @_ZN11xercesc_2_711CommentImplC1EPNS_12DocumentImplERKNS_9DOMStringE(%"class.xercesc_2_7::CommentImpl"*, %"class.xercesc_2_7::DocumentImpl"*, %"class.xercesc_2_7::DOMString"* dereferenceable(8)) unnamed_addr #4

; Function Attrs: noinline uwtable
define dso_local %"class.xercesc_2_7::DocumentFragmentImpl"* @_ZN11xercesc_2_712DocumentImpl22createDocumentFragmentEv(%"class.xercesc_2_7::DocumentImpl"* %this) unnamed_addr #3 align 2 personality i8* bitcast (i32 (...)* @__gxx_personality_v0 to i8*) !dbg !2426 {
entry:
  %this.addr = alloca %"class.xercesc_2_7::DocumentImpl"*, align 8
  %exn.slot = alloca i8*
  %ehselector.slot = alloca i32
  store %"class.xercesc_2_7::DocumentImpl"* %this, %"class.xercesc_2_7::DocumentImpl"** %this.addr, align 8
  call void @llvm.dbg.declare(metadata %"class.xercesc_2_7::DocumentImpl"** %this.addr, metadata !2427, metadata !DIExpression()), !dbg !2428
  %this1 = load %"class.xercesc_2_7::DocumentImpl"*, %"class.xercesc_2_7::DocumentImpl"** %this.addr, align 8
  %fMemoryManager = getelementptr inbounds %"class.xercesc_2_7::DocumentImpl", %"class.xercesc_2_7::DocumentImpl"* %this1, i32 0, i32 11, !dbg !2429
  %0 = load %"class.xercesc_2_7::MemoryManager"*, %"class.xercesc_2_7::MemoryManager"** %fMemoryManager, align 8, !dbg !2429
  %call = call i8* @_ZN11xercesc_2_77XMemorynwEmPNS_13MemoryManagerE(i64 88, %"class.xercesc_2_7::MemoryManager"* %0), !dbg !2430
  %1 = bitcast i8* %call to %"class.xercesc_2_7::DocumentFragmentImpl"*, !dbg !2430
  invoke void @_ZN11xercesc_2_720DocumentFragmentImplC1EPNS_12DocumentImplE(%"class.xercesc_2_7::DocumentFragmentImpl"* %1, %"class.xercesc_2_7::DocumentImpl"* %this1)
          to label %invoke.cont unwind label %lpad, !dbg !2431

invoke.cont:                                      ; preds = %entry
  ret %"class.xercesc_2_7::DocumentFragmentImpl"* %1, !dbg !2432

lpad:                                             ; preds = %entry
  %2 = landingpad { i8*, i32 }
          cleanup, !dbg !2433
  %3 = extractvalue { i8*, i32 } %2, 0, !dbg !2433
  store i8* %3, i8** %exn.slot, align 8, !dbg !2433
  %4 = extractvalue { i8*, i32 } %2, 1, !dbg !2433
  store i32 %4, i32* %ehselector.slot, align 4, !dbg !2433
  call void @_ZN11xercesc_2_77XMemorydlEPvPNS_13MemoryManagerE(i8* %call, %"class.xercesc_2_7::MemoryManager"* %0) #8, !dbg !2430
  br label %eh.resume, !dbg !2430

eh.resume:                                        ; preds = %lpad
  %exn = load i8*, i8** %exn.slot, align 8, !dbg !2430
  %sel = load i32, i32* %ehselector.slot, align 4, !dbg !2430
  %lpad.val = insertvalue { i8*, i32 } undef, i8* %exn, 0, !dbg !2430
  %lpad.val2 = insertvalue { i8*, i32 } %lpad.val, i32 %sel, 1, !dbg !2430
  resume { i8*, i32 } %lpad.val2, !dbg !2430
}

declare dso_local void @_ZN11xercesc_2_720DocumentFragmentImplC1EPNS_12DocumentImplE(%"class.xercesc_2_7::DocumentFragmentImpl"*, %"class.xercesc_2_7::DocumentImpl"*) unnamed_addr #4

; Function Attrs: noinline uwtable
define dso_local %"class.xercesc_2_7::DocumentTypeImpl"* @_ZN11xercesc_2_712DocumentImpl18createDocumentTypeERKNS_9DOMStringE(%"class.xercesc_2_7::DocumentImpl"* %this, %"class.xercesc_2_7::DOMString"* dereferenceable(8) %nam) unnamed_addr #3 align 2 personality i8* bitcast (i32 (...)* @__gxx_personality_v0 to i8*) !dbg !2434 {
entry:
  %this.addr = alloca %"class.xercesc_2_7::DocumentImpl"*, align 8
  %nam.addr = alloca %"class.xercesc_2_7::DOMString"*, align 8
  %ref.tmp = alloca %"class.xercesc_2_7::DOMString", align 8
  %exn.slot = alloca i8*
  %ehselector.slot = alloca i32
  %cleanup.isactive = alloca i1, align 1
  store %"class.xercesc_2_7::DocumentImpl"* %this, %"class.xercesc_2_7::DocumentImpl"** %this.addr, align 8
  call void @llvm.dbg.declare(metadata %"class.xercesc_2_7::DocumentImpl"** %this.addr, metadata !2435, metadata !DIExpression()), !dbg !2436
  store %"class.xercesc_2_7::DOMString"* %nam, %"class.xercesc_2_7::DOMString"** %nam.addr, align 8
  call void @llvm.dbg.declare(metadata %"class.xercesc_2_7::DOMString"** %nam.addr, metadata !2437, metadata !DIExpression()), !dbg !2438
  %this1 = load %"class.xercesc_2_7::DocumentImpl"*, %"class.xercesc_2_7::DocumentImpl"** %this.addr, align 8
  %errorChecking = getelementptr inbounds %"class.xercesc_2_7::DocumentImpl", %"class.xercesc_2_7::DocumentImpl"* %this1, i32 0, i32 10, !dbg !2439
  %0 = load i8, i8* %errorChecking, align 4, !dbg !2439
  %tobool = trunc i8 %0 to i1, !dbg !2439
  br i1 %tobool, label %land.lhs.true, label %if.end, !dbg !2441

land.lhs.true:                                    ; preds = %entry
  %1 = load %"class.xercesc_2_7::DOMString"*, %"class.xercesc_2_7::DOMString"** %nam.addr, align 8, !dbg !2442
  %call = call zeroext i1 @_ZN11xercesc_2_712DocumentImpl9isXMLNameERKNS_9DOMStringE(%"class.xercesc_2_7::DocumentImpl"* %this1, %"class.xercesc_2_7::DOMString"* dereferenceable(8) %1), !dbg !2443
  br i1 %call, label %if.end, label %if.then, !dbg !2444

if.then:                                          ; preds = %land.lhs.true
  %exception = call i8* @__cxa_allocate_exception(i64 24) #8, !dbg !2445
  store i1 true, i1* %cleanup.isactive, align 1
  %2 = bitcast i8* %exception to %"class.xercesc_2_7::DOM_DOMException"*, !dbg !2445
  invoke void @_ZN11xercesc_2_79DOMStringC1Ei(%"class.xercesc_2_7::DOMString"* %ref.tmp, i32 0)
          to label %invoke.cont unwind label %lpad, !dbg !2447

invoke.cont:                                      ; preds = %if.then
  invoke void @_ZN11xercesc_2_716DOM_DOMExceptionC1EsRKNS_9DOMStringE(%"class.xercesc_2_7::DOM_DOMException"* %2, i16 signext 5, %"class.xercesc_2_7::DOMString"* dereferenceable(8) %ref.tmp)
          to label %invoke.cont3 unwind label %lpad2, !dbg !2448

invoke.cont3:                                     ; preds = %invoke.cont
  store i1 false, i1* %cleanup.isactive, align 1, !dbg !2445
  invoke void @__cxa_throw(i8* %exception, i8* bitcast (i8** @_ZTIN11xercesc_2_716DOM_DOMExceptionE to i8*), i8* bitcast (void (%"class.xercesc_2_7::DOM_DOMException"*)* @_ZN11xercesc_2_716DOM_DOMExceptionD1Ev to i8*)) #10
          to label %unreachable unwind label %lpad2, !dbg !2445

lpad:                                             ; preds = %if.then
  %3 = landingpad { i8*, i32 }
          cleanup, !dbg !2449
  %4 = extractvalue { i8*, i32 } %3, 0, !dbg !2449
  store i8* %4, i8** %exn.slot, align 8, !dbg !2449
  %5 = extractvalue { i8*, i32 } %3, 1, !dbg !2449
  store i32 %5, i32* %ehselector.slot, align 4, !dbg !2449
  br label %ehcleanup, !dbg !2449

lpad2:                                            ; preds = %invoke.cont3, %invoke.cont
  %6 = landingpad { i8*, i32 }
          cleanup, !dbg !2449
  %7 = extractvalue { i8*, i32 } %6, 0, !dbg !2449
  store i8* %7, i8** %exn.slot, align 8, !dbg !2449
  %8 = extractvalue { i8*, i32 } %6, 1, !dbg !2449
  store i32 %8, i32* %ehselector.slot, align 4, !dbg !2449
  call void @_ZN11xercesc_2_79DOMStringD1Ev(%"class.xercesc_2_7::DOMString"* %ref.tmp) #8, !dbg !2445
  br label %ehcleanup, !dbg !2445

ehcleanup:                                        ; preds = %lpad2, %lpad
  %cleanup.is_active = load i1, i1* %cleanup.isactive, align 1, !dbg !2445
  br i1 %cleanup.is_active, label %cleanup.action, label %cleanup.done, !dbg !2445

cleanup.action:                                   ; preds = %ehcleanup
  call void @__cxa_free_exception(i8* %exception) #8, !dbg !2445
  br label %cleanup.done, !dbg !2445

cleanup.done:                                     ; preds = %cleanup.action, %ehcleanup
  br label %eh.resume, !dbg !2445

if.end:                                           ; preds = %land.lhs.true, %entry
  %fMemoryManager = getelementptr inbounds %"class.xercesc_2_7::DocumentImpl", %"class.xercesc_2_7::DocumentImpl"* %this1, i32 0, i32 11, !dbg !2450
  %9 = load %"class.xercesc_2_7::MemoryManager"*, %"class.xercesc_2_7::MemoryManager"** %fMemoryManager, align 8, !dbg !2450
  %call4 = call i8* @_ZN11xercesc_2_77XMemorynwEmPNS_13MemoryManagerE(i64 152, %"class.xercesc_2_7::MemoryManager"* %9), !dbg !2451
  %10 = bitcast i8* %call4 to %"class.xercesc_2_7::DocumentTypeImpl"*, !dbg !2451
  %11 = load %"class.xercesc_2_7::DOMString"*, %"class.xercesc_2_7::DOMString"** %nam.addr, align 8, !dbg !2452
  invoke void @_ZN11xercesc_2_716DocumentTypeImplC1EPNS_12DocumentImplERKNS_9DOMStringE(%"class.xercesc_2_7::DocumentTypeImpl"* %10, %"class.xercesc_2_7::DocumentImpl"* %this1, %"class.xercesc_2_7::DOMString"* dereferenceable(8) %11)
          to label %invoke.cont6 unwind label %lpad5, !dbg !2453

invoke.cont6:                                     ; preds = %if.end
  ret %"class.xercesc_2_7::DocumentTypeImpl"* %10, !dbg !2454

lpad5:                                            ; preds = %if.end
  %12 = landingpad { i8*, i32 }
          cleanup, !dbg !2455
  %13 = extractvalue { i8*, i32 } %12, 0, !dbg !2455
  store i8* %13, i8** %exn.slot, align 8, !dbg !2455
  %14 = extractvalue { i8*, i32 } %12, 1, !dbg !2455
  store i32 %14, i32* %ehselector.slot, align 4, !dbg !2455
  call void @_ZN11xercesc_2_77XMemorydlEPvPNS_13MemoryManagerE(i8* %call4, %"class.xercesc_2_7::MemoryManager"* %9) #8, !dbg !2451
  br label %eh.resume, !dbg !2451

eh.resume:                                        ; preds = %lpad5, %cleanup.done
  %exn = load i8*, i8** %exn.slot, align 8, !dbg !2445
  %sel = load i32, i32* %ehselector.slot, align 4, !dbg !2445
  %lpad.val = insertvalue { i8*, i32 } undef, i8* %exn, 0, !dbg !2445
  %lpad.val8 = insertvalue { i8*, i32 } %lpad.val, i32 %sel, 1, !dbg !2445
  resume { i8*, i32 } %lpad.val8, !dbg !2445

unreachable:                                      ; preds = %invoke.cont3
  unreachable
}

declare dso_local void @_ZN11xercesc_2_716DocumentTypeImplC1EPNS_12DocumentImplERKNS_9DOMStringE(%"class.xercesc_2_7::DocumentTypeImpl"*, %"class.xercesc_2_7::DocumentImpl"*, %"class.xercesc_2_7::DOMString"* dereferenceable(8)) unnamed_addr #4

; Function Attrs: noinline uwtable
define dso_local %"class.xercesc_2_7::DocumentTypeImpl"* @_ZN11xercesc_2_712DocumentImpl18createDocumentTypeERKNS_9DOMStringES3_S3_(%"class.xercesc_2_7::DocumentImpl"* %this, %"class.xercesc_2_7::DOMString"* dereferenceable(8) %qualifiedName, %"class.xercesc_2_7::DOMString"* dereferenceable(8) %publicId, %"class.xercesc_2_7::DOMString"* dereferenceable(8) %systemId) unnamed_addr #3 align 2 personality i8* bitcast (i32 (...)* @__gxx_personality_v0 to i8*) !dbg !2456 {
entry:
  %this.addr = alloca %"class.xercesc_2_7::DocumentImpl"*, align 8
  %qualifiedName.addr = alloca %"class.xercesc_2_7::DOMString"*, align 8
  %publicId.addr = alloca %"class.xercesc_2_7::DOMString"*, align 8
  %systemId.addr = alloca %"class.xercesc_2_7::DOMString"*, align 8
  %ref.tmp = alloca %"class.xercesc_2_7::DOMString", align 8
  %exn.slot = alloca i8*
  %ehselector.slot = alloca i32
  %cleanup.isactive = alloca i1, align 1
  store %"class.xercesc_2_7::DocumentImpl"* %this, %"class.xercesc_2_7::DocumentImpl"** %this.addr, align 8
  call void @llvm.dbg.declare(metadata %"class.xercesc_2_7::DocumentImpl"** %this.addr, metadata !2457, metadata !DIExpression()), !dbg !2458
  store %"class.xercesc_2_7::DOMString"* %qualifiedName, %"class.xercesc_2_7::DOMString"** %qualifiedName.addr, align 8
  call void @llvm.dbg.declare(metadata %"class.xercesc_2_7::DOMString"** %qualifiedName.addr, metadata !2459, metadata !DIExpression()), !dbg !2460
  store %"class.xercesc_2_7::DOMString"* %publicId, %"class.xercesc_2_7::DOMString"** %publicId.addr, align 8
  call void @llvm.dbg.declare(metadata %"class.xercesc_2_7::DOMString"** %publicId.addr, metadata !2461, metadata !DIExpression()), !dbg !2462
  store %"class.xercesc_2_7::DOMString"* %systemId, %"class.xercesc_2_7::DOMString"** %systemId.addr, align 8
  call void @llvm.dbg.declare(metadata %"class.xercesc_2_7::DOMString"** %systemId.addr, metadata !2463, metadata !DIExpression()), !dbg !2464
  %this1 = load %"class.xercesc_2_7::DocumentImpl"*, %"class.xercesc_2_7::DocumentImpl"** %this.addr, align 8
  %errorChecking = getelementptr inbounds %"class.xercesc_2_7::DocumentImpl", %"class.xercesc_2_7::DocumentImpl"* %this1, i32 0, i32 10, !dbg !2465
  %0 = load i8, i8* %errorChecking, align 4, !dbg !2465
  %tobool = trunc i8 %0 to i1, !dbg !2465
  br i1 %tobool, label %land.lhs.true, label %if.end, !dbg !2467

land.lhs.true:                                    ; preds = %entry
  %1 = load %"class.xercesc_2_7::DOMString"*, %"class.xercesc_2_7::DOMString"** %qualifiedName.addr, align 8, !dbg !2468
  %call = call zeroext i1 @_ZN11xercesc_2_712DocumentImpl9isXMLNameERKNS_9DOMStringE(%"class.xercesc_2_7::DocumentImpl"* %this1, %"class.xercesc_2_7::DOMString"* dereferenceable(8) %1), !dbg !2469
  br i1 %call, label %if.end, label %if.then, !dbg !2470

if.then:                                          ; preds = %land.lhs.true
  %exception = call i8* @__cxa_allocate_exception(i64 24) #8, !dbg !2471
  store i1 true, i1* %cleanup.isactive, align 1
  %2 = bitcast i8* %exception to %"class.xercesc_2_7::DOM_DOMException"*, !dbg !2471
  invoke void @_ZN11xercesc_2_79DOMStringC1Ei(%"class.xercesc_2_7::DOMString"* %ref.tmp, i32 0)
          to label %invoke.cont unwind label %lpad, !dbg !2473

invoke.cont:                                      ; preds = %if.then
  invoke void @_ZN11xercesc_2_716DOM_DOMExceptionC1EsRKNS_9DOMStringE(%"class.xercesc_2_7::DOM_DOMException"* %2, i16 signext 5, %"class.xercesc_2_7::DOMString"* dereferenceable(8) %ref.tmp)
          to label %invoke.cont3 unwind label %lpad2, !dbg !2474

invoke.cont3:                                     ; preds = %invoke.cont
  store i1 false, i1* %cleanup.isactive, align 1, !dbg !2471
  invoke void @__cxa_throw(i8* %exception, i8* bitcast (i8** @_ZTIN11xercesc_2_716DOM_DOMExceptionE to i8*), i8* bitcast (void (%"class.xercesc_2_7::DOM_DOMException"*)* @_ZN11xercesc_2_716DOM_DOMExceptionD1Ev to i8*)) #10
          to label %unreachable unwind label %lpad2, !dbg !2471

lpad:                                             ; preds = %if.then
  %3 = landingpad { i8*, i32 }
          cleanup, !dbg !2475
  %4 = extractvalue { i8*, i32 } %3, 0, !dbg !2475
  store i8* %4, i8** %exn.slot, align 8, !dbg !2475
  %5 = extractvalue { i8*, i32 } %3, 1, !dbg !2475
  store i32 %5, i32* %ehselector.slot, align 4, !dbg !2475
  br label %ehcleanup, !dbg !2475

lpad2:                                            ; preds = %invoke.cont3, %invoke.cont
  %6 = landingpad { i8*, i32 }
          cleanup, !dbg !2475
  %7 = extractvalue { i8*, i32 } %6, 0, !dbg !2475
  store i8* %7, i8** %exn.slot, align 8, !dbg !2475
  %8 = extractvalue { i8*, i32 } %6, 1, !dbg !2475
  store i32 %8, i32* %ehselector.slot, align 4, !dbg !2475
  call void @_ZN11xercesc_2_79DOMStringD1Ev(%"class.xercesc_2_7::DOMString"* %ref.tmp) #8, !dbg !2471
  br label %ehcleanup, !dbg !2471

ehcleanup:                                        ; preds = %lpad2, %lpad
  %cleanup.is_active = load i1, i1* %cleanup.isactive, align 1, !dbg !2471
  br i1 %cleanup.is_active, label %cleanup.action, label %cleanup.done, !dbg !2471

cleanup.action:                                   ; preds = %ehcleanup
  call void @__cxa_free_exception(i8* %exception) #8, !dbg !2471
  br label %cleanup.done, !dbg !2471

cleanup.done:                                     ; preds = %cleanup.action, %ehcleanup
  br label %eh.resume, !dbg !2471

if.end:                                           ; preds = %land.lhs.true, %entry
  %fMemoryManager = getelementptr inbounds %"class.xercesc_2_7::DocumentImpl", %"class.xercesc_2_7::DocumentImpl"* %this1, i32 0, i32 11, !dbg !2476
  %9 = load %"class.xercesc_2_7::MemoryManager"*, %"class.xercesc_2_7::MemoryManager"** %fMemoryManager, align 8, !dbg !2476
  %call4 = call i8* @_ZN11xercesc_2_77XMemorynwEmPNS_13MemoryManagerE(i64 152, %"class.xercesc_2_7::MemoryManager"* %9), !dbg !2477
  %10 = bitcast i8* %call4 to %"class.xercesc_2_7::DocumentTypeImpl"*, !dbg !2477
  %11 = load %"class.xercesc_2_7::DOMString"*, %"class.xercesc_2_7::DOMString"** %qualifiedName.addr, align 8, !dbg !2478
  %12 = load %"class.xercesc_2_7::DOMString"*, %"class.xercesc_2_7::DOMString"** %publicId.addr, align 8, !dbg !2479
  %13 = load %"class.xercesc_2_7::DOMString"*, %"class.xercesc_2_7::DOMString"** %systemId.addr, align 8, !dbg !2480
  invoke void @_ZN11xercesc_2_716DocumentTypeImplC1EPNS_12DocumentImplERKNS_9DOMStringES5_S5_(%"class.xercesc_2_7::DocumentTypeImpl"* %10, %"class.xercesc_2_7::DocumentImpl"* %this1, %"class.xercesc_2_7::DOMString"* dereferenceable(8) %11, %"class.xercesc_2_7::DOMString"* dereferenceable(8) %12, %"class.xercesc_2_7::DOMString"* dereferenceable(8) %13)
          to label %invoke.cont6 unwind label %lpad5, !dbg !2481

invoke.cont6:                                     ; preds = %if.end
  ret %"class.xercesc_2_7::DocumentTypeImpl"* %10, !dbg !2482

lpad5:                                            ; preds = %if.end
  %14 = landingpad { i8*, i32 }
          cleanup, !dbg !2483
  %15 = extractvalue { i8*, i32 } %14, 0, !dbg !2483
  store i8* %15, i8** %exn.slot, align 8, !dbg !2483
  %16 = extractvalue { i8*, i32 } %14, 1, !dbg !2483
  store i32 %16, i32* %ehselector.slot, align 4, !dbg !2483
  call void @_ZN11xercesc_2_77XMemorydlEPvPNS_13MemoryManagerE(i8* %call4, %"class.xercesc_2_7::MemoryManager"* %9) #8, !dbg !2477
  br label %eh.resume, !dbg !2477

eh.resume:                                        ; preds = %lpad5, %cleanup.done
  %exn = load i8*, i8** %exn.slot, align 8, !dbg !2471
  %sel = load i32, i32* %ehselector.slot, align 4, !dbg !2471
  %lpad.val = insertvalue { i8*, i32 } undef, i8* %exn, 0, !dbg !2471
  %lpad.val8 = insertvalue { i8*, i32 } %lpad.val, i32 %sel, 1, !dbg !2471
  resume { i8*, i32 } %lpad.val8, !dbg !2471

unreachable:                                      ; preds = %invoke.cont3
  unreachable
}

declare dso_local void @_ZN11xercesc_2_716DocumentTypeImplC1EPNS_12DocumentImplERKNS_9DOMStringES5_S5_(%"class.xercesc_2_7::DocumentTypeImpl"*, %"class.xercesc_2_7::DocumentImpl"*, %"class.xercesc_2_7::DOMString"* dereferenceable(8), %"class.xercesc_2_7::DOMString"* dereferenceable(8), %"class.xercesc_2_7::DOMString"* dereferenceable(8)) unnamed_addr #4

; Function Attrs: noinline uwtable
define dso_local %"class.xercesc_2_7::ElementImpl"* @_ZN11xercesc_2_712DocumentImpl13createElementERKNS_9DOMStringE(%"class.xercesc_2_7::DocumentImpl"* %this, %"class.xercesc_2_7::DOMString"* dereferenceable(8) %tagName) unnamed_addr #3 align 2 personality i8* bitcast (i32 (...)* @__gxx_personality_v0 to i8*) !dbg !2484 {
entry:
  %this.addr = alloca %"class.xercesc_2_7::DocumentImpl"*, align 8
  %tagName.addr = alloca %"class.xercesc_2_7::DOMString"*, align 8
  %ref.tmp = alloca %"class.xercesc_2_7::DOMString", align 8
  %exn.slot = alloca i8*
  %ehselector.slot = alloca i32
  %cleanup.isactive = alloca i1, align 1
  %pooledTagName = alloca %"class.xercesc_2_7::DOMString", align 8
  store %"class.xercesc_2_7::DocumentImpl"* %this, %"class.xercesc_2_7::DocumentImpl"** %this.addr, align 8
  call void @llvm.dbg.declare(metadata %"class.xercesc_2_7::DocumentImpl"** %this.addr, metadata !2485, metadata !DIExpression()), !dbg !2486
  store %"class.xercesc_2_7::DOMString"* %tagName, %"class.xercesc_2_7::DOMString"** %tagName.addr, align 8
  call void @llvm.dbg.declare(metadata %"class.xercesc_2_7::DOMString"** %tagName.addr, metadata !2487, metadata !DIExpression()), !dbg !2488
  %this1 = load %"class.xercesc_2_7::DocumentImpl"*, %"class.xercesc_2_7::DocumentImpl"** %this.addr, align 8
  %errorChecking = getelementptr inbounds %"class.xercesc_2_7::DocumentImpl", %"class.xercesc_2_7::DocumentImpl"* %this1, i32 0, i32 10, !dbg !2489
  %0 = load i8, i8* %errorChecking, align 4, !dbg !2489
  %tobool = trunc i8 %0 to i1, !dbg !2489
  br i1 %tobool, label %land.lhs.true, label %if.end, !dbg !2491

land.lhs.true:                                    ; preds = %entry
  %1 = load %"class.xercesc_2_7::DOMString"*, %"class.xercesc_2_7::DOMString"** %tagName.addr, align 8, !dbg !2492
  %call = call zeroext i1 @_ZN11xercesc_2_712DocumentImpl9isXMLNameERKNS_9DOMStringE(%"class.xercesc_2_7::DocumentImpl"* %this1, %"class.xercesc_2_7::DOMString"* dereferenceable(8) %1), !dbg !2493
  br i1 %call, label %if.end, label %if.then, !dbg !2494

if.then:                                          ; preds = %land.lhs.true
  %exception = call i8* @__cxa_allocate_exception(i64 24) #8, !dbg !2495
  store i1 true, i1* %cleanup.isactive, align 1
  %2 = bitcast i8* %exception to %"class.xercesc_2_7::DOM_DOMException"*, !dbg !2495
  invoke void @_ZN11xercesc_2_79DOMStringC1Ei(%"class.xercesc_2_7::DOMString"* %ref.tmp, i32 0)
          to label %invoke.cont unwind label %lpad, !dbg !2497

invoke.cont:                                      ; preds = %if.then
  invoke void @_ZN11xercesc_2_716DOM_DOMExceptionC1EsRKNS_9DOMStringE(%"class.xercesc_2_7::DOM_DOMException"* %2, i16 signext 5, %"class.xercesc_2_7::DOMString"* dereferenceable(8) %ref.tmp)
          to label %invoke.cont3 unwind label %lpad2, !dbg !2498

invoke.cont3:                                     ; preds = %invoke.cont
  store i1 false, i1* %cleanup.isactive, align 1, !dbg !2495
  invoke void @__cxa_throw(i8* %exception, i8* bitcast (i8** @_ZTIN11xercesc_2_716DOM_DOMExceptionE to i8*), i8* bitcast (void (%"class.xercesc_2_7::DOM_DOMException"*)* @_ZN11xercesc_2_716DOM_DOMExceptionD1Ev to i8*)) #10
          to label %unreachable unwind label %lpad2, !dbg !2495

lpad:                                             ; preds = %if.then
  %3 = landingpad { i8*, i32 }
          cleanup, !dbg !2499
  %4 = extractvalue { i8*, i32 } %3, 0, !dbg !2499
  store i8* %4, i8** %exn.slot, align 8, !dbg !2499
  %5 = extractvalue { i8*, i32 } %3, 1, !dbg !2499
  store i32 %5, i32* %ehselector.slot, align 4, !dbg !2499
  br label %ehcleanup, !dbg !2499

lpad2:                                            ; preds = %invoke.cont3, %invoke.cont
  %6 = landingpad { i8*, i32 }
          cleanup, !dbg !2499
  %7 = extractvalue { i8*, i32 } %6, 0, !dbg !2499
  store i8* %7, i8** %exn.slot, align 8, !dbg !2499
  %8 = extractvalue { i8*, i32 } %6, 1, !dbg !2499
  store i32 %8, i32* %ehselector.slot, align 4, !dbg !2499
  call void @_ZN11xercesc_2_79DOMStringD1Ev(%"class.xercesc_2_7::DOMString"* %ref.tmp) #8, !dbg !2495
  br label %ehcleanup, !dbg !2495

ehcleanup:                                        ; preds = %lpad2, %lpad
  %cleanup.is_active = load i1, i1* %cleanup.isactive, align 1, !dbg !2495
  br i1 %cleanup.is_active, label %cleanup.action, label %cleanup.done, !dbg !2495

cleanup.action:                                   ; preds = %ehcleanup
  call void @__cxa_free_exception(i8* %exception) #8, !dbg !2495
  br label %cleanup.done, !dbg !2495

cleanup.done:                                     ; preds = %cleanup.action, %ehcleanup
  br label %eh.resume, !dbg !2495

if.end:                                           ; preds = %land.lhs.true, %entry
  call void @llvm.dbg.declare(metadata %"class.xercesc_2_7::DOMString"* %pooledTagName, metadata !2500, metadata !DIExpression()), !dbg !2501
  %namePool = getelementptr inbounds %"class.xercesc_2_7::DocumentImpl", %"class.xercesc_2_7::DocumentImpl"* %this1, i32 0, i32 3, !dbg !2502
  %9 = load %"class.xercesc_2_7::DStringPool"*, %"class.xercesc_2_7::DStringPool"** %namePool, align 8, !dbg !2502
  %10 = load %"class.xercesc_2_7::DOMString"*, %"class.xercesc_2_7::DOMString"** %tagName.addr, align 8, !dbg !2503
  %call4 = call dereferenceable(8) %"class.xercesc_2_7::DOMString"* @_ZN11xercesc_2_711DStringPool15getPooledStringERKNS_9DOMStringE(%"class.xercesc_2_7::DStringPool"* %9, %"class.xercesc_2_7::DOMString"* dereferenceable(8) %10), !dbg !2504
  call void @_ZN11xercesc_2_79DOMStringC1ERKS0_(%"class.xercesc_2_7::DOMString"* %pooledTagName, %"class.xercesc_2_7::DOMString"* dereferenceable(8) %call4), !dbg !2505
  %fMemoryManager = getelementptr inbounds %"class.xercesc_2_7::DocumentImpl", %"class.xercesc_2_7::DocumentImpl"* %this1, i32 0, i32 11, !dbg !2506
  %11 = load %"class.xercesc_2_7::MemoryManager"*, %"class.xercesc_2_7::MemoryManager"** %fMemoryManager, align 8, !dbg !2506
  %call7 = invoke i8* @_ZN11xercesc_2_77XMemorynwEmPNS_13MemoryManagerE(i64 104, %"class.xercesc_2_7::MemoryManager"* %11)
          to label %invoke.cont6 unwind label %lpad5, !dbg !2507

invoke.cont6:                                     ; preds = %if.end
  %12 = bitcast i8* %call7 to %"class.xercesc_2_7::ElementImpl"*, !dbg !2507
  invoke void @_ZN11xercesc_2_711ElementImplC1EPNS_12DocumentImplERKNS_9DOMStringE(%"class.xercesc_2_7::ElementImpl"* %12, %"class.xercesc_2_7::DocumentImpl"* %this1, %"class.xercesc_2_7::DOMString"* dereferenceable(8) %pooledTagName)
          to label %invoke.cont9 unwind label %lpad8, !dbg !2508

invoke.cont9:                                     ; preds = %invoke.cont6
  call void @_ZN11xercesc_2_79DOMStringD1Ev(%"class.xercesc_2_7::DOMString"* %pooledTagName) #8, !dbg !2509
  ret %"class.xercesc_2_7::ElementImpl"* %12, !dbg !2509

lpad5:                                            ; preds = %if.end
  %13 = landingpad { i8*, i32 }
          cleanup, !dbg !2509
  %14 = extractvalue { i8*, i32 } %13, 0, !dbg !2509
  store i8* %14, i8** %exn.slot, align 8, !dbg !2509
  %15 = extractvalue { i8*, i32 } %13, 1, !dbg !2509
  store i32 %15, i32* %ehselector.slot, align 4, !dbg !2509
  br label %ehcleanup11, !dbg !2509

lpad8:                                            ; preds = %invoke.cont6
  %16 = landingpad { i8*, i32 }
          cleanup, !dbg !2509
  %17 = extractvalue { i8*, i32 } %16, 0, !dbg !2509
  store i8* %17, i8** %exn.slot, align 8, !dbg !2509
  %18 = extractvalue { i8*, i32 } %16, 1, !dbg !2509
  store i32 %18, i32* %ehselector.slot, align 4, !dbg !2509
  call void @_ZN11xercesc_2_77XMemorydlEPvPNS_13MemoryManagerE(i8* %call7, %"class.xercesc_2_7::MemoryManager"* %11) #8, !dbg !2507
  br label %ehcleanup11, !dbg !2507

ehcleanup11:                                      ; preds = %lpad8, %lpad5
  call void @_ZN11xercesc_2_79DOMStringD1Ev(%"class.xercesc_2_7::DOMString"* %pooledTagName) #8, !dbg !2509
  br label %eh.resume, !dbg !2509

eh.resume:                                        ; preds = %ehcleanup11, %cleanup.done
  %exn = load i8*, i8** %exn.slot, align 8, !dbg !2495
  %sel = load i32, i32* %ehselector.slot, align 4, !dbg !2495
  %lpad.val = insertvalue { i8*, i32 } undef, i8* %exn, 0, !dbg !2495
  %lpad.val12 = insertvalue { i8*, i32 } %lpad.val, i32 %sel, 1, !dbg !2495
  resume { i8*, i32 } %lpad.val12, !dbg !2495

unreachable:                                      ; preds = %invoke.cont3
  unreachable
}

declare dso_local dereferenceable(8) %"class.xercesc_2_7::DOMString"* @_ZN11xercesc_2_711DStringPool15getPooledStringERKNS_9DOMStringE(%"class.xercesc_2_7::DStringPool"*, %"class.xercesc_2_7::DOMString"* dereferenceable(8)) #4

declare dso_local void @_ZN11xercesc_2_711ElementImplC1EPNS_12DocumentImplERKNS_9DOMStringE(%"class.xercesc_2_7::ElementImpl"*, %"class.xercesc_2_7::DocumentImpl"*, %"class.xercesc_2_7::DOMString"* dereferenceable(8)) unnamed_addr #4

; Function Attrs: noinline uwtable
define dso_local %"class.xercesc_2_7::ElementImpl"* @_ZN11xercesc_2_712DocumentImpl13createElementEPKt(%"class.xercesc_2_7::DocumentImpl"* %this, i16* %tagName) unnamed_addr #3 align 2 personality i8* bitcast (i32 (...)* @__gxx_personality_v0 to i8*) !dbg !2510 {
entry:
  %this.addr = alloca %"class.xercesc_2_7::DocumentImpl"*, align 8
  %tagName.addr = alloca i16*, align 8
  %pooledTagName = alloca %"class.xercesc_2_7::DOMString", align 8
  %exn.slot = alloca i8*
  %ehselector.slot = alloca i32
  store %"class.xercesc_2_7::DocumentImpl"* %this, %"class.xercesc_2_7::DocumentImpl"** %this.addr, align 8
  call void @llvm.dbg.declare(metadata %"class.xercesc_2_7::DocumentImpl"** %this.addr, metadata !2511, metadata !DIExpression()), !dbg !2512
  store i16* %tagName, i16** %tagName.addr, align 8
  call void @llvm.dbg.declare(metadata i16** %tagName.addr, metadata !2513, metadata !DIExpression()), !dbg !2514
  %this1 = load %"class.xercesc_2_7::DocumentImpl"*, %"class.xercesc_2_7::DocumentImpl"** %this.addr, align 8
  call void @llvm.dbg.declare(metadata %"class.xercesc_2_7::DOMString"* %pooledTagName, metadata !2515, metadata !DIExpression()), !dbg !2516
  %namePool = getelementptr inbounds %"class.xercesc_2_7::DocumentImpl", %"class.xercesc_2_7::DocumentImpl"* %this1, i32 0, i32 3, !dbg !2517
  %0 = load %"class.xercesc_2_7::DStringPool"*, %"class.xercesc_2_7::DStringPool"** %namePool, align 8, !dbg !2517
  %1 = load i16*, i16** %tagName.addr, align 8, !dbg !2518
  %call = call dereferenceable(8) %"class.xercesc_2_7::DOMString"* @_ZN11xercesc_2_711DStringPool15getPooledStringEPKt(%"class.xercesc_2_7::DStringPool"* %0, i16* %1), !dbg !2519
  call void @_ZN11xercesc_2_79DOMStringC1ERKS0_(%"class.xercesc_2_7::DOMString"* %pooledTagName, %"class.xercesc_2_7::DOMString"* dereferenceable(8) %call), !dbg !2520
  %fMemoryManager = getelementptr inbounds %"class.xercesc_2_7::DocumentImpl", %"class.xercesc_2_7::DocumentImpl"* %this1, i32 0, i32 11, !dbg !2521
  %2 = load %"class.xercesc_2_7::MemoryManager"*, %"class.xercesc_2_7::MemoryManager"** %fMemoryManager, align 8, !dbg !2521
  %call2 = invoke i8* @_ZN11xercesc_2_77XMemorynwEmPNS_13MemoryManagerE(i64 104, %"class.xercesc_2_7::MemoryManager"* %2)
          to label %invoke.cont unwind label %lpad, !dbg !2522

invoke.cont:                                      ; preds = %entry
  %3 = bitcast i8* %call2 to %"class.xercesc_2_7::ElementImpl"*, !dbg !2522
  invoke void @_ZN11xercesc_2_711ElementImplC1EPNS_12DocumentImplERKNS_9DOMStringE(%"class.xercesc_2_7::ElementImpl"* %3, %"class.xercesc_2_7::DocumentImpl"* %this1, %"class.xercesc_2_7::DOMString"* dereferenceable(8) %pooledTagName)
          to label %invoke.cont4 unwind label %lpad3, !dbg !2523

invoke.cont4:                                     ; preds = %invoke.cont
  call void @_ZN11xercesc_2_79DOMStringD1Ev(%"class.xercesc_2_7::DOMString"* %pooledTagName) #8, !dbg !2524
  ret %"class.xercesc_2_7::ElementImpl"* %3, !dbg !2524

lpad:                                             ; preds = %entry
  %4 = landingpad { i8*, i32 }
          cleanup, !dbg !2524
  %5 = extractvalue { i8*, i32 } %4, 0, !dbg !2524
  store i8* %5, i8** %exn.slot, align 8, !dbg !2524
  %6 = extractvalue { i8*, i32 } %4, 1, !dbg !2524
  store i32 %6, i32* %ehselector.slot, align 4, !dbg !2524
  br label %ehcleanup, !dbg !2524

lpad3:                                            ; preds = %invoke.cont
  %7 = landingpad { i8*, i32 }
          cleanup, !dbg !2524
  %8 = extractvalue { i8*, i32 } %7, 0, !dbg !2524
  store i8* %8, i8** %exn.slot, align 8, !dbg !2524
  %9 = extractvalue { i8*, i32 } %7, 1, !dbg !2524
  store i32 %9, i32* %ehselector.slot, align 4, !dbg !2524
  call void @_ZN11xercesc_2_77XMemorydlEPvPNS_13MemoryManagerE(i8* %call2, %"class.xercesc_2_7::MemoryManager"* %2) #8, !dbg !2522
  br label %ehcleanup, !dbg !2522

ehcleanup:                                        ; preds = %lpad3, %lpad
  call void @_ZN11xercesc_2_79DOMStringD1Ev(%"class.xercesc_2_7::DOMString"* %pooledTagName) #8, !dbg !2524
  br label %eh.resume, !dbg !2524

eh.resume:                                        ; preds = %ehcleanup
  %exn = load i8*, i8** %exn.slot, align 8, !dbg !2524
  %sel = load i32, i32* %ehselector.slot, align 4, !dbg !2524
  %lpad.val = insertvalue { i8*, i32 } undef, i8* %exn, 0, !dbg !2524
  %lpad.val5 = insertvalue { i8*, i32 } %lpad.val, i32 %sel, 1, !dbg !2524
  resume { i8*, i32 } %lpad.val5, !dbg !2524
}

declare dso_local dereferenceable(8) %"class.xercesc_2_7::DOMString"* @_ZN11xercesc_2_711DStringPool15getPooledStringEPKt(%"class.xercesc_2_7::DStringPool"*, i16*) #4

; Function Attrs: noinline uwtable
define dso_local %"class.xercesc_2_7::EntityImpl"* @_ZN11xercesc_2_712DocumentImpl12createEntityERKNS_9DOMStringE(%"class.xercesc_2_7::DocumentImpl"* %this, %"class.xercesc_2_7::DOMString"* dereferenceable(8) %nam) unnamed_addr #3 align 2 personality i8* bitcast (i32 (...)* @__gxx_personality_v0 to i8*) !dbg !2525 {
entry:
  %this.addr = alloca %"class.xercesc_2_7::DocumentImpl"*, align 8
  %nam.addr = alloca %"class.xercesc_2_7::DOMString"*, align 8
  %ref.tmp = alloca %"class.xercesc_2_7::DOMString", align 8
  %exn.slot = alloca i8*
  %ehselector.slot = alloca i32
  %cleanup.isactive = alloca i1, align 1
  store %"class.xercesc_2_7::DocumentImpl"* %this, %"class.xercesc_2_7::DocumentImpl"** %this.addr, align 8
  call void @llvm.dbg.declare(metadata %"class.xercesc_2_7::DocumentImpl"** %this.addr, metadata !2526, metadata !DIExpression()), !dbg !2527
  store %"class.xercesc_2_7::DOMString"* %nam, %"class.xercesc_2_7::DOMString"** %nam.addr, align 8
  call void @llvm.dbg.declare(metadata %"class.xercesc_2_7::DOMString"** %nam.addr, metadata !2528, metadata !DIExpression()), !dbg !2529
  %this1 = load %"class.xercesc_2_7::DocumentImpl"*, %"class.xercesc_2_7::DocumentImpl"** %this.addr, align 8
  %errorChecking = getelementptr inbounds %"class.xercesc_2_7::DocumentImpl", %"class.xercesc_2_7::DocumentImpl"* %this1, i32 0, i32 10, !dbg !2530
  %0 = load i8, i8* %errorChecking, align 4, !dbg !2530
  %tobool = trunc i8 %0 to i1, !dbg !2530
  br i1 %tobool, label %land.lhs.true, label %if.end, !dbg !2532

land.lhs.true:                                    ; preds = %entry
  %1 = load %"class.xercesc_2_7::DOMString"*, %"class.xercesc_2_7::DOMString"** %nam.addr, align 8, !dbg !2533
  %call = call zeroext i1 @_ZN11xercesc_2_712DocumentImpl9isXMLNameERKNS_9DOMStringE(%"class.xercesc_2_7::DocumentImpl"* %this1, %"class.xercesc_2_7::DOMString"* dereferenceable(8) %1), !dbg !2534
  br i1 %call, label %if.end, label %if.then, !dbg !2535

if.then:                                          ; preds = %land.lhs.true
  %exception = call i8* @__cxa_allocate_exception(i64 24) #8, !dbg !2536
  store i1 true, i1* %cleanup.isactive, align 1
  %2 = bitcast i8* %exception to %"class.xercesc_2_7::DOM_DOMException"*, !dbg !2536
  invoke void @_ZN11xercesc_2_79DOMStringC1Ei(%"class.xercesc_2_7::DOMString"* %ref.tmp, i32 0)
          to label %invoke.cont unwind label %lpad, !dbg !2538

invoke.cont:                                      ; preds = %if.then
  invoke void @_ZN11xercesc_2_716DOM_DOMExceptionC1EsRKNS_9DOMStringE(%"class.xercesc_2_7::DOM_DOMException"* %2, i16 signext 5, %"class.xercesc_2_7::DOMString"* dereferenceable(8) %ref.tmp)
          to label %invoke.cont3 unwind label %lpad2, !dbg !2539

invoke.cont3:                                     ; preds = %invoke.cont
  store i1 false, i1* %cleanup.isactive, align 1, !dbg !2536
  invoke void @__cxa_throw(i8* %exception, i8* bitcast (i8** @_ZTIN11xercesc_2_716DOM_DOMExceptionE to i8*), i8* bitcast (void (%"class.xercesc_2_7::DOM_DOMException"*)* @_ZN11xercesc_2_716DOM_DOMExceptionD1Ev to i8*)) #10
          to label %unreachable unwind label %lpad2, !dbg !2536

lpad:                                             ; preds = %if.then
  %3 = landingpad { i8*, i32 }
          cleanup, !dbg !2540
  %4 = extractvalue { i8*, i32 } %3, 0, !dbg !2540
  store i8* %4, i8** %exn.slot, align 8, !dbg !2540
  %5 = extractvalue { i8*, i32 } %3, 1, !dbg !2540
  store i32 %5, i32* %ehselector.slot, align 4, !dbg !2540
  br label %ehcleanup, !dbg !2540

lpad2:                                            ; preds = %invoke.cont3, %invoke.cont
  %6 = landingpad { i8*, i32 }
          cleanup, !dbg !2540
  %7 = extractvalue { i8*, i32 } %6, 0, !dbg !2540
  store i8* %7, i8** %exn.slot, align 8, !dbg !2540
  %8 = extractvalue { i8*, i32 } %6, 1, !dbg !2540
  store i32 %8, i32* %ehselector.slot, align 4, !dbg !2540
  call void @_ZN11xercesc_2_79DOMStringD1Ev(%"class.xercesc_2_7::DOMString"* %ref.tmp) #8, !dbg !2536
  br label %ehcleanup, !dbg !2536

ehcleanup:                                        ; preds = %lpad2, %lpad
  %cleanup.is_active = load i1, i1* %cleanup.isactive, align 1, !dbg !2536
  br i1 %cleanup.is_active, label %cleanup.action, label %cleanup.done, !dbg !2536

cleanup.action:                                   ; preds = %ehcleanup
  call void @__cxa_free_exception(i8* %exception) #8, !dbg !2536
  br label %cleanup.done, !dbg !2536

cleanup.done:                                     ; preds = %cleanup.action, %ehcleanup
  br label %eh.resume, !dbg !2536

if.end:                                           ; preds = %land.lhs.true, %entry
  %fMemoryManager = getelementptr inbounds %"class.xercesc_2_7::DocumentImpl", %"class.xercesc_2_7::DocumentImpl"* %this1, i32 0, i32 11, !dbg !2541
  %9 = load %"class.xercesc_2_7::MemoryManager"*, %"class.xercesc_2_7::MemoryManager"** %fMemoryManager, align 8, !dbg !2541
  %call4 = call i8* @_ZN11xercesc_2_77XMemorynwEmPNS_13MemoryManagerE(i64 120, %"class.xercesc_2_7::MemoryManager"* %9), !dbg !2542
  %10 = bitcast i8* %call4 to %"class.xercesc_2_7::EntityImpl"*, !dbg !2542
  %11 = load %"class.xercesc_2_7::DOMString"*, %"class.xercesc_2_7::DOMString"** %nam.addr, align 8, !dbg !2543
  invoke void @_ZN11xercesc_2_710EntityImplC1EPNS_12DocumentImplERKNS_9DOMStringE(%"class.xercesc_2_7::EntityImpl"* %10, %"class.xercesc_2_7::DocumentImpl"* %this1, %"class.xercesc_2_7::DOMString"* dereferenceable(8) %11)
          to label %invoke.cont6 unwind label %lpad5, !dbg !2544

invoke.cont6:                                     ; preds = %if.end
  ret %"class.xercesc_2_7::EntityImpl"* %10, !dbg !2545

lpad5:                                            ; preds = %if.end
  %12 = landingpad { i8*, i32 }
          cleanup, !dbg !2546
  %13 = extractvalue { i8*, i32 } %12, 0, !dbg !2546
  store i8* %13, i8** %exn.slot, align 8, !dbg !2546
  %14 = extractvalue { i8*, i32 } %12, 1, !dbg !2546
  store i32 %14, i32* %ehselector.slot, align 4, !dbg !2546
  call void @_ZN11xercesc_2_77XMemorydlEPvPNS_13MemoryManagerE(i8* %call4, %"class.xercesc_2_7::MemoryManager"* %9) #8, !dbg !2542
  br label %eh.resume, !dbg !2542

eh.resume:                                        ; preds = %lpad5, %cleanup.done
  %exn = load i8*, i8** %exn.slot, align 8, !dbg !2536
  %sel = load i32, i32* %ehselector.slot, align 4, !dbg !2536
  %lpad.val = insertvalue { i8*, i32 } undef, i8* %exn, 0, !dbg !2536
  %lpad.val8 = insertvalue { i8*, i32 } %lpad.val, i32 %sel, 1, !dbg !2536
  resume { i8*, i32 } %lpad.val8, !dbg !2536

unreachable:                                      ; preds = %invoke.cont3
  unreachable
}

declare dso_local void @_ZN11xercesc_2_710EntityImplC1EPNS_12DocumentImplERKNS_9DOMStringE(%"class.xercesc_2_7::EntityImpl"*, %"class.xercesc_2_7::DocumentImpl"*, %"class.xercesc_2_7::DOMString"* dereferenceable(8)) unnamed_addr #4

; Function Attrs: noinline uwtable
define dso_local %"class.xercesc_2_7::EntityReferenceImpl"* @_ZN11xercesc_2_712DocumentImpl21createEntityReferenceERKNS_9DOMStringE(%"class.xercesc_2_7::DocumentImpl"* %this, %"class.xercesc_2_7::DOMString"* dereferenceable(8) %nam) unnamed_addr #3 align 2 personality i8* bitcast (i32 (...)* @__gxx_personality_v0 to i8*) !dbg !2547 {
entry:
  %this.addr = alloca %"class.xercesc_2_7::DocumentImpl"*, align 8
  %nam.addr = alloca %"class.xercesc_2_7::DOMString"*, align 8
  %ref.tmp = alloca %"class.xercesc_2_7::DOMString", align 8
  %exn.slot = alloca i8*
  %ehselector.slot = alloca i32
  %cleanup.isactive = alloca i1, align 1
  store %"class.xercesc_2_7::DocumentImpl"* %this, %"class.xercesc_2_7::DocumentImpl"** %this.addr, align 8
  call void @llvm.dbg.declare(metadata %"class.xercesc_2_7::DocumentImpl"** %this.addr, metadata !2548, metadata !DIExpression()), !dbg !2549
  store %"class.xercesc_2_7::DOMString"* %nam, %"class.xercesc_2_7::DOMString"** %nam.addr, align 8
  call void @llvm.dbg.declare(metadata %"class.xercesc_2_7::DOMString"** %nam.addr, metadata !2550, metadata !DIExpression()), !dbg !2551
  %this1 = load %"class.xercesc_2_7::DocumentImpl"*, %"class.xercesc_2_7::DocumentImpl"** %this.addr, align 8
  %errorChecking = getelementptr inbounds %"class.xercesc_2_7::DocumentImpl", %"class.xercesc_2_7::DocumentImpl"* %this1, i32 0, i32 10, !dbg !2552
  %0 = load i8, i8* %errorChecking, align 4, !dbg !2552
  %tobool = trunc i8 %0 to i1, !dbg !2552
  br i1 %tobool, label %land.lhs.true, label %if.end, !dbg !2554

land.lhs.true:                                    ; preds = %entry
  %1 = load %"class.xercesc_2_7::DOMString"*, %"class.xercesc_2_7::DOMString"** %nam.addr, align 8, !dbg !2555
  %call = call zeroext i1 @_ZN11xercesc_2_712DocumentImpl9isXMLNameERKNS_9DOMStringE(%"class.xercesc_2_7::DocumentImpl"* %this1, %"class.xercesc_2_7::DOMString"* dereferenceable(8) %1), !dbg !2556
  br i1 %call, label %if.end, label %if.then, !dbg !2557

if.then:                                          ; preds = %land.lhs.true
  %exception = call i8* @__cxa_allocate_exception(i64 24) #8, !dbg !2558
  store i1 true, i1* %cleanup.isactive, align 1
  %2 = bitcast i8* %exception to %"class.xercesc_2_7::DOM_DOMException"*, !dbg !2558
  invoke void @_ZN11xercesc_2_79DOMStringC1Ei(%"class.xercesc_2_7::DOMString"* %ref.tmp, i32 0)
          to label %invoke.cont unwind label %lpad, !dbg !2560

invoke.cont:                                      ; preds = %if.then
  invoke void @_ZN11xercesc_2_716DOM_DOMExceptionC1EsRKNS_9DOMStringE(%"class.xercesc_2_7::DOM_DOMException"* %2, i16 signext 5, %"class.xercesc_2_7::DOMString"* dereferenceable(8) %ref.tmp)
          to label %invoke.cont3 unwind label %lpad2, !dbg !2561

invoke.cont3:                                     ; preds = %invoke.cont
  store i1 false, i1* %cleanup.isactive, align 1, !dbg !2558
  invoke void @__cxa_throw(i8* %exception, i8* bitcast (i8** @_ZTIN11xercesc_2_716DOM_DOMExceptionE to i8*), i8* bitcast (void (%"class.xercesc_2_7::DOM_DOMException"*)* @_ZN11xercesc_2_716DOM_DOMExceptionD1Ev to i8*)) #10
          to label %unreachable unwind label %lpad2, !dbg !2558

lpad:                                             ; preds = %if.then
  %3 = landingpad { i8*, i32 }
          cleanup, !dbg !2562
  %4 = extractvalue { i8*, i32 } %3, 0, !dbg !2562
  store i8* %4, i8** %exn.slot, align 8, !dbg !2562
  %5 = extractvalue { i8*, i32 } %3, 1, !dbg !2562
  store i32 %5, i32* %ehselector.slot, align 4, !dbg !2562
  br label %ehcleanup, !dbg !2562

lpad2:                                            ; preds = %invoke.cont3, %invoke.cont
  %6 = landingpad { i8*, i32 }
          cleanup, !dbg !2562
  %7 = extractvalue { i8*, i32 } %6, 0, !dbg !2562
  store i8* %7, i8** %exn.slot, align 8, !dbg !2562
  %8 = extractvalue { i8*, i32 } %6, 1, !dbg !2562
  store i32 %8, i32* %ehselector.slot, align 4, !dbg !2562
  call void @_ZN11xercesc_2_79DOMStringD1Ev(%"class.xercesc_2_7::DOMString"* %ref.tmp) #8, !dbg !2558
  br label %ehcleanup, !dbg !2558

ehcleanup:                                        ; preds = %lpad2, %lpad
  %cleanup.is_active = load i1, i1* %cleanup.isactive, align 1, !dbg !2558
  br i1 %cleanup.is_active, label %cleanup.action, label %cleanup.done, !dbg !2558

cleanup.action:                                   ; preds = %ehcleanup
  call void @__cxa_free_exception(i8* %exception) #8, !dbg !2558
  br label %cleanup.done, !dbg !2558

cleanup.done:                                     ; preds = %cleanup.action, %ehcleanup
  br label %eh.resume, !dbg !2558

if.end:                                           ; preds = %land.lhs.true, %entry
  %fMemoryManager = getelementptr inbounds %"class.xercesc_2_7::DocumentImpl", %"class.xercesc_2_7::DocumentImpl"* %this1, i32 0, i32 11, !dbg !2563
  %9 = load %"class.xercesc_2_7::MemoryManager"*, %"class.xercesc_2_7::MemoryManager"** %fMemoryManager, align 8, !dbg !2563
  %call4 = call i8* @_ZN11xercesc_2_77XMemorynwEmPNS_13MemoryManagerE(i64 96, %"class.xercesc_2_7::MemoryManager"* %9), !dbg !2564
  %10 = bitcast i8* %call4 to %"class.xercesc_2_7::EntityReferenceImpl"*, !dbg !2564
  %11 = load %"class.xercesc_2_7::DOMString"*, %"class.xercesc_2_7::DOMString"** %nam.addr, align 8, !dbg !2565
  invoke void @_ZN11xercesc_2_719EntityReferenceImplC1EPNS_12DocumentImplERKNS_9DOMStringE(%"class.xercesc_2_7::EntityReferenceImpl"* %10, %"class.xercesc_2_7::DocumentImpl"* %this1, %"class.xercesc_2_7::DOMString"* dereferenceable(8) %11)
          to label %invoke.cont6 unwind label %lpad5, !dbg !2566

invoke.cont6:                                     ; preds = %if.end
  ret %"class.xercesc_2_7::EntityReferenceImpl"* %10, !dbg !2567

lpad5:                                            ; preds = %if.end
  %12 = landingpad { i8*, i32 }
          cleanup, !dbg !2568
  %13 = extractvalue { i8*, i32 } %12, 0, !dbg !2568
  store i8* %13, i8** %exn.slot, align 8, !dbg !2568
  %14 = extractvalue { i8*, i32 } %12, 1, !dbg !2568
  store i32 %14, i32* %ehselector.slot, align 4, !dbg !2568
  call void @_ZN11xercesc_2_77XMemorydlEPvPNS_13MemoryManagerE(i8* %call4, %"class.xercesc_2_7::MemoryManager"* %9) #8, !dbg !2564
  br label %eh.resume, !dbg !2564

eh.resume:                                        ; preds = %lpad5, %cleanup.done
  %exn = load i8*, i8** %exn.slot, align 8, !dbg !2558
  %sel = load i32, i32* %ehselector.slot, align 4, !dbg !2558
  %lpad.val = insertvalue { i8*, i32 } undef, i8* %exn, 0, !dbg !2558
  %lpad.val8 = insertvalue { i8*, i32 } %lpad.val, i32 %sel, 1, !dbg !2558
  resume { i8*, i32 } %lpad.val8, !dbg !2558

unreachable:                                      ; preds = %invoke.cont3
  unreachable
}

declare dso_local void @_ZN11xercesc_2_719EntityReferenceImplC1EPNS_12DocumentImplERKNS_9DOMStringE(%"class.xercesc_2_7::EntityReferenceImpl"*, %"class.xercesc_2_7::DocumentImpl"*, %"class.xercesc_2_7::DOMString"* dereferenceable(8)) unnamed_addr #4

; Function Attrs: noinline uwtable
define dso_local %"class.xercesc_2_7::NotationImpl"* @_ZN11xercesc_2_712DocumentImpl14createNotationERKNS_9DOMStringE(%"class.xercesc_2_7::DocumentImpl"* %this, %"class.xercesc_2_7::DOMString"* dereferenceable(8) %nam) unnamed_addr #3 align 2 personality i8* bitcast (i32 (...)* @__gxx_personality_v0 to i8*) !dbg !2569 {
entry:
  %this.addr = alloca %"class.xercesc_2_7::DocumentImpl"*, align 8
  %nam.addr = alloca %"class.xercesc_2_7::DOMString"*, align 8
  %ref.tmp = alloca %"class.xercesc_2_7::DOMString", align 8
  %exn.slot = alloca i8*
  %ehselector.slot = alloca i32
  %cleanup.isactive = alloca i1, align 1
  store %"class.xercesc_2_7::DocumentImpl"* %this, %"class.xercesc_2_7::DocumentImpl"** %this.addr, align 8
  call void @llvm.dbg.declare(metadata %"class.xercesc_2_7::DocumentImpl"** %this.addr, metadata !2570, metadata !DIExpression()), !dbg !2571
  store %"class.xercesc_2_7::DOMString"* %nam, %"class.xercesc_2_7::DOMString"** %nam.addr, align 8
  call void @llvm.dbg.declare(metadata %"class.xercesc_2_7::DOMString"** %nam.addr, metadata !2572, metadata !DIExpression()), !dbg !2573
  %this1 = load %"class.xercesc_2_7::DocumentImpl"*, %"class.xercesc_2_7::DocumentImpl"** %this.addr, align 8
  %errorChecking = getelementptr inbounds %"class.xercesc_2_7::DocumentImpl", %"class.xercesc_2_7::DocumentImpl"* %this1, i32 0, i32 10, !dbg !2574
  %0 = load i8, i8* %errorChecking, align 4, !dbg !2574
  %tobool = trunc i8 %0 to i1, !dbg !2574
  br i1 %tobool, label %land.lhs.true, label %if.end, !dbg !2576

land.lhs.true:                                    ; preds = %entry
  %1 = load %"class.xercesc_2_7::DOMString"*, %"class.xercesc_2_7::DOMString"** %nam.addr, align 8, !dbg !2577
  %call = call zeroext i1 @_ZN11xercesc_2_712DocumentImpl9isXMLNameERKNS_9DOMStringE(%"class.xercesc_2_7::DocumentImpl"* %this1, %"class.xercesc_2_7::DOMString"* dereferenceable(8) %1), !dbg !2578
  br i1 %call, label %if.end, label %if.then, !dbg !2579

if.then:                                          ; preds = %land.lhs.true
  %exception = call i8* @__cxa_allocate_exception(i64 24) #8, !dbg !2580
  store i1 true, i1* %cleanup.isactive, align 1
  %2 = bitcast i8* %exception to %"class.xercesc_2_7::DOM_DOMException"*, !dbg !2580
  invoke void @_ZN11xercesc_2_79DOMStringC1Ei(%"class.xercesc_2_7::DOMString"* %ref.tmp, i32 0)
          to label %invoke.cont unwind label %lpad, !dbg !2582

invoke.cont:                                      ; preds = %if.then
  invoke void @_ZN11xercesc_2_716DOM_DOMExceptionC1EsRKNS_9DOMStringE(%"class.xercesc_2_7::DOM_DOMException"* %2, i16 signext 5, %"class.xercesc_2_7::DOMString"* dereferenceable(8) %ref.tmp)
          to label %invoke.cont3 unwind label %lpad2, !dbg !2583

invoke.cont3:                                     ; preds = %invoke.cont
  store i1 false, i1* %cleanup.isactive, align 1, !dbg !2580
  invoke void @__cxa_throw(i8* %exception, i8* bitcast (i8** @_ZTIN11xercesc_2_716DOM_DOMExceptionE to i8*), i8* bitcast (void (%"class.xercesc_2_7::DOM_DOMException"*)* @_ZN11xercesc_2_716DOM_DOMExceptionD1Ev to i8*)) #10
          to label %unreachable unwind label %lpad2, !dbg !2580

lpad:                                             ; preds = %if.then
  %3 = landingpad { i8*, i32 }
          cleanup, !dbg !2584
  %4 = extractvalue { i8*, i32 } %3, 0, !dbg !2584
  store i8* %4, i8** %exn.slot, align 8, !dbg !2584
  %5 = extractvalue { i8*, i32 } %3, 1, !dbg !2584
  store i32 %5, i32* %ehselector.slot, align 4, !dbg !2584
  br label %ehcleanup, !dbg !2584

lpad2:                                            ; preds = %invoke.cont3, %invoke.cont
  %6 = landingpad { i8*, i32 }
          cleanup, !dbg !2584
  %7 = extractvalue { i8*, i32 } %6, 0, !dbg !2584
  store i8* %7, i8** %exn.slot, align 8, !dbg !2584
  %8 = extractvalue { i8*, i32 } %6, 1, !dbg !2584
  store i32 %8, i32* %ehselector.slot, align 4, !dbg !2584
  call void @_ZN11xercesc_2_79DOMStringD1Ev(%"class.xercesc_2_7::DOMString"* %ref.tmp) #8, !dbg !2580
  br label %ehcleanup, !dbg !2580

ehcleanup:                                        ; preds = %lpad2, %lpad
  %cleanup.is_active = load i1, i1* %cleanup.isactive, align 1, !dbg !2580
  br i1 %cleanup.is_active, label %cleanup.action, label %cleanup.done, !dbg !2580

cleanup.action:                                   ; preds = %ehcleanup
  call void @__cxa_free_exception(i8* %exception) #8, !dbg !2580
  br label %cleanup.done, !dbg !2580

cleanup.done:                                     ; preds = %cleanup.action, %ehcleanup
  br label %eh.resume, !dbg !2580

if.end:                                           ; preds = %land.lhs.true, %entry
  %fMemoryManager = getelementptr inbounds %"class.xercesc_2_7::DocumentImpl", %"class.xercesc_2_7::DocumentImpl"* %this1, i32 0, i32 11, !dbg !2585
  %9 = load %"class.xercesc_2_7::MemoryManager"*, %"class.xercesc_2_7::MemoryManager"** %fMemoryManager, align 8, !dbg !2585
  %call4 = call i8* @_ZN11xercesc_2_77XMemorynwEmPNS_13MemoryManagerE(i64 56, %"class.xercesc_2_7::MemoryManager"* %9), !dbg !2586
  %10 = bitcast i8* %call4 to %"class.xercesc_2_7::NotationImpl"*, !dbg !2586
  %11 = load %"class.xercesc_2_7::DOMString"*, %"class.xercesc_2_7::DOMString"** %nam.addr, align 8, !dbg !2587
  invoke void @_ZN11xercesc_2_712NotationImplC1EPNS_12DocumentImplERKNS_9DOMStringE(%"class.xercesc_2_7::NotationImpl"* %10, %"class.xercesc_2_7::DocumentImpl"* %this1, %"class.xercesc_2_7::DOMString"* dereferenceable(8) %11)
          to label %invoke.cont6 unwind label %lpad5, !dbg !2588

invoke.cont6:                                     ; preds = %if.end
  ret %"class.xercesc_2_7::NotationImpl"* %10, !dbg !2589

lpad5:                                            ; preds = %if.end
  %12 = landingpad { i8*, i32 }
          cleanup, !dbg !2590
  %13 = extractvalue { i8*, i32 } %12, 0, !dbg !2590
  store i8* %13, i8** %exn.slot, align 8, !dbg !2590
  %14 = extractvalue { i8*, i32 } %12, 1, !dbg !2590
  store i32 %14, i32* %ehselector.slot, align 4, !dbg !2590
  call void @_ZN11xercesc_2_77XMemorydlEPvPNS_13MemoryManagerE(i8* %call4, %"class.xercesc_2_7::MemoryManager"* %9) #8, !dbg !2586
  br label %eh.resume, !dbg !2586

eh.resume:                                        ; preds = %lpad5, %cleanup.done
  %exn = load i8*, i8** %exn.slot, align 8, !dbg !2580
  %sel = load i32, i32* %ehselector.slot, align 4, !dbg !2580
  %lpad.val = insertvalue { i8*, i32 } undef, i8* %exn, 0, !dbg !2580
  %lpad.val8 = insertvalue { i8*, i32 } %lpad.val, i32 %sel, 1, !dbg !2580
  resume { i8*, i32 } %lpad.val8, !dbg !2580

unreachable:                                      ; preds = %invoke.cont3
  unreachable
}

declare dso_local void @_ZN11xercesc_2_712NotationImplC1EPNS_12DocumentImplERKNS_9DOMStringE(%"class.xercesc_2_7::NotationImpl"*, %"class.xercesc_2_7::DocumentImpl"*, %"class.xercesc_2_7::DOMString"* dereferenceable(8)) unnamed_addr #4

; Function Attrs: noinline uwtable
define dso_local %"class.xercesc_2_7::ProcessingInstructionImpl"* @_ZN11xercesc_2_712DocumentImpl27createProcessingInstructionERKNS_9DOMStringES3_(%"class.xercesc_2_7::DocumentImpl"* %this, %"class.xercesc_2_7::DOMString"* dereferenceable(8) %target, %"class.xercesc_2_7::DOMString"* dereferenceable(8) %data) unnamed_addr #3 align 2 personality i8* bitcast (i32 (...)* @__gxx_personality_v0 to i8*) !dbg !2591 {
entry:
  %this.addr = alloca %"class.xercesc_2_7::DocumentImpl"*, align 8
  %target.addr = alloca %"class.xercesc_2_7::DOMString"*, align 8
  %data.addr = alloca %"class.xercesc_2_7::DOMString"*, align 8
  %ref.tmp = alloca %"class.xercesc_2_7::DOMString", align 8
  %exn.slot = alloca i8*
  %ehselector.slot = alloca i32
  %cleanup.isactive = alloca i1, align 1
  store %"class.xercesc_2_7::DocumentImpl"* %this, %"class.xercesc_2_7::DocumentImpl"** %this.addr, align 8
  call void @llvm.dbg.declare(metadata %"class.xercesc_2_7::DocumentImpl"** %this.addr, metadata !2592, metadata !DIExpression()), !dbg !2593
  store %"class.xercesc_2_7::DOMString"* %target, %"class.xercesc_2_7::DOMString"** %target.addr, align 8
  call void @llvm.dbg.declare(metadata %"class.xercesc_2_7::DOMString"** %target.addr, metadata !2594, metadata !DIExpression()), !dbg !2595
  store %"class.xercesc_2_7::DOMString"* %data, %"class.xercesc_2_7::DOMString"** %data.addr, align 8
  call void @llvm.dbg.declare(metadata %"class.xercesc_2_7::DOMString"** %data.addr, metadata !2596, metadata !DIExpression()), !dbg !2597
  %this1 = load %"class.xercesc_2_7::DocumentImpl"*, %"class.xercesc_2_7::DocumentImpl"** %this.addr, align 8
  %errorChecking = getelementptr inbounds %"class.xercesc_2_7::DocumentImpl", %"class.xercesc_2_7::DocumentImpl"* %this1, i32 0, i32 10, !dbg !2598
  %0 = load i8, i8* %errorChecking, align 4, !dbg !2598
  %tobool = trunc i8 %0 to i1, !dbg !2598
  br i1 %tobool, label %land.lhs.true, label %if.end, !dbg !2600

land.lhs.true:                                    ; preds = %entry
  %1 = load %"class.xercesc_2_7::DOMString"*, %"class.xercesc_2_7::DOMString"** %target.addr, align 8, !dbg !2601
  %call = call zeroext i1 @_ZN11xercesc_2_712DocumentImpl9isXMLNameERKNS_9DOMStringE(%"class.xercesc_2_7::DocumentImpl"* %this1, %"class.xercesc_2_7::DOMString"* dereferenceable(8) %1), !dbg !2602
  br i1 %call, label %if.end, label %if.then, !dbg !2603

if.then:                                          ; preds = %land.lhs.true
  %exception = call i8* @__cxa_allocate_exception(i64 24) #8, !dbg !2604
  store i1 true, i1* %cleanup.isactive, align 1
  %2 = bitcast i8* %exception to %"class.xercesc_2_7::DOM_DOMException"*, !dbg !2604
  invoke void @_ZN11xercesc_2_79DOMStringC1Ei(%"class.xercesc_2_7::DOMString"* %ref.tmp, i32 0)
          to label %invoke.cont unwind label %lpad, !dbg !2606

invoke.cont:                                      ; preds = %if.then
  invoke void @_ZN11xercesc_2_716DOM_DOMExceptionC1EsRKNS_9DOMStringE(%"class.xercesc_2_7::DOM_DOMException"* %2, i16 signext 5, %"class.xercesc_2_7::DOMString"* dereferenceable(8) %ref.tmp)
          to label %invoke.cont3 unwind label %lpad2, !dbg !2607

invoke.cont3:                                     ; preds = %invoke.cont
  store i1 false, i1* %cleanup.isactive, align 1, !dbg !2604
  invoke void @__cxa_throw(i8* %exception, i8* bitcast (i8** @_ZTIN11xercesc_2_716DOM_DOMExceptionE to i8*), i8* bitcast (void (%"class.xercesc_2_7::DOM_DOMException"*)* @_ZN11xercesc_2_716DOM_DOMExceptionD1Ev to i8*)) #10
          to label %unreachable unwind label %lpad2, !dbg !2604

lpad:                                             ; preds = %if.then
  %3 = landingpad { i8*, i32 }
          cleanup, !dbg !2608
  %4 = extractvalue { i8*, i32 } %3, 0, !dbg !2608
  store i8* %4, i8** %exn.slot, align 8, !dbg !2608
  %5 = extractvalue { i8*, i32 } %3, 1, !dbg !2608
  store i32 %5, i32* %ehselector.slot, align 4, !dbg !2608
  br label %ehcleanup, !dbg !2608

lpad2:                                            ; preds = %invoke.cont3, %invoke.cont
  %6 = landingpad { i8*, i32 }
          cleanup, !dbg !2608
  %7 = extractvalue { i8*, i32 } %6, 0, !dbg !2608
  store i8* %7, i8** %exn.slot, align 8, !dbg !2608
  %8 = extractvalue { i8*, i32 } %6, 1, !dbg !2608
  store i32 %8, i32* %ehselector.slot, align 4, !dbg !2608
  call void @_ZN11xercesc_2_79DOMStringD1Ev(%"class.xercesc_2_7::DOMString"* %ref.tmp) #8, !dbg !2604
  br label %ehcleanup, !dbg !2604

ehcleanup:                                        ; preds = %lpad2, %lpad
  %cleanup.is_active = load i1, i1* %cleanup.isactive, align 1, !dbg !2604
  br i1 %cleanup.is_active, label %cleanup.action, label %cleanup.done, !dbg !2604

cleanup.action:                                   ; preds = %ehcleanup
  call void @__cxa_free_exception(i8* %exception) #8, !dbg !2604
  br label %cleanup.done, !dbg !2604

cleanup.done:                                     ; preds = %cleanup.action, %ehcleanup
  br label %eh.resume, !dbg !2604

if.end:                                           ; preds = %land.lhs.true, %entry
  %fMemoryManager = getelementptr inbounds %"class.xercesc_2_7::DocumentImpl", %"class.xercesc_2_7::DocumentImpl"* %this1, i32 0, i32 11, !dbg !2609
  %9 = load %"class.xercesc_2_7::MemoryManager"*, %"class.xercesc_2_7::MemoryManager"** %fMemoryManager, align 8, !dbg !2609
  %call4 = call i8* @_ZN11xercesc_2_77XMemorynwEmPNS_13MemoryManagerE(i64 64, %"class.xercesc_2_7::MemoryManager"* %9), !dbg !2610
  %10 = bitcast i8* %call4 to %"class.xercesc_2_7::ProcessingInstructionImpl"*, !dbg !2610
  %11 = load %"class.xercesc_2_7::DOMString"*, %"class.xercesc_2_7::DOMString"** %target.addr, align 8, !dbg !2611
  %12 = load %"class.xercesc_2_7::DOMString"*, %"class.xercesc_2_7::DOMString"** %data.addr, align 8, !dbg !2612
  invoke void @_ZN11xercesc_2_725ProcessingInstructionImplC1EPNS_12DocumentImplERKNS_9DOMStringES5_(%"class.xercesc_2_7::ProcessingInstructionImpl"* %10, %"class.xercesc_2_7::DocumentImpl"* %this1, %"class.xercesc_2_7::DOMString"* dereferenceable(8) %11, %"class.xercesc_2_7::DOMString"* dereferenceable(8) %12)
          to label %invoke.cont6 unwind label %lpad5, !dbg !2613

invoke.cont6:                                     ; preds = %if.end
  ret %"class.xercesc_2_7::ProcessingInstructionImpl"* %10, !dbg !2614

lpad5:                                            ; preds = %if.end
  %13 = landingpad { i8*, i32 }
          cleanup, !dbg !2615
  %14 = extractvalue { i8*, i32 } %13, 0, !dbg !2615
  store i8* %14, i8** %exn.slot, align 8, !dbg !2615
  %15 = extractvalue { i8*, i32 } %13, 1, !dbg !2615
  store i32 %15, i32* %ehselector.slot, align 4, !dbg !2615
  call void @_ZN11xercesc_2_77XMemorydlEPvPNS_13MemoryManagerE(i8* %call4, %"class.xercesc_2_7::MemoryManager"* %9) #8, !dbg !2610
  br label %eh.resume, !dbg !2610

eh.resume:                                        ; preds = %lpad5, %cleanup.done
  %exn = load i8*, i8** %exn.slot, align 8, !dbg !2604
  %sel = load i32, i32* %ehselector.slot, align 4, !dbg !2604
  %lpad.val = insertvalue { i8*, i32 } undef, i8* %exn, 0, !dbg !2604
  %lpad.val8 = insertvalue { i8*, i32 } %lpad.val, i32 %sel, 1, !dbg !2604
  resume { i8*, i32 } %lpad.val8, !dbg !2604

unreachable:                                      ; preds = %invoke.cont3
  unreachable
}

declare dso_local void @_ZN11xercesc_2_725ProcessingInstructionImplC1EPNS_12DocumentImplERKNS_9DOMStringES5_(%"class.xercesc_2_7::ProcessingInstructionImpl"*, %"class.xercesc_2_7::DocumentImpl"*, %"class.xercesc_2_7::DOMString"* dereferenceable(8), %"class.xercesc_2_7::DOMString"* dereferenceable(8)) unnamed_addr #4

; Function Attrs: noinline uwtable
define dso_local %"class.xercesc_2_7::TextImpl"* @_ZN11xercesc_2_712DocumentImpl14createTextNodeERKNS_9DOMStringE(%"class.xercesc_2_7::DocumentImpl"* %this, %"class.xercesc_2_7::DOMString"* dereferenceable(8) %data) unnamed_addr #3 align 2 personality i8* bitcast (i32 (...)* @__gxx_personality_v0 to i8*) !dbg !2616 {
entry:
  %this.addr = alloca %"class.xercesc_2_7::DocumentImpl"*, align 8
  %data.addr = alloca %"class.xercesc_2_7::DOMString"*, align 8
  %exn.slot = alloca i8*
  %ehselector.slot = alloca i32
  store %"class.xercesc_2_7::DocumentImpl"* %this, %"class.xercesc_2_7::DocumentImpl"** %this.addr, align 8
  call void @llvm.dbg.declare(metadata %"class.xercesc_2_7::DocumentImpl"** %this.addr, metadata !2617, metadata !DIExpression()), !dbg !2618
  store %"class.xercesc_2_7::DOMString"* %data, %"class.xercesc_2_7::DOMString"** %data.addr, align 8
  call void @llvm.dbg.declare(metadata %"class.xercesc_2_7::DOMString"** %data.addr, metadata !2619, metadata !DIExpression()), !dbg !2620
  %this1 = load %"class.xercesc_2_7::DocumentImpl"*, %"class.xercesc_2_7::DocumentImpl"** %this.addr, align 8
  %fMemoryManager = getelementptr inbounds %"class.xercesc_2_7::DocumentImpl", %"class.xercesc_2_7::DocumentImpl"* %this1, i32 0, i32 11, !dbg !2621
  %0 = load %"class.xercesc_2_7::MemoryManager"*, %"class.xercesc_2_7::MemoryManager"** %fMemoryManager, align 8, !dbg !2621
  %call = call i8* @_ZN11xercesc_2_77XMemorynwEmPNS_13MemoryManagerE(i64 56, %"class.xercesc_2_7::MemoryManager"* %0), !dbg !2622
  %1 = bitcast i8* %call to %"class.xercesc_2_7::TextImpl"*, !dbg !2622
  %2 = load %"class.xercesc_2_7::DOMString"*, %"class.xercesc_2_7::DOMString"** %data.addr, align 8, !dbg !2623
  invoke void @_ZN11xercesc_2_78TextImplC1EPNS_12DocumentImplERKNS_9DOMStringE(%"class.xercesc_2_7::TextImpl"* %1, %"class.xercesc_2_7::DocumentImpl"* %this1, %"class.xercesc_2_7::DOMString"* dereferenceable(8) %2)
          to label %invoke.cont unwind label %lpad, !dbg !2624

invoke.cont:                                      ; preds = %entry
  ret %"class.xercesc_2_7::TextImpl"* %1, !dbg !2625

lpad:                                             ; preds = %entry
  %3 = landingpad { i8*, i32 }
          cleanup, !dbg !2626
  %4 = extractvalue { i8*, i32 } %3, 0, !dbg !2626
  store i8* %4, i8** %exn.slot, align 8, !dbg !2626
  %5 = extractvalue { i8*, i32 } %3, 1, !dbg !2626
  store i32 %5, i32* %ehselector.slot, align 4, !dbg !2626
  call void @_ZN11xercesc_2_77XMemorydlEPvPNS_13MemoryManagerE(i8* %call, %"class.xercesc_2_7::MemoryManager"* %0) #8, !dbg !2622
  br label %eh.resume, !dbg !2622

eh.resume:                                        ; preds = %lpad
  %exn = load i8*, i8** %exn.slot, align 8, !dbg !2622
  %sel = load i32, i32* %ehselector.slot, align 4, !dbg !2622
  %lpad.val = insertvalue { i8*, i32 } undef, i8* %exn, 0, !dbg !2622
  %lpad.val2 = insertvalue { i8*, i32 } %lpad.val, i32 %sel, 1, !dbg !2622
  resume { i8*, i32 } %lpad.val2, !dbg !2622
}

declare dso_local void @_ZN11xercesc_2_78TextImplC1EPNS_12DocumentImplERKNS_9DOMStringE(%"class.xercesc_2_7::TextImpl"*, %"class.xercesc_2_7::DocumentImpl"*, %"class.xercesc_2_7::DOMString"* dereferenceable(8)) unnamed_addr #4

; Function Attrs: noinline uwtable
define dso_local %"class.xercesc_2_7::NodeIteratorImpl"* @_ZN11xercesc_2_712DocumentImpl18createNodeIteratorENS_8DOM_NodeEmPNS_14DOM_NodeFilterEbPNS_13MemoryManagerE(%"class.xercesc_2_7::DOM_Node"* %root, i64 %whatToShow, %"class.xercesc_2_7::DOM_NodeFilter"* %filter, i1 zeroext %entityReferenceExpansion, %"class.xercesc_2_7::MemoryManager"* %manager) #3 align 2 personality i8* bitcast (i32 (...)* @__gxx_personality_v0 to i8*) !dbg !2627 {
entry:
  %whatToShow.addr = alloca i64, align 8
  %filter.addr = alloca %"class.xercesc_2_7::DOM_NodeFilter"*, align 8
  %entityReferenceExpansion.addr = alloca i8, align 1
  %manager.addr = alloca %"class.xercesc_2_7::MemoryManager"*, align 8
  %iter = alloca %"class.xercesc_2_7::NodeIteratorImpl"*, align 8
  %agg.tmp = alloca %"class.xercesc_2_7::DOM_Node", align 8
  %exn.slot = alloca i8*
  %ehselector.slot = alloca i32
  %cleanup.isactive = alloca i1, align 1
  %doc = alloca %"class.xercesc_2_7::DOM_Document", align 8
  %impl = alloca %"class.xercesc_2_7::DocumentImpl"*, align 8
  call void @llvm.dbg.declare(metadata %"class.xercesc_2_7::DOM_Node"* %root, metadata !2628, metadata !DIExpression()), !dbg !2629
  store i64 %whatToShow, i64* %whatToShow.addr, align 8
  call void @llvm.dbg.declare(metadata i64* %whatToShow.addr, metadata !2630, metadata !DIExpression()), !dbg !2631
  store %"class.xercesc_2_7::DOM_NodeFilter"* %filter, %"class.xercesc_2_7::DOM_NodeFilter"** %filter.addr, align 8
  call void @llvm.dbg.declare(metadata %"class.xercesc_2_7::DOM_NodeFilter"** %filter.addr, metadata !2632, metadata !DIExpression()), !dbg !2633
  %frombool = zext i1 %entityReferenceExpansion to i8
  store i8 %frombool, i8* %entityReferenceExpansion.addr, align 1
  call void @llvm.dbg.declare(metadata i8* %entityReferenceExpansion.addr, metadata !2634, metadata !DIExpression()), !dbg !2635
  store %"class.xercesc_2_7::MemoryManager"* %manager, %"class.xercesc_2_7::MemoryManager"** %manager.addr, align 8
  call void @llvm.dbg.declare(metadata %"class.xercesc_2_7::MemoryManager"** %manager.addr, metadata !2636, metadata !DIExpression()), !dbg !2637
  call void @llvm.dbg.declare(metadata %"class.xercesc_2_7::NodeIteratorImpl"** %iter, metadata !2638, metadata !DIExpression()), !dbg !2639
  %0 = load %"class.xercesc_2_7::MemoryManager"*, %"class.xercesc_2_7::MemoryManager"** %manager.addr, align 8, !dbg !2640
  %call = call i8* @_ZN11xercesc_2_77XMemorynwEmPNS_13MemoryManagerE(i64 64, %"class.xercesc_2_7::MemoryManager"* %0), !dbg !2641
  store i1 true, i1* %cleanup.isactive, align 1
  %1 = bitcast i8* %call to %"class.xercesc_2_7::NodeIteratorImpl"*, !dbg !2641
  invoke void @_ZN11xercesc_2_78DOM_NodeC1ERKS0_(%"class.xercesc_2_7::DOM_Node"* %agg.tmp, %"class.xercesc_2_7::DOM_Node"* dereferenceable(8) %root)
          to label %invoke.cont unwind label %lpad, !dbg !2642

invoke.cont:                                      ; preds = %entry
  %2 = load i64, i64* %whatToShow.addr, align 8, !dbg !2643
  %3 = load %"class.xercesc_2_7::DOM_NodeFilter"*, %"class.xercesc_2_7::DOM_NodeFilter"** %filter.addr, align 8, !dbg !2644
  %4 = load i8, i8* %entityReferenceExpansion.addr, align 1, !dbg !2645
  %tobool = trunc i8 %4 to i1, !dbg !2645
  invoke void @_ZN11xercesc_2_716NodeIteratorImplC1ENS_8DOM_NodeEmPNS_14DOM_NodeFilterEb(%"class.xercesc_2_7::NodeIteratorImpl"* %1, %"class.xercesc_2_7::DOM_Node"* %agg.tmp, i64 %2, %"class.xercesc_2_7::DOM_NodeFilter"* %3, i1 zeroext %tobool)
          to label %invoke.cont2 unwind label %lpad1, !dbg !2646

invoke.cont2:                                     ; preds = %invoke.cont
  store i1 false, i1* %cleanup.isactive, align 1, !dbg !2641
  call void @_ZN11xercesc_2_78DOM_NodeD1Ev(%"class.xercesc_2_7::DOM_Node"* %agg.tmp) #8, !dbg !2641
  store %"class.xercesc_2_7::NodeIteratorImpl"* %1, %"class.xercesc_2_7::NodeIteratorImpl"** %iter, align 8, !dbg !2639
  call void @llvm.dbg.declare(metadata %"class.xercesc_2_7::DOM_Document"* %doc, metadata !2647, metadata !DIExpression()), !dbg !2648
  call void @_ZNK11xercesc_2_78DOM_Node16getOwnerDocumentEv(%"class.xercesc_2_7::DOM_Document"* sret %doc, %"class.xercesc_2_7::DOM_Node"* %root), !dbg !2649
  call void @llvm.dbg.declare(metadata %"class.xercesc_2_7::DocumentImpl"** %impl, metadata !2650, metadata !DIExpression()), !dbg !2651
  %5 = bitcast %"class.xercesc_2_7::DOM_Document"* %doc to %"class.xercesc_2_7::DOM_Node"*, !dbg !2652
  %call5 = invoke zeroext i1 @_ZNK11xercesc_2_78DOM_Node6isNullEv(%"class.xercesc_2_7::DOM_Node"* %5)
          to label %invoke.cont4 unwind label %lpad3, !dbg !2654

invoke.cont4:                                     ; preds = %invoke.cont2
  br i1 %call5, label %if.else, label %if.then, !dbg !2655

if.then:                                          ; preds = %invoke.cont4
  %6 = bitcast %"class.xercesc_2_7::DOM_Document"* %doc to %"class.xercesc_2_7::DOM_Node"*, !dbg !2656
  %fImpl = getelementptr inbounds %"class.xercesc_2_7::DOM_Node", %"class.xercesc_2_7::DOM_Node"* %6, i32 0, i32 0, !dbg !2658
  %7 = load %"class.xercesc_2_7::NodeImpl"*, %"class.xercesc_2_7::NodeImpl"** %fImpl, align 8, !dbg !2658
  %8 = bitcast %"class.xercesc_2_7::NodeImpl"* %7 to %"class.xercesc_2_7::DocumentImpl"*, !dbg !2659
  store %"class.xercesc_2_7::DocumentImpl"* %8, %"class.xercesc_2_7::DocumentImpl"** %impl, align 8, !dbg !2660
  br label %if.end, !dbg !2661

lpad:                                             ; preds = %entry
  %9 = landingpad { i8*, i32 }
          cleanup, !dbg !2662
  %10 = extractvalue { i8*, i32 } %9, 0, !dbg !2662
  store i8* %10, i8** %exn.slot, align 8, !dbg !2662
  %11 = extractvalue { i8*, i32 } %9, 1, !dbg !2662
  store i32 %11, i32* %ehselector.slot, align 4, !dbg !2662
  br label %ehcleanup, !dbg !2662

lpad1:                                            ; preds = %invoke.cont
  %12 = landingpad { i8*, i32 }
          cleanup, !dbg !2662
  %13 = extractvalue { i8*, i32 } %12, 0, !dbg !2662
  store i8* %13, i8** %exn.slot, align 8, !dbg !2662
  %14 = extractvalue { i8*, i32 } %12, 1, !dbg !2662
  store i32 %14, i32* %ehselector.slot, align 4, !dbg !2662
  call void @_ZN11xercesc_2_78DOM_NodeD1Ev(%"class.xercesc_2_7::DOM_Node"* %agg.tmp) #8, !dbg !2641
  br label %ehcleanup, !dbg !2641

ehcleanup:                                        ; preds = %lpad1, %lpad
  %cleanup.is_active = load i1, i1* %cleanup.isactive, align 1, !dbg !2641
  br i1 %cleanup.is_active, label %cleanup.action, label %cleanup.done, !dbg !2641

cleanup.action:                                   ; preds = %ehcleanup
  call void @_ZN11xercesc_2_77XMemorydlEPvPNS_13MemoryManagerE(i8* %call, %"class.xercesc_2_7::MemoryManager"* %0) #8, !dbg !2641
  br label %cleanup.done, !dbg !2641

cleanup.done:                                     ; preds = %cleanup.action, %ehcleanup
  br label %eh.resume, !dbg !2641

lpad3:                                            ; preds = %invoke.cont11, %if.then7, %invoke.cont2
  %15 = landingpad { i8*, i32 }
          cleanup, !dbg !2663
  %16 = extractvalue { i8*, i32 } %15, 0, !dbg !2663
  store i8* %16, i8** %exn.slot, align 8, !dbg !2663
  %17 = extractvalue { i8*, i32 } %15, 1, !dbg !2663
  store i32 %17, i32* %ehselector.slot, align 4, !dbg !2663
  br label %ehcleanup17, !dbg !2663

if.else:                                          ; preds = %invoke.cont4
  %fImpl6 = getelementptr inbounds %"class.xercesc_2_7::DOM_Node", %"class.xercesc_2_7::DOM_Node"* %root, i32 0, i32 0, !dbg !2664
  %18 = load %"class.xercesc_2_7::NodeImpl"*, %"class.xercesc_2_7::NodeImpl"** %fImpl6, align 8, !dbg !2664
  %19 = bitcast %"class.xercesc_2_7::NodeImpl"* %18 to %"class.xercesc_2_7::DocumentImpl"*, !dbg !2665
  store %"class.xercesc_2_7::DocumentImpl"* %19, %"class.xercesc_2_7::DocumentImpl"** %impl, align 8, !dbg !2666
  br label %if.end

if.end:                                           ; preds = %if.else, %if.then
  %20 = load %"class.xercesc_2_7::DocumentImpl"*, %"class.xercesc_2_7::DocumentImpl"** %impl, align 8, !dbg !2667
  %iterators = getelementptr inbounds %"class.xercesc_2_7::DocumentImpl", %"class.xercesc_2_7::DocumentImpl"* %20, i32 0, i32 5, !dbg !2669
  %21 = load %"class.xercesc_2_7::RefVectorOf"*, %"class.xercesc_2_7::RefVectorOf"** %iterators, align 8, !dbg !2669
  %cmp = icmp eq %"class.xercesc_2_7::RefVectorOf"* %21, null, !dbg !2670
  br i1 %cmp, label %if.then7, label %if.end16, !dbg !2671

if.then7:                                         ; preds = %if.end
  %22 = load %"class.xercesc_2_7::MemoryManager"*, %"class.xercesc_2_7::MemoryManager"** %manager.addr, align 8, !dbg !2672
  %call9 = invoke i8* @_ZN11xercesc_2_77XMemorynwEmPNS_13MemoryManagerE(i64 40, %"class.xercesc_2_7::MemoryManager"* %22)
          to label %invoke.cont8 unwind label %lpad3, !dbg !2674

invoke.cont8:                                     ; preds = %if.then7
  %23 = bitcast i8* %call9 to %"class.xercesc_2_7::RefVectorOf"*, !dbg !2674
  %24 = load %"class.xercesc_2_7::MemoryManager"*, %"class.xercesc_2_7::MemoryManager"** %manager.addr, align 8, !dbg !2675
  invoke void @_ZN11xercesc_2_711RefVectorOfINS_16NodeIteratorImplEEC2EjbPNS_13MemoryManagerE(%"class.xercesc_2_7::RefVectorOf"* %23, i32 1, i1 zeroext false, %"class.xercesc_2_7::MemoryManager"* %24)
          to label %invoke.cont11 unwind label %lpad10, !dbg !2676

invoke.cont11:                                    ; preds = %invoke.cont8
  %25 = load %"class.xercesc_2_7::DocumentImpl"*, %"class.xercesc_2_7::DocumentImpl"** %impl, align 8, !dbg !2677
  %iterators13 = getelementptr inbounds %"class.xercesc_2_7::DocumentImpl", %"class.xercesc_2_7::DocumentImpl"* %25, i32 0, i32 5, !dbg !2678
  store %"class.xercesc_2_7::RefVectorOf"* %23, %"class.xercesc_2_7::RefVectorOf"** %iterators13, align 8, !dbg !2679
  %26 = load %"class.xercesc_2_7::DocumentImpl"*, %"class.xercesc_2_7::DocumentImpl"** %impl, align 8, !dbg !2680
  %iterators14 = getelementptr inbounds %"class.xercesc_2_7::DocumentImpl", %"class.xercesc_2_7::DocumentImpl"* %26, i32 0, i32 5, !dbg !2681
  %27 = load %"class.xercesc_2_7::RefVectorOf"*, %"class.xercesc_2_7::RefVectorOf"** %iterators14, align 8, !dbg !2681
  %28 = bitcast %"class.xercesc_2_7::RefVectorOf"* %27 to %"class.xercesc_2_7::BaseRefVectorOf"*, !dbg !2682
  %29 = load %"class.xercesc_2_7::NodeIteratorImpl"*, %"class.xercesc_2_7::NodeIteratorImpl"** %iter, align 8, !dbg !2683
  invoke void @_ZN11xercesc_2_715BaseRefVectorOfINS_16NodeIteratorImplEE10addElementEPS1_(%"class.xercesc_2_7::BaseRefVectorOf"* %28, %"class.xercesc_2_7::NodeIteratorImpl"* %29)
          to label %invoke.cont15 unwind label %lpad3, !dbg !2682

invoke.cont15:                                    ; preds = %invoke.cont11
  br label %if.end16, !dbg !2684

lpad10:                                           ; preds = %invoke.cont8
  %30 = landingpad { i8*, i32 }
          cleanup, !dbg !2685
  %31 = extractvalue { i8*, i32 } %30, 0, !dbg !2685
  store i8* %31, i8** %exn.slot, align 8, !dbg !2685
  %32 = extractvalue { i8*, i32 } %30, 1, !dbg !2685
  store i32 %32, i32* %ehselector.slot, align 4, !dbg !2685
  call void @_ZN11xercesc_2_77XMemorydlEPvPNS_13MemoryManagerE(i8* %call9, %"class.xercesc_2_7::MemoryManager"* %22) #8, !dbg !2674
  br label %ehcleanup17, !dbg !2674

if.end16:                                         ; preds = %invoke.cont15, %if.end
  %33 = load %"class.xercesc_2_7::NodeIteratorImpl"*, %"class.xercesc_2_7::NodeIteratorImpl"** %iter, align 8, !dbg !2686
  call void @_ZN11xercesc_2_712DOM_DocumentD1Ev(%"class.xercesc_2_7::DOM_Document"* %doc) #8, !dbg !2662
  ret %"class.xercesc_2_7::NodeIteratorImpl"* %33, !dbg !2662

ehcleanup17:                                      ; preds = %lpad10, %lpad3
  call void @_ZN11xercesc_2_712DOM_DocumentD1Ev(%"class.xercesc_2_7::DOM_Document"* %doc) #8, !dbg !2662
  br label %eh.resume, !dbg !2662

eh.resume:                                        ; preds = %ehcleanup17, %cleanup.done
  %exn = load i8*, i8** %exn.slot, align 8, !dbg !2641
  %sel = load i32, i32* %ehselector.slot, align 4, !dbg !2641
  %lpad.val = insertvalue { i8*, i32 } undef, i8* %exn, 0, !dbg !2641
  %lpad.val18 = insertvalue { i8*, i32 } %lpad.val, i32 %sel, 1, !dbg !2641
  resume { i8*, i32 } %lpad.val18, !dbg !2641
}

declare dso_local void @_ZN11xercesc_2_78DOM_NodeC1ERKS0_(%"class.xercesc_2_7::DOM_Node"*, %"class.xercesc_2_7::DOM_Node"* dereferenceable(8)) unnamed_addr #4

declare dso_local void @_ZN11xercesc_2_716NodeIteratorImplC1ENS_8DOM_NodeEmPNS_14DOM_NodeFilterEb(%"class.xercesc_2_7::NodeIteratorImpl"*, %"class.xercesc_2_7::DOM_Node"*, i64, %"class.xercesc_2_7::DOM_NodeFilter"*, i1 zeroext) unnamed_addr #4

; Function Attrs: nounwind
declare dso_local void @_ZN11xercesc_2_78DOM_NodeD1Ev(%"class.xercesc_2_7::DOM_Node"*) unnamed_addr #5

declare dso_local void @_ZNK11xercesc_2_78DOM_Node16getOwnerDocumentEv(%"class.xercesc_2_7::DOM_Document"* sret, %"class.xercesc_2_7::DOM_Node"*) #4

declare dso_local zeroext i1 @_ZNK11xercesc_2_78DOM_Node6isNullEv(%"class.xercesc_2_7::DOM_Node"*) #4

; Function Attrs: noinline uwtable
define linkonce_odr dso_local void @_ZN11xercesc_2_711RefVectorOfINS_16NodeIteratorImplEEC2EjbPNS_13MemoryManagerE(%"class.xercesc_2_7::RefVectorOf"* %this, i32 %maxElems, i1 zeroext %adoptElems, %"class.xercesc_2_7::MemoryManager"* %manager) unnamed_addr #3 comdat align 2 !dbg !2687 {
entry:
  %this.addr = alloca %"class.xercesc_2_7::RefVectorOf"*, align 8
  %maxElems.addr = alloca i32, align 4
  %adoptElems.addr = alloca i8, align 1
  %manager.addr = alloca %"class.xercesc_2_7::MemoryManager"*, align 8
  store %"class.xercesc_2_7::RefVectorOf"* %this, %"class.xercesc_2_7::RefVectorOf"** %this.addr, align 8
  call void @llvm.dbg.declare(metadata %"class.xercesc_2_7::RefVectorOf"** %this.addr, metadata !2689, metadata !DIExpression()), !dbg !2691
  store i32 %maxElems, i32* %maxElems.addr, align 4
  call void @llvm.dbg.declare(metadata i32* %maxElems.addr, metadata !2692, metadata !DIExpression()), !dbg !2693
  %frombool = zext i1 %adoptElems to i8
  store i8 %frombool, i8* %adoptElems.addr, align 1
  call void @llvm.dbg.declare(metadata i8* %adoptElems.addr, metadata !2694, metadata !DIExpression()), !dbg !2695
  store %"class.xercesc_2_7::MemoryManager"* %manager, %"class.xercesc_2_7::MemoryManager"** %manager.addr, align 8
  call void @llvm.dbg.declare(metadata %"class.xercesc_2_7::MemoryManager"** %manager.addr, metadata !2696, metadata !DIExpression()), !dbg !2697
  %this1 = load %"class.xercesc_2_7::RefVectorOf"*, %"class.xercesc_2_7::RefVectorOf"** %this.addr, align 8
  %0 = bitcast %"class.xercesc_2_7::RefVectorOf"* %this1 to %"class.xercesc_2_7::BaseRefVectorOf"*, !dbg !2698
  %1 = load i32, i32* %maxElems.addr, align 4, !dbg !2699
  %2 = load i8, i8* %adoptElems.addr, align 1, !dbg !2700
  %tobool = trunc i8 %2 to i1, !dbg !2700
  %3 = load %"class.xercesc_2_7::MemoryManager"*, %"class.xercesc_2_7::MemoryManager"** %manager.addr, align 8, !dbg !2701
  call void @_ZN11xercesc_2_715BaseRefVectorOfINS_16NodeIteratorImplEEC2EjbPNS_13MemoryManagerE(%"class.xercesc_2_7::BaseRefVectorOf"* %0, i32 %1, i1 zeroext %tobool, %"class.xercesc_2_7::MemoryManager"* %3), !dbg !2702
  %4 = bitcast %"class.xercesc_2_7::RefVectorOf"* %this1 to i32 (...)***, !dbg !2698
  store i32 (...)** bitcast (i8** getelementptr inbounds ({ [9 x i8*] }, { [9 x i8*] }* @_ZTVN11xercesc_2_711RefVectorOfINS_16NodeIteratorImplEEE, i32 0, inrange i32 0, i32 2) to i32 (...)**), i32 (...)*** %4, align 8, !dbg !2698
  ret void, !dbg !2703
}

; Function Attrs: noinline uwtable
define linkonce_odr dso_local void @_ZN11xercesc_2_715BaseRefVectorOfINS_16NodeIteratorImplEE10addElementEPS1_(%"class.xercesc_2_7::BaseRefVectorOf"* %this, %"class.xercesc_2_7::NodeIteratorImpl"* %toAdd) #3 comdat align 2 !dbg !2704 {
entry:
  %this.addr = alloca %"class.xercesc_2_7::BaseRefVectorOf"*, align 8
  %toAdd.addr = alloca %"class.xercesc_2_7::NodeIteratorImpl"*, align 8
  store %"class.xercesc_2_7::BaseRefVectorOf"* %this, %"class.xercesc_2_7::BaseRefVectorOf"** %this.addr, align 8
  call void @llvm.dbg.declare(metadata %"class.xercesc_2_7::BaseRefVectorOf"** %this.addr, metadata !2706, metadata !DIExpression()), !dbg !2708
  store %"class.xercesc_2_7::NodeIteratorImpl"* %toAdd, %"class.xercesc_2_7::NodeIteratorImpl"** %toAdd.addr, align 8
  call void @llvm.dbg.declare(metadata %"class.xercesc_2_7::NodeIteratorImpl"** %toAdd.addr, metadata !2709, metadata !DIExpression()), !dbg !2710
  %this1 = load %"class.xercesc_2_7::BaseRefVectorOf"*, %"class.xercesc_2_7::BaseRefVectorOf"** %this.addr, align 8
  call void @_ZN11xercesc_2_715BaseRefVectorOfINS_16NodeIteratorImplEE19ensureExtraCapacityEj(%"class.xercesc_2_7::BaseRefVectorOf"* %this1, i32 1), !dbg !2711
  %0 = load %"class.xercesc_2_7::NodeIteratorImpl"*, %"class.xercesc_2_7::NodeIteratorImpl"** %toAdd.addr, align 8, !dbg !2712
  %fElemList = getelementptr inbounds %"class.xercesc_2_7::BaseRefVectorOf", %"class.xercesc_2_7::BaseRefVectorOf"* %this1, i32 0, i32 4, !dbg !2713
  %1 = load %"class.xercesc_2_7::NodeIteratorImpl"**, %"class.xercesc_2_7::NodeIteratorImpl"*** %fElemList, align 8, !dbg !2713
  %fCurCount = getelementptr inbounds %"class.xercesc_2_7::BaseRefVectorOf", %"class.xercesc_2_7::BaseRefVectorOf"* %this1, i32 0, i32 2, !dbg !2714
  %2 = load i32, i32* %fCurCount, align 4, !dbg !2714
  %idxprom = zext i32 %2 to i64, !dbg !2713
  %arrayidx = getelementptr inbounds %"class.xercesc_2_7::NodeIteratorImpl"*, %"class.xercesc_2_7::NodeIteratorImpl"** %1, i64 %idxprom, !dbg !2713
  store %"class.xercesc_2_7::NodeIteratorImpl"* %0, %"class.xercesc_2_7::NodeIteratorImpl"** %arrayidx, align 8, !dbg !2715
  %fCurCount2 = getelementptr inbounds %"class.xercesc_2_7::BaseRefVectorOf", %"class.xercesc_2_7::BaseRefVectorOf"* %this1, i32 0, i32 2, !dbg !2716
  %3 = load i32, i32* %fCurCount2, align 4, !dbg !2717
  %inc = add i32 %3, 1, !dbg !2717
  store i32 %inc, i32* %fCurCount2, align 4, !dbg !2717
  ret void, !dbg !2718
}

; Function Attrs: nounwind
declare dso_local void @_ZN11xercesc_2_712DOM_DocumentD1Ev(%"class.xercesc_2_7::DOM_Document"*) unnamed_addr #5

; Function Attrs: noinline uwtable
define dso_local %"class.xercesc_2_7::TreeWalkerImpl"* @_ZN11xercesc_2_712DocumentImpl16createTreeWalkerENS_8DOM_NodeEmPNS_14DOM_NodeFilterEbPNS_13MemoryManagerE(%"class.xercesc_2_7::DOM_Node"* %root, i64 %whatToShow, %"class.xercesc_2_7::DOM_NodeFilter"* %filter, i1 zeroext %entityReferenceExpansion, %"class.xercesc_2_7::MemoryManager"* %manager) #3 align 2 personality i8* bitcast (i32 (...)* @__gxx_personality_v0 to i8*) !dbg !2719 {
entry:
  %whatToShow.addr = alloca i64, align 8
  %filter.addr = alloca %"class.xercesc_2_7::DOM_NodeFilter"*, align 8
  %entityReferenceExpansion.addr = alloca i8, align 1
  %manager.addr = alloca %"class.xercesc_2_7::MemoryManager"*, align 8
  %twi = alloca %"class.xercesc_2_7::TreeWalkerImpl"*, align 8
  %agg.tmp = alloca %"class.xercesc_2_7::DOM_Node", align 8
  %exn.slot = alloca i8*
  %ehselector.slot = alloca i32
  %cleanup.isactive = alloca i1, align 1
  %doc = alloca %"class.xercesc_2_7::DOM_Document", align 8
  %impl = alloca %"class.xercesc_2_7::DocumentImpl"*, align 8
  call void @llvm.dbg.declare(metadata %"class.xercesc_2_7::DOM_Node"* %root, metadata !2720, metadata !DIExpression()), !dbg !2721
  store i64 %whatToShow, i64* %whatToShow.addr, align 8
  call void @llvm.dbg.declare(metadata i64* %whatToShow.addr, metadata !2722, metadata !DIExpression()), !dbg !2723
  store %"class.xercesc_2_7::DOM_NodeFilter"* %filter, %"class.xercesc_2_7::DOM_NodeFilter"** %filter.addr, align 8
  call void @llvm.dbg.declare(metadata %"class.xercesc_2_7::DOM_NodeFilter"** %filter.addr, metadata !2724, metadata !DIExpression()), !dbg !2725
  %frombool = zext i1 %entityReferenceExpansion to i8
  store i8 %frombool, i8* %entityReferenceExpansion.addr, align 1
  call void @llvm.dbg.declare(metadata i8* %entityReferenceExpansion.addr, metadata !2726, metadata !DIExpression()), !dbg !2727
  store %"class.xercesc_2_7::MemoryManager"* %manager, %"class.xercesc_2_7::MemoryManager"** %manager.addr, align 8
  call void @llvm.dbg.declare(metadata %"class.xercesc_2_7::MemoryManager"** %manager.addr, metadata !2728, metadata !DIExpression()), !dbg !2729
  call void @llvm.dbg.declare(metadata %"class.xercesc_2_7::TreeWalkerImpl"** %twi, metadata !2730, metadata !DIExpression()), !dbg !2731
  %0 = load %"class.xercesc_2_7::MemoryManager"*, %"class.xercesc_2_7::MemoryManager"** %manager.addr, align 8, !dbg !2732
  %call = call i8* @_ZN11xercesc_2_77XMemorynwEmPNS_13MemoryManagerE(i64 56, %"class.xercesc_2_7::MemoryManager"* %0), !dbg !2733
  store i1 true, i1* %cleanup.isactive, align 1
  %1 = bitcast i8* %call to %"class.xercesc_2_7::TreeWalkerImpl"*, !dbg !2733
  invoke void @_ZN11xercesc_2_78DOM_NodeC1ERKS0_(%"class.xercesc_2_7::DOM_Node"* %agg.tmp, %"class.xercesc_2_7::DOM_Node"* dereferenceable(8) %root)
          to label %invoke.cont unwind label %lpad, !dbg !2734

invoke.cont:                                      ; preds = %entry
  %2 = load i64, i64* %whatToShow.addr, align 8, !dbg !2735
  %3 = load %"class.xercesc_2_7::DOM_NodeFilter"*, %"class.xercesc_2_7::DOM_NodeFilter"** %filter.addr, align 8, !dbg !2736
  %4 = load i8, i8* %entityReferenceExpansion.addr, align 1, !dbg !2737
  %tobool = trunc i8 %4 to i1, !dbg !2737
  invoke void @_ZN11xercesc_2_714TreeWalkerImplC1ENS_8DOM_NodeEmPNS_14DOM_NodeFilterEb(%"class.xercesc_2_7::TreeWalkerImpl"* %1, %"class.xercesc_2_7::DOM_Node"* %agg.tmp, i64 %2, %"class.xercesc_2_7::DOM_NodeFilter"* %3, i1 zeroext %tobool)
          to label %invoke.cont2 unwind label %lpad1, !dbg !2738

invoke.cont2:                                     ; preds = %invoke.cont
  store i1 false, i1* %cleanup.isactive, align 1, !dbg !2733
  call void @_ZN11xercesc_2_78DOM_NodeD1Ev(%"class.xercesc_2_7::DOM_Node"* %agg.tmp) #8, !dbg !2733
  store %"class.xercesc_2_7::TreeWalkerImpl"* %1, %"class.xercesc_2_7::TreeWalkerImpl"** %twi, align 8, !dbg !2731
  call void @llvm.dbg.declare(metadata %"class.xercesc_2_7::DOM_Document"* %doc, metadata !2739, metadata !DIExpression()), !dbg !2740
  call void @_ZNK11xercesc_2_78DOM_Node16getOwnerDocumentEv(%"class.xercesc_2_7::DOM_Document"* sret %doc, %"class.xercesc_2_7::DOM_Node"* %root), !dbg !2741
  call void @llvm.dbg.declare(metadata %"class.xercesc_2_7::DocumentImpl"** %impl, metadata !2742, metadata !DIExpression()), !dbg !2743
  %5 = bitcast %"class.xercesc_2_7::DOM_Document"* %doc to %"class.xercesc_2_7::DOM_Node"*, !dbg !2744
  %call5 = invoke zeroext i1 @_ZNK11xercesc_2_78DOM_Node6isNullEv(%"class.xercesc_2_7::DOM_Node"* %5)
          to label %invoke.cont4 unwind label %lpad3, !dbg !2746

invoke.cont4:                                     ; preds = %invoke.cont2
  br i1 %call5, label %if.else, label %if.then, !dbg !2747

if.then:                                          ; preds = %invoke.cont4
  %6 = bitcast %"class.xercesc_2_7::DOM_Document"* %doc to %"class.xercesc_2_7::DOM_Node"*, !dbg !2748
  %fImpl = getelementptr inbounds %"class.xercesc_2_7::DOM_Node", %"class.xercesc_2_7::DOM_Node"* %6, i32 0, i32 0, !dbg !2750
  %7 = load %"class.xercesc_2_7::NodeImpl"*, %"class.xercesc_2_7::NodeImpl"** %fImpl, align 8, !dbg !2750
  %8 = bitcast %"class.xercesc_2_7::NodeImpl"* %7 to %"class.xercesc_2_7::DocumentImpl"*, !dbg !2751
  store %"class.xercesc_2_7::DocumentImpl"* %8, %"class.xercesc_2_7::DocumentImpl"** %impl, align 8, !dbg !2752
  br label %if.end, !dbg !2753

lpad:                                             ; preds = %entry
  %9 = landingpad { i8*, i32 }
          cleanup, !dbg !2754
  %10 = extractvalue { i8*, i32 } %9, 0, !dbg !2754
  store i8* %10, i8** %exn.slot, align 8, !dbg !2754
  %11 = extractvalue { i8*, i32 } %9, 1, !dbg !2754
  store i32 %11, i32* %ehselector.slot, align 4, !dbg !2754
  br label %ehcleanup, !dbg !2754

lpad1:                                            ; preds = %invoke.cont
  %12 = landingpad { i8*, i32 }
          cleanup, !dbg !2754
  %13 = extractvalue { i8*, i32 } %12, 0, !dbg !2754
  store i8* %13, i8** %exn.slot, align 8, !dbg !2754
  %14 = extractvalue { i8*, i32 } %12, 1, !dbg !2754
  store i32 %14, i32* %ehselector.slot, align 4, !dbg !2754
  call void @_ZN11xercesc_2_78DOM_NodeD1Ev(%"class.xercesc_2_7::DOM_Node"* %agg.tmp) #8, !dbg !2733
  br label %ehcleanup, !dbg !2733

ehcleanup:                                        ; preds = %lpad1, %lpad
  %cleanup.is_active = load i1, i1* %cleanup.isactive, align 1, !dbg !2733
  br i1 %cleanup.is_active, label %cleanup.action, label %cleanup.done, !dbg !2733

cleanup.action:                                   ; preds = %ehcleanup
  call void @_ZN11xercesc_2_77XMemorydlEPvPNS_13MemoryManagerE(i8* %call, %"class.xercesc_2_7::MemoryManager"* %0) #8, !dbg !2733
  br label %cleanup.done, !dbg !2733

cleanup.done:                                     ; preds = %cleanup.action, %ehcleanup
  br label %eh.resume, !dbg !2733

lpad3:                                            ; preds = %invoke.cont11, %if.then7, %invoke.cont2
  %15 = landingpad { i8*, i32 }
          cleanup, !dbg !2755
  %16 = extractvalue { i8*, i32 } %15, 0, !dbg !2755
  store i8* %16, i8** %exn.slot, align 8, !dbg !2755
  %17 = extractvalue { i8*, i32 } %15, 1, !dbg !2755
  store i32 %17, i32* %ehselector.slot, align 4, !dbg !2755
  br label %ehcleanup17, !dbg !2755

if.else:                                          ; preds = %invoke.cont4
  %fImpl6 = getelementptr inbounds %"class.xercesc_2_7::DOM_Node", %"class.xercesc_2_7::DOM_Node"* %root, i32 0, i32 0, !dbg !2756
  %18 = load %"class.xercesc_2_7::NodeImpl"*, %"class.xercesc_2_7::NodeImpl"** %fImpl6, align 8, !dbg !2756
  %19 = bitcast %"class.xercesc_2_7::NodeImpl"* %18 to %"class.xercesc_2_7::DocumentImpl"*, !dbg !2757
  store %"class.xercesc_2_7::DocumentImpl"* %19, %"class.xercesc_2_7::DocumentImpl"** %impl, align 8, !dbg !2758
  br label %if.end

if.end:                                           ; preds = %if.else, %if.then
  %20 = load %"class.xercesc_2_7::DocumentImpl"*, %"class.xercesc_2_7::DocumentImpl"** %impl, align 8, !dbg !2759
  %treeWalkers = getelementptr inbounds %"class.xercesc_2_7::DocumentImpl", %"class.xercesc_2_7::DocumentImpl"* %20, i32 0, i32 6, !dbg !2761
  %21 = load %"class.xercesc_2_7::RefVectorOf.0"*, %"class.xercesc_2_7::RefVectorOf.0"** %treeWalkers, align 8, !dbg !2761
  %cmp = icmp eq %"class.xercesc_2_7::RefVectorOf.0"* %21, null, !dbg !2762
  br i1 %cmp, label %if.then7, label %if.end16, !dbg !2763

if.then7:                                         ; preds = %if.end
  %22 = load %"class.xercesc_2_7::MemoryManager"*, %"class.xercesc_2_7::MemoryManager"** %manager.addr, align 8, !dbg !2764
  %call9 = invoke i8* @_ZN11xercesc_2_77XMemorynwEmPNS_13MemoryManagerE(i64 40, %"class.xercesc_2_7::MemoryManager"* %22)
          to label %invoke.cont8 unwind label %lpad3, !dbg !2766

invoke.cont8:                                     ; preds = %if.then7
  %23 = bitcast i8* %call9 to %"class.xercesc_2_7::RefVectorOf.0"*, !dbg !2766
  %24 = load %"class.xercesc_2_7::MemoryManager"*, %"class.xercesc_2_7::MemoryManager"** %manager.addr, align 8, !dbg !2767
  invoke void @_ZN11xercesc_2_711RefVectorOfINS_14TreeWalkerImplEEC2EjbPNS_13MemoryManagerE(%"class.xercesc_2_7::RefVectorOf.0"* %23, i32 1, i1 zeroext false, %"class.xercesc_2_7::MemoryManager"* %24)
          to label %invoke.cont11 unwind label %lpad10, !dbg !2768

invoke.cont11:                                    ; preds = %invoke.cont8
  %25 = load %"class.xercesc_2_7::DocumentImpl"*, %"class.xercesc_2_7::DocumentImpl"** %impl, align 8, !dbg !2769
  %treeWalkers13 = getelementptr inbounds %"class.xercesc_2_7::DocumentImpl", %"class.xercesc_2_7::DocumentImpl"* %25, i32 0, i32 6, !dbg !2770
  store %"class.xercesc_2_7::RefVectorOf.0"* %23, %"class.xercesc_2_7::RefVectorOf.0"** %treeWalkers13, align 8, !dbg !2771
  %26 = load %"class.xercesc_2_7::DocumentImpl"*, %"class.xercesc_2_7::DocumentImpl"** %impl, align 8, !dbg !2772
  %treeWalkers14 = getelementptr inbounds %"class.xercesc_2_7::DocumentImpl", %"class.xercesc_2_7::DocumentImpl"* %26, i32 0, i32 6, !dbg !2773
  %27 = load %"class.xercesc_2_7::RefVectorOf.0"*, %"class.xercesc_2_7::RefVectorOf.0"** %treeWalkers14, align 8, !dbg !2773
  %28 = bitcast %"class.xercesc_2_7::RefVectorOf.0"* %27 to %"class.xercesc_2_7::BaseRefVectorOf.1"*, !dbg !2774
  %29 = load %"class.xercesc_2_7::TreeWalkerImpl"*, %"class.xercesc_2_7::TreeWalkerImpl"** %twi, align 8, !dbg !2775
  invoke void @_ZN11xercesc_2_715BaseRefVectorOfINS_14TreeWalkerImplEE10addElementEPS1_(%"class.xercesc_2_7::BaseRefVectorOf.1"* %28, %"class.xercesc_2_7::TreeWalkerImpl"* %29)
          to label %invoke.cont15 unwind label %lpad3, !dbg !2774

invoke.cont15:                                    ; preds = %invoke.cont11
  br label %if.end16, !dbg !2776

lpad10:                                           ; preds = %invoke.cont8
  %30 = landingpad { i8*, i32 }
          cleanup, !dbg !2777
  %31 = extractvalue { i8*, i32 } %30, 0, !dbg !2777
  store i8* %31, i8** %exn.slot, align 8, !dbg !2777
  %32 = extractvalue { i8*, i32 } %30, 1, !dbg !2777
  store i32 %32, i32* %ehselector.slot, align 4, !dbg !2777
  call void @_ZN11xercesc_2_77XMemorydlEPvPNS_13MemoryManagerE(i8* %call9, %"class.xercesc_2_7::MemoryManager"* %22) #8, !dbg !2766
  br label %ehcleanup17, !dbg !2766

if.end16:                                         ; preds = %invoke.cont15, %if.end
  %33 = load %"class.xercesc_2_7::TreeWalkerImpl"*, %"class.xercesc_2_7::TreeWalkerImpl"** %twi, align 8, !dbg !2778
  call void @_ZN11xercesc_2_712DOM_DocumentD1Ev(%"class.xercesc_2_7::DOM_Document"* %doc) #8, !dbg !2754
  ret %"class.xercesc_2_7::TreeWalkerImpl"* %33, !dbg !2754

ehcleanup17:                                      ; preds = %lpad10, %lpad3
  call void @_ZN11xercesc_2_712DOM_DocumentD1Ev(%"class.xercesc_2_7::DOM_Document"* %doc) #8, !dbg !2754
  br label %eh.resume, !dbg !2754

eh.resume:                                        ; preds = %ehcleanup17, %cleanup.done
  %exn = load i8*, i8** %exn.slot, align 8, !dbg !2733
  %sel = load i32, i32* %ehselector.slot, align 4, !dbg !2733
  %lpad.val = insertvalue { i8*, i32 } undef, i8* %exn, 0, !dbg !2733
  %lpad.val18 = insertvalue { i8*, i32 } %lpad.val, i32 %sel, 1, !dbg !2733
  resume { i8*, i32 } %lpad.val18, !dbg !2733
}

declare dso_local void @_ZN11xercesc_2_714TreeWalkerImplC1ENS_8DOM_NodeEmPNS_14DOM_NodeFilterEb(%"class.xercesc_2_7::TreeWalkerImpl"*, %"class.xercesc_2_7::DOM_Node"*, i64, %"class.xercesc_2_7::DOM_NodeFilter"*, i1 zeroext) unnamed_addr #4

; Function Attrs: noinline uwtable
define linkonce_odr dso_local void @_ZN11xercesc_2_711RefVectorOfINS_14TreeWalkerImplEEC2EjbPNS_13MemoryManagerE(%"class.xercesc_2_7::RefVectorOf.0"* %this, i32 %maxElems, i1 zeroext %adoptElems, %"class.xercesc_2_7::MemoryManager"* %manager) unnamed_addr #3 comdat align 2 !dbg !2779 {
entry:
  %this.addr = alloca %"class.xercesc_2_7::RefVectorOf.0"*, align 8
  %maxElems.addr = alloca i32, align 4
  %adoptElems.addr = alloca i8, align 1
  %manager.addr = alloca %"class.xercesc_2_7::MemoryManager"*, align 8
  store %"class.xercesc_2_7::RefVectorOf.0"* %this, %"class.xercesc_2_7::RefVectorOf.0"** %this.addr, align 8
  call void @llvm.dbg.declare(metadata %"class.xercesc_2_7::RefVectorOf.0"** %this.addr, metadata !2780, metadata !DIExpression()), !dbg !2782
  store i32 %maxElems, i32* %maxElems.addr, align 4
  call void @llvm.dbg.declare(metadata i32* %maxElems.addr, metadata !2783, metadata !DIExpression()), !dbg !2784
  %frombool = zext i1 %adoptElems to i8
  store i8 %frombool, i8* %adoptElems.addr, align 1
  call void @llvm.dbg.declare(metadata i8* %adoptElems.addr, metadata !2785, metadata !DIExpression()), !dbg !2786
  store %"class.xercesc_2_7::MemoryManager"* %manager, %"class.xercesc_2_7::MemoryManager"** %manager.addr, align 8
  call void @llvm.dbg.declare(metadata %"class.xercesc_2_7::MemoryManager"** %manager.addr, metadata !2787, metadata !DIExpression()), !dbg !2788
  %this1 = load %"class.xercesc_2_7::RefVectorOf.0"*, %"class.xercesc_2_7::RefVectorOf.0"** %this.addr, align 8
  %0 = bitcast %"class.xercesc_2_7::RefVectorOf.0"* %this1 to %"class.xercesc_2_7::BaseRefVectorOf.1"*, !dbg !2789
  %1 = load i32, i32* %maxElems.addr, align 4, !dbg !2790
  %2 = load i8, i8* %adoptElems.addr, align 1, !dbg !2791
  %tobool = trunc i8 %2 to i1, !dbg !2791
  %3 = load %"class.xercesc_2_7::MemoryManager"*, %"class.xercesc_2_7::MemoryManager"** %manager.addr, align 8, !dbg !2792
  call void @_ZN11xercesc_2_715BaseRefVectorOfINS_14TreeWalkerImplEEC2EjbPNS_13MemoryManagerE(%"class.xercesc_2_7::BaseRefVectorOf.1"* %0, i32 %1, i1 zeroext %tobool, %"class.xercesc_2_7::MemoryManager"* %3), !dbg !2793
  %4 = bitcast %"class.xercesc_2_7::RefVectorOf.0"* %this1 to i32 (...)***, !dbg !2789
  store i32 (...)** bitcast (i8** getelementptr inbounds ({ [9 x i8*] }, { [9 x i8*] }* @_ZTVN11xercesc_2_711RefVectorOfINS_14TreeWalkerImplEEE, i32 0, inrange i32 0, i32 2) to i32 (...)**), i32 (...)*** %4, align 8, !dbg !2789
  ret void, !dbg !2794
}

; Function Attrs: noinline uwtable
define linkonce_odr dso_local void @_ZN11xercesc_2_715BaseRefVectorOfINS_14TreeWalkerImplEE10addElementEPS1_(%"class.xercesc_2_7::BaseRefVectorOf.1"* %this, %"class.xercesc_2_7::TreeWalkerImpl"* %toAdd) #3 comdat align 2 !dbg !2795 {
entry:
  %this.addr = alloca %"class.xercesc_2_7::BaseRefVectorOf.1"*, align 8
  %toAdd.addr = alloca %"class.xercesc_2_7::TreeWalkerImpl"*, align 8
  store %"class.xercesc_2_7::BaseRefVectorOf.1"* %this, %"class.xercesc_2_7::BaseRefVectorOf.1"** %this.addr, align 8
  call void @llvm.dbg.declare(metadata %"class.xercesc_2_7::BaseRefVectorOf.1"** %this.addr, metadata !2796, metadata !DIExpression()), !dbg !2798
  store %"class.xercesc_2_7::TreeWalkerImpl"* %toAdd, %"class.xercesc_2_7::TreeWalkerImpl"** %toAdd.addr, align 8
  call void @llvm.dbg.declare(metadata %"class.xercesc_2_7::TreeWalkerImpl"** %toAdd.addr, metadata !2799, metadata !DIExpression()), !dbg !2800
  %this1 = load %"class.xercesc_2_7::BaseRefVectorOf.1"*, %"class.xercesc_2_7::BaseRefVectorOf.1"** %this.addr, align 8
  call void @_ZN11xercesc_2_715BaseRefVectorOfINS_14TreeWalkerImplEE19ensureExtraCapacityEj(%"class.xercesc_2_7::BaseRefVectorOf.1"* %this1, i32 1), !dbg !2801
  %0 = load %"class.xercesc_2_7::TreeWalkerImpl"*, %"class.xercesc_2_7::TreeWalkerImpl"** %toAdd.addr, align 8, !dbg !2802
  %fElemList = getelementptr inbounds %"class.xercesc_2_7::BaseRefVectorOf.1", %"class.xercesc_2_7::BaseRefVectorOf.1"* %this1, i32 0, i32 4, !dbg !2803
  %1 = load %"class.xercesc_2_7::TreeWalkerImpl"**, %"class.xercesc_2_7::TreeWalkerImpl"*** %fElemList, align 8, !dbg !2803
  %fCurCount = getelementptr inbounds %"class.xercesc_2_7::BaseRefVectorOf.1", %"class.xercesc_2_7::BaseRefVectorOf.1"* %this1, i32 0, i32 2, !dbg !2804
  %2 = load i32, i32* %fCurCount, align 4, !dbg !2804
  %idxprom = zext i32 %2 to i64, !dbg !2803
  %arrayidx = getelementptr inbounds %"class.xercesc_2_7::TreeWalkerImpl"*, %"class.xercesc_2_7::TreeWalkerImpl"** %1, i64 %idxprom, !dbg !2803
  store %"class.xercesc_2_7::TreeWalkerImpl"* %0, %"class.xercesc_2_7::TreeWalkerImpl"** %arrayidx, align 8, !dbg !2805
  %fCurCount2 = getelementptr inbounds %"class.xercesc_2_7::BaseRefVectorOf.1", %"class.xercesc_2_7::BaseRefVectorOf.1"* %this1, i32 0, i32 2, !dbg !2806
  %3 = load i32, i32* %fCurCount2, align 4, !dbg !2807
  %inc = add i32 %3, 1, !dbg !2807
  store i32 %inc, i32* %fCurCount2, align 4, !dbg !2807
  ret void, !dbg !2808
}

; Function Attrs: noinline nounwind uwtable
define dso_local %"class.xercesc_2_7::DocumentTypeImpl"* @_ZN11xercesc_2_712DocumentImpl10getDoctypeEv(%"class.xercesc_2_7::DocumentImpl"* %this) unnamed_addr #1 align 2 !dbg !2809 {
entry:
  %this.addr = alloca %"class.xercesc_2_7::DocumentImpl"*, align 8
  store %"class.xercesc_2_7::DocumentImpl"* %this, %"class.xercesc_2_7::DocumentImpl"** %this.addr, align 8
  call void @llvm.dbg.declare(metadata %"class.xercesc_2_7::DocumentImpl"** %this.addr, metadata !2810, metadata !DIExpression()), !dbg !2811
  %this1 = load %"class.xercesc_2_7::DocumentImpl"*, %"class.xercesc_2_7::DocumentImpl"** %this.addr, align 8
  %docType = getelementptr inbounds %"class.xercesc_2_7::DocumentImpl", %"class.xercesc_2_7::DocumentImpl"* %this1, i32 0, i32 1, !dbg !2812
  %0 = load %"class.xercesc_2_7::DocumentTypeImpl"*, %"class.xercesc_2_7::DocumentTypeImpl"** %docType, align 8, !dbg !2812
  ret %"class.xercesc_2_7::DocumentTypeImpl"* %0, !dbg !2813
}

; Function Attrs: noinline nounwind uwtable
define dso_local %"class.xercesc_2_7::ElementImpl"* @_ZN11xercesc_2_712DocumentImpl18getDocumentElementEv(%"class.xercesc_2_7::DocumentImpl"* %this) unnamed_addr #1 align 2 !dbg !2814 {
entry:
  %this.addr = alloca %"class.xercesc_2_7::DocumentImpl"*, align 8
  store %"class.xercesc_2_7::DocumentImpl"* %this, %"class.xercesc_2_7::DocumentImpl"** %this.addr, align 8
  call void @llvm.dbg.declare(metadata %"class.xercesc_2_7::DocumentImpl"** %this.addr, metadata !2815, metadata !DIExpression()), !dbg !2816
  %this1 = load %"class.xercesc_2_7::DocumentImpl"*, %"class.xercesc_2_7::DocumentImpl"** %this.addr, align 8
  %docElement = getelementptr inbounds %"class.xercesc_2_7::DocumentImpl", %"class.xercesc_2_7::DocumentImpl"* %this1, i32 0, i32 2, !dbg !2817
  %0 = load %"class.xercesc_2_7::ElementImpl"*, %"class.xercesc_2_7::ElementImpl"** %docElement, align 8, !dbg !2817
  ret %"class.xercesc_2_7::ElementImpl"* %0, !dbg !2818
}

; Function Attrs: noinline uwtable
define dso_local %"class.xercesc_2_7::DeepNodeListImpl"* @_ZN11xercesc_2_712DocumentImpl20getElementsByTagNameERKNS_9DOMStringE(%"class.xercesc_2_7::DocumentImpl"* %this, %"class.xercesc_2_7::DOMString"* dereferenceable(8) %tagname) unnamed_addr #3 align 2 personality i8* bitcast (i32 (...)* @__gxx_personality_v0 to i8*) !dbg !2819 {
entry:
  %this.addr = alloca %"class.xercesc_2_7::DocumentImpl"*, align 8
  %tagname.addr = alloca %"class.xercesc_2_7::DOMString"*, align 8
  %exn.slot = alloca i8*
  %ehselector.slot = alloca i32
  store %"class.xercesc_2_7::DocumentImpl"* %this, %"class.xercesc_2_7::DocumentImpl"** %this.addr, align 8
  call void @llvm.dbg.declare(metadata %"class.xercesc_2_7::DocumentImpl"** %this.addr, metadata !2820, metadata !DIExpression()), !dbg !2821
  store %"class.xercesc_2_7::DOMString"* %tagname, %"class.xercesc_2_7::DOMString"** %tagname.addr, align 8
  call void @llvm.dbg.declare(metadata %"class.xercesc_2_7::DOMString"** %tagname.addr, metadata !2822, metadata !DIExpression()), !dbg !2823
  %this1 = load %"class.xercesc_2_7::DocumentImpl"*, %"class.xercesc_2_7::DocumentImpl"** %this.addr, align 8
  %fMemoryManager = getelementptr inbounds %"class.xercesc_2_7::DocumentImpl", %"class.xercesc_2_7::DocumentImpl"* %this1, i32 0, i32 11, !dbg !2824
  %0 = load %"class.xercesc_2_7::MemoryManager"*, %"class.xercesc_2_7::MemoryManager"** %fMemoryManager, align 8, !dbg !2824
  %call = call i8* @_ZN11xercesc_2_77XMemorynwEmPNS_13MemoryManagerE(i64 64, %"class.xercesc_2_7::MemoryManager"* %0), !dbg !2825
  %1 = bitcast i8* %call to %"class.xercesc_2_7::DeepNodeListImpl"*, !dbg !2825
  %2 = bitcast %"class.xercesc_2_7::DocumentImpl"* %this1 to %"class.xercesc_2_7::NodeImpl"*, !dbg !2826
  %3 = load %"class.xercesc_2_7::DOMString"*, %"class.xercesc_2_7::DOMString"** %tagname.addr, align 8, !dbg !2827
  invoke void @_ZN11xercesc_2_716DeepNodeListImplC1EPNS_8NodeImplERKNS_9DOMStringE(%"class.xercesc_2_7::DeepNodeListImpl"* %1, %"class.xercesc_2_7::NodeImpl"* %2, %"class.xercesc_2_7::DOMString"* dereferenceable(8) %3)
          to label %invoke.cont unwind label %lpad, !dbg !2828

invoke.cont:                                      ; preds = %entry
  ret %"class.xercesc_2_7::DeepNodeListImpl"* %1, !dbg !2829

lpad:                                             ; preds = %entry
  %4 = landingpad { i8*, i32 }
          cleanup, !dbg !2830
  %5 = extractvalue { i8*, i32 } %4, 0, !dbg !2830
  store i8* %5, i8** %exn.slot, align 8, !dbg !2830
  %6 = extractvalue { i8*, i32 } %4, 1, !dbg !2830
  store i32 %6, i32* %ehselector.slot, align 4, !dbg !2830
  call void @_ZN11xercesc_2_77XMemorydlEPvPNS_13MemoryManagerE(i8* %call, %"class.xercesc_2_7::MemoryManager"* %0) #8, !dbg !2825
  br label %eh.resume, !dbg !2825

eh.resume:                                        ; preds = %lpad
  %exn = load i8*, i8** %exn.slot, align 8, !dbg !2825
  %sel = load i32, i32* %ehselector.slot, align 4, !dbg !2825
  %lpad.val = insertvalue { i8*, i32 } undef, i8* %exn, 0, !dbg !2825
  %lpad.val2 = insertvalue { i8*, i32 } %lpad.val, i32 %sel, 1, !dbg !2825
  resume { i8*, i32 } %lpad.val2, !dbg !2825
}

declare dso_local void @_ZN11xercesc_2_716DeepNodeListImplC1EPNS_8NodeImplERKNS_9DOMStringE(%"class.xercesc_2_7::DeepNodeListImpl"*, %"class.xercesc_2_7::NodeImpl"*, %"class.xercesc_2_7::DOMString"* dereferenceable(8)) unnamed_addr #4

; Function Attrs: noinline uwtable
define dso_local %"class.xercesc_2_7::NodeImpl"* @_ZN11xercesc_2_712DocumentImpl12insertBeforeEPNS_8NodeImplES2_(%"class.xercesc_2_7::DocumentImpl"* %this, %"class.xercesc_2_7::NodeImpl"* %newChild, %"class.xercesc_2_7::NodeImpl"* %refChild) unnamed_addr #3 align 2 personality i8* bitcast (i32 (...)* @__gxx_personality_v0 to i8*) !dbg !2831 {
entry:
  %this.addr = alloca %"class.xercesc_2_7::DocumentImpl"*, align 8
  %newChild.addr = alloca %"class.xercesc_2_7::NodeImpl"*, align 8
  %refChild.addr = alloca %"class.xercesc_2_7::NodeImpl"*, align 8
  %ref.tmp = alloca %"class.xercesc_2_7::DOMString", align 8
  %exn.slot = alloca i8*
  %ehselector.slot = alloca i32
  %cleanup.isactive = alloca i1, align 1
  store %"class.xercesc_2_7::DocumentImpl"* %this, %"class.xercesc_2_7::DocumentImpl"** %this.addr, align 8
  call void @llvm.dbg.declare(metadata %"class.xercesc_2_7::DocumentImpl"** %this.addr, metadata !2832, metadata !DIExpression()), !dbg !2833
  store %"class.xercesc_2_7::NodeImpl"* %newChild, %"class.xercesc_2_7::NodeImpl"** %newChild.addr, align 8
  call void @llvm.dbg.declare(metadata %"class.xercesc_2_7::NodeImpl"** %newChild.addr, metadata !2834, metadata !DIExpression()), !dbg !2835
  store %"class.xercesc_2_7::NodeImpl"* %refChild, %"class.xercesc_2_7::NodeImpl"** %refChild.addr, align 8
  call void @llvm.dbg.declare(metadata %"class.xercesc_2_7::NodeImpl"** %refChild.addr, metadata !2836, metadata !DIExpression()), !dbg !2837
  %this1 = load %"class.xercesc_2_7::DocumentImpl"*, %"class.xercesc_2_7::DocumentImpl"** %this.addr, align 8
  %errorChecking = getelementptr inbounds %"class.xercesc_2_7::DocumentImpl", %"class.xercesc_2_7::DocumentImpl"* %this1, i32 0, i32 10, !dbg !2838
  %0 = load i8, i8* %errorChecking, align 4, !dbg !2838
  %tobool = trunc i8 %0 to i1, !dbg !2838
  br i1 %tobool, label %land.lhs.true, label %if.end, !dbg !2840

land.lhs.true:                                    ; preds = %entry
  %1 = load %"class.xercesc_2_7::NodeImpl"*, %"class.xercesc_2_7::NodeImpl"** %newChild.addr, align 8, !dbg !2841
  %2 = bitcast %"class.xercesc_2_7::NodeImpl"* %1 to i1 (%"class.xercesc_2_7::NodeImpl"*)***, !dbg !2842
  %vtable = load i1 (%"class.xercesc_2_7::NodeImpl"*)**, i1 (%"class.xercesc_2_7::NodeImpl"*)*** %2, align 8, !dbg !2842
  %vfn = getelementptr inbounds i1 (%"class.xercesc_2_7::NodeImpl"*)*, i1 (%"class.xercesc_2_7::NodeImpl"*)** %vtable, i64 11, !dbg !2842
  %3 = load i1 (%"class.xercesc_2_7::NodeImpl"*)*, i1 (%"class.xercesc_2_7::NodeImpl"*)** %vfn, align 8, !dbg !2842
  %call = call zeroext i1 %3(%"class.xercesc_2_7::NodeImpl"* %1), !dbg !2842
  br i1 %call, label %land.lhs.true2, label %lor.lhs.false, !dbg !2843

land.lhs.true2:                                   ; preds = %land.lhs.true
  %docElement = getelementptr inbounds %"class.xercesc_2_7::DocumentImpl", %"class.xercesc_2_7::DocumentImpl"* %this1, i32 0, i32 2, !dbg !2844
  %4 = load %"class.xercesc_2_7::ElementImpl"*, %"class.xercesc_2_7::ElementImpl"** %docElement, align 8, !dbg !2844
  %cmp = icmp ne %"class.xercesc_2_7::ElementImpl"* %4, null, !dbg !2845
  br i1 %cmp, label %if.then, label %lor.lhs.false, !dbg !2846

lor.lhs.false:                                    ; preds = %land.lhs.true2, %land.lhs.true
  %5 = load %"class.xercesc_2_7::NodeImpl"*, %"class.xercesc_2_7::NodeImpl"** %newChild.addr, align 8, !dbg !2847
  %6 = bitcast %"class.xercesc_2_7::NodeImpl"* %5 to i1 (%"class.xercesc_2_7::NodeImpl"*)***, !dbg !2848
  %vtable3 = load i1 (%"class.xercesc_2_7::NodeImpl"*)**, i1 (%"class.xercesc_2_7::NodeImpl"*)*** %6, align 8, !dbg !2848
  %vfn4 = getelementptr inbounds i1 (%"class.xercesc_2_7::NodeImpl"*)*, i1 (%"class.xercesc_2_7::NodeImpl"*)** %vtable3, i64 10, !dbg !2848
  %7 = load i1 (%"class.xercesc_2_7::NodeImpl"*)*, i1 (%"class.xercesc_2_7::NodeImpl"*)** %vfn4, align 8, !dbg !2848
  %call5 = call zeroext i1 %7(%"class.xercesc_2_7::NodeImpl"* %5), !dbg !2848
  br i1 %call5, label %land.lhs.true6, label %if.end, !dbg !2849

land.lhs.true6:                                   ; preds = %lor.lhs.false
  %docType = getelementptr inbounds %"class.xercesc_2_7::DocumentImpl", %"class.xercesc_2_7::DocumentImpl"* %this1, i32 0, i32 1, !dbg !2850
  %8 = load %"class.xercesc_2_7::DocumentTypeImpl"*, %"class.xercesc_2_7::DocumentTypeImpl"** %docType, align 8, !dbg !2850
  %cmp7 = icmp ne %"class.xercesc_2_7::DocumentTypeImpl"* %8, null, !dbg !2851
  br i1 %cmp7, label %if.then, label %if.end, !dbg !2852

if.then:                                          ; preds = %land.lhs.true6, %land.lhs.true2
  %exception = call i8* @__cxa_allocate_exception(i64 24) #8, !dbg !2853
  store i1 true, i1* %cleanup.isactive, align 1
  %9 = bitcast i8* %exception to %"class.xercesc_2_7::DOM_DOMException"*, !dbg !2853
  invoke void @_ZN11xercesc_2_79DOMStringC1Ei(%"class.xercesc_2_7::DOMString"* %ref.tmp, i32 0)
          to label %invoke.cont unwind label %lpad, !dbg !2855

invoke.cont:                                      ; preds = %if.then
  invoke void @_ZN11xercesc_2_716DOM_DOMExceptionC1EsRKNS_9DOMStringE(%"class.xercesc_2_7::DOM_DOMException"* %9, i16 signext 3, %"class.xercesc_2_7::DOMString"* dereferenceable(8) %ref.tmp)
          to label %invoke.cont9 unwind label %lpad8, !dbg !2856

invoke.cont9:                                     ; preds = %invoke.cont
  store i1 false, i1* %cleanup.isactive, align 1, !dbg !2853
  invoke void @__cxa_throw(i8* %exception, i8* bitcast (i8** @_ZTIN11xercesc_2_716DOM_DOMExceptionE to i8*), i8* bitcast (void (%"class.xercesc_2_7::DOM_DOMException"*)* @_ZN11xercesc_2_716DOM_DOMExceptionD1Ev to i8*)) #10
          to label %unreachable unwind label %lpad8, !dbg !2853

lpad:                                             ; preds = %if.then
  %10 = landingpad { i8*, i32 }
          cleanup, !dbg !2857
  %11 = extractvalue { i8*, i32 } %10, 0, !dbg !2857
  store i8* %11, i8** %exn.slot, align 8, !dbg !2857
  %12 = extractvalue { i8*, i32 } %10, 1, !dbg !2857
  store i32 %12, i32* %ehselector.slot, align 4, !dbg !2857
  br label %ehcleanup, !dbg !2857

lpad8:                                            ; preds = %invoke.cont9, %invoke.cont
  %13 = landingpad { i8*, i32 }
          cleanup, !dbg !2857
  %14 = extractvalue { i8*, i32 } %13, 0, !dbg !2857
  store i8* %14, i8** %exn.slot, align 8, !dbg !2857
  %15 = extractvalue { i8*, i32 } %13, 1, !dbg !2857
  store i32 %15, i32* %ehselector.slot, align 4, !dbg !2857
  call void @_ZN11xercesc_2_79DOMStringD1Ev(%"class.xercesc_2_7::DOMString"* %ref.tmp) #8, !dbg !2853
  br label %ehcleanup, !dbg !2853

ehcleanup:                                        ; preds = %lpad8, %lpad
  %cleanup.is_active = load i1, i1* %cleanup.isactive, align 1, !dbg !2853
  br i1 %cleanup.is_active, label %cleanup.action, label %cleanup.done, !dbg !2853

cleanup.action:                                   ; preds = %ehcleanup
  call void @__cxa_free_exception(i8* %exception) #8, !dbg !2853
  br label %cleanup.done, !dbg !2853

cleanup.done:                                     ; preds = %cleanup.action, %ehcleanup
  br label %eh.resume, !dbg !2853

if.end:                                           ; preds = %land.lhs.true6, %lor.lhs.false, %entry
  %16 = bitcast %"class.xercesc_2_7::DocumentImpl"* %this1 to %"class.xercesc_2_7::ParentNode"*, !dbg !2858
  %17 = load %"class.xercesc_2_7::NodeImpl"*, %"class.xercesc_2_7::NodeImpl"** %newChild.addr, align 8, !dbg !2859
  %18 = load %"class.xercesc_2_7::NodeImpl"*, %"class.xercesc_2_7::NodeImpl"** %refChild.addr, align 8, !dbg !2860
  %call10 = call %"class.xercesc_2_7::NodeImpl"* @_ZN11xercesc_2_710ParentNode12insertBeforeEPNS_8NodeImplES2_(%"class.xercesc_2_7::ParentNode"* %16, %"class.xercesc_2_7::NodeImpl"* %17, %"class.xercesc_2_7::NodeImpl"* %18), !dbg !2858
  %19 = load %"class.xercesc_2_7::NodeImpl"*, %"class.xercesc_2_7::NodeImpl"** %newChild.addr, align 8, !dbg !2861
  %20 = bitcast %"class.xercesc_2_7::NodeImpl"* %19 to i1 (%"class.xercesc_2_7::NodeImpl"*)***, !dbg !2863
  %vtable11 = load i1 (%"class.xercesc_2_7::NodeImpl"*)**, i1 (%"class.xercesc_2_7::NodeImpl"*)*** %20, align 8, !dbg !2863
  %vfn12 = getelementptr inbounds i1 (%"class.xercesc_2_7::NodeImpl"*)*, i1 (%"class.xercesc_2_7::NodeImpl"*)** %vtable11, i64 11, !dbg !2863
  %21 = load i1 (%"class.xercesc_2_7::NodeImpl"*)*, i1 (%"class.xercesc_2_7::NodeImpl"*)** %vfn12, align 8, !dbg !2863
  %call13 = call zeroext i1 %21(%"class.xercesc_2_7::NodeImpl"* %19), !dbg !2863
  br i1 %call13, label %if.then14, label %if.else, !dbg !2864

if.then14:                                        ; preds = %if.end
  %22 = load %"class.xercesc_2_7::NodeImpl"*, %"class.xercesc_2_7::NodeImpl"** %newChild.addr, align 8, !dbg !2865
  %23 = bitcast %"class.xercesc_2_7::NodeImpl"* %22 to %"class.xercesc_2_7::ElementImpl"*, !dbg !2866
  %docElement15 = getelementptr inbounds %"class.xercesc_2_7::DocumentImpl", %"class.xercesc_2_7::DocumentImpl"* %this1, i32 0, i32 2, !dbg !2867
  store %"class.xercesc_2_7::ElementImpl"* %23, %"class.xercesc_2_7::ElementImpl"** %docElement15, align 8, !dbg !2868
  br label %if.end22, !dbg !2867

if.else:                                          ; preds = %if.end
  %24 = load %"class.xercesc_2_7::NodeImpl"*, %"class.xercesc_2_7::NodeImpl"** %newChild.addr, align 8, !dbg !2869
  %25 = bitcast %"class.xercesc_2_7::NodeImpl"* %24 to i1 (%"class.xercesc_2_7::NodeImpl"*)***, !dbg !2871
  %vtable16 = load i1 (%"class.xercesc_2_7::NodeImpl"*)**, i1 (%"class.xercesc_2_7::NodeImpl"*)*** %25, align 8, !dbg !2871
  %vfn17 = getelementptr inbounds i1 (%"class.xercesc_2_7::NodeImpl"*)*, i1 (%"class.xercesc_2_7::NodeImpl"*)** %vtable16, i64 10, !dbg !2871
  %26 = load i1 (%"class.xercesc_2_7::NodeImpl"*)*, i1 (%"class.xercesc_2_7::NodeImpl"*)** %vfn17, align 8, !dbg !2871
  %call18 = call zeroext i1 %26(%"class.xercesc_2_7::NodeImpl"* %24), !dbg !2871
  br i1 %call18, label %if.then19, label %if.end21, !dbg !2872

if.then19:                                        ; preds = %if.else
  %27 = load %"class.xercesc_2_7::NodeImpl"*, %"class.xercesc_2_7::NodeImpl"** %newChild.addr, align 8, !dbg !2873
  %28 = bitcast %"class.xercesc_2_7::NodeImpl"* %27 to %"class.xercesc_2_7::DocumentTypeImpl"*, !dbg !2874
  %docType20 = getelementptr inbounds %"class.xercesc_2_7::DocumentImpl", %"class.xercesc_2_7::DocumentImpl"* %this1, i32 0, i32 1, !dbg !2875
  store %"class.xercesc_2_7::DocumentTypeImpl"* %28, %"class.xercesc_2_7::DocumentTypeImpl"** %docType20, align 8, !dbg !2876
  br label %if.end21, !dbg !2875

if.end21:                                         ; preds = %if.then19, %if.else
  br label %if.end22

if.end22:                                         ; preds = %if.end21, %if.then14
  %29 = load %"class.xercesc_2_7::NodeImpl"*, %"class.xercesc_2_7::NodeImpl"** %newChild.addr, align 8, !dbg !2877
  ret %"class.xercesc_2_7::NodeImpl"* %29, !dbg !2878

eh.resume:                                        ; preds = %cleanup.done
  %exn = load i8*, i8** %exn.slot, align 8, !dbg !2853
  %sel = load i32, i32* %ehselector.slot, align 4, !dbg !2853
  %lpad.val = insertvalue { i8*, i32 } undef, i8* %exn, 0, !dbg !2853
  %lpad.val23 = insertvalue { i8*, i32 } %lpad.val, i32 %sel, 1, !dbg !2853
  resume { i8*, i32 } %lpad.val23, !dbg !2853

unreachable:                                      ; preds = %invoke.cont9
  unreachable
}

