; ModuleID = 'XalanEXSLTMath.cpp'
source_filename = "XalanEXSLTMath.cpp"
target datalayout = "e-m:e-p270:32:32-p271:32:32-p272:64:64-i64:64-f80:128-n8:16:32:64-S128"
target triple = "x86_64-unknown-linux-gnu"

%"class.xalanc_1_10::XalanEXSLTFunctionAbs" = type { %"class.xalanc_1_10::Function" }
%"class.xalanc_1_10::Function" = type { i32 (...)** }
%"class.xalanc_1_10::XalanEXSLTFunctionAcos" = type { %"class.xalanc_1_10::Function" }
%"class.xalanc_1_10::XalanEXSLTFunctionAsin" = type { %"class.xalanc_1_10::Function" }
%"class.xalanc_1_10::XalanEXSLTFunctionAtan" = type { %"class.xalanc_1_10::Function" }
%"class.xalanc_1_10::XalanEXSLTFunctionConstant" = type { %"class.xalanc_1_10::Function" }
%"class.xalanc_1_10::XalanEXSLTFunctionCos" = type { %"class.xalanc_1_10::Function" }
%"class.xalanc_1_10::XalanEXSLTFunctionExp" = type { %"class.xalanc_1_10::Function" }
%"class.xalanc_1_10::XalanEXSLTFunctionHighest" = type { %"class.xalanc_1_10::Function" }
%"class.xalanc_1_10::XalanEXSLTFunctionLog" = type { %"class.xalanc_1_10::Function" }
%"class.xalanc_1_10::XalanEXSLTFunctionLowest" = type { %"class.xalanc_1_10::Function" }
%"class.xalanc_1_10::XalanEXSLTFunctionMax" = type { %"class.xalanc_1_10::Function" }
%"class.xalanc_1_10::XalanEXSLTFunctionMin" = type { %"class.xalanc_1_10::Function" }
%"class.xalanc_1_10::XalanEXSLTFunctionPower" = type { %"class.xalanc_1_10::Function" }
%"class.xalanc_1_10::XalanEXSLTFunctionSin" = type { %"class.xalanc_1_10::Function" }
%"class.xalanc_1_10::XalanEXSLTFunctionSqrt" = type { %"class.xalanc_1_10::Function" }
%"class.xalanc_1_10::XalanEXSLTFunctionTan" = type { %"class.xalanc_1_10::Function" }
%"class.xalanc_1_10::XalanEXSLTFunctionRandom" = type { %"class.xalanc_1_10::Function" }
%"struct.xalanc_1_10::XalanExtensionsInstaller::FunctionTableEntry" = type { i16*, %"class.xalanc_1_10::Function"* }
%"union.xalanc_1_10::DoubleSupport::NumberUnion" = type { double }
%"class.xalanc_1_10::XObjectPtr" = type { %"class.xalanc_1_10::XObject"* }
%"class.xalanc_1_10::XObject" = type { %"class.xalanc_1_10::XalanReferenceCountedObject.base", i32, %"class.xalanc_1_10::XObjectFactory"* }
%"class.xalanc_1_10::XalanReferenceCountedObject.base" = type <{ i32 (...)**, i32 }>
%"class.xalanc_1_10::XObjectFactory" = type { i32 (...)**, %"class.xercesc_2_7::MemoryManager"* }
%"class.xercesc_2_7::MemoryManager" = type { i32 (...)** }
%"class.xalanc_1_10::XPathExecutionContext" = type { %"class.xalanc_1_10::ExecutionContext", %"class.xalanc_1_10::XObjectFactory"* }
%"class.xalanc_1_10::ExecutionContext" = type { i32 (...)**, %"class.xercesc_2_7::MemoryManager"* }
%"class.xalanc_1_10::XalanNode" = type { i32 (...)** }
%"class.xalanc_1_10::XalanVector" = type { %"class.xercesc_2_7::MemoryManager"*, i64, i64, %"class.xalanc_1_10::XObjectPtr"* }
%"class.xercesc_2_7::Locator" = type { i32 (...)** }
%"class.xalanc_1_10::XPathExecutionContext::GetAndReleaseCachedString" = type { %"class.xalanc_1_10::XPathExecutionContext"*, %"class.xalanc_1_10::XalanDOMString"* }
%"class.xalanc_1_10::XalanDOMString" = type <{ %"class.xalanc_1_10::XalanVector.0", i32, [4 x i8] }>
%"class.xalanc_1_10::XalanVector.0" = type { %"class.xercesc_2_7::MemoryManager"*, i64, i64, i16* }
%"class.xalanc_1_10::NodeRefListBase" = type { i32 (...)** }
%"class.xalanc_1_10::XPathExecutionContext::BorrowReturnMutableNodeRefList" = type { %"class.xalanc_1_10::XPathExecutionContext"*, %"class.xalanc_1_10::MutableNodeRefList"* }
%"class.xalanc_1_10::MutableNodeRefList" = type <{ %"class.xalanc_1_10::NodeRefList", i32, [4 x i8] }>
%"class.xalanc_1_10::NodeRefList" = type { %"class.xalanc_1_10::NodeRefListBase", %"class.xalanc_1_10::XalanVector.8" }
%"class.xalanc_1_10::XalanVector.8" = type { %"class.xercesc_2_7::MemoryManager"*, i64, i64, %"class.xalanc_1_10::XalanNode"** }
%"class.xalanc_1_10::XalanEXSLTFunctionAtan2" = type { %"class.xalanc_1_10::Function" }
%"class.xalanc_1_10::XPathEnvSupportDefault" = type { %"class.xalanc_1_10::XPathEnvSupport", %"class.xalanc_1_10::XalanMap", %"class.xalanc_1_10::XalanMap.3" }
%"class.xalanc_1_10::XPathEnvSupport" = type { i32 (...)** }
%"class.xalanc_1_10::XalanMap" = type { %"struct.xalanc_1_10::DOMStringHashFunction", %"struct.std::equal_to", %"class.xercesc_2_7::MemoryManager"*, float, i64, i64, %"class.xalanc_1_10::XalanList", %"class.xalanc_1_10::XalanList", %"class.xalanc_1_10::XalanVector.1", i64, i64 }
%"struct.xalanc_1_10::DOMStringHashFunction" = type { i8 }
%"struct.std::equal_to" = type { i8 }
%"class.xalanc_1_10::XalanList" = type { %"class.xercesc_2_7::MemoryManager"*, %"struct.xalanc_1_10::XalanList<xalanc_1_10::XalanMap<xalanc_1_10::XalanDOMString, xalanc_1_10::XalanDocument *, xalanc_1_10::XalanMapKeyTraits<xalanc_1_10::XalanDOMString> >::Entry>::Node"*, %"struct.xalanc_1_10::XalanList<xalanc_1_10::XalanMap<xalanc_1_10::XalanDOMString, xalanc_1_10::XalanDocument *, xalanc_1_10::XalanMapKeyTraits<xalanc_1_10::XalanDOMString> >::Entry>::Node"* }
%"struct.xalanc_1_10::XalanList<xalanc_1_10::XalanMap<xalanc_1_10::XalanDOMString, xalanc_1_10::XalanDocument *, xalanc_1_10::XalanMapKeyTraits<xalanc_1_10::XalanDOMString> >::Entry>::Node" = type opaque
%"class.xalanc_1_10::XalanVector.1" = type { %"class.xercesc_2_7::MemoryManager"*, i64, i64, %"class.xalanc_1_10::XalanVector.2"* }
%"class.xalanc_1_10::XalanVector.2" = type { %"class.xercesc_2_7::MemoryManager"*, i64, i64, %"struct.xalanc_1_10::XalanListIteratorBase"* }
%"struct.xalanc_1_10::XalanListIteratorBase" = type opaque
%"class.xalanc_1_10::XalanMap.3" = type { %"struct.xalanc_1_10::DOMStringHashFunction", %"struct.std::equal_to", %"class.xercesc_2_7::MemoryManager"*, float, i64, i64, %"class.xalanc_1_10::XalanList.4", %"class.xalanc_1_10::XalanList.4", %"class.xalanc_1_10::XalanVector.5", i64, i64 }
%"class.xalanc_1_10::XalanList.4" = type { %"class.xercesc_2_7::MemoryManager"*, %"struct.xalanc_1_10::XalanList<xalanc_1_10::XalanMap<xalanc_1_10::XalanDOMString, xalanc_1_10::XalanMap<xalanc_1_10::XalanDOMString, const xalanc_1_10::Function *, xalanc_1_10::XalanMapKeyTraits<xalanc_1_10::XalanDOMString> >, xalanc_1_10::XalanMapKeyTraits<xalanc_1_10::XalanDOMString> >::Entry>::Node"*, %"struct.xalanc_1_10::XalanList<xalanc_1_10::XalanMap<xalanc_1_10::XalanDOMString, xalanc_1_10::XalanMap<xalanc_1_10::XalanDOMString, const xalanc_1_10::Function *, xalanc_1_10::XalanMapKeyTraits<xalanc_1_10::XalanDOMString> >, xalanc_1_10::XalanMapKeyTraits<xalanc_1_10::XalanDOMString> >::Entry>::Node"* }
%"struct.xalanc_1_10::XalanList<xalanc_1_10::XalanMap<xalanc_1_10::XalanDOMString, xalanc_1_10::XalanMap<xalanc_1_10::XalanDOMString, const xalanc_1_10::Function *, xalanc_1_10::XalanMapKeyTraits<xalanc_1_10::XalanDOMString> >, xalanc_1_10::XalanMapKeyTraits<xalanc_1_10::XalanDOMString> >::Entry>::Node" = type opaque
%"class.xalanc_1_10::XalanVector.5" = type { %"class.xercesc_2_7::MemoryManager"*, i64, i64, %"class.xalanc_1_10::XalanVector.6"* }
%"class.xalanc_1_10::XalanVector.6" = type { %"class.xercesc_2_7::MemoryManager"*, i64, i64, %"struct.xalanc_1_10::XalanListIteratorBase.7"* }
%"struct.xalanc_1_10::XalanListIteratorBase.7" = type opaque
%"class.xalanc_1_10::XalanAllocationGuard" = type { %"class.xercesc_2_7::MemoryManager"*, i8* }
%struct.anon = type { i32, i32 }
%"struct.std::random_access_iterator_tag" = type { i8 }

$_ZNK11xalanc_1_1011XalanVectorINS_10XObjectPtrENS_31MemoryManagedConstructionTraitsIS1_EEE4sizeEv = comdat any

$_ZN11xalanc_1_1021XPathExecutionContext25GetAndReleaseCachedStringC2ERS0_ = comdat any

$_ZNK11xalanc_1_1021XPathExecutionContext25GetAndReleaseCachedString3getEv = comdat any

$_ZN11xalanc_1_1021XPathExecutionContext25GetAndReleaseCachedStringD2Ev = comdat any

$_ZN11xalanc_1_109findNodesIPFbddEEENS_10XObjectPtrERNS_21XPathExecutionContextERKNS_15NodeRefListBaseET_ = comdat any

$_ZNK11xalanc_1_1011XalanVectorINS_10XObjectPtrENS_31MemoryManagedConstructionTraitsIS1_EEEixEm = comdat any

$_ZNK11xalanc_1_1010XObjectPtrptEv = comdat any

$_ZN11xalanc_1_109findValueIPFbddEEENS_10XObjectPtrERNS_21XPathExecutionContextERKNS_15NodeRefListBaseET_ = comdat any

$_ZNK11xalanc_1_1021XPathExecutionContext17getXObjectFactoryEv = comdat any

$_ZNK11xalanc_1_1011XalanVectorINS_10XObjectPtrENS_31MemoryManagedConstructionTraitsIS1_EEE5emptyEv = comdat any

$_ZN11xalanc_1_1013DoubleSupport6getNaNEv = comdat any

$_ZN11xalanc_1_106equalsEPKtRKNS_14XalanDOMStringE = comdat any

$_ZN11xalanc_1_1021XalanEXSLTFunctionAbsC2Ev = comdat any

$_ZN11xalanc_1_1021XalanEXSLTFunctionAbsD2Ev = comdat any

$_ZN11xalanc_1_1022XalanEXSLTFunctionAcosC2Ev = comdat any

$_ZN11xalanc_1_1022XalanEXSLTFunctionAcosD2Ev = comdat any

$_ZN11xalanc_1_1022XalanEXSLTFunctionAsinC2Ev = comdat any

$_ZN11xalanc_1_1022XalanEXSLTFunctionAsinD2Ev = comdat any

$_ZN11xalanc_1_1022XalanEXSLTFunctionAtanC2Ev = comdat any

$_ZN11xalanc_1_1022XalanEXSLTFunctionAtanD2Ev = comdat any

$_ZN11xalanc_1_1026XalanEXSLTFunctionConstantC2Ev = comdat any

$_ZN11xalanc_1_1026XalanEXSLTFunctionConstantD2Ev = comdat any

$_ZN11xalanc_1_1021XalanEXSLTFunctionCosC2Ev = comdat any

$_ZN11xalanc_1_1021XalanEXSLTFunctionCosD2Ev = comdat any

$_ZN11xalanc_1_1021XalanEXSLTFunctionExpC2Ev = comdat any

$_ZN11xalanc_1_1021XalanEXSLTFunctionExpD2Ev = comdat any

$_ZN11xalanc_1_1025XalanEXSLTFunctionHighestC2Ev = comdat any

$_ZN11xalanc_1_1025XalanEXSLTFunctionHighestD2Ev = comdat any

$_ZN11xalanc_1_1021XalanEXSLTFunctionLogC2Ev = comdat any

$_ZN11xalanc_1_1021XalanEXSLTFunctionLogD2Ev = comdat any

$_ZN11xalanc_1_1024XalanEXSLTFunctionLowestC2Ev = comdat any

$_ZN11xalanc_1_1024XalanEXSLTFunctionLowestD2Ev = comdat any

$_ZN11xalanc_1_1021XalanEXSLTFunctionMaxC2Ev = comdat any

$_ZN11xalanc_1_1021XalanEXSLTFunctionMaxD2Ev = comdat any

$_ZN11xalanc_1_1021XalanEXSLTFunctionMinC2Ev = comdat any

$_ZN11xalanc_1_1021XalanEXSLTFunctionMinD2Ev = comdat any

$_ZN11xalanc_1_1023XalanEXSLTFunctionPowerC2Ev = comdat any

$_ZN11xalanc_1_1023XalanEXSLTFunctionPowerD2Ev = comdat any

$_ZN11xalanc_1_1021XalanEXSLTFunctionSinC2Ev = comdat any

$_ZN11xalanc_1_1021XalanEXSLTFunctionSinD2Ev = comdat any

$_ZN11xalanc_1_1022XalanEXSLTFunctionSqrtC2Ev = comdat any

$_ZN11xalanc_1_1022XalanEXSLTFunctionSqrtD2Ev = comdat any

$_ZN11xalanc_1_1021XalanEXSLTFunctionTanC2Ev = comdat any

$_ZN11xalanc_1_1021XalanEXSLTFunctionTanD2Ev = comdat any

$_ZN11xalanc_1_1024XalanEXSLTFunctionRandomC2Ev = comdat any

$_ZN11xalanc_1_1024XalanEXSLTFunctionRandomD2Ev = comdat any

$_ZN11xalanc_1_1021XalanEXSLTFunctionAbsD0Ev = comdat any

$_ZNK11xalanc_1_1021XalanEXSLTFunctionAbs5cloneERN11xercesc_2_713MemoryManagerE = comdat any

$_ZN11xalanc_1_1024XalanEXSLTFunctionRandomD0Ev = comdat any

$_ZNK11xalanc_1_1024XalanEXSLTFunctionRandom5cloneERN11xercesc_2_713MemoryManagerE = comdat any

$_ZN11xalanc_1_1022XalanEXSLTFunctionAcosD0Ev = comdat any

$_ZNK11xalanc_1_1022XalanEXSLTFunctionAcos5cloneERN11xercesc_2_713MemoryManagerE = comdat any

$_ZN11xalanc_1_1022XalanEXSLTFunctionAsinD0Ev = comdat any

$_ZNK11xalanc_1_1022XalanEXSLTFunctionAsin5cloneERN11xercesc_2_713MemoryManagerE = comdat any

$_ZN11xalanc_1_1022XalanEXSLTFunctionAtanD0Ev = comdat any

$_ZNK11xalanc_1_1022XalanEXSLTFunctionAtan5cloneERN11xercesc_2_713MemoryManagerE = comdat any

$_ZN11xalanc_1_1023XalanEXSLTFunctionAtan2D2Ev = comdat any

$_ZN11xalanc_1_1023XalanEXSLTFunctionAtan2D0Ev = comdat any

$_ZNK11xalanc_1_1023XalanEXSLTFunctionAtan25cloneERN11xercesc_2_713MemoryManagerE = comdat any

$_ZN11xalanc_1_1026XalanEXSLTFunctionConstantD0Ev = comdat any

$_ZNK11xalanc_1_1026XalanEXSLTFunctionConstant5cloneERN11xercesc_2_713MemoryManagerE = comdat any

$_ZNK11xalanc_1_1026XalanEXSLTFunctionConstant8getErrorERNS_14XalanDOMStringE = comdat any

$_ZN11xalanc_1_1021XalanEXSLTFunctionCosD0Ev = comdat any

$_ZNK11xalanc_1_1021XalanEXSLTFunctionCos5cloneERN11xercesc_2_713MemoryManagerE = comdat any

$_ZN11xalanc_1_1021XalanEXSLTFunctionExpD0Ev = comdat any

$_ZNK11xalanc_1_1021XalanEXSLTFunctionExp5cloneERN11xercesc_2_713MemoryManagerE = comdat any

$_ZN11xalanc_1_1025XalanEXSLTFunctionHighestD0Ev = comdat any

$_ZNK11xalanc_1_1025XalanEXSLTFunctionHighest5cloneERN11xercesc_2_713MemoryManagerE = comdat any

$_ZN11xalanc_1_1021XalanEXSLTFunctionLogD0Ev = comdat any

$_ZNK11xalanc_1_1021XalanEXSLTFunctionLog5cloneERN11xercesc_2_713MemoryManagerE = comdat any

$_ZN11xalanc_1_1024XalanEXSLTFunctionLowestD0Ev = comdat any

$_ZNK11xalanc_1_1024XalanEXSLTFunctionLowest5cloneERN11xercesc_2_713MemoryManagerE = comdat any

$_ZN11xalanc_1_1021XalanEXSLTFunctionMaxD0Ev = comdat any

$_ZNK11xalanc_1_1021XalanEXSLTFunctionMax5cloneERN11xercesc_2_713MemoryManagerE = comdat any

$_ZN11xalanc_1_1021XalanEXSLTFunctionMinD0Ev = comdat any

$_ZNK11xalanc_1_1021XalanEXSLTFunctionMin5cloneERN11xercesc_2_713MemoryManagerE = comdat any

$_ZN11xalanc_1_1023XalanEXSLTFunctionPowerD0Ev = comdat any

$_ZNK11xalanc_1_1023XalanEXSLTFunctionPower5cloneERN11xercesc_2_713MemoryManagerE = comdat any

$_ZN11xalanc_1_1021XalanEXSLTFunctionSinD0Ev = comdat any

$_ZNK11xalanc_1_1021XalanEXSLTFunctionSin5cloneERN11xercesc_2_713MemoryManagerE = comdat any

$_ZN11xalanc_1_1022XalanEXSLTFunctionSqrtD0Ev = comdat any

$_ZNK11xalanc_1_1022XalanEXSLTFunctionSqrt5cloneERN11xercesc_2_713MemoryManagerE = comdat any

$_ZN11xalanc_1_1021XalanEXSLTFunctionTanD0Ev = comdat any

$_ZNK11xalanc_1_1021XalanEXSLTFunctionTan5cloneERN11xercesc_2_713MemoryManagerE = comdat any

$__clang_call_terminate = comdat any

$_ZN11xalanc_1_10eqERKNS_14XalanDOMStringEPKt = comdat any

$_ZN11xalanc_1_1014XalanDOMString6equalsERKS0_PKt = comdat any

$_ZN11xalanc_1_1014XalanDOMString6equalsEPKtS2_ = comdat any

$_ZNK11xalanc_1_1014XalanDOMString5c_strEv = comdat any

$_ZNK11xalanc_1_1014XalanDOMString10invariantsEv = comdat any

$_ZNK11xalanc_1_1011XalanVectorItNS_31MemoryManagedConstructionTraitsItEEE5emptyEv = comdat any

$_ZNK11xalanc_1_1011XalanVectorItNS_31MemoryManagedConstructionTraitsItEEEixEm = comdat any

$_ZNK11xalanc_1_1011XalanVectorItNS_31MemoryManagedConstructionTraitsItEEE10invariantsEv = comdat any

$_ZN11xalanc_1_1018XalanCopyConstructINS_21XalanEXSLTFunctionAbsEEEPT_RN11xercesc_2_713MemoryManagerERKS2_ = comdat any

$_ZN11xalanc_1_1020XalanAllocationGuardC2ERN11xercesc_2_713MemoryManagerEm = comdat any

$_ZNK11xalanc_1_1020XalanAllocationGuard3getEv = comdat any

$_ZN11xalanc_1_1021XalanEXSLTFunctionAbsC2ERKS0_ = comdat any

$_ZN11xalanc_1_1020XalanAllocationGuard7releaseEv = comdat any

$_ZN11xalanc_1_1020XalanAllocationGuardD2Ev = comdat any

$_ZN11xalanc_1_108FunctionC2ERKS0_ = comdat any

$_ZN11xalanc_1_1018XalanCopyConstructINS_24XalanEXSLTFunctionRandomEEEPT_RN11xercesc_2_713MemoryManagerERKS2_ = comdat any

$_ZN11xalanc_1_1024XalanEXSLTFunctionRandomC2ERKS0_ = comdat any

$_ZN11xalanc_1_1018XalanCopyConstructINS_22XalanEXSLTFunctionAcosEEEPT_RN11xercesc_2_713MemoryManagerERKS2_ = comdat any

$_ZN11xalanc_1_1022XalanEXSLTFunctionAcosC2ERKS0_ = comdat any

$_ZN11xalanc_1_1018XalanCopyConstructINS_22XalanEXSLTFunctionAsinEEEPT_RN11xercesc_2_713MemoryManagerERKS2_ = comdat any

$_ZN11xalanc_1_1022XalanEXSLTFunctionAsinC2ERKS0_ = comdat any

$_ZN11xalanc_1_1018XalanCopyConstructINS_22XalanEXSLTFunctionAtanEEEPT_RN11xercesc_2_713MemoryManagerERKS2_ = comdat any

$_ZN11xalanc_1_1022XalanEXSLTFunctionAtanC2ERKS0_ = comdat any

$_ZN11xalanc_1_1018XalanCopyConstructINS_23XalanEXSLTFunctionAtan2EEEPT_RN11xercesc_2_713MemoryManagerERKS2_ = comdat any

$_ZN11xalanc_1_1023XalanEXSLTFunctionAtan2C2ERKS0_ = comdat any

$_ZN11xalanc_1_1018XalanCopyConstructINS_26XalanEXSLTFunctionConstantEEEPT_RN11xercesc_2_713MemoryManagerERKS2_ = comdat any

$_ZN11xalanc_1_1026XalanEXSLTFunctionConstantC2ERKS0_ = comdat any

$_ZN11xalanc_1_1018XalanCopyConstructINS_21XalanEXSLTFunctionCosEEEPT_RN11xercesc_2_713MemoryManagerERKS2_ = comdat any

$_ZN11xalanc_1_1021XalanEXSLTFunctionCosC2ERKS0_ = comdat any

$_ZN11xalanc_1_1018XalanCopyConstructINS_21XalanEXSLTFunctionExpEEEPT_RN11xercesc_2_713MemoryManagerERKS2_ = comdat any

$_ZN11xalanc_1_1021XalanEXSLTFunctionExpC2ERKS0_ = comdat any

$_ZN11xalanc_1_1018XalanCopyConstructINS_25XalanEXSLTFunctionHighestEEEPT_RN11xercesc_2_713MemoryManagerERKS2_ = comdat any

$_ZN11xalanc_1_1025XalanEXSLTFunctionHighestC2ERKS0_ = comdat any

$_ZN11xalanc_1_1018XalanCopyConstructINS_21XalanEXSLTFunctionLogEEEPT_RN11xercesc_2_713MemoryManagerERKS2_ = comdat any

$_ZN11xalanc_1_1021XalanEXSLTFunctionLogC2ERKS0_ = comdat any

$_ZN11xalanc_1_1018XalanCopyConstructINS_24XalanEXSLTFunctionLowestEEEPT_RN11xercesc_2_713MemoryManagerERKS2_ = comdat any

$_ZN11xalanc_1_1024XalanEXSLTFunctionLowestC2ERKS0_ = comdat any

$_ZN11xalanc_1_1018XalanCopyConstructINS_21XalanEXSLTFunctionMaxEEEPT_RN11xercesc_2_713MemoryManagerERKS2_ = comdat any

$_ZN11xalanc_1_1021XalanEXSLTFunctionMaxC2ERKS0_ = comdat any

$_ZN11xalanc_1_1018XalanCopyConstructINS_21XalanEXSLTFunctionMinEEEPT_RN11xercesc_2_713MemoryManagerERKS2_ = comdat any

$_ZN11xalanc_1_1021XalanEXSLTFunctionMinC2ERKS0_ = comdat any

$_ZN11xalanc_1_1018XalanCopyConstructINS_23XalanEXSLTFunctionPowerEEEPT_RN11xercesc_2_713MemoryManagerERKS2_ = comdat any

$_ZN11xalanc_1_1023XalanEXSLTFunctionPowerC2ERKS0_ = comdat any

$_ZN11xalanc_1_1018XalanCopyConstructINS_21XalanEXSLTFunctionSinEEEPT_RN11xercesc_2_713MemoryManagerERKS2_ = comdat any

$_ZN11xalanc_1_1021XalanEXSLTFunctionSinC2ERKS0_ = comdat any

$_ZN11xalanc_1_1018XalanCopyConstructINS_22XalanEXSLTFunctionSqrtEEEPT_RN11xercesc_2_713MemoryManagerERKS2_ = comdat any

$_ZN11xalanc_1_1022XalanEXSLTFunctionSqrtC2ERKS0_ = comdat any

$_ZN11xalanc_1_1018XalanCopyConstructINS_21XalanEXSLTFunctionTanEEEPT_RN11xercesc_2_713MemoryManagerERKS2_ = comdat any

$_ZN11xalanc_1_1021XalanEXSLTFunctionTanC2ERKS0_ = comdat any

$_ZNK11xalanc_1_1011XalanVectorINS_10XObjectPtrENS_31MemoryManagedConstructionTraitsIS1_EEE10invariantsEv = comdat any

$_ZN11xalanc_1_1021XPathExecutionContext30BorrowReturnMutableNodeRefListC2ERS0_ = comdat any

$_ZNK11xalanc_1_1021XPathExecutionContext30BorrowReturnMutableNodeRefListptEv = comdat any

$_ZN11xalanc_1_1018MutableNodeRefList16setDocumentOrderEv = comdat any

$_ZN11xalanc_1_1017DOMStringToDoubleERKNS_14XalanDOMStringERN11xercesc_2_713MemoryManagerE = comdat any

$_ZN11xalanc_1_1016ExecutionContext16getMemoryManagerEv = comdat any

$_ZN11xalanc_1_1013DoubleSupport5isNaNEd = comdat any

$_ZN11xalanc_1_1014XalanDOMString5clearEv = comdat any

$_ZN11xalanc_1_1021XPathExecutionContext30BorrowReturnMutableNodeRefListD2Ev = comdat any

$_ZNK11xalanc_1_1021XPathExecutionContext30BorrowReturnMutableNodeRefList3getEv = comdat any

$_ZN11xalanc_1_106c_wstrERKNS_14XalanDOMStringE = comdat any

$_ZNK11xalanc_1_1013DoubleSupport11NumberUnioneqEd = comdat any

$_ZN11xalanc_1_1011XalanVectorItNS_31MemoryManagedConstructionTraitsItEEE5eraseEPtS4_ = comdat any

$_ZN11xalanc_1_1011XalanVectorItNS_31MemoryManagedConstructionTraitsItEEE5beginEv = comdat any

$_ZN11xalanc_1_1011XalanVectorItNS_31MemoryManagedConstructionTraitsItEEE3endEv = comdat any

$_ZSt4copyIPtS0_ET0_T_S2_S1_ = comdat any

$_ZN11xalanc_1_1011XalanVectorItNS_31MemoryManagedConstructionTraitsItEEE11shrinkCountEm = comdat any

$_ZN11xalanc_1_1011XalanVectorItNS_31MemoryManagedConstructionTraitsItEEE14local_distanceEPKtS5_ = comdat any

$_ZSt13__copy_move_aILb0EPtS0_ET1_T0_S2_S1_ = comdat any

$_ZSt12__miter_baseIPtET_S1_ = comdat any

$_ZSt12__niter_wrapIPtET_RKS1_S1_ = comdat any

$_ZSt14__copy_move_a1ILb0EPtS0_ET1_T0_S2_S1_ = comdat any

$_ZSt12__niter_baseIPtET_S1_ = comdat any

$_ZSt14__copy_move_a2ILb0EPtS0_ET1_T0_S2_S1_ = comdat any

$_ZNSt11__copy_moveILb0ELb1ESt26random_access_iterator_tagE8__copy_mItEEPT_PKS3_S6_S4_ = comdat any

$_ZN11xalanc_1_1011XalanVectorItNS_31MemoryManagedConstructionTraitsItEEE8pop_backEv = comdat any

$_ZN11xalanc_1_1011XalanVectorItNS_31MemoryManagedConstructionTraitsItEEE7destroyERt = comdat any

$_ZSt8distanceIPKtENSt15iterator_traitsIT_E15difference_typeES3_S3_ = comdat any

$_ZSt10__distanceIPKtENSt15iterator_traitsIT_E15difference_typeES3_S3_St26random_access_iterator_tag = comdat any

$_ZSt19__iterator_categoryIPKtENSt15iterator_traitsIT_E17iterator_categoryERKS3_ = comdat any

$_ZN11xalanc_1_1011XalanVectorItNS_31MemoryManagedConstructionTraitsItEEE10endPointerEv = comdat any

$_ZN11xalanc_1_1021XPathExecutionContext30BorrowReturnMutableNodeRefList7releaseEv = comdat any

@_ZN11xalanc_1_10L21s_highestFunctionNameE = internal constant [8 x i16] [i16 104, i16 105, i16 103, i16 104, i16 101, i16 115, i16 116, i16 0], align 16, !dbg !0
@_ZN11xalanc_1_10L20s_lowestFunctionNameE = internal constant [7 x i16] [i16 108, i16 111, i16 119, i16 101, i16 115, i16 116, i16 0], align 2, !dbg !11
@_ZN11xalanc_1_10L17s_minFunctionNameE = internal constant [4 x i16] [i16 109, i16 105, i16 110, i16 0], align 2, !dbg !16
@_ZN11xalanc_1_10L17s_maxFunctionNameE = internal constant [4 x i16] [i16 109, i16 97, i16 120, i16 0], align 2, !dbg !21
@_ZN11xalanc_1_10L17s_absFunctionNameE = internal constant [4 x i16] [i16 97, i16 98, i16 115, i16 0], align 2, !dbg !23
@_ZN11xalanc_1_10L20s_randomFunctionNameE = internal constant [7 x i16] [i16 114, i16 97, i16 110, i16 100, i16 111, i16 109, i16 0], align 2, !dbg !25
@_ZN11xalanc_1_10L18s_acosFunctionNameE = internal constant [5 x i16] [i16 97, i16 99, i16 111, i16 115, i16 0], align 2, !dbg !27
@_ZN11xalanc_1_10L18s_asinFunctionNameE = internal constant [5 x i16] [i16 97, i16 115, i16 105, i16 110, i16 0], align 2, !dbg !32
@_ZN11xalanc_1_10L18s_atanFunctionNameE = internal constant [5 x i16] [i16 97, i16 116, i16 97, i16 110, i16 0], align 2, !dbg !34
@_ZN11xalanc_1_10L19s_atan2FunctionNameE = internal constant [6 x i16] [i16 97, i16 116, i16 97, i16 110, i16 50, i16 0], align 2, !dbg !36
@_ZN11xalanc_1_1026XalanEXSLTFunctionConstant9s_eStringE = dso_local constant [2 x i16] [i16 69, i16 0], align 2, !dbg !41
@_ZN11xalanc_1_1026XalanEXSLTFunctionConstant12s_ln10StringE = dso_local constant [5 x i16] [i16 76, i16 78, i16 49, i16 48, i16 0], align 2, !dbg !1107
@_ZN11xalanc_1_1026XalanEXSLTFunctionConstant11s_ln2StringE = dso_local constant [4 x i16] [i16 76, i16 78, i16 50, i16 0], align 2, !dbg !1109
@_ZN11xalanc_1_1026XalanEXSLTFunctionConstant13s_log2EStringE = dso_local constant [6 x i16] [i16 76, i16 79, i16 71, i16 50, i16 69, i16 0], align 2, !dbg !1111
@_ZN11xalanc_1_1026XalanEXSLTFunctionConstant10s_piStringE = dso_local constant [3 x i16] [i16 80, i16 73, i16 0], align 2, !dbg !1113
@_ZN11xalanc_1_1026XalanEXSLTFunctionConstant15s_sqrt1_2StringE = dso_local constant [8 x i16] [i16 83, i16 81, i16 82, i16 84, i16 49, i16 95, i16 50, i16 0], align 16, !dbg !1118
@_ZN11xalanc_1_1026XalanEXSLTFunctionConstant13s_sqrt2StringE = dso_local constant [7 x i16] [i16 83, i16 81, i16 82, i16 82, i16 84, i16 50, i16 0], align 2, !dbg !1120
@_ZN11xalanc_1_1026XalanEXSLTFunctionConstant9s_eValuesE = dso_local constant [51 x double] [double 0.000000e+00, double 2.700000e+00, double 2.710000e+00, double 2.718000e+00, double 2.718200e+00, double 2.718280e+00, double 0x4005BF0A1BE2B496, double 0x4005BF0A87427F01, double 0x4005BF0A89F1B0DD, double 0x4005BF0A8B04919B, double 0x4005BF0A8B12500B, double 0x4005BF0A8B1407D9, double 0x4005BF0A8B145703, double 0x4005BF0A8B145703, double 0x4005BF0A8B14575E, double 0x4005BF0A8B145769, double 0x4005BF0A8B145769, double 0x4005BF0A8B145769, double 0x4005BF0A8B145769, double 0x4005BF0A8B145769, double 0x4005BF0A8B145769, double 0x4005BF0A8B145769, double 0x4005BF0A8B145769, double 0x4005BF0A8B145769, double 0x4005BF0A8B145769, double 0x4005BF0A8B145769, double 0x4005BF0A8B145769, double 0x4005BF0A8B145769, double 0x4005BF0A8B145769, double 0x4005BF0A8B145769, double 0x4005BF0A8B145769, double 0x4005BF0A8B145769, double 0x4005BF0A8B145769, double 0x4005BF0A8B145769, double 0x4005BF0A8B145769, double 0x4005BF0A8B145769, double 0x4005BF0A8B145769, double 0x4005BF0A8B145769, double 0x4005BF0A8B145769, double 0x4005BF0A8B145769, double 0x4005BF0A8B145769, double 0x4005BF0A8B145769, double 0x4005BF0A8B145769, double 0x4005BF0A8B145769, double 0x4005BF0A8B145769, double 0x4005BF0A8B145769, double 0x4005BF0A8B145769, double 0x4005BF0A8B145769, double 0x4005BF0A8B145769, double 0x4005BF0A8B145769, double 0x4005BF0A8B145769], align 16, !dbg !1122
@_ZN11xalanc_1_1026XalanEXSLTFunctionConstant12s_ln10ValuesE = dso_local constant [16 x double] [double 0.000000e+00, double 2.300000e+00, double 2.300000e+00, double 2.302000e+00, double 2.302500e+00, double 2.302580e+00, double 0x40026BB1AF3A14CF, double 0x40026BB1AF3A14CF, double 0x40026BB1BB4E752E, double 0x40026BB1BB932D5E, double 0x40026BB1BBB219D9, double 0x40026BB1BBB5317F, double 0x40026BB1BBB554AF, double 0x40026BB1BBB554AF, double 0x40026BB1BBB55509, double 0x40026BB1BBB55516], align 16, !dbg !1127
@_ZN11xalanc_1_1026XalanEXSLTFunctionConstant11s_ln2ValuesE = dso_local constant [51 x double] [double 0.000000e+00, double 6.000000e-01, double 6.900000e-01, double 6.930000e-01, double 6.931000e-01, double 6.931400e-01, double 0x3FE62E429E0A41A2, double 0x3FE62E42D3BA26D8, double 0x3FE62E42FEAD449C, double 0x3FE62E42FEAD449C, double 0x3FE62E42FEF1FCCC, double 0x3FE62E42FEF8DC04, double 0x3FE62E42FEFA18AD, double 0x3FE62E42FEFA3857, double 0x3FE62E42FEFA39BF, double 0x3FE62E42FEFA39EC, double 0x3FE62E42FEFA39EF, double 0x3FE62E42FEFA39EF, double 0x3FE62E42FEFA39EF, double 0x3FE62E42FEFA39EF, double 0x3FE62E42FEFA39EF, double 0x3FE62E42FEFA39EF, double 0x3FE62E42FEFA39EF, double 0x3FE62E42FEFA39EF, double 0x3FE62E42FEFA39EF, double 0x3FE62E42FEFA39EF, double 0x3FE62E42FEFA39EF, double 0x3FE62E42FEFA39EF, double 0x3FE62E42FEFA39EF, double 0x3FE62E42FEFA39EF, double 0x3FE62E42FEFA39EF, double 0x3FE62E42FEFA39EF, double 0x3FE62E42FEFA39EF, double 0x3FE62E42FEFA39EF, double 0x3FE62E42FEFA39EF, double 0x3FE62E42FEFA39EF, double 0x3FE62E42FEFA39EF, double 0x3FE62E42FEFA39EF, double 0x3FE62E42FEFA39EF, double 0x3FE62E42FEFA39EF, double 0x3FE62E42FEFA39EF, double 0x3FE62E42FEFA39EF, double 0x3FE62E42FEFA39EF, double 0x3FE62E42FEFA39EF, double 0x3FE62E42FEFA39EF, double 0x3FE62E42FEFA39EF, double 0x3FE62E42FEFA39EF, double 0x3FE62E42FEFA39EF, double 0x3FE62E42FEFA39EF, double 0x3FE62E42FEFA39EF, double 0x3FE62E42FEFA39EF], align 16, !dbg !1132
@_ZN11xalanc_1_1026XalanEXSLTFunctionConstant13s_log2EValuesE = dso_local constant [17 x double] [double 0.000000e+00, double 1.400000e+00, double 1.440000e+00, double 1.442000e+00, double 1.442600e+00, double 1.442690e+00, double 0x3FF715475A31A4BE, double 0x3FF715475A31A4BE, double 0x3FF7154764EE6C2F, double 0x3FF7154764EE6C2F, double 0x3FF71547652565EF, double 0x3FF71547652AE54E, double 0x3FF71547652B720B, double 0x3FF71547652B81E1, double 0x3FF71547652B82EF, double 0x3FF71547652B82FC, double 0x3FF71547652B82FE], align 16, !dbg !1134
@_ZN11xalanc_1_1026XalanEXSLTFunctionConstant10s_piValuesE = dso_local constant [50 x double] [double 0.000000e+00, double 3.100000e+00, double 3.140000e+00, double 3.141000e+00, double 3.141500e+00, double 3.141590e+00, double 0x400921FAFC8B007A, double 0x400921FB4D12D84A, double 0x400921FB53C8D4F1, double 0x400921FB542FE938, double 0x400921FB54411744, double 0x400921FB5443D6F4, double 0x400921FB5444261E, double 0x400921FB54442C46, double 0x400921FB54442D11, double 0x400921FB54442D18, double 0x400921FB54442D18, double 0x400921FB54442D18, double 0x400921FB54442D18, double 0x400921FB54442D18, double 0x400921FB54442D18, double 0x400921FB54442D18, double 0x400921FB54442D18, double 0x400921FB54442D18, double 0x400921FB54442D18, double 0x400921FB54442D18, double 0x400921FB54442D18, double 0x400921FB54442D18, double 0x400921FB54442D18, double 0x400921FB54442D18, double 0x400921FB54442D18, double 0x400921FB54442D18, double 0x400921FB54442D18, double 0x400921FB54442D18, double 0x400921FB54442D18, double 0x400921FB54442D18, double 0x400921FB54442D18, double 0x400921FB54442D18, double 0x400921FB54442D18, double 0x400921FB54442D18, double 0x400921FB54442D18, double 0x400921FB54442D18, double 0x400921FB54442D18, double 0x400921FB54442D18, double 0x400921FB54442D18, double 0x400921FB54442D18, double 0x400921FB54442D18, double 0x400921FB54442D18, double 0x400921FB54442D18, double 0x400921FB54442D18], align 16, !dbg !1139
@_ZN11xalanc_1_1026XalanEXSLTFunctionConstant15s_sqrt1_2ValuesE = dso_local constant [17 x double] [double 0.000000e+00, double 0x3FE6666666666666, double 0x3FE6666666666666, double 7.070000e-01, double 7.071000e-01, double 7.071000e-01, double 7.071060e-01, double 0x3FE6A09E3AE90A1A, double 0x3FE6A09E65DC27DF, double 0x3FE6A09E6665983E, double 0x3FE6A09E667356AE, double 0x3FE6A09E667E556E, double 0x3FE6A09E667F2889, double 0x3FE6A09E667F3A21, double 0x3FE6A09E667F3B89, double 0x3FE6A09E667F3BC8, double 0x3FE6A09E667F3BCD], align 16, !dbg !1144
@_ZN11xalanc_1_1026XalanEXSLTFunctionConstant13s_sqrt2ValuesE = dso_local constant [51 x double] [double 0.000000e+00, double 1.400000e+00, double 1.410000e+00, double 1.414000e+00, double 1.414200e+00, double 1.414210e+00, double 0x3FF6A09DCF893FAF, double 0x3FF6A09E55C0FCB5, double 0x3FF6A09E65DC27DF, double 0x3FF6A09E6665983E, double 0x3FF6A09E667A35E6, double 0x3FF6A09E667F055A, double 0x3FF6A09E667F3A21, double 0x3FF6A09E667F3A21, double 0x3FF6A09E667F3BB6, double 0x3FF6A09E667F3BCC, double 0x3FF6A09E667F3BCC, double 0x3FF6A09E667F3BCD, double 0x3FF6A09E667F3BCD, double 0x3FF6A09E667F3BCD, double 0x3FF6A09E667F3BCD, double 0x3FF6A09E667F3BCD, double 0x3FF6A09E667F3BCD, double 0x3FF6A09E667F3BCD, double 0x3FF6A09E667F3BCD, double 0x3FF6A09E667F3BCD, double 0x3FF6A09E667F3BCD, double 0x3FF6A09E667F3BCD, double 0x3FF6A09E667F3BCD, double 0x3FF6A09E667F3BCD, double 0x3FF6A09E667F3BCD, double 0x3FF6A09E667F3BCD, double 0x3FF6A09E667F3BCD, double 0x3FF6A09E667F3BCD, double 0x3FF6A09E667F3BCD, double 0x3FF6A09E667F3BCD, double 0x3FF6A09E667F3BCD, double 0x3FF6A09E667F3BCD, double 0x3FF6A09E667F3BCD, double 0x3FF6A09E667F3BCD, double 0x3FF6A09E667F3BCD, double 0x3FF6A09E667F3BCD, double 0x3FF6A09E667F3BCD, double 0x3FF6A09E667F3BCD, double 0x3FF6A09E667F3BCD, double 0x3FF6A09E667F3BCD, double 0x3FF6A09E667F3BCD, double 0x3FF6A09E667F3BCD, double 0x3FF6A09E667F3BCD, double 0x3FF6A09E667F3BCD, double 0x3FF6A09E667F3BCD], align 16, !dbg !1146
@_ZN11xalanc_1_10L17s_cosFunctionNameE = internal constant [4 x i16] [i16 99, i16 111, i16 115, i16 0], align 2, !dbg !1148
@_ZN11xalanc_1_10L17s_expFunctionNameE = internal constant [4 x i16] [i16 101, i16 120, i16 112, i16 0], align 2, !dbg !1150
@_ZN11xalanc_1_10L17s_logFunctionNameE = internal constant [4 x i16] [i16 108, i16 111, i16 103, i16 0], align 2, !dbg !1152
@_ZN11xalanc_1_10L19s_powerFunctionNameE = internal constant [6 x i16] [i16 112, i16 111, i16 119, i16 101, i16 114, i16 0], align 2, !dbg !1154
@_ZN11xalanc_1_10L17s_sinFunctionNameE = internal constant [4 x i16] [i16 115, i16 105, i16 110, i16 0], align 2, !dbg !1156
@_ZN11xalanc_1_10L18s_sqrtFunctionNameE = internal constant [5 x i16] [i16 115, i16 113, i16 114, i16 116, i16 0], align 2, !dbg !1158
@_ZN11xalanc_1_10L17s_tanFunctionNameE = internal constant [4 x i16] [i16 116, i16 97, i16 110, i16 0], align 2, !dbg !1160
@_ZN11xalanc_1_10L13s_absFunctionE = internal global %"class.xalanc_1_10::XalanEXSLTFunctionAbs" zeroinitializer, align 8, !dbg !1162
@__dso_handle = external hidden global i8
@_ZN11xalanc_1_10L14s_acosFunctionE = internal global %"class.xalanc_1_10::XalanEXSLTFunctionAcos" zeroinitializer, align 8, !dbg !1192
@_ZN11xalanc_1_10L14s_asinFunctionE = internal global %"class.xalanc_1_10::XalanEXSLTFunctionAsin" zeroinitializer, align 8, !dbg !1222
@_ZN11xalanc_1_10L14s_atanFunctionE = internal global %"class.xalanc_1_10::XalanEXSLTFunctionAtan" zeroinitializer, align 8, !dbg !1252
@_ZN11xalanc_1_10L15s_atan2FunctionE = internal global %"class.xalanc_1_10::XalanEXSLTFunctionAtan" zeroinitializer, align 8, !dbg !1282
@_ZN11xalanc_1_10L18s_constantFunctionE = internal global %"class.xalanc_1_10::XalanEXSLTFunctionConstant" zeroinitializer, align 8, !dbg !1284
@_ZN11xalanc_1_10L13s_cosFunctionE = internal global %"class.xalanc_1_10::XalanEXSLTFunctionCos" zeroinitializer, align 8, !dbg !1286
@_ZN11xalanc_1_10L13s_expFunctionE = internal global %"class.xalanc_1_10::XalanEXSLTFunctionExp" zeroinitializer, align 8, !dbg !1316
@_ZN11xalanc_1_10L17s_highestFunctionE = internal global %"class.xalanc_1_10::XalanEXSLTFunctionHighest" zeroinitializer, align 8, !dbg !1346
@_ZN11xalanc_1_10L13s_logFunctionE = internal global %"class.xalanc_1_10::XalanEXSLTFunctionLog" zeroinitializer, align 8, !dbg !1376
@_ZN11xalanc_1_10L16s_lowestFunctionE = internal global %"class.xalanc_1_10::XalanEXSLTFunctionLowest" zeroinitializer, align 8, !dbg !1406
@_ZN11xalanc_1_10L13s_maxFunctionE = internal global %"class.xalanc_1_10::XalanEXSLTFunctionMax" zeroinitializer, align 8, !dbg !1436
@_ZN11xalanc_1_10L13s_minFunctionE = internal global %"class.xalanc_1_10::XalanEXSLTFunctionMin" zeroinitializer, align 8, !dbg !1466
@_ZN11xalanc_1_10L15s_powerFunctionE = internal global %"class.xalanc_1_10::XalanEXSLTFunctionPower" zeroinitializer, align 8, !dbg !1496
@_ZN11xalanc_1_10L13s_sinFunctionE = internal global %"class.xalanc_1_10::XalanEXSLTFunctionSin" zeroinitializer, align 8, !dbg !1526
@_ZN11xalanc_1_10L14s_sqrtFunctionE = internal global %"class.xalanc_1_10::XalanEXSLTFunctionSqrt" zeroinitializer, align 8, !dbg !1556
@_ZN11xalanc_1_10L13s_tanFunctionE = internal global %"class.xalanc_1_10::XalanEXSLTFunctionTan" zeroinitializer, align 8, !dbg !1586
@_ZN11xalanc_1_10L16s_randomFunctionE = internal global %"class.xalanc_1_10::XalanEXSLTFunctionRandom" zeroinitializer, align 8, !dbg !1616
@_ZN11xalanc_1_10L15s_mathNamespaceE = internal constant [22 x i16] [i16 104, i16 116, i16 116, i16 112, i16 58, i16 47, i16 47, i16 101, i16 120, i16 115, i16 108, i16 116, i16 46, i16 111, i16 114, i16 103, i16 47, i16 109, i16 97, i16 116, i16 104, i16 0], align 16, !dbg !1646
@_ZN11xalanc_1_10L16theFunctionTableE = internal constant [19 x %"struct.xalanc_1_10::XalanExtensionsInstaller::FunctionTableEntry"] [%"struct.xalanc_1_10::XalanExtensionsInstaller::FunctionTableEntry" { i16* getelementptr inbounds ([4 x i16], [4 x i16]* @_ZN11xalanc_1_10L17s_absFunctionNameE, i32 0, i32 0), %"class.xalanc_1_10::Function"* getelementptr inbounds (%"class.xalanc_1_10::XalanEXSLTFunctionAbs", %"class.xalanc_1_10::XalanEXSLTFunctionAbs"* @_ZN11xalanc_1_10L13s_absFunctionE, i32 0, i32 0) }, %"struct.xalanc_1_10::XalanExtensionsInstaller::FunctionTableEntry" { i16* getelementptr inbounds ([5 x i16], [5 x i16]* @_ZN11xalanc_1_10L18s_acosFunctionNameE, i32 0, i32 0), %"class.xalanc_1_10::Function"* getelementptr inbounds (%"class.xalanc_1_10::XalanEXSLTFunctionAcos", %"class.xalanc_1_10::XalanEXSLTFunctionAcos"* @_ZN11xalanc_1_10L14s_acosFunctionE, i32 0, i32 0) }, %"struct.xalanc_1_10::XalanExtensionsInstaller::FunctionTableEntry" { i16* getelementptr inbounds ([5 x i16], [5 x i16]* @_ZN11xalanc_1_10L18s_asinFunctionNameE, i32 0, i32 0), %"class.xalanc_1_10::Function"* getelementptr inbounds (%"class.xalanc_1_10::XalanEXSLTFunctionAsin", %"class.xalanc_1_10::XalanEXSLTFunctionAsin"* @_ZN11xalanc_1_10L14s_asinFunctionE, i32 0, i32 0) }, %"struct.xalanc_1_10::XalanExtensionsInstaller::FunctionTableEntry" { i16* getelementptr inbounds ([5 x i16], [5 x i16]* @_ZN11xalanc_1_10L18s_atanFunctionNameE, i32 0, i32 0), %"class.xalanc_1_10::Function"* getelementptr inbounds (%"class.xalanc_1_10::XalanEXSLTFunctionAtan", %"class.xalanc_1_10::XalanEXSLTFunctionAtan"* @_ZN11xalanc_1_10L14s_atanFunctionE, i32 0, i32 0) }, %"struct.xalanc_1_10::XalanExtensionsInstaller::FunctionTableEntry" { i16* getelementptr inbounds ([6 x i16], [6 x i16]* @_ZN11xalanc_1_10L19s_atan2FunctionNameE, i32 0, i32 0), %"class.xalanc_1_10::Function"* getelementptr inbounds (%"class.xalanc_1_10::XalanEXSLTFunctionAtan", %"class.xalanc_1_10::XalanEXSLTFunctionAtan"* @_ZN11xalanc_1_10L15s_atan2FunctionE, i32 0, i32 0) }, %"struct.xalanc_1_10::XalanExtensionsInstaller::FunctionTableEntry" { i16* getelementptr inbounds ([9 x i16], [9 x i16]* @_ZN11xalanc_1_10L22s_constantFunctionNameE, i32 0, i32 0), %"class.xalanc_1_10::Function"* getelementptr inbounds (%"class.xalanc_1_10::XalanEXSLTFunctionConstant", %"class.xalanc_1_10::XalanEXSLTFunctionConstant"* @_ZN11xalanc_1_10L18s_constantFunctionE, i32 0, i32 0) }, %"struct.xalanc_1_10::XalanExtensionsInstaller::FunctionTableEntry" { i16* getelementptr inbounds ([4 x i16], [4 x i16]* @_ZN11xalanc_1_10L17s_cosFunctionNameE, i32 0, i32 0), %"class.xalanc_1_10::Function"* getelementptr inbounds (%"class.xalanc_1_10::XalanEXSLTFunctionCos", %"class.xalanc_1_10::XalanEXSLTFunctionCos"* @_ZN11xalanc_1_10L13s_cosFunctionE, i32 0, i32 0) }, %"struct.xalanc_1_10::XalanExtensionsInstaller::FunctionTableEntry" { i16* getelementptr inbounds ([4 x i16], [4 x i16]* @_ZN11xalanc_1_10L17s_expFunctionNameE, i32 0, i32 0), %"class.xalanc_1_10::Function"* getelementptr inbounds (%"class.xalanc_1_10::XalanEXSLTFunctionExp", %"class.xalanc_1_10::XalanEXSLTFunctionExp"* @_ZN11xalanc_1_10L13s_expFunctionE, i32 0, i32 0) }, %"struct.xalanc_1_10::XalanExtensionsInstaller::FunctionTableEntry" { i16* getelementptr inbounds ([8 x i16], [8 x i16]* @_ZN11xalanc_1_10L21s_highestFunctionNameE, i32 0, i32 0), %"class.xalanc_1_10::Function"* getelementptr inbounds (%"class.xalanc_1_10::XalanEXSLTFunctionHighest", %"class.xalanc_1_10::XalanEXSLTFunctionHighest"* @_ZN11xalanc_1_10L17s_highestFunctionE, i32 0, i32 0) }, %"struct.xalanc_1_10::XalanExtensionsInstaller::FunctionTableEntry" { i16* getelementptr inbounds ([4 x i16], [4 x i16]* @_ZN11xalanc_1_10L17s_logFunctionNameE, i32 0, i32 0), %"class.xalanc_1_10::Function"* getelementptr inbounds (%"class.xalanc_1_10::XalanEXSLTFunctionLog", %"class.xalanc_1_10::XalanEXSLTFunctionLog"* @_ZN11xalanc_1_10L13s_logFunctionE, i32 0, i32 0) }, %"struct.xalanc_1_10::XalanExtensionsInstaller::FunctionTableEntry" { i16* getelementptr inbounds ([7 x i16], [7 x i16]* @_ZN11xalanc_1_10L20s_lowestFunctionNameE, i32 0, i32 0), %"class.xalanc_1_10::Function"* getelementptr inbounds (%"class.xalanc_1_10::XalanEXSLTFunctionLowest", %"class.xalanc_1_10::XalanEXSLTFunctionLowest"* @_ZN11xalanc_1_10L16s_lowestFunctionE, i32 0, i32 0) }, %"struct.xalanc_1_10::XalanExtensionsInstaller::FunctionTableEntry" { i16* getelementptr inbounds ([4 x i16], [4 x i16]* @_ZN11xalanc_1_10L17s_maxFunctionNameE, i32 0, i32 0), %"class.xalanc_1_10::Function"* getelementptr inbounds (%"class.xalanc_1_10::XalanEXSLTFunctionMax", %"class.xalanc_1_10::XalanEXSLTFunctionMax"* @_ZN11xalanc_1_10L13s_maxFunctionE, i32 0, i32 0) }, %"struct.xalanc_1_10::XalanExtensionsInstaller::FunctionTableEntry" { i16* getelementptr inbounds ([4 x i16], [4 x i16]* @_ZN11xalanc_1_10L17s_minFunctionNameE, i32 0, i32 0), %"class.xalanc_1_10::Function"* getelementptr inbounds (%"class.xalanc_1_10::XalanEXSLTFunctionMin", %"class.xalanc_1_10::XalanEXSLTFunctionMin"* @_ZN11xalanc_1_10L13s_minFunctionE, i32 0, i32 0) }, %"struct.xalanc_1_10::XalanExtensionsInstaller::FunctionTableEntry" { i16* getelementptr inbounds ([6 x i16], [6 x i16]* @_ZN11xalanc_1_10L19s_powerFunctionNameE, i32 0, i32 0), %"class.xalanc_1_10::Function"* getelementptr inbounds (%"class.xalanc_1_10::XalanEXSLTFunctionPower", %"class.xalanc_1_10::XalanEXSLTFunctionPower"* @_ZN11xalanc_1_10L15s_powerFunctionE, i32 0, i32 0) }, %"struct.xalanc_1_10::XalanExtensionsInstaller::FunctionTableEntry" { i16* getelementptr inbounds ([4 x i16], [4 x i16]* @_ZN11xalanc_1_10L17s_sinFunctionNameE, i32 0, i32 0), %"class.xalanc_1_10::Function"* getelementptr inbounds (%"class.xalanc_1_10::XalanEXSLTFunctionSin", %"class.xalanc_1_10::XalanEXSLTFunctionSin"* @_ZN11xalanc_1_10L13s_sinFunctionE, i32 0, i32 0) }, %"struct.xalanc_1_10::XalanExtensionsInstaller::FunctionTableEntry" { i16* getelementptr inbounds ([5 x i16], [5 x i16]* @_ZN11xalanc_1_10L18s_sqrtFunctionNameE, i32 0, i32 0), %"class.xalanc_1_10::Function"* getelementptr inbounds (%"class.xalanc_1_10::XalanEXSLTFunctionSqrt", %"class.xalanc_1_10::XalanEXSLTFunctionSqrt"* @_ZN11xalanc_1_10L14s_sqrtFunctionE, i32 0, i32 0) }, %"struct.xalanc_1_10::XalanExtensionsInstaller::FunctionTableEntry" { i16* getelementptr inbounds ([4 x i16], [4 x i16]* @_ZN11xalanc_1_10L17s_tanFunctionNameE, i32 0, i32 0), %"class.xalanc_1_10::Function"* getelementptr inbounds (%"class.xalanc_1_10::XalanEXSLTFunctionTan", %"class.xalanc_1_10::XalanEXSLTFunctionTan"* @_ZN11xalanc_1_10L13s_tanFunctionE, i32 0, i32 0) }, %"struct.xalanc_1_10::XalanExtensionsInstaller::FunctionTableEntry" { i16* getelementptr inbounds ([7 x i16], [7 x i16]* @_ZN11xalanc_1_10L20s_randomFunctionNameE, i32 0, i32 0), %"class.xalanc_1_10::Function"* getelementptr inbounds (%"class.xalanc_1_10::XalanEXSLTFunctionRandom", %"class.xalanc_1_10::XalanEXSLTFunctionRandom"* @_ZN11xalanc_1_10L16s_randomFunctionE, i32 0, i32 0) }, %"struct.xalanc_1_10::XalanExtensionsInstaller::FunctionTableEntry" zeroinitializer], align 16, !dbg !1651
@_ZTVN11xalanc_1_1021XalanEXSLTFunctionAbsE = dso_local unnamed_addr constant { [11 x i8*] } { [11 x i8*] [i8* null, i8* bitcast ({ i8*, i8*, i8* }* @_ZTIN11xalanc_1_1021XalanEXSLTFunctionAbsE to i8*), i8* bitcast (void (%"class.xalanc_1_10::XalanEXSLTFunctionAbs"*)* @_ZN11xalanc_1_1021XalanEXSLTFunctionAbsD2Ev to i8*), i8* bitcast (void (%"class.xalanc_1_10::XalanEXSLTFunctionAbs"*)* @_ZN11xalanc_1_1021XalanEXSLTFunctionAbsD0Ev to i8*), i8* bitcast (void (%"class.xalanc_1_10::XObjectPtr"*, %"class.xalanc_1_10::XalanEXSLTFunctionAbs"*, %"class.xalanc_1_10::XPathExecutionContext"*, %"class.xalanc_1_10::XalanNode"*, %"class.xalanc_1_10::XalanVector"*, %"class.xercesc_2_7::Locator"*)* @_ZNK11xalanc_1_1021XalanEXSLTFunctionAbs7executeERNS_21XPathExecutionContextEPNS_9XalanNodeERKNS_11XalanVectorINS_10XObjectPtrENS_31MemoryManagedConstructionTraitsIS6_EEEEPKN11xercesc_2_77LocatorE to i8*), i8* bitcast (void (%"class.xalanc_1_10::XObjectPtr"*, %"class.xalanc_1_10::Function"*, %"class.xalanc_1_10::XPathExecutionContext"*, %"class.xalanc_1_10::XalanNode"*, %"class.xercesc_2_7::Locator"*)* @_ZNK11xalanc_1_108Function7executeERNS_21XPathExecutionContextEPNS_9XalanNodeEPKN11xercesc_2_77LocatorE to i8*), i8* bitcast (void (%"class.xalanc_1_10::XObjectPtr"*, %"class.xalanc_1_10::Function"*, %"class.xalanc_1_10::XPathExecutionContext"*, %"class.xalanc_1_10::XalanNode"*, %"class.xalanc_1_10::XObjectPtr"*, %"class.xercesc_2_7::Locator"*)* @_ZNK11xalanc_1_108Function7executeERNS_21XPathExecutionContextEPNS_9XalanNodeENS_10XObjectPtrEPKN11xercesc_2_77LocatorE to i8*), i8* bitcast (void (%"class.xalanc_1_10::XObjectPtr"*, %"class.xalanc_1_10::Function"*, %"class.xalanc_1_10::XPathExecutionContext"*, %"class.xalanc_1_10::XalanNode"*, %"class.xalanc_1_10::XObjectPtr"*, %"class.xalanc_1_10::XObjectPtr"*, %"class.xercesc_2_7::Locator"*)* @_ZNK11xalanc_1_108Function7executeERNS_21XPathExecutionContextEPNS_9XalanNodeENS_10XObjectPtrES5_PKN11xercesc_2_77LocatorE to i8*), i8* bitcast (void (%"class.xalanc_1_10::XObjectPtr"*, %"class.xalanc_1_10::Function"*, %"class.xalanc_1_10::XPathExecutionContext"*, %"class.xalanc_1_10::XalanNode"*, %"class.xalanc_1_10::XObjectPtr"*, %"class.xalanc_1_10::XObjectPtr"*, %"class.xalanc_1_10::XObjectPtr"*, %"class.xercesc_2_7::Locator"*)* @_ZNK11xalanc_1_108Function7executeERNS_21XPathExecutionContextEPNS_9XalanNodeENS_10XObjectPtrES5_S5_PKN11xercesc_2_77LocatorE to i8*), i8* bitcast (%"class.xalanc_1_10::XalanEXSLTFunctionAbs"* (%"class.xalanc_1_10::XalanEXSLTFunctionAbs"*, %"class.xercesc_2_7::MemoryManager"*)* @_ZNK11xalanc_1_1021XalanEXSLTFunctionAbs5cloneERN11xercesc_2_713MemoryManagerE to i8*), i8* bitcast (%"class.xalanc_1_10::XalanDOMString"* (%"class.xalanc_1_10::XalanEXSLTFunctionAbs"*, %"class.xalanc_1_10::XalanDOMString"*)* @_ZNK11xalanc_1_1021XalanEXSLTFunctionAbs8getErrorERNS_14XalanDOMStringE to i8*)] }, align 8
@_ZTVN10__cxxabiv120__si_class_type_infoE = external dso_local global i8*
@_ZTSN11xalanc_1_1021XalanEXSLTFunctionAbsE = dso_local constant [39 x i8] c"N11xalanc_1_1021XalanEXSLTFunctionAbsE\00", align 1
@_ZTIN11xalanc_1_108FunctionE = external dso_local constant i8*
@_ZTIN11xalanc_1_1021XalanEXSLTFunctionAbsE = dso_local constant { i8*, i8*, i8* } { i8* bitcast (i8** getelementptr inbounds (i8*, i8** @_ZTVN10__cxxabiv120__si_class_type_infoE, i64 2) to i8*), i8* getelementptr inbounds ([39 x i8], [39 x i8]* @_ZTSN11xalanc_1_1021XalanEXSLTFunctionAbsE, i32 0, i32 0), i8* bitcast (i8** @_ZTIN11xalanc_1_108FunctionE to i8*) }, align 8
@_ZTVN11xalanc_1_1024XalanEXSLTFunctionRandomE = dso_local unnamed_addr constant { [11 x i8*] } { [11 x i8*] [i8* null, i8* bitcast ({ i8*, i8*, i8* }* @_ZTIN11xalanc_1_1024XalanEXSLTFunctionRandomE to i8*), i8* bitcast (void (%"class.xalanc_1_10::XalanEXSLTFunctionRandom"*)* @_ZN11xalanc_1_1024XalanEXSLTFunctionRandomD2Ev to i8*), i8* bitcast (void (%"class.xalanc_1_10::XalanEXSLTFunctionRandom"*)* @_ZN11xalanc_1_1024XalanEXSLTFunctionRandomD0Ev to i8*), i8* bitcast (void (%"class.xalanc_1_10::XObjectPtr"*, %"class.xalanc_1_10::XalanEXSLTFunctionRandom"*, %"class.xalanc_1_10::XPathExecutionContext"*, %"class.xalanc_1_10::XalanNode"*, %"class.xalanc_1_10::XalanVector"*, %"class.xercesc_2_7::Locator"*)* @_ZNK11xalanc_1_1024XalanEXSLTFunctionRandom7executeERNS_21XPathExecutionContextEPNS_9XalanNodeERKNS_11XalanVectorINS_10XObjectPtrENS_31MemoryManagedConstructionTraitsIS6_EEEEPKN11xercesc_2_77LocatorE to i8*), i8* bitcast (void (%"class.xalanc_1_10::XObjectPtr"*, %"class.xalanc_1_10::Function"*, %"class.xalanc_1_10::XPathExecutionContext"*, %"class.xalanc_1_10::XalanNode"*, %"class.xercesc_2_7::Locator"*)* @_ZNK11xalanc_1_108Function7executeERNS_21XPathExecutionContextEPNS_9XalanNodeEPKN11xercesc_2_77LocatorE to i8*), i8* bitcast (void (%"class.xalanc_1_10::XObjectPtr"*, %"class.xalanc_1_10::Function"*, %"class.xalanc_1_10::XPathExecutionContext"*, %"class.xalanc_1_10::XalanNode"*, %"class.xalanc_1_10::XObjectPtr"*, %"class.xercesc_2_7::Locator"*)* @_ZNK11xalanc_1_108Function7executeERNS_21XPathExecutionContextEPNS_9XalanNodeENS_10XObjectPtrEPKN11xercesc_2_77LocatorE to i8*), i8* bitcast (void (%"class.xalanc_1_10::XObjectPtr"*, %"class.xalanc_1_10::Function"*, %"class.xalanc_1_10::XPathExecutionContext"*, %"class.xalanc_1_10::XalanNode"*, %"class.xalanc_1_10::XObjectPtr"*, %"class.xalanc_1_10::XObjectPtr"*, %"class.xercesc_2_7::Locator"*)* @_ZNK11xalanc_1_108Function7executeERNS_21XPathExecutionContextEPNS_9XalanNodeENS_10XObjectPtrES5_PKN11xercesc_2_77LocatorE to i8*), i8* bitcast (void (%"class.xalanc_1_10::XObjectPtr"*, %"class.xalanc_1_10::Function"*, %"class.xalanc_1_10::XPathExecutionContext"*, %"class.xalanc_1_10::XalanNode"*, %"class.xalanc_1_10::XObjectPtr"*, %"class.xalanc_1_10::XObjectPtr"*, %"class.xalanc_1_10::XObjectPtr"*, %"class.xercesc_2_7::Locator"*)* @_ZNK11xalanc_1_108Function7executeERNS_21XPathExecutionContextEPNS_9XalanNodeENS_10XObjectPtrES5_S5_PKN11xercesc_2_77LocatorE to i8*), i8* bitcast (%"class.xalanc_1_10::XalanEXSLTFunctionRandom"* (%"class.xalanc_1_10::XalanEXSLTFunctionRandom"*, %"class.xercesc_2_7::MemoryManager"*)* @_ZNK11xalanc_1_1024XalanEXSLTFunctionRandom5cloneERN11xercesc_2_713MemoryManagerE to i8*), i8* bitcast (%"class.xalanc_1_10::XalanDOMString"* (%"class.xalanc_1_10::XalanEXSLTFunctionRandom"*, %"class.xalanc_1_10::XalanDOMString"*)* @_ZNK11xalanc_1_1024XalanEXSLTFunctionRandom8getErrorERNS_14XalanDOMStringE to i8*)] }, align 8
@_ZTSN11xalanc_1_1024XalanEXSLTFunctionRandomE = dso_local constant [42 x i8] c"N11xalanc_1_1024XalanEXSLTFunctionRandomE\00", align 1
@_ZTIN11xalanc_1_1024XalanEXSLTFunctionRandomE = dso_local constant { i8*, i8*, i8* } { i8* bitcast (i8** getelementptr inbounds (i8*, i8** @_ZTVN10__cxxabiv120__si_class_type_infoE, i64 2) to i8*), i8* getelementptr inbounds ([42 x i8], [42 x i8]* @_ZTSN11xalanc_1_1024XalanEXSLTFunctionRandomE, i32 0, i32 0), i8* bitcast (i8** @_ZTIN11xalanc_1_108FunctionE to i8*) }, align 8
@_ZTVN11xalanc_1_1022XalanEXSLTFunctionAcosE = dso_local unnamed_addr constant { [11 x i8*] } { [11 x i8*] [i8* null, i8* bitcast ({ i8*, i8*, i8* }* @_ZTIN11xalanc_1_1022XalanEXSLTFunctionAcosE to i8*), i8* bitcast (void (%"class.xalanc_1_10::XalanEXSLTFunctionAcos"*)* @_ZN11xalanc_1_1022XalanEXSLTFunctionAcosD2Ev to i8*), i8* bitcast (void (%"class.xalanc_1_10::XalanEXSLTFunctionAcos"*)* @_ZN11xalanc_1_1022XalanEXSLTFunctionAcosD0Ev to i8*), i8* bitcast (void (%"class.xalanc_1_10::XObjectPtr"*, %"class.xalanc_1_10::XalanEXSLTFunctionAcos"*, %"class.xalanc_1_10::XPathExecutionContext"*, %"class.xalanc_1_10::XalanNode"*, %"class.xalanc_1_10::XalanVector"*, %"class.xercesc_2_7::Locator"*)* @_ZNK11xalanc_1_1022XalanEXSLTFunctionAcos7executeERNS_21XPathExecutionContextEPNS_9XalanNodeERKNS_11XalanVectorINS_10XObjectPtrENS_31MemoryManagedConstructionTraitsIS6_EEEEPKN11xercesc_2_77LocatorE to i8*), i8* bitcast (void (%"class.xalanc_1_10::XObjectPtr"*, %"class.xalanc_1_10::Function"*, %"class.xalanc_1_10::XPathExecutionContext"*, %"class.xalanc_1_10::XalanNode"*, %"class.xercesc_2_7::Locator"*)* @_ZNK11xalanc_1_108Function7executeERNS_21XPathExecutionContextEPNS_9XalanNodeEPKN11xercesc_2_77LocatorE to i8*), i8* bitcast (void (%"class.xalanc_1_10::XObjectPtr"*, %"class.xalanc_1_10::Function"*, %"class.xalanc_1_10::XPathExecutionContext"*, %"class.xalanc_1_10::XalanNode"*, %"class.xalanc_1_10::XObjectPtr"*, %"class.xercesc_2_7::Locator"*)* @_ZNK11xalanc_1_108Function7executeERNS_21XPathExecutionContextEPNS_9XalanNodeENS_10XObjectPtrEPKN11xercesc_2_77LocatorE to i8*), i8* bitcast (void (%"class.xalanc_1_10::XObjectPtr"*, %"class.xalanc_1_10::Function"*, %"class.xalanc_1_10::XPathExecutionContext"*, %"class.xalanc_1_10::XalanNode"*, %"class.xalanc_1_10::XObjectPtr"*, %"class.xalanc_1_10::XObjectPtr"*, %"class.xercesc_2_7::Locator"*)* @_ZNK11xalanc_1_108Function7executeERNS_21XPathExecutionContextEPNS_9XalanNodeENS_10XObjectPtrES5_PKN11xercesc_2_77LocatorE to i8*), i8* bitcast (void (%"class.xalanc_1_10::XObjectPtr"*, %"class.xalanc_1_10::Function"*, %"class.xalanc_1_10::XPathExecutionContext"*, %"class.xalanc_1_10::XalanNode"*, %"class.xalanc_1_10::XObjectPtr"*, %"class.xalanc_1_10::XObjectPtr"*, %"class.xalanc_1_10::XObjectPtr"*, %"class.xercesc_2_7::Locator"*)* @_ZNK11xalanc_1_108Function7executeERNS_21XPathExecutionContextEPNS_9XalanNodeENS_10XObjectPtrES5_S5_PKN11xercesc_2_77LocatorE to i8*), i8* bitcast (%"class.xalanc_1_10::XalanEXSLTFunctionAcos"* (%"class.xalanc_1_10::XalanEXSLTFunctionAcos"*, %"class.xercesc_2_7::MemoryManager"*)* @_ZNK11xalanc_1_1022XalanEXSLTFunctionAcos5cloneERN11xercesc_2_713MemoryManagerE to i8*), i8* bitcast (%"class.xalanc_1_10::XalanDOMString"* (%"class.xalanc_1_10::XalanEXSLTFunctionAcos"*, %"class.xalanc_1_10::XalanDOMString"*)* @_ZNK11xalanc_1_1022XalanEXSLTFunctionAcos8getErrorERNS_14XalanDOMStringE to i8*)] }, align 8
@_ZTSN11xalanc_1_1022XalanEXSLTFunctionAcosE = dso_local constant [40 x i8] c"N11xalanc_1_1022XalanEXSLTFunctionAcosE\00", align 1
@_ZTIN11xalanc_1_1022XalanEXSLTFunctionAcosE = dso_local constant { i8*, i8*, i8* } { i8* bitcast (i8** getelementptr inbounds (i8*, i8** @_ZTVN10__cxxabiv120__si_class_type_infoE, i64 2) to i8*), i8* getelementptr inbounds ([40 x i8], [40 x i8]* @_ZTSN11xalanc_1_1022XalanEXSLTFunctionAcosE, i32 0, i32 0), i8* bitcast (i8** @_ZTIN11xalanc_1_108FunctionE to i8*) }, align 8
@_ZTVN11xalanc_1_1022XalanEXSLTFunctionAsinE = dso_local unnamed_addr constant { [11 x i8*] } { [11 x i8*] [i8* null, i8* bitcast ({ i8*, i8*, i8* }* @_ZTIN11xalanc_1_1022XalanEXSLTFunctionAsinE to i8*), i8* bitcast (void (%"class.xalanc_1_10::XalanEXSLTFunctionAsin"*)* @_ZN11xalanc_1_1022XalanEXSLTFunctionAsinD2Ev to i8*), i8* bitcast (void (%"class.xalanc_1_10::XalanEXSLTFunctionAsin"*)* @_ZN11xalanc_1_1022XalanEXSLTFunctionAsinD0Ev to i8*), i8* bitcast (void (%"class.xalanc_1_10::XObjectPtr"*, %"class.xalanc_1_10::XalanEXSLTFunctionAsin"*, %"class.xalanc_1_10::XPathExecutionContext"*, %"class.xalanc_1_10::XalanNode"*, %"class.xalanc_1_10::XalanVector"*, %"class.xercesc_2_7::Locator"*)* @_ZNK11xalanc_1_1022XalanEXSLTFunctionAsin7executeERNS_21XPathExecutionContextEPNS_9XalanNodeERKNS_11XalanVectorINS_10XObjectPtrENS_31MemoryManagedConstructionTraitsIS6_EEEEPKN11xercesc_2_77LocatorE to i8*), i8* bitcast (void (%"class.xalanc_1_10::XObjectPtr"*, %"class.xalanc_1_10::Function"*, %"class.xalanc_1_10::XPathExecutionContext"*, %"class.xalanc_1_10::XalanNode"*, %"class.xercesc_2_7::Locator"*)* @_ZNK11xalanc_1_108Function7executeERNS_21XPathExecutionContextEPNS_9XalanNodeEPKN11xercesc_2_77LocatorE to i8*), i8* bitcast (void (%"class.xalanc_1_10::XObjectPtr"*, %"class.xalanc_1_10::Function"*, %"class.xalanc_1_10::XPathExecutionContext"*, %"class.xalanc_1_10::XalanNode"*, %"class.xalanc_1_10::XObjectPtr"*, %"class.xercesc_2_7::Locator"*)* @_ZNK11xalanc_1_108Function7executeERNS_21XPathExecutionContextEPNS_9XalanNodeENS_10XObjectPtrEPKN11xercesc_2_77LocatorE to i8*), i8* bitcast (void (%"class.xalanc_1_10::XObjectPtr"*, %"class.xalanc_1_10::Function"*, %"class.xalanc_1_10::XPathExecutionContext"*, %"class.xalanc_1_10::XalanNode"*, %"class.xalanc_1_10::XObjectPtr"*, %"class.xalanc_1_10::XObjectPtr"*, %"class.xercesc_2_7::Locator"*)* @_ZNK11xalanc_1_108Function7executeERNS_21XPathExecutionContextEPNS_9XalanNodeENS_10XObjectPtrES5_PKN11xercesc_2_77LocatorE to i8*), i8* bitcast (void (%"class.xalanc_1_10::XObjectPtr"*, %"class.xalanc_1_10::Function"*, %"class.xalanc_1_10::XPathExecutionContext"*, %"class.xalanc_1_10::XalanNode"*, %"class.xalanc_1_10::XObjectPtr"*, %"class.xalanc_1_10::XObjectPtr"*, %"class.xalanc_1_10::XObjectPtr"*, %"class.xercesc_2_7::Locator"*)* @_ZNK11xalanc_1_108Function7executeERNS_21XPathExecutionContextEPNS_9XalanNodeENS_10XObjectPtrES5_S5_PKN11xercesc_2_77LocatorE to i8*), i8* bitcast (%"class.xalanc_1_10::XalanEXSLTFunctionAsin"* (%"class.xalanc_1_10::XalanEXSLTFunctionAsin"*, %"class.xercesc_2_7::MemoryManager"*)* @_ZNK11xalanc_1_1022XalanEXSLTFunctionAsin5cloneERN11xercesc_2_713MemoryManagerE to i8*), i8* bitcast (%"class.xalanc_1_10::XalanDOMString"* (%"class.xalanc_1_10::XalanEXSLTFunctionAsin"*, %"class.xalanc_1_10::XalanDOMString"*)* @_ZNK11xalanc_1_1022XalanEXSLTFunctionAsin8getErrorERNS_14XalanDOMStringE to i8*)] }, align 8
@_ZTSN11xalanc_1_1022XalanEXSLTFunctionAsinE = dso_local constant [40 x i8] c"N11xalanc_1_1022XalanEXSLTFunctionAsinE\00", align 1
@_ZTIN11xalanc_1_1022XalanEXSLTFunctionAsinE = dso_local constant { i8*, i8*, i8* } { i8* bitcast (i8** getelementptr inbounds (i8*, i8** @_ZTVN10__cxxabiv120__si_class_type_infoE, i64 2) to i8*), i8* getelementptr inbounds ([40 x i8], [40 x i8]* @_ZTSN11xalanc_1_1022XalanEXSLTFunctionAsinE, i32 0, i32 0), i8* bitcast (i8** @_ZTIN11xalanc_1_108FunctionE to i8*) }, align 8
@_ZTVN11xalanc_1_1022XalanEXSLTFunctionAtanE = dso_local unnamed_addr constant { [11 x i8*] } { [11 x i8*] [i8* null, i8* bitcast ({ i8*, i8*, i8* }* @_ZTIN11xalanc_1_1022XalanEXSLTFunctionAtanE to i8*), i8* bitcast (void (%"class.xalanc_1_10::XalanEXSLTFunctionAtan"*)* @_ZN11xalanc_1_1022XalanEXSLTFunctionAtanD2Ev to i8*), i8* bitcast (void (%"class.xalanc_1_10::XalanEXSLTFunctionAtan"*)* @_ZN11xalanc_1_1022XalanEXSLTFunctionAtanD0Ev to i8*), i8* bitcast (void (%"class.xalanc_1_10::XObjectPtr"*, %"class.xalanc_1_10::XalanEXSLTFunctionAtan"*, %"class.xalanc_1_10::XPathExecutionContext"*, %"class.xalanc_1_10::XalanNode"*, %"class.xalanc_1_10::XalanVector"*, %"class.xercesc_2_7::Locator"*)* @_ZNK11xalanc_1_1022XalanEXSLTFunctionAtan7executeERNS_21XPathExecutionContextEPNS_9XalanNodeERKNS_11XalanVectorINS_10XObjectPtrENS_31MemoryManagedConstructionTraitsIS6_EEEEPKN11xercesc_2_77LocatorE to i8*), i8* bitcast (void (%"class.xalanc_1_10::XObjectPtr"*, %"class.xalanc_1_10::Function"*, %"class.xalanc_1_10::XPathExecutionContext"*, %"class.xalanc_1_10::XalanNode"*, %"class.xercesc_2_7::Locator"*)* @_ZNK11xalanc_1_108Function7executeERNS_21XPathExecutionContextEPNS_9XalanNodeEPKN11xercesc_2_77LocatorE to i8*), i8* bitcast (void (%"class.xalanc_1_10::XObjectPtr"*, %"class.xalanc_1_10::Function"*, %"class.xalanc_1_10::XPathExecutionContext"*, %"class.xalanc_1_10::XalanNode"*, %"class.xalanc_1_10::XObjectPtr"*, %"class.xercesc_2_7::Locator"*)* @_ZNK11xalanc_1_108Function7executeERNS_21XPathExecutionContextEPNS_9XalanNodeENS_10XObjectPtrEPKN11xercesc_2_77LocatorE to i8*), i8* bitcast (void (%"class.xalanc_1_10::XObjectPtr"*, %"class.xalanc_1_10::Function"*, %"class.xalanc_1_10::XPathExecutionContext"*, %"class.xalanc_1_10::XalanNode"*, %"class.xalanc_1_10::XObjectPtr"*, %"class.xalanc_1_10::XObjectPtr"*, %"class.xercesc_2_7::Locator"*)* @_ZNK11xalanc_1_108Function7executeERNS_21XPathExecutionContextEPNS_9XalanNodeENS_10XObjectPtrES5_PKN11xercesc_2_77LocatorE to i8*), i8* bitcast (void (%"class.xalanc_1_10::XObjectPtr"*, %"class.xalanc_1_10::Function"*, %"class.xalanc_1_10::XPathExecutionContext"*, %"class.xalanc_1_10::XalanNode"*, %"class.xalanc_1_10::XObjectPtr"*, %"class.xalanc_1_10::XObjectPtr"*, %"class.xalanc_1_10::XObjectPtr"*, %"class.xercesc_2_7::Locator"*)* @_ZNK11xalanc_1_108Function7executeERNS_21XPathExecutionContextEPNS_9XalanNodeENS_10XObjectPtrES5_S5_PKN11xercesc_2_77LocatorE to i8*), i8* bitcast (%"class.xalanc_1_10::XalanEXSLTFunctionAtan"* (%"class.xalanc_1_10::XalanEXSLTFunctionAtan"*, %"class.xercesc_2_7::MemoryManager"*)* @_ZNK11xalanc_1_1022XalanEXSLTFunctionAtan5cloneERN11xercesc_2_713MemoryManagerE to i8*), i8* bitcast (%"class.xalanc_1_10::XalanDOMString"* (%"class.xalanc_1_10::XalanEXSLTFunctionAtan"*, %"class.xalanc_1_10::XalanDOMString"*)* @_ZNK11xalanc_1_1022XalanEXSLTFunctionAtan8getErrorERNS_14XalanDOMStringE to i8*)] }, align 8
@_ZTSN11xalanc_1_1022XalanEXSLTFunctionAtanE = dso_local constant [40 x i8] c"N11xalanc_1_1022XalanEXSLTFunctionAtanE\00", align 1
@_ZTIN11xalanc_1_1022XalanEXSLTFunctionAtanE = dso_local constant { i8*, i8*, i8* } { i8* bitcast (i8** getelementptr inbounds (i8*, i8** @_ZTVN10__cxxabiv120__si_class_type_infoE, i64 2) to i8*), i8* getelementptr inbounds ([40 x i8], [40 x i8]* @_ZTSN11xalanc_1_1022XalanEXSLTFunctionAtanE, i32 0, i32 0), i8* bitcast (i8** @_ZTIN11xalanc_1_108FunctionE to i8*) }, align 8
@_ZTVN11xalanc_1_1023XalanEXSLTFunctionAtan2E = dso_local unnamed_addr constant { [11 x i8*] } { [11 x i8*] [i8* null, i8* bitcast ({ i8*, i8*, i8* }* @_ZTIN11xalanc_1_1023XalanEXSLTFunctionAtan2E to i8*), i8* bitcast (void (%"class.xalanc_1_10::XalanEXSLTFunctionAtan2"*)* @_ZN11xalanc_1_1023XalanEXSLTFunctionAtan2D2Ev to i8*), i8* bitcast (void (%"class.xalanc_1_10::XalanEXSLTFunctionAtan2"*)* @_ZN11xalanc_1_1023XalanEXSLTFunctionAtan2D0Ev to i8*), i8* bitcast (void (%"class.xalanc_1_10::XObjectPtr"*, %"class.xalanc_1_10::XalanEXSLTFunctionAtan2"*, %"class.xalanc_1_10::XPathExecutionContext"*, %"class.xalanc_1_10::XalanNode"*, %"class.xalanc_1_10::XalanVector"*, %"class.xercesc_2_7::Locator"*)* @_ZNK11xalanc_1_1023XalanEXSLTFunctionAtan27executeERNS_21XPathExecutionContextEPNS_9XalanNodeERKNS_11XalanVectorINS_10XObjectPtrENS_31MemoryManagedConstructionTraitsIS6_EEEEPKN11xercesc_2_77LocatorE to i8*), i8* bitcast (void (%"class.xalanc_1_10::XObjectPtr"*, %"class.xalanc_1_10::Function"*, %"class.xalanc_1_10::XPathExecutionContext"*, %"class.xalanc_1_10::XalanNode"*, %"class.xercesc_2_7::Locator"*)* @_ZNK11xalanc_1_108Function7executeERNS_21XPathExecutionContextEPNS_9XalanNodeEPKN11xercesc_2_77LocatorE to i8*), i8* bitcast (void (%"class.xalanc_1_10::XObjectPtr"*, %"class.xalanc_1_10::Function"*, %"class.xalanc_1_10::XPathExecutionContext"*, %"class.xalanc_1_10::XalanNode"*, %"class.xalanc_1_10::XObjectPtr"*, %"class.xercesc_2_7::Locator"*)* @_ZNK11xalanc_1_108Function7executeERNS_21XPathExecutionContextEPNS_9XalanNodeENS_10XObjectPtrEPKN11xercesc_2_77LocatorE to i8*), i8* bitcast (void (%"class.xalanc_1_10::XObjectPtr"*, %"class.xalanc_1_10::Function"*, %"class.xalanc_1_10::XPathExecutionContext"*, %"class.xalanc_1_10::XalanNode"*, %"class.xalanc_1_10::XObjectPtr"*, %"class.xalanc_1_10::XObjectPtr"*, %"class.xercesc_2_7::Locator"*)* @_ZNK11xalanc_1_108Function7executeERNS_21XPathExecutionContextEPNS_9XalanNodeENS_10XObjectPtrES5_PKN11xercesc_2_77LocatorE to i8*), i8* bitcast (void (%"class.xalanc_1_10::XObjectPtr"*, %"class.xalanc_1_10::Function"*, %"class.xalanc_1_10::XPathExecutionContext"*, %"class.xalanc_1_10::XalanNode"*, %"class.xalanc_1_10::XObjectPtr"*, %"class.xalanc_1_10::XObjectPtr"*, %"class.xalanc_1_10::XObjectPtr"*, %"class.xercesc_2_7::Locator"*)* @_ZNK11xalanc_1_108Function7executeERNS_21XPathExecutionContextEPNS_9XalanNodeENS_10XObjectPtrES5_S5_PKN11xercesc_2_77LocatorE to i8*), i8* bitcast (%"class.xalanc_1_10::XalanEXSLTFunctionAtan2"* (%"class.xalanc_1_10::XalanEXSLTFunctionAtan2"*, %"class.xercesc_2_7::MemoryManager"*)* @_ZNK11xalanc_1_1023XalanEXSLTFunctionAtan25cloneERN11xercesc_2_713MemoryManagerE to i8*), i8* bitcast (%"class.xalanc_1_10::XalanDOMString"* (%"class.xalanc_1_10::XalanEXSLTFunctionAtan2"*, %"class.xalanc_1_10::XalanDOMString"*)* @_ZNK11xalanc_1_1023XalanEXSLTFunctionAtan28getErrorERNS_14XalanDOMStringE to i8*)] }, align 8
@_ZTSN11xalanc_1_1023XalanEXSLTFunctionAtan2E = dso_local constant [41 x i8] c"N11xalanc_1_1023XalanEXSLTFunctionAtan2E\00", align 1
@_ZTIN11xalanc_1_1023XalanEXSLTFunctionAtan2E = dso_local constant { i8*, i8*, i8* } { i8* bitcast (i8** getelementptr inbounds (i8*, i8** @_ZTVN10__cxxabiv120__si_class_type_infoE, i64 2) to i8*), i8* getelementptr inbounds ([41 x i8], [41 x i8]* @_ZTSN11xalanc_1_1023XalanEXSLTFunctionAtan2E, i32 0, i32 0), i8* bitcast (i8** @_ZTIN11xalanc_1_108FunctionE to i8*) }, align 8
@_ZTVN11xalanc_1_1026XalanEXSLTFunctionConstantE = dso_local unnamed_addr constant { [11 x i8*] } { [11 x i8*] [i8* null, i8* bitcast ({ i8*, i8*, i8* }* @_ZTIN11xalanc_1_1026XalanEXSLTFunctionConstantE to i8*), i8* bitcast (void (%"class.xalanc_1_10::XalanEXSLTFunctionConstant"*)* @_ZN11xalanc_1_1026XalanEXSLTFunctionConstantD2Ev to i8*), i8* bitcast (void (%"class.xalanc_1_10::XalanEXSLTFunctionConstant"*)* @_ZN11xalanc_1_1026XalanEXSLTFunctionConstantD0Ev to i8*), i8* bitcast (void (%"class.xalanc_1_10::XObjectPtr"*, %"class.xalanc_1_10::XalanEXSLTFunctionConstant"*, %"class.xalanc_1_10::XPathExecutionContext"*, %"class.xalanc_1_10::XalanNode"*, %"class.xalanc_1_10::XalanVector"*, %"class.xercesc_2_7::Locator"*)* @_ZNK11xalanc_1_1026XalanEXSLTFunctionConstant7executeERNS_21XPathExecutionContextEPNS_9XalanNodeERKNS_11XalanVectorINS_10XObjectPtrENS_31MemoryManagedConstructionTraitsIS6_EEEEPKN11xercesc_2_77LocatorE to i8*), i8* bitcast (void (%"class.xalanc_1_10::XObjectPtr"*, %"class.xalanc_1_10::Function"*, %"class.xalanc_1_10::XPathExecutionContext"*, %"class.xalanc_1_10::XalanNode"*, %"class.xercesc_2_7::Locator"*)* @_ZNK11xalanc_1_108Function7executeERNS_21XPathExecutionContextEPNS_9XalanNodeEPKN11xercesc_2_77LocatorE to i8*), i8* bitcast (void (%"class.xalanc_1_10::XObjectPtr"*, %"class.xalanc_1_10::Function"*, %"class.xalanc_1_10::XPathExecutionContext"*, %"class.xalanc_1_10::XalanNode"*, %"class.xalanc_1_10::XObjectPtr"*, %"class.xercesc_2_7::Locator"*)* @_ZNK11xalanc_1_108Function7executeERNS_21XPathExecutionContextEPNS_9XalanNodeENS_10XObjectPtrEPKN11xercesc_2_77LocatorE to i8*), i8* bitcast (void (%"class.xalanc_1_10::XObjectPtr"*, %"class.xalanc_1_10::Function"*, %"class.xalanc_1_10::XPathExecutionContext"*, %"class.xalanc_1_10::XalanNode"*, %"class.xalanc_1_10::XObjectPtr"*, %"class.xalanc_1_10::XObjectPtr"*, %"class.xercesc_2_7::Locator"*)* @_ZNK11xalanc_1_108Function7executeERNS_21XPathExecutionContextEPNS_9XalanNodeENS_10XObjectPtrES5_PKN11xercesc_2_77LocatorE to i8*), i8* bitcast (void (%"class.xalanc_1_10::XObjectPtr"*, %"class.xalanc_1_10::Function"*, %"class.xalanc_1_10::XPathExecutionContext"*, %"class.xalanc_1_10::XalanNode"*, %"class.xalanc_1_10::XObjectPtr"*, %"class.xalanc_1_10::XObjectPtr"*, %"class.xalanc_1_10::XObjectPtr"*, %"class.xercesc_2_7::Locator"*)* @_ZNK11xalanc_1_108Function7executeERNS_21XPathExecutionContextEPNS_9XalanNodeENS_10XObjectPtrES5_S5_PKN11xercesc_2_77LocatorE to i8*), i8* bitcast (%"class.xalanc_1_10::XalanEXSLTFunctionConstant"* (%"class.xalanc_1_10::XalanEXSLTFunctionConstant"*, %"class.xercesc_2_7::MemoryManager"*)* @_ZNK11xalanc_1_1026XalanEXSLTFunctionConstant5cloneERN11xercesc_2_713MemoryManagerE to i8*), i8* bitcast (%"class.xalanc_1_10::XalanDOMString"* (%"class.xalanc_1_10::XalanEXSLTFunctionConstant"*, %"class.xalanc_1_10::XalanDOMString"*)* @_ZNK11xalanc_1_1026XalanEXSLTFunctionConstant8getErrorERNS_14XalanDOMStringE to i8*)] }, align 8
@_ZTSN11xalanc_1_1026XalanEXSLTFunctionConstantE = dso_local constant [44 x i8] c"N11xalanc_1_1026XalanEXSLTFunctionConstantE\00", align 1
@_ZTIN11xalanc_1_1026XalanEXSLTFunctionConstantE = dso_local constant { i8*, i8*, i8* } { i8* bitcast (i8** getelementptr inbounds (i8*, i8** @_ZTVN10__cxxabiv120__si_class_type_infoE, i64 2) to i8*), i8* getelementptr inbounds ([44 x i8], [44 x i8]* @_ZTSN11xalanc_1_1026XalanEXSLTFunctionConstantE, i32 0, i32 0), i8* bitcast (i8** @_ZTIN11xalanc_1_108FunctionE to i8*) }, align 8
@_ZTVN11xalanc_1_1021XalanEXSLTFunctionCosE = dso_local unnamed_addr constant { [11 x i8*] } { [11 x i8*] [i8* null, i8* bitcast ({ i8*, i8*, i8* }* @_ZTIN11xalanc_1_1021XalanEXSLTFunctionCosE to i8*), i8* bitcast (void (%"class.xalanc_1_10::XalanEXSLTFunctionCos"*)* @_ZN11xalanc_1_1021XalanEXSLTFunctionCosD2Ev to i8*), i8* bitcast (void (%"class.xalanc_1_10::XalanEXSLTFunctionCos"*)* @_ZN11xalanc_1_1021XalanEXSLTFunctionCosD0Ev to i8*), i8* bitcast (void (%"class.xalanc_1_10::XObjectPtr"*, %"class.xalanc_1_10::XalanEXSLTFunctionCos"*, %"class.xalanc_1_10::XPathExecutionContext"*, %"class.xalanc_1_10::XalanNode"*, %"class.xalanc_1_10::XalanVector"*, %"class.xercesc_2_7::Locator"*)* @_ZNK11xalanc_1_1021XalanEXSLTFunctionCos7executeERNS_21XPathExecutionContextEPNS_9XalanNodeERKNS_11XalanVectorINS_10XObjectPtrENS_31MemoryManagedConstructionTraitsIS6_EEEEPKN11xercesc_2_77LocatorE to i8*), i8* bitcast (void (%"class.xalanc_1_10::XObjectPtr"*, %"class.xalanc_1_10::Function"*, %"class.xalanc_1_10::XPathExecutionContext"*, %"class.xalanc_1_10::XalanNode"*, %"class.xercesc_2_7::Locator"*)* @_ZNK11xalanc_1_108Function7executeERNS_21XPathExecutionContextEPNS_9XalanNodeEPKN11xercesc_2_77LocatorE to i8*), i8* bitcast (void (%"class.xalanc_1_10::XObjectPtr"*, %"class.xalanc_1_10::Function"*, %"class.xalanc_1_10::XPathExecutionContext"*, %"class.xalanc_1_10::XalanNode"*, %"class.xalanc_1_10::XObjectPtr"*, %"class.xercesc_2_7::Locator"*)* @_ZNK11xalanc_1_108Function7executeERNS_21XPathExecutionContextEPNS_9XalanNodeENS_10XObjectPtrEPKN11xercesc_2_77LocatorE to i8*), i8* bitcast (void (%"class.xalanc_1_10::XObjectPtr"*, %"class.xalanc_1_10::Function"*, %"class.xalanc_1_10::XPathExecutionContext"*, %"class.xalanc_1_10::XalanNode"*, %"class.xalanc_1_10::XObjectPtr"*, %"class.xalanc_1_10::XObjectPtr"*, %"class.xercesc_2_7::Locator"*)* @_ZNK11xalanc_1_108Function7executeERNS_21XPathExecutionContextEPNS_9XalanNodeENS_10XObjectPtrES5_PKN11xercesc_2_77LocatorE to i8*), i8* bitcast (void (%"class.xalanc_1_10::XObjectPtr"*, %"class.xalanc_1_10::Function"*, %"class.xalanc_1_10::XPathExecutionContext"*, %"class.xalanc_1_10::XalanNode"*, %"class.xalanc_1_10::XObjectPtr"*, %"class.xalanc_1_10::XObjectPtr"*, %"class.xalanc_1_10::XObjectPtr"*, %"class.xercesc_2_7::Locator"*)* @_ZNK11xalanc_1_108Function7executeERNS_21XPathExecutionContextEPNS_9XalanNodeENS_10XObjectPtrES5_S5_PKN11xercesc_2_77LocatorE to i8*), i8* bitcast (%"class.xalanc_1_10::XalanEXSLTFunctionCos"* (%"class.xalanc_1_10::XalanEXSLTFunctionCos"*, %"class.xercesc_2_7::MemoryManager"*)* @_ZNK11xalanc_1_1021XalanEXSLTFunctionCos5cloneERN11xercesc_2_713MemoryManagerE to i8*), i8* bitcast (%"class.xalanc_1_10::XalanDOMString"* (%"class.xalanc_1_10::XalanEXSLTFunctionCos"*, %"class.xalanc_1_10::XalanDOMString"*)* @_ZNK11xalanc_1_1021XalanEXSLTFunctionCos8getErrorERNS_14XalanDOMStringE to i8*)] }, align 8
@_ZTSN11xalanc_1_1021XalanEXSLTFunctionCosE = dso_local constant [39 x i8] c"N11xalanc_1_1021XalanEXSLTFunctionCosE\00", align 1
@_ZTIN11xalanc_1_1021XalanEXSLTFunctionCosE = dso_local constant { i8*, i8*, i8* } { i8* bitcast (i8** getelementptr inbounds (i8*, i8** @_ZTVN10__cxxabiv120__si_class_type_infoE, i64 2) to i8*), i8* getelementptr inbounds ([39 x i8], [39 x i8]* @_ZTSN11xalanc_1_1021XalanEXSLTFunctionCosE, i32 0, i32 0), i8* bitcast (i8** @_ZTIN11xalanc_1_108FunctionE to i8*) }, align 8
@_ZTVN11xalanc_1_1021XalanEXSLTFunctionExpE = dso_local unnamed_addr constant { [11 x i8*] } { [11 x i8*] [i8* null, i8* bitcast ({ i8*, i8*, i8* }* @_ZTIN11xalanc_1_1021XalanEXSLTFunctionExpE to i8*), i8* bitcast (void (%"class.xalanc_1_10::XalanEXSLTFunctionExp"*)* @_ZN11xalanc_1_1021XalanEXSLTFunctionExpD2Ev to i8*), i8* bitcast (void (%"class.xalanc_1_10::XalanEXSLTFunctionExp"*)* @_ZN11xalanc_1_1021XalanEXSLTFunctionExpD0Ev to i8*), i8* bitcast (void (%"class.xalanc_1_10::XObjectPtr"*, %"class.xalanc_1_10::XalanEXSLTFunctionExp"*, %"class.xalanc_1_10::XPathExecutionContext"*, %"class.xalanc_1_10::XalanNode"*, %"class.xalanc_1_10::XalanVector"*, %"class.xercesc_2_7::Locator"*)* @_ZNK11xalanc_1_1021XalanEXSLTFunctionExp7executeERNS_21XPathExecutionContextEPNS_9XalanNodeERKNS_11XalanVectorINS_10XObjectPtrENS_31MemoryManagedConstructionTraitsIS6_EEEEPKN11xercesc_2_77LocatorE to i8*), i8* bitcast (void (%"class.xalanc_1_10::XObjectPtr"*, %"class.xalanc_1_10::Function"*, %"class.xalanc_1_10::XPathExecutionContext"*, %"class.xalanc_1_10::XalanNode"*, %"class.xercesc_2_7::Locator"*)* @_ZNK11xalanc_1_108Function7executeERNS_21XPathExecutionContextEPNS_9XalanNodeEPKN11xercesc_2_77LocatorE to i8*), i8* bitcast (void (%"class.xalanc_1_10::XObjectPtr"*, %"class.xalanc_1_10::Function"*, %"class.xalanc_1_10::XPathExecutionContext"*, %"class.xalanc_1_10::XalanNode"*, %"class.xalanc_1_10::XObjectPtr"*, %"class.xercesc_2_7::Locator"*)* @_ZNK11xalanc_1_108Function7executeERNS_21XPathExecutionContextEPNS_9XalanNodeENS_10XObjectPtrEPKN11xercesc_2_77LocatorE to i8*), i8* bitcast (void (%"class.xalanc_1_10::XObjectPtr"*, %"class.xalanc_1_10::Function"*, %"class.xalanc_1_10::XPathExecutionContext"*, %"class.xalanc_1_10::XalanNode"*, %"class.xalanc_1_10::XObjectPtr"*, %"class.xalanc_1_10::XObjectPtr"*, %"class.xercesc_2_7::Locator"*)* @_ZNK11xalanc_1_108Function7executeERNS_21XPathExecutionContextEPNS_9XalanNodeENS_10XObjectPtrES5_PKN11xercesc_2_77LocatorE to i8*), i8* bitcast (void (%"class.xalanc_1_10::XObjectPtr"*, %"class.xalanc_1_10::Function"*, %"class.xalanc_1_10::XPathExecutionContext"*, %"class.xalanc_1_10::XalanNode"*, %"class.xalanc_1_10::XObjectPtr"*, %"class.xalanc_1_10::XObjectPtr"*, %"class.xalanc_1_10::XObjectPtr"*, %"class.xercesc_2_7::Locator"*)* @_ZNK11xalanc_1_108Function7executeERNS_21XPathExecutionContextEPNS_9XalanNodeENS_10XObjectPtrES5_S5_PKN11xercesc_2_77LocatorE to i8*), i8* bitcast (%"class.xalanc_1_10::XalanEXSLTFunctionExp"* (%"class.xalanc_1_10::XalanEXSLTFunctionExp"*, %"class.xercesc_2_7::MemoryManager"*)* @_ZNK11xalanc_1_1021XalanEXSLTFunctionExp5cloneERN11xercesc_2_713MemoryManagerE to i8*), i8* bitcast (%"class.xalanc_1_10::XalanDOMString"* (%"class.xalanc_1_10::XalanEXSLTFunctionExp"*, %"class.xalanc_1_10::XalanDOMString"*)* @_ZNK11xalanc_1_1021XalanEXSLTFunctionExp8getErrorERNS_14XalanDOMStringE to i8*)] }, align 8
@_ZTSN11xalanc_1_1021XalanEXSLTFunctionExpE = dso_local constant [39 x i8] c"N11xalanc_1_1021XalanEXSLTFunctionExpE\00", align 1
@_ZTIN11xalanc_1_1021XalanEXSLTFunctionExpE = dso_local constant { i8*, i8*, i8* } { i8* bitcast (i8** getelementptr inbounds (i8*, i8** @_ZTVN10__cxxabiv120__si_class_type_infoE, i64 2) to i8*), i8* getelementptr inbounds ([39 x i8], [39 x i8]* @_ZTSN11xalanc_1_1021XalanEXSLTFunctionExpE, i32 0, i32 0), i8* bitcast (i8** @_ZTIN11xalanc_1_108FunctionE to i8*) }, align 8
@_ZTVN11xalanc_1_1025XalanEXSLTFunctionHighestE = dso_local unnamed_addr constant { [11 x i8*] } { [11 x i8*] [i8* null, i8* bitcast ({ i8*, i8*, i8* }* @_ZTIN11xalanc_1_1025XalanEXSLTFunctionHighestE to i8*), i8* bitcast (void (%"class.xalanc_1_10::XalanEXSLTFunctionHighest"*)* @_ZN11xalanc_1_1025XalanEXSLTFunctionHighestD2Ev to i8*), i8* bitcast (void (%"class.xalanc_1_10::XalanEXSLTFunctionHighest"*)* @_ZN11xalanc_1_1025XalanEXSLTFunctionHighestD0Ev to i8*), i8* bitcast (void (%"class.xalanc_1_10::XObjectPtr"*, %"class.xalanc_1_10::XalanEXSLTFunctionHighest"*, %"class.xalanc_1_10::XPathExecutionContext"*, %"class.xalanc_1_10::XalanNode"*, %"class.xalanc_1_10::XalanVector"*, %"class.xercesc_2_7::Locator"*)* @_ZNK11xalanc_1_1025XalanEXSLTFunctionHighest7executeERNS_21XPathExecutionContextEPNS_9XalanNodeERKNS_11XalanVectorINS_10XObjectPtrENS_31MemoryManagedConstructionTraitsIS6_EEEEPKN11xercesc_2_77LocatorE to i8*), i8* bitcast (void (%"class.xalanc_1_10::XObjectPtr"*, %"class.xalanc_1_10::Function"*, %"class.xalanc_1_10::XPathExecutionContext"*, %"class.xalanc_1_10::XalanNode"*, %"class.xercesc_2_7::Locator"*)* @_ZNK11xalanc_1_108Function7executeERNS_21XPathExecutionContextEPNS_9XalanNodeEPKN11xercesc_2_77LocatorE to i8*), i8* bitcast (void (%"class.xalanc_1_10::XObjectPtr"*, %"class.xalanc_1_10::Function"*, %"class.xalanc_1_10::XPathExecutionContext"*, %"class.xalanc_1_10::XalanNode"*, %"class.xalanc_1_10::XObjectPtr"*, %"class.xercesc_2_7::Locator"*)* @_ZNK11xalanc_1_108Function7executeERNS_21XPathExecutionContextEPNS_9XalanNodeENS_10XObjectPtrEPKN11xercesc_2_77LocatorE to i8*), i8* bitcast (void (%"class.xalanc_1_10::XObjectPtr"*, %"class.xalanc_1_10::Function"*, %"class.xalanc_1_10::XPathExecutionContext"*, %"class.xalanc_1_10::XalanNode"*, %"class.xalanc_1_10::XObjectPtr"*, %"class.xalanc_1_10::XObjectPtr"*, %"class.xercesc_2_7::Locator"*)* @_ZNK11xalanc_1_108Function7executeERNS_21XPathExecutionContextEPNS_9XalanNodeENS_10XObjectPtrES5_PKN11xercesc_2_77LocatorE to i8*), i8* bitcast (void (%"class.xalanc_1_10::XObjectPtr"*, %"class.xalanc_1_10::Function"*, %"class.xalanc_1_10::XPathExecutionContext"*, %"class.xalanc_1_10::XalanNode"*, %"class.xalanc_1_10::XObjectPtr"*, %"class.xalanc_1_10::XObjectPtr"*, %"class.xalanc_1_10::XObjectPtr"*, %"class.xercesc_2_7::Locator"*)* @_ZNK11xalanc_1_108Function7executeERNS_21XPathExecutionContextEPNS_9XalanNodeENS_10XObjectPtrES5_S5_PKN11xercesc_2_77LocatorE to i8*), i8* bitcast (%"class.xalanc_1_10::XalanEXSLTFunctionHighest"* (%"class.xalanc_1_10::XalanEXSLTFunctionHighest"*, %"class.xercesc_2_7::MemoryManager"*)* @_ZNK11xalanc_1_1025XalanEXSLTFunctionHighest5cloneERN11xercesc_2_713MemoryManagerE to i8*), i8* bitcast (%"class.xalanc_1_10::XalanDOMString"* (%"class.xalanc_1_10::XalanEXSLTFunctionHighest"*, %"class.xalanc_1_10::XalanDOMString"*)* @_ZNK11xalanc_1_1025XalanEXSLTFunctionHighest8getErrorERNS_14XalanDOMStringE to i8*)] }, align 8
@_ZTSN11xalanc_1_1025XalanEXSLTFunctionHighestE = dso_local constant [43 x i8] c"N11xalanc_1_1025XalanEXSLTFunctionHighestE\00", align 1
@_ZTIN11xalanc_1_1025XalanEXSLTFunctionHighestE = dso_local constant { i8*, i8*, i8* } { i8* bitcast (i8** getelementptr inbounds (i8*, i8** @_ZTVN10__cxxabiv120__si_class_type_infoE, i64 2) to i8*), i8* getelementptr inbounds ([43 x i8], [43 x i8]* @_ZTSN11xalanc_1_1025XalanEXSLTFunctionHighestE, i32 0, i32 0), i8* bitcast (i8** @_ZTIN11xalanc_1_108FunctionE to i8*) }, align 8
@_ZTVN11xalanc_1_1021XalanEXSLTFunctionLogE = dso_local unnamed_addr constant { [11 x i8*] } { [11 x i8*] [i8* null, i8* bitcast ({ i8*, i8*, i8* }* @_ZTIN11xalanc_1_1021XalanEXSLTFunctionLogE to i8*), i8* bitcast (void (%"class.xalanc_1_10::XalanEXSLTFunctionLog"*)* @_ZN11xalanc_1_1021XalanEXSLTFunctionLogD2Ev to i8*), i8* bitcast (void (%"class.xalanc_1_10::XalanEXSLTFunctionLog"*)* @_ZN11xalanc_1_1021XalanEXSLTFunctionLogD0Ev to i8*), i8* bitcast (void (%"class.xalanc_1_10::XObjectPtr"*, %"class.xalanc_1_10::XalanEXSLTFunctionLog"*, %"class.xalanc_1_10::XPathExecutionContext"*, %"class.xalanc_1_10::XalanNode"*, %"class.xalanc_1_10::XalanVector"*, %"class.xercesc_2_7::Locator"*)* @_ZNK11xalanc_1_1021XalanEXSLTFunctionLog7executeERNS_21XPathExecutionContextEPNS_9XalanNodeERKNS_11XalanVectorINS_10XObjectPtrENS_31MemoryManagedConstructionTraitsIS6_EEEEPKN11xercesc_2_77LocatorE to i8*), i8* bitcast (void (%"class.xalanc_1_10::XObjectPtr"*, %"class.xalanc_1_10::Function"*, %"class.xalanc_1_10::XPathExecutionContext"*, %"class.xalanc_1_10::XalanNode"*, %"class.xercesc_2_7::Locator"*)* @_ZNK11xalanc_1_108Function7executeERNS_21XPathExecutionContextEPNS_9XalanNodeEPKN11xercesc_2_77LocatorE to i8*), i8* bitcast (void (%"class.xalanc_1_10::XObjectPtr"*, %"class.xalanc_1_10::Function"*, %"class.xalanc_1_10::XPathExecutionContext"*, %"class.xalanc_1_10::XalanNode"*, %"class.xalanc_1_10::XObjectPtr"*, %"class.xercesc_2_7::Locator"*)* @_ZNK11xalanc_1_108Function7executeERNS_21XPathExecutionContextEPNS_9XalanNodeENS_10XObjectPtrEPKN11xercesc_2_77LocatorE to i8*), i8* bitcast (void (%"class.xalanc_1_10::XObjectPtr"*, %"class.xalanc_1_10::Function"*, %"class.xalanc_1_10::XPathExecutionContext"*, %"class.xalanc_1_10::XalanNode"*, %"class.xalanc_1_10::XObjectPtr"*, %"class.xalanc_1_10::XObjectPtr"*, %"class.xercesc_2_7::Locator"*)* @_ZNK11xalanc_1_108Function7executeERNS_21XPathExecutionContextEPNS_9XalanNodeENS_10XObjectPtrES5_PKN11xercesc_2_77LocatorE to i8*), i8* bitcast (void (%"class.xalanc_1_10::XObjectPtr"*, %"class.xalanc_1_10::Function"*, %"class.xalanc_1_10::XPathExecutionContext"*, %"class.xalanc_1_10::XalanNode"*, %"class.xalanc_1_10::XObjectPtr"*, %"class.xalanc_1_10::XObjectPtr"*, %"class.xalanc_1_10::XObjectPtr"*, %"class.xercesc_2_7::Locator"*)* @_ZNK11xalanc_1_108Function7executeERNS_21XPathExecutionContextEPNS_9XalanNodeENS_10XObjectPtrES5_S5_PKN11xercesc_2_77LocatorE to i8*), i8* bitcast (%"class.xalanc_1_10::XalanEXSLTFunctionLog"* (%"class.xalanc_1_10::XalanEXSLTFunctionLog"*, %"class.xercesc_2_7::MemoryManager"*)* @_ZNK11xalanc_1_1021XalanEXSLTFunctionLog5cloneERN11xercesc_2_713MemoryManagerE to i8*), i8* bitcast (%"class.xalanc_1_10::XalanDOMString"* (%"class.xalanc_1_10::XalanEXSLTFunctionLog"*, %"class.xalanc_1_10::XalanDOMString"*)* @_ZNK11xalanc_1_1021XalanEXSLTFunctionLog8getErrorERNS_14XalanDOMStringE to i8*)] }, align 8
@_ZTSN11xalanc_1_1021XalanEXSLTFunctionLogE = dso_local constant [39 x i8] c"N11xalanc_1_1021XalanEXSLTFunctionLogE\00", align 1
@_ZTIN11xalanc_1_1021XalanEXSLTFunctionLogE = dso_local constant { i8*, i8*, i8* } { i8* bitcast (i8** getelementptr inbounds (i8*, i8** @_ZTVN10__cxxabiv120__si_class_type_infoE, i64 2) to i8*), i8* getelementptr inbounds ([39 x i8], [39 x i8]* @_ZTSN11xalanc_1_1021XalanEXSLTFunctionLogE, i32 0, i32 0), i8* bitcast (i8** @_ZTIN11xalanc_1_108FunctionE to i8*) }, align 8
@_ZTVN11xalanc_1_1024XalanEXSLTFunctionLowestE = dso_local unnamed_addr constant { [11 x i8*] } { [11 x i8*] [i8* null, i8* bitcast ({ i8*, i8*, i8* }* @_ZTIN11xalanc_1_1024XalanEXSLTFunctionLowestE to i8*), i8* bitcast (void (%"class.xalanc_1_10::XalanEXSLTFunctionLowest"*)* @_ZN11xalanc_1_1024XalanEXSLTFunctionLowestD2Ev to i8*), i8* bitcast (void (%"class.xalanc_1_10::XalanEXSLTFunctionLowest"*)* @_ZN11xalanc_1_1024XalanEXSLTFunctionLowestD0Ev to i8*), i8* bitcast (void (%"class.xalanc_1_10::XObjectPtr"*, %"class.xalanc_1_10::XalanEXSLTFunctionLowest"*, %"class.xalanc_1_10::XPathExecutionContext"*, %"class.xalanc_1_10::XalanNode"*, %"class.xalanc_1_10::XalanVector"*, %"class.xercesc_2_7::Locator"*)* @_ZNK11xalanc_1_1024XalanEXSLTFunctionLowest7executeERNS_21XPathExecutionContextEPNS_9XalanNodeERKNS_11XalanVectorINS_10XObjectPtrENS_31MemoryManagedConstructionTraitsIS6_EEEEPKN11xercesc_2_77LocatorE to i8*), i8* bitcast (void (%"class.xalanc_1_10::XObjectPtr"*, %"class.xalanc_1_10::Function"*, %"class.xalanc_1_10::XPathExecutionContext"*, %"class.xalanc_1_10::XalanNode"*, %"class.xercesc_2_7::Locator"*)* @_ZNK11xalanc_1_108Function7executeERNS_21XPathExecutionContextEPNS_9XalanNodeEPKN11xercesc_2_77LocatorE to i8*), i8* bitcast (void (%"class.xalanc_1_10::XObjectPtr"*, %"class.xalanc_1_10::Function"*, %"class.xalanc_1_10::XPathExecutionContext"*, %"class.xalanc_1_10::XalanNode"*, %"class.xalanc_1_10::XObjectPtr"*, %"class.xercesc_2_7::Locator"*)* @_ZNK11xalanc_1_108Function7executeERNS_21XPathExecutionContextEPNS_9XalanNodeENS_10XObjectPtrEPKN11xercesc_2_77LocatorE to i8*), i8* bitcast (void (%"class.xalanc_1_10::XObjectPtr"*, %"class.xalanc_1_10::Function"*, %"class.xalanc_1_10::XPathExecutionContext"*, %"class.xalanc_1_10::XalanNode"*, %"class.xalanc_1_10::XObjectPtr"*, %"class.xalanc_1_10::XObjectPtr"*, %"class.xercesc_2_7::Locator"*)* @_ZNK11xalanc_1_108Function7executeERNS_21XPathExecutionContextEPNS_9XalanNodeENS_10XObjectPtrES5_PKN11xercesc_2_77LocatorE to i8*), i8* bitcast (void (%"class.xalanc_1_10::XObjectPtr"*, %"class.xalanc_1_10::Function"*, %"class.xalanc_1_10::XPathExecutionContext"*, %"class.xalanc_1_10::XalanNode"*, %"class.xalanc_1_10::XObjectPtr"*, %"class.xalanc_1_10::XObjectPtr"*, %"class.xalanc_1_10::XObjectPtr"*, %"class.xercesc_2_7::Locator"*)* @_ZNK11xalanc_1_108Function7executeERNS_21XPathExecutionContextEPNS_9XalanNodeENS_10XObjectPtrES5_S5_PKN11xercesc_2_77LocatorE to i8*), i8* bitcast (%"class.xalanc_1_10::XalanEXSLTFunctionLowest"* (%"class.xalanc_1_10::XalanEXSLTFunctionLowest"*, %"class.xercesc_2_7::MemoryManager"*)* @_ZNK11xalanc_1_1024XalanEXSLTFunctionLowest5cloneERN11xercesc_2_713MemoryManagerE to i8*), i8* bitcast (%"class.xalanc_1_10::XalanDOMString"* (%"class.xalanc_1_10::XalanEXSLTFunctionLowest"*, %"class.xalanc_1_10::XalanDOMString"*)* @_ZNK11xalanc_1_1024XalanEXSLTFunctionLowest8getErrorERNS_14XalanDOMStringE to i8*)] }, align 8
@_ZTSN11xalanc_1_1024XalanEXSLTFunctionLowestE = dso_local constant [42 x i8] c"N11xalanc_1_1024XalanEXSLTFunctionLowestE\00", align 1
@_ZTIN11xalanc_1_1024XalanEXSLTFunctionLowestE = dso_local constant { i8*, i8*, i8* } { i8* bitcast (i8** getelementptr inbounds (i8*, i8** @_ZTVN10__cxxabiv120__si_class_type_infoE, i64 2) to i8*), i8* getelementptr inbounds ([42 x i8], [42 x i8]* @_ZTSN11xalanc_1_1024XalanEXSLTFunctionLowestE, i32 0, i32 0), i8* bitcast (i8** @_ZTIN11xalanc_1_108FunctionE to i8*) }, align 8
@_ZTVN11xalanc_1_1021XalanEXSLTFunctionMaxE = dso_local unnamed_addr constant { [11 x i8*] } { [11 x i8*] [i8* null, i8* bitcast ({ i8*, i8*, i8* }* @_ZTIN11xalanc_1_1021XalanEXSLTFunctionMaxE to i8*), i8* bitcast (void (%"class.xalanc_1_10::XalanEXSLTFunctionMax"*)* @_ZN11xalanc_1_1021XalanEXSLTFunctionMaxD2Ev to i8*), i8* bitcast (void (%"class.xalanc_1_10::XalanEXSLTFunctionMax"*)* @_ZN11xalanc_1_1021XalanEXSLTFunctionMaxD0Ev to i8*), i8* bitcast (void (%"class.xalanc_1_10::XObjectPtr"*, %"class.xalanc_1_10::XalanEXSLTFunctionMax"*, %"class.xalanc_1_10::XPathExecutionContext"*, %"class.xalanc_1_10::XalanNode"*, %"class.xalanc_1_10::XalanVector"*, %"class.xercesc_2_7::Locator"*)* @_ZNK11xalanc_1_1021XalanEXSLTFunctionMax7executeERNS_21XPathExecutionContextEPNS_9XalanNodeERKNS_11XalanVectorINS_10XObjectPtrENS_31MemoryManagedConstructionTraitsIS6_EEEEPKN11xercesc_2_77LocatorE to i8*), i8* bitcast (void (%"class.xalanc_1_10::XObjectPtr"*, %"class.xalanc_1_10::Function"*, %"class.xalanc_1_10::XPathExecutionContext"*, %"class.xalanc_1_10::XalanNode"*, %"class.xercesc_2_7::Locator"*)* @_ZNK11xalanc_1_108Function7executeERNS_21XPathExecutionContextEPNS_9XalanNodeEPKN11xercesc_2_77LocatorE to i8*), i8* bitcast (void (%"class.xalanc_1_10::XObjectPtr"*, %"class.xalanc_1_10::Function"*, %"class.xalanc_1_10::XPathExecutionContext"*, %"class.xalanc_1_10::XalanNode"*, %"class.xalanc_1_10::XObjectPtr"*, %"class.xercesc_2_7::Locator"*)* @_ZNK11xalanc_1_108Function7executeERNS_21XPathExecutionContextEPNS_9XalanNodeENS_10XObjectPtrEPKN11xercesc_2_77LocatorE to i8*), i8* bitcast (void (%"class.xalanc_1_10::XObjectPtr"*, %"class.xalanc_1_10::Function"*, %"class.xalanc_1_10::XPathExecutionContext"*, %"class.xalanc_1_10::XalanNode"*, %"class.xalanc_1_10::XObjectPtr"*, %"class.xalanc_1_10::XObjectPtr"*, %"class.xercesc_2_7::Locator"*)* @_ZNK11xalanc_1_108Function7executeERNS_21XPathExecutionContextEPNS_9XalanNodeENS_10XObjectPtrES5_PKN11xercesc_2_77LocatorE to i8*), i8* bitcast (void (%"class.xalanc_1_10::XObjectPtr"*, %"class.xalanc_1_10::Function"*, %"class.xalanc_1_10::XPathExecutionContext"*, %"class.xalanc_1_10::XalanNode"*, %"class.xalanc_1_10::XObjectPtr"*, %"class.xalanc_1_10::XObjectPtr"*, %"class.xalanc_1_10::XObjectPtr"*, %"class.xercesc_2_7::Locator"*)* @_ZNK11xalanc_1_108Function7executeERNS_21XPathExecutionContextEPNS_9XalanNodeENS_10XObjectPtrES5_S5_PKN11xercesc_2_77LocatorE to i8*), i8* bitcast (%"class.xalanc_1_10::XalanEXSLTFunctionMax"* (%"class.xalanc_1_10::XalanEXSLTFunctionMax"*, %"class.xercesc_2_7::MemoryManager"*)* @_ZNK11xalanc_1_1021XalanEXSLTFunctionMax5cloneERN11xercesc_2_713MemoryManagerE to i8*), i8* bitcast (%"class.xalanc_1_10::XalanDOMString"* (%"class.xalanc_1_10::XalanEXSLTFunctionMax"*, %"class.xalanc_1_10::XalanDOMString"*)* @_ZNK11xalanc_1_1021XalanEXSLTFunctionMax8getErrorERNS_14XalanDOMStringE to i8*)] }, align 8
@_ZTSN11xalanc_1_1021XalanEXSLTFunctionMaxE = dso_local constant [39 x i8] c"N11xalanc_1_1021XalanEXSLTFunctionMaxE\00", align 1
@_ZTIN11xalanc_1_1021XalanEXSLTFunctionMaxE = dso_local constant { i8*, i8*, i8* } { i8* bitcast (i8** getelementptr inbounds (i8*, i8** @_ZTVN10__cxxabiv120__si_class_type_infoE, i64 2) to i8*), i8* getelementptr inbounds ([39 x i8], [39 x i8]* @_ZTSN11xalanc_1_1021XalanEXSLTFunctionMaxE, i32 0, i32 0), i8* bitcast (i8** @_ZTIN11xalanc_1_108FunctionE to i8*) }, align 8
@_ZTVN11xalanc_1_1021XalanEXSLTFunctionMinE = dso_local unnamed_addr constant { [11 x i8*] } { [11 x i8*] [i8* null, i8* bitcast ({ i8*, i8*, i8* }* @_ZTIN11xalanc_1_1021XalanEXSLTFunctionMinE to i8*), i8* bitcast (void (%"class.xalanc_1_10::XalanEXSLTFunctionMin"*)* @_ZN11xalanc_1_1021XalanEXSLTFunctionMinD2Ev to i8*), i8* bitcast (void (%"class.xalanc_1_10::XalanEXSLTFunctionMin"*)* @_ZN11xalanc_1_1021XalanEXSLTFunctionMinD0Ev to i8*), i8* bitcast (void (%"class.xalanc_1_10::XObjectPtr"*, %"class.xalanc_1_10::XalanEXSLTFunctionMin"*, %"class.xalanc_1_10::XPathExecutionContext"*, %"class.xalanc_1_10::XalanNode"*, %"class.xalanc_1_10::XalanVector"*, %"class.xercesc_2_7::Locator"*)* @_ZNK11xalanc_1_1021XalanEXSLTFunctionMin7executeERNS_21XPathExecutionContextEPNS_9XalanNodeERKNS_11XalanVectorINS_10XObjectPtrENS_31MemoryManagedConstructionTraitsIS6_EEEEPKN11xercesc_2_77LocatorE to i8*), i8* bitcast (void (%"class.xalanc_1_10::XObjectPtr"*, %"class.xalanc_1_10::Function"*, %"class.xalanc_1_10::XPathExecutionContext"*, %"class.xalanc_1_10::XalanNode"*, %"class.xercesc_2_7::Locator"*)* @_ZNK11xalanc_1_108Function7executeERNS_21XPathExecutionContextEPNS_9XalanNodeEPKN11xercesc_2_77LocatorE to i8*), i8* bitcast (void (%"class.xalanc_1_10::XObjectPtr"*, %"class.xalanc_1_10::Function"*, %"class.xalanc_1_10::XPathExecutionContext"*, %"class.xalanc_1_10::XalanNode"*, %"class.xalanc_1_10::XObjectPtr"*, %"class.xercesc_2_7::Locator"*)* @_ZNK11xalanc_1_108Function7executeERNS_21XPathExecutionContextEPNS_9XalanNodeENS_10XObjectPtrEPKN11xercesc_2_77LocatorE to i8*), i8* bitcast (void (%"class.xalanc_1_10::XObjectPtr"*, %"class.xalanc_1_10::Function"*, %"class.xalanc_1_10::XPathExecutionContext"*, %"class.xalanc_1_10::XalanNode"*, %"class.xalanc_1_10::XObjectPtr"*, %"class.xalanc_1_10::XObjectPtr"*, %"class.xercesc_2_7::Locator"*)* @_ZNK11xalanc_1_108Function7executeERNS_21XPathExecutionContextEPNS_9XalanNodeENS_10XObjectPtrES5_PKN11xercesc_2_77LocatorE to i8*), i8* bitcast (void (%"class.xalanc_1_10::XObjectPtr"*, %"class.xalanc_1_10::Function"*, %"class.xalanc_1_10::XPathExecutionContext"*, %"class.xalanc_1_10::XalanNode"*, %"class.xalanc_1_10::XObjectPtr"*, %"class.xalanc_1_10::XObjectPtr"*, %"class.xalanc_1_10::XObjectPtr"*, %"class.xercesc_2_7::Locator"*)* @_ZNK11xalanc_1_108Function7executeERNS_21XPathExecutionContextEPNS_9XalanNodeENS_10XObjectPtrES5_S5_PKN11xercesc_2_77LocatorE to i8*), i8* bitcast (%"class.xalanc_1_10::XalanEXSLTFunctionMin"* (%"class.xalanc_1_10::XalanEXSLTFunctionMin"*, %"class.xercesc_2_7::MemoryManager"*)* @_ZNK11xalanc_1_1021XalanEXSLTFunctionMin5cloneERN11xercesc_2_713MemoryManagerE to i8*), i8* bitcast (%"class.xalanc_1_10::XalanDOMString"* (%"class.xalanc_1_10::XalanEXSLTFunctionMin"*, %"class.xalanc_1_10::XalanDOMString"*)* @_ZNK11xalanc_1_1021XalanEXSLTFunctionMin8getErrorERNS_14XalanDOMStringE to i8*)] }, align 8
@_ZTSN11xalanc_1_1021XalanEXSLTFunctionMinE = dso_local constant [39 x i8] c"N11xalanc_1_1021XalanEXSLTFunctionMinE\00", align 1
@_ZTIN11xalanc_1_1021XalanEXSLTFunctionMinE = dso_local constant { i8*, i8*, i8* } { i8* bitcast (i8** getelementptr inbounds (i8*, i8** @_ZTVN10__cxxabiv120__si_class_type_infoE, i64 2) to i8*), i8* getelementptr inbounds ([39 x i8], [39 x i8]* @_ZTSN11xalanc_1_1021XalanEXSLTFunctionMinE, i32 0, i32 0), i8* bitcast (i8** @_ZTIN11xalanc_1_108FunctionE to i8*) }, align 8
@_ZTVN11xalanc_1_1023XalanEXSLTFunctionPowerE = dso_local unnamed_addr constant { [11 x i8*] } { [11 x i8*] [i8* null, i8* bitcast ({ i8*, i8*, i8* }* @_ZTIN11xalanc_1_1023XalanEXSLTFunctionPowerE to i8*), i8* bitcast (void (%"class.xalanc_1_10::XalanEXSLTFunctionPower"*)* @_ZN11xalanc_1_1023XalanEXSLTFunctionPowerD2Ev to i8*), i8* bitcast (void (%"class.xalanc_1_10::XalanEXSLTFunctionPower"*)* @_ZN11xalanc_1_1023XalanEXSLTFunctionPowerD0Ev to i8*), i8* bitcast (void (%"class.xalanc_1_10::XObjectPtr"*, %"class.xalanc_1_10::XalanEXSLTFunctionPower"*, %"class.xalanc_1_10::XPathExecutionContext"*, %"class.xalanc_1_10::XalanNode"*, %"class.xalanc_1_10::XalanVector"*, %"class.xercesc_2_7::Locator"*)* @_ZNK11xalanc_1_1023XalanEXSLTFunctionPower7executeERNS_21XPathExecutionContextEPNS_9XalanNodeERKNS_11XalanVectorINS_10XObjectPtrENS_31MemoryManagedConstructionTraitsIS6_EEEEPKN11xercesc_2_77LocatorE to i8*), i8* bitcast (void (%"class.xalanc_1_10::XObjectPtr"*, %"class.xalanc_1_10::Function"*, %"class.xalanc_1_10::XPathExecutionContext"*, %"class.xalanc_1_10::XalanNode"*, %"class.xercesc_2_7::Locator"*)* @_ZNK11xalanc_1_108Function7executeERNS_21XPathExecutionContextEPNS_9XalanNodeEPKN11xercesc_2_77LocatorE to i8*), i8* bitcast (void (%"class.xalanc_1_10::XObjectPtr"*, %"class.xalanc_1_10::Function"*, %"class.xalanc_1_10::XPathExecutionContext"*, %"class.xalanc_1_10::XalanNode"*, %"class.xalanc_1_10::XObjectPtr"*, %"class.xercesc_2_7::Locator"*)* @_ZNK11xalanc_1_108Function7executeERNS_21XPathExecutionContextEPNS_9XalanNodeENS_10XObjectPtrEPKN11xercesc_2_77LocatorE to i8*), i8* bitcast (void (%"class.xalanc_1_10::XObjectPtr"*, %"class.xalanc_1_10::Function"*, %"class.xalanc_1_10::XPathExecutionContext"*, %"class.xalanc_1_10::XalanNode"*, %"class.xalanc_1_10::XObjectPtr"*, %"class.xalanc_1_10::XObjectPtr"*, %"class.xercesc_2_7::Locator"*)* @_ZNK11xalanc_1_108Function7executeERNS_21XPathExecutionContextEPNS_9XalanNodeENS_10XObjectPtrES5_PKN11xercesc_2_77LocatorE to i8*), i8* bitcast (void (%"class.xalanc_1_10::XObjectPtr"*, %"class.xalanc_1_10::Function"*, %"class.xalanc_1_10::XPathExecutionContext"*, %"class.xalanc_1_10::XalanNode"*, %"class.xalanc_1_10::XObjectPtr"*, %"class.xalanc_1_10::XObjectPtr"*, %"class.xalanc_1_10::XObjectPtr"*, %"class.xercesc_2_7::Locator"*)* @_ZNK11xalanc_1_108Function7executeERNS_21XPathExecutionContextEPNS_9XalanNodeENS_10XObjectPtrES5_S5_PKN11xercesc_2_77LocatorE to i8*), i8* bitcast (%"class.xalanc_1_10::XalanEXSLTFunctionPower"* (%"class.xalanc_1_10::XalanEXSLTFunctionPower"*, %"class.xercesc_2_7::MemoryManager"*)* @_ZNK11xalanc_1_1023XalanEXSLTFunctionPower5cloneERN11xercesc_2_713MemoryManagerE to i8*), i8* bitcast (%"class.xalanc_1_10::XalanDOMString"* (%"class.xalanc_1_10::XalanEXSLTFunctionPower"*, %"class.xalanc_1_10::XalanDOMString"*)* @_ZNK11xalanc_1_1023XalanEXSLTFunctionPower8getErrorERNS_14XalanDOMStringE to i8*)] }, align 8
@_ZTSN11xalanc_1_1023XalanEXSLTFunctionPowerE = dso_local constant [41 x i8] c"N11xalanc_1_1023XalanEXSLTFunctionPowerE\00", align 1
@_ZTIN11xalanc_1_1023XalanEXSLTFunctionPowerE = dso_local constant { i8*, i8*, i8* } { i8* bitcast (i8** getelementptr inbounds (i8*, i8** @_ZTVN10__cxxabiv120__si_class_type_infoE, i64 2) to i8*), i8* getelementptr inbounds ([41 x i8], [41 x i8]* @_ZTSN11xalanc_1_1023XalanEXSLTFunctionPowerE, i32 0, i32 0), i8* bitcast (i8** @_ZTIN11xalanc_1_108FunctionE to i8*) }, align 8
@_ZTVN11xalanc_1_1021XalanEXSLTFunctionSinE = dso_local unnamed_addr constant { [11 x i8*] } { [11 x i8*] [i8* null, i8* bitcast ({ i8*, i8*, i8* }* @_ZTIN11xalanc_1_1021XalanEXSLTFunctionSinE to i8*), i8* bitcast (void (%"class.xalanc_1_10::XalanEXSLTFunctionSin"*)* @_ZN11xalanc_1_1021XalanEXSLTFunctionSinD2Ev to i8*), i8* bitcast (void (%"class.xalanc_1_10::XalanEXSLTFunctionSin"*)* @_ZN11xalanc_1_1021XalanEXSLTFunctionSinD0Ev to i8*), i8* bitcast (void (%"class.xalanc_1_10::XObjectPtr"*, %"class.xalanc_1_10::XalanEXSLTFunctionSin"*, %"class.xalanc_1_10::XPathExecutionContext"*, %"class.xalanc_1_10::XalanNode"*, %"class.xalanc_1_10::XalanVector"*, %"class.xercesc_2_7::Locator"*)* @_ZNK11xalanc_1_1021XalanEXSLTFunctionSin7executeERNS_21XPathExecutionContextEPNS_9XalanNodeERKNS_11XalanVectorINS_10XObjectPtrENS_31MemoryManagedConstructionTraitsIS6_EEEEPKN11xercesc_2_77LocatorE to i8*), i8* bitcast (void (%"class.xalanc_1_10::XObjectPtr"*, %"class.xalanc_1_10::Function"*, %"class.xalanc_1_10::XPathExecutionContext"*, %"class.xalanc_1_10::XalanNode"*, %"class.xercesc_2_7::Locator"*)* @_ZNK11xalanc_1_108Function7executeERNS_21XPathExecutionContextEPNS_9XalanNodeEPKN11xercesc_2_77LocatorE to i8*), i8* bitcast (void (%"class.xalanc_1_10::XObjectPtr"*, %"class.xalanc_1_10::Function"*, %"class.xalanc_1_10::XPathExecutionContext"*, %"class.xalanc_1_10::XalanNode"*, %"class.xalanc_1_10::XObjectPtr"*, %"class.xercesc_2_7::Locator"*)* @_ZNK11xalanc_1_108Function7executeERNS_21XPathExecutionContextEPNS_9XalanNodeENS_10XObjectPtrEPKN11xercesc_2_77LocatorE to i8*), i8* bitcast (void (%"class.xalanc_1_10::XObjectPtr"*, %"class.xalanc_1_10::Function"*, %"class.xalanc_1_10::XPathExecutionContext"*, %"class.xalanc_1_10::XalanNode"*, %"class.xalanc_1_10::XObjectPtr"*, %"class.xalanc_1_10::XObjectPtr"*, %"class.xercesc_2_7::Locator"*)* @_ZNK11xalanc_1_108Function7executeERNS_21XPathExecutionContextEPNS_9XalanNodeENS_10XObjectPtrES5_PKN11xercesc_2_77LocatorE to i8*), i8* bitcast (void (%"class.xalanc_1_10::XObjectPtr"*, %"class.xalanc_1_10::Function"*, %"class.xalanc_1_10::XPathExecutionContext"*, %"class.xalanc_1_10::XalanNode"*, %"class.xalanc_1_10::XObjectPtr"*, %"class.xalanc_1_10::XObjectPtr"*, %"class.xalanc_1_10::XObjectPtr"*, %"class.xercesc_2_7::Locator"*)* @_ZNK11xalanc_1_108Function7executeERNS_21XPathExecutionContextEPNS_9XalanNodeENS_10XObjectPtrES5_S5_PKN11xercesc_2_77LocatorE to i8*), i8* bitcast (%"class.xalanc_1_10::XalanEXSLTFunctionSin"* (%"class.xalanc_1_10::XalanEXSLTFunctionSin"*, %"class.xercesc_2_7::MemoryManager"*)* @_ZNK11xalanc_1_1021XalanEXSLTFunctionSin5cloneERN11xercesc_2_713MemoryManagerE to i8*), i8* bitcast (%"class.xalanc_1_10::XalanDOMString"* (%"class.xalanc_1_10::XalanEXSLTFunctionSin"*, %"class.xalanc_1_10::XalanDOMString"*)* @_ZNK11xalanc_1_1021XalanEXSLTFunctionSin8getErrorERNS_14XalanDOMStringE to i8*)] }, align 8
@_ZTSN11xalanc_1_1021XalanEXSLTFunctionSinE = dso_local constant [39 x i8] c"N11xalanc_1_1021XalanEXSLTFunctionSinE\00", align 1
@_ZTIN11xalanc_1_1021XalanEXSLTFunctionSinE = dso_local constant { i8*, i8*, i8* } { i8* bitcast (i8** getelementptr inbounds (i8*, i8** @_ZTVN10__cxxabiv120__si_class_type_infoE, i64 2) to i8*), i8* getelementptr inbounds ([39 x i8], [39 x i8]* @_ZTSN11xalanc_1_1021XalanEXSLTFunctionSinE, i32 0, i32 0), i8* bitcast (i8** @_ZTIN11xalanc_1_108FunctionE to i8*) }, align 8
@_ZTVN11xalanc_1_1022XalanEXSLTFunctionSqrtE = dso_local unnamed_addr constant { [11 x i8*] } { [11 x i8*] [i8* null, i8* bitcast ({ i8*, i8*, i8* }* @_ZTIN11xalanc_1_1022XalanEXSLTFunctionSqrtE to i8*), i8* bitcast (void (%"class.xalanc_1_10::XalanEXSLTFunctionSqrt"*)* @_ZN11xalanc_1_1022XalanEXSLTFunctionSqrtD2Ev to i8*), i8* bitcast (void (%"class.xalanc_1_10::XalanEXSLTFunctionSqrt"*)* @_ZN11xalanc_1_1022XalanEXSLTFunctionSqrtD0Ev to i8*), i8* bitcast (void (%"class.xalanc_1_10::XObjectPtr"*, %"class.xalanc_1_10::XalanEXSLTFunctionSqrt"*, %"class.xalanc_1_10::XPathExecutionContext"*, %"class.xalanc_1_10::XalanNode"*, %"class.xalanc_1_10::XalanVector"*, %"class.xercesc_2_7::Locator"*)* @_ZNK11xalanc_1_1022XalanEXSLTFunctionSqrt7executeERNS_21XPathExecutionContextEPNS_9XalanNodeERKNS_11XalanVectorINS_10XObjectPtrENS_31MemoryManagedConstructionTraitsIS6_EEEEPKN11xercesc_2_77LocatorE to i8*), i8* bitcast (void (%"class.xalanc_1_10::XObjectPtr"*, %"class.xalanc_1_10::Function"*, %"class.xalanc_1_10::XPathExecutionContext"*, %"class.xalanc_1_10::XalanNode"*, %"class.xercesc_2_7::Locator"*)* @_ZNK11xalanc_1_108Function7executeERNS_21XPathExecutionContextEPNS_9XalanNodeEPKN11xercesc_2_77LocatorE to i8*), i8* bitcast (void (%"class.xalanc_1_10::XObjectPtr"*, %"class.xalanc_1_10::Function"*, %"class.xalanc_1_10::XPathExecutionContext"*, %"class.xalanc_1_10::XalanNode"*, %"class.xalanc_1_10::XObjectPtr"*, %"class.xercesc_2_7::Locator"*)* @_ZNK11xalanc_1_108Function7executeERNS_21XPathExecutionContextEPNS_9XalanNodeENS_10XObjectPtrEPKN11xercesc_2_77LocatorE to i8*), i8* bitcast (void (%"class.xalanc_1_10::XObjectPtr"*, %"class.xalanc_1_10::Function"*, %"class.xalanc_1_10::XPathExecutionContext"*, %"class.xalanc_1_10::XalanNode"*, %"class.xalanc_1_10::XObjectPtr"*, %"class.xalanc_1_10::XObjectPtr"*, %"class.xercesc_2_7::Locator"*)* @_ZNK11xalanc_1_108Function7executeERNS_21XPathExecutionContextEPNS_9XalanNodeENS_10XObjectPtrES5_PKN11xercesc_2_77LocatorE to i8*), i8* bitcast (void (%"class.xalanc_1_10::XObjectPtr"*, %"class.xalanc_1_10::Function"*, %"class.xalanc_1_10::XPathExecutionContext"*, %"class.xalanc_1_10::XalanNode"*, %"class.xalanc_1_10::XObjectPtr"*, %"class.xalanc_1_10::XObjectPtr"*, %"class.xalanc_1_10::XObjectPtr"*, %"class.xercesc_2_7::Locator"*)* @_ZNK11xalanc_1_108Function7executeERNS_21XPathExecutionContextEPNS_9XalanNodeENS_10XObjectPtrES5_S5_PKN11xercesc_2_77LocatorE to i8*), i8* bitcast (%"class.xalanc_1_10::XalanEXSLTFunctionSqrt"* (%"class.xalanc_1_10::XalanEXSLTFunctionSqrt"*, %"class.xercesc_2_7::MemoryManager"*)* @_ZNK11xalanc_1_1022XalanEXSLTFunctionSqrt5cloneERN11xercesc_2_713MemoryManagerE to i8*), i8* bitcast (%"class.xalanc_1_10::XalanDOMString"* (%"class.xalanc_1_10::XalanEXSLTFunctionSqrt"*, %"class.xalanc_1_10::XalanDOMString"*)* @_ZNK11xalanc_1_1022XalanEXSLTFunctionSqrt8getErrorERNS_14XalanDOMStringE to i8*)] }, align 8
@_ZTSN11xalanc_1_1022XalanEXSLTFunctionSqrtE = dso_local constant [40 x i8] c"N11xalanc_1_1022XalanEXSLTFunctionSqrtE\00", align 1
@_ZTIN11xalanc_1_1022XalanEXSLTFunctionSqrtE = dso_local constant { i8*, i8*, i8* } { i8* bitcast (i8** getelementptr inbounds (i8*, i8** @_ZTVN10__cxxabiv120__si_class_type_infoE, i64 2) to i8*), i8* getelementptr inbounds ([40 x i8], [40 x i8]* @_ZTSN11xalanc_1_1022XalanEXSLTFunctionSqrtE, i32 0, i32 0), i8* bitcast (i8** @_ZTIN11xalanc_1_108FunctionE to i8*) }, align 8
@_ZTVN11xalanc_1_1021XalanEXSLTFunctionTanE = dso_local unnamed_addr constant { [11 x i8*] } { [11 x i8*] [i8* null, i8* bitcast ({ i8*, i8*, i8* }* @_ZTIN11xalanc_1_1021XalanEXSLTFunctionTanE to i8*), i8* bitcast (void (%"class.xalanc_1_10::XalanEXSLTFunctionTan"*)* @_ZN11xalanc_1_1021XalanEXSLTFunctionTanD2Ev to i8*), i8* bitcast (void (%"class.xalanc_1_10::XalanEXSLTFunctionTan"*)* @_ZN11xalanc_1_1021XalanEXSLTFunctionTanD0Ev to i8*), i8* bitcast (void (%"class.xalanc_1_10::XObjectPtr"*, %"class.xalanc_1_10::XalanEXSLTFunctionTan"*, %"class.xalanc_1_10::XPathExecutionContext"*, %"class.xalanc_1_10::XalanNode"*, %"class.xalanc_1_10::XalanVector"*, %"class.xercesc_2_7::Locator"*)* @_ZNK11xalanc_1_1021XalanEXSLTFunctionTan7executeERNS_21XPathExecutionContextEPNS_9XalanNodeERKNS_11XalanVectorINS_10XObjectPtrENS_31MemoryManagedConstructionTraitsIS6_EEEEPKN11xercesc_2_77LocatorE to i8*), i8* bitcast (void (%"class.xalanc_1_10::XObjectPtr"*, %"class.xalanc_1_10::Function"*, %"class.xalanc_1_10::XPathExecutionContext"*, %"class.xalanc_1_10::XalanNode"*, %"class.xercesc_2_7::Locator"*)* @_ZNK11xalanc_1_108Function7executeERNS_21XPathExecutionContextEPNS_9XalanNodeEPKN11xercesc_2_77LocatorE to i8*), i8* bitcast (void (%"class.xalanc_1_10::XObjectPtr"*, %"class.xalanc_1_10::Function"*, %"class.xalanc_1_10::XPathExecutionContext"*, %"class.xalanc_1_10::XalanNode"*, %"class.xalanc_1_10::XObjectPtr"*, %"class.xercesc_2_7::Locator"*)* @_ZNK11xalanc_1_108Function7executeERNS_21XPathExecutionContextEPNS_9XalanNodeENS_10XObjectPtrEPKN11xercesc_2_77LocatorE to i8*), i8* bitcast (void (%"class.xalanc_1_10::XObjectPtr"*, %"class.xalanc_1_10::Function"*, %"class.xalanc_1_10::XPathExecutionContext"*, %"class.xalanc_1_10::XalanNode"*, %"class.xalanc_1_10::XObjectPtr"*, %"class.xalanc_1_10::XObjectPtr"*, %"class.xercesc_2_7::Locator"*)* @_ZNK11xalanc_1_108Function7executeERNS_21XPathExecutionContextEPNS_9XalanNodeENS_10XObjectPtrES5_PKN11xercesc_2_77LocatorE to i8*), i8* bitcast (void (%"class.xalanc_1_10::XObjectPtr"*, %"class.xalanc_1_10::Function"*, %"class.xalanc_1_10::XPathExecutionContext"*, %"class.xalanc_1_10::XalanNode"*, %"class.xalanc_1_10::XObjectPtr"*, %"class.xalanc_1_10::XObjectPtr"*, %"class.xalanc_1_10::XObjectPtr"*, %"class.xercesc_2_7::Locator"*)* @_ZNK11xalanc_1_108Function7executeERNS_21XPathExecutionContextEPNS_9XalanNodeENS_10XObjectPtrES5_S5_PKN11xercesc_2_77LocatorE to i8*), i8* bitcast (%"class.xalanc_1_10::XalanEXSLTFunctionTan"* (%"class.xalanc_1_10::XalanEXSLTFunctionTan"*, %"class.xercesc_2_7::MemoryManager"*)* @_ZNK11xalanc_1_1021XalanEXSLTFunctionTan5cloneERN11xercesc_2_713MemoryManagerE to i8*), i8* bitcast (%"class.xalanc_1_10::XalanDOMString"* (%"class.xalanc_1_10::XalanEXSLTFunctionTan"*, %"class.xalanc_1_10::XalanDOMString"*)* @_ZNK11xalanc_1_1021XalanEXSLTFunctionTan8getErrorERNS_14XalanDOMStringE to i8*)] }, align 8
@_ZTSN11xalanc_1_1021XalanEXSLTFunctionTanE = dso_local constant [39 x i8] c"N11xalanc_1_1021XalanEXSLTFunctionTanE\00", align 1
@_ZTIN11xalanc_1_1021XalanEXSLTFunctionTanE = dso_local constant { i8*, i8*, i8* } { i8* bitcast (i8** getelementptr inbounds (i8*, i8** @_ZTVN10__cxxabiv120__si_class_type_infoE, i64 2) to i8*), i8* getelementptr inbounds ([39 x i8], [39 x i8]* @_ZTSN11xalanc_1_1021XalanEXSLTFunctionTanE, i32 0, i32 0), i8* bitcast (i8** @_ZTIN11xalanc_1_108FunctionE to i8*) }, align 8
@_ZN11xalanc_1_1013DoubleSupport5s_NaNE = external dso_local global %"union.xalanc_1_10::DoubleSupport::NumberUnion", align 8
@_ZN11xalanc_1_1014XalanDOMString7s_emptyE = external dso_local constant i16, align 2
@_ZN11xalanc_1_10L22s_constantFunctionNameE = internal constant [9 x i16] [i16 99, i16 111, i16 110, i16 115, i16 116, i16 97, i16 110, i16 116, i16 0], align 16, !dbg !1686
@_ZTVN11xalanc_1_108FunctionE = external dso_local unnamed_addr constant { [11 x i8*] }, align 8
@.str = private unnamed_addr constant [11 x i8] c"constant()\00", align 1
@llvm.global_ctors = appending global [1 x { i32, void ()*, i8* }] [{ i32, void ()*, i8* } { i32 65535, void ()* @_GLOBAL__sub_I_XalanEXSLTMath.cpp, i8* null }]

; Function Attrs: noinline uwtable
define dso_local void @_ZNK11xalanc_1_1025XalanEXSLTFunctionHighest7executeERNS_21XPathExecutionContextEPNS_9XalanNodeERKNS_11XalanVectorINS_10XObjectPtrENS_31MemoryManagedConstructionTraitsIS6_EEEEPKN11xercesc_2_77LocatorE(%"class.xalanc_1_10::XObjectPtr"* noalias sret %agg.result, %"class.xalanc_1_10::XalanEXSLTFunctionHighest"* %this, %"class.xalanc_1_10::XPathExecutionContext"* dereferenceable(24) %executionContext, %"class.xalanc_1_10::XalanNode"* %context, %"class.xalanc_1_10::XalanVector"* dereferenceable(32) %args, %"class.xercesc_2_7::Locator"* %locator) unnamed_addr #0 align 2 personality i8* bitcast (i32 (...)* @__gxx_personality_v0 to i8*) !dbg !3153 {
entry:
  %result.ptr = alloca i8*, align 8
  %this.addr = alloca %"class.xalanc_1_10::XalanEXSLTFunctionHighest"*, align 8
  %executionContext.addr = alloca %"class.xalanc_1_10::XPathExecutionContext"*, align 8
  %context.addr = alloca %"class.xalanc_1_10::XalanNode"*, align 8
  %args.addr = alloca %"class.xalanc_1_10::XalanVector"*, align 8
  %locator.addr = alloca %"class.xercesc_2_7::Locator"*, align 8
  %theGuard = alloca %"class.xalanc_1_10::XPathExecutionContext::GetAndReleaseCachedString", align 8
  %exn.slot = alloca i8*
  %ehselector.slot = alloca i32
  %0 = bitcast %"class.xalanc_1_10::XObjectPtr"* %agg.result to i8*
  store i8* %0, i8** %result.ptr, align 8
  store %"class.xalanc_1_10::XalanEXSLTFunctionHighest"* %this, %"class.xalanc_1_10::XalanEXSLTFunctionHighest"** %this.addr, align 8
  call void @llvm.dbg.declare(metadata %"class.xalanc_1_10::XalanEXSLTFunctionHighest"** %this.addr, metadata !3154, metadata !DIExpression()), !dbg !3156
  store %"class.xalanc_1_10::XPathExecutionContext"* %executionContext, %"class.xalanc_1_10::XPathExecutionContext"** %executionContext.addr, align 8
  call void @llvm.dbg.declare(metadata %"class.xalanc_1_10::XPathExecutionContext"** %executionContext.addr, metadata !3157, metadata !DIExpression()), !dbg !3158
  store %"class.xalanc_1_10::XalanNode"* %context, %"class.xalanc_1_10::XalanNode"** %context.addr, align 8
  call void @llvm.dbg.declare(metadata %"class.xalanc_1_10::XalanNode"** %context.addr, metadata !3159, metadata !DIExpression()), !dbg !3160
  store %"class.xalanc_1_10::XalanVector"* %args, %"class.xalanc_1_10::XalanVector"** %args.addr, align 8
  call void @llvm.dbg.declare(metadata %"class.xalanc_1_10::XalanVector"** %args.addr, metadata !3161, metadata !DIExpression()), !dbg !3162
  store %"class.xercesc_2_7::Locator"* %locator, %"class.xercesc_2_7::Locator"** %locator.addr, align 8
  call void @llvm.dbg.declare(metadata %"class.xercesc_2_7::Locator"** %locator.addr, metadata !3163, metadata !DIExpression()), !dbg !3164
  %this1 = load %"class.xalanc_1_10::XalanEXSLTFunctionHighest"*, %"class.xalanc_1_10::XalanEXSLTFunctionHighest"** %this.addr, align 8
  %1 = load %"class.xalanc_1_10::XalanVector"*, %"class.xalanc_1_10::XalanVector"** %args.addr, align 8, !dbg !3165
  %call = call i64 @_ZNK11xalanc_1_1011XalanVectorINS_10XObjectPtrENS_31MemoryManagedConstructionTraitsIS1_EEE4sizeEv(%"class.xalanc_1_10::XalanVector"* %1), !dbg !3167
  %cmp = icmp ne i64 %call, 1, !dbg !3168
  br i1 %cmp, label %if.then, label %if.end, !dbg !3169

if.then:                                          ; preds = %entry
  call void @llvm.dbg.declare(metadata %"class.xalanc_1_10::XPathExecutionContext::GetAndReleaseCachedString"* %theGuard, metadata !3170, metadata !DIExpression()), !dbg !3202
  %2 = load %"class.xalanc_1_10::XPathExecutionContext"*, %"class.xalanc_1_10::XPathExecutionContext"** %executionContext.addr, align 8, !dbg !3203
  call void @_ZN11xalanc_1_1021XPathExecutionContext25GetAndReleaseCachedStringC2ERS0_(%"class.xalanc_1_10::XPathExecutionContext::GetAndReleaseCachedString"* %theGuard, %"class.xalanc_1_10::XPathExecutionContext"* dereferenceable(24) %2), !dbg !3202
  %3 = load %"class.xalanc_1_10::XPathExecutionContext"*, %"class.xalanc_1_10::XPathExecutionContext"** %executionContext.addr, align 8, !dbg !3204
  %call2 = invoke dereferenceable(40) %"class.xalanc_1_10::XalanDOMString"* @_ZNK11xalanc_1_1021XPathExecutionContext25GetAndReleaseCachedString3getEv(%"class.xalanc_1_10::XPathExecutionContext::GetAndReleaseCachedString"* %theGuard)
          to label %invoke.cont unwind label %lpad, !dbg !3205

invoke.cont:                                      ; preds = %if.then
  %4 = bitcast %"class.xalanc_1_10::XalanEXSLTFunctionHighest"* %this1 to %"class.xalanc_1_10::XalanDOMString"* (%"class.xalanc_1_10::XalanEXSLTFunctionHighest"*, %"class.xalanc_1_10::XalanDOMString"*)***, !dbg !3206
  %vtable = load %"class.xalanc_1_10::XalanDOMString"* (%"class.xalanc_1_10::XalanEXSLTFunctionHighest"*, %"class.xalanc_1_10::XalanDOMString"*)**, %"class.xalanc_1_10::XalanDOMString"* (%"class.xalanc_1_10::XalanEXSLTFunctionHighest"*, %"class.xalanc_1_10::XalanDOMString"*)*** %4, align 8, !dbg !3206
  %vfn = getelementptr inbounds %"class.xalanc_1_10::XalanDOMString"* (%"class.xalanc_1_10::XalanEXSLTFunctionHighest"*, %"class.xalanc_1_10::XalanDOMString"*)*, %"class.xalanc_1_10::XalanDOMString"* (%"class.xalanc_1_10::XalanEXSLTFunctionHighest"*, %"class.xalanc_1_10::XalanDOMString"*)** %vtable, i64 8, !dbg !3206
  %5 = load %"class.xalanc_1_10::XalanDOMString"* (%"class.xalanc_1_10::XalanEXSLTFunctionHighest"*, %"class.xalanc_1_10::XalanDOMString"*)*, %"class.xalanc_1_10::XalanDOMString"* (%"class.xalanc_1_10::XalanEXSLTFunctionHighest"*, %"class.xalanc_1_10::XalanDOMString"*)** %vfn, align 8, !dbg !3206
  %call4 = invoke dereferenceable(40) %"class.xalanc_1_10::XalanDOMString"* %5(%"class.xalanc_1_10::XalanEXSLTFunctionHighest"* %this1, %"class.xalanc_1_10::XalanDOMString"* dereferenceable(40) %call2)
          to label %invoke.cont3 unwind label %lpad, !dbg !3206

invoke.cont3:                                     ; preds = %invoke.cont
  %6 = load %"class.xalanc_1_10::XalanNode"*, %"class.xalanc_1_10::XalanNode"** %context.addr, align 8, !dbg !3207
  %7 = load %"class.xercesc_2_7::Locator"*, %"class.xercesc_2_7::Locator"** %locator.addr, align 8, !dbg !3208
  %8 = bitcast %"class.xalanc_1_10::XPathExecutionContext"* %3 to void (%"class.xalanc_1_10::XPathExecutionContext"*, %"class.xalanc_1_10::XalanDOMString"*, %"class.xalanc_1_10::XalanNode"*, %"class.xercesc_2_7::Locator"*)***, !dbg !3209
  %vtable5 = load void (%"class.xalanc_1_10::XPathExecutionContext"*, %"class.xalanc_1_10::XalanDOMString"*, %"class.xalanc_1_10::XalanNode"*, %"class.xercesc_2_7::Locator"*)**, void (%"class.xalanc_1_10::XPathExecutionContext"*, %"class.xalanc_1_10::XalanDOMString"*, %"class.xalanc_1_10::XalanNode"*, %"class.xercesc_2_7::Locator"*)*** %8, align 8, !dbg !3209
  %vfn6 = getelementptr inbounds void (%"class.xalanc_1_10::XPathExecutionContext"*, %"class.xalanc_1_10::XalanDOMString"*, %"class.xalanc_1_10::XalanNode"*, %"class.xercesc_2_7::Locator"*)*, void (%"class.xalanc_1_10::XPathExecutionContext"*, %"class.xalanc_1_10::XalanDOMString"*, %"class.xalanc_1_10::XalanNode"*, %"class.xercesc_2_7::Locator"*)** %vtable5, i64 2, !dbg !3209
  %9 = load void (%"class.xalanc_1_10::XPathExecutionContext"*, %"class.xalanc_1_10::XalanDOMString"*, %"class.xalanc_1_10::XalanNode"*, %"class.xercesc_2_7::Locator"*)*, void (%"class.xalanc_1_10::XPathExecutionContext"*, %"class.xalanc_1_10::XalanDOMString"*, %"class.xalanc_1_10::XalanNode"*, %"class.xercesc_2_7::Locator"*)** %vfn6, align 8, !dbg !3209
  invoke void %9(%"class.xalanc_1_10::XPathExecutionContext"* %3, %"class.xalanc_1_10::XalanDOMString"* dereferenceable(40) %call4, %"class.xalanc_1_10::XalanNode"* %6, %"class.xercesc_2_7::Locator"* %7)
          to label %invoke.cont7 unwind label %lpad, !dbg !3209

invoke.cont7:                                     ; preds = %invoke.cont3
  call void @_ZN11xalanc_1_1021XPathExecutionContext25GetAndReleaseCachedStringD2Ev(%"class.xalanc_1_10::XPathExecutionContext::GetAndReleaseCachedString"* %theGuard) #5, !dbg !3210
  br label %if.end, !dbg !3211

lpad:                                             ; preds = %invoke.cont3, %invoke.cont, %if.then
  %10 = landingpad { i8*, i32 }
          cleanup, !dbg !3212
  %11 = extractvalue { i8*, i32 } %10, 0, !dbg !3212
  store i8* %11, i8** %exn.slot, align 8, !dbg !3212
  %12 = extractvalue { i8*, i32 } %10, 1, !dbg !3212
  store i32 %12, i32* %ehselector.slot, align 4, !dbg !3212
  call void @_ZN11xalanc_1_1021XPathExecutionContext25GetAndReleaseCachedStringD2Ev(%"class.xalanc_1_10::XPathExecutionContext::GetAndReleaseCachedString"* %theGuard) #5, !dbg !3210
  br label %eh.resume, !dbg !3210

if.end:                                           ; preds = %invoke.cont7, %entry
  %13 = load %"class.xalanc_1_10::XPathExecutionContext"*, %"class.xalanc_1_10::XPathExecutionContext"** %executionContext.addr, align 8, !dbg !3213
  %14 = load %"class.xalanc_1_10::XalanVector"*, %"class.xalanc_1_10::XalanVector"** %args.addr, align 8, !dbg !3214
  %call8 = call dereferenceable(8) %"class.xalanc_1_10::XObjectPtr"* @_ZNK11xalanc_1_1011XalanVectorINS_10XObjectPtrENS_31MemoryManagedConstructionTraitsIS1_EEEixEm(%"class.xalanc_1_10::XalanVector"* %14, i64 0), !dbg !3214
  %call9 = call %"class.xalanc_1_10::XObject"* @_ZNK11xalanc_1_1010XObjectPtrptEv(%"class.xalanc_1_10::XObjectPtr"* %call8), !dbg !3214
  %15 = bitcast %"class.xalanc_1_10::XObject"* %call9 to %"class.xalanc_1_10::NodeRefListBase"* (%"class.xalanc_1_10::XObject"*)***, !dbg !3215
  %vtable10 = load %"class.xalanc_1_10::NodeRefListBase"* (%"class.xalanc_1_10::XObject"*)**, %"class.xalanc_1_10::NodeRefListBase"* (%"class.xalanc_1_10::XObject"*)*** %15, align 8, !dbg !3215
  %vfn11 = getelementptr inbounds %"class.xalanc_1_10::NodeRefListBase"* (%"class.xalanc_1_10::XObject"*)*, %"class.xalanc_1_10::NodeRefListBase"* (%"class.xalanc_1_10::XObject"*)** %vtable10, i64 13, !dbg !3215
  %16 = load %"class.xalanc_1_10::NodeRefListBase"* (%"class.xalanc_1_10::XObject"*)*, %"class.xalanc_1_10::NodeRefListBase"* (%"class.xalanc_1_10::XObject"*)** %vfn11, align 8, !dbg !3215
  %call12 = call dereferenceable(8) %"class.xalanc_1_10::NodeRefListBase"* %16(%"class.xalanc_1_10::XObject"* %call9), !dbg !3215
  call void @_ZN11xalanc_1_109findNodesIPFbddEEENS_10XObjectPtrERNS_21XPathExecutionContextERKNS_15NodeRefListBaseET_(%"class.xalanc_1_10::XObjectPtr"* sret %agg.result, %"class.xalanc_1_10::XPathExecutionContext"* dereferenceable(24) %13, %"class.xalanc_1_10::NodeRefListBase"* dereferenceable(8) %call12, i1 (double, double)* @_ZN11xalanc_1_1013DoubleSupport11greaterThanEdd), !dbg !3216
  ret void, !dbg !3217

eh.resume:                                        ; preds = %lpad
  %exn = load i8*, i8** %exn.slot, align 8, !dbg !3210
  %sel = load i32, i32* %ehselector.slot, align 4, !dbg !3210
  %lpad.val = insertvalue { i8*, i32 } undef, i8* %exn, 0, !dbg !3210
  %lpad.val13 = insertvalue { i8*, i32 } %lpad.val, i32 %sel, 1, !dbg !3210
  resume { i8*, i32 } %lpad.val13, !dbg !3210
}

; Function Attrs: nounwind readnone speculatable willreturn
declare void @llvm.dbg.declare(metadata, metadata, metadata) #1

; Function Attrs: noinline uwtable
define linkonce_odr dso_local i64 @_ZNK11xalanc_1_1011XalanVectorINS_10XObjectPtrENS_31MemoryManagedConstructionTraitsIS1_EEE4sizeEv(%"class.xalanc_1_10::XalanVector"* %this) #0 comdat align 2 !dbg !3218 {
entry:
  %this.addr = alloca %"class.xalanc_1_10::XalanVector"*, align 8
  store %"class.xalanc_1_10::XalanVector"* %this, %"class.xalanc_1_10::XalanVector"** %this.addr, align 8
  call void @llvm.dbg.declare(metadata %"class.xalanc_1_10::XalanVector"** %this.addr, metadata !3219, metadata !DIExpression()), !dbg !3221
  %this1 = load %"class.xalanc_1_10::XalanVector"*, %"class.xalanc_1_10::XalanVector"** %this.addr, align 8
  call void @_ZNK11xalanc_1_1011XalanVectorINS_10XObjectPtrENS_31MemoryManagedConstructionTraitsIS1_EEE10invariantsEv(%"class.xalanc_1_10::XalanVector"* %this1), !dbg !3222
  %m_size = getelementptr inbounds %"class.xalanc_1_10::XalanVector", %"class.xalanc_1_10::XalanVector"* %this1, i32 0, i32 1, !dbg !3223
  %0 = load i64, i64* %m_size, align 8, !dbg !3223
  ret i64 %0, !dbg !3224
}

; Function Attrs: noinline uwtable
define linkonce_odr dso_local void @_ZN11xalanc_1_1021XPathExecutionContext25GetAndReleaseCachedStringC2ERS0_(%"class.xalanc_1_10::XPathExecutionContext::GetAndReleaseCachedString"* %this, %"class.xalanc_1_10::XPathExecutionContext"* dereferenceable(24) %theExecutionContext) unnamed_addr #0 comdat align 2 !dbg !3225 {
entry:
  %this.addr = alloca %"class.xalanc_1_10::XPathExecutionContext::GetAndReleaseCachedString"*, align 8
  %theExecutionContext.addr = alloca %"class.xalanc_1_10::XPathExecutionContext"*, align 8
  store %"class.xalanc_1_10::XPathExecutionContext::GetAndReleaseCachedString"* %this, %"class.xalanc_1_10::XPathExecutionContext::GetAndReleaseCachedString"** %this.addr, align 8
  call void @llvm.dbg.declare(metadata %"class.xalanc_1_10::XPathExecutionContext::GetAndReleaseCachedString"** %this.addr, metadata !3226, metadata !DIExpression()), !dbg !3228
  store %"class.xalanc_1_10::XPathExecutionContext"* %theExecutionContext, %"class.xalanc_1_10::XPathExecutionContext"** %theExecutionContext.addr, align 8
  call void @llvm.dbg.declare(metadata %"class.xalanc_1_10::XPathExecutionContext"** %theExecutionContext.addr, metadata !3229, metadata !DIExpression()), !dbg !3230
  %this1 = load %"class.xalanc_1_10::XPathExecutionContext::GetAndReleaseCachedString"*, %"class.xalanc_1_10::XPathExecutionContext::GetAndReleaseCachedString"** %this.addr, align 8
  %m_executionContext = getelementptr inbounds %"class.xalanc_1_10::XPathExecutionContext::GetAndReleaseCachedString", %"class.xalanc_1_10::XPathExecutionContext::GetAndReleaseCachedString"* %this1, i32 0, i32 0, !dbg !3231
  %0 = load %"class.xalanc_1_10::XPathExecutionContext"*, %"class.xalanc_1_10::XPathExecutionContext"** %theExecutionContext.addr, align 8, !dbg !3232
  store %"class.xalanc_1_10::XPathExecutionContext"* %0, %"class.xalanc_1_10::XPathExecutionContext"** %m_executionContext, align 8, !dbg !3231
  %m_string = getelementptr inbounds %"class.xalanc_1_10::XPathExecutionContext::GetAndReleaseCachedString", %"class.xalanc_1_10::XPathExecutionContext::GetAndReleaseCachedString"* %this1, i32 0, i32 1, !dbg !3233
  %1 = load %"class.xalanc_1_10::XPathExecutionContext"*, %"class.xalanc_1_10::XPathExecutionContext"** %theExecutionContext.addr, align 8, !dbg !3234
  %2 = bitcast %"class.xalanc_1_10::XPathExecutionContext"* %1 to %"class.xalanc_1_10::XalanDOMString"* (%"class.xalanc_1_10::XPathExecutionContext"*)***, !dbg !3235
  %vtable = load %"class.xalanc_1_10::XalanDOMString"* (%"class.xalanc_1_10::XPathExecutionContext"*)**, %"class.xalanc_1_10::XalanDOMString"* (%"class.xalanc_1_10::XPathExecutionContext"*)*** %2, align 8, !dbg !3235
  %vfn = getelementptr inbounds %"class.xalanc_1_10::XalanDOMString"* (%"class.xalanc_1_10::XPathExecutionContext"*)*, %"class.xalanc_1_10::XalanDOMString"* (%"class.xalanc_1_10::XPathExecutionContext"*)** %vtable, i64 23, !dbg !3235
  %3 = load %"class.xalanc_1_10::XalanDOMString"* (%"class.xalanc_1_10::XPathExecutionContext"*)*, %"class.xalanc_1_10::XalanDOMString"* (%"class.xalanc_1_10::XPathExecutionContext"*)** %vfn, align 8, !dbg !3235
  %call = call dereferenceable(40) %"class.xalanc_1_10::XalanDOMString"* %3(%"class.xalanc_1_10::XPathExecutionContext"* %1), !dbg !3235
  store %"class.xalanc_1_10::XalanDOMString"* %call, %"class.xalanc_1_10::XalanDOMString"** %m_string, align 8, !dbg !3233
  ret void, !dbg !3236
}

; Function Attrs: noinline nounwind uwtable
define linkonce_odr dso_local dereferenceable(40) %"class.xalanc_1_10::XalanDOMString"* @_ZNK11xalanc_1_1021XPathExecutionContext25GetAndReleaseCachedString3getEv(%"class.xalanc_1_10::XPathExecutionContext::GetAndReleaseCachedString"* %this) #2 comdat align 2 !dbg !3237 {
entry:
  %this.addr = alloca %"class.xalanc_1_10::XPathExecutionContext::GetAndReleaseCachedString"*, align 8
  store %"class.xalanc_1_10::XPathExecutionContext::GetAndReleaseCachedString"* %this, %"class.xalanc_1_10::XPathExecutionContext::GetAndReleaseCachedString"** %this.addr, align 8
  call void @llvm.dbg.declare(metadata %"class.xalanc_1_10::XPathExecutionContext::GetAndReleaseCachedString"** %this.addr, metadata !3238, metadata !DIExpression()), !dbg !3240
  %this1 = load %"class.xalanc_1_10::XPathExecutionContext::GetAndReleaseCachedString"*, %"class.xalanc_1_10::XPathExecutionContext::GetAndReleaseCachedString"** %this.addr, align 8
  %m_string = getelementptr inbounds %"class.xalanc_1_10::XPathExecutionContext::GetAndReleaseCachedString", %"class.xalanc_1_10::XPathExecutionContext::GetAndReleaseCachedString"* %this1, i32 0, i32 1, !dbg !3241
  %0 = load %"class.xalanc_1_10::XalanDOMString"*, %"class.xalanc_1_10::XalanDOMString"** %m_string, align 8, !dbg !3241
  ret %"class.xalanc_1_10::XalanDOMString"* %0, !dbg !3242
}

declare dso_local i32 @__gxx_personality_v0(...)

; Function Attrs: noinline nounwind uwtable
define linkonce_odr dso_local void @_ZN11xalanc_1_1021XPathExecutionContext25GetAndReleaseCachedStringD2Ev(%"class.xalanc_1_10::XPathExecutionContext::GetAndReleaseCachedString"* %this) unnamed_addr #2 comdat align 2 personality i8* bitcast (i32 (...)* @__gxx_personality_v0 to i8*) !dbg !3243 {
entry:
  %this.addr = alloca %"class.xalanc_1_10::XPathExecutionContext::GetAndReleaseCachedString"*, align 8
  store %"class.xalanc_1_10::XPathExecutionContext::GetAndReleaseCachedString"* %this, %"class.xalanc_1_10::XPathExecutionContext::GetAndReleaseCachedString"** %this.addr, align 8
  call void @llvm.dbg.declare(metadata %"class.xalanc_1_10::XPathExecutionContext::GetAndReleaseCachedString"** %this.addr, metadata !3244, metadata !DIExpression()), !dbg !3245
  %this1 = load %"class.xalanc_1_10::XPathExecutionContext::GetAndReleaseCachedString"*, %"class.xalanc_1_10::XPathExecutionContext::GetAndReleaseCachedString"** %this.addr, align 8
  %m_string = getelementptr inbounds %"class.xalanc_1_10::XPathExecutionContext::GetAndReleaseCachedString", %"class.xalanc_1_10::XPathExecutionContext::GetAndReleaseCachedString"* %this1, i32 0, i32 1, !dbg !3246
  %0 = load %"class.xalanc_1_10::XalanDOMString"*, %"class.xalanc_1_10::XalanDOMString"** %m_string, align 8, !dbg !3246
  %cmp = icmp ne %"class.xalanc_1_10::XalanDOMString"* %0, null, !dbg !3249
  br i1 %cmp, label %if.then, label %if.end, !dbg !3250

if.then:                                          ; preds = %entry
  %m_executionContext = getelementptr inbounds %"class.xalanc_1_10::XPathExecutionContext::GetAndReleaseCachedString", %"class.xalanc_1_10::XPathExecutionContext::GetAndReleaseCachedString"* %this1, i32 0, i32 0, !dbg !3251
  %1 = load %"class.xalanc_1_10::XPathExecutionContext"*, %"class.xalanc_1_10::XPathExecutionContext"** %m_executionContext, align 8, !dbg !3251
  %m_string2 = getelementptr inbounds %"class.xalanc_1_10::XPathExecutionContext::GetAndReleaseCachedString", %"class.xalanc_1_10::XPathExecutionContext::GetAndReleaseCachedString"* %this1, i32 0, i32 1, !dbg !3253
  %2 = load %"class.xalanc_1_10::XalanDOMString"*, %"class.xalanc_1_10::XalanDOMString"** %m_string2, align 8, !dbg !3253
  %3 = bitcast %"class.xalanc_1_10::XPathExecutionContext"* %1 to i1 (%"class.xalanc_1_10::XPathExecutionContext"*, %"class.xalanc_1_10::XalanDOMString"*)***, !dbg !3254
  %vtable = load i1 (%"class.xalanc_1_10::XPathExecutionContext"*, %"class.xalanc_1_10::XalanDOMString"*)**, i1 (%"class.xalanc_1_10::XPathExecutionContext"*, %"class.xalanc_1_10::XalanDOMString"*)*** %3, align 8, !dbg !3254
  %vfn = getelementptr inbounds i1 (%"class.xalanc_1_10::XPathExecutionContext"*, %"class.xalanc_1_10::XalanDOMString"*)*, i1 (%"class.xalanc_1_10::XPathExecutionContext"*, %"class.xalanc_1_10::XalanDOMString"*)** %vtable, i64 24, !dbg !3254
  %4 = load i1 (%"class.xalanc_1_10::XPathExecutionContext"*, %"class.xalanc_1_10::XalanDOMString"*)*, i1 (%"class.xalanc_1_10::XPathExecutionContext"*, %"class.xalanc_1_10::XalanDOMString"*)** %vfn, align 8, !dbg !3254
  %call = invoke zeroext i1 %4(%"class.xalanc_1_10::XPathExecutionContext"* %1, %"class.xalanc_1_10::XalanDOMString"* dereferenceable(40) %2)
          to label %invoke.cont unwind label %terminate.lpad, !dbg !3254

invoke.cont:                                      ; preds = %if.then
  br label %if.end, !dbg !3255

if.end:                                           ; preds = %invoke.cont, %entry
  ret void, !dbg !3256

terminate.lpad:                                   ; preds = %if.then
  %5 = landingpad { i8*, i32 }
          catch i8* null, !dbg !3254
  %6 = extractvalue { i8*, i32 } %5, 0, !dbg !3254
  call void @__clang_call_terminate(i8* %6) #9, !dbg !3254
  unreachable, !dbg !3254
}

; Function Attrs: noinline uwtable
define linkonce_odr dso_local void @_ZN11xalanc_1_109findNodesIPFbddEEENS_10XObjectPtrERNS_21XPathExecutionContextERKNS_15NodeRefListBaseET_(%"class.xalanc_1_10::XObjectPtr"* noalias sret %agg.result, %"class.xalanc_1_10::XPathExecutionContext"* dereferenceable(24) %executionContext, %"class.xalanc_1_10::NodeRefListBase"* dereferenceable(8) %theNodeSet, i1 (double, double)* %theCompareFunction) #0 comdat personality i8* bitcast (i32 (...)* @__gxx_personality_v0 to i8*) !dbg !3257 {
entry:
  %result.ptr = alloca i8*, align 8
  %executionContext.addr = alloca %"class.xalanc_1_10::XPathExecutionContext"*, align 8
  %theNodeSet.addr = alloca %"class.xalanc_1_10::NodeRefListBase"*, align 8
  %theCompareFunction.addr = alloca i1 (double, double)*, align 8
  %theLength = alloca i32, align 4
  %theNodes = alloca %"class.xalanc_1_10::XPathExecutionContext::BorrowReturnMutableNodeRefList", align 8
  %exn.slot = alloca i8*
  %ehselector.slot = alloca i32
  %theGuard = alloca %"class.xalanc_1_10::XPathExecutionContext::GetAndReleaseCachedString", align 8
  %theStringValue = alloca %"class.xalanc_1_10::XalanDOMString"*, align 8
  %theCurrentNode = alloca %"class.xalanc_1_10::XalanNode"*, align 8
  %theNumericValue = alloca double, align 8
  %i = alloca i32, align 4
  %theCurrent = alloca double, align 8
  %0 = bitcast %"class.xalanc_1_10::XObjectPtr"* %agg.result to i8*
  store i8* %0, i8** %result.ptr, align 8
  store %"class.xalanc_1_10::XPathExecutionContext"* %executionContext, %"class.xalanc_1_10::XPathExecutionContext"** %executionContext.addr, align 8
  call void @llvm.dbg.declare(metadata %"class.xalanc_1_10::XPathExecutionContext"** %executionContext.addr, metadata !3269, metadata !DIExpression()), !dbg !3270
  store %"class.xalanc_1_10::NodeRefListBase"* %theNodeSet, %"class.xalanc_1_10::NodeRefListBase"** %theNodeSet.addr, align 8
  call void @llvm.dbg.declare(metadata %"class.xalanc_1_10::NodeRefListBase"** %theNodeSet.addr, metadata !3271, metadata !DIExpression()), !dbg !3272
  store i1 (double, double)* %theCompareFunction, i1 (double, double)** %theCompareFunction.addr, align 8
  call void @llvm.dbg.declare(metadata i1 (double, double)** %theCompareFunction.addr, metadata !3273, metadata !DIExpression()), !dbg !3274
  call void @llvm.dbg.declare(metadata i32* %theLength, metadata !3275, metadata !DIExpression()), !dbg !3278
  %1 = load %"class.xalanc_1_10::NodeRefListBase"*, %"class.xalanc_1_10::NodeRefListBase"** %theNodeSet.addr, align 8, !dbg !3279
  %2 = bitcast %"class.xalanc_1_10::NodeRefListBase"* %1 to i32 (%"class.xalanc_1_10::NodeRefListBase"*)***, !dbg !3280
  %vtable = load i32 (%"class.xalanc_1_10::NodeRefListBase"*)**, i32 (%"class.xalanc_1_10::NodeRefListBase"*)*** %2, align 8, !dbg !3280
  %vfn = getelementptr inbounds i32 (%"class.xalanc_1_10::NodeRefListBase"*)*, i32 (%"class.xalanc_1_10::NodeRefListBase"*)** %vtable, i64 3, !dbg !3280
  %3 = load i32 (%"class.xalanc_1_10::NodeRefListBase"*)*, i32 (%"class.xalanc_1_10::NodeRefListBase"*)** %vfn, align 8, !dbg !3280
  %call = call i32 %3(%"class.xalanc_1_10::NodeRefListBase"* %1), !dbg !3280
  store i32 %call, i32* %theLength, align 4, !dbg !3278
  call void @llvm.dbg.declare(metadata %"class.xalanc_1_10::XPathExecutionContext::BorrowReturnMutableNodeRefList"* %theNodes, metadata !3281, metadata !DIExpression()), !dbg !3316
  %4 = load %"class.xalanc_1_10::XPathExecutionContext"*, %"class.xalanc_1_10::XPathExecutionContext"** %executionContext.addr, align 8, !dbg !3317
  call void @_ZN11xalanc_1_1021XPathExecutionContext30BorrowReturnMutableNodeRefListC2ERS0_(%"class.xalanc_1_10::XPathExecutionContext::BorrowReturnMutableNodeRefList"* %theNodes, %"class.xalanc_1_10::XPathExecutionContext"* dereferenceable(24) %4), !dbg !3316
  %call1 = invoke %"class.xalanc_1_10::MutableNodeRefList"* @_ZNK11xalanc_1_1021XPathExecutionContext30BorrowReturnMutableNodeRefListptEv(%"class.xalanc_1_10::XPathExecutionContext::BorrowReturnMutableNodeRefList"* %theNodes)
          to label %invoke.cont unwind label %lpad, !dbg !3318

invoke.cont:                                      ; preds = %entry
  invoke void @_ZN11xalanc_1_1018MutableNodeRefList16setDocumentOrderEv(%"class.xalanc_1_10::MutableNodeRefList"* %call1)
          to label %invoke.cont2 unwind label %lpad, !dbg !3319

invoke.cont2:                                     ; preds = %invoke.cont
  %5 = load i32, i32* %theLength, align 4, !dbg !3320
  %cmp = icmp ne i32 %5, 0, !dbg !3322
  br i1 %cmp, label %if.then, label %if.end65, !dbg !3323

if.then:                                          ; preds = %invoke.cont2
  call void @llvm.dbg.declare(metadata %"class.xalanc_1_10::XPathExecutionContext::GetAndReleaseCachedString"* %theGuard, metadata !3324, metadata !DIExpression()), !dbg !3326
  %6 = load %"class.xalanc_1_10::XPathExecutionContext"*, %"class.xalanc_1_10::XPathExecutionContext"** %executionContext.addr, align 8, !dbg !3327
  invoke void @_ZN11xalanc_1_1021XPathExecutionContext25GetAndReleaseCachedStringC2ERS0_(%"class.xalanc_1_10::XPathExecutionContext::GetAndReleaseCachedString"* %theGuard, %"class.xalanc_1_10::XPathExecutionContext"* dereferenceable(24) %6)
          to label %invoke.cont3 unwind label %lpad, !dbg !3326

invoke.cont3:                                     ; preds = %if.then
  call void @llvm.dbg.declare(metadata %"class.xalanc_1_10::XalanDOMString"** %theStringValue, metadata !3328, metadata !DIExpression()), !dbg !3329
  %call6 = invoke dereferenceable(40) %"class.xalanc_1_10::XalanDOMString"* @_ZNK11xalanc_1_1021XPathExecutionContext25GetAndReleaseCachedString3getEv(%"class.xalanc_1_10::XPathExecutionContext::GetAndReleaseCachedString"* %theGuard)
          to label %invoke.cont5 unwind label %lpad4, !dbg !3330

invoke.cont5:                                     ; preds = %invoke.cont3
  store %"class.xalanc_1_10::XalanDOMString"* %call6, %"class.xalanc_1_10::XalanDOMString"** %theStringValue, align 8, !dbg !3329
  call void @llvm.dbg.declare(metadata %"class.xalanc_1_10::XalanNode"** %theCurrentNode, metadata !3331, metadata !DIExpression()), !dbg !3332
  %7 = load %"class.xalanc_1_10::NodeRefListBase"*, %"class.xalanc_1_10::NodeRefListBase"** %theNodeSet.addr, align 8, !dbg !3333
  %8 = bitcast %"class.xalanc_1_10::NodeRefListBase"* %7 to %"class.xalanc_1_10::XalanNode"* (%"class.xalanc_1_10::NodeRefListBase"*, i32)***, !dbg !3334
  %vtable7 = load %"class.xalanc_1_10::XalanNode"* (%"class.xalanc_1_10::NodeRefListBase"*, i32)**, %"class.xalanc_1_10::XalanNode"* (%"class.xalanc_1_10::NodeRefListBase"*, i32)*** %8, align 8, !dbg !3334
  %vfn8 = getelementptr inbounds %"class.xalanc_1_10::XalanNode"* (%"class.xalanc_1_10::NodeRefListBase"*, i32)*, %"class.xalanc_1_10::XalanNode"* (%"class.xalanc_1_10::NodeRefListBase"*, i32)** %vtable7, i64 2, !dbg !3334
  %9 = load %"class.xalanc_1_10::XalanNode"* (%"class.xalanc_1_10::NodeRefListBase"*, i32)*, %"class.xalanc_1_10::XalanNode"* (%"class.xalanc_1_10::NodeRefListBase"*, i32)** %vfn8, align 8, !dbg !3334
  %call10 = invoke %"class.xalanc_1_10::XalanNode"* %9(%"class.xalanc_1_10::NodeRefListBase"* %7, i32 0)
          to label %invoke.cont9 unwind label %lpad4, !dbg !3334

invoke.cont9:                                     ; preds = %invoke.cont5
  store %"class.xalanc_1_10::XalanNode"* %call10, %"class.xalanc_1_10::XalanNode"** %theCurrentNode, align 8, !dbg !3332
  %10 = load %"class.xalanc_1_10::XalanNode"*, %"class.xalanc_1_10::XalanNode"** %theCurrentNode, align 8, !dbg !3335
  %11 = load %"class.xalanc_1_10::XalanDOMString"*, %"class.xalanc_1_10::XalanDOMString"** %theStringValue, align 8, !dbg !3336
  invoke void @_ZN11xalanc_1_1011DOMServices11getNodeDataERKNS_9XalanNodeERNS_14XalanDOMStringE(%"class.xalanc_1_10::XalanNode"* dereferenceable(8) %10, %"class.xalanc_1_10::XalanDOMString"* dereferenceable(40) %11)
          to label %invoke.cont11 unwind label %lpad4, !dbg !3337

invoke.cont11:                                    ; preds = %invoke.cont9
  call void @llvm.dbg.declare(metadata double* %theNumericValue, metadata !3338, metadata !DIExpression()), !dbg !3339
  %12 = load %"class.xalanc_1_10::XalanDOMString"*, %"class.xalanc_1_10::XalanDOMString"** %theStringValue, align 8, !dbg !3340
  %13 = load %"class.xalanc_1_10::XPathExecutionContext"*, %"class.xalanc_1_10::XPathExecutionContext"** %executionContext.addr, align 8, !dbg !3341
  %14 = bitcast %"class.xalanc_1_10::XPathExecutionContext"* %13 to %"class.xalanc_1_10::ExecutionContext"*, !dbg !3341
  %call13 = invoke dereferenceable(8) %"class.xercesc_2_7::MemoryManager"* @_ZN11xalanc_1_1016ExecutionContext16getMemoryManagerEv(%"class.xalanc_1_10::ExecutionContext"* %14)
          to label %invoke.cont12 unwind label %lpad4, !dbg !3342

invoke.cont12:                                    ; preds = %invoke.cont11
  %call15 = invoke double @_ZN11xalanc_1_1017DOMStringToDoubleERKNS_14XalanDOMStringERN11xercesc_2_713MemoryManagerE(%"class.xalanc_1_10::XalanDOMString"* dereferenceable(40) %12, %"class.xercesc_2_7::MemoryManager"* dereferenceable(8) %call13)
          to label %invoke.cont14 unwind label %lpad4, !dbg !3343

invoke.cont14:                                    ; preds = %invoke.cont12
  store double %call15, double* %theNumericValue, align 8, !dbg !3339
  %15 = load double, double* %theNumericValue, align 8, !dbg !3344
  %call17 = invoke zeroext i1 @_ZN11xalanc_1_1013DoubleSupport5isNaNEd(double %15)
          to label %invoke.cont16 unwind label %lpad4, !dbg !3346

invoke.cont16:                                    ; preds = %invoke.cont14
  %conv = zext i1 %call17 to i32, !dbg !3346
  %cmp18 = icmp eq i32 %conv, 0, !dbg !3347
  br i1 %cmp18, label %if.then19, label %if.end64, !dbg !3348

if.then19:                                        ; preds = %invoke.cont16
  %call21 = invoke %"class.xalanc_1_10::MutableNodeRefList"* @_ZNK11xalanc_1_1021XPathExecutionContext30BorrowReturnMutableNodeRefListptEv(%"class.xalanc_1_10::XPathExecutionContext::BorrowReturnMutableNodeRefList"* %theNodes)
          to label %invoke.cont20 unwind label %lpad4, !dbg !3349

invoke.cont20:                                    ; preds = %if.then19
  %16 = load %"class.xalanc_1_10::XalanNode"*, %"class.xalanc_1_10::XalanNode"** %theCurrentNode, align 8, !dbg !3351
  invoke void @_ZN11xalanc_1_1018MutableNodeRefList7addNodeEPNS_9XalanNodeE(%"class.xalanc_1_10::MutableNodeRefList"* %call21, %"class.xalanc_1_10::XalanNode"* %16)
          to label %invoke.cont22 unwind label %lpad4, !dbg !3352

invoke.cont22:                                    ; preds = %invoke.cont20
  call void @llvm.dbg.declare(metadata i32* %i, metadata !3353, metadata !DIExpression()), !dbg !3355
  store i32 1, i32* %i, align 4, !dbg !3355
  br label %for.cond, !dbg !3356

for.cond:                                         ; preds = %for.inc, %invoke.cont22
  %17 = load i32, i32* %i, align 4, !dbg !3357
  %18 = load i32, i32* %theLength, align 4, !dbg !3359
  %cmp23 = icmp ult i32 %17, %18, !dbg !3360
  br i1 %cmp23, label %for.body, label %for.end, !dbg !3361

for.body:                                         ; preds = %for.cond
  %19 = load %"class.xalanc_1_10::NodeRefListBase"*, %"class.xalanc_1_10::NodeRefListBase"** %theNodeSet.addr, align 8, !dbg !3362
  %20 = load i32, i32* %i, align 4, !dbg !3364
  %21 = bitcast %"class.xalanc_1_10::NodeRefListBase"* %19 to %"class.xalanc_1_10::XalanNode"* (%"class.xalanc_1_10::NodeRefListBase"*, i32)***, !dbg !3365
  %vtable24 = load %"class.xalanc_1_10::XalanNode"* (%"class.xalanc_1_10::NodeRefListBase"*, i32)**, %"class.xalanc_1_10::XalanNode"* (%"class.xalanc_1_10::NodeRefListBase"*, i32)*** %21, align 8, !dbg !3365
  %vfn25 = getelementptr inbounds %"class.xalanc_1_10::XalanNode"* (%"class.xalanc_1_10::NodeRefListBase"*, i32)*, %"class.xalanc_1_10::XalanNode"* (%"class.xalanc_1_10::NodeRefListBase"*, i32)** %vtable24, i64 2, !dbg !3365
  %22 = load %"class.xalanc_1_10::XalanNode"* (%"class.xalanc_1_10::NodeRefListBase"*, i32)*, %"class.xalanc_1_10::XalanNode"* (%"class.xalanc_1_10::NodeRefListBase"*, i32)** %vfn25, align 8, !dbg !3365
  %call27 = invoke %"class.xalanc_1_10::XalanNode"* %22(%"class.xalanc_1_10::NodeRefListBase"* %19, i32 %20)
          to label %invoke.cont26 unwind label %lpad4, !dbg !3365

invoke.cont26:                                    ; preds = %for.body
  store %"class.xalanc_1_10::XalanNode"* %call27, %"class.xalanc_1_10::XalanNode"** %theCurrentNode, align 8, !dbg !3366
  %23 = load %"class.xalanc_1_10::XalanDOMString"*, %"class.xalanc_1_10::XalanDOMString"** %theStringValue, align 8, !dbg !3367
  invoke void @_ZN11xalanc_1_1014XalanDOMString5clearEv(%"class.xalanc_1_10::XalanDOMString"* %23)
          to label %invoke.cont28 unwind label %lpad4, !dbg !3368

invoke.cont28:                                    ; preds = %invoke.cont26
  %24 = load %"class.xalanc_1_10::XalanNode"*, %"class.xalanc_1_10::XalanNode"** %theCurrentNode, align 8, !dbg !3369
  %25 = load %"class.xalanc_1_10::XalanDOMString"*, %"class.xalanc_1_10::XalanDOMString"** %theStringValue, align 8, !dbg !3370
  invoke void @_ZN11xalanc_1_1011DOMServices11getNodeDataERKNS_9XalanNodeERNS_14XalanDOMStringE(%"class.xalanc_1_10::XalanNode"* dereferenceable(8) %24, %"class.xalanc_1_10::XalanDOMString"* dereferenceable(40) %25)
          to label %invoke.cont29 unwind label %lpad4, !dbg !3371

invoke.cont29:                                    ; preds = %invoke.cont28
  call void @llvm.dbg.declare(metadata double* %theCurrent, metadata !3372, metadata !DIExpression()), !dbg !3373
  %26 = load %"class.xalanc_1_10::XalanDOMString"*, %"class.xalanc_1_10::XalanDOMString"** %theStringValue, align 8, !dbg !3374
  %27 = load %"class.xalanc_1_10::XPathExecutionContext"*, %"class.xalanc_1_10::XPathExecutionContext"** %executionContext.addr, align 8, !dbg !3375
  %28 = bitcast %"class.xalanc_1_10::XPathExecutionContext"* %27 to %"class.xalanc_1_10::ExecutionContext"*, !dbg !3375
  %call31 = invoke dereferenceable(8) %"class.xercesc_2_7::MemoryManager"* @_ZN11xalanc_1_1016ExecutionContext16getMemoryManagerEv(%"class.xalanc_1_10::ExecutionContext"* %28)
          to label %invoke.cont30 unwind label %lpad4, !dbg !3376

invoke.cont30:                                    ; preds = %invoke.cont29
  %call33 = invoke double @_ZN11xalanc_1_1017DOMStringToDoubleERKNS_14XalanDOMStringERN11xercesc_2_713MemoryManagerE(%"class.xalanc_1_10::XalanDOMString"* dereferenceable(40) %26, %"class.xercesc_2_7::MemoryManager"* dereferenceable(8) %call31)
          to label %invoke.cont32 unwind label %lpad4, !dbg !3377

invoke.cont32:                                    ; preds = %invoke.cont30
  store double %call33, double* %theCurrent, align 8, !dbg !3373
  %29 = load double, double* %theCurrent, align 8, !dbg !3378
  %call35 = invoke zeroext i1 @_ZN11xalanc_1_1013DoubleSupport5isNaNEd(double %29)
          to label %invoke.cont34 unwind label %lpad4, !dbg !3380

invoke.cont34:                                    ; preds = %invoke.cont32
  %conv36 = zext i1 %call35 to i32, !dbg !3380
  %cmp37 = icmp eq i32 %conv36, 1, !dbg !3381
  br i1 %cmp37, label %if.then38, label %if.else, !dbg !3382

if.then38:                                        ; preds = %invoke.cont34
  %call40 = invoke %"class.xalanc_1_10::MutableNodeRefList"* @_ZNK11xalanc_1_1021XPathExecutionContext30BorrowReturnMutableNodeRefListptEv(%"class.xalanc_1_10::XPathExecutionContext::BorrowReturnMutableNodeRefList"* %theNodes)
          to label %invoke.cont39 unwind label %lpad4, !dbg !3383

invoke.cont39:                                    ; preds = %if.then38
  invoke void @_ZN11xalanc_1_1018MutableNodeRefList5clearEv(%"class.xalanc_1_10::MutableNodeRefList"* %call40)
          to label %invoke.cont41 unwind label %lpad4, !dbg !3385

invoke.cont41:                                    ; preds = %invoke.cont39
  br label %for.end, !dbg !3386

lpad:                                             ; preds = %invoke.cont66, %if.end65, %if.then, %invoke.cont, %entry
  %30 = landingpad { i8*, i32 }
          cleanup, !dbg !3387
  %31 = extractvalue { i8*, i32 } %30, 0, !dbg !3387
  store i8* %31, i8** %exn.slot, align 8, !dbg !3387
  %32 = extractvalue { i8*, i32 } %30, 1, !dbg !3387
  store i32 %32, i32* %ehselector.slot, align 4, !dbg !3387
  br label %ehcleanup, !dbg !3387

lpad4:                                            ; preds = %invoke.cont59, %invoke.cont58, %invoke.cont56, %if.then55, %if.else50, %invoke.cont47, %if.then46, %if.else, %invoke.cont39, %if.then38, %invoke.cont32, %invoke.cont30, %invoke.cont29, %invoke.cont28, %invoke.cont26, %for.body, %invoke.cont20, %if.then19, %invoke.cont14, %invoke.cont12, %invoke.cont11, %invoke.cont9, %invoke.cont5, %invoke.cont3
  %33 = landingpad { i8*, i32 }
          cleanup, !dbg !3388
  %34 = extractvalue { i8*, i32 } %33, 0, !dbg !3388
  store i8* %34, i8** %exn.slot, align 8, !dbg !3388
  %35 = extractvalue { i8*, i32 } %33, 1, !dbg !3388
  store i32 %35, i32* %ehselector.slot, align 4, !dbg !3388
  call void @_ZN11xalanc_1_1021XPathExecutionContext25GetAndReleaseCachedStringD2Ev(%"class.xalanc_1_10::XPathExecutionContext::GetAndReleaseCachedString"* %theGuard) #5, !dbg !3389
  br label %ehcleanup, !dbg !3389

if.else:                                          ; preds = %invoke.cont34
  %36 = load double, double* %theCurrent, align 8, !dbg !3390
  %37 = load double, double* %theNumericValue, align 8, !dbg !3392
  %call43 = invoke zeroext i1 @_ZN11xalanc_1_1013DoubleSupport5equalEdd(double %36, double %37)
          to label %invoke.cont42 unwind label %lpad4, !dbg !3393

invoke.cont42:                                    ; preds = %if.else
  %conv44 = zext i1 %call43 to i32, !dbg !3393
  %cmp45 = icmp eq i32 %conv44, 1, !dbg !3394
  br i1 %cmp45, label %if.then46, label %if.else50, !dbg !3395

if.then46:                                        ; preds = %invoke.cont42
  %call48 = invoke %"class.xalanc_1_10::MutableNodeRefList"* @_ZNK11xalanc_1_1021XPathExecutionContext30BorrowReturnMutableNodeRefListptEv(%"class.xalanc_1_10::XPathExecutionContext::BorrowReturnMutableNodeRefList"* %theNodes)
          to label %invoke.cont47 unwind label %lpad4, !dbg !3396

invoke.cont47:                                    ; preds = %if.then46
  %38 = load %"class.xalanc_1_10::XalanNode"*, %"class.xalanc_1_10::XalanNode"** %theCurrentNode, align 8, !dbg !3398
  %39 = load %"class.xalanc_1_10::XPathExecutionContext"*, %"class.xalanc_1_10::XPathExecutionContext"** %executionContext.addr, align 8, !dbg !3399
  invoke void @_ZN11xalanc_1_1018MutableNodeRefList17addNodeInDocOrderEPNS_9XalanNodeERNS_21XPathExecutionContextE(%"class.xalanc_1_10::MutableNodeRefList"* %call48, %"class.xalanc_1_10::XalanNode"* %38, %"class.xalanc_1_10::XPathExecutionContext"* dereferenceable(24) %39)
          to label %invoke.cont49 unwind label %lpad4, !dbg !3400

invoke.cont49:                                    ; preds = %invoke.cont47
  br label %if.end62, !dbg !3401

if.else50:                                        ; preds = %invoke.cont42
  %40 = load i1 (double, double)*, i1 (double, double)** %theCompareFunction.addr, align 8, !dbg !3402
  %41 = load double, double* %theCurrent, align 8, !dbg !3404
  %42 = load double, double* %theNumericValue, align 8, !dbg !3405
  %call52 = invoke zeroext i1 %40(double %41, double %42)
          to label %invoke.cont51 unwind label %lpad4, !dbg !3402

invoke.cont51:                                    ; preds = %if.else50
  %conv53 = zext i1 %call52 to i32, !dbg !3402
  %cmp54 = icmp eq i32 %conv53, 1, !dbg !3406
  br i1 %cmp54, label %if.then55, label %if.end, !dbg !3407

if.then55:                                        ; preds = %invoke.cont51
  %call57 = invoke %"class.xalanc_1_10::MutableNodeRefList"* @_ZNK11xalanc_1_1021XPathExecutionContext30BorrowReturnMutableNodeRefListptEv(%"class.xalanc_1_10::XPathExecutionContext::BorrowReturnMutableNodeRefList"* %theNodes)
          to label %invoke.cont56 unwind label %lpad4, !dbg !3408

invoke.cont56:                                    ; preds = %if.then55
  invoke void @_ZN11xalanc_1_1018MutableNodeRefList5clearEv(%"class.xalanc_1_10::MutableNodeRefList"* %call57)
          to label %invoke.cont58 unwind label %lpad4, !dbg !3410

invoke.cont58:                                    ; preds = %invoke.cont56
  %call60 = invoke %"class.xalanc_1_10::MutableNodeRefList"* @_ZNK11xalanc_1_1021XPathExecutionContext30BorrowReturnMutableNodeRefListptEv(%"class.xalanc_1_10::XPathExecutionContext::BorrowReturnMutableNodeRefList"* %theNodes)
          to label %invoke.cont59 unwind label %lpad4, !dbg !3411

invoke.cont59:                                    ; preds = %invoke.cont58
  %43 = load %"class.xalanc_1_10::XalanNode"*, %"class.xalanc_1_10::XalanNode"** %theCurrentNode, align 8, !dbg !3412
  invoke void @_ZN11xalanc_1_1018MutableNodeRefList7addNodeEPNS_9XalanNodeE(%"class.xalanc_1_10::MutableNodeRefList"* %call60, %"class.xalanc_1_10::XalanNode"* %43)
          to label %invoke.cont61 unwind label %lpad4, !dbg !3413

invoke.cont61:                                    ; preds = %invoke.cont59
  %44 = load double, double* %theCurrent, align 8, !dbg !3414
  store double %44, double* %theNumericValue, align 8, !dbg !3415
  br label %if.end, !dbg !3416

if.end:                                           ; preds = %invoke.cont61, %invoke.cont51
  br label %if.end62

if.end62:                                         ; preds = %if.end, %invoke.cont49
  br label %if.end63

if.end63:                                         ; preds = %if.end62
  br label %for.inc, !dbg !3417

for.inc:                                          ; preds = %if.end63
  %45 = load i32, i32* %i, align 4, !dbg !3418
  %inc = add i32 %45, 1, !dbg !3418
  store i32 %inc, i32* %i, align 4, !dbg !3418
  br label %for.cond, !dbg !3419, !llvm.loop !3420

for.end:                                          ; preds = %invoke.cont41, %for.cond
  br label %if.end64, !dbg !3422

if.end64:                                         ; preds = %for.end, %invoke.cont16
  call void @_ZN11xalanc_1_1021XPathExecutionContext25GetAndReleaseCachedStringD2Ev(%"class.xalanc_1_10::XPathExecutionContext::GetAndReleaseCachedString"* %theGuard) #5, !dbg !3389
  br label %if.end65, !dbg !3423

if.end65:                                         ; preds = %if.end64, %invoke.cont2
  %46 = load %"class.xalanc_1_10::XPathExecutionContext"*, %"class.xalanc_1_10::XPathExecutionContext"** %executionContext.addr, align 8, !dbg !3424
  %call67 = invoke dereferenceable(16) %"class.xalanc_1_10::XObjectFactory"* @_ZNK11xalanc_1_1021XPathExecutionContext17getXObjectFactoryEv(%"class.xalanc_1_10::XPathExecutionContext"* %46)
          to label %invoke.cont66 unwind label %lpad, !dbg !3425

invoke.cont66:                                    ; preds = %if.end65
  %47 = bitcast %"class.xalanc_1_10::XObjectFactory"* %call67 to void (%"class.xalanc_1_10::XObjectPtr"*, %"class.xalanc_1_10::XObjectFactory"*, %"class.xalanc_1_10::XPathExecutionContext::BorrowReturnMutableNodeRefList"*)***, !dbg !3426
  %vtable68 = load void (%"class.xalanc_1_10::XObjectPtr"*, %"class.xalanc_1_10::XObjectFactory"*, %"class.xalanc_1_10::XPathExecutionContext::BorrowReturnMutableNodeRefList"*)**, void (%"class.xalanc_1_10::XObjectPtr"*, %"class.xalanc_1_10::XObjectFactory"*, %"class.xalanc_1_10::XPathExecutionContext::BorrowReturnMutableNodeRefList"*)*** %47, align 8, !dbg !3426
  %vfn69 = getelementptr inbounds void (%"class.xalanc_1_10::XObjectPtr"*, %"class.xalanc_1_10::XObjectFactory"*, %"class.xalanc_1_10::XPathExecutionContext::BorrowReturnMutableNodeRefList"*)*, void (%"class.xalanc_1_10::XObjectPtr"*, %"class.xalanc_1_10::XObjectFactory"*, %"class.xalanc_1_10::XPathExecutionContext::BorrowReturnMutableNodeRefList"*)** %vtable68, i64 4, !dbg !3426
  %48 = load void (%"class.xalanc_1_10::XObjectPtr"*, %"class.xalanc_1_10::XObjectFactory"*, %"class.xalanc_1_10::XPathExecutionContext::BorrowReturnMutableNodeRefList"*)*, void (%"class.xalanc_1_10::XObjectPtr"*, %"class.xalanc_1_10::XObjectFactory"*, %"class.xalanc_1_10::XPathExecutionContext::BorrowReturnMutableNodeRefList"*)** %vfn69, align 8, !dbg !3426
  invoke void %48(%"class.xalanc_1_10::XObjectPtr"* sret %agg.result, %"class.xalanc_1_10::XObjectFactory"* %call67, %"class.xalanc_1_10::XPathExecutionContext::BorrowReturnMutableNodeRefList"* dereferenceable(16) %theNodes)
          to label %invoke.cont70 unwind label %lpad, !dbg !3426

invoke.cont70:                                    ; preds = %invoke.cont66
  call void @_ZN11xalanc_1_1021XPathExecutionContext30BorrowReturnMutableNodeRefListD2Ev(%"class.xalanc_1_10::XPathExecutionContext::BorrowReturnMutableNodeRefList"* %theNodes) #5, !dbg !3387
  ret void, !dbg !3387

ehcleanup:                                        ; preds = %lpad4, %lpad
  call void @_ZN11xalanc_1_1021XPathExecutionContext30BorrowReturnMutableNodeRefListD2Ev(%"class.xalanc_1_10::XPathExecutionContext::BorrowReturnMutableNodeRefList"* %theNodes) #5, !dbg !3387
  br label %eh.resume, !dbg !3387

eh.resume:                                        ; preds = %ehcleanup
  %exn = load i8*, i8** %exn.slot, align 8, !dbg !3387
  %sel = load i32, i32* %ehselector.slot, align 4, !dbg !3387
  %lpad.val = insertvalue { i8*, i32 } undef, i8* %exn, 0, !dbg !3387
  %lpad.val71 = insertvalue { i8*, i32 } %lpad.val, i32 %sel, 1, !dbg !3387
  resume { i8*, i32 } %lpad.val71, !dbg !3387
}

; Function Attrs: noinline nounwind uwtable
define linkonce_odr dso_local dereferenceable(8) %"class.xalanc_1_10::XObjectPtr"* @_ZNK11xalanc_1_1011XalanVectorINS_10XObjectPtrENS_31MemoryManagedConstructionTraitsIS1_EEEixEm(%"class.xalanc_1_10::XalanVector"* %this, i64 %theIndex) #2 comdat align 2 !dbg !3427 {
entry:
  %this.addr = alloca %"class.xalanc_1_10::XalanVector"*, align 8
  %theIndex.addr = alloca i64, align 8
  store %"class.xalanc_1_10::XalanVector"* %this, %"class.xalanc_1_10::XalanVector"** %this.addr, align 8
  call void @llvm.dbg.declare(metadata %"class.xalanc_1_10::XalanVector"** %this.addr, metadata !3428, metadata !DIExpression()), !dbg !3429
  store i64 %theIndex, i64* %theIndex.addr, align 8
  call void @llvm.dbg.declare(metadata i64* %theIndex.addr, metadata !3430, metadata !DIExpression()), !dbg !3431
  %this1 = load %"class.xalanc_1_10::XalanVector"*, %"class.xalanc_1_10::XalanVector"** %this.addr, align 8
  %m_data = getelementptr inbounds %"class.xalanc_1_10::XalanVector", %"class.xalanc_1_10::XalanVector"* %this1, i32 0, i32 3, !dbg !3432
  %0 = load %"class.xalanc_1_10::XObjectPtr"*, %"class.xalanc_1_10::XObjectPtr"** %m_data, align 8, !dbg !3432
  %1 = load i64, i64* %theIndex.addr, align 8, !dbg !3433
  %arrayidx = getelementptr inbounds %"class.xalanc_1_10::XObjectPtr", %"class.xalanc_1_10::XObjectPtr"* %0, i64 %1, !dbg !3432
  ret %"class.xalanc_1_10::XObjectPtr"* %arrayidx, !dbg !3434
}

; Function Attrs: noinline nounwind uwtable
define linkonce_odr dso_local %"class.xalanc_1_10::XObject"* @_ZNK11xalanc_1_1010XObjectPtrptEv(%"class.xalanc_1_10::XObjectPtr"* %this) #2 comdat align 2 !dbg !3435 {
entry:
  %this.addr = alloca %"class.xalanc_1_10::XObjectPtr"*, align 8
  store %"class.xalanc_1_10::XObjectPtr"* %this, %"class.xalanc_1_10::XObjectPtr"** %this.addr, align 8
  call void @llvm.dbg.declare(metadata %"class.xalanc_1_10::XObjectPtr"** %this.addr, metadata !3436, metadata !DIExpression()), !dbg !3438
  %this1 = load %"class.xalanc_1_10::XObjectPtr"*, %"class.xalanc_1_10::XObjectPtr"** %this.addr, align 8
  %m_xobjectPtr = getelementptr inbounds %"class.xalanc_1_10::XObjectPtr", %"class.xalanc_1_10::XObjectPtr"* %this1, i32 0, i32 0, !dbg !3439
  %0 = load %"class.xalanc_1_10::XObject"*, %"class.xalanc_1_10::XObject"** %m_xobjectPtr, align 8, !dbg !3439
  ret %"class.xalanc_1_10::XObject"* %0, !dbg !3440
}

declare dso_local zeroext i1 @_ZN11xalanc_1_1013DoubleSupport11greaterThanEdd(double, double) #3

; Function Attrs: noinline uwtable
define dso_local dereferenceable(40) %"class.xalanc_1_10::XalanDOMString"* @_ZNK11xalanc_1_1025XalanEXSLTFunctionHighest8getErrorERNS_14XalanDOMStringE(%"class.xalanc_1_10::XalanEXSLTFunctionHighest"* %this, %"class.xalanc_1_10::XalanDOMString"* dereferenceable(40) %theBuffer) unnamed_addr #0 align 2 !dbg !3441 {
entry:
  %this.addr = alloca %"class.xalanc_1_10::XalanEXSLTFunctionHighest"*, align 8
  %theBuffer.addr = alloca %"class.xalanc_1_10::XalanDOMString"*, align 8
  store %"class.xalanc_1_10::XalanEXSLTFunctionHighest"* %this, %"class.xalanc_1_10::XalanEXSLTFunctionHighest"** %this.addr, align 8
  call void @llvm.dbg.declare(metadata %"class.xalanc_1_10::XalanEXSLTFunctionHighest"** %this.addr, metadata !3442, metadata !DIExpression()), !dbg !3443
  store %"class.xalanc_1_10::XalanDOMString"* %theBuffer, %"class.xalanc_1_10::XalanDOMString"** %theBuffer.addr, align 8
  call void @llvm.dbg.declare(metadata %"class.xalanc_1_10::XalanDOMString"** %theBuffer.addr, metadata !3444, metadata !DIExpression()), !dbg !3445
  %this1 = load %"class.xalanc_1_10::XalanEXSLTFunctionHighest"*, %"class.xalanc_1_10::XalanEXSLTFunctionHighest"** %this.addr, align 8
  %0 = load %"class.xalanc_1_10::XalanDOMString"*, %"class.xalanc_1_10::XalanDOMString"** %theBuffer.addr, align 8, !dbg !3446
  %call = call dereferenceable(40) %"class.xalanc_1_10::XalanDOMString"* @_ZN11xalanc_1_1018XalanMessageLoader10getMessageERNS_14XalanDOMStringENS_13XalanMessages5CodesEPKtS6_S6_S6_(%"class.xalanc_1_10::XalanDOMString"* dereferenceable(40) %0, i32 145, i16* getelementptr inbounds ([8 x i16], [8 x i16]* @_ZN11xalanc_1_10L21s_highestFunctionNameE, i64 0, i64 0), i16* null, i16* null, i16* null), !dbg !3447
  ret %"class.xalanc_1_10::XalanDOMString"* %call, !dbg !3448
}

declare dso_local dereferenceable(40) %"class.xalanc_1_10::XalanDOMString"* @_ZN11xalanc_1_1018XalanMessageLoader10getMessageERNS_14XalanDOMStringENS_13XalanMessages5CodesEPKtS6_S6_S6_(%"class.xalanc_1_10::XalanDOMString"* dereferenceable(40), i32, i16*, i16*, i16*, i16*) #3

; Function Attrs: noinline uwtable
define dso_local void @_ZNK11xalanc_1_1024XalanEXSLTFunctionLowest7executeERNS_21XPathExecutionContextEPNS_9XalanNodeERKNS_11XalanVectorINS_10XObjectPtrENS_31MemoryManagedConstructionTraitsIS6_EEEEPKN11xercesc_2_77LocatorE(%"class.xalanc_1_10::XObjectPtr"* noalias sret %agg.result, %"class.xalanc_1_10::XalanEXSLTFunctionLowest"* %this, %"class.xalanc_1_10::XPathExecutionContext"* dereferenceable(24) %executionContext, %"class.xalanc_1_10::XalanNode"* %context, %"class.xalanc_1_10::XalanVector"* dereferenceable(32) %args, %"class.xercesc_2_7::Locator"* %locator) unnamed_addr #0 align 2 personality i8* bitcast (i32 (...)* @__gxx_personality_v0 to i8*) !dbg !3449 {
entry:
  %result.ptr = alloca i8*, align 8
  %this.addr = alloca %"class.xalanc_1_10::XalanEXSLTFunctionLowest"*, align 8
  %executionContext.addr = alloca %"class.xalanc_1_10::XPathExecutionContext"*, align 8
  %context.addr = alloca %"class.xalanc_1_10::XalanNode"*, align 8
  %args.addr = alloca %"class.xalanc_1_10::XalanVector"*, align 8
  %locator.addr = alloca %"class.xercesc_2_7::Locator"*, align 8
  %theGuard = alloca %"class.xalanc_1_10::XPathExecutionContext::GetAndReleaseCachedString", align 8
  %exn.slot = alloca i8*
  %ehselector.slot = alloca i32
  %0 = bitcast %"class.xalanc_1_10::XObjectPtr"* %agg.result to i8*
  store i8* %0, i8** %result.ptr, align 8
  store %"class.xalanc_1_10::XalanEXSLTFunctionLowest"* %this, %"class.xalanc_1_10::XalanEXSLTFunctionLowest"** %this.addr, align 8
  call void @llvm.dbg.declare(metadata %"class.xalanc_1_10::XalanEXSLTFunctionLowest"** %this.addr, metadata !3450, metadata !DIExpression()), !dbg !3452
  store %"class.xalanc_1_10::XPathExecutionContext"* %executionContext, %"class.xalanc_1_10::XPathExecutionContext"** %executionContext.addr, align 8
  call void @llvm.dbg.declare(metadata %"class.xalanc_1_10::XPathExecutionContext"** %executionContext.addr, metadata !3453, metadata !DIExpression()), !dbg !3454
  store %"class.xalanc_1_10::XalanNode"* %context, %"class.xalanc_1_10::XalanNode"** %context.addr, align 8
  call void @llvm.dbg.declare(metadata %"class.xalanc_1_10::XalanNode"** %context.addr, metadata !3455, metadata !DIExpression()), !dbg !3456
  store %"class.xalanc_1_10::XalanVector"* %args, %"class.xalanc_1_10::XalanVector"** %args.addr, align 8
  call void @llvm.dbg.declare(metadata %"class.xalanc_1_10::XalanVector"** %args.addr, metadata !3457, metadata !DIExpression()), !dbg !3458
  store %"class.xercesc_2_7::Locator"* %locator, %"class.xercesc_2_7::Locator"** %locator.addr, align 8
  call void @llvm.dbg.declare(metadata %"class.xercesc_2_7::Locator"** %locator.addr, metadata !3459, metadata !DIExpression()), !dbg !3460
  %this1 = load %"class.xalanc_1_10::XalanEXSLTFunctionLowest"*, %"class.xalanc_1_10::XalanEXSLTFunctionLowest"** %this.addr, align 8
  %1 = load %"class.xalanc_1_10::XalanVector"*, %"class.xalanc_1_10::XalanVector"** %args.addr, align 8, !dbg !3461
  %call = call i64 @_ZNK11xalanc_1_1011XalanVectorINS_10XObjectPtrENS_31MemoryManagedConstructionTraitsIS1_EEE4sizeEv(%"class.xalanc_1_10::XalanVector"* %1), !dbg !3463
  %cmp = icmp ne i64 %call, 1, !dbg !3464
  br i1 %cmp, label %if.then, label %if.end, !dbg !3465

if.then:                                          ; preds = %entry
  call void @llvm.dbg.declare(metadata %"class.xalanc_1_10::XPathExecutionContext::GetAndReleaseCachedString"* %theGuard, metadata !3466, metadata !DIExpression()), !dbg !3468
  %2 = load %"class.xalanc_1_10::XPathExecutionContext"*, %"class.xalanc_1_10::XPathExecutionContext"** %executionContext.addr, align 8, !dbg !3469
  call void @_ZN11xalanc_1_1021XPathExecutionContext25GetAndReleaseCachedStringC2ERS0_(%"class.xalanc_1_10::XPathExecutionContext::GetAndReleaseCachedString"* %theGuard, %"class.xalanc_1_10::XPathExecutionContext"* dereferenceable(24) %2), !dbg !3468
  %3 = load %"class.xalanc_1_10::XPathExecutionContext"*, %"class.xalanc_1_10::XPathExecutionContext"** %executionContext.addr, align 8, !dbg !3470
  %call2 = invoke dereferenceable(40) %"class.xalanc_1_10::XalanDOMString"* @_ZNK11xalanc_1_1021XPathExecutionContext25GetAndReleaseCachedString3getEv(%"class.xalanc_1_10::XPathExecutionContext::GetAndReleaseCachedString"* %theGuard)
          to label %invoke.cont unwind label %lpad, !dbg !3471

invoke.cont:                                      ; preds = %if.then
  %4 = bitcast %"class.xalanc_1_10::XalanEXSLTFunctionLowest"* %this1 to %"class.xalanc_1_10::XalanDOMString"* (%"class.xalanc_1_10::XalanEXSLTFunctionLowest"*, %"class.xalanc_1_10::XalanDOMString"*)***, !dbg !3472
  %vtable = load %"class.xalanc_1_10::XalanDOMString"* (%"class.xalanc_1_10::XalanEXSLTFunctionLowest"*, %"class.xalanc_1_10::XalanDOMString"*)**, %"class.xalanc_1_10::XalanDOMString"* (%"class.xalanc_1_10::XalanEXSLTFunctionLowest"*, %"class.xalanc_1_10::XalanDOMString"*)*** %4, align 8, !dbg !3472
  %vfn = getelementptr inbounds %"class.xalanc_1_10::XalanDOMString"* (%"class.xalanc_1_10::XalanEXSLTFunctionLowest"*, %"class.xalanc_1_10::XalanDOMString"*)*, %"class.xalanc_1_10::XalanDOMString"* (%"class.xalanc_1_10::XalanEXSLTFunctionLowest"*, %"class.xalanc_1_10::XalanDOMString"*)** %vtable, i64 8, !dbg !3472
  %5 = load %"class.xalanc_1_10::XalanDOMString"* (%"class.xalanc_1_10::XalanEXSLTFunctionLowest"*, %"class.xalanc_1_10::XalanDOMString"*)*, %"class.xalanc_1_10::XalanDOMString"* (%"class.xalanc_1_10::XalanEXSLTFunctionLowest"*, %"class.xalanc_1_10::XalanDOMString"*)** %vfn, align 8, !dbg !3472
  %call4 = invoke dereferenceable(40) %"class.xalanc_1_10::XalanDOMString"* %5(%"class.xalanc_1_10::XalanEXSLTFunctionLowest"* %this1, %"class.xalanc_1_10::XalanDOMString"* dereferenceable(40) %call2)
          to label %invoke.cont3 unwind label %lpad, !dbg !3472

invoke.cont3:                                     ; preds = %invoke.cont
  %6 = load %"class.xalanc_1_10::XalanNode"*, %"class.xalanc_1_10::XalanNode"** %context.addr, align 8, !dbg !3473
  %7 = load %"class.xercesc_2_7::Locator"*, %"class.xercesc_2_7::Locator"** %locator.addr, align 8, !dbg !3474
  %8 = bitcast %"class.xalanc_1_10::XPathExecutionContext"* %3 to void (%"class.xalanc_1_10::XPathExecutionContext"*, %"class.xalanc_1_10::XalanDOMString"*, %"class.xalanc_1_10::XalanNode"*, %"class.xercesc_2_7::Locator"*)***, !dbg !3475
  %vtable5 = load void (%"class.xalanc_1_10::XPathExecutionContext"*, %"class.xalanc_1_10::XalanDOMString"*, %"class.xalanc_1_10::XalanNode"*, %"class.xercesc_2_7::Locator"*)**, void (%"class.xalanc_1_10::XPathExecutionContext"*, %"class.xalanc_1_10::XalanDOMString"*, %"class.xalanc_1_10::XalanNode"*, %"class.xercesc_2_7::Locator"*)*** %8, align 8, !dbg !3475
  %vfn6 = getelementptr inbounds void (%"class.xalanc_1_10::XPathExecutionContext"*, %"class.xalanc_1_10::XalanDOMString"*, %"class.xalanc_1_10::XalanNode"*, %"class.xercesc_2_7::Locator"*)*, void (%"class.xalanc_1_10::XPathExecutionContext"*, %"class.xalanc_1_10::XalanDOMString"*, %"class.xalanc_1_10::XalanNode"*, %"class.xercesc_2_7::Locator"*)** %vtable5, i64 2, !dbg !3475
  %9 = load void (%"class.xalanc_1_10::XPathExecutionContext"*, %"class.xalanc_1_10::XalanDOMString"*, %"class.xalanc_1_10::XalanNode"*, %"class.xercesc_2_7::Locator"*)*, void (%"class.xalanc_1_10::XPathExecutionContext"*, %"class.xalanc_1_10::XalanDOMString"*, %"class.xalanc_1_10::XalanNode"*, %"class.xercesc_2_7::Locator"*)** %vfn6, align 8, !dbg !3475
  invoke void %9(%"class.xalanc_1_10::XPathExecutionContext"* %3, %"class.xalanc_1_10::XalanDOMString"* dereferenceable(40) %call4, %"class.xalanc_1_10::XalanNode"* %6, %"class.xercesc_2_7::Locator"* %7)
          to label %invoke.cont7 unwind label %lpad, !dbg !3475

invoke.cont7:                                     ; preds = %invoke.cont3
  call void @_ZN11xalanc_1_1021XPathExecutionContext25GetAndReleaseCachedStringD2Ev(%"class.xalanc_1_10::XPathExecutionContext::GetAndReleaseCachedString"* %theGuard) #5, !dbg !3476
  br label %if.end, !dbg !3477

lpad:                                             ; preds = %invoke.cont3, %invoke.cont, %if.then
  %10 = landingpad { i8*, i32 }
          cleanup, !dbg !3478
  %11 = extractvalue { i8*, i32 } %10, 0, !dbg !3478
  store i8* %11, i8** %exn.slot, align 8, !dbg !3478
  %12 = extractvalue { i8*, i32 } %10, 1, !dbg !3478
  store i32 %12, i32* %ehselector.slot, align 4, !dbg !3478
  call void @_ZN11xalanc_1_1021XPathExecutionContext25GetAndReleaseCachedStringD2Ev(%"class.xalanc_1_10::XPathExecutionContext::GetAndReleaseCachedString"* %theGuard) #5, !dbg !3476
  br label %eh.resume, !dbg !3476

if.end:                                           ; preds = %invoke.cont7, %entry
  %13 = load %"class.xalanc_1_10::XPathExecutionContext"*, %"class.xalanc_1_10::XPathExecutionContext"** %executionContext.addr, align 8, !dbg !3479
  %14 = load %"class.xalanc_1_10::XalanVector"*, %"class.xalanc_1_10::XalanVector"** %args.addr, align 8, !dbg !3480
  %call8 = call dereferenceable(8) %"class.xalanc_1_10::XObjectPtr"* @_ZNK11xalanc_1_1011XalanVectorINS_10XObjectPtrENS_31MemoryManagedConstructionTraitsIS1_EEEixEm(%"class.xalanc_1_10::XalanVector"* %14, i64 0), !dbg !3480
  %call9 = call %"class.xalanc_1_10::XObject"* @_ZNK11xalanc_1_1010XObjectPtrptEv(%"class.xalanc_1_10::XObjectPtr"* %call8), !dbg !3480
  %15 = bitcast %"class.xalanc_1_10::XObject"* %call9 to %"class.xalanc_1_10::NodeRefListBase"* (%"class.xalanc_1_10::XObject"*)***, !dbg !3481
  %vtable10 = load %"class.xalanc_1_10::NodeRefListBase"* (%"class.xalanc_1_10::XObject"*)**, %"class.xalanc_1_10::NodeRefListBase"* (%"class.xalanc_1_10::XObject"*)*** %15, align 8, !dbg !3481
  %vfn11 = getelementptr inbounds %"class.xalanc_1_10::NodeRefListBase"* (%"class.xalanc_1_10::XObject"*)*, %"class.xalanc_1_10::NodeRefListBase"* (%"class.xalanc_1_10::XObject"*)** %vtable10, i64 13, !dbg !3481
  %16 = load %"class.xalanc_1_10::NodeRefListBase"* (%"class.xalanc_1_10::XObject"*)*, %"class.xalanc_1_10::NodeRefListBase"* (%"class.xalanc_1_10::XObject"*)** %vfn11, align 8, !dbg !3481
  %call12 = call dereferenceable(8) %"class.xalanc_1_10::NodeRefListBase"* %16(%"class.xalanc_1_10::XObject"* %call9), !dbg !3481
  call void @_ZN11xalanc_1_109findNodesIPFbddEEENS_10XObjectPtrERNS_21XPathExecutionContextERKNS_15NodeRefListBaseET_(%"class.xalanc_1_10::XObjectPtr"* sret %agg.result, %"class.xalanc_1_10::XPathExecutionContext"* dereferenceable(24) %13, %"class.xalanc_1_10::NodeRefListBase"* dereferenceable(8) %call12, i1 (double, double)* @_ZN11xalanc_1_1013DoubleSupport8lessThanEdd), !dbg !3482
  ret void, !dbg !3483

eh.resume:                                        ; preds = %lpad
  %exn = load i8*, i8** %exn.slot, align 8, !dbg !3476
  %sel = load i32, i32* %ehselector.slot, align 4, !dbg !3476
  %lpad.val = insertvalue { i8*, i32 } undef, i8* %exn, 0, !dbg !3476
  %lpad.val13 = insertvalue { i8*, i32 } %lpad.val, i32 %sel, 1, !dbg !3476
  resume { i8*, i32 } %lpad.val13, !dbg !3476
}

declare dso_local zeroext i1 @_ZN11xalanc_1_1013DoubleSupport8lessThanEdd(double, double) #3

; Function Attrs: noinline uwtable
define dso_local dereferenceable(40) %"class.xalanc_1_10::XalanDOMString"* @_ZNK11xalanc_1_1024XalanEXSLTFunctionLowest8getErrorERNS_14XalanDOMStringE(%"class.xalanc_1_10::XalanEXSLTFunctionLowest"* %this, %"class.xalanc_1_10::XalanDOMString"* dereferenceable(40) %theBuffer) unnamed_addr #0 align 2 !dbg !3484 {
entry:
  %this.addr = alloca %"class.xalanc_1_10::XalanEXSLTFunctionLowest"*, align 8
  %theBuffer.addr = alloca %"class.xalanc_1_10::XalanDOMString"*, align 8
  store %"class.xalanc_1_10::XalanEXSLTFunctionLowest"* %this, %"class.xalanc_1_10::XalanEXSLTFunctionLowest"** %this.addr, align 8
  call void @llvm.dbg.declare(metadata %"class.xalanc_1_10::XalanEXSLTFunctionLowest"** %this.addr, metadata !3485, metadata !DIExpression()), !dbg !3486
  store %"class.xalanc_1_10::XalanDOMString"* %theBuffer, %"class.xalanc_1_10::XalanDOMString"** %theBuffer.addr, align 8
  call void @llvm.dbg.declare(metadata %"class.xalanc_1_10::XalanDOMString"** %theBuffer.addr, metadata !3487, metadata !DIExpression()), !dbg !3488
  %this1 = load %"class.xalanc_1_10::XalanEXSLTFunctionLowest"*, %"class.xalanc_1_10::XalanEXSLTFunctionLowest"** %this.addr, align 8
  %0 = load %"class.xalanc_1_10::XalanDOMString"*, %"class.xalanc_1_10::XalanDOMString"** %theBuffer.addr, align 8, !dbg !3489
  %call = call dereferenceable(40) %"class.xalanc_1_10::XalanDOMString"* @_ZN11xalanc_1_1018XalanMessageLoader10getMessageERNS_14XalanDOMStringENS_13XalanMessages5CodesEPKtS6_S6_S6_(%"class.xalanc_1_10::XalanDOMString"* dereferenceable(40) %0, i32 145, i16* getelementptr inbounds ([7 x i16], [7 x i16]* @_ZN11xalanc_1_10L20s_lowestFunctionNameE, i64 0, i64 0), i16* null, i16* null, i16* null), !dbg !3490
  ret %"class.xalanc_1_10::XalanDOMString"* %call, !dbg !3491
}

; Function Attrs: noinline uwtable
define dso_local void @_ZNK11xalanc_1_1021XalanEXSLTFunctionMin7executeERNS_21XPathExecutionContextEPNS_9XalanNodeERKNS_11XalanVectorINS_10XObjectPtrENS_31MemoryManagedConstructionTraitsIS6_EEEEPKN11xercesc_2_77LocatorE(%"class.xalanc_1_10::XObjectPtr"* noalias sret %agg.result, %"class.xalanc_1_10::XalanEXSLTFunctionMin"* %this, %"class.xalanc_1_10::XPathExecutionContext"* dereferenceable(24) %executionContext, %"class.xalanc_1_10::XalanNode"* %context, %"class.xalanc_1_10::XalanVector"* dereferenceable(32) %args, %"class.xercesc_2_7::Locator"* %locator) unnamed_addr #0 align 2 personality i8* bitcast (i32 (...)* @__gxx_personality_v0 to i8*) !dbg !3492 {
entry:
  %result.ptr = alloca i8*, align 8
  %this.addr = alloca %"class.xalanc_1_10::XalanEXSLTFunctionMin"*, align 8
  %executionContext.addr = alloca %"class.xalanc_1_10::XPathExecutionContext"*, align 8
  %context.addr = alloca %"class.xalanc_1_10::XalanNode"*, align 8
  %args.addr = alloca %"class.xalanc_1_10::XalanVector"*, align 8
  %locator.addr = alloca %"class.xercesc_2_7::Locator"*, align 8
  %theGuard = alloca %"class.xalanc_1_10::XPathExecutionContext::GetAndReleaseCachedString", align 8
  %exn.slot = alloca i8*
  %ehselector.slot = alloca i32
  %0 = bitcast %"class.xalanc_1_10::XObjectPtr"* %agg.result to i8*
  store i8* %0, i8** %result.ptr, align 8
  store %"class.xalanc_1_10::XalanEXSLTFunctionMin"* %this, %"class.xalanc_1_10::XalanEXSLTFunctionMin"** %this.addr, align 8
  call void @llvm.dbg.declare(metadata %"class.xalanc_1_10::XalanEXSLTFunctionMin"** %this.addr, metadata !3493, metadata !DIExpression()), !dbg !3495
  store %"class.xalanc_1_10::XPathExecutionContext"* %executionContext, %"class.xalanc_1_10::XPathExecutionContext"** %executionContext.addr, align 8
  call void @llvm.dbg.declare(metadata %"class.xalanc_1_10::XPathExecutionContext"** %executionContext.addr, metadata !3496, metadata !DIExpression()), !dbg !3497
  store %"class.xalanc_1_10::XalanNode"* %context, %"class.xalanc_1_10::XalanNode"** %context.addr, align 8
  call void @llvm.dbg.declare(metadata %"class.xalanc_1_10::XalanNode"** %context.addr, metadata !3498, metadata !DIExpression()), !dbg !3499
  store %"class.xalanc_1_10::XalanVector"* %args, %"class.xalanc_1_10::XalanVector"** %args.addr, align 8
  call void @llvm.dbg.declare(metadata %"class.xalanc_1_10::XalanVector"** %args.addr, metadata !3500, metadata !DIExpression()), !dbg !3501
  store %"class.xercesc_2_7::Locator"* %locator, %"class.xercesc_2_7::Locator"** %locator.addr, align 8
  call void @llvm.dbg.declare(metadata %"class.xercesc_2_7::Locator"** %locator.addr, metadata !3502, metadata !DIExpression()), !dbg !3503
  %this1 = load %"class.xalanc_1_10::XalanEXSLTFunctionMin"*, %"class.xalanc_1_10::XalanEXSLTFunctionMin"** %this.addr, align 8
  %1 = load %"class.xalanc_1_10::XalanVector"*, %"class.xalanc_1_10::XalanVector"** %args.addr, align 8, !dbg !3504
  %call = call i64 @_ZNK11xalanc_1_1011XalanVectorINS_10XObjectPtrENS_31MemoryManagedConstructionTraitsIS1_EEE4sizeEv(%"class.xalanc_1_10::XalanVector"* %1), !dbg !3506
  %cmp = icmp ne i64 %call, 1, !dbg !3507
  br i1 %cmp, label %if.then, label %if.end, !dbg !3508

if.then:                                          ; preds = %entry
  call void @llvm.dbg.declare(metadata %"class.xalanc_1_10::XPathExecutionContext::GetAndReleaseCachedString"* %theGuard, metadata !3509, metadata !DIExpression()), !dbg !3511
  %2 = load %"class.xalanc_1_10::XPathExecutionContext"*, %"class.xalanc_1_10::XPathExecutionContext"** %executionContext.addr, align 8, !dbg !3512
  call void @_ZN11xalanc_1_1021XPathExecutionContext25GetAndReleaseCachedStringC2ERS0_(%"class.xalanc_1_10::XPathExecutionContext::GetAndReleaseCachedString"* %theGuard, %"class.xalanc_1_10::XPathExecutionContext"* dereferenceable(24) %2), !dbg !3511
  %3 = load %"class.xalanc_1_10::XPathExecutionContext"*, %"class.xalanc_1_10::XPathExecutionContext"** %executionContext.addr, align 8, !dbg !3513
  %call2 = invoke dereferenceable(40) %"class.xalanc_1_10::XalanDOMString"* @_ZNK11xalanc_1_1021XPathExecutionContext25GetAndReleaseCachedString3getEv(%"class.xalanc_1_10::XPathExecutionContext::GetAndReleaseCachedString"* %theGuard)
          to label %invoke.cont unwind label %lpad, !dbg !3514

invoke.cont:                                      ; preds = %if.then
  %4 = bitcast %"class.xalanc_1_10::XalanEXSLTFunctionMin"* %this1 to %"class.xalanc_1_10::XalanDOMString"* (%"class.xalanc_1_10::XalanEXSLTFunctionMin"*, %"class.xalanc_1_10::XalanDOMString"*)***, !dbg !3515
  %vtable = load %"class.xalanc_1_10::XalanDOMString"* (%"class.xalanc_1_10::XalanEXSLTFunctionMin"*, %"class.xalanc_1_10::XalanDOMString"*)**, %"class.xalanc_1_10::XalanDOMString"* (%"class.xalanc_1_10::XalanEXSLTFunctionMin"*, %"class.xalanc_1_10::XalanDOMString"*)*** %4, align 8, !dbg !3515
  %vfn = getelementptr inbounds %"class.xalanc_1_10::XalanDOMString"* (%"class.xalanc_1_10::XalanEXSLTFunctionMin"*, %"class.xalanc_1_10::XalanDOMString"*)*, %"class.xalanc_1_10::XalanDOMString"* (%"class.xalanc_1_10::XalanEXSLTFunctionMin"*, %"class.xalanc_1_10::XalanDOMString"*)** %vtable, i64 8, !dbg !3515
  %5 = load %"class.xalanc_1_10::XalanDOMString"* (%"class.xalanc_1_10::XalanEXSLTFunctionMin"*, %"class.xalanc_1_10::XalanDOMString"*)*, %"class.xalanc_1_10::XalanDOMString"* (%"class.xalanc_1_10::XalanEXSLTFunctionMin"*, %"class.xalanc_1_10::XalanDOMString"*)** %vfn, align 8, !dbg !3515
  %call4 = invoke dereferenceable(40) %"class.xalanc_1_10::XalanDOMString"* %5(%"class.xalanc_1_10::XalanEXSLTFunctionMin"* %this1, %"class.xalanc_1_10::XalanDOMString"* dereferenceable(40) %call2)
          to label %invoke.cont3 unwind label %lpad, !dbg !3515

invoke.cont3:                                     ; preds = %invoke.cont
  %6 = load %"class.xalanc_1_10::XalanNode"*, %"class.xalanc_1_10::XalanNode"** %context.addr, align 8, !dbg !3516
  %7 = load %"class.xercesc_2_7::Locator"*, %"class.xercesc_2_7::Locator"** %locator.addr, align 8, !dbg !3517
  %8 = bitcast %"class.xalanc_1_10::XPathExecutionContext"* %3 to void (%"class.xalanc_1_10::XPathExecutionContext"*, %"class.xalanc_1_10::XalanDOMString"*, %"class.xalanc_1_10::XalanNode"*, %"class.xercesc_2_7::Locator"*)***, !dbg !3518
  %vtable5 = load void (%"class.xalanc_1_10::XPathExecutionContext"*, %"class.xalanc_1_10::XalanDOMString"*, %"class.xalanc_1_10::XalanNode"*, %"class.xercesc_2_7::Locator"*)**, void (%"class.xalanc_1_10::XPathExecutionContext"*, %"class.xalanc_1_10::XalanDOMString"*, %"class.xalanc_1_10::XalanNode"*, %"class.xercesc_2_7::Locator"*)*** %8, align 8, !dbg !3518
  %vfn6 = getelementptr inbounds void (%"class.xalanc_1_10::XPathExecutionContext"*, %"class.xalanc_1_10::XalanDOMString"*, %"class.xalanc_1_10::XalanNode"*, %"class.xercesc_2_7::Locator"*)*, void (%"class.xalanc_1_10::XPathExecutionContext"*, %"class.xalanc_1_10::XalanDOMString"*, %"class.xalanc_1_10::XalanNode"*, %"class.xercesc_2_7::Locator"*)** %vtable5, i64 2, !dbg !3518
  %9 = load void (%"class.xalanc_1_10::XPathExecutionContext"*, %"class.xalanc_1_10::XalanDOMString"*, %"class.xalanc_1_10::XalanNode"*, %"class.xercesc_2_7::Locator"*)*, void (%"class.xalanc_1_10::XPathExecutionContext"*, %"class.xalanc_1_10::XalanDOMString"*, %"class.xalanc_1_10::XalanNode"*, %"class.xercesc_2_7::Locator"*)** %vfn6, align 8, !dbg !3518
  invoke void %9(%"class.xalanc_1_10::XPathExecutionContext"* %3, %"class.xalanc_1_10::XalanDOMString"* dereferenceable(40) %call4, %"class.xalanc_1_10::XalanNode"* %6, %"class.xercesc_2_7::Locator"* %7)
          to label %invoke.cont7 unwind label %lpad, !dbg !3518

invoke.cont7:                                     ; preds = %invoke.cont3
  call void @_ZN11xalanc_1_1021XPathExecutionContext25GetAndReleaseCachedStringD2Ev(%"class.xalanc_1_10::XPathExecutionContext::GetAndReleaseCachedString"* %theGuard) #5, !dbg !3519
  br label %if.end, !dbg !3520

lpad:                                             ; preds = %invoke.cont3, %invoke.cont, %if.then
  %10 = landingpad { i8*, i32 }
          cleanup, !dbg !3521
  %11 = extractvalue { i8*, i32 } %10, 0, !dbg !3521
  store i8* %11, i8** %exn.slot, align 8, !dbg !3521
  %12 = extractvalue { i8*, i32 } %10, 1, !dbg !3521
  store i32 %12, i32* %ehselector.slot, align 4, !dbg !3521
  call void @_ZN11xalanc_1_1021XPathExecutionContext25GetAndReleaseCachedStringD2Ev(%"class.xalanc_1_10::XPathExecutionContext::GetAndReleaseCachedString"* %theGuard) #5, !dbg !3519
  br label %eh.resume, !dbg !3519

if.end:                                           ; preds = %invoke.cont7, %entry
  %13 = load %"class.xalanc_1_10::XPathExecutionContext"*, %"class.xalanc_1_10::XPathExecutionContext"** %executionContext.addr, align 8, !dbg !3522
  %14 = load %"class.xalanc_1_10::XalanVector"*, %"class.xalanc_1_10::XalanVector"** %args.addr, align 8, !dbg !3523
  %call8 = call dereferenceable(8) %"class.xalanc_1_10::XObjectPtr"* @_ZNK11xalanc_1_1011XalanVectorINS_10XObjectPtrENS_31MemoryManagedConstructionTraitsIS1_EEEixEm(%"class.xalanc_1_10::XalanVector"* %14, i64 0), !dbg !3523
  %call9 = call %"class.xalanc_1_10::XObject"* @_ZNK11xalanc_1_1010XObjectPtrptEv(%"class.xalanc_1_10::XObjectPtr"* %call8), !dbg !3523
  %15 = bitcast %"class.xalanc_1_10::XObject"* %call9 to %"class.xalanc_1_10::NodeRefListBase"* (%"class.xalanc_1_10::XObject"*)***, !dbg !3524
  %vtable10 = load %"class.xalanc_1_10::NodeRefListBase"* (%"class.xalanc_1_10::XObject"*)**, %"class.xalanc_1_10::NodeRefListBase"* (%"class.xalanc_1_10::XObject"*)*** %15, align 8, !dbg !3524
  %vfn11 = getelementptr inbounds %"class.xalanc_1_10::NodeRefListBase"* (%"class.xalanc_1_10::XObject"*)*, %"class.xalanc_1_10::NodeRefListBase"* (%"class.xalanc_1_10::XObject"*)** %vtable10, i64 13, !dbg !3524
  %16 = load %"class.xalanc_1_10::NodeRefListBase"* (%"class.xalanc_1_10::XObject"*)*, %"class.xalanc_1_10::NodeRefListBase"* (%"class.xalanc_1_10::XObject"*)** %vfn11, align 8, !dbg !3524
  %call12 = call dereferenceable(8) %"class.xalanc_1_10::NodeRefListBase"* %16(%"class.xalanc_1_10::XObject"* %call9), !dbg !3524
  call void @_ZN11xalanc_1_109findValueIPFbddEEENS_10XObjectPtrERNS_21XPathExecutionContextERKNS_15NodeRefListBaseET_(%"class.xalanc_1_10::XObjectPtr"* sret %agg.result, %"class.xalanc_1_10::XPathExecutionContext"* dereferenceable(24) %13, %"class.xalanc_1_10::NodeRefListBase"* dereferenceable(8) %call12, i1 (double, double)* @_ZN11xalanc_1_1013DoubleSupport8lessThanEdd), !dbg !3525
  ret void, !dbg !3526

eh.resume:                                        ; preds = %lpad
  %exn = load i8*, i8** %exn.slot, align 8, !dbg !3519
  %sel = load i32, i32* %ehselector.slot, align 4, !dbg !3519
  %lpad.val = insertvalue { i8*, i32 } undef, i8* %exn, 0, !dbg !3519
  %lpad.val13 = insertvalue { i8*, i32 } %lpad.val, i32 %sel, 1, !dbg !3519
  resume { i8*, i32 } %lpad.val13, !dbg !3519
}

; Function Attrs: noinline uwtable
define linkonce_odr dso_local void @_ZN11xalanc_1_109findValueIPFbddEEENS_10XObjectPtrERNS_21XPathExecutionContextERKNS_15NodeRefListBaseET_(%"class.xalanc_1_10::XObjectPtr"* noalias sret %agg.result, %"class.xalanc_1_10::XPathExecutionContext"* dereferenceable(24) %executionContext, %"class.xalanc_1_10::NodeRefListBase"* dereferenceable(8) %theNodeSet, i1 (double, double)* %theCompareFunction) #0 comdat personality i8* bitcast (i32 (...)* @__gxx_personality_v0 to i8*) !dbg !3527 {
entry:
  %result.ptr = alloca i8*, align 8
  %executionContext.addr = alloca %"class.xalanc_1_10::XPathExecutionContext"*, align 8
  %theNodeSet.addr = alloca %"class.xalanc_1_10::NodeRefListBase"*, align 8
  %theCompareFunction.addr = alloca i1 (double, double)*, align 8
  %theLength = alloca i32, align 4
  %theGuard = alloca %"class.xalanc_1_10::XPathExecutionContext::GetAndReleaseCachedString", align 8
  %theStringValue = alloca %"class.xalanc_1_10::XalanDOMString"*, align 8
  %exn.slot = alloca i8*
  %ehselector.slot = alloca i32
  %theResult = alloca double, align 8
  %i = alloca i32, align 4
  %theCurrent = alloca double, align 8
  %0 = bitcast %"class.xalanc_1_10::XObjectPtr"* %agg.result to i8*
  store i8* %0, i8** %result.ptr, align 8
  store %"class.xalanc_1_10::XPathExecutionContext"* %executionContext, %"class.xalanc_1_10::XPathExecutionContext"** %executionContext.addr, align 8
  call void @llvm.dbg.declare(metadata %"class.xalanc_1_10::XPathExecutionContext"** %executionContext.addr, metadata !3528, metadata !DIExpression()), !dbg !3529
  store %"class.xalanc_1_10::NodeRefListBase"* %theNodeSet, %"class.xalanc_1_10::NodeRefListBase"** %theNodeSet.addr, align 8
  call void @llvm.dbg.declare(metadata %"class.xalanc_1_10::NodeRefListBase"** %theNodeSet.addr, metadata !3530, metadata !DIExpression()), !dbg !3531
  store i1 (double, double)* %theCompareFunction, i1 (double, double)** %theCompareFunction.addr, align 8
  call void @llvm.dbg.declare(metadata i1 (double, double)** %theCompareFunction.addr, metadata !3532, metadata !DIExpression()), !dbg !3533
  call void @llvm.dbg.declare(metadata i32* %theLength, metadata !3534, metadata !DIExpression()), !dbg !3535
  %1 = load %"class.xalanc_1_10::NodeRefListBase"*, %"class.xalanc_1_10::NodeRefListBase"** %theNodeSet.addr, align 8, !dbg !3536
  %2 = bitcast %"class.xalanc_1_10::NodeRefListBase"* %1 to i32 (%"class.xalanc_1_10::NodeRefListBase"*)***, !dbg !3537
  %vtable = load i32 (%"class.xalanc_1_10::NodeRefListBase"*)**, i32 (%"class.xalanc_1_10::NodeRefListBase"*)*** %2, align 8, !dbg !3537
  %vfn = getelementptr inbounds i32 (%"class.xalanc_1_10::NodeRefListBase"*)*, i32 (%"class.xalanc_1_10::NodeRefListBase"*)** %vtable, i64 3, !dbg !3537
  %3 = load i32 (%"class.xalanc_1_10::NodeRefListBase"*)*, i32 (%"class.xalanc_1_10::NodeRefListBase"*)** %vfn, align 8, !dbg !3537
  %call = call i32 %3(%"class.xalanc_1_10::NodeRefListBase"* %1), !dbg !3537
  store i32 %call, i32* %theLength, align 4, !dbg !3535
  %4 = load i32, i32* %theLength, align 4, !dbg !3538
  %cmp = icmp eq i32 %4, 0, !dbg !3540
  br i1 %cmp, label %if.then, label %if.else, !dbg !3541

if.then:                                          ; preds = %entry
  %5 = load %"class.xalanc_1_10::XPathExecutionContext"*, %"class.xalanc_1_10::XPathExecutionContext"** %executionContext.addr, align 8, !dbg !3542
  %call1 = call dereferenceable(16) %"class.xalanc_1_10::XObjectFactory"* @_ZNK11xalanc_1_1021XPathExecutionContext17getXObjectFactoryEv(%"class.xalanc_1_10::XPathExecutionContext"* %5), !dbg !3544
  %call2 = call double @_ZN11xalanc_1_1013DoubleSupport6getNaNEv(), !dbg !3545
  %6 = bitcast %"class.xalanc_1_10::XObjectFactory"* %call1 to void (%"class.xalanc_1_10::XObjectPtr"*, %"class.xalanc_1_10::XObjectFactory"*, double)***, !dbg !3546
  %vtable3 = load void (%"class.xalanc_1_10::XObjectPtr"*, %"class.xalanc_1_10::XObjectFactory"*, double)**, void (%"class.xalanc_1_10::XObjectPtr"*, %"class.xalanc_1_10::XObjectFactory"*, double)*** %6, align 8, !dbg !3546
  %vfn4 = getelementptr inbounds void (%"class.xalanc_1_10::XObjectPtr"*, %"class.xalanc_1_10::XObjectFactory"*, double)*, void (%"class.xalanc_1_10::XObjectPtr"*, %"class.xalanc_1_10::XObjectFactory"*, double)** %vtable3, i64 7, !dbg !3546
  %7 = load void (%"class.xalanc_1_10::XObjectPtr"*, %"class.xalanc_1_10::XObjectFactory"*, double)*, void (%"class.xalanc_1_10::XObjectPtr"*, %"class.xalanc_1_10::XObjectFactory"*, double)** %vfn4, align 8, !dbg !3546
  call void %7(%"class.xalanc_1_10::XObjectPtr"* sret %agg.result, %"class.xalanc_1_10::XObjectFactory"* %call1, double %call2), !dbg !3546
  br label %return, !dbg !3547

if.else:                                          ; preds = %entry
  call void @llvm.dbg.declare(metadata %"class.xalanc_1_10::XPathExecutionContext::GetAndReleaseCachedString"* %theGuard, metadata !3548, metadata !DIExpression()), !dbg !3550
  %8 = load %"class.xalanc_1_10::XPathExecutionContext"*, %"class.xalanc_1_10::XPathExecutionContext"** %executionContext.addr, align 8, !dbg !3551
  call void @_ZN11xalanc_1_1021XPathExecutionContext25GetAndReleaseCachedStringC2ERS0_(%"class.xalanc_1_10::XPathExecutionContext::GetAndReleaseCachedString"* %theGuard, %"class.xalanc_1_10::XPathExecutionContext"* dereferenceable(24) %8), !dbg !3550
  call void @llvm.dbg.declare(metadata %"class.xalanc_1_10::XalanDOMString"** %theStringValue, metadata !3552, metadata !DIExpression()), !dbg !3553
  %call5 = invoke dereferenceable(40) %"class.xalanc_1_10::XalanDOMString"* @_ZNK11xalanc_1_1021XPathExecutionContext25GetAndReleaseCachedString3getEv(%"class.xalanc_1_10::XPathExecutionContext::GetAndReleaseCachedString"* %theGuard)
          to label %invoke.cont unwind label %lpad, !dbg !3554

invoke.cont:                                      ; preds = %if.else
  store %"class.xalanc_1_10::XalanDOMString"* %call5, %"class.xalanc_1_10::XalanDOMString"** %theStringValue, align 8, !dbg !3553
  %9 = load %"class.xalanc_1_10::NodeRefListBase"*, %"class.xalanc_1_10::NodeRefListBase"** %theNodeSet.addr, align 8, !dbg !3555
  %10 = bitcast %"class.xalanc_1_10::NodeRefListBase"* %9 to %"class.xalanc_1_10::XalanNode"* (%"class.xalanc_1_10::NodeRefListBase"*, i32)***, !dbg !3556
  %vtable6 = load %"class.xalanc_1_10::XalanNode"* (%"class.xalanc_1_10::NodeRefListBase"*, i32)**, %"class.xalanc_1_10::XalanNode"* (%"class.xalanc_1_10::NodeRefListBase"*, i32)*** %10, align 8, !dbg !3556
  %vfn7 = getelementptr inbounds %"class.xalanc_1_10::XalanNode"* (%"class.xalanc_1_10::NodeRefListBase"*, i32)*, %"class.xalanc_1_10::XalanNode"* (%"class.xalanc_1_10::NodeRefListBase"*, i32)** %vtable6, i64 2, !dbg !3556
  %11 = load %"class.xalanc_1_10::XalanNode"* (%"class.xalanc_1_10::NodeRefListBase"*, i32)*, %"class.xalanc_1_10::XalanNode"* (%"class.xalanc_1_10::NodeRefListBase"*, i32)** %vfn7, align 8, !dbg !3556
  %call9 = invoke %"class.xalanc_1_10::XalanNode"* %11(%"class.xalanc_1_10::NodeRefListBase"* %9, i32 0)
          to label %invoke.cont8 unwind label %lpad, !dbg !3556

invoke.cont8:                                     ; preds = %invoke.cont
  %12 = load %"class.xalanc_1_10::XalanDOMString"*, %"class.xalanc_1_10::XalanDOMString"** %theStringValue, align 8, !dbg !3557
  invoke void @_ZN11xalanc_1_1011DOMServices11getNodeDataERKNS_9XalanNodeERNS_14XalanDOMStringE(%"class.xalanc_1_10::XalanNode"* dereferenceable(8) %call9, %"class.xalanc_1_10::XalanDOMString"* dereferenceable(40) %12)
          to label %invoke.cont10 unwind label %lpad, !dbg !3558

invoke.cont10:                                    ; preds = %invoke.cont8
  call void @llvm.dbg.declare(metadata double* %theResult, metadata !3559, metadata !DIExpression()), !dbg !3560
  %13 = load %"class.xalanc_1_10::XalanDOMString"*, %"class.xalanc_1_10::XalanDOMString"** %theStringValue, align 8, !dbg !3561
  %14 = load %"class.xalanc_1_10::XPathExecutionContext"*, %"class.xalanc_1_10::XPathExecutionContext"** %executionContext.addr, align 8, !dbg !3562
  %15 = bitcast %"class.xalanc_1_10::XPathExecutionContext"* %14 to %"class.xalanc_1_10::ExecutionContext"*, !dbg !3562
  %call12 = invoke dereferenceable(8) %"class.xercesc_2_7::MemoryManager"* @_ZN11xalanc_1_1016ExecutionContext16getMemoryManagerEv(%"class.xalanc_1_10::ExecutionContext"* %15)
          to label %invoke.cont11 unwind label %lpad, !dbg !3563

invoke.cont11:                                    ; preds = %invoke.cont10
  %call14 = invoke double @_ZN11xalanc_1_1017DOMStringToDoubleERKNS_14XalanDOMStringERN11xercesc_2_713MemoryManagerE(%"class.xalanc_1_10::XalanDOMString"* dereferenceable(40) %13, %"class.xercesc_2_7::MemoryManager"* dereferenceable(8) %call12)
          to label %invoke.cont13 unwind label %lpad, !dbg !3564

invoke.cont13:                                    ; preds = %invoke.cont11
  store double %call14, double* %theResult, align 8, !dbg !3560
  call void @llvm.dbg.declare(metadata i32* %i, metadata !3565, metadata !DIExpression()), !dbg !3567
  store i32 1, i32* %i, align 4, !dbg !3567
  br label %for.cond, !dbg !3568

for.cond:                                         ; preds = %for.inc, %invoke.cont13
  %16 = load i32, i32* %i, align 4, !dbg !3569
  %17 = load i32, i32* %theLength, align 4, !dbg !3571
  %cmp15 = icmp ult i32 %16, %17, !dbg !3572
  br i1 %cmp15, label %for.body, label %for.end, !dbg !3573

for.body:                                         ; preds = %for.cond
  %18 = load %"class.xalanc_1_10::XalanDOMString"*, %"class.xalanc_1_10::XalanDOMString"** %theStringValue, align 8, !dbg !3574
  invoke void @_ZN11xalanc_1_1014XalanDOMString5clearEv(%"class.xalanc_1_10::XalanDOMString"* %18)
          to label %invoke.cont16 unwind label %lpad, !dbg !3576

invoke.cont16:                                    ; preds = %for.body
  %19 = load %"class.xalanc_1_10::NodeRefListBase"*, %"class.xalanc_1_10::NodeRefListBase"** %theNodeSet.addr, align 8, !dbg !3577
  %20 = load i32, i32* %i, align 4, !dbg !3578
  %21 = bitcast %"class.xalanc_1_10::NodeRefListBase"* %19 to %"class.xalanc_1_10::XalanNode"* (%"class.xalanc_1_10::NodeRefListBase"*, i32)***, !dbg !3579
  %vtable17 = load %"class.xalanc_1_10::XalanNode"* (%"class.xalanc_1_10::NodeRefListBase"*, i32)**, %"class.xalanc_1_10::XalanNode"* (%"class.xalanc_1_10::NodeRefListBase"*, i32)*** %21, align 8, !dbg !3579
  %vfn18 = getelementptr inbounds %"class.xalanc_1_10::XalanNode"* (%"class.xalanc_1_10::NodeRefListBase"*, i32)*, %"class.xalanc_1_10::XalanNode"* (%"class.xalanc_1_10::NodeRefListBase"*, i32)** %vtable17, i64 2, !dbg !3579
  %22 = load %"class.xalanc_1_10::XalanNode"* (%"class.xalanc_1_10::NodeRefListBase"*, i32)*, %"class.xalanc_1_10::XalanNode"* (%"class.xalanc_1_10::NodeRefListBase"*, i32)** %vfn18, align 8, !dbg !3579
  %call20 = invoke %"class.xalanc_1_10::XalanNode"* %22(%"class.xalanc_1_10::NodeRefListBase"* %19, i32 %20)
          to label %invoke.cont19 unwind label %lpad, !dbg !3579

invoke.cont19:                                    ; preds = %invoke.cont16
  %23 = load %"class.xalanc_1_10::XalanDOMString"*, %"class.xalanc_1_10::XalanDOMString"** %theStringValue, align 8, !dbg !3580
  invoke void @_ZN11xalanc_1_1011DOMServices11getNodeDataERKNS_9XalanNodeERNS_14XalanDOMStringE(%"class.xalanc_1_10::XalanNode"* dereferenceable(8) %call20, %"class.xalanc_1_10::XalanDOMString"* dereferenceable(40) %23)
          to label %invoke.cont21 unwind label %lpad, !dbg !3581

invoke.cont21:                                    ; preds = %invoke.cont19
  call void @llvm.dbg.declare(metadata double* %theCurrent, metadata !3582, metadata !DIExpression()), !dbg !3583
  %24 = load %"class.xalanc_1_10::XalanDOMString"*, %"class.xalanc_1_10::XalanDOMString"** %theStringValue, align 8, !dbg !3584
  %25 = load %"class.xalanc_1_10::XPathExecutionContext"*, %"class.xalanc_1_10::XPathExecutionContext"** %executionContext.addr, align 8, !dbg !3585
  %26 = bitcast %"class.xalanc_1_10::XPathExecutionContext"* %25 to %"class.xalanc_1_10::ExecutionContext"*, !dbg !3585
  %call23 = invoke dereferenceable(8) %"class.xercesc_2_7::MemoryManager"* @_ZN11xalanc_1_1016ExecutionContext16getMemoryManagerEv(%"class.xalanc_1_10::ExecutionContext"* %26)
          to label %invoke.cont22 unwind label %lpad, !dbg !3586

invoke.cont22:                                    ; preds = %invoke.cont21
  %call25 = invoke double @_ZN11xalanc_1_1017DOMStringToDoubleERKNS_14XalanDOMStringERN11xercesc_2_713MemoryManagerE(%"class.xalanc_1_10::XalanDOMString"* dereferenceable(40) %24, %"class.xercesc_2_7::MemoryManager"* dereferenceable(8) %call23)
          to label %invoke.cont24 unwind label %lpad, !dbg !3587

invoke.cont24:                                    ; preds = %invoke.cont22
  store double %call25, double* %theCurrent, align 8, !dbg !3583
  %27 = load double, double* %theCurrent, align 8, !dbg !3588
  %call27 = invoke zeroext i1 @_ZN11xalanc_1_1013DoubleSupport5isNaNEd(double %27)
          to label %invoke.cont26 unwind label %lpad, !dbg !3590

invoke.cont26:                                    ; preds = %invoke.cont24
  %conv = zext i1 %call27 to i32, !dbg !3590
  %cmp28 = icmp eq i32 %conv, 1, !dbg !3591
  br i1 %cmp28, label %if.then29, label %if.else30, !dbg !3592

if.then29:                                        ; preds = %invoke.cont26
  %28 = load double, double* %theCurrent, align 8, !dbg !3593
  store double %28, double* %theResult, align 8, !dbg !3595
  br label %for.end, !dbg !3596

lpad:                                             ; preds = %invoke.cont37, %for.end, %if.else30, %invoke.cont24, %invoke.cont22, %invoke.cont21, %invoke.cont19, %invoke.cont16, %for.body, %invoke.cont11, %invoke.cont10, %invoke.cont8, %invoke.cont, %if.else
  %29 = landingpad { i8*, i32 }
          cleanup, !dbg !3597
  %30 = extractvalue { i8*, i32 } %29, 0, !dbg !3597
  store i8* %30, i8** %exn.slot, align 8, !dbg !3597
  %31 = extractvalue { i8*, i32 } %29, 1, !dbg !3597
  store i32 %31, i32* %ehselector.slot, align 4, !dbg !3597
  call void @_ZN11xalanc_1_1021XPathExecutionContext25GetAndReleaseCachedStringD2Ev(%"class.xalanc_1_10::XPathExecutionContext::GetAndReleaseCachedString"* %theGuard) #5, !dbg !3598
  br label %eh.resume, !dbg !3598

if.else30:                                        ; preds = %invoke.cont26
  %32 = load i1 (double, double)*, i1 (double, double)** %theCompareFunction.addr, align 8, !dbg !3599
  %33 = load double, double* %theCurrent, align 8, !dbg !3601
  %34 = load double, double* %theResult, align 8, !dbg !3602
  %call32 = invoke zeroext i1 %32(double %33, double %34)
          to label %invoke.cont31 unwind label %lpad, !dbg !3599

invoke.cont31:                                    ; preds = %if.else30
  %conv33 = zext i1 %call32 to i32, !dbg !3599
  %cmp34 = icmp eq i32 %conv33, 1, !dbg !3603
  br i1 %cmp34, label %if.then35, label %if.end, !dbg !3604

if.then35:                                        ; preds = %invoke.cont31
  %35 = load double, double* %theCurrent, align 8, !dbg !3605
  store double %35, double* %theResult, align 8, !dbg !3607
  br label %if.end, !dbg !3608

if.end:                                           ; preds = %if.then35, %invoke.cont31
  br label %if.end36

if.end36:                                         ; preds = %if.end
  br label %for.inc, !dbg !3609

for.inc:                                          ; preds = %if.end36
  %36 = load i32, i32* %i, align 4, !dbg !3610
  %inc = add i32 %36, 1, !dbg !3610
  store i32 %inc, i32* %i, align 4, !dbg !3610
  br label %for.cond, !dbg !3611, !llvm.loop !3612

for.end:                                          ; preds = %if.then29, %for.cond
  %37 = load %"class.xalanc_1_10::XPathExecutionContext"*, %"class.xalanc_1_10::XPathExecutionContext"** %executionContext.addr, align 8, !dbg !3614
  %call38 = invoke dereferenceable(16) %"class.xalanc_1_10::XObjectFactory"* @_ZNK11xalanc_1_1021XPathExecutionContext17getXObjectFactoryEv(%"class.xalanc_1_10::XPathExecutionContext"* %37)
          to label %invoke.cont37 unwind label %lpad, !dbg !3615

invoke.cont37:                                    ; preds = %for.end
  %38 = load double, double* %theResult, align 8, !dbg !3616
  %39 = bitcast %"class.xalanc_1_10::XObjectFactory"* %call38 to void (%"class.xalanc_1_10::XObjectPtr"*, %"class.xalanc_1_10::XObjectFactory"*, double)***, !dbg !3617
  %vtable39 = load void (%"class.xalanc_1_10::XObjectPtr"*, %"class.xalanc_1_10::XObjectFactory"*, double)**, void (%"class.xalanc_1_10::XObjectPtr"*, %"class.xalanc_1_10::XObjectFactory"*, double)*** %39, align 8, !dbg !3617
  %vfn40 = getelementptr inbounds void (%"class.xalanc_1_10::XObjectPtr"*, %"class.xalanc_1_10::XObjectFactory"*, double)*, void (%"class.xalanc_1_10::XObjectPtr"*, %"class.xalanc_1_10::XObjectFactory"*, double)** %vtable39, i64 7, !dbg !3617
  %40 = load void (%"class.xalanc_1_10::XObjectPtr"*, %"class.xalanc_1_10::XObjectFactory"*, double)*, void (%"class.xalanc_1_10::XObjectPtr"*, %"class.xalanc_1_10::XObjectFactory"*, double)** %vfn40, align 8, !dbg !3617
  invoke void %40(%"class.xalanc_1_10::XObjectPtr"* sret %agg.result, %"class.xalanc_1_10::XObjectFactory"* %call38, double %38)
          to label %invoke.cont41 unwind label %lpad, !dbg !3617

invoke.cont41:                                    ; preds = %invoke.cont37
  call void @_ZN11xalanc_1_1021XPathExecutionContext25GetAndReleaseCachedStringD2Ev(%"class.xalanc_1_10::XPathExecutionContext::GetAndReleaseCachedString"* %theGuard) #5, !dbg !3598
  br label %return

return:                                           ; preds = %invoke.cont41, %if.then
  ret void, !dbg !3618

eh.resume:                                        ; preds = %lpad
  %exn = load i8*, i8** %exn.slot, align 8, !dbg !3598
  %sel = load i32, i32* %ehselector.slot, align 4, !dbg !3598
  %lpad.val = insertvalue { i8*, i32 } undef, i8* %exn, 0, !dbg !3598
  %lpad.val42 = insertvalue { i8*, i32 } %lpad.val, i32 %sel, 1, !dbg !3598
  resume { i8*, i32 } %lpad.val42, !dbg !3598
}

; Function Attrs: noinline uwtable
define dso_local dereferenceable(40) %"class.xalanc_1_10::XalanDOMString"* @_ZNK11xalanc_1_1021XalanEXSLTFunctionMin8getErrorERNS_14XalanDOMStringE(%"class.xalanc_1_10::XalanEXSLTFunctionMin"* %this, %"class.xalanc_1_10::XalanDOMString"* dereferenceable(40) %theBuffer) unnamed_addr #0 align 2 !dbg !3619 {
entry:
  %this.addr = alloca %"class.xalanc_1_10::XalanEXSLTFunctionMin"*, align 8
  %theBuffer.addr = alloca %"class.xalanc_1_10::XalanDOMString"*, align 8
  store %"class.xalanc_1_10::XalanEXSLTFunctionMin"* %this, %"class.xalanc_1_10::XalanEXSLTFunctionMin"** %this.addr, align 8
  call void @llvm.dbg.declare(metadata %"class.xalanc_1_10::XalanEXSLTFunctionMin"** %this.addr, metadata !3620, metadata !DIExpression()), !dbg !3621
  store %"class.xalanc_1_10::XalanDOMString"* %theBuffer, %"class.xalanc_1_10::XalanDOMString"** %theBuffer.addr, align 8
  call void @llvm.dbg.declare(metadata %"class.xalanc_1_10::XalanDOMString"** %theBuffer.addr, metadata !3622, metadata !DIExpression()), !dbg !3623
  %this1 = load %"class.xalanc_1_10::XalanEXSLTFunctionMin"*, %"class.xalanc_1_10::XalanEXSLTFunctionMin"** %this.addr, align 8
  %0 = load %"class.xalanc_1_10::XalanDOMString"*, %"class.xalanc_1_10::XalanDOMString"** %theBuffer.addr, align 8, !dbg !3624
  %call = call dereferenceable(40) %"class.xalanc_1_10::XalanDOMString"* @_ZN11xalanc_1_1018XalanMessageLoader10getMessageERNS_14XalanDOMStringENS_13XalanMessages5CodesEPKtS6_S6_S6_(%"class.xalanc_1_10::XalanDOMString"* dereferenceable(40) %0, i32 145, i16* getelementptr inbounds ([4 x i16], [4 x i16]* @_ZN11xalanc_1_10L17s_minFunctionNameE, i64 0, i64 0), i16* null, i16* null, i16* null), !dbg !3625
  ret %"class.xalanc_1_10::XalanDOMString"* %call, !dbg !3626
}

; Function Attrs: noinline uwtable
define dso_local void @_ZNK11xalanc_1_1021XalanEXSLTFunctionMax7executeERNS_21XPathExecutionContextEPNS_9XalanNodeERKNS_11XalanVectorINS_10XObjectPtrENS_31MemoryManagedConstructionTraitsIS6_EEEEPKN11xercesc_2_77LocatorE(%"class.xalanc_1_10::XObjectPtr"* noalias sret %agg.result, %"class.xalanc_1_10::XalanEXSLTFunctionMax"* %this, %"class.xalanc_1_10::XPathExecutionContext"* dereferenceable(24) %executionContext, %"class.xalanc_1_10::XalanNode"* %context, %"class.xalanc_1_10::XalanVector"* dereferenceable(32) %args, %"class.xercesc_2_7::Locator"* %locator) unnamed_addr #0 align 2 personality i8* bitcast (i32 (...)* @__gxx_personality_v0 to i8*) !dbg !3627 {
entry:
  %result.ptr = alloca i8*, align 8
  %this.addr = alloca %"class.xalanc_1_10::XalanEXSLTFunctionMax"*, align 8
  %executionContext.addr = alloca %"class.xalanc_1_10::XPathExecutionContext"*, align 8
  %context.addr = alloca %"class.xalanc_1_10::XalanNode"*, align 8
  %args.addr = alloca %"class.xalanc_1_10::XalanVector"*, align 8
  %locator.addr = alloca %"class.xercesc_2_7::Locator"*, align 8
  %theGuard = alloca %"class.xalanc_1_10::XPathExecutionContext::GetAndReleaseCachedString", align 8
  %exn.slot = alloca i8*
  %ehselector.slot = alloca i32
  %0 = bitcast %"class.xalanc_1_10::XObjectPtr"* %agg.result to i8*
  store i8* %0, i8** %result.ptr, align 8
  store %"class.xalanc_1_10::XalanEXSLTFunctionMax"* %this, %"class.xalanc_1_10::XalanEXSLTFunctionMax"** %this.addr, align 8
  call void @llvm.dbg.declare(metadata %"class.xalanc_1_10::XalanEXSLTFunctionMax"** %this.addr, metadata !3628, metadata !DIExpression()), !dbg !3630
  store %"class.xalanc_1_10::XPathExecutionContext"* %executionContext, %"class.xalanc_1_10::XPathExecutionContext"** %executionContext.addr, align 8
  call void @llvm.dbg.declare(metadata %"class.xalanc_1_10::XPathExecutionContext"** %executionContext.addr, metadata !3631, metadata !DIExpression()), !dbg !3632
  store %"class.xalanc_1_10::XalanNode"* %context, %"class.xalanc_1_10::XalanNode"** %context.addr, align 8
  call void @llvm.dbg.declare(metadata %"class.xalanc_1_10::XalanNode"** %context.addr, metadata !3633, metadata !DIExpression()), !dbg !3634
  store %"class.xalanc_1_10::XalanVector"* %args, %"class.xalanc_1_10::XalanVector"** %args.addr, align 8
  call void @llvm.dbg.declare(metadata %"class.xalanc_1_10::XalanVector"** %args.addr, metadata !3635, metadata !DIExpression()), !dbg !3636
  store %"class.xercesc_2_7::Locator"* %locator, %"class.xercesc_2_7::Locator"** %locator.addr, align 8
  call void @llvm.dbg.declare(metadata %"class.xercesc_2_7::Locator"** %locator.addr, metadata !3637, metadata !DIExpression()), !dbg !3638
  %this1 = load %"class.xalanc_1_10::XalanEXSLTFunctionMax"*, %"class.xalanc_1_10::XalanEXSLTFunctionMax"** %this.addr, align 8
  %1 = load %"class.xalanc_1_10::XalanVector"*, %"class.xalanc_1_10::XalanVector"** %args.addr, align 8, !dbg !3639
  %call = call i64 @_ZNK11xalanc_1_1011XalanVectorINS_10XObjectPtrENS_31MemoryManagedConstructionTraitsIS1_EEE4sizeEv(%"class.xalanc_1_10::XalanVector"* %1), !dbg !3641
  %cmp = icmp ne i64 %call, 1, !dbg !3642
  br i1 %cmp, label %if.then, label %if.end, !dbg !3643

if.then:                                          ; preds = %entry
  call void @llvm.dbg.declare(metadata %"class.xalanc_1_10::XPathExecutionContext::GetAndReleaseCachedString"* %theGuard, metadata !3644, metadata !DIExpression()), !dbg !3646
  %2 = load %"class.xalanc_1_10::XPathExecutionContext"*, %"class.xalanc_1_10::XPathExecutionContext"** %executionContext.addr, align 8, !dbg !3647
  call void @_ZN11xalanc_1_1021XPathExecutionContext25GetAndReleaseCachedStringC2ERS0_(%"class.xalanc_1_10::XPathExecutionContext::GetAndReleaseCachedString"* %theGuard, %"class.xalanc_1_10::XPathExecutionContext"* dereferenceable(24) %2), !dbg !3646
  %3 = load %"class.xalanc_1_10::XPathExecutionContext"*, %"class.xalanc_1_10::XPathExecutionContext"** %executionContext.addr, align 8, !dbg !3648
  %call2 = invoke dereferenceable(40) %"class.xalanc_1_10::XalanDOMString"* @_ZNK11xalanc_1_1021XPathExecutionContext25GetAndReleaseCachedString3getEv(%"class.xalanc_1_10::XPathExecutionContext::GetAndReleaseCachedString"* %theGuard)
          to label %invoke.cont unwind label %lpad, !dbg !3649

invoke.cont:                                      ; preds = %if.then
  %4 = bitcast %"class.xalanc_1_10::XalanEXSLTFunctionMax"* %this1 to %"class.xalanc_1_10::XalanDOMString"* (%"class.xalanc_1_10::XalanEXSLTFunctionMax"*, %"class.xalanc_1_10::XalanDOMString"*)***, !dbg !3650
  %vtable = load %"class.xalanc_1_10::XalanDOMString"* (%"class.xalanc_1_10::XalanEXSLTFunctionMax"*, %"class.xalanc_1_10::XalanDOMString"*)**, %"class.xalanc_1_10::XalanDOMString"* (%"class.xalanc_1_10::XalanEXSLTFunctionMax"*, %"class.xalanc_1_10::XalanDOMString"*)*** %4, align 8, !dbg !3650
  %vfn = getelementptr inbounds %"class.xalanc_1_10::XalanDOMString"* (%"class.xalanc_1_10::XalanEXSLTFunctionMax"*, %"class.xalanc_1_10::XalanDOMString"*)*, %"class.xalanc_1_10::XalanDOMString"* (%"class.xalanc_1_10::XalanEXSLTFunctionMax"*, %"class.xalanc_1_10::XalanDOMString"*)** %vtable, i64 8, !dbg !3650
  %5 = load %"class.xalanc_1_10::XalanDOMString"* (%"class.xalanc_1_10::XalanEXSLTFunctionMax"*, %"class.xalanc_1_10::XalanDOMString"*)*, %"class.xalanc_1_10::XalanDOMString"* (%"class.xalanc_1_10::XalanEXSLTFunctionMax"*, %"class.xalanc_1_10::XalanDOMString"*)** %vfn, align 8, !dbg !3650
  %call4 = invoke dereferenceable(40) %"class.xalanc_1_10::XalanDOMString"* %5(%"class.xalanc_1_10::XalanEXSLTFunctionMax"* %this1, %"class.xalanc_1_10::XalanDOMString"* dereferenceable(40) %call2)
          to label %invoke.cont3 unwind label %lpad, !dbg !3650

invoke.cont3:                                     ; preds = %invoke.cont
  %6 = load %"class.xalanc_1_10::XalanNode"*, %"class.xalanc_1_10::XalanNode"** %context.addr, align 8, !dbg !3651
  %7 = load %"class.xercesc_2_7::Locator"*, %"class.xercesc_2_7::Locator"** %locator.addr, align 8, !dbg !3652
  %8 = bitcast %"class.xalanc_1_10::XPathExecutionContext"* %3 to void (%"class.xalanc_1_10::XPathExecutionContext"*, %"class.xalanc_1_10::XalanDOMString"*, %"class.xalanc_1_10::XalanNode"*, %"class.xercesc_2_7::Locator"*)***, !dbg !3653
  %vtable5 = load void (%"class.xalanc_1_10::XPathExecutionContext"*, %"class.xalanc_1_10::XalanDOMString"*, %"class.xalanc_1_10::XalanNode"*, %"class.xercesc_2_7::Locator"*)**, void (%"class.xalanc_1_10::XPathExecutionContext"*, %"class.xalanc_1_10::XalanDOMString"*, %"class.xalanc_1_10::XalanNode"*, %"class.xercesc_2_7::Locator"*)*** %8, align 8, !dbg !3653
  %vfn6 = getelementptr inbounds void (%"class.xalanc_1_10::XPathExecutionContext"*, %"class.xalanc_1_10::XalanDOMString"*, %"class.xalanc_1_10::XalanNode"*, %"class.xercesc_2_7::Locator"*)*, void (%"class.xalanc_1_10::XPathExecutionContext"*, %"class.xalanc_1_10::XalanDOMString"*, %"class.xalanc_1_10::XalanNode"*, %"class.xercesc_2_7::Locator"*)** %vtable5, i64 2, !dbg !3653
  %9 = load void (%"class.xalanc_1_10::XPathExecutionContext"*, %"class.xalanc_1_10::XalanDOMString"*, %"class.xalanc_1_10::XalanNode"*, %"class.xercesc_2_7::Locator"*)*, void (%"class.xalanc_1_10::XPathExecutionContext"*, %"class.xalanc_1_10::XalanDOMString"*, %"class.xalanc_1_10::XalanNode"*, %"class.xercesc_2_7::Locator"*)** %vfn6, align 8, !dbg !3653
  invoke void %9(%"class.xalanc_1_10::XPathExecutionContext"* %3, %"class.xalanc_1_10::XalanDOMString"* dereferenceable(40) %call4, %"class.xalanc_1_10::XalanNode"* %6, %"class.xercesc_2_7::Locator"* %7)
          to label %invoke.cont7 unwind label %lpad, !dbg !3653

invoke.cont7:                                     ; preds = %invoke.cont3
  call void @_ZN11xalanc_1_1021XPathExecutionContext25GetAndReleaseCachedStringD2Ev(%"class.xalanc_1_10::XPathExecutionContext::GetAndReleaseCachedString"* %theGuard) #5, !dbg !3654
  br label %if.end, !dbg !3655

lpad:                                             ; preds = %invoke.cont3, %invoke.cont, %if.then
  %10 = landingpad { i8*, i32 }
          cleanup, !dbg !3656
  %11 = extractvalue { i8*, i32 } %10, 0, !dbg !3656
  store i8* %11, i8** %exn.slot, align 8, !dbg !3656
  %12 = extractvalue { i8*, i32 } %10, 1, !dbg !3656
  store i32 %12, i32* %ehselector.slot, align 4, !dbg !3656
  call void @_ZN11xalanc_1_1021XPathExecutionContext25GetAndReleaseCachedStringD2Ev(%"class.xalanc_1_10::XPathExecutionContext::GetAndReleaseCachedString"* %theGuard) #5, !dbg !3654
  br label %eh.resume, !dbg !3654

if.end:                                           ; preds = %invoke.cont7, %entry
  %13 = load %"class.xalanc_1_10::XPathExecutionContext"*, %"class.xalanc_1_10::XPathExecutionContext"** %executionContext.addr, align 8, !dbg !3657
  %14 = load %"class.xalanc_1_10::XalanVector"*, %"class.xalanc_1_10::XalanVector"** %args.addr, align 8, !dbg !3658
  %call8 = call dereferenceable(8) %"class.xalanc_1_10::XObjectPtr"* @_ZNK11xalanc_1_1011XalanVectorINS_10XObjectPtrENS_31MemoryManagedConstructionTraitsIS1_EEEixEm(%"class.xalanc_1_10::XalanVector"* %14, i64 0), !dbg !3658
  %call9 = call %"class.xalanc_1_10::XObject"* @_ZNK11xalanc_1_1010XObjectPtrptEv(%"class.xalanc_1_10::XObjectPtr"* %call8), !dbg !3658
  %15 = bitcast %"class.xalanc_1_10::XObject"* %call9 to %"class.xalanc_1_10::NodeRefListBase"* (%"class.xalanc_1_10::XObject"*)***, !dbg !3659
  %vtable10 = load %"class.xalanc_1_10::NodeRefListBase"* (%"class.xalanc_1_10::XObject"*)**, %"class.xalanc_1_10::NodeRefListBase"* (%"class.xalanc_1_10::XObject"*)*** %15, align 8, !dbg !3659
  %vfn11 = getelementptr inbounds %"class.xalanc_1_10::NodeRefListBase"* (%"class.xalanc_1_10::XObject"*)*, %"class.xalanc_1_10::NodeRefListBase"* (%"class.xalanc_1_10::XObject"*)** %vtable10, i64 13, !dbg !3659
  %16 = load %"class.xalanc_1_10::NodeRefListBase"* (%"class.xalanc_1_10::XObject"*)*, %"class.xalanc_1_10::NodeRefListBase"* (%"class.xalanc_1_10::XObject"*)** %vfn11, align 8, !dbg !3659
  %call12 = call dereferenceable(8) %"class.xalanc_1_10::NodeRefListBase"* %16(%"class.xalanc_1_10::XObject"* %call9), !dbg !3659
  call void @_ZN11xalanc_1_109findValueIPFbddEEENS_10XObjectPtrERNS_21XPathExecutionContextERKNS_15NodeRefListBaseET_(%"class.xalanc_1_10::XObjectPtr"* sret %agg.result, %"class.xalanc_1_10::XPathExecutionContext"* dereferenceable(24) %13, %"class.xalanc_1_10::NodeRefListBase"* dereferenceable(8) %call12, i1 (double, double)* @_ZN11xalanc_1_1013DoubleSupport11greaterThanEdd), !dbg !3660
  ret void, !dbg !3661

eh.resume:                                        ; preds = %lpad
  %exn = load i8*, i8** %exn.slot, align 8, !dbg !3654
  %sel = load i32, i32* %ehselector.slot, align 4, !dbg !3654
  %lpad.val = insertvalue { i8*, i32 } undef, i8* %exn, 0, !dbg !3654
  %lpad.val13 = insertvalue { i8*, i32 } %lpad.val, i32 %sel, 1, !dbg !3654
  resume { i8*, i32 } %lpad.val13, !dbg !3654
}

; Function Attrs: noinline uwtable
define dso_local dereferenceable(40) %"class.xalanc_1_10::XalanDOMString"* @_ZNK11xalanc_1_1021XalanEXSLTFunctionMax8getErrorERNS_14XalanDOMStringE(%"class.xalanc_1_10::XalanEXSLTFunctionMax"* %this, %"class.xalanc_1_10::XalanDOMString"* dereferenceable(40) %theBuffer) unnamed_addr #0 align 2 !dbg !3662 {
entry:
  %this.addr = alloca %"class.xalanc_1_10::XalanEXSLTFunctionMax"*, align 8
  %theBuffer.addr = alloca %"class.xalanc_1_10::XalanDOMString"*, align 8
  store %"class.xalanc_1_10::XalanEXSLTFunctionMax"* %this, %"class.xalanc_1_10::XalanEXSLTFunctionMax"** %this.addr, align 8
  call void @llvm.dbg.declare(metadata %"class.xalanc_1_10::XalanEXSLTFunctionMax"** %this.addr, metadata !3663, metadata !DIExpression()), !dbg !3664
  store %"class.xalanc_1_10::XalanDOMString"* %theBuffer, %"class.xalanc_1_10::XalanDOMString"** %theBuffer.addr, align 8
  call void @llvm.dbg.declare(metadata %"class.xalanc_1_10::XalanDOMString"** %theBuffer.addr, metadata !3665, metadata !DIExpression()), !dbg !3666
  %this1 = load %"class.xalanc_1_10::XalanEXSLTFunctionMax"*, %"class.xalanc_1_10::XalanEXSLTFunctionMax"** %this.addr, align 8
  %0 = load %"class.xalanc_1_10::XalanDOMString"*, %"class.xalanc_1_10::XalanDOMString"** %theBuffer.addr, align 8, !dbg !3667
  %call = call dereferenceable(40) %"class.xalanc_1_10::XalanDOMString"* @_ZN11xalanc_1_1018XalanMessageLoader10getMessageERNS_14XalanDOMStringENS_13XalanMessages5CodesEPKtS6_S6_S6_(%"class.xalanc_1_10::XalanDOMString"* dereferenceable(40) %0, i32 145, i16* getelementptr inbounds ([4 x i16], [4 x i16]* @_ZN11xalanc_1_10L17s_maxFunctionNameE, i64 0, i64 0), i16* null, i16* null, i16* null), !dbg !3668
  ret %"class.xalanc_1_10::XalanDOMString"* %call, !dbg !3669
}

; Function Attrs: noinline uwtable
define dso_local void @_ZNK11xalanc_1_1021XalanEXSLTFunctionAbs7executeERNS_21XPathExecutionContextEPNS_9XalanNodeERKNS_11XalanVectorINS_10XObjectPtrENS_31MemoryManagedConstructionTraitsIS6_EEEEPKN11xercesc_2_77LocatorE(%"class.xalanc_1_10::XObjectPtr"* noalias sret %agg.result, %"class.xalanc_1_10::XalanEXSLTFunctionAbs"* %this, %"class.xalanc_1_10::XPathExecutionContext"* dereferenceable(24) %executionContext, %"class.xalanc_1_10::XalanNode"* %context, %"class.xalanc_1_10::XalanVector"* dereferenceable(32) %args, %"class.xercesc_2_7::Locator"* %locator) unnamed_addr #0 align 2 personality i8* bitcast (i32 (...)* @__gxx_personality_v0 to i8*) !dbg !3670 {
entry:
  %result.ptr = alloca i8*, align 8
  %this.addr = alloca %"class.xalanc_1_10::XalanEXSLTFunctionAbs"*, align 8
  %executionContext.addr = alloca %"class.xalanc_1_10::XPathExecutionContext"*, align 8
  %context.addr = alloca %"class.xalanc_1_10::XalanNode"*, align 8
  %args.addr = alloca %"class.xalanc_1_10::XalanVector"*, align 8
  %locator.addr = alloca %"class.xercesc_2_7::Locator"*, align 8
  %theGuard = alloca %"class.xalanc_1_10::XPathExecutionContext::GetAndReleaseCachedString", align 8
  %exn.slot = alloca i8*
  %ehselector.slot = alloca i32
  %0 = bitcast %"class.xalanc_1_10::XObjectPtr"* %agg.result to i8*
  store i8* %0, i8** %result.ptr, align 8
  store %"class.xalanc_1_10::XalanEXSLTFunctionAbs"* %this, %"class.xalanc_1_10::XalanEXSLTFunctionAbs"** %this.addr, align 8
  call void @llvm.dbg.declare(metadata %"class.xalanc_1_10::XalanEXSLTFunctionAbs"** %this.addr, metadata !3671, metadata !DIExpression()), !dbg !3673
  store %"class.xalanc_1_10::XPathExecutionContext"* %executionContext, %"class.xalanc_1_10::XPathExecutionContext"** %executionContext.addr, align 8
  call void @llvm.dbg.declare(metadata %"class.xalanc_1_10::XPathExecutionContext"** %executionContext.addr, metadata !3674, metadata !DIExpression()), !dbg !3675
  store %"class.xalanc_1_10::XalanNode"* %context, %"class.xalanc_1_10::XalanNode"** %context.addr, align 8
  call void @llvm.dbg.declare(metadata %"class.xalanc_1_10::XalanNode"** %context.addr, metadata !3676, metadata !DIExpression()), !dbg !3677
  store %"class.xalanc_1_10::XalanVector"* %args, %"class.xalanc_1_10::XalanVector"** %args.addr, align 8
  call void @llvm.dbg.declare(metadata %"class.xalanc_1_10::XalanVector"** %args.addr, metadata !3678, metadata !DIExpression()), !dbg !3679
  store %"class.xercesc_2_7::Locator"* %locator, %"class.xercesc_2_7::Locator"** %locator.addr, align 8
  call void @llvm.dbg.declare(metadata %"class.xercesc_2_7::Locator"** %locator.addr, metadata !3680, metadata !DIExpression()), !dbg !3681
  %this1 = load %"class.xalanc_1_10::XalanEXSLTFunctionAbs"*, %"class.xalanc_1_10::XalanEXSLTFunctionAbs"** %this.addr, align 8
  %1 = load %"class.xalanc_1_10::XalanVector"*, %"class.xalanc_1_10::XalanVector"** %args.addr, align 8, !dbg !3682
  %call = call i64 @_ZNK11xalanc_1_1011XalanVectorINS_10XObjectPtrENS_31MemoryManagedConstructionTraitsIS1_EEE4sizeEv(%"class.xalanc_1_10::XalanVector"* %1), !dbg !3684
  %cmp = icmp ne i64 %call, 1, !dbg !3685
  br i1 %cmp, label %if.then, label %if.end, !dbg !3686

if.then:                                          ; preds = %entry
  call void @llvm.dbg.declare(metadata %"class.xalanc_1_10::XPathExecutionContext::GetAndReleaseCachedString"* %theGuard, metadata !3687, metadata !DIExpression()), !dbg !3689
  %2 = load %"class.xalanc_1_10::XPathExecutionContext"*, %"class.xalanc_1_10::XPathExecutionContext"** %executionContext.addr, align 8, !dbg !3690
  call void @_ZN11xalanc_1_1021XPathExecutionContext25GetAndReleaseCachedStringC2ERS0_(%"class.xalanc_1_10::XPathExecutionContext::GetAndReleaseCachedString"* %theGuard, %"class.xalanc_1_10::XPathExecutionContext"* dereferenceable(24) %2), !dbg !3689
  %3 = load %"class.xalanc_1_10::XPathExecutionContext"*, %"class.xalanc_1_10::XPathExecutionContext"** %executionContext.addr, align 8, !dbg !3691
  %call2 = invoke dereferenceable(40) %"class.xalanc_1_10::XalanDOMString"* @_ZNK11xalanc_1_1021XPathExecutionContext25GetAndReleaseCachedString3getEv(%"class.xalanc_1_10::XPathExecutionContext::GetAndReleaseCachedString"* %theGuard)
          to label %invoke.cont unwind label %lpad, !dbg !3692

invoke.cont:                                      ; preds = %if.then
  %4 = bitcast %"class.xalanc_1_10::XalanEXSLTFunctionAbs"* %this1 to %"class.xalanc_1_10::XalanDOMString"* (%"class.xalanc_1_10::XalanEXSLTFunctionAbs"*, %"class.xalanc_1_10::XalanDOMString"*)***, !dbg !3693
  %vtable = load %"class.xalanc_1_10::XalanDOMString"* (%"class.xalanc_1_10::XalanEXSLTFunctionAbs"*, %"class.xalanc_1_10::XalanDOMString"*)**, %"class.xalanc_1_10::XalanDOMString"* (%"class.xalanc_1_10::XalanEXSLTFunctionAbs"*, %"class.xalanc_1_10::XalanDOMString"*)*** %4, align 8, !dbg !3693
  %vfn = getelementptr inbounds %"class.xalanc_1_10::XalanDOMString"* (%"class.xalanc_1_10::XalanEXSLTFunctionAbs"*, %"class.xalanc_1_10::XalanDOMString"*)*, %"class.xalanc_1_10::XalanDOMString"* (%"class.xalanc_1_10::XalanEXSLTFunctionAbs"*, %"class.xalanc_1_10::XalanDOMString"*)** %vtable, i64 8, !dbg !3693
  %5 = load %"class.xalanc_1_10::XalanDOMString"* (%"class.xalanc_1_10::XalanEXSLTFunctionAbs"*, %"class.xalanc_1_10::XalanDOMString"*)*, %"class.xalanc_1_10::XalanDOMString"* (%"class.xalanc_1_10::XalanEXSLTFunctionAbs"*, %"class.xalanc_1_10::XalanDOMString"*)** %vfn, align 8, !dbg !3693
  %call4 = invoke dereferenceable(40) %"class.xalanc_1_10::XalanDOMString"* %5(%"class.xalanc_1_10::XalanEXSLTFunctionAbs"* %this1, %"class.xalanc_1_10::XalanDOMString"* dereferenceable(40) %call2)
          to label %invoke.cont3 unwind label %lpad, !dbg !3693

invoke.cont3:                                     ; preds = %invoke.cont
  %6 = load %"class.xalanc_1_10::XalanNode"*, %"class.xalanc_1_10::XalanNode"** %context.addr, align 8, !dbg !3694
  %7 = load %"class.xercesc_2_7::Locator"*, %"class.xercesc_2_7::Locator"** %locator.addr, align 8, !dbg !3695
  %8 = bitcast %"class.xalanc_1_10::XPathExecutionContext"* %3 to void (%"class.xalanc_1_10::XPathExecutionContext"*, %"class.xalanc_1_10::XalanDOMString"*, %"class.xalanc_1_10::XalanNode"*, %"class.xercesc_2_7::Locator"*)***, !dbg !3696
  %vtable5 = load void (%"class.xalanc_1_10::XPathExecutionContext"*, %"class.xalanc_1_10::XalanDOMString"*, %"class.xalanc_1_10::XalanNode"*, %"class.xercesc_2_7::Locator"*)**, void (%"class.xalanc_1_10::XPathExecutionContext"*, %"class.xalanc_1_10::XalanDOMString"*, %"class.xalanc_1_10::XalanNode"*, %"class.xercesc_2_7::Locator"*)*** %8, align 8, !dbg !3696
  %vfn6 = getelementptr inbounds void (%"class.xalanc_1_10::XPathExecutionContext"*, %"class.xalanc_1_10::XalanDOMString"*, %"class.xalanc_1_10::XalanNode"*, %"class.xercesc_2_7::Locator"*)*, void (%"class.xalanc_1_10::XPathExecutionContext"*, %"class.xalanc_1_10::XalanDOMString"*, %"class.xalanc_1_10::XalanNode"*, %"class.xercesc_2_7::Locator"*)** %vtable5, i64 2, !dbg !3696
  %9 = load void (%"class.xalanc_1_10::XPathExecutionContext"*, %"class.xalanc_1_10::XalanDOMString"*, %"class.xalanc_1_10::XalanNode"*, %"class.xercesc_2_7::Locator"*)*, void (%"class.xalanc_1_10::XPathExecutionContext"*, %"class.xalanc_1_10::XalanDOMString"*, %"class.xalanc_1_10::XalanNode"*, %"class.xercesc_2_7::Locator"*)** %vfn6, align 8, !dbg !3696
  invoke void %9(%"class.xalanc_1_10::XPathExecutionContext"* %3, %"class.xalanc_1_10::XalanDOMString"* dereferenceable(40) %call4, %"class.xalanc_1_10::XalanNode"* %6, %"class.xercesc_2_7::Locator"* %7)
          to label %invoke.cont7 unwind label %lpad, !dbg !3696

invoke.cont7:                                     ; preds = %invoke.cont3
  call void @_ZN11xalanc_1_1021XPathExecutionContext25GetAndReleaseCachedStringD2Ev(%"class.xalanc_1_10::XPathExecutionContext::GetAndReleaseCachedString"* %theGuard) #5, !dbg !3697
  br label %if.end, !dbg !3698

lpad:                                             ; preds = %invoke.cont3, %invoke.cont, %if.then
  %10 = landingpad { i8*, i32 }
          cleanup, !dbg !3699
  %11 = extractvalue { i8*, i32 } %10, 0, !dbg !3699
  store i8* %11, i8** %exn.slot, align 8, !dbg !3699
  %12 = extractvalue { i8*, i32 } %10, 1, !dbg !3699
  store i32 %12, i32* %ehselector.slot, align 4, !dbg !3699
  call void @_ZN11xalanc_1_1021XPathExecutionContext25GetAndReleaseCachedStringD2Ev(%"class.xalanc_1_10::XPathExecutionContext::GetAndReleaseCachedString"* %theGuard) #5, !dbg !3697
  br label %eh.resume, !dbg !3697

if.end:                                           ; preds = %invoke.cont7, %entry
  %13 = load %"class.xalanc_1_10::XPathExecutionContext"*, %"class.xalanc_1_10::XPathExecutionContext"** %executionContext.addr, align 8, !dbg !3700
  %call8 = call dereferenceable(16) %"class.xalanc_1_10::XObjectFactory"* @_ZNK11xalanc_1_1021XPathExecutionContext17getXObjectFactoryEv(%"class.xalanc_1_10::XPathExecutionContext"* %13), !dbg !3701
  %14 = load %"class.xalanc_1_10::XalanVector"*, %"class.xalanc_1_10::XalanVector"** %args.addr, align 8, !dbg !3702
  %call9 = call dereferenceable(8) %"class.xalanc_1_10::XObjectPtr"* @_ZNK11xalanc_1_1011XalanVectorINS_10XObjectPtrENS_31MemoryManagedConstructionTraitsIS1_EEEixEm(%"class.xalanc_1_10::XalanVector"* %14, i64 0), !dbg !3702
  %call10 = call %"class.xalanc_1_10::XObject"* @_ZNK11xalanc_1_1010XObjectPtrptEv(%"class.xalanc_1_10::XObjectPtr"* %call9), !dbg !3702
  %15 = bitcast %"class.xalanc_1_10::XObject"* %call10 to double (%"class.xalanc_1_10::XObject"*)***, !dbg !3703
  %vtable11 = load double (%"class.xalanc_1_10::XObject"*)**, double (%"class.xalanc_1_10::XObject"*)*** %15, align 8, !dbg !3703
  %vfn12 = getelementptr inbounds double (%"class.xalanc_1_10::XObject"*)*, double (%"class.xalanc_1_10::XObject"*)** %vtable11, i64 6, !dbg !3703
  %16 = load double (%"class.xalanc_1_10::XObject"*)*, double (%"class.xalanc_1_10::XObject"*)** %vfn12, align 8, !dbg !3703
  %call13 = call double %16(%"class.xalanc_1_10::XObject"* %call10), !dbg !3703
  %call14 = call double @_ZN11xalanc_1_1013DoubleSupport3absEd(double %call13), !dbg !3704
  %17 = bitcast %"class.xalanc_1_10::XObjectFactory"* %call8 to void (%"class.xalanc_1_10::XObjectPtr"*, %"class.xalanc_1_10::XObjectFactory"*, double)***, !dbg !3705
  %vtable15 = load void (%"class.xalanc_1_10::XObjectPtr"*, %"class.xalanc_1_10::XObjectFactory"*, double)**, void (%"class.xalanc_1_10::XObjectPtr"*, %"class.xalanc_1_10::XObjectFactory"*, double)*** %17, align 8, !dbg !3705
  %vfn16 = getelementptr inbounds void (%"class.xalanc_1_10::XObjectPtr"*, %"class.xalanc_1_10::XObjectFactory"*, double)*, void (%"class.xalanc_1_10::XObjectPtr"*, %"class.xalanc_1_10::XObjectFactory"*, double)** %vtable15, i64 7, !dbg !3705
  %18 = load void (%"class.xalanc_1_10::XObjectPtr"*, %"class.xalanc_1_10::XObjectFactory"*, double)*, void (%"class.xalanc_1_10::XObjectPtr"*, %"class.xalanc_1_10::XObjectFactory"*, double)** %vfn16, align 8, !dbg !3705
  call void %18(%"class.xalanc_1_10::XObjectPtr"* sret %agg.result, %"class.xalanc_1_10::XObjectFactory"* %call8, double %call14), !dbg !3705
  ret void, !dbg !3706

eh.resume:                                        ; preds = %lpad
  %exn = load i8*, i8** %exn.slot, align 8, !dbg !3697
  %sel = load i32, i32* %ehselector.slot, align 4, !dbg !3697
  %lpad.val = insertvalue { i8*, i32 } undef, i8* %exn, 0, !dbg !3697
  %lpad.val17 = insertvalue { i8*, i32 } %lpad.val, i32 %sel, 1, !dbg !3697
  resume { i8*, i32 } %lpad.val17, !dbg !3697
}

; Function Attrs: noinline nounwind uwtable
define linkonce_odr dso_local dereferenceable(16) %"class.xalanc_1_10::XObjectFactory"* @_ZNK11xalanc_1_1021XPathExecutionContext17getXObjectFactoryEv(%"class.xalanc_1_10::XPathExecutionContext"* %this) #2 comdat align 2 !dbg !3707 {
entry:
  %this.addr = alloca %"class.xalanc_1_10::XPathExecutionContext"*, align 8
  store %"class.xalanc_1_10::XPathExecutionContext"* %this, %"class.xalanc_1_10::XPathExecutionContext"** %this.addr, align 8
  call void @llvm.dbg.declare(metadata %"class.xalanc_1_10::XPathExecutionContext"** %this.addr, metadata !3716, metadata !DIExpression()), !dbg !3718
  %this1 = load %"class.xalanc_1_10::XPathExecutionContext"*, %"class.xalanc_1_10::XPathExecutionContext"** %this.addr, align 8
  %m_xobjectFactory = getelementptr inbounds %"class.xalanc_1_10::XPathExecutionContext", %"class.xalanc_1_10::XPathExecutionContext"* %this1, i32 0, i32 1, !dbg !3719
  %0 = load %"class.xalanc_1_10::XObjectFactory"*, %"class.xalanc_1_10::XObjectFactory"** %m_xobjectFactory, align 8, !dbg !3719
  ret %"class.xalanc_1_10::XObjectFactory"* %0, !dbg !3720
}

declare dso_local double @_ZN11xalanc_1_1013DoubleSupport3absEd(double) #3

; Function Attrs: noinline uwtable
define dso_local dereferenceable(40) %"class.xalanc_1_10::XalanDOMString"* @_ZNK11xalanc_1_1021XalanEXSLTFunctionAbs8getErrorERNS_14XalanDOMStringE(%"class.xalanc_1_10::XalanEXSLTFunctionAbs"* %this, %"class.xalanc_1_10::XalanDOMString"* dereferenceable(40) %theBuffer) unnamed_addr #0 align 2 !dbg !3721 {
entry:
  %this.addr = alloca %"class.xalanc_1_10::XalanEXSLTFunctionAbs"*, align 8
  %theBuffer.addr = alloca %"class.xalanc_1_10::XalanDOMString"*, align 8
  store %"class.xalanc_1_10::XalanEXSLTFunctionAbs"* %this, %"class.xalanc_1_10::XalanEXSLTFunctionAbs"** %this.addr, align 8
  call void @llvm.dbg.declare(metadata %"class.xalanc_1_10::XalanEXSLTFunctionAbs"** %this.addr, metadata !3722, metadata !DIExpression()), !dbg !3723
  store %"class.xalanc_1_10::XalanDOMString"* %theBuffer, %"class.xalanc_1_10::XalanDOMString"** %theBuffer.addr, align 8
  call void @llvm.dbg.declare(metadata %"class.xalanc_1_10::XalanDOMString"** %theBuffer.addr, metadata !3724, metadata !DIExpression()), !dbg !3725
  %this1 = load %"class.xalanc_1_10::XalanEXSLTFunctionAbs"*, %"class.xalanc_1_10::XalanEXSLTFunctionAbs"** %this.addr, align 8
  %0 = load %"class.xalanc_1_10::XalanDOMString"*, %"class.xalanc_1_10::XalanDOMString"** %theBuffer.addr, align 8, !dbg !3726
  %call = call dereferenceable(40) %"class.xalanc_1_10::XalanDOMString"* @_ZN11xalanc_1_1018XalanMessageLoader10getMessageERNS_14XalanDOMStringENS_13XalanMessages5CodesEPKtS6_S6_S6_(%"class.xalanc_1_10::XalanDOMString"* dereferenceable(40) %0, i32 145, i16* getelementptr inbounds ([4 x i16], [4 x i16]* @_ZN11xalanc_1_10L17s_absFunctionNameE, i64 0, i64 0), i16* null, i16* null, i16* null), !dbg !3727
  ret %"class.xalanc_1_10::XalanDOMString"* %call, !dbg !3728
}

; Function Attrs: noinline uwtable
define dso_local void @_ZNK11xalanc_1_1024XalanEXSLTFunctionRandom7executeERNS_21XPathExecutionContextEPNS_9XalanNodeERKNS_11XalanVectorINS_10XObjectPtrENS_31MemoryManagedConstructionTraitsIS6_EEEEPKN11xercesc_2_77LocatorE(%"class.xalanc_1_10::XObjectPtr"* noalias sret %agg.result, %"class.xalanc_1_10::XalanEXSLTFunctionRandom"* %this, %"class.xalanc_1_10::XPathExecutionContext"* dereferenceable(24) %executionContext, %"class.xalanc_1_10::XalanNode"* %context, %"class.xalanc_1_10::XalanVector"* dereferenceable(32) %args, %"class.xercesc_2_7::Locator"* %locator) unnamed_addr #0 align 2 personality i8* bitcast (i32 (...)* @__gxx_personality_v0 to i8*) !dbg !3729 {
entry:
  %result.ptr = alloca i8*, align 8
  %this.addr = alloca %"class.xalanc_1_10::XalanEXSLTFunctionRandom"*, align 8
  %executionContext.addr = alloca %"class.xalanc_1_10::XPathExecutionContext"*, align 8
  %context.addr = alloca %"class.xalanc_1_10::XalanNode"*, align 8
  %args.addr = alloca %"class.xalanc_1_10::XalanVector"*, align 8
  %locator.addr = alloca %"class.xercesc_2_7::Locator"*, align 8
  %theGuard = alloca %"class.xalanc_1_10::XPathExecutionContext::GetAndReleaseCachedString", align 8
  %exn.slot = alloca i8*
  %ehselector.slot = alloca i32
  %value = alloca i32, align 4
  %result = alloca double, align 8
  %0 = bitcast %"class.xalanc_1_10::XObjectPtr"* %agg.result to i8*
  store i8* %0, i8** %result.ptr, align 8
  store %"class.xalanc_1_10::XalanEXSLTFunctionRandom"* %this, %"class.xalanc_1_10::XalanEXSLTFunctionRandom"** %this.addr, align 8
  call void @llvm.dbg.declare(metadata %"class.xalanc_1_10::XalanEXSLTFunctionRandom"** %this.addr, metadata !3730, metadata !DIExpression()), !dbg !3732
  store %"class.xalanc_1_10::XPathExecutionContext"* %executionContext, %"class.xalanc_1_10::XPathExecutionContext"** %executionContext.addr, align 8
  call void @llvm.dbg.declare(metadata %"class.xalanc_1_10::XPathExecutionContext"** %executionContext.addr, metadata !3733, metadata !DIExpression()), !dbg !3734
  store %"class.xalanc_1_10::XalanNode"* %context, %"class.xalanc_1_10::XalanNode"** %context.addr, align 8
  call void @llvm.dbg.declare(metadata %"class.xalanc_1_10::XalanNode"** %context.addr, metadata !3735, metadata !DIExpression()), !dbg !3736
  store %"class.xalanc_1_10::XalanVector"* %args, %"class.xalanc_1_10::XalanVector"** %args.addr, align 8
  call void @llvm.dbg.declare(metadata %"class.xalanc_1_10::XalanVector"** %args.addr, metadata !3737, metadata !DIExpression()), !dbg !3738
  store %"class.xercesc_2_7::Locator"* %locator, %"class.xercesc_2_7::Locator"** %locator.addr, align 8
  call void @llvm.dbg.declare(metadata %"class.xercesc_2_7::Locator"** %locator.addr, metadata !3739, metadata !DIExpression()), !dbg !3740
  %this1 = load %"class.xalanc_1_10::XalanEXSLTFunctionRandom"*, %"class.xalanc_1_10::XalanEXSLTFunctionRandom"** %this.addr, align 8
  %1 = load %"class.xalanc_1_10::XalanVector"*, %"class.xalanc_1_10::XalanVector"** %args.addr, align 8, !dbg !3741
  %call = call zeroext i1 @_ZNK11xalanc_1_1011XalanVectorINS_10XObjectPtrENS_31MemoryManagedConstructionTraitsIS1_EEE5emptyEv(%"class.xalanc_1_10::XalanVector"* %1), !dbg !3743
  %conv = zext i1 %call to i32, !dbg !3741
  %cmp = icmp eq i32 %conv, 0, !dbg !3744
  br i1 %cmp, label %if.then, label %if.end, !dbg !3745

if.then:                                          ; preds = %entry
  call void @llvm.dbg.declare(metadata %"class.xalanc_1_10::XPathExecutionContext::GetAndReleaseCachedString"* %theGuard, metadata !3746, metadata !DIExpression()), !dbg !3748
  %2 = load %"class.xalanc_1_10::XPathExecutionContext"*, %"class.xalanc_1_10::XPathExecutionContext"** %executionContext.addr, align 8, !dbg !3749
  call void @_ZN11xalanc_1_1021XPathExecutionContext25GetAndReleaseCachedStringC2ERS0_(%"class.xalanc_1_10::XPathExecutionContext::GetAndReleaseCachedString"* %theGuard, %"class.xalanc_1_10::XPathExecutionContext"* dereferenceable(24) %2), !dbg !3748
  %3 = load %"class.xalanc_1_10::XPathExecutionContext"*, %"class.xalanc_1_10::XPathExecutionContext"** %executionContext.addr, align 8, !dbg !3750
  %call2 = invoke dereferenceable(40) %"class.xalanc_1_10::XalanDOMString"* @_ZNK11xalanc_1_1021XPathExecutionContext25GetAndReleaseCachedString3getEv(%"class.xalanc_1_10::XPathExecutionContext::GetAndReleaseCachedString"* %theGuard)
          to label %invoke.cont unwind label %lpad, !dbg !3751

invoke.cont:                                      ; preds = %if.then
  %4 = bitcast %"class.xalanc_1_10::XalanEXSLTFunctionRandom"* %this1 to %"class.xalanc_1_10::XalanDOMString"* (%"class.xalanc_1_10::XalanEXSLTFunctionRandom"*, %"class.xalanc_1_10::XalanDOMString"*)***, !dbg !3752
  %vtable = load %"class.xalanc_1_10::XalanDOMString"* (%"class.xalanc_1_10::XalanEXSLTFunctionRandom"*, %"class.xalanc_1_10::XalanDOMString"*)**, %"class.xalanc_1_10::XalanDOMString"* (%"class.xalanc_1_10::XalanEXSLTFunctionRandom"*, %"class.xalanc_1_10::XalanDOMString"*)*** %4, align 8, !dbg !3752
  %vfn = getelementptr inbounds %"class.xalanc_1_10::XalanDOMString"* (%"class.xalanc_1_10::XalanEXSLTFunctionRandom"*, %"class.xalanc_1_10::XalanDOMString"*)*, %"class.xalanc_1_10::XalanDOMString"* (%"class.xalanc_1_10::XalanEXSLTFunctionRandom"*, %"class.xalanc_1_10::XalanDOMString"*)** %vtable, i64 8, !dbg !3752
  %5 = load %"class.xalanc_1_10::XalanDOMString"* (%"class.xalanc_1_10::XalanEXSLTFunctionRandom"*, %"class.xalanc_1_10::XalanDOMString"*)*, %"class.xalanc_1_10::XalanDOMString"* (%"class.xalanc_1_10::XalanEXSLTFunctionRandom"*, %"class.xalanc_1_10::XalanDOMString"*)** %vfn, align 8, !dbg !3752
  %call4 = invoke dereferenceable(40) %"class.xalanc_1_10::XalanDOMString"* %5(%"class.xalanc_1_10::XalanEXSLTFunctionRandom"* %this1, %"class.xalanc_1_10::XalanDOMString"* dereferenceable(40) %call2)
          to label %invoke.cont3 unwind label %lpad, !dbg !3752

invoke.cont3:                                     ; preds = %invoke.cont
  %6 = load %"class.xalanc_1_10::XalanNode"*, %"class.xalanc_1_10::XalanNode"** %context.addr, align 8, !dbg !3753
  %7 = load %"class.xercesc_2_7::Locator"*, %"class.xercesc_2_7::Locator"** %locator.addr, align 8, !dbg !3754
  %8 = bitcast %"class.xalanc_1_10::XPathExecutionContext"* %3 to void (%"class.xalanc_1_10::XPathExecutionContext"*, %"class.xalanc_1_10::XalanDOMString"*, %"class.xalanc_1_10::XalanNode"*, %"class.xercesc_2_7::Locator"*)***, !dbg !3755
  %vtable5 = load void (%"class.xalanc_1_10::XPathExecutionContext"*, %"class.xalanc_1_10::XalanDOMString"*, %"class.xalanc_1_10::XalanNode"*, %"class.xercesc_2_7::Locator"*)**, void (%"class.xalanc_1_10::XPathExecutionContext"*, %"class.xalanc_1_10::XalanDOMString"*, %"class.xalanc_1_10::XalanNode"*, %"class.xercesc_2_7::Locator"*)*** %8, align 8, !dbg !3755
  %vfn6 = getelementptr inbounds void (%"class.xalanc_1_10::XPathExecutionContext"*, %"class.xalanc_1_10::XalanDOMString"*, %"class.xalanc_1_10::XalanNode"*, %"class.xercesc_2_7::Locator"*)*, void (%"class.xalanc_1_10::XPathExecutionContext"*, %"class.xalanc_1_10::XalanDOMString"*, %"class.xalanc_1_10::XalanNode"*, %"class.xercesc_2_7::Locator"*)** %vtable5, i64 2, !dbg !3755
  %9 = load void (%"class.xalanc_1_10::XPathExecutionContext"*, %"class.xalanc_1_10::XalanDOMString"*, %"class.xalanc_1_10::XalanNode"*, %"class.xercesc_2_7::Locator"*)*, void (%"class.xalanc_1_10::XPathExecutionContext"*, %"class.xalanc_1_10::XalanDOMString"*, %"class.xalanc_1_10::XalanNode"*, %"class.xercesc_2_7::Locator"*)** %vfn6, align 8, !dbg !3755
  invoke void %9(%"class.xalanc_1_10::XPathExecutionContext"* %3, %"class.xalanc_1_10::XalanDOMString"* dereferenceable(40) %call4, %"class.xalanc_1_10::XalanNode"* %6, %"class.xercesc_2_7::Locator"* %7)
          to label %invoke.cont7 unwind label %lpad, !dbg !3755

invoke.cont7:                                     ; preds = %invoke.cont3
  call void @_ZN11xalanc_1_1021XPathExecutionContext25GetAndReleaseCachedStringD2Ev(%"class.xalanc_1_10::XPathExecutionContext::GetAndReleaseCachedString"* %theGuard) #5, !dbg !3756
  br label %if.end, !dbg !3757

lpad:                                             ; preds = %invoke.cont3, %invoke.cont, %if.then
  %10 = landingpad { i8*, i32 }
          cleanup, !dbg !3758
  %11 = extractvalue { i8*, i32 } %10, 0, !dbg !3758
  store i8* %11, i8** %exn.slot, align 8, !dbg !3758
  %12 = extractvalue { i8*, i32 } %10, 1, !dbg !3758
  store i32 %12, i32* %ehselector.slot, align 4, !dbg !3758
  call void @_ZN11xalanc_1_1021XPathExecutionContext25GetAndReleaseCachedStringD2Ev(%"class.xalanc_1_10::XPathExecutionContext::GetAndReleaseCachedString"* %theGuard) #5, !dbg !3756
  br label %eh.resume, !dbg !3756

if.end:                                           ; preds = %invoke.cont7, %entry
  call void @llvm.dbg.declare(metadata i32* %value, metadata !3759, metadata !DIExpression()), !dbg !3761
  %call8 = call i32 @rand() #5, !dbg !3762
  store i32 %call8, i32* %value, align 4, !dbg !3761
  call void @llvm.dbg.declare(metadata double* %result, metadata !3763, metadata !DIExpression()), !dbg !3764
  store double 0.000000e+00, double* %result, align 8, !dbg !3764
  %13 = load i32, i32* %value, align 4, !dbg !3765
  %cmp9 = icmp ne i32 %13, 0, !dbg !3767
  br i1 %cmp9, label %if.then10, label %if.end12, !dbg !3768

if.then10:                                        ; preds = %if.end
  %14 = load i32, i32* %value, align 4, !dbg !3769
  %conv11 = sitofp i32 %14 to double, !dbg !3769
  %div = fdiv double %conv11, 0x41DFFFFFFFC00000, !dbg !3771
  store double %div, double* %result, align 8, !dbg !3772
  br label %if.end12, !dbg !3773

if.end12:                                         ; preds = %if.then10, %if.end
  %15 = load %"class.xalanc_1_10::XPathExecutionContext"*, %"class.xalanc_1_10::XPathExecutionContext"** %executionContext.addr, align 8, !dbg !3774
  %call13 = call dereferenceable(16) %"class.xalanc_1_10::XObjectFactory"* @_ZNK11xalanc_1_1021XPathExecutionContext17getXObjectFactoryEv(%"class.xalanc_1_10::XPathExecutionContext"* %15), !dbg !3775
  %16 = load double, double* %result, align 8, !dbg !3776
  %17 = bitcast %"class.xalanc_1_10::XObjectFactory"* %call13 to void (%"class.xalanc_1_10::XObjectPtr"*, %"class.xalanc_1_10::XObjectFactory"*, double)***, !dbg !3777
  %vtable14 = load void (%"class.xalanc_1_10::XObjectPtr"*, %"class.xalanc_1_10::XObjectFactory"*, double)**, void (%"class.xalanc_1_10::XObjectPtr"*, %"class.xalanc_1_10::XObjectFactory"*, double)*** %17, align 8, !dbg !3777
  %vfn15 = getelementptr inbounds void (%"class.xalanc_1_10::XObjectPtr"*, %"class.xalanc_1_10::XObjectFactory"*, double)*, void (%"class.xalanc_1_10::XObjectPtr"*, %"class.xalanc_1_10::XObjectFactory"*, double)** %vtable14, i64 7, !dbg !3777
  %18 = load void (%"class.xalanc_1_10::XObjectPtr"*, %"class.xalanc_1_10::XObjectFactory"*, double)*, void (%"class.xalanc_1_10::XObjectPtr"*, %"class.xalanc_1_10::XObjectFactory"*, double)** %vfn15, align 8, !dbg !3777
  call void %18(%"class.xalanc_1_10::XObjectPtr"* sret %agg.result, %"class.xalanc_1_10::XObjectFactory"* %call13, double %16), !dbg !3777
  ret void, !dbg !3778

eh.resume:                                        ; preds = %lpad
  %exn = load i8*, i8** %exn.slot, align 8, !dbg !3756
  %sel = load i32, i32* %ehselector.slot, align 4, !dbg !3756
  %lpad.val = insertvalue { i8*, i32 } undef, i8* %exn, 0, !dbg !3756
  %lpad.val16 = insertvalue { i8*, i32 } %lpad.val, i32 %sel, 1, !dbg !3756
  resume { i8*, i32 } %lpad.val16, !dbg !3756
}

; Function Attrs: noinline nounwind uwtable
define linkonce_odr dso_local zeroext i1 @_ZNK11xalanc_1_1011XalanVectorINS_10XObjectPtrENS_31MemoryManagedConstructionTraitsIS1_EEE5emptyEv(%"class.xalanc_1_10::XalanVector"* %this) #2 comdat align 2 !dbg !3779 {
entry:
  %this.addr = alloca %"class.xalanc_1_10::XalanVector"*, align 8
  store %"class.xalanc_1_10::XalanVector"* %this, %"class.xalanc_1_10::XalanVector"** %this.addr, align 8
  call void @llvm.dbg.declare(metadata %"class.xalanc_1_10::XalanVector"** %this.addr, metadata !3780, metadata !DIExpression()), !dbg !3781
  %this1 = load %"class.xalanc_1_10::XalanVector"*, %"class.xalanc_1_10::XalanVector"** %this.addr, align 8
  call void @_ZNK11xalanc_1_1011XalanVectorINS_10XObjectPtrENS_31MemoryManagedConstructionTraitsIS1_EEE10invariantsEv(%"class.xalanc_1_10::XalanVector"* %this1), !dbg !3782
  %m_size = getelementptr inbounds %"class.xalanc_1_10::XalanVector", %"class.xalanc_1_10::XalanVector"* %this1, i32 0, i32 1, !dbg !3783
  %0 = load i64, i64* %m_size, align 8, !dbg !3783
  %cmp = icmp eq i64 %0, 0, !dbg !3784
  %1 = zext i1 %cmp to i64, !dbg !3783
  %cond = select i1 %cmp, i1 true, i1 false, !dbg !3783
  ret i1 %cond, !dbg !3785
}

; Function Attrs: nounwind
declare dso_local i32 @rand() #4

; Function Attrs: noinline uwtable
define dso_local dereferenceable(40) %"class.xalanc_1_10::XalanDOMString"* @_ZNK11xalanc_1_1024XalanEXSLTFunctionRandom8getErrorERNS_14XalanDOMStringE(%"class.xalanc_1_10::XalanEXSLTFunctionRandom"* %this, %"class.xalanc_1_10::XalanDOMString"* dereferenceable(40) %theBuffer) unnamed_addr #0 align 2 !dbg !3786 {
entry:
  %this.addr = alloca %"class.xalanc_1_10::XalanEXSLTFunctionRandom"*, align 8
  %theBuffer.addr = alloca %"class.xalanc_1_10::XalanDOMString"*, align 8
  store %"class.xalanc_1_10::XalanEXSLTFunctionRandom"* %this, %"class.xalanc_1_10::XalanEXSLTFunctionRandom"** %this.addr, align 8
  call void @llvm.dbg.declare(metadata %"class.xalanc_1_10::XalanEXSLTFunctionRandom"** %this.addr, metadata !3787, metadata !DIExpression()), !dbg !3788
  store %"class.xalanc_1_10::XalanDOMString"* %theBuffer, %"class.xalanc_1_10::XalanDOMString"** %theBuffer.addr, align 8
  call void @llvm.dbg.declare(metadata %"class.xalanc_1_10::XalanDOMString"** %theBuffer.addr, metadata !3789, metadata !DIExpression()), !dbg !3790
  %this1 = load %"class.xalanc_1_10::XalanEXSLTFunctionRandom"*, %"class.xalanc_1_10::XalanEXSLTFunctionRandom"** %this.addr, align 8
  %0 = load %"class.xalanc_1_10::XalanDOMString"*, %"class.xalanc_1_10::XalanDOMString"** %theBuffer.addr, align 8, !dbg !3791
  %call = call dereferenceable(40) %"class.xalanc_1_10::XalanDOMString"* @_ZN11xalanc_1_1018XalanMessageLoader10getMessageERNS_14XalanDOMStringENS_13XalanMessages5CodesEPKtS6_S6_S6_(%"class.xalanc_1_10::XalanDOMString"* dereferenceable(40) %0, i32 146, i16* getelementptr inbounds ([7 x i16], [7 x i16]* @_ZN11xalanc_1_10L20s_randomFunctionNameE, i64 0, i64 0), i16* null, i16* null, i16* null), !dbg !3792
  ret %"class.xalanc_1_10::XalanDOMString"* %call, !dbg !3793
}

; Function Attrs: noinline uwtable
define dso_local void @_ZNK11xalanc_1_1022XalanEXSLTFunctionAcos7executeERNS_21XPathExecutionContextEPNS_9XalanNodeERKNS_11XalanVectorINS_10XObjectPtrENS_31MemoryManagedConstructionTraitsIS6_EEEEPKN11xercesc_2_77LocatorE(%"class.xalanc_1_10::XObjectPtr"* noalias sret %agg.result, %"class.xalanc_1_10::XalanEXSLTFunctionAcos"* %this, %"class.xalanc_1_10::XPathExecutionContext"* dereferenceable(24) %executionContext, %"class.xalanc_1_10::XalanNode"* %context, %"class.xalanc_1_10::XalanVector"* dereferenceable(32) %args, %"class.xercesc_2_7::Locator"* %locator) unnamed_addr #0 align 2 personality i8* bitcast (i32 (...)* @__gxx_personality_v0 to i8*) !dbg !3794 {
entry:
  %result.ptr = alloca i8*, align 8
  %this.addr = alloca %"class.xalanc_1_10::XalanEXSLTFunctionAcos"*, align 8
  %executionContext.addr = alloca %"class.xalanc_1_10::XPathExecutionContext"*, align 8
  %context.addr = alloca %"class.xalanc_1_10::XalanNode"*, align 8
  %args.addr = alloca %"class.xalanc_1_10::XalanVector"*, align 8
  %locator.addr = alloca %"class.xercesc_2_7::Locator"*, align 8
  %theGuard = alloca %"class.xalanc_1_10::XPathExecutionContext::GetAndReleaseCachedString", align 8
  %exn.slot = alloca i8*
  %ehselector.slot = alloca i32
  %0 = bitcast %"class.xalanc_1_10::XObjectPtr"* %agg.result to i8*
  store i8* %0, i8** %result.ptr, align 8
  store %"class.xalanc_1_10::XalanEXSLTFunctionAcos"* %this, %"class.xalanc_1_10::XalanEXSLTFunctionAcos"** %this.addr, align 8
  call void @llvm.dbg.declare(metadata %"class.xalanc_1_10::XalanEXSLTFunctionAcos"** %this.addr, metadata !3795, metadata !DIExpression()), !dbg !3797
  store %"class.xalanc_1_10::XPathExecutionContext"* %executionContext, %"class.xalanc_1_10::XPathExecutionContext"** %executionContext.addr, align 8
  call void @llvm.dbg.declare(metadata %"class.xalanc_1_10::XPathExecutionContext"** %executionContext.addr, metadata !3798, metadata !DIExpression()), !dbg !3799
  store %"class.xalanc_1_10::XalanNode"* %context, %"class.xalanc_1_10::XalanNode"** %context.addr, align 8
  call void @llvm.dbg.declare(metadata %"class.xalanc_1_10::XalanNode"** %context.addr, metadata !3800, metadata !DIExpression()), !dbg !3801
  store %"class.xalanc_1_10::XalanVector"* %args, %"class.xalanc_1_10::XalanVector"** %args.addr, align 8
  call void @llvm.dbg.declare(metadata %"class.xalanc_1_10::XalanVector"** %args.addr, metadata !3802, metadata !DIExpression()), !dbg !3803
  store %"class.xercesc_2_7::Locator"* %locator, %"class.xercesc_2_7::Locator"** %locator.addr, align 8
  call void @llvm.dbg.declare(metadata %"class.xercesc_2_7::Locator"** %locator.addr, metadata !3804, metadata !DIExpression()), !dbg !3805
  %this1 = load %"class.xalanc_1_10::XalanEXSLTFunctionAcos"*, %"class.xalanc_1_10::XalanEXSLTFunctionAcos"** %this.addr, align 8
  %1 = load %"class.xalanc_1_10::XalanVector"*, %"class.xalanc_1_10::XalanVector"** %args.addr, align 8, !dbg !3806
  %call = call i64 @_ZNK11xalanc_1_1011XalanVectorINS_10XObjectPtrENS_31MemoryManagedConstructionTraitsIS1_EEE4sizeEv(%"class.xalanc_1_10::XalanVector"* %1), !dbg !3808
  %cmp = icmp ne i64 %call, 1, !dbg !3809
  br i1 %cmp, label %if.then, label %if.end, !dbg !3810

if.then:                                          ; preds = %entry
  call void @llvm.dbg.declare(metadata %"class.xalanc_1_10::XPathExecutionContext::GetAndReleaseCachedString"* %theGuard, metadata !3811, metadata !DIExpression()), !dbg !3813
  %2 = load %"class.xalanc_1_10::XPathExecutionContext"*, %"class.xalanc_1_10::XPathExecutionContext"** %executionContext.addr, align 8, !dbg !3814
  call void @_ZN11xalanc_1_1021XPathExecutionContext25GetAndReleaseCachedStringC2ERS0_(%"class.xalanc_1_10::XPathExecutionContext::GetAndReleaseCachedString"* %theGuard, %"class.xalanc_1_10::XPathExecutionContext"* dereferenceable(24) %2), !dbg !3813
  %3 = load %"class.xalanc_1_10::XPathExecutionContext"*, %"class.xalanc_1_10::XPathExecutionContext"** %executionContext.addr, align 8, !dbg !3815
  %call2 = invoke dereferenceable(40) %"class.xalanc_1_10::XalanDOMString"* @_ZNK11xalanc_1_1021XPathExecutionContext25GetAndReleaseCachedString3getEv(%"class.xalanc_1_10::XPathExecutionContext::GetAndReleaseCachedString"* %theGuard)
          to label %invoke.cont unwind label %lpad, !dbg !3816

invoke.cont:                                      ; preds = %if.then
  %4 = bitcast %"class.xalanc_1_10::XalanEXSLTFunctionAcos"* %this1 to %"class.xalanc_1_10::XalanDOMString"* (%"class.xalanc_1_10::XalanEXSLTFunctionAcos"*, %"class.xalanc_1_10::XalanDOMString"*)***, !dbg !3817
  %vtable = load %"class.xalanc_1_10::XalanDOMString"* (%"class.xalanc_1_10::XalanEXSLTFunctionAcos"*, %"class.xalanc_1_10::XalanDOMString"*)**, %"class.xalanc_1_10::XalanDOMString"* (%"class.xalanc_1_10::XalanEXSLTFunctionAcos"*, %"class.xalanc_1_10::XalanDOMString"*)*** %4, align 8, !dbg !3817
  %vfn = getelementptr inbounds %"class.xalanc_1_10::XalanDOMString"* (%"class.xalanc_1_10::XalanEXSLTFunctionAcos"*, %"class.xalanc_1_10::XalanDOMString"*)*, %"class.xalanc_1_10::XalanDOMString"* (%"class.xalanc_1_10::XalanEXSLTFunctionAcos"*, %"class.xalanc_1_10::XalanDOMString"*)** %vtable, i64 8, !dbg !3817
  %5 = load %"class.xalanc_1_10::XalanDOMString"* (%"class.xalanc_1_10::XalanEXSLTFunctionAcos"*, %"class.xalanc_1_10::XalanDOMString"*)*, %"class.xalanc_1_10::XalanDOMString"* (%"class.xalanc_1_10::XalanEXSLTFunctionAcos"*, %"class.xalanc_1_10::XalanDOMString"*)** %vfn, align 8, !dbg !3817
  %call4 = invoke dereferenceable(40) %"class.xalanc_1_10::XalanDOMString"* %5(%"class.xalanc_1_10::XalanEXSLTFunctionAcos"* %this1, %"class.xalanc_1_10::XalanDOMString"* dereferenceable(40) %call2)
          to label %invoke.cont3 unwind label %lpad, !dbg !3817

invoke.cont3:                                     ; preds = %invoke.cont
  %6 = load %"class.xalanc_1_10::XalanNode"*, %"class.xalanc_1_10::XalanNode"** %context.addr, align 8, !dbg !3818
  %7 = load %"class.xercesc_2_7::Locator"*, %"class.xercesc_2_7::Locator"** %locator.addr, align 8, !dbg !3819
  %8 = bitcast %"class.xalanc_1_10::XPathExecutionContext"* %3 to void (%"class.xalanc_1_10::XPathExecutionContext"*, %"class.xalanc_1_10::XalanDOMString"*, %"class.xalanc_1_10::XalanNode"*, %"class.xercesc_2_7::Locator"*)***, !dbg !3820
  %vtable5 = load void (%"class.xalanc_1_10::XPathExecutionContext"*, %"class.xalanc_1_10::XalanDOMString"*, %"class.xalanc_1_10::XalanNode"*, %"class.xercesc_2_7::Locator"*)**, void (%"class.xalanc_1_10::XPathExecutionContext"*, %"class.xalanc_1_10::XalanDOMString"*, %"class.xalanc_1_10::XalanNode"*, %"class.xercesc_2_7::Locator"*)*** %8, align 8, !dbg !3820
  %vfn6 = getelementptr inbounds void (%"class.xalanc_1_10::XPathExecutionContext"*, %"class.xalanc_1_10::XalanDOMString"*, %"class.xalanc_1_10::XalanNode"*, %"class.xercesc_2_7::Locator"*)*, void (%"class.xalanc_1_10::XPathExecutionContext"*, %"class.xalanc_1_10::XalanDOMString"*, %"class.xalanc_1_10::XalanNode"*, %"class.xercesc_2_7::Locator"*)** %vtable5, i64 2, !dbg !3820
  %9 = load void (%"class.xalanc_1_10::XPathExecutionContext"*, %"class.xalanc_1_10::XalanDOMString"*, %"class.xalanc_1_10::XalanNode"*, %"class.xercesc_2_7::Locator"*)*, void (%"class.xalanc_1_10::XPathExecutionContext"*, %"class.xalanc_1_10::XalanDOMString"*, %"class.xalanc_1_10::XalanNode"*, %"class.xercesc_2_7::Locator"*)** %vfn6, align 8, !dbg !3820
  invoke void %9(%"class.xalanc_1_10::XPathExecutionContext"* %3, %"class.xalanc_1_10::XalanDOMString"* dereferenceable(40) %call4, %"class.xalanc_1_10::XalanNode"* %6, %"class.xercesc_2_7::Locator"* %7)
          to label %invoke.cont7 unwind label %lpad, !dbg !3820

invoke.cont7:                                     ; preds = %invoke.cont3
  call void @_ZN11xalanc_1_1021XPathExecutionContext25GetAndReleaseCachedStringD2Ev(%"class.xalanc_1_10::XPathExecutionContext::GetAndReleaseCachedString"* %theGuard) #5, !dbg !3821
  br label %if.end, !dbg !3822

lpad:                                             ; preds = %invoke.cont3, %invoke.cont, %if.then
  %10 = landingpad { i8*, i32 }
          cleanup, !dbg !3823
  %11 = extractvalue { i8*, i32 } %10, 0, !dbg !3823
  store i8* %11, i8** %exn.slot, align 8, !dbg !3823
  %12 = extractvalue { i8*, i32 } %10, 1, !dbg !3823
  store i32 %12, i32* %ehselector.slot, align 4, !dbg !3823
  call void @_ZN11xalanc_1_1021XPathExecutionContext25GetAndReleaseCachedStringD2Ev(%"class.xalanc_1_10::XPathExecutionContext::GetAndReleaseCachedString"* %theGuard) #5, !dbg !3821
  br label %eh.resume, !dbg !3821

if.end:                                           ; preds = %invoke.cont7, %entry
  %13 = load %"class.xalanc_1_10::XPathExecutionContext"*, %"class.xalanc_1_10::XPathExecutionContext"** %executionContext.addr, align 8, !dbg !3824
  %call8 = call dereferenceable(16) %"class.xalanc_1_10::XObjectFactory"* @_ZNK11xalanc_1_1021XPathExecutionContext17getXObjectFactoryEv(%"class.xalanc_1_10::XPathExecutionContext"* %13), !dbg !3825
  %14 = load %"class.xalanc_1_10::XalanVector"*, %"class.xalanc_1_10::XalanVector"** %args.addr, align 8, !dbg !3826
  %call9 = call dereferenceable(8) %"class.xalanc_1_10::XObjectPtr"* @_ZNK11xalanc_1_1011XalanVectorINS_10XObjectPtrENS_31MemoryManagedConstructionTraitsIS1_EEEixEm(%"class.xalanc_1_10::XalanVector"* %14, i64 0), !dbg !3826
  %call10 = call %"class.xalanc_1_10::XObject"* @_ZNK11xalanc_1_1010XObjectPtrptEv(%"class.xalanc_1_10::XObjectPtr"* %call9), !dbg !3826
  %15 = bitcast %"class.xalanc_1_10::XObject"* %call10 to double (%"class.xalanc_1_10::XObject"*)***, !dbg !3827
  %vtable11 = load double (%"class.xalanc_1_10::XObject"*)**, double (%"class.xalanc_1_10::XObject"*)*** %15, align 8, !dbg !3827
  %vfn12 = getelementptr inbounds double (%"class.xalanc_1_10::XObject"*)*, double (%"class.xalanc_1_10::XObject"*)** %vtable11, i64 6, !dbg !3827
  %16 = load double (%"class.xalanc_1_10::XObject"*)*, double (%"class.xalanc_1_10::XObject"*)** %vfn12, align 8, !dbg !3827
  %call13 = call double %16(%"class.xalanc_1_10::XObject"* %call10), !dbg !3827
  %call14 = call double @acos(double %call13) #5, !dbg !3828
  %17 = bitcast %"class.xalanc_1_10::XObjectFactory"* %call8 to void (%"class.xalanc_1_10::XObjectPtr"*, %"class.xalanc_1_10::XObjectFactory"*, double)***, !dbg !3829
  %vtable15 = load void (%"class.xalanc_1_10::XObjectPtr"*, %"class.xalanc_1_10::XObjectFactory"*, double)**, void (%"class.xalanc_1_10::XObjectPtr"*, %"class.xalanc_1_10::XObjectFactory"*, double)*** %17, align 8, !dbg !3829
  %vfn16 = getelementptr inbounds void (%"class.xalanc_1_10::XObjectPtr"*, %"class.xalanc_1_10::XObjectFactory"*, double)*, void (%"class.xalanc_1_10::XObjectPtr"*, %"class.xalanc_1_10::XObjectFactory"*, double)** %vtable15, i64 7, !dbg !3829
  %18 = load void (%"class.xalanc_1_10::XObjectPtr"*, %"class.xalanc_1_10::XObjectFactory"*, double)*, void (%"class.xalanc_1_10::XObjectPtr"*, %"class.xalanc_1_10::XObjectFactory"*, double)** %vfn16, align 8, !dbg !3829
  call void %18(%"class.xalanc_1_10::XObjectPtr"* sret %agg.result, %"class.xalanc_1_10::XObjectFactory"* %call8, double %call14), !dbg !3829
  ret void, !dbg !3830

eh.resume:                                        ; preds = %lpad
  %exn = load i8*, i8** %exn.slot, align 8, !dbg !3821
  %sel = load i32, i32* %ehselector.slot, align 4, !dbg !3821
  %lpad.val = insertvalue { i8*, i32 } undef, i8* %exn, 0, !dbg !3821
  %lpad.val17 = insertvalue { i8*, i32 } %lpad.val, i32 %sel, 1, !dbg !3821
  resume { i8*, i32 } %lpad.val17, !dbg !3821
}

; Function Attrs: nounwind
declare dso_local double @acos(double) #4

; Function Attrs: noinline uwtable
define dso_local dereferenceable(40) %"class.xalanc_1_10::XalanDOMString"* @_ZNK11xalanc_1_1022XalanEXSLTFunctionAcos8getErrorERNS_14XalanDOMStringE(%"class.xalanc_1_10::XalanEXSLTFunctionAcos"* %this, %"class.xalanc_1_10::XalanDOMString"* dereferenceable(40) %theBuffer) unnamed_addr #0 align 2 !dbg !3831 {
entry:
  %this.addr = alloca %"class.xalanc_1_10::XalanEXSLTFunctionAcos"*, align 8
  %theBuffer.addr = alloca %"class.xalanc_1_10::XalanDOMString"*, align 8
  store %"class.xalanc_1_10::XalanEXSLTFunctionAcos"* %this, %"class.xalanc_1_10::XalanEXSLTFunctionAcos"** %this.addr, align 8
  call void @llvm.dbg.declare(metadata %"class.xalanc_1_10::XalanEXSLTFunctionAcos"** %this.addr, metadata !3832, metadata !DIExpression()), !dbg !3833
  store %"class.xalanc_1_10::XalanDOMString"* %theBuffer, %"class.xalanc_1_10::XalanDOMString"** %theBuffer.addr, align 8
  call void @llvm.dbg.declare(metadata %"class.xalanc_1_10::XalanDOMString"** %theBuffer.addr, metadata !3834, metadata !DIExpression()), !dbg !3835
  %this1 = load %"class.xalanc_1_10::XalanEXSLTFunctionAcos"*, %"class.xalanc_1_10::XalanEXSLTFunctionAcos"** %this.addr, align 8
  %0 = load %"class.xalanc_1_10::XalanDOMString"*, %"class.xalanc_1_10::XalanDOMString"** %theBuffer.addr, align 8, !dbg !3836
  %call = call dereferenceable(40) %"class.xalanc_1_10::XalanDOMString"* @_ZN11xalanc_1_1018XalanMessageLoader10getMessageERNS_14XalanDOMStringENS_13XalanMessages5CodesEPKtS6_S6_S6_(%"class.xalanc_1_10::XalanDOMString"* dereferenceable(40) %0, i32 145, i16* getelementptr inbounds ([5 x i16], [5 x i16]* @_ZN11xalanc_1_10L18s_acosFunctionNameE, i64 0, i64 0), i16* null, i16* null, i16* null), !dbg !3837
  ret %"class.xalanc_1_10::XalanDOMString"* %call, !dbg !3838
}

; Function Attrs: noinline uwtable
define dso_local void @_ZNK11xalanc_1_1022XalanEXSLTFunctionAsin7executeERNS_21XPathExecutionContextEPNS_9XalanNodeERKNS_11XalanVectorINS_10XObjectPtrENS_31MemoryManagedConstructionTraitsIS6_EEEEPKN11xercesc_2_77LocatorE(%"class.xalanc_1_10::XObjectPtr"* noalias sret %agg.result, %"class.xalanc_1_10::XalanEXSLTFunctionAsin"* %this, %"class.xalanc_1_10::XPathExecutionContext"* dereferenceable(24) %executionContext, %"class.xalanc_1_10::XalanNode"* %context, %"class.xalanc_1_10::XalanVector"* dereferenceable(32) %args, %"class.xercesc_2_7::Locator"* %locator) unnamed_addr #0 align 2 personality i8* bitcast (i32 (...)* @__gxx_personality_v0 to i8*) !dbg !3839 {
entry:
  %result.ptr = alloca i8*, align 8
  %this.addr = alloca %"class.xalanc_1_10::XalanEXSLTFunctionAsin"*, align 8
  %executionContext.addr = alloca %"class.xalanc_1_10::XPathExecutionContext"*, align 8
  %context.addr = alloca %"class.xalanc_1_10::XalanNode"*, align 8
  %args.addr = alloca %"class.xalanc_1_10::XalanVector"*, align 8
  %locator.addr = alloca %"class.xercesc_2_7::Locator"*, align 8
  %theGuard = alloca %"class.xalanc_1_10::XPathExecutionContext::GetAndReleaseCachedString", align 8
  %exn.slot = alloca i8*
  %ehselector.slot = alloca i32
  %0 = bitcast %"class.xalanc_1_10::XObjectPtr"* %agg.result to i8*
  store i8* %0, i8** %result.ptr, align 8
  store %"class.xalanc_1_10::XalanEXSLTFunctionAsin"* %this, %"class.xalanc_1_10::XalanEXSLTFunctionAsin"** %this.addr, align 8
  call void @llvm.dbg.declare(metadata %"class.xalanc_1_10::XalanEXSLTFunctionAsin"** %this.addr, metadata !3840, metadata !DIExpression()), !dbg !3842
  store %"class.xalanc_1_10::XPathExecutionContext"* %executionContext, %"class.xalanc_1_10::XPathExecutionContext"** %executionContext.addr, align 8
  call void @llvm.dbg.declare(metadata %"class.xalanc_1_10::XPathExecutionContext"** %executionContext.addr, metadata !3843, metadata !DIExpression()), !dbg !3844
  store %"class.xalanc_1_10::XalanNode"* %context, %"class.xalanc_1_10::XalanNode"** %context.addr, align 8
  call void @llvm.dbg.declare(metadata %"class.xalanc_1_10::XalanNode"** %context.addr, metadata !3845, metadata !DIExpression()), !dbg !3846
  store %"class.xalanc_1_10::XalanVector"* %args, %"class.xalanc_1_10::XalanVector"** %args.addr, align 8
  call void @llvm.dbg.declare(metadata %"class.xalanc_1_10::XalanVector"** %args.addr, metadata !3847, metadata !DIExpression()), !dbg !3848
  store %"class.xercesc_2_7::Locator"* %locator, %"class.xercesc_2_7::Locator"** %locator.addr, align 8
  call void @llvm.dbg.declare(metadata %"class.xercesc_2_7::Locator"** %locator.addr, metadata !3849, metadata !DIExpression()), !dbg !3850
  %this1 = load %"class.xalanc_1_10::XalanEXSLTFunctionAsin"*, %"class.xalanc_1_10::XalanEXSLTFunctionAsin"** %this.addr, align 8
  %1 = load %"class.xalanc_1_10::XalanVector"*, %"class.xalanc_1_10::XalanVector"** %args.addr, align 8, !dbg !3851
  %call = call i64 @_ZNK11xalanc_1_1011XalanVectorINS_10XObjectPtrENS_31MemoryManagedConstructionTraitsIS1_EEE4sizeEv(%"class.xalanc_1_10::XalanVector"* %1), !dbg !3853
  %cmp = icmp ne i64 %call, 1, !dbg !3854
  br i1 %cmp, label %if.then, label %if.end, !dbg !3855

if.then:                                          ; preds = %entry
  call void @llvm.dbg.declare(metadata %"class.xalanc_1_10::XPathExecutionContext::GetAndReleaseCachedString"* %theGuard, metadata !3856, metadata !DIExpression()), !dbg !3858
  %2 = load %"class.xalanc_1_10::XPathExecutionContext"*, %"class.xalanc_1_10::XPathExecutionContext"** %executionContext.addr, align 8, !dbg !3859
  call void @_ZN11xalanc_1_1021XPathExecutionContext25GetAndReleaseCachedStringC2ERS0_(%"class.xalanc_1_10::XPathExecutionContext::GetAndReleaseCachedString"* %theGuard, %"class.xalanc_1_10::XPathExecutionContext"* dereferenceable(24) %2), !dbg !3858
  %3 = load %"class.xalanc_1_10::XPathExecutionContext"*, %"class.xalanc_1_10::XPathExecutionContext"** %executionContext.addr, align 8, !dbg !3860
  %call2 = invoke dereferenceable(40) %"class.xalanc_1_10::XalanDOMString"* @_ZNK11xalanc_1_1021XPathExecutionContext25GetAndReleaseCachedString3getEv(%"class.xalanc_1_10::XPathExecutionContext::GetAndReleaseCachedString"* %theGuard)
          to label %invoke.cont unwind label %lpad, !dbg !3861

invoke.cont:                                      ; preds = %if.then
  %4 = bitcast %"class.xalanc_1_10::XalanEXSLTFunctionAsin"* %this1 to %"class.xalanc_1_10::XalanDOMString"* (%"class.xalanc_1_10::XalanEXSLTFunctionAsin"*, %"class.xalanc_1_10::XalanDOMString"*)***, !dbg !3862
  %vtable = load %"class.xalanc_1_10::XalanDOMString"* (%"class.xalanc_1_10::XalanEXSLTFunctionAsin"*, %"class.xalanc_1_10::XalanDOMString"*)**, %"class.xalanc_1_10::XalanDOMString"* (%"class.xalanc_1_10::XalanEXSLTFunctionAsin"*, %"class.xalanc_1_10::XalanDOMString"*)*** %4, align 8, !dbg !3862
  %vfn = getelementptr inbounds %"class.xalanc_1_10::XalanDOMString"* (%"class.xalanc_1_10::XalanEXSLTFunctionAsin"*, %"class.xalanc_1_10::XalanDOMString"*)*, %"class.xalanc_1_10::XalanDOMString"* (%"class.xalanc_1_10::XalanEXSLTFunctionAsin"*, %"class.xalanc_1_10::XalanDOMString"*)** %vtable, i64 8, !dbg !3862
  %5 = load %"class.xalanc_1_10::XalanDOMString"* (%"class.xalanc_1_10::XalanEXSLTFunctionAsin"*, %"class.xalanc_1_10::XalanDOMString"*)*, %"class.xalanc_1_10::XalanDOMString"* (%"class.xalanc_1_10::XalanEXSLTFunctionAsin"*, %"class.xalanc_1_10::XalanDOMString"*)** %vfn, align 8, !dbg !3862
  %call4 = invoke dereferenceable(40) %"class.xalanc_1_10::XalanDOMString"* %5(%"class.xalanc_1_10::XalanEXSLTFunctionAsin"* %this1, %"class.xalanc_1_10::XalanDOMString"* dereferenceable(40) %call2)
          to label %invoke.cont3 unwind label %lpad, !dbg !3862

invoke.cont3:                                     ; preds = %invoke.cont
  %6 = load %"class.xalanc_1_10::XalanNode"*, %"class.xalanc_1_10::XalanNode"** %context.addr, align 8, !dbg !3863
  %7 = load %"class.xercesc_2_7::Locator"*, %"class.xercesc_2_7::Locator"** %locator.addr, align 8, !dbg !3864
  %8 = bitcast %"class.xalanc_1_10::XPathExecutionContext"* %3 to void (%"class.xalanc_1_10::XPathExecutionContext"*, %"class.xalanc_1_10::XalanDOMString"*, %"class.xalanc_1_10::XalanNode"*, %"class.xercesc_2_7::Locator"*)***, !dbg !3865
  %vtable5 = load void (%"class.xalanc_1_10::XPathExecutionContext"*, %"class.xalanc_1_10::XalanDOMString"*, %"class.xalanc_1_10::XalanNode"*, %"class.xercesc_2_7::Locator"*)**, void (%"class.xalanc_1_10::XPathExecutionContext"*, %"class.xalanc_1_10::XalanDOMString"*, %"class.xalanc_1_10::XalanNode"*, %"class.xercesc_2_7::Locator"*)*** %8, align 8, !dbg !3865
  %vfn6 = getelementptr inbounds void (%"class.xalanc_1_10::XPathExecutionContext"*, %"class.xalanc_1_10::XalanDOMString"*, %"class.xalanc_1_10::XalanNode"*, %"class.xercesc_2_7::Locator"*)*, void (%"class.xalanc_1_10::XPathExecutionContext"*, %"class.xalanc_1_10::XalanDOMString"*, %"class.xalanc_1_10::XalanNode"*, %"class.xercesc_2_7::Locator"*)** %vtable5, i64 2, !dbg !3865
  %9 = load void (%"class.xalanc_1_10::XPathExecutionContext"*, %"class.xalanc_1_10::XalanDOMString"*, %"class.xalanc_1_10::XalanNode"*, %"class.xercesc_2_7::Locator"*)*, void (%"class.xalanc_1_10::XPathExecutionContext"*, %"class.xalanc_1_10::XalanDOMString"*, %"class.xalanc_1_10::XalanNode"*, %"class.xercesc_2_7::Locator"*)** %vfn6, align 8, !dbg !3865
  invoke void %9(%"class.xalanc_1_10::XPathExecutionContext"* %3, %"class.xalanc_1_10::XalanDOMString"* dereferenceable(40) %call4, %"class.xalanc_1_10::XalanNode"* %6, %"class.xercesc_2_7::Locator"* %7)
          to label %invoke.cont7 unwind label %lpad, !dbg !3865

invoke.cont7:                                     ; preds = %invoke.cont3
  call void @_ZN11xalanc_1_1021XPathExecutionContext25GetAndReleaseCachedStringD2Ev(%"class.xalanc_1_10::XPathExecutionContext::GetAndReleaseCachedString"* %theGuard) #5, !dbg !3866
  br label %if.end, !dbg !3867

lpad:                                             ; preds = %invoke.cont3, %invoke.cont, %if.then
  %10 = landingpad { i8*, i32 }
          cleanup, !dbg !3868
  %11 = extractvalue { i8*, i32 } %10, 0, !dbg !3868
  store i8* %11, i8** %exn.slot, align 8, !dbg !3868
  %12 = extractvalue { i8*, i32 } %10, 1, !dbg !3868
  store i32 %12, i32* %ehselector.slot, align 4, !dbg !3868
  call void @_ZN11xalanc_1_1021XPathExecutionContext25GetAndReleaseCachedStringD2Ev(%"class.xalanc_1_10::XPathExecutionContext::GetAndReleaseCachedString"* %theGuard) #5, !dbg !3866
  br label %eh.resume, !dbg !3866

if.end:                                           ; preds = %invoke.cont7, %entry
  %13 = load %"class.xalanc_1_10::XPathExecutionContext"*, %"class.xalanc_1_10::XPathExecutionContext"** %executionContext.addr, align 8, !dbg !3869
  %call8 = call dereferenceable(16) %"class.xalanc_1_10::XObjectFactory"* @_ZNK11xalanc_1_1021XPathExecutionContext17getXObjectFactoryEv(%"class.xalanc_1_10::XPathExecutionContext"* %13), !dbg !3870
  %14 = load %"class.xalanc_1_10::XalanVector"*, %"class.xalanc_1_10::XalanVector"** %args.addr, align 8, !dbg !3871
  %call9 = call dereferenceable(8) %"class.xalanc_1_10::XObjectPtr"* @_ZNK11xalanc_1_1011XalanVectorINS_10XObjectPtrENS_31MemoryManagedConstructionTraitsIS1_EEEixEm(%"class.xalanc_1_10::XalanVector"* %14, i64 0), !dbg !3871
  %call10 = call %"class.xalanc_1_10::XObject"* @_ZNK11xalanc_1_1010XObjectPtrptEv(%"class.xalanc_1_10::XObjectPtr"* %call9), !dbg !3871
  %15 = bitcast %"class.xalanc_1_10::XObject"* %call10 to double (%"class.xalanc_1_10::XObject"*)***, !dbg !3872
  %vtable11 = load double (%"class.xalanc_1_10::XObject"*)**, double (%"class.xalanc_1_10::XObject"*)*** %15, align 8, !dbg !3872
  %vfn12 = getelementptr inbounds double (%"class.xalanc_1_10::XObject"*)*, double (%"class.xalanc_1_10::XObject"*)** %vtable11, i64 6, !dbg !3872
  %16 = load double (%"class.xalanc_1_10::XObject"*)*, double (%"class.xalanc_1_10::XObject"*)** %vfn12, align 8, !dbg !3872
  %call13 = call double %16(%"class.xalanc_1_10::XObject"* %call10), !dbg !3872
  %call14 = call double @asin(double %call13) #5, !dbg !3873
  %17 = bitcast %"class.xalanc_1_10::XObjectFactory"* %call8 to void (%"class.xalanc_1_10::XObjectPtr"*, %"class.xalanc_1_10::XObjectFactory"*, double)***, !dbg !3874
  %vtable15 = load void (%"class.xalanc_1_10::XObjectPtr"*, %"class.xalanc_1_10::XObjectFactory"*, double)**, void (%"class.xalanc_1_10::XObjectPtr"*, %"class.xalanc_1_10::XObjectFactory"*, double)*** %17, align 8, !dbg !3874
  %vfn16 = getelementptr inbounds void (%"class.xalanc_1_10::XObjectPtr"*, %"class.xalanc_1_10::XObjectFactory"*, double)*, void (%"class.xalanc_1_10::XObjectPtr"*, %"class.xalanc_1_10::XObjectFactory"*, double)** %vtable15, i64 7, !dbg !3874
  %18 = load void (%"class.xalanc_1_10::XObjectPtr"*, %"class.xalanc_1_10::XObjectFactory"*, double)*, void (%"class.xalanc_1_10::XObjectPtr"*, %"class.xalanc_1_10::XObjectFactory"*, double)** %vfn16, align 8, !dbg !3874
  call void %18(%"class.xalanc_1_10::XObjectPtr"* sret %agg.result, %"class.xalanc_1_10::XObjectFactory"* %call8, double %call14), !dbg !3874
  ret void, !dbg !3875

eh.resume:                                        ; preds = %lpad
  %exn = load i8*, i8** %exn.slot, align 8, !dbg !3866
  %sel = load i32, i32* %ehselector.slot, align 4, !dbg !3866
  %lpad.val = insertvalue { i8*, i32 } undef, i8* %exn, 0, !dbg !3866
  %lpad.val17 = insertvalue { i8*, i32 } %lpad.val, i32 %sel, 1, !dbg !3866
  resume { i8*, i32 } %lpad.val17, !dbg !3866
}

; Function Attrs: nounwind
declare dso_local double @asin(double) #4

; Function Attrs: noinline uwtable
define dso_local dereferenceable(40) %"class.xalanc_1_10::XalanDOMString"* @_ZNK11xalanc_1_1022XalanEXSLTFunctionAsin8getErrorERNS_14XalanDOMStringE(%"class.xalanc_1_10::XalanEXSLTFunctionAsin"* %this, %"class.xalanc_1_10::XalanDOMString"* dereferenceable(40) %theBuffer) unnamed_addr #0 align 2 !dbg !3876 {
entry:
  %this.addr = alloca %"class.xalanc_1_10::XalanEXSLTFunctionAsin"*, align 8
  %theBuffer.addr = alloca %"class.xalanc_1_10::XalanDOMString"*, align 8
  store %"class.xalanc_1_10::XalanEXSLTFunctionAsin"* %this, %"class.xalanc_1_10::XalanEXSLTFunctionAsin"** %this.addr, align 8
  call void @llvm.dbg.declare(metadata %"class.xalanc_1_10::XalanEXSLTFunctionAsin"** %this.addr, metadata !3877, metadata !DIExpression()), !dbg !3878
  store %"class.xalanc_1_10::XalanDOMString"* %theBuffer, %"class.xalanc_1_10::XalanDOMString"** %theBuffer.addr, align 8
  call void @llvm.dbg.declare(metadata %"class.xalanc_1_10::XalanDOMString"** %theBuffer.addr, metadata !3879, metadata !DIExpression()), !dbg !3880
  %this1 = load %"class.xalanc_1_10::XalanEXSLTFunctionAsin"*, %"class.xalanc_1_10::XalanEXSLTFunctionAsin"** %this.addr, align 8
  %0 = load %"class.xalanc_1_10::XalanDOMString"*, %"class.xalanc_1_10::XalanDOMString"** %theBuffer.addr, align 8, !dbg !3881
  %call = call dereferenceable(40) %"class.xalanc_1_10::XalanDOMString"* @_ZN11xalanc_1_1018XalanMessageLoader10getMessageERNS_14XalanDOMStringENS_13XalanMessages5CodesEPKtS6_S6_S6_(%"class.xalanc_1_10::XalanDOMString"* dereferenceable(40) %0, i32 145, i16* getelementptr inbounds ([5 x i16], [5 x i16]* @_ZN11xalanc_1_10L18s_asinFunctionNameE, i64 0, i64 0), i16* null, i16* null, i16* null), !dbg !3882
  ret %"class.xalanc_1_10::XalanDOMString"* %call, !dbg !3883
}

; Function Attrs: noinline uwtable
define dso_local void @_ZNK11xalanc_1_1022XalanEXSLTFunctionAtan7executeERNS_21XPathExecutionContextEPNS_9XalanNodeERKNS_11XalanVectorINS_10XObjectPtrENS_31MemoryManagedConstructionTraitsIS6_EEEEPKN11xercesc_2_77LocatorE(%"class.xalanc_1_10::XObjectPtr"* noalias sret %agg.result, %"class.xalanc_1_10::XalanEXSLTFunctionAtan"* %this, %"class.xalanc_1_10::XPathExecutionContext"* dereferenceable(24) %executionContext, %"class.xalanc_1_10::XalanNode"* %context, %"class.xalanc_1_10::XalanVector"* dereferenceable(32) %args, %"class.xercesc_2_7::Locator"* %locator) unnamed_addr #0 align 2 personality i8* bitcast (i32 (...)* @__gxx_personality_v0 to i8*) !dbg !3884 {
entry:
  %result.ptr = alloca i8*, align 8
  %this.addr = alloca %"class.xalanc_1_10::XalanEXSLTFunctionAtan"*, align 8
  %executionContext.addr = alloca %"class.xalanc_1_10::XPathExecutionContext"*, align 8
  %context.addr = alloca %"class.xalanc_1_10::XalanNode"*, align 8
  %args.addr = alloca %"class.xalanc_1_10::XalanVector"*, align 8
  %locator.addr = alloca %"class.xercesc_2_7::Locator"*, align 8
  %theGuard = alloca %"class.xalanc_1_10::XPathExecutionContext::GetAndReleaseCachedString", align 8
  %exn.slot = alloca i8*
  %ehselector.slot = alloca i32
  %0 = bitcast %"class.xalanc_1_10::XObjectPtr"* %agg.result to i8*
  store i8* %0, i8** %result.ptr, align 8
  store %"class.xalanc_1_10::XalanEXSLTFunctionAtan"* %this, %"class.xalanc_1_10::XalanEXSLTFunctionAtan"** %this.addr, align 8
  call void @llvm.dbg.declare(metadata %"class.xalanc_1_10::XalanEXSLTFunctionAtan"** %this.addr, metadata !3885, metadata !DIExpression()), !dbg !3887
  store %"class.xalanc_1_10::XPathExecutionContext"* %executionContext, %"class.xalanc_1_10::XPathExecutionContext"** %executionContext.addr, align 8
  call void @llvm.dbg.declare(metadata %"class.xalanc_1_10::XPathExecutionContext"** %executionContext.addr, metadata !3888, metadata !DIExpression()), !dbg !3889
  store %"class.xalanc_1_10::XalanNode"* %context, %"class.xalanc_1_10::XalanNode"** %context.addr, align 8
  call void @llvm.dbg.declare(metadata %"class.xalanc_1_10::XalanNode"** %context.addr, metadata !3890, metadata !DIExpression()), !dbg !3891
  store %"class.xalanc_1_10::XalanVector"* %args, %"class.xalanc_1_10::XalanVector"** %args.addr, align 8
  call void @llvm.dbg.declare(metadata %"class.xalanc_1_10::XalanVector"** %args.addr, metadata !3892, metadata !DIExpression()), !dbg !3893
  store %"class.xercesc_2_7::Locator"* %locator, %"class.xercesc_2_7::Locator"** %locator.addr, align 8
  call void @llvm.dbg.declare(metadata %"class.xercesc_2_7::Locator"** %locator.addr, metadata !3894, metadata !DIExpression()), !dbg !3895
  %this1 = load %"class.xalanc_1_10::XalanEXSLTFunctionAtan"*, %"class.xalanc_1_10::XalanEXSLTFunctionAtan"** %this.addr, align 8
  %1 = load %"class.xalanc_1_10::XalanVector"*, %"class.xalanc_1_10::XalanVector"** %args.addr, align 8, !dbg !3896
  %call = call i64 @_ZNK11xalanc_1_1011XalanVectorINS_10XObjectPtrENS_31MemoryManagedConstructionTraitsIS1_EEE4sizeEv(%"class.xalanc_1_10::XalanVector"* %1), !dbg !3898
  %cmp = icmp ne i64 %call, 1, !dbg !3899
  br i1 %cmp, label %if.then, label %if.end, !dbg !3900

if.then:                                          ; preds = %entry
  call void @llvm.dbg.declare(metadata %"class.xalanc_1_10::XPathExecutionContext::GetAndReleaseCachedString"* %theGuard, metadata !3901, metadata !DIExpression()), !dbg !3903
  %2 = load %"class.xalanc_1_10::XPathExecutionContext"*, %"class.xalanc_1_10::XPathExecutionContext"** %executionContext.addr, align 8, !dbg !3904
  call void @_ZN11xalanc_1_1021XPathExecutionContext25GetAndReleaseCachedStringC2ERS0_(%"class.xalanc_1_10::XPathExecutionContext::GetAndReleaseCachedString"* %theGuard, %"class.xalanc_1_10::XPathExecutionContext"* dereferenceable(24) %2), !dbg !3903
  %3 = load %"class.xalanc_1_10::XPathExecutionContext"*, %"class.xalanc_1_10::XPathExecutionContext"** %executionContext.addr, align 8, !dbg !3905
  %call2 = invoke dereferenceable(40) %"class.xalanc_1_10::XalanDOMString"* @_ZNK11xalanc_1_1021XPathExecutionContext25GetAndReleaseCachedString3getEv(%"class.xalanc_1_10::XPathExecutionContext::GetAndReleaseCachedString"* %theGuard)
          to label %invoke.cont unwind label %lpad, !dbg !3906

invoke.cont:                                      ; preds = %if.then
  %4 = bitcast %"class.xalanc_1_10::XalanEXSLTFunctionAtan"* %this1 to %"class.xalanc_1_10::XalanDOMString"* (%"class.xalanc_1_10::XalanEXSLTFunctionAtan"*, %"class.xalanc_1_10::XalanDOMString"*)***, !dbg !3907
  %vtable = load %"class.xalanc_1_10::XalanDOMString"* (%"class.xalanc_1_10::XalanEXSLTFunctionAtan"*, %"class.xalanc_1_10::XalanDOMString"*)**, %"class.xalanc_1_10::XalanDOMString"* (%"class.xalanc_1_10::XalanEXSLTFunctionAtan"*, %"class.xalanc_1_10::XalanDOMString"*)*** %4, align 8, !dbg !3907
  %vfn = getelementptr inbounds %"class.xalanc_1_10::XalanDOMString"* (%"class.xalanc_1_10::XalanEXSLTFunctionAtan"*, %"class.xalanc_1_10::XalanDOMString"*)*, %"class.xalanc_1_10::XalanDOMString"* (%"class.xalanc_1_10::XalanEXSLTFunctionAtan"*, %"class.xalanc_1_10::XalanDOMString"*)** %vtable, i64 8, !dbg !3907
  %5 = load %"class.xalanc_1_10::XalanDOMString"* (%"class.xalanc_1_10::XalanEXSLTFunctionAtan"*, %"class.xalanc_1_10::XalanDOMString"*)*, %"class.xalanc_1_10::XalanDOMString"* (%"class.xalanc_1_10::XalanEXSLTFunctionAtan"*, %"class.xalanc_1_10::XalanDOMString"*)** %vfn, align 8, !dbg !3907
  %call4 = invoke dereferenceable(40) %"class.xalanc_1_10::XalanDOMString"* %5(%"class.xalanc_1_10::XalanEXSLTFunctionAtan"* %this1, %"class.xalanc_1_10::XalanDOMString"* dereferenceable(40) %call2)
          to label %invoke.cont3 unwind label %lpad, !dbg !3907

invoke.cont3:                                     ; preds = %invoke.cont
  %6 = load %"class.xalanc_1_10::XalanNode"*, %"class.xalanc_1_10::XalanNode"** %context.addr, align 8, !dbg !3908
  %7 = load %"class.xercesc_2_7::Locator"*, %"class.xercesc_2_7::Locator"** %locator.addr, align 8, !dbg !3909
  %8 = bitcast %"class.xalanc_1_10::XPathExecutionContext"* %3 to void (%"class.xalanc_1_10::XPathExecutionContext"*, %"class.xalanc_1_10::XalanDOMString"*, %"class.xalanc_1_10::XalanNode"*, %"class.xercesc_2_7::Locator"*)***, !dbg !3910
  %vtable5 = load void (%"class.xalanc_1_10::XPathExecutionContext"*, %"class.xalanc_1_10::XalanDOMString"*, %"class.xalanc_1_10::XalanNode"*, %"class.xercesc_2_7::Locator"*)**, void (%"class.xalanc_1_10::XPathExecutionContext"*, %"class.xalanc_1_10::XalanDOMString"*, %"class.xalanc_1_10::XalanNode"*, %"class.xercesc_2_7::Locator"*)*** %8, align 8, !dbg !3910
  %vfn6 = getelementptr inbounds void (%"class.xalanc_1_10::XPathExecutionContext"*, %"class.xalanc_1_10::XalanDOMString"*, %"class.xalanc_1_10::XalanNode"*, %"class.xercesc_2_7::Locator"*)*, void (%"class.xalanc_1_10::XPathExecutionContext"*, %"class.xalanc_1_10::XalanDOMString"*, %"class.xalanc_1_10::XalanNode"*, %"class.xercesc_2_7::Locator"*)** %vtable5, i64 2, !dbg !3910
  %9 = load void (%"class.xalanc_1_10::XPathExecutionContext"*, %"class.xalanc_1_10::XalanDOMString"*, %"class.xalanc_1_10::XalanNode"*, %"class.xercesc_2_7::Locator"*)*, void (%"class.xalanc_1_10::XPathExecutionContext"*, %"class.xalanc_1_10::XalanDOMString"*, %"class.xalanc_1_10::XalanNode"*, %"class.xercesc_2_7::Locator"*)** %vfn6, align 8, !dbg !3910
  invoke void %9(%"class.xalanc_1_10::XPathExecutionContext"* %3, %"class.xalanc_1_10::XalanDOMString"* dereferenceable(40) %call4, %"class.xalanc_1_10::XalanNode"* %6, %"class.xercesc_2_7::Locator"* %7)
          to label %invoke.cont7 unwind label %lpad, !dbg !3910

invoke.cont7:                                     ; preds = %invoke.cont3
  call void @_ZN11xalanc_1_1021XPathExecutionContext25GetAndReleaseCachedStringD2Ev(%"class.xalanc_1_10::XPathExecutionContext::GetAndReleaseCachedString"* %theGuard) #5, !dbg !3911
  br label %if.end, !dbg !3912

lpad:                                             ; preds = %invoke.cont3, %invoke.cont, %if.then
  %10 = landingpad { i8*, i32 }
          cleanup, !dbg !3913
  %11 = extractvalue { i8*, i32 } %10, 0, !dbg !3913
  store i8* %11, i8** %exn.slot, align 8, !dbg !3913
  %12 = extractvalue { i8*, i32 } %10, 1, !dbg !3913
  store i32 %12, i32* %ehselector.slot, align 4, !dbg !3913
  call void @_ZN11xalanc_1_1021XPathExecutionContext25GetAndReleaseCachedStringD2Ev(%"class.xalanc_1_10::XPathExecutionContext::GetAndReleaseCachedString"* %theGuard) #5, !dbg !3911
  br label %eh.resume, !dbg !3911

if.end:                                           ; preds = %invoke.cont7, %entry
  %13 = load %"class.xalanc_1_10::XPathExecutionContext"*, %"class.xalanc_1_10::XPathExecutionContext"** %executionContext.addr, align 8, !dbg !3914
  %call8 = call dereferenceable(16) %"class.xalanc_1_10::XObjectFactory"* @_ZNK11xalanc_1_1021XPathExecutionContext17getXObjectFactoryEv(%"class.xalanc_1_10::XPathExecutionContext"* %13), !dbg !3915
  %14 = load %"class.xalanc_1_10::XalanVector"*, %"class.xalanc_1_10::XalanVector"** %args.addr, align 8, !dbg !3916
  %call9 = call dereferenceable(8) %"class.xalanc_1_10::XObjectPtr"* @_ZNK11xalanc_1_1011XalanVectorINS_10XObjectPtrENS_31MemoryManagedConstructionTraitsIS1_EEEixEm(%"class.xalanc_1_10::XalanVector"* %14, i64 0), !dbg !3916
  %call10 = call %"class.xalanc_1_10::XObject"* @_ZNK11xalanc_1_1010XObjectPtrptEv(%"class.xalanc_1_10::XObjectPtr"* %call9), !dbg !3916
  %15 = bitcast %"class.xalanc_1_10::XObject"* %call10 to double (%"class.xalanc_1_10::XObject"*)***, !dbg !3917
  %vtable11 = load double (%"class.xalanc_1_10::XObject"*)**, double (%"class.xalanc_1_10::XObject"*)*** %15, align 8, !dbg !3917
  %vfn12 = getelementptr inbounds double (%"class.xalanc_1_10::XObject"*)*, double (%"class.xalanc_1_10::XObject"*)** %vtable11, i64 6, !dbg !3917
  %16 = load double (%"class.xalanc_1_10::XObject"*)*, double (%"class.xalanc_1_10::XObject"*)** %vfn12, align 8, !dbg !3917
  %call13 = call double %16(%"class.xalanc_1_10::XObject"* %call10), !dbg !3917
  %call14 = call double @atan(double %call13) #5, !dbg !3918
  %17 = bitcast %"class.xalanc_1_10::XObjectFactory"* %call8 to void (%"class.xalanc_1_10::XObjectPtr"*, %"class.xalanc_1_10::XObjectFactory"*, double)***, !dbg !3919
  %vtable15 = load void (%"class.xalanc_1_10::XObjectPtr"*, %"class.xalanc_1_10::XObjectFactory"*, double)**, void (%"class.xalanc_1_10::XObjectPtr"*, %"class.xalanc_1_10::XObjectFactory"*, double)*** %17, align 8, !dbg !3919
  %vfn16 = getelementptr inbounds void (%"class.xalanc_1_10::XObjectPtr"*, %"class.xalanc_1_10::XObjectFactory"*, double)*, void (%"class.xalanc_1_10::XObjectPtr"*, %"class.xalanc_1_10::XObjectFactory"*, double)** %vtable15, i64 7, !dbg !3919
  %18 = load void (%"class.xalanc_1_10::XObjectPtr"*, %"class.xalanc_1_10::XObjectFactory"*, double)*, void (%"class.xalanc_1_10::XObjectPtr"*, %"class.xalanc_1_10::XObjectFactory"*, double)** %vfn16, align 8, !dbg !3919
  call void %18(%"class.xalanc_1_10::XObjectPtr"* sret %agg.result, %"class.xalanc_1_10::XObjectFactory"* %call8, double %call14), !dbg !3919
  ret void, !dbg !3920

eh.resume:                                        ; preds = %lpad
  %exn = load i8*, i8** %exn.slot, align 8, !dbg !3911
  %sel = load i32, i32* %ehselector.slot, align 4, !dbg !3911
  %lpad.val = insertvalue { i8*, i32 } undef, i8* %exn, 0, !dbg !3911
  %lpad.val17 = insertvalue { i8*, i32 } %lpad.val, i32 %sel, 1, !dbg !3911
  resume { i8*, i32 } %lpad.val17, !dbg !3911
}

; Function Attrs: nounwind
declare dso_local double @atan(double) #4

; Function Attrs: noinline uwtable
define dso_local dereferenceable(40) %"class.xalanc_1_10::XalanDOMString"* @_ZNK11xalanc_1_1022XalanEXSLTFunctionAtan8getErrorERNS_14XalanDOMStringE(%"class.xalanc_1_10::XalanEXSLTFunctionAtan"* %this, %"class.xalanc_1_10::XalanDOMString"* dereferenceable(40) %theBuffer) unnamed_addr #0 align 2 !dbg !3921 {
entry:
  %this.addr = alloca %"class.xalanc_1_10::XalanEXSLTFunctionAtan"*, align 8
  %theBuffer.addr = alloca %"class.xalanc_1_10::XalanDOMString"*, align 8
  store %"class.xalanc_1_10::XalanEXSLTFunctionAtan"* %this, %"class.xalanc_1_10::XalanEXSLTFunctionAtan"** %this.addr, align 8
  call void @llvm.dbg.declare(metadata %"class.xalanc_1_10::XalanEXSLTFunctionAtan"** %this.addr, metadata !3922, metadata !DIExpression()), !dbg !3923
  store %"class.xalanc_1_10::XalanDOMString"* %theBuffer, %"class.xalanc_1_10::XalanDOMString"** %theBuffer.addr, align 8
  call void @llvm.dbg.declare(metadata %"class.xalanc_1_10::XalanDOMString"** %theBuffer.addr, metadata !3924, metadata !DIExpression()), !dbg !3925
  %this1 = load %"class.xalanc_1_10::XalanEXSLTFunctionAtan"*, %"class.xalanc_1_10::XalanEXSLTFunctionAtan"** %this.addr, align 8
  %0 = load %"class.xalanc_1_10::XalanDOMString"*, %"class.xalanc_1_10::XalanDOMString"** %theBuffer.addr, align 8, !dbg !3926
  %call = call dereferenceable(40) %"class.xalanc_1_10::XalanDOMString"* @_ZN11xalanc_1_1018XalanMessageLoader10getMessageERNS_14XalanDOMStringENS_13XalanMessages5CodesEPKtS6_S6_S6_(%"class.xalanc_1_10::XalanDOMString"* dereferenceable(40) %0, i32 145, i16* getelementptr inbounds ([5 x i16], [5 x i16]* @_ZN11xalanc_1_10L18s_atanFunctionNameE, i64 0, i64 0), i16* null, i16* null, i16* null), !dbg !3927
  ret %"class.xalanc_1_10::XalanDOMString"* %call, !dbg !3928
}

; Function Attrs: noinline uwtable
define dso_local void @_ZNK11xalanc_1_1023XalanEXSLTFunctionAtan27executeERNS_21XPathExecutionContextEPNS_9XalanNodeERKNS_11XalanVectorINS_10XObjectPtrENS_31MemoryManagedConstructionTraitsIS6_EEEEPKN11xercesc_2_77LocatorE(%"class.xalanc_1_10::XObjectPtr"* noalias sret %agg.result, %"class.xalanc_1_10::XalanEXSLTFunctionAtan2"* %this, %"class.xalanc_1_10::XPathExecutionContext"* dereferenceable(24) %executionContext, %"class.xalanc_1_10::XalanNode"* %context, %"class.xalanc_1_10::XalanVector"* dereferenceable(32) %args, %"class.xercesc_2_7::Locator"* %locator) unnamed_addr #0 align 2 personality i8* bitcast (i32 (...)* @__gxx_personality_v0 to i8*) !dbg !3929 {
entry:
  %result.ptr = alloca i8*, align 8
  %this.addr = alloca %"class.xalanc_1_10::XalanEXSLTFunctionAtan2"*, align 8
  %executionContext.addr = alloca %"class.xalanc_1_10::XPathExecutionContext"*, align 8
  %context.addr = alloca %"class.xalanc_1_10::XalanNode"*, align 8
  %args.addr = alloca %"class.xalanc_1_10::XalanVector"*, align 8
  %locator.addr = alloca %"class.xercesc_2_7::Locator"*, align 8
  %theGuard = alloca %"class.xalanc_1_10::XPathExecutionContext::GetAndReleaseCachedString", align 8
  %exn.slot = alloca i8*
  %ehselector.slot = alloca i32
  %0 = bitcast %"class.xalanc_1_10::XObjectPtr"* %agg.result to i8*
  store i8* %0, i8** %result.ptr, align 8
  store %"class.xalanc_1_10::XalanEXSLTFunctionAtan2"* %this, %"class.xalanc_1_10::XalanEXSLTFunctionAtan2"** %this.addr, align 8
  call void @llvm.dbg.declare(metadata %"class.xalanc_1_10::XalanEXSLTFunctionAtan2"** %this.addr, metadata !3958, metadata !DIExpression()), !dbg !3960
  store %"class.xalanc_1_10::XPathExecutionContext"* %executionContext, %"class.xalanc_1_10::XPathExecutionContext"** %executionContext.addr, align 8
  call void @llvm.dbg.declare(metadata %"class.xalanc_1_10::XPathExecutionContext"** %executionContext.addr, metadata !3961, metadata !DIExpression()), !dbg !3962
  store %"class.xalanc_1_10::XalanNode"* %context, %"class.xalanc_1_10::XalanNode"** %context.addr, align 8
  call void @llvm.dbg.declare(metadata %"class.xalanc_1_10::XalanNode"** %context.addr, metadata !3963, metadata !DIExpression()), !dbg !3964
  store %"class.xalanc_1_10::XalanVector"* %args, %"class.xalanc_1_10::XalanVector"** %args.addr, align 8
  call void @llvm.dbg.declare(metadata %"class.xalanc_1_10::XalanVector"** %args.addr, metadata !3965, metadata !DIExpression()), !dbg !3966
  store %"class.xercesc_2_7::Locator"* %locator, %"class.xercesc_2_7::Locator"** %locator.addr, align 8
  call void @llvm.dbg.declare(metadata %"class.xercesc_2_7::Locator"** %locator.addr, metadata !3967, metadata !DIExpression()), !dbg !3968
  %this1 = load %"class.xalanc_1_10::XalanEXSLTFunctionAtan2"*, %"class.xalanc_1_10::XalanEXSLTFunctionAtan2"** %this.addr, align 8
  %1 = load %"class.xalanc_1_10::XalanVector"*, %"class.xalanc_1_10::XalanVector"** %args.addr, align 8, !dbg !3969
  %call = call i64 @_ZNK11xalanc_1_1011XalanVectorINS_10XObjectPtrENS_31MemoryManagedConstructionTraitsIS1_EEE4sizeEv(%"class.xalanc_1_10::XalanVector"* %1), !dbg !3971
  %cmp = icmp ne i64 %call, 2, !dbg !3972
  br i1 %cmp, label %if.then, label %if.end, !dbg !3973

if.then:                                          ; preds = %entry
  call void @llvm.dbg.declare(metadata %"class.xalanc_1_10::XPathExecutionContext::GetAndReleaseCachedString"* %theGuard, metadata !3974, metadata !DIExpression()), !dbg !3976
  %2 = load %"class.xalanc_1_10::XPathExecutionContext"*, %"class.xalanc_1_10::XPathExecutionContext"** %executionContext.addr, align 8, !dbg !3977
  call void @_ZN11xalanc_1_1021XPathExecutionContext25GetAndReleaseCachedStringC2ERS0_(%"class.xalanc_1_10::XPathExecutionContext::GetAndReleaseCachedString"* %theGuard, %"class.xalanc_1_10::XPathExecutionContext"* dereferenceable(24) %2), !dbg !3976
  %3 = load %"class.xalanc_1_10::XPathExecutionContext"*, %"class.xalanc_1_10::XPathExecutionContext"** %executionContext.addr, align 8, !dbg !3978
  %call2 = invoke dereferenceable(40) %"class.xalanc_1_10::XalanDOMString"* @_ZNK11xalanc_1_1021XPathExecutionContext25GetAndReleaseCachedString3getEv(%"class.xalanc_1_10::XPathExecutionContext::GetAndReleaseCachedString"* %theGuard)
          to label %invoke.cont unwind label %lpad, !dbg !3979

invoke.cont:                                      ; preds = %if.then
  %4 = bitcast %"class.xalanc_1_10::XalanEXSLTFunctionAtan2"* %this1 to %"class.xalanc_1_10::XalanDOMString"* (%"class.xalanc_1_10::XalanEXSLTFunctionAtan2"*, %"class.xalanc_1_10::XalanDOMString"*)***, !dbg !3980
  %vtable = load %"class.xalanc_1_10::XalanDOMString"* (%"class.xalanc_1_10::XalanEXSLTFunctionAtan2"*, %"class.xalanc_1_10::XalanDOMString"*)**, %"class.xalanc_1_10::XalanDOMString"* (%"class.xalanc_1_10::XalanEXSLTFunctionAtan2"*, %"class.xalanc_1_10::XalanDOMString"*)*** %4, align 8, !dbg !3980
  %vfn = getelementptr inbounds %"class.xalanc_1_10::XalanDOMString"* (%"class.xalanc_1_10::XalanEXSLTFunctionAtan2"*, %"class.xalanc_1_10::XalanDOMString"*)*, %"class.xalanc_1_10::XalanDOMString"* (%"class.xalanc_1_10::XalanEXSLTFunctionAtan2"*, %"class.xalanc_1_10::XalanDOMString"*)** %vtable, i64 8, !dbg !3980
  %5 = load %"class.xalanc_1_10::XalanDOMString"* (%"class.xalanc_1_10::XalanEXSLTFunctionAtan2"*, %"class.xalanc_1_10::XalanDOMString"*)*, %"class.xalanc_1_10::XalanDOMString"* (%"class.xalanc_1_10::XalanEXSLTFunctionAtan2"*, %"class.xalanc_1_10::XalanDOMString"*)** %vfn, align 8, !dbg !3980
  %call4 = invoke dereferenceable(40) %"class.xalanc_1_10::XalanDOMString"* %5(%"class.xalanc_1_10::XalanEXSLTFunctionAtan2"* %this1, %"class.xalanc_1_10::XalanDOMString"* dereferenceable(40) %call2)
          to label %invoke.cont3 unwind label %lpad, !dbg !3980

invoke.cont3:                                     ; preds = %invoke.cont
  %6 = load %"class.xalanc_1_10::XalanNode"*, %"class.xalanc_1_10::XalanNode"** %context.addr, align 8, !dbg !3981
  %7 = load %"class.xercesc_2_7::Locator"*, %"class.xercesc_2_7::Locator"** %locator.addr, align 8, !dbg !3982
  %8 = bitcast %"class.xalanc_1_10::XPathExecutionContext"* %3 to void (%"class.xalanc_1_10::XPathExecutionContext"*, %"class.xalanc_1_10::XalanDOMString"*, %"class.xalanc_1_10::XalanNode"*, %"class.xercesc_2_7::Locator"*)***, !dbg !3983
  %vtable5 = load void (%"class.xalanc_1_10::XPathExecutionContext"*, %"class.xalanc_1_10::XalanDOMString"*, %"class.xalanc_1_10::XalanNode"*, %"class.xercesc_2_7::Locator"*)**, void (%"class.xalanc_1_10::XPathExecutionContext"*, %"class.xalanc_1_10::XalanDOMString"*, %"class.xalanc_1_10::XalanNode"*, %"class.xercesc_2_7::Locator"*)*** %8, align 8, !dbg !3983
  %vfn6 = getelementptr inbounds void (%"class.xalanc_1_10::XPathExecutionContext"*, %"class.xalanc_1_10::XalanDOMString"*, %"class.xalanc_1_10::XalanNode"*, %"class.xercesc_2_7::Locator"*)*, void (%"class.xalanc_1_10::XPathExecutionContext"*, %"class.xalanc_1_10::XalanDOMString"*, %"class.xalanc_1_10::XalanNode"*, %"class.xercesc_2_7::Locator"*)** %vtable5, i64 2, !dbg !3983
  %9 = load void (%"class.xalanc_1_10::XPathExecutionContext"*, %"class.xalanc_1_10::XalanDOMString"*, %"class.xalanc_1_10::XalanNode"*, %"class.xercesc_2_7::Locator"*)*, void (%"class.xalanc_1_10::XPathExecutionContext"*, %"class.xalanc_1_10::XalanDOMString"*, %"class.xalanc_1_10::XalanNode"*, %"class.xercesc_2_7::Locator"*)** %vfn6, align 8, !dbg !3983
  invoke void %9(%"class.xalanc_1_10::XPathExecutionContext"* %3, %"class.xalanc_1_10::XalanDOMString"* dereferenceable(40) %call4, %"class.xalanc_1_10::XalanNode"* %6, %"class.xercesc_2_7::Locator"* %7)
          to label %invoke.cont7 unwind label %lpad, !dbg !3983

invoke.cont7:                                     ; preds = %invoke.cont3
  call void @_ZN11xalanc_1_1021XPathExecutionContext25GetAndReleaseCachedStringD2Ev(%"class.xalanc_1_10::XPathExecutionContext::GetAndReleaseCachedString"* %theGuard) #5, !dbg !3984
  br label %if.end, !dbg !3985

lpad:                                             ; preds = %invoke.cont3, %invoke.cont, %if.then
  %10 = landingpad { i8*, i32 }
          cleanup, !dbg !3986
  %11 = extractvalue { i8*, i32 } %10, 0, !dbg !3986
  store i8* %11, i8** %exn.slot, align 8, !dbg !3986
  %12 = extractvalue { i8*, i32 } %10, 1, !dbg !3986
  store i32 %12, i32* %ehselector.slot, align 4, !dbg !3986
  call void @_ZN11xalanc_1_1021XPathExecutionContext25GetAndReleaseCachedStringD2Ev(%"class.xalanc_1_10::XPathExecutionContext::GetAndReleaseCachedString"* %theGuard) #5, !dbg !3984
  br label %eh.resume, !dbg !3984

if.end:                                           ; preds = %invoke.cont7, %entry
  %13 = load %"class.xalanc_1_10::XPathExecutionContext"*, %"class.xalanc_1_10::XPathExecutionContext"** %executionContext.addr, align 8, !dbg !3987
  %call8 = call dereferenceable(16) %"class.xalanc_1_10::XObjectFactory"* @_ZNK11xalanc_1_1021XPathExecutionContext17getXObjectFactoryEv(%"class.xalanc_1_10::XPathExecutionContext"* %13), !dbg !3988
  %14 = load %"class.xalanc_1_10::XalanVector"*, %"class.xalanc_1_10::XalanVector"** %args.addr, align 8, !dbg !3989
  %call9 = call dereferenceable(8) %"class.xalanc_1_10::XObjectPtr"* @_ZNK11xalanc_1_1011XalanVectorINS_10XObjectPtrENS_31MemoryManagedConstructionTraitsIS1_EEEixEm(%"class.xalanc_1_10::XalanVector"* %14, i64 0), !dbg !3989
  %call10 = call %"class.xalanc_1_10::XObject"* @_ZNK11xalanc_1_1010XObjectPtrptEv(%"class.xalanc_1_10::XObjectPtr"* %call9), !dbg !3989
  %15 = bitcast %"class.xalanc_1_10::XObject"* %call10 to double (%"class.xalanc_1_10::XObject"*)***, !dbg !3990
  %vtable11 = load double (%"class.xalanc_1_10::XObject"*)**, double (%"class.xalanc_1_10::XObject"*)*** %15, align 8, !dbg !3990
  %vfn12 = getelementptr inbounds double (%"class.xalanc_1_10::XObject"*)*, double (%"class.xalanc_1_10::XObject"*)** %vtable11, i64 6, !dbg !3990
  %16 = load double (%"class.xalanc_1_10::XObject"*)*, double (%"class.xalanc_1_10::XObject"*)** %vfn12, align 8, !dbg !3990
  %call13 = call double %16(%"class.xalanc_1_10::XObject"* %call10), !dbg !3990
  %17 = load %"class.xalanc_1_10::XalanVector"*, %"class.xalanc_1_10::XalanVector"** %args.addr, align 8, !dbg !3991
  %call14 = call dereferenceable(8) %"class.xalanc_1_10::XObjectPtr"* @_ZNK11xalanc_1_1011XalanVectorINS_10XObjectPtrENS_31MemoryManagedConstructionTraitsIS1_EEEixEm(%"class.xalanc_1_10::XalanVector"* %17, i64 1), !dbg !3991
  %call15 = call %"class.xalanc_1_10::XObject"* @_ZNK11xalanc_1_1010XObjectPtrptEv(%"class.xalanc_1_10::XObjectPtr"* %call14), !dbg !3991
  %18 = bitcast %"class.xalanc_1_10::XObject"* %call15 to double (%"class.xalanc_1_10::XObject"*)***, !dbg !3992
  %vtable16 = load double (%"class.xalanc_1_10::XObject"*)**, double (%"class.xalanc_1_10::XObject"*)*** %18, align 8, !dbg !3992
  %vfn17 = getelementptr inbounds double (%"class.xalanc_1_10::XObject"*)*, double (%"class.xalanc_1_10::XObject"*)** %vtable16, i64 6, !dbg !3992
  %19 = load double (%"class.xalanc_1_10::XObject"*)*, double (%"class.xalanc_1_10::XObject"*)** %vfn17, align 8, !dbg !3992
  %call18 = call double %19(%"class.xalanc_1_10::XObject"* %call15), !dbg !3992
  %call19 = call double @atan2(double %call13, double %call18) #5, !dbg !3993
  %20 = bitcast %"class.xalanc_1_10::XObjectFactory"* %call8 to void (%"class.xalanc_1_10::XObjectPtr"*, %"class.xalanc_1_10::XObjectFactory"*, double)***, !dbg !3994
  %vtable20 = load void (%"class.xalanc_1_10::XObjectPtr"*, %"class.xalanc_1_10::XObjectFactory"*, double)**, void (%"class.xalanc_1_10::XObjectPtr"*, %"class.xalanc_1_10::XObjectFactory"*, double)*** %20, align 8, !dbg !3994
  %vfn21 = getelementptr inbounds void (%"class.xalanc_1_10::XObjectPtr"*, %"class.xalanc_1_10::XObjectFactory"*, double)*, void (%"class.xalanc_1_10::XObjectPtr"*, %"class.xalanc_1_10::XObjectFactory"*, double)** %vtable20, i64 7, !dbg !3994
  %21 = load void (%"class.xalanc_1_10::XObjectPtr"*, %"class.xalanc_1_10::XObjectFactory"*, double)*, void (%"class.xalanc_1_10::XObjectPtr"*, %"class.xalanc_1_10::XObjectFactory"*, double)** %vfn21, align 8, !dbg !3994
  call void %21(%"class.xalanc_1_10::XObjectPtr"* sret %agg.result, %"class.xalanc_1_10::XObjectFactory"* %call8, double %call19), !dbg !3994
  ret void, !dbg !3995

eh.resume:                                        ; preds = %lpad
  %exn = load i8*, i8** %exn.slot, align 8, !dbg !3984
  %sel = load i32, i32* %ehselector.slot, align 4, !dbg !3984
  %lpad.val = insertvalue { i8*, i32 } undef, i8* %exn, 0, !dbg !3984
  %lpad.val22 = insertvalue { i8*, i32 } %lpad.val, i32 %sel, 1, !dbg !3984
  resume { i8*, i32 } %lpad.val22, !dbg !3984
}

; Function Attrs: nounwind
declare dso_local double @atan2(double, double) #4

; Function Attrs: noinline uwtable
define dso_local dereferenceable(40) %"class.xalanc_1_10::XalanDOMString"* @_ZNK11xalanc_1_1023XalanEXSLTFunctionAtan28getErrorERNS_14XalanDOMStringE(%"class.xalanc_1_10::XalanEXSLTFunctionAtan2"* %this, %"class.xalanc_1_10::XalanDOMString"* dereferenceable(40) %theBuffer) unnamed_addr #0 align 2 !dbg !3996 {
entry:
  %this.addr = alloca %"class.xalanc_1_10::XalanEXSLTFunctionAtan2"*, align 8
  %theBuffer.addr = alloca %"class.xalanc_1_10::XalanDOMString"*, align 8
  store %"class.xalanc_1_10::XalanEXSLTFunctionAtan2"* %this, %"class.xalanc_1_10::XalanEXSLTFunctionAtan2"** %this.addr, align 8
  call void @llvm.dbg.declare(metadata %"class.xalanc_1_10::XalanEXSLTFunctionAtan2"** %this.addr, metadata !3997, metadata !DIExpression()), !dbg !3998
  store %"class.xalanc_1_10::XalanDOMString"* %theBuffer, %"class.xalanc_1_10::XalanDOMString"** %theBuffer.addr, align 8
  call void @llvm.dbg.declare(metadata %"class.xalanc_1_10::XalanDOMString"** %theBuffer.addr, metadata !3999, metadata !DIExpression()), !dbg !4000
  %this1 = load %"class.xalanc_1_10::XalanEXSLTFunctionAtan2"*, %"class.xalanc_1_10::XalanEXSLTFunctionAtan2"** %this.addr, align 8
  %0 = load %"class.xalanc_1_10::XalanDOMString"*, %"class.xalanc_1_10::XalanDOMString"** %theBuffer.addr, align 8, !dbg !4001
  %call = call dereferenceable(40) %"class.xalanc_1_10::XalanDOMString"* @_ZN11xalanc_1_1018XalanMessageLoader10getMessageERNS_14XalanDOMStringENS_13XalanMessages5CodesEPKtS6_S6_S6_(%"class.xalanc_1_10::XalanDOMString"* dereferenceable(40) %0, i32 147, i16* getelementptr inbounds ([6 x i16], [6 x i16]* @_ZN11xalanc_1_10L19s_atan2FunctionNameE, i64 0, i64 0), i16* null, i16* null, i16* null), !dbg !4002
  ret %"class.xalanc_1_10::XalanDOMString"* %call, !dbg !4003
}

; Function Attrs: noinline uwtable
define dso_local void @_ZN11xalanc_1_109doConvertERNS_21XPathExecutionContextEPKdmd(%"class.xalanc_1_10::XObjectPtr"* noalias sret %agg.result, %"class.xalanc_1_10::XPathExecutionContext"* dereferenceable(24) %executionContext, double* %theValues, i64 %theSize, double %thePrecision) #0 !dbg !4004 {
entry:
  %result.ptr = alloca i8*, align 8
  %executionContext.addr = alloca %"class.xalanc_1_10::XPathExecutionContext"*, align 8
  %theValues.addr = alloca double*, align 8
  %theSize.addr = alloca i64, align 8
  %thePrecision.addr = alloca double, align 8
  %0 = bitcast %"class.xalanc_1_10::XObjectPtr"* %agg.result to i8*
  store i8* %0, i8** %result.ptr, align 8
  store %"class.xalanc_1_10::XPathExecutionContext"* %executionContext, %"class.xalanc_1_10::XPathExecutionContext"** %executionContext.addr, align 8
  call void @llvm.dbg.declare(metadata %"class.xalanc_1_10::XPathExecutionContext"** %executionContext.addr, metadata !4008, metadata !DIExpression()), !dbg !4009
  store double* %theValues, double** %theValues.addr, align 8
  call void @llvm.dbg.declare(metadata double** %theValues.addr, metadata !4010, metadata !DIExpression()), !dbg !4011
  store i64 %theSize, i64* %theSize.addr, align 8
  call void @llvm.dbg.declare(metadata i64* %theSize.addr, metadata !4012, metadata !DIExpression()), !dbg !4013
  store double %thePrecision, double* %thePrecision.addr, align 8
  call void @llvm.dbg.declare(metadata double* %thePrecision.addr, metadata !4014, metadata !DIExpression()), !dbg !4015
  %1 = load %"class.xalanc_1_10::XPathExecutionContext"*, %"class.xalanc_1_10::XPathExecutionContext"** %executionContext.addr, align 8, !dbg !4016
  %call = call dereferenceable(16) %"class.xalanc_1_10::XObjectFactory"* @_ZNK11xalanc_1_1021XPathExecutionContext17getXObjectFactoryEv(%"class.xalanc_1_10::XPathExecutionContext"* %1), !dbg !4017
  %2 = load double*, double** %theValues.addr, align 8, !dbg !4018
  %3 = load double, double* %thePrecision.addr, align 8, !dbg !4019
  %4 = load i64, i64* %theSize.addr, align 8, !dbg !4020
  %conv = uitofp i64 %4 to double, !dbg !4020
  %cmp = fcmp ole double %3, %conv, !dbg !4021
  br i1 %cmp, label %cond.true, label %cond.false, !dbg !4019

cond.true:                                        ; preds = %entry
  %5 = load double, double* %thePrecision.addr, align 8, !dbg !4022
  br label %cond.end, !dbg !4019

cond.false:                                       ; preds = %entry
  %6 = load i64, i64* %theSize.addr, align 8, !dbg !4023
  %conv1 = uitofp i64 %6 to double, !dbg !4023
  br label %cond.end, !dbg !4019

cond.end:                                         ; preds = %cond.false, %cond.true
  %cond = phi double [ %5, %cond.true ], [ %conv1, %cond.false ], !dbg !4019
  %conv2 = fptoui double %cond to i32, !dbg !4019
  %idxprom = zext i32 %conv2 to i64, !dbg !4018
  %arrayidx = getelementptr inbounds double, double* %2, i64 %idxprom, !dbg !4018
  %7 = load double, double* %arrayidx, align 8, !dbg !4018
  %8 = bitcast %"class.xalanc_1_10::XObjectFactory"* %call to void (%"class.xalanc_1_10::XObjectPtr"*, %"class.xalanc_1_10::XObjectFactory"*, double)***, !dbg !4024
  %vtable = load void (%"class.xalanc_1_10::XObjectPtr"*, %"class.xalanc_1_10::XObjectFactory"*, double)**, void (%"class.xalanc_1_10::XObjectPtr"*, %"class.xalanc_1_10::XObjectFactory"*, double)*** %8, align 8, !dbg !4024
  %vfn = getelementptr inbounds void (%"class.xalanc_1_10::XObjectPtr"*, %"class.xalanc_1_10::XObjectFactory"*, double)*, void (%"class.xalanc_1_10::XObjectPtr"*, %"class.xalanc_1_10::XObjectFactory"*, double)** %vtable, i64 7, !dbg !4024
  %9 = load void (%"class.xalanc_1_10::XObjectPtr"*, %"class.xalanc_1_10::XObjectFactory"*, double)*, void (%"class.xalanc_1_10::XObjectPtr"*, %"class.xalanc_1_10::XObjectFactory"*, double)** %vfn, align 8, !dbg !4024
  call void %9(%"class.xalanc_1_10::XObjectPtr"* sret %agg.result, %"class.xalanc_1_10::XObjectFactory"* %call, double %7), !dbg !4024
  ret void, !dbg !4025
}

; Function Attrs: noinline uwtable
define dso_local void @_ZNK11xalanc_1_1026XalanEXSLTFunctionConstant7executeERNS_21XPathExecutionContextEPNS_9XalanNodeERKNS_11XalanVectorINS_10XObjectPtrENS_31MemoryManagedConstructionTraitsIS6_EEEEPKN11xercesc_2_77LocatorE(%"class.xalanc_1_10::XObjectPtr"* noalias sret %agg.result, %"class.xalanc_1_10::XalanEXSLTFunctionConstant"* %this, %"class.xalanc_1_10::XPathExecutionContext"* dereferenceable(24) %executionContext, %"class.xalanc_1_10::XalanNode"* %context, %"class.xalanc_1_10::XalanVector"* dereferenceable(32) %args, %"class.xercesc_2_7::Locator"* %locator) unnamed_addr #0 align 2 personality i8* bitcast (i32 (...)* @__gxx_personality_v0 to i8*) !dbg !4026 {
entry:
  %result.ptr = alloca i8*, align 8
  %this.addr = alloca %"class.xalanc_1_10::XalanEXSLTFunctionConstant"*, align 8
  %executionContext.addr = alloca %"class.xalanc_1_10::XPathExecutionContext"*, align 8
  %context.addr = alloca %"class.xalanc_1_10::XalanNode"*, align 8
  %args.addr = alloca %"class.xalanc_1_10::XalanVector"*, align 8
  %locator.addr = alloca %"class.xercesc_2_7::Locator"*, align 8
  %theGuard = alloca %"class.xalanc_1_10::XPathExecutionContext::GetAndReleaseCachedString", align 8
  %exn.slot = alloca i8*
  %ehselector.slot = alloca i32
  %theConstant = alloca %"class.xalanc_1_10::XalanDOMString"*, align 8
  %thePrecision = alloca double, align 8
  %0 = bitcast %"class.xalanc_1_10::XObjectPtr"* %agg.result to i8*
  store i8* %0, i8** %result.ptr, align 8
  store %"class.xalanc_1_10::XalanEXSLTFunctionConstant"* %this, %"class.xalanc_1_10::XalanEXSLTFunctionConstant"** %this.addr, align 8
  call void @llvm.dbg.declare(metadata %"class.xalanc_1_10::XalanEXSLTFunctionConstant"** %this.addr, metadata !4027, metadata !DIExpression()), !dbg !4029
  store %"class.xalanc_1_10::XPathExecutionContext"* %executionContext, %"class.xalanc_1_10::XPathExecutionContext"** %executionContext.addr, align 8
  call void @llvm.dbg.declare(metadata %"class.xalanc_1_10::XPathExecutionContext"** %executionContext.addr, metadata !4030, metadata !DIExpression()), !dbg !4031
  store %"class.xalanc_1_10::XalanNode"* %context, %"class.xalanc_1_10::XalanNode"** %context.addr, align 8
  call void @llvm.dbg.declare(metadata %"class.xalanc_1_10::XalanNode"** %context.addr, metadata !4032, metadata !DIExpression()), !dbg !4033
  store %"class.xalanc_1_10::XalanVector"* %args, %"class.xalanc_1_10::XalanVector"** %args.addr, align 8
  call void @llvm.dbg.declare(metadata %"class.xalanc_1_10::XalanVector"** %args.addr, metadata !4034, metadata !DIExpression()), !dbg !4035
  store %"class.xercesc_2_7::Locator"* %locator, %"class.xercesc_2_7::Locator"** %locator.addr, align 8
  call void @llvm.dbg.declare(metadata %"class.xercesc_2_7::Locator"** %locator.addr, metadata !4036, metadata !DIExpression()), !dbg !4037
  %this1 = load %"class.xalanc_1_10::XalanEXSLTFunctionConstant"*, %"class.xalanc_1_10::XalanEXSLTFunctionConstant"** %this.addr, align 8
  %1 = load %"class.xalanc_1_10::XalanVector"*, %"class.xalanc_1_10::XalanVector"** %args.addr, align 8, !dbg !4038
  %call = call i64 @_ZNK11xalanc_1_1011XalanVectorINS_10XObjectPtrENS_31MemoryManagedConstructionTraitsIS1_EEE4sizeEv(%"class.xalanc_1_10::XalanVector"* %1), !dbg !4040
  %cmp = icmp ne i64 %call, 2, !dbg !4041
  br i1 %cmp, label %if.then, label %if.end, !dbg !4042

if.then:                                          ; preds = %entry
  call void @llvm.dbg.declare(metadata %"class.xalanc_1_10::XPathExecutionContext::GetAndReleaseCachedString"* %theGuard, metadata !4043, metadata !DIExpression()), !dbg !4045
  %2 = load %"class.xalanc_1_10::XPathExecutionContext"*, %"class.xalanc_1_10::XPathExecutionContext"** %executionContext.addr, align 8, !dbg !4046
  call void @_ZN11xalanc_1_1021XPathExecutionContext25GetAndReleaseCachedStringC2ERS0_(%"class.xalanc_1_10::XPathExecutionContext::GetAndReleaseCachedString"* %theGuard, %"class.xalanc_1_10::XPathExecutionContext"* dereferenceable(24) %2), !dbg !4045
  %3 = load %"class.xalanc_1_10::XPathExecutionContext"*, %"class.xalanc_1_10::XPathExecutionContext"** %executionContext.addr, align 8, !dbg !4047
  %call2 = invoke dereferenceable(40) %"class.xalanc_1_10::XalanDOMString"* @_ZNK11xalanc_1_1021XPathExecutionContext25GetAndReleaseCachedString3getEv(%"class.xalanc_1_10::XPathExecutionContext::GetAndReleaseCachedString"* %theGuard)
          to label %invoke.cont unwind label %lpad, !dbg !4048

invoke.cont:                                      ; preds = %if.then
  %4 = bitcast %"class.xalanc_1_10::XalanEXSLTFunctionConstant"* %this1 to %"class.xalanc_1_10::XalanDOMString"* (%"class.xalanc_1_10::XalanEXSLTFunctionConstant"*, %"class.xalanc_1_10::XalanDOMString"*)***, !dbg !4049
  %vtable = load %"class.xalanc_1_10::XalanDOMString"* (%"class.xalanc_1_10::XalanEXSLTFunctionConstant"*, %"class.xalanc_1_10::XalanDOMString"*)**, %"class.xalanc_1_10::XalanDOMString"* (%"class.xalanc_1_10::XalanEXSLTFunctionConstant"*, %"class.xalanc_1_10::XalanDOMString"*)*** %4, align 8, !dbg !4049
  %vfn = getelementptr inbounds %"class.xalanc_1_10::XalanDOMString"* (%"class.xalanc_1_10::XalanEXSLTFunctionConstant"*, %"class.xalanc_1_10::XalanDOMString"*)*, %"class.xalanc_1_10::XalanDOMString"* (%"class.xalanc_1_10::XalanEXSLTFunctionConstant"*, %"class.xalanc_1_10::XalanDOMString"*)** %vtable, i64 8, !dbg !4049
  %5 = load %"class.xalanc_1_10::XalanDOMString"* (%"class.xalanc_1_10::XalanEXSLTFunctionConstant"*, %"class.xalanc_1_10::XalanDOMString"*)*, %"class.xalanc_1_10::XalanDOMString"* (%"class.xalanc_1_10::XalanEXSLTFunctionConstant"*, %"class.xalanc_1_10::XalanDOMString"*)** %vfn, align 8, !dbg !4049
  %call4 = invoke dereferenceable(40) %"class.xalanc_1_10::XalanDOMString"* %5(%"class.xalanc_1_10::XalanEXSLTFunctionConstant"* %this1, %"class.xalanc_1_10::XalanDOMString"* dereferenceable(40) %call2)
          to label %invoke.cont3 unwind label %lpad, !dbg !4049

invoke.cont3:                                     ; preds = %invoke.cont
  %6 = load %"class.xalanc_1_10::XalanNode"*, %"class.xalanc_1_10::XalanNode"** %context.addr, align 8, !dbg !4050
  %7 = load %"class.xercesc_2_7::Locator"*, %"class.xercesc_2_7::Locator"** %locator.addr, align 8, !dbg !4051
  %8 = bitcast %"class.xalanc_1_10::XPathExecutionContext"* %3 to void (%"class.xalanc_1_10::XPathExecutionContext"*, %"class.xalanc_1_10::XalanDOMString"*, %"class.xalanc_1_10::XalanNode"*, %"class.xercesc_2_7::Locator"*)***, !dbg !4052
  %vtable5 = load void (%"class.xalanc_1_10::XPathExecutionContext"*, %"class.xalanc_1_10::XalanDOMString"*, %"class.xalanc_1_10::XalanNode"*, %"class.xercesc_2_7::Locator"*)**, void (%"class.xalanc_1_10::XPathExecutionContext"*, %"class.xalanc_1_10::XalanDOMString"*, %"class.xalanc_1_10::XalanNode"*, %"class.xercesc_2_7::Locator"*)*** %8, align 8, !dbg !4052
  %vfn6 = getelementptr inbounds void (%"class.xalanc_1_10::XPathExecutionContext"*, %"class.xalanc_1_10::XalanDOMString"*, %"class.xalanc_1_10::XalanNode"*, %"class.xercesc_2_7::Locator"*)*, void (%"class.xalanc_1_10::XPathExecutionContext"*, %"class.xalanc_1_10::XalanDOMString"*, %"class.xalanc_1_10::XalanNode"*, %"class.xercesc_2_7::Locator"*)** %vtable5, i64 2, !dbg !4052
  %9 = load void (%"class.xalanc_1_10::XPathExecutionContext"*, %"class.xalanc_1_10::XalanDOMString"*, %"class.xalanc_1_10::XalanNode"*, %"class.xercesc_2_7::Locator"*)*, void (%"class.xalanc_1_10::XPathExecutionContext"*, %"class.xalanc_1_10::XalanDOMString"*, %"class.xalanc_1_10::XalanNode"*, %"class.xercesc_2_7::Locator"*)** %vfn6, align 8, !dbg !4052
  invoke void %9(%"class.xalanc_1_10::XPathExecutionContext"* %3, %"class.xalanc_1_10::XalanDOMString"* dereferenceable(40) %call4, %"class.xalanc_1_10::XalanNode"* %6, %"class.xercesc_2_7::Locator"* %7)
          to label %invoke.cont7 unwind label %lpad, !dbg !4052

invoke.cont7:                                     ; preds = %invoke.cont3
  call void @_ZN11xalanc_1_1021XPathExecutionContext25GetAndReleaseCachedStringD2Ev(%"class.xalanc_1_10::XPathExecutionContext::GetAndReleaseCachedString"* %theGuard) #5, !dbg !4053
  br label %if.end, !dbg !4054

lpad:                                             ; preds = %invoke.cont3, %invoke.cont, %if.then
  %10 = landingpad { i8*, i32 }
          cleanup, !dbg !4055
  %11 = extractvalue { i8*, i32 } %10, 0, !dbg !4055
  store i8* %11, i8** %exn.slot, align 8, !dbg !4055
  %12 = extractvalue { i8*, i32 } %10, 1, !dbg !4055
  store i32 %12, i32* %ehselector.slot, align 4, !dbg !4055
  call void @_ZN11xalanc_1_1021XPathExecutionContext25GetAndReleaseCachedStringD2Ev(%"class.xalanc_1_10::XPathExecutionContext::GetAndReleaseCachedString"* %theGuard) #5, !dbg !4053
  br label %eh.resume, !dbg !4053

if.end:                                           ; preds = %invoke.cont7, %entry
  call void @llvm.dbg.declare(metadata %"class.xalanc_1_10::XalanDOMString"** %theConstant, metadata !4056, metadata !DIExpression()), !dbg !4057
  %13 = load %"class.xalanc_1_10::XalanVector"*, %"class.xalanc_1_10::XalanVector"** %args.addr, align 8, !dbg !4058
  %call8 = call dereferenceable(8) %"class.xalanc_1_10::XObjectPtr"* @_ZNK11xalanc_1_1011XalanVectorINS_10XObjectPtrENS_31MemoryManagedConstructionTraitsIS1_EEEixEm(%"class.xalanc_1_10::XalanVector"* %13, i64 0), !dbg !4058
  %call9 = call %"class.xalanc_1_10::XObject"* @_ZNK11xalanc_1_1010XObjectPtrptEv(%"class.xalanc_1_10::XObjectPtr"* %call8), !dbg !4058
  %14 = bitcast %"class.xalanc_1_10::XObject"* %call9 to %"class.xalanc_1_10::XalanDOMString"* (%"class.xalanc_1_10::XObject"*)***, !dbg !4059
  %vtable10 = load %"class.xalanc_1_10::XalanDOMString"* (%"class.xalanc_1_10::XObject"*)**, %"class.xalanc_1_10::XalanDOMString"* (%"class.xalanc_1_10::XObject"*)*** %14, align 8, !dbg !4059
  %vfn11 = getelementptr inbounds %"class.xalanc_1_10::XalanDOMString"* (%"class.xalanc_1_10::XObject"*)*, %"class.xalanc_1_10::XalanDOMString"* (%"class.xalanc_1_10::XObject"*)** %vtable10, i64 8, !dbg !4059
  %15 = load %"class.xalanc_1_10::XalanDOMString"* (%"class.xalanc_1_10::XObject"*)*, %"class.xalanc_1_10::XalanDOMString"* (%"class.xalanc_1_10::XObject"*)** %vfn11, align 8, !dbg !4059
  %call12 = call dereferenceable(40) %"class.xalanc_1_10::XalanDOMString"* %15(%"class.xalanc_1_10::XObject"* %call9), !dbg !4059
  store %"class.xalanc_1_10::XalanDOMString"* %call12, %"class.xalanc_1_10::XalanDOMString"** %theConstant, align 8, !dbg !4057
  call void @llvm.dbg.declare(metadata double* %thePrecision, metadata !4060, metadata !DIExpression()), !dbg !4061
  %16 = load %"class.xalanc_1_10::XalanVector"*, %"class.xalanc_1_10::XalanVector"** %args.addr, align 8, !dbg !4062
  %call13 = call dereferenceable(8) %"class.xalanc_1_10::XObjectPtr"* @_ZNK11xalanc_1_1011XalanVectorINS_10XObjectPtrENS_31MemoryManagedConstructionTraitsIS1_EEEixEm(%"class.xalanc_1_10::XalanVector"* %16, i64 1), !dbg !4062
  %call14 = call %"class.xalanc_1_10::XObject"* @_ZNK11xalanc_1_1010XObjectPtrptEv(%"class.xalanc_1_10::XObjectPtr"* %call13), !dbg !4062
  %17 = bitcast %"class.xalanc_1_10::XObject"* %call14 to double (%"class.xalanc_1_10::XObject"*)***, !dbg !4063
  %vtable15 = load double (%"class.xalanc_1_10::XObject"*)**, double (%"class.xalanc_1_10::XObject"*)*** %17, align 8, !dbg !4063
  %vfn16 = getelementptr inbounds double (%"class.xalanc_1_10::XObject"*)*, double (%"class.xalanc_1_10::XObject"*)** %vtable15, i64 6, !dbg !4063
  %18 = load double (%"class.xalanc_1_10::XObject"*)*, double (%"class.xalanc_1_10::XObject"*)** %vfn16, align 8, !dbg !4063
  %call17 = call double %18(%"class.xalanc_1_10::XObject"* %call14), !dbg !4063
  %call18 = call double @_ZN11xalanc_1_1013DoubleSupport5roundEd(double %call17), !dbg !4064
  store double %call18, double* %thePrecision, align 8, !dbg !4061
  %19 = load double, double* %thePrecision, align 8, !dbg !4065
  %conv = fpext double %19 to x86_fp80, !dbg !4065
  %cmp19 = fcmp ole x86_fp80 %conv, 0xK00000000000000000000, !dbg !4067
  br i1 %cmp19, label %if.then20, label %if.else, !dbg !4068

if.then20:                                        ; preds = %if.end
  %20 = load %"class.xalanc_1_10::XPathExecutionContext"*, %"class.xalanc_1_10::XPathExecutionContext"** %executionContext.addr, align 8, !dbg !4069
  %call21 = call dereferenceable(16) %"class.xalanc_1_10::XObjectFactory"* @_ZNK11xalanc_1_1021XPathExecutionContext17getXObjectFactoryEv(%"class.xalanc_1_10::XPathExecutionContext"* %20), !dbg !4071
  %call22 = call double @_ZN11xalanc_1_1013DoubleSupport6getNaNEv(), !dbg !4072
  %21 = bitcast %"class.xalanc_1_10::XObjectFactory"* %call21 to void (%"class.xalanc_1_10::XObjectPtr"*, %"class.xalanc_1_10::XObjectFactory"*, double)***, !dbg !4073
  %vtable23 = load void (%"class.xalanc_1_10::XObjectPtr"*, %"class.xalanc_1_10::XObjectFactory"*, double)**, void (%"class.xalanc_1_10::XObjectPtr"*, %"class.xalanc_1_10::XObjectFactory"*, double)*** %21, align 8, !dbg !4073
  %vfn24 = getelementptr inbounds void (%"class.xalanc_1_10::XObjectPtr"*, %"class.xalanc_1_10::XObjectFactory"*, double)*, void (%"class.xalanc_1_10::XObjectPtr"*, %"class.xalanc_1_10::XObjectFactory"*, double)** %vtable23, i64 7, !dbg !4073
  %22 = load void (%"class.xalanc_1_10::XObjectPtr"*, %"class.xalanc_1_10::XObjectFactory"*, double)*, void (%"class.xalanc_1_10::XObjectPtr"*, %"class.xalanc_1_10::XObjectFactory"*, double)** %vfn24, align 8, !dbg !4073
  call void %22(%"class.xalanc_1_10::XObjectPtr"* sret %agg.result, %"class.xalanc_1_10::XObjectFactory"* %call21, double %call22), !dbg !4073
  br label %return, !dbg !4074

if.else:                                          ; preds = %if.end
  %23 = load %"class.xalanc_1_10::XalanDOMString"*, %"class.xalanc_1_10::XalanDOMString"** %theConstant, align 8, !dbg !4075
  %call25 = call zeroext i1 @_ZN11xalanc_1_106equalsEPKtRKNS_14XalanDOMStringE(i16* getelementptr inbounds ([2 x i16], [2 x i16]* @_ZN11xalanc_1_1026XalanEXSLTFunctionConstant9s_eStringE, i64 0, i64 0), %"class.xalanc_1_10::XalanDOMString"* dereferenceable(40) %23), !dbg !4077
  %conv26 = zext i1 %call25 to i32, !dbg !4077
  %cmp27 = icmp eq i32 %conv26, 1, !dbg !4078
  br i1 %cmp27, label %if.then28, label %if.else29, !dbg !4079

if.then28:                                        ; preds = %if.else
  %24 = load %"class.xalanc_1_10::XPathExecutionContext"*, %"class.xalanc_1_10::XPathExecutionContext"** %executionContext.addr, align 8, !dbg !4080
  %25 = load double, double* %thePrecision, align 8, !dbg !4082
  call void @_ZN11xalanc_1_109doConvertERNS_21XPathExecutionContextEPKdmd(%"class.xalanc_1_10::XObjectPtr"* sret %agg.result, %"class.xalanc_1_10::XPathExecutionContext"* dereferenceable(24) %24, double* getelementptr inbounds ([51 x double], [51 x double]* @_ZN11xalanc_1_1026XalanEXSLTFunctionConstant9s_eValuesE, i64 0, i64 0), i64 51, double %25), !dbg !4083
  br label %return, !dbg !4084

if.else29:                                        ; preds = %if.else
  %26 = load %"class.xalanc_1_10::XalanDOMString"*, %"class.xalanc_1_10::XalanDOMString"** %theConstant, align 8, !dbg !4085
  %call30 = call zeroext i1 @_ZN11xalanc_1_106equalsEPKtRKNS_14XalanDOMStringE(i16* getelementptr inbounds ([5 x i16], [5 x i16]* @_ZN11xalanc_1_1026XalanEXSLTFunctionConstant12s_ln10StringE, i64 0, i64 0), %"class.xalanc_1_10::XalanDOMString"* dereferenceable(40) %26), !dbg !4087
  %conv31 = zext i1 %call30 to i32, !dbg !4087
  %cmp32 = icmp eq i32 %conv31, 1, !dbg !4088
  br i1 %cmp32, label %if.then33, label %if.else34, !dbg !4089

if.then33:                                        ; preds = %if.else29
  %27 = load %"class.xalanc_1_10::XPathExecutionContext"*, %"class.xalanc_1_10::XPathExecutionContext"** %executionContext.addr, align 8, !dbg !4090
  %28 = load double, double* %thePrecision, align 8, !dbg !4092
  call void @_ZN11xalanc_1_109doConvertERNS_21XPathExecutionContextEPKdmd(%"class.xalanc_1_10::XObjectPtr"* sret %agg.result, %"class.xalanc_1_10::XPathExecutionContext"* dereferenceable(24) %27, double* getelementptr inbounds ([16 x double], [16 x double]* @_ZN11xalanc_1_1026XalanEXSLTFunctionConstant12s_ln10ValuesE, i64 0, i64 0), i64 16, double %28), !dbg !4093
  br label %return, !dbg !4094

if.else34:                                        ; preds = %if.else29
  %29 = load %"class.xalanc_1_10::XalanDOMString"*, %"class.xalanc_1_10::XalanDOMString"** %theConstant, align 8, !dbg !4095
  %call35 = call zeroext i1 @_ZN11xalanc_1_106equalsEPKtRKNS_14XalanDOMStringE(i16* getelementptr inbounds ([4 x i16], [4 x i16]* @_ZN11xalanc_1_1026XalanEXSLTFunctionConstant11s_ln2StringE, i64 0, i64 0), %"class.xalanc_1_10::XalanDOMString"* dereferenceable(40) %29), !dbg !4097
  %conv36 = zext i1 %call35 to i32, !dbg !4097
  %cmp37 = icmp eq i32 %conv36, 1, !dbg !4098
  br i1 %cmp37, label %if.then38, label %if.else39, !dbg !4099

if.then38:                                        ; preds = %if.else34
  %30 = load %"class.xalanc_1_10::XPathExecutionContext"*, %"class.xalanc_1_10::XPathExecutionContext"** %executionContext.addr, align 8, !dbg !4100
  %31 = load double, double* %thePrecision, align 8, !dbg !4102
  call void @_ZN11xalanc_1_109doConvertERNS_21XPathExecutionContextEPKdmd(%"class.xalanc_1_10::XObjectPtr"* sret %agg.result, %"class.xalanc_1_10::XPathExecutionContext"* dereferenceable(24) %30, double* getelementptr inbounds ([51 x double], [51 x double]* @_ZN11xalanc_1_1026XalanEXSLTFunctionConstant11s_ln2ValuesE, i64 0, i64 0), i64 51, double %31), !dbg !4103
  br label %return, !dbg !4104

if.else39:                                        ; preds = %if.else34
  %32 = load %"class.xalanc_1_10::XalanDOMString"*, %"class.xalanc_1_10::XalanDOMString"** %theConstant, align 8, !dbg !4105
  %call40 = call zeroext i1 @_ZN11xalanc_1_106equalsEPKtRKNS_14XalanDOMStringE(i16* getelementptr inbounds ([6 x i16], [6 x i16]* @_ZN11xalanc_1_1026XalanEXSLTFunctionConstant13s_log2EStringE, i64 0, i64 0), %"class.xalanc_1_10::XalanDOMString"* dereferenceable(40) %32), !dbg !4107
  %conv41 = zext i1 %call40 to i32, !dbg !4107
  %cmp42 = icmp eq i32 %conv41, 1, !dbg !4108
  br i1 %cmp42, label %if.then43, label %if.else44, !dbg !4109

if.then43:                                        ; preds = %if.else39
  %33 = load %"class.xalanc_1_10::XPathExecutionContext"*, %"class.xalanc_1_10::XPathExecutionContext"** %executionContext.addr, align 8, !dbg !4110
  %34 = load double, double* %thePrecision, align 8, !dbg !4112
  call void @_ZN11xalanc_1_109doConvertERNS_21XPathExecutionContextEPKdmd(%"class.xalanc_1_10::XObjectPtr"* sret %agg.result, %"class.xalanc_1_10::XPathExecutionContext"* dereferenceable(24) %33, double* getelementptr inbounds ([17 x double], [17 x double]* @_ZN11xalanc_1_1026XalanEXSLTFunctionConstant13s_log2EValuesE, i64 0, i64 0), i64 17, double %34), !dbg !4113
  br label %return, !dbg !4114

if.else44:                                        ; preds = %if.else39
  %35 = load %"class.xalanc_1_10::XalanDOMString"*, %"class.xalanc_1_10::XalanDOMString"** %theConstant, align 8, !dbg !4115
  %call45 = call zeroext i1 @_ZN11xalanc_1_106equalsEPKtRKNS_14XalanDOMStringE(i16* getelementptr inbounds ([3 x i16], [3 x i16]* @_ZN11xalanc_1_1026XalanEXSLTFunctionConstant10s_piStringE, i64 0, i64 0), %"class.xalanc_1_10::XalanDOMString"* dereferenceable(40) %35), !dbg !4117
  %conv46 = zext i1 %call45 to i32, !dbg !4117
  %cmp47 = icmp eq i32 %conv46, 1, !dbg !4118
  br i1 %cmp47, label %if.then48, label %if.else49, !dbg !4119

if.then48:                                        ; preds = %if.else44
  %36 = load %"class.xalanc_1_10::XPathExecutionContext"*, %"class.xalanc_1_10::XPathExecutionContext"** %executionContext.addr, align 8, !dbg !4120
  %37 = load double, double* %thePrecision, align 8, !dbg !4122
  call void @_ZN11xalanc_1_109doConvertERNS_21XPathExecutionContextEPKdmd(%"class.xalanc_1_10::XObjectPtr"* sret %agg.result, %"class.xalanc_1_10::XPathExecutionContext"* dereferenceable(24) %36, double* getelementptr inbounds ([50 x double], [50 x double]* @_ZN11xalanc_1_1026XalanEXSLTFunctionConstant10s_piValuesE, i64 0, i64 0), i64 50, double %37), !dbg !4123
  br label %return, !dbg !4124

if.else49:                                        ; preds = %if.else44
  %38 = load %"class.xalanc_1_10::XalanDOMString"*, %"class.xalanc_1_10::XalanDOMString"** %theConstant, align 8, !dbg !4125
  %call50 = call zeroext i1 @_ZN11xalanc_1_106equalsEPKtRKNS_14XalanDOMStringE(i16* getelementptr inbounds ([8 x i16], [8 x i16]* @_ZN11xalanc_1_1026XalanEXSLTFunctionConstant15s_sqrt1_2StringE, i64 0, i64 0), %"class.xalanc_1_10::XalanDOMString"* dereferenceable(40) %38), !dbg !4127
  %conv51 = zext i1 %call50 to i32, !dbg !4127
  %cmp52 = icmp eq i32 %conv51, 1, !dbg !4128
  br i1 %cmp52, label %if.then53, label %if.else54, !dbg !4129

if.then53:                                        ; preds = %if.else49
  %39 = load %"class.xalanc_1_10::XPathExecutionContext"*, %"class.xalanc_1_10::XPathExecutionContext"** %executionContext.addr, align 8, !dbg !4130
  %40 = load double, double* %thePrecision, align 8, !dbg !4132
  call void @_ZN11xalanc_1_109doConvertERNS_21XPathExecutionContextEPKdmd(%"class.xalanc_1_10::XObjectPtr"* sret %agg.result, %"class.xalanc_1_10::XPathExecutionContext"* dereferenceable(24) %39, double* getelementptr inbounds ([17 x double], [17 x double]* @_ZN11xalanc_1_1026XalanEXSLTFunctionConstant15s_sqrt1_2ValuesE, i64 0, i64 0), i64 17, double %40), !dbg !4133
  br label %return, !dbg !4134

if.else54:                                        ; preds = %if.else49
  %41 = load %"class.xalanc_1_10::XalanDOMString"*, %"class.xalanc_1_10::XalanDOMString"** %theConstant, align 8, !dbg !4135
  %call55 = call zeroext i1 @_ZN11xalanc_1_106equalsEPKtRKNS_14XalanDOMStringE(i16* getelementptr inbounds ([7 x i16], [7 x i16]* @_ZN11xalanc_1_1026XalanEXSLTFunctionConstant13s_sqrt2StringE, i64 0, i64 0), %"class.xalanc_1_10::XalanDOMString"* dereferenceable(40) %41), !dbg !4137
  %conv56 = zext i1 %call55 to i32, !dbg !4137
  %cmp57 = icmp eq i32 %conv56, 1, !dbg !4138
  br i1 %cmp57, label %if.then58, label %if.else59, !dbg !4139

if.then58:                                        ; preds = %if.else54
  %42 = load %"class.xalanc_1_10::XPathExecutionContext"*, %"class.xalanc_1_10::XPathExecutionContext"** %executionContext.addr, align 8, !dbg !4140
  %43 = load double, double* %thePrecision, align 8, !dbg !4142
  call void @_ZN11xalanc_1_109doConvertERNS_21XPathExecutionContextEPKdmd(%"class.xalanc_1_10::XObjectPtr"* sret %agg.result, %"class.xalanc_1_10::XPathExecutionContext"* dereferenceable(24) %42, double* getelementptr inbounds ([51 x double], [51 x double]* @_ZN11xalanc_1_1026XalanEXSLTFunctionConstant13s_sqrt2ValuesE, i64 0, i64 0), i64 51, double %43), !dbg !4143
  br label %return, !dbg !4144

if.else59:                                        ; preds = %if.else54
  %44 = load %"class.xalanc_1_10::XPathExecutionContext"*, %"class.xalanc_1_10::XPathExecutionContext"** %executionContext.addr, align 8, !dbg !4145
  %call60 = call dereferenceable(16) %"class.xalanc_1_10::XObjectFactory"* @_ZNK11xalanc_1_1021XPathExecutionContext17getXObjectFactoryEv(%"class.xalanc_1_10::XPathExecutionContext"* %44), !dbg !4147
  %call61 = call double @_ZN11xalanc_1_1013DoubleSupport6getNaNEv(), !dbg !4148
  %45 = bitcast %"class.xalanc_1_10::XObjectFactory"* %call60 to void (%"class.xalanc_1_10::XObjectPtr"*, %"class.xalanc_1_10::XObjectFactory"*, double)***, !dbg !4149
  %vtable62 = load void (%"class.xalanc_1_10::XObjectPtr"*, %"class.xalanc_1_10::XObjectFactory"*, double)**, void (%"class.xalanc_1_10::XObjectPtr"*, %"class.xalanc_1_10::XObjectFactory"*, double)*** %45, align 8, !dbg !4149
  %vfn63 = getelementptr inbounds void (%"class.xalanc_1_10::XObjectPtr"*, %"class.xalanc_1_10::XObjectFactory"*, double)*, void (%"class.xalanc_1_10::XObjectPtr"*, %"class.xalanc_1_10::XObjectFactory"*, double)** %vtable62, i64 7, !dbg !4149
  %46 = load void (%"class.xalanc_1_10::XObjectPtr"*, %"class.xalanc_1_10::XObjectFactory"*, double)*, void (%"class.xalanc_1_10::XObjectPtr"*, %"class.xalanc_1_10::XObjectFactory"*, double)** %vfn63, align 8, !dbg !4149
  call void %46(%"class.xalanc_1_10::XObjectPtr"* sret %agg.result, %"class.xalanc_1_10::XObjectFactory"* %call60, double %call61), !dbg !4149
  br label %return, !dbg !4150

return:                                           ; preds = %if.else59, %if.then58, %if.then53, %if.then48, %if.then43, %if.then38, %if.then33, %if.then28, %if.then20
  ret void, !dbg !4151

eh.resume:                                        ; preds = %lpad
  %exn = load i8*, i8** %exn.slot, align 8, !dbg !4053
  %sel = load i32, i32* %ehselector.slot, align 4, !dbg !4053
  %lpad.val = insertvalue { i8*, i32 } undef, i8* %exn, 0, !dbg !4053
  %lpad.val64 = insertvalue { i8*, i32 } %lpad.val, i32 %sel, 1, !dbg !4053
  resume { i8*, i32 } %lpad.val64, !dbg !4053
}

declare dso_local double @_ZN11xalanc_1_1013DoubleSupport5roundEd(double) #3

; Function Attrs: noinline nounwind uwtable
define linkonce_odr dso_local double @_ZN11xalanc_1_1013DoubleSupport6getNaNEv() #2 comdat align 2 !dbg !4152 {
entry:
  %0 = load double, double* getelementptr inbounds (%"union.xalanc_1_10::DoubleSupport::NumberUnion", %"union.xalanc_1_10::DoubleSupport::NumberUnion"* @_ZN11xalanc_1_1013DoubleSupport5s_NaNE, i32 0, i32 0), align 8, !dbg !4217
  ret double %0, !dbg !4218
}

; Function Attrs: noinline uwtable
define linkonce_odr dso_local zeroext i1 @_ZN11xalanc_1_106equalsEPKtRKNS_14XalanDOMStringE(i16* %theLHS, %"class.xalanc_1_10::XalanDOMString"* dereferenceable(40) %theRHS) #0 comdat !dbg !4219 {
entry:
  %theLHS.addr = alloca i16*, align 8
  %theRHS.addr = alloca %"class.xalanc_1_10::XalanDOMString"*, align 8
  store i16* %theLHS, i16** %theLHS.addr, align 8
  call void @llvm.dbg.declare(metadata i16** %theLHS.addr, metadata !4220, metadata !DIExpression()), !dbg !4221
  store %"class.xalanc_1_10::XalanDOMString"* %theRHS, %"class.xalanc_1_10::XalanDOMString"** %theRHS.addr, align 8
  call void @llvm.dbg.declare(metadata %"class.xalanc_1_10::XalanDOMString"** %theRHS.addr, metadata !4222, metadata !DIExpression()), !dbg !4223
  %0 = load %"class.xalanc_1_10::XalanDOMString"*, %"class.xalanc_1_10::XalanDOMString"** %theRHS.addr, align 8, !dbg !4224
  %1 = load i16*, i16** %theLHS.addr, align 8, !dbg !4225
  %call = call zeroext i1 @_ZN11xalanc_1_10eqERKNS_14XalanDOMStringEPKt(%"class.xalanc_1_10::XalanDOMString"* dereferenceable(40) %0, i16* %1), !dbg !4226
  ret i1 %call, !dbg !4227
}

; Function Attrs: noinline uwtable
define dso_local void @_ZNK11xalanc_1_1021XalanEXSLTFunctionCos7executeERNS_21XPathExecutionContextEPNS_9XalanNodeERKNS_11XalanVectorINS_10XObjectPtrENS_31MemoryManagedConstructionTraitsIS6_EEEEPKN11xercesc_2_77LocatorE(%"class.xalanc_1_10::XObjectPtr"* noalias sret %agg.result, %"class.xalanc_1_10::XalanEXSLTFunctionCos"* %this, %"class.xalanc_1_10::XPathExecutionContext"* dereferenceable(24) %executionContext, %"class.xalanc_1_10::XalanNode"* %context, %"class.xalanc_1_10::XalanVector"* dereferenceable(32) %args, %"class.xercesc_2_7::Locator"* %locator) unnamed_addr #0 align 2 personality i8* bitcast (i32 (...)* @__gxx_personality_v0 to i8*) !dbg !4228 {
entry:
  %result.ptr = alloca i8*, align 8
  %this.addr = alloca %"class.xalanc_1_10::XalanEXSLTFunctionCos"*, align 8
  %executionContext.addr = alloca %"class.xalanc_1_10::XPathExecutionContext"*, align 8
  %context.addr = alloca %"class.xalanc_1_10::XalanNode"*, align 8
  %args.addr = alloca %"class.xalanc_1_10::XalanVector"*, align 8
  %locator.addr = alloca %"class.xercesc_2_7::Locator"*, align 8
  %theGuard = alloca %"class.xalanc_1_10::XPathExecutionContext::GetAndReleaseCachedString", align 8
  %exn.slot = alloca i8*
  %ehselector.slot = alloca i32
  %0 = bitcast %"class.xalanc_1_10::XObjectPtr"* %agg.result to i8*
  store i8* %0, i8** %result.ptr, align 8
  store %"class.xalanc_1_10::XalanEXSLTFunctionCos"* %this, %"class.xalanc_1_10::XalanEXSLTFunctionCos"** %this.addr, align 8
  call void @llvm.dbg.declare(metadata %"class.xalanc_1_10::XalanEXSLTFunctionCos"** %this.addr, metadata !4229, metadata !DIExpression()), !dbg !4231
  store %"class.xalanc_1_10::XPathExecutionContext"* %executionContext, %"class.xalanc_1_10::XPathExecutionContext"** %executionContext.addr, align 8
  call void @llvm.dbg.declare(metadata %"class.xalanc_1_10::XPathExecutionContext"** %executionContext.addr, metadata !4232, metadata !DIExpression()), !dbg !4233
  store %"class.xalanc_1_10::XalanNode"* %context, %"class.xalanc_1_10::XalanNode"** %context.addr, align 8
  call void @llvm.dbg.declare(metadata %"class.xalanc_1_10::XalanNode"** %context.addr, metadata !4234, metadata !DIExpression()), !dbg !4235
  store %"class.xalanc_1_10::XalanVector"* %args, %"class.xalanc_1_10::XalanVector"** %args.addr, align 8
  call void @llvm.dbg.declare(metadata %"class.xalanc_1_10::XalanVector"** %args.addr, metadata !4236, metadata !DIExpression()), !dbg !4237
  store %"class.xercesc_2_7::Locator"* %locator, %"class.xercesc_2_7::Locator"** %locator.addr, align 8
  call void @llvm.dbg.declare(metadata %"class.xercesc_2_7::Locator"** %locator.addr, metadata !4238, metadata !DIExpression()), !dbg !4239
  %this1 = load %"class.xalanc_1_10::XalanEXSLTFunctionCos"*, %"class.xalanc_1_10::XalanEXSLTFunctionCos"** %this.addr, align 8
  %1 = load %"class.xalanc_1_10::XalanVector"*, %"class.xalanc_1_10::XalanVector"** %args.addr, align 8, !dbg !4240
  %call = call i64 @_ZNK11xalanc_1_1011XalanVectorINS_10XObjectPtrENS_31MemoryManagedConstructionTraitsIS1_EEE4sizeEv(%"class.xalanc_1_10::XalanVector"* %1), !dbg !4242
  %cmp = icmp ne i64 %call, 1, !dbg !4243
  br i1 %cmp, label %if.then, label %if.end, !dbg !4244

if.then:                                          ; preds = %entry
  call void @llvm.dbg.declare(metadata %"class.xalanc_1_10::XPathExecutionContext::GetAndReleaseCachedString"* %theGuard, metadata !4245, metadata !DIExpression()), !dbg !4247
  %2 = load %"class.xalanc_1_10::XPathExecutionContext"*, %"class.xalanc_1_10::XPathExecutionContext"** %executionContext.addr, align 8, !dbg !4248
  call void @_ZN11xalanc_1_1021XPathExecutionContext25GetAndReleaseCachedStringC2ERS0_(%"class.xalanc_1_10::XPathExecutionContext::GetAndReleaseCachedString"* %theGuard, %"class.xalanc_1_10::XPathExecutionContext"* dereferenceable(24) %2), !dbg !4247
  %3 = load %"class.xalanc_1_10::XPathExecutionContext"*, %"class.xalanc_1_10::XPathExecutionContext"** %executionContext.addr, align 8, !dbg !4249
  %call2 = invoke dereferenceable(40) %"class.xalanc_1_10::XalanDOMString"* @_ZNK11xalanc_1_1021XPathExecutionContext25GetAndReleaseCachedString3getEv(%"class.xalanc_1_10::XPathExecutionContext::GetAndReleaseCachedString"* %theGuard)
          to label %invoke.cont unwind label %lpad, !dbg !4250

invoke.cont:                                      ; preds = %if.then
  %4 = bitcast %"class.xalanc_1_10::XalanEXSLTFunctionCos"* %this1 to %"class.xalanc_1_10::XalanDOMString"* (%"class.xalanc_1_10::XalanEXSLTFunctionCos"*, %"class.xalanc_1_10::XalanDOMString"*)***, !dbg !4251
  %vtable = load %"class.xalanc_1_10::XalanDOMString"* (%"class.xalanc_1_10::XalanEXSLTFunctionCos"*, %"class.xalanc_1_10::XalanDOMString"*)**, %"class.xalanc_1_10::XalanDOMString"* (%"class.xalanc_1_10::XalanEXSLTFunctionCos"*, %"class.xalanc_1_10::XalanDOMString"*)*** %4, align 8, !dbg !4251
  %vfn = getelementptr inbounds %"class.xalanc_1_10::XalanDOMString"* (%"class.xalanc_1_10::XalanEXSLTFunctionCos"*, %"class.xalanc_1_10::XalanDOMString"*)*, %"class.xalanc_1_10::XalanDOMString"* (%"class.xalanc_1_10::XalanEXSLTFunctionCos"*, %"class.xalanc_1_10::XalanDOMString"*)** %vtable, i64 8, !dbg !4251
  %5 = load %"class.xalanc_1_10::XalanDOMString"* (%"class.xalanc_1_10::XalanEXSLTFunctionCos"*, %"class.xalanc_1_10::XalanDOMString"*)*, %"class.xalanc_1_10::XalanDOMString"* (%"class.xalanc_1_10::XalanEXSLTFunctionCos"*, %"class.xalanc_1_10::XalanDOMString"*)** %vfn, align 8, !dbg !4251
  %call4 = invoke dereferenceable(40) %"class.xalanc_1_10::XalanDOMString"* %5(%"class.xalanc_1_10::XalanEXSLTFunctionCos"* %this1, %"class.xalanc_1_10::XalanDOMString"* dereferenceable(40) %call2)
          to label %invoke.cont3 unwind label %lpad, !dbg !4251

invoke.cont3:                                     ; preds = %invoke.cont
  %6 = load %"class.xalanc_1_10::XalanNode"*, %"class.xalanc_1_10::XalanNode"** %context.addr, align 8, !dbg !4252
  %7 = load %"class.xercesc_2_7::Locator"*, %"class.xercesc_2_7::Locator"** %locator.addr, align 8, !dbg !4253
  %8 = bitcast %"class.xalanc_1_10::XPathExecutionContext"* %3 to void (%"class.xalanc_1_10::XPathExecutionContext"*, %"class.xalanc_1_10::XalanDOMString"*, %"class.xalanc_1_10::XalanNode"*, %"class.xercesc_2_7::Locator"*)***, !dbg !4254
  %vtable5 = load void (%"class.xalanc_1_10::XPathExecutionContext"*, %"class.xalanc_1_10::XalanDOMString"*, %"class.xalanc_1_10::XalanNode"*, %"class.xercesc_2_7::Locator"*)**, void (%"class.xalanc_1_10::XPathExecutionContext"*, %"class.xalanc_1_10::XalanDOMString"*, %"class.xalanc_1_10::XalanNode"*, %"class.xercesc_2_7::Locator"*)*** %8, align 8, !dbg !4254
  %vfn6 = getelementptr inbounds void (%"class.xalanc_1_10::XPathExecutionContext"*, %"class.xalanc_1_10::XalanDOMString"*, %"class.xalanc_1_10::XalanNode"*, %"class.xercesc_2_7::Locator"*)*, void (%"class.xalanc_1_10::XPathExecutionContext"*, %"class.xalanc_1_10::XalanDOMString"*, %"class.xalanc_1_10::XalanNode"*, %"class.xercesc_2_7::Locator"*)** %vtable5, i64 2, !dbg !4254
  %9 = load void (%"class.xalanc_1_10::XPathExecutionContext"*, %"class.xalanc_1_10::XalanDOMString"*, %"class.xalanc_1_10::XalanNode"*, %"class.xercesc_2_7::Locator"*)*, void (%"class.xalanc_1_10::XPathExecutionContext"*, %"class.xalanc_1_10::XalanDOMString"*, %"class.xalanc_1_10::XalanNode"*, %"class.xercesc_2_7::Locator"*)** %vfn6, align 8, !dbg !4254
  invoke void %9(%"class.xalanc_1_10::XPathExecutionContext"* %3, %"class.xalanc_1_10::XalanDOMString"* dereferenceable(40) %call4, %"class.xalanc_1_10::XalanNode"* %6, %"class.xercesc_2_7::Locator"* %7)
          to label %invoke.cont7 unwind label %lpad, !dbg !4254

invoke.cont7:                                     ; preds = %invoke.cont3
  call void @_ZN11xalanc_1_1021XPathExecutionContext25GetAndReleaseCachedStringD2Ev(%"class.xalanc_1_10::XPathExecutionContext::GetAndReleaseCachedString"* %theGuard) #5, !dbg !4255
  br label %if.end, !dbg !4256

lpad:                                             ; preds = %invoke.cont3, %invoke.cont, %if.then
  %10 = landingpad { i8*, i32 }
          cleanup, !dbg !4257
  %11 = extractvalue { i8*, i32 } %10, 0, !dbg !4257
  store i8* %11, i8** %exn.slot, align 8, !dbg !4257
  %12 = extractvalue { i8*, i32 } %10, 1, !dbg !4257
  store i32 %12, i32* %ehselector.slot, align 4, !dbg !4257
  call void @_ZN11xalanc_1_1021XPathExecutionContext25GetAndReleaseCachedStringD2Ev(%"class.xalanc_1_10::XPathExecutionContext::GetAndReleaseCachedString"* %theGuard) #5, !dbg !4255
  br label %eh.resume, !dbg !4255

if.end:                                           ; preds = %invoke.cont7, %entry
  %13 = load %"class.xalanc_1_10::XPathExecutionContext"*, %"class.xalanc_1_10::XPathExecutionContext"** %executionContext.addr, align 8, !dbg !4258
  %call8 = call dereferenceable(16) %"class.xalanc_1_10::XObjectFactory"* @_ZNK11xalanc_1_1021XPathExecutionContext17getXObjectFactoryEv(%"class.xalanc_1_10::XPathExecutionContext"* %13), !dbg !4259
  %14 = load %"class.xalanc_1_10::XalanVector"*, %"class.xalanc_1_10::XalanVector"** %args.addr, align 8, !dbg !4260
  %call9 = call dereferenceable(8) %"class.xalanc_1_10::XObjectPtr"* @_ZNK11xalanc_1_1011XalanVectorINS_10XObjectPtrENS_31MemoryManagedConstructionTraitsIS1_EEEixEm(%"class.xalanc_1_10::XalanVector"* %14, i64 0), !dbg !4260
  %call10 = call %"class.xalanc_1_10::XObject"* @_ZNK11xalanc_1_1010XObjectPtrptEv(%"class.xalanc_1_10::XObjectPtr"* %call9), !dbg !4260
  %15 = bitcast %"class.xalanc_1_10::XObject"* %call10 to double (%"class.xalanc_1_10::XObject"*)***, !dbg !4261
  %vtable11 = load double (%"class.xalanc_1_10::XObject"*)**, double (%"class.xalanc_1_10::XObject"*)*** %15, align 8, !dbg !4261
  %vfn12 = getelementptr inbounds double (%"class.xalanc_1_10::XObject"*)*, double (%"class.xalanc_1_10::XObject"*)** %vtable11, i64 6, !dbg !4261
  %16 = load double (%"class.xalanc_1_10::XObject"*)*, double (%"class.xalanc_1_10::XObject"*)** %vfn12, align 8, !dbg !4261
  %call13 = call double %16(%"class.xalanc_1_10::XObject"* %call10), !dbg !4261
  %call14 = call double @cos(double %call13) #5, !dbg !4262
  %17 = bitcast %"class.xalanc_1_10::XObjectFactory"* %call8 to void (%"class.xalanc_1_10::XObjectPtr"*, %"class.xalanc_1_10::XObjectFactory"*, double)***, !dbg !4263
  %vtable15 = load void (%"class.xalanc_1_10::XObjectPtr"*, %"class.xalanc_1_10::XObjectFactory"*, double)**, void (%"class.xalanc_1_10::XObjectPtr"*, %"class.xalanc_1_10::XObjectFactory"*, double)*** %17, align 8, !dbg !4263
  %vfn16 = getelementptr inbounds void (%"class.xalanc_1_10::XObjectPtr"*, %"class.xalanc_1_10::XObjectFactory"*, double)*, void (%"class.xalanc_1_10::XObjectPtr"*, %"class.xalanc_1_10::XObjectFactory"*, double)** %vtable15, i64 7, !dbg !4263
  %18 = load void (%"class.xalanc_1_10::XObjectPtr"*, %"class.xalanc_1_10::XObjectFactory"*, double)*, void (%"class.xalanc_1_10::XObjectPtr"*, %"class.xalanc_1_10::XObjectFactory"*, double)** %vfn16, align 8, !dbg !4263
  call void %18(%"class.xalanc_1_10::XObjectPtr"* sret %agg.result, %"class.xalanc_1_10::XObjectFactory"* %call8, double %call14), !dbg !4263
  ret void, !dbg !4264

eh.resume:                                        ; preds = %lpad
  %exn = load i8*, i8** %exn.slot, align 8, !dbg !4255
  %sel = load i32, i32* %ehselector.slot, align 4, !dbg !4255
  %lpad.val = insertvalue { i8*, i32 } undef, i8* %exn, 0, !dbg !4255
  %lpad.val17 = insertvalue { i8*, i32 } %lpad.val, i32 %sel, 1, !dbg !4255
  resume { i8*, i32 } %lpad.val17, !dbg !4255
}

; Function Attrs: nounwind
declare dso_local double @cos(double) #4

; Function Attrs: noinline uwtable
define dso_local dereferenceable(40) %"class.xalanc_1_10::XalanDOMString"* @_ZNK11xalanc_1_1021XalanEXSLTFunctionCos8getErrorERNS_14XalanDOMStringE(%"class.xalanc_1_10::XalanEXSLTFunctionCos"* %this, %"class.xalanc_1_10::XalanDOMString"* dereferenceable(40) %theBuffer) unnamed_addr #0 align 2 !dbg !4265 {
entry:
  %this.addr = alloca %"class.xalanc_1_10::XalanEXSLTFunctionCos"*, align 8
  %theBuffer.addr = alloca %"class.xalanc_1_10::XalanDOMString"*, align 8
  store %"class.xalanc_1_10::XalanEXSLTFunctionCos"* %this, %"class.xalanc_1_10::XalanEXSLTFunctionCos"** %this.addr, align 8
  call void @llvm.dbg.declare(metadata %"class.xalanc_1_10::XalanEXSLTFunctionCos"** %this.addr, metadata !4266, metadata !DIExpression()), !dbg !4267
  store %"class.xalanc_1_10::XalanDOMString"* %theBuffer, %"class.xalanc_1_10::XalanDOMString"** %theBuffer.addr, align 8
  call void @llvm.dbg.declare(metadata %"class.xalanc_1_10::XalanDOMString"** %theBuffer.addr, metadata !4268, metadata !DIExpression()), !dbg !4269
  %this1 = load %"class.xalanc_1_10::XalanEXSLTFunctionCos"*, %"class.xalanc_1_10::XalanEXSLTFunctionCos"** %this.addr, align 8
  %0 = load %"class.xalanc_1_10::XalanDOMString"*, %"class.xalanc_1_10::XalanDOMString"** %theBuffer.addr, align 8, !dbg !4270
  %call = call dereferenceable(40) %"class.xalanc_1_10::XalanDOMString"* @_ZN11xalanc_1_1018XalanMessageLoader10getMessageERNS_14XalanDOMStringENS_13XalanMessages5CodesEPKtS6_S6_S6_(%"class.xalanc_1_10::XalanDOMString"* dereferenceable(40) %0, i32 145, i16* getelementptr inbounds ([4 x i16], [4 x i16]* @_ZN11xalanc_1_10L17s_cosFunctionNameE, i64 0, i64 0), i16* null, i16* null, i16* null), !dbg !4271
  ret %"class.xalanc_1_10::XalanDOMString"* %call, !dbg !4272
}

; Function Attrs: noinline uwtable
define dso_local void @_ZNK11xalanc_1_1021XalanEXSLTFunctionExp7executeERNS_21XPathExecutionContextEPNS_9XalanNodeERKNS_11XalanVectorINS_10XObjectPtrENS_31MemoryManagedConstructionTraitsIS6_EEEEPKN11xercesc_2_77LocatorE(%"class.xalanc_1_10::XObjectPtr"* noalias sret %agg.result, %"class.xalanc_1_10::XalanEXSLTFunctionExp"* %this, %"class.xalanc_1_10::XPathExecutionContext"* dereferenceable(24) %executionContext, %"class.xalanc_1_10::XalanNode"* %context, %"class.xalanc_1_10::XalanVector"* dereferenceable(32) %args, %"class.xercesc_2_7::Locator"* %locator) unnamed_addr #0 align 2 personality i8* bitcast (i32 (...)* @__gxx_personality_v0 to i8*) !dbg !4273 {
entry:
  %result.ptr = alloca i8*, align 8
  %this.addr = alloca %"class.xalanc_1_10::XalanEXSLTFunctionExp"*, align 8
  %executionContext.addr = alloca %"class.xalanc_1_10::XPathExecutionContext"*, align 8
  %context.addr = alloca %"class.xalanc_1_10::XalanNode"*, align 8
  %args.addr = alloca %"class.xalanc_1_10::XalanVector"*, align 8
  %locator.addr = alloca %"class.xercesc_2_7::Locator"*, align 8
  %theGuard = alloca %"class.xalanc_1_10::XPathExecutionContext::GetAndReleaseCachedString", align 8
  %exn.slot = alloca i8*
  %ehselector.slot = alloca i32
  %0 = bitcast %"class.xalanc_1_10::XObjectPtr"* %agg.result to i8*
  store i8* %0, i8** %result.ptr, align 8
  store %"class.xalanc_1_10::XalanEXSLTFunctionExp"* %this, %"class.xalanc_1_10::XalanEXSLTFunctionExp"** %this.addr, align 8
  call void @llvm.dbg.declare(metadata %"class.xalanc_1_10::XalanEXSLTFunctionExp"** %this.addr, metadata !4274, metadata !DIExpression()), !dbg !4276
  store %"class.xalanc_1_10::XPathExecutionContext"* %executionContext, %"class.xalanc_1_10::XPathExecutionContext"** %executionContext.addr, align 8
  call void @llvm.dbg.declare(metadata %"class.xalanc_1_10::XPathExecutionContext"** %executionContext.addr, metadata !4277, metadata !DIExpression()), !dbg !4278
  store %"class.xalanc_1_10::XalanNode"* %context, %"class.xalanc_1_10::XalanNode"** %context.addr, align 8
  call void @llvm.dbg.declare(metadata %"class.xalanc_1_10::XalanNode"** %context.addr, metadata !4279, metadata !DIExpression()), !dbg !4280
  store %"class.xalanc_1_10::XalanVector"* %args, %"class.xalanc_1_10::XalanVector"** %args.addr, align 8
  call void @llvm.dbg.declare(metadata %"class.xalanc_1_10::XalanVector"** %args.addr, metadata !4281, metadata !DIExpression()), !dbg !4282
  store %"class.xercesc_2_7::Locator"* %locator, %"class.xercesc_2_7::Locator"** %locator.addr, align 8
  call void @llvm.dbg.declare(metadata %"class.xercesc_2_7::Locator"** %locator.addr, metadata !4283, metadata !DIExpression()), !dbg !4284
  %this1 = load %"class.xalanc_1_10::XalanEXSLTFunctionExp"*, %"class.xalanc_1_10::XalanEXSLTFunctionExp"** %this.addr, align 8
  %1 = load %"class.xalanc_1_10::XalanVector"*, %"class.xalanc_1_10::XalanVector"** %args.addr, align 8, !dbg !4285
  %call = call i64 @_ZNK11xalanc_1_1011XalanVectorINS_10XObjectPtrENS_31MemoryManagedConstructionTraitsIS1_EEE4sizeEv(%"class.xalanc_1_10::XalanVector"* %1), !dbg !4287
  %cmp = icmp ne i64 %call, 1, !dbg !4288
  br i1 %cmp, label %if.then, label %if.end, !dbg !4289

if.then:                                          ; preds = %entry
  call void @llvm.dbg.declare(metadata %"class.xalanc_1_10::XPathExecutionContext::GetAndReleaseCachedString"* %theGuard, metadata !4290, metadata !DIExpression()), !dbg !4292
  %2 = load %"class.xalanc_1_10::XPathExecutionContext"*, %"class.xalanc_1_10::XPathExecutionContext"** %executionContext.addr, align 8, !dbg !4293
  call void @_ZN11xalanc_1_1021XPathExecutionContext25GetAndReleaseCachedStringC2ERS0_(%"class.xalanc_1_10::XPathExecutionContext::GetAndReleaseCachedString"* %theGuard, %"class.xalanc_1_10::XPathExecutionContext"* dereferenceable(24) %2), !dbg !4292
  %3 = load %"class.xalanc_1_10::XPathExecutionContext"*, %"class.xalanc_1_10::XPathExecutionContext"** %executionContext.addr, align 8, !dbg !4294
  %call2 = invoke dereferenceable(40) %"class.xalanc_1_10::XalanDOMString"* @_ZNK11xalanc_1_1021XPathExecutionContext25GetAndReleaseCachedString3getEv(%"class.xalanc_1_10::XPathExecutionContext::GetAndReleaseCachedString"* %theGuard)
          to label %invoke.cont unwind label %lpad, !dbg !4295

invoke.cont:                                      ; preds = %if.then
  %4 = bitcast %"class.xalanc_1_10::XalanEXSLTFunctionExp"* %this1 to %"class.xalanc_1_10::XalanDOMString"* (%"class.xalanc_1_10::XalanEXSLTFunctionExp"*, %"class.xalanc_1_10::XalanDOMString"*)***, !dbg !4296
  %vtable = load %"class.xalanc_1_10::XalanDOMString"* (%"class.xalanc_1_10::XalanEXSLTFunctionExp"*, %"class.xalanc_1_10::XalanDOMString"*)**, %"class.xalanc_1_10::XalanDOMString"* (%"class.xalanc_1_10::XalanEXSLTFunctionExp"*, %"class.xalanc_1_10::XalanDOMString"*)*** %4, align 8, !dbg !4296
  %vfn = getelementptr inbounds %"class.xalanc_1_10::XalanDOMString"* (%"class.xalanc_1_10::XalanEXSLTFunctionExp"*, %"class.xalanc_1_10::XalanDOMString"*)*, %"class.xalanc_1_10::XalanDOMString"* (%"class.xalanc_1_10::XalanEXSLTFunctionExp"*, %"class.xalanc_1_10::XalanDOMString"*)** %vtable, i64 8, !dbg !4296
  %5 = load %"class.xalanc_1_10::XalanDOMString"* (%"class.xalanc_1_10::XalanEXSLTFunctionExp"*, %"class.xalanc_1_10::XalanDOMString"*)*, %"class.xalanc_1_10::XalanDOMString"* (%"class.xalanc_1_10::XalanEXSLTFunctionExp"*, %"class.xalanc_1_10::XalanDOMString"*)** %vfn, align 8, !dbg !4296
  %call4 = invoke dereferenceable(40) %"class.xalanc_1_10::XalanDOMString"* %5(%"class.xalanc_1_10::XalanEXSLTFunctionExp"* %this1, %"class.xalanc_1_10::XalanDOMString"* dereferenceable(40) %call2)
          to label %invoke.cont3 unwind label %lpad, !dbg !4296

invoke.cont3:                                     ; preds = %invoke.cont
  %6 = load %"class.xalanc_1_10::XalanNode"*, %"class.xalanc_1_10::XalanNode"** %context.addr, align 8, !dbg !4297
  %7 = load %"class.xercesc_2_7::Locator"*, %"class.xercesc_2_7::Locator"** %locator.addr, align 8, !dbg !4298
  %8 = bitcast %"class.xalanc_1_10::XPathExecutionContext"* %3 to void (%"class.xalanc_1_10::XPathExecutionContext"*, %"class.xalanc_1_10::XalanDOMString"*, %"class.xalanc_1_10::XalanNode"*, %"class.xercesc_2_7::Locator"*)***, !dbg !4299
  %vtable5 = load void (%"class.xalanc_1_10::XPathExecutionContext"*, %"class.xalanc_1_10::XalanDOMString"*, %"class.xalanc_1_10::XalanNode"*, %"class.xercesc_2_7::Locator"*)**, void (%"class.xalanc_1_10::XPathExecutionContext"*, %"class.xalanc_1_10::XalanDOMString"*, %"class.xalanc_1_10::XalanNode"*, %"class.xercesc_2_7::Locator"*)*** %8, align 8, !dbg !4299
  %vfn6 = getelementptr inbounds void (%"class.xalanc_1_10::XPathExecutionContext"*, %"class.xalanc_1_10::XalanDOMString"*, %"class.xalanc_1_10::XalanNode"*, %"class.xercesc_2_7::Locator"*)*, void (%"class.xalanc_1_10::XPathExecutionContext"*, %"class.xalanc_1_10::XalanDOMString"*, %"class.xalanc_1_10::XalanNode"*, %"class.xercesc_2_7::Locator"*)** %vtable5, i64 2, !dbg !4299
  %9 = load void (%"class.xalanc_1_10::XPathExecutionContext"*, %"class.xalanc_1_10::XalanDOMString"*, %"class.xalanc_1_10::XalanNode"*, %"class.xercesc_2_7::Locator"*)*, void (%"class.xalanc_1_10::XPathExecutionContext"*, %"class.xalanc_1_10::XalanDOMString"*, %"class.xalanc_1_10::XalanNode"*, %"class.xercesc_2_7::Locator"*)** %vfn6, align 8, !dbg !4299
  invoke void %9(%"class.xalanc_1_10::XPathExecutionContext"* %3, %"class.xalanc_1_10::XalanDOMString"* dereferenceable(40) %call4, %"class.xalanc_1_10::XalanNode"* %6, %"class.xercesc_2_7::Locator"* %7)
          to label %invoke.cont7 unwind label %lpad, !dbg !4299

invoke.cont7:                                     ; preds = %invoke.cont3
  call void @_ZN11xalanc_1_1021XPathExecutionContext25GetAndReleaseCachedStringD2Ev(%"class.xalanc_1_10::XPathExecutionContext::GetAndReleaseCachedString"* %theGuard) #5, !dbg !4300
  br label %if.end, !dbg !4301

lpad:                                             ; preds = %invoke.cont3, %invoke.cont, %if.then
  %10 = landingpad { i8*, i32 }
          cleanup, !dbg !4302
  %11 = extractvalue { i8*, i32 } %10, 0, !dbg !4302
  store i8* %11, i8** %exn.slot, align 8, !dbg !4302
  %12 = extractvalue { i8*, i32 } %10, 1, !dbg !4302
  store i32 %12, i32* %ehselector.slot, align 4, !dbg !4302
  call void @_ZN11xalanc_1_1021XPathExecutionContext25GetAndReleaseCachedStringD2Ev(%"class.xalanc_1_10::XPathExecutionContext::GetAndReleaseCachedString"* %theGuard) #5, !dbg !4300
  br label %eh.resume, !dbg !4300

if.end:                                           ; preds = %invoke.cont7, %entry
  %13 = load %"class.xalanc_1_10::XPathExecutionContext"*, %"class.xalanc_1_10::XPathExecutionContext"** %executionContext.addr, align 8, !dbg !4303
  %call8 = call dereferenceable(16) %"class.xalanc_1_10::XObjectFactory"* @_ZNK11xalanc_1_1021XPathExecutionContext17getXObjectFactoryEv(%"class.xalanc_1_10::XPathExecutionContext"* %13), !dbg !4304
  %14 = load %"class.xalanc_1_10::XalanVector"*, %"class.xalanc_1_10::XalanVector"** %args.addr, align 8, !dbg !4305
  %call9 = call dereferenceable(8) %"class.xalanc_1_10::XObjectPtr"* @_ZNK11xalanc_1_1011XalanVectorINS_10XObjectPtrENS_31MemoryManagedConstructionTraitsIS1_EEEixEm(%"class.xalanc_1_10::XalanVector"* %14, i64 0), !dbg !4305
  %call10 = call %"class.xalanc_1_10::XObject"* @_ZNK11xalanc_1_1010XObjectPtrptEv(%"class.xalanc_1_10::XObjectPtr"* %call9), !dbg !4305
  %15 = bitcast %"class.xalanc_1_10::XObject"* %call10 to double (%"class.xalanc_1_10::XObject"*)***, !dbg !4306
  %vtable11 = load double (%"class.xalanc_1_10::XObject"*)**, double (%"class.xalanc_1_10::XObject"*)*** %15, align 8, !dbg !4306
  %vfn12 = getelementptr inbounds double (%"class.xalanc_1_10::XObject"*)*, double (%"class.xalanc_1_10::XObject"*)** %vtable11, i64 6, !dbg !4306
  %16 = load double (%"class.xalanc_1_10::XObject"*)*, double (%"class.xalanc_1_10::XObject"*)** %vfn12, align 8, !dbg !4306
  %call13 = call double %16(%"class.xalanc_1_10::XObject"* %call10), !dbg !4306
  %call14 = call double @exp(double %call13) #5, !dbg !4307
  %17 = bitcast %"class.xalanc_1_10::XObjectFactory"* %call8 to void (%"class.xalanc_1_10::XObjectPtr"*, %"class.xalanc_1_10::XObjectFactory"*, double)***, !dbg !4308
  %vtable15 = load void (%"class.xalanc_1_10::XObjectPtr"*, %"class.xalanc_1_10::XObjectFactory"*, double)**, void (%"class.xalanc_1_10::XObjectPtr"*, %"class.xalanc_1_10::XObjectFactory"*, double)*** %17, align 8, !dbg !4308
  %vfn16 = getelementptr inbounds void (%"class.xalanc_1_10::XObjectPtr"*, %"class.xalanc_1_10::XObjectFactory"*, double)*, void (%"class.xalanc_1_10::XObjectPtr"*, %"class.xalanc_1_10::XObjectFactory"*, double)** %vtable15, i64 7, !dbg !4308
  %18 = load void (%"class.xalanc_1_10::XObjectPtr"*, %"class.xalanc_1_10::XObjectFactory"*, double)*, void (%"class.xalanc_1_10::XObjectPtr"*, %"class.xalanc_1_10::XObjectFactory"*, double)** %vfn16, align 8, !dbg !4308
  call void %18(%"class.xalanc_1_10::XObjectPtr"* sret %agg.result, %"class.xalanc_1_10::XObjectFactory"* %call8, double %call14), !dbg !4308
  ret void, !dbg !4309

eh.resume:                                        ; preds = %lpad
  %exn = load i8*, i8** %exn.slot, align 8, !dbg !4300
  %sel = load i32, i32* %ehselector.slot, align 4, !dbg !4300
  %lpad.val = insertvalue { i8*, i32 } undef, i8* %exn, 0, !dbg !4300
  %lpad.val17 = insertvalue { i8*, i32 } %lpad.val, i32 %sel, 1, !dbg !4300
  resume { i8*, i32 } %lpad.val17, !dbg !4300
}

; Function Attrs: nounwind
declare dso_local double @exp(double) #4

; Function Attrs: noinline uwtable
define dso_local dereferenceable(40) %"class.xalanc_1_10::XalanDOMString"* @_ZNK11xalanc_1_1021XalanEXSLTFunctionExp8getErrorERNS_14XalanDOMStringE(%"class.xalanc_1_10::XalanEXSLTFunctionExp"* %this, %"class.xalanc_1_10::XalanDOMString"* dereferenceable(40) %theBuffer) unnamed_addr #0 align 2 !dbg !4310 {
entry:
  %this.addr = alloca %"class.xalanc_1_10::XalanEXSLTFunctionExp"*, align 8
  %theBuffer.addr = alloca %"class.xalanc_1_10::XalanDOMString"*, align 8
  store %"class.xalanc_1_10::XalanEXSLTFunctionExp"* %this, %"class.xalanc_1_10::XalanEXSLTFunctionExp"** %this.addr, align 8
  call void @llvm.dbg.declare(metadata %"class.xalanc_1_10::XalanEXSLTFunctionExp"** %this.addr, metadata !4311, metadata !DIExpression()), !dbg !4312
  store %"class.xalanc_1_10::XalanDOMString"* %theBuffer, %"class.xalanc_1_10::XalanDOMString"** %theBuffer.addr, align 8
  call void @llvm.dbg.declare(metadata %"class.xalanc_1_10::XalanDOMString"** %theBuffer.addr, metadata !4313, metadata !DIExpression()), !dbg !4314
  %this1 = load %"class.xalanc_1_10::XalanEXSLTFunctionExp"*, %"class.xalanc_1_10::XalanEXSLTFunctionExp"** %this.addr, align 8
  %0 = load %"class.xalanc_1_10::XalanDOMString"*, %"class.xalanc_1_10::XalanDOMString"** %theBuffer.addr, align 8, !dbg !4315
  %call = call dereferenceable(40) %"class.xalanc_1_10::XalanDOMString"* @_ZN11xalanc_1_1018XalanMessageLoader10getMessageERNS_14XalanDOMStringENS_13XalanMessages5CodesEPKtS6_S6_S6_(%"class.xalanc_1_10::XalanDOMString"* dereferenceable(40) %0, i32 145, i16* getelementptr inbounds ([4 x i16], [4 x i16]* @_ZN11xalanc_1_10L17s_expFunctionNameE, i64 0, i64 0), i16* null, i16* null, i16* null), !dbg !4316
  ret %"class.xalanc_1_10::XalanDOMString"* %call, !dbg !4317
}

; Function Attrs: noinline uwtable
define dso_local void @_ZNK11xalanc_1_1021XalanEXSLTFunctionLog7executeERNS_21XPathExecutionContextEPNS_9XalanNodeERKNS_11XalanVectorINS_10XObjectPtrENS_31MemoryManagedConstructionTraitsIS6_EEEEPKN11xercesc_2_77LocatorE(%"class.xalanc_1_10::XObjectPtr"* noalias sret %agg.result, %"class.xalanc_1_10::XalanEXSLTFunctionLog"* %this, %"class.xalanc_1_10::XPathExecutionContext"* dereferenceable(24) %executionContext, %"class.xalanc_1_10::XalanNode"* %context, %"class.xalanc_1_10::XalanVector"* dereferenceable(32) %args, %"class.xercesc_2_7::Locator"* %locator) unnamed_addr #0 align 2 personality i8* bitcast (i32 (...)* @__gxx_personality_v0 to i8*) !dbg !4318 {
entry:
  %result.ptr = alloca i8*, align 8
  %this.addr = alloca %"class.xalanc_1_10::XalanEXSLTFunctionLog"*, align 8
  %executionContext.addr = alloca %"class.xalanc_1_10::XPathExecutionContext"*, align 8
  %context.addr = alloca %"class.xalanc_1_10::XalanNode"*, align 8
  %args.addr = alloca %"class.xalanc_1_10::XalanVector"*, align 8
  %locator.addr = alloca %"class.xercesc_2_7::Locator"*, align 8
  %theGuard = alloca %"class.xalanc_1_10::XPathExecutionContext::GetAndReleaseCachedString", align 8
  %exn.slot = alloca i8*
  %ehselector.slot = alloca i32
  %0 = bitcast %"class.xalanc_1_10::XObjectPtr"* %agg.result to i8*
  store i8* %0, i8** %result.ptr, align 8
  store %"class.xalanc_1_10::XalanEXSLTFunctionLog"* %this, %"class.xalanc_1_10::XalanEXSLTFunctionLog"** %this.addr, align 8
  call void @llvm.dbg.declare(metadata %"class.xalanc_1_10::XalanEXSLTFunctionLog"** %this.addr, metadata !4319, metadata !DIExpression()), !dbg !4321
  store %"class.xalanc_1_10::XPathExecutionContext"* %executionContext, %"class.xalanc_1_10::XPathExecutionContext"** %executionContext.addr, align 8
  call void @llvm.dbg.declare(metadata %"class.xalanc_1_10::XPathExecutionContext"** %executionContext.addr, metadata !4322, metadata !DIExpression()), !dbg !4323
  store %"class.xalanc_1_10::XalanNode"* %context, %"class.xalanc_1_10::XalanNode"** %context.addr, align 8
  call void @llvm.dbg.declare(metadata %"class.xalanc_1_10::XalanNode"** %context.addr, metadata !4324, metadata !DIExpression()), !dbg !4325
  store %"class.xalanc_1_10::XalanVector"* %args, %"class.xalanc_1_10::XalanVector"** %args.addr, align 8
  call void @llvm.dbg.declare(metadata %"class.xalanc_1_10::XalanVector"** %args.addr, metadata !4326, metadata !DIExpression()), !dbg !4327
  store %"class.xercesc_2_7::Locator"* %locator, %"class.xercesc_2_7::Locator"** %locator.addr, align 8
  call void @llvm.dbg.declare(metadata %"class.xercesc_2_7::Locator"** %locator.addr, metadata !4328, metadata !DIExpression()), !dbg !4329
  %this1 = load %"class.xalanc_1_10::XalanEXSLTFunctionLog"*, %"class.xalanc_1_10::XalanEXSLTFunctionLog"** %this.addr, align 8
  %1 = load %"class.xalanc_1_10::XalanVector"*, %"class.xalanc_1_10::XalanVector"** %args.addr, align 8, !dbg !4330
  %call = call i64 @_ZNK11xalanc_1_1011XalanVectorINS_10XObjectPtrENS_31MemoryManagedConstructionTraitsIS1_EEE4sizeEv(%"class.xalanc_1_10::XalanVector"* %1), !dbg !4332
  %cmp = icmp ne i64 %call, 1, !dbg !4333
  br i1 %cmp, label %if.then, label %if.end, !dbg !4334

if.then:                                          ; preds = %entry
  call void @llvm.dbg.declare(metadata %"class.xalanc_1_10::XPathExecutionContext::GetAndReleaseCachedString"* %theGuard, metadata !4335, metadata !DIExpression()), !dbg !4337
  %2 = load %"class.xalanc_1_10::XPathExecutionContext"*, %"class.xalanc_1_10::XPathExecutionContext"** %executionContext.addr, align 8, !dbg !4338
  call void @_ZN11xalanc_1_1021XPathExecutionContext25GetAndReleaseCachedStringC2ERS0_(%"class.xalanc_1_10::XPathExecutionContext::GetAndReleaseCachedString"* %theGuard, %"class.xalanc_1_10::XPathExecutionContext"* dereferenceable(24) %2), !dbg !4337
  %3 = load %"class.xalanc_1_10::XPathExecutionContext"*, %"class.xalanc_1_10::XPathExecutionContext"** %executionContext.addr, align 8, !dbg !4339
  %call2 = invoke dereferenceable(40) %"class.xalanc_1_10::XalanDOMString"* @_ZNK11xalanc_1_1021XPathExecutionContext25GetAndReleaseCachedString3getEv(%"class.xalanc_1_10::XPathExecutionContext::GetAndReleaseCachedString"* %theGuard)
          to label %invoke.cont unwind label %lpad, !dbg !4340

invoke.cont:                                      ; preds = %if.then
  %4 = bitcast %"class.xalanc_1_10::XalanEXSLTFunctionLog"* %this1 to %"class.xalanc_1_10::XalanDOMString"* (%"class.xalanc_1_10::XalanEXSLTFunctionLog"*, %"class.xalanc_1_10::XalanDOMString"*)***, !dbg !4341
  %vtable = load %"class.xalanc_1_10::XalanDOMString"* (%"class.xalanc_1_10::XalanEXSLTFunctionLog"*, %"class.xalanc_1_10::XalanDOMString"*)**, %"class.xalanc_1_10::XalanDOMString"* (%"class.xalanc_1_10::XalanEXSLTFunctionLog"*, %"class.xalanc_1_10::XalanDOMString"*)*** %4, align 8, !dbg !4341
  %vfn = getelementptr inbounds %"class.xalanc_1_10::XalanDOMString"* (%"class.xalanc_1_10::XalanEXSLTFunctionLog"*, %"class.xalanc_1_10::XalanDOMString"*)*, %"class.xalanc_1_10::XalanDOMString"* (%"class.xalanc_1_10::XalanEXSLTFunctionLog"*, %"class.xalanc_1_10::XalanDOMString"*)** %vtable, i64 8, !dbg !4341
  %5 = load %"class.xalanc_1_10::XalanDOMString"* (%"class.xalanc_1_10::XalanEXSLTFunctionLog"*, %"class.xalanc_1_10::XalanDOMString"*)*, %"class.xalanc_1_10::XalanDOMString"* (%"class.xalanc_1_10::XalanEXSLTFunctionLog"*, %"class.xalanc_1_10::XalanDOMString"*)** %vfn, align 8, !dbg !4341
  %call4 = invoke dereferenceable(40) %"class.xalanc_1_10::XalanDOMString"* %5(%"class.xalanc_1_10::XalanEXSLTFunctionLog"* %this1, %"class.xalanc_1_10::XalanDOMString"* dereferenceable(40) %call2)
          to label %invoke.cont3 unwind label %lpad, !dbg !4341

invoke.cont3:                                     ; preds = %invoke.cont
  %6 = load %"class.xalanc_1_10::XalanNode"*, %"class.xalanc_1_10::XalanNode"** %context.addr, align 8, !dbg !4342
  %7 = load %"class.xercesc_2_7::Locator"*, %"class.xercesc_2_7::Locator"** %locator.addr, align 8, !dbg !4343
  %8 = bitcast %"class.xalanc_1_10::XPathExecutionContext"* %3 to void (%"class.xalanc_1_10::XPathExecutionContext"*, %"class.xalanc_1_10::XalanDOMString"*, %"class.xalanc_1_10::XalanNode"*, %"class.xercesc_2_7::Locator"*)***, !dbg !4344
  %vtable5 = load void (%"class.xalanc_1_10::XPathExecutionContext"*, %"class.xalanc_1_10::XalanDOMString"*, %"class.xalanc_1_10::XalanNode"*, %"class.xercesc_2_7::Locator"*)**, void (%"class.xalanc_1_10::XPathExecutionContext"*, %"class.xalanc_1_10::XalanDOMString"*, %"class.xalanc_1_10::XalanNode"*, %"class.xercesc_2_7::Locator"*)*** %8, align 8, !dbg !4344
  %vfn6 = getelementptr inbounds void (%"class.xalanc_1_10::XPathExecutionContext"*, %"class.xalanc_1_10::XalanDOMString"*, %"class.xalanc_1_10::XalanNode"*, %"class.xercesc_2_7::Locator"*)*, void (%"class.xalanc_1_10::XPathExecutionContext"*, %"class.xalanc_1_10::XalanDOMString"*, %"class.xalanc_1_10::XalanNode"*, %"class.xercesc_2_7::Locator"*)** %vtable5, i64 2, !dbg !4344
  %9 = load void (%"class.xalanc_1_10::XPathExecutionContext"*, %"class.xalanc_1_10::XalanDOMString"*, %"class.xalanc_1_10::XalanNode"*, %"class.xercesc_2_7::Locator"*)*, void (%"class.xalanc_1_10::XPathExecutionContext"*, %"class.xalanc_1_10::XalanDOMString"*, %"class.xalanc_1_10::XalanNode"*, %"class.xercesc_2_7::Locator"*)** %vfn6, align 8, !dbg !4344
  invoke void %9(%"class.xalanc_1_10::XPathExecutionContext"* %3, %"class.xalanc_1_10::XalanDOMString"* dereferenceable(40) %call4, %"class.xalanc_1_10::XalanNode"* %6, %"class.xercesc_2_7::Locator"* %7)
          to label %invoke.cont7 unwind label %lpad, !dbg !4344

invoke.cont7:                                     ; preds = %invoke.cont3
  call void @_ZN11xalanc_1_1021XPathExecutionContext25GetAndReleaseCachedStringD2Ev(%"class.xalanc_1_10::XPathExecutionContext::GetAndReleaseCachedString"* %theGuard) #5, !dbg !4345
  br label %if.end, !dbg !4346

lpad:                                             ; preds = %invoke.cont3, %invoke.cont, %if.then
  %10 = landingpad { i8*, i32 }
          cleanup, !dbg !4347
  %11 = extractvalue { i8*, i32 } %10, 0, !dbg !4347
  store i8* %11, i8** %exn.slot, align 8, !dbg !4347
  %12 = extractvalue { i8*, i32 } %10, 1, !dbg !4347
  store i32 %12, i32* %ehselector.slot, align 4, !dbg !4347
  call void @_ZN11xalanc_1_1021XPathExecutionContext25GetAndReleaseCachedStringD2Ev(%"class.xalanc_1_10::XPathExecutionContext::GetAndReleaseCachedString"* %theGuard) #5, !dbg !4345
  br label %eh.resume, !dbg !4345

if.end:                                           ; preds = %invoke.cont7, %entry
  %13 = load %"class.xalanc_1_10::XPathExecutionContext"*, %"class.xalanc_1_10::XPathExecutionContext"** %executionContext.addr, align 8, !dbg !4348
  %call8 = call dereferenceable(16) %"class.xalanc_1_10::XObjectFactory"* @_ZNK11xalanc_1_1021XPathExecutionContext17getXObjectFactoryEv(%"class.xalanc_1_10::XPathExecutionContext"* %13), !dbg !4349
  %14 = load %"class.xalanc_1_10::XalanVector"*, %"class.xalanc_1_10::XalanVector"** %args.addr, align 8, !dbg !4350
  %call9 = call dereferenceable(8) %"class.xalanc_1_10::XObjectPtr"* @_ZNK11xalanc_1_1011XalanVectorINS_10XObjectPtrENS_31MemoryManagedConstructionTraitsIS1_EEEixEm(%"class.xalanc_1_10::XalanVector"* %14, i64 0), !dbg !4350
  %call10 = call %"class.xalanc_1_10::XObject"* @_ZNK11xalanc_1_1010XObjectPtrptEv(%"class.xalanc_1_10::XObjectPtr"* %call9), !dbg !4350
  %15 = bitcast %"class.xalanc_1_10::XObject"* %call10 to double (%"class.xalanc_1_10::XObject"*)***, !dbg !4351
  %vtable11 = load double (%"class.xalanc_1_10::XObject"*)**, double (%"class.xalanc_1_10::XObject"*)*** %15, align 8, !dbg !4351
  %vfn12 = getelementptr inbounds double (%"class.xalanc_1_10::XObject"*)*, double (%"class.xalanc_1_10::XObject"*)** %vtable11, i64 6, !dbg !4351
  %16 = load double (%"class.xalanc_1_10::XObject"*)*, double (%"class.xalanc_1_10::XObject"*)** %vfn12, align 8, !dbg !4351
  %call13 = call double %16(%"class.xalanc_1_10::XObject"* %call10), !dbg !4351
  %call14 = call double @log(double %call13) #5, !dbg !4352
  %17 = bitcast %"class.xalanc_1_10::XObjectFactory"* %call8 to void (%"class.xalanc_1_10::XObjectPtr"*, %"class.xalanc_1_10::XObjectFactory"*, double)***, !dbg !4353
  %vtable15 = load void (%"class.xalanc_1_10::XObjectPtr"*, %"class.xalanc_1_10::XObjectFactory"*, double)**, void (%"class.xalanc_1_10::XObjectPtr"*, %"class.xalanc_1_10::XObjectFactory"*, double)*** %17, align 8, !dbg !4353
  %vfn16 = getelementptr inbounds void (%"class.xalanc_1_10::XObjectPtr"*, %"class.xalanc_1_10::XObjectFactory"*, double)*, void (%"class.xalanc_1_10::XObjectPtr"*, %"class.xalanc_1_10::XObjectFactory"*, double)** %vtable15, i64 7, !dbg !4353
  %18 = load void (%"class.xalanc_1_10::XObjectPtr"*, %"class.xalanc_1_10::XObjectFactory"*, double)*, void (%"class.xalanc_1_10::XObjectPtr"*, %"class.xalanc_1_10::XObjectFactory"*, double)** %vfn16, align 8, !dbg !4353
  call void %18(%"class.xalanc_1_10::XObjectPtr"* sret %agg.result, %"class.xalanc_1_10::XObjectFactory"* %call8, double %call14), !dbg !4353
  ret void, !dbg !4354

eh.resume:                                        ; preds = %lpad
  %exn = load i8*, i8** %exn.slot, align 8, !dbg !4345
  %sel = load i32, i32* %ehselector.slot, align 4, !dbg !4345
  %lpad.val = insertvalue { i8*, i32 } undef, i8* %exn, 0, !dbg !4345
  %lpad.val17 = insertvalue { i8*, i32 } %lpad.val, i32 %sel, 1, !dbg !4345
  resume { i8*, i32 } %lpad.val17, !dbg !4345
}

; Function Attrs: nounwind
declare dso_local double @log(double) #4

; Function Attrs: noinline uwtable
define dso_local dereferenceable(40) %"class.xalanc_1_10::XalanDOMString"* @_ZNK11xalanc_1_1021XalanEXSLTFunctionLog8getErrorERNS_14XalanDOMStringE(%"class.xalanc_1_10::XalanEXSLTFunctionLog"* %this, %"class.xalanc_1_10::XalanDOMString"* dereferenceable(40) %theBuffer) unnamed_addr #0 align 2 !dbg !4355 {
entry:
  %this.addr = alloca %"class.xalanc_1_10::XalanEXSLTFunctionLog"*, align 8
  %theBuffer.addr = alloca %"class.xalanc_1_10::XalanDOMString"*, align 8
  store %"class.xalanc_1_10::XalanEXSLTFunctionLog"* %this, %"class.xalanc_1_10::XalanEXSLTFunctionLog"** %this.addr, align 8
  call void @llvm.dbg.declare(metadata %"class.xalanc_1_10::XalanEXSLTFunctionLog"** %this.addr, metadata !4356, metadata !DIExpression()), !dbg !4357
  store %"class.xalanc_1_10::XalanDOMString"* %theBuffer, %"class.xalanc_1_10::XalanDOMString"** %theBuffer.addr, align 8
  call void @llvm.dbg.declare(metadata %"class.xalanc_1_10::XalanDOMString"** %theBuffer.addr, metadata !4358, metadata !DIExpression()), !dbg !4359
  %this1 = load %"class.xalanc_1_10::XalanEXSLTFunctionLog"*, %"class.xalanc_1_10::XalanEXSLTFunctionLog"** %this.addr, align 8
  %0 = load %"class.xalanc_1_10::XalanDOMString"*, %"class.xalanc_1_10::XalanDOMString"** %theBuffer.addr, align 8, !dbg !4360
  %call = call dereferenceable(40) %"class.xalanc_1_10::XalanDOMString"* @_ZN11xalanc_1_1018XalanMessageLoader10getMessageERNS_14XalanDOMStringENS_13XalanMessages5CodesEPKtS6_S6_S6_(%"class.xalanc_1_10::XalanDOMString"* dereferenceable(40) %0, i32 145, i16* getelementptr inbounds ([4 x i16], [4 x i16]* @_ZN11xalanc_1_10L17s_logFunctionNameE, i64 0, i64 0), i16* null, i16* null, i16* null), !dbg !4361
  ret %"class.xalanc_1_10::XalanDOMString"* %call, !dbg !4362
}

; Function Attrs: noinline uwtable
define dso_local void @_ZNK11xalanc_1_1023XalanEXSLTFunctionPower7executeERNS_21XPathExecutionContextEPNS_9XalanNodeERKNS_11XalanVectorINS_10XObjectPtrENS_31MemoryManagedConstructionTraitsIS6_EEEEPKN11xercesc_2_77LocatorE(%"class.xalanc_1_10::XObjectPtr"* noalias sret %agg.result, %"class.xalanc_1_10::XalanEXSLTFunctionPower"* %this, %"class.xalanc_1_10::XPathExecutionContext"* dereferenceable(24) %executionContext, %"class.xalanc_1_10::XalanNode"* %context, %"class.xalanc_1_10::XalanVector"* dereferenceable(32) %args, %"class.xercesc_2_7::Locator"* %locator) unnamed_addr #0 align 2 personality i8* bitcast (i32 (...)* @__gxx_personality_v0 to i8*) !dbg !4363 {
entry:
  %result.ptr = alloca i8*, align 8
  %this.addr = alloca %"class.xalanc_1_10::XalanEXSLTFunctionPower"*, align 8
  %executionContext.addr = alloca %"class.xalanc_1_10::XPathExecutionContext"*, align 8
  %context.addr = alloca %"class.xalanc_1_10::XalanNode"*, align 8
  %args.addr = alloca %"class.xalanc_1_10::XalanVector"*, align 8
  %locator.addr = alloca %"class.xercesc_2_7::Locator"*, align 8
  %theGuard = alloca %"class.xalanc_1_10::XPathExecutionContext::GetAndReleaseCachedString", align 8
  %exn.slot = alloca i8*
  %ehselector.slot = alloca i32
  %0 = bitcast %"class.xalanc_1_10::XObjectPtr"* %agg.result to i8*
  store i8* %0, i8** %result.ptr, align 8
  store %"class.xalanc_1_10::XalanEXSLTFunctionPower"* %this, %"class.xalanc_1_10::XalanEXSLTFunctionPower"** %this.addr, align 8
  call void @llvm.dbg.declare(metadata %"class.xalanc_1_10::XalanEXSLTFunctionPower"** %this.addr, metadata !4364, metadata !DIExpression()), !dbg !4366
  store %"class.xalanc_1_10::XPathExecutionContext"* %executionContext, %"class.xalanc_1_10::XPathExecutionContext"** %executionContext.addr, align 8
  call void @llvm.dbg.declare(metadata %"class.xalanc_1_10::XPathExecutionContext"** %executionContext.addr, metadata !4367, metadata !DIExpression()), !dbg !4368
  store %"class.xalanc_1_10::XalanNode"* %context, %"class.xalanc_1_10::XalanNode"** %context.addr, align 8
  call void @llvm.dbg.declare(metadata %"class.xalanc_1_10::XalanNode"** %context.addr, metadata !4369, metadata !DIExpression()), !dbg !4370
  store %"class.xalanc_1_10::XalanVector"* %args, %"class.xalanc_1_10::XalanVector"** %args.addr, align 8
  call void @llvm.dbg.declare(metadata %"class.xalanc_1_10::XalanVector"** %args.addr, metadata !4371, metadata !DIExpression()), !dbg !4372
  store %"class.xercesc_2_7::Locator"* %locator, %"class.xercesc_2_7::Locator"** %locator.addr, align 8
  call void @llvm.dbg.declare(metadata %"class.xercesc_2_7::Locator"** %locator.addr, metadata !4373, metadata !DIExpression()), !dbg !4374
  %this1 = load %"class.xalanc_1_10::XalanEXSLTFunctionPower"*, %"class.xalanc_1_10::XalanEXSLTFunctionPower"** %this.addr, align 8
  %1 = load %"class.xalanc_1_10::XalanVector"*, %"class.xalanc_1_10::XalanVector"** %args.addr, align 8, !dbg !4375
  %call = call i64 @_ZNK11xalanc_1_1011XalanVectorINS_10XObjectPtrENS_31MemoryManagedConstructionTraitsIS1_EEE4sizeEv(%"class.xalanc_1_10::XalanVector"* %1), !dbg !4377
  %cmp = icmp ne i64 %call, 2, !dbg !4378
  br i1 %cmp, label %if.then, label %if.end, !dbg !4379

if.then:                                          ; preds = %entry
  call void @llvm.dbg.declare(metadata %"class.xalanc_1_10::XPathExecutionContext::GetAndReleaseCachedString"* %theGuard, metadata !4380, metadata !DIExpression()), !dbg !4382
  %2 = load %"class.xalanc_1_10::XPathExecutionContext"*, %"class.xalanc_1_10::XPathExecutionContext"** %executionContext.addr, align 8, !dbg !4383
  call void @_ZN11xalanc_1_1021XPathExecutionContext25GetAndReleaseCachedStringC2ERS0_(%"class.xalanc_1_10::XPathExecutionContext::GetAndReleaseCachedString"* %theGuard, %"class.xalanc_1_10::XPathExecutionContext"* dereferenceable(24) %2), !dbg !4382
  %3 = load %"class.xalanc_1_10::XPathExecutionContext"*, %"class.xalanc_1_10::XPathExecutionContext"** %executionContext.addr, align 8, !dbg !4384
  %call2 = invoke dereferenceable(40) %"class.xalanc_1_10::XalanDOMString"* @_ZNK11xalanc_1_1021XPathExecutionContext25GetAndReleaseCachedString3getEv(%"class.xalanc_1_10::XPathExecutionContext::GetAndReleaseCachedString"* %theGuard)
          to label %invoke.cont unwind label %lpad, !dbg !4385

invoke.cont:                                      ; preds = %if.then
  %4 = bitcast %"class.xalanc_1_10::XalanEXSLTFunctionPower"* %this1 to %"class.xalanc_1_10::XalanDOMString"* (%"class.xalanc_1_10::XalanEXSLTFunctionPower"*, %"class.xalanc_1_10::XalanDOMString"*)***, !dbg !4386
  %vtable = load %"class.xalanc_1_10::XalanDOMString"* (%"class.xalanc_1_10::XalanEXSLTFunctionPower"*, %"class.xalanc_1_10::XalanDOMString"*)**, %"class.xalanc_1_10::XalanDOMString"* (%"class.xalanc_1_10::XalanEXSLTFunctionPower"*, %"class.xalanc_1_10::XalanDOMString"*)*** %4, align 8, !dbg !4386
  %vfn = getelementptr inbounds %"class.xalanc_1_10::XalanDOMString"* (%"class.xalanc_1_10::XalanEXSLTFunctionPower"*, %"class.xalanc_1_10::XalanDOMString"*)*, %"class.xalanc_1_10::XalanDOMString"* (%"class.xalanc_1_10::XalanEXSLTFunctionPower"*, %"class.xalanc_1_10::XalanDOMString"*)** %vtable, i64 8, !dbg !4386
  %5 = load %"class.xalanc_1_10::XalanDOMString"* (%"class.xalanc_1_10::XalanEXSLTFunctionPower"*, %"class.xalanc_1_10::XalanDOMString"*)*, %"class.xalanc_1_10::XalanDOMString"* (%"class.xalanc_1_10::XalanEXSLTFunctionPower"*, %"class.xalanc_1_10::XalanDOMString"*)** %vfn, align 8, !dbg !4386
  %call4 = invoke dereferenceable(40) %"class.xalanc_1_10::XalanDOMString"* %5(%"class.xalanc_1_10::XalanEXSLTFunctionPower"* %this1, %"class.xalanc_1_10::XalanDOMString"* dereferenceable(40) %call2)
          to label %invoke.cont3 unwind label %lpad, !dbg !4386

invoke.cont3:                                     ; preds = %invoke.cont
  %6 = load %"class.xalanc_1_10::XalanNode"*, %"class.xalanc_1_10::XalanNode"** %context.addr, align 8, !dbg !4387
  %7 = load %"class.xercesc_2_7::Locator"*, %"class.xercesc_2_7::Locator"** %locator.addr, align 8, !dbg !4388
  %8 = bitcast %"class.xalanc_1_10::XPathExecutionContext"* %3 to void (%"class.xalanc_1_10::XPathExecutionContext"*, %"class.xalanc_1_10::XalanDOMString"*, %"class.xalanc_1_10::XalanNode"*, %"class.xercesc_2_7::Locator"*)***, !dbg !4389
  %vtable5 = load void (%"class.xalanc_1_10::XPathExecutionContext"*, %"class.xalanc_1_10::XalanDOMString"*, %"class.xalanc_1_10::XalanNode"*, %"class.xercesc_2_7::Locator"*)**, void (%"class.xalanc_1_10::XPathExecutionContext"*, %"class.xalanc_1_10::XalanDOMString"*, %"class.xalanc_1_10::XalanNode"*, %"class.xercesc_2_7::Locator"*)*** %8, align 8, !dbg !4389
  %vfn6 = getelementptr inbounds void (%"class.xalanc_1_10::XPathExecutionContext"*, %"class.xalanc_1_10::XalanDOMString"*, %"class.xalanc_1_10::XalanNode"*, %"class.xercesc_2_7::Locator"*)*, void (%"class.xalanc_1_10::XPathExecutionContext"*, %"class.xalanc_1_10::XalanDOMString"*, %"class.xalanc_1_10::XalanNode"*, %"class.xercesc_2_7::Locator"*)** %vtable5, i64 2, !dbg !4389
  %9 = load void (%"class.xalanc_1_10::XPathExecutionContext"*, %"class.xalanc_1_10::XalanDOMString"*, %"class.xalanc_1_10::XalanNode"*, %"class.xercesc_2_7::Locator"*)*, void (%"class.xalanc_1_10::XPathExecutionContext"*, %"class.xalanc_1_10::XalanDOMString"*, %"class.xalanc_1_10::XalanNode"*, %"class.xercesc_2_7::Locator"*)** %vfn6, align 8, !dbg !4389
  invoke void %9(%"class.xalanc_1_10::XPathExecutionContext"* %3, %"class.xalanc_1_10::XalanDOMString"* dereferenceable(40) %call4, %"class.xalanc_1_10::XalanNode"* %6, %"class.xercesc_2_7::Locator"* %7)
          to label %invoke.cont7 unwind label %lpad, !dbg !4389

invoke.cont7:                                     ; preds = %invoke.cont3
  call void @_ZN11xalanc_1_1021XPathExecutionContext25GetAndReleaseCachedStringD2Ev(%"class.xalanc_1_10::XPathExecutionContext::GetAndReleaseCachedString"* %theGuard) #5, !dbg !4390
  br label %if.end, !dbg !4391

lpad:                                             ; preds = %invoke.cont3, %invoke.cont, %if.then
  %10 = landingpad { i8*, i32 }
          cleanup, !dbg !4392
  %11 = extractvalue { i8*, i32 } %10, 0, !dbg !4392
  store i8* %11, i8** %exn.slot, align 8, !dbg !4392
  %12 = extractvalue { i8*, i32 } %10, 1, !dbg !4392
  store i32 %12, i32* %ehselector.slot, align 4, !dbg !4392
  call void @_ZN11xalanc_1_1021XPathExecutionContext25GetAndReleaseCachedStringD2Ev(%"class.xalanc_1_10::XPathExecutionContext::GetAndReleaseCachedString"* %theGuard) #5, !dbg !4390
  br label %eh.resume, !dbg !4390

if.end:                                           ; preds = %invoke.cont7, %entry
  %13 = load %"class.xalanc_1_10::XPathExecutionContext"*, %"class.xalanc_1_10::XPathExecutionContext"** %executionContext.addr, align 8, !dbg !4393
  %call8 = call dereferenceable(16) %"class.xalanc_1_10::XObjectFactory"* @_ZNK11xalanc_1_1021XPathExecutionContext17getXObjectFactoryEv(%"class.xalanc_1_10::XPathExecutionContext"* %13), !dbg !4394
  %14 = load %"class.xalanc_1_10::XalanVector"*, %"class.xalanc_1_10::XalanVector"** %args.addr, align 8, !dbg !4395
  %call9 = call dereferenceable(8) %"class.xalanc_1_10::XObjectPtr"* @_ZNK11xalanc_1_1011XalanVectorINS_10XObjectPtrENS_31MemoryManagedConstructionTraitsIS1_EEEixEm(%"class.xalanc_1_10::XalanVector"* %14, i64 0), !dbg !4395
  %call10 = call %"class.xalanc_1_10::XObject"* @_ZNK11xalanc_1_1010XObjectPtrptEv(%"class.xalanc_1_10::XObjectPtr"* %call9), !dbg !4395
  %15 = bitcast %"class.xalanc_1_10::XObject"* %call10 to double (%"class.xalanc_1_10::XObject"*)***, !dbg !4396
  %vtable11 = load double (%"class.xalanc_1_10::XObject"*)**, double (%"class.xalanc_1_10::XObject"*)*** %15, align 8, !dbg !4396
  %vfn12 = getelementptr inbounds double (%"class.xalanc_1_10::XObject"*)*, double (%"class.xalanc_1_10::XObject"*)** %vtable11, i64 6, !dbg !4396
  %16 = load double (%"class.xalanc_1_10::XObject"*)*, double (%"class.xalanc_1_10::XObject"*)** %vfn12, align 8, !dbg !4396
  %call13 = call double %16(%"class.xalanc_1_10::XObject"* %call10), !dbg !4396
  %17 = load %"class.xalanc_1_10::XalanVector"*, %"class.xalanc_1_10::XalanVector"** %args.addr, align 8, !dbg !4397
  %call14 = call dereferenceable(8) %"class.xalanc_1_10::XObjectPtr"* @_ZNK11xalanc_1_1011XalanVectorINS_10XObjectPtrENS_31MemoryManagedConstructionTraitsIS1_EEEixEm(%"class.xalanc_1_10::XalanVector"* %17, i64 1), !dbg !4397
  %call15 = call %"class.xalanc_1_10::XObject"* @_ZNK11xalanc_1_1010XObjectPtrptEv(%"class.xalanc_1_10::XObjectPtr"* %call14), !dbg !4397
  %18 = bitcast %"class.xalanc_1_10::XObject"* %call15 to double (%"class.xalanc_1_10::XObject"*)***, !dbg !4398
  %vtable16 = load double (%"class.xalanc_1_10::XObject"*)**, double (%"class.xalanc_1_10::XObject"*)*** %18, align 8, !dbg !4398
  %vfn17 = getelementptr inbounds double (%"class.xalanc_1_10::XObject"*)*, double (%"class.xalanc_1_10::XObject"*)** %vtable16, i64 6, !dbg !4398
  %19 = load double (%"class.xalanc_1_10::XObject"*)*, double (%"class.xalanc_1_10::XObject"*)** %vfn17, align 8, !dbg !4398
  %call18 = call double %19(%"class.xalanc_1_10::XObject"* %call15), !dbg !4398
  %call19 = call double @pow(double %call13, double %call18) #5, !dbg !4399
  %20 = bitcast %"class.xalanc_1_10::XObjectFactory"* %call8 to void (%"class.xalanc_1_10::XObjectPtr"*, %"class.xalanc_1_10::XObjectFactory"*, double)***, !dbg !4400
  %vtable20 = load void (%"class.xalanc_1_10::XObjectPtr"*, %"class.xalanc_1_10::XObjectFactory"*, double)**, void (%"class.xalanc_1_10::XObjectPtr"*, %"class.xalanc_1_10::XObjectFactory"*, double)*** %20, align 8, !dbg !4400
  %vfn21 = getelementptr inbounds void (%"class.xalanc_1_10::XObjectPtr"*, %"class.xalanc_1_10::XObjectFactory"*, double)*, void (%"class.xalanc_1_10::XObjectPtr"*, %"class.xalanc_1_10::XObjectFactory"*, double)** %vtable20, i64 7, !dbg !4400
  %21 = load void (%"class.xalanc_1_10::XObjectPtr"*, %"class.xalanc_1_10::XObjectFactory"*, double)*, void (%"class.xalanc_1_10::XObjectPtr"*, %"class.xalanc_1_10::XObjectFactory"*, double)** %vfn21, align 8, !dbg !4400
  call void %21(%"class.xalanc_1_10::XObjectPtr"* sret %agg.result, %"class.xalanc_1_10::XObjectFactory"* %call8, double %call19), !dbg !4400
  ret void, !dbg !4401

eh.resume:                                        ; preds = %lpad
  %exn = load i8*, i8** %exn.slot, align 8, !dbg !4390
  %sel = load i32, i32* %ehselector.slot, align 4, !dbg !4390
  %lpad.val = insertvalue { i8*, i32 } undef, i8* %exn, 0, !dbg !4390
  %lpad.val22 = insertvalue { i8*, i32 } %lpad.val, i32 %sel, 1, !dbg !4390
  resume { i8*, i32 } %lpad.val22, !dbg !4390
}

; Function Attrs: nounwind
declare dso_local double @pow(double, double) #4

; Function Attrs: noinline uwtable
define dso_local dereferenceable(40) %"class.xalanc_1_10::XalanDOMString"* @_ZNK11xalanc_1_1023XalanEXSLTFunctionPower8getErrorERNS_14XalanDOMStringE(%"class.xalanc_1_10::XalanEXSLTFunctionPower"* %this, %"class.xalanc_1_10::XalanDOMString"* dereferenceable(40) %theBuffer) unnamed_addr #0 align 2 !dbg !4402 {
entry:
  %this.addr = alloca %"class.xalanc_1_10::XalanEXSLTFunctionPower"*, align 8
  %theBuffer.addr = alloca %"class.xalanc_1_10::XalanDOMString"*, align 8
  store %"class.xalanc_1_10::XalanEXSLTFunctionPower"* %this, %"class.xalanc_1_10::XalanEXSLTFunctionPower"** %this.addr, align 8
  call void @llvm.dbg.declare(metadata %"class.xalanc_1_10::XalanEXSLTFunctionPower"** %this.addr, metadata !4403, metadata !DIExpression()), !dbg !4404
  store %"class.xalanc_1_10::XalanDOMString"* %theBuffer, %"class.xalanc_1_10::XalanDOMString"** %theBuffer.addr, align 8
  call void @llvm.dbg.declare(metadata %"class.xalanc_1_10::XalanDOMString"** %theBuffer.addr, metadata !4405, metadata !DIExpression()), !dbg !4406
  %this1 = load %"class.xalanc_1_10::XalanEXSLTFunctionPower"*, %"class.xalanc_1_10::XalanEXSLTFunctionPower"** %this.addr, align 8
  %0 = load %"class.xalanc_1_10::XalanDOMString"*, %"class.xalanc_1_10::XalanDOMString"** %theBuffer.addr, align 8, !dbg !4407
  %call = call dereferenceable(40) %"class.xalanc_1_10::XalanDOMString"* @_ZN11xalanc_1_1018XalanMessageLoader10getMessageERNS_14XalanDOMStringENS_13XalanMessages5CodesEPKtS6_S6_S6_(%"class.xalanc_1_10::XalanDOMString"* dereferenceable(40) %0, i32 147, i16* getelementptr inbounds ([6 x i16], [6 x i16]* @_ZN11xalanc_1_10L19s_powerFunctionNameE, i64 0, i64 0), i16* null, i16* null, i16* null), !dbg !4408
  ret %"class.xalanc_1_10::XalanDOMString"* %call, !dbg !4409
}

; Function Attrs: noinline uwtable
define dso_local void @_ZNK11xalanc_1_1021XalanEXSLTFunctionSin7executeERNS_21XPathExecutionContextEPNS_9XalanNodeERKNS_11XalanVectorINS_10XObjectPtrENS_31MemoryManagedConstructionTraitsIS6_EEEEPKN11xercesc_2_77LocatorE(%"class.xalanc_1_10::XObjectPtr"* noalias sret %agg.result, %"class.xalanc_1_10::XalanEXSLTFunctionSin"* %this, %"class.xalanc_1_10::XPathExecutionContext"* dereferenceable(24) %executionContext, %"class.xalanc_1_10::XalanNode"* %context, %"class.xalanc_1_10::XalanVector"* dereferenceable(32) %args, %"class.xercesc_2_7::Locator"* %locator) unnamed_addr #0 align 2 personality i8* bitcast (i32 (...)* @__gxx_personality_v0 to i8*) !dbg !4410 {
entry:
  %result.ptr = alloca i8*, align 8
  %this.addr = alloca %"class.xalanc_1_10::XalanEXSLTFunctionSin"*, align 8
  %executionContext.addr = alloca %"class.xalanc_1_10::XPathExecutionContext"*, align 8
  %context.addr = alloca %"class.xalanc_1_10::XalanNode"*, align 8
  %args.addr = alloca %"class.xalanc_1_10::XalanVector"*, align 8
  %locator.addr = alloca %"class.xercesc_2_7::Locator"*, align 8
  %theGuard = alloca %"class.xalanc_1_10::XPathExecutionContext::GetAndReleaseCachedString", align 8
  %exn.slot = alloca i8*
  %ehselector.slot = alloca i32
  %0 = bitcast %"class.xalanc_1_10::XObjectPtr"* %agg.result to i8*
  store i8* %0, i8** %result.ptr, align 8
  store %"class.xalanc_1_10::XalanEXSLTFunctionSin"* %this, %"class.xalanc_1_10::XalanEXSLTFunctionSin"** %this.addr, align 8
  call void @llvm.dbg.declare(metadata %"class.xalanc_1_10::XalanEXSLTFunctionSin"** %this.addr, metadata !4411, metadata !DIExpression()), !dbg !4413
  store %"class.xalanc_1_10::XPathExecutionContext"* %executionContext, %"class.xalanc_1_10::XPathExecutionContext"** %executionContext.addr, align 8
  call void @llvm.dbg.declare(metadata %"class.xalanc_1_10::XPathExecutionContext"** %executionContext.addr, metadata !4414, metadata !DIExpression()), !dbg !4415
  store %"class.xalanc_1_10::XalanNode"* %context, %"class.xalanc_1_10::XalanNode"** %context.addr, align 8
  call void @llvm.dbg.declare(metadata %"class.xalanc_1_10::XalanNode"** %context.addr, metadata !4416, metadata !DIExpression()), !dbg !4417
  store %"class.xalanc_1_10::XalanVector"* %args, %"class.xalanc_1_10::XalanVector"** %args.addr, align 8
  call void @llvm.dbg.declare(metadata %"class.xalanc_1_10::XalanVector"** %args.addr, metadata !4418, metadata !DIExpression()), !dbg !4419
  store %"class.xercesc_2_7::Locator"* %locator, %"class.xercesc_2_7::Locator"** %locator.addr, align 8
  call void @llvm.dbg.declare(metadata %"class.xercesc_2_7::Locator"** %locator.addr, metadata !4420, metadata !DIExpression()), !dbg !4421
  %this1 = load %"class.xalanc_1_10::XalanEXSLTFunctionSin"*, %"class.xalanc_1_10::XalanEXSLTFunctionSin"** %this.addr, align 8
  %1 = load %"class.xalanc_1_10::XalanVector"*, %"class.xalanc_1_10::XalanVector"** %args.addr, align 8, !dbg !4422
  %call = call i64 @_ZNK11xalanc_1_1011XalanVectorINS_10XObjectPtrENS_31MemoryManagedConstructionTraitsIS1_EEE4sizeEv(%"class.xalanc_1_10::XalanVector"* %1), !dbg !4424
  %cmp = icmp ne i64 %call, 1, !dbg !4425
  br i1 %cmp, label %if.then, label %if.end, !dbg !4426

if.then:                                          ; preds = %entry
  call void @llvm.dbg.declare(metadata %"class.xalanc_1_10::XPathExecutionContext::GetAndReleaseCachedString"* %theGuard, metadata !4427, metadata !DIExpression()), !dbg !4429
  %2 = load %"class.xalanc_1_10::XPathExecutionContext"*, %"class.xalanc_1_10::XPathExecutionContext"** %executionContext.addr, align 8, !dbg !4430
  call void @_ZN11xalanc_1_1021XPathExecutionContext25GetAndReleaseCachedStringC2ERS0_(%"class.xalanc_1_10::XPathExecutionContext::GetAndReleaseCachedString"* %theGuard, %"class.xalanc_1_10::XPathExecutionContext"* dereferenceable(24) %2), !dbg !4429
  %3 = load %"class.xalanc_1_10::XPathExecutionContext"*, %"class.xalanc_1_10::XPathExecutionContext"** %executionContext.addr, align 8, !dbg !4431
  %call2 = invoke dereferenceable(40) %"class.xalanc_1_10::XalanDOMString"* @_ZNK11xalanc_1_1021XPathExecutionContext25GetAndReleaseCachedString3getEv(%"class.xalanc_1_10::XPathExecutionContext::GetAndReleaseCachedString"* %theGuard)
          to label %invoke.cont unwind label %lpad, !dbg !4432

invoke.cont:                                      ; preds = %if.then
  %4 = bitcast %"class.xalanc_1_10::XalanEXSLTFunctionSin"* %this1 to %"class.xalanc_1_10::XalanDOMString"* (%"class.xalanc_1_10::XalanEXSLTFunctionSin"*, %"class.xalanc_1_10::XalanDOMString"*)***, !dbg !4433
  %vtable = load %"class.xalanc_1_10::XalanDOMString"* (%"class.xalanc_1_10::XalanEXSLTFunctionSin"*, %"class.xalanc_1_10::XalanDOMString"*)**, %"class.xalanc_1_10::XalanDOMString"* (%"class.xalanc_1_10::XalanEXSLTFunctionSin"*, %"class.xalanc_1_10::XalanDOMString"*)*** %4, align 8, !dbg !4433
  %vfn = getelementptr inbounds %"class.xalanc_1_10::XalanDOMString"* (%"class.xalanc_1_10::XalanEXSLTFunctionSin"*, %"class.xalanc_1_10::XalanDOMString"*)*, %"class.xalanc_1_10::XalanDOMString"* (%"class.xalanc_1_10::XalanEXSLTFunctionSin"*, %"class.xalanc_1_10::XalanDOMString"*)** %vtable, i64 8, !dbg !4433
  %5 = load %"class.xalanc_1_10::XalanDOMString"* (%"class.xalanc_1_10::XalanEXSLTFunctionSin"*, %"class.xalanc_1_10::XalanDOMString"*)*, %"class.xalanc_1_10::XalanDOMString"* (%"class.xalanc_1_10::XalanEXSLTFunctionSin"*, %"class.xalanc_1_10::XalanDOMString"*)** %vfn, align 8, !dbg !4433
  %call4 = invoke dereferenceable(40) %"class.xalanc_1_10::XalanDOMString"* %5(%"class.xalanc_1_10::XalanEXSLTFunctionSin"* %this1, %"class.xalanc_1_10::XalanDOMString"* dereferenceable(40) %call2)
          to label %invoke.cont3 unwind label %lpad, !dbg !4433

invoke.cont3:                                     ; preds = %invoke.cont
  %6 = load %"class.xalanc_1_10::XalanNode"*, %"class.xalanc_1_10::XalanNode"** %context.addr, align 8, !dbg !4434
  %7 = load %"class.xercesc_2_7::Locator"*, %"class.xercesc_2_7::Locator"** %locator.addr, align 8, !dbg !4435
  %8 = bitcast %"class.xalanc_1_10::XPathExecutionContext"* %3 to void (%"class.xalanc_1_10::XPathExecutionContext"*, %"class.xalanc_1_10::XalanDOMString"*, %"class.xalanc_1_10::XalanNode"*, %"class.xercesc_2_7::Locator"*)***, !dbg !4436
  %vtable5 = load void (%"class.xalanc_1_10::XPathExecutionContext"*, %"class.xalanc_1_10::XalanDOMString"*, %"class.xalanc_1_10::XalanNode"*, %"class.xercesc_2_7::Locator"*)**, void (%"class.xalanc_1_10::XPathExecutionContext"*, %"class.xalanc_1_10::XalanDOMString"*, %"class.xalanc_1_10::XalanNode"*, %"class.xercesc_2_7::Locator"*)*** %8, align 8, !dbg !4436
  %vfn6 = getelementptr inbounds void (%"class.xalanc_1_10::XPathExecutionContext"*, %"class.xalanc_1_10::XalanDOMString"*, %"class.xalanc_1_10::XalanNode"*, %"class.xercesc_2_7::Locator"*)*, void (%"class.xalanc_1_10::XPathExecutionContext"*, %"class.xalanc_1_10::XalanDOMString"*, %"class.xalanc_1_10::XalanNode"*, %"class.xercesc_2_7::Locator"*)** %vtable5, i64 2, !dbg !4436
  %9 = load void (%"class.xalanc_1_10::XPathExecutionContext"*, %"class.xalanc_1_10::XalanDOMString"*, %"class.xalanc_1_10::XalanNode"*, %"class.xercesc_2_7::Locator"*)*, void (%"class.xalanc_1_10::XPathExecutionContext"*, %"class.xalanc_1_10::XalanDOMString"*, %"class.xalanc_1_10::XalanNode"*, %"class.xercesc_2_7::Locator"*)** %vfn6, align 8, !dbg !4436
  invoke void %9(%"class.xalanc_1_10::XPathExecutionContext"* %3, %"class.xalanc_1_10::XalanDOMString"* dereferenceable(40) %call4, %"class.xalanc_1_10::XalanNode"* %6, %"class.xercesc_2_7::Locator"* %7)
          to label %invoke.cont7 unwind label %lpad, !dbg !4436

invoke.cont7:                                     ; preds = %invoke.cont3
  call void @_ZN11xalanc_1_1021XPathExecutionContext25GetAndReleaseCachedStringD2Ev(%"class.xalanc_1_10::XPathExecutionContext::GetAndReleaseCachedString"* %theGuard) #5, !dbg !4437
  br label %if.end, !dbg !4438

lpad:                                             ; preds = %invoke.cont3, %invoke.cont, %if.then
  %10 = landingpad { i8*, i32 }
          cleanup, !dbg !4439
  %11 = extractvalue { i8*, i32 } %10, 0, !dbg !4439
  store i8* %11, i8** %exn.slot, align 8, !dbg !4439
  %12 = extractvalue { i8*, i32 } %10, 1, !dbg !4439
  store i32 %12, i32* %ehselector.slot, align 4, !dbg !4439
  call void @_ZN11xalanc_1_1021XPathExecutionContext25GetAndReleaseCachedStringD2Ev(%"class.xalanc_1_10::XPathExecutionContext::GetAndReleaseCachedString"* %theGuard) #5, !dbg !4437
  br label %eh.resume, !dbg !4437

if.end:                                           ; preds = %invoke.cont7, %entry
  %13 = load %"class.xalanc_1_10::XPathExecutionContext"*, %"class.xalanc_1_10::XPathExecutionContext"** %executionContext.addr, align 8, !dbg !4440
  %call8 = call dereferenceable(16) %"class.xalanc_1_10::XObjectFactory"* @_ZNK11xalanc_1_1021XPathExecutionContext17getXObjectFactoryEv(%"class.xalanc_1_10::XPathExecutionContext"* %13), !dbg !4441
  %14 = load %"class.xalanc_1_10::XalanVector"*, %"class.xalanc_1_10::XalanVector"** %args.addr, align 8, !dbg !4442
  %call9 = call dereferenceable(8) %"class.xalanc_1_10::XObjectPtr"* @_ZNK11xalanc_1_1011XalanVectorINS_10XObjectPtrENS_31MemoryManagedConstructionTraitsIS1_EEEixEm(%"class.xalanc_1_10::XalanVector"* %14, i64 0), !dbg !4442
  %call10 = call %"class.xalanc_1_10::XObject"* @_ZNK11xalanc_1_1010XObjectPtrptEv(%"class.xalanc_1_10::XObjectPtr"* %call9), !dbg !4442
  %15 = bitcast %"class.xalanc_1_10::XObject"* %call10 to double (%"class.xalanc_1_10::XObject"*)***, !dbg !4443
  %vtable11 = load double (%"class.xalanc_1_10::XObject"*)**, double (%"class.xalanc_1_10::XObject"*)*** %15, align 8, !dbg !4443
  %vfn12 = getelementptr inbounds double (%"class.xalanc_1_10::XObject"*)*, double (%"class.xalanc_1_10::XObject"*)** %vtable11, i64 6, !dbg !4443
  %16 = load double (%"class.xalanc_1_10::XObject"*)*, double (%"class.xalanc_1_10::XObject"*)** %vfn12, align 8, !dbg !4443
  %call13 = call double %16(%"class.xalanc_1_10::XObject"* %call10), !dbg !4443
  %call14 = call double @sin(double %call13) #5, !dbg !4444
  %17 = bitcast %"class.xalanc_1_10::XObjectFactory"* %call8 to void (%"class.xalanc_1_10::XObjectPtr"*, %"class.xalanc_1_10::XObjectFactory"*, double)***, !dbg !4445
  %vtable15 = load void (%"class.xalanc_1_10::XObjectPtr"*, %"class.xalanc_1_10::XObjectFactory"*, double)**, void (%"class.xalanc_1_10::XObjectPtr"*, %"class.xalanc_1_10::XObjectFactory"*, double)*** %17, align 8, !dbg !4445
  %vfn16 = getelementptr inbounds void (%"class.xalanc_1_10::XObjectPtr"*, %"class.xalanc_1_10::XObjectFactory"*, double)*, void (%"class.xalanc_1_10::XObjectPtr"*, %"class.xalanc_1_10::XObjectFactory"*, double)** %vtable15, i64 7, !dbg !4445
  %18 = load void (%"class.xalanc_1_10::XObjectPtr"*, %"class.xalanc_1_10::XObjectFactory"*, double)*, void (%"class.xalanc_1_10::XObjectPtr"*, %"class.xalanc_1_10::XObjectFactory"*, double)** %vfn16, align 8, !dbg !4445
  call void %18(%"class.xalanc_1_10::XObjectPtr"* sret %agg.result, %"class.xalanc_1_10::XObjectFactory"* %call8, double %call14), !dbg !4445
  ret void, !dbg !4446

eh.resume:                                        ; preds = %lpad
  %exn = load i8*, i8** %exn.slot, align 8, !dbg !4437
  %sel = load i32, i32* %ehselector.slot, align 4, !dbg !4437
  %lpad.val = insertvalue { i8*, i32 } undef, i8* %exn, 0, !dbg !4437
  %lpad.val17 = insertvalue { i8*, i32 } %lpad.val, i32 %sel, 1, !dbg !4437
  resume { i8*, i32 } %lpad.val17, !dbg !4437
}

; Function Attrs: nounwind
declare dso_local double @sin(double) #4

; Function Attrs: noinline uwtable
define dso_local dereferenceable(40) %"class.xalanc_1_10::XalanDOMString"* @_ZNK11xalanc_1_1021XalanEXSLTFunctionSin8getErrorERNS_14XalanDOMStringE(%"class.xalanc_1_10::XalanEXSLTFunctionSin"* %this, %"class.xalanc_1_10::XalanDOMString"* dereferenceable(40) %theBuffer) unnamed_addr #0 align 2 !dbg !4447 {
entry:
  %this.addr = alloca %"class.xalanc_1_10::XalanEXSLTFunctionSin"*, align 8
  %theBuffer.addr = alloca %"class.xalanc_1_10::XalanDOMString"*, align 8
  store %"class.xalanc_1_10::XalanEXSLTFunctionSin"* %this, %"class.xalanc_1_10::XalanEXSLTFunctionSin"** %this.addr, align 8
  call void @llvm.dbg.declare(metadata %"class.xalanc_1_10::XalanEXSLTFunctionSin"** %this.addr, metadata !4448, metadata !DIExpression()), !dbg !4449
  store %"class.xalanc_1_10::XalanDOMString"* %theBuffer, %"class.xalanc_1_10::XalanDOMString"** %theBuffer.addr, align 8
  call void @llvm.dbg.declare(metadata %"class.xalanc_1_10::XalanDOMString"** %theBuffer.addr, metadata !4450, metadata !DIExpression()), !dbg !4451
  %this1 = load %"class.xalanc_1_10::XalanEXSLTFunctionSin"*, %"class.xalanc_1_10::XalanEXSLTFunctionSin"** %this.addr, align 8
  %0 = load %"class.xalanc_1_10::XalanDOMString"*, %"class.xalanc_1_10::XalanDOMString"** %theBuffer.addr, align 8, !dbg !4452
  %call = call dereferenceable(40) %"class.xalanc_1_10::XalanDOMString"* @_ZN11xalanc_1_1018XalanMessageLoader10getMessageERNS_14XalanDOMStringENS_13XalanMessages5CodesEPKtS6_S6_S6_(%"class.xalanc_1_10::XalanDOMString"* dereferenceable(40) %0, i32 145, i16* getelementptr inbounds ([4 x i16], [4 x i16]* @_ZN11xalanc_1_10L17s_sinFunctionNameE, i64 0, i64 0), i16* null, i16* null, i16* null), !dbg !4453
  ret %"class.xalanc_1_10::XalanDOMString"* %call, !dbg !4454
}

; Function Attrs: noinline uwtable
define dso_local void @_ZNK11xalanc_1_1022XalanEXSLTFunctionSqrt7executeERNS_21XPathExecutionContextEPNS_9XalanNodeERKNS_11XalanVectorINS_10XObjectPtrENS_31MemoryManagedConstructionTraitsIS6_EEEEPKN11xercesc_2_77LocatorE(%"class.xalanc_1_10::XObjectPtr"* noalias sret %agg.result, %"class.xalanc_1_10::XalanEXSLTFunctionSqrt"* %this, %"class.xalanc_1_10::XPathExecutionContext"* dereferenceable(24) %executionContext, %"class.xalanc_1_10::XalanNode"* %context, %"class.xalanc_1_10::XalanVector"* dereferenceable(32) %args, %"class.xercesc_2_7::Locator"* %locator) unnamed_addr #0 align 2 personality i8* bitcast (i32 (...)* @__gxx_personality_v0 to i8*) !dbg !4455 {
entry:
  %result.ptr = alloca i8*, align 8
  %this.addr = alloca %"class.xalanc_1_10::XalanEXSLTFunctionSqrt"*, align 8
  %executionContext.addr = alloca %"class.xalanc_1_10::XPathExecutionContext"*, align 8
  %context.addr = alloca %"class.xalanc_1_10::XalanNode"*, align 8
  %args.addr = alloca %"class.xalanc_1_10::XalanVector"*, align 8
  %locator.addr = alloca %"class.xercesc_2_7::Locator"*, align 8
  %theGuard = alloca %"class.xalanc_1_10::XPathExecutionContext::GetAndReleaseCachedString", align 8
  %exn.slot = alloca i8*
  %ehselector.slot = alloca i32
  %0 = bitcast %"class.xalanc_1_10::XObjectPtr"* %agg.result to i8*
  store i8* %0, i8** %result.ptr, align 8
  store %"class.xalanc_1_10::XalanEXSLTFunctionSqrt"* %this, %"class.xalanc_1_10::XalanEXSLTFunctionSqrt"** %this.addr, align 8
  call void @llvm.dbg.declare(metadata %"class.xalanc_1_10::XalanEXSLTFunctionSqrt"** %this.addr, metadata !4456, metadata !DIExpression()), !dbg !4458
  store %"class.xalanc_1_10::XPathExecutionContext"* %executionContext, %"class.xalanc_1_10::XPathExecutionContext"** %executionContext.addr, align 8
  call void @llvm.dbg.declare(metadata %"class.xalanc_1_10::XPathExecutionContext"** %executionContext.addr, metadata !4459, metadata !DIExpression()), !dbg !4460
  store %"class.xalanc_1_10::XalanNode"* %context, %"class.xalanc_1_10::XalanNode"** %context.addr, align 8
  call void @llvm.dbg.declare(metadata %"class.xalanc_1_10::XalanNode"** %context.addr, metadata !4461, metadata !DIExpression()), !dbg !4462
  store %"class.xalanc_1_10::XalanVector"* %args, %"class.xalanc_1_10::XalanVector"** %args.addr, align 8
  call void @llvm.dbg.declare(metadata %"class.xalanc_1_10::XalanVector"** %args.addr, metadata !4463, metadata !DIExpression()), !dbg !4464
  store %"class.xercesc_2_7::Locator"* %locator, %"class.xercesc_2_7::Locator"** %locator.addr, align 8
  call void @llvm.dbg.declare(metadata %"class.xercesc_2_7::Locator"** %locator.addr, metadata !4465, metadata !DIExpression()), !dbg !4466
  %this1 = load %"class.xalanc_1_10::XalanEXSLTFunctionSqrt"*, %"class.xalanc_1_10::XalanEXSLTFunctionSqrt"** %this.addr, align 8
  %1 = load %"class.xalanc_1_10::XalanVector"*, %"class.xalanc_1_10::XalanVector"** %args.addr, align 8, !dbg !4467
  %call = call i64 @_ZNK11xalanc_1_1011XalanVectorINS_10XObjectPtrENS_31MemoryManagedConstructionTraitsIS1_EEE4sizeEv(%"class.xalanc_1_10::XalanVector"* %1), !dbg !4469
  %cmp = icmp ne i64 %call, 1, !dbg !4470
  br i1 %cmp, label %if.then, label %if.end, !dbg !4471

if.then:                                          ; preds = %entry
  call void @llvm.dbg.declare(metadata %"class.xalanc_1_10::XPathExecutionContext::GetAndReleaseCachedString"* %theGuard, metadata !4472, metadata !DIExpression()), !dbg !4474
  %2 = load %"class.xalanc_1_10::XPathExecutionContext"*, %"class.xalanc_1_10::XPathExecutionContext"** %executionContext.addr, align 8, !dbg !4475
  call void @_ZN11xalanc_1_1021XPathExecutionContext25GetAndReleaseCachedStringC2ERS0_(%"class.xalanc_1_10::XPathExecutionContext::GetAndReleaseCachedString"* %theGuard, %"class.xalanc_1_10::XPathExecutionContext"* dereferenceable(24) %2), !dbg !4474
  %3 = load %"class.xalanc_1_10::XPathExecutionContext"*, %"class.xalanc_1_10::XPathExecutionContext"** %executionContext.addr, align 8, !dbg !4476
  %call2 = invoke dereferenceable(40) %"class.xalanc_1_10::XalanDOMString"* @_ZNK11xalanc_1_1021XPathExecutionContext25GetAndReleaseCachedString3getEv(%"class.xalanc_1_10::XPathExecutionContext::GetAndReleaseCachedString"* %theGuard)
          to label %invoke.cont unwind label %lpad, !dbg !4477

invoke.cont:                                      ; preds = %if.then
  %4 = bitcast %"class.xalanc_1_10::XalanEXSLTFunctionSqrt"* %this1 to %"class.xalanc_1_10::XalanDOMString"* (%"class.xalanc_1_10::XalanEXSLTFunctionSqrt"*, %"class.xalanc_1_10::XalanDOMString"*)***, !dbg !4478
  %vtable = load %"class.xalanc_1_10::XalanDOMString"* (%"class.xalanc_1_10::XalanEXSLTFunctionSqrt"*, %"class.xalanc_1_10::XalanDOMString"*)**, %"class.xalanc_1_10::XalanDOMString"* (%"class.xalanc_1_10::XalanEXSLTFunctionSqrt"*, %"class.xalanc_1_10::XalanDOMString"*)*** %4, align 8, !dbg !4478
  %vfn = getelementptr inbounds %"class.xalanc_1_10::XalanDOMString"* (%"class.xalanc_1_10::XalanEXSLTFunctionSqrt"*, %"class.xalanc_1_10::XalanDOMString"*)*, %"class.xalanc_1_10::XalanDOMString"* (%"class.xalanc_1_10::XalanEXSLTFunctionSqrt"*, %"class.xalanc_1_10::XalanDOMString"*)** %vtable, i64 8, !dbg !4478
  %5 = load %"class.xalanc_1_10::XalanDOMString"* (%"class.xalanc_1_10::XalanEXSLTFunctionSqrt"*, %"class.xalanc_1_10::XalanDOMString"*)*, %"class.xalanc_1_10::XalanDOMString"* (%"class.xalanc_1_10::XalanEXSLTFunctionSqrt"*, %"class.xalanc_1_10::XalanDOMString"*)** %vfn, align 8, !dbg !4478
  %call4 = invoke dereferenceable(40) %"class.xalanc_1_10::XalanDOMString"* %5(%"class.xalanc_1_10::XalanEXSLTFunctionSqrt"* %this1, %"class.xalanc_1_10::XalanDOMString"* dereferenceable(40) %call2)
          to label %invoke.cont3 unwind label %lpad, !dbg !4478

invoke.cont3:                                     ; preds = %invoke.cont
  %6 = load %"class.xalanc_1_10::XalanNode"*, %"class.xalanc_1_10::XalanNode"** %context.addr, align 8, !dbg !4479
  %7 = load %"class.xercesc_2_7::Locator"*, %"class.xercesc_2_7::Locator"** %locator.addr, align 8, !dbg !4480
  %8 = bitcast %"class.xalanc_1_10::XPathExecutionContext"* %3 to void (%"class.xalanc_1_10::XPathExecutionContext"*, %"class.xalanc_1_10::XalanDOMString"*, %"class.xalanc_1_10::XalanNode"*, %"class.xercesc_2_7::Locator"*)***, !dbg !4481
  %vtable5 = load void (%"class.xalanc_1_10::XPathExecutionContext"*, %"class.xalanc_1_10::XalanDOMString"*, %"class.xalanc_1_10::XalanNode"*, %"class.xercesc_2_7::Locator"*)**, void (%"class.xalanc_1_10::XPathExecutionContext"*, %"class.xalanc_1_10::XalanDOMString"*, %"class.xalanc_1_10::XalanNode"*, %"class.xercesc_2_7::Locator"*)*** %8, align 8, !dbg !4481
  %vfn6 = getelementptr inbounds void (%"class.xalanc_1_10::XPathExecutionContext"*, %"class.xalanc_1_10::XalanDOMString"*, %"class.xalanc_1_10::XalanNode"*, %"class.xercesc_2_7::Locator"*)*, void (%"class.xalanc_1_10::XPathExecutionContext"*, %"class.xalanc_1_10::XalanDOMString"*, %"class.xalanc_1_10::XalanNode"*, %"class.xercesc_2_7::Locator"*)** %vtable5, i64 2, !dbg !4481
  %9 = load void (%"class.xalanc_1_10::XPathExecutionContext"*, %"class.xalanc_1_10::XalanDOMString"*, %"class.xalanc_1_10::XalanNode"*, %"class.xercesc_2_7::Locator"*)*, void (%"class.xalanc_1_10::XPathExecutionContext"*, %"class.xalanc_1_10::XalanDOMString"*, %"class.xalanc_1_10::XalanNode"*, %"class.xercesc_2_7::Locator"*)** %vfn6, align 8, !dbg !4481
  invoke void %9(%"class.xalanc_1_10::XPathExecutionContext"* %3, %"class.xalanc_1_10::XalanDOMString"* dereferenceable(40) %call4, %"class.xalanc_1_10::XalanNode"* %6, %"class.xercesc_2_7::Locator"* %7)
          to label %invoke.cont7 unwind label %lpad, !dbg !4481

invoke.cont7:                                     ; preds = %invoke.cont3
  call void @_ZN11xalanc_1_1021XPathExecutionContext25GetAndReleaseCachedStringD2Ev(%"class.xalanc_1_10::XPathExecutionContext::GetAndReleaseCachedString"* %theGuard) #5, !dbg !4482
  br label %if.end, !dbg !4483

lpad:                                             ; preds = %invoke.cont3, %invoke.cont, %if.then
  %10 = landingpad { i8*, i32 }
          cleanup, !dbg !4484
  %11 = extractvalue { i8*, i32 } %10, 0, !dbg !4484
  store i8* %11, i8** %exn.slot, align 8, !dbg !4484
  %12 = extractvalue { i8*, i32 } %10, 1, !dbg !4484
  store i32 %12, i32* %ehselector.slot, align 4, !dbg !4484
  call void @_ZN11xalanc_1_1021XPathExecutionContext25GetAndReleaseCachedStringD2Ev(%"class.xalanc_1_10::XPathExecutionContext::GetAndReleaseCachedString"* %theGuard) #5, !dbg !4482
  br label %eh.resume, !dbg !4482

if.end:                                           ; preds = %invoke.cont7, %entry
  %13 = load %"class.xalanc_1_10::XPathExecutionContext"*, %"class.xalanc_1_10::XPathExecutionContext"** %executionContext.addr, align 8, !dbg !4485
  %call8 = call dereferenceable(16) %"class.xalanc_1_10::XObjectFactory"* @_ZNK11xalanc_1_1021XPathExecutionContext17getXObjectFactoryEv(%"class.xalanc_1_10::XPathExecutionContext"* %13), !dbg !4486
  %14 = load %"class.xalanc_1_10::XalanVector"*, %"class.xalanc_1_10::XalanVector"** %args.addr, align 8, !dbg !4487
  %call9 = call dereferenceable(8) %"class.xalanc_1_10::XObjectPtr"* @_ZNK11xalanc_1_1011XalanVectorINS_10XObjectPtrENS_31MemoryManagedConstructionTraitsIS1_EEEixEm(%"class.xalanc_1_10::XalanVector"* %14, i64 0), !dbg !4487
  %call10 = call %"class.xalanc_1_10::XObject"* @_ZNK11xalanc_1_1010XObjectPtrptEv(%"class.xalanc_1_10::XObjectPtr"* %call9), !dbg !4487
  %15 = bitcast %"class.xalanc_1_10::XObject"* %call10 to double (%"class.xalanc_1_10::XObject"*)***, !dbg !4488
  %vtable11 = load double (%"class.xalanc_1_10::XObject"*)**, double (%"class.xalanc_1_10::XObject"*)*** %15, align 8, !dbg !4488
  %vfn12 = getelementptr inbounds double (%"class.xalanc_1_10::XObject"*)*, double (%"class.xalanc_1_10::XObject"*)** %vtable11, i64 6, !dbg !4488
  %16 = load double (%"class.xalanc_1_10::XObject"*)*, double (%"class.xalanc_1_10::XObject"*)** %vfn12, align 8, !dbg !4488
  %call13 = call double %16(%"class.xalanc_1_10::XObject"* %call10), !dbg !4488
  %call14 = call double @sqrt(double %call13) #5, !dbg !4489
  %17 = bitcast %"class.xalanc_1_10::XObjectFactory"* %call8 to void (%"class.xalanc_1_10::XObjectPtr"*, %"class.xalanc_1_10::XObjectFactory"*, double)***, !dbg !4490
  %vtable15 = load void (%"class.xalanc_1_10::XObjectPtr"*, %"class.xalanc_1_10::XObjectFactory"*, double)**, void (%"class.xalanc_1_10::XObjectPtr"*, %"class.xalanc_1_10::XObjectFactory"*, double)*** %17, align 8, !dbg !4490
  %vfn16 = getelementptr inbounds void (%"class.xalanc_1_10::XObjectPtr"*, %"class.xalanc_1_10::XObjectFactory"*, double)*, void (%"class.xalanc_1_10::XObjectPtr"*, %"class.xalanc_1_10::XObjectFactory"*, double)** %vtable15, i64 7, !dbg !4490
  %18 = load void (%"class.xalanc_1_10::XObjectPtr"*, %"class.xalanc_1_10::XObjectFactory"*, double)*, void (%"class.xalanc_1_10::XObjectPtr"*, %"class.xalanc_1_10::XObjectFactory"*, double)** %vfn16, align 8, !dbg !4490
  call void %18(%"class.xalanc_1_10::XObjectPtr"* sret %agg.result, %"class.xalanc_1_10::XObjectFactory"* %call8, double %call14), !dbg !4490
  ret void, !dbg !4491

eh.resume:                                        ; preds = %lpad
  %exn = load i8*, i8** %exn.slot, align 8, !dbg !4482
  %sel = load i32, i32* %ehselector.slot, align 4, !dbg !4482
  %lpad.val = insertvalue { i8*, i32 } undef, i8* %exn, 0, !dbg !4482
  %lpad.val17 = insertvalue { i8*, i32 } %lpad.val, i32 %sel, 1, !dbg !4482
  resume { i8*, i32 } %lpad.val17, !dbg !4482
}

; Function Attrs: nounwind
declare dso_local double @sqrt(double) #4

; Function Attrs: noinline uwtable
define dso_local dereferenceable(40) %"class.xalanc_1_10::XalanDOMString"* @_ZNK11xalanc_1_1022XalanEXSLTFunctionSqrt8getErrorERNS_14XalanDOMStringE(%"class.xalanc_1_10::XalanEXSLTFunctionSqrt"* %this, %"class.xalanc_1_10::XalanDOMString"* dereferenceable(40) %theBuffer) unnamed_addr #0 align 2 !dbg !4492 {
entry:
  %this.addr = alloca %"class.xalanc_1_10::XalanEXSLTFunctionSqrt"*, align 8
  %theBuffer.addr = alloca %"class.xalanc_1_10::XalanDOMString"*, align 8
  store %"class.xalanc_1_10::XalanEXSLTFunctionSqrt"* %this, %"class.xalanc_1_10::XalanEXSLTFunctionSqrt"** %this.addr, align 8
  call void @llvm.dbg.declare(metadata %"class.xalanc_1_10::XalanEXSLTFunctionSqrt"** %this.addr, metadata !4493, metadata !DIExpression()), !dbg !4494
  store %"class.xalanc_1_10::XalanDOMString"* %theBuffer, %"class.xalanc_1_10::XalanDOMString"** %theBuffer.addr, align 8
  call void @llvm.dbg.declare(metadata %"class.xalanc_1_10::XalanDOMString"** %theBuffer.addr, metadata !4495, metadata !DIExpression()), !dbg !4496
  %this1 = load %"class.xalanc_1_10::XalanEXSLTFunctionSqrt"*, %"class.xalanc_1_10::XalanEXSLTFunctionSqrt"** %this.addr, align 8
  %0 = load %"class.xalanc_1_10::XalanDOMString"*, %"class.xalanc_1_10::XalanDOMString"** %theBuffer.addr, align 8, !dbg !4497
  %call = call dereferenceable(40) %"class.xalanc_1_10::XalanDOMString"* @_ZN11xalanc_1_1018XalanMessageLoader10getMessageERNS_14XalanDOMStringENS_13XalanMessages5CodesEPKtS6_S6_S6_(%"class.xalanc_1_10::XalanDOMString"* dereferenceable(40) %0, i32 145, i16* getelementptr inbounds ([5 x i16], [5 x i16]* @_ZN11xalanc_1_10L18s_sqrtFunctionNameE, i64 0, i64 0), i16* null, i16* null, i16* null), !dbg !4498
  ret %"class.xalanc_1_10::XalanDOMString"* %call, !dbg !4499
}

; Function Attrs: noinline uwtable
define dso_local void @_ZNK11xalanc_1_1021XalanEXSLTFunctionTan7executeERNS_21XPathExecutionContextEPNS_9XalanNodeERKNS_11XalanVectorINS_10XObjectPtrENS_31MemoryManagedConstructionTraitsIS6_EEEEPKN11xercesc_2_77LocatorE(%"class.xalanc_1_10::XObjectPtr"* noalias sret %agg.result, %"class.xalanc_1_10::XalanEXSLTFunctionTan"* %this, %"class.xalanc_1_10::XPathExecutionContext"* dereferenceable(24) %executionContext, %"class.xalanc_1_10::XalanNode"* %context, %"class.xalanc_1_10::XalanVector"* dereferenceable(32) %args, %"class.xercesc_2_7::Locator"* %locator) unnamed_addr #0 align 2 personality i8* bitcast (i32 (...)* @__gxx_personality_v0 to i8*) !dbg !4500 {
entry:
  %result.ptr = alloca i8*, align 8
  %this.addr = alloca %"class.xalanc_1_10::XalanEXSLTFunctionTan"*, align 8
  %executionContext.addr = alloca %"class.xalanc_1_10::XPathExecutionContext"*, align 8
  %context.addr = alloca %"class.xalanc_1_10::XalanNode"*, align 8
  %args.addr = alloca %"class.xalanc_1_10::XalanVector"*, align 8
  %locator.addr = alloca %"class.xercesc_2_7::Locator"*, align 8
  %theGuard = alloca %"class.xalanc_1_10::XPathExecutionContext::GetAndReleaseCachedString", align 8
  %exn.slot = alloca i8*
  %ehselector.slot = alloca i32
  %0 = bitcast %"class.xalanc_1_10::XObjectPtr"* %agg.result to i8*
  store i8* %0, i8** %result.ptr, align 8
  store %"class.xalanc_1_10::XalanEXSLTFunctionTan"* %this, %"class.xalanc_1_10::XalanEXSLTFunctionTan"** %this.addr, align 8
  call void @llvm.dbg.declare(metadata %"class.xalanc_1_10::XalanEXSLTFunctionTan"** %this.addr, metadata !4501, metadata !DIExpression()), !dbg !4503
  store %"class.xalanc_1_10::XPathExecutionContext"* %executionContext, %"class.xalanc_1_10::XPathExecutionContext"** %executionContext.addr, align 8
  call void @llvm.dbg.declare(metadata %"class.xalanc_1_10::XPathExecutionContext"** %executionContext.addr, metadata !4504, metadata !DIExpression()), !dbg !4505
  store %"class.xalanc_1_10::XalanNode"* %context, %"class.xalanc_1_10::XalanNode"** %context.addr, align 8
  call void @llvm.dbg.declare(metadata %"class.xalanc_1_10::XalanNode"** %context.addr, metadata !4506, metadata !DIExpression()), !dbg !4507
  store %"class.xalanc_1_10::XalanVector"* %args, %"class.xalanc_1_10::XalanVector"** %args.addr, align 8
  call void @llvm.dbg.declare(metadata %"class.xalanc_1_10::XalanVector"** %args.addr, metadata !4508, metadata !DIExpression()), !dbg !4509
  store %"class.xercesc_2_7::Locator"* %locator, %"class.xercesc_2_7::Locator"** %locator.addr, align 8
  call void @llvm.dbg.declare(metadata %"class.xercesc_2_7::Locator"** %locator.addr, metadata !4510, metadata !DIExpression()), !dbg !4511
  %this1 = load %"class.xalanc_1_10::XalanEXSLTFunctionTan"*, %"class.xalanc_1_10::XalanEXSLTFunctionTan"** %this.addr, align 8
  %1 = load %"class.xalanc_1_10::XalanVector"*, %"class.xalanc_1_10::XalanVector"** %args.addr, align 8, !dbg !4512
  %call = call i64 @_ZNK11xalanc_1_1011XalanVectorINS_10XObjectPtrENS_31MemoryManagedConstructionTraitsIS1_EEE4sizeEv(%"class.xalanc_1_10::XalanVector"* %1), !dbg !4514
  %cmp = icmp ne i64 %call, 1, !dbg !4515
  br i1 %cmp, label %if.then, label %if.end, !dbg !4516

if.then:                                          ; preds = %entry
  call void @llvm.dbg.declare(metadata %"class.xalanc_1_10::XPathExecutionContext::GetAndReleaseCachedString"* %theGuard, metadata !4517, metadata !DIExpression()), !dbg !4519
  %2 = load %"class.xalanc_1_10::XPathExecutionContext"*, %"class.xalanc_1_10::XPathExecutionContext"** %executionContext.addr, align 8, !dbg !4520
  call void @_ZN11xalanc_1_1021XPathExecutionContext25GetAndReleaseCachedStringC2ERS0_(%"class.xalanc_1_10::XPathExecutionContext::GetAndReleaseCachedString"* %theGuard, %"class.xalanc_1_10::XPathExecutionContext"* dereferenceable(24) %2), !dbg !4519
  %3 = load %"class.xalanc_1_10::XPathExecutionContext"*, %"class.xalanc_1_10::XPathExecutionContext"** %executionContext.addr, align 8, !dbg !4521
  %call2 = invoke dereferenceable(40) %"class.xalanc_1_10::XalanDOMString"* @_ZNK11xalanc_1_1021XPathExecutionContext25GetAndReleaseCachedString3getEv(%"class.xalanc_1_10::XPathExecutionContext::GetAndReleaseCachedString"* %theGuard)
          to label %invoke.cont unwind label %lpad, !dbg !4522

invoke.cont:                                      ; preds = %if.then
  %4 = bitcast %"class.xalanc_1_10::XalanEXSLTFunctionTan"* %this1 to %"class.xalanc_1_10::XalanDOMString"* (%"class.xalanc_1_10::XalanEXSLTFunctionTan"*, %"class.xalanc_1_10::XalanDOMString"*)***, !dbg !4523
  %vtable = load %"class.xalanc_1_10::XalanDOMString"* (%"class.xalanc_1_10::XalanEXSLTFunctionTan"*, %"class.xalanc_1_10::XalanDOMString"*)**, %"class.xalanc_1_10::XalanDOMString"* (%"class.xalanc_1_10::XalanEXSLTFunctionTan"*, %"class.xalanc_1_10::XalanDOMString"*)*** %4, align 8, !dbg !4523
  %vfn = getelementptr inbounds %"class.xalanc_1_10::XalanDOMString"* (%"class.xalanc_1_10::XalanEXSLTFunctionTan"*, %"class.xalanc_1_10::XalanDOMString"*)*, %"class.xalanc_1_10::XalanDOMString"* (%"class.xalanc_1_10::XalanEXSLTFunctionTan"*, %"class.xalanc_1_10::XalanDOMString"*)** %vtable, i64 8, !dbg !4523
  %5 = load %"class.xalanc_1_10::XalanDOMString"* (%"class.xalanc_1_10::XalanEXSLTFunctionTan"*, %"class.xalanc_1_10::XalanDOMString"*)*, %"class.xalanc_1_10::XalanDOMString"* (%"class.xalanc_1_10::XalanEXSLTFunctionTan"*, %"class.xalanc_1_10::XalanDOMString"*)** %vfn, align 8, !dbg !4523
  %call4 = invoke dereferenceable(40) %"class.xalanc_1_10::XalanDOMString"* %5(%"class.xalanc_1_10::XalanEXSLTFunctionTan"* %this1, %"class.xalanc_1_10::XalanDOMString"* dereferenceable(40) %call2)
          to label %invoke.cont3 unwind label %lpad, !dbg !4523

invoke.cont3:                                     ; preds = %invoke.cont
  %6 = load %"class.xalanc_1_10::XalanNode"*, %"class.xalanc_1_10::XalanNode"** %context.addr, align 8, !dbg !4524
  %7 = load %"class.xercesc_2_7::Locator"*, %"class.xercesc_2_7::Locator"** %locator.addr, align 8, !dbg !4525
  %8 = bitcast %"class.xalanc_1_10::XPathExecutionContext"* %3 to void (%"class.xalanc_1_10::XPathExecutionContext"*, %"class.xalanc_1_10::XalanDOMString"*, %"class.xalanc_1_10::XalanNode"*, %"class.xercesc_2_7::Locator"*)***, !dbg !4526
  %vtable5 = load void (%"class.xalanc_1_10::XPathExecutionContext"*, %"class.xalanc_1_10::XalanDOMString"*, %"class.xalanc_1_10::XalanNode"*, %"class.xercesc_2_7::Locator"*)**, void (%"class.xalanc_1_10::XPathExecutionContext"*, %"class.xalanc_1_10::XalanDOMString"*, %"class.xalanc_1_10::XalanNode"*, %"class.xercesc_2_7::Locator"*)*** %8, align 8, !dbg !4526
  %vfn6 = getelementptr inbounds void (%"class.xalanc_1_10::XPathExecutionContext"*, %"class.xalanc_1_10::XalanDOMString"*, %"class.xalanc_1_10::XalanNode"*, %"class.xercesc_2_7::Locator"*)*, void (%"class.xalanc_1_10::XPathExecutionContext"*, %"class.xalanc_1_10::XalanDOMString"*, %"class.xalanc_1_10::XalanNode"*, %"class.xercesc_2_7::Locator"*)** %vtable5, i64 2, !dbg !4526
  %9 = load void (%"class.xalanc_1_10::XPathExecutionContext"*, %"class.xalanc_1_10::XalanDOMString"*, %"class.xalanc_1_10::XalanNode"*, %"class.xercesc_2_7::Locator"*)*, void (%"class.xalanc_1_10::XPathExecutionContext"*, %"class.xalanc_1_10::XalanDOMString"*, %"class.xalanc_1_10::XalanNode"*, %"class.xercesc_2_7::Locator"*)** %vfn6, align 8, !dbg !4526
  invoke void %9(%"class.xalanc_1_10::XPathExecutionContext"* %3, %"class.xalanc_1_10::XalanDOMString"* dereferenceable(40) %call4, %"class.xalanc_1_10::XalanNode"* %6, %"class.xercesc_2_7::Locator"* %7)
          to label %invoke.cont7 unwind label %lpad, !dbg !4526

invoke.cont7:                                     ; preds = %invoke.cont3
  call void @_ZN11xalanc_1_1021XPathExecutionContext25GetAndReleaseCachedStringD2Ev(%"class.xalanc_1_10::XPathExecutionContext::GetAndReleaseCachedString"* %theGuard) #5, !dbg !4527
  br label %if.end, !dbg !4528

lpad:                                             ; preds = %invoke.cont3, %invoke.cont, %if.then
  %10 = landingpad { i8*, i32 }
          cleanup, !dbg !4529
  %11 = extractvalue { i8*, i32 } %10, 0, !dbg !4529
  store i8* %11, i8** %exn.slot, align 8, !dbg !4529
  %12 = extractvalue { i8*, i32 } %10, 1, !dbg !4529
  store i32 %12, i32* %ehselector.slot, align 4, !dbg !4529
  call void @_ZN11xalanc_1_1021XPathExecutionContext25GetAndReleaseCachedStringD2Ev(%"class.xalanc_1_10::XPathExecutionContext::GetAndReleaseCachedString"* %theGuard) #5, !dbg !4527
  br label %eh.resume, !dbg !4527

if.end:                                           ; preds = %invoke.cont7, %entry
  %13 = load %"class.xalanc_1_10::XPathExecutionContext"*, %"class.xalanc_1_10::XPathExecutionContext"** %executionContext.addr, align 8, !dbg !4530
  %call8 = call dereferenceable(16) %"class.xalanc_1_10::XObjectFactory"* @_ZNK11xalanc_1_1021XPathExecutionContext17getXObjectFactoryEv(%"class.xalanc_1_10::XPathExecutionContext"* %13), !dbg !4531
  %14 = load %"class.xalanc_1_10::XalanVector"*, %"class.xalanc_1_10::XalanVector"** %args.addr, align 8, !dbg !4532
  %call9 = call dereferenceable(8) %"class.xalanc_1_10::XObjectPtr"* @_ZNK11xalanc_1_1011XalanVectorINS_10XObjectPtrENS_31MemoryManagedConstructionTraitsIS1_EEEixEm(%"class.xalanc_1_10::XalanVector"* %14, i64 0), !dbg !4532
  %call10 = call %"class.xalanc_1_10::XObject"* @_ZNK11xalanc_1_1010XObjectPtrptEv(%"class.xalanc_1_10::XObjectPtr"* %call9), !dbg !4532
  %15 = bitcast %"class.xalanc_1_10::XObject"* %call10 to double (%"class.xalanc_1_10::XObject"*)***, !dbg !4533
  %vtable11 = load double (%"class.xalanc_1_10::XObject"*)**, double (%"class.xalanc_1_10::XObject"*)*** %15, align 8, !dbg !4533
  %vfn12 = getelementptr inbounds double (%"class.xalanc_1_10::XObject"*)*, double (%"class.xalanc_1_10::XObject"*)** %vtable11, i64 6, !dbg !4533
  %16 = load double (%"class.xalanc_1_10::XObject"*)*, double (%"class.xalanc_1_10::XObject"*)** %vfn12, align 8, !dbg !4533
  %call13 = call double %16(%"class.xalanc_1_10::XObject"* %call10), !dbg !4533
  %call14 = call double @tan(double %call13) #5, !dbg !4534
  %17 = bitcast %"class.xalanc_1_10::XObjectFactory"* %call8 to void (%"class.xalanc_1_10::XObjectPtr"*, %"class.xalanc_1_10::XObjectFactory"*, double)***, !dbg !4535
  %vtable15 = load void (%"class.xalanc_1_10::XObjectPtr"*, %"class.xalanc_1_10::XObjectFactory"*, double)**, void (%"class.xalanc_1_10::XObjectPtr"*, %"class.xalanc_1_10::XObjectFactory"*, double)*** %17, align 8, !dbg !4535
  %vfn16 = getelementptr inbounds void (%"class.xalanc_1_10::XObjectPtr"*, %"class.xalanc_1_10::XObjectFactory"*, double)*, void (%"class.xalanc_1_10::XObjectPtr"*, %"class.xalanc_1_10::XObjectFactory"*, double)** %vtable15, i64 7, !dbg !4535
  %18 = load void (%"class.xalanc_1_10::XObjectPtr"*, %"class.xalanc_1_10::XObjectFactory"*, double)*, void (%"class.xalanc_1_10::XObjectPtr"*, %"class.xalanc_1_10::XObjectFactory"*, double)** %vfn16, align 8, !dbg !4535
  call void %18(%"class.xalanc_1_10::XObjectPtr"* sret %agg.result, %"class.xalanc_1_10::XObjectFactory"* %call8, double %call14), !dbg !4535
  ret void, !dbg !4536

eh.resume:                                        ; preds = %lpad
  %exn = load i8*, i8** %exn.slot, align 8, !dbg !4527
  %sel = load i32, i32* %ehselector.slot, align 4, !dbg !4527
  %lpad.val = insertvalue { i8*, i32 } undef, i8* %exn, 0, !dbg !4527
  %lpad.val17 = insertvalue { i8*, i32 } %lpad.val, i32 %sel, 1, !dbg !4527
  resume { i8*, i32 } %lpad.val17, !dbg !4527
}

; Function Attrs: nounwind
declare dso_local double @tan(double) #4

; Function Attrs: noinline uwtable
define dso_local dereferenceable(40) %"class.xalanc_1_10::XalanDOMString"* @_ZNK11xalanc_1_1021XalanEXSLTFunctionTan8getErrorERNS_14XalanDOMStringE(%"class.xalanc_1_10::XalanEXSLTFunctionTan"* %this, %"class.xalanc_1_10::XalanDOMString"* dereferenceable(40) %theBuffer) unnamed_addr #0 align 2 !dbg !4537 {
entry:
  %this.addr = alloca %"class.xalanc_1_10::XalanEXSLTFunctionTan"*, align 8
  %theBuffer.addr = alloca %"class.xalanc_1_10::XalanDOMString"*, align 8
  store %"class.xalanc_1_10::XalanEXSLTFunctionTan"* %this, %"class.xalanc_1_10::XalanEXSLTFunctionTan"** %this.addr, align 8
  call void @llvm.dbg.declare(metadata %"class.xalanc_1_10::XalanEXSLTFunctionTan"** %this.addr, metadata !4538, metadata !DIExpression()), !dbg !4539
  store %"class.xalanc_1_10::XalanDOMString"* %theBuffer, %"class.xalanc_1_10::XalanDOMString"** %theBuffer.addr, align 8
  call void @llvm.dbg.declare(metadata %"class.xalanc_1_10::XalanDOMString"** %theBuffer.addr, metadata !4540, metadata !DIExpression()), !dbg !4541
  %this1 = load %"class.xalanc_1_10::XalanEXSLTFunctionTan"*, %"class.xalanc_1_10::XalanEXSLTFunctionTan"** %this.addr, align 8
  %0 = load %"class.xalanc_1_10::XalanDOMString"*, %"class.xalanc_1_10::XalanDOMString"** %theBuffer.addr, align 8, !dbg !4542
  %call = call dereferenceable(40) %"class.xalanc_1_10::XalanDOMString"* @_ZN11xalanc_1_1018XalanMessageLoader10getMessageERNS_14XalanDOMStringENS_13XalanMessages5CodesEPKtS6_S6_S6_(%"class.xalanc_1_10::XalanDOMString"* dereferenceable(40) %0, i32 145, i16* getelementptr inbounds ([4 x i16], [4 x i16]* @_ZN11xalanc_1_10L17s_tanFunctionNameE, i64 0, i64 0), i16* null, i16* null, i16* null), !dbg !4543
  ret %"class.xalanc_1_10::XalanDOMString"* %call, !dbg !4544
}

; Function Attrs: noinline uwtable
define internal void @__cxx_global_var_init() #0 section ".text.startup" !dbg !4545 {
entry:
  call void @_ZN11xalanc_1_1021XalanEXSLTFunctionAbsC2Ev(%"class.xalanc_1_10::XalanEXSLTFunctionAbs"* @_ZN11xalanc_1_10L13s_absFunctionE), !dbg !4546
  %0 = call i32 @__cxa_atexit(void (i8*)* bitcast (void (%"class.xalanc_1_10::XalanEXSLTFunctionAbs"*)* @_ZN11xalanc_1_1021XalanEXSLTFunctionAbsD2Ev to void (i8*)*), i8* bitcast (%"class.xalanc_1_10::XalanEXSLTFunctionAbs"* @_ZN11xalanc_1_10L13s_absFunctionE to i8*), i8* @__dso_handle) #5, !dbg !4546
  ret void, !dbg !4546
}

; Function Attrs: noinline uwtable
define linkonce_odr dso_local void @_ZN11xalanc_1_1021XalanEXSLTFunctionAbsC2Ev(%"class.xalanc_1_10::XalanEXSLTFunctionAbs"* %this) unnamed_addr #0 comdat align 2 !dbg !4547 {
entry:
  %this.addr = alloca %"class.xalanc_1_10::XalanEXSLTFunctionAbs"*, align 8
  store %"class.xalanc_1_10::XalanEXSLTFunctionAbs"* %this, %"class.xalanc_1_10::XalanEXSLTFunctionAbs"** %this.addr, align 8
  call void @llvm.dbg.declare(metadata %"class.xalanc_1_10::XalanEXSLTFunctionAbs"** %this.addr, metadata !4548, metadata !DIExpression()), !dbg !4549
  %this1 = load %"class.xalanc_1_10::XalanEXSLTFunctionAbs"*, %"class.xalanc_1_10::XalanEXSLTFunctionAbs"** %this.addr, align 8
  %0 = bitcast %"class.xalanc_1_10::XalanEXSLTFunctionAbs"* %this1 to %"class.xalanc_1_10::Function"*, !dbg !4550
  call void @_ZN11xalanc_1_108FunctionC2Ev(%"class.xalanc_1_10::Function"* %0), !dbg !4551
  %1 = bitcast %"class.xalanc_1_10::XalanEXSLTFunctionAbs"* %this1 to i32 (...)***, !dbg !4550
  store i32 (...)** bitcast (i8** getelementptr inbounds ({ [11 x i8*] }, { [11 x i8*] }* @_ZTVN11xalanc_1_1021XalanEXSLTFunctionAbsE, i32 0, inrange i32 0, i32 2) to i32 (...)**), i32 (...)*** %1, align 8, !dbg !4550
  ret void, !dbg !4552
}

; Function Attrs: noinline nounwind uwtable
define linkonce_odr dso_local void @_ZN11xalanc_1_1021XalanEXSLTFunctionAbsD2Ev(%"class.xalanc_1_10::XalanEXSLTFunctionAbs"* %this) unnamed_addr #2 comdat align 2 !dbg !4553 {
entry:
  %this.addr = alloca %"class.xalanc_1_10::XalanEXSLTFunctionAbs"*, align 8
  store %"class.xalanc_1_10::XalanEXSLTFunctionAbs"* %this, %"class.xalanc_1_10::XalanEXSLTFunctionAbs"** %this.addr, align 8
  call void @llvm.dbg.declare(metadata %"class.xalanc_1_10::XalanEXSLTFunctionAbs"** %this.addr, metadata !4554, metadata !DIExpression()), !dbg !4555
  %this1 = load %"class.xalanc_1_10::XalanEXSLTFunctionAbs"*, %"class.xalanc_1_10::XalanEXSLTFunctionAbs"** %this.addr, align 8
  %0 = bitcast %"class.xalanc_1_10::XalanEXSLTFunctionAbs"* %this1 to %"class.xalanc_1_10::Function"*, !dbg !4556
  call void @_ZN11xalanc_1_108FunctionD2Ev(%"class.xalanc_1_10::Function"* %0) #5, !dbg !4556
  ret void, !dbg !4558
}

; Function Attrs: nounwind
declare dso_local i32 @__cxa_atexit(void (i8*)*, i8*, i8*) #5

; Function Attrs: noinline uwtable
define internal void @__cxx_global_var_init.1() #0 section ".text.startup" !dbg !4559 {
entry:
  call void @_ZN11xalanc_1_1022XalanEXSLTFunctionAcosC2Ev(%"class.xalanc_1_10::XalanEXSLTFunctionAcos"* @_ZN11xalanc_1_10L14s_acosFunctionE), !dbg !4560
  %0 = call i32 @__cxa_atexit(void (i8*)* bitcast (void (%"class.xalanc_1_10::XalanEXSLTFunctionAcos"*)* @_ZN11xalanc_1_1022XalanEXSLTFunctionAcosD2Ev to void (i8*)*), i8* bitcast (%"class.xalanc_1_10::XalanEXSLTFunctionAcos"* @_ZN11xalanc_1_10L14s_acosFunctionE to i8*), i8* @__dso_handle) #5, !dbg !4560
  ret void, !dbg !4560
}

; Function Attrs: noinline uwtable
define linkonce_odr dso_local void @_ZN11xalanc_1_1022XalanEXSLTFunctionAcosC2Ev(%"class.xalanc_1_10::XalanEXSLTFunctionAcos"* %this) unnamed_addr #0 comdat align 2 !dbg !4561 {
entry:
  %this.addr = alloca %"class.xalanc_1_10::XalanEXSLTFunctionAcos"*, align 8
  store %"class.xalanc_1_10::XalanEXSLTFunctionAcos"* %this, %"class.xalanc_1_10::XalanEXSLTFunctionAcos"** %this.addr, align 8
  call void @llvm.dbg.declare(metadata %"class.xalanc_1_10::XalanEXSLTFunctionAcos"** %this.addr, metadata !4562, metadata !DIExpression()), !dbg !4563
  %this1 = load %"class.xalanc_1_10::XalanEXSLTFunctionAcos"*, %"class.xalanc_1_10::XalanEXSLTFunctionAcos"** %this.addr, align 8
  %0 = bitcast %"class.xalanc_1_10::XalanEXSLTFunctionAcos"* %this1 to %"class.xalanc_1_10::Function"*, !dbg !4564
  call void @_ZN11xalanc_1_108FunctionC2Ev(%"class.xalanc_1_10::Function"* %0), !dbg !4565
  %1 = bitcast %"class.xalanc_1_10::XalanEXSLTFunctionAcos"* %this1 to i32 (...)***, !dbg !4564
  store i32 (...)** bitcast (i8** getelementptr inbounds ({ [11 x i8*] }, { [11 x i8*] }* @_ZTVN11xalanc_1_1022XalanEXSLTFunctionAcosE, i32 0, inrange i32 0, i32 2) to i32 (...)**), i32 (...)*** %1, align 8, !dbg !4564
  ret void, !dbg !4566
}

; Function Attrs: noinline nounwind uwtable
define linkonce_odr dso_local void @_ZN11xalanc_1_1022XalanEXSLTFunctionAcosD2Ev(%"class.xalanc_1_10::XalanEXSLTFunctionAcos"* %this) unnamed_addr #2 comdat align 2 !dbg !4567 {
entry:
  %this.addr = alloca %"class.xalanc_1_10::XalanEXSLTFunctionAcos"*, align 8
  store %"class.xalanc_1_10::XalanEXSLTFunctionAcos"* %this, %"class.xalanc_1_10::XalanEXSLTFunctionAcos"** %this.addr, align 8
  call void @llvm.dbg.declare(metadata %"class.xalanc_1_10::XalanEXSLTFunctionAcos"** %this.addr, metadata !4568, metadata !DIExpression()), !dbg !4569
  %this1 = load %"class.xalanc_1_10::XalanEXSLTFunctionAcos"*, %"class.xalanc_1_10::XalanEXSLTFunctionAcos"** %this.addr, align 8
  %0 = bitcast %"class.xalanc_1_10::XalanEXSLTFunctionAcos"* %this1 to %"class.xalanc_1_10::Function"*, !dbg !4570
  call void @_ZN11xalanc_1_108FunctionD2Ev(%"class.xalanc_1_10::Function"* %0) #5, !dbg !4570
  ret void, !dbg !4572
}

; Function Attrs: noinline uwtable
define internal void @__cxx_global_var_init.2() #0 section ".text.startup" !dbg !4573 {
entry:
  call void @_ZN11xalanc_1_1022XalanEXSLTFunctionAsinC2Ev(%"class.xalanc_1_10::XalanEXSLTFunctionAsin"* @_ZN11xalanc_1_10L14s_asinFunctionE), !dbg !4574
  %0 = call i32 @__cxa_atexit(void (i8*)* bitcast (void (%"class.xalanc_1_10::XalanEXSLTFunctionAsin"*)* @_ZN11xalanc_1_1022XalanEXSLTFunctionAsinD2Ev to void (i8*)*), i8* bitcast (%"class.xalanc_1_10::XalanEXSLTFunctionAsin"* @_ZN11xalanc_1_10L14s_asinFunctionE to i8*), i8* @__dso_handle) #5, !dbg !4574
  ret void, !dbg !4574
}

; Function Attrs: noinline uwtable
define linkonce_odr dso_local void @_ZN11xalanc_1_1022XalanEXSLTFunctionAsinC2Ev(%"class.xalanc_1_10::XalanEXSLTFunctionAsin"* %this) unnamed_addr #0 comdat align 2 !dbg !4575 {
entry:
  %this.addr = alloca %"class.xalanc_1_10::XalanEXSLTFunctionAsin"*, align 8
  store %"class.xalanc_1_10::XalanEXSLTFunctionAsin"* %this, %"class.xalanc_1_10::XalanEXSLTFunctionAsin"** %this.addr, align 8
  call void @llvm.dbg.declare(metadata %"class.xalanc_1_10::XalanEXSLTFunctionAsin"** %this.addr, metadata !4576, metadata !DIExpression()), !dbg !4577
  %this1 = load %"class.xalanc_1_10::XalanEXSLTFunctionAsin"*, %"class.xalanc_1_10::XalanEXSLTFunctionAsin"** %this.addr, align 8
  %0 = bitcast %"class.xalanc_1_10::XalanEXSLTFunctionAsin"* %this1 to %"class.xalanc_1_10::Function"*, !dbg !4578
  call void @_ZN11xalanc_1_108FunctionC2Ev(%"class.xalanc_1_10::Function"* %0), !dbg !4579
  %1 = bitcast %"class.xalanc_1_10::XalanEXSLTFunctionAsin"* %this1 to i32 (...)***, !dbg !4578
  store i32 (...)** bitcast (i8** getelementptr inbounds ({ [11 x i8*] }, { [11 x i8*] }* @_ZTVN11xalanc_1_1022XalanEXSLTFunctionAsinE, i32 0, inrange i32 0, i32 2) to i32 (...)**), i32 (...)*** %1, align 8, !dbg !4578
  ret void, !dbg !4580
}

; Function Attrs: noinline nounwind uwtable
define linkonce_odr dso_local void @_ZN11xalanc_1_1022XalanEXSLTFunctionAsinD2Ev(%"class.xalanc_1_10::XalanEXSLTFunctionAsin"* %this) unnamed_addr #2 comdat align 2 !dbg !4581 {
entry:
  %this.addr = alloca %"class.xalanc_1_10::XalanEXSLTFunctionAsin"*, align 8
  store %"class.xalanc_1_10::XalanEXSLTFunctionAsin"* %this, %"class.xalanc_1_10::XalanEXSLTFunctionAsin"** %this.addr, align 8
  call void @llvm.dbg.declare(metadata %"class.xalanc_1_10::XalanEXSLTFunctionAsin"** %this.addr, metadata !4582, metadata !DIExpression()), !dbg !4583
  %this1 = load %"class.xalanc_1_10::XalanEXSLTFunctionAsin"*, %"class.xalanc_1_10::XalanEXSLTFunctionAsin"** %this.addr, align 8
  %0 = bitcast %"class.xalanc_1_10::XalanEXSLTFunctionAsin"* %this1 to %"class.xalanc_1_10::Function"*, !dbg !4584
  call void @_ZN11xalanc_1_108FunctionD2Ev(%"class.xalanc_1_10::Function"* %0) #5, !dbg !4584
  ret void, !dbg !4586
}

; Function Attrs: noinline uwtable
define internal void @__cxx_global_var_init.3() #0 section ".text.startup" !dbg !4587 {
entry:
  call void @_ZN11xalanc_1_1022XalanEXSLTFunctionAtanC2Ev(%"class.xalanc_1_10::XalanEXSLTFunctionAtan"* @_ZN11xalanc_1_10L14s_atanFunctionE), !dbg !4588
  %0 = call i32 @__cxa_atexit(void (i8*)* bitcast (void (%"class.xalanc_1_10::XalanEXSLTFunctionAtan"*)* @_ZN11xalanc_1_1022XalanEXSLTFunctionAtanD2Ev to void (i8*)*), i8* bitcast (%"class.xalanc_1_10::XalanEXSLTFunctionAtan"* @_ZN11xalanc_1_10L14s_atanFunctionE to i8*), i8* @__dso_handle) #5, !dbg !4588
  ret void, !dbg !4588
}

; Function Attrs: noinline uwtable
define linkonce_odr dso_local void @_ZN11xalanc_1_1022XalanEXSLTFunctionAtanC2Ev(%"class.xalanc_1_10::XalanEXSLTFunctionAtan"* %this) unnamed_addr #0 comdat align 2 !dbg !4589 {
entry:
  %this.addr = alloca %"class.xalanc_1_10::XalanEXSLTFunctionAtan"*, align 8
  store %"class.xalanc_1_10::XalanEXSLTFunctionAtan"* %this, %"class.xalanc_1_10::XalanEXSLTFunctionAtan"** %this.addr, align 8
  call void @llvm.dbg.declare(metadata %"class.xalanc_1_10::XalanEXSLTFunctionAtan"** %this.addr, metadata !4590, metadata !DIExpression()), !dbg !4591
  %this1 = load %"class.xalanc_1_10::XalanEXSLTFunctionAtan"*, %"class.xalanc_1_10::XalanEXSLTFunctionAtan"** %this.addr, align 8
  %0 = bitcast %"class.xalanc_1_10::XalanEXSLTFunctionAtan"* %this1 to %"class.xalanc_1_10::Function"*, !dbg !4592
  call void @_ZN11xalanc_1_108FunctionC2Ev(%"class.xalanc_1_10::Function"* %0), !dbg !4593
  %1 = bitcast %"class.xalanc_1_10::XalanEXSLTFunctionAtan"* %this1 to i32 (...)***, !dbg !4592
  store i32 (...)** bitcast (i8** getelementptr inbounds ({ [11 x i8*] }, { [11 x i8*] }* @_ZTVN11xalanc_1_1022XalanEXSLTFunctionAtanE, i32 0, inrange i32 0, i32 2) to i32 (...)**), i32 (...)*** %1, align 8, !dbg !4592
  ret void, !dbg !4594
}

; Function Attrs: noinline nounwind uwtable
define linkonce_odr dso_local void @_ZN11xalanc_1_1022XalanEXSLTFunctionAtanD2Ev(%"class.xalanc_1_10::XalanEXSLTFunctionAtan"* %this) unnamed_addr #2 comdat align 2 !dbg !4595 {
entry:
  %this.addr = alloca %"class.xalanc_1_10::XalanEXSLTFunctionAtan"*, align 8
  store %"class.xalanc_1_10::XalanEXSLTFunctionAtan"* %this, %"class.xalanc_1_10::XalanEXSLTFunctionAtan"** %this.addr, align 8
  call void @llvm.dbg.declare(metadata %"class.xalanc_1_10::XalanEXSLTFunctionAtan"** %this.addr, metadata !4596, metadata !DIExpression()), !dbg !4597
  %this1 = load %"class.xalanc_1_10::XalanEXSLTFunctionAtan"*, %"class.xalanc_1_10::XalanEXSLTFunctionAtan"** %this.addr, align 8
  %0 = bitcast %"class.xalanc_1_10::XalanEXSLTFunctionAtan"* %this1 to %"class.xalanc_1_10::Function"*, !dbg !4598
  call void @_ZN11xalanc_1_108FunctionD2Ev(%"class.xalanc_1_10::Function"* %0) #5, !dbg !4598
  ret void, !dbg !4600
}

; Function Attrs: noinline uwtable
define internal void @__cxx_global_var_init.4() #0 section ".text.startup" !dbg !4601 {
entry:
  call void @_ZN11xalanc_1_1022XalanEXSLTFunctionAtanC2Ev(%"class.xalanc_1_10::XalanEXSLTFunctionAtan"* @_ZN11xalanc_1_10L15s_atan2FunctionE), !dbg !4602
  %0 = call i32 @__cxa_atexit(void (i8*)* bitcast (void (%"class.xalanc_1_10::XalanEXSLTFunctionAtan"*)* @_ZN11xalanc_1_1022XalanEXSLTFunctionAtanD2Ev to void (i8*)*), i8* bitcast (%"class.xalanc_1_10::XalanEXSLTFunctionAtan"* @_ZN11xalanc_1_10L15s_atan2FunctionE to i8*), i8* @__dso_handle) #5, !dbg !4602
  ret void, !dbg !4602
}

; Function Attrs: noinline uwtable
define internal void @__cxx_global_var_init.5() #0 section ".text.startup" !dbg !4603 {
entry:
  call void @_ZN11xalanc_1_1026XalanEXSLTFunctionConstantC2Ev(%"class.xalanc_1_10::XalanEXSLTFunctionConstant"* @_ZN11xalanc_1_10L18s_constantFunctionE), !dbg !4604
  %0 = call i32 @__cxa_atexit(void (i8*)* bitcast (void (%"class.xalanc_1_10::XalanEXSLTFunctionConstant"*)* @_ZN11xalanc_1_1026XalanEXSLTFunctionConstantD2Ev to void (i8*)*), i8* bitcast (%"class.xalanc_1_10::XalanEXSLTFunctionConstant"* @_ZN11xalanc_1_10L18s_constantFunctionE to i8*), i8* @__dso_handle) #5, !dbg !4604
  ret void, !dbg !4604
}

; Function Attrs: noinline uwtable
define linkonce_odr dso_local void @_ZN11xalanc_1_1026XalanEXSLTFunctionConstantC2Ev(%"class.xalanc_1_10::XalanEXSLTFunctionConstant"* %this) unnamed_addr #0 comdat align 2 !dbg !4605 {
entry:
  %this.addr = alloca %"class.xalanc_1_10::XalanEXSLTFunctionConstant"*, align 8
  store %"class.xalanc_1_10::XalanEXSLTFunctionConstant"* %this, %"class.xalanc_1_10::XalanEXSLTFunctionConstant"** %this.addr, align 8
  call void @llvm.dbg.declare(metadata %"class.xalanc_1_10::XalanEXSLTFunctionConstant"** %this.addr, metadata !4606, metadata !DIExpression()), !dbg !4607
  %this1 = load %"class.xalanc_1_10::XalanEXSLTFunctionConstant"*, %"class.xalanc_1_10::XalanEXSLTFunctionConstant"** %this.addr, align 8
  %0 = bitcast %"class.xalanc_1_10::XalanEXSLTFunctionConstant"* %this1 to %"class.xalanc_1_10::Function"*, !dbg !4608
  call void @_ZN11xalanc_1_108FunctionC2Ev(%"class.xalanc_1_10::Function"* %0), !dbg !4609
  %1 = bitcast %"class.xalanc_1_10::XalanEXSLTFunctionConstant"* %this1 to i32 (...)***, !dbg !4608
  store i32 (...)** bitcast (i8** getelementptr inbounds ({ [11 x i8*] }, { [11 x i8*] }* @_ZTVN11xalanc_1_1026XalanEXSLTFunctionConstantE, i32 0, inrange i32 0, i32 2) to i32 (...)**), i32 (...)*** %1, align 8, !dbg !4608
  ret void, !dbg !4610
}

; Function Attrs: noinline nounwind uwtable
define linkonce_odr dso_local void @_ZN11xalanc_1_1026XalanEXSLTFunctionConstantD2Ev(%"class.xalanc_1_10::XalanEXSLTFunctionConstant"* %this) unnamed_addr #2 comdat align 2 !dbg !4611 {
entry:
  %this.addr = alloca %"class.xalanc_1_10::XalanEXSLTFunctionConstant"*, align 8
  store %"class.xalanc_1_10::XalanEXSLTFunctionConstant"* %this, %"class.xalanc_1_10::XalanEXSLTFunctionConstant"** %this.addr, align 8
  call void @llvm.dbg.declare(metadata %"class.xalanc_1_10::XalanEXSLTFunctionConstant"** %this.addr, metadata !4612, metadata !DIExpression()), !dbg !4613
  %this1 = load %"class.xalanc_1_10::XalanEXSLTFunctionConstant"*, %"class.xalanc_1_10::XalanEXSLTFunctionConstant"** %this.addr, align 8
  %0 = bitcast %"class.xalanc_1_10::XalanEXSLTFunctionConstant"* %this1 to %"class.xalanc_1_10::Function"*, !dbg !4614
  call void @_ZN11xalanc_1_108FunctionD2Ev(%"class.xalanc_1_10::Function"* %0) #5, !dbg !4614
  ret void, !dbg !4616
}

; Function Attrs: noinline uwtable
define internal void @__cxx_global_var_init.6() #0 section ".text.startup" !dbg !4617 {
entry:
  call void @_ZN11xalanc_1_1021XalanEXSLTFunctionCosC2Ev(%"class.xalanc_1_10::XalanEXSLTFunctionCos"* @_ZN11xalanc_1_10L13s_cosFunctionE), !dbg !4618
  %0 = call i32 @__cxa_atexit(void (i8*)* bitcast (void (%"class.xalanc_1_10::XalanEXSLTFunctionCos"*)* @_ZN11xalanc_1_1021XalanEXSLTFunctionCosD2Ev to void (i8*)*), i8* bitcast (%"class.xalanc_1_10::XalanEXSLTFunctionCos"* @_ZN11xalanc_1_10L13s_cosFunctionE to i8*), i8* @__dso_handle) #5, !dbg !4618
  ret void, !dbg !4618
}

; Function Attrs: noinline uwtable
define linkonce_odr dso_local void @_ZN11xalanc_1_1021XalanEXSLTFunctionCosC2Ev(%"class.xalanc_1_10::XalanEXSLTFunctionCos"* %this) unnamed_addr #0 comdat align 2 !dbg !4619 {
entry:
  %this.addr = alloca %"class.xalanc_1_10::XalanEXSLTFunctionCos"*, align 8
  store %"class.xalanc_1_10::XalanEXSLTFunctionCos"* %this, %"class.xalanc_1_10::XalanEXSLTFunctionCos"** %this.addr, align 8
  call void @llvm.dbg.declare(metadata %"class.xalanc_1_10::XalanEXSLTFunctionCos"** %this.addr, metadata !4620, metadata !DIExpression()), !dbg !4621
  %this1 = load %"class.xalanc_1_10::XalanEXSLTFunctionCos"*, %"class.xalanc_1_10::XalanEXSLTFunctionCos"** %this.addr, align 8
  %0 = bitcast %"class.xalanc_1_10::XalanEXSLTFunctionCos"* %this1 to %"class.xalanc_1_10::Function"*, !dbg !4622
  call void @_ZN11xalanc_1_108FunctionC2Ev(%"class.xalanc_1_10::Function"* %0), !dbg !4623
  %1 = bitcast %"class.xalanc_1_10::XalanEXSLTFunctionCos"* %this1 to i32 (...)***, !dbg !4622
  store i32 (...)** bitcast (i8** getelementptr inbounds ({ [11 x i8*] }, { [11 x i8*] }* @_ZTVN11xalanc_1_1021XalanEXSLTFunctionCosE, i32 0, inrange i32 0, i32 2) to i32 (...)**), i32 (...)*** %1, align 8, !dbg !4622
  ret void, !dbg !4624
}

; Function Attrs: noinline nounwind uwtable
define linkonce_odr dso_local void @_ZN11xalanc_1_1021XalanEXSLTFunctionCosD2Ev(%"class.xalanc_1_10::XalanEXSLTFunctionCos"* %this) unnamed_addr #2 comdat align 2 !dbg !4625 {
entry:
  %this.addr = alloca %"class.xalanc_1_10::XalanEXSLTFunctionCos"*, align 8
  store %"class.xalanc_1_10::XalanEXSLTFunctionCos"* %this, %"class.xalanc_1_10::XalanEXSLTFunctionCos"** %this.addr, align 8
  call void @llvm.dbg.declare(metadata %"class.xalanc_1_10::XalanEXSLTFunctionCos"** %this.addr, metadata !4626, metadata !DIExpression()), !dbg !4627
  %this1 = load %"class.xalanc_1_10::XalanEXSLTFunctionCos"*, %"class.xalanc_1_10::XalanEXSLTFunctionCos"** %this.addr, align 8
  %0 = bitcast %"class.xalanc_1_10::XalanEXSLTFunctionCos"* %this1 to %"class.xalanc_1_10::Function"*, !dbg !4628
  call void @_ZN11xalanc_1_108FunctionD2Ev(%"class.xalanc_1_10::Function"* %0) #5, !dbg !4628
  ret void, !dbg !4630
}

; Function Attrs: noinline uwtable
define internal void @__cxx_global_var_init.7() #0 section ".text.startup" !dbg !4631 {
entry:
  call void @_ZN11xalanc_1_1021XalanEXSLTFunctionExpC2Ev(%"class.xalanc_1_10::XalanEXSLTFunctionExp"* @_ZN11xalanc_1_10L13s_expFunctionE), !dbg !4632
  %0 = call i32 @__cxa_atexit(void (i8*)* bitcast (void (%"class.xalanc_1_10::XalanEXSLTFunctionExp"*)* @_ZN11xalanc_1_1021XalanEXSLTFunctionExpD2Ev to void (i8*)*), i8* bitcast (%"class.xalanc_1_10::XalanEXSLTFunctionExp"* @_ZN11xalanc_1_10L13s_expFunctionE to i8*), i8* @__dso_handle) #5, !dbg !4632
  ret void, !dbg !4632
}

; Function Attrs: noinline uwtable
define linkonce_odr dso_local void @_ZN11xalanc_1_1021XalanEXSLTFunctionExpC2Ev(%"class.xalanc_1_10::XalanEXSLTFunctionExp"* %this) unnamed_addr #0 comdat align 2 !dbg !4633 {
entry:
  %this.addr = alloca %"class.xalanc_1_10::XalanEXSLTFunctionExp"*, align 8
  store %"class.xalanc_1_10::XalanEXSLTFunctionExp"* %this, %"class.xalanc_1_10::XalanEXSLTFunctionExp"** %this.addr, align 8
  call void @llvm.dbg.declare(metadata %"class.xalanc_1_10::XalanEXSLTFunctionExp"** %this.addr, metadata !4634, metadata !DIExpression()), !dbg !4635
  %this1 = load %"class.xalanc_1_10::XalanEXSLTFunctionExp"*, %"class.xalanc_1_10::XalanEXSLTFunctionExp"** %this.addr, align 8
  %0 = bitcast %"class.xalanc_1_10::XalanEXSLTFunctionExp"* %this1 to %"class.xalanc_1_10::Function"*, !dbg !4636
  call void @_ZN11xalanc_1_108FunctionC2Ev(%"class.xalanc_1_10::Function"* %0), !dbg !4637
  %1 = bitcast %"class.xalanc_1_10::XalanEXSLTFunctionExp"* %this1 to i32 (...)***, !dbg !4636
  store i32 (...)** bitcast (i8** getelementptr inbounds ({ [11 x i8*] }, { [11 x i8*] }* @_ZTVN11xalanc_1_1021XalanEXSLTFunctionExpE, i32 0, inrange i32 0, i32 2) to i32 (...)**), i32 (...)*** %1, align 8, !dbg !4636
  ret void, !dbg !4638
}

; Function Attrs: noinline nounwind uwtable
define linkonce_odr dso_local void @_ZN11xalanc_1_1021XalanEXSLTFunctionExpD2Ev(%"class.xalanc_1_10::XalanEXSLTFunctionExp"* %this) unnamed_addr #2 comdat align 2 !dbg !4639 {
entry:
  %this.addr = alloca %"class.xalanc_1_10::XalanEXSLTFunctionExp"*, align 8
  store %"class.xalanc_1_10::XalanEXSLTFunctionExp"* %this, %"class.xalanc_1_10::XalanEXSLTFunctionExp"** %this.addr, align 8
  call void @llvm.dbg.declare(metadata %"class.xalanc_1_10::XalanEXSLTFunctionExp"** %this.addr, metadata !4640, metadata !DIExpression()), !dbg !4641
  %this1 = load %"class.xalanc_1_10::XalanEXSLTFunctionExp"*, %"class.xalanc_1_10::XalanEXSLTFunctionExp"** %this.addr, align 8
  %0 = bitcast %"class.xalanc_1_10::XalanEXSLTFunctionExp"* %this1 to %"class.xalanc_1_10::Function"*, !dbg !4642
  call void @_ZN11xalanc_1_108FunctionD2Ev(%"class.xalanc_1_10::Function"* %0) #5, !dbg !4642
  ret void, !dbg !4644
}

; Function Attrs: noinline uwtable
define internal void @__cxx_global_var_init.8() #0 section ".text.startup" !dbg !4645 {
entry:
  call void @_ZN11xalanc_1_1025XalanEXSLTFunctionHighestC2Ev(%"class.xalanc_1_10::XalanEXSLTFunctionHighest"* @_ZN11xalanc_1_10L17s_highestFunctionE), !dbg !4646
  %0 = call i32 @__cxa_atexit(void (i8*)* bitcast (void (%"class.xalanc_1_10::XalanEXSLTFunctionHighest"*)* @_ZN11xalanc_1_1025XalanEXSLTFunctionHighestD2Ev to void (i8*)*), i8* bitcast (%"class.xalanc_1_10::XalanEXSLTFunctionHighest"* @_ZN11xalanc_1_10L17s_highestFunctionE to i8*), i8* @__dso_handle) #5, !dbg !4646
  ret void, !dbg !4646
}

; Function Attrs: noinline uwtable
define linkonce_odr dso_local void @_ZN11xalanc_1_1025XalanEXSLTFunctionHighestC2Ev(%"class.xalanc_1_10::XalanEXSLTFunctionHighest"* %this) unnamed_addr #0 comdat align 2 !dbg !4647 {
entry:
  %this.addr = alloca %"class.xalanc_1_10::XalanEXSLTFunctionHighest"*, align 8
  store %"class.xalanc_1_10::XalanEXSLTFunctionHighest"* %this, %"class.xalanc_1_10::XalanEXSLTFunctionHighest"** %this.addr, align 8
  call void @llvm.dbg.declare(metadata %"class.xalanc_1_10::XalanEXSLTFunctionHighest"** %this.addr, metadata !4648, metadata !DIExpression()), !dbg !4649
  %this1 = load %"class.xalanc_1_10::XalanEXSLTFunctionHighest"*, %"class.xalanc_1_10::XalanEXSLTFunctionHighest"** %this.addr, align 8
  %0 = bitcast %"class.xalanc_1_10::XalanEXSLTFunctionHighest"* %this1 to %"class.xalanc_1_10::Function"*, !dbg !4650
  call void @_ZN11xalanc_1_108FunctionC2Ev(%"class.xalanc_1_10::Function"* %0), !dbg !4651
  %1 = bitcast %"class.xalanc_1_10::XalanEXSLTFunctionHighest"* %this1 to i32 (...)***, !dbg !4650
  store i32 (...)** bitcast (i8** getelementptr inbounds ({ [11 x i8*] }, { [11 x i8*] }* @_ZTVN11xalanc_1_1025XalanEXSLTFunctionHighestE, i32 0, inrange i32 0, i32 2) to i32 (...)**), i32 (...)*** %1, align 8, !dbg !4650
  ret void, !dbg !4652
}

; Function Attrs: noinline nounwind uwtable
define linkonce_odr dso_local void @_ZN11xalanc_1_1025XalanEXSLTFunctionHighestD2Ev(%"class.xalanc_1_10::XalanEXSLTFunctionHighest"* %this) unnamed_addr #2 comdat align 2 !dbg !4653 {
entry:
  %this.addr = alloca %"class.xalanc_1_10::XalanEXSLTFunctionHighest"*, align 8
  store %"class.xalanc_1_10::XalanEXSLTFunctionHighest"* %this, %"class.xalanc_1_10::XalanEXSLTFunctionHighest"** %this.addr, align 8
  call void @llvm.dbg.declare(metadata %"class.xalanc_1_10::XalanEXSLTFunctionHighest"** %this.addr, metadata !4654, metadata !DIExpression()), !dbg !4655
  %this1 = load %"class.xalanc_1_10::XalanEXSLTFunctionHighest"*, %"class.xalanc_1_10::XalanEXSLTFunctionHighest"** %this.addr, align 8
  %0 = bitcast %"class.xalanc_1_10::XalanEXSLTFunctionHighest"* %this1 to %"class.xalanc_1_10::Function"*, !dbg !4656
  call void @_ZN11xalanc_1_108FunctionD2Ev(%"class.xalanc_1_10::Function"* %0) #5, !dbg !4656
  ret void, !dbg !4658
}

; Function Attrs: noinline uwtable
define internal void @__cxx_global_var_init.9() #0 section ".text.startup" !dbg !4659 {
entry:
  call void @_ZN11xalanc_1_1021XalanEXSLTFunctionLogC2Ev(%"class.xalanc_1_10::XalanEXSLTFunctionLog"* @_ZN11xalanc_1_10L13s_logFunctionE), !dbg !4660
  %0 = call i32 @__cxa_atexit(void (i8*)* bitcast (void (%"class.xalanc_1_10::XalanEXSLTFunctionLog"*)* @_ZN11xalanc_1_1021XalanEXSLTFunctionLogD2Ev to void (i8*)*), i8* bitcast (%"class.xalanc_1_10::XalanEXSLTFunctionLog"* @_ZN11xalanc_1_10L13s_logFunctionE to i8*), i8* @__dso_handle) #5, !dbg !4660
  ret void, !dbg !4660
}

; Function Attrs: noinline uwtable
define linkonce_odr dso_local void @_ZN11xalanc_1_1021XalanEXSLTFunctionLogC2Ev(%"class.xalanc_1_10::XalanEXSLTFunctionLog"* %this) unnamed_addr #0 comdat align 2 !dbg !4661 {
entry:
  %this.addr = alloca %"class.xalanc_1_10::XalanEXSLTFunctionLog"*, align 8
  store %"class.xalanc_1_10::XalanEXSLTFunctionLog"* %this, %"class.xalanc_1_10::XalanEXSLTFunctionLog"** %this.addr, align 8
  call void @llvm.dbg.declare(metadata %"class.xalanc_1_10::XalanEXSLTFunctionLog"** %this.addr, metadata !4662, metadata !DIExpression()), !dbg !4663
  %this1 = load %"class.xalanc_1_10::XalanEXSLTFunctionLog"*, %"class.xalanc_1_10::XalanEXSLTFunctionLog"** %this.addr, align 8
  %0 = bitcast %"class.xalanc_1_10::XalanEXSLTFunctionLog"* %this1 to %"class.xalanc_1_10::Function"*, !dbg !4664
  call void @_ZN11xalanc_1_108FunctionC2Ev(%"class.xalanc_1_10::Function"* %0), !dbg !4665
  %1 = bitcast %"class.xalanc_1_10::XalanEXSLTFunctionLog"* %this1 to i32 (...)***, !dbg !4664
  store i32 (...)** bitcast (i8** getelementptr inbounds ({ [11 x i8*] }, { [11 x i8*] }* @_ZTVN11xalanc_1_1021XalanEXSLTFunctionLogE, i32 0, inrange i32 0, i32 2) to i32 (...)**), i32 (...)*** %1, align 8, !dbg !4664
  ret void, !dbg !4666
}

; Function Attrs: noinline nounwind uwtable
define linkonce_odr dso_local void @_ZN11xalanc_1_1021XalanEXSLTFunctionLogD2Ev(%"class.xalanc_1_10::XalanEXSLTFunctionLog"* %this) unnamed_addr #2 comdat align 2 !dbg !4667 {
entry:
  %this.addr = alloca %"class.xalanc_1_10::XalanEXSLTFunctionLog"*, align 8
  store %"class.xalanc_1_10::XalanEXSLTFunctionLog"* %this, %"class.xalanc_1_10::XalanEXSLTFunctionLog"** %this.addr, align 8
  call void @llvm.dbg.declare(metadata %"class.xalanc_1_10::XalanEXSLTFunctionLog"** %this.addr, metadata !4668, metadata !DIExpression()), !dbg !4669
  %this1 = load %"class.xalanc_1_10::XalanEXSLTFunctionLog"*, %"class.xalanc_1_10::XalanEXSLTFunctionLog"** %this.addr, align 8
  %0 = bitcast %"class.xalanc_1_10::XalanEXSLTFunctionLog"* %this1 to %"class.xalanc_1_10::Function"*, !dbg !4670
  call void @_ZN11xalanc_1_108FunctionD2Ev(%"class.xalanc_1_10::Function"* %0) #5, !dbg !4670
  ret void, !dbg !4672
}

; Function Attrs: noinline uwtable
define internal void @__cxx_global_var_init.10() #0 section ".text.startup" !dbg !4673 {
entry:
  call void @_ZN11xalanc_1_1024XalanEXSLTFunctionLowestC2Ev(%"class.xalanc_1_10::XalanEXSLTFunctionLowest"* @_ZN11xalanc_1_10L16s_lowestFunctionE), !dbg !4674
  %0 = call i32 @__cxa_atexit(void (i8*)* bitcast (void (%"class.xalanc_1_10::XalanEXSLTFunctionLowest"*)* @_ZN11xalanc_1_1024XalanEXSLTFunctionLowestD2Ev to void (i8*)*), i8* bitcast (%"class.xalanc_1_10::XalanEXSLTFunctionLowest"* @_ZN11xalanc_1_10L16s_lowestFunctionE to i8*), i8* @__dso_handle) #5, !dbg !4674
  ret void, !dbg !4674
}

; Function Attrs: noinline uwtable
define linkonce_odr dso_local void @_ZN11xalanc_1_1024XalanEXSLTFunctionLowestC2Ev(%"class.xalanc_1_10::XalanEXSLTFunctionLowest"* %this) unnamed_addr #0 comdat align 2 !dbg !4675 {
entry:
  %this.addr = alloca %"class.xalanc_1_10::XalanEXSLTFunctionLowest"*, align 8
  store %"class.xalanc_1_10::XalanEXSLTFunctionLowest"* %this, %"class.xalanc_1_10::XalanEXSLTFunctionLowest"** %this.addr, align 8
  call void @llvm.dbg.declare(metadata %"class.xalanc_1_10::XalanEXSLTFunctionLowest"** %this.addr, metadata !4676, metadata !DIExpression()), !dbg !4677
  %this1 = load %"class.xalanc_1_10::XalanEXSLTFunctionLowest"*, %"class.xalanc_1_10::XalanEXSLTFunctionLowest"** %this.addr, align 8
  %0 = bitcast %"class.xalanc_1_10::XalanEXSLTFunctionLowest"* %this1 to %"class.xalanc_1_10::Function"*, !dbg !4678
  call void @_ZN11xalanc_1_108FunctionC2Ev(%"class.xalanc_1_10::Function"* %0), !dbg !4679
  %1 = bitcast %"class.xalanc_1_10::XalanEXSLTFunctionLowest"* %this1 to i32 (...)***, !dbg !4678
  store i32 (...)** bitcast (i8** getelementptr inbounds ({ [11 x i8*] }, { [11 x i8*] }* @_ZTVN11xalanc_1_1024XalanEXSLTFunctionLowestE, i32 0, inrange i32 0, i32 2) to i32 (...)**), i32 (...)*** %1, align 8, !dbg !4678
  ret void, !dbg !4680
}

; Function Attrs: noinline nounwind uwtable
define linkonce_odr dso_local void @_ZN11xalanc_1_1024XalanEXSLTFunctionLowestD2Ev(%"class.xalanc_1_10::XalanEXSLTFunctionLowest"* %this) unnamed_addr #2 comdat align 2 !dbg !4681 {
entry:
  %this.addr = alloca %"class.xalanc_1_10::XalanEXSLTFunctionLowest"*, align 8
  store %"class.xalanc_1_10::XalanEXSLTFunctionLowest"* %this, %"class.xalanc_1_10::XalanEXSLTFunctionLowest"** %this.addr, align 8
  call void @llvm.dbg.declare(metadata %"class.xalanc_1_10::XalanEXSLTFunctionLowest"** %this.addr, metadata !4682, metadata !DIExpression()), !dbg !4683
  %this1 = load %"class.xalanc_1_10::XalanEXSLTFunctionLowest"*, %"class.xalanc_1_10::XalanEXSLTFunctionLowest"** %this.addr, align 8
  %0 = bitcast %"class.xalanc_1_10::XalanEXSLTFunctionLowest"* %this1 to %"class.xalanc_1_10::Function"*, !dbg !4684
  call void @_ZN11xalanc_1_108FunctionD2Ev(%"class.xalanc_1_10::Function"* %0) #5, !dbg !4684
  ret void, !dbg !4686
}

; Function Attrs: noinline uwtable
define internal void @__cxx_global_var_init.11() #0 section ".text.startup" !dbg !4687 {
entry:
  call void @_ZN11xalanc_1_1021XalanEXSLTFunctionMaxC2Ev(%"class.xalanc_1_10::XalanEXSLTFunctionMax"* @_ZN11xalanc_1_10L13s_maxFunctionE), !dbg !4688
  %0 = call i32 @__cxa_atexit(void (i8*)* bitcast (void (%"class.xalanc_1_10::XalanEXSLTFunctionMax"*)* @_ZN11xalanc_1_1021XalanEXSLTFunctionMaxD2Ev to void (i8*)*), i8* bitcast (%"class.xalanc_1_10::XalanEXSLTFunctionMax"* @_ZN11xalanc_1_10L13s_maxFunctionE to i8*), i8* @__dso_handle) #5, !dbg !4688
  ret void, !dbg !4688
}

; Function Attrs: noinline uwtable
define linkonce_odr dso_local void @_ZN11xalanc_1_1021XalanEXSLTFunctionMaxC2Ev(%"class.xalanc_1_10::XalanEXSLTFunctionMax"* %this) unnamed_addr #0 comdat align 2 !dbg !4689 {
entry:
  %this.addr = alloca %"class.xalanc_1_10::XalanEXSLTFunctionMax"*, align 8
  store %"class.xalanc_1_10::XalanEXSLTFunctionMax"* %this, %"class.xalanc_1_10::XalanEXSLTFunctionMax"** %this.addr, align 8
  call void @llvm.dbg.declare(metadata %"class.xalanc_1_10::XalanEXSLTFunctionMax"** %this.addr, metadata !4690, metadata !DIExpression()), !dbg !4691
  %this1 = load %"class.xalanc_1_10::XalanEXSLTFunctionMax"*, %"class.xalanc_1_10::XalanEXSLTFunctionMax"** %this.addr, align 8
  %0 = bitcast %"class.xalanc_1_10::XalanEXSLTFunctionMax"* %this1 to %"class.xalanc_1_10::Function"*, !dbg !4692
  call void @_ZN11xalanc_1_108FunctionC2Ev(%"class.xalanc_1_10::Function"* %0), !dbg !4693
  %1 = bitcast %"class.xalanc_1_10::XalanEXSLTFunctionMax"* %this1 to i32 (...)***, !dbg !4692
  store i32 (...)** bitcast (i8** getelementptr inbounds ({ [11 x i8*] }, { [11 x i8*] }* @_ZTVN11xalanc_1_1021XalanEXSLTFunctionMaxE, i32 0, inrange i32 0, i32 2) to i32 (...)**), i32 (...)*** %1, align 8, !dbg !4692
  ret void, !dbg !4694
}

; Function Attrs: noinline nounwind uwtable
define linkonce_odr dso_local void @_ZN11xalanc_1_1021XalanEXSLTFunctionMaxD2Ev(%"class.xalanc_1_10::XalanEXSLTFunctionMax"* %this) unnamed_addr #2 comdat align 2 !dbg !4695 {
entry:
  %this.addr = alloca %"class.xalanc_1_10::XalanEXSLTFunctionMax"*, align 8
  store %"class.xalanc_1_10::XalanEXSLTFunctionMax"* %this, %"class.xalanc_1_10::XalanEXSLTFunctionMax"** %this.addr, align 8
  call void @llvm.dbg.declare(metadata %"class.xalanc_1_10::XalanEXSLTFunctionMax"** %this.addr, metadata !4696, metadata !DIExpression()), !dbg !4697
  %this1 = load %"class.xalanc_1_10::XalanEXSLTFunctionMax"*, %"class.xalanc_1_10::XalanEXSLTFunctionMax"** %this.addr, align 8
  %0 = bitcast %"class.xalanc_1_10::XalanEXSLTFunctionMax"* %this1 to %"class.xalanc_1_10::Function"*, !dbg !4698
  call void @_ZN11xalanc_1_108FunctionD2Ev(%"class.xalanc_1_10::Function"* %0) #5, !dbg !4698
  ret void, !dbg !4700
}

; Function Attrs: noinline uwtable
define internal void @__cxx_global_var_init.12() #0 section ".text.startup" !dbg !4701 {
entry:
  call void @_ZN11xalanc_1_1021XalanEXSLTFunctionMinC2Ev(%"class.xalanc_1_10::XalanEXSLTFunctionMin"* @_ZN11xalanc_1_10L13s_minFunctionE), !dbg !4702
  %0 = call i32 @__cxa_atexit(void (i8*)* bitcast (void (%"class.xalanc_1_10::XalanEXSLTFunctionMin"*)* @_ZN11xalanc_1_1021XalanEXSLTFunctionMinD2Ev to void (i8*)*), i8* bitcast (%"class.xalanc_1_10::XalanEXSLTFunctionMin"* @_ZN11xalanc_1_10L13s_minFunctionE to i8*), i8* @__dso_handle) #5, !dbg !4702
  ret void, !dbg !4702
}

; Function Attrs: noinline uwtable
define linkonce_odr dso_local void @_ZN11xalanc_1_1021XalanEXSLTFunctionMinC2Ev(%"class.xalanc_1_10::XalanEXSLTFunctionMin"* %this) unnamed_addr #0 comdat align 2 !dbg !4703 {
entry:
  %this.addr = alloca %"class.xalanc_1_10::XalanEXSLTFunctionMin"*, align 8
  store %"class.xalanc_1_10::XalanEXSLTFunctionMin"* %this, %"class.xalanc_1_10::XalanEXSLTFunctionMin"** %this.addr, align 8
  call void @llvm.dbg.declare(metadata %"class.xalanc_1_10::XalanEXSLTFunctionMin"** %this.addr, metadata !4704, metadata !DIExpression()), !dbg !4705
  %this1 = load %"class.xalanc_1_10::XalanEXSLTFunctionMin"*, %"class.xalanc_1_10::XalanEXSLTFunctionMin"** %this.addr, align 8
  %0 = bitcast %"class.xalanc_1_10::XalanEXSLTFunctionMin"* %this1 to %"class.xalanc_1_10::Function"*, !dbg !4706
  call void @_ZN11xalanc_1_108FunctionC2Ev(%"class.xalanc_1_10::Function"* %0), !dbg !4707
  %1 = bitcast %"class.xalanc_1_10::XalanEXSLTFunctionMin"* %this1 to i32 (...)***, !dbg !4706
  store i32 (...)** bitcast (i8** getelementptr inbounds ({ [11 x i8*] }, { [11 x i8*] }* @_ZTVN11xalanc_1_1021XalanEXSLTFunctionMinE, i32 0, inrange i32 0, i32 2) to i32 (...)**), i32 (...)*** %1, align 8, !dbg !4706
  ret void, !dbg !4708
}

; Function Attrs: noinline nounwind uwtable
define linkonce_odr dso_local void @_ZN11xalanc_1_1021XalanEXSLTFunctionMinD2Ev(%"class.xalanc_1_10::XalanEXSLTFunctionMin"* %this) unnamed_addr #2 comdat align 2 !dbg !4709 {
entry:
  %this.addr = alloca %"class.xalanc_1_10::XalanEXSLTFunctionMin"*, align 8
  store %"class.xalanc_1_10::XalanEXSLTFunctionMin"* %this, %"class.xalanc_1_10::XalanEXSLTFunctionMin"** %this.addr, align 8
  call void @llvm.dbg.declare(metadata %"class.xalanc_1_10::XalanEXSLTFunctionMin"** %this.addr, metadata !4710, metadata !DIExpression()), !dbg !4711
  %this1 = load %"class.xalanc_1_10::XalanEXSLTFunctionMin"*, %"class.xalanc_1_10::XalanEXSLTFunctionMin"** %this.addr, align 8
  %0 = bitcast %"class.xalanc_1_10::XalanEXSLTFunctionMin"* %this1 to %"class.xalanc_1_10::Function"*, !dbg !4712
  call void @_ZN11xalanc_1_108FunctionD2Ev(%"class.xalanc_1_10::Function"* %0) #5, !dbg !4712
  ret void, !dbg !4714
}

; Function Attrs: noinline uwtable
define internal void @__cxx_global_var_init.13() #0 section ".text.startup" !dbg !4715 {
entry:
  call void @_ZN11xalanc_1_1023XalanEXSLTFunctionPowerC2Ev(%"class.xalanc_1_10::XalanEXSLTFunctionPower"* @_ZN11xalanc_1_10L15s_powerFunctionE), !dbg !4716
  %0 = call i32 @__cxa_atexit(void (i8*)* bitcast (void (%"class.xalanc_1_10::XalanEXSLTFunctionPower"*)* @_ZN11xalanc_1_1023XalanEXSLTFunctionPowerD2Ev to void (i8*)*), i8* bitcast (%"class.xalanc_1_10::XalanEXSLTFunctionPower"* @_ZN11xalanc_1_10L15s_powerFunctionE to i8*), i8* @__dso_handle) #5, !dbg !4716
  ret void, !dbg !4716
}

; Function Attrs: noinline uwtable
define linkonce_odr dso_local void @_ZN11xalanc_1_1023XalanEXSLTFunctionPowerC2Ev(%"class.xalanc_1_10::XalanEXSLTFunctionPower"* %this) unnamed_addr #0 comdat align 2 !dbg !4717 {
entry:
  %this.addr = alloca %"class.xalanc_1_10::XalanEXSLTFunctionPower"*, align 8
  store %"class.xalanc_1_10::XalanEXSLTFunctionPower"* %this, %"class.xalanc_1_10::XalanEXSLTFunctionPower"** %this.addr, align 8
  call void @llvm.dbg.declare(metadata %"class.xalanc_1_10::XalanEXSLTFunctionPower"** %this.addr, metadata !4718, metadata !DIExpression()), !dbg !4719
  %this1 = load %"class.xalanc_1_10::XalanEXSLTFunctionPower"*, %"class.xalanc_1_10::XalanEXSLTFunctionPower"** %this.addr, align 8
  %0 = bitcast %"class.xalanc_1_10::XalanEXSLTFunctionPower"* %this1 to %"class.xalanc_1_10::Function"*, !dbg !4720
  call void @_ZN11xalanc_1_108FunctionC2Ev(%"class.xalanc_1_10::Function"* %0), !dbg !4721
  %1 = bitcast %"class.xalanc_1_10::XalanEXSLTFunctionPower"* %this1 to i32 (...)***, !dbg !4720
  store i32 (...)** bitcast (i8** getelementptr inbounds ({ [11 x i8*] }, { [11 x i8*] }* @_ZTVN11xalanc_1_1023XalanEXSLTFunctionPowerE, i32 0, inrange i32 0, i32 2) to i32 (...)**), i32 (...)*** %1, align 8, !dbg !4720
  ret void, !dbg !4722
}

; Function Attrs: noinline nounwind uwtable
define linkonce_odr dso_local void @_ZN11xalanc_1_1023XalanEXSLTFunctionPowerD2Ev(%"class.xalanc_1_10::XalanEXSLTFunctionPower"* %this) unnamed_addr #2 comdat align 2 !dbg !4723 {
entry:
  %this.addr = alloca %"class.xalanc_1_10::XalanEXSLTFunctionPower"*, align 8
  store %"class.xalanc_1_10::XalanEXSLTFunctionPower"* %this, %"class.xalanc_1_10::XalanEXSLTFunctionPower"** %this.addr, align 8
  call void @llvm.dbg.declare(metadata %"class.xalanc_1_10::XalanEXSLTFunctionPower"** %this.addr, metadata !4724, metadata !DIExpression()), !dbg !4725
  %this1 = load %"class.xalanc_1_10::XalanEXSLTFunctionPower"*, %"class.xalanc_1_10::XalanEXSLTFunctionPower"** %this.addr, align 8
  %0 = bitcast %"class.xalanc_1_10::XalanEXSLTFunctionPower"* %this1 to %"class.xalanc_1_10::Function"*, !dbg !4726
  call void @_ZN11xalanc_1_108FunctionD2Ev(%"class.xalanc_1_10::Function"* %0) #5, !dbg !4726
  ret void, !dbg !4728
}

; Function Attrs: noinline uwtable
define internal void @__cxx_global_var_init.14() #0 section ".text.startup" !dbg !4729 {
entry:
  call void @_ZN11xalanc_1_1021XalanEXSLTFunctionSinC2Ev(%"class.xalanc_1_10::XalanEXSLTFunctionSin"* @_ZN11xalanc_1_10L13s_sinFunctionE), !dbg !4730
  %0 = call i32 @__cxa_atexit(void (i8*)* bitcast (void (%"class.xalanc_1_10::XalanEXSLTFunctionSin"*)* @_ZN11xalanc_1_1021XalanEXSLTFunctionSinD2Ev to void (i8*)*), i8* bitcast (%"class.xalanc_1_10::XalanEXSLTFunctionSin"* @_ZN11xalanc_1_10L13s_sinFunctionE to i8*), i8* @__dso_handle) #5, !dbg !4730
  ret void, !dbg !4730
}

; Function Attrs: noinline uwtable
define linkonce_odr dso_local void @_ZN11xalanc_1_1021XalanEXSLTFunctionSinC2Ev(%"class.xalanc_1_10::XalanEXSLTFunctionSin"* %this) unnamed_addr #0 comdat align 2 !dbg !4731 {
entry:
  %this.addr = alloca %"class.xalanc_1_10::XalanEXSLTFunctionSin"*, align 8
  store %"class.xalanc_1_10::XalanEXSLTFunctionSin"* %this, %"class.xalanc_1_10::XalanEXSLTFunctionSin"** %this.addr, align 8
  call void @llvm.dbg.declare(metadata %"class.xalanc_1_10::XalanEXSLTFunctionSin"** %this.addr, metadata !4732, metadata !DIExpression()), !dbg !4733
  %this1 = load %"class.xalanc_1_10::XalanEXSLTFunctionSin"*, %"class.xalanc_1_10::XalanEXSLTFunctionSin"** %this.addr, align 8
  %0 = bitcast %"class.xalanc_1_10::XalanEXSLTFunctionSin"* %this1 to %"class.xalanc_1_10::Function"*, !dbg !4734
  call void @_ZN11xalanc_1_108FunctionC2Ev(%"class.xalanc_1_10::Function"* %0), !dbg !4735
  %1 = bitcast %"class.xalanc_1_10::XalanEXSLTFunctionSin"* %this1 to i32 (...)***, !dbg !4734
  store i32 (...)** bitcast (i8** getelementptr inbounds ({ [11 x i8*] }, { [11 x i8*] }* @_ZTVN11xalanc_1_1021XalanEXSLTFunctionSinE, i32 0, inrange i32 0, i32 2) to i32 (...)**), i32 (...)*** %1, align 8, !dbg !4734
  ret void, !dbg !4736
}

; Function Attrs: noinline nounwind uwtable
define linkonce_odr dso_local void @_ZN11xalanc_1_1021XalanEXSLTFunctionSinD2Ev(%"class.xalanc_1_10::XalanEXSLTFunctionSin"* %this) unnamed_addr #2 comdat align 2 !dbg !4737 {
entry:
  %this.addr = alloca %"class.xalanc_1_10::XalanEXSLTFunctionSin"*, align 8
  store %"class.xalanc_1_10::XalanEXSLTFunctionSin"* %this, %"class.xalanc_1_10::XalanEXSLTFunctionSin"** %this.addr, align 8
  call void @llvm.dbg.declare(metadata %"class.xalanc_1_10::XalanEXSLTFunctionSin"** %this.addr, metadata !4738, metadata !DIExpression()), !dbg !4739
  %this1 = load %"class.xalanc_1_10::XalanEXSLTFunctionSin"*, %"class.xalanc_1_10::XalanEXSLTFunctionSin"** %this.addr, align 8
  %0 = bitcast %"class.xalanc_1_10::XalanEXSLTFunctionSin"* %this1 to %"class.xalanc_1_10::Function"*, !dbg !4740
  call void @_ZN11xalanc_1_108FunctionD2Ev(%"class.xalanc_1_10::Function"* %0) #5, !dbg !4740
  ret void, !dbg !4742
}

; Function Attrs: noinline uwtable
define internal void @__cxx_global_var_init.15() #0 section ".text.startup" !dbg !4743 {
entry:
  call void @_ZN11xalanc_1_1022XalanEXSLTFunctionSqrtC2Ev(%"class.xalanc_1_10::XalanEXSLTFunctionSqrt"* @_ZN11xalanc_1_10L14s_sqrtFunctionE), !dbg !4744
  %0 = call i32 @__cxa_atexit(void (i8*)* bitcast (void (%"class.xalanc_1_10::XalanEXSLTFunctionSqrt"*)* @_ZN11xalanc_1_1022XalanEXSLTFunctionSqrtD2Ev to void (i8*)*), i8* bitcast (%"class.xalanc_1_10::XalanEXSLTFunctionSqrt"* @_ZN11xalanc_1_10L14s_sqrtFunctionE to i8*), i8* @__dso_handle) #5, !dbg !4744
  ret void, !dbg !4744
}

; Function Attrs: noinline uwtable
define linkonce_odr dso_local void @_ZN11xalanc_1_1022XalanEXSLTFunctionSqrtC2Ev(%"class.xalanc_1_10::XalanEXSLTFunctionSqrt"* %this) unnamed_addr #0 comdat align 2 !dbg !4745 {
entry:
  %this.addr = alloca %"class.xalanc_1_10::XalanEXSLTFunctionSqrt"*, align 8
  store %"class.xalanc_1_10::XalanEXSLTFunctionSqrt"* %this, %"class.xalanc_1_10::XalanEXSLTFunctionSqrt"** %this.addr, align 8
  call void @llvm.dbg.declare(metadata %"class.xalanc_1_10::XalanEXSLTFunctionSqrt"** %this.addr, metadata !4746, metadata !DIExpression()), !dbg !4747
  %this1 = load %"class.xalanc_1_10::XalanEXSLTFunctionSqrt"*, %"class.xalanc_1_10::XalanEXSLTFunctionSqrt"** %this.addr, align 8
  %0 = bitcast %"class.xalanc_1_10::XalanEXSLTFunctionSqrt"* %this1 to %"class.xalanc_1_10::Function"*, !dbg !4748
  call void @_ZN11xalanc_1_108FunctionC2Ev(%"class.xalanc_1_10::Function"* %0), !dbg !4749
  %1 = bitcast %"class.xalanc_1_10::XalanEXSLTFunctionSqrt"* %this1 to i32 (...)***, !dbg !4748
  store i32 (...)** bitcast (i8** getelementptr inbounds ({ [11 x i8*] }, { [11 x i8*] }* @_ZTVN11xalanc_1_1022XalanEXSLTFunctionSqrtE, i32 0, inrange i32 0, i32 2) to i32 (...)**), i32 (...)*** %1, align 8, !dbg !4748
  ret void, !dbg !4750
}

; Function Attrs: noinline nounwind uwtable
define linkonce_odr dso_local void @_ZN11xalanc_1_1022XalanEXSLTFunctionSqrtD2Ev(%"class.xalanc_1_10::XalanEXSLTFunctionSqrt"* %this) unnamed_addr #2 comdat align 2 !dbg !4751 {
entry:
  %this.addr = alloca %"class.xalanc_1_10::XalanEXSLTFunctionSqrt"*, align 8
  store %"class.xalanc_1_10::XalanEXSLTFunctionSqrt"* %this, %"class.xalanc_1_10::XalanEXSLTFunctionSqrt"** %this.addr, align 8
  call void @llvm.dbg.declare(metadata %"class.xalanc_1_10::XalanEXSLTFunctionSqrt"** %this.addr, metadata !4752, metadata !DIExpression()), !dbg !4753
  %this1 = load %"class.xalanc_1_10::XalanEXSLTFunctionSqrt"*, %"class.xalanc_1_10::XalanEXSLTFunctionSqrt"** %this.addr, align 8
  %0 = bitcast %"class.xalanc_1_10::XalanEXSLTFunctionSqrt"* %this1 to %"class.xalanc_1_10::Function"*, !dbg !4754
  call void @_ZN11xalanc_1_108FunctionD2Ev(%"class.xalanc_1_10::Function"* %0) #5, !dbg !4754
  ret void, !dbg !4756
}

; Function Attrs: noinline uwtable
define internal void @__cxx_global_var_init.16() #0 section ".text.startup" !dbg !4757 {
entry:
  call void @_ZN11xalanc_1_1021XalanEXSLTFunctionTanC2Ev(%"class.xalanc_1_10::XalanEXSLTFunctionTan"* @_ZN11xalanc_1_10L13s_tanFunctionE), !dbg !4758
  %0 = call i32 @__cxa_atexit(void (i8*)* bitcast (void (%"class.xalanc_1_10::XalanEXSLTFunctionTan"*)* @_ZN11xalanc_1_1021XalanEXSLTFunctionTanD2Ev to void (i8*)*), i8* bitcast (%"class.xalanc_1_10::XalanEXSLTFunctionTan"* @_ZN11xalanc_1_10L13s_tanFunctionE to i8*), i8* @__dso_handle) #5, !dbg !4758
  ret void, !dbg !4758
}

; Function Attrs: noinline uwtable
define linkonce_odr dso_local void @_ZN11xalanc_1_1021XalanEXSLTFunctionTanC2Ev(%"class.xalanc_1_10::XalanEXSLTFunctionTan"* %this) unnamed_addr #0 comdat align 2 !dbg !4759 {
entry:
  %this.addr = alloca %"class.xalanc_1_10::XalanEXSLTFunctionTan"*, align 8
  store %"class.xalanc_1_10::XalanEXSLTFunctionTan"* %this, %"class.xalanc_1_10::XalanEXSLTFunctionTan"** %this.addr, align 8
  call void @llvm.dbg.declare(metadata %"class.xalanc_1_10::XalanEXSLTFunctionTan"** %this.addr, metadata !4760, metadata !DIExpression()), !dbg !4761
  %this1 = load %"class.xalanc_1_10::XalanEXSLTFunctionTan"*, %"class.xalanc_1_10::XalanEXSLTFunctionTan"** %this.addr, align 8
  %0 = bitcast %"class.xalanc_1_10::XalanEXSLTFunctionTan"* %this1 to %"class.xalanc_1_10::Function"*, !dbg !4762
  call void @_ZN11xalanc_1_108FunctionC2Ev(%"class.xalanc_1_10::Function"* %0), !dbg !4763
  %1 = bitcast %"class.xalanc_1_10::XalanEXSLTFunctionTan"* %this1 to i32 (...)***, !dbg !4762
  store i32 (...)** bitcast (i8** getelementptr inbounds ({ [11 x i8*] }, { [11 x i8*] }* @_ZTVN11xalanc_1_1021XalanEXSLTFunctionTanE, i32 0, inrange i32 0, i32 2) to i32 (...)**), i32 (...)*** %1, align 8, !dbg !4762
  ret void, !dbg !4764
}

; Function Attrs: noinline nounwind uwtable
define linkonce_odr dso_local void @_ZN11xalanc_1_1021XalanEXSLTFunctionTanD2Ev(%"class.xalanc_1_10::XalanEXSLTFunctionTan"* %this) unnamed_addr #2 comdat align 2 !dbg !4765 {
entry:
  %this.addr = alloca %"class.xalanc_1_10::XalanEXSLTFunctionTan"*, align 8
  store %"class.xalanc_1_10::XalanEXSLTFunctionTan"* %this, %"class.xalanc_1_10::XalanEXSLTFunctionTan"** %this.addr, align 8
  call void @llvm.dbg.declare(metadata %"class.xalanc_1_10::XalanEXSLTFunctionTan"** %this.addr, metadata !4766, metadata !DIExpression()), !dbg !4767
  %this1 = load %"class.xalanc_1_10::XalanEXSLTFunctionTan"*, %"class.xalanc_1_10::XalanEXSLTFunctionTan"** %this.addr, align 8
  %0 = bitcast %"class.xalanc_1_10::XalanEXSLTFunctionTan"* %this1 to %"class.xalanc_1_10::Function"*, !dbg !4768
  call void @_ZN11xalanc_1_108FunctionD2Ev(%"class.xalanc_1_10::Function"* %0) #5, !dbg !4768
  ret void, !dbg !4770
}

; Function Attrs: noinline uwtable
define internal void @__cxx_global_var_init.17() #0 section ".text.startup" !dbg !4771 {
entry:
  call void @_ZN11xalanc_1_1024XalanEXSLTFunctionRandomC2Ev(%"class.xalanc_1_10::XalanEXSLTFunctionRandom"* @_ZN11xalanc_1_10L16s_randomFunctionE), !dbg !4772
  %0 = call i32 @__cxa_atexit(void (i8*)* bitcast (void (%"class.xalanc_1_10::XalanEXSLTFunctionRandom"*)* @_ZN11xalanc_1_1024XalanEXSLTFunctionRandomD2Ev to void (i8*)*), i8* bitcast (%"class.xalanc_1_10::XalanEXSLTFunctionRandom"* @_ZN11xalanc_1_10L16s_randomFunctionE to i8*), i8* @__dso_handle) #5, !dbg !4772
  ret void, !dbg !4772
}

; Function Attrs: noinline uwtable
define linkonce_odr dso_local void @_ZN11xalanc_1_1024XalanEXSLTFunctionRandomC2Ev(%"class.xalanc_1_10::XalanEXSLTFunctionRandom"* %this) unnamed_addr #0 comdat align 2 !dbg !4773 {
entry:
  %this.addr = alloca %"class.xalanc_1_10::XalanEXSLTFunctionRandom"*, align 8
  store %"class.xalanc_1_10::XalanEXSLTFunctionRandom"* %this, %"class.xalanc_1_10::XalanEXSLTFunctionRandom"** %this.addr, align 8
  call void @llvm.dbg.declare(metadata %"class.xalanc_1_10::XalanEXSLTFunctionRandom"** %this.addr, metadata !4774, metadata !DIExpression()), !dbg !4775
  %this1 = load %"class.xalanc_1_10::XalanEXSLTFunctionRandom"*, %"class.xalanc_1_10::XalanEXSLTFunctionRandom"** %this.addr, align 8
  %0 = bitcast %"class.xalanc_1_10::XalanEXSLTFunctionRandom"* %this1 to %"class.xalanc_1_10::Function"*, !dbg !4776
  call void @_ZN11xalanc_1_108FunctionC2Ev(%"class.xalanc_1_10::Function"* %0), !dbg !4777
  %1 = bitcast %"class.xalanc_1_10::XalanEXSLTFunctionRandom"* %this1 to i32 (...)***, !dbg !4776
  store i32 (...)** bitcast (i8** getelementptr inbounds ({ [11 x i8*] }, { [11 x i8*] }* @_ZTVN11xalanc_1_1024XalanEXSLTFunctionRandomE, i32 0, inrange i32 0, i32 2) to i32 (...)**), i32 (...)*** %1, align 8, !dbg !4776
  ret void, !dbg !4778
}

; Function Attrs: noinline nounwind uwtable
define linkonce_odr dso_local void @_ZN11xalanc_1_1024XalanEXSLTFunctionRandomD2Ev(%"class.xalanc_1_10::XalanEXSLTFunctionRandom"* %this) unnamed_addr #2 comdat align 2 !dbg !4779 {
entry:
  %this.addr = alloca %"class.xalanc_1_10::XalanEXSLTFunctionRandom"*, align 8
  store %"class.xalanc_1_10::XalanEXSLTFunctionRandom"* %this, %"class.xalanc_1_10::XalanEXSLTFunctionRandom"** %this.addr, align 8
  call void @llvm.dbg.declare(metadata %"class.xalanc_1_10::XalanEXSLTFunctionRandom"** %this.addr, metadata !4780, metadata !DIExpression()), !dbg !4781
  %this1 = load %"class.xalanc_1_10::XalanEXSLTFunctionRandom"*, %"class.xalanc_1_10::XalanEXSLTFunctionRandom"** %this.addr, align 8
  %0 = bitcast %"class.xalanc_1_10::XalanEXSLTFunctionRandom"* %this1 to %"class.xalanc_1_10::Function"*, !dbg !4782
  call void @_ZN11xalanc_1_108FunctionD2Ev(%"class.xalanc_1_10::Function"* %0) #5, !dbg !4782
  ret void, !dbg !4784
}

; Function Attrs: noinline uwtable
define dso_local void @_ZN11xalanc_1_1032XalanEXSLTMathFunctionsInstaller12installLocalERNS_22XPathEnvSupportDefaultE(%"class.xalanc_1_10::XPathEnvSupportDefault"* dereferenceable(280) %theSupport) #0 align 2 !dbg !4785 {
entry:
  %theSupport.addr = alloca %"class.xalanc_1_10::XPathEnvSupportDefault"*, align 8
  store %"class.xalanc_1_10::XPathEnvSupportDefault"* %theSupport, %"class.xalanc_1_10::XPathEnvSupportDefault"** %theSupport.addr, align 8
  call void @llvm.dbg.declare(metadata %"class.xalanc_1_10::XPathEnvSupportDefault"** %theSupport.addr, metadata !4794, metadata !DIExpression()), !dbg !4795
  %0 = load %"class.xalanc_1_10::XPathEnvSupportDefault"*, %"class.xalanc_1_10::XPathEnvSupportDefault"** %theSupport.addr, align 8, !dbg !4796
  call void @_ZN11xalanc_1_1024XalanExtensionsInstaller14doInstallLocalEPKtPKNS0_18FunctionTableEntryERNS_22XPathEnvSupportDefaultE(i16* getelementptr inbounds ([22 x i16], [22 x i16]* @_ZN11xalanc_1_10L15s_mathNamespaceE, i64 0, i64 0), %"struct.xalanc_1_10::XalanExtensionsInstaller::FunctionTableEntry"* getelementptr inbounds ([19 x %"struct.xalanc_1_10::XalanExtensionsInstaller::FunctionTableEntry"], [19 x %"struct.xalanc_1_10::XalanExtensionsInstaller::FunctionTableEntry"]* @_ZN11xalanc_1_10L16theFunctionTableE, i64 0, i64 0), %"class.xalanc_1_10::XPathEnvSupportDefault"* dereferenceable(280) %0), !dbg !4797
  ret void, !dbg !4798
}

declare dso_local void @_ZN11xalanc_1_1024XalanExtensionsInstaller14doInstallLocalEPKtPKNS0_18FunctionTableEntryERNS_22XPathEnvSupportDefaultE(i16*, %"struct.xalanc_1_10::XalanExtensionsInstaller::FunctionTableEntry"*, %"class.xalanc_1_10::XPathEnvSupportDefault"* dereferenceable(280)) #3

; Function Attrs: noinline uwtable
define dso_local void @_ZN11xalanc_1_1032XalanEXSLTMathFunctionsInstaller13installGlobalERN11xercesc_2_713MemoryManagerE(%"class.xercesc_2_7::MemoryManager"* dereferenceable(8) %theManager) #0 align 2 !dbg !4799 {
entry:
  %theManager.addr = alloca %"class.xercesc_2_7::MemoryManager"*, align 8
  store %"class.xercesc_2_7::MemoryManager"* %theManager, %"class.xercesc_2_7::MemoryManager"** %theManager.addr, align 8
  call void @llvm.dbg.declare(metadata %"class.xercesc_2_7::MemoryManager"** %theManager.addr, metadata !4800, metadata !DIExpression()), !dbg !4801
  %0 = load %"class.xercesc_2_7::MemoryManager"*, %"class.xercesc_2_7::MemoryManager"** %theManager.addr, align 8, !dbg !4802
  call void @_ZN11xalanc_1_1024XalanExtensionsInstaller15doInstallGlobalERN11xercesc_2_713MemoryManagerEPKtPKNS0_18FunctionTableEntryE(%"class.xercesc_2_7::MemoryManager"* dereferenceable(8) %0, i16* getelementptr inbounds ([22 x i16], [22 x i16]* @_ZN11xalanc_1_10L15s_mathNamespaceE, i64 0, i64 0), %"struct.xalanc_1_10::XalanExtensionsInstaller::FunctionTableEntry"* getelementptr inbounds ([19 x %"struct.xalanc_1_10::XalanExtensionsInstaller::FunctionTableEntry"], [19 x %"struct.xalanc_1_10::XalanExtensionsInstaller::FunctionTableEntry"]* @_ZN11xalanc_1_10L16theFunctionTableE, i64 0, i64 0)), !dbg !4803
  %call = call i64 @time(i64* null) #5, !dbg !4804
  %conv = trunc i64 %call to i32, !dbg !4804
  call void @srand(i32 %conv) #5, !dbg !4805
  ret void, !dbg !4806
}

declare dso_local void @_ZN11xalanc_1_1024XalanExtensionsInstaller15doInstallGlobalERN11xercesc_2_713MemoryManagerEPKtPKNS0_18FunctionTableEntryE(%"class.xercesc_2_7::MemoryManager"* dereferenceable(8), i16*, %"struct.xalanc_1_10::XalanExtensionsInstaller::FunctionTableEntry"*) #3

; Function Attrs: nounwind
declare dso_local void @srand(i32) #4

; Function Attrs: nounwind
declare dso_local i64 @time(i64*) #4

; Function Attrs: noinline uwtable
define dso_local void @_ZN11xalanc_1_1032XalanEXSLTMathFunctionsInstaller14uninstallLocalERNS_22XPathEnvSupportDefaultE(%"class.xalanc_1_10::XPathEnvSupportDefault"* dereferenceable(280) %theSupport) #0 align 2 !dbg !4807 {
entry:
  %theSupport.addr = alloca %"class.xalanc_1_10::XPathEnvSupportDefault"*, align 8
  store %"class.xalanc_1_10::XPathEnvSupportDefault"* %theSupport, %"class.xalanc_1_10::XPathEnvSupportDefault"** %theSupport.addr, align 8
  call void @llvm.dbg.declare(metadata %"class.xalanc_1_10::XPathEnvSupportDefault"** %theSupport.addr, metadata !4808, metadata !DIExpression()), !dbg !4809
  %0 = load %"class.xalanc_1_10::XPathEnvSupportDefault"*, %"class.xalanc_1_10::XPathEnvSupportDefault"** %theSupport.addr, align 8, !dbg !4810
  call void @_ZN11xalanc_1_1024XalanExtensionsInstaller16doUninstallLocalEPKtPKNS0_18FunctionTableEntryERNS_22XPathEnvSupportDefaultE(i16* getelementptr inbounds ([22 x i16], [22 x i16]* @_ZN11xalanc_1_10L15s_mathNamespaceE, i64 0, i64 0), %"struct.xalanc_1_10::XalanExtensionsInstaller::FunctionTableEntry"* getelementptr inbounds ([19 x %"struct.xalanc_1_10::XalanExtensionsInstaller::FunctionTableEntry"], [19 x %"struct.xalanc_1_10::XalanExtensionsInstaller::FunctionTableEntry"]* @_ZN11xalanc_1_10L16theFunctionTableE, i64 0, i64 0), %"class.xalanc_1_10::XPathEnvSupportDefault"* dereferenceable(280) %0), !dbg !4811
  ret void, !dbg !4812
}

declare dso_local void @_ZN11xalanc_1_1024XalanExtensionsInstaller16doUninstallLocalEPKtPKNS0_18FunctionTableEntryERNS_22XPathEnvSupportDefaultE(i16*, %"struct.xalanc_1_10::XalanExtensionsInstaller::FunctionTableEntry"*, %"class.xalanc_1_10::XPathEnvSupportDefault"* dereferenceable(280)) #3

; Function Attrs: noinline uwtable
define dso_local void @_ZN11xalanc_1_1032XalanEXSLTMathFunctionsInstaller15uninstallGlobalERN11xercesc_2_713MemoryManagerE(%"class.xercesc_2_7::MemoryManager"* dereferenceable(8) %theManager) #0 align 2 !dbg !4813 {
entry:
  %theManager.addr = alloca %"class.xercesc_2_7::MemoryManager"*, align 8
  store %"class.xercesc_2_7::MemoryManager"* %theManager, %"class.xercesc_2_7::MemoryManager"** %theManager.addr, align 8
  call void @llvm.dbg.declare(metadata %"class.xercesc_2_7::MemoryManager"** %theManager.addr, metadata !4814, metadata !DIExpression()), !dbg !4815
  %0 = load %"class.xercesc_2_7::MemoryManager"*, %"class.xercesc_2_7::MemoryManager"** %theManager.addr, align 8, !dbg !4816
  call void @_ZN11xalanc_1_1024XalanExtensionsInstaller17doUninstallGlobalERN11xercesc_2_713MemoryManagerEPKtPKNS0_18FunctionTableEntryE(%"class.xercesc_2_7::MemoryManager"* dereferenceable(8) %0, i16* getelementptr inbounds ([22 x i16], [22 x i16]* @_ZN11xalanc_1_10L15s_mathNamespaceE, i64 0, i64 0), %"struct.xalanc_1_10::XalanExtensionsInstaller::FunctionTableEntry"* getelementptr inbounds ([19 x %"struct.xalanc_1_10::XalanExtensionsInstaller::FunctionTableEntry"], [19 x %"struct.xalanc_1_10::XalanExtensionsInstaller::FunctionTableEntry"]* @_ZN11xalanc_1_10L16theFunctionTableE, i64 0, i64 0)), !dbg !4817
  ret void, !dbg !4818
}

declare dso_local void @_ZN11xalanc_1_1024XalanExtensionsInstaller17doUninstallGlobalERN11xercesc_2_713MemoryManagerEPKtPKNS0_18FunctionTableEntryE(%"class.xercesc_2_7::MemoryManager"* dereferenceable(8), i16*, %"struct.xalanc_1_10::XalanExtensionsInstaller::FunctionTableEntry"*) #3

; Function Attrs: noinline nounwind uwtable
define linkonce_odr dso_local void @_ZN11xalanc_1_1021XalanEXSLTFunctionAbsD0Ev(%"class.xalanc_1_10::XalanEXSLTFunctionAbs"* %this) unnamed_addr #2 comdat align 2 !dbg !4819 {
entry:
  %this.addr = alloca %"class.xalanc_1_10::XalanEXSLTFunctionAbs"*, align 8
  store %"class.xalanc_1_10::XalanEXSLTFunctionAbs"* %this, %"class.xalanc_1_10::XalanEXSLTFunctionAbs"** %this.addr, align 8
  call void @llvm.dbg.declare(metadata %"class.xalanc_1_10::XalanEXSLTFunctionAbs"** %this.addr, metadata !4820, metadata !DIExpression()), !dbg !4821
  %this1 = load %"class.xalanc_1_10::XalanEXSLTFunctionAbs"*, %"class.xalanc_1_10::XalanEXSLTFunctionAbs"** %this.addr, align 8
  call void @_ZN11xalanc_1_1021XalanEXSLTFunctionAbsD2Ev(%"class.xalanc_1_10::XalanEXSLTFunctionAbs"* %this1) #5, !dbg !4822
  %0 = bitcast %"class.xalanc_1_10::XalanEXSLTFunctionAbs"* %this1 to i8*, !dbg !4822
  call void @_ZdlPv(i8* %0) #10, !dbg !4822
  ret void, !dbg !4823
}

declare dso_local void @_ZNK11xalanc_1_108Function7executeERNS_21XPathExecutionContextEPNS_9XalanNodeEPKN11xercesc_2_77LocatorE(%"class.xalanc_1_10::XObjectPtr"* sret, %"class.xalanc_1_10::Function"*, %"class.xalanc_1_10::XPathExecutionContext"* dereferenceable(24), %"class.xalanc_1_10::XalanNode"*, %"class.xercesc_2_7::Locator"*) unnamed_addr #3

declare dso_local void @_ZNK11xalanc_1_108Function7executeERNS_21XPathExecutionContextEPNS_9XalanNodeENS_10XObjectPtrEPKN11xercesc_2_77LocatorE(%"class.xalanc_1_10::XObjectPtr"* sret, %"class.xalanc_1_10::Function"*, %"class.xalanc_1_10::XPathExecutionContext"* dereferenceable(24), %"class.xalanc_1_10::XalanNode"*, %"class.xalanc_1_10::XObjectPtr"*, %"class.xercesc_2_7::Locator"*) unnamed_addr #3

declare dso_local void @_ZNK11xalanc_1_108Function7executeERNS_21XPathExecutionContextEPNS_9XalanNodeENS_10XObjectPtrES5_PKN11xercesc_2_77LocatorE(%"class.xalanc_1_10::XObjectPtr"* sret, %"class.xalanc_1_10::Function"*, %"class.xalanc_1_10::XPathExecutionContext"* dereferenceable(24), %"class.xalanc_1_10::XalanNode"*, %"class.xalanc_1_10::XObjectPtr"*, %"class.xalanc_1_10::XObjectPtr"*, %"class.xercesc_2_7::Locator"*) unnamed_addr #3

declare dso_local void @_ZNK11xalanc_1_108Function7executeERNS_21XPathExecutionContextEPNS_9XalanNodeENS_10XObjectPtrES5_S5_PKN11xercesc_2_77LocatorE(%"class.xalanc_1_10::XObjectPtr"* sret, %"class.xalanc_1_10::Function"*, %"class.xalanc_1_10::XPathExecutionContext"* dereferenceable(24), %"class.xalanc_1_10::XalanNode"*, %"class.xalanc_1_10::XObjectPtr"*, %"class.xalanc_1_10::XObjectPtr"*, %"class.xalanc_1_10::XObjectPtr"*, %"class.xercesc_2_7::Locator"*) unnamed_addr #3

; Function Attrs: noinline uwtable
define linkonce_odr dso_local %"class.xalanc_1_10::XalanEXSLTFunctionAbs"* @_ZNK11xalanc_1_1021XalanEXSLTFunctionAbs5cloneERN11xercesc_2_713MemoryManagerE(%"class.xalanc_1_10::XalanEXSLTFunctionAbs"* %this, %"class.xercesc_2_7::MemoryManager"* dereferenceable(8) %theManager) unnamed_addr #0 comdat align 2 !dbg !4824 {
entry:
  %this.addr = alloca %"class.xalanc_1_10::XalanEXSLTFunctionAbs"*, align 8
  %theManager.addr = alloca %"class.xercesc_2_7::MemoryManager"*, align 8
  store %"class.xalanc_1_10::XalanEXSLTFunctionAbs"* %this, %"class.xalanc_1_10::XalanEXSLTFunctionAbs"** %this.addr, align 8
  call void @llvm.dbg.declare(metadata %"class.xalanc_1_10::XalanEXSLTFunctionAbs"** %this.addr, metadata !4825, metadata !DIExpression()), !dbg !4826
  store %"class.xercesc_2_7::MemoryManager"* %theManager, %"class.xercesc_2_7::MemoryManager"** %theManager.addr, align 8
  call void @llvm.dbg.declare(metadata %"class.xercesc_2_7::MemoryManager"** %theManager.addr, metadata !4827, metadata !DIExpression()), !dbg !4828
  %this1 = load %"class.xalanc_1_10::XalanEXSLTFunctionAbs"*, %"class.xalanc_1_10::XalanEXSLTFunctionAbs"** %this.addr, align 8
  %0 = load %"class.xercesc_2_7::MemoryManager"*, %"class.xercesc_2_7::MemoryManager"** %theManager.addr, align 8, !dbg !4829
  %call = call %"class.xalanc_1_10::XalanEXSLTFunctionAbs"* @_ZN11xalanc_1_1018XalanCopyConstructINS_21XalanEXSLTFunctionAbsEEEPT_RN11xercesc_2_713MemoryManagerERKS2_(%"class.xercesc_2_7::MemoryManager"* dereferenceable(8) %0, %"class.xalanc_1_10::XalanEXSLTFunctionAbs"* dereferenceable(8) %this1), !dbg !4830
  ret %"class.xalanc_1_10::XalanEXSLTFunctionAbs"* %call, !dbg !4831
}

; Function Attrs: noinline nounwind uwtable
define linkonce_odr dso_local void @_ZN11xalanc_1_1024XalanEXSLTFunctionRandomD0Ev(%"class.xalanc_1_10::XalanEXSLTFunctionRandom"* %this) unnamed_addr #2 comdat align 2 !dbg !4832 {
entry:
  %this.addr = alloca %"class.xalanc_1_10::XalanEXSLTFunctionRandom"*, align 8
  store %"class.xalanc_1_10::XalanEXSLTFunctionRandom"* %this, %"class.xalanc_1_10::XalanEXSLTFunctionRandom"** %this.addr, align 8
  call void @llvm.dbg.declare(metadata %"class.xalanc_1_10::XalanEXSLTFunctionRandom"** %this.addr, metadata !4833, metadata !DIExpression()), !dbg !4834
  %this1 = load %"class.xalanc_1_10::XalanEXSLTFunctionRandom"*, %"class.xalanc_1_10::XalanEXSLTFunctionRandom"** %this.addr, align 8
  call void @_ZN11xalanc_1_1024XalanEXSLTFunctionRandomD2Ev(%"class.xalanc_1_10::XalanEXSLTFunctionRandom"* %this1) #5, !dbg !4835
  %0 = bitcast %"class.xalanc_1_10::XalanEXSLTFunctionRandom"* %this1 to i8*, !dbg !4835
  call void @_ZdlPv(i8* %0) #10, !dbg !4835
  ret void, !dbg !4836
}

; Function Attrs: noinline uwtable
define linkonce_odr dso_local %"class.xalanc_1_10::XalanEXSLTFunctionRandom"* @_ZNK11xalanc_1_1024XalanEXSLTFunctionRandom5cloneERN11xercesc_2_713MemoryManagerE(%"class.xalanc_1_10::XalanEXSLTFunctionRandom"* %this, %"class.xercesc_2_7::MemoryManager"* dereferenceable(8) %theManager) unnamed_addr #0 comdat align 2 !dbg !4837 {
entry:
  %this.addr = alloca %"class.xalanc_1_10::XalanEXSLTFunctionRandom"*, align 8
  %theManager.addr = alloca %"class.xercesc_2_7::MemoryManager"*, align 8
  store %"class.xalanc_1_10::XalanEXSLTFunctionRandom"* %this, %"class.xalanc_1_10::XalanEXSLTFunctionRandom"** %this.addr, align 8
  call void @llvm.dbg.declare(metadata %"class.xalanc_1_10::XalanEXSLTFunctionRandom"** %this.addr, metadata !4838, metadata !DIExpression()), !dbg !4839
  store %"class.xercesc_2_7::MemoryManager"* %theManager, %"class.xercesc_2_7::MemoryManager"** %theManager.addr, align 8
  call void @llvm.dbg.declare(metadata %"class.xercesc_2_7::MemoryManager"** %theManager.addr, metadata !4840, metadata !DIExpression()), !dbg !4841
  %this1 = load %"class.xalanc_1_10::XalanEXSLTFunctionRandom"*, %"class.xalanc_1_10::XalanEXSLTFunctionRandom"** %this.addr, align 8
  %0 = load %"class.xercesc_2_7::MemoryManager"*, %"class.xercesc_2_7::MemoryManager"** %theManager.addr, align 8, !dbg !4842
  %call = call %"class.xalanc_1_10::XalanEXSLTFunctionRandom"* @_ZN11xalanc_1_1018XalanCopyConstructINS_24XalanEXSLTFunctionRandomEEEPT_RN11xercesc_2_713MemoryManagerERKS2_(%"class.xercesc_2_7::MemoryManager"* dereferenceable(8) %0, %"class.xalanc_1_10::XalanEXSLTFunctionRandom"* dereferenceable(8) %this1), !dbg !4843
  ret %"class.xalanc_1_10::XalanEXSLTFunctionRandom"* %call, !dbg !4844
}

; Function Attrs: noinline nounwind uwtable
define linkonce_odr dso_local void @_ZN11xalanc_1_1022XalanEXSLTFunctionAcosD0Ev(%"class.xalanc_1_10::XalanEXSLTFunctionAcos"* %this) unnamed_addr #2 comdat align 2 !dbg !4845 {
entry:
  %this.addr = alloca %"class.xalanc_1_10::XalanEXSLTFunctionAcos"*, align 8
  store %"class.xalanc_1_10::XalanEXSLTFunctionAcos"* %this, %"class.xalanc_1_10::XalanEXSLTFunctionAcos"** %this.addr, align 8
  call void @llvm.dbg.declare(metadata %"class.xalanc_1_10::XalanEXSLTFunctionAcos"** %this.addr, metadata !4846, metadata !DIExpression()), !dbg !4847
  %this1 = load %"class.xalanc_1_10::XalanEXSLTFunctionAcos"*, %"class.xalanc_1_10::XalanEXSLTFunctionAcos"** %this.addr, align 8
  call void @_ZN11xalanc_1_1022XalanEXSLTFunctionAcosD2Ev(%"class.xalanc_1_10::XalanEXSLTFunctionAcos"* %this1) #5, !dbg !4848
  %0 = bitcast %"class.xalanc_1_10::XalanEXSLTFunctionAcos"* %this1 to i8*, !dbg !4848
  call void @_ZdlPv(i8* %0) #10, !dbg !4848
  ret void, !dbg !4849
}

; Function Attrs: noinline uwtable
define linkonce_odr dso_local %"class.xalanc_1_10::XalanEXSLTFunctionAcos"* @_ZNK11xalanc_1_1022XalanEXSLTFunctionAcos5cloneERN11xercesc_2_713MemoryManagerE(%"class.xalanc_1_10::XalanEXSLTFunctionAcos"* %this, %"class.xercesc_2_7::MemoryManager"* dereferenceable(8) %theManager) unnamed_addr #0 comdat align 2 !dbg !4850 {
entry:
  %this.addr = alloca %"class.xalanc_1_10::XalanEXSLTFunctionAcos"*, align 8
  %theManager.addr = alloca %"class.xercesc_2_7::MemoryManager"*, align 8
  store %"class.xalanc_1_10::XalanEXSLTFunctionAcos"* %this, %"class.xalanc_1_10::XalanEXSLTFunctionAcos"** %this.addr, align 8
  call void @llvm.dbg.declare(metadata %"class.xalanc_1_10::XalanEXSLTFunctionAcos"** %this.addr, metadata !4851, metadata !DIExpression()), !dbg !4852
  store %"class.xercesc_2_7::MemoryManager"* %theManager, %"class.xercesc_2_7::MemoryManager"** %theManager.addr, align 8
  call void @llvm.dbg.declare(metadata %"class.xercesc_2_7::MemoryManager"** %theManager.addr, metadata !4853, metadata !DIExpression()), !dbg !4854
  %this1 = load %"class.xalanc_1_10::XalanEXSLTFunctionAcos"*, %"class.xalanc_1_10::XalanEXSLTFunctionAcos"** %this.addr, align 8
  %0 = load %"class.xercesc_2_7::MemoryManager"*, %"class.xercesc_2_7::MemoryManager"** %theManager.addr, align 8, !dbg !4855
  %call = call %"class.xalanc_1_10::XalanEXSLTFunctionAcos"* @_ZN11xalanc_1_1018XalanCopyConstructINS_22XalanEXSLTFunctionAcosEEEPT_RN11xercesc_2_713MemoryManagerERKS2_(%"class.xercesc_2_7::MemoryManager"* dereferenceable(8) %0, %"class.xalanc_1_10::XalanEXSLTFunctionAcos"* dereferenceable(8) %this1), !dbg !4856
  ret %"class.xalanc_1_10::XalanEXSLTFunctionAcos"* %call, !dbg !4857
}

; Function Attrs: noinline nounwind uwtable
define linkonce_odr dso_local void @_ZN11xalanc_1_1022XalanEXSLTFunctionAsinD0Ev(%"class.xalanc_1_10::XalanEXSLTFunctionAsin"* %this) unnamed_addr #2 comdat align 2 !dbg !4858 {
entry:
  %this.addr = alloca %"class.xalanc_1_10::XalanEXSLTFunctionAsin"*, align 8
  store %"class.xalanc_1_10::XalanEXSLTFunctionAsin"* %this, %"class.xalanc_1_10::XalanEXSLTFunctionAsin"** %this.addr, align 8
  call void @llvm.dbg.declare(metadata %"class.xalanc_1_10::XalanEXSLTFunctionAsin"** %this.addr, metadata !4859, metadata !DIExpression()), !dbg !4860
  %this1 = load %"class.xalanc_1_10::XalanEXSLTFunctionAsin"*, %"class.xalanc_1_10::XalanEXSLTFunctionAsin"** %this.addr, align 8
  call void @_ZN11xalanc_1_1022XalanEXSLTFunctionAsinD2Ev(%"class.xalanc_1_10::XalanEXSLTFunctionAsin"* %this1) #5, !dbg !4861
  %0 = bitcast %"class.xalanc_1_10::XalanEXSLTFunctionAsin"* %this1 to i8*, !dbg !4861
  call void @_ZdlPv(i8* %0) #10, !dbg !4861
  ret void, !dbg !4862
}

; Function Attrs: noinline uwtable
define linkonce_odr dso_local %"class.xalanc_1_10::XalanEXSLTFunctionAsin"* @_ZNK11xalanc_1_1022XalanEXSLTFunctionAsin5cloneERN11xercesc_2_713MemoryManagerE(%"class.xalanc_1_10::XalanEXSLTFunctionAsin"* %this, %"class.xercesc_2_7::MemoryManager"* dereferenceable(8) %theManager) unnamed_addr #0 comdat align 2 !dbg !4863 {
entry:
  %this.addr = alloca %"class.xalanc_1_10::XalanEXSLTFunctionAsin"*, align 8
  %theManager.addr = alloca %"class.xercesc_2_7::MemoryManager"*, align 8
  store %"class.xalanc_1_10::XalanEXSLTFunctionAsin"* %this, %"class.xalanc_1_10::XalanEXSLTFunctionAsin"** %this.addr, align 8
  call void @llvm.dbg.declare(metadata %"class.xalanc_1_10::XalanEXSLTFunctionAsin"** %this.addr, metadata !4864, metadata !DIExpression()), !dbg !4865
  store %"class.xercesc_2_7::MemoryManager"* %theManager, %"class.xercesc_2_7::MemoryManager"** %theManager.addr, align 8
  call void @llvm.dbg.declare(metadata %"class.xercesc_2_7::MemoryManager"** %theManager.addr, metadata !4866, metadata !DIExpression()), !dbg !4867
  %this1 = load %"class.xalanc_1_10::XalanEXSLTFunctionAsin"*, %"class.xalanc_1_10::XalanEXSLTFunctionAsin"** %this.addr, align 8
  %0 = load %"class.xercesc_2_7::MemoryManager"*, %"class.xercesc_2_7::MemoryManager"** %theManager.addr, align 8, !dbg !4868
  %call = call %"class.xalanc_1_10::XalanEXSLTFunctionAsin"* @_ZN11xalanc_1_1018XalanCopyConstructINS_22XalanEXSLTFunctionAsinEEEPT_RN11xercesc_2_713MemoryManagerERKS2_(%"class.xercesc_2_7::MemoryManager"* dereferenceable(8) %0, %"class.xalanc_1_10::XalanEXSLTFunctionAsin"* dereferenceable(8) %this1), !dbg !4869
  ret %"class.xalanc_1_10::XalanEXSLTFunctionAsin"* %call, !dbg !4870
}

; Function Attrs: noinline nounwind uwtable
define linkonce_odr dso_local void @_ZN11xalanc_1_1022XalanEXSLTFunctionAtanD0Ev(%"class.xalanc_1_10::XalanEXSLTFunctionAtan"* %this) unnamed_addr #2 comdat align 2 !dbg !4871 {
entry:
  %this.addr = alloca %"class.xalanc_1_10::XalanEXSLTFunctionAtan"*, align 8
  store %"class.xalanc_1_10::XalanEXSLTFunctionAtan"* %this, %"class.xalanc_1_10::XalanEXSLTFunctionAtan"** %this.addr, align 8
  call void @llvm.dbg.declare(metadata %"class.xalanc_1_10::XalanEXSLTFunctionAtan"** %this.addr, metadata !4872, metadata !DIExpression()), !dbg !4873
  %this1 = load %"class.xalanc_1_10::XalanEXSLTFunctionAtan"*, %"class.xalanc_1_10::XalanEXSLTFunctionAtan"** %this.addr, align 8
  call void @_ZN11xalanc_1_1022XalanEXSLTFunctionAtanD2Ev(%"class.xalanc_1_10::XalanEXSLTFunctionAtan"* %this1) #5, !dbg !4874
  %0 = bitcast %"class.xalanc_1_10::XalanEXSLTFunctionAtan"* %this1 to i8*, !dbg !4874
  call void @_ZdlPv(i8* %0) #10, !dbg !4874
  ret void, !dbg !4875
}

; Function Attrs: noinline uwtable
define linkonce_odr dso_local %"class.xalanc_1_10::XalanEXSLTFunctionAtan"* @_ZNK11xalanc_1_1022XalanEXSLTFunctionAtan5cloneERN11xercesc_2_713MemoryManagerE(%"class.xalanc_1_10::XalanEXSLTFunctionAtan"* %this, %"class.xercesc_2_7::MemoryManager"* dereferenceable(8) %theManager) unnamed_addr #0 comdat align 2 !dbg !4876 {
entry:
  %this.addr = alloca %"class.xalanc_1_10::XalanEXSLTFunctionAtan"*, align 8
  %theManager.addr = alloca %"class.xercesc_2_7::MemoryManager"*, align 8
  store %"class.xalanc_1_10::XalanEXSLTFunctionAtan"* %this, %"class.xalanc_1_10::XalanEXSLTFunctionAtan"** %this.addr, align 8
  call void @llvm.dbg.declare(metadata %"class.xalanc_1_10::XalanEXSLTFunctionAtan"** %this.addr, metadata !4877, metadata !DIExpression()), !dbg !4878
  store %"class.xercesc_2_7::MemoryManager"* %theManager, %"class.xercesc_2_7::MemoryManager"** %theManager.addr, align 8
  call void @llvm.dbg.declare(metadata %"class.xercesc_2_7::MemoryManager"** %theManager.addr, metadata !4879, metadata !DIExpression()), !dbg !4880
  %this1 = load %"class.xalanc_1_10::XalanEXSLTFunctionAtan"*, %"class.xalanc_1_10::XalanEXSLTFunctionAtan"** %this.addr, align 8
  %0 = load %"class.xercesc_2_7::MemoryManager"*, %"class.xercesc_2_7::MemoryManager"** %theManager.addr, align 8, !dbg !4881
  %call = call %"class.xalanc_1_10::XalanEXSLTFunctionAtan"* @_ZN11xalanc_1_1018XalanCopyConstructINS_22XalanEXSLTFunctionAtanEEEPT_RN11xercesc_2_713MemoryManagerERKS2_(%"class.xercesc_2_7::MemoryManager"* dereferenceable(8) %0, %"class.xalanc_1_10::XalanEXSLTFunctionAtan"* dereferenceable(8) %this1), !dbg !4882
  ret %"class.xalanc_1_10::XalanEXSLTFunctionAtan"* %call, !dbg !4883
}

; Function Attrs: noinline nounwind uwtable
define linkonce_odr dso_local void @_ZN11xalanc_1_1023XalanEXSLTFunctionAtan2D2Ev(%"class.xalanc_1_10::XalanEXSLTFunctionAtan2"* %this) unnamed_addr #2 comdat align 2 !dbg !4884 {
entry:
  %this.addr = alloca %"class.xalanc_1_10::XalanEXSLTFunctionAtan2"*, align 8
  store %"class.xalanc_1_10::XalanEXSLTFunctionAtan2"* %this, %"class.xalanc_1_10::XalanEXSLTFunctionAtan2"** %this.addr, align 8
  call void @llvm.dbg.declare(metadata %"class.xalanc_1_10::XalanEXSLTFunctionAtan2"** %this.addr, metadata !4885, metadata !DIExpression()), !dbg !4886
  %this1 = load %"class.xalanc_1_10::XalanEXSLTFunctionAtan2"*, %"class.xalanc_1_10::XalanEXSLTFunctionAtan2"** %this.addr, align 8
  %0 = bitcast %"class.xalanc_1_10::XalanEXSLTFunctionAtan2"* %this1 to %"class.xalanc_1_10::Function"*, !dbg !4887
  call void @_ZN11xalanc_1_108FunctionD2Ev(%"class.xalanc_1_10::Function"* %0) #5, !dbg !4887
  ret void, !dbg !4889
}

; Function Attrs: noinline nounwind uwtable
define linkonce_odr dso_local void @_ZN11xalanc_1_1023XalanEXSLTFunctionAtan2D0Ev(%"class.xalanc_1_10::XalanEXSLTFunctionAtan2"* %this) unnamed_addr #2 comdat align 2 !dbg !4890 {
entry:
  %this.addr = alloca %"class.xalanc_1_10::XalanEXSLTFunctionAtan2"*, align 8
  store %"class.xalanc_1_10::XalanEXSLTFunctionAtan2"* %this, %"class.xalanc_1_10::XalanEXSLTFunctionAtan2"** %this.addr, align 8
  call void @llvm.dbg.declare(metadata %"class.xalanc_1_10::XalanEXSLTFunctionAtan2"** %this.addr, metadata !4891, metadata !DIExpression()), !dbg !4892
  %this1 = load %"class.xalanc_1_10::XalanEXSLTFunctionAtan2"*, %"class.xalanc_1_10::XalanEXSLTFunctionAtan2"** %this.addr, align 8
  call void @_ZN11xalanc_1_1023XalanEXSLTFunctionAtan2D2Ev(%"class.xalanc_1_10::XalanEXSLTFunctionAtan2"* %this1) #5, !dbg !4893
  %0 = bitcast %"class.xalanc_1_10::XalanEXSLTFunctionAtan2"* %this1 to i8*, !dbg !4893
  call void @_ZdlPv(i8* %0) #10, !dbg !4893
  ret void, !dbg !4894
}

; Function Attrs: noinline uwtable
define linkonce_odr dso_local %"class.xalanc_1_10::XalanEXSLTFunctionAtan2"* @_ZNK11xalanc_1_1023XalanEXSLTFunctionAtan25cloneERN11xercesc_2_713MemoryManagerE(%"class.xalanc_1_10::XalanEXSLTFunctionAtan2"* %this, %"class.xercesc_2_7::MemoryManager"* dereferenceable(8) %theManager) unnamed_addr #0 comdat align 2 !dbg !4895 {
entry:
  %this.addr = alloca %"class.xalanc_1_10::XalanEXSLTFunctionAtan2"*, align 8
  %theManager.addr = alloca %"class.xercesc_2_7::MemoryManager"*, align 8
  store %"class.xalanc_1_10::XalanEXSLTFunctionAtan2"* %this, %"class.xalanc_1_10::XalanEXSLTFunctionAtan2"** %this.addr, align 8
  call void @llvm.dbg.declare(metadata %"class.xalanc_1_10::XalanEXSLTFunctionAtan2"** %this.addr, metadata !4896, metadata !DIExpression()), !dbg !4897
  store %"class.xercesc_2_7::MemoryManager"* %theManager, %"class.xercesc_2_7::MemoryManager"** %theManager.addr, align 8
  call void @llvm.dbg.declare(metadata %"class.xercesc_2_7::MemoryManager"** %theManager.addr, metadata !4898, metadata !DIExpression()), !dbg !4899
  %this1 = load %"class.xalanc_1_10::XalanEXSLTFunctionAtan2"*, %"class.xalanc_1_10::XalanEXSLTFunctionAtan2"** %this.addr, align 8
  %0 = load %"class.xercesc_2_7::MemoryManager"*, %"class.xercesc_2_7::MemoryManager"** %theManager.addr, align 8, !dbg !4900
  %call = call %"class.xalanc_1_10::XalanEXSLTFunctionAtan2"* @_ZN11xalanc_1_1018XalanCopyConstructINS_23XalanEXSLTFunctionAtan2EEEPT_RN11xercesc_2_713MemoryManagerERKS2_(%"class.xercesc_2_7::MemoryManager"* dereferenceable(8) %0, %"class.xalanc_1_10::XalanEXSLTFunctionAtan2"* dereferenceable(8) %this1), !dbg !4901
  ret %"class.xalanc_1_10::XalanEXSLTFunctionAtan2"* %call, !dbg !4902
}

; Function Attrs: noinline nounwind uwtable
define linkonce_odr dso_local void @_ZN11xalanc_1_1026XalanEXSLTFunctionConstantD0Ev(%"class.xalanc_1_10::XalanEXSLTFunctionConstant"* %this) unnamed_addr #2 comdat align 2 !dbg !4903 {
entry:
  %this.addr = alloca %"class.xalanc_1_10::XalanEXSLTFunctionConstant"*, align 8
  store %"class.xalanc_1_10::XalanEXSLTFunctionConstant"* %this, %"class.xalanc_1_10::XalanEXSLTFunctionConstant"** %this.addr, align 8
  call void @llvm.dbg.declare(metadata %"class.xalanc_1_10::XalanEXSLTFunctionConstant"** %this.addr, metadata !4904, metadata !DIExpression()), !dbg !4905
  %this1 = load %"class.xalanc_1_10::XalanEXSLTFunctionConstant"*, %"class.xalanc_1_10::XalanEXSLTFunctionConstant"** %this.addr, align 8
  call void @_ZN11xalanc_1_1026XalanEXSLTFunctionConstantD2Ev(%"class.xalanc_1_10::XalanEXSLTFunctionConstant"* %this1) #5, !dbg !4906
  %0 = bitcast %"class.xalanc_1_10::XalanEXSLTFunctionConstant"* %this1 to i8*, !dbg !4906
  call void @_ZdlPv(i8* %0) #10, !dbg !4906
  ret void, !dbg !4907
}

; Function Attrs: noinline uwtable
define linkonce_odr dso_local %"class.xalanc_1_10::XalanEXSLTFunctionConstant"* @_ZNK11xalanc_1_1026XalanEXSLTFunctionConstant5cloneERN11xercesc_2_713MemoryManagerE(%"class.xalanc_1_10::XalanEXSLTFunctionConstant"* %this, %"class.xercesc_2_7::MemoryManager"* dereferenceable(8) %theManager) unnamed_addr #0 comdat align 2 !dbg !4908 {
entry:
  %this.addr = alloca %"class.xalanc_1_10::XalanEXSLTFunctionConstant"*, align 8
  %theManager.addr = alloca %"class.xercesc_2_7::MemoryManager"*, align 8
  store %"class.xalanc_1_10::XalanEXSLTFunctionConstant"* %this, %"class.xalanc_1_10::XalanEXSLTFunctionConstant"** %this.addr, align 8
  call void @llvm.dbg.declare(metadata %"class.xalanc_1_10::XalanEXSLTFunctionConstant"** %this.addr, metadata !4909, metadata !DIExpression()), !dbg !4910
  store %"class.xercesc_2_7::MemoryManager"* %theManager, %"class.xercesc_2_7::MemoryManager"** %theManager.addr, align 8
  call void @llvm.dbg.declare(metadata %"class.xercesc_2_7::MemoryManager"** %theManager.addr, metadata !4911, metadata !DIExpression()), !dbg !4912
  %this1 = load %"class.xalanc_1_10::XalanEXSLTFunctionConstant"*, %"class.xalanc_1_10::XalanEXSLTFunctionConstant"** %this.addr, align 8
  %0 = load %"class.xercesc_2_7::MemoryManager"*, %"class.xercesc_2_7::MemoryManager"** %theManager.addr, align 8, !dbg !4913
  %call = call %"class.xalanc_1_10::XalanEXSLTFunctionConstant"* @_ZN11xalanc_1_1018XalanCopyConstructINS_26XalanEXSLTFunctionConstantEEEPT_RN11xercesc_2_713MemoryManagerERKS2_(%"class.xercesc_2_7::MemoryManager"* dereferenceable(8) %0, %"class.xalanc_1_10::XalanEXSLTFunctionConstant"* dereferenceable(8) %this1), !dbg !4914
  ret %"class.xalanc_1_10::XalanEXSLTFunctionConstant"* %call, !dbg !4915
}

; Function Attrs: noinline uwtable
define linkonce_odr dso_local dereferenceable(40) %"class.xalanc_1_10::XalanDOMString"* @_ZNK11xalanc_1_1026XalanEXSLTFunctionConstant8getErrorERNS_14XalanDOMStringE(%"class.xalanc_1_10::XalanEXSLTFunctionConstant"* %this, %"class.xalanc_1_10::XalanDOMString"* dereferenceable(40) %theBuffer) unnamed_addr #0 comdat align 2 !dbg !4916 {
entry:
  %this.addr = alloca %"class.xalanc_1_10::XalanEXSLTFunctionConstant"*, align 8
  %theBuffer.addr = alloca %"class.xalanc_1_10::XalanDOMString"*, align 8
  store %"class.xalanc_1_10::XalanEXSLTFunctionConstant"* %this, %"class.xalanc_1_10::XalanEXSLTFunctionConstant"** %this.addr, align 8
  call void @llvm.dbg.declare(metadata %"class.xalanc_1_10::XalanEXSLTFunctionConstant"** %this.addr, metadata !4917, metadata !DIExpression()), !dbg !4918
  store %"class.xalanc_1_10::XalanDOMString"* %theBuffer, %"class.xalanc_1_10::XalanDOMString"** %theBuffer.addr, align 8
  call void @llvm.dbg.declare(metadata %"class.xalanc_1_10::XalanDOMString"** %theBuffer.addr, metadata !4919, metadata !DIExpression()), !dbg !4920
  %this1 = load %"class.xalanc_1_10::XalanEXSLTFunctionConstant"*, %"class.xalanc_1_10::XalanEXSLTFunctionConstant"** %this.addr, align 8
  %0 = load %"class.xalanc_1_10::XalanDOMString"*, %"class.xalanc_1_10::XalanDOMString"** %theBuffer.addr, align 8, !dbg !4921
  %call = call dereferenceable(40) %"class.xalanc_1_10::XalanDOMString"* @_ZN11xalanc_1_1018XalanMessageLoader10getMessageERNS_14XalanDOMStringENS_13XalanMessages5CodesEPKcS6_S6_S6_(%"class.xalanc_1_10::XalanDOMString"* dereferenceable(40) %0, i32 147, i8* getelementptr inbounds ([11 x i8], [11 x i8]* @.str, i64 0, i64 0), i8* null, i8* null, i8* null), !dbg !4922
  ret %"class.xalanc_1_10::XalanDOMString"* %call, !dbg !4923
}

; Function Attrs: noinline nounwind uwtable
define linkonce_odr dso_local void @_ZN11xalanc_1_1021XalanEXSLTFunctionCosD0Ev(%"class.xalanc_1_10::XalanEXSLTFunctionCos"* %this) unnamed_addr #2 comdat align 2 !dbg !4924 {
entry:
  %this.addr = alloca %"class.xalanc_1_10::XalanEXSLTFunctionCos"*, align 8
  store %"class.xalanc_1_10::XalanEXSLTFunctionCos"* %this, %"class.xalanc_1_10::XalanEXSLTFunctionCos"** %this.addr, align 8
  call void @llvm.dbg.declare(metadata %"class.xalanc_1_10::XalanEXSLTFunctionCos"** %this.addr, metadata !4925, metadata !DIExpression()), !dbg !4926
  %this1 = load %"class.xalanc_1_10::XalanEXSLTFunctionCos"*, %"class.xalanc_1_10::XalanEXSLTFunctionCos"** %this.addr, align 8
  call void @_ZN11xalanc_1_1021XalanEXSLTFunctionCosD2Ev(%"class.xalanc_1_10::XalanEXSLTFunctionCos"* %this1) #5, !dbg !4927
  %0 = bitcast %"class.xalanc_1_10::XalanEXSLTFunctionCos"* %this1 to i8*, !dbg !4927
  call void @_ZdlPv(i8* %0) #10, !dbg !4927
  ret void, !dbg !4928
}

; Function Attrs: noinline uwtable
define linkonce_odr dso_local %"class.xalanc_1_10::XalanEXSLTFunctionCos"* @_ZNK11xalanc_1_1021XalanEXSLTFunctionCos5cloneERN11xercesc_2_713MemoryManagerE(%"class.xalanc_1_10::XalanEXSLTFunctionCos"* %this, %"class.xercesc_2_7::MemoryManager"* dereferenceable(8) %theManager) unnamed_addr #0 comdat align 2 !dbg !4929 {
entry:
  %this.addr = alloca %"class.xalanc_1_10::XalanEXSLTFunctionCos"*, align 8
  %theManager.addr = alloca %"class.xercesc_2_7::MemoryManager"*, align 8
  store %"class.xalanc_1_10::XalanEXSLTFunctionCos"* %this, %"class.xalanc_1_10::XalanEXSLTFunctionCos"** %this.addr, align 8
  call void @llvm.dbg.declare(metadata %"class.xalanc_1_10::XalanEXSLTFunctionCos"** %this.addr, metadata !4930, metadata !DIExpression()), !dbg !4931
