; ModuleID = 'XPathProcessorImpl.cpp'
source_filename = "XPathProcessorImpl.cpp"
target datalayout = "e-m:e-p270:32:32-p271:32:32-p272:64:64-i64:64-f80:128-n8:16:32:64-S128"
target triple = "x86_64-unknown-linux-gnu"

%"class.xalanc_1_10::XalanDOMString" = type <{ %"class.xalanc_1_10::XalanVector", i32, [4 x i8] }>
%"class.xalanc_1_10::XalanVector" = type { %"class.xercesc_2_7::MemoryManager"*, i64, i64, i16* }
%"class.xercesc_2_7::MemoryManager" = type { i32 (...)** }
%"struct.xalanc_1_10::XPathProcessorImpl::TableEntry" = type { i16*, i32 }
%"class.xalanc_1_10::XPathFunctionTable" = type { %"class.xercesc_2_7::MemoryManager"*, [36 x %"class.xalanc_1_10::Function"*], %"class.xalanc_1_10::Function"** }
%"class.xalanc_1_10::Function" = type { i32 (...)** }
%"class.xalanc_1_10::XPathProcessorImpl" = type <{ %"class.xalanc_1_10::XPathProcessor", %"class.xalanc_1_10::XalanDOMString", i16, [6 x i8], %"class.xalanc_1_10::XPath"*, %"class.xalanc_1_10::XPathConstructionContext"*, %"class.xalanc_1_10::XPathExpression"*, %"class.xalanc_1_10::PrefixResolver"*, i8, i8, [6 x i8], %"class.xercesc_2_7::Locator"*, %"class.xalanc_1_10::XalanVector.3", %"class.xalanc_1_10::XalanMap", i8, i8, [6 x i8] }>
%"class.xalanc_1_10::XPathProcessor" = type { i32 (...)** }
%"class.xalanc_1_10::XPath" = type <{ %"class.xalanc_1_10::XPathExpression", %"class.xercesc_2_7::Locator"*, i8, [7 x i8] }>
%"class.xalanc_1_10::XPathExpression" = type { %"class.xalanc_1_10::XalanVector.0", i32, %"class.xalanc_1_10::XalanVector.1", i32, %"class.xalanc_1_10::XalanDOMString"*, %"class.xalanc_1_10::XalanVector.2" }
%"class.xalanc_1_10::XalanVector.0" = type { %"class.xercesc_2_7::MemoryManager"*, i64, i64, i32* }
%"class.xalanc_1_10::XalanVector.1" = type { %"class.xercesc_2_7::MemoryManager"*, i64, i64, %"class.xalanc_1_10::XToken"* }
%"class.xalanc_1_10::XToken" = type <{ %"class.xalanc_1_10::XObject", %"class.xalanc_1_10::XalanDOMString"*, double, i8, [7 x i8] }>
%"class.xalanc_1_10::XObject" = type { %"class.xalanc_1_10::XalanReferenceCountedObject.base", i32, %"class.xalanc_1_10::XObjectFactory"* }
%"class.xalanc_1_10::XalanReferenceCountedObject.base" = type <{ i32 (...)**, i32 }>
%"class.xalanc_1_10::XObjectFactory" = type opaque
%"class.xalanc_1_10::XalanVector.2" = type { %"class.xercesc_2_7::MemoryManager"*, i64, i64, double* }
%"class.xalanc_1_10::XPathConstructionContext" = type { i32 (...)**, %"class.xercesc_2_7::MemoryManager"* }
%"class.xalanc_1_10::PrefixResolver" = type { i32 (...)** }
%"class.xercesc_2_7::Locator" = type { i32 (...)** }
%"class.xalanc_1_10::XalanVector.3" = type { %"class.xercesc_2_7::MemoryManager"*, i64, i64, i8* }
%"class.xalanc_1_10::XalanMap" = type { %"struct.xalanc_1_10::DOMStringHashFunction", %"struct.std::equal_to", %"class.xercesc_2_7::MemoryManager"*, float, i64, i64, %"class.xalanc_1_10::XalanList", %"class.xalanc_1_10::XalanList", %"class.xalanc_1_10::XalanVector.4", i64, i64 }
%"struct.xalanc_1_10::DOMStringHashFunction" = type { i8 }
%"struct.std::equal_to" = type { i8 }
%"class.xalanc_1_10::XalanList" = type { %"class.xercesc_2_7::MemoryManager"*, %"struct.xalanc_1_10::XalanList<xalanc_1_10::XalanMap<xalanc_1_10::XalanDOMString, const xalanc_1_10::XalanDOMString *, xalanc_1_10::XalanMapKeyTraits<xalanc_1_10::XalanDOMString> >::Entry>::Node"*, %"struct.xalanc_1_10::XalanList<xalanc_1_10::XalanMap<xalanc_1_10::XalanDOMString, const xalanc_1_10::XalanDOMString *, xalanc_1_10::XalanMapKeyTraits<xalanc_1_10::XalanDOMString> >::Entry>::Node"* }
%"struct.xalanc_1_10::XalanList<xalanc_1_10::XalanMap<xalanc_1_10::XalanDOMString, const xalanc_1_10::XalanDOMString *, xalanc_1_10::XalanMapKeyTraits<xalanc_1_10::XalanDOMString> >::Entry>::Node" = type { %"struct.xalanc_1_10::XalanMap<xalanc_1_10::XalanDOMString, const xalanc_1_10::XalanDOMString *, xalanc_1_10::XalanMapKeyTraits<xalanc_1_10::XalanDOMString> >::Entry", %"struct.xalanc_1_10::XalanList<xalanc_1_10::XalanMap<xalanc_1_10::XalanDOMString, const xalanc_1_10::XalanDOMString *, xalanc_1_10::XalanMapKeyTraits<xalanc_1_10::XalanDOMString> >::Entry>::Node"*, %"struct.xalanc_1_10::XalanList<xalanc_1_10::XalanMap<xalanc_1_10::XalanDOMString, const xalanc_1_10::XalanDOMString *, xalanc_1_10::XalanMapKeyTraits<xalanc_1_10::XalanDOMString> >::Entry>::Node"* }
%"struct.xalanc_1_10::XalanMap<xalanc_1_10::XalanDOMString, const xalanc_1_10::XalanDOMString *, xalanc_1_10::XalanMapKeyTraits<xalanc_1_10::XalanDOMString> >::Entry" = type <{ %"struct.std::pair"*, i8, [7 x i8] }>
%"struct.std::pair" = type { %"class.xalanc_1_10::XalanDOMString", %"class.xalanc_1_10::XalanDOMString"* }
%"class.xalanc_1_10::XalanVector.4" = type { %"class.xercesc_2_7::MemoryManager"*, i64, i64, %"class.xalanc_1_10::XalanVector.5"* }
%"class.xalanc_1_10::XalanVector.5" = type { %"class.xercesc_2_7::MemoryManager"*, i64, i64, %"struct.xalanc_1_10::XalanListIteratorBase"* }
%"struct.xalanc_1_10::XalanListIteratorBase" = type { %"struct.xalanc_1_10::XalanList<xalanc_1_10::XalanMap<xalanc_1_10::XalanDOMString, const xalanc_1_10::XalanDOMString *, xalanc_1_10::XalanMapKeyTraits<xalanc_1_10::XalanDOMString> >::Entry>::Node"* }
%"class.xalanc_1_10::XalanMemMgrAutoPtr" = type { %"class.xalanc_1_10::XalanMemMgrAutoPtr<xalanc_1_10::XPathProcessorImpl, false>::MemMgrAutoPtrData" }
%"class.xalanc_1_10::XalanMemMgrAutoPtr<xalanc_1_10::XPathProcessorImpl, false>::MemMgrAutoPtrData" = type { %"struct.std::pair.6" }
%"struct.std::pair.6" = type { %"class.xercesc_2_7::MemoryManager"*, %"class.xalanc_1_10::XPathProcessorImpl"* }
%"class.xalanc_1_10::XPathConstructionContext::GetAndReleaseCachedString" = type { %"class.xalanc_1_10::XPathConstructionContext"*, %"class.xalanc_1_10::XalanDOMString"* }
%"struct.xalanc_1_10::XalanMapIterator" = type { %"struct.xalanc_1_10::XalanListIteratorBase" }
%"struct.xalanc_1_10::XalanMapIterator.9" = type { %"struct.xalanc_1_10::XalanListIteratorBase" }
%"class.xalanc_1_10::DOMStringPrintWriter" = type { %"class.xalanc_1_10::PrintWriter", %"class.xalanc_1_10::XalanDOMString"* }
%"class.xalanc_1_10::PrintWriter" = type { %"class.xalanc_1_10::Writer", i8, %"class.xercesc_2_7::MemoryManager"* }
%"class.xalanc_1_10::Writer" = type { i32 (...)** }
%"class.xalanc_1_10::XPathParserException" = type { %"class.xalanc_1_10::XalanXPathException" }
%"class.xalanc_1_10::XalanXPathException" = type { %"class.xalanc_1_10::XSLException", %"class.xalanc_1_10::XalanNode"* }
%"class.xalanc_1_10::XSLException" = type { i32 (...)**, %"class.xalanc_1_10::XalanDOMString", %"class.xalanc_1_10::XalanDOMString", i64, i64 }
%"class.xalanc_1_10::XalanNode" = type { i32 (...)** }
%"struct.std::random_access_iterator_tag" = type { i8 }
%"class.std::__pair_base.7" = type { i8 }
%"struct.xalanc_1_10::hash_null_terminated_arrays" = type { i8 }
%"struct.xalanc_1_10::XalanListIteratorBase.11" = type { %"struct.xalanc_1_10::XalanList<xalanc_1_10::XalanMap<xalanc_1_10::XalanDOMString, const xalanc_1_10::XalanDOMString *, xalanc_1_10::XalanMapKeyTraits<xalanc_1_10::XalanDOMString> >::Entry>::Node"* }

$_ZN11xalanc_1_1011XalanVectorIbNS_31MemoryManagedConstructionTraitsIbEEEC2ERN11xercesc_2_713MemoryManagerEm = comdat any

$_ZN11xalanc_1_108XalanMapINS_14XalanDOMStringEPKS1_NS_17XalanMapKeyTraitsIS1_EEEC2ERN11xercesc_2_713MemoryManagerEfmm = comdat any

$_ZN11xalanc_1_1011XalanVectorIbNS_31MemoryManagedConstructionTraitsIbEEED2Ev = comdat any

$_ZN11xalanc_1_1014XalanDOMStringD2Ev = comdat any

$_ZN11xalanc_1_1018XalanMemMgrAutoPtrINS_18XPathProcessorImplELb0EEC2ERN11xercesc_2_713MemoryManagerEPS1_ = comdat any

$_ZNK11xalanc_1_1018XalanMemMgrAutoPtrINS_18XPathProcessorImplELb0EE3getEv = comdat any

$_ZN11xalanc_1_1018XalanMemMgrAutoPtrINS_18XPathProcessorImplELb0EE7releaseEv = comdat any

$_ZN11xalanc_1_1018XalanMemMgrAutoPtrINS_18XPathProcessorImplELb0EED2Ev = comdat any

$_ZN11xalanc_1_108XalanMapINS_14XalanDOMStringEPKS1_NS_17XalanMapKeyTraitsIS1_EEED2Ev = comdat any

$_ZN11xalanc_1_105XPath13getExpressionEv = comdat any

$_ZN11xalanc_1_106lengthERKNS_14XalanDOMStringE = comdat any

$_ZN11xalanc_1_1011XalanVectorIbNS_31MemoryManagedConstructionTraitsIbEEE5clearEv = comdat any

$_ZN11xalanc_1_108XalanMapINS_14XalanDOMStringEPKS1_NS_17XalanMapKeyTraitsIS1_EEE5clearEv = comdat any

$_ZN11xalanc_1_1015XPathExpression17setCurrentPatternERKNS_14XalanDOMStringE = comdat any

$_ZN11xalanc_1_1024XPathConstructionContext25GetAndReleaseCachedStringC2ERS0_ = comdat any

$_ZNK11xalanc_1_1024XPathConstructionContext25GetAndReleaseCachedString3getEv = comdat any

$_ZN11xalanc_1_106charAtERKNS_14XalanDOMStringEj = comdat any

$_ZN11xalanc_1_1012XalanXMLChar7isDigitEt = comdat any

$_ZNK11xalanc_1_1015XPathExpression14tokenQueueSizeEv = comdat any

$_ZN11xalanc_1_1015XPathExpression18resetTokenPositionEv = comdat any

$_ZN11xalanc_1_1024XPathConstructionContext25GetAndReleaseCachedStringD2Ev = comdat any

$_ZN11xalanc_1_1015XPathExpression9pushTokenERKNS_14XalanDOMStringE = comdat any

$_ZNK11xalanc_1_108XalanMapINS_14XalanDOMStringEPKS1_NS_17XalanMapKeyTraitsIS1_EEE4findERS2_ = comdat any

$_ZNK11xalanc_1_1016XalanMapIteratorINS_27XalanMapConstIteratorTraitsISt4pairIKNS_14XalanDOMStringEPS4_EEENS_21XalanListIteratorBaseINS_23XalanListIteratorTraitsINS_8XalanMapIS3_S5_NS_17XalanMapKeyTraitsIS3_EEE5EntryEEENS_9XalanListISE_E4NodeEEEEdeEv = comdat any

$_ZN11xalanc_1_1015XPathExpression20replaceRelativeTokenEiNS0_18eRelativeDirectionERKNS_14XalanDOMStringE = comdat any

$_ZN11xalanc_1_108XalanMapINS_14XalanDOMStringEPKS1_NS_17XalanMapKeyTraitsIS1_EEEixERS2_ = comdat any

$_ZN11xalanc_1_106equalsERKNS_14XalanDOMStringES2_ = comdat any

$_ZN11xalanc_1_106equalsERKNS_14XalanDOMStringEPKt = comdat any

$_ZN11xalanc_1_1015XPathExpression12getNextTokenEv = comdat any

$_ZN11xalanc_1_105clearERNS_14XalanDOMStringE = comdat any

$_ZN11xalanc_1_1014XalanDOMStringaSERKS0_ = comdat any

$_ZN11xalanc_1_1015XPathExpression16getPreviousTokenEv = comdat any

$_ZNK11xalanc_1_1015XPathExpression16getRelativeTokenEiNS0_18eRelativeDirectionE = comdat any

$_ZNK11xalanc_1_1015XPathExpression17getCurrentPatternEv = comdat any

$_ZN11xalanc_1_1014XalanDOMStringaSEPKt = comdat any

$_ZN11xalanc_1_1024XPathConstructionContext16getMemoryManagerEv = comdat any

$_ZN11xalanc_1_1014XalanDOMString16getMemoryManagerEv = comdat any

$_ZNK11xalanc_1_1015XPathExpression15opCodeMapLengthEv = comdat any

$_ZN11xalanc_1_1015XPathExpression18updateOpCodeLengthEi = comdat any

$_ZN11xalanc_1_107isEmptyERKNS_14XalanDOMStringE = comdat any

$_ZN11xalanc_1_1011XalanVectorIiNS_31MemoryManagedConstructionTraitsIiEEEC2EmRKiRN11xercesc_2_713MemoryManagerE = comdat any

$_ZNK11xalanc_1_1015XPathExpression16getTokenPositionEv = comdat any

$_ZN11xalanc_1_1011XalanVectorIiNS_31MemoryManagedConstructionTraitsIiEEEixEm = comdat any

$_ZN11xalanc_1_1011XalanVectorIiNS_31MemoryManagedConstructionTraitsIiEEED2Ev = comdat any

$_ZN11xalanc_1_1018XPathProcessorImpl16getFunctionTokenERKNS_14XalanDOMStringE = comdat any

$_ZN11xalanc_1_10eqERKNS_14XalanDOMStringEPKt = comdat any

$_ZN11xalanc_1_105XPath16getFunctionTableEv = comdat any

$_ZNK11xalanc_1_1018XPathFunctionTable8nameToIDERKNS_14XalanDOMStringE = comdat any

$_ZNK11xalanc_1_1011XalanVectorIbNS_31MemoryManagedConstructionTraitsIbEEE5emptyEv = comdat any

$_ZN11xalanc_1_1011XalanVectorIbNS_31MemoryManagedConstructionTraitsIbEEE4backEv = comdat any

$_ZN11xalanc_1_1015XPathExpression12appendOpCodeENS0_8eOpCodesERKNS_11XalanVectorIiNS_31MemoryManagedConstructionTraitsIiEEEE = comdat any

$_ZN11xalanc_1_1015XPathExpression17setOpCodeMapValueEiRKi = comdat any

$_ZN11xalanc_1_1012XalanXMLChar8isLetterEt = comdat any

$_ZN11xalanc_1_1018XPathProcessorImpl12getAxisTokenERKNS_14XalanDOMStringE = comdat any

$_ZN11xalanc_1_1018XPathProcessorImpl16getNodeTypeTokenERKNS_14XalanDOMStringE = comdat any

$_ZN11xalanc_1_1011XalanVectorIbNS_31MemoryManagedConstructionTraitsIbEEE9push_backERKb = comdat any

$_ZN11xalanc_1_1011XalanVectorIbNS_31MemoryManagedConstructionTraitsIbEEE8pop_backEv = comdat any

$_ZN11xalanc_1_1015XPathExpression11insertTokenERKNS_14XalanDOMStringE = comdat any

$_ZNK11xalanc_1_1014XalanDOMString5c_strEv = comdat any

$_ZNK11xalanc_1_1014XalanDOMString6lengthEv = comdat any

$_ZN11xalanc_1_105XPath19isInstalledFunctionERKNS_14XalanDOMStringE = comdat any

$_ZN11xalanc_1_107compareEPKtS1_ = comdat any

$_ZN11xalanc_1_106c_wstrERKNS_14XalanDOMStringE = comdat any

$_ZN11xalanc_1_1011XalanVectorItNS_31MemoryManagedConstructionTraitsItEEED2Ev = comdat any

$_ZNK11xalanc_1_1011XalanVectorItNS_31MemoryManagedConstructionTraitsItEEE10invariantsEv = comdat any

$__clang_call_terminate = comdat any

$_ZN11xalanc_1_1011XalanVectorItNS_31MemoryManagedConstructionTraitsItEEE7destroyEPtS4_ = comdat any

$_ZN11xalanc_1_1011XalanVectorItNS_31MemoryManagedConstructionTraitsItEEE5beginEv = comdat any

$_ZN11xalanc_1_1011XalanVectorItNS_31MemoryManagedConstructionTraitsItEEE3endEv = comdat any

$_ZN11xalanc_1_1011XalanVectorItNS_31MemoryManagedConstructionTraitsItEEE10deallocateEPt = comdat any

$_ZN11xalanc_1_1011XalanVectorItNS_31MemoryManagedConstructionTraitsItEEE7destroyERt = comdat any

$_ZN11xalanc_1_1011XalanVectorItNS_31MemoryManagedConstructionTraitsItEEE10endPointerEv = comdat any

$_ZNK11xalanc_1_1014XalanDOMStringixEj = comdat any

$_ZNK11xalanc_1_1014XalanDOMString10invariantsEv = comdat any

$_ZNK11xalanc_1_1011XalanVectorItNS_31MemoryManagedConstructionTraitsItEEEixEm = comdat any

$_ZNK11xalanc_1_1011XalanVectorINS_6XTokenENS_31MemoryManagedConstructionTraitsIS1_EEE4sizeEv = comdat any

$_ZNK11xalanc_1_1011XalanVectorINS_6XTokenENS_31MemoryManagedConstructionTraitsIS1_EEE10invariantsEv = comdat any

$_ZN11xalanc_1_1011XalanVectorINS_6XTokenENS_31MemoryManagedConstructionTraitsIS1_EEE9push_backERKS1_ = comdat any

$_ZN11xalanc_1_1015XPathExpression16getMemoryManagerEv = comdat any

$_ZN11xalanc_1_1011XalanVectorINS_6XTokenENS_31MemoryManagedConstructionTraitsIS1_EEE10doPushBackERKS1_ = comdat any

$_ZN11xalanc_1_1028ConstructWithNoMemoryManagerINS_6XTokenEE9constructEPS1_RKS1_RN11xercesc_2_713MemoryManagerE = comdat any

$_ZN11xalanc_1_1011XalanVectorINS_6XTokenENS_31MemoryManagedConstructionTraitsIS1_EEE10endPointerEv = comdat any

$_ZN11xalanc_1_1011XalanVectorINS_6XTokenENS_31MemoryManagedConstructionTraitsIS1_EEEC2ERKS4_RN11xercesc_2_713MemoryManagerEm = comdat any

$_ZN11xalanc_1_1011XalanVectorINS_6XTokenENS_31MemoryManagedConstructionTraitsIS1_EEE4swapERS4_ = comdat any

$_ZN11xalanc_1_1011XalanVectorINS_6XTokenENS_31MemoryManagedConstructionTraitsIS1_EEED2Ev = comdat any

$_ZN11xalanc_1_1011XalanVectorINS_6XTokenENS_31MemoryManagedConstructionTraitsIS1_EEE9local_maxEmm = comdat any

$_ZN11xalanc_1_1011XalanVectorINS_6XTokenENS_31MemoryManagedConstructionTraitsIS1_EEEC2ERN11xercesc_2_713MemoryManagerEm = comdat any

$_ZN11xalanc_1_1011XalanVectorINS_6XTokenENS_31MemoryManagedConstructionTraitsIS1_EEE6insertEPS1_PKS1_S7_ = comdat any

$_ZN11xalanc_1_1011XalanVectorINS_6XTokenENS_31MemoryManagedConstructionTraitsIS1_EEE5beginEv = comdat any

$_ZNK11xalanc_1_1011XalanVectorINS_6XTokenENS_31MemoryManagedConstructionTraitsIS1_EEE5beginEv = comdat any

$_ZNK11xalanc_1_1011XalanVectorINS_6XTokenENS_31MemoryManagedConstructionTraitsIS1_EEE3endEv = comdat any

$_ZN11xalanc_1_1011XalanVectorINS_6XTokenENS_31MemoryManagedConstructionTraitsIS1_EEE8allocateEm = comdat any

$_ZN11xalanc_1_1011XalanVectorINS_6XTokenENS_31MemoryManagedConstructionTraitsIS1_EEE14local_distanceEPKS1_S6_ = comdat any

$_ZN11xalanc_1_1011XalanVectorINS_6XTokenENS_31MemoryManagedConstructionTraitsIS1_EEE3endEv = comdat any

$_ZN11xalanc_1_1011XalanVectorINS_6XTokenENS_31MemoryManagedConstructionTraitsIS1_EEE14ensureCapacityEm = comdat any

$_ZNK11xalanc_1_1011XalanVectorINS_6XTokenENS_31MemoryManagedConstructionTraitsIS1_EEE8capacityEv = comdat any

$_ZSt4copyIPKN11xalanc_1_106XTokenEPS1_ET0_T_S6_S5_ = comdat any

$_ZSt13copy_backwardIPN11xalanc_1_106XTokenES2_ET0_T_S4_S3_ = comdat any

$_ZSt8distanceIPKN11xalanc_1_106XTokenEENSt15iterator_traitsIT_E15difference_typeES5_S5_ = comdat any

$_ZSt10__distanceIPKN11xalanc_1_106XTokenEENSt15iterator_traitsIT_E15difference_typeES5_S5_St26random_access_iterator_tag = comdat any

$_ZSt19__iterator_categoryIPKN11xalanc_1_106XTokenEENSt15iterator_traitsIT_E17iterator_categoryERKS5_ = comdat any

$_ZN11xalanc_1_1011XalanVectorINS_6XTokenENS_31MemoryManagedConstructionTraitsIS1_EEE9doReserveEm = comdat any

$_ZSt13__copy_move_aILb0EPKN11xalanc_1_106XTokenEPS1_ET1_T0_S6_S5_ = comdat any

$_ZSt12__miter_baseIPKN11xalanc_1_106XTokenEET_S4_ = comdat any

$_ZSt12__niter_wrapIPN11xalanc_1_106XTokenEET_RKS3_S3_ = comdat any

$_ZSt14__copy_move_a1ILb0EPKN11xalanc_1_106XTokenEPS1_ET1_T0_S6_S5_ = comdat any

$_ZSt12__niter_baseIPKN11xalanc_1_106XTokenEET_S4_ = comdat any

$_ZSt12__niter_baseIPN11xalanc_1_106XTokenEET_S3_ = comdat any

$_ZSt14__copy_move_a2ILb0EPKN11xalanc_1_106XTokenEPS1_ET1_T0_S6_S5_ = comdat any

$_ZNSt11__copy_moveILb0ELb0ESt26random_access_iterator_tagE8__copy_mIPKN11xalanc_1_106XTokenEPS4_EET0_T_S9_S8_ = comdat any

$_ZN11xalanc_1_106XTokenaSERKS0_ = comdat any

$_ZSt22__copy_move_backward_aILb0EPN11xalanc_1_106XTokenES2_ET1_T0_S4_S3_ = comdat any

$_ZSt12__miter_baseIPN11xalanc_1_106XTokenEET_S3_ = comdat any

$_ZSt23__copy_move_backward_a1ILb0EPN11xalanc_1_106XTokenES2_ET1_T0_S4_S3_ = comdat any

$_ZSt23__copy_move_backward_a2ILb0EPN11xalanc_1_106XTokenES2_ET1_T0_S4_S3_ = comdat any

$_ZNSt20__copy_move_backwardILb0ELb0ESt26random_access_iterator_tagE13__copy_move_bIPN11xalanc_1_106XTokenES5_EET0_T_S7_S6_ = comdat any

$_ZNK11xalanc_1_1011XalanVectorINS_6XTokenENS_31MemoryManagedConstructionTraitsIS1_EEE10endPointerEv = comdat any

$_ZN11xalanc_1_1011XalanVectorINS_6XTokenENS_31MemoryManagedConstructionTraitsIS1_EEE7destroyEPS1_S5_ = comdat any

$_ZN11xalanc_1_1011XalanVectorINS_6XTokenENS_31MemoryManagedConstructionTraitsIS1_EEE10deallocateEPS1_ = comdat any

$_ZN11xalanc_1_1011XalanVectorINS_6XTokenENS_31MemoryManagedConstructionTraitsIS1_EEE7destroyERS1_ = comdat any

$_ZN11xalanc_1_1011XalanVectorIiNS_31MemoryManagedConstructionTraitsIiEEE16getMemoryManagerEv = comdat any

$_ZNK11xalanc_1_1015XPathExpression25calculateRelativePositionEiNS0_18eRelativeDirectionE = comdat any

$_ZN11xalanc_1_1011XalanVectorINS_6XTokenENS_31MemoryManagedConstructionTraitsIS1_EEEixEm = comdat any

$_ZN11xalanc_1_10eqERKNS_14XalanDOMStringES2_ = comdat any

$_ZN11xalanc_1_106equalsEPKtRKNS_14XalanDOMStringE = comdat any

$_ZNK11xalanc_1_1015XPathExpression13hasMoreTokensEv = comdat any

$_ZNK11xalanc_1_1015XPathExpression8getTokenEi = comdat any

$_ZNK11xalanc_1_1011XalanVectorINS_6XTokenENS_31MemoryManagedConstructionTraitsIS1_EEEixEm = comdat any

$_ZN11xalanc_1_1014XalanDOMString5clearEv = comdat any

$_ZN11xalanc_1_1011XalanVectorItNS_31MemoryManagedConstructionTraitsItEEE5eraseEPtS4_ = comdat any

$_ZSt4copyIPtS0_ET0_T_S2_S1_ = comdat any

$_ZN11xalanc_1_1011XalanVectorItNS_31MemoryManagedConstructionTraitsItEEE11shrinkCountEm = comdat any

$_ZN11xalanc_1_1011XalanVectorItNS_31MemoryManagedConstructionTraitsItEEE14local_distanceEPKtS5_ = comdat any

$_ZSt13__copy_move_aILb0EPtS0_ET1_T0_S2_S1_ = comdat any

$_ZSt12__miter_baseIPtET_S1_ = comdat any

$_ZSt12__niter_wrapIPtET_RKS1_S1_ = comdat any

$_ZSt14__copy_move_a1ILb0EPtS0_ET1_T0_S2_S1_ = comdat any

$_ZSt12__niter_baseIPtET_S1_ = comdat any

$_ZSt14__copy_move_a2ILb0EPtS0_ET1_T0_S2_S1_ = comdat any

$_ZNSt11__copy_moveILb0ELb1ESt26random_access_iterator_tagE8__copy_mItEEPT_PKS3_S6_S4_ = comdat any

$_ZN11xalanc_1_1011XalanVectorItNS_31MemoryManagedConstructionTraitsItEEE8pop_backEv = comdat any

$_ZSt8distanceIPKtENSt15iterator_traitsIT_E15difference_typeES3_S3_ = comdat any

$_ZSt10__distanceIPKtENSt15iterator_traitsIT_E15difference_typeES3_S3_St26random_access_iterator_tag = comdat any

$_ZSt19__iterator_categoryIPKtENSt15iterator_traitsIT_E17iterator_categoryERKS3_ = comdat any

$_ZN11xalanc_1_1014XalanDOMString6assignERKS0_ = comdat any

$_ZN11xalanc_1_1011XalanVectorItNS_31MemoryManagedConstructionTraitsItEEEaSERKS3_ = comdat any

$_ZN11xalanc_1_1011XalanVectorItNS_31MemoryManagedConstructionTraitsItEEEC2ERKS3_RN11xercesc_2_713MemoryManagerEm = comdat any

$_ZN11xalanc_1_1011XalanVectorItNS_31MemoryManagedConstructionTraitsItEEE4swapERS3_ = comdat any

$_ZNK11xalanc_1_1011XalanVectorItNS_31MemoryManagedConstructionTraitsItEEE3endEv = comdat any

$_ZN11xalanc_1_1011XalanVectorItNS_31MemoryManagedConstructionTraitsItEEE12shrinkToSizeEm = comdat any

$_ZNK11xalanc_1_1011XalanVectorItNS_31MemoryManagedConstructionTraitsItEEE5beginEv = comdat any

$_ZN11xalanc_1_1011XalanVectorItNS_31MemoryManagedConstructionTraitsItEEE6insertEPtPKtS6_ = comdat any

$_ZSt4copyIPKtPtET0_T_S4_S3_ = comdat any

$_ZN11xalanc_1_1011XalanVectorItNS_31MemoryManagedConstructionTraitsItEEE9local_maxEmm = comdat any

$_ZN11xalanc_1_1011XalanVectorItNS_31MemoryManagedConstructionTraitsItEEEC2ERN11xercesc_2_713MemoryManagerEm = comdat any

$_ZN11xalanc_1_1011XalanVectorItNS_31MemoryManagedConstructionTraitsItEEE8allocateEm = comdat any

$_ZNK11xalanc_1_1011XalanVectorItNS_31MemoryManagedConstructionTraitsItEEE10endPointerEv = comdat any

$_ZNK11xalanc_1_1011XalanVectorItNS_31MemoryManagedConstructionTraitsItEEE4sizeEv = comdat any

$_ZN11xalanc_1_1011XalanVectorItNS_31MemoryManagedConstructionTraitsItEEE14ensureCapacityEm = comdat any

$_ZN11xalanc_1_1028ConstructWithNoMemoryManagerItE9constructEPtRKtRN11xercesc_2_713MemoryManagerE = comdat any

$_ZNK11xalanc_1_1011XalanVectorItNS_31MemoryManagedConstructionTraitsItEEE8capacityEv = comdat any

$_ZN11xalanc_1_1011XalanVectorItNS_31MemoryManagedConstructionTraitsItEEE10doPushBackERKt = comdat any

$_ZSt13copy_backwardIPtS0_ET0_T_S2_S1_ = comdat any

$_ZN11xalanc_1_1011XalanVectorItNS_31MemoryManagedConstructionTraitsItEEE9doReserveEm = comdat any

$_ZSt22__copy_move_backward_aILb0EPtS0_ET1_T0_S2_S1_ = comdat any

$_ZSt23__copy_move_backward_a1ILb0EPtS0_ET1_T0_S2_S1_ = comdat any

$_ZSt23__copy_move_backward_a2ILb0EPtS0_ET1_T0_S2_S1_ = comdat any

$_ZNSt20__copy_move_backwardILb0ELb1ESt26random_access_iterator_tagE13__copy_move_bItEEPT_PKS3_S6_S4_ = comdat any

$_ZSt13__copy_move_aILb0EPKtPtET1_T0_S4_S3_ = comdat any

$_ZSt12__miter_baseIPKtET_S2_ = comdat any

$_ZSt14__copy_move_a1ILb0EPKtPtET1_T0_S4_S3_ = comdat any

$_ZSt12__niter_baseIPKtET_S2_ = comdat any

$_ZSt14__copy_move_a2ILb0EPKtPtET1_T0_S4_S3_ = comdat any

$_ZN11xalanc_1_1014XalanDOMString6assignEPKt = comdat any

$_ZN11xalanc_1_1014XalanDOMString6appendEPKt = comdat any

$_ZN11xalanc_1_1011XalanVectorItNS_31MemoryManagedConstructionTraitsItEEE16getMemoryManagerEv = comdat any

$_ZNK11xalanc_1_1015XPathExpression13opCodeMapSizeEv = comdat any

$_ZNK11xalanc_1_1011XalanVectorIiNS_31MemoryManagedConstructionTraitsIiEEEixEm = comdat any

$_ZNK11xalanc_1_1011XalanVectorIiNS_31MemoryManagedConstructionTraitsIiEEE4sizeEv = comdat any

$_ZNK11xalanc_1_1011XalanVectorIiNS_31MemoryManagedConstructionTraitsIiEEE10invariantsEv = comdat any

$_ZNK11xalanc_1_1014XalanDOMString5emptyEv = comdat any

$_ZN11xalanc_1_1014XalanDOMString6equalsERKS0_PKt = comdat any

$_ZN11xalanc_1_1014XalanDOMString6equalsEPKtS2_ = comdat any

$_ZN11xalanc_1_1018XPathFunctionTable16getFunctionIndexERKNS_14XalanDOMStringE = comdat any

$_ZN11xalanc_1_1011XalanVectorINS_6XTokenENS_31MemoryManagedConstructionTraitsIS1_EEE6insertEPS1_RKS1_ = comdat any

$_ZN11xalanc_1_1011XalanVectorINS_6XTokenENS_31MemoryManagedConstructionTraitsIS1_EEE6insertEPS1_mRKS1_ = comdat any

$_ZSt4fillIPN11xalanc_1_106XTokenES1_EvT_S3_RKT0_ = comdat any

$_ZSt8__fill_aIPN11xalanc_1_106XTokenES1_EvT_S3_RKT0_ = comdat any

$_ZSt9__fill_a1IPN11xalanc_1_106XTokenES1_EN9__gnu_cxx11__enable_ifIXntsr11__is_scalarIT0_EE7__valueEvE6__typeET_S8_RKS5_ = comdat any

$_ZNK11xalanc_1_1011XalanVectorItNS_31MemoryManagedConstructionTraitsItEEE5emptyEv = comdat any

$_ZNK11xalanc_1_1014XalanDOMString4sizeEv = comdat any

$_ZNK11xalanc_1_1018XPathFunctionTable19isInstalledFunctionERKNS_14XalanDOMStringE = comdat any

$_ZN11xalanc_1_106lengthEPKt = comdat any

$_ZN11xalanc_1_1011XalanVectorIbNS_31MemoryManagedConstructionTraitsIbEEE8allocateEm = comdat any

$_ZNK11xalanc_1_1011XalanVectorIbNS_31MemoryManagedConstructionTraitsIbEEE10invariantsEv = comdat any

$_ZN11xalanc_1_109XalanListINS_8XalanMapINS_14XalanDOMStringEPKS2_NS_17XalanMapKeyTraitsIS2_EEE5EntryEEC2ERN11xercesc_2_713MemoryManagerE = comdat any

$_ZN11xalanc_1_1011XalanVectorINS0_INS_21XalanListIteratorBaseINS_23XalanListIteratorTraitsINS_8XalanMapINS_14XalanDOMStringEPKS4_NS_17XalanMapKeyTraitsIS4_EEE5EntryEEENS_9XalanListISA_E4NodeEEENS_31MemoryManagedConstructionTraitsISF_EEEENS_32ConstructWithMemoryManagerTraitsISI_EEEC2ERN11xercesc_2_713MemoryManagerEm = comdat any

$_ZN11xalanc_1_109XalanListINS_8XalanMapINS_14XalanDOMStringEPKS2_NS_17XalanMapKeyTraitsIS2_EEE5EntryEED2Ev = comdat any

$_ZN11xalanc_1_1011XalanVectorINS0_INS_21XalanListIteratorBaseINS_23XalanListIteratorTraitsINS_8XalanMapINS_14XalanDOMStringEPKS4_NS_17XalanMapKeyTraitsIS4_EEE5EntryEEENS_9XalanListISA_E4NodeEEENS_31MemoryManagedConstructionTraitsISF_EEEENS_32ConstructWithMemoryManagerTraitsISI_EEE8allocateEm = comdat any

$_ZNK11xalanc_1_1011XalanVectorINS0_INS_21XalanListIteratorBaseINS_23XalanListIteratorTraitsINS_8XalanMapINS_14XalanDOMStringEPKS4_NS_17XalanMapKeyTraitsIS4_EEE5EntryEEENS_9XalanListISA_E4NodeEEENS_31MemoryManagedConstructionTraitsISF_EEEENS_32ConstructWithMemoryManagerTraitsISI_EEE10invariantsEv = comdat any

$_ZN11xalanc_1_109XalanListINS_8XalanMapINS_14XalanDOMStringEPKS2_NS_17XalanMapKeyTraitsIS2_EEE5EntryEE5beginEv = comdat any

$_ZNK11xalanc_1_1021XalanListIteratorBaseINS_23XalanListIteratorTraitsINS_8XalanMapINS_14XalanDOMStringEPKS3_NS_17XalanMapKeyTraitsIS3_EEE5EntryEEENS_9XalanListIS9_E4NodeEEneERKSE_ = comdat any

$_ZN11xalanc_1_109XalanListINS_8XalanMapINS_14XalanDOMStringEPKS2_NS_17XalanMapKeyTraitsIS2_EEE5EntryEE3endEv = comdat any

$_ZN11xalanc_1_109XalanListINS_8XalanMapINS_14XalanDOMStringEPKS2_NS_17XalanMapKeyTraitsIS2_EEE5EntryEE11destroyNodeERNS9_4NodeE = comdat any

$_ZN11xalanc_1_1021XalanListIteratorBaseINS_23XalanListIteratorTraitsINS_8XalanMapINS_14XalanDOMStringEPKS3_NS_17XalanMapKeyTraitsIS3_EEE5EntryEEENS_9XalanListIS9_E4NodeEEppEi = comdat any

$_ZN11xalanc_1_1021XalanListIteratorBaseINS_23XalanListIteratorTraitsINS_8XalanMapINS_14XalanDOMStringEPKS3_NS_17XalanMapKeyTraitsIS3_EEE5EntryEEENS_9XalanListIS9_E4NodeEE4nodeEv = comdat any

$_ZN11xalanc_1_109XalanListINS_8XalanMapINS_14XalanDOMStringEPKS2_NS_17XalanMapKeyTraitsIS2_EEE5EntryEE10deallocateEPNS9_4NodeE = comdat any

$_ZN11xalanc_1_109XalanListINS_8XalanMapINS_14XalanDOMStringEPKS2_NS_17XalanMapKeyTraitsIS2_EEE5EntryEE11getListHeadEv = comdat any

$_ZN11xalanc_1_1021XalanListIteratorBaseINS_23XalanListIteratorTraitsINS_8XalanMapINS_14XalanDOMStringEPKS3_NS_17XalanMapKeyTraitsIS3_EEE5EntryEEENS_9XalanListIS9_E4NodeEEC2ERSD_ = comdat any

$_ZN11xalanc_1_109XalanListINS_8XalanMapINS_14XalanDOMStringEPKS2_NS_17XalanMapKeyTraitsIS2_EEE5EntryEE8allocateEm = comdat any

$_ZNK11xalanc_1_1021XalanListIteratorBaseINS_23XalanListIteratorTraitsINS_8XalanMapINS_14XalanDOMStringEPKS3_NS_17XalanMapKeyTraitsIS3_EEE5EntryEEENS_9XalanListIS9_E4NodeEEeqERKSE_ = comdat any

$_ZN11xalanc_1_1011XalanVectorIbNS_31MemoryManagedConstructionTraitsIbEEE7destroyEPbS4_ = comdat any

$_ZN11xalanc_1_1011XalanVectorIbNS_31MemoryManagedConstructionTraitsIbEEE5beginEv = comdat any

$_ZN11xalanc_1_1011XalanVectorIbNS_31MemoryManagedConstructionTraitsIbEEE3endEv = comdat any

$_ZN11xalanc_1_1011XalanVectorIbNS_31MemoryManagedConstructionTraitsIbEEE10deallocateEPb = comdat any

$_ZN11xalanc_1_1011XalanVectorIbNS_31MemoryManagedConstructionTraitsIbEEE7destroyERb = comdat any

$_ZN11xalanc_1_1011XalanVectorIbNS_31MemoryManagedConstructionTraitsIbEEE10endPointerEv = comdat any

$_ZN11xalanc_1_108XalanMapINS_14XalanDOMStringEPKS1_NS_17XalanMapKeyTraitsIS1_EEE15doRemoveEntriesEv = comdat any

$_ZNK11xalanc_1_1011XalanVectorINS0_INS_21XalanListIteratorBaseINS_23XalanListIteratorTraitsINS_8XalanMapINS_14XalanDOMStringEPKS4_NS_17XalanMapKeyTraitsIS4_EEE5EntryEEENS_9XalanListISA_E4NodeEEENS_31MemoryManagedConstructionTraitsISF_EEEENS_32ConstructWithMemoryManagerTraitsISI_EEE5emptyEv = comdat any

$_ZN11xalanc_1_108XalanMapINS_14XalanDOMStringEPKS1_NS_17XalanMapKeyTraitsIS1_EEE10deallocateEPSt4pairIS2_S3_E = comdat any

$_ZNK11xalanc_1_1021XalanListIteratorBaseINS_23XalanListIteratorTraitsINS_8XalanMapINS_14XalanDOMStringEPKS3_NS_17XalanMapKeyTraitsIS3_EEE5EntryEEENS_9XalanListIS9_E4NodeEEptEv = comdat any

$_ZN11xalanc_1_1021XalanListIteratorBaseINS_23XalanListIteratorTraitsINS_8XalanMapINS_14XalanDOMStringEPKS3_NS_17XalanMapKeyTraitsIS3_EEE5EntryEEENS_9XalanListIS9_E4NodeEEppEv = comdat any

$_ZN11xalanc_1_1011XalanVectorINS0_INS_21XalanListIteratorBaseINS_23XalanListIteratorTraitsINS_8XalanMapINS_14XalanDOMStringEPKS4_NS_17XalanMapKeyTraitsIS4_EEE5EntryEEENS_9XalanListISA_E4NodeEEENS_31MemoryManagedConstructionTraitsISF_EEEENS_32ConstructWithMemoryManagerTraitsISI_EEED2Ev = comdat any

$_ZNK11xalanc_1_108XalanMapINS_14XalanDOMStringEPKS1_NS_17XalanMapKeyTraitsIS1_EEE4sizeEv = comdat any

$_ZN11xalanc_1_108XalanMapINS_14XalanDOMStringEPKS1_NS_17XalanMapKeyTraitsIS1_EEE13doRemoveEntryERKNS_16XalanMapIteratorINS_22XalanMapIteratorTraitsISt4pairIS2_S3_EEENS_21XalanListIteratorBaseINS_23XalanListIteratorTraitsINS6_5EntryEEENS_9XalanListISE_E4NodeEEEEE = comdat any

$_ZN11xalanc_1_108XalanMapINS_14XalanDOMStringEPKS1_NS_17XalanMapKeyTraitsIS1_EEE5beginEv = comdat any

$_ZNK11xalanc_1_1016XalanMapIteratorINS_22XalanMapIteratorTraitsISt4pairIKNS_14XalanDOMStringEPS4_EEENS_21XalanListIteratorBaseINS_23XalanListIteratorTraitsINS_8XalanMapIS3_S5_NS_17XalanMapKeyTraitsIS3_EEE5EntryEEENS_9XalanListISE_E4NodeEEEEdeEv = comdat any

$_ZNSt4pairIKN11xalanc_1_1014XalanDOMStringEPS2_ED2Ev = comdat any

$_ZN11xalanc_1_109XalanListINS_8XalanMapINS_14XalanDOMStringEPKS2_NS_17XalanMapKeyTraitsIS2_EEE5EntryEE6spliceENS_21XalanListIteratorBaseINS_23XalanListIteratorTraitsIS8_EENS9_4NodeEEERS9_SE_ = comdat any

$_ZN11xalanc_1_1021XalanListIteratorBaseINS_23XalanListIteratorTraitsINS_8XalanMapINS_14XalanDOMStringEPKS3_NS_17XalanMapKeyTraitsIS3_EEE5EntryEEENS_9XalanListIS9_E4NodeEEC2ERKSE_ = comdat any

$_ZN11xalanc_1_1016XalanMapIteratorINS_22XalanMapIteratorTraitsISt4pairIKNS_14XalanDOMStringEPS4_EEENS_21XalanListIteratorBaseINS_23XalanListIteratorTraitsINS_8XalanMapIS3_S5_NS_17XalanMapKeyTraitsIS3_EEE5EntryEEENS_9XalanListISE_E4NodeEEEEC2ERKSJ_ = comdat any

$_ZN11xalanc_1_1011XalanVectorINS0_INS_21XalanListIteratorBaseINS_23XalanListIteratorTraitsINS_8XalanMapINS_14XalanDOMStringEPKS4_NS_17XalanMapKeyTraitsIS4_EEE5EntryEEENS_9XalanListISA_E4NodeEEENS_31MemoryManagedConstructionTraitsISF_EEEENS_32ConstructWithMemoryManagerTraitsISI_EEE7destroyEPSI_SM_ = comdat any

$_ZN11xalanc_1_1011XalanVectorINS0_INS_21XalanListIteratorBaseINS_23XalanListIteratorTraitsINS_8XalanMapINS_14XalanDOMStringEPKS4_NS_17XalanMapKeyTraitsIS4_EEE5EntryEEENS_9XalanListISA_E4NodeEEENS_31MemoryManagedConstructionTraitsISF_EEEENS_32ConstructWithMemoryManagerTraitsISI_EEE5beginEv = comdat any

$_ZN11xalanc_1_1011XalanVectorINS0_INS_21XalanListIteratorBaseINS_23XalanListIteratorTraitsINS_8XalanMapINS_14XalanDOMStringEPKS4_NS_17XalanMapKeyTraitsIS4_EEE5EntryEEENS_9XalanListISA_E4NodeEEENS_31MemoryManagedConstructionTraitsISF_EEEENS_32ConstructWithMemoryManagerTraitsISI_EEE3endEv = comdat any

$_ZN11xalanc_1_1011XalanVectorINS0_INS_21XalanListIteratorBaseINS_23XalanListIteratorTraitsINS_8XalanMapINS_14XalanDOMStringEPKS4_NS_17XalanMapKeyTraitsIS4_EEE5EntryEEENS_9XalanListISA_E4NodeEEENS_31MemoryManagedConstructionTraitsISF_EEEENS_32ConstructWithMemoryManagerTraitsISI_EEE10deallocateEPSI_ = comdat any

$_ZN11xalanc_1_1011XalanVectorINS0_INS_21XalanListIteratorBaseINS_23XalanListIteratorTraitsINS_8XalanMapINS_14XalanDOMStringEPKS4_NS_17XalanMapKeyTraitsIS4_EEE5EntryEEENS_9XalanListISA_E4NodeEEENS_31MemoryManagedConstructionTraitsISF_EEEENS_32ConstructWithMemoryManagerTraitsISI_EEE7destroyERSI_ = comdat any

$_ZN11xalanc_1_1011XalanVectorINS_21XalanListIteratorBaseINS_23XalanListIteratorTraitsINS_8XalanMapINS_14XalanDOMStringEPKS4_NS_17XalanMapKeyTraitsIS4_EEE5EntryEEENS_9XalanListISA_E4NodeEEENS_31MemoryManagedConstructionTraitsISF_EEED2Ev = comdat any

$_ZNK11xalanc_1_1011XalanVectorINS_21XalanListIteratorBaseINS_23XalanListIteratorTraitsINS_8XalanMapINS_14XalanDOMStringEPKS4_NS_17XalanMapKeyTraitsIS4_EEE5EntryEEENS_9XalanListISA_E4NodeEEENS_31MemoryManagedConstructionTraitsISF_EEE10invariantsEv = comdat any

$_ZN11xalanc_1_1011XalanVectorINS_21XalanListIteratorBaseINS_23XalanListIteratorTraitsINS_8XalanMapINS_14XalanDOMStringEPKS4_NS_17XalanMapKeyTraitsIS4_EEE5EntryEEENS_9XalanListISA_E4NodeEEENS_31MemoryManagedConstructionTraitsISF_EEE7destroyEPSF_SJ_ = comdat any

$_ZN11xalanc_1_1011XalanVectorINS_21XalanListIteratorBaseINS_23XalanListIteratorTraitsINS_8XalanMapINS_14XalanDOMStringEPKS4_NS_17XalanMapKeyTraitsIS4_EEE5EntryEEENS_9XalanListISA_E4NodeEEENS_31MemoryManagedConstructionTraitsISF_EEE5beginEv = comdat any

$_ZN11xalanc_1_1011XalanVectorINS_21XalanListIteratorBaseINS_23XalanListIteratorTraitsINS_8XalanMapINS_14XalanDOMStringEPKS4_NS_17XalanMapKeyTraitsIS4_EEE5EntryEEENS_9XalanListISA_E4NodeEEENS_31MemoryManagedConstructionTraitsISF_EEE3endEv = comdat any

$_ZN11xalanc_1_1011XalanVectorINS_21XalanListIteratorBaseINS_23XalanListIteratorTraitsINS_8XalanMapINS_14XalanDOMStringEPKS4_NS_17XalanMapKeyTraitsIS4_EEE5EntryEEENS_9XalanListISA_E4NodeEEENS_31MemoryManagedConstructionTraitsISF_EEE10deallocateEPSF_ = comdat any

$_ZN11xalanc_1_1011XalanVectorINS_21XalanListIteratorBaseINS_23XalanListIteratorTraitsINS_8XalanMapINS_14XalanDOMStringEPKS4_NS_17XalanMapKeyTraitsIS4_EEE5EntryEEENS_9XalanListISA_E4NodeEEENS_31MemoryManagedConstructionTraitsISF_EEE7destroyERSF_ = comdat any

$_ZN11xalanc_1_1011XalanVectorINS_21XalanListIteratorBaseINS_23XalanListIteratorTraitsINS_8XalanMapINS_14XalanDOMStringEPKS4_NS_17XalanMapKeyTraitsIS4_EEE5EntryEEENS_9XalanListISA_E4NodeEEENS_31MemoryManagedConstructionTraitsISF_EEE10endPointerEv = comdat any

$_ZN11xalanc_1_1011XalanVectorINS0_INS_21XalanListIteratorBaseINS_23XalanListIteratorTraitsINS_8XalanMapINS_14XalanDOMStringEPKS4_NS_17XalanMapKeyTraitsIS4_EEE5EntryEEENS_9XalanListISA_E4NodeEEENS_31MemoryManagedConstructionTraitsISF_EEEENS_32ConstructWithMemoryManagerTraitsISI_EEE10endPointerEv = comdat any

$_ZN11xalanc_1_1018XalanMemMgrAutoPtrINS_18XPathProcessorImplELb0EE17MemMgrAutoPtrDataC2EPN11xercesc_2_713MemoryManagerEPS1_ = comdat any

$_ZNSt4pairIPN11xercesc_2_713MemoryManagerEPN11xalanc_1_1018XPathProcessorImplEEC2IRS2_RS5_Lb1EEEOT_OT0_ = comdat any

$_ZNK11xalanc_1_1018XalanMemMgrAutoPtrINS_18XPathProcessorImplELb0EE17MemMgrAutoPtrData10invariantsEv = comdat any

$_ZSt7forwardIRPN11xercesc_2_713MemoryManagerEEOT_RNSt16remove_referenceIS4_E4typeE = comdat any

$_ZSt7forwardIRPN11xalanc_1_1018XPathProcessorImplEEOT_RNSt16remove_referenceIS4_E4typeE = comdat any

$_ZN11xalanc_1_1018XalanMemMgrAutoPtrINS_18XPathProcessorImplELb0EE17MemMgrAutoPtrData10deallocateEv = comdat any

$_ZNK11xalanc_1_1018XalanMemMgrAutoPtrINS_18XPathProcessorImplELb0EE17MemMgrAutoPtrData12isInitilizedEv = comdat any

$_ZN11xalanc_1_1018XalanMemMgrAutoPtrINS_18XPathProcessorImplELb0EE17MemMgrAutoPtrData5resetEPN11xercesc_2_713MemoryManagerEPS1_ = comdat any

$_ZN11xalanc_1_1011XalanVectorIbNS_31MemoryManagedConstructionTraitsIbEEE12shrinkToSizeEm = comdat any

$_ZN11xalanc_1_1011XalanVectorINS_21XalanListIteratorBaseINS_23XalanListIteratorTraitsINS_8XalanMapINS_14XalanDOMStringEPKS4_NS_17XalanMapKeyTraitsIS4_EEE5EntryEEENS_9XalanListISA_E4NodeEEENS_31MemoryManagedConstructionTraitsISF_EEE5clearEv = comdat any

$_ZN11xalanc_1_1011XalanVectorINS_21XalanListIteratorBaseINS_23XalanListIteratorTraitsINS_8XalanMapINS_14XalanDOMStringEPKS4_NS_17XalanMapKeyTraitsIS4_EEE5EntryEEENS_9XalanListISA_E4NodeEEENS_31MemoryManagedConstructionTraitsISF_EEE12shrinkToSizeEm = comdat any

$_ZN11xalanc_1_1011XalanVectorINS_21XalanListIteratorBaseINS_23XalanListIteratorTraitsINS_8XalanMapINS_14XalanDOMStringEPKS4_NS_17XalanMapKeyTraitsIS4_EEE5EntryEEENS_9XalanListISA_E4NodeEEENS_31MemoryManagedConstructionTraitsISF_EEE8pop_backEv = comdat any

$_ZN11xalanc_1_108XalanMapINS_14XalanDOMStringEPKS1_NS_17XalanMapKeyTraitsIS1_EEE4findERS2_ = comdat any

$_ZN11xalanc_1_1016XalanMapIteratorINS_27XalanMapConstIteratorTraitsISt4pairIKNS_14XalanDOMStringEPS4_EEENS_21XalanListIteratorBaseINS_23XalanListIteratorTraitsINS_8XalanMapIS3_S5_NS_17XalanMapKeyTraitsIS3_EEE5EntryEEENS_9XalanListISE_E4NodeEEEEC2ERKNS0_INS_22XalanMapIteratorTraitsIS6_EESJ_EE = comdat any

$_ZNK11xalanc_1_108XalanMapINS_14XalanDOMStringEPKS1_NS_17XalanMapKeyTraitsIS1_EEE6doHashERS2_ = comdat any

$_ZN11xalanc_1_1011XalanVectorINS0_INS_21XalanListIteratorBaseINS_23XalanListIteratorTraitsINS_8XalanMapINS_14XalanDOMStringEPKS4_NS_17XalanMapKeyTraitsIS4_EEE5EntryEEENS_9XalanListISA_E4NodeEEENS_31MemoryManagedConstructionTraitsISF_EEEENS_32ConstructWithMemoryManagerTraitsISI_EEEixEm = comdat any

$_ZNKSt8equal_toIN11xalanc_1_1014XalanDOMStringEEclERKS1_S4_ = comdat any

$_ZN11xalanc_1_108XalanMapINS_14XalanDOMStringEPKS1_NS_17XalanMapKeyTraitsIS1_EEE3endEv = comdat any

$_ZNK11xalanc_1_108XalanMapINS_14XalanDOMStringEPKS1_NS_17XalanMapKeyTraitsIS1_EEE6doHashERS2_m = comdat any

$_ZNK11xalanc_1_1011XalanVectorINS0_INS_21XalanListIteratorBaseINS_23XalanListIteratorTraitsINS_8XalanMapINS_14XalanDOMStringEPKS4_NS_17XalanMapKeyTraitsIS4_EEE5EntryEEENS_9XalanListISA_E4NodeEEENS_31MemoryManagedConstructionTraitsISF_EEEENS_32ConstructWithMemoryManagerTraitsISI_EEE4sizeEv = comdat any

$_ZNK11xalanc_1_1021DOMStringHashFunctionclERKNS_14XalanDOMStringE = comdat any

$_ZNK11xalanc_1_1027hash_null_terminated_arraysItEclEPKt = comdat any

$_ZNK11xalanc_1_1016XalanMapIteratorINS_22XalanMapIteratorTraitsISt4pairIKNS_14XalanDOMStringEPS4_EEENS_21XalanListIteratorBaseINS_23XalanListIteratorTraitsINS_8XalanMapIS3_S5_NS_17XalanMapKeyTraitsIS3_EEE5EntryEEENS_9XalanListISE_E4NodeEEEEeqERKSK_ = comdat any

$_ZN11xalanc_1_108XalanMapINS_14XalanDOMStringEPKS1_NS_17XalanMapKeyTraitsIS1_EEE13doCreateEntryERS2_PKS3_ = comdat any

$_ZN11xalanc_1_1016XalanMapIteratorINS_22XalanMapIteratorTraitsISt4pairIKNS_14XalanDOMStringEPS4_EEENS_21XalanListIteratorBaseINS_23XalanListIteratorTraitsINS_8XalanMapIS3_S5_NS_17XalanMapKeyTraitsIS3_EEE5EntryEEENS_9XalanListISE_E4NodeEEEEaSERKSK_ = comdat any

$_ZN11xalanc_1_1011XalanVectorINS0_INS_21XalanListIteratorBaseINS_23XalanListIteratorTraitsINS_8XalanMapINS_14XalanDOMStringEPKS4_NS_17XalanMapKeyTraitsIS4_EEE5EntryEEENS_9XalanListISA_E4NodeEEENS_31MemoryManagedConstructionTraitsISF_EEEENS_32ConstructWithMemoryManagerTraitsISI_EEE6insertEPSI_mRKSI_ = comdat any

$_ZN11xalanc_1_1011XalanVectorINS_21XalanListIteratorBaseINS_23XalanListIteratorTraitsINS_8XalanMapINS_14XalanDOMStringEPKS4_NS_17XalanMapKeyTraitsIS4_EEE5EntryEEENS_9XalanListISA_E4NodeEEENS_31MemoryManagedConstructionTraitsISF_EEEC2ERN11xercesc_2_713MemoryManagerEm = comdat any

$_ZN11xalanc_1_108XalanMapINS_14XalanDOMStringEPKS1_NS_17XalanMapKeyTraitsIS1_EEE6rehashEv = comdat any

$_ZNK11xalanc_1_109XalanListINS_8XalanMapINS_14XalanDOMStringEPKS2_NS_17XalanMapKeyTraitsIS2_EEE5EntryEE5emptyEv = comdat any

$_ZN11xalanc_1_109XalanListINS_8XalanMapINS_14XalanDOMStringEPKS2_NS_17XalanMapKeyTraitsIS2_EEE5EntryEE9push_backERKS8_ = comdat any

$_ZN11xalanc_1_108XalanMapINS_14XalanDOMStringEPKS1_NS_17XalanMapKeyTraitsIS1_EEE8allocateEm = comdat any

$_ZN11xalanc_1_108XalanMapINS_14XalanDOMStringEPKS1_NS_17XalanMapKeyTraitsIS1_EEE5EntryC2EPSt4pairIS2_S3_E = comdat any

$_ZN11xalanc_1_109XalanListINS_8XalanMapINS_14XalanDOMStringEPKS2_NS_17XalanMapKeyTraitsIS2_EEE5EntryEE4backEv = comdat any

$_ZN11xalanc_1_1026ConstructWithMemoryManagerINS_14XalanDOMStringEE9constructEPS1_RKS1_RN11xercesc_2_713MemoryManagerE = comdat any

$_ZN11xalanc_1_1028ConstructWithNoMemoryManagerIPKNS_14XalanDOMStringEE9constructEPS3_RKS3_RN11xercesc_2_713MemoryManagerE = comdat any

$_ZN11xalanc_1_1028ConstructWithNoMemoryManagerIPKNS_14XalanDOMStringEE9constructEPS3_RN11xercesc_2_713MemoryManagerE = comdat any

$_ZN11xalanc_1_1021XalanListIteratorBaseINS_23XalanListIteratorTraitsINS_8XalanMapINS_14XalanDOMStringEPKS3_NS_17XalanMapKeyTraitsIS3_EEE5EntryEEENS_9XalanListIS9_E4NodeEEmmEv = comdat any

$_ZN11xalanc_1_1011XalanVectorINS_21XalanListIteratorBaseINS_23XalanListIteratorTraitsINS_8XalanMapINS_14XalanDOMStringEPKS4_NS_17XalanMapKeyTraitsIS4_EEE5EntryEEENS_9XalanListISA_E4NodeEEENS_31MemoryManagedConstructionTraitsISF_EEE9push_backERKSF_ = comdat any

$_ZN11xalanc_1_1011XalanVectorINS0_INS_21XalanListIteratorBaseINS_23XalanListIteratorTraitsINS_8XalanMapINS_14XalanDOMStringEPKS4_NS_17XalanMapKeyTraitsIS4_EEE5EntryEEENS_9XalanListISA_E4NodeEEENS_31MemoryManagedConstructionTraitsISF_EEEENS_32ConstructWithMemoryManagerTraitsISI_EEE14ensureCapacityEm = comdat any

$_ZN11xalanc_1_1026ConstructWithMemoryManagerINS_11XalanVectorINS_21XalanListIteratorBaseINS_23XalanListIteratorTraitsINS_8XalanMapINS_14XalanDOMStringEPKS5_NS_17XalanMapKeyTraitsIS5_EEE5EntryEEENS_9XalanListISB_E4NodeEEENS_31MemoryManagedConstructionTraitsISG_EEEEE9constructEPSJ_RKSJ_RN11xercesc_2_713MemoryManagerE = comdat any

$_ZNK11xalanc_1_1011XalanVectorINS0_INS_21XalanListIteratorBaseINS_23XalanListIteratorTraitsINS_8XalanMapINS_14XalanDOMStringEPKS4_NS_17XalanMapKeyTraitsIS4_EEE5EntryEEENS_9XalanListISA_E4NodeEEENS_31MemoryManagedConstructionTraitsISF_EEEENS_32ConstructWithMemoryManagerTraitsISI_EEE8capacityEv = comdat any

$_ZN11xalanc_1_1011XalanVectorINS0_INS_21XalanListIteratorBaseINS_23XalanListIteratorTraitsINS_8XalanMapINS_14XalanDOMStringEPKS4_NS_17XalanMapKeyTraitsIS4_EEE5EntryEEENS_9XalanListISA_E4NodeEEENS_31MemoryManagedConstructionTraitsISF_EEEENS_32ConstructWithMemoryManagerTraitsISI_EEE6insertEPSI_PKSI_SO_ = comdat any

$_ZN11xalanc_1_1011XalanVectorINS0_INS_21XalanListIteratorBaseINS_23XalanListIteratorTraitsINS_8XalanMapINS_14XalanDOMStringEPKS4_NS_17XalanMapKeyTraitsIS4_EEE5EntryEEENS_9XalanListISA_E4NodeEEENS_31MemoryManagedConstructionTraitsISF_EEEENS_32ConstructWithMemoryManagerTraitsISI_EEE4swapERSL_ = comdat any

$_ZN11xalanc_1_1011XalanVectorINS0_INS_21XalanListIteratorBaseINS_23XalanListIteratorTraitsINS_8XalanMapINS_14XalanDOMStringEPKS4_NS_17XalanMapKeyTraitsIS4_EEE5EntryEEENS_9XalanListISA_E4NodeEEENS_31MemoryManagedConstructionTraitsISF_EEEENS_32ConstructWithMemoryManagerTraitsISI_EEE14local_distanceEPKSI_SN_ = comdat any

$_ZN11xalanc_1_1011XalanVectorINS0_INS_21XalanListIteratorBaseINS_23XalanListIteratorTraitsINS_8XalanMapINS_14XalanDOMStringEPKS4_NS_17XalanMapKeyTraitsIS4_EEE5EntryEEENS_9XalanListISA_E4NodeEEENS_31MemoryManagedConstructionTraitsISF_EEEENS_32ConstructWithMemoryManagerTraitsISI_EEE10doPushBackERKSI_ = comdat any

$_ZSt4fillIPN11xalanc_1_1011XalanVectorINS0_21XalanListIteratorBaseINS0_23XalanListIteratorTraitsINS0_8XalanMapINS0_14XalanDOMStringEPKS5_NS0_17XalanMapKeyTraitsIS5_EEE5EntryEEENS0_9XalanListISB_E4NodeEEENS0_31MemoryManagedConstructionTraitsISG_EEEESJ_EvT_SL_RKT0_ = comdat any

$_ZSt13copy_backwardIPN11xalanc_1_1011XalanVectorINS0_21XalanListIteratorBaseINS0_23XalanListIteratorTraitsINS0_8XalanMapINS0_14XalanDOMStringEPKS5_NS0_17XalanMapKeyTraitsIS5_EEE5EntryEEENS0_9XalanListISB_E4NodeEEENS0_31MemoryManagedConstructionTraitsISG_EEEESK_ET0_T_SM_SL_ = comdat any

$_ZN11xalanc_1_1011XalanVectorINS0_INS_21XalanListIteratorBaseINS_23XalanListIteratorTraitsINS_8XalanMapINS_14XalanDOMStringEPKS4_NS_17XalanMapKeyTraitsIS4_EEE5EntryEEENS_9XalanListISA_E4NodeEEENS_31MemoryManagedConstructionTraitsISF_EEEENS_32ConstructWithMemoryManagerTraitsISI_EEE9doReserveEm = comdat any

$_ZN11xalanc_1_1011XalanVectorINS0_INS_21XalanListIteratorBaseINS_23XalanListIteratorTraitsINS_8XalanMapINS_14XalanDOMStringEPKS4_NS_17XalanMapKeyTraitsIS4_EEE5EntryEEENS_9XalanListISA_E4NodeEEENS_31MemoryManagedConstructionTraitsISF_EEEENS_32ConstructWithMemoryManagerTraitsISI_EEEC2ERKSL_RN11xercesc_2_713MemoryManagerEm = comdat any

$_ZN11xalanc_1_1011XalanVectorINS0_INS_21XalanListIteratorBaseINS_23XalanListIteratorTraitsINS_8XalanMapINS_14XalanDOMStringEPKS4_NS_17XalanMapKeyTraitsIS4_EEE5EntryEEENS_9XalanListISA_E4NodeEEENS_31MemoryManagedConstructionTraitsISF_EEEENS_32ConstructWithMemoryManagerTraitsISI_EEE9local_maxEmm = comdat any

$_ZNK11xalanc_1_1011XalanVectorINS0_INS_21XalanListIteratorBaseINS_23XalanListIteratorTraitsINS_8XalanMapINS_14XalanDOMStringEPKS4_NS_17XalanMapKeyTraitsIS4_EEE5EntryEEENS_9XalanListISA_E4NodeEEENS_31MemoryManagedConstructionTraitsISF_EEEENS_32ConstructWithMemoryManagerTraitsISI_EEE5beginEv = comdat any

$_ZNK11xalanc_1_1011XalanVectorINS0_INS_21XalanListIteratorBaseINS_23XalanListIteratorTraitsINS_8XalanMapINS_14XalanDOMStringEPKS4_NS_17XalanMapKeyTraitsIS4_EEE5EntryEEENS_9XalanListISA_E4NodeEEENS_31MemoryManagedConstructionTraitsISF_EEEENS_32ConstructWithMemoryManagerTraitsISI_EEE3endEv = comdat any

$_ZNK11xalanc_1_1011XalanVectorINS0_INS_21XalanListIteratorBaseINS_23XalanListIteratorTraitsINS_8XalanMapINS_14XalanDOMStringEPKS4_NS_17XalanMapKeyTraitsIS4_EEE5EntryEEENS_9XalanListISA_E4NodeEEENS_31MemoryManagedConstructionTraitsISF_EEEENS_32ConstructWithMemoryManagerTraitsISI_EEE10endPointerEv = comdat any

$_ZN11xalanc_1_1011XalanVectorINS_21XalanListIteratorBaseINS_23XalanListIteratorTraitsINS_8XalanMapINS_14XalanDOMStringEPKS4_NS_17XalanMapKeyTraitsIS4_EEE5EntryEEENS_9XalanListISA_E4NodeEEENS_31MemoryManagedConstructionTraitsISF_EEEC2ERKSI_RN11xercesc_2_713MemoryManagerEm = comdat any

$_ZN11xalanc_1_1011XalanVectorINS_21XalanListIteratorBaseINS_23XalanListIteratorTraitsINS_8XalanMapINS_14XalanDOMStringEPKS4_NS_17XalanMapKeyTraitsIS4_EEE5EntryEEENS_9XalanListISA_E4NodeEEENS_31MemoryManagedConstructionTraitsISF_EEE9local_maxEmm = comdat any

$_ZN11xalanc_1_1011XalanVectorINS_21XalanListIteratorBaseINS_23XalanListIteratorTraitsINS_8XalanMapINS_14XalanDOMStringEPKS4_NS_17XalanMapKeyTraitsIS4_EEE5EntryEEENS_9XalanListISA_E4NodeEEENS_31MemoryManagedConstructionTraitsISF_EEE6insertEPSF_PKSF_SL_ = comdat any

$_ZNK11xalanc_1_1011XalanVectorINS_21XalanListIteratorBaseINS_23XalanListIteratorTraitsINS_8XalanMapINS_14XalanDOMStringEPKS4_NS_17XalanMapKeyTraitsIS4_EEE5EntryEEENS_9XalanListISA_E4NodeEEENS_31MemoryManagedConstructionTraitsISF_EEE5beginEv = comdat any

$_ZNK11xalanc_1_1011XalanVectorINS_21XalanListIteratorBaseINS_23XalanListIteratorTraitsINS_8XalanMapINS_14XalanDOMStringEPKS4_NS_17XalanMapKeyTraitsIS4_EEE5EntryEEENS_9XalanListISA_E4NodeEEENS_31MemoryManagedConstructionTraitsISF_EEE3endEv = comdat any

$_ZN11xalanc_1_1011XalanVectorINS_21XalanListIteratorBaseINS_23XalanListIteratorTraitsINS_8XalanMapINS_14XalanDOMStringEPKS4_NS_17XalanMapKeyTraitsIS4_EEE5EntryEEENS_9XalanListISA_E4NodeEEENS_31MemoryManagedConstructionTraitsISF_EEE4swapERSI_ = comdat any

$_ZN11xalanc_1_1011XalanVectorINS_21XalanListIteratorBaseINS_23XalanListIteratorTraitsINS_8XalanMapINS_14XalanDOMStringEPKS4_NS_17XalanMapKeyTraitsIS4_EEE5EntryEEENS_9XalanListISA_E4NodeEEENS_31MemoryManagedConstructionTraitsISF_EEE8allocateEm = comdat any

$_ZN11xalanc_1_1011XalanVectorINS_21XalanListIteratorBaseINS_23XalanListIteratorTraitsINS_8XalanMapINS_14XalanDOMStringEPKS4_NS_17XalanMapKeyTraitsIS4_EEE5EntryEEENS_9XalanListISA_E4NodeEEENS_31MemoryManagedConstructionTraitsISF_EEE14local_distanceEPKSF_SK_ = comdat any

$_ZNK11xalanc_1_1011XalanVectorINS_21XalanListIteratorBaseINS_23XalanListIteratorTraitsINS_8XalanMapINS_14XalanDOMStringEPKS4_NS_17XalanMapKeyTraitsIS4_EEE5EntryEEENS_9XalanListISA_E4NodeEEENS_31MemoryManagedConstructionTraitsISF_EEE4sizeEv = comdat any

$_ZN11xalanc_1_1011XalanVectorINS_21XalanListIteratorBaseINS_23XalanListIteratorTraitsINS_8XalanMapINS_14XalanDOMStringEPKS4_NS_17XalanMapKeyTraitsIS4_EEE5EntryEEENS_9XalanListISA_E4NodeEEENS_31MemoryManagedConstructionTraitsISF_EEE14ensureCapacityEm = comdat any

$_ZN11xalanc_1_1028ConstructWithNoMemoryManagerINS_21XalanListIteratorBaseINS_23XalanListIteratorTraitsINS_8XalanMapINS_14XalanDOMStringEPKS4_NS_17XalanMapKeyTraitsIS4_EEE5EntryEEENS_9XalanListISA_E4NodeEEEE9constructEPSF_RKSF_RN11xercesc_2_713MemoryManagerE = comdat any

$_ZNK11xalanc_1_1011XalanVectorINS_21XalanListIteratorBaseINS_23XalanListIteratorTraitsINS_8XalanMapINS_14XalanDOMStringEPKS4_NS_17XalanMapKeyTraitsIS4_EEE5EntryEEENS_9XalanListISA_E4NodeEEENS_31MemoryManagedConstructionTraitsISF_EEE8capacityEv = comdat any

$_ZN11xalanc_1_1011XalanVectorINS_21XalanListIteratorBaseINS_23XalanListIteratorTraitsINS_8XalanMapINS_14XalanDOMStringEPKS4_NS_17XalanMapKeyTraitsIS4_EEE5EntryEEENS_9XalanListISA_E4NodeEEENS_31MemoryManagedConstructionTraitsISF_EEE10doPushBackERKSF_ = comdat any

$_ZSt4copyIPKN11xalanc_1_1021XalanListIteratorBaseINS0_23XalanListIteratorTraitsINS0_8XalanMapINS0_14XalanDOMStringEPKS4_NS0_17XalanMapKeyTraitsIS4_EEE5EntryEEENS0_9XalanListISA_E4NodeEEEPSF_ET0_T_SK_SJ_ = comdat any

$_ZSt13copy_backwardIPN11xalanc_1_1021XalanListIteratorBaseINS0_23XalanListIteratorTraitsINS0_8XalanMapINS0_14XalanDOMStringEPKS4_NS0_17XalanMapKeyTraitsIS4_EEE5EntryEEENS0_9XalanListISA_E4NodeEEESG_ET0_T_SI_SH_ = comdat any

$_ZSt8distanceIPKN11xalanc_1_1021XalanListIteratorBaseINS0_23XalanListIteratorTraitsINS0_8XalanMapINS0_14XalanDOMStringEPKS4_NS0_17XalanMapKeyTraitsIS4_EEE5EntryEEENS0_9XalanListISA_E4NodeEEEENSt15iterator_traitsIT_E15difference_typeESJ_SJ_ = comdat any

$_ZSt10__distanceIPKN11xalanc_1_1021XalanListIteratorBaseINS0_23XalanListIteratorTraitsINS0_8XalanMapINS0_14XalanDOMStringEPKS4_NS0_17XalanMapKeyTraitsIS4_EEE5EntryEEENS0_9XalanListISA_E4NodeEEEENSt15iterator_traitsIT_E15difference_typeESJ_SJ_St26random_access_iterator_tag = comdat any

$_ZSt19__iterator_categoryIPKN11xalanc_1_1021XalanListIteratorBaseINS0_23XalanListIteratorTraitsINS0_8XalanMapINS0_14XalanDOMStringEPKS4_NS0_17XalanMapKeyTraitsIS4_EEE5EntryEEENS0_9XalanListISA_E4NodeEEEENSt15iterator_traitsIT_E17iterator_categoryERKSJ_ = comdat any

$_ZN11xalanc_1_1011XalanVectorINS_21XalanListIteratorBaseINS_23XalanListIteratorTraitsINS_8XalanMapINS_14XalanDOMStringEPKS4_NS_17XalanMapKeyTraitsIS4_EEE5EntryEEENS_9XalanListISA_E4NodeEEENS_31MemoryManagedConstructionTraitsISF_EEE9doReserveEm = comdat any

$_ZSt13__copy_move_aILb0EPKN11xalanc_1_1021XalanListIteratorBaseINS0_23XalanListIteratorTraitsINS0_8XalanMapINS0_14XalanDOMStringEPKS4_NS0_17XalanMapKeyTraitsIS4_EEE5EntryEEENS0_9XalanListISA_E4NodeEEEPSF_ET1_T0_SK_SJ_ = comdat any

$_ZSt12__miter_baseIPKN11xalanc_1_1021XalanListIteratorBaseINS0_23XalanListIteratorTraitsINS0_8XalanMapINS0_14XalanDOMStringEPKS4_NS0_17XalanMapKeyTraitsIS4_EEE5EntryEEENS0_9XalanListISA_E4NodeEEEET_SI_ = comdat any

$_ZSt12__niter_wrapIPN11xalanc_1_1021XalanListIteratorBaseINS0_23XalanListIteratorTraitsINS0_8XalanMapINS0_14XalanDOMStringEPKS4_NS0_17XalanMapKeyTraitsIS4_EEE5EntryEEENS0_9XalanListISA_E4NodeEEEET_RKSH_SH_ = comdat any

$_ZSt14__copy_move_a1ILb0EPKN11xalanc_1_1021XalanListIteratorBaseINS0_23XalanListIteratorTraitsINS0_8XalanMapINS0_14XalanDOMStringEPKS4_NS0_17XalanMapKeyTraitsIS4_EEE5EntryEEENS0_9XalanListISA_E4NodeEEEPSF_ET1_T0_SK_SJ_ = comdat any

$_ZSt12__niter_baseIPKN11xalanc_1_1021XalanListIteratorBaseINS0_23XalanListIteratorTraitsINS0_8XalanMapINS0_14XalanDOMStringEPKS4_NS0_17XalanMapKeyTraitsIS4_EEE5EntryEEENS0_9XalanListISA_E4NodeEEEET_SI_ = comdat any

$_ZSt12__niter_baseIPN11xalanc_1_1021XalanListIteratorBaseINS0_23XalanListIteratorTraitsINS0_8XalanMapINS0_14XalanDOMStringEPKS4_NS0_17XalanMapKeyTraitsIS4_EEE5EntryEEENS0_9XalanListISA_E4NodeEEEET_SH_ = comdat any

$_ZSt14__copy_move_a2ILb0EPKN11xalanc_1_1021XalanListIteratorBaseINS0_23XalanListIteratorTraitsINS0_8XalanMapINS0_14XalanDOMStringEPKS4_NS0_17XalanMapKeyTraitsIS4_EEE5EntryEEENS0_9XalanListISA_E4NodeEEEPSF_ET1_T0_SK_SJ_ = comdat any

$_ZNSt11__copy_moveILb0ELb0ESt26random_access_iterator_tagE8__copy_mIPKN11xalanc_1_1021XalanListIteratorBaseINS3_23XalanListIteratorTraitsINS3_8XalanMapINS3_14XalanDOMStringEPKS7_NS3_17XalanMapKeyTraitsIS7_EEE5EntryEEENS3_9XalanListISD_E4NodeEEEPSI_EET0_T_SN_SM_ = comdat any

$_ZN11xalanc_1_1021XalanListIteratorBaseINS_23XalanListIteratorTraitsINS_8XalanMapINS_14XalanDOMStringEPKS3_NS_17XalanMapKeyTraitsIS3_EEE5EntryEEENS_9XalanListIS9_E4NodeEEaSERKSE_ = comdat any

$_ZSt22__copy_move_backward_aILb0EPN11xalanc_1_1021XalanListIteratorBaseINS0_23XalanListIteratorTraitsINS0_8XalanMapINS0_14XalanDOMStringEPKS4_NS0_17XalanMapKeyTraitsIS4_EEE5EntryEEENS0_9XalanListISA_E4NodeEEESG_ET1_T0_SI_SH_ = comdat any

$_ZSt12__miter_baseIPN11xalanc_1_1021XalanListIteratorBaseINS0_23XalanListIteratorTraitsINS0_8XalanMapINS0_14XalanDOMStringEPKS4_NS0_17XalanMapKeyTraitsIS4_EEE5EntryEEENS0_9XalanListISA_E4NodeEEEET_SH_ = comdat any

$_ZSt23__copy_move_backward_a1ILb0EPN11xalanc_1_1021XalanListIteratorBaseINS0_23XalanListIteratorTraitsINS0_8XalanMapINS0_14XalanDOMStringEPKS4_NS0_17XalanMapKeyTraitsIS4_EEE5EntryEEENS0_9XalanListISA_E4NodeEEESG_ET1_T0_SI_SH_ = comdat any

$_ZSt23__copy_move_backward_a2ILb0EPN11xalanc_1_1021XalanListIteratorBaseINS0_23XalanListIteratorTraitsINS0_8XalanMapINS0_14XalanDOMStringEPKS4_NS0_17XalanMapKeyTraitsIS4_EEE5EntryEEENS0_9XalanListISA_E4NodeEEESG_ET1_T0_SI_SH_ = comdat any

$_ZNSt20__copy_move_backwardILb0ELb0ESt26random_access_iterator_tagE13__copy_move_bIPN11xalanc_1_1021XalanListIteratorBaseINS3_23XalanListIteratorTraitsINS3_8XalanMapINS3_14XalanDOMStringEPKS7_NS3_17XalanMapKeyTraitsIS7_EEE5EntryEEENS3_9XalanListISD_E4NodeEEESJ_EET0_T_SL_SK_ = comdat any

$_ZNK11xalanc_1_1011XalanVectorINS_21XalanListIteratorBaseINS_23XalanListIteratorTraitsINS_8XalanMapINS_14XalanDOMStringEPKS4_NS_17XalanMapKeyTraitsIS4_EEE5EntryEEENS_9XalanListISA_E4NodeEEENS_31MemoryManagedConstructionTraitsISF_EEE10endPointerEv = comdat any

$_ZSt4copyIPKN11xalanc_1_1011XalanVectorINS0_21XalanListIteratorBaseINS0_23XalanListIteratorTraitsINS0_8XalanMapINS0_14XalanDOMStringEPKS5_NS0_17XalanMapKeyTraitsIS5_EEE5EntryEEENS0_9XalanListISB_E4NodeEEENS0_31MemoryManagedConstructionTraitsISG_EEEEPSJ_ET0_T_SO_SN_ = comdat any

$_ZSt13__copy_move_aILb0EPKN11xalanc_1_1011XalanVectorINS0_21XalanListIteratorBaseINS0_23XalanListIteratorTraitsINS0_8XalanMapINS0_14XalanDOMStringEPKS5_NS0_17XalanMapKeyTraitsIS5_EEE5EntryEEENS0_9XalanListISB_E4NodeEEENS0_31MemoryManagedConstructionTraitsISG_EEEEPSJ_ET1_T0_SO_SN_ = comdat any

$_ZSt12__miter_baseIPKN11xalanc_1_1011XalanVectorINS0_21XalanListIteratorBaseINS0_23XalanListIteratorTraitsINS0_8XalanMapINS0_14XalanDOMStringEPKS5_NS0_17XalanMapKeyTraitsIS5_EEE5EntryEEENS0_9XalanListISB_E4NodeEEENS0_31MemoryManagedConstructionTraitsISG_EEEEET_SM_ = comdat any

$_ZSt12__niter_wrapIPN11xalanc_1_1011XalanVectorINS0_21XalanListIteratorBaseINS0_23XalanListIteratorTraitsINS0_8XalanMapINS0_14XalanDOMStringEPKS5_NS0_17XalanMapKeyTraitsIS5_EEE5EntryEEENS0_9XalanListISB_E4NodeEEENS0_31MemoryManagedConstructionTraitsISG_EEEEET_RKSL_SL_ = comdat any

$_ZSt14__copy_move_a1ILb0EPKN11xalanc_1_1011XalanVectorINS0_21XalanListIteratorBaseINS0_23XalanListIteratorTraitsINS0_8XalanMapINS0_14XalanDOMStringEPKS5_NS0_17XalanMapKeyTraitsIS5_EEE5EntryEEENS0_9XalanListISB_E4NodeEEENS0_31MemoryManagedConstructionTraitsISG_EEEEPSJ_ET1_T0_SO_SN_ = comdat any

$_ZSt12__niter_baseIPKN11xalanc_1_1011XalanVectorINS0_21XalanListIteratorBaseINS0_23XalanListIteratorTraitsINS0_8XalanMapINS0_14XalanDOMStringEPKS5_NS0_17XalanMapKeyTraitsIS5_EEE5EntryEEENS0_9XalanListISB_E4NodeEEENS0_31MemoryManagedConstructionTraitsISG_EEEEET_SM_ = comdat any

$_ZSt12__niter_baseIPN11xalanc_1_1011XalanVectorINS0_21XalanListIteratorBaseINS0_23XalanListIteratorTraitsINS0_8XalanMapINS0_14XalanDOMStringEPKS5_NS0_17XalanMapKeyTraitsIS5_EEE5EntryEEENS0_9XalanListISB_E4NodeEEENS0_31MemoryManagedConstructionTraitsISG_EEEEET_SL_ = comdat any

$_ZSt14__copy_move_a2ILb0EPKN11xalanc_1_1011XalanVectorINS0_21XalanListIteratorBaseINS0_23XalanListIteratorTraitsINS0_8XalanMapINS0_14XalanDOMStringEPKS5_NS0_17XalanMapKeyTraitsIS5_EEE5EntryEEENS0_9XalanListISB_E4NodeEEENS0_31MemoryManagedConstructionTraitsISG_EEEEPSJ_ET1_T0_SO_SN_ = comdat any

$_ZNSt11__copy_moveILb0ELb0ESt26random_access_iterator_tagE8__copy_mIPKN11xalanc_1_1011XalanVectorINS3_21XalanListIteratorBaseINS3_23XalanListIteratorTraitsINS3_8XalanMapINS3_14XalanDOMStringEPKS8_NS3_17XalanMapKeyTraitsIS8_EEE5EntryEEENS3_9XalanListISE_E4NodeEEENS3_31MemoryManagedConstructionTraitsISJ_EEEEPSM_EET0_T_SR_SQ_ = comdat any

$_ZN11xalanc_1_1011XalanVectorINS_21XalanListIteratorBaseINS_23XalanListIteratorTraitsINS_8XalanMapINS_14XalanDOMStringEPKS4_NS_17XalanMapKeyTraitsIS4_EEE5EntryEEENS_9XalanListISA_E4NodeEEENS_31MemoryManagedConstructionTraitsISF_EEEaSERKSI_ = comdat any

$_ZSt8distanceIPKN11xalanc_1_1011XalanVectorINS0_21XalanListIteratorBaseINS0_23XalanListIteratorTraitsINS0_8XalanMapINS0_14XalanDOMStringEPKS5_NS0_17XalanMapKeyTraitsIS5_EEE5EntryEEENS0_9XalanListISB_E4NodeEEENS0_31MemoryManagedConstructionTraitsISG_EEEEENSt15iterator_traitsIT_E15difference_typeESN_SN_ = comdat any

$_ZSt10__distanceIPKN11xalanc_1_1011XalanVectorINS0_21XalanListIteratorBaseINS0_23XalanListIteratorTraitsINS0_8XalanMapINS0_14XalanDOMStringEPKS5_NS0_17XalanMapKeyTraitsIS5_EEE5EntryEEENS0_9XalanListISB_E4NodeEEENS0_31MemoryManagedConstructionTraitsISG_EEEEENSt15iterator_traitsIT_E15difference_typeESN_SN_St26random_access_iterator_tag = comdat any

$_ZSt19__iterator_categoryIPKN11xalanc_1_1011XalanVectorINS0_21XalanListIteratorBaseINS0_23XalanListIteratorTraitsINS0_8XalanMapINS0_14XalanDOMStringEPKS5_NS0_17XalanMapKeyTraitsIS5_EEE5EntryEEENS0_9XalanListISB_E4NodeEEENS0_31MemoryManagedConstructionTraitsISG_EEEEENSt15iterator_traitsIT_E17iterator_categoryERKSN_ = comdat any

$_ZSt8__fill_aIPN11xalanc_1_1011XalanVectorINS0_21XalanListIteratorBaseINS0_23XalanListIteratorTraitsINS0_8XalanMapINS0_14XalanDOMStringEPKS5_NS0_17XalanMapKeyTraitsIS5_EEE5EntryEEENS0_9XalanListISB_E4NodeEEENS0_31MemoryManagedConstructionTraitsISG_EEEESJ_EvT_SL_RKT0_ = comdat any

$_ZSt9__fill_a1IPN11xalanc_1_1011XalanVectorINS0_21XalanListIteratorBaseINS0_23XalanListIteratorTraitsINS0_8XalanMapINS0_14XalanDOMStringEPKS5_NS0_17XalanMapKeyTraitsIS5_EEE5EntryEEENS0_9XalanListISB_E4NodeEEENS0_31MemoryManagedConstructionTraitsISG_EEEESJ_EN9__gnu_cxx11__enable_ifIXntsr11__is_scalarIT0_EE7__valueEvE6__typeET_SQ_RKSN_ = comdat any

$_ZSt22__copy_move_backward_aILb0EPN11xalanc_1_1011XalanVectorINS0_21XalanListIteratorBaseINS0_23XalanListIteratorTraitsINS0_8XalanMapINS0_14XalanDOMStringEPKS5_NS0_17XalanMapKeyTraitsIS5_EEE5EntryEEENS0_9XalanListISB_E4NodeEEENS0_31MemoryManagedConstructionTraitsISG_EEEESK_ET1_T0_SM_SL_ = comdat any

$_ZSt12__miter_baseIPN11xalanc_1_1011XalanVectorINS0_21XalanListIteratorBaseINS0_23XalanListIteratorTraitsINS0_8XalanMapINS0_14XalanDOMStringEPKS5_NS0_17XalanMapKeyTraitsIS5_EEE5EntryEEENS0_9XalanListISB_E4NodeEEENS0_31MemoryManagedConstructionTraitsISG_EEEEET_SL_ = comdat any

$_ZSt23__copy_move_backward_a1ILb0EPN11xalanc_1_1011XalanVectorINS0_21XalanListIteratorBaseINS0_23XalanListIteratorTraitsINS0_8XalanMapINS0_14XalanDOMStringEPKS5_NS0_17XalanMapKeyTraitsIS5_EEE5EntryEEENS0_9XalanListISB_E4NodeEEENS0_31MemoryManagedConstructionTraitsISG_EEEESK_ET1_T0_SM_SL_ = comdat any

$_ZSt23__copy_move_backward_a2ILb0EPN11xalanc_1_1011XalanVectorINS0_21XalanListIteratorBaseINS0_23XalanListIteratorTraitsINS0_8XalanMapINS0_14XalanDOMStringEPKS5_NS0_17XalanMapKeyTraitsIS5_EEE5EntryEEENS0_9XalanListISB_E4NodeEEENS0_31MemoryManagedConstructionTraitsISG_EEEESK_ET1_T0_SM_SL_ = comdat any

$_ZNSt20__copy_move_backwardILb0ELb0ESt26random_access_iterator_tagE13__copy_move_bIPN11xalanc_1_1011XalanVectorINS3_21XalanListIteratorBaseINS3_23XalanListIteratorTraitsINS3_8XalanMapINS3_14XalanDOMStringEPKS8_NS3_17XalanMapKeyTraitsIS8_EEE5EntryEEENS3_9XalanListISE_E4NodeEEENS3_31MemoryManagedConstructionTraitsISJ_EEEESN_EET0_T_SP_SO_ = comdat any

$_ZN11xalanc_1_1011XalanVectorINS0_INS_21XalanListIteratorBaseINS_23XalanListIteratorTraitsINS_8XalanMapINS_14XalanDOMStringEPKS4_NS_17XalanMapKeyTraitsIS4_EEE5EntryEEENS_9XalanListISA_E4NodeEEENS_31MemoryManagedConstructionTraitsISF_EEEENS_32ConstructWithMemoryManagerTraitsISI_EEEC2EmRKSI_RN11xercesc_2_713MemoryManagerE = comdat any

$_ZNK11xalanc_1_109XalanListINS_8XalanMapINS_14XalanDOMStringEPKS2_NS_17XalanMapKeyTraitsIS2_EEE5EntryEE5beginEv = comdat any

$_ZNK11xalanc_1_1021XalanListIteratorBaseINS_28XalanListConstIteratorTraitsINS_8XalanMapINS_14XalanDOMStringEPKS3_NS_17XalanMapKeyTraitsIS3_EEE5EntryEEENS_9XalanListIS9_E4NodeEEeqERKSE_ = comdat any

$_ZNK11xalanc_1_109XalanListINS_8XalanMapINS_14XalanDOMStringEPKS2_NS_17XalanMapKeyTraitsIS2_EEE5EntryEE3endEv = comdat any

$_ZNK11xalanc_1_109XalanListINS_8XalanMapINS_14XalanDOMStringEPKS2_NS_17XalanMapKeyTraitsIS2_EEE5EntryEE11getListHeadEv = comdat any

$_ZN11xalanc_1_1021XalanListIteratorBaseINS_28XalanListConstIteratorTraitsINS_8XalanMapINS_14XalanDOMStringEPKS3_NS_17XalanMapKeyTraitsIS3_EEE5EntryEEENS_9XalanListIS9_E4NodeEEC2ERSD_ = comdat any

$_ZN11xalanc_1_109XalanListINS_8XalanMapINS_14XalanDOMStringEPKS2_NS_17XalanMapKeyTraitsIS2_EEE5EntryEE13constructNodeERKS8_NS_21XalanListIteratorBaseINS_23XalanListIteratorTraitsIS8_EENS9_4NodeEEE = comdat any

$_ZN11xalanc_1_1028ConstructWithNoMemoryManagerINS_8XalanMapINS_14XalanDOMStringEPKS2_NS_17XalanMapKeyTraitsIS2_EEE5EntryEE9constructEPS8_RKS8_RN11xercesc_2_713MemoryManagerE = comdat any

$_ZNK11xalanc_1_1021XalanListIteratorBaseINS_23XalanListIteratorTraitsINS_8XalanMapINS_14XalanDOMStringEPKS3_NS_17XalanMapKeyTraitsIS3_EEE5EntryEEENS_9XalanListIS9_E4NodeEEdeEv = comdat any

$_ZN11xalanc_1_1011XalanVectorIiNS_31MemoryManagedConstructionTraitsIiEEEC2ERN11xercesc_2_713MemoryManagerEm = comdat any

$_ZN11xalanc_1_1011XalanVectorIiNS_31MemoryManagedConstructionTraitsIiEEE6insertEPimRKi = comdat any

$_ZN11xalanc_1_1011XalanVectorIiNS_31MemoryManagedConstructionTraitsIiEEE5beginEv = comdat any

$_ZN11xalanc_1_1011XalanVectorIiNS_31MemoryManagedConstructionTraitsIiEEE4swapERS3_ = comdat any

$_ZN11xalanc_1_1011XalanVectorIiNS_31MemoryManagedConstructionTraitsIiEEE8allocateEm = comdat any

$_ZN11xalanc_1_1011XalanVectorIiNS_31MemoryManagedConstructionTraitsIiEEE3endEv = comdat any

$_ZN11xalanc_1_1011XalanVectorIiNS_31MemoryManagedConstructionTraitsIiEEE14ensureCapacityEm = comdat any

$_ZN11xalanc_1_1028ConstructWithNoMemoryManagerIiE9constructEPiRKiRN11xercesc_2_713MemoryManagerE = comdat any

$_ZNK11xalanc_1_1011XalanVectorIiNS_31MemoryManagedConstructionTraitsIiEEE8capacityEv = comdat any

$_ZN11xalanc_1_1011XalanVectorIiNS_31MemoryManagedConstructionTraitsIiEEE6insertEPiPKiS6_ = comdat any

$_ZN11xalanc_1_1011XalanVectorIiNS_31MemoryManagedConstructionTraitsIiEEE14local_distanceEPKiS5_ = comdat any

$_ZN11xalanc_1_1011XalanVectorIiNS_31MemoryManagedConstructionTraitsIiEEE10doPushBackERKi = comdat any

$_ZSt4fillIPiiEvT_S1_RKT0_ = comdat any

$_ZSt13copy_backwardIPiS0_ET0_T_S2_S1_ = comdat any

$_ZN11xalanc_1_1011XalanVectorIiNS_31MemoryManagedConstructionTraitsIiEEE10endPointerEv = comdat any

$_ZN11xalanc_1_1011XalanVectorIiNS_31MemoryManagedConstructionTraitsIiEEE9doReserveEm = comdat any

$_ZN11xalanc_1_1011XalanVectorIiNS_31MemoryManagedConstructionTraitsIiEEEC2ERKS3_RN11xercesc_2_713MemoryManagerEm = comdat any

$_ZN11xalanc_1_1011XalanVectorIiNS_31MemoryManagedConstructionTraitsIiEEE9local_maxEmm = comdat any

$_ZNK11xalanc_1_1011XalanVectorIiNS_31MemoryManagedConstructionTraitsIiEEE5beginEv = comdat any

$_ZNK11xalanc_1_1011XalanVectorIiNS_31MemoryManagedConstructionTraitsIiEEE3endEv = comdat any

$_ZNK11xalanc_1_1011XalanVectorIiNS_31MemoryManagedConstructionTraitsIiEEE10endPointerEv = comdat any

$_ZSt4copyIPKiPiET0_T_S4_S3_ = comdat any

$_ZSt13__copy_move_aILb0EPKiPiET1_T0_S4_S3_ = comdat any

$_ZSt12__miter_baseIPKiET_S2_ = comdat any

$_ZSt12__niter_wrapIPiET_RKS1_S1_ = comdat any

$_ZSt14__copy_move_a1ILb0EPKiPiET1_T0_S4_S3_ = comdat any

$_ZSt12__niter_baseIPKiET_S2_ = comdat any

$_ZSt12__niter_baseIPiET_S1_ = comdat any

$_ZSt14__copy_move_a2ILb0EPKiPiET1_T0_S4_S3_ = comdat any

$_ZNSt11__copy_moveILb0ELb1ESt26random_access_iterator_tagE8__copy_mIiEEPT_PKS3_S6_S4_ = comdat any

$_ZSt8distanceIPKiENSt15iterator_traitsIT_E15difference_typeES3_S3_ = comdat any

$_ZSt10__distanceIPKiENSt15iterator_traitsIT_E15difference_typeES3_S3_St26random_access_iterator_tag = comdat any

$_ZSt19__iterator_categoryIPKiENSt15iterator_traitsIT_E17iterator_categoryERKS3_ = comdat any

$_ZSt8__fill_aIPiiEvT_S1_RKT0_ = comdat any

$_ZSt9__fill_a1IPiiEN9__gnu_cxx11__enable_ifIXsr11__is_scalarIT0_EE7__valueEvE6__typeET_S6_RKS3_ = comdat any

$_ZSt22__copy_move_backward_aILb0EPiS0_ET1_T0_S2_S1_ = comdat any

$_ZSt12__miter_baseIPiET_S1_ = comdat any

$_ZSt23__copy_move_backward_a1ILb0EPiS0_ET1_T0_S2_S1_ = comdat any

$_ZSt23__copy_move_backward_a2ILb0EPiS0_ET1_T0_S2_S1_ = comdat any

$_ZNSt20__copy_move_backwardILb0ELb1ESt26random_access_iterator_tagE13__copy_move_bIiEEPT_PKS3_S6_S4_ = comdat any

$_ZN11xalanc_1_1011XalanVectorIiNS_31MemoryManagedConstructionTraitsIiEEE7destroyEPiS4_ = comdat any

$_ZN11xalanc_1_1011XalanVectorIiNS_31MemoryManagedConstructionTraitsIiEEE10deallocateEPi = comdat any

$_ZN11xalanc_1_1011XalanVectorIiNS_31MemoryManagedConstructionTraitsIiEEE7destroyERi = comdat any

$_ZN11xalanc_1_1011XalanVectorIbNS_31MemoryManagedConstructionTraitsIbEEE10doPushBackERKb = comdat any

$_ZN11xalanc_1_1028ConstructWithNoMemoryManagerIbE9constructEPbRKbRN11xercesc_2_713MemoryManagerE = comdat any

$_ZN11xalanc_1_1011XalanVectorIbNS_31MemoryManagedConstructionTraitsIbEEEC2ERKS3_RN11xercesc_2_713MemoryManagerEm = comdat any

$_ZN11xalanc_1_1011XalanVectorIbNS_31MemoryManagedConstructionTraitsIbEEE4swapERS3_ = comdat any

$_ZN11xalanc_1_1011XalanVectorIbNS_31MemoryManagedConstructionTraitsIbEEE9local_maxEmm = comdat any

$_ZN11xalanc_1_1011XalanVectorIbNS_31MemoryManagedConstructionTraitsIbEEE6insertEPbPKbS6_ = comdat any

$_ZNK11xalanc_1_1011XalanVectorIbNS_31MemoryManagedConstructionTraitsIbEEE5beginEv = comdat any

$_ZNK11xalanc_1_1011XalanVectorIbNS_31MemoryManagedConstructionTraitsIbEEE3endEv = comdat any

$_ZN11xalanc_1_1011XalanVectorIbNS_31MemoryManagedConstructionTraitsIbEEE14local_distanceEPKbS5_ = comdat any

$_ZNK11xalanc_1_1011XalanVectorIbNS_31MemoryManagedConstructionTraitsIbEEE4sizeEv = comdat any

$_ZN11xalanc_1_1011XalanVectorIbNS_31MemoryManagedConstructionTraitsIbEEE14ensureCapacityEm = comdat any

$_ZNK11xalanc_1_1011XalanVectorIbNS_31MemoryManagedConstructionTraitsIbEEE8capacityEv = comdat any

$_ZSt4copyIPKbPbET0_T_S4_S3_ = comdat any

$_ZSt13copy_backwardIPbS0_ET0_T_S2_S1_ = comdat any

$_ZSt8distanceIPKbENSt15iterator_traitsIT_E15difference_typeES3_S3_ = comdat any

$_ZSt10__distanceIPKbENSt15iterator_traitsIT_E15difference_typeES3_S3_St26random_access_iterator_tag = comdat any

$_ZSt19__iterator_categoryIPKbENSt15iterator_traitsIT_E17iterator_categoryERKS3_ = comdat any

$_ZN11xalanc_1_1011XalanVectorIbNS_31MemoryManagedConstructionTraitsIbEEE9doReserveEm = comdat any

$_ZSt13__copy_move_aILb0EPKbPbET1_T0_S4_S3_ = comdat any

$_ZSt12__miter_baseIPKbET_S2_ = comdat any

$_ZSt12__niter_wrapIPbET_RKS1_S1_ = comdat any

$_ZSt14__copy_move_a1ILb0EPKbPbET1_T0_S4_S3_ = comdat any

$_ZSt12__niter_baseIPKbET_S2_ = comdat any

$_ZSt12__niter_baseIPbET_S1_ = comdat any

$_ZSt14__copy_move_a2ILb0EPKbPbET1_T0_S4_S3_ = comdat any

$_ZNSt11__copy_moveILb0ELb1ESt26random_access_iterator_tagE8__copy_mIbEEPT_PKS3_S6_S4_ = comdat any

$_ZSt22__copy_move_backward_aILb0EPbS0_ET1_T0_S2_S1_ = comdat any

$_ZSt12__miter_baseIPbET_S1_ = comdat any

$_ZSt23__copy_move_backward_a1ILb0EPbS0_ET1_T0_S2_S1_ = comdat any

$_ZSt23__copy_move_backward_a2ILb0EPbS0_ET1_T0_S2_S1_ = comdat any

$_ZNSt20__copy_move_backwardILb0ELb1ESt26random_access_iterator_tagE13__copy_move_bIbEEPT_PKS3_S6_S4_ = comdat any

$_ZNK11xalanc_1_1011XalanVectorIbNS_31MemoryManagedConstructionTraitsIbEEE10endPointerEv = comdat any

@_ZTVN11xalanc_1_1018XPathProcessorImplE = dso_local unnamed_addr constant { [6 x i8*] } { [6 x i8*] [i8* null, i8* bitcast ({ i8*, i8*, i8* }* @_ZTIN11xalanc_1_1018XPathProcessorImplE to i8*), i8* bitcast (void (%"class.xalanc_1_10::XPathProcessorImpl"*)* @_ZN11xalanc_1_1018XPathProcessorImplD1Ev to i8*), i8* bitcast (void (%"class.xalanc_1_10::XPathProcessorImpl"*)* @_ZN11xalanc_1_1018XPathProcessorImplD0Ev to i8*), i8* bitcast (void (%"class.xalanc_1_10::XPathProcessorImpl"*, %"class.xalanc_1_10::XPath"*, %"class.xalanc_1_10::XPathConstructionContext"*, %"class.xalanc_1_10::XalanDOMString"*, %"class.xalanc_1_10::PrefixResolver"*, %"class.xercesc_2_7::Locator"*, i1, i1)* @_ZN11xalanc_1_1018XPathProcessorImpl9initXPathERNS_5XPathERNS_24XPathConstructionContextERKNS_14XalanDOMStringERKNS_14PrefixResolverEPKN11xercesc_2_77LocatorEbb to i8*), i8* bitcast (void (%"class.xalanc_1_10::XPathProcessorImpl"*, %"class.xalanc_1_10::XPath"*, %"class.xalanc_1_10::XPathConstructionContext"*, %"class.xalanc_1_10::XalanDOMString"*, %"class.xalanc_1_10::PrefixResolver"*, %"class.xercesc_2_7::Locator"*, i1, i1)* @_ZN11xalanc_1_1018XPathProcessorImpl16initMatchPatternERNS_5XPathERNS_24XPathConstructionContextERKNS_14XalanDOMStringERKNS_14PrefixResolverEPKN11xercesc_2_77LocatorEbb to i8*)] }, align 8
@_ZN11xalanc_1_1011DOMServices29s_XMLNamespaceSeparatorStringE = external dso_local constant %"class.xalanc_1_10::XalanDOMString"*, align 8
@_ZN11xalanc_1_1018XPathProcessorImpl13s_emptyStringE = dso_local global %"class.xalanc_1_10::XalanDOMString" zeroinitializer, align 8, !dbg !0
@_ZTIN11xalanc_1_1020XPathParserExceptionE = external dso_local constant i8*
@_ZN11xalanc_1_1018XPathFunctionTable5s_keyE = external dso_local constant [0 x i16], align 2
@_ZN11xalanc_1_1018XPathFunctionTable10s_positionE = external dso_local constant [0 x i16], align 2
@_ZN11xalanc_1_1018XPathFunctionTable6s_lastE = external dso_local constant [0 x i16], align 2
@_ZN11xalanc_1_1018XPathFunctionTable7s_countE = external dso_local constant [0 x i16], align 2
@_ZN11xalanc_1_1018XPathFunctionTable5s_notE = external dso_local constant [0 x i16], align 2
@_ZN11xalanc_1_1018XPathFunctionTable6s_trueE = external dso_local constant [0 x i16], align 2
@_ZN11xalanc_1_1018XPathFunctionTable7s_falseE = external dso_local constant [0 x i16], align 2
@_ZN11xalanc_1_1018XPathFunctionTable9s_booleanE = external dso_local constant [0 x i16], align 2
@_ZN11xalanc_1_1018XPathFunctionTable6s_nameE = external dso_local constant [0 x i16], align 2
@_ZN11xalanc_1_1018XPathFunctionTable11s_localNameE = external dso_local constant [0 x i16], align 2
@_ZN11xalanc_1_1018XPathFunctionTable8s_numberE = external dso_local constant [0 x i16], align 2
@_ZN11xalanc_1_1018XPathFunctionTable7s_floorE = external dso_local constant [0 x i16], align 2
@_ZN11xalanc_1_1018XPathFunctionTable9s_ceilingE = external dso_local constant [0 x i16], align 2
@_ZN11xalanc_1_1018XPathFunctionTable7s_roundE = external dso_local constant [0 x i16], align 2
@_ZN11xalanc_1_1018XPathFunctionTable8s_stringE = external dso_local constant [0 x i16], align 2
@_ZN11xalanc_1_1018XPathFunctionTable5s_sumE = external dso_local constant [0 x i16], align 2
@_ZN11xalanc_1_1018XPathFunctionTable14s_stringLengthE = external dso_local constant [0 x i16], align 2
@_ZN11xalanc_1_1018XPathFunctionTable14s_namespaceUriE = external dso_local constant [0 x i16], align 2
@_ZN11xalanc_1_1018XPathProcessorImpl12s_dummyEntryE = dso_local constant %"struct.xalanc_1_10::XPathProcessorImpl::TableEntry" { i16* null, i32 -1 }, align 8, !dbg !3683
@__dso_handle = external hidden global i8
@_ZN11xalanc_1_1018XPathProcessorImpl18s_functionIDStringE = dso_local constant [3 x i16] [i16 105, i16 100, i16 0], align 2, !dbg !3685
@_ZN11xalanc_1_1018XPathProcessorImpl19s_functionKeyStringE = dso_local constant [4 x i16] [i16 107, i16 101, i16 121, i16 0], align 2, !dbg !3690
@_ZN11xalanc_1_1018XPathProcessorImpl10s_orStringE = dso_local constant [3 x i16] [i16 111, i16 114, i16 0], align 2, !dbg !3695
@_ZN11xalanc_1_1018XPathProcessorImpl11s_andStringE = dso_local constant [4 x i16] [i16 97, i16 110, i16 100, i16 0], align 2, !dbg !3697
@_ZN11xalanc_1_1018XPathProcessorImpl11s_divStringE = dso_local constant [4 x i16] [i16 100, i16 105, i16 118, i16 0], align 2, !dbg !3699
@_ZN11xalanc_1_1018XPathProcessorImpl11s_modStringE = dso_local constant [4 x i16] [i16 109, i16 111, i16 100, i16 0], align 2, !dbg !3701
@_ZN11xalanc_1_1018XPathProcessorImpl11s_dotStringE = dso_local constant [2 x i16] [i16 46, i16 0], align 2, !dbg !3703
@_ZN11xalanc_1_1018XPathProcessorImpl14s_dotDotStringE = dso_local constant [3 x i16] [i16 46, i16 46, i16 0], align 2, !dbg !3708
@_ZN11xalanc_1_1018XPathProcessorImpl12s_axisStringE = dso_local constant [3 x i16] [i16 58, i16 58, i16 0], align 2, !dbg !3710
@_ZN11xalanc_1_1018XPathProcessorImpl17s_attributeStringE = dso_local constant [10 x i16] [i16 97, i16 116, i16 116, i16 114, i16 105, i16 98, i16 117, i16 116, i16 101, i16 0], align 16, !dbg !3712
@_ZN11xalanc_1_1018XPathProcessorImpl13s_childStringE = dso_local constant [6 x i16] [i16 99, i16 104, i16 105, i16 108, i16 100, i16 0], align 2, !dbg !3717
@_ZN11xalanc_1_1018XPathProcessorImpl12s_lastStringE = dso_local constant [5 x i16] [i16 108, i16 97, i16 115, i16 116, i16 0], align 2, !dbg !3722
@_ZN11xalanc_1_1018XPathProcessorImpl16s_positionStringE = dso_local constant [9 x i16] [i16 112, i16 111, i16 115, i16 105, i16 116, i16 105, i16 111, i16 110, i16 0], align 16, !dbg !3727
@_ZN11xalanc_1_1018XPathProcessorImpl16s_asteriskStringE = dso_local constant [2 x i16] [i16 42, i16 0], align 2, !dbg !3732
@_ZN11xalanc_1_1018XPathProcessorImpl15s_commentStringE = dso_local constant [8 x i16] [i16 99, i16 111, i16 109, i16 109, i16 101, i16 110, i16 116, i16 0], align 16, !dbg !3734
@_ZN11xalanc_1_1018XPathProcessorImpl10s_piStringE = dso_local constant [23 x i16] [i16 112, i16 114, i16 111, i16 99, i16 101, i16 115, i16 115, i16 105, i16 110, i16 103, i16 45, i16 105, i16 110, i16 115, i16 116, i16 114, i16 117, i16 99, i16 116, i16 105, i16 111, i16 110, i16 0], align 16, !dbg !3739
@_ZN11xalanc_1_1018XPathProcessorImpl12s_nodeStringE = dso_local constant [5 x i16] [i16 110, i16 111, i16 100, i16 101, i16 0], align 2, !dbg !3744
@_ZN11xalanc_1_1018XPathProcessorImpl12s_textStringE = dso_local constant [5 x i16] [i16 116, i16 101, i16 120, i16 116, i16 0], align 2, !dbg !3746
@_ZN11xalanc_1_1018XPathProcessorImpl16s_ancestorStringE = dso_local constant [9 x i16] [i16 97, i16 110, i16 99, i16 101, i16 115, i16 116, i16 111, i16 114, i16 0], align 16, !dbg !3748
@_ZN11xalanc_1_1018XPathProcessorImpl22s_ancestorOrSelfStringE = dso_local constant [17 x i16] [i16 97, i16 110, i16 99, i16 101, i16 115, i16 116, i16 111, i16 114, i16 45, i16 111, i16 114, i16 45, i16 115, i16 101, i16 108, i16 102, i16 0], align 16, !dbg !3750
@_ZN11xalanc_1_1018XPathProcessorImpl18s_descendantStringE = dso_local constant [11 x i16] [i16 100, i16 101, i16 115, i16 99, i16 101, i16 110, i16 100, i16 97, i16 110, i16 116, i16 0], align 16, !dbg !3755
@_ZN11xalanc_1_1018XPathProcessorImpl24s_descendantOrSelfStringE = dso_local constant [19 x i16] [i16 100, i16 101, i16 115, i16 99, i16 101, i16 110, i16 100, i16 97, i16 110, i16 116, i16 45, i16 111, i16 114, i16 45, i16 115, i16 101, i16 108, i16 102, i16 0], align 16, !dbg !3760
@_ZN11xalanc_1_1018XPathProcessorImpl17s_followingStringE = dso_local constant [10 x i16] [i16 102, i16 111, i16 108, i16 108, i16 111, i16 119, i16 105, i16 110, i16 103, i16 0], align 16, !dbg !3765
@_ZN11xalanc_1_1018XPathProcessorImpl24s_followingSiblingStringE = dso_local constant [18 x i16] [i16 102, i16 111, i16 108, i16 108, i16 111, i16 119, i16 105, i16 110, i16 103, i16 45, i16 115, i16 105, i16 98, i16 108, i16 105, i16 110, i16 103, i16 0], align 16, !dbg !3767
@_ZN11xalanc_1_1018XPathProcessorImpl14s_parentStringE = dso_local constant [7 x i16] [i16 112, i16 97, i16 114, i16 101, i16 110, i16 116, i16 0], align 2, !dbg !3772
@_ZN11xalanc_1_1018XPathProcessorImpl17s_precedingStringE = dso_local constant [10 x i16] [i16 112, i16 114, i16 101, i16 99, i16 101, i16 100, i16 105, i16 110, i16 103, i16 0], align 16, !dbg !3777
@_ZN11xalanc_1_1018XPathProcessorImpl24s_precedingSiblingStringE = dso_local constant [18 x i16] [i16 112, i16 114, i16 101, i16 99, i16 101, i16 100, i16 105, i16 110, i16 103, i16 45, i16 115, i16 105, i16 98, i16 108, i16 105, i16 110, i16 103, i16 0], align 16, !dbg !3779
@_ZN11xalanc_1_1018XPathProcessorImpl12s_selfStringE = dso_local constant [5 x i16] [i16 115, i16 101, i16 108, i16 102, i16 0], align 2, !dbg !3781
@_ZN11xalanc_1_1018XPathProcessorImpl17s_namespaceStringE = dso_local constant [10 x i16] [i16 110, i16 97, i16 109, i16 101, i16 115, i16 112, i16 97, i16 99, i16 101, i16 0], align 16, !dbg !3783
@_ZN11xalanc_1_1018XPathProcessorImpl15s_functionTableE = dso_local constant [19 x %"struct.xalanc_1_10::XPathProcessorImpl::TableEntry"] [%"struct.xalanc_1_10::XPathProcessorImpl::TableEntry" { i16* getelementptr inbounds ([0 x i16], [0 x i16]* @_ZN11xalanc_1_1018XPathFunctionTable5s_notE, i32 0, i32 0), i32 59 }, %"struct.xalanc_1_10::XPathProcessorImpl::TableEntry" { i16* getelementptr inbounds ([0 x i16], [0 x i16]* @_ZN11xalanc_1_1018XPathFunctionTable5s_sumE, i32 0, i32 0), i32 78 }, %"struct.xalanc_1_10::XPathProcessorImpl::TableEntry" { i16* getelementptr inbounds ([5 x i16], [5 x i16]* @_ZN11xalanc_1_1018XPathProcessorImpl12s_lastStringE, i32 0, i32 0), i32 57 }, %"struct.xalanc_1_10::XPathProcessorImpl::TableEntry" { i16* getelementptr inbounds ([0 x i16], [0 x i16]* @_ZN11xalanc_1_1018XPathFunctionTable6s_nameE, i32 0, i32 0), i32 63 }, %"struct.xalanc_1_10::XPathProcessorImpl::TableEntry" { i16* getelementptr inbounds ([5 x i16], [5 x i16]* @_ZN11xalanc_1_1018XPathProcessorImpl12s_nodeStringE, i32 0, i32 0), i32 30 }, %"struct.xalanc_1_10::XPathProcessorImpl::TableEntry" { i16* getelementptr inbounds ([5 x i16], [5 x i16]* @_ZN11xalanc_1_1018XPathProcessorImpl12s_textStringE, i32 0, i32 0), i32 28 }, %"struct.xalanc_1_10::XPathProcessorImpl::TableEntry" { i16* getelementptr inbounds ([0 x i16], [0 x i16]* @_ZN11xalanc_1_1018XPathFunctionTable6s_trueE, i32 0, i32 0), i32 60 }, %"struct.xalanc_1_10::XPathProcessorImpl::TableEntry" { i16* getelementptr inbounds ([0 x i16], [0 x i16]* @_ZN11xalanc_1_1018XPathFunctionTable7s_countE, i32 0, i32 0), i32 58 }, %"struct.xalanc_1_10::XPathProcessorImpl::TableEntry" { i16* getelementptr inbounds ([0 x i16], [0 x i16]* @_ZN11xalanc_1_1018XPathFunctionTable7s_falseE, i32 0, i32 0), i32 61 }, %"struct.xalanc_1_10::XPathProcessorImpl::TableEntry" { i16* getelementptr inbounds ([0 x i16], [0 x i16]* @_ZN11xalanc_1_1018XPathFunctionTable7s_floorE, i32 0, i32 0), i32 67 }, %"struct.xalanc_1_10::XPathProcessorImpl::TableEntry" { i16* getelementptr inbounds ([0 x i16], [0 x i16]* @_ZN11xalanc_1_1018XPathFunctionTable7s_roundE, i32 0, i32 0), i32 69 }, %"struct.xalanc_1_10::XPathProcessorImpl::TableEntry" { i16* getelementptr inbounds ([0 x i16], [0 x i16]* @_ZN11xalanc_1_1018XPathFunctionTable8s_numberE, i32 0, i32 0), i32 70 }, %"struct.xalanc_1_10::XPathProcessorImpl::TableEntry" { i16* getelementptr inbounds ([0 x i16], [0 x i16]* @_ZN11xalanc_1_1018XPathFunctionTable9s_booleanE, i32 0, i32 0), i32 62 }, %"struct.xalanc_1_10::XPathProcessorImpl::TableEntry" { i16* getelementptr inbounds ([0 x i16], [0 x i16]* @_ZN11xalanc_1_1018XPathFunctionTable9s_ceilingE, i32 0, i32 0), i32 68 }, %"struct.xalanc_1_10::XPathProcessorImpl::TableEntry" { i16* getelementptr inbounds ([8 x i16], [8 x i16]* @_ZN11xalanc_1_1018XPathProcessorImpl15s_commentStringE, i32 0, i32 0), i32 27 }, %"struct.xalanc_1_10::XPathProcessorImpl::TableEntry" { i16* getelementptr inbounds ([9 x i16], [9 x i16]* @_ZN11xalanc_1_1018XPathProcessorImpl16s_positionStringE, i32 0, i32 0), i32 56 }, %"struct.xalanc_1_10::XPathProcessorImpl::TableEntry" { i16* getelementptr inbounds ([0 x i16], [0 x i16]* @_ZN11xalanc_1_1018XPathFunctionTable11s_localNameE, i32 0, i32 0), i32 65 }, %"struct.xalanc_1_10::XPathProcessorImpl::TableEntry" { i16* getelementptr inbounds ([0 x i16], [0 x i16]* @_ZN11xalanc_1_1018XPathFunctionTable14s_stringLengthE, i32 0, i32 0), i32 74 }, %"struct.xalanc_1_10::XPathProcessorImpl::TableEntry" { i16* getelementptr inbounds ([23 x i16], [23 x i16]* @_ZN11xalanc_1_1018XPathProcessorImpl10s_piStringE, i32 0, i32 0), i32 29 }], align 16, !dbg !3785
@_ZN11xalanc_1_1018XPathProcessorImpl19s_functionTableSizeE = dso_local constant i64 19, align 8, !dbg !3788
@_ZN11xalanc_1_1018XPathProcessorImpl15s_nodeTypeTableE = dso_local constant [5 x %"struct.xalanc_1_10::XPathProcessorImpl::TableEntry"] [%"struct.xalanc_1_10::XPathProcessorImpl::TableEntry" { i16* getelementptr inbounds ([2 x i16], [2 x i16]* @_ZN11xalanc_1_1018XPathProcessorImpl16s_asteriskStringE, i32 0, i32 0), i32 33 }, %"struct.xalanc_1_10::XPathProcessorImpl::TableEntry" { i16* getelementptr inbounds ([5 x i16], [5 x i16]* @_ZN11xalanc_1_1018XPathProcessorImpl12s_nodeStringE, i32 0, i32 0), i32 30 }, %"struct.xalanc_1_10::XPathProcessorImpl::TableEntry" { i16* getelementptr inbounds ([5 x i16], [5 x i16]* @_ZN11xalanc_1_1018XPathProcessorImpl12s_textStringE, i32 0, i32 0), i32 28 }, %"struct.xalanc_1_10::XPathProcessorImpl::TableEntry" { i16* getelementptr inbounds ([8 x i16], [8 x i16]* @_ZN11xalanc_1_1018XPathProcessorImpl15s_commentStringE, i32 0, i32 0), i32 27 }, %"struct.xalanc_1_10::XPathProcessorImpl::TableEntry" { i16* getelementptr inbounds ([23 x i16], [23 x i16]* @_ZN11xalanc_1_1018XPathProcessorImpl10s_piStringE, i32 0, i32 0), i32 29 }], align 16, !dbg !3790
@_ZN11xalanc_1_1018XPathProcessorImpl19s_nodeTypeTableSizeE = dso_local constant i64 5, align 8, !dbg !3793
@_ZN11xalanc_1_1018XPathProcessorImpl11s_axisTableE = dso_local constant [13 x %"struct.xalanc_1_10::XPathProcessorImpl::TableEntry"] [%"struct.xalanc_1_10::XPathProcessorImpl::TableEntry" { i16* getelementptr inbounds ([5 x i16], [5 x i16]* @_ZN11xalanc_1_1018XPathProcessorImpl12s_selfStringE, i32 0, i32 0), i32 45 }, %"struct.xalanc_1_10::XPathProcessorImpl::TableEntry" { i16* getelementptr inbounds ([6 x i16], [6 x i16]* @_ZN11xalanc_1_1018XPathProcessorImpl13s_childStringE, i32 0, i32 0), i32 37 }, %"struct.xalanc_1_10::XPathProcessorImpl::TableEntry" { i16* getelementptr inbounds ([7 x i16], [7 x i16]* @_ZN11xalanc_1_1018XPathProcessorImpl14s_parentStringE, i32 0, i32 0), i32 42 }, %"struct.xalanc_1_10::XPathProcessorImpl::TableEntry" { i16* getelementptr inbounds ([9 x i16], [9 x i16]* @_ZN11xalanc_1_1018XPathProcessorImpl16s_ancestorStringE, i32 0, i32 0), i32 34 }, %"struct.xalanc_1_10::XPathProcessorImpl::TableEntry" { i16* getelementptr inbounds ([10 x i16], [10 x i16]* @_ZN11xalanc_1_1018XPathProcessorImpl17s_attributeStringE, i32 0, i32 0), i32 36 }, %"struct.xalanc_1_10::XPathProcessorImpl::TableEntry" { i16* getelementptr inbounds ([10 x i16], [10 x i16]* @_ZN11xalanc_1_1018XPathProcessorImpl17s_followingStringE, i32 0, i32 0), i32 40 }, %"struct.xalanc_1_10::XPathProcessorImpl::TableEntry" { i16* getelementptr inbounds ([10 x i16], [10 x i16]* @_ZN11xalanc_1_1018XPathProcessorImpl17s_namespaceStringE, i32 0, i32 0), i32 46 }, %"struct.xalanc_1_10::XPathProcessorImpl::TableEntry" { i16* getelementptr inbounds ([10 x i16], [10 x i16]* @_ZN11xalanc_1_1018XPathProcessorImpl17s_precedingStringE, i32 0, i32 0), i32 43 }, %"struct.xalanc_1_10::XPathProcessorImpl::TableEntry" { i16* getelementptr inbounds ([11 x i16], [11 x i16]* @_ZN11xalanc_1_1018XPathProcessorImpl18s_descendantStringE, i32 0, i32 0), i32 38 }, %"struct.xalanc_1_10::XPathProcessorImpl::TableEntry" { i16* getelementptr inbounds ([17 x i16], [17 x i16]* @_ZN11xalanc_1_1018XPathProcessorImpl22s_ancestorOrSelfStringE, i32 0, i32 0), i32 35 }, %"struct.xalanc_1_10::XPathProcessorImpl::TableEntry" { i16* getelementptr inbounds ([18 x i16], [18 x i16]* @_ZN11xalanc_1_1018XPathProcessorImpl24s_followingSiblingStringE, i32 0, i32 0), i32 41 }, %"struct.xalanc_1_10::XPathProcessorImpl::TableEntry" { i16* getelementptr inbounds ([18 x i16], [18 x i16]* @_ZN11xalanc_1_1018XPathProcessorImpl24s_precedingSiblingStringE, i32 0, i32 0), i32 44 }, %"struct.xalanc_1_10::XPathProcessorImpl::TableEntry" { i16* getelementptr inbounds ([19 x i16], [19 x i16]* @_ZN11xalanc_1_1018XPathProcessorImpl24s_descendantOrSelfStringE, i32 0, i32 0), i32 39 }], align 16, !dbg !3795
@_ZN11xalanc_1_1018XPathProcessorImpl15s_axisTableSizeE = dso_local constant i64 13, align 8, !dbg !3800
@_ZTVN10__cxxabiv120__si_class_type_infoE = external dso_local global i8*
@_ZTSN11xalanc_1_1018XPathProcessorImplE = dso_local constant [36 x i8] c"N11xalanc_1_1018XPathProcessorImplE\00", align 1
@_ZTIN11xalanc_1_1014XPathProcessorE = external dso_local constant i8*
@_ZTIN11xalanc_1_1018XPathProcessorImplE = dso_local constant { i8*, i8*, i8* } { i8* bitcast (i8** getelementptr inbounds (i8*, i8** @_ZTVN10__cxxabiv120__si_class_type_infoE, i64 2) to i8*), i8* getelementptr inbounds ([36 x i8], [36 x i8]* @_ZTSN11xalanc_1_1018XPathProcessorImplE, i32 0, i32 0), i8* bitcast (i8** @_ZTIN11xalanc_1_1014XPathProcessorE to i8*) }, align 8
@_ZN11xalanc_1_1012XalanXMLChar15theUnicodeTableE = external dso_local constant [0 x i8], align 1
@_ZN11xalanc_1_105XPath11s_functionsE = external dso_local global %"class.xalanc_1_10::XPathFunctionTable", align 8
@_ZN11xalanc_1_1014XalanDOMString7s_emptyE = external dso_local constant i16, align 2
@llvm.global_ctors = appending global [1 x { i32, void ()*, i8* }] [{ i32, void ()*, i8* } { i32 65535, void ()* @_GLOBAL__sub_I_XPathProcessorImpl.cpp, i8* null }]

@_ZN11xalanc_1_1018XPathProcessorImplC1ERN11xercesc_2_713MemoryManagerE = dso_local unnamed_addr alias void (%"class.xalanc_1_10::XPathProcessorImpl"*, %"class.xercesc_2_7::MemoryManager"*), void (%"class.xalanc_1_10::XPathProcessorImpl"*, %"class.xercesc_2_7::MemoryManager"*)* @_ZN11xalanc_1_1018XPathProcessorImplC2ERN11xercesc_2_713MemoryManagerE
@_ZN11xalanc_1_1018XPathProcessorImplD1Ev = dso_local unnamed_addr alias void (%"class.xalanc_1_10::XPathProcessorImpl"*), void (%"class.xalanc_1_10::XPathProcessorImpl"*)* @_ZN11xalanc_1_1018XPathProcessorImplD2Ev

; Function Attrs: noinline uwtable
define dso_local void @_ZN11xalanc_1_1018XPathProcessorImplC2ERN11xercesc_2_713MemoryManagerE(%"class.xalanc_1_10::XPathProcessorImpl"* %this, %"class.xercesc_2_7::MemoryManager"* dereferenceable(8) %theManager) unnamed_addr #0 align 2 personality i8* bitcast (i32 (...)* @__gxx_personality_v0 to i8*) !dbg !5223 {
entry:
  %this.addr = alloca %"class.xalanc_1_10::XPathProcessorImpl"*, align 8
  %theManager.addr = alloca %"class.xercesc_2_7::MemoryManager"*, align 8
  %exn.slot = alloca i8*
  %ehselector.slot = alloca i32
  store %"class.xalanc_1_10::XPathProcessorImpl"* %this, %"class.xalanc_1_10::XPathProcessorImpl"** %this.addr, align 8
  call void @llvm.dbg.declare(metadata %"class.xalanc_1_10::XPathProcessorImpl"** %this.addr, metadata !5224, metadata !DIExpression()), !dbg !5225
  store %"class.xercesc_2_7::MemoryManager"* %theManager, %"class.xercesc_2_7::MemoryManager"** %theManager.addr, align 8
  call void @llvm.dbg.declare(metadata %"class.xercesc_2_7::MemoryManager"** %theManager.addr, metadata !5226, metadata !DIExpression()), !dbg !5227
  %this1 = load %"class.xalanc_1_10::XPathProcessorImpl"*, %"class.xalanc_1_10::XPathProcessorImpl"** %this.addr, align 8
  %0 = bitcast %"class.xalanc_1_10::XPathProcessorImpl"* %this1 to %"class.xalanc_1_10::XPathProcessor"*, !dbg !5228
  call void @_ZN11xalanc_1_1014XPathProcessorC2Ev(%"class.xalanc_1_10::XPathProcessor"* %0), !dbg !5229
  %1 = bitcast %"class.xalanc_1_10::XPathProcessorImpl"* %this1 to i32 (...)***, !dbg !5228
  store i32 (...)** bitcast (i8** getelementptr inbounds ({ [6 x i8*] }, { [6 x i8*] }* @_ZTVN11xalanc_1_1018XPathProcessorImplE, i32 0, inrange i32 0, i32 2) to i32 (...)**), i32 (...)*** %1, align 8, !dbg !5228
  %m_token = getelementptr inbounds %"class.xalanc_1_10::XPathProcessorImpl", %"class.xalanc_1_10::XPathProcessorImpl"* %this1, i32 0, i32 1, !dbg !5230
  %2 = load %"class.xercesc_2_7::MemoryManager"*, %"class.xercesc_2_7::MemoryManager"** %theManager.addr, align 8, !dbg !5231
  invoke void @_ZN11xalanc_1_1014XalanDOMStringC1ERN11xercesc_2_713MemoryManagerE(%"class.xalanc_1_10::XalanDOMString"* %m_token, %"class.xercesc_2_7::MemoryManager"* dereferenceable(8) %2)
          to label %invoke.cont unwind label %lpad, !dbg !5230

invoke.cont:                                      ; preds = %entry
  %m_tokenChar = getelementptr inbounds %"class.xalanc_1_10::XPathProcessorImpl", %"class.xalanc_1_10::XPathProcessorImpl"* %this1, i32 0, i32 2, !dbg !5232
  store i16 0, i16* %m_tokenChar, align 8, !dbg !5232
  %m_xpath = getelementptr inbounds %"class.xalanc_1_10::XPathProcessorImpl", %"class.xalanc_1_10::XPathProcessorImpl"* %this1, i32 0, i32 4, !dbg !5233
  store %"class.xalanc_1_10::XPath"* null, %"class.xalanc_1_10::XPath"** %m_xpath, align 8, !dbg !5233
  %m_constructionContext = getelementptr inbounds %"class.xalanc_1_10::XPathProcessorImpl", %"class.xalanc_1_10::XPathProcessorImpl"* %this1, i32 0, i32 5, !dbg !5234
  store %"class.xalanc_1_10::XPathConstructionContext"* null, %"class.xalanc_1_10::XPathConstructionContext"** %m_constructionContext, align 8, !dbg !5234
  %m_expression = getelementptr inbounds %"class.xalanc_1_10::XPathProcessorImpl", %"class.xalanc_1_10::XPathProcessorImpl"* %this1, i32 0, i32 6, !dbg !5235
  store %"class.xalanc_1_10::XPathExpression"* null, %"class.xalanc_1_10::XPathExpression"** %m_expression, align 8, !dbg !5235
  %m_prefixResolver = getelementptr inbounds %"class.xalanc_1_10::XPathProcessorImpl", %"class.xalanc_1_10::XPathProcessorImpl"* %this1, i32 0, i32 7, !dbg !5236
  store %"class.xalanc_1_10::PrefixResolver"* null, %"class.xalanc_1_10::PrefixResolver"** %m_prefixResolver, align 8, !dbg !5236
  %m_requireLiterals = getelementptr inbounds %"class.xalanc_1_10::XPathProcessorImpl", %"class.xalanc_1_10::XPathProcessorImpl"* %this1, i32 0, i32 8, !dbg !5237
  store i8 0, i8* %m_requireLiterals, align 8, !dbg !5237
  %m_isMatchPattern = getelementptr inbounds %"class.xalanc_1_10::XPathProcessorImpl", %"class.xalanc_1_10::XPathProcessorImpl"* %this1, i32 0, i32 9, !dbg !5238
  store i8 0, i8* %m_isMatchPattern, align 1, !dbg !5238
  %m_positionPredicateStack = getelementptr inbounds %"class.xalanc_1_10::XPathProcessorImpl", %"class.xalanc_1_10::XPathProcessorImpl"* %this1, i32 0, i32 12, !dbg !5239
  %3 = load %"class.xercesc_2_7::MemoryManager"*, %"class.xercesc_2_7::MemoryManager"** %theManager.addr, align 8, !dbg !5240
  invoke void @_ZN11xalanc_1_1011XalanVectorIbNS_31MemoryManagedConstructionTraitsIbEEEC2ERN11xercesc_2_713MemoryManagerEm(%"class.xalanc_1_10::XalanVector.3"* %m_positionPredicateStack, %"class.xercesc_2_7::MemoryManager"* dereferenceable(8) %3, i64 0)
          to label %invoke.cont3 unwind label %lpad2, !dbg !5239

invoke.cont3:                                     ; preds = %invoke.cont
  %m_namespaces = getelementptr inbounds %"class.xalanc_1_10::XPathProcessorImpl", %"class.xalanc_1_10::XPathProcessorImpl"* %this1, i32 0, i32 13, !dbg !5241
  %4 = load %"class.xercesc_2_7::MemoryManager"*, %"class.xercesc_2_7::MemoryManager"** %theManager.addr, align 8, !dbg !5242
  invoke void @_ZN11xalanc_1_108XalanMapINS_14XalanDOMStringEPKS1_NS_17XalanMapKeyTraitsIS1_EEEC2ERN11xercesc_2_713MemoryManagerEfmm(%"class.xalanc_1_10::XalanMap"* %m_namespaces, %"class.xercesc_2_7::MemoryManager"* dereferenceable(8) %4, float 7.500000e-01, i64 29, i64 50)
          to label %invoke.cont5 unwind label %lpad4, !dbg !5241

invoke.cont5:                                     ; preds = %invoke.cont3
  %m_allowVariableReferences = getelementptr inbounds %"class.xalanc_1_10::XPathProcessorImpl", %"class.xalanc_1_10::XPathProcessorImpl"* %this1, i32 0, i32 14, !dbg !5243
  store i8 1, i8* %m_allowVariableReferences, align 8, !dbg !5243
  %m_allowKeyFunction = getelementptr inbounds %"class.xalanc_1_10::XPathProcessorImpl", %"class.xalanc_1_10::XPathProcessorImpl"* %this1, i32 0, i32 15, !dbg !5244
  store i8 1, i8* %m_allowKeyFunction, align 1, !dbg !5244
  ret void, !dbg !5245

lpad:                                             ; preds = %entry
  %5 = landingpad { i8*, i32 }
          cleanup, !dbg !5245
  %6 = extractvalue { i8*, i32 } %5, 0, !dbg !5245
  store i8* %6, i8** %exn.slot, align 8, !dbg !5245
  %7 = extractvalue { i8*, i32 } %5, 1, !dbg !5245
  store i32 %7, i32* %ehselector.slot, align 4, !dbg !5245
  br label %ehcleanup6, !dbg !5245

lpad2:                                            ; preds = %invoke.cont
  %8 = landingpad { i8*, i32 }
          cleanup, !dbg !5245
  %9 = extractvalue { i8*, i32 } %8, 0, !dbg !5245
  store i8* %9, i8** %exn.slot, align 8, !dbg !5245
  %10 = extractvalue { i8*, i32 } %8, 1, !dbg !5245
  store i32 %10, i32* %ehselector.slot, align 4, !dbg !5245
  br label %ehcleanup, !dbg !5245

lpad4:                                            ; preds = %invoke.cont3
  %11 = landingpad { i8*, i32 }
          cleanup, !dbg !5245
  %12 = extractvalue { i8*, i32 } %11, 0, !dbg !5245
  store i8* %12, i8** %exn.slot, align 8, !dbg !5245
  %13 = extractvalue { i8*, i32 } %11, 1, !dbg !5245
  store i32 %13, i32* %ehselector.slot, align 4, !dbg !5245
  call void @_ZN11xalanc_1_1011XalanVectorIbNS_31MemoryManagedConstructionTraitsIbEEED2Ev(%"class.xalanc_1_10::XalanVector.3"* %m_positionPredicateStack) #6, !dbg !5246
  br label %ehcleanup, !dbg !5246

ehcleanup:                                        ; preds = %lpad4, %lpad2
  call void @_ZN11xalanc_1_1014XalanDOMStringD2Ev(%"class.xalanc_1_10::XalanDOMString"* %m_token) #6, !dbg !5246
  br label %ehcleanup6, !dbg !5246

ehcleanup6:                                       ; preds = %ehcleanup, %lpad
  %14 = bitcast %"class.xalanc_1_10::XPathProcessorImpl"* %this1 to %"class.xalanc_1_10::XPathProcessor"*, !dbg !5246
  call void @_ZN11xalanc_1_1014XPathProcessorD2Ev(%"class.xalanc_1_10::XPathProcessor"* %14) #6, !dbg !5246
  br label %eh.resume, !dbg !5246

eh.resume:                                        ; preds = %ehcleanup6
  %exn = load i8*, i8** %exn.slot, align 8, !dbg !5246
  %sel = load i32, i32* %ehselector.slot, align 4, !dbg !5246
  %lpad.val = insertvalue { i8*, i32 } undef, i8* %exn, 0, !dbg !5246
  %lpad.val7 = insertvalue { i8*, i32 } %lpad.val, i32 %sel, 1, !dbg !5246
  resume { i8*, i32 } %lpad.val7, !dbg !5246
}

; Function Attrs: nounwind readnone speculatable willreturn
declare void @llvm.dbg.declare(metadata, metadata, metadata) #1

declare dso_local void @_ZN11xalanc_1_1014XPathProcessorC2Ev(%"class.xalanc_1_10::XPathProcessor"*) unnamed_addr #2

declare dso_local void @_ZN11xalanc_1_1014XalanDOMStringC1ERN11xercesc_2_713MemoryManagerE(%"class.xalanc_1_10::XalanDOMString"*, %"class.xercesc_2_7::MemoryManager"* dereferenceable(8)) unnamed_addr #2

declare dso_local i32 @__gxx_personality_v0(...)

; Function Attrs: noinline uwtable
define linkonce_odr dso_local void @_ZN11xalanc_1_1011XalanVectorIbNS_31MemoryManagedConstructionTraitsIbEEEC2ERN11xercesc_2_713MemoryManagerEm(%"class.xalanc_1_10::XalanVector.3"* %this, %"class.xercesc_2_7::MemoryManager"* dereferenceable(8) %theManager, i64 %initialAllocation) unnamed_addr #0 comdat align 2 !dbg !5248 {
entry:
  %this.addr = alloca %"class.xalanc_1_10::XalanVector.3"*, align 8
  %theManager.addr = alloca %"class.xercesc_2_7::MemoryManager"*, align 8
  %initialAllocation.addr = alloca i64, align 8
  store %"class.xalanc_1_10::XalanVector.3"* %this, %"class.xalanc_1_10::XalanVector.3"** %this.addr, align 8
  call void @llvm.dbg.declare(metadata %"class.xalanc_1_10::XalanVector.3"** %this.addr, metadata !5249, metadata !DIExpression()), !dbg !5250
  store %"class.xercesc_2_7::MemoryManager"* %theManager, %"class.xercesc_2_7::MemoryManager"** %theManager.addr, align 8
  call void @llvm.dbg.declare(metadata %"class.xercesc_2_7::MemoryManager"** %theManager.addr, metadata !5251, metadata !DIExpression()), !dbg !5252
  store i64 %initialAllocation, i64* %initialAllocation.addr, align 8
  call void @llvm.dbg.declare(metadata i64* %initialAllocation.addr, metadata !5253, metadata !DIExpression()), !dbg !5254
  %this1 = load %"class.xalanc_1_10::XalanVector.3"*, %"class.xalanc_1_10::XalanVector.3"** %this.addr, align 8
  %m_memoryManager = getelementptr inbounds %"class.xalanc_1_10::XalanVector.3", %"class.xalanc_1_10::XalanVector.3"* %this1, i32 0, i32 0, !dbg !5255
  %0 = load %"class.xercesc_2_7::MemoryManager"*, %"class.xercesc_2_7::MemoryManager"** %theManager.addr, align 8, !dbg !5256
  store %"class.xercesc_2_7::MemoryManager"* %0, %"class.xercesc_2_7::MemoryManager"** %m_memoryManager, align 8, !dbg !5255
  %m_size = getelementptr inbounds %"class.xalanc_1_10::XalanVector.3", %"class.xalanc_1_10::XalanVector.3"* %this1, i32 0, i32 1, !dbg !5257
  store i64 0, i64* %m_size, align 8, !dbg !5257
  %m_allocation = getelementptr inbounds %"class.xalanc_1_10::XalanVector.3", %"class.xalanc_1_10::XalanVector.3"* %this1, i32 0, i32 2, !dbg !5258
  %1 = load i64, i64* %initialAllocation.addr, align 8, !dbg !5259
  store i64 %1, i64* %m_allocation, align 8, !dbg !5258
  %m_data = getelementptr inbounds %"class.xalanc_1_10::XalanVector.3", %"class.xalanc_1_10::XalanVector.3"* %this1, i32 0, i32 3, !dbg !5260
  %2 = load i64, i64* %initialAllocation.addr, align 8, !dbg !5261
  %cmp = icmp ugt i64 %2, 0, !dbg !5262
  br i1 %cmp, label %cond.true, label %cond.false, !dbg !5261

cond.true:                                        ; preds = %entry
  %3 = load i64, i64* %initialAllocation.addr, align 8, !dbg !5263
  %call = call i8* @_ZN11xalanc_1_1011XalanVectorIbNS_31MemoryManagedConstructionTraitsIbEEE8allocateEm(%"class.xalanc_1_10::XalanVector.3"* %this1, i64 %3), !dbg !5264
  br label %cond.end, !dbg !5261

cond.false:                                       ; preds = %entry
  br label %cond.end, !dbg !5261

cond.end:                                         ; preds = %cond.false, %cond.true
  %cond = phi i8* [ %call, %cond.true ], [ null, %cond.false ], !dbg !5261
  store i8* %cond, i8** %m_data, align 8, !dbg !5260
  call void @_ZNK11xalanc_1_1011XalanVectorIbNS_31MemoryManagedConstructionTraitsIbEEE10invariantsEv(%"class.xalanc_1_10::XalanVector.3"* %this1), !dbg !5265
  ret void, !dbg !5267
}

; Function Attrs: noinline uwtable
define linkonce_odr dso_local void @_ZN11xalanc_1_108XalanMapINS_14XalanDOMStringEPKS1_NS_17XalanMapKeyTraitsIS1_EEEC2ERN11xercesc_2_713MemoryManagerEfmm(%"class.xalanc_1_10::XalanMap"* %this, %"class.xercesc_2_7::MemoryManager"* dereferenceable(8) %theMemoryManager, float %loadFactor, i64 %minBuckets, i64 %eraseThreshold) unnamed_addr #0 comdat align 2 personality i8* bitcast (i32 (...)* @__gxx_personality_v0 to i8*) !dbg !5268 {
entry:
  %this.addr = alloca %"class.xalanc_1_10::XalanMap"*, align 8
  %theMemoryManager.addr = alloca %"class.xercesc_2_7::MemoryManager"*, align 8
  %loadFactor.addr = alloca float, align 4
  %minBuckets.addr = alloca i64, align 8
  %eraseThreshold.addr = alloca i64, align 8
  %exn.slot = alloca i8*
  %ehselector.slot = alloca i32
  store %"class.xalanc_1_10::XalanMap"* %this, %"class.xalanc_1_10::XalanMap"** %this.addr, align 8
  call void @llvm.dbg.declare(metadata %"class.xalanc_1_10::XalanMap"** %this.addr, metadata !5269, metadata !DIExpression()), !dbg !5270
  store %"class.xercesc_2_7::MemoryManager"* %theMemoryManager, %"class.xercesc_2_7::MemoryManager"** %theMemoryManager.addr, align 8
  call void @llvm.dbg.declare(metadata %"class.xercesc_2_7::MemoryManager"** %theMemoryManager.addr, metadata !5271, metadata !DIExpression()), !dbg !5272
  store float %loadFactor, float* %loadFactor.addr, align 4
  call void @llvm.dbg.declare(metadata float* %loadFactor.addr, metadata !5273, metadata !DIExpression()), !dbg !5274
  store i64 %minBuckets, i64* %minBuckets.addr, align 8
  call void @llvm.dbg.declare(metadata i64* %minBuckets.addr, metadata !5275, metadata !DIExpression()), !dbg !5276
  store i64 %eraseThreshold, i64* %eraseThreshold.addr, align 8
  call void @llvm.dbg.declare(metadata i64* %eraseThreshold.addr, metadata !5277, metadata !DIExpression()), !dbg !5278
  %this1 = load %"class.xalanc_1_10::XalanMap"*, %"class.xalanc_1_10::XalanMap"** %this.addr, align 8
  %m_hash = getelementptr inbounds %"class.xalanc_1_10::XalanMap", %"class.xalanc_1_10::XalanMap"* %this1, i32 0, i32 0, !dbg !5279
  %m_equals = getelementptr inbounds %"class.xalanc_1_10::XalanMap", %"class.xalanc_1_10::XalanMap"* %this1, i32 0, i32 1, !dbg !5279
  %m_memoryManager = getelementptr inbounds %"class.xalanc_1_10::XalanMap", %"class.xalanc_1_10::XalanMap"* %this1, i32 0, i32 2, !dbg !5280
  %0 = load %"class.xercesc_2_7::MemoryManager"*, %"class.xercesc_2_7::MemoryManager"** %theMemoryManager.addr, align 8, !dbg !5281
  store %"class.xercesc_2_7::MemoryManager"* %0, %"class.xercesc_2_7::MemoryManager"** %m_memoryManager, align 8, !dbg !5280
  %m_loadFactor = getelementptr inbounds %"class.xalanc_1_10::XalanMap", %"class.xalanc_1_10::XalanMap"* %this1, i32 0, i32 3, !dbg !5282
  %1 = load float, float* %loadFactor.addr, align 4, !dbg !5283
  store float %1, float* %m_loadFactor, align 8, !dbg !5282
  %m_minBuckets = getelementptr inbounds %"class.xalanc_1_10::XalanMap", %"class.xalanc_1_10::XalanMap"* %this1, i32 0, i32 4, !dbg !5284
  %2 = load i64, i64* %minBuckets.addr, align 8, !dbg !5285
  store i64 %2, i64* %m_minBuckets, align 8, !dbg !5284
  %m_size = getelementptr inbounds %"class.xalanc_1_10::XalanMap", %"class.xalanc_1_10::XalanMap"* %this1, i32 0, i32 5, !dbg !5286
  store i64 0, i64* %m_size, align 8, !dbg !5286
  %m_entries = getelementptr inbounds %"class.xalanc_1_10::XalanMap", %"class.xalanc_1_10::XalanMap"* %this1, i32 0, i32 6, !dbg !5287
  %3 = load %"class.xercesc_2_7::MemoryManager"*, %"class.xercesc_2_7::MemoryManager"** %theMemoryManager.addr, align 8, !dbg !5288
  call void @_ZN11xalanc_1_109XalanListINS_8XalanMapINS_14XalanDOMStringEPKS2_NS_17XalanMapKeyTraitsIS2_EEE5EntryEEC2ERN11xercesc_2_713MemoryManagerE(%"class.xalanc_1_10::XalanList"* %m_entries, %"class.xercesc_2_7::MemoryManager"* dereferenceable(8) %3), !dbg !5287
  %m_freeEntries = getelementptr inbounds %"class.xalanc_1_10::XalanMap", %"class.xalanc_1_10::XalanMap"* %this1, i32 0, i32 7, !dbg !5289
  %4 = load %"class.xercesc_2_7::MemoryManager"*, %"class.xercesc_2_7::MemoryManager"** %theMemoryManager.addr, align 8, !dbg !5290
  invoke void @_ZN11xalanc_1_109XalanListINS_8XalanMapINS_14XalanDOMStringEPKS2_NS_17XalanMapKeyTraitsIS2_EEE5EntryEEC2ERN11xercesc_2_713MemoryManagerE(%"class.xalanc_1_10::XalanList"* %m_freeEntries, %"class.xercesc_2_7::MemoryManager"* dereferenceable(8) %4)
          to label %invoke.cont unwind label %lpad, !dbg !5289

invoke.cont:                                      ; preds = %entry
  %m_buckets = getelementptr inbounds %"class.xalanc_1_10::XalanMap", %"class.xalanc_1_10::XalanMap"* %this1, i32 0, i32 8, !dbg !5291
  %5 = load %"class.xercesc_2_7::MemoryManager"*, %"class.xercesc_2_7::MemoryManager"** %theMemoryManager.addr, align 8, !dbg !5292
  invoke void @_ZN11xalanc_1_1011XalanVectorINS0_INS_21XalanListIteratorBaseINS_23XalanListIteratorTraitsINS_8XalanMapINS_14XalanDOMStringEPKS4_NS_17XalanMapKeyTraitsIS4_EEE5EntryEEENS_9XalanListISA_E4NodeEEENS_31MemoryManagedConstructionTraitsISF_EEEENS_32ConstructWithMemoryManagerTraitsISI_EEEC2ERN11xercesc_2_713MemoryManagerEm(%"class.xalanc_1_10::XalanVector.4"* %m_buckets, %"class.xercesc_2_7::MemoryManager"* dereferenceable(8) %5, i64 0)
          to label %invoke.cont3 unwind label %lpad2, !dbg !5291

invoke.cont3:                                     ; preds = %invoke.cont
  %m_eraseCount = getelementptr inbounds %"class.xalanc_1_10::XalanMap", %"class.xalanc_1_10::XalanMap"* %this1, i32 0, i32 9, !dbg !5293
  store i64 0, i64* %m_eraseCount, align 8, !dbg !5293
  %m_eraseThreshold = getelementptr inbounds %"class.xalanc_1_10::XalanMap", %"class.xalanc_1_10::XalanMap"* %this1, i32 0, i32 10, !dbg !5294
  %6 = load i64, i64* %eraseThreshold.addr, align 8, !dbg !5295
  store i64 %6, i64* %m_eraseThreshold, align 8, !dbg !5294
  ret void, !dbg !5296

lpad:                                             ; preds = %entry
  %7 = landingpad { i8*, i32 }
          cleanup, !dbg !5296
  %8 = extractvalue { i8*, i32 } %7, 0, !dbg !5296
  store i8* %8, i8** %exn.slot, align 8, !dbg !5296
  %9 = extractvalue { i8*, i32 } %7, 1, !dbg !5296
  store i32 %9, i32* %ehselector.slot, align 4, !dbg !5296
  br label %ehcleanup, !dbg !5296

lpad2:                                            ; preds = %invoke.cont
  %10 = landingpad { i8*, i32 }
          cleanup, !dbg !5296
  %11 = extractvalue { i8*, i32 } %10, 0, !dbg !5296
  store i8* %11, i8** %exn.slot, align 8, !dbg !5296
  %12 = extractvalue { i8*, i32 } %10, 1, !dbg !5296
  store i32 %12, i32* %ehselector.slot, align 4, !dbg !5296
  call void @_ZN11xalanc_1_109XalanListINS_8XalanMapINS_14XalanDOMStringEPKS2_NS_17XalanMapKeyTraitsIS2_EEE5EntryEED2Ev(%"class.xalanc_1_10::XalanList"* %m_freeEntries) #6, !dbg !5297
  br label %ehcleanup, !dbg !5297

ehcleanup:                                        ; preds = %lpad2, %lpad
  call void @_ZN11xalanc_1_109XalanListINS_8XalanMapINS_14XalanDOMStringEPKS2_NS_17XalanMapKeyTraitsIS2_EEE5EntryEED2Ev(%"class.xalanc_1_10::XalanList"* %m_entries) #6, !dbg !5297
  br label %eh.resume, !dbg !5297

eh.resume:                                        ; preds = %ehcleanup
  %exn = load i8*, i8** %exn.slot, align 8, !dbg !5297
  %sel = load i32, i32* %ehselector.slot, align 4, !dbg !5297
  %lpad.val = insertvalue { i8*, i32 } undef, i8* %exn, 0, !dbg !5297
  %lpad.val4 = insertvalue { i8*, i32 } %lpad.val, i32 %sel, 1, !dbg !5297
  resume { i8*, i32 } %lpad.val4, !dbg !5297
}

; Function Attrs: noinline nounwind uwtable
define linkonce_odr dso_local void @_ZN11xalanc_1_1011XalanVectorIbNS_31MemoryManagedConstructionTraitsIbEEED2Ev(%"class.xalanc_1_10::XalanVector.3"* %this) unnamed_addr #3 comdat align 2 personality i8* bitcast (i32 (...)* @__gxx_personality_v0 to i8*) !dbg !5299 {
entry:
  %this.addr = alloca %"class.xalanc_1_10::XalanVector.3"*, align 8
  store %"class.xalanc_1_10::XalanVector.3"* %this, %"class.xalanc_1_10::XalanVector.3"** %this.addr, align 8
  call void @llvm.dbg.declare(metadata %"class.xalanc_1_10::XalanVector.3"** %this.addr, metadata !5300, metadata !DIExpression()), !dbg !5301
  %this1 = load %"class.xalanc_1_10::XalanVector.3"*, %"class.xalanc_1_10::XalanVector.3"** %this.addr, align 8
  invoke void @_ZNK11xalanc_1_1011XalanVectorIbNS_31MemoryManagedConstructionTraitsIbEEE10invariantsEv(%"class.xalanc_1_10::XalanVector.3"* %this1)
          to label %invoke.cont unwind label %terminate.lpad, !dbg !5302

invoke.cont:                                      ; preds = %entry
  %m_allocation = getelementptr inbounds %"class.xalanc_1_10::XalanVector.3", %"class.xalanc_1_10::XalanVector.3"* %this1, i32 0, i32 2, !dbg !5304
  %0 = load i64, i64* %m_allocation, align 8, !dbg !5304
  %cmp = icmp ne i64 %0, 0, !dbg !5306
  br i1 %cmp, label %if.then, label %if.end, !dbg !5307

if.then:                                          ; preds = %invoke.cont
  %call = invoke i8* @_ZN11xalanc_1_1011XalanVectorIbNS_31MemoryManagedConstructionTraitsIbEEE5beginEv(%"class.xalanc_1_10::XalanVector.3"* %this1)
          to label %invoke.cont2 unwind label %terminate.lpad, !dbg !5308

invoke.cont2:                                     ; preds = %if.then
  %call4 = invoke i8* @_ZN11xalanc_1_1011XalanVectorIbNS_31MemoryManagedConstructionTraitsIbEEE3endEv(%"class.xalanc_1_10::XalanVector.3"* %this1)
          to label %invoke.cont3 unwind label %terminate.lpad, !dbg !5310

invoke.cont3:                                     ; preds = %invoke.cont2
  invoke void @_ZN11xalanc_1_1011XalanVectorIbNS_31MemoryManagedConstructionTraitsIbEEE7destroyEPbS4_(i8* %call, i8* %call4)
          to label %invoke.cont5 unwind label %terminate.lpad, !dbg !5311

invoke.cont5:                                     ; preds = %invoke.cont3
  %m_data = getelementptr inbounds %"class.xalanc_1_10::XalanVector.3", %"class.xalanc_1_10::XalanVector.3"* %this1, i32 0, i32 3, !dbg !5312
  %1 = load i8*, i8** %m_data, align 8, !dbg !5312
  invoke void @_ZN11xalanc_1_1011XalanVectorIbNS_31MemoryManagedConstructionTraitsIbEEE10deallocateEPb(%"class.xalanc_1_10::XalanVector.3"* %this1, i8* %1)
          to label %invoke.cont6 unwind label %terminate.lpad, !dbg !5313

invoke.cont6:                                     ; preds = %invoke.cont5
  br label %if.end, !dbg !5314

if.end:                                           ; preds = %invoke.cont6, %invoke.cont
  ret void, !dbg !5315

terminate.lpad:                                   ; preds = %invoke.cont5, %invoke.cont3, %invoke.cont2, %if.then, %entry
  %2 = landingpad { i8*, i32 }
          catch i8* null, !dbg !5302
  %3 = extractvalue { i8*, i32 } %2, 0, !dbg !5302
  call void @__clang_call_terminate(i8* %3) #9, !dbg !5302
  unreachable, !dbg !5302
}

; Function Attrs: noinline nounwind uwtable
define linkonce_odr dso_local void @_ZN11xalanc_1_1014XalanDOMStringD2Ev(%"class.xalanc_1_10::XalanDOMString"* %this) unnamed_addr #3 comdat align 2 !dbg !5316 {
entry:
  %this.addr = alloca %"class.xalanc_1_10::XalanDOMString"*, align 8
  store %"class.xalanc_1_10::XalanDOMString"* %this, %"class.xalanc_1_10::XalanDOMString"** %this.addr, align 8
  call void @llvm.dbg.declare(metadata %"class.xalanc_1_10::XalanDOMString"** %this.addr, metadata !5317, metadata !DIExpression()), !dbg !5318
  %this1 = load %"class.xalanc_1_10::XalanDOMString"*, %"class.xalanc_1_10::XalanDOMString"** %this.addr, align 8
  %m_data = getelementptr inbounds %"class.xalanc_1_10::XalanDOMString", %"class.xalanc_1_10::XalanDOMString"* %this1, i32 0, i32 0, !dbg !5319
  call void @_ZN11xalanc_1_1011XalanVectorItNS_31MemoryManagedConstructionTraitsItEEED2Ev(%"class.xalanc_1_10::XalanVector"* %m_data) #6, !dbg !5319
  ret void, !dbg !5321
}

; Function Attrs: nounwind
declare dso_local void @_ZN11xalanc_1_1014XPathProcessorD2Ev(%"class.xalanc_1_10::XPathProcessor"*) unnamed_addr #4

; Function Attrs: noinline uwtable
define dso_local %"class.xalanc_1_10::XPathProcessorImpl"* @_ZN11xalanc_1_1018XPathProcessorImpl6createERN11xercesc_2_713MemoryManagerE(%"class.xercesc_2_7::MemoryManager"* dereferenceable(8) %theManager) #0 align 2 personality i8* bitcast (i32 (...)* @__gxx_personality_v0 to i8*) !dbg !3834 {
entry:
  %theManager.addr = alloca %"class.xercesc_2_7::MemoryManager"*, align 8
  %theGuard = alloca %"class.xalanc_1_10::XalanMemMgrAutoPtr", align 8
  %theResult = alloca %"class.xalanc_1_10::XPathProcessorImpl"*, align 8
  %exn.slot = alloca i8*
  %ehselector.slot = alloca i32
  %coerce = alloca %"class.xalanc_1_10::XalanMemMgrAutoPtr<xalanc_1_10::XPathProcessorImpl, false>::MemMgrAutoPtrData", align 8
  store %"class.xercesc_2_7::MemoryManager"* %theManager, %"class.xercesc_2_7::MemoryManager"** %theManager.addr, align 8
  call void @llvm.dbg.declare(metadata %"class.xercesc_2_7::MemoryManager"** %theManager.addr, metadata !5322, metadata !DIExpression()), !dbg !5323
  call void @llvm.dbg.declare(metadata %"class.xalanc_1_10::XalanMemMgrAutoPtr"* %theGuard, metadata !5324, metadata !DIExpression()), !dbg !5325
  %0 = load %"class.xercesc_2_7::MemoryManager"*, %"class.xercesc_2_7::MemoryManager"** %theManager.addr, align 8, !dbg !5326
  %1 = load %"class.xercesc_2_7::MemoryManager"*, %"class.xercesc_2_7::MemoryManager"** %theManager.addr, align 8, !dbg !5327
  %2 = bitcast %"class.xercesc_2_7::MemoryManager"* %1 to i8* (%"class.xercesc_2_7::MemoryManager"*, i64)***, !dbg !5328
  %vtable = load i8* (%"class.xercesc_2_7::MemoryManager"*, i64)**, i8* (%"class.xercesc_2_7::MemoryManager"*, i64)*** %2, align 8, !dbg !5328
  %vfn = getelementptr inbounds i8* (%"class.xercesc_2_7::MemoryManager"*, i64)*, i8* (%"class.xercesc_2_7::MemoryManager"*, i64)** %vtable, i64 2, !dbg !5328
  %3 = load i8* (%"class.xercesc_2_7::MemoryManager"*, i64)*, i8* (%"class.xercesc_2_7::MemoryManager"*, i64)** %vfn, align 8, !dbg !5328
  %call = call i8* %3(%"class.xercesc_2_7::MemoryManager"* %1, i64 280), !dbg !5328
  %4 = bitcast i8* %call to %"class.xalanc_1_10::XPathProcessorImpl"*, !dbg !5329
  call void @_ZN11xalanc_1_1018XalanMemMgrAutoPtrINS_18XPathProcessorImplELb0EEC2ERN11xercesc_2_713MemoryManagerEPS1_(%"class.xalanc_1_10::XalanMemMgrAutoPtr"* %theGuard, %"class.xercesc_2_7::MemoryManager"* dereferenceable(8) %0, %"class.xalanc_1_10::XPathProcessorImpl"* %4), !dbg !5325
  call void @llvm.dbg.declare(metadata %"class.xalanc_1_10::XPathProcessorImpl"** %theResult, metadata !5330, metadata !DIExpression()), !dbg !5331
  %call1 = invoke %"class.xalanc_1_10::XPathProcessorImpl"* @_ZNK11xalanc_1_1018XalanMemMgrAutoPtrINS_18XPathProcessorImplELb0EE3getEv(%"class.xalanc_1_10::XalanMemMgrAutoPtr"* %theGuard)
          to label %invoke.cont unwind label %lpad, !dbg !5332

invoke.cont:                                      ; preds = %entry
  store %"class.xalanc_1_10::XPathProcessorImpl"* %call1, %"class.xalanc_1_10::XPathProcessorImpl"** %theResult, align 8, !dbg !5331
  %5 = load %"class.xalanc_1_10::XPathProcessorImpl"*, %"class.xalanc_1_10::XPathProcessorImpl"** %theResult, align 8, !dbg !5333
  %6 = bitcast %"class.xalanc_1_10::XPathProcessorImpl"* %5 to i8*, !dbg !5334
  %7 = bitcast i8* %6 to %"class.xalanc_1_10::XPathProcessorImpl"*, !dbg !5334
  %8 = load %"class.xercesc_2_7::MemoryManager"*, %"class.xercesc_2_7::MemoryManager"** %theManager.addr, align 8, !dbg !5335
  invoke void @_ZN11xalanc_1_1018XPathProcessorImplC1ERN11xercesc_2_713MemoryManagerE(%"class.xalanc_1_10::XPathProcessorImpl"* %7, %"class.xercesc_2_7::MemoryManager"* dereferenceable(8) %8)
          to label %invoke.cont2 unwind label %lpad, !dbg !5336

invoke.cont2:                                     ; preds = %invoke.cont
  %call4 = invoke { %"class.xercesc_2_7::MemoryManager"*, %"class.xalanc_1_10::XPathProcessorImpl"* } @_ZN11xalanc_1_1018XalanMemMgrAutoPtrINS_18XPathProcessorImplELb0EE7releaseEv(%"class.xalanc_1_10::XalanMemMgrAutoPtr"* %theGuard)
          to label %invoke.cont3 unwind label %lpad, !dbg !5337

invoke.cont3:                                     ; preds = %invoke.cont2
  %coerce.dive = getelementptr inbounds %"class.xalanc_1_10::XalanMemMgrAutoPtr<xalanc_1_10::XPathProcessorImpl, false>::MemMgrAutoPtrData", %"class.xalanc_1_10::XalanMemMgrAutoPtr<xalanc_1_10::XPathProcessorImpl, false>::MemMgrAutoPtrData"* %coerce, i32 0, i32 0, !dbg !5337
  %9 = bitcast %"struct.std::pair.6"* %coerce.dive to { %"class.xercesc_2_7::MemoryManager"*, %"class.xalanc_1_10::XPathProcessorImpl"* }*, !dbg !5337
  %10 = getelementptr inbounds { %"class.xercesc_2_7::MemoryManager"*, %"class.xalanc_1_10::XPathProcessorImpl"* }, { %"class.xercesc_2_7::MemoryManager"*, %"class.xalanc_1_10::XPathProcessorImpl"* }* %9, i32 0, i32 0, !dbg !5337
  %11 = extractvalue { %"class.xercesc_2_7::MemoryManager"*, %"class.xalanc_1_10::XPathProcessorImpl"* } %call4, 0, !dbg !5337
  store %"class.xercesc_2_7::MemoryManager"* %11, %"class.xercesc_2_7::MemoryManager"** %10, align 8, !dbg !5337
  %12 = getelementptr inbounds { %"class.xercesc_2_7::MemoryManager"*, %"class.xalanc_1_10::XPathProcessorImpl"* }, { %"class.xercesc_2_7::MemoryManager"*, %"class.xalanc_1_10::XPathProcessorImpl"* }* %9, i32 0, i32 1, !dbg !5337
  %13 = extractvalue { %"class.xercesc_2_7::MemoryManager"*, %"class.xalanc_1_10::XPathProcessorImpl"* } %call4, 1, !dbg !5337
  store %"class.xalanc_1_10::XPathProcessorImpl"* %13, %"class.xalanc_1_10::XPathProcessorImpl"** %12, align 8, !dbg !5337
  %14 = load %"class.xalanc_1_10::XPathProcessorImpl"*, %"class.xalanc_1_10::XPathProcessorImpl"** %theResult, align 8, !dbg !5338
  call void @_ZN11xalanc_1_1018XalanMemMgrAutoPtrINS_18XPathProcessorImplELb0EED2Ev(%"class.xalanc_1_10::XalanMemMgrAutoPtr"* %theGuard) #6, !dbg !5339
  ret %"class.xalanc_1_10::XPathProcessorImpl"* %14, !dbg !5339

lpad:                                             ; preds = %invoke.cont2, %invoke.cont, %entry
  %15 = landingpad { i8*, i32 }
          cleanup, !dbg !5339
  %16 = extractvalue { i8*, i32 } %15, 0, !dbg !5339
  store i8* %16, i8** %exn.slot, align 8, !dbg !5339
  %17 = extractvalue { i8*, i32 } %15, 1, !dbg !5339
  store i32 %17, i32* %ehselector.slot, align 4, !dbg !5339
  call void @_ZN11xalanc_1_1018XalanMemMgrAutoPtrINS_18XPathProcessorImplELb0EED2Ev(%"class.xalanc_1_10::XalanMemMgrAutoPtr"* %theGuard) #6, !dbg !5339
  br label %eh.resume, !dbg !5339

eh.resume:                                        ; preds = %lpad
  %exn = load i8*, i8** %exn.slot, align 8, !dbg !5339
  %sel = load i32, i32* %ehselector.slot, align 4, !dbg !5339
  %lpad.val = insertvalue { i8*, i32 } undef, i8* %exn, 0, !dbg !5339
  %lpad.val5 = insertvalue { i8*, i32 } %lpad.val, i32 %sel, 1, !dbg !5339
  resume { i8*, i32 } %lpad.val5, !dbg !5339
}

; Function Attrs: noinline uwtable
define linkonce_odr dso_local void @_ZN11xalanc_1_1018XalanMemMgrAutoPtrINS_18XPathProcessorImplELb0EEC2ERN11xercesc_2_713MemoryManagerEPS1_(%"class.xalanc_1_10::XalanMemMgrAutoPtr"* %this, %"class.xercesc_2_7::MemoryManager"* dereferenceable(8) %theManager, %"class.xalanc_1_10::XPathProcessorImpl"* %ptr) unnamed_addr #0 comdat align 2 !dbg !5340 {
entry:
  %this.addr = alloca %"class.xalanc_1_10::XalanMemMgrAutoPtr"*, align 8
  %theManager.addr = alloca %"class.xercesc_2_7::MemoryManager"*, align 8
  %ptr.addr = alloca %"class.xalanc_1_10::XPathProcessorImpl"*, align 8
  store %"class.xalanc_1_10::XalanMemMgrAutoPtr"* %this, %"class.xalanc_1_10::XalanMemMgrAutoPtr"** %this.addr, align 8
  call void @llvm.dbg.declare(metadata %"class.xalanc_1_10::XalanMemMgrAutoPtr"** %this.addr, metadata !5341, metadata !DIExpression()), !dbg !5343
  store %"class.xercesc_2_7::MemoryManager"* %theManager, %"class.xercesc_2_7::MemoryManager"** %theManager.addr, align 8
  call void @llvm.dbg.declare(metadata %"class.xercesc_2_7::MemoryManager"** %theManager.addr, metadata !5344, metadata !DIExpression()), !dbg !5345
  store %"class.xalanc_1_10::XPathProcessorImpl"* %ptr, %"class.xalanc_1_10::XPathProcessorImpl"** %ptr.addr, align 8
  call void @llvm.dbg.declare(metadata %"class.xalanc_1_10::XPathProcessorImpl"** %ptr.addr, metadata !5346, metadata !DIExpression()), !dbg !5347
  %this1 = load %"class.xalanc_1_10::XalanMemMgrAutoPtr"*, %"class.xalanc_1_10::XalanMemMgrAutoPtr"** %this.addr, align 8
  %m_pointerInfo = getelementptr inbounds %"class.xalanc_1_10::XalanMemMgrAutoPtr", %"class.xalanc_1_10::XalanMemMgrAutoPtr"* %this1, i32 0, i32 0, !dbg !5348
  %0 = load %"class.xercesc_2_7::MemoryManager"*, %"class.xercesc_2_7::MemoryManager"** %theManager.addr, align 8, !dbg !5349
  %1 = load %"class.xalanc_1_10::XPathProcessorImpl"*, %"class.xalanc_1_10::XPathProcessorImpl"** %ptr.addr, align 8, !dbg !5350
  call void @_ZN11xalanc_1_1018XalanMemMgrAutoPtrINS_18XPathProcessorImplELb0EE17MemMgrAutoPtrDataC2EPN11xercesc_2_713MemoryManagerEPS1_(%"class.xalanc_1_10::XalanMemMgrAutoPtr<xalanc_1_10::XPathProcessorImpl, false>::MemMgrAutoPtrData"* %m_pointerInfo, %"class.xercesc_2_7::MemoryManager"* %0, %"class.xalanc_1_10::XPathProcessorImpl"* %1), !dbg !5348
  ret void, !dbg !5351
}

; Function Attrs: noinline nounwind uwtable
define linkonce_odr dso_local %"class.xalanc_1_10::XPathProcessorImpl"* @_ZNK11xalanc_1_1018XalanMemMgrAutoPtrINS_18XPathProcessorImplELb0EE3getEv(%"class.xalanc_1_10::XalanMemMgrAutoPtr"* %this) #3 comdat align 2 !dbg !5352 {
entry:
  %this.addr = alloca %"class.xalanc_1_10::XalanMemMgrAutoPtr"*, align 8
  store %"class.xalanc_1_10::XalanMemMgrAutoPtr"* %this, %"class.xalanc_1_10::XalanMemMgrAutoPtr"** %this.addr, align 8
  call void @llvm.dbg.declare(metadata %"class.xalanc_1_10::XalanMemMgrAutoPtr"** %this.addr, metadata !5353, metadata !DIExpression()), !dbg !5355
  %this1 = load %"class.xalanc_1_10::XalanMemMgrAutoPtr"*, %"class.xalanc_1_10::XalanMemMgrAutoPtr"** %this.addr, align 8
  %m_pointerInfo = getelementptr inbounds %"class.xalanc_1_10::XalanMemMgrAutoPtr", %"class.xalanc_1_10::XalanMemMgrAutoPtr"* %this1, i32 0, i32 0, !dbg !5356
  %0 = bitcast %"class.xalanc_1_10::XalanMemMgrAutoPtr<xalanc_1_10::XPathProcessorImpl, false>::MemMgrAutoPtrData"* %m_pointerInfo to %"struct.std::pair.6"*, !dbg !5356
  %second = getelementptr inbounds %"struct.std::pair.6", %"struct.std::pair.6"* %0, i32 0, i32 1, !dbg !5357
  %1 = load %"class.xalanc_1_10::XPathProcessorImpl"*, %"class.xalanc_1_10::XPathProcessorImpl"** %second, align 8, !dbg !5357
  ret %"class.xalanc_1_10::XPathProcessorImpl"* %1, !dbg !5358
}

; Function Attrs: noinline uwtable
define linkonce_odr dso_local { %"class.xercesc_2_7::MemoryManager"*, %"class.xalanc_1_10::XPathProcessorImpl"* } @_ZN11xalanc_1_1018XalanMemMgrAutoPtrINS_18XPathProcessorImplELb0EE7releaseEv(%"class.xalanc_1_10::XalanMemMgrAutoPtr"* %this) #0 comdat align 2 !dbg !5359 {
entry:
  %retval = alloca %"class.xalanc_1_10::XalanMemMgrAutoPtr<xalanc_1_10::XPathProcessorImpl, false>::MemMgrAutoPtrData", align 8
  %this.addr = alloca %"class.xalanc_1_10::XalanMemMgrAutoPtr"*, align 8
  %tmp = alloca %"class.xalanc_1_10::XalanMemMgrAutoPtr<xalanc_1_10::XPathProcessorImpl, false>::MemMgrAutoPtrData", align 8
  store %"class.xalanc_1_10::XalanMemMgrAutoPtr"* %this, %"class.xalanc_1_10::XalanMemMgrAutoPtr"** %this.addr, align 8
  call void @llvm.dbg.declare(metadata %"class.xalanc_1_10::XalanMemMgrAutoPtr"** %this.addr, metadata !5360, metadata !DIExpression()), !dbg !5361
  %this1 = load %"class.xalanc_1_10::XalanMemMgrAutoPtr"*, %"class.xalanc_1_10::XalanMemMgrAutoPtr"** %this.addr, align 8
  call void @llvm.dbg.declare(metadata %"class.xalanc_1_10::XalanMemMgrAutoPtr<xalanc_1_10::XPathProcessorImpl, false>::MemMgrAutoPtrData"* %tmp, metadata !5362, metadata !DIExpression()), !dbg !5363
  %m_pointerInfo = getelementptr inbounds %"class.xalanc_1_10::XalanMemMgrAutoPtr", %"class.xalanc_1_10::XalanMemMgrAutoPtr"* %this1, i32 0, i32 0, !dbg !5364
  %0 = bitcast %"class.xalanc_1_10::XalanMemMgrAutoPtr<xalanc_1_10::XPathProcessorImpl, false>::MemMgrAutoPtrData"* %tmp to i8*, !dbg !5364
  %1 = bitcast %"class.xalanc_1_10::XalanMemMgrAutoPtr<xalanc_1_10::XPathProcessorImpl, false>::MemMgrAutoPtrData"* %m_pointerInfo to i8*, !dbg !5364
  call void @llvm.memcpy.p0i8.p0i8.i64(i8* align 8 %0, i8* align 8 %1, i64 16, i1 false), !dbg !5364
  %m_pointerInfo2 = getelementptr inbounds %"class.xalanc_1_10::XalanMemMgrAutoPtr", %"class.xalanc_1_10::XalanMemMgrAutoPtr"* %this1, i32 0, i32 0, !dbg !5365
  call void @_ZN11xalanc_1_1018XalanMemMgrAutoPtrINS_18XPathProcessorImplELb0EE17MemMgrAutoPtrData5resetEPN11xercesc_2_713MemoryManagerEPS1_(%"class.xalanc_1_10::XalanMemMgrAutoPtr<xalanc_1_10::XPathProcessorImpl, false>::MemMgrAutoPtrData"* %m_pointerInfo2, %"class.xercesc_2_7::MemoryManager"* null, %"class.xalanc_1_10::XPathProcessorImpl"* null), !dbg !5366
  %2 = bitcast %"class.xalanc_1_10::XalanMemMgrAutoPtr<xalanc_1_10::XPathProcessorImpl, false>::MemMgrAutoPtrData"* %retval to i8*, !dbg !5367
  %3 = bitcast %"class.xalanc_1_10::XalanMemMgrAutoPtr<xalanc_1_10::XPathProcessorImpl, false>::MemMgrAutoPtrData"* %tmp to i8*, !dbg !5367
  call void @llvm.memcpy.p0i8.p0i8.i64(i8* align 8 %2, i8* align 8 %3, i64 16, i1 false), !dbg !5367
  %coerce.dive = getelementptr inbounds %"class.xalanc_1_10::XalanMemMgrAutoPtr<xalanc_1_10::XPathProcessorImpl, false>::MemMgrAutoPtrData", %"class.xalanc_1_10::XalanMemMgrAutoPtr<xalanc_1_10::XPathProcessorImpl, false>::MemMgrAutoPtrData"* %retval, i32 0, i32 0, !dbg !5368
  %4 = bitcast %"struct.std::pair.6"* %coerce.dive to { %"class.xercesc_2_7::MemoryManager"*, %"class.xalanc_1_10::XPathProcessorImpl"* }*, !dbg !5368
  %5 = load { %"class.xercesc_2_7::MemoryManager"*, %"class.xalanc_1_10::XPathProcessorImpl"* }, { %"class.xercesc_2_7::MemoryManager"*, %"class.xalanc_1_10::XPathProcessorImpl"* }* %4, align 8, !dbg !5368
  ret { %"class.xercesc_2_7::MemoryManager"*, %"class.xalanc_1_10::XPathProcessorImpl"* } %5, !dbg !5368
}

; Function Attrs: noinline nounwind uwtable
define linkonce_odr dso_local void @_ZN11xalanc_1_1018XalanMemMgrAutoPtrINS_18XPathProcessorImplELb0EED2Ev(%"class.xalanc_1_10::XalanMemMgrAutoPtr"* %this) unnamed_addr #3 comdat align 2 personality i8* bitcast (i32 (...)* @__gxx_personality_v0 to i8*) !dbg !5369 {
entry:
  %this.addr = alloca %"class.xalanc_1_10::XalanMemMgrAutoPtr"*, align 8
  store %"class.xalanc_1_10::XalanMemMgrAutoPtr"* %this, %"class.xalanc_1_10::XalanMemMgrAutoPtr"** %this.addr, align 8
  call void @llvm.dbg.declare(metadata %"class.xalanc_1_10::XalanMemMgrAutoPtr"** %this.addr, metadata !5370, metadata !DIExpression()), !dbg !5371
  %this1 = load %"class.xalanc_1_10::XalanMemMgrAutoPtr"*, %"class.xalanc_1_10::XalanMemMgrAutoPtr"** %this.addr, align 8
  %m_pointerInfo = getelementptr inbounds %"class.xalanc_1_10::XalanMemMgrAutoPtr", %"class.xalanc_1_10::XalanMemMgrAutoPtr"* %this1, i32 0, i32 0, !dbg !5372
  invoke void @_ZN11xalanc_1_1018XalanMemMgrAutoPtrINS_18XPathProcessorImplELb0EE17MemMgrAutoPtrData10deallocateEv(%"class.xalanc_1_10::XalanMemMgrAutoPtr<xalanc_1_10::XPathProcessorImpl, false>::MemMgrAutoPtrData"* %m_pointerInfo)
          to label %invoke.cont unwind label %terminate.lpad, !dbg !5374

invoke.cont:                                      ; preds = %entry
  ret void, !dbg !5375

terminate.lpad:                                   ; preds = %entry
  %0 = landingpad { i8*, i32 }
          catch i8* null, !dbg !5374
  %1 = extractvalue { i8*, i32 } %0, 0, !dbg !5374
  call void @__clang_call_terminate(i8* %1) #9, !dbg !5374
  unreachable, !dbg !5374
}

; Function Attrs: noinline nounwind uwtable
define dso_local void @_ZN11xalanc_1_1018XPathProcessorImplD2Ev(%"class.xalanc_1_10::XPathProcessorImpl"* %this) unnamed_addr #3 align 2 !dbg !5376 {
entry:
  %this.addr = alloca %"class.xalanc_1_10::XPathProcessorImpl"*, align 8
  store %"class.xalanc_1_10::XPathProcessorImpl"* %this, %"class.xalanc_1_10::XPathProcessorImpl"** %this.addr, align 8
  call void @llvm.dbg.declare(metadata %"class.xalanc_1_10::XPathProcessorImpl"** %this.addr, metadata !5377, metadata !DIExpression()), !dbg !5378
  %this1 = load %"class.xalanc_1_10::XPathProcessorImpl"*, %"class.xalanc_1_10::XPathProcessorImpl"** %this.addr, align 8
  %0 = bitcast %"class.xalanc_1_10::XPathProcessorImpl"* %this1 to i32 (...)***, !dbg !5379
  store i32 (...)** bitcast (i8** getelementptr inbounds ({ [6 x i8*] }, { [6 x i8*] }* @_ZTVN11xalanc_1_1018XPathProcessorImplE, i32 0, inrange i32 0, i32 2) to i32 (...)**), i32 (...)*** %0, align 8, !dbg !5379
  %m_namespaces = getelementptr inbounds %"class.xalanc_1_10::XPathProcessorImpl", %"class.xalanc_1_10::XPathProcessorImpl"* %this1, i32 0, i32 13, !dbg !5380
  call void @_ZN11xalanc_1_108XalanMapINS_14XalanDOMStringEPKS1_NS_17XalanMapKeyTraitsIS1_EEED2Ev(%"class.xalanc_1_10::XalanMap"* %m_namespaces) #6, !dbg !5380
  %m_positionPredicateStack = getelementptr inbounds %"class.xalanc_1_10::XPathProcessorImpl", %"class.xalanc_1_10::XPathProcessorImpl"* %this1, i32 0, i32 12, !dbg !5380
  call void @_ZN11xalanc_1_1011XalanVectorIbNS_31MemoryManagedConstructionTraitsIbEEED2Ev(%"class.xalanc_1_10::XalanVector.3"* %m_positionPredicateStack) #6, !dbg !5380
  %m_token = getelementptr inbounds %"class.xalanc_1_10::XPathProcessorImpl", %"class.xalanc_1_10::XPathProcessorImpl"* %this1, i32 0, i32 1, !dbg !5380
  call void @_ZN11xalanc_1_1014XalanDOMStringD2Ev(%"class.xalanc_1_10::XalanDOMString"* %m_token) #6, !dbg !5380
  %1 = bitcast %"class.xalanc_1_10::XPathProcessorImpl"* %this1 to %"class.xalanc_1_10::XPathProcessor"*, !dbg !5380
  call void @_ZN11xalanc_1_1014XPathProcessorD2Ev(%"class.xalanc_1_10::XPathProcessor"* %1) #6, !dbg !5380
  ret void, !dbg !5382
}

; Function Attrs: noinline nounwind uwtable
define linkonce_odr dso_local void @_ZN11xalanc_1_108XalanMapINS_14XalanDOMStringEPKS1_NS_17XalanMapKeyTraitsIS1_EEED2Ev(%"class.xalanc_1_10::XalanMap"* %this) unnamed_addr #3 comdat align 2 personality i8* bitcast (i32 (...)* @__gxx_personality_v0 to i8*) !dbg !5383 {
entry:
  %this.addr = alloca %"class.xalanc_1_10::XalanMap"*, align 8
  %exn.slot = alloca i8*
  %ehselector.slot = alloca i32
  %toRemove = alloca %"struct.xalanc_1_10::XalanListIteratorBase", align 8
  %ref.tmp = alloca %"struct.xalanc_1_10::XalanListIteratorBase", align 8
  %tmp = alloca %"struct.xalanc_1_10::XalanListIteratorBase", align 8
  store %"class.xalanc_1_10::XalanMap"* %this, %"class.xalanc_1_10::XalanMap"** %this.addr, align 8
  call void @llvm.dbg.declare(metadata %"class.xalanc_1_10::XalanMap"** %this.addr, metadata !5384, metadata !DIExpression()), !dbg !5385
  %this1 = load %"class.xalanc_1_10::XalanMap"*, %"class.xalanc_1_10::XalanMap"** %this.addr, align 8
  invoke void @_ZN11xalanc_1_108XalanMapINS_14XalanDOMStringEPKS1_NS_17XalanMapKeyTraitsIS1_EEE15doRemoveEntriesEv(%"class.xalanc_1_10::XalanMap"* %this1)
          to label %invoke.cont unwind label %lpad, !dbg !5386

invoke.cont:                                      ; preds = %entry
  %m_buckets = getelementptr inbounds %"class.xalanc_1_10::XalanMap", %"class.xalanc_1_10::XalanMap"* %this1, i32 0, i32 8, !dbg !5388
  %call = invoke zeroext i1 @_ZNK11xalanc_1_1011XalanVectorINS0_INS_21XalanListIteratorBaseINS_23XalanListIteratorTraitsINS_8XalanMapINS_14XalanDOMStringEPKS4_NS_17XalanMapKeyTraitsIS4_EEE5EntryEEENS_9XalanListISA_E4NodeEEENS_31MemoryManagedConstructionTraitsISF_EEEENS_32ConstructWithMemoryManagerTraitsISI_EEE5emptyEv(%"class.xalanc_1_10::XalanVector.4"* %m_buckets)
          to label %invoke.cont2 unwind label %lpad, !dbg !5390

invoke.cont2:                                     ; preds = %invoke.cont
  br i1 %call, label %if.end, label %if.then, !dbg !5391

if.then:                                          ; preds = %invoke.cont2
  call void @llvm.dbg.declare(metadata %"struct.xalanc_1_10::XalanListIteratorBase"* %toRemove, metadata !5392, metadata !DIExpression()), !dbg !5395
  %m_freeEntries = getelementptr inbounds %"class.xalanc_1_10::XalanMap", %"class.xalanc_1_10::XalanMap"* %this1, i32 0, i32 7, !dbg !5396
  invoke void @_ZN11xalanc_1_109XalanListINS_8XalanMapINS_14XalanDOMStringEPKS2_NS_17XalanMapKeyTraitsIS2_EEE5EntryEE5beginEv(%"struct.xalanc_1_10::XalanListIteratorBase"* sret %toRemove, %"class.xalanc_1_10::XalanList"* %m_freeEntries)
          to label %invoke.cont3 unwind label %lpad, !dbg !5397

invoke.cont3:                                     ; preds = %if.then
  br label %while.cond, !dbg !5398

while.cond:                                       ; preds = %invoke.cont11, %invoke.cont3
  %m_freeEntries4 = getelementptr inbounds %"class.xalanc_1_10::XalanMap", %"class.xalanc_1_10::XalanMap"* %this1, i32 0, i32 7, !dbg !5399
  invoke void @_ZN11xalanc_1_109XalanListINS_8XalanMapINS_14XalanDOMStringEPKS2_NS_17XalanMapKeyTraitsIS2_EEE5EntryEE3endEv(%"struct.xalanc_1_10::XalanListIteratorBase"* sret %ref.tmp, %"class.xalanc_1_10::XalanList"* %m_freeEntries4)
          to label %invoke.cont5 unwind label %lpad, !dbg !5400

invoke.cont5:                                     ; preds = %while.cond
  %call7 = invoke zeroext i1 @_ZNK11xalanc_1_1021XalanListIteratorBaseINS_23XalanListIteratorTraitsINS_8XalanMapINS_14XalanDOMStringEPKS3_NS_17XalanMapKeyTraitsIS3_EEE5EntryEEENS_9XalanListIS9_E4NodeEEneERKSE_(%"struct.xalanc_1_10::XalanListIteratorBase"* %toRemove, %"struct.xalanc_1_10::XalanListIteratorBase"* dereferenceable(8) %ref.tmp)
          to label %invoke.cont6 unwind label %lpad, !dbg !5401

invoke.cont6:                                     ; preds = %invoke.cont5
  br i1 %call7, label %while.body, label %while.end, !dbg !5398

while.body:                                       ; preds = %invoke.cont6
  %call9 = invoke %"struct.xalanc_1_10::XalanMap<xalanc_1_10::XalanDOMString, const xalanc_1_10::XalanDOMString *, xalanc_1_10::XalanMapKeyTraits<xalanc_1_10::XalanDOMString> >::Entry"* @_ZNK11xalanc_1_1021XalanListIteratorBaseINS_23XalanListIteratorTraitsINS_8XalanMapINS_14XalanDOMStringEPKS3_NS_17XalanMapKeyTraitsIS3_EEE5EntryEEENS_9XalanListIS9_E4NodeEEptEv(%"struct.xalanc_1_10::XalanListIteratorBase"* %toRemove)
          to label %invoke.cont8 unwind label %lpad, !dbg !5402

invoke.cont8:                                     ; preds = %while.body
  %value = getelementptr inbounds %"struct.xalanc_1_10::XalanMap<xalanc_1_10::XalanDOMString, const xalanc_1_10::XalanDOMString *, xalanc_1_10::XalanMapKeyTraits<xalanc_1_10::XalanDOMString> >::Entry", %"struct.xalanc_1_10::XalanMap<xalanc_1_10::XalanDOMString, const xalanc_1_10::XalanDOMString *, xalanc_1_10::XalanMapKeyTraits<xalanc_1_10::XalanDOMString> >::Entry"* %call9, i32 0, i32 0, !dbg !5404
  %0 = load %"struct.std::pair"*, %"struct.std::pair"** %value, align 8, !dbg !5404
  invoke void @_ZN11xalanc_1_108XalanMapINS_14XalanDOMStringEPKS1_NS_17XalanMapKeyTraitsIS1_EEE10deallocateEPSt4pairIS2_S3_E(%"class.xalanc_1_10::XalanMap"* %this1, %"struct.std::pair"* %0)
          to label %invoke.cont10 unwind label %lpad, !dbg !5405

invoke.cont10:                                    ; preds = %invoke.cont8
  invoke void @_ZN11xalanc_1_1021XalanListIteratorBaseINS_23XalanListIteratorTraitsINS_8XalanMapINS_14XalanDOMStringEPKS3_NS_17XalanMapKeyTraitsIS3_EEE5EntryEEENS_9XalanListIS9_E4NodeEEppEv(%"struct.xalanc_1_10::XalanListIteratorBase"* sret %tmp, %"struct.xalanc_1_10::XalanListIteratorBase"* %toRemove)
          to label %invoke.cont11 unwind label %lpad, !dbg !5406

invoke.cont11:                                    ; preds = %invoke.cont10
  br label %while.cond, !dbg !5398, !llvm.loop !5407

lpad:                                             ; preds = %invoke.cont10, %invoke.cont8, %while.body, %invoke.cont5, %while.cond, %if.then, %invoke.cont, %entry
  %1 = landingpad { i8*, i32 }
          catch i8* null, !dbg !5409
  %2 = extractvalue { i8*, i32 } %1, 0, !dbg !5409
  store i8* %2, i8** %exn.slot, align 8, !dbg !5409
  %3 = extractvalue { i8*, i32 } %1, 1, !dbg !5409
  store i32 %3, i32* %ehselector.slot, align 4, !dbg !5409
  %m_buckets13 = getelementptr inbounds %"class.xalanc_1_10::XalanMap", %"class.xalanc_1_10::XalanMap"* %this1, i32 0, i32 8, !dbg !5409
  call void @_ZN11xalanc_1_1011XalanVectorINS0_INS_21XalanListIteratorBaseINS_23XalanListIteratorTraitsINS_8XalanMapINS_14XalanDOMStringEPKS4_NS_17XalanMapKeyTraitsIS4_EEE5EntryEEENS_9XalanListISA_E4NodeEEENS_31MemoryManagedConstructionTraitsISF_EEEENS_32ConstructWithMemoryManagerTraitsISI_EEED2Ev(%"class.xalanc_1_10::XalanVector.4"* %m_buckets13) #6, !dbg !5409
  %m_freeEntries15 = getelementptr inbounds %"class.xalanc_1_10::XalanMap", %"class.xalanc_1_10::XalanMap"* %this1, i32 0, i32 7, !dbg !5409
  call void @_ZN11xalanc_1_109XalanListINS_8XalanMapINS_14XalanDOMStringEPKS2_NS_17XalanMapKeyTraitsIS2_EEE5EntryEED2Ev(%"class.xalanc_1_10::XalanList"* %m_freeEntries15) #6, !dbg !5409
  %m_entries16 = getelementptr inbounds %"class.xalanc_1_10::XalanMap", %"class.xalanc_1_10::XalanMap"* %this1, i32 0, i32 6, !dbg !5409
  call void @_ZN11xalanc_1_109XalanListINS_8XalanMapINS_14XalanDOMStringEPKS2_NS_17XalanMapKeyTraitsIS2_EEE5EntryEED2Ev(%"class.xalanc_1_10::XalanList"* %m_entries16) #6, !dbg !5409
  br label %terminate.handler, !dbg !5409

while.end:                                        ; preds = %invoke.cont6
  br label %if.end, !dbg !5410

if.end:                                           ; preds = %while.end, %invoke.cont2
  %m_buckets12 = getelementptr inbounds %"class.xalanc_1_10::XalanMap", %"class.xalanc_1_10::XalanMap"* %this1, i32 0, i32 8, !dbg !5409
  call void @_ZN11xalanc_1_1011XalanVectorINS0_INS_21XalanListIteratorBaseINS_23XalanListIteratorTraitsINS_8XalanMapINS_14XalanDOMStringEPKS4_NS_17XalanMapKeyTraitsIS4_EEE5EntryEEENS_9XalanListISA_E4NodeEEENS_31MemoryManagedConstructionTraitsISF_EEEENS_32ConstructWithMemoryManagerTraitsISI_EEED2Ev(%"class.xalanc_1_10::XalanVector.4"* %m_buckets12) #6, !dbg !5409
  %m_freeEntries14 = getelementptr inbounds %"class.xalanc_1_10::XalanMap", %"class.xalanc_1_10::XalanMap"* %this1, i32 0, i32 7, !dbg !5409
  call void @_ZN11xalanc_1_109XalanListINS_8XalanMapINS_14XalanDOMStringEPKS2_NS_17XalanMapKeyTraitsIS2_EEE5EntryEED2Ev(%"class.xalanc_1_10::XalanList"* %m_freeEntries14) #6, !dbg !5409
  %m_entries = getelementptr inbounds %"class.xalanc_1_10::XalanMap", %"class.xalanc_1_10::XalanMap"* %this1, i32 0, i32 6, !dbg !5409
  call void @_ZN11xalanc_1_109XalanListINS_8XalanMapINS_14XalanDOMStringEPKS2_NS_17XalanMapKeyTraitsIS2_EEE5EntryEED2Ev(%"class.xalanc_1_10::XalanList"* %m_entries) #6, !dbg !5409
  ret void, !dbg !5411

terminate.handler:                                ; preds = %lpad
  %exn = load i8*, i8** %exn.slot, align 8, !dbg !5409
  call void @__clang_call_terminate(i8* %exn) #9, !dbg !5409
  unreachable, !dbg !5409
}

; Function Attrs: noinline nounwind uwtable
define dso_local void @_ZN11xalanc_1_1018XPathProcessorImplD0Ev(%"class.xalanc_1_10::XPathProcessorImpl"* %this) unnamed_addr #3 align 2 !dbg !5412 {
entry:
  %this.addr = alloca %"class.xalanc_1_10::XPathProcessorImpl"*, align 8
  store %"class.xalanc_1_10::XPathProcessorImpl"* %this, %"class.xalanc_1_10::XPathProcessorImpl"** %this.addr, align 8
  call void @llvm.dbg.declare(metadata %"class.xalanc_1_10::XPathProcessorImpl"** %this.addr, metadata !5413, metadata !DIExpression()), !dbg !5414
  %this1 = load %"class.xalanc_1_10::XPathProcessorImpl"*, %"class.xalanc_1_10::XPathProcessorImpl"** %this.addr, align 8
  call void @_ZN11xalanc_1_1018XPathProcessorImplD1Ev(%"class.xalanc_1_10::XPathProcessorImpl"* %this1) #6, !dbg !5415
  %0 = bitcast %"class.xalanc_1_10::XPathProcessorImpl"* %this1 to i8*, !dbg !5415
  call void @_ZdlPv(i8* %0) #10, !dbg !5415
  ret void, !dbg !5416
}

; Function Attrs: nobuiltin nounwind
declare dso_local void @_ZdlPv(i8*) #5

; Function Attrs: noinline uwtable
define dso_local void @_ZN11xalanc_1_1018XPathProcessorImpl9initXPathERNS_5XPathERNS_24XPathConstructionContextERKNS_14XalanDOMStringERKNS_14PrefixResolverEPKN11xercesc_2_77LocatorEbb(%"class.xalanc_1_10::XPathProcessorImpl"* %this, %"class.xalanc_1_10::XPath"* dereferenceable(136) %pathObj, %"class.xalanc_1_10::XPathConstructionContext"* dereferenceable(16) %constructionContext, %"class.xalanc_1_10::XalanDOMString"* dereferenceable(40) %expression, %"class.xalanc_1_10::PrefixResolver"* dereferenceable(8) %resolver, %"class.xercesc_2_7::Locator"* %locator, i1 zeroext %allowVariableReferences, i1 zeroext %allowKeyFunction) unnamed_addr #0 align 2 !dbg !5417 {
entry:
  %this.addr = alloca %"class.xalanc_1_10::XPathProcessorImpl"*, align 8
  %pathObj.addr = alloca %"class.xalanc_1_10::XPath"*, align 8
  %constructionContext.addr = alloca %"class.xalanc_1_10::XPathConstructionContext"*, align 8
  %expression.addr = alloca %"class.xalanc_1_10::XalanDOMString"*, align 8
  %resolver.addr = alloca %"class.xalanc_1_10::PrefixResolver"*, align 8
  %locator.addr = alloca %"class.xercesc_2_7::Locator"*, align 8
  %allowVariableReferences.addr = alloca i8, align 1
  %allowKeyFunction.addr = alloca i8, align 1
  store %"class.xalanc_1_10::XPathProcessorImpl"* %this, %"class.xalanc_1_10::XPathProcessorImpl"** %this.addr, align 8
  call void @llvm.dbg.declare(metadata %"class.xalanc_1_10::XPathProcessorImpl"** %this.addr, metadata !5418, metadata !DIExpression()), !dbg !5419
  store %"class.xalanc_1_10::XPath"* %pathObj, %"class.xalanc_1_10::XPath"** %pathObj.addr, align 8
  call void @llvm.dbg.declare(metadata %"class.xalanc_1_10::XPath"** %pathObj.addr, metadata !5420, metadata !DIExpression()), !dbg !5421
  store %"class.xalanc_1_10::XPathConstructionContext"* %constructionContext, %"class.xalanc_1_10::XPathConstructionContext"** %constructionContext.addr, align 8
  call void @llvm.dbg.declare(metadata %"class.xalanc_1_10::XPathConstructionContext"** %constructionContext.addr, metadata !5422, metadata !DIExpression()), !dbg !5423
  store %"class.xalanc_1_10::XalanDOMString"* %expression, %"class.xalanc_1_10::XalanDOMString"** %expression.addr, align 8
  call void @llvm.dbg.declare(metadata %"class.xalanc_1_10::XalanDOMString"** %expression.addr, metadata !5424, metadata !DIExpression()), !dbg !5425
  store %"class.xalanc_1_10::PrefixResolver"* %resolver, %"class.xalanc_1_10::PrefixResolver"** %resolver.addr, align 8
  call void @llvm.dbg.declare(metadata %"class.xalanc_1_10::PrefixResolver"** %resolver.addr, metadata !5426, metadata !DIExpression()), !dbg !5427
  store %"class.xercesc_2_7::Locator"* %locator, %"class.xercesc_2_7::Locator"** %locator.addr, align 8
  call void @llvm.dbg.declare(metadata %"class.xercesc_2_7::Locator"** %locator.addr, metadata !5428, metadata !DIExpression()), !dbg !5429
  %frombool = zext i1 %allowVariableReferences to i8
  store i8 %frombool, i8* %allowVariableReferences.addr, align 1
  call void @llvm.dbg.declare(metadata i8* %allowVariableReferences.addr, metadata !5430, metadata !DIExpression()), !dbg !5431
  %frombool1 = zext i1 %allowKeyFunction to i8
  store i8 %frombool1, i8* %allowKeyFunction.addr, align 1
  call void @llvm.dbg.declare(metadata i8* %allowKeyFunction.addr, metadata !5432, metadata !DIExpression()), !dbg !5433
  %this2 = load %"class.xalanc_1_10::XPathProcessorImpl"*, %"class.xalanc_1_10::XPathProcessorImpl"** %this.addr, align 8
  %m_isMatchPattern = getelementptr inbounds %"class.xalanc_1_10::XPathProcessorImpl", %"class.xalanc_1_10::XPathProcessorImpl"* %this2, i32 0, i32 9, !dbg !5434
  store i8 0, i8* %m_isMatchPattern, align 1, !dbg !5435
  %m_requireLiterals = getelementptr inbounds %"class.xalanc_1_10::XPathProcessorImpl", %"class.xalanc_1_10::XPathProcessorImpl"* %this2, i32 0, i32 8, !dbg !5436
  store i8 0, i8* %m_requireLiterals, align 8, !dbg !5437
  %0 = load i8, i8* %allowVariableReferences.addr, align 1, !dbg !5438
  %tobool = trunc i8 %0 to i1, !dbg !5438
  %m_allowVariableReferences = getelementptr inbounds %"class.xalanc_1_10::XPathProcessorImpl", %"class.xalanc_1_10::XPathProcessorImpl"* %this2, i32 0, i32 14, !dbg !5439
  %frombool3 = zext i1 %tobool to i8, !dbg !5440
  store i8 %frombool3, i8* %m_allowVariableReferences, align 8, !dbg !5440
  %1 = load i8, i8* %allowKeyFunction.addr, align 1, !dbg !5441
  %tobool4 = trunc i8 %1 to i1, !dbg !5441
  %m_allowKeyFunction = getelementptr inbounds %"class.xalanc_1_10::XPathProcessorImpl", %"class.xalanc_1_10::XPathProcessorImpl"* %this2, i32 0, i32 15, !dbg !5442
  %frombool5 = zext i1 %tobool4 to i8, !dbg !5443
  store i8 %frombool5, i8* %m_allowKeyFunction, align 1, !dbg !5443
  %2 = load %"class.xalanc_1_10::XPath"*, %"class.xalanc_1_10::XPath"** %pathObj.addr, align 8, !dbg !5444
  %m_xpath = getelementptr inbounds %"class.xalanc_1_10::XPathProcessorImpl", %"class.xalanc_1_10::XPathProcessorImpl"* %this2, i32 0, i32 4, !dbg !5445
  store %"class.xalanc_1_10::XPath"* %2, %"class.xalanc_1_10::XPath"** %m_xpath, align 8, !dbg !5446
  %3 = load %"class.xalanc_1_10::XPathConstructionContext"*, %"class.xalanc_1_10::XPathConstructionContext"** %constructionContext.addr, align 8, !dbg !5447
  %m_constructionContext = getelementptr inbounds %"class.xalanc_1_10::XPathProcessorImpl", %"class.xalanc_1_10::XPathProcessorImpl"* %this2, i32 0, i32 5, !dbg !5448
  store %"class.xalanc_1_10::XPathConstructionContext"* %3, %"class.xalanc_1_10::XPathConstructionContext"** %m_constructionContext, align 8, !dbg !5449
  %m_xpath6 = getelementptr inbounds %"class.xalanc_1_10::XPathProcessorImpl", %"class.xalanc_1_10::XPathProcessorImpl"* %this2, i32 0, i32 4, !dbg !5450
  %4 = load %"class.xalanc_1_10::XPath"*, %"class.xalanc_1_10::XPath"** %m_xpath6, align 8, !dbg !5450
  %call = call dereferenceable(120) %"class.xalanc_1_10::XPathExpression"* @_ZN11xalanc_1_105XPath13getExpressionEv(%"class.xalanc_1_10::XPath"* %4), !dbg !5451
  %m_expression = getelementptr inbounds %"class.xalanc_1_10::XPathProcessorImpl", %"class.xalanc_1_10::XPathProcessorImpl"* %this2, i32 0, i32 6, !dbg !5452
  store %"class.xalanc_1_10::XPathExpression"* %call, %"class.xalanc_1_10::XPathExpression"** %m_expression, align 8, !dbg !5453
  %5 = load %"class.xalanc_1_10::PrefixResolver"*, %"class.xalanc_1_10::PrefixResolver"** %resolver.addr, align 8, !dbg !5454
  %m_prefixResolver = getelementptr inbounds %"class.xalanc_1_10::XPathProcessorImpl", %"class.xalanc_1_10::XPathProcessorImpl"* %this2, i32 0, i32 7, !dbg !5455
  store %"class.xalanc_1_10::PrefixResolver"* %5, %"class.xalanc_1_10::PrefixResolver"** %m_prefixResolver, align 8, !dbg !5456
  %6 = load %"class.xercesc_2_7::Locator"*, %"class.xercesc_2_7::Locator"** %locator.addr, align 8, !dbg !5457
  %m_locator = getelementptr inbounds %"class.xalanc_1_10::XPathProcessorImpl", %"class.xalanc_1_10::XPathProcessorImpl"* %this2, i32 0, i32 11, !dbg !5458
  store %"class.xercesc_2_7::Locator"* %6, %"class.xercesc_2_7::Locator"** %m_locator, align 8, !dbg !5459
  %m_expression7 = getelementptr inbounds %"class.xalanc_1_10::XPathProcessorImpl", %"class.xalanc_1_10::XPathProcessorImpl"* %this2, i32 0, i32 6, !dbg !5460
  %7 = load %"class.xalanc_1_10::XPathExpression"*, %"class.xalanc_1_10::XPathExpression"** %m_expression7, align 8, !dbg !5460
  call void @_ZN11xalanc_1_1015XPathExpression5resetEv(%"class.xalanc_1_10::XPathExpression"* %7), !dbg !5461
  %8 = load %"class.xalanc_1_10::XalanDOMString"*, %"class.xalanc_1_10::XalanDOMString"** %expression.addr, align 8, !dbg !5462
  call void @_ZN11xalanc_1_1018XPathProcessorImpl8tokenizeERKNS_14XalanDOMStringE(%"class.xalanc_1_10::XPathProcessorImpl"* %this2, %"class.xalanc_1_10::XalanDOMString"* dereferenceable(40) %8), !dbg !5463
  %m_expression8 = getelementptr inbounds %"class.xalanc_1_10::XPathProcessorImpl", %"class.xalanc_1_10::XPathProcessorImpl"* %this2, i32 0, i32 6, !dbg !5464
  %9 = load %"class.xalanc_1_10::XPathExpression"*, %"class.xalanc_1_10::XPathExpression"** %m_expression8, align 8, !dbg !5464
  %call9 = call i32 @_ZN11xalanc_1_1015XPathExpression12appendOpCodeENS0_8eOpCodesE(%"class.xalanc_1_10::XPathExpression"* %9, i32 1), !dbg !5465
  %call10 = call zeroext i1 @_ZN11xalanc_1_1018XPathProcessorImpl9nextTokenEv(%"class.xalanc_1_10::XPathProcessorImpl"* %this2), !dbg !5466
  call void @_ZN11xalanc_1_1018XPathProcessorImpl4ExprEv(%"class.xalanc_1_10::XPathProcessorImpl"* %this2), !dbg !5467
  %m_token = getelementptr inbounds %"class.xalanc_1_10::XPathProcessorImpl", %"class.xalanc_1_10::XPathProcessorImpl"* %this2, i32 0, i32 1, !dbg !5468
  %call11 = call i32 @_ZN11xalanc_1_106lengthERKNS_14XalanDOMStringE(%"class.xalanc_1_10::XalanDOMString"* dereferenceable(40) %m_token), !dbg !5470
  %cmp = icmp ne i32 %call11, 0, !dbg !5471
  br i1 %cmp, label %if.then, label %if.end, !dbg !5472

if.then:                                          ; preds = %entry
  call void @_ZNK11xalanc_1_1018XPathProcessorImpl5errorENS_13XalanMessages5CodesE(%"class.xalanc_1_10::XPathProcessorImpl"* %this2, i32 22), !dbg !5473
  br label %if.end, !dbg !5475

if.end:                                           ; preds = %if.then, %entry
  %m_xpath12 = getelementptr inbounds %"class.xalanc_1_10::XPathProcessorImpl", %"class.xalanc_1_10::XPathProcessorImpl"* %this2, i32 0, i32 4, !dbg !5476
  store %"class.xalanc_1_10::XPath"* null, %"class.xalanc_1_10::XPath"** %m_xpath12, align 8, !dbg !5477
  %m_constructionContext13 = getelementptr inbounds %"class.xalanc_1_10::XPathProcessorImpl", %"class.xalanc_1_10::XPathProcessorImpl"* %this2, i32 0, i32 5, !dbg !5478
  store %"class.xalanc_1_10::XPathConstructionContext"* null, %"class.xalanc_1_10::XPathConstructionContext"** %m_constructionContext13, align 8, !dbg !5479
  %m_expression14 = getelementptr inbounds %"class.xalanc_1_10::XPathProcessorImpl", %"class.xalanc_1_10::XPathProcessorImpl"* %this2, i32 0, i32 6, !dbg !5480
  store %"class.xalanc_1_10::XPathExpression"* null, %"class.xalanc_1_10::XPathExpression"** %m_expression14, align 8, !dbg !5481
  %m_prefixResolver15 = getelementptr inbounds %"class.xalanc_1_10::XPathProcessorImpl", %"class.xalanc_1_10::XPathProcessorImpl"* %this2, i32 0, i32 7, !dbg !5482
  store %"class.xalanc_1_10::PrefixResolver"* null, %"class.xalanc_1_10::PrefixResolver"** %m_prefixResolver15, align 8, !dbg !5483
  %m_locator16 = getelementptr inbounds %"class.xalanc_1_10::XPathProcessorImpl", %"class.xalanc_1_10::XPathProcessorImpl"* %this2, i32 0, i32 11, !dbg !5484
  store %"class.xercesc_2_7::Locator"* null, %"class.xercesc_2_7::Locator"** %m_locator16, align 8, !dbg !5485
  %m_positionPredicateStack = getelementptr inbounds %"class.xalanc_1_10::XPathProcessorImpl", %"class.xalanc_1_10::XPathProcessorImpl"* %this2, i32 0, i32 12, !dbg !5486
  call void @_ZN11xalanc_1_1011XalanVectorIbNS_31MemoryManagedConstructionTraitsIbEEE5clearEv(%"class.xalanc_1_10::XalanVector.3"* %m_positionPredicateStack), !dbg !5487
  %m_namespaces = getelementptr inbounds %"class.xalanc_1_10::XPathProcessorImpl", %"class.xalanc_1_10::XPathProcessorImpl"* %this2, i32 0, i32 13, !dbg !5488
  call void @_ZN11xalanc_1_108XalanMapINS_14XalanDOMStringEPKS1_NS_17XalanMapKeyTraitsIS1_EEE5clearEv(%"class.xalanc_1_10::XalanMap"* %m_namespaces), !dbg !5489
  ret void, !dbg !5490
}

; Function Attrs: noinline nounwind uwtable
define linkonce_odr dso_local dereferenceable(120) %"class.xalanc_1_10::XPathExpression"* @_ZN11xalanc_1_105XPath13getExpressionEv(%"class.xalanc_1_10::XPath"* %this) #3 comdat align 2 !dbg !5491 {
entry:
  %this.addr = alloca %"class.xalanc_1_10::XPath"*, align 8
  store %"class.xalanc_1_10::XPath"* %this, %"class.xalanc_1_10::XPath"** %this.addr, align 8
  call void @llvm.dbg.declare(metadata %"class.xalanc_1_10::XPath"** %this.addr, metadata !5492, metadata !DIExpression()), !dbg !5493
  %this1 = load %"class.xalanc_1_10::XPath"*, %"class.xalanc_1_10::XPath"** %this.addr, align 8
  %m_expression = getelementptr inbounds %"class.xalanc_1_10::XPath", %"class.xalanc_1_10::XPath"* %this1, i32 0, i32 0, !dbg !5494
  ret %"class.xalanc_1_10::XPathExpression"* %m_expression, !dbg !5495
}

declare dso_local void @_ZN11xalanc_1_1015XPathExpression5resetEv(%"class.xalanc_1_10::XPathExpression"*) #2

; Function Attrs: noinline uwtable
define dso_local void @_ZN11xalanc_1_1018XPathProcessorImpl8tokenizeERKNS_14XalanDOMStringE(%"class.xalanc_1_10::XPathProcessorImpl"* %this, %"class.xalanc_1_10::XalanDOMString"* dereferenceable(40) %pat) #0 align 2 personality i8* bitcast (i32 (...)* @__gxx_personality_v0 to i8*) !dbg !5496 {
entry:
  %this.addr = alloca %"class.xalanc_1_10::XPathProcessorImpl"*, align 8
  %pat.addr = alloca %"class.xalanc_1_10::XalanDOMString"*, align 8
  %nChars = alloca i32, align 4
  %startSubstring = alloca i32, align 4
  %posOfNSSep = alloca i32, align 4
  %theGuard = alloca %"class.xalanc_1_10::XPathConstructionContext::GetAndReleaseCachedString", align 8
  %theToken = alloca %"class.xalanc_1_10::XalanDOMString"*, align 8
  %exn.slot = alloca i8*
  %ehselector.slot = alloca i32
  %i = alloca i32, align 4
  %c = alloca i16, align 2
  %gotFullStop = alloca i8, align 1
  %currentChar = alloca i16, align 2
  store %"class.xalanc_1_10::XPathProcessorImpl"* %this, %"class.xalanc_1_10::XPathProcessorImpl"** %this.addr, align 8
  call void @llvm.dbg.declare(metadata %"class.xalanc_1_10::XPathProcessorImpl"** %this.addr, metadata !5497, metadata !DIExpression()), !dbg !5498
  store %"class.xalanc_1_10::XalanDOMString"* %pat, %"class.xalanc_1_10::XalanDOMString"** %pat.addr, align 8
  call void @llvm.dbg.declare(metadata %"class.xalanc_1_10::XalanDOMString"** %pat.addr, metadata !5499, metadata !DIExpression()), !dbg !5500
  %this1 = load %"class.xalanc_1_10::XPathProcessorImpl"*, %"class.xalanc_1_10::XPathProcessorImpl"** %this.addr, align 8
  %m_expression = getelementptr inbounds %"class.xalanc_1_10::XPathProcessorImpl", %"class.xalanc_1_10::XPathProcessorImpl"* %this1, i32 0, i32 6, !dbg !5501
  %0 = load %"class.xalanc_1_10::XPathExpression"*, %"class.xalanc_1_10::XPathExpression"** %m_expression, align 8, !dbg !5501
  %m_constructionContext = getelementptr inbounds %"class.xalanc_1_10::XPathProcessorImpl", %"class.xalanc_1_10::XPathProcessorImpl"* %this1, i32 0, i32 5, !dbg !5502
  %1 = load %"class.xalanc_1_10::XPathConstructionContext"*, %"class.xalanc_1_10::XPathConstructionContext"** %m_constructionContext, align 8, !dbg !5502
  %2 = load %"class.xalanc_1_10::XalanDOMString"*, %"class.xalanc_1_10::XalanDOMString"** %pat.addr, align 8, !dbg !5503
  %3 = bitcast %"class.xalanc_1_10::XPathConstructionContext"* %1 to %"class.xalanc_1_10::XalanDOMString"* (%"class.xalanc_1_10::XPathConstructionContext"*, %"class.xalanc_1_10::XalanDOMString"*)***, !dbg !5504
  %vtable = load %"class.xalanc_1_10::XalanDOMString"* (%"class.xalanc_1_10::XPathConstructionContext"*, %"class.xalanc_1_10::XalanDOMString"*)**, %"class.xalanc_1_10::XalanDOMString"* (%"class.xalanc_1_10::XPathConstructionContext"*, %"class.xalanc_1_10::XalanDOMString"*)*** %3, align 8, !dbg !5504
  %vfn = getelementptr inbounds %"class.xalanc_1_10::XalanDOMString"* (%"class.xalanc_1_10::XPathConstructionContext"*, %"class.xalanc_1_10::XalanDOMString"*)*, %"class.xalanc_1_10::XalanDOMString"* (%"class.xalanc_1_10::XPathConstructionContext"*, %"class.xalanc_1_10::XalanDOMString"*)** %vtable, i64 3, !dbg !5504
  %4 = load %"class.xalanc_1_10::XalanDOMString"* (%"class.xalanc_1_10::XPathConstructionContext"*, %"class.xalanc_1_10::XalanDOMString"*)*, %"class.xalanc_1_10::XalanDOMString"* (%"class.xalanc_1_10::XPathConstructionContext"*, %"class.xalanc_1_10::XalanDOMString"*)** %vfn, align 8, !dbg !5504
  %call = call dereferenceable(40) %"class.xalanc_1_10::XalanDOMString"* %4(%"class.xalanc_1_10::XPathConstructionContext"* %1, %"class.xalanc_1_10::XalanDOMString"* dereferenceable(40) %2), !dbg !5504
  call void @_ZN11xalanc_1_1015XPathExpression17setCurrentPatternERKNS_14XalanDOMStringE(%"class.xalanc_1_10::XPathExpression"* %0, %"class.xalanc_1_10::XalanDOMString"* dereferenceable(40) %call), !dbg !5505
  call void @llvm.dbg.declare(metadata i32* %nChars, metadata !5506, metadata !DIExpression()), !dbg !5508
  %5 = load %"class.xalanc_1_10::XalanDOMString"*, %"class.xalanc_1_10::XalanDOMString"** %pat.addr, align 8, !dbg !5509
  %call2 = call i32 @_ZN11xalanc_1_106lengthERKNS_14XalanDOMStringE(%"class.xalanc_1_10::XalanDOMString"* dereferenceable(40) %5), !dbg !5510
  store i32 %call2, i32* %nChars, align 4, !dbg !5508
  call void @llvm.dbg.declare(metadata i32* %startSubstring, metadata !5511, metadata !DIExpression()), !dbg !5512
  store i32 -1, i32* %startSubstring, align 4, !dbg !5512
  call void @llvm.dbg.declare(metadata i32* %posOfNSSep, metadata !5513, metadata !DIExpression()), !dbg !5514
  store i32 -1, i32* %posOfNSSep, align 4, !dbg !5514
  call void @llvm.dbg.declare(metadata %"class.xalanc_1_10::XPathConstructionContext::GetAndReleaseCachedString"* %theGuard, metadata !5515, metadata !DIExpression()), !dbg !5543
  %m_constructionContext3 = getelementptr inbounds %"class.xalanc_1_10::XPathProcessorImpl", %"class.xalanc_1_10::XPathProcessorImpl"* %this1, i32 0, i32 5, !dbg !5544
  %6 = load %"class.xalanc_1_10::XPathConstructionContext"*, %"class.xalanc_1_10::XPathConstructionContext"** %m_constructionContext3, align 8, !dbg !5544
  call void @_ZN11xalanc_1_1024XPathConstructionContext25GetAndReleaseCachedStringC2ERS0_(%"class.xalanc_1_10::XPathConstructionContext::GetAndReleaseCachedString"* %theGuard, %"class.xalanc_1_10::XPathConstructionContext"* dereferenceable(16) %6), !dbg !5543
  call void @llvm.dbg.declare(metadata %"class.xalanc_1_10::XalanDOMString"** %theToken, metadata !5545, metadata !DIExpression()), !dbg !5546
  %call4 = invoke dereferenceable(40) %"class.xalanc_1_10::XalanDOMString"* @_ZNK11xalanc_1_1024XPathConstructionContext25GetAndReleaseCachedString3getEv(%"class.xalanc_1_10::XPathConstructionContext::GetAndReleaseCachedString"* %theGuard)
          to label %invoke.cont unwind label %lpad, !dbg !5547

invoke.cont:                                      ; preds = %entry
  store %"class.xalanc_1_10::XalanDOMString"* %call4, %"class.xalanc_1_10::XalanDOMString"** %theToken, align 8, !dbg !5546
  call void @llvm.dbg.declare(metadata i32* %i, metadata !5548, metadata !DIExpression()), !dbg !5550
  store i32 0, i32* %i, align 4, !dbg !5550
  br label %for.cond, !dbg !5551

for.cond:                                         ; preds = %for.inc154, %invoke.cont
  %7 = load i32, i32* %i, align 4, !dbg !5552
  %8 = load i32, i32* %nChars, align 4, !dbg !5554
  %cmp = icmp slt i32 %7, %8, !dbg !5555
  br i1 %cmp, label %for.body, label %for.end156, !dbg !5556

for.body:                                         ; preds = %for.cond
  call void @llvm.dbg.declare(metadata i16* %c, metadata !5557, metadata !DIExpression()), !dbg !5559
  %9 = load %"class.xalanc_1_10::XalanDOMString"*, %"class.xalanc_1_10::XalanDOMString"** %pat.addr, align 8, !dbg !5560
  %10 = load i32, i32* %i, align 4, !dbg !5561
  %call6 = invoke zeroext i16 @_ZN11xalanc_1_106charAtERKNS_14XalanDOMStringEj(%"class.xalanc_1_10::XalanDOMString"* dereferenceable(40) %9, i32 %10)
          to label %invoke.cont5 unwind label %lpad, !dbg !5562

invoke.cont5:                                     ; preds = %for.body
  store i16 %call6, i16* %c, align 2, !dbg !5559
  %11 = load i16, i16* %c, align 2, !dbg !5563
  %conv = zext i16 %11 to i32, !dbg !5563
  switch i32 %conv, label %sw.default [
    i32 34, label %sw.bb
    i32 39, label %sw.bb32
    i32 10, label %sw.bb68
    i32 13, label %sw.bb68
    i32 32, label %sw.bb68
    i32 9, label %sw.bb68
    i32 45, label %sw.bb80
    i32 64, label %sw.bb84
    i32 40, label %sw.bb84
    i32 91, label %sw.bb84
    i32 41, label %sw.bb84
    i32 93, label %sw.bb84
    i32 124, label %sw.bb84
    i32 47, label %sw.bb84
    i32 42, label %sw.bb84
    i32 43, label %sw.bb84
    i32 61, label %sw.bb84
    i32 44, label %sw.bb84
    i32 92, label %sw.bb84
    i32 94, label %sw.bb84
    i32 33, label %sw.bb84
    i32 36, label %sw.bb84
    i32 60, label %sw.bb84
    i32 62, label %sw.bb84
    i32 58, label %sw.bb99
  ], !dbg !5564

lpad:                                             ; preds = %if.end174, %if.then172, %if.end167, %invoke.cont164, %if.else163, %if.then160, %invoke.cont150, %while.end, %if.else140, %while.body, %if.then121, %invoke.cont116, %if.end113, %invoke.cont110, %if.then108, %invoke.cont97, %if.end95, %invoke.cont92, %if.else91, %if.then88, %invoke.cont76, %if.else75, %if.then72, %if.else65, %invoke.cont63, %if.then61, %land.rhs47, %invoke.cont40, %if.else39, %if.then36, %if.else29, %invoke.cont27, %if.then26, %land.rhs, %invoke.cont12, %if.else, %if.then9, %for.body, %entry
  %12 = landingpad { i8*, i32 }
          cleanup, !dbg !5565
  %13 = extractvalue { i8*, i32 } %12, 0, !dbg !5565
  store i8* %13, i8** %exn.slot, align 8, !dbg !5565
  %14 = extractvalue { i8*, i32 } %12, 1, !dbg !5565
  store i32 %14, i32* %ehselector.slot, align 4, !dbg !5565
  call void @_ZN11xalanc_1_1024XPathConstructionContext25GetAndReleaseCachedStringD2Ev(%"class.xalanc_1_10::XPathConstructionContext::GetAndReleaseCachedString"* %theGuard) #6, !dbg !5565
  br label %eh.resume, !dbg !5565

sw.bb:                                            ; preds = %invoke.cont5
  %15 = load i32, i32* %startSubstring, align 4, !dbg !5566
  %cmp7 = icmp ne i32 %15, -1, !dbg !5570
  br i1 %cmp7, label %if.then, label %if.end14, !dbg !5571

if.then:                                          ; preds = %sw.bb
  %16 = load i32, i32* %posOfNSSep, align 4, !dbg !5572
  %cmp8 = icmp ne i32 -1, %16, !dbg !5575
  br i1 %cmp8, label %if.then9, label %if.else, !dbg !5576

if.then9:                                         ; preds = %if.then
  %17 = load %"class.xalanc_1_10::XalanDOMString"*, %"class.xalanc_1_10::XalanDOMString"** %pat.addr, align 8, !dbg !5577
  %18 = load i32, i32* %startSubstring, align 4, !dbg !5579
  %19 = load i32, i32* %posOfNSSep, align 4, !dbg !5580
  %20 = load i32, i32* %i, align 4, !dbg !5581
  %call11 = invoke i32 @_ZN11xalanc_1_1018XPathProcessorImpl11mapNSTokensERKNS_14XalanDOMStringEiii(%"class.xalanc_1_10::XPathProcessorImpl"* %this1, %"class.xalanc_1_10::XalanDOMString"* dereferenceable(40) %17, i32 %18, i32 %19, i32 %20)
          to label %invoke.cont10 unwind label %lpad, !dbg !5582

invoke.cont10:                                    ; preds = %if.then9
  store i32 %call11, i32* %posOfNSSep, align 4, !dbg !5583
  br label %if.end, !dbg !5584

if.else:                                          ; preds = %if.then
  %21 = load %"class.xalanc_1_10::XalanDOMString"*, %"class.xalanc_1_10::XalanDOMString"** %pat.addr, align 8, !dbg !5585
  %22 = load %"class.xalanc_1_10::XalanDOMString"*, %"class.xalanc_1_10::XalanDOMString"** %theToken, align 8, !dbg !5587
  %23 = load i32, i32* %startSubstring, align 4, !dbg !5588
  %24 = load i32, i32* %i, align 4, !dbg !5589
  invoke void @_ZN11xalanc_1_109substringERKNS_14XalanDOMStringERS0_jj(%"class.xalanc_1_10::XalanDOMString"* dereferenceable(40) %21, %"class.xalanc_1_10::XalanDOMString"* dereferenceable(40) %22, i32 %23, i32 %24)
          to label %invoke.cont12 unwind label %lpad, !dbg !5590

invoke.cont12:                                    ; preds = %if.else
  %25 = load %"class.xalanc_1_10::XalanDOMString"*, %"class.xalanc_1_10::XalanDOMString"** %theToken, align 8, !dbg !5591
  invoke void @_ZNK11xalanc_1_1018XPathProcessorImpl15addToTokenQueueERKNS_14XalanDOMStringE(%"class.xalanc_1_10::XPathProcessorImpl"* %this1, %"class.xalanc_1_10::XalanDOMString"* dereferenceable(40) %25)
          to label %invoke.cont13 unwind label %lpad, !dbg !5592

invoke.cont13:                                    ; preds = %invoke.cont12
  br label %if.end

if.end:                                           ; preds = %invoke.cont13, %invoke.cont10
  br label %if.end14, !dbg !5593

if.end14:                                         ; preds = %if.end, %sw.bb
  %26 = load i32, i32* %i, align 4, !dbg !5594
  store i32 %26, i32* %startSubstring, align 4, !dbg !5595
  %27 = load i32, i32* %i, align 4, !dbg !5596
  %inc = add nsw i32 %27, 1, !dbg !5596
  store i32 %inc, i32* %i, align 4, !dbg !5596
  br label %for.cond15, !dbg !5596

for.cond15:                                       ; preds = %for.inc, %if.end14
  %28 = load i32, i32* %i, align 4, !dbg !5598
  %29 = load i32, i32* %nChars, align 4, !dbg !5600
  %cmp16 = icmp slt i32 %28, %29, !dbg !5601
  br i1 %cmp16, label %land.rhs, label %land.end, !dbg !5602

land.rhs:                                         ; preds = %for.cond15
  %30 = load %"class.xalanc_1_10::XalanDOMString"*, %"class.xalanc_1_10::XalanDOMString"** %pat.addr, align 8, !dbg !5603
  %31 = load i32, i32* %i, align 4, !dbg !5604
  %call18 = invoke zeroext i16 @_ZN11xalanc_1_106charAtERKNS_14XalanDOMStringEj(%"class.xalanc_1_10::XalanDOMString"* dereferenceable(40) %30, i32 %31)
          to label %invoke.cont17 unwind label %lpad, !dbg !5605

invoke.cont17:                                    ; preds = %land.rhs
  store i16 %call18, i16* %c, align 2, !dbg !5606
  %conv19 = zext i16 %call18 to i32, !dbg !5607
  %cmp20 = icmp ne i32 %conv19, 34, !dbg !5608
  br label %land.end

land.end:                                         ; preds = %invoke.cont17, %for.cond15
  %32 = phi i1 [ false, %for.cond15 ], [ %cmp20, %invoke.cont17 ], !dbg !5609
  br i1 %32, label %for.body21, label %for.end, !dbg !5610

for.body21:                                       ; preds = %land.end
  br label %for.inc, !dbg !5610

for.inc:                                          ; preds = %for.body21
  %33 = load i32, i32* %i, align 4, !dbg !5611
  %inc22 = add nsw i32 %33, 1, !dbg !5611
  store i32 %inc22, i32* %i, align 4, !dbg !5611
  br label %for.cond15, !dbg !5612, !llvm.loop !5613

for.end:                                          ; preds = %land.end
  %34 = load i16, i16* %c, align 2, !dbg !5615
  %conv23 = zext i16 %34 to i32, !dbg !5615
  %cmp24 = icmp eq i32 %conv23, 34, !dbg !5617
  br i1 %cmp24, label %land.lhs.true, label %if.else29, !dbg !5618

land.lhs.true:                                    ; preds = %for.end
  %35 = load i32, i32* %i, align 4, !dbg !5619
  %36 = load i32, i32* %nChars, align 4, !dbg !5620
  %cmp25 = icmp slt i32 %35, %36, !dbg !5621
  br i1 %cmp25, label %if.then26, label %if.else29, !dbg !5622

if.then26:                                        ; preds = %land.lhs.true
  %37 = load %"class.xalanc_1_10::XalanDOMString"*, %"class.xalanc_1_10::XalanDOMString"** %pat.addr, align 8, !dbg !5623
  %38 = load %"class.xalanc_1_10::XalanDOMString"*, %"class.xalanc_1_10::XalanDOMString"** %theToken, align 8, !dbg !5625
  %39 = load i32, i32* %startSubstring, align 4, !dbg !5626
  %40 = load i32, i32* %i, align 4, !dbg !5627
  %add = add nsw i32 %40, 1, !dbg !5628
  invoke void @_ZN11xalanc_1_109substringERKNS_14XalanDOMStringERS0_jj(%"class.xalanc_1_10::XalanDOMString"* dereferenceable(40) %37, %"class.xalanc_1_10::XalanDOMString"* dereferenceable(40) %38, i32 %39, i32 %add)
          to label %invoke.cont27 unwind label %lpad, !dbg !5629

invoke.cont27:                                    ; preds = %if.then26
  %41 = load %"class.xalanc_1_10::XalanDOMString"*, %"class.xalanc_1_10::XalanDOMString"** %theToken, align 8, !dbg !5630
  invoke void @_ZNK11xalanc_1_1018XPathProcessorImpl15addToTokenQueueERKNS_14XalanDOMStringE(%"class.xalanc_1_10::XPathProcessorImpl"* %this1, %"class.xalanc_1_10::XalanDOMString"* dereferenceable(40) %41)
          to label %invoke.cont28 unwind label %lpad, !dbg !5631

invoke.cont28:                                    ; preds = %invoke.cont27
  store i32 -1, i32* %startSubstring, align 4, !dbg !5632
  br label %if.end31, !dbg !5633

if.else29:                                        ; preds = %land.lhs.true, %for.end
  invoke void @_ZNK11xalanc_1_1018XPathProcessorImpl5errorENS_13XalanMessages5CodesE(%"class.xalanc_1_10::XPathProcessorImpl"* %this1, i32 23)
          to label %invoke.cont30 unwind label %lpad, !dbg !5634

invoke.cont30:                                    ; preds = %if.else29
  br label %if.end31

if.end31:                                         ; preds = %invoke.cont30, %invoke.cont28
  br label %sw.epilog, !dbg !5636

sw.bb32:                                          ; preds = %invoke.cont5
  %42 = load i32, i32* %startSubstring, align 4, !dbg !5637
  %cmp33 = icmp ne i32 %42, -1, !dbg !5640
  br i1 %cmp33, label %if.then34, label %if.end43, !dbg !5641

if.then34:                                        ; preds = %sw.bb32
  %43 = load i32, i32* %posOfNSSep, align 4, !dbg !5642
  %cmp35 = icmp ne i32 -1, %43, !dbg !5645
  br i1 %cmp35, label %if.then36, label %if.else39, !dbg !5646

if.then36:                                        ; preds = %if.then34
  %44 = load %"class.xalanc_1_10::XalanDOMString"*, %"class.xalanc_1_10::XalanDOMString"** %pat.addr, align 8, !dbg !5647
  %45 = load i32, i32* %startSubstring, align 4, !dbg !5649
  %46 = load i32, i32* %posOfNSSep, align 4, !dbg !5650
  %47 = load i32, i32* %i, align 4, !dbg !5651
  %call38 = invoke i32 @_ZN11xalanc_1_1018XPathProcessorImpl11mapNSTokensERKNS_14XalanDOMStringEiii(%"class.xalanc_1_10::XPathProcessorImpl"* %this1, %"class.xalanc_1_10::XalanDOMString"* dereferenceable(40) %44, i32 %45, i32 %46, i32 %47)
          to label %invoke.cont37 unwind label %lpad, !dbg !5652

invoke.cont37:                                    ; preds = %if.then36
  store i32 %call38, i32* %posOfNSSep, align 4, !dbg !5653
  br label %if.end42, !dbg !5654

if.else39:                                        ; preds = %if.then34
  %48 = load %"class.xalanc_1_10::XalanDOMString"*, %"class.xalanc_1_10::XalanDOMString"** %pat.addr, align 8, !dbg !5655
  %49 = load %"class.xalanc_1_10::XalanDOMString"*, %"class.xalanc_1_10::XalanDOMString"** %theToken, align 8, !dbg !5657
  %50 = load i32, i32* %startSubstring, align 4, !dbg !5658
  %51 = load i32, i32* %i, align 4, !dbg !5659
  invoke void @_ZN11xalanc_1_109substringERKNS_14XalanDOMStringERS0_jj(%"class.xalanc_1_10::XalanDOMString"* dereferenceable(40) %48, %"class.xalanc_1_10::XalanDOMString"* dereferenceable(40) %49, i32 %50, i32 %51)
          to label %invoke.cont40 unwind label %lpad, !dbg !5660

invoke.cont40:                                    ; preds = %if.else39
  %52 = load %"class.xalanc_1_10::XalanDOMString"*, %"class.xalanc_1_10::XalanDOMString"** %theToken, align 8, !dbg !5661
  invoke void @_ZNK11xalanc_1_1018XPathProcessorImpl15addToTokenQueueERKNS_14XalanDOMStringE(%"class.xalanc_1_10::XPathProcessorImpl"* %this1, %"class.xalanc_1_10::XalanDOMString"* dereferenceable(40) %52)
          to label %invoke.cont41 unwind label %lpad, !dbg !5662

invoke.cont41:                                    ; preds = %invoke.cont40
  br label %if.end42

if.end42:                                         ; preds = %invoke.cont41, %invoke.cont37
  br label %if.end43, !dbg !5663

if.end43:                                         ; preds = %if.end42, %sw.bb32
  %53 = load i32, i32* %i, align 4, !dbg !5664
  store i32 %53, i32* %startSubstring, align 4, !dbg !5665
  %54 = load i32, i32* %i, align 4, !dbg !5666
  %inc44 = add nsw i32 %54, 1, !dbg !5666
  store i32 %inc44, i32* %i, align 4, !dbg !5666
  br label %for.cond45, !dbg !5666

for.cond45:                                       ; preds = %for.inc54, %if.end43
  %55 = load i32, i32* %i, align 4, !dbg !5668
  %56 = load i32, i32* %nChars, align 4, !dbg !5670
  %cmp46 = icmp slt i32 %55, %56, !dbg !5671
  br i1 %cmp46, label %land.rhs47, label %land.end52, !dbg !5672

land.rhs47:                                       ; preds = %for.cond45
  %57 = load %"class.xalanc_1_10::XalanDOMString"*, %"class.xalanc_1_10::XalanDOMString"** %pat.addr, align 8, !dbg !5673
  %58 = load i32, i32* %i, align 4, !dbg !5674
  %call49 = invoke zeroext i16 @_ZN11xalanc_1_106charAtERKNS_14XalanDOMStringEj(%"class.xalanc_1_10::XalanDOMString"* dereferenceable(40) %57, i32 %58)
          to label %invoke.cont48 unwind label %lpad, !dbg !5675

invoke.cont48:                                    ; preds = %land.rhs47
  store i16 %call49, i16* %c, align 2, !dbg !5676
  %conv50 = zext i16 %call49 to i32, !dbg !5677
  %cmp51 = icmp ne i32 %conv50, 39, !dbg !5678
  br label %land.end52

land.end52:                                       ; preds = %invoke.cont48, %for.cond45
  %59 = phi i1 [ false, %for.cond45 ], [ %cmp51, %invoke.cont48 ], !dbg !5679
  br i1 %59, label %for.body53, label %for.end56, !dbg !5680

for.body53:                                       ; preds = %land.end52
  br label %for.inc54, !dbg !5680

for.inc54:                                        ; preds = %for.body53
  %60 = load i32, i32* %i, align 4, !dbg !5681
  %inc55 = add nsw i32 %60, 1, !dbg !5681
  store i32 %inc55, i32* %i, align 4, !dbg !5681
  br label %for.cond45, !dbg !5682, !llvm.loop !5683

for.end56:                                        ; preds = %land.end52
  %61 = load i16, i16* %c, align 2, !dbg !5685
  %conv57 = zext i16 %61 to i32, !dbg !5685
  %cmp58 = icmp eq i32 %conv57, 39, !dbg !5687
  br i1 %cmp58, label %land.lhs.true59, label %if.else65, !dbg !5688

land.lhs.true59:                                  ; preds = %for.end56
  %62 = load i32, i32* %i, align 4, !dbg !5689
  %63 = load i32, i32* %nChars, align 4, !dbg !5690
  %cmp60 = icmp slt i32 %62, %63, !dbg !5691
  br i1 %cmp60, label %if.then61, label %if.else65, !dbg !5692

if.then61:                                        ; preds = %land.lhs.true59
  %64 = load %"class.xalanc_1_10::XalanDOMString"*, %"class.xalanc_1_10::XalanDOMString"** %pat.addr, align 8, !dbg !5693
  %65 = load %"class.xalanc_1_10::XalanDOMString"*, %"class.xalanc_1_10::XalanDOMString"** %theToken, align 8, !dbg !5695
  %66 = load i32, i32* %startSubstring, align 4, !dbg !5696
  %67 = load i32, i32* %i, align 4, !dbg !5697
  %add62 = add nsw i32 %67, 1, !dbg !5698
  invoke void @_ZN11xalanc_1_109substringERKNS_14XalanDOMStringERS0_jj(%"class.xalanc_1_10::XalanDOMString"* dereferenceable(40) %64, %"class.xalanc_1_10::XalanDOMString"* dereferenceable(40) %65, i32 %66, i32 %add62)
          to label %invoke.cont63 unwind label %lpad, !dbg !5699

invoke.cont63:                                    ; preds = %if.then61
  %68 = load %"class.xalanc_1_10::XalanDOMString"*, %"class.xalanc_1_10::XalanDOMString"** %theToken, align 8, !dbg !5700
  invoke void @_ZNK11xalanc_1_1018XPathProcessorImpl15addToTokenQueueERKNS_14XalanDOMStringE(%"class.xalanc_1_10::XPathProcessorImpl"* %this1, %"class.xalanc_1_10::XalanDOMString"* dereferenceable(40) %68)
          to label %invoke.cont64 unwind label %lpad, !dbg !5701

invoke.cont64:                                    ; preds = %invoke.cont63
  store i32 -1, i32* %startSubstring, align 4, !dbg !5702
  br label %if.end67, !dbg !5703

if.else65:                                        ; preds = %land.lhs.true59, %for.end56
  invoke void @_ZNK11xalanc_1_1018XPathProcessorImpl5errorENS_13XalanMessages5CodesE(%"class.xalanc_1_10::XPathProcessorImpl"* %this1, i32 23)
          to label %invoke.cont66 unwind label %lpad, !dbg !5704

invoke.cont66:                                    ; preds = %if.else65
  br label %if.end67

if.end67:                                         ; preds = %invoke.cont66, %invoke.cont64
  br label %sw.epilog, !dbg !5706

sw.bb68:                                          ; preds = %invoke.cont5, %invoke.cont5, %invoke.cont5, %invoke.cont5
  %69 = load i32, i32* %startSubstring, align 4, !dbg !5707
  %cmp69 = icmp ne i32 %69, -1, !dbg !5710
  br i1 %cmp69, label %if.then70, label %if.end79, !dbg !5711

if.then70:                                        ; preds = %sw.bb68
  %70 = load i32, i32* %posOfNSSep, align 4, !dbg !5712
  %cmp71 = icmp ne i32 -1, %70, !dbg !5715
  br i1 %cmp71, label %if.then72, label %if.else75, !dbg !5716

if.then72:                                        ; preds = %if.then70
  %71 = load %"class.xalanc_1_10::XalanDOMString"*, %"class.xalanc_1_10::XalanDOMString"** %pat.addr, align 8, !dbg !5717
  %72 = load i32, i32* %startSubstring, align 4, !dbg !5719
  %73 = load i32, i32* %posOfNSSep, align 4, !dbg !5720
  %74 = load i32, i32* %i, align 4, !dbg !5721
  %call74 = invoke i32 @_ZN11xalanc_1_1018XPathProcessorImpl11mapNSTokensERKNS_14XalanDOMStringEiii(%"class.xalanc_1_10::XPathProcessorImpl"* %this1, %"class.xalanc_1_10::XalanDOMString"* dereferenceable(40) %71, i32 %72, i32 %73, i32 %74)
          to label %invoke.cont73 unwind label %lpad, !dbg !5722

invoke.cont73:                                    ; preds = %if.then72
  store i32 %call74, i32* %posOfNSSep, align 4, !dbg !5723
  br label %if.end78, !dbg !5724

if.else75:                                        ; preds = %if.then70
  %75 = load %"class.xalanc_1_10::XalanDOMString"*, %"class.xalanc_1_10::XalanDOMString"** %pat.addr, align 8, !dbg !5725
  %76 = load %"class.xalanc_1_10::XalanDOMString"*, %"class.xalanc_1_10::XalanDOMString"** %theToken, align 8, !dbg !5727
  %77 = load i32, i32* %startSubstring, align 4, !dbg !5728
  %78 = load i32, i32* %i, align 4, !dbg !5729
  invoke void @_ZN11xalanc_1_109substringERKNS_14XalanDOMStringERS0_jj(%"class.xalanc_1_10::XalanDOMString"* dereferenceable(40) %75, %"class.xalanc_1_10::XalanDOMString"* dereferenceable(40) %76, i32 %77, i32 %78)
          to label %invoke.cont76 unwind label %lpad, !dbg !5730

invoke.cont76:                                    ; preds = %if.else75
  %79 = load %"class.xalanc_1_10::XalanDOMString"*, %"class.xalanc_1_10::XalanDOMString"** %theToken, align 8, !dbg !5731
  invoke void @_ZNK11xalanc_1_1018XPathProcessorImpl15addToTokenQueueERKNS_14XalanDOMStringE(%"class.xalanc_1_10::XPathProcessorImpl"* %this1, %"class.xalanc_1_10::XalanDOMString"* dereferenceable(40) %79)
          to label %invoke.cont77 unwind label %lpad, !dbg !5732

invoke.cont77:                                    ; preds = %invoke.cont76
  br label %if.end78

if.end78:                                         ; preds = %invoke.cont77, %invoke.cont73
  store i32 -1, i32* %startSubstring, align 4, !dbg !5733
  br label %if.end79, !dbg !5734

if.end79:                                         ; preds = %if.end78, %sw.bb68
  br label %sw.epilog, !dbg !5735

sw.bb80:                                          ; preds = %invoke.cont5
  %80 = load i32, i32* %startSubstring, align 4, !dbg !5736
  %cmp81 = icmp eq i32 %80, -1, !dbg !5739
  br i1 %cmp81, label %if.end83, label %if.then82, !dbg !5740

if.then82:                                        ; preds = %sw.bb80
  br label %sw.epilog, !dbg !5741

if.end83:                                         ; preds = %sw.bb80
  br label %sw.bb84, !dbg !5743

sw.bb84:                                          ; preds = %invoke.cont5, %invoke.cont5, %invoke.cont5, %invoke.cont5, %invoke.cont5, %invoke.cont5, %invoke.cont5, %invoke.cont5, %invoke.cont5, %invoke.cont5, %invoke.cont5, %invoke.cont5, %invoke.cont5, %invoke.cont5, %invoke.cont5, %invoke.cont5, %invoke.cont5, %if.end83
  %81 = load i32, i32* %startSubstring, align 4, !dbg !5744
  %cmp85 = icmp ne i32 %81, -1, !dbg !5747
  br i1 %cmp85, label %if.then86, label %if.end95, !dbg !5748

if.then86:                                        ; preds = %sw.bb84
  %82 = load i32, i32* %posOfNSSep, align 4, !dbg !5749
  %cmp87 = icmp ne i32 -1, %82, !dbg !5752
  br i1 %cmp87, label %if.then88, label %if.else91, !dbg !5753

if.then88:                                        ; preds = %if.then86
  %83 = load %"class.xalanc_1_10::XalanDOMString"*, %"class.xalanc_1_10::XalanDOMString"** %pat.addr, align 8, !dbg !5754
  %84 = load i32, i32* %startSubstring, align 4, !dbg !5756
  %85 = load i32, i32* %posOfNSSep, align 4, !dbg !5757
  %86 = load i32, i32* %i, align 4, !dbg !5758
  %call90 = invoke i32 @_ZN11xalanc_1_1018XPathProcessorImpl11mapNSTokensERKNS_14XalanDOMStringEiii(%"class.xalanc_1_10::XPathProcessorImpl"* %this1, %"class.xalanc_1_10::XalanDOMString"* dereferenceable(40) %83, i32 %84, i32 %85, i32 %86)
          to label %invoke.cont89 unwind label %lpad, !dbg !5759

invoke.cont89:                                    ; preds = %if.then88
  store i32 %call90, i32* %posOfNSSep, align 4, !dbg !5760
  br label %if.end94, !dbg !5761

if.else91:                                        ; preds = %if.then86
  %87 = load %"class.xalanc_1_10::XalanDOMString"*, %"class.xalanc_1_10::XalanDOMString"** %pat.addr, align 8, !dbg !5762
  %88 = load %"class.xalanc_1_10::XalanDOMString"*, %"class.xalanc_1_10::XalanDOMString"** %theToken, align 8, !dbg !5764
  %89 = load i32, i32* %startSubstring, align 4, !dbg !5765
  %90 = load i32, i32* %i, align 4, !dbg !5766
  invoke void @_ZN11xalanc_1_109substringERKNS_14XalanDOMStringERS0_jj(%"class.xalanc_1_10::XalanDOMString"* dereferenceable(40) %87, %"class.xalanc_1_10::XalanDOMString"* dereferenceable(40) %88, i32 %89, i32 %90)
          to label %invoke.cont92 unwind label %lpad, !dbg !5767

invoke.cont92:                                    ; preds = %if.else91
  %91 = load %"class.xalanc_1_10::XalanDOMString"*, %"class.xalanc_1_10::XalanDOMString"** %theToken, align 8, !dbg !5768
  invoke void @_ZNK11xalanc_1_1018XPathProcessorImpl15addToTokenQueueERKNS_14XalanDOMStringE(%"class.xalanc_1_10::XPathProcessorImpl"* %this1, %"class.xalanc_1_10::XalanDOMString"* dereferenceable(40) %91)
          to label %invoke.cont93 unwind label %lpad, !dbg !5769

invoke.cont93:                                    ; preds = %invoke.cont92
  br label %if.end94

if.end94:                                         ; preds = %invoke.cont93, %invoke.cont89
  store i32 -1, i32* %startSubstring, align 4, !dbg !5770
  br label %if.end95, !dbg !5771

if.end95:                                         ; preds = %if.end94, %sw.bb84
  %92 = load %"class.xalanc_1_10::XalanDOMString"*, %"class.xalanc_1_10::XalanDOMString"** %pat.addr, align 8, !dbg !5772
  %93 = load %"class.xalanc_1_10::XalanDOMString"*, %"class.xalanc_1_10::XalanDOMString"** %theToken, align 8, !dbg !5773
  %94 = load i32, i32* %i, align 4, !dbg !5774
  %95 = load i32, i32* %i, align 4, !dbg !5775
  %add96 = add nsw i32 %95, 1, !dbg !5776
  invoke void @_ZN11xalanc_1_109substringERKNS_14XalanDOMStringERS0_jj(%"class.xalanc_1_10::XalanDOMString"* dereferenceable(40) %92, %"class.xalanc_1_10::XalanDOMString"* dereferenceable(40) %93, i32 %94, i32 %add96)
          to label %invoke.cont97 unwind label %lpad, !dbg !5777

invoke.cont97:                                    ; preds = %if.end95
  %96 = load %"class.xalanc_1_10::XalanDOMString"*, %"class.xalanc_1_10::XalanDOMString"** %theToken, align 8, !dbg !5778
  invoke void @_ZNK11xalanc_1_1018XPathProcessorImpl15addToTokenQueueERKNS_14XalanDOMStringE(%"class.xalanc_1_10::XPathProcessorImpl"* %this1, %"class.xalanc_1_10::XalanDOMString"* dereferenceable(40) %96)
          to label %invoke.cont98 unwind label %lpad, !dbg !5779

invoke.cont98:                                    ; preds = %invoke.cont97
  br label %sw.epilog, !dbg !5780

sw.bb99:                                          ; preds = %invoke.cont5
  %97 = load i32, i32* %posOfNSSep, align 4, !dbg !5781
  %98 = load i32, i32* %i, align 4, !dbg !5784
  %sub = sub nsw i32 %98, 1, !dbg !5785
  %cmp100 = icmp eq i32 %97, %sub, !dbg !5786
  br i1 %cmp100, label %land.lhs.true101, label %if.else118, !dbg !5787

land.lhs.true101:                                 ; preds = %sw.bb99
  %99 = load i32, i32* %i, align 4, !dbg !5788
  %cmp102 = icmp sgt i32 %99, 0, !dbg !5789
  br i1 %cmp102, label %if.then103, label %if.else118, !dbg !5790

if.then103:                                       ; preds = %land.lhs.true101
  %100 = load i32, i32* %startSubstring, align 4, !dbg !5791
  %cmp104 = icmp ne i32 %100, -1, !dbg !5794
  br i1 %cmp104, label %if.then105, label %if.end113, !dbg !5795

if.then105:                                       ; preds = %if.then103
  %101 = load i32, i32* %startSubstring, align 4, !dbg !5796
  %102 = load i32, i32* %i, align 4, !dbg !5799
  %sub106 = sub nsw i32 %102, 1, !dbg !5800
  %cmp107 = icmp slt i32 %101, %sub106, !dbg !5801
  br i1 %cmp107, label %if.then108, label %if.end112, !dbg !5802

if.then108:                                       ; preds = %if.then105
  %103 = load %"class.xalanc_1_10::XalanDOMString"*, %"class.xalanc_1_10::XalanDOMString"** %pat.addr, align 8, !dbg !5803
  %104 = load %"class.xalanc_1_10::XalanDOMString"*, %"class.xalanc_1_10::XalanDOMString"** %theToken, align 8, !dbg !5805
  %105 = load i32, i32* %startSubstring, align 4, !dbg !5806
  %106 = load i32, i32* %i, align 4, !dbg !5807
  %sub109 = sub nsw i32 %106, 1, !dbg !5808
  invoke void @_ZN11xalanc_1_109substringERKNS_14XalanDOMStringERS0_jj(%"class.xalanc_1_10::XalanDOMString"* dereferenceable(40) %103, %"class.xalanc_1_10::XalanDOMString"* dereferenceable(40) %104, i32 %105, i32 %sub109)
          to label %invoke.cont110 unwind label %lpad, !dbg !5809

invoke.cont110:                                   ; preds = %if.then108
  %107 = load %"class.xalanc_1_10::XalanDOMString"*, %"class.xalanc_1_10::XalanDOMString"** %theToken, align 8, !dbg !5810
  invoke void @_ZNK11xalanc_1_1018XPathProcessorImpl15addToTokenQueueERKNS_14XalanDOMStringE(%"class.xalanc_1_10::XPathProcessorImpl"* %this1, %"class.xalanc_1_10::XalanDOMString"* dereferenceable(40) %107)
          to label %invoke.cont111 unwind label %lpad, !dbg !5811

invoke.cont111:                                   ; preds = %invoke.cont110
  br label %if.end112, !dbg !5812

if.end112:                                        ; preds = %invoke.cont111, %if.then105
  br label %if.end113, !dbg !5813

if.end113:                                        ; preds = %if.end112, %if.then103
  store i32 -1, i32* %startSubstring, align 4, !dbg !5814
  store i32 -1, i32* %posOfNSSep, align 4, !dbg !5815
  %108 = load %"class.xalanc_1_10::XalanDOMString"*, %"class.xalanc_1_10::XalanDOMString"** %pat.addr, align 8, !dbg !5816
  %109 = load %"class.xalanc_1_10::XalanDOMString"*, %"class.xalanc_1_10::XalanDOMString"** %theToken, align 8, !dbg !5817
  %110 = load i32, i32* %i, align 4, !dbg !5818
  %sub114 = sub nsw i32 %110, 1, !dbg !5819
  %111 = load i32, i32* %i, align 4, !dbg !5820
  %add115 = add nsw i32 %111, 1, !dbg !5821
  invoke void @_ZN11xalanc_1_109substringERKNS_14XalanDOMStringERS0_jj(%"class.xalanc_1_10::XalanDOMString"* dereferenceable(40) %108, %"class.xalanc_1_10::XalanDOMString"* dereferenceable(40) %109, i32 %sub114, i32 %add115)
          to label %invoke.cont116 unwind label %lpad, !dbg !5822

invoke.cont116:                                   ; preds = %if.end113
  %112 = load %"class.xalanc_1_10::XalanDOMString"*, %"class.xalanc_1_10::XalanDOMString"** %theToken, align 8, !dbg !5823
  invoke void @_ZNK11xalanc_1_1018XPathProcessorImpl15addToTokenQueueERKNS_14XalanDOMStringE(%"class.xalanc_1_10::XPathProcessorImpl"* %this1, %"class.xalanc_1_10::XalanDOMString"* dereferenceable(40) %112)
          to label %invoke.cont117 unwind label %lpad, !dbg !5824

invoke.cont117:                                   ; preds = %invoke.cont116
  br label %sw.epilog, !dbg !5825

if.else118:                                       ; preds = %land.lhs.true101, %sw.bb99
  %113 = load i32, i32* %i, align 4, !dbg !5826
  store i32 %113, i32* %posOfNSSep, align 4, !dbg !5828
  br label %if.end119

if.end119:                                        ; preds = %if.else118
  br label %sw.default, !dbg !5829

sw.default:                                       ; preds = %invoke.cont5, %if.end119
  %114 = load i32, i32* %startSubstring, align 4, !dbg !5830
  %cmp120 = icmp eq i32 -1, %114, !dbg !5833
  br i1 %cmp120, label %if.then121, label %if.end153, !dbg !5834

if.then121:                                       ; preds = %sw.default
  %115 = load i32, i32* %i, align 4, !dbg !5835
  store i32 %115, i32* %startSubstring, align 4, !dbg !5837
  %116 = load i16, i16* %c, align 2, !dbg !5838
  %call123 = invoke zeroext i1 @_ZN11xalanc_1_1012XalanXMLChar7isDigitEt(i16 zeroext %116)
          to label %invoke.cont122 unwind label %lpad, !dbg !5840

invoke.cont122:                                   ; preds = %if.then121
  %conv124 = zext i1 %call123 to i32, !dbg !5840
  %cmp125 = icmp eq i32 %conv124, 1, !dbg !5841
  br i1 %cmp125, label %if.then126, label %if.end152, !dbg !5842

if.then126:                                       ; preds = %invoke.cont122
  call void @llvm.dbg.declare(metadata i8* %gotFullStop, metadata !5843, metadata !DIExpression()), !dbg !5845
  store i8 0, i8* %gotFullStop, align 1, !dbg !5845
  br label %while.cond, !dbg !5846

while.cond:                                       ; preds = %if.end148, %if.then126
  %117 = load i32, i32* %i, align 4, !dbg !5847
  %118 = load i32, i32* %nChars, align 4, !dbg !5848
  %sub127 = sub nsw i32 %118, 1, !dbg !5849
  %cmp128 = icmp slt i32 %117, %sub127, !dbg !5850
  br i1 %cmp128, label %while.body, label %while.end, !dbg !5846

while.body:                                       ; preds = %while.cond
  %119 = load i32, i32* %i, align 4, !dbg !5851
  %inc129 = add nsw i32 %119, 1, !dbg !5851
  store i32 %inc129, i32* %i, align 4, !dbg !5851
  call void @llvm.dbg.declare(metadata i16* %currentChar, metadata !5853, metadata !DIExpression()), !dbg !5854
  %120 = load %"class.xalanc_1_10::XalanDOMString"*, %"class.xalanc_1_10::XalanDOMString"** %pat.addr, align 8, !dbg !5855
  %121 = load i32, i32* %i, align 4, !dbg !5856
  %call131 = invoke zeroext i16 @_ZN11xalanc_1_106charAtERKNS_14XalanDOMStringEj(%"class.xalanc_1_10::XalanDOMString"* dereferenceable(40) %120, i32 %121)
          to label %invoke.cont130 unwind label %lpad, !dbg !5857

invoke.cont130:                                   ; preds = %while.body
  store i16 %call131, i16* %currentChar, align 2, !dbg !5854
  %122 = load i16, i16* %currentChar, align 2, !dbg !5858
  %conv132 = zext i16 %122 to i32, !dbg !5858
  %cmp133 = icmp eq i32 %conv132, 46, !dbg !5860
  br i1 %cmp133, label %if.then134, label %if.else140, !dbg !5861

if.then134:                                       ; preds = %invoke.cont130
  %123 = load i8, i8* %gotFullStop, align 1, !dbg !5862
  %tobool = trunc i8 %123 to i1, !dbg !5862
  %conv135 = zext i1 %tobool to i32, !dbg !5862
  %cmp136 = icmp eq i32 %conv135, 0, !dbg !5865
  br i1 %cmp136, label %if.then137, label %if.else138, !dbg !5866

if.then137:                                       ; preds = %if.then134
  store i8 1, i8* %gotFullStop, align 1, !dbg !5867
  br label %if.end139, !dbg !5869

if.else138:                                       ; preds = %if.then134
  %124 = load i32, i32* %i, align 4, !dbg !5870
  %dec = add nsw i32 %124, -1, !dbg !5870
  store i32 %dec, i32* %i, align 4, !dbg !5870
  br label %while.end, !dbg !5872

if.end139:                                        ; preds = %if.then137
  br label %if.end148, !dbg !5873

if.else140:                                       ; preds = %invoke.cont130
  %125 = load i16, i16* %currentChar, align 2, !dbg !5874
  %call142 = invoke zeroext i1 @_ZN11xalanc_1_1012XalanXMLChar7isDigitEt(i16 zeroext %125)
          to label %invoke.cont141 unwind label %lpad, !dbg !5876

invoke.cont141:                                   ; preds = %if.else140
  %conv143 = zext i1 %call142 to i32, !dbg !5876
  %cmp144 = icmp eq i32 %conv143, 0, !dbg !5877
  br i1 %cmp144, label %if.then145, label %if.end147, !dbg !5878

if.then145:                                       ; preds = %invoke.cont141
  %126 = load i32, i32* %i, align 4, !dbg !5879
  %dec146 = add nsw i32 %126, -1, !dbg !5879
  store i32 %dec146, i32* %i, align 4, !dbg !5879
  br label %while.end, !dbg !5881

if.end147:                                        ; preds = %invoke.cont141
  br label %if.end148

if.end148:                                        ; preds = %if.end147, %if.end139
  br label %while.cond, !dbg !5846, !llvm.loop !5882

while.end:                                        ; preds = %if.then145, %if.else138, %while.cond
  %127 = load %"class.xalanc_1_10::XalanDOMString"*, %"class.xalanc_1_10::XalanDOMString"** %pat.addr, align 8, !dbg !5884
  %128 = load %"class.xalanc_1_10::XalanDOMString"*, %"class.xalanc_1_10::XalanDOMString"** %theToken, align 8, !dbg !5885
  %129 = load i32, i32* %startSubstring, align 4, !dbg !5886
  %130 = load i32, i32* %i, align 4, !dbg !5887
  %add149 = add nsw i32 %130, 1, !dbg !5888
  invoke void @_ZN11xalanc_1_109substringERKNS_14XalanDOMStringERS0_jj(%"class.xalanc_1_10::XalanDOMString"* dereferenceable(40) %127, %"class.xalanc_1_10::XalanDOMString"* dereferenceable(40) %128, i32 %129, i32 %add149)
          to label %invoke.cont150 unwind label %lpad, !dbg !5889

invoke.cont150:                                   ; preds = %while.end
  %131 = load %"class.xalanc_1_10::XalanDOMString"*, %"class.xalanc_1_10::XalanDOMString"** %theToken, align 8, !dbg !5890
  invoke void @_ZNK11xalanc_1_1018XPathProcessorImpl15addToTokenQueueERKNS_14XalanDOMStringE(%"class.xalanc_1_10::XPathProcessorImpl"* %this1, %"class.xalanc_1_10::XalanDOMString"* dereferenceable(40) %131)
          to label %invoke.cont151 unwind label %lpad, !dbg !5891

invoke.cont151:                                   ; preds = %invoke.cont150
  store i32 -1, i32* %startSubstring, align 4, !dbg !5892
  br label %if.end152, !dbg !5893

if.end152:                                        ; preds = %invoke.cont151, %invoke.cont122
  br label %if.end153, !dbg !5894

if.end153:                                        ; preds = %if.end152, %sw.default
  br label %sw.epilog, !dbg !5895

sw.epilog:                                        ; preds = %if.end153, %invoke.cont117, %invoke.cont98, %if.then82, %if.end79, %if.end67, %if.end31
  br label %for.inc154, !dbg !5896

for.inc154:                                       ; preds = %sw.epilog
  %132 = load i32, i32* %i, align 4, !dbg !5897
  %inc155 = add nsw i32 %132, 1, !dbg !5897
  store i32 %inc155, i32* %i, align 4, !dbg !5897
  br label %for.cond, !dbg !5898, !llvm.loop !5899

for.end156:                                       ; preds = %for.cond
  %133 = load i32, i32* %startSubstring, align 4, !dbg !5901
  %cmp157 = icmp ne i32 %133, -1, !dbg !5903
  br i1 %cmp157, label %if.then158, label %if.end167, !dbg !5904

if.then158:                                       ; preds = %for.end156
  %134 = load i32, i32* %posOfNSSep, align 4, !dbg !5905
  %cmp159 = icmp ne i32 -1, %134, !dbg !5908
  br i1 %cmp159, label %if.then160, label %if.else163, !dbg !5909

if.then160:                                       ; preds = %if.then158
  %135 = load %"class.xalanc_1_10::XalanDOMString"*, %"class.xalanc_1_10::XalanDOMString"** %pat.addr, align 8, !dbg !5910
  %136 = load i32, i32* %startSubstring, align 4, !dbg !5912
  %137 = load i32, i32* %posOfNSSep, align 4, !dbg !5913
  %138 = load i32, i32* %nChars, align 4, !dbg !5914
  %call162 = invoke i32 @_ZN11xalanc_1_1018XPathProcessorImpl11mapNSTokensERKNS_14XalanDOMStringEiii(%"class.xalanc_1_10::XPathProcessorImpl"* %this1, %"class.xalanc_1_10::XalanDOMString"* dereferenceable(40) %135, i32 %136, i32 %137, i32 %138)
          to label %invoke.cont161 unwind label %lpad, !dbg !5915

invoke.cont161:                                   ; preds = %if.then160
  store i32 %call162, i32* %posOfNSSep, align 4, !dbg !5916
  br label %if.end166, !dbg !5917

if.else163:                                       ; preds = %if.then158
  %139 = load %"class.xalanc_1_10::XalanDOMString"*, %"class.xalanc_1_10::XalanDOMString"** %pat.addr, align 8, !dbg !5918
  %140 = load %"class.xalanc_1_10::XalanDOMString"*, %"class.xalanc_1_10::XalanDOMString"** %theToken, align 8, !dbg !5920
  %141 = load i32, i32* %startSubstring, align 4, !dbg !5921
  %142 = load i32, i32* %nChars, align 4, !dbg !5922
  invoke void @_ZN11xalanc_1_109substringERKNS_14XalanDOMStringERS0_jj(%"class.xalanc_1_10::XalanDOMString"* dereferenceable(40) %139, %"class.xalanc_1_10::XalanDOMString"* dereferenceable(40) %140, i32 %141, i32 %142)
          to label %invoke.cont164 unwind label %lpad, !dbg !5923

invoke.cont164:                                   ; preds = %if.else163
  %143 = load %"class.xalanc_1_10::XalanDOMString"*, %"class.xalanc_1_10::XalanDOMString"** %theToken, align 8, !dbg !5924
  invoke void @_ZNK11xalanc_1_1018XPathProcessorImpl15addToTokenQueueERKNS_14XalanDOMStringE(%"class.xalanc_1_10::XPathProcessorImpl"* %this1, %"class.xalanc_1_10::XalanDOMString"* dereferenceable(40) %143)
          to label %invoke.cont165 unwind label %lpad, !dbg !5925

invoke.cont165:                                   ; preds = %invoke.cont164
  br label %if.end166

if.end166:                                        ; preds = %invoke.cont165, %invoke.cont161
  br label %if.end167, !dbg !5926

if.end167:                                        ; preds = %if.end166, %for.end156
  %m_expression168 = getelementptr inbounds %"class.xalanc_1_10::XPathProcessorImpl", %"class.xalanc_1_10::XPathProcessorImpl"* %this1, i32 0, i32 6, !dbg !5927
  %144 = load %"class.xalanc_1_10::XPathExpression"*, %"class.xalanc_1_10::XPathExpression"** %m_expression168, align 8, !dbg !5927
  %call170 = invoke i32 @_ZNK11xalanc_1_1015XPathExpression14tokenQueueSizeEv(%"class.xalanc_1_10::XPathExpression"* %144)
          to label %invoke.cont169 unwind label %lpad, !dbg !5929

invoke.cont169:                                   ; preds = %if.end167
  %cmp171 = icmp eq i32 0, %call170, !dbg !5930
  br i1 %cmp171, label %if.then172, label %if.end174, !dbg !5931

if.then172:                                       ; preds = %invoke.cont169
  invoke void @_ZNK11xalanc_1_1018XPathProcessorImpl5errorENS_13XalanMessages5CodesE(%"class.xalanc_1_10::XPathProcessorImpl"* %this1, i32 24)
          to label %invoke.cont173 unwind label %lpad, !dbg !5932

invoke.cont173:                                   ; preds = %if.then172
  br label %if.end174, !dbg !5934

if.end174:                                        ; preds = %invoke.cont173, %invoke.cont169
  %m_expression175 = getelementptr inbounds %"class.xalanc_1_10::XPathProcessorImpl", %"class.xalanc_1_10::XPathProcessorImpl"* %this1, i32 0, i32 6, !dbg !5935
  %145 = load %"class.xalanc_1_10::XPathExpression"*, %"class.xalanc_1_10::XPathExpression"** %m_expression175, align 8, !dbg !5935
  invoke void @_ZN11xalanc_1_1015XPathExpression18resetTokenPositionEv(%"class.xalanc_1_10::XPathExpression"* %145)
          to label %invoke.cont176 unwind label %lpad, !dbg !5936

invoke.cont176:                                   ; preds = %if.end174
  call void @_ZN11xalanc_1_1024XPathConstructionContext25GetAndReleaseCachedStringD2Ev(%"class.xalanc_1_10::XPathConstructionContext::GetAndReleaseCachedString"* %theGuard) #6, !dbg !5565
  ret void, !dbg !5565

eh.resume:                                        ; preds = %lpad
  %exn = load i8*, i8** %exn.slot, align 8, !dbg !5565
  %sel = load i32, i32* %ehselector.slot, align 4, !dbg !5565
  %lpad.val = insertvalue { i8*, i32 } undef, i8* %exn, 0, !dbg !5565
  %lpad.val177 = insertvalue { i8*, i32 } %lpad.val, i32 %sel, 1, !dbg !5565
  resume { i8*, i32 } %lpad.val177, !dbg !5565
}

declare dso_local i32 @_ZN11xalanc_1_1015XPathExpression12appendOpCodeENS0_8eOpCodesE(%"class.xalanc_1_10::XPathExpression"*, i32) #2

; Function Attrs: noinline uwtable
define dso_local zeroext i1 @_ZN11xalanc_1_1018XPathProcessorImpl9nextTokenEv(%"class.xalanc_1_10::XPathProcessorImpl"* %this) #0 align 2 !dbg !5937 {
entry:
  %retval = alloca i1, align 1
  %this.addr = alloca %"class.xalanc_1_10::XPathProcessorImpl"*, align 8
  %theNextToken = alloca %"class.xalanc_1_10::XObject"*, align 8
  store %"class.xalanc_1_10::XPathProcessorImpl"* %this, %"class.xalanc_1_10::XPathProcessorImpl"** %this.addr, align 8
  call void @llvm.dbg.declare(metadata %"class.xalanc_1_10::XPathProcessorImpl"** %this.addr, metadata !5938, metadata !DIExpression()), !dbg !5939
  %this1 = load %"class.xalanc_1_10::XPathProcessorImpl"*, %"class.xalanc_1_10::XPathProcessorImpl"** %this.addr, align 8
  call void @llvm.dbg.declare(metadata %"class.xalanc_1_10::XObject"** %theNextToken, metadata !5940, metadata !DIExpression()), !dbg !5942
  %m_expression = getelementptr inbounds %"class.xalanc_1_10::XPathProcessorImpl", %"class.xalanc_1_10::XPathProcessorImpl"* %this1, i32 0, i32 6, !dbg !5943
  %0 = load %"class.xalanc_1_10::XPathExpression"*, %"class.xalanc_1_10::XPathExpression"** %m_expression, align 8, !dbg !5943
  %call = call %"class.xalanc_1_10::XToken"* @_ZN11xalanc_1_1015XPathExpression12getNextTokenEv(%"class.xalanc_1_10::XPathExpression"* %0), !dbg !5944
  %1 = bitcast %"class.xalanc_1_10::XToken"* %call to %"class.xalanc_1_10::XObject"*, !dbg !5943
  store %"class.xalanc_1_10::XObject"* %1, %"class.xalanc_1_10::XObject"** %theNextToken, align 8, !dbg !5942
  %2 = load %"class.xalanc_1_10::XObject"*, %"class.xalanc_1_10::XObject"** %theNextToken, align 8, !dbg !5945
  %cmp = icmp eq %"class.xalanc_1_10::XObject"* %2, null, !dbg !5947
  br i1 %cmp, label %if.then, label %if.else, !dbg !5948

if.then:                                          ; preds = %entry
  %m_token = getelementptr inbounds %"class.xalanc_1_10::XPathProcessorImpl", %"class.xalanc_1_10::XPathProcessorImpl"* %this1, i32 0, i32 1, !dbg !5949
  call void @_ZN11xalanc_1_105clearERNS_14XalanDOMStringE(%"class.xalanc_1_10::XalanDOMString"* dereferenceable(40) %m_token), !dbg !5951
  br label %if.end, !dbg !5952

if.else:                                          ; preds = %entry
  %3 = load %"class.xalanc_1_10::XObject"*, %"class.xalanc_1_10::XObject"** %theNextToken, align 8, !dbg !5953
  %4 = bitcast %"class.xalanc_1_10::XObject"* %3 to %"class.xalanc_1_10::XalanDOMString"* (%"class.xalanc_1_10::XObject"*)***, !dbg !5955
  %vtable = load %"class.xalanc_1_10::XalanDOMString"* (%"class.xalanc_1_10::XObject"*)**, %"class.xalanc_1_10::XalanDOMString"* (%"class.xalanc_1_10::XObject"*)*** %4, align 8, !dbg !5955
  %vfn = getelementptr inbounds %"class.xalanc_1_10::XalanDOMString"* (%"class.xalanc_1_10::XObject"*)*, %"class.xalanc_1_10::XalanDOMString"* (%"class.xalanc_1_10::XObject"*)** %vtable, i64 8, !dbg !5955
  %5 = load %"class.xalanc_1_10::XalanDOMString"* (%"class.xalanc_1_10::XObject"*)*, %"class.xalanc_1_10::XalanDOMString"* (%"class.xalanc_1_10::XObject"*)** %vfn, align 8, !dbg !5955
  %call2 = call dereferenceable(40) %"class.xalanc_1_10::XalanDOMString"* %5(%"class.xalanc_1_10::XObject"* %3), !dbg !5955
  %m_token3 = getelementptr inbounds %"class.xalanc_1_10::XPathProcessorImpl", %"class.xalanc_1_10::XPathProcessorImpl"* %this1, i32 0, i32 1, !dbg !5956
  %call4 = call dereferenceable(40) %"class.xalanc_1_10::XalanDOMString"* @_ZN11xalanc_1_1014XalanDOMStringaSERKS0_(%"class.xalanc_1_10::XalanDOMString"* %m_token3, %"class.xalanc_1_10::XalanDOMString"* dereferenceable(40) %call2), !dbg !5957
  br label %if.end

if.end:                                           ; preds = %if.else, %if.then
  %m_token5 = getelementptr inbounds %"class.xalanc_1_10::XPathProcessorImpl", %"class.xalanc_1_10::XPathProcessorImpl"* %this1, i32 0, i32 1, !dbg !5958
  %call6 = call i32 @_ZN11xalanc_1_106lengthERKNS_14XalanDOMStringE(%"class.xalanc_1_10::XalanDOMString"* dereferenceable(40) %m_token5), !dbg !5960
  %cmp7 = icmp ugt i32 %call6, 0, !dbg !5961
  br i1 %cmp7, label %if.then8, label %if.else11, !dbg !5962

if.then8:                                         ; preds = %if.end
  %m_token9 = getelementptr inbounds %"class.xalanc_1_10::XPathProcessorImpl", %"class.xalanc_1_10::XPathProcessorImpl"* %this1, i32 0, i32 1, !dbg !5963
  %call10 = call zeroext i16 @_ZN11xalanc_1_106charAtERKNS_14XalanDOMStringEj(%"class.xalanc_1_10::XalanDOMString"* dereferenceable(40) %m_token9, i32 0), !dbg !5965
  %m_tokenChar = getelementptr inbounds %"class.xalanc_1_10::XPathProcessorImpl", %"class.xalanc_1_10::XPathProcessorImpl"* %this1, i32 0, i32 2, !dbg !5966
  store i16 %call10, i16* %m_tokenChar, align 8, !dbg !5967
  store i1 true, i1* %retval, align 1, !dbg !5968
  br label %return, !dbg !5968

if.else11:                                        ; preds = %if.end
  %m_tokenChar12 = getelementptr inbounds %"class.xalanc_1_10::XPathProcessorImpl", %"class.xalanc_1_10::XPathProcessorImpl"* %this1, i32 0, i32 2, !dbg !5969
  store i16 0, i16* %m_tokenChar12, align 8, !dbg !5971
  store i1 false, i1* %retval, align 1, !dbg !5972
  br label %return, !dbg !5972

return:                                           ; preds = %if.else11, %if.then8
  %6 = load i1, i1* %retval, align 1, !dbg !5973
  ret i1 %6, !dbg !5973
}

; Function Attrs: noinline uwtable
define dso_local void @_ZN11xalanc_1_1018XPathProcessorImpl4ExprEv(%"class.xalanc_1_10::XPathProcessorImpl"* %this) #0 align 2 !dbg !5974 {
entry:
  %this.addr = alloca %"class.xalanc_1_10::XPathProcessorImpl"*, align 8
  store %"class.xalanc_1_10::XPathProcessorImpl"* %this, %"class.xalanc_1_10::XPathProcessorImpl"** %this.addr, align 8
  call void @llvm.dbg.declare(metadata %"class.xalanc_1_10::XPathProcessorImpl"** %this.addr, metadata !5975, metadata !DIExpression()), !dbg !5976
  %this1 = load %"class.xalanc_1_10::XPathProcessorImpl"*, %"class.xalanc_1_10::XPathProcessorImpl"** %this.addr, align 8
  call void @_ZN11xalanc_1_1018XPathProcessorImpl6OrExprEv(%"class.xalanc_1_10::XPathProcessorImpl"* %this1), !dbg !5977
  ret void, !dbg !5978
}

; Function Attrs: noinline uwtable
define linkonce_odr dso_local i32 @_ZN11xalanc_1_106lengthERKNS_14XalanDOMStringE(%"class.xalanc_1_10::XalanDOMString"* dereferenceable(40) %theString) #0 comdat !dbg !5979 {
entry:
  %theString.addr = alloca %"class.xalanc_1_10::XalanDOMString"*, align 8
  store %"class.xalanc_1_10::XalanDOMString"* %theString, %"class.xalanc_1_10::XalanDOMString"** %theString.addr, align 8
  call void @llvm.dbg.declare(metadata %"class.xalanc_1_10::XalanDOMString"** %theString.addr, metadata !5982, metadata !DIExpression()), !dbg !5983
  %0 = load %"class.xalanc_1_10::XalanDOMString"*, %"class.xalanc_1_10::XalanDOMString"** %theString.addr, align 8, !dbg !5984
  %call = call i32 @_ZNK11xalanc_1_1014XalanDOMString6lengthEv(%"class.xalanc_1_10::XalanDOMString"* %0), !dbg !5985
  ret i32 %call, !dbg !5986
}

; Function Attrs: noinline uwtable
define dso_local void @_ZNK11xalanc_1_1018XPathProcessorImpl5errorENS_13XalanMessages5CodesE(%"class.xalanc_1_10::XPathProcessorImpl"* %this, i32 %theCode) #0 align 2 personality i8* bitcast (i32 (...)* @__gxx_personality_v0 to i8*) !dbg !5987 {
entry:
  %this.addr = alloca %"class.xalanc_1_10::XPathProcessorImpl"*, align 8
  %theCode.addr = alloca i32, align 4
  %theGuard = alloca %"class.xalanc_1_10::XPathConstructionContext::GetAndReleaseCachedString", align 8
  %exn.slot = alloca i8*
  %ehselector.slot = alloca i32
  store %"class.xalanc_1_10::XPathProcessorImpl"* %this, %"class.xalanc_1_10::XPathProcessorImpl"** %this.addr, align 8
  call void @llvm.dbg.declare(metadata %"class.xalanc_1_10::XPathProcessorImpl"** %this.addr, metadata !5988, metadata !DIExpression()), !dbg !5990
  store i32 %theCode, i32* %theCode.addr, align 4
  call void @llvm.dbg.declare(metadata i32* %theCode.addr, metadata !5991, metadata !DIExpression()), !dbg !5992
  %this1 = load %"class.xalanc_1_10::XPathProcessorImpl"*, %"class.xalanc_1_10::XPathProcessorImpl"** %this.addr, align 8
  call void @llvm.dbg.declare(metadata %"class.xalanc_1_10::XPathConstructionContext::GetAndReleaseCachedString"* %theGuard, metadata !5993, metadata !DIExpression()), !dbg !5997
  %m_constructionContext = getelementptr inbounds %"class.xalanc_1_10::XPathProcessorImpl", %"class.xalanc_1_10::XPathProcessorImpl"* %this1, i32 0, i32 5, !dbg !5998
  %0 = load %"class.xalanc_1_10::XPathConstructionContext"*, %"class.xalanc_1_10::XPathConstructionContext"** %m_constructionContext, align 8, !dbg !5998
  call void @_ZN11xalanc_1_1024XPathConstructionContext25GetAndReleaseCachedStringC2ERS0_(%"class.xalanc_1_10::XPathConstructionContext::GetAndReleaseCachedString"* %theGuard, %"class.xalanc_1_10::XPathConstructionContext"* dereferenceable(16) %0), !dbg !5997
  %call = invoke dereferenceable(40) %"class.xalanc_1_10::XalanDOMString"* @_ZNK11xalanc_1_1024XPathConstructionContext25GetAndReleaseCachedString3getEv(%"class.xalanc_1_10::XPathConstructionContext::GetAndReleaseCachedString"* %theGuard)
          to label %invoke.cont unwind label %lpad, !dbg !5999

invoke.cont:                                      ; preds = %entry
  %1 = load i32, i32* %theCode.addr, align 4, !dbg !6000
  %call3 = invoke dereferenceable(40) %"class.xalanc_1_10::XalanDOMString"* @_ZN11xalanc_1_1018XalanMessageLoader10getMessageERNS_14XalanDOMStringENS_13XalanMessages5CodesE(%"class.xalanc_1_10::XalanDOMString"* dereferenceable(40) %call, i32 %1)
          to label %invoke.cont2 unwind label %lpad, !dbg !6001

invoke.cont2:                                     ; preds = %invoke.cont
  invoke void @_ZNK11xalanc_1_1018XPathProcessorImpl5errorERKNS_14XalanDOMStringE(%"class.xalanc_1_10::XPathProcessorImpl"* %this1, %"class.xalanc_1_10::XalanDOMString"* dereferenceable(40) %call3)
          to label %invoke.cont4 unwind label %lpad, !dbg !6002

invoke.cont4:                                     ; preds = %invoke.cont2
  call void @_ZN11xalanc_1_1024XPathConstructionContext25GetAndReleaseCachedStringD2Ev(%"class.xalanc_1_10::XPathConstructionContext::GetAndReleaseCachedString"* %theGuard) #6, !dbg !6003
  ret void, !dbg !6003

lpad:                                             ; preds = %invoke.cont2, %invoke.cont, %entry
  %2 = landingpad { i8*, i32 }
          cleanup, !dbg !6003
  %3 = extractvalue { i8*, i32 } %2, 0, !dbg !6003
  store i8* %3, i8** %exn.slot, align 8, !dbg !6003
  %4 = extractvalue { i8*, i32 } %2, 1, !dbg !6003
  store i32 %4, i32* %ehselector.slot, align 4, !dbg !6003
  call void @_ZN11xalanc_1_1024XPathConstructionContext25GetAndReleaseCachedStringD2Ev(%"class.xalanc_1_10::XPathConstructionContext::GetAndReleaseCachedString"* %theGuard) #6, !dbg !6003
  br label %eh.resume, !dbg !6003

eh.resume:                                        ; preds = %lpad
  %exn = load i8*, i8** %exn.slot, align 8, !dbg !6003
  %sel = load i32, i32* %ehselector.slot, align 4, !dbg !6003
  %lpad.val = insertvalue { i8*, i32 } undef, i8* %exn, 0, !dbg !6003
  %lpad.val5 = insertvalue { i8*, i32 } %lpad.val, i32 %sel, 1, !dbg !6003
  resume { i8*, i32 } %lpad.val5, !dbg !6003
}

; Function Attrs: noinline uwtable
define linkonce_odr dso_local void @_ZN11xalanc_1_1011XalanVectorIbNS_31MemoryManagedConstructionTraitsIbEEE5clearEv(%"class.xalanc_1_10::XalanVector.3"* %this) #0 comdat align 2 !dbg !6004 {
entry:
  %this.addr = alloca %"class.xalanc_1_10::XalanVector.3"*, align 8
  store %"class.xalanc_1_10::XalanVector.3"* %this, %"class.xalanc_1_10::XalanVector.3"** %this.addr, align 8
  call void @llvm.dbg.declare(metadata %"class.xalanc_1_10::XalanVector.3"** %this.addr, metadata !6005, metadata !DIExpression()), !dbg !6006
  %this1 = load %"class.xalanc_1_10::XalanVector.3"*, %"class.xalanc_1_10::XalanVector.3"** %this.addr, align 8
  call void @_ZNK11xalanc_1_1011XalanVectorIbNS_31MemoryManagedConstructionTraitsIbEEE10invariantsEv(%"class.xalanc_1_10::XalanVector.3"* %this1), !dbg !6007
  %m_size = getelementptr inbounds %"class.xalanc_1_10::XalanVector.3", %"class.xalanc_1_10::XalanVector.3"* %this1, i32 0, i32 1, !dbg !6008
  %0 = load i64, i64* %m_size, align 8, !dbg !6008
  %cmp = icmp ugt i64 %0, 0, !dbg !6010
  br i1 %cmp, label %if.then, label %if.end, !dbg !6011

if.then:                                          ; preds = %entry
  call void @_ZN11xalanc_1_1011XalanVectorIbNS_31MemoryManagedConstructionTraitsIbEEE12shrinkToSizeEm(%"class.xalanc_1_10::XalanVector.3"* %this1, i64 0), !dbg !6012
  br label %if.end, !dbg !6014

if.end:                                           ; preds = %if.then, %entry
  call void @_ZNK11xalanc_1_1011XalanVectorIbNS_31MemoryManagedConstructionTraitsIbEEE10invariantsEv(%"class.xalanc_1_10::XalanVector.3"* %this1), !dbg !6015
  ret void, !dbg !6016
}

; Function Attrs: noinline uwtable
define linkonce_odr dso_local void @_ZN11xalanc_1_108XalanMapINS_14XalanDOMStringEPKS1_NS_17XalanMapKeyTraitsIS1_EEE5clearEv(%"class.xalanc_1_10::XalanMap"* %this) #0 comdat align 2 !dbg !6017 {
entry:
  %this.addr = alloca %"class.xalanc_1_10::XalanMap"*, align 8
  %bucketPos = alloca %"class.xalanc_1_10::XalanVector.5"*, align 8
  store %"class.xalanc_1_10::XalanMap"* %this, %"class.xalanc_1_10::XalanMap"** %this.addr, align 8
  call void @llvm.dbg.declare(metadata %"class.xalanc_1_10::XalanMap"** %this.addr, metadata !6018, metadata !DIExpression()), !dbg !6019
  %this1 = load %"class.xalanc_1_10::XalanMap"*, %"class.xalanc_1_10::XalanMap"** %this.addr, align 8
  call void @_ZN11xalanc_1_108XalanMapINS_14XalanDOMStringEPKS1_NS_17XalanMapKeyTraitsIS1_EEE15doRemoveEntriesEv(%"class.xalanc_1_10::XalanMap"* %this1), !dbg !6020
  call void @llvm.dbg.declare(metadata %"class.xalanc_1_10::XalanVector.5"** %bucketPos, metadata !6021, metadata !DIExpression()), !dbg !6023
  %m_buckets = getelementptr inbounds %"class.xalanc_1_10::XalanMap", %"class.xalanc_1_10::XalanMap"* %this1, i32 0, i32 8, !dbg !6024
  %call = call %"class.xalanc_1_10::XalanVector.5"* @_ZN11xalanc_1_1011XalanVectorINS0_INS_21XalanListIteratorBaseINS_23XalanListIteratorTraitsINS_8XalanMapINS_14XalanDOMStringEPKS4_NS_17XalanMapKeyTraitsIS4_EEE5EntryEEENS_9XalanListISA_E4NodeEEENS_31MemoryManagedConstructionTraitsISF_EEEENS_32ConstructWithMemoryManagerTraitsISI_EEE5beginEv(%"class.xalanc_1_10::XalanVector.4"* %m_buckets), !dbg !6025
  store %"class.xalanc_1_10::XalanVector.5"* %call, %"class.xalanc_1_10::XalanVector.5"** %bucketPos, align 8, !dbg !6023
  br label %while.cond, !dbg !6026

while.cond:                                       ; preds = %while.body, %entry
  %0 = load %"class.xalanc_1_10::XalanVector.5"*, %"class.xalanc_1_10::XalanVector.5"** %bucketPos, align 8, !dbg !6027
  %m_buckets2 = getelementptr inbounds %"class.xalanc_1_10::XalanMap", %"class.xalanc_1_10::XalanMap"* %this1, i32 0, i32 8, !dbg !6028
  %call3 = call %"class.xalanc_1_10::XalanVector.5"* @_ZN11xalanc_1_1011XalanVectorINS0_INS_21XalanListIteratorBaseINS_23XalanListIteratorTraitsINS_8XalanMapINS_14XalanDOMStringEPKS4_NS_17XalanMapKeyTraitsIS4_EEE5EntryEEENS_9XalanListISA_E4NodeEEENS_31MemoryManagedConstructionTraitsISF_EEEENS_32ConstructWithMemoryManagerTraitsISI_EEE3endEv(%"class.xalanc_1_10::XalanVector.4"* %m_buckets2), !dbg !6029
  %cmp = icmp ne %"class.xalanc_1_10::XalanVector.5"* %0, %call3, !dbg !6030
  br i1 %cmp, label %while.body, label %while.end, !dbg !6026

while.body:                                       ; preds = %while.cond
  %1 = load %"class.xalanc_1_10::XalanVector.5"*, %"class.xalanc_1_10::XalanVector.5"** %bucketPos, align 8, !dbg !6031
  call void @_ZN11xalanc_1_1011XalanVectorINS_21XalanListIteratorBaseINS_23XalanListIteratorTraitsINS_8XalanMapINS_14XalanDOMStringEPKS4_NS_17XalanMapKeyTraitsIS4_EEE5EntryEEENS_9XalanListISA_E4NodeEEENS_31MemoryManagedConstructionTraitsISF_EEE5clearEv(%"class.xalanc_1_10::XalanVector.5"* %1), !dbg !6033
  %2 = load %"class.xalanc_1_10::XalanVector.5"*, %"class.xalanc_1_10::XalanVector.5"** %bucketPos, align 8, !dbg !6034
  %incdec.ptr = getelementptr inbounds %"class.xalanc_1_10::XalanVector.5", %"class.xalanc_1_10::XalanVector.5"* %2, i32 1, !dbg !6034
  store %"class.xalanc_1_10::XalanVector.5"* %incdec.ptr, %"class.xalanc_1_10::XalanVector.5"** %bucketPos, align 8, !dbg !6034
  br label %while.cond, !dbg !6026, !llvm.loop !6035

while.end:                                        ; preds = %while.cond
  %m_eraseCount = getelementptr inbounds %"class.xalanc_1_10::XalanMap", %"class.xalanc_1_10::XalanMap"* %this1, i32 0, i32 9, !dbg !6037
  store i64 0, i64* %m_eraseCount, align 8, !dbg !6038
  ret void, !dbg !6039
}

; Function Attrs: noinline uwtable
define dso_local void @_ZN11xalanc_1_1018XPathProcessorImpl16initMatchPatternERNS_5XPathERNS_24XPathConstructionContextERKNS_14XalanDOMStringERKNS_14PrefixResolverEPKN11xercesc_2_77LocatorEbb(%"class.xalanc_1_10::XPathProcessorImpl"* %this, %"class.xalanc_1_10::XPath"* dereferenceable(136) %pathObj, %"class.xalanc_1_10::XPathConstructionContext"* dereferenceable(16) %constructionContext, %"class.xalanc_1_10::XalanDOMString"* dereferenceable(40) %expression, %"class.xalanc_1_10::PrefixResolver"* dereferenceable(8) %resolver, %"class.xercesc_2_7::Locator"* %locator, i1 zeroext %allowVariableReferences, i1 zeroext %allowKeyFunction) unnamed_addr #0 align 2 !dbg !6040 {
entry:
  %this.addr = alloca %"class.xalanc_1_10::XPathProcessorImpl"*, align 8
  %pathObj.addr = alloca %"class.xalanc_1_10::XPath"*, align 8
  %constructionContext.addr = alloca %"class.xalanc_1_10::XPathConstructionContext"*, align 8
  %expression.addr = alloca %"class.xalanc_1_10::XalanDOMString"*, align 8
  %resolver.addr = alloca %"class.xalanc_1_10::PrefixResolver"*, align 8
  %locator.addr = alloca %"class.xercesc_2_7::Locator"*, align 8
  %allowVariableReferences.addr = alloca i8, align 1
  %allowKeyFunction.addr = alloca i8, align 1
  store %"class.xalanc_1_10::XPathProcessorImpl"* %this, %"class.xalanc_1_10::XPathProcessorImpl"** %this.addr, align 8
  call void @llvm.dbg.declare(metadata %"class.xalanc_1_10::XPathProcessorImpl"** %this.addr, metadata !6041, metadata !DIExpression()), !dbg !6042
  store %"class.xalanc_1_10::XPath"* %pathObj, %"class.xalanc_1_10::XPath"** %pathObj.addr, align 8
  call void @llvm.dbg.declare(metadata %"class.xalanc_1_10::XPath"** %pathObj.addr, metadata !6043, metadata !DIExpression()), !dbg !6044
  store %"class.xalanc_1_10::XPathConstructionContext"* %constructionContext, %"class.xalanc_1_10::XPathConstructionContext"** %constructionContext.addr, align 8
  call void @llvm.dbg.declare(metadata %"class.xalanc_1_10::XPathConstructionContext"** %constructionContext.addr, metadata !6045, metadata !DIExpression()), !dbg !6046
  store %"class.xalanc_1_10::XalanDOMString"* %expression, %"class.xalanc_1_10::XalanDOMString"** %expression.addr, align 8
  call void @llvm.dbg.declare(metadata %"class.xalanc_1_10::XalanDOMString"** %expression.addr, metadata !6047, metadata !DIExpression()), !dbg !6048
  store %"class.xalanc_1_10::PrefixResolver"* %resolver, %"class.xalanc_1_10::PrefixResolver"** %resolver.addr, align 8
  call void @llvm.dbg.declare(metadata %"class.xalanc_1_10::PrefixResolver"** %resolver.addr, metadata !6049, metadata !DIExpression()), !dbg !6050
  store %"class.xercesc_2_7::Locator"* %locator, %"class.xercesc_2_7::Locator"** %locator.addr, align 8
  call void @llvm.dbg.declare(metadata %"class.xercesc_2_7::Locator"** %locator.addr, metadata !6051, metadata !DIExpression()), !dbg !6052
  %frombool = zext i1 %allowVariableReferences to i8
  store i8 %frombool, i8* %allowVariableReferences.addr, align 1
  call void @llvm.dbg.declare(metadata i8* %allowVariableReferences.addr, metadata !6053, metadata !DIExpression()), !dbg !6054
  %frombool1 = zext i1 %allowKeyFunction to i8
  store i8 %frombool1, i8* %allowKeyFunction.addr, align 1
  call void @llvm.dbg.declare(metadata i8* %allowKeyFunction.addr, metadata !6055, metadata !DIExpression()), !dbg !6056
  %this2 = load %"class.xalanc_1_10::XPathProcessorImpl"*, %"class.xalanc_1_10::XPathProcessorImpl"** %this.addr, align 8
  %m_isMatchPattern = getelementptr inbounds %"class.xalanc_1_10::XPathProcessorImpl", %"class.xalanc_1_10::XPathProcessorImpl"* %this2, i32 0, i32 9, !dbg !6057
  store i8 1, i8* %m_isMatchPattern, align 1, !dbg !6058
  %0 = load i8, i8* %allowVariableReferences.addr, align 1, !dbg !6059
  %tobool = trunc i8 %0 to i1, !dbg !6059
  %m_allowVariableReferences = getelementptr inbounds %"class.xalanc_1_10::XPathProcessorImpl", %"class.xalanc_1_10::XPathProcessorImpl"* %this2, i32 0, i32 14, !dbg !6060
  %frombool3 = zext i1 %tobool to i8, !dbg !6061
  store i8 %frombool3, i8* %m_allowVariableReferences, align 8, !dbg !6061
  %1 = load i8, i8* %allowKeyFunction.addr, align 1, !dbg !6062
  %tobool4 = trunc i8 %1 to i1, !dbg !6062
  %m_allowKeyFunction = getelementptr inbounds %"class.xalanc_1_10::XPathProcessorImpl", %"class.xalanc_1_10::XPathProcessorImpl"* %this2, i32 0, i32 15, !dbg !6063
  %frombool5 = zext i1 %tobool4 to i8, !dbg !6064
  store i8 %frombool5, i8* %m_allowKeyFunction, align 1, !dbg !6064
  %2 = load %"class.xalanc_1_10::XPath"*, %"class.xalanc_1_10::XPath"** %pathObj.addr, align 8, !dbg !6065
  %m_xpath = getelementptr inbounds %"class.xalanc_1_10::XPathProcessorImpl", %"class.xalanc_1_10::XPathProcessorImpl"* %this2, i32 0, i32 4, !dbg !6066
  store %"class.xalanc_1_10::XPath"* %2, %"class.xalanc_1_10::XPath"** %m_xpath, align 8, !dbg !6067
  %3 = load %"class.xalanc_1_10::XPathConstructionContext"*, %"class.xalanc_1_10::XPathConstructionContext"** %constructionContext.addr, align 8, !dbg !6068
  %m_constructionContext = getelementptr inbounds %"class.xalanc_1_10::XPathProcessorImpl", %"class.xalanc_1_10::XPathProcessorImpl"* %this2, i32 0, i32 5, !dbg !6069
  store %"class.xalanc_1_10::XPathConstructionContext"* %3, %"class.xalanc_1_10::XPathConstructionContext"** %m_constructionContext, align 8, !dbg !6070
  %m_xpath6 = getelementptr inbounds %"class.xalanc_1_10::XPathProcessorImpl", %"class.xalanc_1_10::XPathProcessorImpl"* %this2, i32 0, i32 4, !dbg !6071
  %4 = load %"class.xalanc_1_10::XPath"*, %"class.xalanc_1_10::XPath"** %m_xpath6, align 8, !dbg !6071
  %call = call dereferenceable(120) %"class.xalanc_1_10::XPathExpression"* @_ZN11xalanc_1_105XPath13getExpressionEv(%"class.xalanc_1_10::XPath"* %4), !dbg !6072
  %m_expression = getelementptr inbounds %"class.xalanc_1_10::XPathProcessorImpl", %"class.xalanc_1_10::XPathProcessorImpl"* %this2, i32 0, i32 6, !dbg !6073
  store %"class.xalanc_1_10::XPathExpression"* %call, %"class.xalanc_1_10::XPathExpression"** %m_expression, align 8, !dbg !6074
  %5 = load %"class.xalanc_1_10::PrefixResolver"*, %"class.xalanc_1_10::PrefixResolver"** %resolver.addr, align 8, !dbg !6075
  %m_prefixResolver = getelementptr inbounds %"class.xalanc_1_10::XPathProcessorImpl", %"class.xalanc_1_10::XPathProcessorImpl"* %this2, i32 0, i32 7, !dbg !6076
  store %"class.xalanc_1_10::PrefixResolver"* %5, %"class.xalanc_1_10::PrefixResolver"** %m_prefixResolver, align 8, !dbg !6077
  %6 = load %"class.xercesc_2_7::Locator"*, %"class.xercesc_2_7::Locator"** %locator.addr, align 8, !dbg !6078
  %m_locator = getelementptr inbounds %"class.xalanc_1_10::XPathProcessorImpl", %"class.xalanc_1_10::XPathProcessorImpl"* %this2, i32 0, i32 11, !dbg !6079
  store %"class.xercesc_2_7::Locator"* %6, %"class.xercesc_2_7::Locator"** %m_locator, align 8, !dbg !6080
  %m_expression7 = getelementptr inbounds %"class.xalanc_1_10::XPathProcessorImpl", %"class.xalanc_1_10::XPathProcessorImpl"* %this2, i32 0, i32 6, !dbg !6081
  %7 = load %"class.xalanc_1_10::XPathExpression"*, %"class.xalanc_1_10::XPathExpression"** %m_expression7, align 8, !dbg !6081
  call void @_ZN11xalanc_1_1015XPathExpression5resetEv(%"class.xalanc_1_10::XPathExpression"* %7), !dbg !6082
  %8 = load %"class.xalanc_1_10::XalanDOMString"*, %"class.xalanc_1_10::XalanDOMString"** %expression.addr, align 8, !dbg !6083
  call void @_ZN11xalanc_1_1018XPathProcessorImpl8tokenizeERKNS_14XalanDOMStringE(%"class.xalanc_1_10::XPathProcessorImpl"* %this2, %"class.xalanc_1_10::XalanDOMString"* dereferenceable(40) %8), !dbg !6084
  %m_expression8 = getelementptr inbounds %"class.xalanc_1_10::XPathProcessorImpl", %"class.xalanc_1_10::XPathProcessorImpl"* %this2, i32 0, i32 6, !dbg !6085
  %9 = load %"class.xalanc_1_10::XPathExpression"*, %"class.xalanc_1_10::XPathExpression"** %m_expression8, align 8, !dbg !6085
  %call9 = call i32 @_ZN11xalanc_1_1015XPathExpression12appendOpCodeENS0_8eOpCodesE(%"class.xalanc_1_10::XPathExpression"* %9, i32 48), !dbg !6086
  %call10 = call zeroext i1 @_ZN11xalanc_1_1018XPathProcessorImpl9nextTokenEv(%"class.xalanc_1_10::XPathProcessorImpl"* %this2), !dbg !6087
  call void @_ZN11xalanc_1_1018XPathProcessorImpl7PatternEv(%"class.xalanc_1_10::XPathProcessorImpl"* %this2), !dbg !6088
  %m_token = getelementptr inbounds %"class.xalanc_1_10::XPathProcessorImpl", %"class.xalanc_1_10::XPathProcessorImpl"* %this2, i32 0, i32 1, !dbg !6089
  %call11 = call i32 @_ZN11xalanc_1_106lengthERKNS_14XalanDOMStringE(%"class.xalanc_1_10::XalanDOMString"* dereferenceable(40) %m_token), !dbg !6091
  %cmp = icmp ne i32 %call11, 0, !dbg !6092
  br i1 %cmp, label %if.then, label %if.end, !dbg !6093

if.then:                                          ; preds = %entry
  call void @_ZNK11xalanc_1_1018XPathProcessorImpl5errorENS_13XalanMessages5CodesE(%"class.xalanc_1_10::XPathProcessorImpl"* %this2, i32 22), !dbg !6094
  br label %if.end, !dbg !6096

if.end:                                           ; preds = %if.then, %entry
  %m_expression12 = getelementptr inbounds %"class.xalanc_1_10::XPathProcessorImpl", %"class.xalanc_1_10::XPathProcessorImpl"* %this2, i32 0, i32 6, !dbg !6097
  %10 = load %"class.xalanc_1_10::XPathExpression"*, %"class.xalanc_1_10::XPathExpression"** %m_expression12, align 8, !dbg !6097
  %call13 = call i32 @_ZN11xalanc_1_1015XPathExpression12appendOpCodeENS0_8eOpCodesE(%"class.xalanc_1_10::XPathExpression"* %10, i32 -1), !dbg !6098
  %m_expression14 = getelementptr inbounds %"class.xalanc_1_10::XPathProcessorImpl", %"class.xalanc_1_10::XPathProcessorImpl"* %this2, i32 0, i32 6, !dbg !6099
  %11 = load %"class.xalanc_1_10::XPathExpression"*, %"class.xalanc_1_10::XPathExpression"** %m_expression14, align 8, !dbg !6099
  call void @_ZN11xalanc_1_1015XPathExpression6shrinkEv(%"class.xalanc_1_10::XPathExpression"* %11), !dbg !6100
  %m_xpath15 = getelementptr inbounds %"class.xalanc_1_10::XPathProcessorImpl", %"class.xalanc_1_10::XPathProcessorImpl"* %this2, i32 0, i32 4, !dbg !6101
  store %"class.xalanc_1_10::XPath"* null, %"class.xalanc_1_10::XPath"** %m_xpath15, align 8, !dbg !6102
  %m_constructionContext16 = getelementptr inbounds %"class.xalanc_1_10::XPathProcessorImpl", %"class.xalanc_1_10::XPathProcessorImpl"* %this2, i32 0, i32 5, !dbg !6103
  store %"class.xalanc_1_10::XPathConstructionContext"* null, %"class.xalanc_1_10::XPathConstructionContext"** %m_constructionContext16, align 8, !dbg !6104
  %m_expression17 = getelementptr inbounds %"class.xalanc_1_10::XPathProcessorImpl", %"class.xalanc_1_10::XPathProcessorImpl"* %this2, i32 0, i32 6, !dbg !6105
  store %"class.xalanc_1_10::XPathExpression"* null, %"class.xalanc_1_10::XPathExpression"** %m_expression17, align 8, !dbg !6106
  %m_prefixResolver18 = getelementptr inbounds %"class.xalanc_1_10::XPathProcessorImpl", %"class.xalanc_1_10::XPathProcessorImpl"* %this2, i32 0, i32 7, !dbg !6107
  store %"class.xalanc_1_10::PrefixResolver"* null, %"class.xalanc_1_10::PrefixResolver"** %m_prefixResolver18, align 8, !dbg !6108
  %m_locator19 = getelementptr inbounds %"class.xalanc_1_10::XPathProcessorImpl", %"class.xalanc_1_10::XPathProcessorImpl"* %this2, i32 0, i32 11, !dbg !6109
  store %"class.xercesc_2_7::Locator"* null, %"class.xercesc_2_7::Locator"** %m_locator19, align 8, !dbg !6110
  %m_positionPredicateStack = getelementptr inbounds %"class.xalanc_1_10::XPathProcessorImpl", %"class.xalanc_1_10::XPathProcessorImpl"* %this2, i32 0, i32 12, !dbg !6111
  call void @_ZN11xalanc_1_1011XalanVectorIbNS_31MemoryManagedConstructionTraitsIbEEE5clearEv(%"class.xalanc_1_10::XalanVector.3"* %m_positionPredicateStack), !dbg !6112
  %m_namespaces = getelementptr inbounds %"class.xalanc_1_10::XPathProcessorImpl", %"class.xalanc_1_10::XPathProcessorImpl"* %this2, i32 0, i32 13, !dbg !6113
  call void @_ZN11xalanc_1_108XalanMapINS_14XalanDOMStringEPKS1_NS_17XalanMapKeyTraitsIS1_EEE5clearEv(%"class.xalanc_1_10::XalanMap"* %m_namespaces), !dbg !6114
  ret void, !dbg !6115
}

; Function Attrs: noinline uwtable
define dso_local void @_ZN11xalanc_1_1018XPathProcessorImpl7PatternEv(%"class.xalanc_1_10::XPathProcessorImpl"* %this) #0 align 2 !dbg !6116 {
entry:
  %this.addr = alloca %"class.xalanc_1_10::XPathProcessorImpl"*, align 8
  store %"class.xalanc_1_10::XPathProcessorImpl"* %this, %"class.xalanc_1_10::XPathProcessorImpl"** %this.addr, align 8
  call void @llvm.dbg.declare(metadata %"class.xalanc_1_10::XPathProcessorImpl"** %this.addr, metadata !6117, metadata !DIExpression()), !dbg !6118
  %this1 = load %"class.xalanc_1_10::XPathProcessorImpl"*, %"class.xalanc_1_10::XPathProcessorImpl"** %this.addr, align 8
  br label %while.body, !dbg !6119

while.body:                                       ; preds = %entry, %if.end
  call void @_ZN11xalanc_1_1018XPathProcessorImpl19LocationPathPatternEv(%"class.xalanc_1_10::XPathProcessorImpl"* %this1), !dbg !6120
  %call = call zeroext i1 @_ZNK11xalanc_1_1018XPathProcessorImpl7tokenIsEt(%"class.xalanc_1_10::XPathProcessorImpl"* %this1, i16 zeroext 124), !dbg !6122
  %conv = zext i1 %call to i32, !dbg !6122
  %cmp = icmp eq i32 %conv, 1, !dbg !6124
  br i1 %cmp, label %if.then, label %if.else, !dbg !6125

if.then:                                          ; preds = %while.body
  %call2 = call zeroext i1 @_ZN11xalanc_1_1018XPathProcessorImpl9nextTokenEv(%"class.xalanc_1_10::XPathProcessorImpl"* %this1), !dbg !6126
  br label %if.end, !dbg !6128

if.else:                                          ; preds = %while.body
  br label %while.end, !dbg !6129

if.end:                                           ; preds = %if.then
  br label %while.body, !dbg !6119, !llvm.loop !6131

while.end:                                        ; preds = %if.else
  ret void, !dbg !6133
}

declare dso_local void @_ZN11xalanc_1_1015XPathExpression6shrinkEv(%"class.xalanc_1_10::XPathExpression"*) #2

; Function Attrs: noinline nounwind uwtable
define linkonce_odr dso_local void @_ZN11xalanc_1_1015XPathExpression17setCurrentPatternERKNS_14XalanDOMStringE(%"class.xalanc_1_10::XPathExpression"* %this, %"class.xalanc_1_10::XalanDOMString"* dereferenceable(40) %thePattern) #3 comdat align 2 !dbg !6134 {
entry:
  %this.addr = alloca %"class.xalanc_1_10::XPathExpression"*, align 8
  %thePattern.addr = alloca %"class.xalanc_1_10::XalanDOMString"*, align 8
  store %"class.xalanc_1_10::XPathExpression"* %this, %"class.xalanc_1_10::XPathExpression"** %this.addr, align 8
  call void @llvm.dbg.declare(metadata %"class.xalanc_1_10::XPathExpression"** %this.addr, metadata !6135, metadata !DIExpression()), !dbg !6136
  store %"class.xalanc_1_10::XalanDOMString"* %thePattern, %"class.xalanc_1_10::XalanDOMString"** %thePattern.addr, align 8
  call void @llvm.dbg.declare(metadata %"class.xalanc_1_10::XalanDOMString"** %thePattern.addr, metadata !6137, metadata !DIExpression()), !dbg !6138
  %this1 = load %"class.xalanc_1_10::XPathExpression"*, %"class.xalanc_1_10::XPathExpression"** %this.addr, align 8
  %0 = load %"class.xalanc_1_10::XalanDOMString"*, %"class.xalanc_1_10::XalanDOMString"** %thePattern.addr, align 8, !dbg !6139
  %m_currentPattern = getelementptr inbounds %"class.xalanc_1_10::XPathExpression", %"class.xalanc_1_10::XPathExpression"* %this1, i32 0, i32 4, !dbg !6140
  store %"class.xalanc_1_10::XalanDOMString"* %0, %"class.xalanc_1_10::XalanDOMString"** %m_currentPattern, align 8, !dbg !6141
  ret void, !dbg !6142
}

; Function Attrs: noinline uwtable
define linkonce_odr dso_local void @_ZN11xalanc_1_1024XPathConstructionContext25GetAndReleaseCachedStringC2ERS0_(%"class.xalanc_1_10::XPathConstructionContext::GetAndReleaseCachedString"* %this, %"class.xalanc_1_10::XPathConstructionContext"* dereferenceable(16) %theConstructionContext) unnamed_addr #0 comdat align 2 !dbg !6143 {
entry:
  %this.addr = alloca %"class.xalanc_1_10::XPathConstructionContext::GetAndReleaseCachedString"*, align 8
  %theConstructionContext.addr = alloca %"class.xalanc_1_10::XPathConstructionContext"*, align 8
  store %"class.xalanc_1_10::XPathConstructionContext::GetAndReleaseCachedString"* %this, %"class.xalanc_1_10::XPathConstructionContext::GetAndReleaseCachedString"** %this.addr, align 8
  call void @llvm.dbg.declare(metadata %"class.xalanc_1_10::XPathConstructionContext::GetAndReleaseCachedString"** %this.addr, metadata !6144, metadata !DIExpression()), !dbg !6146
  store %"class.xalanc_1_10::XPathConstructionContext"* %theConstructionContext, %"class.xalanc_1_10::XPathConstructionContext"** %theConstructionContext.addr, align 8
  call void @llvm.dbg.declare(metadata %"class.xalanc_1_10::XPathConstructionContext"** %theConstructionContext.addr, metadata !6147, metadata !DIExpression()), !dbg !6148
  %this1 = load %"class.xalanc_1_10::XPathConstructionContext::GetAndReleaseCachedString"*, %"class.xalanc_1_10::XPathConstructionContext::GetAndReleaseCachedString"** %this.addr, align 8
  %m_constructionContext = getelementptr inbounds %"class.xalanc_1_10::XPathConstructionContext::GetAndReleaseCachedString", %"class.xalanc_1_10::XPathConstructionContext::GetAndReleaseCachedString"* %this1, i32 0, i32 0, !dbg !6149
  %0 = load %"class.xalanc_1_10::XPathConstructionContext"*, %"class.xalanc_1_10::XPathConstructionContext"** %theConstructionContext.addr, align 8, !dbg !6150
  store %"class.xalanc_1_10::XPathConstructionContext"* %0, %"class.xalanc_1_10::XPathConstructionContext"** %m_constructionContext, align 8, !dbg !6149
  %m_string = getelementptr inbounds %"class.xalanc_1_10::XPathConstructionContext::GetAndReleaseCachedString", %"class.xalanc_1_10::XPathConstructionContext::GetAndReleaseCachedString"* %this1, i32 0, i32 1, !dbg !6151
  %1 = load %"class.xalanc_1_10::XPathConstructionContext"*, %"class.xalanc_1_10::XPathConstructionContext"** %theConstructionContext.addr, align 8, !dbg !6152
  %2 = bitcast %"class.xalanc_1_10::XPathConstructionContext"* %1 to %"class.xalanc_1_10::XalanDOMString"* (%"class.xalanc_1_10::XPathConstructionContext"*)***, !dbg !6153
  %vtable = load %"class.xalanc_1_10::XalanDOMString"* (%"class.xalanc_1_10::XPathConstructionContext"*)**, %"class.xalanc_1_10::XalanDOMString"* (%"class.xalanc_1_10::XPathConstructionContext"*)*** %2, align 8, !dbg !6153
  %vfn = getelementptr inbounds %"class.xalanc_1_10::XalanDOMString"* (%"class.xalanc_1_10::XPathConstructionContext"*)*, %"class.xalanc_1_10::XalanDOMString"* (%"class.xalanc_1_10::XPathConstructionContext"*)** %vtable, i64 5, !dbg !6153
  %3 = load %"class.xalanc_1_10::XalanDOMString"* (%"class.xalanc_1_10::XPathConstructionContext"*)*, %"class.xalanc_1_10::XalanDOMString"* (%"class.xalanc_1_10::XPathConstructionContext"*)** %vfn, align 8, !dbg !6153
  %call = call dereferenceable(40) %"class.xalanc_1_10::XalanDOMString"* %3(%"class.xalanc_1_10::XPathConstructionContext"* %1), !dbg !6153
  store %"class.xalanc_1_10::XalanDOMString"* %call, %"class.xalanc_1_10::XalanDOMString"** %m_string, align 8, !dbg !6151
  ret void, !dbg !6154
}

; Function Attrs: noinline nounwind uwtable
define linkonce_odr dso_local dereferenceable(40) %"class.xalanc_1_10::XalanDOMString"* @_ZNK11xalanc_1_1024XPathConstructionContext25GetAndReleaseCachedString3getEv(%"class.xalanc_1_10::XPathConstructionContext::GetAndReleaseCachedString"* %this) #3 comdat align 2 !dbg !6155 {
entry:
  %this.addr = alloca %"class.xalanc_1_10::XPathConstructionContext::GetAndReleaseCachedString"*, align 8
  store %"class.xalanc_1_10::XPathConstructionContext::GetAndReleaseCachedString"* %this, %"class.xalanc_1_10::XPathConstructionContext::GetAndReleaseCachedString"** %this.addr, align 8
  call void @llvm.dbg.declare(metadata %"class.xalanc_1_10::XPathConstructionContext::GetAndReleaseCachedString"** %this.addr, metadata !6156, metadata !DIExpression()), !dbg !6158
  %this1 = load %"class.xalanc_1_10::XPathConstructionContext::GetAndReleaseCachedString"*, %"class.xalanc_1_10::XPathConstructionContext::GetAndReleaseCachedString"** %this.addr, align 8
  %m_string = getelementptr inbounds %"class.xalanc_1_10::XPathConstructionContext::GetAndReleaseCachedString", %"class.xalanc_1_10::XPathConstructionContext::GetAndReleaseCachedString"* %this1, i32 0, i32 1, !dbg !6159
  %0 = load %"class.xalanc_1_10::XalanDOMString"*, %"class.xalanc_1_10::XalanDOMString"** %m_string, align 8, !dbg !6159
  ret %"class.xalanc_1_10::XalanDOMString"* %0, !dbg !6160
}

; Function Attrs: noinline uwtable
define linkonce_odr dso_local zeroext i16 @_ZN11xalanc_1_106charAtERKNS_14XalanDOMStringEj(%"class.xalanc_1_10::XalanDOMString"* dereferenceable(40) %theString, i32 %theIndex) #0 comdat !dbg !6161 {
entry:
  %theString.addr = alloca %"class.xalanc_1_10::XalanDOMString"*, align 8
  %theIndex.addr = alloca i32, align 4
  store %"class.xalanc_1_10::XalanDOMString"* %theString, %"class.xalanc_1_10::XalanDOMString"** %theString.addr, align 8
  call void @llvm.dbg.declare(metadata %"class.xalanc_1_10::XalanDOMString"** %theString.addr, metadata !6164, metadata !DIExpression()), !dbg !6165
  store i32 %theIndex, i32* %theIndex.addr, align 4
  call void @llvm.dbg.declare(metadata i32* %theIndex.addr, metadata !6166, metadata !DIExpression()), !dbg !6167
  %0 = load %"class.xalanc_1_10::XalanDOMString"*, %"class.xalanc_1_10::XalanDOMString"** %theString.addr, align 8, !dbg !6168
  %1 = load i32, i32* %theIndex.addr, align 4, !dbg !6169
  %call = call dereferenceable(2) i16* @_ZNK11xalanc_1_1014XalanDOMStringixEj(%"class.xalanc_1_10::XalanDOMString"* %0, i32 %1), !dbg !6168
  %2 = load i16, i16* %call, align 2, !dbg !6168
  ret i16 %2, !dbg !6170
}

; Function Attrs: noinline uwtable
define dso_local i32 @_ZN11xalanc_1_1018XPathProcessorImpl11mapNSTokensERKNS_14XalanDOMStringEiii(%"class.xalanc_1_10::XPathProcessorImpl"* %this, %"class.xalanc_1_10::XalanDOMString"* dereferenceable(40) %pat, i32 %startSubstring, i32 %posOfNSSep, i32 %posOfScan) #0 align 2 personality i8* bitcast (i32 (...)* @__gxx_personality_v0 to i8*) !dbg !6171 {
entry:
  %this.addr = alloca %"class.xalanc_1_10::XPathProcessorImpl"*, align 8
  %pat.addr = alloca %"class.xalanc_1_10::XalanDOMString"*, align 8
  %startSubstring.addr = alloca i32, align 4
  %posOfNSSep.addr = alloca i32, align 4
  %posOfScan.addr = alloca i32, align 4
  %theGuard = alloca %"class.xalanc_1_10::XPathConstructionContext::GetAndReleaseCachedString", align 8
  %scratchString = alloca %"class.xalanc_1_10::XalanDOMString"*, align 8
  %exn.slot = alloca i8*
  %ehselector.slot = alloca i32
  %uName = alloca %"class.xalanc_1_10::XalanDOMString"*, align 8
  store %"class.xalanc_1_10::XPathProcessorImpl"* %this, %"class.xalanc_1_10::XPathProcessorImpl"** %this.addr, align 8
  call void @llvm.dbg.declare(metadata %"class.xalanc_1_10::XPathProcessorImpl"** %this.addr, metadata !6172, metadata !DIExpression()), !dbg !6173
  store %"class.xalanc_1_10::XalanDOMString"* %pat, %"class.xalanc_1_10::XalanDOMString"** %pat.addr, align 8
  call void @llvm.dbg.declare(metadata %"class.xalanc_1_10::XalanDOMString"** %pat.addr, metadata !6174, metadata !DIExpression()), !dbg !6175
  store i32 %startSubstring, i32* %startSubstring.addr, align 4
  call void @llvm.dbg.declare(metadata i32* %startSubstring.addr, metadata !6176, metadata !DIExpression()), !dbg !6177
  store i32 %posOfNSSep, i32* %posOfNSSep.addr, align 4
  call void @llvm.dbg.declare(metadata i32* %posOfNSSep.addr, metadata !6178, metadata !DIExpression()), !dbg !6179
  store i32 %posOfScan, i32* %posOfScan.addr, align 4
  call void @llvm.dbg.declare(metadata i32* %posOfScan.addr, metadata !6180, metadata !DIExpression()), !dbg !6181
  %this1 = load %"class.xalanc_1_10::XPathProcessorImpl"*, %"class.xalanc_1_10::XPathProcessorImpl"** %this.addr, align 8
  call void @llvm.dbg.declare(metadata %"class.xalanc_1_10::XPathConstructionContext::GetAndReleaseCachedString"* %theGuard, metadata !6182, metadata !DIExpression()), !dbg !6183
  %m_constructionContext = getelementptr inbounds %"class.xalanc_1_10::XPathProcessorImpl", %"class.xalanc_1_10::XPathProcessorImpl"* %this1, i32 0, i32 5, !dbg !6184
  %0 = load %"class.xalanc_1_10::XPathConstructionContext"*, %"class.xalanc_1_10::XPathConstructionContext"** %m_constructionContext, align 8, !dbg !6184
  call void @_ZN11xalanc_1_1024XPathConstructionContext25GetAndReleaseCachedStringC2ERS0_(%"class.xalanc_1_10::XPathConstructionContext::GetAndReleaseCachedString"* %theGuard, %"class.xalanc_1_10::XPathConstructionContext"* dereferenceable(16) %0), !dbg !6183
  call void @llvm.dbg.declare(metadata %"class.xalanc_1_10::XalanDOMString"** %scratchString, metadata !6185, metadata !DIExpression()), !dbg !6186
  %call = invoke dereferenceable(40) %"class.xalanc_1_10::XalanDOMString"* @_ZNK11xalanc_1_1024XPathConstructionContext25GetAndReleaseCachedString3getEv(%"class.xalanc_1_10::XPathConstructionContext::GetAndReleaseCachedString"* %theGuard)
          to label %invoke.cont unwind label %lpad, !dbg !6187

invoke.cont:                                      ; preds = %entry
  store %"class.xalanc_1_10::XalanDOMString"* %call, %"class.xalanc_1_10::XalanDOMString"** %scratchString, align 8, !dbg !6186
  %1 = load %"class.xalanc_1_10::XalanDOMString"*, %"class.xalanc_1_10::XalanDOMString"** %scratchString, align 8, !dbg !6188
  %2 = load %"class.xalanc_1_10::XalanDOMString"*, %"class.xalanc_1_10::XalanDOMString"** %pat.addr, align 8, !dbg !6189
  %3 = load i32, i32* %startSubstring.addr, align 4, !dbg !6190
  %4 = load i32, i32* %posOfNSSep.addr, align 4, !dbg !6191
  %5 = load i32, i32* %startSubstring.addr, align 4, !dbg !6192
  %sub = sub nsw i32 %4, %5, !dbg !6193
  %call3 = invoke dereferenceable(40) %"class.xalanc_1_10::XalanDOMString"* @_ZN11xalanc_1_1014XalanDOMString6assignERKS0_jj(%"class.xalanc_1_10::XalanDOMString"* %1, %"class.xalanc_1_10::XalanDOMString"* dereferenceable(40) %2, i32 %3, i32 %sub)
          to label %invoke.cont2 unwind label %lpad, !dbg !6194

invoke.cont2:                                     ; preds = %invoke.cont
  %6 = load %"class.xalanc_1_10::XalanDOMString"*, %"class.xalanc_1_10::XalanDOMString"** %scratchString, align 8, !dbg !6195
  %call5 = invoke zeroext i1 @_ZN11xalanc_1_1010XalanQName13isValidNCNameERKNS_14XalanDOMStringE(%"class.xalanc_1_10::XalanDOMString"* dereferenceable(40) %6)
          to label %invoke.cont4 unwind label %lpad, !dbg !6197

invoke.cont4:                                     ; preds = %invoke.cont2
  %conv = zext i1 %call5 to i32, !dbg !6197
  %cmp = icmp eq i32 %conv, 0, !dbg !6198
  br i1 %cmp, label %if.then, label %if.end, !dbg !6199

if.then:                                          ; preds = %invoke.cont4
  %7 = load %"class.xalanc_1_10::XalanDOMString"*, %"class.xalanc_1_10::XalanDOMString"** %scratchString, align 8, !dbg !6200
  invoke void @_ZNK11xalanc_1_1018XPathProcessorImpl5errorENS_13XalanMessages5CodesERKNS_14XalanDOMStringE(%"class.xalanc_1_10::XPathProcessorImpl"* %this1, i32 61, %"class.xalanc_1_10::XalanDOMString"* dereferenceable(40) %7)
          to label %invoke.cont6 unwind label %lpad, !dbg !6202

invoke.cont6:                                     ; preds = %if.then
  br label %if.end, !dbg !6203

lpad:                                             ; preds = %if.else35, %if.then33, %invoke.cont27, %if.then23, %invoke.cont20, %invoke.cont18, %if.else17, %if.then15, %if.else, %if.then10, %if.end, %if.then, %invoke.cont2, %invoke.cont, %entry
  %8 = landingpad { i8*, i32 }
          cleanup, !dbg !6204
  %9 = extractvalue { i8*, i32 } %8, 0, !dbg !6204
  store i8* %9, i8** %exn.slot, align 8, !dbg !6204
  %10 = extractvalue { i8*, i32 } %8, 1, !dbg !6204
  store i32 %10, i32* %ehselector.slot, align 4, !dbg !6204
  call void @_ZN11xalanc_1_1024XPathConstructionContext25GetAndReleaseCachedStringD2Ev(%"class.xalanc_1_10::XPathConstructionContext::GetAndReleaseCachedString"* %theGuard) #6, !dbg !6204
  br label %eh.resume, !dbg !6204

if.end:                                           ; preds = %invoke.cont6, %invoke.cont4
  call void @llvm.dbg.declare(metadata %"class.xalanc_1_10::XalanDOMString"** %uName, metadata !6205, metadata !DIExpression()), !dbg !6207
  %m_prefixResolver = getelementptr inbounds %"class.xalanc_1_10::XPathProcessorImpl", %"class.xalanc_1_10::XPathProcessorImpl"* %this1, i32 0, i32 7, !dbg !6208
  %11 = load %"class.xalanc_1_10::PrefixResolver"*, %"class.xalanc_1_10::PrefixResolver"** %m_prefixResolver, align 8, !dbg !6208
  %12 = load %"class.xalanc_1_10::XalanDOMString"*, %"class.xalanc_1_10::XalanDOMString"** %scratchString, align 8, !dbg !6209
  %13 = bitcast %"class.xalanc_1_10::PrefixResolver"* %11 to %"class.xalanc_1_10::XalanDOMString"* (%"class.xalanc_1_10::PrefixResolver"*, %"class.xalanc_1_10::XalanDOMString"*)***, !dbg !6210
  %vtable = load %"class.xalanc_1_10::XalanDOMString"* (%"class.xalanc_1_10::PrefixResolver"*, %"class.xalanc_1_10::XalanDOMString"*)**, %"class.xalanc_1_10::XalanDOMString"* (%"class.xalanc_1_10::PrefixResolver"*, %"class.xalanc_1_10::XalanDOMString"*)*** %13, align 8, !dbg !6210
  %vfn = getelementptr inbounds %"class.xalanc_1_10::XalanDOMString"* (%"class.xalanc_1_10::PrefixResolver"*, %"class.xalanc_1_10::XalanDOMString"*)*, %"class.xalanc_1_10::XalanDOMString"* (%"class.xalanc_1_10::PrefixResolver"*, %"class.xalanc_1_10::XalanDOMString"*)** %vtable, i64 2, !dbg !6210
  %14 = load %"class.xalanc_1_10::XalanDOMString"* (%"class.xalanc_1_10::PrefixResolver"*, %"class.xalanc_1_10::XalanDOMString"*)*, %"class.xalanc_1_10::XalanDOMString"* (%"class.xalanc_1_10::PrefixResolver"*, %"class.xalanc_1_10::XalanDOMString"*)** %vfn, align 8, !dbg !6210
  %call8 = invoke %"class.xalanc_1_10::XalanDOMString"* %14(%"class.xalanc_1_10::PrefixResolver"* %11, %"class.xalanc_1_10::XalanDOMString"* dereferenceable(40) %12)
          to label %invoke.cont7 unwind label %lpad, !dbg !6210

invoke.cont7:                                     ; preds = %if.end
  store %"class.xalanc_1_10::XalanDOMString"* %call8, %"class.xalanc_1_10::XalanDOMString"** %uName, align 8, !dbg !6207
  %15 = load %"class.xalanc_1_10::XalanDOMString"*, %"class.xalanc_1_10::XalanDOMString"** %uName, align 8, !dbg !6211
  %cmp9 = icmp eq %"class.xalanc_1_10::XalanDOMString"* %15, null, !dbg !6213
  br i1 %cmp9, label %if.then10, label %if.else, !dbg !6214

if.then10:                                        ; preds = %invoke.cont7
  %16 = load %"class.xalanc_1_10::XalanDOMString"*, %"class.xalanc_1_10::XalanDOMString"** %scratchString, align 8, !dbg !6215
  invoke void @_ZNK11xalanc_1_1018XPathProcessorImpl5errorENS_13XalanMessages5CodesERKNS_14XalanDOMStringE(%"class.xalanc_1_10::XPathProcessorImpl"* %this1, i32 27, %"class.xalanc_1_10::XalanDOMString"* dereferenceable(40) %16)
          to label %invoke.cont11 unwind label %lpad, !dbg !6217

invoke.cont11:                                    ; preds = %if.then10
  br label %if.end40, !dbg !6218

if.else:                                          ; preds = %invoke.cont7
  %17 = load %"class.xalanc_1_10::XalanDOMString"*, %"class.xalanc_1_10::XalanDOMString"** %uName, align 8, !dbg !6219
  %call13 = invoke i32 @_ZN11xalanc_1_106lengthERKNS_14XalanDOMStringE(%"class.xalanc_1_10::XalanDOMString"* dereferenceable(40) %17)
          to label %invoke.cont12 unwind label %lpad, !dbg !6221

invoke.cont12:                                    ; preds = %if.else
  %cmp14 = icmp eq i32 %call13, 0, !dbg !6222
  br i1 %cmp14, label %if.then15, label %if.else17, !dbg !6223

if.then15:                                        ; preds = %invoke.cont12
  %18 = load %"class.xalanc_1_10::XalanDOMString"*, %"class.xalanc_1_10::XalanDOMString"** %scratchString, align 8, !dbg !6224
  invoke void @_ZNK11xalanc_1_1018XPathProcessorImpl5errorENS_13XalanMessages5CodesERKNS_14XalanDOMStringE(%"class.xalanc_1_10::XPathProcessorImpl"* %this1, i32 26, %"class.xalanc_1_10::XalanDOMString"* dereferenceable(40) %18)
          to label %invoke.cont16 unwind label %lpad, !dbg !6226

invoke.cont16:                                    ; preds = %if.then15
  br label %if.end39, !dbg !6227

if.else17:                                        ; preds = %invoke.cont12
  %19 = load %"class.xalanc_1_10::XalanDOMString"*, %"class.xalanc_1_10::XalanDOMString"** %uName, align 8, !dbg !6228
  %m_namespaces = getelementptr inbounds %"class.xalanc_1_10::XPathProcessorImpl", %"class.xalanc_1_10::XPathProcessorImpl"* %this1, i32 0, i32 13, !dbg !6230
  %20 = load %"class.xalanc_1_10::XalanDOMString"*, %"class.xalanc_1_10::XalanDOMString"** %scratchString, align 8, !dbg !6231
  %call19 = invoke dereferenceable(8) %"class.xalanc_1_10::XalanDOMString"** @_ZN11xalanc_1_108XalanMapINS_14XalanDOMStringEPKS1_NS_17XalanMapKeyTraitsIS1_EEEixERS2_(%"class.xalanc_1_10::XalanMap"* %m_namespaces, %"class.xalanc_1_10::XalanDOMString"* dereferenceable(40) %20)
          to label %invoke.cont18 unwind label %lpad, !dbg !6230

invoke.cont18:                                    ; preds = %if.else17
  store %"class.xalanc_1_10::XalanDOMString"* %19, %"class.xalanc_1_10::XalanDOMString"** %call19, align 8, !dbg !6232
  %21 = load %"class.xalanc_1_10::XalanDOMString"*, %"class.xalanc_1_10::XalanDOMString"** %scratchString, align 8, !dbg !6233
  invoke void @_ZNK11xalanc_1_1018XPathProcessorImpl15addToTokenQueueERKNS_14XalanDOMStringE(%"class.xalanc_1_10::XPathProcessorImpl"* %this1, %"class.xalanc_1_10::XalanDOMString"* dereferenceable(40) %21)
          to label %invoke.cont20 unwind label %lpad, !dbg !6234

invoke.cont20:                                    ; preds = %invoke.cont18
  %22 = load %"class.xalanc_1_10::XalanDOMString"*, %"class.xalanc_1_10::XalanDOMString"** @_ZN11xalanc_1_1011DOMServices29s_XMLNamespaceSeparatorStringE, align 8, !dbg !6235
  invoke void @_ZNK11xalanc_1_1018XPathProcessorImpl15addToTokenQueueERKNS_14XalanDOMStringE(%"class.xalanc_1_10::XPathProcessorImpl"* %this1, %"class.xalanc_1_10::XalanDOMString"* dereferenceable(40) %22)
          to label %invoke.cont21 unwind label %lpad, !dbg !6236

invoke.cont21:                                    ; preds = %invoke.cont20
  %23 = load i32, i32* %posOfNSSep.addr, align 4, !dbg !6237
  %add = add nsw i32 %23, 1, !dbg !6239
  %24 = load i32, i32* %posOfScan.addr, align 4, !dbg !6240
  %cmp22 = icmp slt i32 %add, %24, !dbg !6241
  br i1 %cmp22, label %if.then23, label %if.end38, !dbg !6242

if.then23:                                        ; preds = %invoke.cont21
  %25 = load %"class.xalanc_1_10::XalanDOMString"*, %"class.xalanc_1_10::XalanDOMString"** %scratchString, align 8, !dbg !6243
  %26 = load %"class.xalanc_1_10::XalanDOMString"*, %"class.xalanc_1_10::XalanDOMString"** %pat.addr, align 8, !dbg !6245
  %27 = load i32, i32* %posOfNSSep.addr, align 4, !dbg !6246
  %add24 = add nsw i32 %27, 1, !dbg !6247
  %28 = load i32, i32* %posOfScan.addr, align 4, !dbg !6248
  %29 = load i32, i32* %posOfNSSep.addr, align 4, !dbg !6249
  %add25 = add nsw i32 %29, 1, !dbg !6250
  %sub26 = sub nsw i32 %28, %add25, !dbg !6251
  %call28 = invoke dereferenceable(40) %"class.xalanc_1_10::XalanDOMString"* @_ZN11xalanc_1_1014XalanDOMString6assignERKS0_jj(%"class.xalanc_1_10::XalanDOMString"* %25, %"class.xalanc_1_10::XalanDOMString"* dereferenceable(40) %26, i32 %add24, i32 %sub26)
          to label %invoke.cont27 unwind label %lpad, !dbg !6252

invoke.cont27:                                    ; preds = %if.then23
  %30 = load %"class.xalanc_1_10::XalanDOMString"*, %"class.xalanc_1_10::XalanDOMString"** %scratchString, align 8, !dbg !6253
  %call30 = invoke zeroext i1 @_ZN11xalanc_1_1010XalanQName13isValidNCNameERKNS_14XalanDOMStringE(%"class.xalanc_1_10::XalanDOMString"* dereferenceable(40) %30)
          to label %invoke.cont29 unwind label %lpad, !dbg !6255

invoke.cont29:                                    ; preds = %invoke.cont27
  %conv31 = zext i1 %call30 to i32, !dbg !6255
  %cmp32 = icmp eq i32 %conv31, 0, !dbg !6256
  br i1 %cmp32, label %if.then33, label %if.else35, !dbg !6257

if.then33:                                        ; preds = %invoke.cont29
