; ModuleID = 'XalanFileUtility.cpp'
source_filename = "XalanFileUtility.cpp"
target datalayout = "e-m:e-p270:32:32-p271:32:32-p272:64:64-i64:64-f80:128-n8:16:32:64-S128"
target triple = "x86_64-unknown-linux-gnu"

%"class.std::ios_base::Init" = type { i8 }
%"class.xalanc_1_10::XalanDOMString" = type <{ %"class.xalanc_1_10::XalanVector", i32, [4 x i8] }>
%"class.xalanc_1_10::XalanVector" = type { %"class.xercesc_2_7::MemoryManager"*, i64, i64, i16* }
%"class.xercesc_2_7::MemoryManager" = type { i32 (...)** }
%"class.std::basic_ostream" = type { i32 (...)**, %"class.std::basic_ios" }
%"class.std::basic_ios" = type { %"class.std::ios_base", %"class.std::basic_ostream"*, i8, i8, %"class.std::basic_streambuf"*, %"class.std::ctype"*, %"class.std::num_put"*, %"class.std::num_get"* }
%"class.std::ios_base" = type { i32 (...)**, i64, i64, i32, i32, i32, %"struct.std::ios_base::_Callback_list"*, %"struct.std::ios_base::_Words", [8 x %"struct.std::ios_base::_Words"], i32, %"struct.std::ios_base::_Words"*, %"class.std::locale" }
%"struct.std::ios_base::_Callback_list" = type { %"struct.std::ios_base::_Callback_list"*, void (i32, %"class.std::ios_base"*, i32)*, i32, i32 }
%"struct.std::ios_base::_Words" = type { i8*, i64 }
%"class.std::locale" = type { %"class.std::locale::_Impl"* }
%"class.std::locale::_Impl" = type { i32, %"class.std::locale::facet"**, i64, %"class.std::locale::facet"**, i8** }
%"class.std::locale::facet" = type <{ i32 (...)**, i32, [4 x i8] }>
%"class.std::basic_streambuf" = type { i32 (...)**, i8*, i8*, i8*, i8*, i8*, i8*, %"class.std::locale" }
%"class.std::ctype" = type <{ %"class.std::locale::facet.base", [4 x i8], %struct.__locale_struct*, i8, [7 x i8], i32*, i32*, i16*, i8, [256 x i8], [256 x i8], i8, [6 x i8] }>
%"class.std::locale::facet.base" = type <{ i32 (...)**, i32 }>
%struct.__locale_struct = type { [13 x %struct.__locale_data*], i16*, i32*, i32*, [13 x i8*] }
%struct.__locale_data = type opaque
%"class.std::num_put" = type { %"class.std::locale::facet.base", [4 x i8] }
%"class.std::num_get" = type { %"class.std::locale::facet.base", [4 x i8] }
%"struct.xalanc_1_10::XalanFileUtility::reportStruct" = type <{ %"class.xalanc_1_10::XalanDOMString", %"class.xalanc_1_10::XalanDOMString", %"class.xalanc_1_10::XalanDOMString", %"class.xalanc_1_10::XalanDOMString", %"class.xalanc_1_10::XalanDOMString", i8*, %"class.xalanc_1_10::XalanDOMString", %"class.xalanc_1_10::XalanDOMString", %"class.xalanc_1_10::XalanDOMString", i32, i32, i32, [4 x i8] }>
%"struct.xalanc_1_10::XalanFileUtility::cmdParams" = type { %"class.std::ostrstream", %"class.xalanc_1_10::XalanDOMString", %"class.xalanc_1_10::XalanDOMString", %"class.xalanc_1_10::XalanDOMString", %"class.xalanc_1_10::XalanDOMString", i32, i8, i64 }
%"class.std::ostrstream" = type { %"class.std::basic_ostream.base", %"class.std::strstreambuf", %"class.std::basic_ios" }
%"class.std::basic_ostream.base" = type { i32 (...)** }
%"class.std::strstreambuf" = type <{ %"class.std::basic_streambuf", i8* (i64)*, void (i8*)*, i8, [7 x i8] }>
%"class.xalanc_1_10::XalanFileUtility" = type { %"struct.xalanc_1_10::XalanFileUtility::reportStruct", %"struct.xalanc_1_10::XalanFileUtility::cmdParams", %"class.xercesc_2_7::MemoryManager"* }
%"class.xercesc_2_7::XMLDeleter" = type { i32 (...)** }
%"class.xalanc_1_10::XalanVector.0" = type { %"class.xercesc_2_7::MemoryManager"*, i64, i64, i8* }
%"class.xalanc_1_10::XalanVector.1" = type { %"class.xercesc_2_7::MemoryManager"*, i64, i64, %"class.xalanc_1_10::XalanDOMString"* }
%"struct.xalanc_1_10::DirectoryEnumeratorFunctor" = type { %"struct.xalanc_1_10::FilesOnlyFilterPredicate", %"struct.xalanc_1_10::c_wstr_functor", i8, %"class.xercesc_2_7::MemoryManager"* }
%"struct.xalanc_1_10::FilesOnlyFilterPredicate" = type { i8 }
%"struct.xalanc_1_10::c_wstr_functor" = type { i8 }
%"struct.std::unary_function" = type { i8 }
%"class.std::back_insert_iterator" = type { %"class.xalanc_1_10::XalanVector.1"* }
%"struct.xalanc_1_10::DirectoryEnumeratorFunctor.4" = type { %"struct.xalanc_1_10::DirectoryFilterPredicate", %"struct.xalanc_1_10::c_wstr_functor", i8, %"class.xercesc_2_7::MemoryManager"* }
%"struct.xalanc_1_10::DirectoryFilterPredicate" = type { i8 }
%struct._IO_FILE = type { i32, i8*, i8*, i8*, i8*, i8*, i8*, i8*, i8*, i8*, i8*, i8*, %struct._IO_marker*, %struct._IO_FILE*, i32, i32, i64, i16, i8, [1 x i8], i8*, i64, %struct._IO_codecvt*, %struct._IO_wide_data*, %struct._IO_FILE*, i8*, i64, i32, [20 x i8] }
%struct._IO_marker = type opaque
%struct._IO_codecvt = type opaque
%struct._IO_wide_data = type opaque
%struct.tm = type { i32, i32, i32, i32, i32, i32, i32, i32, i32, i64, i8* }
%"class.xalanc_1_10::FormatterListener" = type { %"class.xercesc_2_7::DocumentHandler", %"class.xalanc_1_10::PrefixResolver"*, i32, i32 }
%"class.xercesc_2_7::DocumentHandler" = type { i32 (...)** }
%"class.xalanc_1_10::PrefixResolver" = type { i32 (...)** }
%"class.xalanc_1_10::PrintWriter" = type { %"class.xalanc_1_10::Writer", i8, %"class.xercesc_2_7::MemoryManager"* }
%"class.xalanc_1_10::Writer" = type { i32 (...)** }
%"class.xalanc_1_10::StylesheetRoot" = type { %"class.xalanc_1_10::Stylesheet", %"class.xalanc_1_10::XalanDOMString", i32, [4 x i8], %"class.xalanc_1_10::XalanDOMString", %"class.xalanc_1_10::XalanDOMString", %"class.xalanc_1_10::XalanDOMString", %"class.xalanc_1_10::XalanDOMString", i8, [7 x i8], %"class.xalanc_1_10::XalanDOMString", %"class.xalanc_1_10::XalanDOMString", i32, %"class.xalanc_1_10::XalanVector.44", i8, %"class.xalanc_1_10::XalanVector.1", %"class.xalanc_1_10::ElemTemplateElement"*, %"class.xalanc_1_10::ElemTemplateElement"*, %"class.xalanc_1_10::ElemTemplateElement"*, i8, i8, i32, i8, i64, %"class.xalanc_1_10::XalanMap.45" }
%"class.xalanc_1_10::Stylesheet" = type { %"class.xalanc_1_10::PrefixResolver", %"class.xalanc_1_10::StylesheetRoot"*, %"class.xalanc_1_10::XalanDOMString", %"class.xalanc_1_10::XalanVector.5", %"class.xalanc_1_10::XalanVector.9", %"class.xalanc_1_10::XalanDOMString", %"class.xalanc_1_10::XalanVector.10", i64, %"class.xalanc_1_10::XalanDeque", %"class.xalanc_1_10::XalanDeque.13", i8, %"class.xalanc_1_10::XalanMap", %"class.xalanc_1_10::ElemTemplate"*, %"class.xalanc_1_10::XalanVector.1", %"class.xalanc_1_10::XalanMap.19", %"class.xalanc_1_10::XalanVector.26", double, %"class.xalanc_1_10::XalanMap.27", %"struct.xalanc_1_10::XalanMapIterator", %"class.xalanc_1_10::XalanVector.32", %"class.xalanc_1_10::XalanMap.27", %"struct.xalanc_1_10::XalanMapIterator", %"class.xalanc_1_10::XalanVector.32", %"class.xalanc_1_10::XalanVector.32", %"class.xalanc_1_10::XalanVector.32", %"class.xalanc_1_10::XalanVector.32", %"class.xalanc_1_10::XalanVector.32", %"class.xalanc_1_10::XalanVector.32", i64, %"class.xalanc_1_10::XalanVector.33", %"class.xalanc_1_10::NamespacesHandler" }
%"class.xalanc_1_10::XalanVector.5" = type { %"class.xercesc_2_7::MemoryManager"*, i64, i64, %"class.xalanc_1_10::KeyDeclaration"* }
%"class.xalanc_1_10::KeyDeclaration" = type { %"class.xalanc_1_10::XalanQName"*, %"class.xalanc_1_10::XPath"*, %"class.xalanc_1_10::XPath"*, %"class.xalanc_1_10::XalanDOMString"*, i64, i64 }
%"class.xalanc_1_10::XalanQName" = type { i32 (...)** }
%"class.xalanc_1_10::XPath" = type <{ %"class.xalanc_1_10::XPathExpression", %"class.xercesc_2_7::Locator"*, i8, [7 x i8] }>
%"class.xalanc_1_10::XPathExpression" = type { %"class.xalanc_1_10::XalanVector.6", i32, %"class.xalanc_1_10::XalanVector.7", i32, %"class.xalanc_1_10::XalanDOMString"*, %"class.xalanc_1_10::XalanVector.8" }
%"class.xalanc_1_10::XalanVector.6" = type { %"class.xercesc_2_7::MemoryManager"*, i64, i64, i32* }
%"class.xalanc_1_10::XalanVector.7" = type { %"class.xercesc_2_7::MemoryManager"*, i64, i64, %"class.xalanc_1_10::XToken"* }
%"class.xalanc_1_10::XToken" = type <{ %"class.xalanc_1_10::XObject", %"class.xalanc_1_10::XalanDOMString"*, double, i8, [7 x i8] }>
%"class.xalanc_1_10::XObject" = type { %"class.xalanc_1_10::XalanReferenceCountedObject.base", i32, %"class.xalanc_1_10::XObjectFactory"* }
%"class.xalanc_1_10::XalanReferenceCountedObject.base" = type <{ i32 (...)**, i32 }>
%"class.xalanc_1_10::XObjectFactory" = type opaque
%"class.xalanc_1_10::XalanVector.8" = type { %"class.xercesc_2_7::MemoryManager"*, i64, i64, double* }
%"class.xercesc_2_7::Locator" = type { i32 (...)** }
%"class.xalanc_1_10::XalanVector.9" = type { %"class.xercesc_2_7::MemoryManager"*, i64, i64, %"class.xalanc_1_10::XalanSpaceNodeTester"* }
%"class.xalanc_1_10::XalanSpaceNodeTester" = type { %"class.xalanc_1_10::XPath::NodeTester", i32, i32 }
%"class.xalanc_1_10::XPath::NodeTester" = type { %"class.xalanc_1_10::XPathExecutionContext"*, %"class.xalanc_1_10::XalanDOMString"*, %"class.xalanc_1_10::XalanDOMString"*, { i64, i64 }, { i64, i64 } }
%"class.xalanc_1_10::XPathExecutionContext" = type { %"class.xalanc_1_10::ExecutionContext", %"class.xalanc_1_10::XObjectFactory"* }
%"class.xalanc_1_10::ExecutionContext" = type { i32 (...)**, %"class.xercesc_2_7::MemoryManager"* }
%"class.xalanc_1_10::XalanVector.10" = type { %"class.xercesc_2_7::MemoryManager"*, i64, i64, %"class.xalanc_1_10::Stylesheet"** }
%"class.xalanc_1_10::XalanDeque" = type { %"class.xercesc_2_7::MemoryManager"*, i64, %"class.xalanc_1_10::XalanVector.11", %"class.xalanc_1_10::XalanVector.11" }
%"class.xalanc_1_10::XalanVector.11" = type { %"class.xercesc_2_7::MemoryManager"*, i64, i64, %"class.xalanc_1_10::XalanVector.12"** }
%"class.xalanc_1_10::XalanVector.12" = type { %"class.xercesc_2_7::MemoryManager"*, i64, i64, %"class.xalanc_1_10::XalanDeque.13"* }
%"class.xalanc_1_10::XalanDeque.13" = type { %"class.xercesc_2_7::MemoryManager"*, i64, %"class.xalanc_1_10::XalanVector.14", %"class.xalanc_1_10::XalanVector.14" }
%"class.xalanc_1_10::XalanVector.14" = type { %"class.xercesc_2_7::MemoryManager"*, i64, i64, %"class.xalanc_1_10::XalanVector.15"** }
%"class.xalanc_1_10::XalanVector.15" = type { %"class.xercesc_2_7::MemoryManager"*, i64, i64, %"class.xalanc_1_10::NameSpace"* }
%"class.xalanc_1_10::NameSpace" = type { %"class.xalanc_1_10::XalanDOMString", %"class.xalanc_1_10::XalanDOMString" }
%"class.xalanc_1_10::XalanMap" = type { %"struct.xalanc_1_10::DOMStringHashFunction", %"struct.std::equal_to", %"class.xercesc_2_7::MemoryManager"*, float, i64, i64, %"class.xalanc_1_10::XalanList", %"class.xalanc_1_10::XalanList", %"class.xalanc_1_10::XalanVector.17", i64, i64 }
%"struct.xalanc_1_10::DOMStringHashFunction" = type { i8 }
%"struct.std::equal_to" = type { i8 }
%"class.xalanc_1_10::XalanList" = type { %"class.xercesc_2_7::MemoryManager"*, %"struct.xalanc_1_10::XalanList<xalanc_1_10::XalanMap<xalanc_1_10::XalanDOMString, xalanc_1_10::ExtensionNSHandler *, xalanc_1_10::XalanMapKeyTraits<xalanc_1_10::XalanDOMString> >::Entry>::Node"*, %"struct.xalanc_1_10::XalanList<xalanc_1_10::XalanMap<xalanc_1_10::XalanDOMString, xalanc_1_10::ExtensionNSHandler *, xalanc_1_10::XalanMapKeyTraits<xalanc_1_10::XalanDOMString> >::Entry>::Node"* }
%"struct.xalanc_1_10::XalanList<xalanc_1_10::XalanMap<xalanc_1_10::XalanDOMString, xalanc_1_10::ExtensionNSHandler *, xalanc_1_10::XalanMapKeyTraits<xalanc_1_10::XalanDOMString> >::Entry>::Node" = type { %"struct.xalanc_1_10::XalanMap<xalanc_1_10::XalanDOMString, xalanc_1_10::ExtensionNSHandler *, xalanc_1_10::XalanMapKeyTraits<xalanc_1_10::XalanDOMString> >::Entry", %"struct.xalanc_1_10::XalanList<xalanc_1_10::XalanMap<xalanc_1_10::XalanDOMString, xalanc_1_10::ExtensionNSHandler *, xalanc_1_10::XalanMapKeyTraits<xalanc_1_10::XalanDOMString> >::Entry>::Node"*, %"struct.xalanc_1_10::XalanList<xalanc_1_10::XalanMap<xalanc_1_10::XalanDOMString, xalanc_1_10::ExtensionNSHandler *, xalanc_1_10::XalanMapKeyTraits<xalanc_1_10::XalanDOMString> >::Entry>::Node"* }
%"struct.xalanc_1_10::XalanMap<xalanc_1_10::XalanDOMString, xalanc_1_10::ExtensionNSHandler *, xalanc_1_10::XalanMapKeyTraits<xalanc_1_10::XalanDOMString> >::Entry" = type <{ %"struct.std::pair"*, i8, [7 x i8] }>
%"struct.std::pair" = type { %"class.xalanc_1_10::XalanDOMString", %"class.xalanc_1_10::ExtensionNSHandler"* }
%"class.xalanc_1_10::ExtensionNSHandler" = type opaque
%"class.xalanc_1_10::XalanVector.17" = type { %"class.xercesc_2_7::MemoryManager"*, i64, i64, %"class.xalanc_1_10::XalanVector.18"* }
%"class.xalanc_1_10::XalanVector.18" = type { %"class.xercesc_2_7::MemoryManager"*, i64, i64, %"struct.xalanc_1_10::XalanListIteratorBase"* }
%"struct.xalanc_1_10::XalanListIteratorBase" = type { %"struct.xalanc_1_10::XalanList<xalanc_1_10::XalanMap<xalanc_1_10::XalanDOMString, xalanc_1_10::ExtensionNSHandler *, xalanc_1_10::XalanMapKeyTraits<xalanc_1_10::XalanDOMString> >::Entry>::Node"* }
%"class.xalanc_1_10::ElemTemplate" = type opaque
%"class.xalanc_1_10::XalanMap.19" = type { %"struct.xalanc_1_10::XalanHashMemberReference", %"struct.std::equal_to.20", %"class.xercesc_2_7::MemoryManager"*, float, i64, i64, %"class.xalanc_1_10::XalanList.22", %"class.xalanc_1_10::XalanList.22", %"class.xalanc_1_10::XalanVector.23", i64, i64 }
%"struct.xalanc_1_10::XalanHashMemberReference" = type { i8 }
%"struct.std::equal_to.20" = type { i8 }
%"class.xalanc_1_10::XalanList.22" = type { %"class.xercesc_2_7::MemoryManager"*, %"struct.xalanc_1_10::XalanList<xalanc_1_10::XalanMap<xalanc_1_10::XalanQNameByReference, const xalanc_1_10::ElemTemplate *, xalanc_1_10::XalanMapKeyTraits<xalanc_1_10::XalanQNameByReference> >::Entry>::Node"*, %"struct.xalanc_1_10::XalanList<xalanc_1_10::XalanMap<xalanc_1_10::XalanQNameByReference, const xalanc_1_10::ElemTemplate *, xalanc_1_10::XalanMapKeyTraits<xalanc_1_10::XalanQNameByReference> >::Entry>::Node"* }
%"struct.xalanc_1_10::XalanList<xalanc_1_10::XalanMap<xalanc_1_10::XalanQNameByReference, const xalanc_1_10::ElemTemplate *, xalanc_1_10::XalanMapKeyTraits<xalanc_1_10::XalanQNameByReference> >::Entry>::Node" = type opaque
%"class.xalanc_1_10::XalanVector.23" = type { %"class.xercesc_2_7::MemoryManager"*, i64, i64, %"class.xalanc_1_10::XalanVector.24"* }
%"class.xalanc_1_10::XalanVector.24" = type { %"class.xercesc_2_7::MemoryManager"*, i64, i64, %"struct.xalanc_1_10::XalanListIteratorBase.25"* }
%"struct.xalanc_1_10::XalanListIteratorBase.25" = type opaque
%"class.xalanc_1_10::XalanVector.26" = type { %"class.xercesc_2_7::MemoryManager"*, i64, i64, %"class.xalanc_1_10::ElemVariable"** }
%"class.xalanc_1_10::ElemVariable" = type opaque
%"class.xalanc_1_10::XalanMap.27" = type { %"struct.xalanc_1_10::DOMStringHashFunction", %"struct.std::equal_to", %"class.xercesc_2_7::MemoryManager"*, float, i64, i64, %"class.xalanc_1_10::XalanList.28", %"class.xalanc_1_10::XalanList.28", %"class.xalanc_1_10::XalanVector.29", i64, i64 }
%"class.xalanc_1_10::XalanList.28" = type { %"class.xercesc_2_7::MemoryManager"*, %"struct.xalanc_1_10::XalanList<xalanc_1_10::XalanMap<xalanc_1_10::XalanDOMString, xalanc_1_10::XalanVector<const xalanc_1_10::XalanMatchPatternData *, xalanc_1_10::MemoryManagedConstructionTraits<const xalanc_1_10::XalanMatchPatternData *> >, xalanc_1_10::XalanMapKeyTraits<xalanc_1_10::XalanDOMString> >::Entry>::Node"*, %"struct.xalanc_1_10::XalanList<xalanc_1_10::XalanMap<xalanc_1_10::XalanDOMString, xalanc_1_10::XalanVector<const xalanc_1_10::XalanMatchPatternData *, xalanc_1_10::MemoryManagedConstructionTraits<const xalanc_1_10::XalanMatchPatternData *> >, xalanc_1_10::XalanMapKeyTraits<xalanc_1_10::XalanDOMString> >::Entry>::Node"* }
%"struct.xalanc_1_10::XalanList<xalanc_1_10::XalanMap<xalanc_1_10::XalanDOMString, xalanc_1_10::XalanVector<const xalanc_1_10::XalanMatchPatternData *, xalanc_1_10::MemoryManagedConstructionTraits<const xalanc_1_10::XalanMatchPatternData *> >, xalanc_1_10::XalanMapKeyTraits<xalanc_1_10::XalanDOMString> >::Entry>::Node" = type opaque
%"class.xalanc_1_10::XalanVector.29" = type { %"class.xercesc_2_7::MemoryManager"*, i64, i64, %"class.xalanc_1_10::XalanVector.30"* }
%"class.xalanc_1_10::XalanVector.30" = type { %"class.xercesc_2_7::MemoryManager"*, i64, i64, %"struct.xalanc_1_10::XalanListIteratorBase.31"* }
%"struct.xalanc_1_10::XalanListIteratorBase.31" = type { %"struct.xalanc_1_10::XalanList<xalanc_1_10::XalanMap<xalanc_1_10::XalanDOMString, xalanc_1_10::XalanVector<const xalanc_1_10::XalanMatchPatternData *, xalanc_1_10::MemoryManagedConstructionTraits<const xalanc_1_10::XalanMatchPatternData *> >, xalanc_1_10::XalanMapKeyTraits<xalanc_1_10::XalanDOMString> >::Entry>::Node"* }
%"struct.xalanc_1_10::XalanMapIterator" = type { %"struct.xalanc_1_10::XalanListIteratorBase.31" }
%"class.xalanc_1_10::XalanVector.32" = type { %"class.xercesc_2_7::MemoryManager"*, i64, i64, %"class.xalanc_1_10::XalanMatchPatternData"** }
%"class.xalanc_1_10::XalanMatchPatternData" = type opaque
%"class.xalanc_1_10::XalanVector.33" = type { %"class.xercesc_2_7::MemoryManager"*, i64, i64, %"class.xalanc_1_10::ElemDecimalFormat"** }
%"class.xalanc_1_10::ElemDecimalFormat" = type opaque
%"class.xalanc_1_10::NamespacesHandler" = type { %"class.xalanc_1_10::XalanVector.34", %"class.xalanc_1_10::XalanVector.35", %"class.xalanc_1_10::XalanVector.36", %"class.xalanc_1_10::XalanMap.37" }
%"class.xalanc_1_10::XalanVector.34" = type { %"class.xercesc_2_7::MemoryManager"*, i64, i64, %"class.xalanc_1_10::NamespacesHandler::Namespace"* }
%"class.xalanc_1_10::NamespacesHandler::Namespace" = type { %"class.xalanc_1_10::XalanDOMString"*, %"class.xalanc_1_10::XalanDOMString"* }
%"class.xalanc_1_10::XalanVector.35" = type { %"class.xercesc_2_7::MemoryManager"*, i64, i64, %"class.xalanc_1_10::NamespacesHandler::NamespaceExtended"* }
%"class.xalanc_1_10::NamespacesHandler::NamespaceExtended" = type { %"class.xalanc_1_10::NamespacesHandler::Namespace", %"class.xalanc_1_10::XalanDOMString"* }
%"class.xalanc_1_10::XalanVector.36" = type { %"class.xercesc_2_7::MemoryManager"*, i64, i64, %"class.xalanc_1_10::XalanDOMString"** }
%"class.xalanc_1_10::XalanMap.37" = type { %"struct.xalanc_1_10::DOMStringPointerHashFunction", %"struct.xalanc_1_10::pointer_equal", %"class.xercesc_2_7::MemoryManager"*, float, i64, i64, %"class.xalanc_1_10::XalanList.40", %"class.xalanc_1_10::XalanList.40", %"class.xalanc_1_10::XalanVector.41", i64, i64 }
%"struct.xalanc_1_10::DOMStringPointerHashFunction" = type { i8 }
%"struct.xalanc_1_10::pointer_equal" = type { i8 }
%"class.xalanc_1_10::XalanList.40" = type { %"class.xercesc_2_7::MemoryManager"*, %"struct.xalanc_1_10::XalanList<xalanc_1_10::XalanMap<const xalanc_1_10::XalanDOMString *, const xalanc_1_10::XalanDOMString *, xalanc_1_10::XalanMapKeyTraits<const xalanc_1_10::XalanDOMString *> >::Entry>::Node"*, %"struct.xalanc_1_10::XalanList<xalanc_1_10::XalanMap<const xalanc_1_10::XalanDOMString *, const xalanc_1_10::XalanDOMString *, xalanc_1_10::XalanMapKeyTraits<const xalanc_1_10::XalanDOMString *> >::Entry>::Node"* }
%"struct.xalanc_1_10::XalanList<xalanc_1_10::XalanMap<const xalanc_1_10::XalanDOMString *, const xalanc_1_10::XalanDOMString *, xalanc_1_10::XalanMapKeyTraits<const xalanc_1_10::XalanDOMString *> >::Entry>::Node" = type opaque
%"class.xalanc_1_10::XalanVector.41" = type { %"class.xercesc_2_7::MemoryManager"*, i64, i64, %"class.xalanc_1_10::XalanVector.42"* }
%"class.xalanc_1_10::XalanVector.42" = type { %"class.xercesc_2_7::MemoryManager"*, i64, i64, %"struct.xalanc_1_10::XalanListIteratorBase.43"* }
%"struct.xalanc_1_10::XalanListIteratorBase.43" = type opaque
%"class.xalanc_1_10::XalanVector.44" = type { %"class.xercesc_2_7::MemoryManager"*, i64, i64, %"class.xalanc_1_10::XalanQName"** }
%"class.xalanc_1_10::ElemTemplateElement" = type opaque
%"class.xalanc_1_10::XalanMap.45" = type { %"struct.xalanc_1_10::XalanHashMemberPointer", %"struct.xalanc_1_10::pointer_equal.46", %"class.xercesc_2_7::MemoryManager"*, float, i64, i64, %"class.xalanc_1_10::XalanList.48", %"class.xalanc_1_10::XalanList.48", %"class.xalanc_1_10::XalanVector.49", i64, i64 }
%"struct.xalanc_1_10::XalanHashMemberPointer" = type { i8 }
%"struct.xalanc_1_10::pointer_equal.46" = type { i8 }
%"class.xalanc_1_10::XalanList.48" = type { %"class.xercesc_2_7::MemoryManager"*, %"struct.xalanc_1_10::XalanList<xalanc_1_10::XalanMap<const xalanc_1_10::XalanQName *, xalanc_1_10::XalanVector<xalanc_1_10::ElemAttributeSet *, xalanc_1_10::MemoryManagedConstructionTraits<xalanc_1_10::ElemAttributeSet *> >, xalanc_1_10::XalanMapKeyTraits<const xalanc_1_10::XalanQName *> >::Entry>::Node"*, %"struct.xalanc_1_10::XalanList<xalanc_1_10::XalanMap<const xalanc_1_10::XalanQName *, xalanc_1_10::XalanVector<xalanc_1_10::ElemAttributeSet *, xalanc_1_10::MemoryManagedConstructionTraits<xalanc_1_10::ElemAttributeSet *> >, xalanc_1_10::XalanMapKeyTraits<const xalanc_1_10::XalanQName *> >::Entry>::Node"* }
%"struct.xalanc_1_10::XalanList<xalanc_1_10::XalanMap<const xalanc_1_10::XalanQName *, xalanc_1_10::XalanVector<xalanc_1_10::ElemAttributeSet *, xalanc_1_10::MemoryManagedConstructionTraits<xalanc_1_10::ElemAttributeSet *> >, xalanc_1_10::XalanMapKeyTraits<const xalanc_1_10::XalanQName *> >::Entry>::Node" = type opaque
%"class.xalanc_1_10::XalanVector.49" = type { %"class.xercesc_2_7::MemoryManager"*, i64, i64, %"class.xalanc_1_10::XalanVector.50"* }
%"class.xalanc_1_10::XalanVector.50" = type { %"class.xercesc_2_7::MemoryManager"*, i64, i64, %"struct.xalanc_1_10::XalanListIteratorBase.51"* }
%"struct.xalanc_1_10::XalanListIteratorBase.51" = type opaque
%"class.xalanc_1_10::FormatterToXML" = type <{ %"class.xalanc_1_10::FormatterListener", %"class.xalanc_1_10::Writer"*, %"class.xalanc_1_10::XalanOutputStream"*, i16, [256 x i16], [256 x i16], i8, i8, i8, i8, i8, i8, i8, i8, i8, i8, [4 x i8], %"class.xalanc_1_10::XalanDOMString", %"class.xalanc_1_10::XalanDOMString", %"class.xalanc_1_10::XalanDOMString", i32, i32, %"class.xalanc_1_10::XalanVector.52", %"class.xalanc_1_10::XalanDOMString", i8, i8, i8, i8, [4 x i8], %"class.xalanc_1_10::XalanDOMString", %"class.xalanc_1_10::XalanDOMString", %"class.xalanc_1_10::XalanDOMString", %"class.xalanc_1_10::XalanDOMString", %"class.xalanc_1_10::XalanVector", i32, [4 x i8], %"class.xalanc_1_10::XalanVector.0", %"class.xalanc_1_10::XalanVector.52", { i64, i64 }, { i64, i64 }, { i64, i64 }, { i64, i64 }, { i64, i64 }, { i64, i64 }, { i64, i64 }, { i64, i64 }, { i64, i64 }, i16*, i32, i8, [3 x i8] }>
%"class.xalanc_1_10::XalanOutputStream" = type { i32 (...)**, i32, %"class.xalanc_1_10::XalanOutputTranscoder"*, i32, %"class.xalanc_1_10::XalanVector", %"class.xalanc_1_10::XalanDOMString", i8, i8, %"class.xalanc_1_10::XalanVector.0" }
%"class.xalanc_1_10::XalanOutputTranscoder" = type { i32 (...)**, %"class.xercesc_2_7::MemoryManager"* }
%"class.xalanc_1_10::XalanVector.52" = type { %"class.xercesc_2_7::MemoryManager"*, i64, i64, i8* }
%"class.xalanc_1_10::XalanXMLFileReporter" = type <{ %"class.xalanc_1_10::XalanDOMString", %"class.xalanc_1_10::XalanDOMString", %"class.xalanc_1_10::XalanDOMString", %"class.xalanc_1_10::XalanDOMString", %"class.xalanc_1_10::XalanDOMString", %"class.xalanc_1_10::XalanDOMString", %"class.xalanc_1_10::XalanDOMString", %"class.xalanc_1_10::XalanDOMString", %"class.xalanc_1_10::XalanDOMString", %"class.xalanc_1_10::XalanDOMString", %"class.xalanc_1_10::XalanDOMString", %"class.xalanc_1_10::XalanDOMString", %"class.xalanc_1_10::XalanDOMString", %"class.xalanc_1_10::XalanDOMString", %"class.xalanc_1_10::XalanDOMString", %"class.xalanc_1_10::XalanDOMString", %"class.xalanc_1_10::XalanDOMString", %"class.xalanc_1_10::XalanDOMString", %"class.xalanc_1_10::XalanDOMString", %"class.xalanc_1_10::XalanDOMString", %"class.xalanc_1_10::XalanDOMString", %"class.xalanc_1_10::XalanDOMString", %"class.xalanc_1_10::XalanDOMString", %"class.xalanc_1_10::XalanDOMString", %"class.xalanc_1_10::XalanDOMString", %"class.xalanc_1_10::XalanDOMString", %"class.xalanc_1_10::XalanDOMString", %"class.xalanc_1_10::XalanDOMString", %"class.xalanc_1_10::XalanDOMString", %"class.xalanc_1_10::XalanDOMString", %"class.xalanc_1_10::XalanDOMString", %"class.xalanc_1_10::XalanDOMString", %"class.xalanc_1_10::XalanDOMString", %"class.xalanc_1_10::XalanDOMString", %"class.xalanc_1_10::XalanDOMString", %"class.xalanc_1_10::XalanDOMString", %"class.xalanc_1_10::XalanDOMString", %"class.xalanc_1_10::XalanDOMString", %"class.xalanc_1_10::XalanDOMString", %"class.xalanc_1_10::XalanDOMString", %"class.xalanc_1_10::XalanDOMString", %"class.xalanc_1_10::XalanDOMString", %"class.xalanc_1_10::XalanDOMString", %"class.xalanc_1_10::XalanDOMString", %"class.xalanc_1_10::XalanDOMString", %"class.xalanc_1_10::XalanDOMString", %"class.xalanc_1_10::XalanDOMString", i8, [7 x i8], %"class.xalanc_1_10::XalanDOMString", %struct._IO_FILE*, i8, i8, i8, [5 x i8] }>
%"class.xalanc_1_10::XalanMap.53" = type { %"struct.xalanc_1_10::DOMStringHashFunction", %"struct.std::equal_to", %"class.xercesc_2_7::MemoryManager"*, float, i64, i64, %"class.xalanc_1_10::XalanList.54", %"class.xalanc_1_10::XalanList.54", %"class.xalanc_1_10::XalanVector.55", i64, i64 }
%"class.xalanc_1_10::XalanList.54" = type { %"class.xercesc_2_7::MemoryManager"*, %"struct.xalanc_1_10::XalanList<xalanc_1_10::XalanMap<xalanc_1_10::XalanDOMString, xalanc_1_10::XalanDOMString, xalanc_1_10::XalanMapKeyTraits<xalanc_1_10::XalanDOMString> >::Entry>::Node"*, %"struct.xalanc_1_10::XalanList<xalanc_1_10::XalanMap<xalanc_1_10::XalanDOMString, xalanc_1_10::XalanDOMString, xalanc_1_10::XalanMapKeyTraits<xalanc_1_10::XalanDOMString> >::Entry>::Node"* }
%"struct.xalanc_1_10::XalanList<xalanc_1_10::XalanMap<xalanc_1_10::XalanDOMString, xalanc_1_10::XalanDOMString, xalanc_1_10::XalanMapKeyTraits<xalanc_1_10::XalanDOMString> >::Entry>::Node" = type { %"struct.xalanc_1_10::XalanMap<xalanc_1_10::XalanDOMString, xalanc_1_10::XalanDOMString, xalanc_1_10::XalanMapKeyTraits<xalanc_1_10::XalanDOMString> >::Entry", %"struct.xalanc_1_10::XalanList<xalanc_1_10::XalanMap<xalanc_1_10::XalanDOMString, xalanc_1_10::XalanDOMString, xalanc_1_10::XalanMapKeyTraits<xalanc_1_10::XalanDOMString> >::Entry>::Node"*, %"struct.xalanc_1_10::XalanList<xalanc_1_10::XalanMap<xalanc_1_10::XalanDOMString, xalanc_1_10::XalanDOMString, xalanc_1_10::XalanMapKeyTraits<xalanc_1_10::XalanDOMString> >::Entry>::Node"* }
%"struct.xalanc_1_10::XalanMap<xalanc_1_10::XalanDOMString, xalanc_1_10::XalanDOMString, xalanc_1_10::XalanMapKeyTraits<xalanc_1_10::XalanDOMString> >::Entry" = type <{ %"struct.std::pair.138"*, i8, [7 x i8] }>
%"struct.std::pair.138" = type { %"class.xalanc_1_10::XalanDOMString", %"class.xalanc_1_10::XalanDOMString" }
%"class.xalanc_1_10::XalanVector.55" = type { %"class.xercesc_2_7::MemoryManager"*, i64, i64, %"class.xalanc_1_10::XalanVector.56"* }
%"class.xalanc_1_10::XalanVector.56" = type { %"class.xercesc_2_7::MemoryManager"*, i64, i64, %"struct.xalanc_1_10::XalanListIteratorBase.57"* }
%"struct.xalanc_1_10::XalanListIteratorBase.57" = type { %"struct.xalanc_1_10::XalanList<xalanc_1_10::XalanMap<xalanc_1_10::XalanDOMString, xalanc_1_10::XalanDOMString, xalanc_1_10::XalanMapKeyTraits<xalanc_1_10::XalanDOMString> >::Entry>::Node"* }
%"class.xalanc_1_10::XSLTInputSource" = type { %"class.xercesc_2_7::InputSource.base", %"class.std::basic_istream"*, %"class.xalanc_1_10::XalanNode"* }
%"class.xercesc_2_7::InputSource.base" = type <{ i32 (...)**, %"class.xercesc_2_7::MemoryManager"*, i16*, i16*, i16*, i8 }>
%"class.std::basic_istream" = type { i32 (...)**, i64, %"class.std::basic_ios" }
%"class.xalanc_1_10::XalanNode" = type { i32 (...)** }
%"class.xalanc_1_10::XalanSourceTreeDOMSupport" = type { %"class.xalanc_1_10::DOMSupport", %"class.xalanc_1_10::XalanSourceTreeParserLiaison"* }
%"class.xalanc_1_10::DOMSupport" = type { i32 (...)** }
%"class.xalanc_1_10::XalanSourceTreeParserLiaison" = type { %"class.xalanc_1_10::XMLParserLiaison", %"class.xalanc_1_10::XercesParserLiaison", %"class.xalanc_1_10::XalanMap.96", i8, %"class.xercesc_2_7::SAX2XMLReader"* }
%"class.xalanc_1_10::XMLParserLiaison" = type { i32 (...)** }
%"class.xalanc_1_10::XercesParserLiaison" = type { %"class.xalanc_1_10::XMLParserLiaison", %"class.xercesc_2_7::ErrorHandler", i32, i8, i8, i8, i8, %"class.xercesc_2_7::EntityResolver"*, %"class.xercesc_2_7::ErrorHandler"*, %"class.xalanc_1_10::XalanDOMString", %"class.xalanc_1_10::XalanDOMString", %"class.xalanc_1_10::XalanMap.88", i8, i8, i8, i8, %"class.xalanc_1_10::ExecutionContext"*, %"class.xercesc_2_7::SAXParser"*, %"class.xercesc_2_7::XercesDOMParser"* }
%"class.xercesc_2_7::ErrorHandler" = type { i32 (...)** }
%"class.xercesc_2_7::EntityResolver" = type opaque
%"class.xalanc_1_10::XalanMap.88" = type { %"class.xalanc_1_10::XalanHasher", %"struct.std::equal_to.90", %"class.xercesc_2_7::MemoryManager"*, float, i64, i64, %"class.xalanc_1_10::XalanList.92", %"class.xalanc_1_10::XalanList.92", %"class.xalanc_1_10::XalanVector.93", i64, i64 }
%"class.xalanc_1_10::XalanHasher" = type { i8 }
%"struct.std::equal_to.90" = type { i8 }
%"class.xalanc_1_10::XalanList.92" = type { %"class.xercesc_2_7::MemoryManager"*, %"struct.xalanc_1_10::XalanList<xalanc_1_10::XalanMap<const xalanc_1_10::XalanDocument *, xalanc_1_10::XercesParserLiaison::DocumentEntry, xalanc_1_10::XalanMapKeyTraits<const xalanc_1_10::XalanDocument *> >::Entry>::Node"*, %"struct.xalanc_1_10::XalanList<xalanc_1_10::XalanMap<const xalanc_1_10::XalanDocument *, xalanc_1_10::XercesParserLiaison::DocumentEntry, xalanc_1_10::XalanMapKeyTraits<const xalanc_1_10::XalanDocument *> >::Entry>::Node"* }
%"struct.xalanc_1_10::XalanList<xalanc_1_10::XalanMap<const xalanc_1_10::XalanDocument *, xalanc_1_10::XercesParserLiaison::DocumentEntry, xalanc_1_10::XalanMapKeyTraits<const xalanc_1_10::XalanDocument *> >::Entry>::Node" = type opaque
%"class.xalanc_1_10::XalanVector.93" = type { %"class.xercesc_2_7::MemoryManager"*, i64, i64, %"class.xalanc_1_10::XalanVector.94"* }
%"class.xalanc_1_10::XalanVector.94" = type { %"class.xercesc_2_7::MemoryManager"*, i64, i64, %"struct.xalanc_1_10::XalanListIteratorBase.95"* }
%"struct.xalanc_1_10::XalanListIteratorBase.95" = type opaque
%"class.xercesc_2_7::SAXParser" = type opaque
%"class.xercesc_2_7::XercesDOMParser" = type opaque
%"class.xalanc_1_10::XalanMap.96" = type { %"class.xalanc_1_10::XalanHasher", %"struct.std::equal_to.90", %"class.xercesc_2_7::MemoryManager"*, float, i64, i64, %"class.xalanc_1_10::XalanList.97", %"class.xalanc_1_10::XalanList.97", %"class.xalanc_1_10::XalanVector.98", i64, i64 }
%"class.xalanc_1_10::XalanList.97" = type { %"class.xercesc_2_7::MemoryManager"*, %"struct.xalanc_1_10::XalanList<xalanc_1_10::XalanMap<const xalanc_1_10::XalanDocument *, xalanc_1_10::XalanSourceTreeDocument *, xalanc_1_10::XalanMapKeyTraits<const xalanc_1_10::XalanDocument *> >::Entry>::Node"*, %"struct.xalanc_1_10::XalanList<xalanc_1_10::XalanMap<const xalanc_1_10::XalanDocument *, xalanc_1_10::XalanSourceTreeDocument *, xalanc_1_10::XalanMapKeyTraits<const xalanc_1_10::XalanDocument *> >::Entry>::Node"* }
%"struct.xalanc_1_10::XalanList<xalanc_1_10::XalanMap<const xalanc_1_10::XalanDocument *, xalanc_1_10::XalanSourceTreeDocument *, xalanc_1_10::XalanMapKeyTraits<const xalanc_1_10::XalanDocument *> >::Entry>::Node" = type opaque
%"class.xalanc_1_10::XalanVector.98" = type { %"class.xercesc_2_7::MemoryManager"*, i64, i64, %"class.xalanc_1_10::XalanVector.99"* }
%"class.xalanc_1_10::XalanVector.99" = type { %"class.xercesc_2_7::MemoryManager"*, i64, i64, %"struct.xalanc_1_10::XalanListIteratorBase.100"* }
%"struct.xalanc_1_10::XalanListIteratorBase.100" = type opaque
%"class.xercesc_2_7::SAX2XMLReader" = type opaque
%"class.xalanc_1_10::XalanDocument" = type { %"class.xalanc_1_10::XalanNode" }
%"class.xercesc_2_7::SAXException" = type { i32 (...)**, i16*, %"class.xercesc_2_7::MemoryManager"* }
%"class.xercesc_2_7::InputSource" = type <{ i32 (...)**, %"class.xercesc_2_7::MemoryManager"*, i16*, i16*, i16*, i8, [7 x i8] }>
%"struct.xalanc_1_10::XalanMapIterator.142" = type { %"struct.xalanc_1_10::XalanListIteratorBase.57" }
%"struct.xalanc_1_10::XalanMapIterator.141" = type { %"struct.xalanc_1_10::XalanListIteratorBase.57" }
%"class.xalanc_1_10::XalanCompiledStylesheet" = type { i32 (...)** }
%"class.xalanc_1_10::XalanSourceTreeDocument" = type { %"class.xalanc_1_10::XalanDocument", %"class.xalanc_1_10::XalanNode"*, %"class.xalanc_1_10::XalanSourceTreeElement"*, %"class.xalanc_1_10::XalanSourceTreeAttributeAllocator", %"class.xalanc_1_10::XalanSourceTreeAttributeNSAllocator", %"class.xalanc_1_10::XalanSourceTreeCommentAllocator", %"class.xalanc_1_10::XalanSourceTreeElementAAllocator", %"class.xalanc_1_10::XalanSourceTreeElementANSAllocator", %"class.xalanc_1_10::XalanSourceTreeElementNAAllocator", %"class.xalanc_1_10::XalanSourceTreeElementNANSAllocator", %"class.xalanc_1_10::XalanSourceTreeProcessingInstructionAllocator", %"class.xalanc_1_10::XalanSourceTreeTextAllocator", %"class.xalanc_1_10::XalanSourceTreeTextIWSAllocator", %"class.xalanc_1_10::XalanDOMStringPool", %"class.xalanc_1_10::XalanDOMStringPool", %"class.xalanc_1_10::XalanArrayAllocator", i64, i8, %"class.xalanc_1_10::XalanMap.81", %"class.xalanc_1_10::XalanMap.53", %"class.xalanc_1_10::XalanDOMStringAllocator", %"class.xalanc_1_10::XalanDOMString" }
%"class.xalanc_1_10::XalanSourceTreeElement" = type { %"class.xalanc_1_10::XalanElement", %"class.xalanc_1_10::XalanDOMString"*, %"class.xercesc_2_7::MemoryManager"*, %"class.xalanc_1_10::XalanSourceTreeDocument"*, %"class.xalanc_1_10::XalanNode"*, %"class.xalanc_1_10::XalanNode"*, %"class.xalanc_1_10::XalanNode"*, %"class.xalanc_1_10::XalanNode"*, i64 }
%"class.xalanc_1_10::XalanElement" = type { %"class.xalanc_1_10::XalanNode" }
%"class.xalanc_1_10::XalanSourceTreeAttributeAllocator" = type { %"class.xalanc_1_10::ArenaAllocator" }
%"class.xalanc_1_10::ArenaAllocator" = type { i32 (...)**, i64, %"class.xalanc_1_10::XalanList.58" }
%"class.xalanc_1_10::XalanList.58" = type { %"class.xercesc_2_7::MemoryManager"*, %"struct.xalanc_1_10::XalanList<xalanc_1_10::ArenaBlock<xalanc_1_10::XalanSourceTreeAttr, unsigned long> *>::Node"*, %"struct.xalanc_1_10::XalanList<xalanc_1_10::ArenaBlock<xalanc_1_10::XalanSourceTreeAttr, unsigned long> *>::Node"* }
%"struct.xalanc_1_10::XalanList<xalanc_1_10::ArenaBlock<xalanc_1_10::XalanSourceTreeAttr, unsigned long> *>::Node" = type { %"class.xalanc_1_10::ArenaBlock.108"*, %"struct.xalanc_1_10::XalanList<xalanc_1_10::ArenaBlock<xalanc_1_10::XalanSourceTreeAttr, unsigned long> *>::Node"*, %"struct.xalanc_1_10::XalanList<xalanc_1_10::ArenaBlock<xalanc_1_10::XalanSourceTreeAttr, unsigned long> *>::Node"* }
%"class.xalanc_1_10::ArenaBlock.108" = type { %"class.xalanc_1_10::ArenaBlockBase.109" }
%"class.xalanc_1_10::ArenaBlockBase.109" = type { %"class.xalanc_1_10::XalanAllocator.110", i64, i64, %"class.xalanc_1_10::XalanSourceTreeAttr"* }
%"class.xalanc_1_10::XalanAllocator.110" = type { %"class.xercesc_2_7::MemoryManager"* }
%"class.xalanc_1_10::XalanSourceTreeAttr" = type { %"class.xalanc_1_10::XalanAttr", %"class.xalanc_1_10::XalanDOMString"*, %"class.xalanc_1_10::XalanDOMString"*, %"class.xalanc_1_10::XalanSourceTreeElement"*, i64 }
%"class.xalanc_1_10::XalanAttr" = type { %"class.xalanc_1_10::XalanNode" }
%"class.xalanc_1_10::XalanSourceTreeAttributeNSAllocator" = type { %"class.xalanc_1_10::ArenaAllocator.59" }
%"class.xalanc_1_10::ArenaAllocator.59" = type { i32 (...)**, i64, %"class.xalanc_1_10::XalanList.60" }
%"class.xalanc_1_10::XalanList.60" = type { %"class.xercesc_2_7::MemoryManager"*, %"struct.xalanc_1_10::XalanList<xalanc_1_10::ArenaBlock<xalanc_1_10::XalanSourceTreeAttrNS, unsigned long> *>::Node"*, %"struct.xalanc_1_10::XalanList<xalanc_1_10::ArenaBlock<xalanc_1_10::XalanSourceTreeAttrNS, unsigned long> *>::Node"* }
%"struct.xalanc_1_10::XalanList<xalanc_1_10::ArenaBlock<xalanc_1_10::XalanSourceTreeAttrNS, unsigned long> *>::Node" = type { %"class.xalanc_1_10::ArenaBlock.111"*, %"struct.xalanc_1_10::XalanList<xalanc_1_10::ArenaBlock<xalanc_1_10::XalanSourceTreeAttrNS, unsigned long> *>::Node"*, %"struct.xalanc_1_10::XalanList<xalanc_1_10::ArenaBlock<xalanc_1_10::XalanSourceTreeAttrNS, unsigned long> *>::Node"* }
%"class.xalanc_1_10::ArenaBlock.111" = type { %"class.xalanc_1_10::ArenaBlockBase.112" }
%"class.xalanc_1_10::ArenaBlockBase.112" = type { %"class.xalanc_1_10::XalanAllocator.113", i64, i64, %"class.xalanc_1_10::XalanSourceTreeAttrNS"* }
%"class.xalanc_1_10::XalanAllocator.113" = type { %"class.xercesc_2_7::MemoryManager"* }
%"class.xalanc_1_10::XalanSourceTreeAttrNS" = type { %"class.xalanc_1_10::XalanSourceTreeAttr", %"class.xalanc_1_10::XalanDOMString"*, %"class.xalanc_1_10::XalanDOMString"*, %"class.xalanc_1_10::XalanDOMString"* }
%"class.xalanc_1_10::XalanSourceTreeCommentAllocator" = type { %"class.xalanc_1_10::ArenaAllocator.61" }
%"class.xalanc_1_10::ArenaAllocator.61" = type { i32 (...)**, i64, %"class.xalanc_1_10::XalanList.62" }
%"class.xalanc_1_10::XalanList.62" = type { %"class.xercesc_2_7::MemoryManager"*, %"struct.xalanc_1_10::XalanList<xalanc_1_10::ArenaBlock<xalanc_1_10::XalanSourceTreeComment, unsigned long> *>::Node"*, %"struct.xalanc_1_10::XalanList<xalanc_1_10::ArenaBlock<xalanc_1_10::XalanSourceTreeComment, unsigned long> *>::Node"* }
%"struct.xalanc_1_10::XalanList<xalanc_1_10::ArenaBlock<xalanc_1_10::XalanSourceTreeComment, unsigned long> *>::Node" = type { %"class.xalanc_1_10::ArenaBlock.114"*, %"struct.xalanc_1_10::XalanList<xalanc_1_10::ArenaBlock<xalanc_1_10::XalanSourceTreeComment, unsigned long> *>::Node"*, %"struct.xalanc_1_10::XalanList<xalanc_1_10::ArenaBlock<xalanc_1_10::XalanSourceTreeComment, unsigned long> *>::Node"* }
%"class.xalanc_1_10::ArenaBlock.114" = type { %"class.xalanc_1_10::ArenaBlockBase.115" }
%"class.xalanc_1_10::ArenaBlockBase.115" = type { %"class.xalanc_1_10::XalanAllocator.116", i64, i64, %"class.xalanc_1_10::XalanSourceTreeComment"* }
%"class.xalanc_1_10::XalanAllocator.116" = type { %"class.xercesc_2_7::MemoryManager"* }
%"class.xalanc_1_10::XalanSourceTreeComment" = type { %"class.xalanc_1_10::XalanComment", %"class.xalanc_1_10::XalanDOMString"*, %"class.xalanc_1_10::XalanSourceTreeDocument"*, %"class.xalanc_1_10::XalanNode"*, %"class.xalanc_1_10::XalanNode"*, %"class.xalanc_1_10::XalanNode"*, i64 }
%"class.xalanc_1_10::XalanComment" = type { %"class.xalanc_1_10::XalanCharacterData" }
%"class.xalanc_1_10::XalanCharacterData" = type { %"class.xalanc_1_10::XalanNode" }
%"class.xalanc_1_10::XalanSourceTreeElementAAllocator" = type { %"class.xalanc_1_10::ArenaAllocator.63" }
%"class.xalanc_1_10::ArenaAllocator.63" = type { i32 (...)**, i64, %"class.xalanc_1_10::XalanList.64" }
%"class.xalanc_1_10::XalanList.64" = type { %"class.xercesc_2_7::MemoryManager"*, %"struct.xalanc_1_10::XalanList<xalanc_1_10::ArenaBlock<xalanc_1_10::XalanSourceTreeElementA, unsigned long> *>::Node"*, %"struct.xalanc_1_10::XalanList<xalanc_1_10::ArenaBlock<xalanc_1_10::XalanSourceTreeElementA, unsigned long> *>::Node"* }
%"struct.xalanc_1_10::XalanList<xalanc_1_10::ArenaBlock<xalanc_1_10::XalanSourceTreeElementA, unsigned long> *>::Node" = type { %"class.xalanc_1_10::ArenaBlock.117"*, %"struct.xalanc_1_10::XalanList<xalanc_1_10::ArenaBlock<xalanc_1_10::XalanSourceTreeElementA, unsigned long> *>::Node"*, %"struct.xalanc_1_10::XalanList<xalanc_1_10::ArenaBlock<xalanc_1_10::XalanSourceTreeElementA, unsigned long> *>::Node"* }
%"class.xalanc_1_10::ArenaBlock.117" = type { %"class.xalanc_1_10::ArenaBlockBase.118" }
%"class.xalanc_1_10::ArenaBlockBase.118" = type { %"class.xalanc_1_10::XalanAllocator.119", i64, i64, %"class.xalanc_1_10::XalanSourceTreeElementA"* }
%"class.xalanc_1_10::XalanAllocator.119" = type { %"class.xercesc_2_7::MemoryManager"* }
%"class.xalanc_1_10::XalanSourceTreeElementA" = type { %"class.xalanc_1_10::XalanSourceTreeElement", %"class.xalanc_1_10::XalanNamedNodeMap", %"class.xalanc_1_10::XalanSourceTreeAttr"**, i64 }
%"class.xalanc_1_10::XalanNamedNodeMap" = type { i32 (...)** }
%"class.xalanc_1_10::XalanSourceTreeElementANSAllocator" = type { %"class.xalanc_1_10::ArenaAllocator.65" }
%"class.xalanc_1_10::ArenaAllocator.65" = type { i32 (...)**, i64, %"class.xalanc_1_10::XalanList.66" }
%"class.xalanc_1_10::XalanList.66" = type { %"class.xercesc_2_7::MemoryManager"*, %"struct.xalanc_1_10::XalanList<xalanc_1_10::ArenaBlock<xalanc_1_10::XalanSourceTreeElementANS, unsigned long> *>::Node"*, %"struct.xalanc_1_10::XalanList<xalanc_1_10::ArenaBlock<xalanc_1_10::XalanSourceTreeElementANS, unsigned long> *>::Node"* }
%"struct.xalanc_1_10::XalanList<xalanc_1_10::ArenaBlock<xalanc_1_10::XalanSourceTreeElementANS, unsigned long> *>::Node" = type { %"class.xalanc_1_10::ArenaBlock.120"*, %"struct.xalanc_1_10::XalanList<xalanc_1_10::ArenaBlock<xalanc_1_10::XalanSourceTreeElementANS, unsigned long> *>::Node"*, %"struct.xalanc_1_10::XalanList<xalanc_1_10::ArenaBlock<xalanc_1_10::XalanSourceTreeElementANS, unsigned long> *>::Node"* }
%"class.xalanc_1_10::ArenaBlock.120" = type { %"class.xalanc_1_10::ArenaBlockBase.121" }
%"class.xalanc_1_10::ArenaBlockBase.121" = type { %"class.xalanc_1_10::XalanAllocator.122", i64, i64, %"class.xalanc_1_10::XalanSourceTreeElementANS"* }
%"class.xalanc_1_10::XalanAllocator.122" = type { %"class.xercesc_2_7::MemoryManager"* }
%"class.xalanc_1_10::XalanSourceTreeElementANS" = type { %"class.xalanc_1_10::XalanSourceTreeElementA", %"class.xalanc_1_10::XalanDOMString"*, %"class.xalanc_1_10::XalanDOMString"*, %"class.xalanc_1_10::XalanDOMString"* }
%"class.xalanc_1_10::XalanSourceTreeElementNAAllocator" = type { %"class.xalanc_1_10::ArenaAllocator.67" }
%"class.xalanc_1_10::ArenaAllocator.67" = type { i32 (...)**, i64, %"class.xalanc_1_10::XalanList.68" }
%"class.xalanc_1_10::XalanList.68" = type { %"class.xercesc_2_7::MemoryManager"*, %"struct.xalanc_1_10::XalanList<xalanc_1_10::ArenaBlock<xalanc_1_10::XalanSourceTreeElementNA, unsigned long> *>::Node"*, %"struct.xalanc_1_10::XalanList<xalanc_1_10::ArenaBlock<xalanc_1_10::XalanSourceTreeElementNA, unsigned long> *>::Node"* }
%"struct.xalanc_1_10::XalanList<xalanc_1_10::ArenaBlock<xalanc_1_10::XalanSourceTreeElementNA, unsigned long> *>::Node" = type { %"class.xalanc_1_10::ArenaBlock.123"*, %"struct.xalanc_1_10::XalanList<xalanc_1_10::ArenaBlock<xalanc_1_10::XalanSourceTreeElementNA, unsigned long> *>::Node"*, %"struct.xalanc_1_10::XalanList<xalanc_1_10::ArenaBlock<xalanc_1_10::XalanSourceTreeElementNA, unsigned long> *>::Node"* }
%"class.xalanc_1_10::ArenaBlock.123" = type { %"class.xalanc_1_10::ArenaBlockBase.124" }
%"class.xalanc_1_10::ArenaBlockBase.124" = type { %"class.xalanc_1_10::XalanAllocator.125", i64, i64, %"class.xalanc_1_10::XalanSourceTreeElementNA"* }
%"class.xalanc_1_10::XalanAllocator.125" = type { %"class.xercesc_2_7::MemoryManager"* }
%"class.xalanc_1_10::XalanSourceTreeElementNA" = type { %"class.xalanc_1_10::XalanSourceTreeElement" }
%"class.xalanc_1_10::XalanSourceTreeElementNANSAllocator" = type { %"class.xalanc_1_10::ArenaAllocator.69" }
%"class.xalanc_1_10::ArenaAllocator.69" = type { i32 (...)**, i64, %"class.xalanc_1_10::XalanList.70" }
%"class.xalanc_1_10::XalanList.70" = type { %"class.xercesc_2_7::MemoryManager"*, %"struct.xalanc_1_10::XalanList<xalanc_1_10::ArenaBlock<xalanc_1_10::XalanSourceTreeElementNANS, unsigned long> *>::Node"*, %"struct.xalanc_1_10::XalanList<xalanc_1_10::ArenaBlock<xalanc_1_10::XalanSourceTreeElementNANS, unsigned long> *>::Node"* }
%"struct.xalanc_1_10::XalanList<xalanc_1_10::ArenaBlock<xalanc_1_10::XalanSourceTreeElementNANS, unsigned long> *>::Node" = type { %"class.xalanc_1_10::ArenaBlock.126"*, %"struct.xalanc_1_10::XalanList<xalanc_1_10::ArenaBlock<xalanc_1_10::XalanSourceTreeElementNANS, unsigned long> *>::Node"*, %"struct.xalanc_1_10::XalanList<xalanc_1_10::ArenaBlock<xalanc_1_10::XalanSourceTreeElementNANS, unsigned long> *>::Node"* }
%"class.xalanc_1_10::ArenaBlock.126" = type { %"class.xalanc_1_10::ArenaBlockBase.127" }
%"class.xalanc_1_10::ArenaBlockBase.127" = type { %"class.xalanc_1_10::XalanAllocator.128", i64, i64, %"class.xalanc_1_10::XalanSourceTreeElementNANS"* }
%"class.xalanc_1_10::XalanAllocator.128" = type { %"class.xercesc_2_7::MemoryManager"* }
%"class.xalanc_1_10::XalanSourceTreeElementNANS" = type { %"class.xalanc_1_10::XalanSourceTreeElementNA", %"class.xalanc_1_10::XalanDOMString"*, %"class.xalanc_1_10::XalanDOMString"*, %"class.xalanc_1_10::XalanDOMString"* }
%"class.xalanc_1_10::XalanSourceTreeProcessingInstructionAllocator" = type { %"class.xalanc_1_10::ArenaAllocator.71" }
%"class.xalanc_1_10::ArenaAllocator.71" = type { i32 (...)**, i64, %"class.xalanc_1_10::XalanList.72" }
%"class.xalanc_1_10::XalanList.72" = type { %"class.xercesc_2_7::MemoryManager"*, %"struct.xalanc_1_10::XalanList<xalanc_1_10::ArenaBlock<xalanc_1_10::XalanSourceTreeProcessingInstruction, unsigned long> *>::Node"*, %"struct.xalanc_1_10::XalanList<xalanc_1_10::ArenaBlock<xalanc_1_10::XalanSourceTreeProcessingInstruction, unsigned long> *>::Node"* }
%"struct.xalanc_1_10::XalanList<xalanc_1_10::ArenaBlock<xalanc_1_10::XalanSourceTreeProcessingInstruction, unsigned long> *>::Node" = type { %"class.xalanc_1_10::ArenaBlock.129"*, %"struct.xalanc_1_10::XalanList<xalanc_1_10::ArenaBlock<xalanc_1_10::XalanSourceTreeProcessingInstruction, unsigned long> *>::Node"*, %"struct.xalanc_1_10::XalanList<xalanc_1_10::ArenaBlock<xalanc_1_10::XalanSourceTreeProcessingInstruction, unsigned long> *>::Node"* }
%"class.xalanc_1_10::ArenaBlock.129" = type { %"class.xalanc_1_10::ArenaBlockBase.130" }
%"class.xalanc_1_10::ArenaBlockBase.130" = type { %"class.xalanc_1_10::XalanAllocator.131", i64, i64, %"class.xalanc_1_10::XalanSourceTreeProcessingInstruction"* }
%"class.xalanc_1_10::XalanAllocator.131" = type { %"class.xercesc_2_7::MemoryManager"* }
%"class.xalanc_1_10::XalanSourceTreeProcessingInstruction" = type { %"class.xalanc_1_10::XalanProcessingInstruction", %"class.xalanc_1_10::XalanDOMString"*, %"class.xalanc_1_10::XalanDOMString"*, %"class.xalanc_1_10::XalanSourceTreeDocument"*, %"class.xalanc_1_10::XalanNode"*, %"class.xalanc_1_10::XalanNode"*, %"class.xalanc_1_10::XalanNode"*, i64 }
%"class.xalanc_1_10::XalanProcessingInstruction" = type { %"class.xalanc_1_10::XalanNode" }
%"class.xalanc_1_10::XalanSourceTreeTextAllocator" = type { %"class.xalanc_1_10::ArenaAllocator.73" }
%"class.xalanc_1_10::ArenaAllocator.73" = type { i32 (...)**, i64, %"class.xalanc_1_10::XalanList.74" }
%"class.xalanc_1_10::XalanList.74" = type { %"class.xercesc_2_7::MemoryManager"*, %"struct.xalanc_1_10::XalanList<xalanc_1_10::ArenaBlock<xalanc_1_10::XalanSourceTreeText, unsigned long> *>::Node"*, %"struct.xalanc_1_10::XalanList<xalanc_1_10::ArenaBlock<xalanc_1_10::XalanSourceTreeText, unsigned long> *>::Node"* }
%"struct.xalanc_1_10::XalanList<xalanc_1_10::ArenaBlock<xalanc_1_10::XalanSourceTreeText, unsigned long> *>::Node" = type { %"class.xalanc_1_10::ArenaBlock.132"*, %"struct.xalanc_1_10::XalanList<xalanc_1_10::ArenaBlock<xalanc_1_10::XalanSourceTreeText, unsigned long> *>::Node"*, %"struct.xalanc_1_10::XalanList<xalanc_1_10::ArenaBlock<xalanc_1_10::XalanSourceTreeText, unsigned long> *>::Node"* }
%"class.xalanc_1_10::ArenaBlock.132" = type { %"class.xalanc_1_10::ArenaBlockBase.133" }
%"class.xalanc_1_10::ArenaBlockBase.133" = type { %"class.xalanc_1_10::XalanAllocator.134", i64, i64, %"class.xalanc_1_10::XalanSourceTreeText"* }
%"class.xalanc_1_10::XalanAllocator.134" = type { %"class.xercesc_2_7::MemoryManager"* }
%"class.xalanc_1_10::XalanSourceTreeText" = type { %"class.xalanc_1_10::XalanText", %"class.xalanc_1_10::XalanDOMString"*, %"class.xalanc_1_10::XalanNode"*, %"class.xalanc_1_10::XalanNode"*, %"class.xalanc_1_10::XalanNode"*, i64 }
%"class.xalanc_1_10::XalanText" = type { %"class.xalanc_1_10::XalanCharacterData" }
%"class.xalanc_1_10::XalanSourceTreeTextIWSAllocator" = type { %"class.xalanc_1_10::ArenaAllocator.75" }
%"class.xalanc_1_10::ArenaAllocator.75" = type { i32 (...)**, i64, %"class.xalanc_1_10::XalanList.76" }
%"class.xalanc_1_10::XalanList.76" = type { %"class.xercesc_2_7::MemoryManager"*, %"struct.xalanc_1_10::XalanList<xalanc_1_10::ArenaBlock<xalanc_1_10::XalanSourceTreeTextIWS, unsigned long> *>::Node"*, %"struct.xalanc_1_10::XalanList<xalanc_1_10::ArenaBlock<xalanc_1_10::XalanSourceTreeTextIWS, unsigned long> *>::Node"* }
%"struct.xalanc_1_10::XalanList<xalanc_1_10::ArenaBlock<xalanc_1_10::XalanSourceTreeTextIWS, unsigned long> *>::Node" = type { %"class.xalanc_1_10::ArenaBlock.135"*, %"struct.xalanc_1_10::XalanList<xalanc_1_10::ArenaBlock<xalanc_1_10::XalanSourceTreeTextIWS, unsigned long> *>::Node"*, %"struct.xalanc_1_10::XalanList<xalanc_1_10::ArenaBlock<xalanc_1_10::XalanSourceTreeTextIWS, unsigned long> *>::Node"* }
%"class.xalanc_1_10::ArenaBlock.135" = type { %"class.xalanc_1_10::ArenaBlockBase.136" }
%"class.xalanc_1_10::ArenaBlockBase.136" = type { %"class.xalanc_1_10::XalanAllocator.137", i64, i64, %"class.xalanc_1_10::XalanSourceTreeTextIWS"* }
%"class.xalanc_1_10::XalanAllocator.137" = type { %"class.xercesc_2_7::MemoryManager"* }
%"class.xalanc_1_10::XalanSourceTreeTextIWS" = type { %"class.xalanc_1_10::XalanSourceTreeText" }
%"class.xalanc_1_10::XalanDOMStringPool" = type { i32 (...)**, %"class.xalanc_1_10::XalanDOMStringAllocator", i64, %"class.xalanc_1_10::XalanDOMStringHashTable" }
%"class.xalanc_1_10::XalanDOMStringHashTable" = type <{ i64, i64, %"class.xalanc_1_10::XalanMemMgrAutoPtrArray", i64, i32, [4 x i8] }>
%"class.xalanc_1_10::XalanMemMgrAutoPtrArray" = type { %"class.xalanc_1_10::XalanMemMgrAutoPtrArray<xalanc_1_10::XalanVector<const xalanc_1_10::XalanDOMString *, xalanc_1_10::MemoryManagedConstructionTraits<const xalanc_1_10::XalanDOMString *> > >::MemMgrAutoPtrArrayData" }
%"class.xalanc_1_10::XalanMemMgrAutoPtrArray<xalanc_1_10::XalanVector<const xalanc_1_10::XalanDOMString *, xalanc_1_10::MemoryManagedConstructionTraits<const xalanc_1_10::XalanDOMString *> > >::MemMgrAutoPtrArrayData" = type { %"class.xercesc_2_7::MemoryManager"*, %"class.xalanc_1_10::XalanVector.36"*, i64 }
%"class.xalanc_1_10::XalanArrayAllocator" = type { %"class.xalanc_1_10::XalanList.79", i64, %"struct.std::pair.80"* }
%"class.xalanc_1_10::XalanList.79" = type { %"class.xercesc_2_7::MemoryManager"*, %"struct.xalanc_1_10::XalanList<std::pair<unsigned long, xalanc_1_10::XalanVector<xalanc_1_10::XalanSourceTreeAttr *, xalanc_1_10::MemoryManagedConstructionTraits<xalanc_1_10::XalanSourceTreeAttr *> > *> >::Node"*, %"struct.xalanc_1_10::XalanList<std::pair<unsigned long, xalanc_1_10::XalanVector<xalanc_1_10::XalanSourceTreeAttr *, xalanc_1_10::MemoryManagedConstructionTraits<xalanc_1_10::XalanSourceTreeAttr *> > *> >::Node"* }
%"struct.xalanc_1_10::XalanList<std::pair<unsigned long, xalanc_1_10::XalanVector<xalanc_1_10::XalanSourceTreeAttr *, xalanc_1_10::MemoryManagedConstructionTraits<xalanc_1_10::XalanSourceTreeAttr *> > *> >::Node" = type opaque
%"struct.std::pair.80" = type opaque
%"class.xalanc_1_10::XalanMap.81" = type { %"struct.xalanc_1_10::hash_null_terminated_arrays", %"struct.xalanc_1_10::equal_null_terminated_arrays", %"class.xercesc_2_7::MemoryManager"*, float, i64, i64, %"class.xalanc_1_10::XalanList.84", %"class.xalanc_1_10::XalanList.84", %"class.xalanc_1_10::XalanVector.85", i64, i64 }
%"struct.xalanc_1_10::hash_null_terminated_arrays" = type { i8 }
%"struct.xalanc_1_10::equal_null_terminated_arrays" = type { i8 }
%"class.xalanc_1_10::XalanList.84" = type { %"class.xercesc_2_7::MemoryManager"*, %"struct.xalanc_1_10::XalanList<xalanc_1_10::XalanMap<const unsigned short *, xalanc_1_10::XalanSourceTreeElement *, xalanc_1_10::XalanMapKeyTraits<const xalanc_1_10::XalanDOMChar *> >::Entry>::Node"*, %"struct.xalanc_1_10::XalanList<xalanc_1_10::XalanMap<const unsigned short *, xalanc_1_10::XalanSourceTreeElement *, xalanc_1_10::XalanMapKeyTraits<const xalanc_1_10::XalanDOMChar *> >::Entry>::Node"* }
%"struct.xalanc_1_10::XalanList<xalanc_1_10::XalanMap<const unsigned short *, xalanc_1_10::XalanSourceTreeElement *, xalanc_1_10::XalanMapKeyTraits<const xalanc_1_10::XalanDOMChar *> >::Entry>::Node" = type opaque
%"class.xalanc_1_10::XalanVector.85" = type { %"class.xercesc_2_7::MemoryManager"*, i64, i64, %"class.xalanc_1_10::XalanVector.86"* }
%"class.xalanc_1_10::XalanVector.86" = type { %"class.xercesc_2_7::MemoryManager"*, i64, i64, %"struct.xalanc_1_10::XalanListIteratorBase.87"* }
%"struct.xalanc_1_10::XalanListIteratorBase.87" = type opaque
%"class.xalanc_1_10::XalanDOMStringAllocator" = type { %"class.xalanc_1_10::ArenaAllocator.77" }
%"class.xalanc_1_10::ArenaAllocator.77" = type { i32 (...)**, i64, %"class.xalanc_1_10::XalanList.78" }
%"class.xalanc_1_10::XalanList.78" = type { %"class.xercesc_2_7::MemoryManager"*, %"struct.xalanc_1_10::XalanList<xalanc_1_10::ArenaBlock<xalanc_1_10::XalanDOMString, unsigned long> *>::Node"*, %"struct.xalanc_1_10::XalanList<xalanc_1_10::ArenaBlock<xalanc_1_10::XalanDOMString, unsigned long> *>::Node"* }
%"struct.xalanc_1_10::XalanList<xalanc_1_10::ArenaBlock<xalanc_1_10::XalanDOMString, unsigned long> *>::Node" = type { %"class.xalanc_1_10::ArenaBlock"*, %"struct.xalanc_1_10::XalanList<xalanc_1_10::ArenaBlock<xalanc_1_10::XalanDOMString, unsigned long> *>::Node"*, %"struct.xalanc_1_10::XalanList<xalanc_1_10::ArenaBlock<xalanc_1_10::XalanDOMString, unsigned long> *>::Node"* }
%"class.xalanc_1_10::ArenaBlock" = type { %"class.xalanc_1_10::ArenaBlockBase" }
%"class.xalanc_1_10::ArenaBlockBase" = type { %"class.xalanc_1_10::XalanAllocator", i64, i64, %"class.xalanc_1_10::XalanDOMString"* }
%"class.xalanc_1_10::XalanAllocator" = type { %"class.xercesc_2_7::MemoryManager"* }
%"class.xalanc_1_10::XalanFileOutputStream" = type { %"class.xalanc_1_10::XalanOutputStream", %"class.xalanc_1_10::XalanDOMString", %struct._IO_FILE* }
%"class.xalanc_1_10::XalanOutputStreamPrintWriter" = type <{ %"class.xalanc_1_10::PrintWriter", %"class.xalanc_1_10::XalanOutputStream"*, %"class.xalanc_1_10::XalanDOMString", i8, [7 x i8] }>
%"class.xalanc_1_10::FormatterTreeWalker" = type { %"class.xalanc_1_10::TreeWalker", %"class.xalanc_1_10::FormatterListener"*, %"class.xercesc_2_7::MemoryManager"* }
%"class.xalanc_1_10::TreeWalker" = type { i32 (...)** }
%"class.xalanc_1_10::XalanTransformer" = type { i32 (...)**, %"class.xercesc_2_7::MemoryManager"*, %"class.xalanc_1_10::XalanVector.101", %"class.xalanc_1_10::XalanVector.102", %"class.xalanc_1_10::XalanVector.103", %"class.xalanc_1_10::XalanVector.105", %"class.xalanc_1_10::XalanVector.107", %"class.xalanc_1_10::XalanVector.0", i8, %"class.xercesc_2_7::EntityResolver"*, %"class.xercesc_2_7::ErrorHandler"*, %"class.xalanc_1_10::XalanDOMString", %"class.xalanc_1_10::XalanDOMString", %"class.xalanc_1_10::ProblemListener"*, %"class.std::basic_ostream"*, %"class.xalanc_1_10::XalanDOMString", i8, %"class.xalanc_1_10::StylesheetExecutionContextDefault"* }
%"class.xalanc_1_10::XalanVector.101" = type { %"class.xercesc_2_7::MemoryManager"*, i64, i64, %"class.xalanc_1_10::XalanCompiledStylesheet"** }
%"class.xalanc_1_10::XalanVector.102" = type { %"class.xercesc_2_7::MemoryManager"*, i64, i64, %"class.xalanc_1_10::XalanParsedSource"** }
%"class.xalanc_1_10::XalanParsedSource" = type opaque
%"class.xalanc_1_10::XalanVector.103" = type { %"class.xercesc_2_7::MemoryManager"*, i64, i64, %"struct.std::pair.104"* }
%"struct.std::pair.104" = type opaque
%"class.xalanc_1_10::XalanVector.105" = type { %"class.xercesc_2_7::MemoryManager"*, i64, i64, %"struct.std::pair.106"* }
%"struct.std::pair.106" = type opaque
%"class.xalanc_1_10::XalanVector.107" = type { %"class.xercesc_2_7::MemoryManager"*, i64, i64, %"class.xalanc_1_10::TraceListener"** }
%"class.xalanc_1_10::TraceListener" = type opaque
%"class.xalanc_1_10::ProblemListener" = type opaque
%"class.xalanc_1_10::StylesheetExecutionContextDefault" = type opaque
%"class.xalanc_1_10::XSLTResultTarget" = type { %"class.xalanc_1_10::XalanDOMString", %"class.std::basic_ostream"*, %"class.xalanc_1_10::XalanDOMString", %"class.xalanc_1_10::Writer"*, %"class.xalanc_1_10::FormatterListener"*, %struct._IO_FILE* }
%"struct.std::random_access_iterator_tag" = type { i8 }
%struct.__dirstream = type opaque
%"struct.xalanc_1_10::FindFileStruct" = type { %struct.dirent }
%struct.dirent = type { i64, i64, i16, i8, [256 x i8] }
%struct.stat = type { i64, i64, i64, i32, i32, i32, i32, i64, i64, i64, i64, %struct.timespec, %struct.timespec, %struct.timespec, [3 x i64] }
%struct.timespec = type { i64, i64 }
%"struct.std::iterator" = type { i8 }
%"struct.xalanc_1_10::XalanListIteratorBase.143" = type { %"struct.xalanc_1_10::XalanList<xalanc_1_10::XalanMap<xalanc_1_10::XalanDOMString, xalanc_1_10::XalanDOMString, xalanc_1_10::XalanMapKeyTraits<xalanc_1_10::XalanDOMString> >::Entry>::Node"* }

$_ZN11xercesc_2_710XMLDeleterD0Ev = comdat any

$_ZN11xercesc_2_710XMLDeleterD2Ev = comdat any

$_ZN11xalanc_1_1014XalanDOMStringD2Ev = comdat any

$_ZN11xalanc_1_105clearERNS_14XalanDOMStringE = comdat any

$_ZN11xalanc_1_1016XalanFileUtility9cmdParamsD2Ev = comdat any

$_ZN11xalanc_1_1016XalanFileUtility12reportStructD2Ev = comdat any

$_ZN11xalanc_1_106assignERNS_14XalanDOMStringERKS0_ = comdat any

$_ZN11xalanc_1_106appendERNS_14XalanDOMStringEPKtj = comdat any

$_ZN11xalanc_1_1011XalanVectorIcNS_31MemoryManagedConstructionTraitsIcEEEC2ERN11xercesc_2_713MemoryManagerEm = comdat any

$_ZN11xalanc_1_1024TranscodeToLocalCodePageERKNS_14XalanDOMStringERNS_11XalanVectorIcNS_31MemoryManagedConstructionTraitsIcEEEEb = comdat any

$_ZN11xalanc_1_105c_strERKNS_11XalanVectorIcNS_31MemoryManagedConstructionTraitsIcEEEE = comdat any

$_ZN11xalanc_1_1011XalanVectorIcNS_31MemoryManagedConstructionTraitsIcEEED2Ev = comdat any

$_ZN11xalanc_1_1011lastIndexOfERKNS_14XalanDOMStringEt = comdat any

$_ZN11xalanc_1_106lengthERKNS_14XalanDOMStringE = comdat any

$_ZN11xalanc_1_106appendERNS_14XalanDOMStringERKS0_ = comdat any

$_ZN11xalanc_1_1014XalanDOMStringaSERKS0_ = comdat any

$_ZN11xalanc_1_1014XalanDOMString6assignERKS0_ = comdat any

$_ZN11xalanc_1_1014XalanDOMStringpLERKS0_ = comdat any

$_ZN11xalanc_1_1014XalanDOMStringpLEPKt = comdat any

$_ZN11xalanc_1_1026DirectoryEnumeratorFunctorINS_11XalanVectorINS_14XalanDOMStringENS_31MemoryManagedConstructionTraitsIS2_EEEES2_NS_24FilesOnlyFilterPredicateENS_14c_wstr_functorEEC2ERN11xercesc_2_713MemoryManagerEb = comdat any

$_ZNK11xalanc_1_1026DirectoryEnumeratorFunctorINS_11XalanVectorINS_14XalanDOMStringENS_31MemoryManagedConstructionTraitsIS2_EEEES2_NS_24FilesOnlyFilterPredicateENS_14c_wstr_functorEEclERKS2_RS5_ = comdat any

$_ZN11xalanc_1_1026DirectoryEnumeratorFunctorINS_11XalanVectorINS_14XalanDOMStringENS_31MemoryManagedConstructionTraitsIS2_EEEES2_NS_24DirectoryFilterPredicateENS_14c_wstr_functorEEC2ERN11xercesc_2_713MemoryManagerEb = comdat any

$_ZNK11xalanc_1_1026DirectoryEnumeratorFunctorINS_11XalanVectorINS_14XalanDOMStringENS_31MemoryManagedConstructionTraitsIS2_EEEES2_NS_24DirectoryFilterPredicateENS_14c_wstr_functorEEclERKS2_SA_RS5_ = comdat any

$_ZN11xalanc_1_10lsERSoRKNS_11XalanVectorIcNS_31MemoryManagedConstructionTraitsIcEEEE = comdat any

$_ZN11xalanc_1_106charAtERKNS_14XalanDOMStringEj = comdat any

$_ZN11xalanc_1_10lsERSoRNS_14XalanDOMStringE = comdat any

$_ZN11xalanc_1_1014XalanDOMString6assignEPKc = comdat any

$_ZNK11xalanc_1_1014StylesheetRoot16getOutputVersionERNS_14XalanDOMStringE = comdat any

$_ZNK11xalanc_1_1014StylesheetRoot18getOutputMediaTypeERNS_14XalanDOMStringE = comdat any

$_ZNK11xalanc_1_1014StylesheetRoot22getOutputDoctypeSystemERNS_14XalanDOMStringE = comdat any

$_ZNK11xalanc_1_1014StylesheetRoot22getOutputDoctypePublicERNS_14XalanDOMStringE = comdat any

$_ZNK11xalanc_1_1014StylesheetRoot19getOutputStandaloneERNS_14XalanDOMStringE = comdat any

$_ZNK11xalanc_1_1014StylesheetRoot15getOutputIndentEv = comdat any

$_ZN11xalanc_1_1011PrintWriter16getMemoryManagerEv = comdat any

$_ZN11xalanc_1_108XalanMapINS_14XalanDOMStringES1_NS_17XalanMapKeyTraitsIS1_EEEC2ERN11xercesc_2_713MemoryManagerEfmm = comdat any

$_ZN11xalanc_1_108XalanMapINS_14XalanDOMStringES1_NS_17XalanMapKeyTraitsIS1_EEE6insertERKS1_S6_ = comdat any

$_ZN11xalanc_1_108XalanMapINS_14XalanDOMStringES1_NS_17XalanMapKeyTraitsIS1_EEED2Ev = comdat any

$_ZN11xalanc_1_10eqERKNS_14XalanDOMStringES2_ = comdat any

$_ZN11xalanc_1_1014XalanDOMStringaSEPKc = comdat any

$_ZN11xalanc_1_1020destroyObjWithMemMgrINS_17FormatterListenerEEEvPKT_RN11xercesc_2_713MemoryManagerE = comdat any

$_ZN11xalanc_1_1025XalanSourceTreeDOMSupport16setParserLiaisonEPKNS_28XalanSourceTreeParserLiaisonE = comdat any

$__clang_call_terminate = comdat any

$_ZN11xalanc_1_1015XSLTInputSourceD2Ev = comdat any

$_ZN11xalanc_1_10neERKNS_14XalanDOMStringES2_ = comdat any

$_ZN11xalanc_1_1014XalanDOMString6appendERKS0_ = comdat any

$_ZN11xalanc_1_1020XalanXMLFileReporter16logElementWAttrsEiPKcRNS_8XalanMapINS_14XalanDOMStringES4_NS_17XalanMapKeyTraitsIS4_EEEES2_ = comdat any

$_ZN11xalanc_1_1011XalanVectorIcNS_31MemoryManagedConstructionTraitsIcEEEixEm = comdat any

$_ZNK11xalanc_1_1016XalanTransformer12getLastErrorEv = comdat any

$_ZN11xalanc_1_1011XalanVectorItNS_31MemoryManagedConstructionTraitsItEEED2Ev = comdat any

$_ZNK11xalanc_1_1011XalanVectorItNS_31MemoryManagedConstructionTraitsItEEE10invariantsEv = comdat any

$_ZN11xalanc_1_1011XalanVectorItNS_31MemoryManagedConstructionTraitsItEEE7destroyEPtS4_ = comdat any

$_ZN11xalanc_1_1011XalanVectorItNS_31MemoryManagedConstructionTraitsItEEE5beginEv = comdat any

$_ZN11xalanc_1_1011XalanVectorItNS_31MemoryManagedConstructionTraitsItEEE3endEv = comdat any

$_ZN11xalanc_1_1011XalanVectorItNS_31MemoryManagedConstructionTraitsItEEE10deallocateEPt = comdat any

$_ZN11xalanc_1_1011XalanVectorItNS_31MemoryManagedConstructionTraitsItEEE7destroyERt = comdat any

$_ZN11xalanc_1_1011XalanVectorItNS_31MemoryManagedConstructionTraitsItEEE10endPointerEv = comdat any

$_ZN11xalanc_1_1014XalanDOMString5clearEv = comdat any

$_ZNK11xalanc_1_1014XalanDOMString10invariantsEv = comdat any

$_ZN11xalanc_1_1011XalanVectorItNS_31MemoryManagedConstructionTraitsItEEE5eraseEPtS4_ = comdat any

$_ZSt4copyIPtS0_ET0_T_S2_S1_ = comdat any

$_ZN11xalanc_1_1011XalanVectorItNS_31MemoryManagedConstructionTraitsItEEE11shrinkCountEm = comdat any

$_ZN11xalanc_1_1011XalanVectorItNS_31MemoryManagedConstructionTraitsItEEE14local_distanceEPKtS5_ = comdat any

$_ZSt13__copy_move_aILb0EPtS0_ET1_T0_S2_S1_ = comdat any

$_ZSt12__miter_baseIPtET_S1_ = comdat any

$_ZSt12__niter_wrapIPtET_RKS1_S1_ = comdat any

$_ZSt14__copy_move_a1ILb0EPtS0_ET1_T0_S2_S1_ = comdat any

$_ZSt12__niter_baseIPtET_S1_ = comdat any

$_ZSt14__copy_move_a2ILb0EPtS0_ET1_T0_S2_S1_ = comdat any

$_ZNSt11__copy_moveILb0ELb1ESt26random_access_iterator_tagE8__copy_mItEEPT_PKS3_S6_S4_ = comdat any

$_ZN11xalanc_1_1011XalanVectorItNS_31MemoryManagedConstructionTraitsItEEE8pop_backEv = comdat any

$_ZSt8distanceIPKtENSt15iterator_traitsIT_E15difference_typeES3_S3_ = comdat any

$_ZSt10__distanceIPKtENSt15iterator_traitsIT_E15difference_typeES3_S3_St26random_access_iterator_tag = comdat any

$_ZSt19__iterator_categoryIPKtENSt15iterator_traitsIT_E17iterator_categoryERKS3_ = comdat any

$_ZN11xalanc_1_1014XalanDOMString6appendEPKt = comdat any

$_ZNK11xalanc_1_1014XalanDOMString5c_strEv = comdat any

$_ZNK11xalanc_1_1011XalanVectorItNS_31MemoryManagedConstructionTraitsItEEE5emptyEv = comdat any

$_ZNK11xalanc_1_1011XalanVectorItNS_31MemoryManagedConstructionTraitsItEEEixEm = comdat any

$_ZNK11xalanc_1_1011XalanVectorIcNS_31MemoryManagedConstructionTraitsIcEEE5emptyEv = comdat any

$_ZNK11xalanc_1_1011XalanVectorIcNS_31MemoryManagedConstructionTraitsIcEEEixEm = comdat any

$_ZNK11xalanc_1_1011XalanVectorIcNS_31MemoryManagedConstructionTraitsIcEEE10invariantsEv = comdat any

$_ZN11xalanc_1_106c_wstrERKNS_14XalanDOMStringE = comdat any

$_ZNK11xalanc_1_1014XalanDOMString6lengthEv = comdat any

$_ZNK11xalanc_1_1014XalanDOMString4sizeEv = comdat any

$_ZN11xalanc_1_1011XalanVectorItNS_31MemoryManagedConstructionTraitsItEEEaSERKS3_ = comdat any

$_ZN11xalanc_1_1011XalanVectorItNS_31MemoryManagedConstructionTraitsItEEEC2ERKS3_RN11xercesc_2_713MemoryManagerEm = comdat any

$_ZN11xalanc_1_1011XalanVectorItNS_31MemoryManagedConstructionTraitsItEEE4swapERS3_ = comdat any

$_ZNK11xalanc_1_1011XalanVectorItNS_31MemoryManagedConstructionTraitsItEEE3endEv = comdat any

$_ZN11xalanc_1_1011XalanVectorItNS_31MemoryManagedConstructionTraitsItEEE12shrinkToSizeEm = comdat any

$_ZNK11xalanc_1_1011XalanVectorItNS_31MemoryManagedConstructionTraitsItEEE5beginEv = comdat any

$_ZN11xalanc_1_1011XalanVectorItNS_31MemoryManagedConstructionTraitsItEEE6insertEPtPKtS6_ = comdat any

$_ZSt4copyIPKtPtET0_T_S4_S3_ = comdat any

$_ZN11xalanc_1_1011XalanVectorItNS_31MemoryManagedConstructionTraitsItEEE9local_maxEmm = comdat any

$_ZN11xalanc_1_1011XalanVectorItNS_31MemoryManagedConstructionTraitsItEEEC2ERN11xercesc_2_713MemoryManagerEm = comdat any

$_ZN11xalanc_1_1011XalanVectorItNS_31MemoryManagedConstructionTraitsItEEE8allocateEm = comdat any

$_ZNK11xalanc_1_1011XalanVectorItNS_31MemoryManagedConstructionTraitsItEEE10endPointerEv = comdat any

$_ZNK11xalanc_1_1011XalanVectorItNS_31MemoryManagedConstructionTraitsItEEE4sizeEv = comdat any

$_ZN11xalanc_1_1011XalanVectorItNS_31MemoryManagedConstructionTraitsItEEE14ensureCapacityEm = comdat any

$_ZN11xalanc_1_1028ConstructWithNoMemoryManagerItE9constructEPtRKtRN11xercesc_2_713MemoryManagerE = comdat any

$_ZNK11xalanc_1_1011XalanVectorItNS_31MemoryManagedConstructionTraitsItEEE8capacityEv = comdat any

$_ZN11xalanc_1_1011XalanVectorItNS_31MemoryManagedConstructionTraitsItEEE10doPushBackERKt = comdat any

$_ZSt13copy_backwardIPtS0_ET0_T_S2_S1_ = comdat any

$_ZN11xalanc_1_1011XalanVectorItNS_31MemoryManagedConstructionTraitsItEEE9doReserveEm = comdat any

$_ZSt22__copy_move_backward_aILb0EPtS0_ET1_T0_S2_S1_ = comdat any

$_ZSt23__copy_move_backward_a1ILb0EPtS0_ET1_T0_S2_S1_ = comdat any

$_ZSt23__copy_move_backward_a2ILb0EPtS0_ET1_T0_S2_S1_ = comdat any

$_ZNSt20__copy_move_backwardILb0ELb1ESt26random_access_iterator_tagE13__copy_move_bItEEPT_PKS3_S6_S4_ = comdat any

$_ZSt13__copy_move_aILb0EPKtPtET1_T0_S4_S3_ = comdat any

$_ZSt12__miter_baseIPKtET_S2_ = comdat any

$_ZSt14__copy_move_a1ILb0EPKtPtET1_T0_S4_S3_ = comdat any

$_ZSt12__niter_baseIPKtET_S2_ = comdat any

$_ZSt14__copy_move_a2ILb0EPKtPtET1_T0_S4_S3_ = comdat any

$_ZNK11xalanc_1_1014XalanDOMStringixEj = comdat any

$_ZN11xalanc_1_1012OutputStringERSoRKNS_14XalanDOMStringERN11xercesc_2_713MemoryManagerE = comdat any

$_ZN11xalanc_1_1014XalanDOMString16getMemoryManagerEv = comdat any

$_ZN11xalanc_1_1011XalanVectorItNS_31MemoryManagedConstructionTraitsItEEE16getMemoryManagerEv = comdat any

$_ZN11xalanc_1_1014XalanDOMString6appendEPKc = comdat any

$_ZN11xalanc_1_1020XalanXMLFileReporter16getMemoryManagerEv = comdat any

$_ZN11xalanc_1_1011XalanVectorIcNS_31MemoryManagedConstructionTraitsIcEEE8allocateEm = comdat any

$_ZN11xalanc_1_1011XalanVectorIcNS_31MemoryManagedConstructionTraitsIcEEE7destroyEPcS4_ = comdat any

$_ZN11xalanc_1_1011XalanVectorIcNS_31MemoryManagedConstructionTraitsIcEEE5beginEv = comdat any

$_ZN11xalanc_1_1011XalanVectorIcNS_31MemoryManagedConstructionTraitsIcEEE3endEv = comdat any

$_ZN11xalanc_1_1011XalanVectorIcNS_31MemoryManagedConstructionTraitsIcEEE10deallocateEPc = comdat any

$_ZN11xalanc_1_1011XalanVectorIcNS_31MemoryManagedConstructionTraitsIcEEE7destroyERc = comdat any

$_ZN11xalanc_1_1011XalanVectorIcNS_31MemoryManagedConstructionTraitsIcEEE10endPointerEv = comdat any

$_ZN11xalanc_1_1018EnumerateDirectoryISt20back_insert_iteratorINS_11XalanVectorINS_14XalanDOMStringENS_31MemoryManagedConstructionTraitsIS3_EEEEENS_24FilesOnlyFilterPredicateES3_NS_14c_wstr_functorEEEvRN11xercesc_2_713MemoryManagerERKT1_T_T0_T2_b = comdat any

$_ZSt13back_inserterIN11xalanc_1_1011XalanVectorINS0_14XalanDOMStringENS0_31MemoryManagedConstructionTraitsIS2_EEEEESt20back_insert_iteratorIT_ERS7_ = comdat any

$_ZNK11xalanc_1_1011XalanVectorIcNS_31MemoryManagedConstructionTraitsIcEEE4sizeEv = comdat any

$_ZN11xalanc_1_1011XalanVectorIcNS_31MemoryManagedConstructionTraitsIcEEE4backEv = comdat any

$_ZN11xalanc_1_1011XalanVectorIcNS_31MemoryManagedConstructionTraitsIcEEE8pop_backEv = comdat any

$_ZN11xalanc_1_1011XalanVectorIcNS_31MemoryManagedConstructionTraitsIcEEE9push_backERKc = comdat any

$_ZNK11xalanc_1_1014XalanDOMString6substrERS0_jj = comdat any

$_ZNK11xalanc_1_1014FindFileStruct14isSelfOrParentEv = comdat any

$_ZNK11xalanc_1_1024FilesOnlyFilterPredicateclERKNS_14FindFileStructE = comdat any

$_ZNK11xalanc_1_1014FindFileStruct7getNameEv = comdat any

$_ZNSt20back_insert_iteratorIN11xalanc_1_1011XalanVectorINS0_14XalanDOMStringENS0_31MemoryManagedConstructionTraitsIS2_EEEEEdeEv = comdat any

$_ZNSt20back_insert_iteratorIN11xalanc_1_1011XalanVectorINS0_14XalanDOMStringENS0_31MemoryManagedConstructionTraitsIS2_EEEEEaSEOS2_ = comdat any

$_ZNK11xalanc_1_1014XalanDOMString7compareERKS0_ = comdat any

$_ZN11xalanc_1_1011XalanVectorIcNS_31MemoryManagedConstructionTraitsIcEEE10doPushBackERKc = comdat any

$_ZN11xalanc_1_1028ConstructWithNoMemoryManagerIcE9constructEPcRKcRN11xercesc_2_713MemoryManagerE = comdat any

$_ZN11xalanc_1_1011XalanVectorIcNS_31MemoryManagedConstructionTraitsIcEEEC2ERKS3_RN11xercesc_2_713MemoryManagerEm = comdat any

$_ZN11xalanc_1_1011XalanVectorIcNS_31MemoryManagedConstructionTraitsIcEEE4swapERS3_ = comdat any

$_ZN11xalanc_1_1011XalanVectorIcNS_31MemoryManagedConstructionTraitsIcEEE9local_maxEmm = comdat any

$_ZN11xalanc_1_1011XalanVectorIcNS_31MemoryManagedConstructionTraitsIcEEE6insertEPcPKcS6_ = comdat any

$_ZNK11xalanc_1_1011XalanVectorIcNS_31MemoryManagedConstructionTraitsIcEEE5beginEv = comdat any

$_ZNK11xalanc_1_1011XalanVectorIcNS_31MemoryManagedConstructionTraitsIcEEE3endEv = comdat any

$_ZN11xalanc_1_1011XalanVectorIcNS_31MemoryManagedConstructionTraitsIcEEE14local_distanceEPKcS5_ = comdat any

$_ZN11xalanc_1_1011XalanVectorIcNS_31MemoryManagedConstructionTraitsIcEEE14ensureCapacityEm = comdat any

$_ZNK11xalanc_1_1011XalanVectorIcNS_31MemoryManagedConstructionTraitsIcEEE8capacityEv = comdat any

$_ZSt4copyIPKcPcET0_T_S4_S3_ = comdat any

$_ZSt13copy_backwardIPcS0_ET0_T_S2_S1_ = comdat any

$_ZSt8distanceIPKcENSt15iterator_traitsIT_E15difference_typeES3_S3_ = comdat any

$_ZSt10__distanceIPKcENSt15iterator_traitsIT_E15difference_typeES3_S3_St26random_access_iterator_tag = comdat any

$_ZSt19__iterator_categoryIPKcENSt15iterator_traitsIT_E17iterator_categoryERKS3_ = comdat any

$_ZN11xalanc_1_1011XalanVectorIcNS_31MemoryManagedConstructionTraitsIcEEE9doReserveEm = comdat any

$_ZSt13__copy_move_aILb0EPKcPcET1_T0_S4_S3_ = comdat any

$_ZSt12__miter_baseIPKcET_S2_ = comdat any

$_ZSt12__niter_wrapIPcET_RKS1_S1_ = comdat any

$_ZSt14__copy_move_a1ILb0EPKcPcET1_T0_S4_S3_ = comdat any

$_ZSt12__niter_baseIPKcET_S2_ = comdat any

$_ZSt12__niter_baseIPcET_S1_ = comdat any

$_ZSt14__copy_move_a2ILb0EPKcPcET1_T0_S4_S3_ = comdat any

$_ZNSt11__copy_moveILb0ELb1ESt26random_access_iterator_tagE8__copy_mIcEEPT_PKS3_S6_S4_ = comdat any

$_ZSt22__copy_move_backward_aILb0EPcS0_ET1_T0_S2_S1_ = comdat any

$_ZSt12__miter_baseIPcET_S1_ = comdat any

$_ZSt23__copy_move_backward_a1ILb0EPcS0_ET1_T0_S2_S1_ = comdat any

$_ZSt23__copy_move_backward_a2ILb0EPcS0_ET1_T0_S2_S1_ = comdat any

$_ZNSt20__copy_move_backwardILb0ELb1ESt26random_access_iterator_tagE13__copy_move_bIcEEPT_PKS3_S6_S4_ = comdat any

$_ZNK11xalanc_1_1011XalanVectorIcNS_31MemoryManagedConstructionTraitsIcEEE10endPointerEv = comdat any

$_ZNK11xalanc_1_1014FindFileStruct11isDirectoryEv = comdat any

$_ZNK11xalanc_1_1024DirectoryFilterPredicateclERKNS_14FindFileStructE = comdat any

$_ZN11xalanc_1_1011XalanVectorINS_14XalanDOMStringENS_31MemoryManagedConstructionTraitsIS1_EEE9push_backERKS1_ = comdat any

$_ZSt4moveIRN11xalanc_1_1014XalanDOMStringEEONSt16remove_referenceIT_E4typeEOS4_ = comdat any

$_ZNK11xalanc_1_1011XalanVectorINS_14XalanDOMStringENS_31MemoryManagedConstructionTraitsIS1_EEE10invariantsEv = comdat any

$_ZN11xalanc_1_1011XalanVectorINS_14XalanDOMStringENS_31MemoryManagedConstructionTraitsIS1_EEE10doPushBackERKS1_ = comdat any

$_ZN11xalanc_1_1026ConstructWithMemoryManagerINS_14XalanDOMStringEE9constructEPS1_RKS1_RN11xercesc_2_713MemoryManagerE = comdat any

$_ZN11xalanc_1_1011XalanVectorINS_14XalanDOMStringENS_31MemoryManagedConstructionTraitsIS1_EEE10endPointerEv = comdat any

$_ZN11xalanc_1_1011XalanVectorINS_14XalanDOMStringENS_31MemoryManagedConstructionTraitsIS1_EEEC2ERKS4_RN11xercesc_2_713MemoryManagerEm = comdat any

$_ZN11xalanc_1_1011XalanVectorINS_14XalanDOMStringENS_31MemoryManagedConstructionTraitsIS1_EEE4swapERS4_ = comdat any

$_ZN11xalanc_1_1011XalanVectorINS_14XalanDOMStringENS_31MemoryManagedConstructionTraitsIS1_EEED2Ev = comdat any

$_ZN11xalanc_1_1011XalanVectorINS_14XalanDOMStringENS_31MemoryManagedConstructionTraitsIS1_EEE9local_maxEmm = comdat any

$_ZN11xalanc_1_1011XalanVectorINS_14XalanDOMStringENS_31MemoryManagedConstructionTraitsIS1_EEEC2ERN11xercesc_2_713MemoryManagerEm = comdat any

$_ZN11xalanc_1_1011XalanVectorINS_14XalanDOMStringENS_31MemoryManagedConstructionTraitsIS1_EEE6insertEPS1_PKS1_S7_ = comdat any

$_ZN11xalanc_1_1011XalanVectorINS_14XalanDOMStringENS_31MemoryManagedConstructionTraitsIS1_EEE5beginEv = comdat any

$_ZNK11xalanc_1_1011XalanVectorINS_14XalanDOMStringENS_31MemoryManagedConstructionTraitsIS1_EEE5beginEv = comdat any

$_ZNK11xalanc_1_1011XalanVectorINS_14XalanDOMStringENS_31MemoryManagedConstructionTraitsIS1_EEE3endEv = comdat any

$_ZN11xalanc_1_1011XalanVectorINS_14XalanDOMStringENS_31MemoryManagedConstructionTraitsIS1_EEE8allocateEm = comdat any

$_ZN11xalanc_1_1011XalanVectorINS_14XalanDOMStringENS_31MemoryManagedConstructionTraitsIS1_EEE14local_distanceEPKS1_S6_ = comdat any

$_ZNK11xalanc_1_1011XalanVectorINS_14XalanDOMStringENS_31MemoryManagedConstructionTraitsIS1_EEE4sizeEv = comdat any

$_ZN11xalanc_1_1011XalanVectorINS_14XalanDOMStringENS_31MemoryManagedConstructionTraitsIS1_EEE3endEv = comdat any

$_ZN11xalanc_1_1011XalanVectorINS_14XalanDOMStringENS_31MemoryManagedConstructionTraitsIS1_EEE14ensureCapacityEm = comdat any

$_ZNK11xalanc_1_1011XalanVectorINS_14XalanDOMStringENS_31MemoryManagedConstructionTraitsIS1_EEE8capacityEv = comdat any

$_ZSt4copyIPKN11xalanc_1_1014XalanDOMStringEPS1_ET0_T_S6_S5_ = comdat any

$_ZSt13copy_backwardIPN11xalanc_1_1014XalanDOMStringES2_ET0_T_S4_S3_ = comdat any

$_ZSt8distanceIPKN11xalanc_1_1014XalanDOMStringEENSt15iterator_traitsIT_E15difference_typeES5_S5_ = comdat any

$_ZSt10__distanceIPKN11xalanc_1_1014XalanDOMStringEENSt15iterator_traitsIT_E15difference_typeES5_S5_St26random_access_iterator_tag = comdat any

$_ZSt19__iterator_categoryIPKN11xalanc_1_1014XalanDOMStringEENSt15iterator_traitsIT_E17iterator_categoryERKS5_ = comdat any

$_ZN11xalanc_1_1011XalanVectorINS_14XalanDOMStringENS_31MemoryManagedConstructionTraitsIS1_EEE9doReserveEm = comdat any

$_ZSt13__copy_move_aILb0EPKN11xalanc_1_1014XalanDOMStringEPS1_ET1_T0_S6_S5_ = comdat any

$_ZSt12__miter_baseIPKN11xalanc_1_1014XalanDOMStringEET_S4_ = comdat any

$_ZSt12__niter_wrapIPN11xalanc_1_1014XalanDOMStringEET_RKS3_S3_ = comdat any

$_ZSt14__copy_move_a1ILb0EPKN11xalanc_1_1014XalanDOMStringEPS1_ET1_T0_S6_S5_ = comdat any

$_ZSt12__niter_baseIPKN11xalanc_1_1014XalanDOMStringEET_S4_ = comdat any

$_ZSt12__niter_baseIPN11xalanc_1_1014XalanDOMStringEET_S3_ = comdat any

$_ZSt14__copy_move_a2ILb0EPKN11xalanc_1_1014XalanDOMStringEPS1_ET1_T0_S6_S5_ = comdat any

$_ZNSt11__copy_moveILb0ELb0ESt26random_access_iterator_tagE8__copy_mIPKN11xalanc_1_1014XalanDOMStringEPS4_EET0_T_S9_S8_ = comdat any

$_ZSt22__copy_move_backward_aILb0EPN11xalanc_1_1014XalanDOMStringES2_ET1_T0_S4_S3_ = comdat any

$_ZSt12__miter_baseIPN11xalanc_1_1014XalanDOMStringEET_S3_ = comdat any

$_ZSt23__copy_move_backward_a1ILb0EPN11xalanc_1_1014XalanDOMStringES2_ET1_T0_S4_S3_ = comdat any

$_ZSt23__copy_move_backward_a2ILb0EPN11xalanc_1_1014XalanDOMStringES2_ET1_T0_S4_S3_ = comdat any

$_ZNSt20__copy_move_backwardILb0ELb0ESt26random_access_iterator_tagE13__copy_move_bIPN11xalanc_1_1014XalanDOMStringES5_EET0_T_S7_S6_ = comdat any

$_ZNK11xalanc_1_1011XalanVectorINS_14XalanDOMStringENS_31MemoryManagedConstructionTraitsIS1_EEE10endPointerEv = comdat any

$_ZN11xalanc_1_1011XalanVectorINS_14XalanDOMStringENS_31MemoryManagedConstructionTraitsIS1_EEE7destroyEPS1_S5_ = comdat any

$_ZN11xalanc_1_1011XalanVectorINS_14XalanDOMStringENS_31MemoryManagedConstructionTraitsIS1_EEE10deallocateEPS1_ = comdat any

$_ZN11xalanc_1_1011XalanVectorINS_14XalanDOMStringENS_31MemoryManagedConstructionTraitsIS1_EEE7destroyERS1_ = comdat any

$_ZNSt20back_insert_iteratorIN11xalanc_1_1011XalanVectorINS0_14XalanDOMStringENS0_31MemoryManagedConstructionTraitsIS2_EEEEEC2ERS5_ = comdat any

$_ZSt11__addressofIN11xalanc_1_1011XalanVectorINS0_14XalanDOMStringENS0_31MemoryManagedConstructionTraitsIS2_EEEEEPT_RS6_ = comdat any

$_ZN11xalanc_1_1018EnumerateDirectoryISt20back_insert_iteratorINS_11XalanVectorINS_14XalanDOMStringENS_31MemoryManagedConstructionTraitsIS3_EEEEENS_24DirectoryFilterPredicateES3_NS_14c_wstr_functorEEEvRN11xercesc_2_713MemoryManagerERKT1_SF_T_T0_T2_b = comdat any

$_ZN11xalanc_1_1018EnumerateDirectoryISt20back_insert_iteratorINS_11XalanVectorINS_14XalanDOMStringENS_31MemoryManagedConstructionTraitsIS3_EEEEENS_24DirectoryFilterPredicateES3_NS_14c_wstr_functorEEEvRN11xercesc_2_713MemoryManagerERKT1_T_T0_T2_b = comdat any

$_ZN11xalanc_1_109XalanListINS_8XalanMapINS_14XalanDOMStringES2_NS_17XalanMapKeyTraitsIS2_EEE5EntryEEC2ERN11xercesc_2_713MemoryManagerE = comdat any

$_ZN11xalanc_1_1011XalanVectorINS0_INS_21XalanListIteratorBaseINS_23XalanListIteratorTraitsINS_8XalanMapINS_14XalanDOMStringES4_NS_17XalanMapKeyTraitsIS4_EEE5EntryEEENS_9XalanListIS8_E4NodeEEENS_31MemoryManagedConstructionTraitsISD_EEEENS_32ConstructWithMemoryManagerTraitsISG_EEEC2ERN11xercesc_2_713MemoryManagerEm = comdat any

$_ZN11xalanc_1_109XalanListINS_8XalanMapINS_14XalanDOMStringES2_NS_17XalanMapKeyTraitsIS2_EEE5EntryEED2Ev = comdat any

$_ZN11xalanc_1_1011XalanVectorINS0_INS_21XalanListIteratorBaseINS_23XalanListIteratorTraitsINS_8XalanMapINS_14XalanDOMStringES4_NS_17XalanMapKeyTraitsIS4_EEE5EntryEEENS_9XalanListIS8_E4NodeEEENS_31MemoryManagedConstructionTraitsISD_EEEENS_32ConstructWithMemoryManagerTraitsISG_EEE8allocateEm = comdat any

$_ZNK11xalanc_1_1011XalanVectorINS0_INS_21XalanListIteratorBaseINS_23XalanListIteratorTraitsINS_8XalanMapINS_14XalanDOMStringES4_NS_17XalanMapKeyTraitsIS4_EEE5EntryEEENS_9XalanListIS8_E4NodeEEENS_31MemoryManagedConstructionTraitsISD_EEEENS_32ConstructWithMemoryManagerTraitsISG_EEE10invariantsEv = comdat any

$_ZN11xalanc_1_109XalanListINS_8XalanMapINS_14XalanDOMStringES2_NS_17XalanMapKeyTraitsIS2_EEE5EntryEE5beginEv = comdat any

$_ZNK11xalanc_1_1021XalanListIteratorBaseINS_23XalanListIteratorTraitsINS_8XalanMapINS_14XalanDOMStringES3_NS_17XalanMapKeyTraitsIS3_EEE5EntryEEENS_9XalanListIS7_E4NodeEEneERKSC_ = comdat any

$_ZN11xalanc_1_109XalanListINS_8XalanMapINS_14XalanDOMStringES2_NS_17XalanMapKeyTraitsIS2_EEE5EntryEE3endEv = comdat any

$_ZN11xalanc_1_109XalanListINS_8XalanMapINS_14XalanDOMStringES2_NS_17XalanMapKeyTraitsIS2_EEE5EntryEE11destroyNodeERNS7_4NodeE = comdat any

$_ZN11xalanc_1_1021XalanListIteratorBaseINS_23XalanListIteratorTraitsINS_8XalanMapINS_14XalanDOMStringES3_NS_17XalanMapKeyTraitsIS3_EEE5EntryEEENS_9XalanListIS7_E4NodeEEppEi = comdat any

$_ZN11xalanc_1_1021XalanListIteratorBaseINS_23XalanListIteratorTraitsINS_8XalanMapINS_14XalanDOMStringES3_NS_17XalanMapKeyTraitsIS3_EEE5EntryEEENS_9XalanListIS7_E4NodeEE4nodeEv = comdat any

$_ZN11xalanc_1_109XalanListINS_8XalanMapINS_14XalanDOMStringES2_NS_17XalanMapKeyTraitsIS2_EEE5EntryEE10deallocateEPNS7_4NodeE = comdat any

$_ZN11xalanc_1_109XalanListINS_8XalanMapINS_14XalanDOMStringES2_NS_17XalanMapKeyTraitsIS2_EEE5EntryEE11getListHeadEv = comdat any

$_ZN11xalanc_1_1021XalanListIteratorBaseINS_23XalanListIteratorTraitsINS_8XalanMapINS_14XalanDOMStringES3_NS_17XalanMapKeyTraitsIS3_EEE5EntryEEENS_9XalanListIS7_E4NodeEEC2ERSB_ = comdat any

$_ZN11xalanc_1_109XalanListINS_8XalanMapINS_14XalanDOMStringES2_NS_17XalanMapKeyTraitsIS2_EEE5EntryEE8allocateEm = comdat any

$_ZNK11xalanc_1_1021XalanListIteratorBaseINS_23XalanListIteratorTraitsINS_8XalanMapINS_14XalanDOMStringES3_NS_17XalanMapKeyTraitsIS3_EEE5EntryEEENS_9XalanListIS7_E4NodeEEeqERKSC_ = comdat any

$_ZN11xalanc_1_108XalanMapINS_14XalanDOMStringES1_NS_17XalanMapKeyTraitsIS1_EEE15doRemoveEntriesEv = comdat any

$_ZNK11xalanc_1_1011XalanVectorINS0_INS_21XalanListIteratorBaseINS_23XalanListIteratorTraitsINS_8XalanMapINS_14XalanDOMStringES4_NS_17XalanMapKeyTraitsIS4_EEE5EntryEEENS_9XalanListIS8_E4NodeEEENS_31MemoryManagedConstructionTraitsISD_EEEENS_32ConstructWithMemoryManagerTraitsISG_EEE5emptyEv = comdat any

$_ZN11xalanc_1_108XalanMapINS_14XalanDOMStringES1_NS_17XalanMapKeyTraitsIS1_EEE10deallocateEPSt4pairIKS1_S1_E = comdat any

$_ZNK11xalanc_1_1021XalanListIteratorBaseINS_23XalanListIteratorTraitsINS_8XalanMapINS_14XalanDOMStringES3_NS_17XalanMapKeyTraitsIS3_EEE5EntryEEENS_9XalanListIS7_E4NodeEEptEv = comdat any

$_ZN11xalanc_1_1021XalanListIteratorBaseINS_23XalanListIteratorTraitsINS_8XalanMapINS_14XalanDOMStringES3_NS_17XalanMapKeyTraitsIS3_EEE5EntryEEENS_9XalanListIS7_E4NodeEEppEv = comdat any

$_ZN11xalanc_1_1011XalanVectorINS0_INS_21XalanListIteratorBaseINS_23XalanListIteratorTraitsINS_8XalanMapINS_14XalanDOMStringES4_NS_17XalanMapKeyTraitsIS4_EEE5EntryEEENS_9XalanListIS8_E4NodeEEENS_31MemoryManagedConstructionTraitsISD_EEEENS_32ConstructWithMemoryManagerTraitsISG_EEED2Ev = comdat any

$_ZNK11xalanc_1_108XalanMapINS_14XalanDOMStringES1_NS_17XalanMapKeyTraitsIS1_EEE4sizeEv = comdat any

$_ZN11xalanc_1_108XalanMapINS_14XalanDOMStringES1_NS_17XalanMapKeyTraitsIS1_EEE13doRemoveEntryERKNS_16XalanMapIteratorINS_22XalanMapIteratorTraitsISt4pairIKS1_S1_EEENS_21XalanListIteratorBaseINS_23XalanListIteratorTraitsINS4_5EntryEEENS_9XalanListISD_E4NodeEEEEE = comdat any

$_ZN11xalanc_1_108XalanMapINS_14XalanDOMStringES1_NS_17XalanMapKeyTraitsIS1_EEE5beginEv = comdat any

$_ZNK11xalanc_1_1016XalanMapIteratorINS_22XalanMapIteratorTraitsISt4pairIKNS_14XalanDOMStringES3_EEENS_21XalanListIteratorBaseINS_23XalanListIteratorTraitsINS_8XalanMapIS3_S3_NS_17XalanMapKeyTraitsIS3_EEE5EntryEEENS_9XalanListISD_E4NodeEEEEdeEv = comdat any

$_ZNSt4pairIKN11xalanc_1_1014XalanDOMStringES1_ED2Ev = comdat any

$_ZN11xalanc_1_109XalanListINS_8XalanMapINS_14XalanDOMStringES2_NS_17XalanMapKeyTraitsIS2_EEE5EntryEE6spliceENS_21XalanListIteratorBaseINS_23XalanListIteratorTraitsIS6_EENS7_4NodeEEERS7_SC_ = comdat any

$_ZN11xalanc_1_1021XalanListIteratorBaseINS_23XalanListIteratorTraitsINS_8XalanMapINS_14XalanDOMStringES3_NS_17XalanMapKeyTraitsIS3_EEE5EntryEEENS_9XalanListIS7_E4NodeEEC2ERKSC_ = comdat any

$_ZN11xalanc_1_1016XalanMapIteratorINS_22XalanMapIteratorTraitsISt4pairIKNS_14XalanDOMStringES3_EEENS_21XalanListIteratorBaseINS_23XalanListIteratorTraitsINS_8XalanMapIS3_S3_NS_17XalanMapKeyTraitsIS3_EEE5EntryEEENS_9XalanListISD_E4NodeEEEEC2ERKSI_ = comdat any

$_ZN11xalanc_1_1011XalanVectorINS0_INS_21XalanListIteratorBaseINS_23XalanListIteratorTraitsINS_8XalanMapINS_14XalanDOMStringES4_NS_17XalanMapKeyTraitsIS4_EEE5EntryEEENS_9XalanListIS8_E4NodeEEENS_31MemoryManagedConstructionTraitsISD_EEEENS_32ConstructWithMemoryManagerTraitsISG_EEE7destroyEPSG_SK_ = comdat any

$_ZN11xalanc_1_1011XalanVectorINS0_INS_21XalanListIteratorBaseINS_23XalanListIteratorTraitsINS_8XalanMapINS_14XalanDOMStringES4_NS_17XalanMapKeyTraitsIS4_EEE5EntryEEENS_9XalanListIS8_E4NodeEEENS_31MemoryManagedConstructionTraitsISD_EEEENS_32ConstructWithMemoryManagerTraitsISG_EEE5beginEv = comdat any

$_ZN11xalanc_1_1011XalanVectorINS0_INS_21XalanListIteratorBaseINS_23XalanListIteratorTraitsINS_8XalanMapINS_14XalanDOMStringES4_NS_17XalanMapKeyTraitsIS4_EEE5EntryEEENS_9XalanListIS8_E4NodeEEENS_31MemoryManagedConstructionTraitsISD_EEEENS_32ConstructWithMemoryManagerTraitsISG_EEE3endEv = comdat any

$_ZN11xalanc_1_1011XalanVectorINS0_INS_21XalanListIteratorBaseINS_23XalanListIteratorTraitsINS_8XalanMapINS_14XalanDOMStringES4_NS_17XalanMapKeyTraitsIS4_EEE5EntryEEENS_9XalanListIS8_E4NodeEEENS_31MemoryManagedConstructionTraitsISD_EEEENS_32ConstructWithMemoryManagerTraitsISG_EEE10deallocateEPSG_ = comdat any

$_ZN11xalanc_1_1011XalanVectorINS0_INS_21XalanListIteratorBaseINS_23XalanListIteratorTraitsINS_8XalanMapINS_14XalanDOMStringES4_NS_17XalanMapKeyTraitsIS4_EEE5EntryEEENS_9XalanListIS8_E4NodeEEENS_31MemoryManagedConstructionTraitsISD_EEEENS_32ConstructWithMemoryManagerTraitsISG_EEE7destroyERSG_ = comdat any

$_ZN11xalanc_1_1011XalanVectorINS_21XalanListIteratorBaseINS_23XalanListIteratorTraitsINS_8XalanMapINS_14XalanDOMStringES4_NS_17XalanMapKeyTraitsIS4_EEE5EntryEEENS_9XalanListIS8_E4NodeEEENS_31MemoryManagedConstructionTraitsISD_EEED2Ev = comdat any

$_ZNK11xalanc_1_1011XalanVectorINS_21XalanListIteratorBaseINS_23XalanListIteratorTraitsINS_8XalanMapINS_14XalanDOMStringES4_NS_17XalanMapKeyTraitsIS4_EEE5EntryEEENS_9XalanListIS8_E4NodeEEENS_31MemoryManagedConstructionTraitsISD_EEE10invariantsEv = comdat any

$_ZN11xalanc_1_1011XalanVectorINS_21XalanListIteratorBaseINS_23XalanListIteratorTraitsINS_8XalanMapINS_14XalanDOMStringES4_NS_17XalanMapKeyTraitsIS4_EEE5EntryEEENS_9XalanListIS8_E4NodeEEENS_31MemoryManagedConstructionTraitsISD_EEE7destroyEPSD_SH_ = comdat any

$_ZN11xalanc_1_1011XalanVectorINS_21XalanListIteratorBaseINS_23XalanListIteratorTraitsINS_8XalanMapINS_14XalanDOMStringES4_NS_17XalanMapKeyTraitsIS4_EEE5EntryEEENS_9XalanListIS8_E4NodeEEENS_31MemoryManagedConstructionTraitsISD_EEE5beginEv = comdat any

$_ZN11xalanc_1_1011XalanVectorINS_21XalanListIteratorBaseINS_23XalanListIteratorTraitsINS_8XalanMapINS_14XalanDOMStringES4_NS_17XalanMapKeyTraitsIS4_EEE5EntryEEENS_9XalanListIS8_E4NodeEEENS_31MemoryManagedConstructionTraitsISD_EEE3endEv = comdat any

$_ZN11xalanc_1_1011XalanVectorINS_21XalanListIteratorBaseINS_23XalanListIteratorTraitsINS_8XalanMapINS_14XalanDOMStringES4_NS_17XalanMapKeyTraitsIS4_EEE5EntryEEENS_9XalanListIS8_E4NodeEEENS_31MemoryManagedConstructionTraitsISD_EEE10deallocateEPSD_ = comdat any

$_ZN11xalanc_1_1011XalanVectorINS_21XalanListIteratorBaseINS_23XalanListIteratorTraitsINS_8XalanMapINS_14XalanDOMStringES4_NS_17XalanMapKeyTraitsIS4_EEE5EntryEEENS_9XalanListIS8_E4NodeEEENS_31MemoryManagedConstructionTraitsISD_EEE7destroyERSD_ = comdat any

$_ZN11xalanc_1_1011XalanVectorINS_21XalanListIteratorBaseINS_23XalanListIteratorTraitsINS_8XalanMapINS_14XalanDOMStringES4_NS_17XalanMapKeyTraitsIS4_EEE5EntryEEENS_9XalanListIS8_E4NodeEEENS_31MemoryManagedConstructionTraitsISD_EEE10endPointerEv = comdat any

$_ZN11xalanc_1_1011XalanVectorINS0_INS_21XalanListIteratorBaseINS_23XalanListIteratorTraitsINS_8XalanMapINS_14XalanDOMStringES4_NS_17XalanMapKeyTraitsIS4_EEE5EntryEEENS_9XalanListIS8_E4NodeEEENS_31MemoryManagedConstructionTraitsISD_EEEENS_32ConstructWithMemoryManagerTraitsISG_EEE10endPointerEv = comdat any

$_ZN11xalanc_1_108XalanMapINS_14XalanDOMStringES1_NS_17XalanMapKeyTraitsIS1_EEE4findERKS1_ = comdat any

$_ZN11xalanc_1_1016XalanMapIteratorINS_27XalanMapConstIteratorTraitsISt4pairIKNS_14XalanDOMStringES3_EEENS_21XalanListIteratorBaseINS_23XalanListIteratorTraitsINS_8XalanMapIS3_S3_NS_17XalanMapKeyTraitsIS3_EEE5EntryEEENS_9XalanListISD_E4NodeEEEEC2ERKNS0_INS_22XalanMapIteratorTraitsIS5_EESI_EE = comdat any

$_ZNK11xalanc_1_1016XalanMapIteratorINS_27XalanMapConstIteratorTraitsISt4pairIKNS_14XalanDOMStringES3_EEENS_21XalanListIteratorBaseINS_23XalanListIteratorTraitsINS_8XalanMapIS3_S3_NS_17XalanMapKeyTraitsIS3_EEE5EntryEEENS_9XalanListISD_E4NodeEEEEeqERKSJ_ = comdat any

$_ZN11xalanc_1_108XalanMapINS_14XalanDOMStringES1_NS_17XalanMapKeyTraitsIS1_EEE3endEv = comdat any

$_ZN11xalanc_1_108XalanMapINS_14XalanDOMStringES1_NS_17XalanMapKeyTraitsIS1_EEE13doCreateEntryERKS1_PS5_ = comdat any

$_ZNK11xalanc_1_108XalanMapINS_14XalanDOMStringES1_NS_17XalanMapKeyTraitsIS1_EEE6doHashERKS1_ = comdat any

$_ZN11xalanc_1_1011XalanVectorINS0_INS_21XalanListIteratorBaseINS_23XalanListIteratorTraitsINS_8XalanMapINS_14XalanDOMStringES4_NS_17XalanMapKeyTraitsIS4_EEE5EntryEEENS_9XalanListIS8_E4NodeEEENS_31MemoryManagedConstructionTraitsISD_EEEENS_32ConstructWithMemoryManagerTraitsISG_EEEixEm = comdat any

$_ZNKSt8equal_toIN11xalanc_1_1014XalanDOMStringEEclERKS1_S4_ = comdat any

$_ZNK11xalanc_1_108XalanMapINS_14XalanDOMStringES1_NS_17XalanMapKeyTraitsIS1_EEE6doHashERKS1_m = comdat any

$_ZNK11xalanc_1_1011XalanVectorINS0_INS_21XalanListIteratorBaseINS_23XalanListIteratorTraitsINS_8XalanMapINS_14XalanDOMStringES4_NS_17XalanMapKeyTraitsIS4_EEE5EntryEEENS_9XalanListIS8_E4NodeEEENS_31MemoryManagedConstructionTraitsISD_EEEENS_32ConstructWithMemoryManagerTraitsISG_EEE4sizeEv = comdat any

$_ZNK11xalanc_1_1021DOMStringHashFunctionclERKNS_14XalanDOMStringE = comdat any

$_ZNK11xalanc_1_1027hash_null_terminated_arraysItEclEPKt = comdat any

$_ZN11xalanc_1_1011XalanVectorINS0_INS_21XalanListIteratorBaseINS_23XalanListIteratorTraitsINS_8XalanMapINS_14XalanDOMStringES4_NS_17XalanMapKeyTraitsIS4_EEE5EntryEEENS_9XalanListIS8_E4NodeEEENS_31MemoryManagedConstructionTraitsISD_EEEENS_32ConstructWithMemoryManagerTraitsISG_EEE6insertEPSG_mRKSG_ = comdat any

$_ZN11xalanc_1_1011XalanVectorINS_21XalanListIteratorBaseINS_23XalanListIteratorTraitsINS_8XalanMapINS_14XalanDOMStringES4_NS_17XalanMapKeyTraitsIS4_EEE5EntryEEENS_9XalanListIS8_E4NodeEEENS_31MemoryManagedConstructionTraitsISD_EEEC2ERN11xercesc_2_713MemoryManagerEm = comdat any

$_ZN11xalanc_1_108XalanMapINS_14XalanDOMStringES1_NS_17XalanMapKeyTraitsIS1_EEE6rehashEv = comdat any

$_ZNK11xalanc_1_109XalanListINS_8XalanMapINS_14XalanDOMStringES2_NS_17XalanMapKeyTraitsIS2_EEE5EntryEE5emptyEv = comdat any

$_ZN11xalanc_1_109XalanListINS_8XalanMapINS_14XalanDOMStringES2_NS_17XalanMapKeyTraitsIS2_EEE5EntryEE9push_backERKS6_ = comdat any

$_ZN11xalanc_1_108XalanMapINS_14XalanDOMStringES1_NS_17XalanMapKeyTraitsIS1_EEE8allocateEm = comdat any

$_ZN11xalanc_1_108XalanMapINS_14XalanDOMStringES1_NS_17XalanMapKeyTraitsIS1_EEE5EntryC2EPSt4pairIKS1_S1_E = comdat any

$_ZN11xalanc_1_109XalanListINS_8XalanMapINS_14XalanDOMStringES2_NS_17XalanMapKeyTraitsIS2_EEE5EntryEE4backEv = comdat any

$_ZN11xalanc_1_1026ConstructWithMemoryManagerINS_14XalanDOMStringEE9constructEPS1_RN11xercesc_2_713MemoryManagerE = comdat any

$_ZN11xalanc_1_1021XalanListIteratorBaseINS_23XalanListIteratorTraitsINS_8XalanMapINS_14XalanDOMStringES3_NS_17XalanMapKeyTraitsIS3_EEE5EntryEEENS_9XalanListIS7_E4NodeEEmmEv = comdat any

$_ZN11xalanc_1_1011XalanVectorINS_21XalanListIteratorBaseINS_23XalanListIteratorTraitsINS_8XalanMapINS_14XalanDOMStringES4_NS_17XalanMapKeyTraitsIS4_EEE5EntryEEENS_9XalanListIS8_E4NodeEEENS_31MemoryManagedConstructionTraitsISD_EEE9push_backERKSD_ = comdat any

$_ZN11xalanc_1_1011XalanVectorINS0_INS_21XalanListIteratorBaseINS_23XalanListIteratorTraitsINS_8XalanMapINS_14XalanDOMStringES4_NS_17XalanMapKeyTraitsIS4_EEE5EntryEEENS_9XalanListIS8_E4NodeEEENS_31MemoryManagedConstructionTraitsISD_EEEENS_32ConstructWithMemoryManagerTraitsISG_EEE14ensureCapacityEm = comdat any

$_ZN11xalanc_1_1026ConstructWithMemoryManagerINS_11XalanVectorINS_21XalanListIteratorBaseINS_23XalanListIteratorTraitsINS_8XalanMapINS_14XalanDOMStringES5_NS_17XalanMapKeyTraitsIS5_EEE5EntryEEENS_9XalanListIS9_E4NodeEEENS_31MemoryManagedConstructionTraitsISE_EEEEE9constructEPSH_RKSH_RN11xercesc_2_713MemoryManagerE = comdat any

$_ZNK11xalanc_1_1011XalanVectorINS0_INS_21XalanListIteratorBaseINS_23XalanListIteratorTraitsINS_8XalanMapINS_14XalanDOMStringES4_NS_17XalanMapKeyTraitsIS4_EEE5EntryEEENS_9XalanListIS8_E4NodeEEENS_31MemoryManagedConstructionTraitsISD_EEEENS_32ConstructWithMemoryManagerTraitsISG_EEE8capacityEv = comdat any

$_ZN11xalanc_1_1011XalanVectorINS0_INS_21XalanListIteratorBaseINS_23XalanListIteratorTraitsINS_8XalanMapINS_14XalanDOMStringES4_NS_17XalanMapKeyTraitsIS4_EEE5EntryEEENS_9XalanListIS8_E4NodeEEENS_31MemoryManagedConstructionTraitsISD_EEEENS_32ConstructWithMemoryManagerTraitsISG_EEE6insertEPSG_PKSG_SM_ = comdat any

$_ZN11xalanc_1_1011XalanVectorINS0_INS_21XalanListIteratorBaseINS_23XalanListIteratorTraitsINS_8XalanMapINS_14XalanDOMStringES4_NS_17XalanMapKeyTraitsIS4_EEE5EntryEEENS_9XalanListIS8_E4NodeEEENS_31MemoryManagedConstructionTraitsISD_EEEENS_32ConstructWithMemoryManagerTraitsISG_EEE4swapERSJ_ = comdat any

$_ZN11xalanc_1_1011XalanVectorINS0_INS_21XalanListIteratorBaseINS_23XalanListIteratorTraitsINS_8XalanMapINS_14XalanDOMStringES4_NS_17XalanMapKeyTraitsIS4_EEE5EntryEEENS_9XalanListIS8_E4NodeEEENS_31MemoryManagedConstructionTraitsISD_EEEENS_32ConstructWithMemoryManagerTraitsISG_EEE14local_distanceEPKSG_SL_ = comdat any

$_ZN11xalanc_1_1011XalanVectorINS0_INS_21XalanListIteratorBaseINS_23XalanListIteratorTraitsINS_8XalanMapINS_14XalanDOMStringES4_NS_17XalanMapKeyTraitsIS4_EEE5EntryEEENS_9XalanListIS8_E4NodeEEENS_31MemoryManagedConstructionTraitsISD_EEEENS_32ConstructWithMemoryManagerTraitsISG_EEE10doPushBackERKSG_ = comdat any

$_ZSt4fillIPN11xalanc_1_1011XalanVectorINS0_21XalanListIteratorBaseINS0_23XalanListIteratorTraitsINS0_8XalanMapINS0_14XalanDOMStringES5_NS0_17XalanMapKeyTraitsIS5_EEE5EntryEEENS0_9XalanListIS9_E4NodeEEENS0_31MemoryManagedConstructionTraitsISE_EEEESH_EvT_SJ_RKT0_ = comdat any

$_ZSt13copy_backwardIPN11xalanc_1_1011XalanVectorINS0_21XalanListIteratorBaseINS0_23XalanListIteratorTraitsINS0_8XalanMapINS0_14XalanDOMStringES5_NS0_17XalanMapKeyTraitsIS5_EEE5EntryEEENS0_9XalanListIS9_E4NodeEEENS0_31MemoryManagedConstructionTraitsISE_EEEESI_ET0_T_SK_SJ_ = comdat any

$_ZN11xalanc_1_1011XalanVectorINS0_INS_21XalanListIteratorBaseINS_23XalanListIteratorTraitsINS_8XalanMapINS_14XalanDOMStringES4_NS_17XalanMapKeyTraitsIS4_EEE5EntryEEENS_9XalanListIS8_E4NodeEEENS_31MemoryManagedConstructionTraitsISD_EEEENS_32ConstructWithMemoryManagerTraitsISG_EEE9doReserveEm = comdat any

$_ZN11xalanc_1_1011XalanVectorINS0_INS_21XalanListIteratorBaseINS_23XalanListIteratorTraitsINS_8XalanMapINS_14XalanDOMStringES4_NS_17XalanMapKeyTraitsIS4_EEE5EntryEEENS_9XalanListIS8_E4NodeEEENS_31MemoryManagedConstructionTraitsISD_EEEENS_32ConstructWithMemoryManagerTraitsISG_EEEC2ERKSJ_RN11xercesc_2_713MemoryManagerEm = comdat any

$_ZN11xalanc_1_1011XalanVectorINS0_INS_21XalanListIteratorBaseINS_23XalanListIteratorTraitsINS_8XalanMapINS_14XalanDOMStringES4_NS_17XalanMapKeyTraitsIS4_EEE5EntryEEENS_9XalanListIS8_E4NodeEEENS_31MemoryManagedConstructionTraitsISD_EEEENS_32ConstructWithMemoryManagerTraitsISG_EEE9local_maxEmm = comdat any

$_ZNK11xalanc_1_1011XalanVectorINS0_INS_21XalanListIteratorBaseINS_23XalanListIteratorTraitsINS_8XalanMapINS_14XalanDOMStringES4_NS_17XalanMapKeyTraitsIS4_EEE5EntryEEENS_9XalanListIS8_E4NodeEEENS_31MemoryManagedConstructionTraitsISD_EEEENS_32ConstructWithMemoryManagerTraitsISG_EEE5beginEv = comdat any

$_ZNK11xalanc_1_1011XalanVectorINS0_INS_21XalanListIteratorBaseINS_23XalanListIteratorTraitsINS_8XalanMapINS_14XalanDOMStringES4_NS_17XalanMapKeyTraitsIS4_EEE5EntryEEENS_9XalanListIS8_E4NodeEEENS_31MemoryManagedConstructionTraitsISD_EEEENS_32ConstructWithMemoryManagerTraitsISG_EEE3endEv = comdat any

$_ZNK11xalanc_1_1011XalanVectorINS0_INS_21XalanListIteratorBaseINS_23XalanListIteratorTraitsINS_8XalanMapINS_14XalanDOMStringES4_NS_17XalanMapKeyTraitsIS4_EEE5EntryEEENS_9XalanListIS8_E4NodeEEENS_31MemoryManagedConstructionTraitsISD_EEEENS_32ConstructWithMemoryManagerTraitsISG_EEE10endPointerEv = comdat any

$_ZN11xalanc_1_1011XalanVectorINS_21XalanListIteratorBaseINS_23XalanListIteratorTraitsINS_8XalanMapINS_14XalanDOMStringES4_NS_17XalanMapKeyTraitsIS4_EEE5EntryEEENS_9XalanListIS8_E4NodeEEENS_31MemoryManagedConstructionTraitsISD_EEEC2ERKSG_RN11xercesc_2_713MemoryManagerEm = comdat any

$_ZN11xalanc_1_1011XalanVectorINS_21XalanListIteratorBaseINS_23XalanListIteratorTraitsINS_8XalanMapINS_14XalanDOMStringES4_NS_17XalanMapKeyTraitsIS4_EEE5EntryEEENS_9XalanListIS8_E4NodeEEENS_31MemoryManagedConstructionTraitsISD_EEE9local_maxEmm = comdat any

$_ZN11xalanc_1_1011XalanVectorINS_21XalanListIteratorBaseINS_23XalanListIteratorTraitsINS_8XalanMapINS_14XalanDOMStringES4_NS_17XalanMapKeyTraitsIS4_EEE5EntryEEENS_9XalanListIS8_E4NodeEEENS_31MemoryManagedConstructionTraitsISD_EEE6insertEPSD_PKSD_SJ_ = comdat any

$_ZNK11xalanc_1_1011XalanVectorINS_21XalanListIteratorBaseINS_23XalanListIteratorTraitsINS_8XalanMapINS_14XalanDOMStringES4_NS_17XalanMapKeyTraitsIS4_EEE5EntryEEENS_9XalanListIS8_E4NodeEEENS_31MemoryManagedConstructionTraitsISD_EEE5beginEv = comdat any

$_ZNK11xalanc_1_1011XalanVectorINS_21XalanListIteratorBaseINS_23XalanListIteratorTraitsINS_8XalanMapINS_14XalanDOMStringES4_NS_17XalanMapKeyTraitsIS4_EEE5EntryEEENS_9XalanListIS8_E4NodeEEENS_31MemoryManagedConstructionTraitsISD_EEE3endEv = comdat any

$_ZN11xalanc_1_1011XalanVectorINS_21XalanListIteratorBaseINS_23XalanListIteratorTraitsINS_8XalanMapINS_14XalanDOMStringES4_NS_17XalanMapKeyTraitsIS4_EEE5EntryEEENS_9XalanListIS8_E4NodeEEENS_31MemoryManagedConstructionTraitsISD_EEE4swapERSG_ = comdat any

$_ZN11xalanc_1_1011XalanVectorINS_21XalanListIteratorBaseINS_23XalanListIteratorTraitsINS_8XalanMapINS_14XalanDOMStringES4_NS_17XalanMapKeyTraitsIS4_EEE5EntryEEENS_9XalanListIS8_E4NodeEEENS_31MemoryManagedConstructionTraitsISD_EEE8allocateEm = comdat any

$_ZN11xalanc_1_1011XalanVectorINS_21XalanListIteratorBaseINS_23XalanListIteratorTraitsINS_8XalanMapINS_14XalanDOMStringES4_NS_17XalanMapKeyTraitsIS4_EEE5EntryEEENS_9XalanListIS8_E4NodeEEENS_31MemoryManagedConstructionTraitsISD_EEE14local_distanceEPKSD_SI_ = comdat any

$_ZNK11xalanc_1_1011XalanVectorINS_21XalanListIteratorBaseINS_23XalanListIteratorTraitsINS_8XalanMapINS_14XalanDOMStringES4_NS_17XalanMapKeyTraitsIS4_EEE5EntryEEENS_9XalanListIS8_E4NodeEEENS_31MemoryManagedConstructionTraitsISD_EEE4sizeEv = comdat any

$_ZN11xalanc_1_1011XalanVectorINS_21XalanListIteratorBaseINS_23XalanListIteratorTraitsINS_8XalanMapINS_14XalanDOMStringES4_NS_17XalanMapKeyTraitsIS4_EEE5EntryEEENS_9XalanListIS8_E4NodeEEENS_31MemoryManagedConstructionTraitsISD_EEE14ensureCapacityEm = comdat any

$_ZN11xalanc_1_1028ConstructWithNoMemoryManagerINS_21XalanListIteratorBaseINS_23XalanListIteratorTraitsINS_8XalanMapINS_14XalanDOMStringES4_NS_17XalanMapKeyTraitsIS4_EEE5EntryEEENS_9XalanListIS8_E4NodeEEEE9constructEPSD_RKSD_RN11xercesc_2_713MemoryManagerE = comdat any

$_ZNK11xalanc_1_1011XalanVectorINS_21XalanListIteratorBaseINS_23XalanListIteratorTraitsINS_8XalanMapINS_14XalanDOMStringES4_NS_17XalanMapKeyTraitsIS4_EEE5EntryEEENS_9XalanListIS8_E4NodeEEENS_31MemoryManagedConstructionTraitsISD_EEE8capacityEv = comdat any

$_ZN11xalanc_1_1011XalanVectorINS_21XalanListIteratorBaseINS_23XalanListIteratorTraitsINS_8XalanMapINS_14XalanDOMStringES4_NS_17XalanMapKeyTraitsIS4_EEE5EntryEEENS_9XalanListIS8_E4NodeEEENS_31MemoryManagedConstructionTraitsISD_EEE10doPushBackERKSD_ = comdat any

$_ZSt4copyIPKN11xalanc_1_1021XalanListIteratorBaseINS0_23XalanListIteratorTraitsINS0_8XalanMapINS0_14XalanDOMStringES4_NS0_17XalanMapKeyTraitsIS4_EEE5EntryEEENS0_9XalanListIS8_E4NodeEEEPSD_ET0_T_SI_SH_ = comdat any

$_ZSt13copy_backwardIPN11xalanc_1_1021XalanListIteratorBaseINS0_23XalanListIteratorTraitsINS0_8XalanMapINS0_14XalanDOMStringES4_NS0_17XalanMapKeyTraitsIS4_EEE5EntryEEENS0_9XalanListIS8_E4NodeEEESE_ET0_T_SG_SF_ = comdat any

$_ZSt8distanceIPKN11xalanc_1_1021XalanListIteratorBaseINS0_23XalanListIteratorTraitsINS0_8XalanMapINS0_14XalanDOMStringES4_NS0_17XalanMapKeyTraitsIS4_EEE5EntryEEENS0_9XalanListIS8_E4NodeEEEENSt15iterator_traitsIT_E15difference_typeESH_SH_ = comdat any

$_ZSt10__distanceIPKN11xalanc_1_1021XalanListIteratorBaseINS0_23XalanListIteratorTraitsINS0_8XalanMapINS0_14XalanDOMStringES4_NS0_17XalanMapKeyTraitsIS4_EEE5EntryEEENS0_9XalanListIS8_E4NodeEEEENSt15iterator_traitsIT_E15difference_typeESH_SH_St26random_access_iterator_tag = comdat any

$_ZSt19__iterator_categoryIPKN11xalanc_1_1021XalanListIteratorBaseINS0_23XalanListIteratorTraitsINS0_8XalanMapINS0_14XalanDOMStringES4_NS0_17XalanMapKeyTraitsIS4_EEE5EntryEEENS0_9XalanListIS8_E4NodeEEEENSt15iterator_traitsIT_E17iterator_categoryERKSH_ = comdat any

$_ZN11xalanc_1_1011XalanVectorINS_21XalanListIteratorBaseINS_23XalanListIteratorTraitsINS_8XalanMapINS_14XalanDOMStringES4_NS_17XalanMapKeyTraitsIS4_EEE5EntryEEENS_9XalanListIS8_E4NodeEEENS_31MemoryManagedConstructionTraitsISD_EEE9doReserveEm = comdat any

$_ZSt13__copy_move_aILb0EPKN11xalanc_1_1021XalanListIteratorBaseINS0_23XalanListIteratorTraitsINS0_8XalanMapINS0_14XalanDOMStringES4_NS0_17XalanMapKeyTraitsIS4_EEE5EntryEEENS0_9XalanListIS8_E4NodeEEEPSD_ET1_T0_SI_SH_ = comdat any

$_ZSt12__miter_baseIPKN11xalanc_1_1021XalanListIteratorBaseINS0_23XalanListIteratorTraitsINS0_8XalanMapINS0_14XalanDOMStringES4_NS0_17XalanMapKeyTraitsIS4_EEE5EntryEEENS0_9XalanListIS8_E4NodeEEEET_SG_ = comdat any

$_ZSt12__niter_wrapIPN11xalanc_1_1021XalanListIteratorBaseINS0_23XalanListIteratorTraitsINS0_8XalanMapINS0_14XalanDOMStringES4_NS0_17XalanMapKeyTraitsIS4_EEE5EntryEEENS0_9XalanListIS8_E4NodeEEEET_RKSF_SF_ = comdat any

$_ZSt14__copy_move_a1ILb0EPKN11xalanc_1_1021XalanListIteratorBaseINS0_23XalanListIteratorTraitsINS0_8XalanMapINS0_14XalanDOMStringES4_NS0_17XalanMapKeyTraitsIS4_EEE5EntryEEENS0_9XalanListIS8_E4NodeEEEPSD_ET1_T0_SI_SH_ = comdat any

$_ZSt12__niter_baseIPKN11xalanc_1_1021XalanListIteratorBaseINS0_23XalanListIteratorTraitsINS0_8XalanMapINS0_14XalanDOMStringES4_NS0_17XalanMapKeyTraitsIS4_EEE5EntryEEENS0_9XalanListIS8_E4NodeEEEET_SG_ = comdat any

$_ZSt12__niter_baseIPN11xalanc_1_1021XalanListIteratorBaseINS0_23XalanListIteratorTraitsINS0_8XalanMapINS0_14XalanDOMStringES4_NS0_17XalanMapKeyTraitsIS4_EEE5EntryEEENS0_9XalanListIS8_E4NodeEEEET_SF_ = comdat any

$_ZSt14__copy_move_a2ILb0EPKN11xalanc_1_1021XalanListIteratorBaseINS0_23XalanListIteratorTraitsINS0_8XalanMapINS0_14XalanDOMStringES4_NS0_17XalanMapKeyTraitsIS4_EEE5EntryEEENS0_9XalanListIS8_E4NodeEEEPSD_ET1_T0_SI_SH_ = comdat any

$_ZNSt11__copy_moveILb0ELb0ESt26random_access_iterator_tagE8__copy_mIPKN11xalanc_1_1021XalanListIteratorBaseINS3_23XalanListIteratorTraitsINS3_8XalanMapINS3_14XalanDOMStringES7_NS3_17XalanMapKeyTraitsIS7_EEE5EntryEEENS3_9XalanListISB_E4NodeEEEPSG_EET0_T_SL_SK_ = comdat any

$_ZN11xalanc_1_1021XalanListIteratorBaseINS_23XalanListIteratorTraitsINS_8XalanMapINS_14XalanDOMStringES3_NS_17XalanMapKeyTraitsIS3_EEE5EntryEEENS_9XalanListIS7_E4NodeEEaSERKSC_ = comdat any

$_ZSt22__copy_move_backward_aILb0EPN11xalanc_1_1021XalanListIteratorBaseINS0_23XalanListIteratorTraitsINS0_8XalanMapINS0_14XalanDOMStringES4_NS0_17XalanMapKeyTraitsIS4_EEE5EntryEEENS0_9XalanListIS8_E4NodeEEESE_ET1_T0_SG_SF_ = comdat any

$_ZSt12__miter_baseIPN11xalanc_1_1021XalanListIteratorBaseINS0_23XalanListIteratorTraitsINS0_8XalanMapINS0_14XalanDOMStringES4_NS0_17XalanMapKeyTraitsIS4_EEE5EntryEEENS0_9XalanListIS8_E4NodeEEEET_SF_ = comdat any

$_ZSt23__copy_move_backward_a1ILb0EPN11xalanc_1_1021XalanListIteratorBaseINS0_23XalanListIteratorTraitsINS0_8XalanMapINS0_14XalanDOMStringES4_NS0_17XalanMapKeyTraitsIS4_EEE5EntryEEENS0_9XalanListIS8_E4NodeEEESE_ET1_T0_SG_SF_ = comdat any

$_ZSt23__copy_move_backward_a2ILb0EPN11xalanc_1_1021XalanListIteratorBaseINS0_23XalanListIteratorTraitsINS0_8XalanMapINS0_14XalanDOMStringES4_NS0_17XalanMapKeyTraitsIS4_EEE5EntryEEENS0_9XalanListIS8_E4NodeEEESE_ET1_T0_SG_SF_ = comdat any

$_ZNSt20__copy_move_backwardILb0ELb0ESt26random_access_iterator_tagE13__copy_move_bIPN11xalanc_1_1021XalanListIteratorBaseINS3_23XalanListIteratorTraitsINS3_8XalanMapINS3_14XalanDOMStringES7_NS3_17XalanMapKeyTraitsIS7_EEE5EntryEEENS3_9XalanListISB_E4NodeEEESH_EET0_T_SJ_SI_ = comdat any

$_ZNK11xalanc_1_1011XalanVectorINS_21XalanListIteratorBaseINS_23XalanListIteratorTraitsINS_8XalanMapINS_14XalanDOMStringES4_NS_17XalanMapKeyTraitsIS4_EEE5EntryEEENS_9XalanListIS8_E4NodeEEENS_31MemoryManagedConstructionTraitsISD_EEE10endPointerEv = comdat any

$_ZSt4copyIPKN11xalanc_1_1011XalanVectorINS0_21XalanListIteratorBaseINS0_23XalanListIteratorTraitsINS0_8XalanMapINS0_14XalanDOMStringES5_NS0_17XalanMapKeyTraitsIS5_EEE5EntryEEENS0_9XalanListIS9_E4NodeEEENS0_31MemoryManagedConstructionTraitsISE_EEEEPSH_ET0_T_SM_SL_ = comdat any

$_ZSt13__copy_move_aILb0EPKN11xalanc_1_1011XalanVectorINS0_21XalanListIteratorBaseINS0_23XalanListIteratorTraitsINS0_8XalanMapINS0_14XalanDOMStringES5_NS0_17XalanMapKeyTraitsIS5_EEE5EntryEEENS0_9XalanListIS9_E4NodeEEENS0_31MemoryManagedConstructionTraitsISE_EEEEPSH_ET1_T0_SM_SL_ = comdat any

$_ZSt12__miter_baseIPKN11xalanc_1_1011XalanVectorINS0_21XalanListIteratorBaseINS0_23XalanListIteratorTraitsINS0_8XalanMapINS0_14XalanDOMStringES5_NS0_17XalanMapKeyTraitsIS5_EEE5EntryEEENS0_9XalanListIS9_E4NodeEEENS0_31MemoryManagedConstructionTraitsISE_EEEEET_SK_ = comdat any

$_ZSt12__niter_wrapIPN11xalanc_1_1011XalanVectorINS0_21XalanListIteratorBaseINS0_23XalanListIteratorTraitsINS0_8XalanMapINS0_14XalanDOMStringES5_NS0_17XalanMapKeyTraitsIS5_EEE5EntryEEENS0_9XalanListIS9_E4NodeEEENS0_31MemoryManagedConstructionTraitsISE_EEEEET_RKSJ_SJ_ = comdat any

$_ZSt14__copy_move_a1ILb0EPKN11xalanc_1_1011XalanVectorINS0_21XalanListIteratorBaseINS0_23XalanListIteratorTraitsINS0_8XalanMapINS0_14XalanDOMStringES5_NS0_17XalanMapKeyTraitsIS5_EEE5EntryEEENS0_9XalanListIS9_E4NodeEEENS0_31MemoryManagedConstructionTraitsISE_EEEEPSH_ET1_T0_SM_SL_ = comdat any

$_ZSt12__niter_baseIPKN11xalanc_1_1011XalanVectorINS0_21XalanListIteratorBaseINS0_23XalanListIteratorTraitsINS0_8XalanMapINS0_14XalanDOMStringES5_NS0_17XalanMapKeyTraitsIS5_EEE5EntryEEENS0_9XalanListIS9_E4NodeEEENS0_31MemoryManagedConstructionTraitsISE_EEEEET_SK_ = comdat any

$_ZSt12__niter_baseIPN11xalanc_1_1011XalanVectorINS0_21XalanListIteratorBaseINS0_23XalanListIteratorTraitsINS0_8XalanMapINS0_14XalanDOMStringES5_NS0_17XalanMapKeyTraitsIS5_EEE5EntryEEENS0_9XalanListIS9_E4NodeEEENS0_31MemoryManagedConstructionTraitsISE_EEEEET_SJ_ = comdat any

$_ZSt14__copy_move_a2ILb0EPKN11xalanc_1_1011XalanVectorINS0_21XalanListIteratorBaseINS0_23XalanListIteratorTraitsINS0_8XalanMapINS0_14XalanDOMStringES5_NS0_17XalanMapKeyTraitsIS5_EEE5EntryEEENS0_9XalanListIS9_E4NodeEEENS0_31MemoryManagedConstructionTraitsISE_EEEEPSH_ET1_T0_SM_SL_ = comdat any

$_ZNSt11__copy_moveILb0ELb0ESt26random_access_iterator_tagE8__copy_mIPKN11xalanc_1_1011XalanVectorINS3_21XalanListIteratorBaseINS3_23XalanListIteratorTraitsINS3_8XalanMapINS3_14XalanDOMStringES8_NS3_17XalanMapKeyTraitsIS8_EEE5EntryEEENS3_9XalanListISC_E4NodeEEENS3_31MemoryManagedConstructionTraitsISH_EEEEPSK_EET0_T_SP_SO_ = comdat any

$_ZN11xalanc_1_1011XalanVectorINS_21XalanListIteratorBaseINS_23XalanListIteratorTraitsINS_8XalanMapINS_14XalanDOMStringES4_NS_17XalanMapKeyTraitsIS4_EEE5EntryEEENS_9XalanListIS8_E4NodeEEENS_31MemoryManagedConstructionTraitsISD_EEEaSERKSG_ = comdat any

$_ZN11xalanc_1_1011XalanVectorINS_21XalanListIteratorBaseINS_23XalanListIteratorTraitsINS_8XalanMapINS_14XalanDOMStringES4_NS_17XalanMapKeyTraitsIS4_EEE5EntryEEENS_9XalanListIS8_E4NodeEEENS_31MemoryManagedConstructionTraitsISD_EEE12shrinkToSizeEm = comdat any

$_ZN11xalanc_1_1011XalanVectorINS_21XalanListIteratorBaseINS_23XalanListIteratorTraitsINS_8XalanMapINS_14XalanDOMStringES4_NS_17XalanMapKeyTraitsIS4_EEE5EntryEEENS_9XalanListIS8_E4NodeEEENS_31MemoryManagedConstructionTraitsISD_EEE8pop_backEv = comdat any

$_ZSt8distanceIPKN11xalanc_1_1011XalanVectorINS0_21XalanListIteratorBaseINS0_23XalanListIteratorTraitsINS0_8XalanMapINS0_14XalanDOMStringES5_NS0_17XalanMapKeyTraitsIS5_EEE5EntryEEENS0_9XalanListIS9_E4NodeEEENS0_31MemoryManagedConstructionTraitsISE_EEEEENSt15iterator_traitsIT_E15difference_typeESL_SL_ = comdat any

$_ZSt10__distanceIPKN11xalanc_1_1011XalanVectorINS0_21XalanListIteratorBaseINS0_23XalanListIteratorTraitsINS0_8XalanMapINS0_14XalanDOMStringES5_NS0_17XalanMapKeyTraitsIS5_EEE5EntryEEENS0_9XalanListIS9_E4NodeEEENS0_31MemoryManagedConstructionTraitsISE_EEEEENSt15iterator_traitsIT_E15difference_typeESL_SL_St26random_access_iterator_tag = comdat any

$_ZSt19__iterator_categoryIPKN11xalanc_1_1011XalanVectorINS0_21XalanListIteratorBaseINS0_23XalanListIteratorTraitsINS0_8XalanMapINS0_14XalanDOMStringES5_NS0_17XalanMapKeyTraitsIS5_EEE5EntryEEENS0_9XalanListIS9_E4NodeEEENS0_31MemoryManagedConstructionTraitsISE_EEEEENSt15iterator_traitsIT_E17iterator_categoryERKSL_ = comdat any

$_ZSt8__fill_aIPN11xalanc_1_1011XalanVectorINS0_21XalanListIteratorBaseINS0_23XalanListIteratorTraitsINS0_8XalanMapINS0_14XalanDOMStringES5_NS0_17XalanMapKeyTraitsIS5_EEE5EntryEEENS0_9XalanListIS9_E4NodeEEENS0_31MemoryManagedConstructionTraitsISE_EEEESH_EvT_SJ_RKT0_ = comdat any

$_ZSt9__fill_a1IPN11xalanc_1_1011XalanVectorINS0_21XalanListIteratorBaseINS0_23XalanListIteratorTraitsINS0_8XalanMapINS0_14XalanDOMStringES5_NS0_17XalanMapKeyTraitsIS5_EEE5EntryEEENS0_9XalanListIS9_E4NodeEEENS0_31MemoryManagedConstructionTraitsISE_EEEESH_EN9__gnu_cxx11__enable_ifIXntsr11__is_scalarIT0_EE7__valueEvE6__typeET_SO_RKSL_ = comdat any

$_ZSt22__copy_move_backward_aILb0EPN11xalanc_1_1011XalanVectorINS0_21XalanListIteratorBaseINS0_23XalanListIteratorTraitsINS0_8XalanMapINS0_14XalanDOMStringES5_NS0_17XalanMapKeyTraitsIS5_EEE5EntryEEENS0_9XalanListIS9_E4NodeEEENS0_31MemoryManagedConstructionTraitsISE_EEEESI_ET1_T0_SK_SJ_ = comdat any

$_ZSt12__miter_baseIPN11xalanc_1_1011XalanVectorINS0_21XalanListIteratorBaseINS0_23XalanListIteratorTraitsINS0_8XalanMapINS0_14XalanDOMStringES5_NS0_17XalanMapKeyTraitsIS5_EEE5EntryEEENS0_9XalanListIS9_E4NodeEEENS0_31MemoryManagedConstructionTraitsISE_EEEEET_SJ_ = comdat any

$_ZSt23__copy_move_backward_a1ILb0EPN11xalanc_1_1011XalanVectorINS0_21XalanListIteratorBaseINS0_23XalanListIteratorTraitsINS0_8XalanMapINS0_14XalanDOMStringES5_NS0_17XalanMapKeyTraitsIS5_EEE5EntryEEENS0_9XalanListIS9_E4NodeEEENS0_31MemoryManagedConstructionTraitsISE_EEEESI_ET1_T0_SK_SJ_ = comdat any

$_ZSt23__copy_move_backward_a2ILb0EPN11xalanc_1_1011XalanVectorINS0_21XalanListIteratorBaseINS0_23XalanListIteratorTraitsINS0_8XalanMapINS0_14XalanDOMStringES5_NS0_17XalanMapKeyTraitsIS5_EEE5EntryEEENS0_9XalanListIS9_E4NodeEEENS0_31MemoryManagedConstructionTraitsISE_EEEESI_ET1_T0_SK_SJ_ = comdat any

$_ZNSt20__copy_move_backwardILb0ELb0ESt26random_access_iterator_tagE13__copy_move_bIPN11xalanc_1_1011XalanVectorINS3_21XalanListIteratorBaseINS3_23XalanListIteratorTraitsINS3_8XalanMapINS3_14XalanDOMStringES8_NS3_17XalanMapKeyTraitsIS8_EEE5EntryEEENS3_9XalanListISC_E4NodeEEENS3_31MemoryManagedConstructionTraitsISH_EEEESL_EET0_T_SN_SM_ = comdat any

$_ZN11xalanc_1_1011XalanVectorINS0_INS_21XalanListIteratorBaseINS_23XalanListIteratorTraitsINS_8XalanMapINS_14XalanDOMStringES4_NS_17XalanMapKeyTraitsIS4_EEE5EntryEEENS_9XalanListIS8_E4NodeEEENS_31MemoryManagedConstructionTraitsISD_EEEENS_32ConstructWithMemoryManagerTraitsISG_EEEC2EmRKSG_RN11xercesc_2_713MemoryManagerE = comdat any

$_ZNK11xalanc_1_109XalanListINS_8XalanMapINS_14XalanDOMStringES2_NS_17XalanMapKeyTraitsIS2_EEE5EntryEE5beginEv = comdat any

$_ZNK11xalanc_1_1021XalanListIteratorBaseINS_28XalanListConstIteratorTraitsINS_8XalanMapINS_14XalanDOMStringES3_NS_17XalanMapKeyTraitsIS3_EEE5EntryEEENS_9XalanListIS7_E4NodeEEeqERKSC_ = comdat any

$_ZNK11xalanc_1_109XalanListINS_8XalanMapINS_14XalanDOMStringES2_NS_17XalanMapKeyTraitsIS2_EEE5EntryEE3endEv = comdat any

$_ZNK11xalanc_1_109XalanListINS_8XalanMapINS_14XalanDOMStringES2_NS_17XalanMapKeyTraitsIS2_EEE5EntryEE11getListHeadEv = comdat any

$_ZN11xalanc_1_1021XalanListIteratorBaseINS_28XalanListConstIteratorTraitsINS_8XalanMapINS_14XalanDOMStringES3_NS_17XalanMapKeyTraitsIS3_EEE5EntryEEENS_9XalanListIS7_E4NodeEEC2ERSB_ = comdat any

$_ZN11xalanc_1_109XalanListINS_8XalanMapINS_14XalanDOMStringES2_NS_17XalanMapKeyTraitsIS2_EEE5EntryEE13constructNodeERKS6_NS_21XalanListIteratorBaseINS_23XalanListIteratorTraitsIS6_EENS7_4NodeEEE = comdat any

$_ZN11xalanc_1_1028ConstructWithNoMemoryManagerINS_8XalanMapINS_14XalanDOMStringES2_NS_17XalanMapKeyTraitsIS2_EEE5EntryEE9constructEPS6_RKS6_RN11xercesc_2_713MemoryManagerE = comdat any

$_ZNK11xalanc_1_1021XalanListIteratorBaseINS_23XalanListIteratorTraitsINS_8XalanMapINS_14XalanDOMStringES3_NS_17XalanMapKeyTraitsIS3_EEE5EntryEEENS_9XalanListIS7_E4NodeEEdeEv = comdat any

$_ZTSN11xercesc_2_712SAXExceptionE = comdat any

$_ZTSN11xercesc_2_77XMemoryE = comdat any

$_ZTIN11xercesc_2_77XMemoryE = comdat any

$_ZTIN11xercesc_2_712SAXExceptionE = comdat any

$_ZTVN11xercesc_2_710XMLDeleterE = comdat any

$_ZTSN11xercesc_2_710XMLDeleterE = comdat any

$_ZTIN11xercesc_2_710XMLDeleterE = comdat any

@_ZStL8__ioinit = internal global %"class.std::ios_base::Init" zeroinitializer, align 1, !dbg !0
@__dso_handle = external hidden global i8
@_ZN11xalanc_1_1016XalanFileUtility13s_emptyStringE = dso_local global %"class.xalanc_1_10::XalanDOMString" zeroinitializer, align 8, !dbg !28
@.str = private unnamed_addr constant [1 x i8] zeroinitializer, align 1
@_ZSt4cout = external dso_local global %"class.std::basic_ostream", align 8
@.str.2 = private unnamed_addr constant [21 x i8] c"Using Xalan version \00", align 1
@.str.3 = private unnamed_addr constant [7 x i8] c"1.10.0\00", align 1
@.str.4 = private unnamed_addr constant [22 x i8] c"Using Xerces version \00", align 1
@.str.5 = private unnamed_addr constant [6 x i8] c"2.7.0\00", align 1
@.str.6 = private unnamed_addr constant [23 x i8] c"Given base directory \22\00", align 1
@.str.7 = private unnamed_addr constant [17 x i8] c"\22 does not exist\00", align 1
@.str.8 = private unnamed_addr constant [5 x i8] c"-out\00", align 1
@.str.9 = private unnamed_addr constant [6 x i8] c"-gold\00", align 1
@.str.10 = private unnamed_addr constant [18 x i8] c"Given Gold dir - \00", align 1
@.str.11 = private unnamed_addr constant [18 x i8] c" - does not exist\00", align 1
@.str.12 = private unnamed_addr constant [8 x i8] c"-source\00", align 1
@.str.13 = private unnamed_addr constant [4 x i8] c"XPL\00", align 1
@.str.14 = private unnamed_addr constant [10 x i8] c"DOM-XALAN\00", align 1
@.str.15 = private unnamed_addr constant [4 x i8] c"DOM\00", align 1
@.str.16 = private unnamed_addr constant [11 x i8] c"DOM-XERCES\00", align 1
@.str.17 = private unnamed_addr constant [5 x i8] c"-sub\00", align 1
@.str.18 = private unnamed_addr constant [3 x i8] c"-i\00", align 1
@.str.19 = private unnamed_addr constant [6 x i8] c"-iter\00", align 1
@.str.20 = private unnamed_addr constant [20 x i8] c"Assumed Gold dir - \00", align 1
@.str.21 = private unnamed_addr constant [6 x i8] c"*.xsl\00", align 1
@.str.22 = private unnamed_addr constant [2 x i8] c"*\00", align 1
@.str.23 = private unnamed_addr constant [10 x i8] c" created.\00", align 1
@.str.24 = private unnamed_addr constant [14 x i8] c" NOT created.\00", align 1
@.str.25 = private unnamed_addr constant [4 x i8] c"xml\00", align 1
@.str.26 = private unnamed_addr constant [2 x i8] c"r\00", align 1
@.str.27 = private unnamed_addr constant [27 x i8] c"TEST ERROR: File Missing: \00", align 1
@.str.28 = private unnamed_addr constant [9 x i8] c"%m%d%H%M\00", align 1
@.str.29 = private unnamed_addr constant [6 x i8] c"2_7_0\00", align 1
@.str.30 = private unnamed_addr constant [9 x i8] c"Passed: \00", align 1
@.str.31 = private unnamed_addr constant [7 x i8] c"reason\00", align 1
@.str.32 = private unnamed_addr constant [7 x i8] c"atNode\00", align 1
@.str.33 = private unnamed_addr constant [4 x i8] c"exp\00", align 1
@.str.34 = private unnamed_addr constant [4 x i8] c"act\00", align 1
@.str.35 = private unnamed_addr constant [4 x i8] c"xsl\00", align 1
@.str.36 = private unnamed_addr constant [7 x i8] c"result\00", align 1
@.str.37 = private unnamed_addr constant [5 x i8] c"gold\00", align 1
@.str.38 = private unnamed_addr constant [9 x i8] c"API Test\00", align 1
@_ZTVN10__cxxabiv120__si_class_type_infoE = external dso_local global i8*
@_ZTSN11xercesc_2_712SAXExceptionE = linkonce_odr dso_local constant [30 x i8] c"N11xercesc_2_712SAXExceptionE\00", comdat, align 1
@_ZTVN10__cxxabiv117__class_type_infoE = external dso_local global i8*
@_ZTSN11xercesc_2_77XMemoryE = linkonce_odr dso_local constant [24 x i8] c"N11xercesc_2_77XMemoryE\00", comdat, align 1
@_ZTIN11xercesc_2_77XMemoryE = linkonce_odr dso_local constant { i8*, i8* } { i8* bitcast (i8** getelementptr inbounds (i8*, i8** @_ZTVN10__cxxabiv117__class_type_infoE, i64 2) to i8*), i8* getelementptr inbounds ([24 x i8], [24 x i8]* @_ZTSN11xercesc_2_77XMemoryE, i32 0, i32 0) }, comdat, align 8
@_ZTIN11xercesc_2_712SAXExceptionE = linkonce_odr dso_local constant { i8*, i8*, i8* } { i8* bitcast (i8** getelementptr inbounds (i8*, i8** @_ZTVN10__cxxabiv120__si_class_type_infoE, i64 2) to i8*), i8* getelementptr inbounds ([30 x i8], [30 x i8]* @_ZTSN11xercesc_2_712SAXExceptionE, i32 0, i32 0), i8* bitcast ({ i8*, i8* }* @_ZTIN11xercesc_2_77XMemoryE to i8*) }, comdat, align 8
@.str.39 = private unnamed_addr constant [50 x i8] c"SAXException: Using fileCompare to check output.\0A\00", align 1
@.str.40 = private unnamed_addr constant [2 x i8] c" \00", align 1
@.str.41 = private unnamed_addr constant [8 x i8] c"Line: 0\00", align 1
@.str.42 = private unnamed_addr constant [29 x i8] c"No Result (Transform failed)\00", align 1
@.str.43 = private unnamed_addr constant [13 x i8] c"No Gold file\00", align 1
@.str.44 = private unnamed_addr constant [3 x i8] c"%d\00", align 1
@.str.45 = private unnamed_addr constant [30 x i8] c"Read Error - Gold/Result file\00", align 1
@.str.46 = private unnamed_addr constant [7 x i8] c"Line: \00", align 1
@.str.47 = private unnamed_addr constant [30 x i8] c"Text based comparison failure\00", align 1
@.str.48 = private unnamed_addr constant [10 x i8] c"<![CDATA[\00", align 1
@.str.49 = private unnamed_addr constant [4 x i8] c"]]>\00", align 1
@.str.50 = private unnamed_addr constant [19 x i8] c"NodeType mismatch.\00", align 1
@_ZN11xalanc_1_10L14xalanNodeTypesE = internal constant [13 x i8*] [i8* getelementptr inbounds ([13 x i8], [13 x i8]* @.str.100, i32 0, i32 0), i8* getelementptr inbounds ([13 x i8], [13 x i8]* @.str.101, i32 0, i32 0), i8* getelementptr inbounds ([15 x i8], [15 x i8]* @.str.102, i32 0, i32 0), i8* getelementptr inbounds ([10 x i8], [10 x i8]* @.str.103, i32 0, i32 0), i8* getelementptr inbounds ([19 x i8], [19 x i8]* @.str.104, i32 0, i32 0), i8* getelementptr inbounds ([22 x i8], [22 x i8]* @.str.105, i32 0, i32 0), i8* getelementptr inbounds ([12 x i8], [12 x i8]* @.str.106, i32 0, i32 0), i8* getelementptr inbounds ([28 x i8], [28 x i8]* @.str.107, i32 0, i32 0), i8* getelementptr inbounds ([13 x i8], [13 x i8]* @.str.108, i32 0, i32 0), i8* getelementptr inbounds ([14 x i8], [14 x i8]* @.str.109, i32 0, i32 0), i8* getelementptr inbounds ([19 x i8], [19 x i8]* @.str.110, i32 0, i32 0), i8* getelementptr inbounds ([23 x i8], [23 x i8]* @.str.111, i32 0, i32 0), i8* getelementptr inbounds ([14 x i8], [14 x i8]* @.str.112, i32 0, i32 0)], align 16, !dbg !2290
@.str.51 = private unnamed_addr constant [21 x i8] c"Text node mismatch. \00", align 1
@.str.52 = private unnamed_addr constant [41 x i8] c"processing-instruction target mismatch. \00", align 1
@.str.53 = private unnamed_addr constant [39 x i8] c"processing-instruction data mismatch. \00", align 1
@.str.54 = private unnamed_addr constant [24 x i8] c"comment data mismatch. \00", align 1
@_ZSt4cerr = external dso_local global %"class.std::basic_ostream", align 8
@.str.55 = private unnamed_addr constant [23 x i8] c"Unexpected node type: \00", align 1
@.str.56 = private unnamed_addr constant [23 x i8] c"Missing sibling node. \00", align 1
@.str.57 = private unnamed_addr constant [21 x i8] c"Extra sibling node. \00", align 1
@.str.58 = private unnamed_addr constant [19 x i8] c"Element mismatch. \00", align 1
@.str.59 = private unnamed_addr constant [32 x i8] c"Element NamespaceURI mismatch. \00", align 1
@.str.60 = private unnamed_addr constant [34 x i8] c"Element missing named Attribute. \00", align 1
@.str.61 = private unnamed_addr constant [8 x i8] c"NOTHING\00", align 1
@.str.62 = private unnamed_addr constant [29 x i8] c"Wrong number of attributes. \00", align 1
@.str.63 = private unnamed_addr constant [28 x i8] c"Element missing ChildNode. \00", align 1
@.str.64 = private unnamed_addr constant [35 x i8] c"Result has additional Child node: \00", align 1
@.str.65 = private unnamed_addr constant [4 x i8] c"  \22\00", align 1
@.str.66 = private unnamed_addr constant [2 x i8] c"\22\00", align 1
@.str.67 = private unnamed_addr constant [27 x i8] c"Attribute Value mismatch. \00", align 1
@.str.68 = private unnamed_addr constant [34 x i8] c"Attribute NamespaceURI mismatch. \00", align 1
@.str.69 = private unnamed_addr constant [10 x i8] c"* Failed \00", align 1
@.str.70 = private unnamed_addr constant [10 x i8] c"  Error: \00", align 1
@.str.71 = private unnamed_addr constant [4 x i8] c"   \00", align 1
@.str.72 = private unnamed_addr constant [18 x i8] c"Processing Node: \00", align 1
@.str.73 = private unnamed_addr constant [16 x i8] c"   Expected:   \00", align 1
@.str.74 = private unnamed_addr constant [16 x i8] c"   Actual:     \00", align 1
@.str.75 = private unnamed_addr constant [10 x i8] c"UniqRunid\00", align 1
@.str.76 = private unnamed_addr constant [16 x i8] c"Xerces-Version \00", align 1
@.str.77 = private unnamed_addr constant [11 x i8] c"BaseDrive \00", align 1
@.str.78 = private unnamed_addr constant [10 x i8] c"TestBase \00", align 1
@.str.79 = private unnamed_addr constant [11 x i8] c"xmlFormat \00", align 1
@.str.80 = private unnamed_addr constant [4 x i8] c"%ld\00", align 1
@.str.81 = private unnamed_addr constant [7 x i8] c"Iters \00", align 1
@.str.82 = private unnamed_addr constant [7 x i8] c"Passed\00", align 1
@.str.83 = private unnamed_addr constant [7 x i8] c"Failed\00", align 1
@.str.84 = private unnamed_addr constant [14 x i8] c"No_Gold_Files\00", align 1
@.str.85 = private unnamed_addr constant [11 x i8] c"RunResults\00", align 1
@.str.86 = private unnamed_addr constant [4 x i8] c"xxx\00", align 1
@.str.87 = private unnamed_addr constant [9 x i8] c"\0APassed \00", align 1
@.str.88 = private unnamed_addr constant [9 x i8] c"\0AFailed \00", align 1
@.str.89 = private unnamed_addr constant [15 x i8] c"\0AMissing Gold \00", align 1
@.str.90 = private unnamed_addr constant [2 x i8] c"'\00", align 1
@.str.91 = private unnamed_addr constant [9 x i8] c"testfile\00", align 1
@.str.92 = private unnamed_addr constant [5 x i8] c"html\00", align 1
@.str.93 = private unnamed_addr constant [10 x i8] c"cconf.xsl\00", align 1
@.str.94 = private unnamed_addr constant [10 x i8] c"cconf.xml\00", align 1
@.str.95 = private unnamed_addr constant [31 x i8] c"ANALYSIS ERROR: File Missing: \00", align 1
@.str.96 = private unnamed_addr constant [18 x i8] c"The HTML output: \00", align 1
@.str.97 = private unnamed_addr constant [13 x i8] c" was created\00", align 1
@.str.98 = private unnamed_addr constant [41 x i8] c"Analysis failed due to following error: \00", align 1
@_ZN11xalanc_1_1016XalanFileUtility11s_xmlSuffixE = dso_local constant [5 x i16] [i16 46, i16 120, i16 109, i16 108, i16 0], align 2, !dbg !2296
@_ZN11xalanc_1_1016XalanFileUtility9s_pathSepE = dso_local constant [2 x i16] [i16 47, i16 0], align 2, !dbg !2301
@_ZTVN11xercesc_2_710XMLDeleterE = linkonce_odr dso_local unnamed_addr constant { [4 x i8*] } { [4 x i8*] [i8* null, i8* bitcast ({ i8*, i8* }* @_ZTIN11xercesc_2_710XMLDeleterE to i8*), i8* bitcast (void (%"class.xercesc_2_7::XMLDeleter"*)* @_ZN11xercesc_2_710XMLDeleterD2Ev to i8*), i8* bitcast (void (%"class.xercesc_2_7::XMLDeleter"*)* @_ZN11xercesc_2_710XMLDeleterD0Ev to i8*)] }, comdat, align 8
@_ZTSN11xercesc_2_710XMLDeleterE = linkonce_odr dso_local constant [28 x i8] c"N11xercesc_2_710XMLDeleterE\00", comdat, align 1
@_ZTIN11xercesc_2_710XMLDeleterE = linkonce_odr dso_local constant { i8*, i8* } { i8* bitcast (i8** getelementptr inbounds (i8*, i8** @_ZTVN10__cxxabiv117__class_type_infoE, i64 2) to i8*), i8* getelementptr inbounds ([28 x i8], [28 x i8]* @_ZTSN11xercesc_2_710XMLDeleterE, i32 0, i32 0) }, comdat, align 8
@_ZN11xalanc_1_1014XalanDOMString7s_emptyE = external dso_local constant i16, align 2
@.str.100 = private unnamed_addr constant [13 x i8] c"UNKNOWN_NODE\00", align 1
@.str.101 = private unnamed_addr constant [13 x i8] c"ELEMENT_NODE\00", align 1
@.str.102 = private unnamed_addr constant [15 x i8] c"ATTRIBUTE_NODE\00", align 1
@.str.103 = private unnamed_addr constant [10 x i8] c"TEXT_NODE\00", align 1
@.str.104 = private unnamed_addr constant [19 x i8] c"CDATA_SECTION_NODE\00", align 1
@.str.105 = private unnamed_addr constant [22 x i8] c"ENTITY_REFERENCE_NODE\00", align 1
@.str.106 = private unnamed_addr constant [12 x i8] c"ENTITY_NODE\00", align 1
@.str.107 = private unnamed_addr constant [28 x i8] c"PROCESSING_INSTRUCTION_NODE\00", align 1
@.str.108 = private unnamed_addr constant [13 x i8] c"COMMENT_NODE\00", align 1
@.str.109 = private unnamed_addr constant [14 x i8] c"DOCUMENT_NODE\00", align 1
@.str.110 = private unnamed_addr constant [19 x i8] c"DOCUMENT_TYPE_NODE\00", align 1
@.str.111 = private unnamed_addr constant [23 x i8] c"DOCUMENT_FRAGMENT_NODE\00", align 1
@.str.112 = private unnamed_addr constant [14 x i8] c"NOTATION_NODE\00", align 1
@.str.113 = private unnamed_addr constant [3 x i8] c"..\00", align 1
@.str.114 = private unnamed_addr constant [6 x i8] c"../..\00", align 1
@llvm.global_ctors = appending global [1 x { i32, void ()*, i8* }] [{ i32, void ()*, i8* } { i32 65535, void ()* @_GLOBAL__sub_I_XalanFileUtility.cpp, i8* null }]

@_ZN11xalanc_1_1016XalanFileUtility12reportStructC1ERN11xercesc_2_713MemoryManagerE = dso_local unnamed_addr alias void (%"struct.xalanc_1_10::XalanFileUtility::reportStruct"*, %"class.xercesc_2_7::MemoryManager"*), void (%"struct.xalanc_1_10::XalanFileUtility::reportStruct"*, %"class.xercesc_2_7::MemoryManager"*)* @_ZN11xalanc_1_1016XalanFileUtility12reportStructC2ERN11xercesc_2_713MemoryManagerE
@_ZN11xalanc_1_1016XalanFileUtility9cmdParamsC1ERN11xercesc_2_713MemoryManagerE = dso_local unnamed_addr alias void (%"struct.xalanc_1_10::XalanFileUtility::cmdParams"*, %"class.xercesc_2_7::MemoryManager"*), void (%"struct.xalanc_1_10::XalanFileUtility::cmdParams"*, %"class.xercesc_2_7::MemoryManager"*)* @_ZN11xalanc_1_1016XalanFileUtility9cmdParamsC2ERN11xercesc_2_713MemoryManagerE
@_ZN11xalanc_1_1016XalanFileUtilityC1ERN11xercesc_2_713MemoryManagerE = dso_local unnamed_addr alias void (%"class.xalanc_1_10::XalanFileUtility"*, %"class.xercesc_2_7::MemoryManager"*), void (%"class.xalanc_1_10::XalanFileUtility"*, %"class.xercesc_2_7::MemoryManager"*)* @_ZN11xalanc_1_1016XalanFileUtilityC2ERN11xercesc_2_713MemoryManagerE
@_ZN11xalanc_1_1016XalanFileUtilityD1Ev = dso_local unnamed_addr alias void (%"class.xalanc_1_10::XalanFileUtility"*), void (%"class.xalanc_1_10::XalanFileUtility"*)* @_ZN11xalanc_1_1016XalanFileUtilityD2Ev

; Function Attrs: noinline uwtable
define internal void @__cxx_global_var_init() #0 section ".text.startup" !dbg !3834 {
entry:
  call void @_ZNSt8ios_base4InitC1Ev(%"class.std::ios_base::Init"* @_ZStL8__ioinit), !dbg !3835
  %0 = call i32 @__cxa_atexit(void (i8*)* bitcast (void (%"class.std::ios_base::Init"*)* @_ZNSt8ios_base4InitD1Ev to void (i8*)*), i8* getelementptr inbounds (%"class.std::ios_base::Init", %"class.std::ios_base::Init"* @_ZStL8__ioinit, i32 0, i32 0), i8* @__dso_handle) #3, !dbg !3835
  ret void, !dbg !3835
}

declare dso_local void @_ZNSt8ios_base4InitC1Ev(%"class.std::ios_base::Init"*) unnamed_addr #1

; Function Attrs: nounwind
declare dso_local void @_ZNSt8ios_base4InitD1Ev(%"class.std::ios_base::Init"*) unnamed_addr #2

; Function Attrs: nounwind
declare dso_local i32 @__cxa_atexit(void (i8*)*, i8*, i8*) #3

; Function Attrs: nounwind readnone speculatable willreturn
declare void @llvm.dbg.declare(metadata, metadata, metadata) #4

; Function Attrs: noinline nounwind uwtable
define linkonce_odr dso_local void @_ZN11xercesc_2_710XMLDeleterD0Ev(%"class.xercesc_2_7::XMLDeleter"* %this) unnamed_addr #5 comdat align 2 !dbg !3836 {
entry:
  %this.addr = alloca %"class.xercesc_2_7::XMLDeleter"*, align 8
  store %"class.xercesc_2_7::XMLDeleter"* %this, %"class.xercesc_2_7::XMLDeleter"** %this.addr, align 8
  call void @llvm.dbg.declare(metadata %"class.xercesc_2_7::XMLDeleter"** %this.addr, metadata !3857, metadata !DIExpression()), !dbg !3859
  %this1 = load %"class.xercesc_2_7::XMLDeleter"*, %"class.xercesc_2_7::XMLDeleter"** %this.addr, align 8
  call void @_ZN11xercesc_2_710XMLDeleterD2Ev(%"class.xercesc_2_7::XMLDeleter"* %this1) #3, !dbg !3860
  %0 = bitcast %"class.xercesc_2_7::XMLDeleter"* %this1 to i8*, !dbg !3860
  call void @_ZdlPv(i8* %0) #12, !dbg !3860
  ret void, !dbg !3861
}

; Function Attrs: noinline nounwind uwtable
define linkonce_odr dso_local void @_ZN11xercesc_2_710XMLDeleterD2Ev(%"class.xercesc_2_7::XMLDeleter"* %this) unnamed_addr #5 comdat align 2 !dbg !3862 {
entry:
  %this.addr = alloca %"class.xercesc_2_7::XMLDeleter"*, align 8
  store %"class.xercesc_2_7::XMLDeleter"* %this, %"class.xercesc_2_7::XMLDeleter"** %this.addr, align 8
  call void @llvm.dbg.declare(metadata %"class.xercesc_2_7::XMLDeleter"** %this.addr, metadata !3863, metadata !DIExpression()), !dbg !3864
  %this1 = load %"class.xercesc_2_7::XMLDeleter"*, %"class.xercesc_2_7::XMLDeleter"** %this.addr, align 8
  ret void, !dbg !3865
}

; Function Attrs: nobuiltin nounwind
declare dso_local void @_ZdlPv(i8*) #6

; Function Attrs: noinline uwtable
define internal void @__cxx_global_var_init.1() #0 section ".text.startup" !dbg !3866 {
entry:
  %call = call dereferenceable(8) %"class.xercesc_2_7::MemoryManager"* @_ZN11xalanc_1_1012XalanMemMgrs14getDummyMemMgrEv(), !dbg !3867
  call void @_ZN11xalanc_1_1014XalanDOMStringC1ERN11xercesc_2_713MemoryManagerE(%"class.xalanc_1_10::XalanDOMString"* @_ZN11xalanc_1_1016XalanFileUtility13s_emptyStringE, %"class.xercesc_2_7::MemoryManager"* dereferenceable(8) %call), !dbg !3868
  %0 = call i32 @__cxa_atexit(void (i8*)* bitcast (void (%"class.xalanc_1_10::XalanDOMString"*)* @_ZN11xalanc_1_1014XalanDOMStringD2Ev to void (i8*)*), i8* bitcast (%"class.xalanc_1_10::XalanDOMString"* @_ZN11xalanc_1_1016XalanFileUtility13s_emptyStringE to i8*), i8* @__dso_handle) #3, !dbg !3868
  ret void, !dbg !3867
}

declare dso_local dereferenceable(8) %"class.xercesc_2_7::MemoryManager"* @_ZN11xalanc_1_1012XalanMemMgrs14getDummyMemMgrEv() #1

declare dso_local void @_ZN11xalanc_1_1014XalanDOMStringC1ERN11xercesc_2_713MemoryManagerE(%"class.xalanc_1_10::XalanDOMString"*, %"class.xercesc_2_7::MemoryManager"* dereferenceable(8)) unnamed_addr #1

; Function Attrs: noinline nounwind uwtable
define linkonce_odr dso_local void @_ZN11xalanc_1_1014XalanDOMStringD2Ev(%"class.xalanc_1_10::XalanDOMString"* %this) unnamed_addr #5 comdat align 2 !dbg !3869 {
entry:
  %this.addr = alloca %"class.xalanc_1_10::XalanDOMString"*, align 8
  store %"class.xalanc_1_10::XalanDOMString"* %this, %"class.xalanc_1_10::XalanDOMString"** %this.addr, align 8
  call void @llvm.dbg.declare(metadata %"class.xalanc_1_10::XalanDOMString"** %this.addr, metadata !3870, metadata !DIExpression()), !dbg !3871
  %this1 = load %"class.xalanc_1_10::XalanDOMString"*, %"class.xalanc_1_10::XalanDOMString"** %this.addr, align 8
  %m_data = getelementptr inbounds %"class.xalanc_1_10::XalanDOMString", %"class.xalanc_1_10::XalanDOMString"* %this1, i32 0, i32 0, !dbg !3872
  call void @_ZN11xalanc_1_1011XalanVectorItNS_31MemoryManagedConstructionTraitsItEEED2Ev(%"class.xalanc_1_10::XalanVector"* %m_data) #3, !dbg !3872
  ret void, !dbg !3874
}

; Function Attrs: noinline uwtable
define dso_local void @_ZN11xalanc_1_1016XalanFileUtility12reportStructC2ERN11xercesc_2_713MemoryManagerE(%"struct.xalanc_1_10::XalanFileUtility::reportStruct"* %this, %"class.xercesc_2_7::MemoryManager"* dereferenceable(8) %theManager) unnamed_addr #0 align 2 personality i8* bitcast (i32 (...)* @__gxx_personality_v0 to i8*) !dbg !3875 {
entry:
  %this.addr = alloca %"struct.xalanc_1_10::XalanFileUtility::reportStruct"*, align 8
  %theManager.addr = alloca %"class.xercesc_2_7::MemoryManager"*, align 8
  %exn.slot = alloca i8*
  %ehselector.slot = alloca i32
  store %"struct.xalanc_1_10::XalanFileUtility::reportStruct"* %this, %"struct.xalanc_1_10::XalanFileUtility::reportStruct"** %this.addr, align 8
  call void @llvm.dbg.declare(metadata %"struct.xalanc_1_10::XalanFileUtility::reportStruct"** %this.addr, metadata !3878, metadata !DIExpression()), !dbg !3880
  store %"class.xercesc_2_7::MemoryManager"* %theManager, %"class.xercesc_2_7::MemoryManager"** %theManager.addr, align 8
  call void @llvm.dbg.declare(metadata %"class.xercesc_2_7::MemoryManager"** %theManager.addr, metadata !3881, metadata !DIExpression()), !dbg !3882
  %this1 = load %"struct.xalanc_1_10::XalanFileUtility::reportStruct"*, %"struct.xalanc_1_10::XalanFileUtility::reportStruct"** %this.addr, align 8
  %theDrive = getelementptr inbounds %"struct.xalanc_1_10::XalanFileUtility::reportStruct", %"struct.xalanc_1_10::XalanFileUtility::reportStruct"* %this1, i32 0, i32 0, !dbg !3883
  %0 = load %"class.xercesc_2_7::MemoryManager"*, %"class.xercesc_2_7::MemoryManager"** %theManager.addr, align 8, !dbg !3884
  call void @_ZN11xalanc_1_1014XalanDOMStringC1ERN11xercesc_2_713MemoryManagerE(%"class.xalanc_1_10::XalanDOMString"* %theDrive, %"class.xercesc_2_7::MemoryManager"* dereferenceable(8) %0), !dbg !3883
  %testOrFile = getelementptr inbounds %"struct.xalanc_1_10::XalanFileUtility::reportStruct", %"struct.xalanc_1_10::XalanFileUtility::reportStruct"* %this1, i32 0, i32 1, !dbg !3885
  %1 = load %"class.xercesc_2_7::MemoryManager"*, %"class.xercesc_2_7::MemoryManager"** %theManager.addr, align 8, !dbg !3886
  invoke void @_ZN11xalanc_1_1014XalanDOMStringC1ERN11xercesc_2_713MemoryManagerE(%"class.xalanc_1_10::XalanDOMString"* %testOrFile, %"class.xercesc_2_7::MemoryManager"* dereferenceable(8) %1)
          to label %invoke.cont unwind label %lpad, !dbg !3885

invoke.cont:                                      ; preds = %entry
  %xmlFileURL = getelementptr inbounds %"struct.xalanc_1_10::XalanFileUtility::reportStruct", %"struct.xalanc_1_10::XalanFileUtility::reportStruct"* %this1, i32 0, i32 2, !dbg !3887
  %2 = load %"class.xercesc_2_7::MemoryManager"*, %"class.xercesc_2_7::MemoryManager"** %theManager.addr, align 8, !dbg !3888
  invoke void @_ZN11xalanc_1_1014XalanDOMStringC1ERN11xercesc_2_713MemoryManagerE(%"class.xalanc_1_10::XalanDOMString"* %xmlFileURL, %"class.xercesc_2_7::MemoryManager"* dereferenceable(8) %2)
          to label %invoke.cont3 unwind label %lpad2, !dbg !3887

invoke.cont3:                                     ; preds = %invoke.cont
  %xslFileURL = getelementptr inbounds %"struct.xalanc_1_10::XalanFileUtility::reportStruct", %"struct.xalanc_1_10::XalanFileUtility::reportStruct"* %this1, i32 0, i32 3, !dbg !3889
  %3 = load %"class.xercesc_2_7::MemoryManager"*, %"class.xercesc_2_7::MemoryManager"** %theManager.addr, align 8, !dbg !3890
  invoke void @_ZN11xalanc_1_1014XalanDOMStringC1ERN11xercesc_2_713MemoryManagerE(%"class.xalanc_1_10::XalanDOMString"* %xslFileURL, %"class.xercesc_2_7::MemoryManager"* dereferenceable(8) %3)
          to label %invoke.cont5 unwind label %lpad4, !dbg !3889

invoke.cont5:                                     ; preds = %invoke.cont3
  %xmlFormat = getelementptr inbounds %"struct.xalanc_1_10::XalanFileUtility::reportStruct", %"struct.xalanc_1_10::XalanFileUtility::reportStruct"* %this1, i32 0, i32 4, !dbg !3891
  %4 = load %"class.xercesc_2_7::MemoryManager"*, %"class.xercesc_2_7::MemoryManager"** %theManager.addr, align 8, !dbg !3892
  invoke void @_ZN11xalanc_1_1014XalanDOMStringC1ERN11xercesc_2_713MemoryManagerE(%"class.xalanc_1_10::XalanDOMString"* %xmlFormat, %"class.xercesc_2_7::MemoryManager"* dereferenceable(8) %4)
          to label %invoke.cont7 unwind label %lpad6, !dbg !3891

invoke.cont7:                                     ; preds = %invoke.cont5
  %msg = getelementptr inbounds %"struct.xalanc_1_10::XalanFileUtility::reportStruct", %"struct.xalanc_1_10::XalanFileUtility::reportStruct"* %this1, i32 0, i32 5, !dbg !3893
  store i8* null, i8** %msg, align 8, !dbg !3893
  %currentNode = getelementptr inbounds %"struct.xalanc_1_10::XalanFileUtility::reportStruct", %"struct.xalanc_1_10::XalanFileUtility::reportStruct"* %this1, i32 0, i32 6, !dbg !3894
  %5 = load %"class.xercesc_2_7::MemoryManager"*, %"class.xercesc_2_7::MemoryManager"** %theManager.addr, align 8, !dbg !3895
  invoke void @_ZN11xalanc_1_1014XalanDOMStringC1ERN11xercesc_2_713MemoryManagerE(%"class.xalanc_1_10::XalanDOMString"* %currentNode, %"class.xercesc_2_7::MemoryManager"* dereferenceable(8) %5)
          to label %invoke.cont9 unwind label %lpad8, !dbg !3894

invoke.cont9:                                     ; preds = %invoke.cont7
  %actual = getelementptr inbounds %"struct.xalanc_1_10::XalanFileUtility::reportStruct", %"struct.xalanc_1_10::XalanFileUtility::reportStruct"* %this1, i32 0, i32 7, !dbg !3896
  %6 = load %"class.xercesc_2_7::MemoryManager"*, %"class.xercesc_2_7::MemoryManager"** %theManager.addr, align 8, !dbg !3897
  invoke void @_ZN11xalanc_1_1014XalanDOMStringC1ERN11xercesc_2_713MemoryManagerE(%"class.xalanc_1_10::XalanDOMString"* %actual, %"class.xercesc_2_7::MemoryManager"* dereferenceable(8) %6)
          to label %invoke.cont11 unwind label %lpad10, !dbg !3896

invoke.cont11:                                    ; preds = %invoke.cont9
  %expected = getelementptr inbounds %"struct.xalanc_1_10::XalanFileUtility::reportStruct", %"struct.xalanc_1_10::XalanFileUtility::reportStruct"* %this1, i32 0, i32 8, !dbg !3898
  %7 = load %"class.xercesc_2_7::MemoryManager"*, %"class.xercesc_2_7::MemoryManager"** %theManager.addr, align 8, !dbg !3899
  invoke void @_ZN11xalanc_1_1014XalanDOMStringC1ERN11xercesc_2_713MemoryManagerE(%"class.xalanc_1_10::XalanDOMString"* %expected, %"class.xercesc_2_7::MemoryManager"* dereferenceable(8) %7)
          to label %invoke.cont13 unwind label %lpad12, !dbg !3898

invoke.cont13:                                    ; preds = %invoke.cont11
  %pass = getelementptr inbounds %"struct.xalanc_1_10::XalanFileUtility::reportStruct", %"struct.xalanc_1_10::XalanFileUtility::reportStruct"* %this1, i32 0, i32 9, !dbg !3900
  store i32 0, i32* %pass, align 8, !dbg !3900
  %fail = getelementptr inbounds %"struct.xalanc_1_10::XalanFileUtility::reportStruct", %"struct.xalanc_1_10::XalanFileUtility::reportStruct"* %this1, i32 0, i32 10, !dbg !3901
  store i32 0, i32* %fail, align 4, !dbg !3901
  %nogold = getelementptr inbounds %"struct.xalanc_1_10::XalanFileUtility::reportStruct", %"struct.xalanc_1_10::XalanFileUtility::reportStruct"* %this1, i32 0, i32 11, !dbg !3902
  store i32 0, i32* %nogold, align 8, !dbg !3902
  ret void, !dbg !3903

lpad:                                             ; preds = %entry
  %8 = landingpad { i8*, i32 }
          cleanup, !dbg !3903
  %9 = extractvalue { i8*, i32 } %8, 0, !dbg !3903
  store i8* %9, i8** %exn.slot, align 8, !dbg !3903
  %10 = extractvalue { i8*, i32 } %8, 1, !dbg !3903
  store i32 %10, i32* %ehselector.slot, align 4, !dbg !3903
  br label %ehcleanup18, !dbg !3903

lpad2:                                            ; preds = %invoke.cont
  %11 = landingpad { i8*, i32 }
          cleanup, !dbg !3903
  %12 = extractvalue { i8*, i32 } %11, 0, !dbg !3903
  store i8* %12, i8** %exn.slot, align 8, !dbg !3903
  %13 = extractvalue { i8*, i32 } %11, 1, !dbg !3903
  store i32 %13, i32* %ehselector.slot, align 4, !dbg !3903
  br label %ehcleanup17, !dbg !3903

lpad4:                                            ; preds = %invoke.cont3
  %14 = landingpad { i8*, i32 }
          cleanup, !dbg !3903
  %15 = extractvalue { i8*, i32 } %14, 0, !dbg !3903
  store i8* %15, i8** %exn.slot, align 8, !dbg !3903
  %16 = extractvalue { i8*, i32 } %14, 1, !dbg !3903
  store i32 %16, i32* %ehselector.slot, align 4, !dbg !3903
  br label %ehcleanup16, !dbg !3903

lpad6:                                            ; preds = %invoke.cont5
  %17 = landingpad { i8*, i32 }
          cleanup, !dbg !3903
  %18 = extractvalue { i8*, i32 } %17, 0, !dbg !3903
  store i8* %18, i8** %exn.slot, align 8, !dbg !3903
  %19 = extractvalue { i8*, i32 } %17, 1, !dbg !3903
  store i32 %19, i32* %ehselector.slot, align 4, !dbg !3903
  br label %ehcleanup15, !dbg !3903

lpad8:                                            ; preds = %invoke.cont7
  %20 = landingpad { i8*, i32 }
          cleanup, !dbg !3903
  %21 = extractvalue { i8*, i32 } %20, 0, !dbg !3903
  store i8* %21, i8** %exn.slot, align 8, !dbg !3903
  %22 = extractvalue { i8*, i32 } %20, 1, !dbg !3903
  store i32 %22, i32* %ehselector.slot, align 4, !dbg !3903
  br label %ehcleanup14, !dbg !3903

lpad10:                                           ; preds = %invoke.cont9
  %23 = landingpad { i8*, i32 }
          cleanup, !dbg !3903
  %24 = extractvalue { i8*, i32 } %23, 0, !dbg !3903
  store i8* %24, i8** %exn.slot, align 8, !dbg !3903
  %25 = extractvalue { i8*, i32 } %23, 1, !dbg !3903
  store i32 %25, i32* %ehselector.slot, align 4, !dbg !3903
  br label %ehcleanup, !dbg !3903

lpad12:                                           ; preds = %invoke.cont11
  %26 = landingpad { i8*, i32 }
          cleanup, !dbg !3903
  %27 = extractvalue { i8*, i32 } %26, 0, !dbg !3903
  store i8* %27, i8** %exn.slot, align 8, !dbg !3903
  %28 = extractvalue { i8*, i32 } %26, 1, !dbg !3903
  store i32 %28, i32* %ehselector.slot, align 4, !dbg !3903
  call void @_ZN11xalanc_1_1014XalanDOMStringD2Ev(%"class.xalanc_1_10::XalanDOMString"* %actual) #3, !dbg !3904
  br label %ehcleanup, !dbg !3904

ehcleanup:                                        ; preds = %lpad12, %lpad10
  call void @_ZN11xalanc_1_1014XalanDOMStringD2Ev(%"class.xalanc_1_10::XalanDOMString"* %currentNode) #3, !dbg !3904
  br label %ehcleanup14, !dbg !3904

ehcleanup14:                                      ; preds = %ehcleanup, %lpad8
  call void @_ZN11xalanc_1_1014XalanDOMStringD2Ev(%"class.xalanc_1_10::XalanDOMString"* %xmlFormat) #3, !dbg !3904
  br label %ehcleanup15, !dbg !3904

ehcleanup15:                                      ; preds = %ehcleanup14, %lpad6
  call void @_ZN11xalanc_1_1014XalanDOMStringD2Ev(%"class.xalanc_1_10::XalanDOMString"* %xslFileURL) #3, !dbg !3904
  br label %ehcleanup16, !dbg !3904

ehcleanup16:                                      ; preds = %ehcleanup15, %lpad4
  call void @_ZN11xalanc_1_1014XalanDOMStringD2Ev(%"class.xalanc_1_10::XalanDOMString"* %xmlFileURL) #3, !dbg !3904
  br label %ehcleanup17, !dbg !3904

ehcleanup17:                                      ; preds = %ehcleanup16, %lpad2
  call void @_ZN11xalanc_1_1014XalanDOMStringD2Ev(%"class.xalanc_1_10::XalanDOMString"* %testOrFile) #3, !dbg !3904
  br label %ehcleanup18, !dbg !3904

ehcleanup18:                                      ; preds = %ehcleanup17, %lpad
  call void @_ZN11xalanc_1_1014XalanDOMStringD2Ev(%"class.xalanc_1_10::XalanDOMString"* %theDrive) #3, !dbg !3904
  br label %eh.resume, !dbg !3904

eh.resume:                                        ; preds = %ehcleanup18
  %exn = load i8*, i8** %exn.slot, align 8, !dbg !3904
  %sel = load i32, i32* %ehselector.slot, align 4, !dbg !3904
  %lpad.val = insertvalue { i8*, i32 } undef, i8* %exn, 0, !dbg !3904
  %lpad.val19 = insertvalue { i8*, i32 } %lpad.val, i32 %sel, 1, !dbg !3904
  resume { i8*, i32 } %lpad.val19, !dbg !3904
}

declare dso_local i32 @__gxx_personality_v0(...)

; Function Attrs: noinline uwtable
define dso_local void @_ZN11xalanc_1_1016XalanFileUtility12reportStruct5resetEv(%"struct.xalanc_1_10::XalanFileUtility::reportStruct"* %this) #0 align 2 !dbg !3906 {
entry:
  %this.addr = alloca %"struct.xalanc_1_10::XalanFileUtility::reportStruct"*, align 8
  store %"struct.xalanc_1_10::XalanFileUtility::reportStruct"* %this, %"struct.xalanc_1_10::XalanFileUtility::reportStruct"** %this.addr, align 8
  call void @llvm.dbg.declare(metadata %"struct.xalanc_1_10::XalanFileUtility::reportStruct"** %this.addr, metadata !3907, metadata !DIExpression()), !dbg !3908
  %this1 = load %"struct.xalanc_1_10::XalanFileUtility::reportStruct"*, %"struct.xalanc_1_10::XalanFileUtility::reportStruct"** %this.addr, align 8
  %testOrFile = getelementptr inbounds %"struct.xalanc_1_10::XalanFileUtility::reportStruct", %"struct.xalanc_1_10::XalanFileUtility::reportStruct"* %this1, i32 0, i32 1, !dbg !3909
  call void @_ZN11xalanc_1_105clearERNS_14XalanDOMStringE(%"class.xalanc_1_10::XalanDOMString"* dereferenceable(40) %testOrFile), !dbg !3910
  %msg = getelementptr inbounds %"struct.xalanc_1_10::XalanFileUtility::reportStruct", %"struct.xalanc_1_10::XalanFileUtility::reportStruct"* %this1, i32 0, i32 5, !dbg !3911
  store i8* getelementptr inbounds ([1 x i8], [1 x i8]* @.str, i64 0, i64 0), i8** %msg, align 8, !dbg !3912
  %currentNode = getelementptr inbounds %"struct.xalanc_1_10::XalanFileUtility::reportStruct", %"struct.xalanc_1_10::XalanFileUtility::reportStruct"* %this1, i32 0, i32 6, !dbg !3913
  call void @_ZN11xalanc_1_105clearERNS_14XalanDOMStringE(%"class.xalanc_1_10::XalanDOMString"* dereferenceable(40) %currentNode), !dbg !3914
  %actual = getelementptr inbounds %"struct.xalanc_1_10::XalanFileUtility::reportStruct", %"struct.xalanc_1_10::XalanFileUtility::reportStruct"* %this1, i32 0, i32 7, !dbg !3915
  call void @_ZN11xalanc_1_105clearERNS_14XalanDOMStringE(%"class.xalanc_1_10::XalanDOMString"* dereferenceable(40) %actual), !dbg !3916
  %expected = getelementptr inbounds %"struct.xalanc_1_10::XalanFileUtility::reportStruct", %"struct.xalanc_1_10::XalanFileUtility::reportStruct"* %this1, i32 0, i32 8, !dbg !3917
  call void @_ZN11xalanc_1_105clearERNS_14XalanDOMStringE(%"class.xalanc_1_10::XalanDOMString"* dereferenceable(40) %expected), !dbg !3918
  ret void, !dbg !3919
}

; Function Attrs: noinline uwtable
define linkonce_odr dso_local void @_ZN11xalanc_1_105clearERNS_14XalanDOMStringE(%"class.xalanc_1_10::XalanDOMString"* dereferenceable(40) %theString) #0 comdat !dbg !3920 {
entry:
  %theString.addr = alloca %"class.xalanc_1_10::XalanDOMString"*, align 8
  store %"class.xalanc_1_10::XalanDOMString"* %theString, %"class.xalanc_1_10::XalanDOMString"** %theString.addr, align 8
  call void @llvm.dbg.declare(metadata %"class.xalanc_1_10::XalanDOMString"** %theString.addr, metadata !3923, metadata !DIExpression()), !dbg !3924
  %0 = load %"class.xalanc_1_10::XalanDOMString"*, %"class.xalanc_1_10::XalanDOMString"** %theString.addr, align 8, !dbg !3925
  call void @_ZN11xalanc_1_1014XalanDOMString5clearEv(%"class.xalanc_1_10::XalanDOMString"* %0), !dbg !3926
  ret void, !dbg !3927
}

; Function Attrs: noinline uwtable
define dso_local void @_ZN11xalanc_1_1016XalanFileUtility9cmdParamsC2ERN11xercesc_2_713MemoryManagerE(%"struct.xalanc_1_10::XalanFileUtility::cmdParams"* %this, %"class.xercesc_2_7::MemoryManager"* dereferenceable(8) %theManager) unnamed_addr #0 align 2 personality i8* bitcast (i32 (...)* @__gxx_personality_v0 to i8*) !dbg !3928 {
entry:
  %this.addr = alloca %"struct.xalanc_1_10::XalanFileUtility::cmdParams"*, align 8
  %theManager.addr = alloca %"class.xercesc_2_7::MemoryManager"*, align 8
  %exn.slot = alloca i8*
  %ehselector.slot = alloca i32
  store %"struct.xalanc_1_10::XalanFileUtility::cmdParams"* %this, %"struct.xalanc_1_10::XalanFileUtility::cmdParams"** %this.addr, align 8
  call void @llvm.dbg.declare(metadata %"struct.xalanc_1_10::XalanFileUtility::cmdParams"** %this.addr, metadata !3931, metadata !DIExpression()), !dbg !3933
  store %"class.xercesc_2_7::MemoryManager"* %theManager, %"class.xercesc_2_7::MemoryManager"** %theManager.addr, align 8
  call void @llvm.dbg.declare(metadata %"class.xercesc_2_7::MemoryManager"** %theManager.addr, metadata !3934, metadata !DIExpression()), !dbg !3935
  %this1 = load %"struct.xalanc_1_10::XalanFileUtility::cmdParams"*, %"struct.xalanc_1_10::XalanFileUtility::cmdParams"** %this.addr, align 8
  %help = getelementptr inbounds %"struct.xalanc_1_10::XalanFileUtility::cmdParams", %"struct.xalanc_1_10::XalanFileUtility::cmdParams"* %this1, i32 0, i32 0, !dbg !3936
  call void @_ZNSt10ostrstreamC1Ev(%"class.std::ostrstream"* %help), !dbg !3936
  %base = getelementptr inbounds %"struct.xalanc_1_10::XalanFileUtility::cmdParams", %"struct.xalanc_1_10::XalanFileUtility::cmdParams"* %this1, i32 0, i32 1, !dbg !3937
  %0 = load %"class.xercesc_2_7::MemoryManager"*, %"class.xercesc_2_7::MemoryManager"** %theManager.addr, align 8, !dbg !3938
  invoke void @_ZN11xalanc_1_1014XalanDOMStringC1ERN11xercesc_2_713MemoryManagerE(%"class.xalanc_1_10::XalanDOMString"* %base, %"class.xercesc_2_7::MemoryManager"* dereferenceable(8) %0)
          to label %invoke.cont unwind label %lpad, !dbg !3937

invoke.cont:                                      ; preds = %entry
  %output = getelementptr inbounds %"struct.xalanc_1_10::XalanFileUtility::cmdParams", %"struct.xalanc_1_10::XalanFileUtility::cmdParams"* %this1, i32 0, i32 2, !dbg !3939
  %1 = load %"class.xercesc_2_7::MemoryManager"*, %"class.xercesc_2_7::MemoryManager"** %theManager.addr, align 8, !dbg !3940
  invoke void @_ZN11xalanc_1_1014XalanDOMStringC1ERN11xercesc_2_713MemoryManagerE(%"class.xalanc_1_10::XalanDOMString"* %output, %"class.xercesc_2_7::MemoryManager"* dereferenceable(8) %1)
          to label %invoke.cont3 unwind label %lpad2, !dbg !3939

invoke.cont3:                                     ; preds = %invoke.cont
  %gold = getelementptr inbounds %"struct.xalanc_1_10::XalanFileUtility::cmdParams", %"struct.xalanc_1_10::XalanFileUtility::cmdParams"* %this1, i32 0, i32 3, !dbg !3941
  %2 = load %"class.xercesc_2_7::MemoryManager"*, %"class.xercesc_2_7::MemoryManager"** %theManager.addr, align 8, !dbg !3942
  invoke void @_ZN11xalanc_1_1014XalanDOMStringC1ERN11xercesc_2_713MemoryManagerE(%"class.xalanc_1_10::XalanDOMString"* %gold, %"class.xercesc_2_7::MemoryManager"* dereferenceable(8) %2)
          to label %invoke.cont5 unwind label %lpad4, !dbg !3941

invoke.cont5:                                     ; preds = %invoke.cont3
  %sub = getelementptr inbounds %"struct.xalanc_1_10::XalanFileUtility::cmdParams", %"struct.xalanc_1_10::XalanFileUtility::cmdParams"* %this1, i32 0, i32 4, !dbg !3943
  %3 = load %"class.xercesc_2_7::MemoryManager"*, %"class.xercesc_2_7::MemoryManager"** %theManager.addr, align 8, !dbg !3944
  invoke void @_ZN11xalanc_1_1014XalanDOMStringC1ERN11xercesc_2_713MemoryManagerE(%"class.xalanc_1_10::XalanDOMString"* %sub, %"class.xercesc_2_7::MemoryManager"* dereferenceable(8) %3)
          to label %invoke.cont7 unwind label %lpad6, !dbg !3943

invoke.cont7:                                     ; preds = %invoke.cont5
  %source = getelementptr inbounds %"struct.xalanc_1_10::XalanFileUtility::cmdParams", %"struct.xalanc_1_10::XalanFileUtility::cmdParams"* %this1, i32 0, i32 5, !dbg !3945
  store i32 0, i32* %source, align 8, !dbg !3945
  %skip = getelementptr inbounds %"struct.xalanc_1_10::XalanFileUtility::cmdParams", %"struct.xalanc_1_10::XalanFileUtility::cmdParams"* %this1, i32 0, i32 6, !dbg !3946
  store i8 0, i8* %skip, align 4, !dbg !3946
  %iters = getelementptr inbounds %"struct.xalanc_1_10::XalanFileUtility::cmdParams", %"struct.xalanc_1_10::XalanFileUtility::cmdParams"* %this1, i32 0, i32 7, !dbg !3947
  store i64 0, i64* %iters, align 8, !dbg !3947
  ret void, !dbg !3948

lpad:                                             ; preds = %entry
  %4 = landingpad { i8*, i32 }
          cleanup, !dbg !3948
  %5 = extractvalue { i8*, i32 } %4, 0, !dbg !3948
  store i8* %5, i8** %exn.slot, align 8, !dbg !3948
  %6 = extractvalue { i8*, i32 } %4, 1, !dbg !3948
  store i32 %6, i32* %ehselector.slot, align 4, !dbg !3948
  br label %ehcleanup9, !dbg !3948

lpad2:                                            ; preds = %invoke.cont
  %7 = landingpad { i8*, i32 }
          cleanup, !dbg !3948
  %8 = extractvalue { i8*, i32 } %7, 0, !dbg !3948
  store i8* %8, i8** %exn.slot, align 8, !dbg !3948
  %9 = extractvalue { i8*, i32 } %7, 1, !dbg !3948
  store i32 %9, i32* %ehselector.slot, align 4, !dbg !3948
  br label %ehcleanup8, !dbg !3948

lpad4:                                            ; preds = %invoke.cont3
  %10 = landingpad { i8*, i32 }
          cleanup, !dbg !3948
  %11 = extractvalue { i8*, i32 } %10, 0, !dbg !3948
  store i8* %11, i8** %exn.slot, align 8, !dbg !3948
  %12 = extractvalue { i8*, i32 } %10, 1, !dbg !3948
  store i32 %12, i32* %ehselector.slot, align 4, !dbg !3948
  br label %ehcleanup, !dbg !3948

lpad6:                                            ; preds = %invoke.cont5
  %13 = landingpad { i8*, i32 }
          cleanup, !dbg !3948
  %14 = extractvalue { i8*, i32 } %13, 0, !dbg !3948
  store i8* %14, i8** %exn.slot, align 8, !dbg !3948
  %15 = extractvalue { i8*, i32 } %13, 1, !dbg !3948
  store i32 %15, i32* %ehselector.slot, align 4, !dbg !3948
  call void @_ZN11xalanc_1_1014XalanDOMStringD2Ev(%"class.xalanc_1_10::XalanDOMString"* %gold) #3, !dbg !3949
  br label %ehcleanup, !dbg !3949

ehcleanup:                                        ; preds = %lpad6, %lpad4
  call void @_ZN11xalanc_1_1014XalanDOMStringD2Ev(%"class.xalanc_1_10::XalanDOMString"* %output) #3, !dbg !3949
  br label %ehcleanup8, !dbg !3949

ehcleanup8:                                       ; preds = %ehcleanup, %lpad2
  call void @_ZN11xalanc_1_1014XalanDOMStringD2Ev(%"class.xalanc_1_10::XalanDOMString"* %base) #3, !dbg !3949
  br label %ehcleanup9, !dbg !3949

ehcleanup9:                                       ; preds = %ehcleanup8, %lpad
  call void @_ZNSt10ostrstreamD1Ev(%"class.std::ostrstream"* %help) #3, !dbg !3949
  br label %eh.resume, !dbg !3949

eh.resume:                                        ; preds = %ehcleanup9
  %exn = load i8*, i8** %exn.slot, align 8, !dbg !3949
  %sel = load i32, i32* %ehselector.slot, align 4, !dbg !3949
  %lpad.val = insertvalue { i8*, i32 } undef, i8* %exn, 0, !dbg !3949
  %lpad.val10 = insertvalue { i8*, i32 } %lpad.val, i32 %sel, 1, !dbg !3949
  resume { i8*, i32 } %lpad.val10, !dbg !3949
}

declare dso_local void @_ZNSt10ostrstreamC1Ev(%"class.std::ostrstream"*) unnamed_addr #1

; Function Attrs: nounwind
declare dso_local void @_ZNSt10ostrstreamD1Ev(%"class.std::ostrstream"*) unnamed_addr #2

; Function Attrs: noinline uwtable
define dso_local i8* @_ZN11xalanc_1_1016XalanFileUtility9cmdParams14getHelpMessageEv(%"struct.xalanc_1_10::XalanFileUtility::cmdParams"* %this) #0 align 2 !dbg !3951 {
entry:
  %this.addr = alloca %"struct.xalanc_1_10::XalanFileUtility::cmdParams"*, align 8
  %data = alloca i8*, align 8
  store %"struct.xalanc_1_10::XalanFileUtility::cmdParams"* %this, %"struct.xalanc_1_10::XalanFileUtility::cmdParams"** %this.addr, align 8
  call void @llvm.dbg.declare(metadata %"struct.xalanc_1_10::XalanFileUtility::cmdParams"** %this.addr, metadata !3952, metadata !DIExpression()), !dbg !3953
  %this1 = load %"struct.xalanc_1_10::XalanFileUtility::cmdParams"*, %"struct.xalanc_1_10::XalanFileUtility::cmdParams"** %this.addr, align 8
  %help = getelementptr inbounds %"struct.xalanc_1_10::XalanFileUtility::cmdParams", %"struct.xalanc_1_10::XalanFileUtility::cmdParams"* %this1, i32 0, i32 0, !dbg !3954
  %0 = bitcast %"class.std::ostrstream"* %help to %"class.std::basic_ostream"*, !dbg !3954
  %call = call dereferenceable(272) %"class.std::basic_ostream"* @_ZStlsISt11char_traitsIcEERSt13basic_ostreamIcT_ES5_c(%"class.std::basic_ostream"* dereferenceable(272) %0, i8 signext 0), !dbg !3955
  call void @llvm.dbg.declare(metadata i8** %data, metadata !3956, metadata !DIExpression()), !dbg !3957
  %help2 = getelementptr inbounds %"struct.xalanc_1_10::XalanFileUtility::cmdParams", %"struct.xalanc_1_10::XalanFileUtility::cmdParams"* %this1, i32 0, i32 0, !dbg !3958
  %call3 = call i8* @_ZNSt10ostrstream3strEv(%"class.std::ostrstream"* %help2) #3, !dbg !3959
  store i8* %call3, i8** %data, align 8, !dbg !3957
  %help4 = getelementptr inbounds %"struct.xalanc_1_10::XalanFileUtility::cmdParams", %"struct.xalanc_1_10::XalanFileUtility::cmdParams"* %this1, i32 0, i32 0, !dbg !3960
  call void @_ZNSt10ostrstream6freezeEb(%"class.std::ostrstream"* %help4, i1 zeroext false) #3, !dbg !3961
  %1 = load i8*, i8** %data, align 8, !dbg !3962
  ret i8* %1, !dbg !3963
}

declare dso_local dereferenceable(272) %"class.std::basic_ostream"* @_ZStlsISt11char_traitsIcEERSt13basic_ostreamIcT_ES5_c(%"class.std::basic_ostream"* dereferenceable(272), i8 signext) #1

; Function Attrs: nounwind
declare dso_local i8* @_ZNSt10ostrstream3strEv(%"class.std::ostrstream"*) #2

; Function Attrs: nounwind
declare dso_local void @_ZNSt10ostrstream6freezeEb(%"class.std::ostrstream"*, i1 zeroext) #2

; Function Attrs: noinline uwtable
define dso_local void @_ZN11xalanc_1_1016XalanFileUtilityC2ERN11xercesc_2_713MemoryManagerE(%"class.xalanc_1_10::XalanFileUtility"* %this, %"class.xercesc_2_7::MemoryManager"* dereferenceable(8) %theManager) unnamed_addr #0 align 2 personality i8* bitcast (i32 (...)* @__gxx_personality_v0 to i8*) !dbg !3964 {
entry:
  %this.addr = alloca %"class.xalanc_1_10::XalanFileUtility"*, align 8
  %theManager.addr = alloca %"class.xercesc_2_7::MemoryManager"*, align 8
  %exn.slot = alloca i8*
  %ehselector.slot = alloca i32
  store %"class.xalanc_1_10::XalanFileUtility"* %this, %"class.xalanc_1_10::XalanFileUtility"** %this.addr, align 8
  call void @llvm.dbg.declare(metadata %"class.xalanc_1_10::XalanFileUtility"** %this.addr, metadata !3967, metadata !DIExpression()), !dbg !3969
  store %"class.xercesc_2_7::MemoryManager"* %theManager, %"class.xercesc_2_7::MemoryManager"** %theManager.addr, align 8
  call void @llvm.dbg.declare(metadata %"class.xercesc_2_7::MemoryManager"** %theManager.addr, metadata !3970, metadata !DIExpression()), !dbg !3971
  %this1 = load %"class.xalanc_1_10::XalanFileUtility"*, %"class.xalanc_1_10::XalanFileUtility"** %this.addr, align 8
  %data = getelementptr inbounds %"class.xalanc_1_10::XalanFileUtility", %"class.xalanc_1_10::XalanFileUtility"* %this1, i32 0, i32 0, !dbg !3972
  %0 = load %"class.xercesc_2_7::MemoryManager"*, %"class.xercesc_2_7::MemoryManager"** %theManager.addr, align 8, !dbg !3973
  call void @_ZN11xalanc_1_1016XalanFileUtility12reportStructC1ERN11xercesc_2_713MemoryManagerE(%"struct.xalanc_1_10::XalanFileUtility::reportStruct"* %data, %"class.xercesc_2_7::MemoryManager"* dereferenceable(8) %0), !dbg !3972
  %args = getelementptr inbounds %"class.xalanc_1_10::XalanFileUtility", %"class.xalanc_1_10::XalanFileUtility"* %this1, i32 0, i32 1, !dbg !3974
  %1 = load %"class.xercesc_2_7::MemoryManager"*, %"class.xercesc_2_7::MemoryManager"** %theManager.addr, align 8, !dbg !3975
  invoke void @_ZN11xalanc_1_1016XalanFileUtility9cmdParamsC1ERN11xercesc_2_713MemoryManagerE(%"struct.xalanc_1_10::XalanFileUtility::cmdParams"* %args, %"class.xercesc_2_7::MemoryManager"* dereferenceable(8) %1)
          to label %invoke.cont unwind label %lpad, !dbg !3974

invoke.cont:                                      ; preds = %entry
  %m_memoryManager = getelementptr inbounds %"class.xalanc_1_10::XalanFileUtility", %"class.xalanc_1_10::XalanFileUtility"* %this1, i32 0, i32 2, !dbg !3976
  %2 = load %"class.xercesc_2_7::MemoryManager"*, %"class.xercesc_2_7::MemoryManager"** %theManager.addr, align 8, !dbg !3977
  store %"class.xercesc_2_7::MemoryManager"* %2, %"class.xercesc_2_7::MemoryManager"** %m_memoryManager, align 8, !dbg !3976
  %call = invoke dereferenceable(272) %"class.std::basic_ostream"* @_ZNSolsEPFRSoS_E(%"class.std::basic_ostream"* @_ZSt4cout, %"class.std::basic_ostream"* (%"class.std::basic_ostream"*)* @_ZSt4endlIcSt11char_traitsIcEERSt13basic_ostreamIT_T0_ES6_)
          to label %invoke.cont3 unwind label %lpad2, !dbg !3978

invoke.cont3:                                     ; preds = %invoke.cont
  %call5 = invoke dereferenceable(272) %"class.std::basic_ostream"* @_ZStlsISt11char_traitsIcEERSt13basic_ostreamIcT_ES5_PKc(%"class.std::basic_ostream"* dereferenceable(272) %call, i8* getelementptr inbounds ([21 x i8], [21 x i8]* @.str.2, i64 0, i64 0))
          to label %invoke.cont4 unwind label %lpad2, !dbg !3980

invoke.cont4:                                     ; preds = %invoke.cont3
  %call7 = invoke dereferenceable(272) %"class.std::basic_ostream"* @_ZStlsISt11char_traitsIcEERSt13basic_ostreamIcT_ES5_PKc(%"class.std::basic_ostream"* dereferenceable(272) %call5, i8* getelementptr inbounds ([7 x i8], [7 x i8]* @.str.3, i64 0, i64 0))
          to label %invoke.cont6 unwind label %lpad2, !dbg !3981

invoke.cont6:                                     ; preds = %invoke.cont4
  %call9 = invoke dereferenceable(272) %"class.std::basic_ostream"* @_ZNSolsEPFRSoS_E(%"class.std::basic_ostream"* %call7, %"class.std::basic_ostream"* (%"class.std::basic_ostream"*)* @_ZSt4endlIcSt11char_traitsIcEERSt13basic_ostreamIT_T0_ES6_)
          to label %invoke.cont8 unwind label %lpad2, !dbg !3982

invoke.cont8:                                     ; preds = %invoke.cont6
  %call11 = invoke dereferenceable(272) %"class.std::basic_ostream"* @_ZStlsISt11char_traitsIcEERSt13basic_ostreamIcT_ES5_PKc(%"class.std::basic_ostream"* dereferenceable(272) %call9, i8* getelementptr inbounds ([22 x i8], [22 x i8]* @.str.4, i64 0, i64 0))
          to label %invoke.cont10 unwind label %lpad2, !dbg !3983

invoke.cont10:                                    ; preds = %invoke.cont8
  %call13 = invoke dereferenceable(272) %"class.std::basic_ostream"* @_ZStlsISt11char_traitsIcEERSt13basic_ostreamIcT_ES5_PKc(%"class.std::basic_ostream"* dereferenceable(272) %call11, i8* getelementptr inbounds ([6 x i8], [6 x i8]* @.str.5, i64 0, i64 0))
          to label %invoke.cont12 unwind label %lpad2, !dbg !3984

invoke.cont12:                                    ; preds = %invoke.cont10
  %call15 = invoke dereferenceable(272) %"class.std::basic_ostream"* @_ZNSolsEPFRSoS_E(%"class.std::basic_ostream"* %call13, %"class.std::basic_ostream"* (%"class.std::basic_ostream"*)* @_ZSt4endlIcSt11char_traitsIcEERSt13basic_ostreamIT_T0_ES6_)
          to label %invoke.cont14 unwind label %lpad2, !dbg !3985

invoke.cont14:                                    ; preds = %invoke.cont12
  %call17 = invoke dereferenceable(272) %"class.std::basic_ostream"* @_ZNSolsEPFRSoS_E(%"class.std::basic_ostream"* %call15, %"class.std::basic_ostream"* (%"class.std::basic_ostream"*)* @_ZSt4endlIcSt11char_traitsIcEERSt13basic_ostreamIT_T0_ES6_)
          to label %invoke.cont16 unwind label %lpad2, !dbg !3986

invoke.cont16:                                    ; preds = %invoke.cont14
  ret void, !dbg !3987

lpad:                                             ; preds = %entry
  %3 = landingpad { i8*, i32 }
          cleanup, !dbg !3987
  %4 = extractvalue { i8*, i32 } %3, 0, !dbg !3987
  store i8* %4, i8** %exn.slot, align 8, !dbg !3987
  %5 = extractvalue { i8*, i32 } %3, 1, !dbg !3987
  store i32 %5, i32* %ehselector.slot, align 4, !dbg !3987
  br label %ehcleanup, !dbg !3987

lpad2:                                            ; preds = %invoke.cont14, %invoke.cont12, %invoke.cont10, %invoke.cont8, %invoke.cont6, %invoke.cont4, %invoke.cont3, %invoke.cont
  %6 = landingpad { i8*, i32 }
          cleanup, !dbg !3988
  %7 = extractvalue { i8*, i32 } %6, 0, !dbg !3988
  store i8* %7, i8** %exn.slot, align 8, !dbg !3988
  %8 = extractvalue { i8*, i32 } %6, 1, !dbg !3988
  store i32 %8, i32* %ehselector.slot, align 4, !dbg !3988
  call void @_ZN11xalanc_1_1016XalanFileUtility9cmdParamsD2Ev(%"struct.xalanc_1_10::XalanFileUtility::cmdParams"* %args) #3, !dbg !3988
  br label %ehcleanup, !dbg !3988

ehcleanup:                                        ; preds = %lpad2, %lpad
  call void @_ZN11xalanc_1_1016XalanFileUtility12reportStructD2Ev(%"struct.xalanc_1_10::XalanFileUtility::reportStruct"* %data) #3, !dbg !3988
  br label %eh.resume, !dbg !3988

eh.resume:                                        ; preds = %ehcleanup
  %exn = load i8*, i8** %exn.slot, align 8, !dbg !3988
  %sel = load i32, i32* %ehselector.slot, align 4, !dbg !3988
  %lpad.val = insertvalue { i8*, i32 } undef, i8* %exn, 0, !dbg !3988
  %lpad.val18 = insertvalue { i8*, i32 } %lpad.val, i32 %sel, 1, !dbg !3988
  resume { i8*, i32 } %lpad.val18, !dbg !3988
}

declare dso_local dereferenceable(272) %"class.std::basic_ostream"* @_ZStlsISt11char_traitsIcEERSt13basic_ostreamIcT_ES5_PKc(%"class.std::basic_ostream"* dereferenceable(272), i8*) #1

declare dso_local dereferenceable(272) %"class.std::basic_ostream"* @_ZNSolsEPFRSoS_E(%"class.std::basic_ostream"*, %"class.std::basic_ostream"* (%"class.std::basic_ostream"*)*) #1

declare dso_local dereferenceable(272) %"class.std::basic_ostream"* @_ZSt4endlIcSt11char_traitsIcEERSt13basic_ostreamIT_T0_ES6_(%"class.std::basic_ostream"* dereferenceable(272)) #1

; Function Attrs: noinline nounwind uwtable
define linkonce_odr dso_local void @_ZN11xalanc_1_1016XalanFileUtility9cmdParamsD2Ev(%"struct.xalanc_1_10::XalanFileUtility::cmdParams"* %this) unnamed_addr #5 comdat align 2 !dbg !3989 {
entry:
  %this.addr = alloca %"struct.xalanc_1_10::XalanFileUtility::cmdParams"*, align 8
  store %"struct.xalanc_1_10::XalanFileUtility::cmdParams"* %this, %"struct.xalanc_1_10::XalanFileUtility::cmdParams"** %this.addr, align 8
  call void @llvm.dbg.declare(metadata %"struct.xalanc_1_10::XalanFileUtility::cmdParams"** %this.addr, metadata !3990, metadata !DIExpression()), !dbg !3991
  %this1 = load %"struct.xalanc_1_10::XalanFileUtility::cmdParams"*, %"struct.xalanc_1_10::XalanFileUtility::cmdParams"** %this.addr, align 8
  %sub = getelementptr inbounds %"struct.xalanc_1_10::XalanFileUtility::cmdParams", %"struct.xalanc_1_10::XalanFileUtility::cmdParams"* %this1, i32 0, i32 4, !dbg !3992
  call void @_ZN11xalanc_1_1014XalanDOMStringD2Ev(%"class.xalanc_1_10::XalanDOMString"* %sub) #3, !dbg !3992
  %gold = getelementptr inbounds %"struct.xalanc_1_10::XalanFileUtility::cmdParams", %"struct.xalanc_1_10::XalanFileUtility::cmdParams"* %this1, i32 0, i32 3, !dbg !3992
  call void @_ZN11xalanc_1_1014XalanDOMStringD2Ev(%"class.xalanc_1_10::XalanDOMString"* %gold) #3, !dbg !3992
  %output = getelementptr inbounds %"struct.xalanc_1_10::XalanFileUtility::cmdParams", %"struct.xalanc_1_10::XalanFileUtility::cmdParams"* %this1, i32 0, i32 2, !dbg !3992
  call void @_ZN11xalanc_1_1014XalanDOMStringD2Ev(%"class.xalanc_1_10::XalanDOMString"* %output) #3, !dbg !3992
  %base = getelementptr inbounds %"struct.xalanc_1_10::XalanFileUtility::cmdParams", %"struct.xalanc_1_10::XalanFileUtility::cmdParams"* %this1, i32 0, i32 1, !dbg !3992
  call void @_ZN11xalanc_1_1014XalanDOMStringD2Ev(%"class.xalanc_1_10::XalanDOMString"* %base) #3, !dbg !3992
  %help = getelementptr inbounds %"struct.xalanc_1_10::XalanFileUtility::cmdParams", %"struct.xalanc_1_10::XalanFileUtility::cmdParams"* %this1, i32 0, i32 0, !dbg !3992
  call void @_ZNSt10ostrstreamD1Ev(%"class.std::ostrstream"* %help) #3, !dbg !3992
  ret void, !dbg !3994
}

; Function Attrs: noinline nounwind uwtable
define linkonce_odr dso_local void @_ZN11xalanc_1_1016XalanFileUtility12reportStructD2Ev(%"struct.xalanc_1_10::XalanFileUtility::reportStruct"* %this) unnamed_addr #5 comdat align 2 !dbg !3995 {
entry:
  %this.addr = alloca %"struct.xalanc_1_10::XalanFileUtility::reportStruct"*, align 8
  store %"struct.xalanc_1_10::XalanFileUtility::reportStruct"* %this, %"struct.xalanc_1_10::XalanFileUtility::reportStruct"** %this.addr, align 8
  call void @llvm.dbg.declare(metadata %"struct.xalanc_1_10::XalanFileUtility::reportStruct"** %this.addr, metadata !3997, metadata !DIExpression()), !dbg !3998
  %this1 = load %"struct.xalanc_1_10::XalanFileUtility::reportStruct"*, %"struct.xalanc_1_10::XalanFileUtility::reportStruct"** %this.addr, align 8
  %expected = getelementptr inbounds %"struct.xalanc_1_10::XalanFileUtility::reportStruct", %"struct.xalanc_1_10::XalanFileUtility::reportStruct"* %this1, i32 0, i32 8, !dbg !3999
  call void @_ZN11xalanc_1_1014XalanDOMStringD2Ev(%"class.xalanc_1_10::XalanDOMString"* %expected) #3, !dbg !3999
  %actual = getelementptr inbounds %"struct.xalanc_1_10::XalanFileUtility::reportStruct", %"struct.xalanc_1_10::XalanFileUtility::reportStruct"* %this1, i32 0, i32 7, !dbg !3999
  call void @_ZN11xalanc_1_1014XalanDOMStringD2Ev(%"class.xalanc_1_10::XalanDOMString"* %actual) #3, !dbg !3999
  %currentNode = getelementptr inbounds %"struct.xalanc_1_10::XalanFileUtility::reportStruct", %"struct.xalanc_1_10::XalanFileUtility::reportStruct"* %this1, i32 0, i32 6, !dbg !3999
  call void @_ZN11xalanc_1_1014XalanDOMStringD2Ev(%"class.xalanc_1_10::XalanDOMString"* %currentNode) #3, !dbg !3999
  %xmlFormat = getelementptr inbounds %"struct.xalanc_1_10::XalanFileUtility::reportStruct", %"struct.xalanc_1_10::XalanFileUtility::reportStruct"* %this1, i32 0, i32 4, !dbg !3999
  call void @_ZN11xalanc_1_1014XalanDOMStringD2Ev(%"class.xalanc_1_10::XalanDOMString"* %xmlFormat) #3, !dbg !3999
  %xslFileURL = getelementptr inbounds %"struct.xalanc_1_10::XalanFileUtility::reportStruct", %"struct.xalanc_1_10::XalanFileUtility::reportStruct"* %this1, i32 0, i32 3, !dbg !3999
  call void @_ZN11xalanc_1_1014XalanDOMStringD2Ev(%"class.xalanc_1_10::XalanDOMString"* %xslFileURL) #3, !dbg !3999
  %xmlFileURL = getelementptr inbounds %"struct.xalanc_1_10::XalanFileUtility::reportStruct", %"struct.xalanc_1_10::XalanFileUtility::reportStruct"* %this1, i32 0, i32 2, !dbg !3999
  call void @_ZN11xalanc_1_1014XalanDOMStringD2Ev(%"class.xalanc_1_10::XalanDOMString"* %xmlFileURL) #3, !dbg !3999
  %testOrFile = getelementptr inbounds %"struct.xalanc_1_10::XalanFileUtility::reportStruct", %"struct.xalanc_1_10::XalanFileUtility::reportStruct"* %this1, i32 0, i32 1, !dbg !3999
  call void @_ZN11xalanc_1_1014XalanDOMStringD2Ev(%"class.xalanc_1_10::XalanDOMString"* %testOrFile) #3, !dbg !3999
  %theDrive = getelementptr inbounds %"struct.xalanc_1_10::XalanFileUtility::reportStruct", %"struct.xalanc_1_10::XalanFileUtility::reportStruct"* %this1, i32 0, i32 0, !dbg !3999
  call void @_ZN11xalanc_1_1014XalanDOMStringD2Ev(%"class.xalanc_1_10::XalanDOMString"* %theDrive) #3, !dbg !3999
  ret void, !dbg !4001
}

; Function Attrs: noinline nounwind uwtable
define dso_local void @_ZN11xalanc_1_1016XalanFileUtilityD2Ev(%"class.xalanc_1_10::XalanFileUtility"* %this) unnamed_addr #5 align 2 !dbg !4002 {
entry:
  %this.addr = alloca %"class.xalanc_1_10::XalanFileUtility"*, align 8
  store %"class.xalanc_1_10::XalanFileUtility"* %this, %"class.xalanc_1_10::XalanFileUtility"** %this.addr, align 8
  call void @llvm.dbg.declare(metadata %"class.xalanc_1_10::XalanFileUtility"** %this.addr, metadata !4003, metadata !DIExpression()), !dbg !4004
  %this1 = load %"class.xalanc_1_10::XalanFileUtility"*, %"class.xalanc_1_10::XalanFileUtility"** %this.addr, align 8
  %args = getelementptr inbounds %"class.xalanc_1_10::XalanFileUtility", %"class.xalanc_1_10::XalanFileUtility"* %this1, i32 0, i32 1, !dbg !4005
  call void @_ZN11xalanc_1_1016XalanFileUtility9cmdParamsD2Ev(%"struct.xalanc_1_10::XalanFileUtility::cmdParams"* %args) #3, !dbg !4005
  %data = getelementptr inbounds %"class.xalanc_1_10::XalanFileUtility", %"class.xalanc_1_10::XalanFileUtility"* %this1, i32 0, i32 0, !dbg !4005
  call void @_ZN11xalanc_1_1016XalanFileUtility12reportStructD2Ev(%"struct.xalanc_1_10::XalanFileUtility::reportStruct"* %data) #3, !dbg !4005
  ret void, !dbg !4007
}

; Function Attrs: noinline uwtable
define dso_local dereferenceable(40) %"class.xalanc_1_10::XalanDOMString"* @_ZN11xalanc_1_1016XalanFileUtility8getDriveERNS_14XalanDOMStringE(%"class.xalanc_1_10::XalanFileUtility"* %this, %"class.xalanc_1_10::XalanDOMString"* dereferenceable(40) %theResult) #0 align 2 !dbg !4008 {
entry:
  %this.addr = alloca %"class.xalanc_1_10::XalanFileUtility"*, align 8
  %theResult.addr = alloca %"class.xalanc_1_10::XalanDOMString"*, align 8
  store %"class.xalanc_1_10::XalanFileUtility"* %this, %"class.xalanc_1_10::XalanFileUtility"** %this.addr, align 8
  call void @llvm.dbg.declare(metadata %"class.xalanc_1_10::XalanFileUtility"** %this.addr, metadata !4009, metadata !DIExpression()), !dbg !4010
  store %"class.xalanc_1_10::XalanDOMString"* %theResult, %"class.xalanc_1_10::XalanDOMString"** %theResult.addr, align 8
  call void @llvm.dbg.declare(metadata %"class.xalanc_1_10::XalanDOMString"** %theResult.addr, metadata !4011, metadata !DIExpression()), !dbg !4012
  %this1 = load %"class.xalanc_1_10::XalanFileUtility"*, %"class.xalanc_1_10::XalanFileUtility"** %this.addr, align 8
  %0 = load %"class.xalanc_1_10::XalanDOMString"*, %"class.xalanc_1_10::XalanDOMString"** %theResult.addr, align 8, !dbg !4013
  call void @_ZN11xalanc_1_1014XalanDOMString5eraseEjj(%"class.xalanc_1_10::XalanDOMString"* %0, i32 0, i32 -1), !dbg !4014
  %1 = load %"class.xalanc_1_10::XalanDOMString"*, %"class.xalanc_1_10::XalanDOMString"** %theResult.addr, align 8, !dbg !4015
  ret %"class.xalanc_1_10::XalanDOMString"* %1, !dbg !4016
}

declare dso_local void @_ZN11xalanc_1_1014XalanDOMString5eraseEjj(%"class.xalanc_1_10::XalanDOMString"*, i32, i32) #1

; Function Attrs: noinline uwtable
define dso_local zeroext i1 @_ZN11xalanc_1_1016XalanFileUtility9getParamsEiPPcPKcb(%"class.xalanc_1_10::XalanFileUtility"* %this, i32 %argc, i8** %argv, i8* %outDir, i1 zeroext %fsetGold) #0 align 2 personality i8* bitcast (i32 (...)* @__gxx_personality_v0 to i8*) !dbg !4017 {
entry:
  %retval = alloca i1, align 1
  %this.addr = alloca %"class.xalanc_1_10::XalanFileUtility"*, align 8
  %argc.addr = alloca i32, align 4
  %argv.addr = alloca i8**, align 8
  %outDir.addr = alloca i8*, align 8
  %fsetGold.addr = alloca i8, align 1
  %fSuccess = alloca i8, align 1
  %fsetOut = alloca i8, align 1
  %ref.tmp = alloca %"class.xalanc_1_10::XalanDOMString", align 8
  %exn.slot = alloca i8*
  %ehselector.slot = alloca i32
  %ref.tmp11 = alloca %"class.xalanc_1_10::XalanDOMString", align 8
  %i = alloca i32, align 4
  %ref.tmp43 = alloca %"class.xalanc_1_10::XalanDOMString", align 8
  %ref.tmp76 = alloca %"class.xalanc_1_10::XalanDOMString", align 8
  %theResult = alloca %"class.xalanc_1_10::XalanVector.0", align 8
  %ref.tmp168 = alloca %"class.xalanc_1_10::XalanDOMString", align 8
  %ii = alloca i32, align 4
  %ref.tmp241 = alloca %"class.xalanc_1_10::XalanDOMString", align 8
  %ref.tmp261 = alloca %"class.xalanc_1_10::XalanDOMString", align 8
  %theResult270 = alloca %"class.xalanc_1_10::XalanVector.0", align 8
  store %"class.xalanc_1_10::XalanFileUtility"* %this, %"class.xalanc_1_10::XalanFileUtility"** %this.addr, align 8
  call void @llvm.dbg.declare(metadata %"class.xalanc_1_10::XalanFileUtility"** %this.addr, metadata !4018, metadata !DIExpression()), !dbg !4019
  store i32 %argc, i32* %argc.addr, align 4
  call void @llvm.dbg.declare(metadata i32* %argc.addr, metadata !4020, metadata !DIExpression()), !dbg !4021
  store i8** %argv, i8*** %argv.addr, align 8
  call void @llvm.dbg.declare(metadata i8*** %argv.addr, metadata !4022, metadata !DIExpression()), !dbg !4023
  store i8* %outDir, i8** %outDir.addr, align 8
  call void @llvm.dbg.declare(metadata i8** %outDir.addr, metadata !4024, metadata !DIExpression()), !dbg !4025
  %frombool = zext i1 %fsetGold to i8
  store i8 %frombool, i8* %fsetGold.addr, align 1
  call void @llvm.dbg.declare(metadata i8* %fsetGold.addr, metadata !4026, metadata !DIExpression()), !dbg !4027
  %this1 = load %"class.xalanc_1_10::XalanFileUtility"*, %"class.xalanc_1_10::XalanFileUtility"** %this.addr, align 8
  call void @llvm.dbg.declare(metadata i8* %fSuccess, metadata !4028, metadata !DIExpression()), !dbg !4029
  store i8 1, i8* %fSuccess, align 1, !dbg !4029
  call void @llvm.dbg.declare(metadata i8* %fsetOut, metadata !4030, metadata !DIExpression()), !dbg !4031
  store i8 1, i8* %fsetOut, align 1, !dbg !4031
  %args = getelementptr inbounds %"class.xalanc_1_10::XalanFileUtility", %"class.xalanc_1_10::XalanFileUtility"* %this1, i32 0, i32 1, !dbg !4032
  %skip = getelementptr inbounds %"struct.xalanc_1_10::XalanFileUtility::cmdParams", %"struct.xalanc_1_10::XalanFileUtility::cmdParams"* %args, i32 0, i32 6, !dbg !4033
  store i8 1, i8* %skip, align 4, !dbg !4034
  %args2 = getelementptr inbounds %"class.xalanc_1_10::XalanFileUtility", %"class.xalanc_1_10::XalanFileUtility"* %this1, i32 0, i32 1, !dbg !4035
  %iters = getelementptr inbounds %"struct.xalanc_1_10::XalanFileUtility::cmdParams", %"struct.xalanc_1_10::XalanFileUtility::cmdParams"* %args2, i32 0, i32 7, !dbg !4036
  store i64 3, i64* %iters, align 8, !dbg !4037
  %0 = load i32, i32* %argc.addr, align 4, !dbg !4038
  %cmp = icmp eq i32 %0, 1, !dbg !4040
  br i1 %cmp, label %if.then, label %lor.lhs.false, !dbg !4041

lor.lhs.false:                                    ; preds = %entry
  %1 = load i8**, i8*** %argv.addr, align 8, !dbg !4042
  %arrayidx = getelementptr inbounds i8*, i8** %1, i64 1, !dbg !4042
  %2 = load i8*, i8** %arrayidx, align 8, !dbg !4042
  %arrayidx3 = getelementptr inbounds i8, i8* %2, i64 0, !dbg !4042
  %3 = load i8, i8* %arrayidx3, align 1, !dbg !4042
  %conv = sext i8 %3 to i32, !dbg !4042
  %cmp4 = icmp eq i32 %conv, 45, !dbg !4043
  br i1 %cmp4, label %if.then, label %if.else, !dbg !4044

if.then:                                          ; preds = %lor.lhs.false, %entry
  %args5 = getelementptr inbounds %"class.xalanc_1_10::XalanFileUtility", %"class.xalanc_1_10::XalanFileUtility"* %this1, i32 0, i32 1, !dbg !4045
  %call = call i8* @_ZN11xalanc_1_1016XalanFileUtility9cmdParams14getHelpMessageEv(%"struct.xalanc_1_10::XalanFileUtility::cmdParams"* %args5), !dbg !4047
  %call6 = call dereferenceable(272) %"class.std::basic_ostream"* @_ZStlsISt11char_traitsIcEERSt13basic_ostreamIcT_ES5_PKc(%"class.std::basic_ostream"* dereferenceable(272) @_ZSt4cout, i8* %call), !dbg !4048
  store i1 false, i1* %retval, align 1, !dbg !4049
  br label %return, !dbg !4049

if.else:                                          ; preds = %lor.lhs.false
  %4 = load i8**, i8*** %argv.addr, align 8, !dbg !4050
  %arrayidx7 = getelementptr inbounds i8*, i8** %4, i64 1, !dbg !4050
  %5 = load i8*, i8** %arrayidx7, align 8, !dbg !4050
  %m_memoryManager = getelementptr inbounds %"class.xalanc_1_10::XalanFileUtility", %"class.xalanc_1_10::XalanFileUtility"* %this1, i32 0, i32 2, !dbg !4053
  %6 = load %"class.xercesc_2_7::MemoryManager"*, %"class.xercesc_2_7::MemoryManager"** %m_memoryManager, align 8, !dbg !4053
  call void @_ZN11xalanc_1_1014XalanDOMStringC1EPKcRN11xercesc_2_713MemoryManagerEj(%"class.xalanc_1_10::XalanDOMString"* %ref.tmp, i8* %5, %"class.xercesc_2_7::MemoryManager"* dereferenceable(8) %6, i32 -1), !dbg !4054
  %call8 = invoke zeroext i1 @_ZN11xalanc_1_1016XalanFileUtility8checkDirERKNS_14XalanDOMStringE(%"class.xalanc_1_10::XalanFileUtility"* %this1, %"class.xalanc_1_10::XalanDOMString"* dereferenceable(40) %ref.tmp)
          to label %invoke.cont unwind label %lpad, !dbg !4055

invoke.cont:                                      ; preds = %if.else
  call void @_ZN11xalanc_1_1014XalanDOMStringD2Ev(%"class.xalanc_1_10::XalanDOMString"* %ref.tmp) #3, !dbg !4055
  br i1 %call8, label %if.then9, label %if.else17, !dbg !4056

if.then9:                                         ; preds = %invoke.cont
  %args10 = getelementptr inbounds %"class.xalanc_1_10::XalanFileUtility", %"class.xalanc_1_10::XalanFileUtility"* %this1, i32 0, i32 1, !dbg !4057
  %base = getelementptr inbounds %"struct.xalanc_1_10::XalanFileUtility::cmdParams", %"struct.xalanc_1_10::XalanFileUtility::cmdParams"* %args10, i32 0, i32 1, !dbg !4059
  %7 = load i8**, i8*** %argv.addr, align 8, !dbg !4060
  %arrayidx12 = getelementptr inbounds i8*, i8** %7, i64 1, !dbg !4060
  %8 = load i8*, i8** %arrayidx12, align 8, !dbg !4060
  %m_memoryManager13 = getelementptr inbounds %"class.xalanc_1_10::XalanFileUtility", %"class.xalanc_1_10::XalanFileUtility"* %this1, i32 0, i32 2, !dbg !4061
  %9 = load %"class.xercesc_2_7::MemoryManager"*, %"class.xercesc_2_7::MemoryManager"** %m_memoryManager13, align 8, !dbg !4061
  call void @_ZN11xalanc_1_1014XalanDOMStringC1EPKcRN11xercesc_2_713MemoryManagerEj(%"class.xalanc_1_10::XalanDOMString"* %ref.tmp11, i8* %8, %"class.xercesc_2_7::MemoryManager"* dereferenceable(8) %9, i32 -1), !dbg !4062
  %call16 = invoke dereferenceable(40) %"class.xalanc_1_10::XalanDOMString"* @_ZN11xalanc_1_106assignERNS_14XalanDOMStringERKS0_(%"class.xalanc_1_10::XalanDOMString"* dereferenceable(40) %base, %"class.xalanc_1_10::XalanDOMString"* dereferenceable(40) %ref.tmp11)
          to label %invoke.cont15 unwind label %lpad14, !dbg !4063

invoke.cont15:                                    ; preds = %if.then9
  call void @_ZN11xalanc_1_1014XalanDOMStringD2Ev(%"class.xalanc_1_10::XalanDOMString"* %ref.tmp11) #3, !dbg !4063
  br label %if.end, !dbg !4064

lpad:                                             ; preds = %if.else
  %10 = landingpad { i8*, i32 }
          cleanup, !dbg !4065
  %11 = extractvalue { i8*, i32 } %10, 0, !dbg !4065
  store i8* %11, i8** %exn.slot, align 8, !dbg !4065
  %12 = extractvalue { i8*, i32 } %10, 1, !dbg !4065
  store i32 %12, i32* %ehselector.slot, align 4, !dbg !4065
  call void @_ZN11xalanc_1_1014XalanDOMStringD2Ev(%"class.xalanc_1_10::XalanDOMString"* %ref.tmp) #3, !dbg !4055
  br label %eh.resume, !dbg !4055

lpad14:                                           ; preds = %if.then9
  %13 = landingpad { i8*, i32 }
          cleanup, !dbg !4066
  %14 = extractvalue { i8*, i32 } %13, 0, !dbg !4066
  store i8* %14, i8** %exn.slot, align 8, !dbg !4066
  %15 = extractvalue { i8*, i32 } %13, 1, !dbg !4066
  store i32 %15, i32* %ehselector.slot, align 4, !dbg !4066
  call void @_ZN11xalanc_1_1014XalanDOMStringD2Ev(%"class.xalanc_1_10::XalanDOMString"* %ref.tmp11) #3, !dbg !4063
  br label %eh.resume, !dbg !4063

if.else17:                                        ; preds = %invoke.cont
  %call18 = call dereferenceable(272) %"class.std::basic_ostream"* @_ZNSolsEPFRSoS_E(%"class.std::basic_ostream"* @_ZSt4cout, %"class.std::basic_ostream"* (%"class.std::basic_ostream"*)* @_ZSt4endlIcSt11char_traitsIcEERSt13basic_ostreamIT_T0_ES6_), !dbg !4067
  %call19 = call dereferenceable(272) %"class.std::basic_ostream"* @_ZStlsISt11char_traitsIcEERSt13basic_ostreamIcT_ES5_PKc(%"class.std::basic_ostream"* dereferenceable(272) %call18, i8* getelementptr inbounds ([23 x i8], [23 x i8]* @.str.6, i64 0, i64 0)), !dbg !4069
  %16 = load i8**, i8*** %argv.addr, align 8, !dbg !4070
  %arrayidx20 = getelementptr inbounds i8*, i8** %16, i64 1, !dbg !4070
  %17 = load i8*, i8** %arrayidx20, align 8, !dbg !4070
  %call21 = call dereferenceable(272) %"class.std::basic_ostream"* @_ZStlsISt11char_traitsIcEERSt13basic_ostreamIcT_ES5_PKc(%"class.std::basic_ostream"* dereferenceable(272) %call19, i8* %17), !dbg !4071
  %call22 = call dereferenceable(272) %"class.std::basic_ostream"* @_ZStlsISt11char_traitsIcEERSt13basic_ostreamIcT_ES5_PKc(%"class.std::basic_ostream"* dereferenceable(272) %call21, i8* getelementptr inbounds ([17 x i8], [17 x i8]* @.str.7, i64 0, i64 0)), !dbg !4072
  %call23 = call dereferenceable(272) %"class.std::basic_ostream"* @_ZNSolsEPFRSoS_E(%"class.std::basic_ostream"* %call22, %"class.std::basic_ostream"* (%"class.std::basic_ostream"*)* @_ZSt4endlIcSt11char_traitsIcEERSt13basic_ostreamIT_T0_ES6_), !dbg !4073
  %args24 = getelementptr inbounds %"class.xalanc_1_10::XalanFileUtility", %"class.xalanc_1_10::XalanFileUtility"* %this1, i32 0, i32 1, !dbg !4074
  %call25 = call i8* @_ZN11xalanc_1_1016XalanFileUtility9cmdParams14getHelpMessageEv(%"struct.xalanc_1_10::XalanFileUtility::cmdParams"* %args24), !dbg !4075
  %call26 = call dereferenceable(272) %"class.std::basic_ostream"* @_ZStlsISt11char_traitsIcEERSt13basic_ostreamIcT_ES5_PKc(%"class.std::basic_ostream"* dereferenceable(272) @_ZSt4cout, i8* %call25), !dbg !4076
  store i1 false, i1* %retval, align 1, !dbg !4077
  br label %return, !dbg !4077

if.end:                                           ; preds = %invoke.cont15
  br label %if.end27

if.end27:                                         ; preds = %if.end
  call void @llvm.dbg.declare(metadata i32* %i, metadata !4078, metadata !DIExpression()), !dbg !4080
  store i32 2, i32* %i, align 4, !dbg !4080
  br label %for.cond, !dbg !4081

for.cond:                                         ; preds = %for.inc, %if.end27
  %18 = load i32, i32* %i, align 4, !dbg !4082
  %19 = load i32, i32* %argc.addr, align 4, !dbg !4084
  %cmp28 = icmp slt i32 %18, %19, !dbg !4085
  br i1 %cmp28, label %land.rhs, label %land.end, !dbg !4086

land.rhs:                                         ; preds = %for.cond
  %20 = load i8, i8* %fSuccess, align 1, !dbg !4087
  %tobool = trunc i8 %20 to i1, !dbg !4087
  %conv29 = zext i1 %tobool to i32, !dbg !4087
  %cmp30 = icmp eq i32 %conv29, 1, !dbg !4088
  br label %land.end

land.end:                                         ; preds = %land.rhs, %for.cond
  %21 = phi i1 [ false, %for.cond ], [ %cmp30, %land.rhs ], !dbg !4089
  br i1 %21, label %for.body, label %for.end, !dbg !4090

for.body:                                         ; preds = %land.end
  %22 = load i8**, i8*** %argv.addr, align 8, !dbg !4091
  %23 = load i32, i32* %i, align 4, !dbg !4094
  %idxprom = sext i32 %23 to i64, !dbg !4091
  %arrayidx31 = getelementptr inbounds i8*, i8** %22, i64 %idxprom, !dbg !4091
  %24 = load i8*, i8** %arrayidx31, align 8, !dbg !4091
  %call32 = call i32 @strcmp(i8* getelementptr inbounds ([5 x i8], [5 x i8]* @.str.8, i64 0, i64 0), i8* %24) #13, !dbg !4095
  %tobool33 = icmp ne i32 %call32, 0, !dbg !4095
  br i1 %tobool33, label %if.else60, label %if.then34, !dbg !4096

if.then34:                                        ; preds = %for.body
  %25 = load i32, i32* %i, align 4, !dbg !4097
  %inc = add nsw i32 %25, 1, !dbg !4097
  store i32 %inc, i32* %i, align 4, !dbg !4097
  %26 = load i32, i32* %i, align 4, !dbg !4099
  %27 = load i32, i32* %argc.addr, align 4, !dbg !4101
  %cmp35 = icmp slt i32 %26, %27, !dbg !4102
  br i1 %cmp35, label %land.lhs.true, label %if.else55, !dbg !4103

land.lhs.true:                                    ; preds = %if.then34
  %28 = load i8**, i8*** %argv.addr, align 8, !dbg !4104
  %29 = load i32, i32* %i, align 4, !dbg !4105
  %idxprom36 = sext i32 %29 to i64, !dbg !4104
  %arrayidx37 = getelementptr inbounds i8*, i8** %28, i64 %idxprom36, !dbg !4104
  %30 = load i8*, i8** %arrayidx37, align 8, !dbg !4104
  %arrayidx38 = getelementptr inbounds i8, i8* %30, i64 0, !dbg !4104
  %31 = load i8, i8* %arrayidx38, align 1, !dbg !4104
  %conv39 = sext i8 %31 to i32, !dbg !4104
  %cmp40 = icmp ne i32 %conv39, 45, !dbg !4106
  br i1 %cmp40, label %if.then41, label %if.else55, !dbg !4107

if.then41:                                        ; preds = %land.lhs.true
  %args42 = getelementptr inbounds %"class.xalanc_1_10::XalanFileUtility", %"class.xalanc_1_10::XalanFileUtility"* %this1, i32 0, i32 1, !dbg !4108
  %output = getelementptr inbounds %"struct.xalanc_1_10::XalanFileUtility::cmdParams", %"struct.xalanc_1_10::XalanFileUtility::cmdParams"* %args42, i32 0, i32 2, !dbg !4110
  %32 = load i8**, i8*** %argv.addr, align 8, !dbg !4111
  %33 = load i32, i32* %i, align 4, !dbg !4112
  %idxprom44 = sext i32 %33 to i64, !dbg !4111
  %arrayidx45 = getelementptr inbounds i8*, i8** %32, i64 %idxprom44, !dbg !4111
  %34 = load i8*, i8** %arrayidx45, align 8, !dbg !4111
  %m_memoryManager46 = getelementptr inbounds %"class.xalanc_1_10::XalanFileUtility", %"class.xalanc_1_10::XalanFileUtility"* %this1, i32 0, i32 2, !dbg !4113
  %35 = load %"class.xercesc_2_7::MemoryManager"*, %"class.xercesc_2_7::MemoryManager"** %m_memoryManager46, align 8, !dbg !4113
  call void @_ZN11xalanc_1_1014XalanDOMStringC1EPKcRN11xercesc_2_713MemoryManagerEj(%"class.xalanc_1_10::XalanDOMString"* %ref.tmp43, i8* %34, %"class.xercesc_2_7::MemoryManager"* dereferenceable(8) %35, i32 -1), !dbg !4114
  %call49 = invoke dereferenceable(40) %"class.xalanc_1_10::XalanDOMString"* @_ZN11xalanc_1_106assignERNS_14XalanDOMStringERKS0_(%"class.xalanc_1_10::XalanDOMString"* dereferenceable(40) %output, %"class.xalanc_1_10::XalanDOMString"* dereferenceable(40) %ref.tmp43)
          to label %invoke.cont48 unwind label %lpad47, !dbg !4115

invoke.cont48:                                    ; preds = %if.then41
  call void @_ZN11xalanc_1_1014XalanDOMStringD2Ev(%"class.xalanc_1_10::XalanDOMString"* %ref.tmp43) #3, !dbg !4115
  %args50 = getelementptr inbounds %"class.xalanc_1_10::XalanFileUtility", %"class.xalanc_1_10::XalanFileUtility"* %this1, i32 0, i32 1, !dbg !4116
  %output51 = getelementptr inbounds %"struct.xalanc_1_10::XalanFileUtility::cmdParams", %"struct.xalanc_1_10::XalanFileUtility::cmdParams"* %args50, i32 0, i32 2, !dbg !4117
  %call52 = call dereferenceable(40) %"class.xalanc_1_10::XalanDOMString"* @_ZN11xalanc_1_106appendERNS_14XalanDOMStringEPKtj(%"class.xalanc_1_10::XalanDOMString"* dereferenceable(40) %output51, i16* getelementptr inbounds ([2 x i16], [2 x i16]* @_ZN11xalanc_1_1016XalanFileUtility9s_pathSepE, i64 0, i64 0), i32 -1), !dbg !4118
  %args53 = getelementptr inbounds %"class.xalanc_1_10::XalanFileUtility", %"class.xalanc_1_10::XalanFileUtility"* %this1, i32 0, i32 1, !dbg !4119
  %output54 = getelementptr inbounds %"struct.xalanc_1_10::XalanFileUtility::cmdParams", %"struct.xalanc_1_10::XalanFileUtility::cmdParams"* %args53, i32 0, i32 2, !dbg !4120
  call void @_ZN11xalanc_1_1016XalanFileUtility17checkAndCreateDirERKNS_14XalanDOMStringE(%"class.xalanc_1_10::XalanFileUtility"* %this1, %"class.xalanc_1_10::XalanDOMString"* dereferenceable(40) %output54), !dbg !4121
  store i8 0, i8* %fsetOut, align 1, !dbg !4122
  br label %if.end59, !dbg !4123

lpad47:                                           ; preds = %if.then41
  %36 = landingpad { i8*, i32 }
          cleanup, !dbg !4124
  %37 = extractvalue { i8*, i32 } %36, 0, !dbg !4124
  store i8* %37, i8** %exn.slot, align 8, !dbg !4124
  %38 = extractvalue { i8*, i32 } %36, 1, !dbg !4124
  store i32 %38, i32* %ehselector.slot, align 4, !dbg !4124
  call void @_ZN11xalanc_1_1014XalanDOMStringD2Ev(%"class.xalanc_1_10::XalanDOMString"* %ref.tmp43) #3, !dbg !4115
  br label %eh.resume, !dbg !4115

if.else55:                                        ; preds = %land.lhs.true, %if.then34
  %args56 = getelementptr inbounds %"class.xalanc_1_10::XalanFileUtility", %"class.xalanc_1_10::XalanFileUtility"* %this1, i32 0, i32 1, !dbg !4125
  %call57 = call i8* @_ZN11xalanc_1_1016XalanFileUtility9cmdParams14getHelpMessageEv(%"struct.xalanc_1_10::XalanFileUtility::cmdParams"* %args56), !dbg !4127
  %call58 = call dereferenceable(272) %"class.std::basic_ostream"* @_ZStlsISt11char_traitsIcEERSt13basic_ostreamIcT_ES5_PKc(%"class.std::basic_ostream"* dereferenceable(272) @_ZSt4cout, i8* %call57), !dbg !4128
  store i8 0, i8* %fSuccess, align 1, !dbg !4129
  br label %if.end59

if.end59:                                         ; preds = %if.else55, %invoke.cont48
  br label %if.end221, !dbg !4130

if.else60:                                        ; preds = %for.body
  %39 = load i8**, i8*** %argv.addr, align 8, !dbg !4131
  %40 = load i32, i32* %i, align 4, !dbg !4133
  %idxprom61 = sext i32 %40 to i64, !dbg !4131
  %arrayidx62 = getelementptr inbounds i8*, i8** %39, i64 %idxprom61, !dbg !4131
  %41 = load i8*, i8** %arrayidx62, align 8, !dbg !4131
  %call63 = call i32 @strcmp(i8* getelementptr inbounds ([6 x i8], [6 x i8]* @.str.9, i64 0, i64 0), i8* %41) #13, !dbg !4134
  %tobool64 = icmp ne i32 %call63, 0, !dbg !4134
  br i1 %tobool64, label %if.else112, label %if.then65, !dbg !4135

if.then65:                                        ; preds = %if.else60
  %42 = load i32, i32* %i, align 4, !dbg !4136
  %inc66 = add nsw i32 %42, 1, !dbg !4136
  store i32 %inc66, i32* %i, align 4, !dbg !4136
  %43 = load i32, i32* %i, align 4, !dbg !4138
  %44 = load i32, i32* %argc.addr, align 4, !dbg !4140
  %cmp67 = icmp slt i32 %43, %44, !dbg !4141
  br i1 %cmp67, label %land.lhs.true68, label %if.else107, !dbg !4142

land.lhs.true68:                                  ; preds = %if.then65
  %45 = load i8**, i8*** %argv.addr, align 8, !dbg !4143
  %46 = load i32, i32* %i, align 4, !dbg !4144
  %idxprom69 = sext i32 %46 to i64, !dbg !4143
  %arrayidx70 = getelementptr inbounds i8*, i8** %45, i64 %idxprom69, !dbg !4143
  %47 = load i8*, i8** %arrayidx70, align 8, !dbg !4143
  %arrayidx71 = getelementptr inbounds i8, i8* %47, i64 0, !dbg !4143
  %48 = load i8, i8* %arrayidx71, align 1, !dbg !4143
  %conv72 = sext i8 %48 to i32, !dbg !4143
  %cmp73 = icmp ne i32 %conv72, 45, !dbg !4145
  br i1 %cmp73, label %if.then74, label %if.else107, !dbg !4146

if.then74:                                        ; preds = %land.lhs.true68
  %args75 = getelementptr inbounds %"class.xalanc_1_10::XalanFileUtility", %"class.xalanc_1_10::XalanFileUtility"* %this1, i32 0, i32 1, !dbg !4147
  %gold = getelementptr inbounds %"struct.xalanc_1_10::XalanFileUtility::cmdParams", %"struct.xalanc_1_10::XalanFileUtility::cmdParams"* %args75, i32 0, i32 3, !dbg !4149
  %49 = load i8**, i8*** %argv.addr, align 8, !dbg !4150
  %50 = load i32, i32* %i, align 4, !dbg !4151
  %idxprom77 = sext i32 %50 to i64, !dbg !4150
  %arrayidx78 = getelementptr inbounds i8*, i8** %49, i64 %idxprom77, !dbg !4150
  %51 = load i8*, i8** %arrayidx78, align 8, !dbg !4150
  %m_memoryManager79 = getelementptr inbounds %"class.xalanc_1_10::XalanFileUtility", %"class.xalanc_1_10::XalanFileUtility"* %this1, i32 0, i32 2, !dbg !4152
  %52 = load %"class.xercesc_2_7::MemoryManager"*, %"class.xercesc_2_7::MemoryManager"** %m_memoryManager79, align 8, !dbg !4152
  call void @_ZN11xalanc_1_1014XalanDOMStringC1EPKcRN11xercesc_2_713MemoryManagerEj(%"class.xalanc_1_10::XalanDOMString"* %ref.tmp76, i8* %51, %"class.xercesc_2_7::MemoryManager"* dereferenceable(8) %52, i32 -1), !dbg !4153
  %call82 = invoke dereferenceable(40) %"class.xalanc_1_10::XalanDOMString"* @_ZN11xalanc_1_106assignERNS_14XalanDOMStringERKS0_(%"class.xalanc_1_10::XalanDOMString"* dereferenceable(40) %gold, %"class.xalanc_1_10::XalanDOMString"* dereferenceable(40) %ref.tmp76)
          to label %invoke.cont81 unwind label %lpad80, !dbg !4154

invoke.cont81:                                    ; preds = %if.then74
  call void @_ZN11xalanc_1_1014XalanDOMStringD2Ev(%"class.xalanc_1_10::XalanDOMString"* %ref.tmp76) #3, !dbg !4154
  %args83 = getelementptr inbounds %"class.xalanc_1_10::XalanFileUtility", %"class.xalanc_1_10::XalanFileUtility"* %this1, i32 0, i32 1, !dbg !4155
  %gold84 = getelementptr inbounds %"struct.xalanc_1_10::XalanFileUtility::cmdParams", %"struct.xalanc_1_10::XalanFileUtility::cmdParams"* %args83, i32 0, i32 3, !dbg !4157
  %call85 = call zeroext i1 @_ZN11xalanc_1_1016XalanFileUtility8checkDirERKNS_14XalanDOMStringE(%"class.xalanc_1_10::XalanFileUtility"* %this1, %"class.xalanc_1_10::XalanDOMString"* dereferenceable(40) %gold84), !dbg !4158
  br i1 %call85, label %if.end103, label %if.then86, !dbg !4159

if.then86:                                        ; preds = %invoke.cont81
  call void @llvm.dbg.declare(metadata %"class.xalanc_1_10::XalanVector.0"* %theResult, metadata !4160, metadata !DIExpression()), !dbg !4163
  %m_memoryManager87 = getelementptr inbounds %"class.xalanc_1_10::XalanFileUtility", %"class.xalanc_1_10::XalanFileUtility"* %this1, i32 0, i32 2, !dbg !4164
  %53 = load %"class.xercesc_2_7::MemoryManager"*, %"class.xercesc_2_7::MemoryManager"** %m_memoryManager87, align 8, !dbg !4164
  call void @_ZN11xalanc_1_1011XalanVectorIcNS_31MemoryManagedConstructionTraitsIcEEEC2ERN11xercesc_2_713MemoryManagerEm(%"class.xalanc_1_10::XalanVector.0"* %theResult, %"class.xercesc_2_7::MemoryManager"* dereferenceable(8) %53, i64 0), !dbg !4163
  %args88 = getelementptr inbounds %"class.xalanc_1_10::XalanFileUtility", %"class.xalanc_1_10::XalanFileUtility"* %this1, i32 0, i32 1, !dbg !4165
  %gold89 = getelementptr inbounds %"struct.xalanc_1_10::XalanFileUtility::cmdParams", %"struct.xalanc_1_10::XalanFileUtility::cmdParams"* %args88, i32 0, i32 3, !dbg !4166
  %call92 = invoke zeroext i1 @_ZN11xalanc_1_1024TranscodeToLocalCodePageERKNS_14XalanDOMStringERNS_11XalanVectorIcNS_31MemoryManagedConstructionTraitsIcEEEEb(%"class.xalanc_1_10::XalanDOMString"* dereferenceable(40) %gold89, %"class.xalanc_1_10::XalanVector.0"* dereferenceable(32) %theResult, i1 zeroext true)
          to label %invoke.cont91 unwind label %lpad90, !dbg !4167

invoke.cont91:                                    ; preds = %if.then86
  %call94 = invoke dereferenceable(272) %"class.std::basic_ostream"* @_ZStlsISt11char_traitsIcEERSt13basic_ostreamIcT_ES5_PKc(%"class.std::basic_ostream"* dereferenceable(272) @_ZSt4cout, i8* getelementptr inbounds ([18 x i8], [18 x i8]* @.str.10, i64 0, i64 0))
          to label %invoke.cont93 unwind label %lpad90, !dbg !4168

invoke.cont93:                                    ; preds = %invoke.cont91
  %call96 = invoke i8* @_ZN11xalanc_1_105c_strERKNS_11XalanVectorIcNS_31MemoryManagedConstructionTraitsIcEEEE(%"class.xalanc_1_10::XalanVector.0"* dereferenceable(32) %theResult)
          to label %invoke.cont95 unwind label %lpad90, !dbg !4169

invoke.cont95:                                    ; preds = %invoke.cont93
  %call98 = invoke dereferenceable(272) %"class.std::basic_ostream"* @_ZStlsISt11char_traitsIcEERSt13basic_ostreamIcT_ES5_PKc(%"class.std::basic_ostream"* dereferenceable(272) %call94, i8* %call96)
          to label %invoke.cont97 unwind label %lpad90, !dbg !4170

invoke.cont97:                                    ; preds = %invoke.cont95
  %call100 = invoke dereferenceable(272) %"class.std::basic_ostream"* @_ZStlsISt11char_traitsIcEERSt13basic_ostreamIcT_ES5_PKc(%"class.std::basic_ostream"* dereferenceable(272) %call98, i8* getelementptr inbounds ([18 x i8], [18 x i8]* @.str.11, i64 0, i64 0))
          to label %invoke.cont99 unwind label %lpad90, !dbg !4171

invoke.cont99:                                    ; preds = %invoke.cont97
  %call102 = invoke dereferenceable(272) %"class.std::basic_ostream"* @_ZNSolsEPFRSoS_E(%"class.std::basic_ostream"* %call100, %"class.std::basic_ostream"* (%"class.std::basic_ostream"*)* @_ZSt4endlIcSt11char_traitsIcEERSt13basic_ostreamIT_T0_ES6_)
          to label %invoke.cont101 unwind label %lpad90, !dbg !4172

invoke.cont101:                                   ; preds = %invoke.cont99
  store i8 0, i8* %fSuccess, align 1, !dbg !4173
  call void @_ZN11xalanc_1_1011XalanVectorIcNS_31MemoryManagedConstructionTraitsIcEEED2Ev(%"class.xalanc_1_10::XalanVector.0"* %theResult) #3, !dbg !4174
  br label %if.end103, !dbg !4175

lpad80:                                           ; preds = %if.then74
  %54 = landingpad { i8*, i32 }
          cleanup, !dbg !4176
  %55 = extractvalue { i8*, i32 } %54, 0, !dbg !4176
  store i8* %55, i8** %exn.slot, align 8, !dbg !4176
  %56 = extractvalue { i8*, i32 } %54, 1, !dbg !4176
  store i32 %56, i32* %ehselector.slot, align 4, !dbg !4176
  call void @_ZN11xalanc_1_1014XalanDOMStringD2Ev(%"class.xalanc_1_10::XalanDOMString"* %ref.tmp76) #3, !dbg !4154
  br label %eh.resume, !dbg !4154

lpad90:                                           ; preds = %invoke.cont99, %invoke.cont97, %invoke.cont95, %invoke.cont93, %invoke.cont91, %if.then86
  %57 = landingpad { i8*, i32 }
          cleanup, !dbg !4177
  %58 = extractvalue { i8*, i32 } %57, 0, !dbg !4177
  store i8* %58, i8** %exn.slot, align 8, !dbg !4177
  %59 = extractvalue { i8*, i32 } %57, 1, !dbg !4177
  store i32 %59, i32* %ehselector.slot, align 4, !dbg !4177
  call void @_ZN11xalanc_1_1011XalanVectorIcNS_31MemoryManagedConstructionTraitsIcEEED2Ev(%"class.xalanc_1_10::XalanVector.0"* %theResult) #3, !dbg !4174
  br label %eh.resume, !dbg !4174

if.end103:                                        ; preds = %invoke.cont101, %invoke.cont81
  %args104 = getelementptr inbounds %"class.xalanc_1_10::XalanFileUtility", %"class.xalanc_1_10::XalanFileUtility"* %this1, i32 0, i32 1, !dbg !4178
  %gold105 = getelementptr inbounds %"struct.xalanc_1_10::XalanFileUtility::cmdParams", %"struct.xalanc_1_10::XalanFileUtility::cmdParams"* %args104, i32 0, i32 3, !dbg !4179
  %call106 = call dereferenceable(40) %"class.xalanc_1_10::XalanDOMString"* @_ZN11xalanc_1_106appendERNS_14XalanDOMStringEPKtj(%"class.xalanc_1_10::XalanDOMString"* dereferenceable(40) %gold105, i16* getelementptr inbounds ([2 x i16], [2 x i16]* @_ZN11xalanc_1_1016XalanFileUtility9s_pathSepE, i64 0, i64 0), i32 -1), !dbg !4180
  store i8 0, i8* %fsetGold.addr, align 1, !dbg !4181
  br label %if.end111, !dbg !4182

if.else107:                                       ; preds = %land.lhs.true68, %if.then65
  %args108 = getelementptr inbounds %"class.xalanc_1_10::XalanFileUtility", %"class.xalanc_1_10::XalanFileUtility"* %this1, i32 0, i32 1, !dbg !4183
  %call109 = call i8* @_ZN11xalanc_1_1016XalanFileUtility9cmdParams14getHelpMessageEv(%"struct.xalanc_1_10::XalanFileUtility::cmdParams"* %args108), !dbg !4185
  %call110 = call dereferenceable(272) %"class.std::basic_ostream"* @_ZStlsISt11char_traitsIcEERSt13basic_ostreamIcT_ES5_PKc(%"class.std::basic_ostream"* dereferenceable(272) @_ZSt4cout, i8* %call109), !dbg !4186
  store i8 0, i8* %fSuccess, align 1, !dbg !4187
  br label %if.end111

if.end111:                                        ; preds = %if.else107, %if.end103
  br label %if.end220, !dbg !4188

if.else112:                                       ; preds = %if.else60
  %60 = load i8**, i8*** %argv.addr, align 8, !dbg !4189
  %61 = load i32, i32* %i, align 4, !dbg !4191
  %idxprom113 = sext i32 %61 to i64, !dbg !4189
  %arrayidx114 = getelementptr inbounds i8*, i8** %60, i64 %idxprom113, !dbg !4189
  %62 = load i8*, i8** %arrayidx114, align 8, !dbg !4189
  %call115 = call i32 @strcmp(i8* getelementptr inbounds ([8 x i8], [8 x i8]* @.str.12, i64 0, i64 0), i8* %62) #13, !dbg !4192
  %tobool116 = icmp ne i32 %call115, 0, !dbg !4192
  br i1 %tobool116, label %if.else152, label %if.then117, !dbg !4193

if.then117:                                       ; preds = %if.else112
  %63 = load i32, i32* %i, align 4, !dbg !4194
  %inc118 = add nsw i32 %63, 1, !dbg !4194
  store i32 %inc118, i32* %i, align 4, !dbg !4194
  %64 = load i32, i32* %i, align 4, !dbg !4196
  %65 = load i32, i32* %argc.addr, align 4, !dbg !4198
  %cmp119 = icmp slt i32 %64, %65, !dbg !4199
  br i1 %cmp119, label %land.lhs.true120, label %if.else147, !dbg !4200

land.lhs.true120:                                 ; preds = %if.then117
  %66 = load i8**, i8*** %argv.addr, align 8, !dbg !4201
  %67 = load i32, i32* %i, align 4, !dbg !4202
  %idxprom121 = sext i32 %67 to i64, !dbg !4201
  %arrayidx122 = getelementptr inbounds i8*, i8** %66, i64 %idxprom121, !dbg !4201
  %68 = load i8*, i8** %arrayidx122, align 8, !dbg !4201
  %arrayidx123 = getelementptr inbounds i8, i8* %68, i64 0, !dbg !4201
  %69 = load i8, i8* %arrayidx123, align 1, !dbg !4201
  %conv124 = sext i8 %69 to i32, !dbg !4201
  %cmp125 = icmp ne i32 %conv124, 45, !dbg !4203
  br i1 %cmp125, label %if.then126, label %if.else147, !dbg !4204

if.then126:                                       ; preds = %land.lhs.true120
  %70 = load i8**, i8*** %argv.addr, align 8, !dbg !4205
  %71 = load i32, i32* %i, align 4, !dbg !4208
  %idxprom127 = sext i32 %71 to i64, !dbg !4205
  %arrayidx128 = getelementptr inbounds i8*, i8** %70, i64 %idxprom127, !dbg !4205
  %72 = load i8*, i8** %arrayidx128, align 8, !dbg !4205
  %call129 = call i32 @strcmp(i8* %72, i8* getelementptr inbounds ([4 x i8], [4 x i8]* @.str.13, i64 0, i64 0)) #13, !dbg !4209
  %cmp130 = icmp eq i32 %call129, 0, !dbg !4210
  br i1 %cmp130, label %if.then131, label %if.else133, !dbg !4211

if.then131:                                       ; preds = %if.then126
  %args132 = getelementptr inbounds %"class.xalanc_1_10::XalanFileUtility", %"class.xalanc_1_10::XalanFileUtility"* %this1, i32 0, i32 1, !dbg !4212
  %source = getelementptr inbounds %"struct.xalanc_1_10::XalanFileUtility::cmdParams", %"struct.xalanc_1_10::XalanFileUtility::cmdParams"* %args132, i32 0, i32 5, !dbg !4214
  store i32 1, i32* %source, align 8, !dbg !4215
  store i8* getelementptr inbounds ([10 x i8], [10 x i8]* @.str.14, i64 0, i64 0), i8** %outDir.addr, align 8, !dbg !4216
  br label %if.end146, !dbg !4217

if.else133:                                       ; preds = %if.then126
  %73 = load i8**, i8*** %argv.addr, align 8, !dbg !4218
  %74 = load i32, i32* %i, align 4, !dbg !4220
  %idxprom134 = sext i32 %74 to i64, !dbg !4218
  %arrayidx135 = getelementptr inbounds i8*, i8** %73, i64 %idxprom134, !dbg !4218
  %75 = load i8*, i8** %arrayidx135, align 8, !dbg !4218
  %call136 = call i32 @strcmp(i8* %75, i8* getelementptr inbounds ([4 x i8], [4 x i8]* @.str.15, i64 0, i64 0)) #13, !dbg !4221
  %cmp137 = icmp eq i32 %call136, 0, !dbg !4222
  br i1 %cmp137, label %if.then138, label %if.else141, !dbg !4223

if.then138:                                       ; preds = %if.else133
  %args139 = getelementptr inbounds %"class.xalanc_1_10::XalanFileUtility", %"class.xalanc_1_10::XalanFileUtility"* %this1, i32 0, i32 1, !dbg !4224
  %source140 = getelementptr inbounds %"struct.xalanc_1_10::XalanFileUtility::cmdParams", %"struct.xalanc_1_10::XalanFileUtility::cmdParams"* %args139, i32 0, i32 5, !dbg !4226
  store i32 2, i32* %source140, align 8, !dbg !4227
  store i8* getelementptr inbounds ([11 x i8], [11 x i8]* @.str.16, i64 0, i64 0), i8** %outDir.addr, align 8, !dbg !4228
  br label %if.end145, !dbg !4229

if.else141:                                       ; preds = %if.else133
  %args142 = getelementptr inbounds %"class.xalanc_1_10::XalanFileUtility", %"class.xalanc_1_10::XalanFileUtility"* %this1, i32 0, i32 1, !dbg !4230
  %call143 = call i8* @_ZN11xalanc_1_1016XalanFileUtility9cmdParams14getHelpMessageEv(%"struct.xalanc_1_10::XalanFileUtility::cmdParams"* %args142), !dbg !4232
  %call144 = call dereferenceable(272) %"class.std::basic_ostream"* @_ZStlsISt11char_traitsIcEERSt13basic_ostreamIcT_ES5_PKc(%"class.std::basic_ostream"* dereferenceable(272) @_ZSt4cout, i8* %call143), !dbg !4233
  store i8 0, i8* %fSuccess, align 1, !dbg !4234
  br label %if.end145

if.end145:                                        ; preds = %if.else141, %if.then138
  br label %if.end146

if.end146:                                        ; preds = %if.end145, %if.then131
  br label %if.end151, !dbg !4235

if.else147:                                       ; preds = %land.lhs.true120, %if.then117
  %args148 = getelementptr inbounds %"class.xalanc_1_10::XalanFileUtility", %"class.xalanc_1_10::XalanFileUtility"* %this1, i32 0, i32 1, !dbg !4236
  %call149 = call i8* @_ZN11xalanc_1_1016XalanFileUtility9cmdParams14getHelpMessageEv(%"struct.xalanc_1_10::XalanFileUtility::cmdParams"* %args148), !dbg !4238
  %call150 = call dereferenceable(272) %"class.std::basic_ostream"* @_ZStlsISt11char_traitsIcEERSt13basic_ostreamIcT_ES5_PKc(%"class.std::basic_ostream"* dereferenceable(272) @_ZSt4cout, i8* %call149), !dbg !4239
  store i8 0, i8* %fSuccess, align 1, !dbg !4240
  br label %if.end151

if.end151:                                        ; preds = %if.else147, %if.end146
  br label %if.end219, !dbg !4241

if.else152:                                       ; preds = %if.else112
  %76 = load i8**, i8*** %argv.addr, align 8, !dbg !4242
  %77 = load i32, i32* %i, align 4, !dbg !4244
  %idxprom153 = sext i32 %77 to i64, !dbg !4242
  %arrayidx154 = getelementptr inbounds i8*, i8** %76, i64 %idxprom153, !dbg !4242
  %78 = load i8*, i8** %arrayidx154, align 8, !dbg !4242
  %call155 = call i32 @strcmp(i8* getelementptr inbounds ([5 x i8], [5 x i8]* @.str.17, i64 0, i64 0), i8* %78) #13, !dbg !4245
  %tobool156 = icmp ne i32 %call155, 0, !dbg !4245
  br i1 %tobool156, label %if.else180, label %if.then157, !dbg !4246

if.then157:                                       ; preds = %if.else152
  %79 = load i32, i32* %i, align 4, !dbg !4247
  %inc158 = add nsw i32 %79, 1, !dbg !4247
  store i32 %inc158, i32* %i, align 4, !dbg !4247
  %80 = load i32, i32* %i, align 4, !dbg !4249
  %81 = load i32, i32* %argc.addr, align 4, !dbg !4251
  %cmp159 = icmp slt i32 %80, %81, !dbg !4252
  br i1 %cmp159, label %land.lhs.true160, label %if.else175, !dbg !4253

land.lhs.true160:                                 ; preds = %if.then157
  %82 = load i8**, i8*** %argv.addr, align 8, !dbg !4254
  %83 = load i32, i32* %i, align 4, !dbg !4255
  %idxprom161 = sext i32 %83 to i64, !dbg !4254
  %arrayidx162 = getelementptr inbounds i8*, i8** %82, i64 %idxprom161, !dbg !4254
  %84 = load i8*, i8** %arrayidx162, align 8, !dbg !4254
  %arrayidx163 = getelementptr inbounds i8, i8* %84, i64 0, !dbg !4254
  %85 = load i8, i8* %arrayidx163, align 1, !dbg !4254
  %conv164 = sext i8 %85 to i32, !dbg !4254
  %cmp165 = icmp ne i32 %conv164, 45, !dbg !4256
  br i1 %cmp165, label %if.then166, label %if.else175, !dbg !4257

if.then166:                                       ; preds = %land.lhs.true160
  %args167 = getelementptr inbounds %"class.xalanc_1_10::XalanFileUtility", %"class.xalanc_1_10::XalanFileUtility"* %this1, i32 0, i32 1, !dbg !4258
  %sub = getelementptr inbounds %"struct.xalanc_1_10::XalanFileUtility::cmdParams", %"struct.xalanc_1_10::XalanFileUtility::cmdParams"* %args167, i32 0, i32 4, !dbg !4260
  %86 = load i8**, i8*** %argv.addr, align 8, !dbg !4261
  %87 = load i32, i32* %i, align 4, !dbg !4262
  %idxprom169 = sext i32 %87 to i64, !dbg !4261
  %arrayidx170 = getelementptr inbounds i8*, i8** %86, i64 %idxprom169, !dbg !4261
  %88 = load i8*, i8** %arrayidx170, align 8, !dbg !4261
  %m_memoryManager171 = getelementptr inbounds %"class.xalanc_1_10::XalanFileUtility", %"class.xalanc_1_10::XalanFileUtility"* %this1, i32 0, i32 2, !dbg !4263
  %89 = load %"class.xercesc_2_7::MemoryManager"*, %"class.xercesc_2_7::MemoryManager"** %m_memoryManager171, align 8, !dbg !4263
  call void @_ZN11xalanc_1_1014XalanDOMStringC1EPKcRN11xercesc_2_713MemoryManagerEj(%"class.xalanc_1_10::XalanDOMString"* %ref.tmp168, i8* %88, %"class.xercesc_2_7::MemoryManager"* dereferenceable(8) %89, i32 -1), !dbg !4264
  %call174 = invoke dereferenceable(40) %"class.xalanc_1_10::XalanDOMString"* @_ZN11xalanc_1_106assignERNS_14XalanDOMStringERKS0_(%"class.xalanc_1_10::XalanDOMString"* dereferenceable(40) %sub, %"class.xalanc_1_10::XalanDOMString"* dereferenceable(40) %ref.tmp168)
          to label %invoke.cont173 unwind label %lpad172, !dbg !4265

invoke.cont173:                                   ; preds = %if.then166
  call void @_ZN11xalanc_1_1014XalanDOMStringD2Ev(%"class.xalanc_1_10::XalanDOMString"* %ref.tmp168) #3, !dbg !4265
  br label %if.end179, !dbg !4266

lpad172:                                          ; preds = %if.then166
  %90 = landingpad { i8*, i32 }
          cleanup, !dbg !4267
  %91 = extractvalue { i8*, i32 } %90, 0, !dbg !4267
  store i8* %91, i8** %exn.slot, align 8, !dbg !4267
  %92 = extractvalue { i8*, i32 } %90, 1, !dbg !4267
  store i32 %92, i32* %ehselector.slot, align 4, !dbg !4267
  call void @_ZN11xalanc_1_1014XalanDOMStringD2Ev(%"class.xalanc_1_10::XalanDOMString"* %ref.tmp168) #3, !dbg !4265
  br label %eh.resume, !dbg !4265

if.else175:                                       ; preds = %land.lhs.true160, %if.then157
  %args176 = getelementptr inbounds %"class.xalanc_1_10::XalanFileUtility", %"class.xalanc_1_10::XalanFileUtility"* %this1, i32 0, i32 1, !dbg !4268
  %call177 = call i8* @_ZN11xalanc_1_1016XalanFileUtility9cmdParams14getHelpMessageEv(%"struct.xalanc_1_10::XalanFileUtility::cmdParams"* %args176), !dbg !4270
  %call178 = call dereferenceable(272) %"class.std::basic_ostream"* @_ZStlsISt11char_traitsIcEERSt13basic_ostreamIcT_ES5_PKc(%"class.std::basic_ostream"* dereferenceable(272) @_ZSt4cout, i8* %call177), !dbg !4271
  store i8 0, i8* %fSuccess, align 1, !dbg !4272
  br label %if.end179

if.end179:                                        ; preds = %if.else175, %invoke.cont173
  br label %if.end218, !dbg !4273

if.else180:                                       ; preds = %if.else152
  %93 = load i8**, i8*** %argv.addr, align 8, !dbg !4274
  %94 = load i32, i32* %i, align 4, !dbg !4276
  %idxprom181 = sext i32 %94 to i64, !dbg !4274
  %arrayidx182 = getelementptr inbounds i8*, i8** %93, i64 %idxprom181, !dbg !4274
  %95 = load i8*, i8** %arrayidx182, align 8, !dbg !4274
  %call183 = call i32 @strcmp(i8* getelementptr inbounds ([3 x i8], [3 x i8]* @.str.18, i64 0, i64 0), i8* %95) #13, !dbg !4277
  %tobool184 = icmp ne i32 %call183, 0, !dbg !4277
  br i1 %tobool184, label %if.else188, label %if.then185, !dbg !4278

if.then185:                                       ; preds = %if.else180
  %args186 = getelementptr inbounds %"class.xalanc_1_10::XalanFileUtility", %"class.xalanc_1_10::XalanFileUtility"* %this1, i32 0, i32 1, !dbg !4279
  %skip187 = getelementptr inbounds %"struct.xalanc_1_10::XalanFileUtility::cmdParams", %"struct.xalanc_1_10::XalanFileUtility::cmdParams"* %args186, i32 0, i32 6, !dbg !4281
  store i8 0, i8* %skip187, align 4, !dbg !4282
  br label %if.end217, !dbg !4283

if.else188:                                       ; preds = %if.else180
  %96 = load i8**, i8*** %argv.addr, align 8, !dbg !4284
  %97 = load i32, i32* %i, align 4, !dbg !4286
  %idxprom189 = sext i32 %97 to i64, !dbg !4284
  %arrayidx190 = getelementptr inbounds i8*, i8** %96, i64 %idxprom189, !dbg !4284
  %98 = load i8*, i8** %arrayidx190, align 8, !dbg !4284
  %call191 = call i32 @strcmp(i8* getelementptr inbounds ([6 x i8], [6 x i8]* @.str.19, i64 0, i64 0), i8* %98) #13, !dbg !4287
  %tobool192 = icmp ne i32 %call191, 0, !dbg !4287
  br i1 %tobool192, label %if.else212, label %if.then193, !dbg !4288

if.then193:                                       ; preds = %if.else188
  %99 = load i32, i32* %i, align 4, !dbg !4289
  %inc194 = add nsw i32 %99, 1, !dbg !4289
  store i32 %inc194, i32* %i, align 4, !dbg !4289
  %100 = load i32, i32* %i, align 4, !dbg !4291
  %101 = load i32, i32* %argc.addr, align 4, !dbg !4293
  %cmp195 = icmp slt i32 %100, %101, !dbg !4294
  br i1 %cmp195, label %land.lhs.true196, label %if.else207, !dbg !4295

land.lhs.true196:                                 ; preds = %if.then193
  %102 = load i8**, i8*** %argv.addr, align 8, !dbg !4296
  %103 = load i32, i32* %i, align 4, !dbg !4297
  %idxprom197 = sext i32 %103 to i64, !dbg !4296
  %arrayidx198 = getelementptr inbounds i8*, i8** %102, i64 %idxprom197, !dbg !4296
  %104 = load i8*, i8** %arrayidx198, align 8, !dbg !4296
  %call199 = call i64 @atol(i8* %104) #13, !dbg !4298
  %cmp200 = icmp sgt i64 %call199, 0, !dbg !4299
  br i1 %cmp200, label %if.then201, label %if.else207, !dbg !4300

if.then201:                                       ; preds = %land.lhs.true196
  %105 = load i8**, i8*** %argv.addr, align 8, !dbg !4301
  %106 = load i32, i32* %i, align 4, !dbg !4303
  %idxprom202 = sext i32 %106 to i64, !dbg !4301
  %arrayidx203 = getelementptr inbounds i8*, i8** %105, i64 %idxprom202, !dbg !4301
  %107 = load i8*, i8** %arrayidx203, align 8, !dbg !4301
  %call204 = call i64 @atol(i8* %107) #13, !dbg !4304
  %args205 = getelementptr inbounds %"class.xalanc_1_10::XalanFileUtility", %"class.xalanc_1_10::XalanFileUtility"* %this1, i32 0, i32 1, !dbg !4305
  %iters206 = getelementptr inbounds %"struct.xalanc_1_10::XalanFileUtility::cmdParams", %"struct.xalanc_1_10::XalanFileUtility::cmdParams"* %args205, i32 0, i32 7, !dbg !4306
  store i64 %call204, i64* %iters206, align 8, !dbg !4307
  br label %if.end211, !dbg !4308

if.else207:                                       ; preds = %land.lhs.true196, %if.then193
  %args208 = getelementptr inbounds %"class.xalanc_1_10::XalanFileUtility", %"class.xalanc_1_10::XalanFileUtility"* %this1, i32 0, i32 1, !dbg !4309
  %call209 = call i8* @_ZN11xalanc_1_1016XalanFileUtility9cmdParams14getHelpMessageEv(%"struct.xalanc_1_10::XalanFileUtility::cmdParams"* %args208), !dbg !4311
  %call210 = call dereferenceable(272) %"class.std::basic_ostream"* @_ZStlsISt11char_traitsIcEERSt13basic_ostreamIcT_ES5_PKc(%"class.std::basic_ostream"* dereferenceable(272) @_ZSt4cout, i8* %call209), !dbg !4312
  store i8 0, i8* %fSuccess, align 1, !dbg !4313
  br label %if.end211

if.end211:                                        ; preds = %if.else207, %if.then201
  br label %if.end216, !dbg !4314

if.else212:                                       ; preds = %if.else188
  %args213 = getelementptr inbounds %"class.xalanc_1_10::XalanFileUtility", %"class.xalanc_1_10::XalanFileUtility"* %this1, i32 0, i32 1, !dbg !4315
  %call214 = call i8* @_ZN11xalanc_1_1016XalanFileUtility9cmdParams14getHelpMessageEv(%"struct.xalanc_1_10::XalanFileUtility::cmdParams"* %args213), !dbg !4317
  %call215 = call dereferenceable(272) %"class.std::basic_ostream"* @_ZStlsISt11char_traitsIcEERSt13basic_ostreamIcT_ES5_PKc(%"class.std::basic_ostream"* dereferenceable(272) @_ZSt4cout, i8* %call214), !dbg !4318
  store i8 0, i8* %fSuccess, align 1, !dbg !4319
  br label %if.end216

if.end216:                                        ; preds = %if.else212, %if.end211
  br label %if.end217

if.end217:                                        ; preds = %if.end216, %if.then185
  br label %if.end218

if.end218:                                        ; preds = %if.end217, %if.end179
  br label %if.end219

if.end219:                                        ; preds = %if.end218, %if.end151
  br label %if.end220

if.end220:                                        ; preds = %if.end219, %if.end111
  br label %if.end221

if.end221:                                        ; preds = %if.end220, %if.end59
  br label %for.inc, !dbg !4320

for.inc:                                          ; preds = %if.end221
  %108 = load i32, i32* %i, align 4, !dbg !4321
  %inc222 = add nsw i32 %108, 1, !dbg !4321
  store i32 %inc222, i32* %i, align 4, !dbg !4321
  br label %for.cond, !dbg !4322, !llvm.loop !4323

for.end:                                          ; preds = %land.end
  %109 = load i8, i8* %fsetOut, align 1, !dbg !4325
  %tobool223 = trunc i8 %109 to i1, !dbg !4325
  br i1 %tobool223, label %if.then224, label %if.end251, !dbg !4327

if.then224:                                       ; preds = %for.end
  call void @llvm.dbg.declare(metadata i32* %ii, metadata !4328, metadata !DIExpression()), !dbg !4330
  %args225 = getelementptr inbounds %"class.xalanc_1_10::XalanFileUtility", %"class.xalanc_1_10::XalanFileUtility"* %this1, i32 0, i32 1, !dbg !4331
  %base226 = getelementptr inbounds %"struct.xalanc_1_10::XalanFileUtility::cmdParams", %"struct.xalanc_1_10::XalanFileUtility::cmdParams"* %args225, i32 0, i32 1, !dbg !4332
  %110 = load i16, i16* getelementptr inbounds ([2 x i16], [2 x i16]* @_ZN11xalanc_1_1016XalanFileUtility9s_pathSepE, i64 0, i64 0), align 2, !dbg !4333
  %call227 = call i32 @_ZN11xalanc_1_1011lastIndexOfERKNS_14XalanDOMStringEt(%"class.xalanc_1_10::XalanDOMString"* dereferenceable(40) %base226, i16 zeroext %110), !dbg !4334
  store i32 %call227, i32* %ii, align 4, !dbg !4330
  %111 = load i32, i32* %ii, align 4, !dbg !4335
  %args228 = getelementptr inbounds %"class.xalanc_1_10::XalanFileUtility", %"class.xalanc_1_10::XalanFileUtility"* %this1, i32 0, i32 1, !dbg !4337
  %base229 = getelementptr inbounds %"struct.xalanc_1_10::XalanFileUtility::cmdParams", %"struct.xalanc_1_10::XalanFileUtility::cmdParams"* %args228, i32 0, i32 1, !dbg !4338
  %call230 = call i32 @_ZN11xalanc_1_106lengthERKNS_14XalanDOMStringE(%"class.xalanc_1_10::XalanDOMString"* dereferenceable(40) %base229), !dbg !4339
  %cmp231 = icmp ult i32 %111, %call230, !dbg !4340
  br i1 %cmp231, label %if.then232, label %if.end238, !dbg !4341

if.then232:                                       ; preds = %if.then224
  %args233 = getelementptr inbounds %"class.xalanc_1_10::XalanFileUtility", %"class.xalanc_1_10::XalanFileUtility"* %this1, i32 0, i32 1, !dbg !4342
  %output234 = getelementptr inbounds %"struct.xalanc_1_10::XalanFileUtility::cmdParams", %"struct.xalanc_1_10::XalanFileUtility::cmdParams"* %args233, i32 0, i32 2, !dbg !4344
  %args235 = getelementptr inbounds %"class.xalanc_1_10::XalanFileUtility", %"class.xalanc_1_10::XalanFileUtility"* %this1, i32 0, i32 1, !dbg !4345
  %base236 = getelementptr inbounds %"struct.xalanc_1_10::XalanFileUtility::cmdParams", %"struct.xalanc_1_10::XalanFileUtility::cmdParams"* %args235, i32 0, i32 1, !dbg !4346
  %112 = load i32, i32* %ii, align 4, !dbg !4347
  %add = add i32 %112, 1, !dbg !4348
  %call237 = call dereferenceable(40) %"class.xalanc_1_10::XalanDOMString"* @_ZN11xalanc_1_1014XalanDOMString6assignERKS0_jj(%"class.xalanc_1_10::XalanDOMString"* %output234, %"class.xalanc_1_10::XalanDOMString"* dereferenceable(40) %base236, i32 0, i32 %add), !dbg !4349
  br label %if.end238, !dbg !4350

if.end238:                                        ; preds = %if.then232, %if.then224
  %args239 = getelementptr inbounds %"class.xalanc_1_10::XalanFileUtility", %"class.xalanc_1_10::XalanFileUtility"* %this1, i32 0, i32 1, !dbg !4351
  %output240 = getelementptr inbounds %"struct.xalanc_1_10::XalanFileUtility::cmdParams", %"struct.xalanc_1_10::XalanFileUtility::cmdParams"* %args239, i32 0, i32 2, !dbg !4352
  %113 = load i8*, i8** %outDir.addr, align 8, !dbg !4353
  %m_memoryManager242 = getelementptr inbounds %"class.xalanc_1_10::XalanFileUtility", %"class.xalanc_1_10::XalanFileUtility"* %this1, i32 0, i32 2, !dbg !4354
  %114 = load %"class.xercesc_2_7::MemoryManager"*, %"class.xercesc_2_7::MemoryManager"** %m_memoryManager242, align 8, !dbg !4354
  call void @_ZN11xalanc_1_1014XalanDOMStringC1EPKcRN11xercesc_2_713MemoryManagerEj(%"class.xalanc_1_10::XalanDOMString"* %ref.tmp241, i8* %113, %"class.xercesc_2_7::MemoryManager"* dereferenceable(8) %114, i32 -1), !dbg !4355
  %call245 = invoke dereferenceable(40) %"class.xalanc_1_10::XalanDOMString"* @_ZN11xalanc_1_106appendERNS_14XalanDOMStringERKS0_(%"class.xalanc_1_10::XalanDOMString"* dereferenceable(40) %output240, %"class.xalanc_1_10::XalanDOMString"* dereferenceable(40) %ref.tmp241)
          to label %invoke.cont244 unwind label %lpad243, !dbg !4356

invoke.cont244:                                   ; preds = %if.end238
  call void @_ZN11xalanc_1_1014XalanDOMStringD2Ev(%"class.xalanc_1_10::XalanDOMString"* %ref.tmp241) #3, !dbg !4356
  %args246 = getelementptr inbounds %"class.xalanc_1_10::XalanFileUtility", %"class.xalanc_1_10::XalanFileUtility"* %this1, i32 0, i32 1, !dbg !4357
  %output247 = getelementptr inbounds %"struct.xalanc_1_10::XalanFileUtility::cmdParams", %"struct.xalanc_1_10::XalanFileUtility::cmdParams"* %args246, i32 0, i32 2, !dbg !4358
  call void @_ZN11xalanc_1_1016XalanFileUtility17checkAndCreateDirERKNS_14XalanDOMStringE(%"class.xalanc_1_10::XalanFileUtility"* %this1, %"class.xalanc_1_10::XalanDOMString"* dereferenceable(40) %output247), !dbg !4359
  %args248 = getelementptr inbounds %"class.xalanc_1_10::XalanFileUtility", %"class.xalanc_1_10::XalanFileUtility"* %this1, i32 0, i32 1, !dbg !4360
  %output249 = getelementptr inbounds %"struct.xalanc_1_10::XalanFileUtility::cmdParams", %"struct.xalanc_1_10::XalanFileUtility::cmdParams"* %args248, i32 0, i32 2, !dbg !4361
  %call250 = call dereferenceable(40) %"class.xalanc_1_10::XalanDOMString"* @_ZN11xalanc_1_106appendERNS_14XalanDOMStringEPKtj(%"class.xalanc_1_10::XalanDOMString"* dereferenceable(40) %output249, i16* getelementptr inbounds ([2 x i16], [2 x i16]* @_ZN11xalanc_1_1016XalanFileUtility9s_pathSepE, i64 0, i64 0), i32 -1), !dbg !4362
  br label %if.end251, !dbg !4363

lpad243:                                          ; preds = %if.end238
  %115 = landingpad { i8*, i32 }
          cleanup, !dbg !4364
  %116 = extractvalue { i8*, i32 } %115, 0, !dbg !4364
  store i8* %116, i8** %exn.slot, align 8, !dbg !4364
  %117 = extractvalue { i8*, i32 } %115, 1, !dbg !4364
  store i32 %117, i32* %ehselector.slot, align 4, !dbg !4364
  call void @_ZN11xalanc_1_1014XalanDOMStringD2Ev(%"class.xalanc_1_10::XalanDOMString"* %ref.tmp241) #3, !dbg !4356
  br label %eh.resume, !dbg !4356

if.end251:                                        ; preds = %invoke.cont244, %for.end
  %118 = load i8, i8* %fsetGold.addr, align 1, !dbg !4365
  %tobool252 = trunc i8 %118 to i1, !dbg !4365
  br i1 %tobool252, label %if.then253, label %if.end291, !dbg !4367

if.then253:                                       ; preds = %if.end251
  %args254 = getelementptr inbounds %"class.xalanc_1_10::XalanFileUtility", %"class.xalanc_1_10::XalanFileUtility"* %this1, i32 0, i32 1, !dbg !4368
  %base255 = getelementptr inbounds %"struct.xalanc_1_10::XalanFileUtility::cmdParams", %"struct.xalanc_1_10::XalanFileUtility::cmdParams"* %args254, i32 0, i32 1, !dbg !4370
  %args256 = getelementptr inbounds %"class.xalanc_1_10::XalanFileUtility", %"class.xalanc_1_10::XalanFileUtility"* %this1, i32 0, i32 1, !dbg !4371
  %gold257 = getelementptr inbounds %"struct.xalanc_1_10::XalanFileUtility::cmdParams", %"struct.xalanc_1_10::XalanFileUtility::cmdParams"* %args256, i32 0, i32 3, !dbg !4372
  %call258 = call dereferenceable(40) %"class.xalanc_1_10::XalanDOMString"* @_ZN11xalanc_1_1014XalanDOMStringaSERKS0_(%"class.xalanc_1_10::XalanDOMString"* %gold257, %"class.xalanc_1_10::XalanDOMString"* dereferenceable(40) %base255), !dbg !4373
  %args259 = getelementptr inbounds %"class.xalanc_1_10::XalanFileUtility", %"class.xalanc_1_10::XalanFileUtility"* %this1, i32 0, i32 1, !dbg !4374
  %gold260 = getelementptr inbounds %"struct.xalanc_1_10::XalanFileUtility::cmdParams", %"struct.xalanc_1_10::XalanFileUtility::cmdParams"* %args259, i32 0, i32 3, !dbg !4375
  %m_memoryManager262 = getelementptr inbounds %"class.xalanc_1_10::XalanFileUtility", %"class.xalanc_1_10::XalanFileUtility"* %this1, i32 0, i32 2, !dbg !4376
  %119 = load %"class.xercesc_2_7::MemoryManager"*, %"class.xercesc_2_7::MemoryManager"** %m_memoryManager262, align 8, !dbg !4376
  call void @_ZN11xalanc_1_1014XalanDOMStringC1EPKcRN11xercesc_2_713MemoryManagerEj(%"class.xalanc_1_10::XalanDOMString"* %ref.tmp261, i8* getelementptr inbounds ([6 x i8], [6 x i8]* @.str.9, i64 0, i64 0), %"class.xercesc_2_7::MemoryManager"* dereferenceable(8) %119, i32 -1), !dbg !4377
  %call265 = invoke dereferenceable(40) %"class.xalanc_1_10::XalanDOMString"* @_ZN11xalanc_1_106appendERNS_14XalanDOMStringERKS0_(%"class.xalanc_1_10::XalanDOMString"* dereferenceable(40) %gold260, %"class.xalanc_1_10::XalanDOMString"* dereferenceable(40) %ref.tmp261)
          to label %invoke.cont264 unwind label %lpad263, !dbg !4378

invoke.cont264:                                   ; preds = %if.then253
  call void @_ZN11xalanc_1_1014XalanDOMStringD2Ev(%"class.xalanc_1_10::XalanDOMString"* %ref.tmp261) #3, !dbg !4378
  %args266 = getelementptr inbounds %"class.xalanc_1_10::XalanFileUtility", %"class.xalanc_1_10::XalanFileUtility"* %this1, i32 0, i32 1, !dbg !4379
  %gold267 = getelementptr inbounds %"struct.xalanc_1_10::XalanFileUtility::cmdParams", %"struct.xalanc_1_10::XalanFileUtility::cmdParams"* %args266, i32 0, i32 3, !dbg !4381
  %call268 = call zeroext i1 @_ZN11xalanc_1_1016XalanFileUtility8checkDirERKNS_14XalanDOMStringE(%"class.xalanc_1_10::XalanFileUtility"* %this1, %"class.xalanc_1_10::XalanDOMString"* dereferenceable(40) %gold267), !dbg !4382
  br i1 %call268, label %if.end287, label %if.then269, !dbg !4383

if.then269:                                       ; preds = %invoke.cont264
  call void @llvm.dbg.declare(metadata %"class.xalanc_1_10::XalanVector.0"* %theResult270, metadata !4384, metadata !DIExpression()), !dbg !4386
  %m_memoryManager271 = getelementptr inbounds %"class.xalanc_1_10::XalanFileUtility", %"class.xalanc_1_10::XalanFileUtility"* %this1, i32 0, i32 2, !dbg !4387
  %120 = load %"class.xercesc_2_7::MemoryManager"*, %"class.xercesc_2_7::MemoryManager"** %m_memoryManager271, align 8, !dbg !4387
  call void @_ZN11xalanc_1_1011XalanVectorIcNS_31MemoryManagedConstructionTraitsIcEEEC2ERN11xercesc_2_713MemoryManagerEm(%"class.xalanc_1_10::XalanVector.0"* %theResult270, %"class.xercesc_2_7::MemoryManager"* dereferenceable(8) %120, i64 0), !dbg !4386
  %args272 = getelementptr inbounds %"class.xalanc_1_10::XalanFileUtility", %"class.xalanc_1_10::XalanFileUtility"* %this1, i32 0, i32 1, !dbg !4388
  %gold273 = getelementptr inbounds %"struct.xalanc_1_10::XalanFileUtility::cmdParams", %"struct.xalanc_1_10::XalanFileUtility::cmdParams"* %args272, i32 0, i32 3, !dbg !4389
  %call276 = invoke zeroext i1 @_ZN11xalanc_1_1024TranscodeToLocalCodePageERKNS_14XalanDOMStringERNS_11XalanVectorIcNS_31MemoryManagedConstructionTraitsIcEEEEb(%"class.xalanc_1_10::XalanDOMString"* dereferenceable(40) %gold273, %"class.xalanc_1_10::XalanVector.0"* dereferenceable(32) %theResult270, i1 zeroext true)
          to label %invoke.cont275 unwind label %lpad274, !dbg !4390

invoke.cont275:                                   ; preds = %if.then269
  %call278 = invoke dereferenceable(272) %"class.std::basic_ostream"* @_ZStlsISt11char_traitsIcEERSt13basic_ostreamIcT_ES5_PKc(%"class.std::basic_ostream"* dereferenceable(272) @_ZSt4cout, i8* getelementptr inbounds ([20 x i8], [20 x i8]* @.str.20, i64 0, i64 0))
          to label %invoke.cont277 unwind label %lpad274, !dbg !4391

invoke.cont277:                                   ; preds = %invoke.cont275
  %call280 = invoke i8* @_ZN11xalanc_1_105c_strERKNS_11XalanVectorIcNS_31MemoryManagedConstructionTraitsIcEEEE(%"class.xalanc_1_10::XalanVector.0"* dereferenceable(32) %theResult270)
          to label %invoke.cont279 unwind label %lpad274, !dbg !4392

invoke.cont279:                                   ; preds = %invoke.cont277
  %call282 = invoke dereferenceable(272) %"class.std::basic_ostream"* @_ZStlsISt11char_traitsIcEERSt13basic_ostreamIcT_ES5_PKc(%"class.std::basic_ostream"* dereferenceable(272) %call278, i8* %call280)
          to label %invoke.cont281 unwind label %lpad274, !dbg !4393

invoke.cont281:                                   ; preds = %invoke.cont279
  %call284 = invoke dereferenceable(272) %"class.std::basic_ostream"* @_ZStlsISt11char_traitsIcEERSt13basic_ostreamIcT_ES5_PKc(%"class.std::basic_ostream"* dereferenceable(272) %call282, i8* getelementptr inbounds ([18 x i8], [18 x i8]* @.str.11, i64 0, i64 0))
          to label %invoke.cont283 unwind label %lpad274, !dbg !4394

invoke.cont283:                                   ; preds = %invoke.cont281
  %call286 = invoke dereferenceable(272) %"class.std::basic_ostream"* @_ZNSolsEPFRSoS_E(%"class.std::basic_ostream"* %call284, %"class.std::basic_ostream"* (%"class.std::basic_ostream"*)* @_ZSt4endlIcSt11char_traitsIcEERSt13basic_ostreamIT_T0_ES6_)
          to label %invoke.cont285 unwind label %lpad274, !dbg !4395

invoke.cont285:                                   ; preds = %invoke.cont283
  store i8 0, i8* %fSuccess, align 1, !dbg !4396
  call void @_ZN11xalanc_1_1011XalanVectorIcNS_31MemoryManagedConstructionTraitsIcEEED2Ev(%"class.xalanc_1_10::XalanVector.0"* %theResult270) #3, !dbg !4397
  br label %if.end287, !dbg !4398

lpad263:                                          ; preds = %if.then253
  %121 = landingpad { i8*, i32 }
          cleanup, !dbg !4399
  %122 = extractvalue { i8*, i32 } %121, 0, !dbg !4399
  store i8* %122, i8** %exn.slot, align 8, !dbg !4399
  %123 = extractvalue { i8*, i32 } %121, 1, !dbg !4399
  store i32 %123, i32* %ehselector.slot, align 4, !dbg !4399
  call void @_ZN11xalanc_1_1014XalanDOMStringD2Ev(%"class.xalanc_1_10::XalanDOMString"* %ref.tmp261) #3, !dbg !4378
  br label %eh.resume, !dbg !4378

lpad274:                                          ; preds = %invoke.cont283, %invoke.cont281, %invoke.cont279, %invoke.cont277, %invoke.cont275, %if.then269
  %124 = landingpad { i8*, i32 }
          cleanup, !dbg !4400
  %125 = extractvalue { i8*, i32 } %124, 0, !dbg !4400
  store i8* %125, i8** %exn.slot, align 8, !dbg !4400
  %126 = extractvalue { i8*, i32 } %124, 1, !dbg !4400
  store i32 %126, i32* %ehselector.slot, align 4, !dbg !4400
  call void @_ZN11xalanc_1_1011XalanVectorIcNS_31MemoryManagedConstructionTraitsIcEEED2Ev(%"class.xalanc_1_10::XalanVector.0"* %theResult270) #3, !dbg !4397
  br label %eh.resume, !dbg !4397

if.end287:                                        ; preds = %invoke.cont285, %invoke.cont264
  %args288 = getelementptr inbounds %"class.xalanc_1_10::XalanFileUtility", %"class.xalanc_1_10::XalanFileUtility"* %this1, i32 0, i32 1, !dbg !4401
  %gold289 = getelementptr inbounds %"struct.xalanc_1_10::XalanFileUtility::cmdParams", %"struct.xalanc_1_10::XalanFileUtility::cmdParams"* %args288, i32 0, i32 3, !dbg !4402
  %call290 = call dereferenceable(40) %"class.xalanc_1_10::XalanDOMString"* @_ZN11xalanc_1_106appendERNS_14XalanDOMStringEPKtj(%"class.xalanc_1_10::XalanDOMString"* dereferenceable(40) %gold289, i16* getelementptr inbounds ([2 x i16], [2 x i16]* @_ZN11xalanc_1_1016XalanFileUtility9s_pathSepE, i64 0, i64 0), i32 -1), !dbg !4403
  br label %if.end291, !dbg !4404

if.end291:                                        ; preds = %if.end287, %if.end251
  %args292 = getelementptr inbounds %"class.xalanc_1_10::XalanFileUtility", %"class.xalanc_1_10::XalanFileUtility"* %this1, i32 0, i32 1, !dbg !4405
  %base293 = getelementptr inbounds %"struct.xalanc_1_10::XalanFileUtility::cmdParams", %"struct.xalanc_1_10::XalanFileUtility::cmdParams"* %args292, i32 0, i32 1, !dbg !4406
  %call294 = call dereferenceable(40) %"class.xalanc_1_10::XalanDOMString"* @_ZN11xalanc_1_106appendERNS_14XalanDOMStringEPKtj(%"class.xalanc_1_10::XalanDOMString"* dereferenceable(40) %base293, i16* getelementptr inbounds ([2 x i16], [2 x i16]* @_ZN11xalanc_1_1016XalanFileUtility9s_pathSepE, i64 0, i64 0), i32 -1), !dbg !4407
  %127 = load i8, i8* %fSuccess, align 1, !dbg !4408
  %tobool295 = trunc i8 %127 to i1, !dbg !4408
  store i1 %tobool295, i1* %retval, align 1, !dbg !4409
  br label %return, !dbg !4409

return:                                           ; preds = %if.end291, %if.else17, %if.then
  %128 = load i1, i1* %retval, align 1, !dbg !4410
  ret i1 %128, !dbg !4410

eh.resume:                                        ; preds = %lpad274, %lpad263, %lpad243, %lpad172, %lpad90, %lpad80, %lpad47, %lpad14, %lpad
  %exn = load i8*, i8** %exn.slot, align 8, !dbg !4055
  %sel = load i32, i32* %ehselector.slot, align 4, !dbg !4055
  %lpad.val = insertvalue { i8*, i32 } undef, i8* %exn, 0, !dbg !4055
  %lpad.val296 = insertvalue { i8*, i32 } %lpad.val, i32 %sel, 1, !dbg !4055
  resume { i8*, i32 } %lpad.val296, !dbg !4055
}

; Function Attrs: noinline uwtable
define dso_local zeroext i1 @_ZN11xalanc_1_1016XalanFileUtility8checkDirERKNS_14XalanDOMStringE(%"class.xalanc_1_10::XalanFileUtility"* %this, %"class.xalanc_1_10::XalanDOMString"* dereferenceable(40) %directory) #0 align 2 personality i8* bitcast (i32 (...)* @__gxx_personality_v0 to i8*) !dbg !4411 {
entry:
  %this.addr = alloca %"class.xalanc_1_10::XalanFileUtility"*, align 8
  %directory.addr = alloca %"class.xalanc_1_10::XalanDOMString"*, align 8
  %buffer = alloca [4096 x i8], align 16
  %fResult = alloca i8, align 1
  %theResult = alloca %"class.xalanc_1_10::XalanVector.0", align 8
  %exn.slot = alloca i8*
  %ehselector.slot = alloca i32
  store %"class.xalanc_1_10::XalanFileUtility"* %this, %"class.xalanc_1_10::XalanFileUtility"** %this.addr, align 8
  call void @llvm.dbg.declare(metadata %"class.xalanc_1_10::XalanFileUtility"** %this.addr, metadata !4412, metadata !DIExpression()), !dbg !4413
  store %"class.xalanc_1_10::XalanDOMString"* %directory, %"class.xalanc_1_10::XalanDOMString"** %directory.addr, align 8
  call void @llvm.dbg.declare(metadata %"class.xalanc_1_10::XalanDOMString"** %directory.addr, metadata !4414, metadata !DIExpression()), !dbg !4415
  %this1 = load %"class.xalanc_1_10::XalanFileUtility"*, %"class.xalanc_1_10::XalanFileUtility"** %this.addr, align 8
  call void @llvm.dbg.declare(metadata [4096 x i8]* %buffer, metadata !4416, metadata !DIExpression()), !dbg !4420
  %arraydecay = getelementptr inbounds [4096 x i8], [4096 x i8]* %buffer, i64 0, i64 0, !dbg !4421
  %call = call i8* @getcwd(i8* %arraydecay, i64 4096) #3, !dbg !4422
  call void @llvm.dbg.declare(metadata i8* %fResult, metadata !4423, metadata !DIExpression()), !dbg !4424
  store i8 0, i8* %fResult, align 1, !dbg !4424
  call void @llvm.dbg.declare(metadata %"class.xalanc_1_10::XalanVector.0"* %theResult, metadata !4425, metadata !DIExpression()), !dbg !4426
  %m_memoryManager = getelementptr inbounds %"class.xalanc_1_10::XalanFileUtility", %"class.xalanc_1_10::XalanFileUtility"* %this1, i32 0, i32 2, !dbg !4427
  %0 = load %"class.xercesc_2_7::MemoryManager"*, %"class.xercesc_2_7::MemoryManager"** %m_memoryManager, align 8, !dbg !4427
  call void @_ZN11xalanc_1_1011XalanVectorIcNS_31MemoryManagedConstructionTraitsIcEEEC2ERN11xercesc_2_713MemoryManagerEm(%"class.xalanc_1_10::XalanVector.0"* %theResult, %"class.xercesc_2_7::MemoryManager"* dereferenceable(8) %0, i64 0), !dbg !4426
  %1 = load %"class.xalanc_1_10::XalanDOMString"*, %"class.xalanc_1_10::XalanDOMString"** %directory.addr, align 8, !dbg !4428
  %call2 = invoke zeroext i1 @_ZN11xalanc_1_1024TranscodeToLocalCodePageERKNS_14XalanDOMStringERNS_11XalanVectorIcNS_31MemoryManagedConstructionTraitsIcEEEEb(%"class.xalanc_1_10::XalanDOMString"* dereferenceable(40) %1, %"class.xalanc_1_10::XalanVector.0"* dereferenceable(32) %theResult, i1 zeroext true)
          to label %invoke.cont unwind label %lpad, !dbg !4429

invoke.cont:                                      ; preds = %entry
  %call4 = invoke i8* @_ZN11xalanc_1_105c_strERKNS_11XalanVectorIcNS_31MemoryManagedConstructionTraitsIcEEEE(%"class.xalanc_1_10::XalanVector.0"* dereferenceable(32) %theResult)
          to label %invoke.cont3 unwind label %lpad, !dbg !4430

invoke.cont3:                                     ; preds = %invoke.cont
  %call5 = call i32 @chdir(i8* %call4) #3, !dbg !4432
  %tobool = icmp ne i32 %call5, 0, !dbg !4432
  br i1 %tobool, label %if.end, label %if.then, !dbg !4433

if.then:                                          ; preds = %invoke.cont3
  store i8 1, i8* %fResult, align 1, !dbg !4434
  br label %if.end, !dbg !4436

lpad:                                             ; preds = %invoke.cont, %entry
  %2 = landingpad { i8*, i32 }
          cleanup, !dbg !4437
  %3 = extractvalue { i8*, i32 } %2, 0, !dbg !4437
  store i8* %3, i8** %exn.slot, align 8, !dbg !4437
  %4 = extractvalue { i8*, i32 } %2, 1, !dbg !4437
  store i32 %4, i32* %ehselector.slot, align 4, !dbg !4437
  call void @_ZN11xalanc_1_1011XalanVectorIcNS_31MemoryManagedConstructionTraitsIcEEED2Ev(%"class.xalanc_1_10::XalanVector.0"* %theResult) #3, !dbg !4437
  br label %eh.resume, !dbg !4437

if.end:                                           ; preds = %if.then, %invoke.cont3
  %arraydecay6 = getelementptr inbounds [4096 x i8], [4096 x i8]* %buffer, i64 0, i64 0, !dbg !4438
  %call7 = call i32 @chdir(i8* %arraydecay6) #3, !dbg !4439
  %5 = load i8, i8* %fResult, align 1, !dbg !4440
  %tobool8 = trunc i8 %5 to i1, !dbg !4440
  call void @_ZN11xalanc_1_1011XalanVectorIcNS_31MemoryManagedConstructionTraitsIcEEED2Ev(%"class.xalanc_1_10::XalanVector.0"* %theResult) #3, !dbg !4437
  ret i1 %tobool8, !dbg !4437

eh.resume:                                        ; preds = %lpad
  %exn = load i8*, i8** %exn.slot, align 8, !dbg !4437
  %sel = load i32, i32* %ehselector.slot, align 4, !dbg !4437
  %lpad.val = insertvalue { i8*, i32 } undef, i8* %exn, 0, !dbg !4437
  %lpad.val9 = insertvalue { i8*, i32 } %lpad.val, i32 %sel, 1, !dbg !4437
  resume { i8*, i32 } %lpad.val9, !dbg !4437
}

declare dso_local void @_ZN11xalanc_1_1014XalanDOMStringC1EPKcRN11xercesc_2_713MemoryManagerEj(%"class.xalanc_1_10::XalanDOMString"*, i8*, %"class.xercesc_2_7::MemoryManager"* dereferenceable(8), i32) unnamed_addr #1

; Function Attrs: noinline uwtable
define linkonce_odr dso_local dereferenceable(40) %"class.xalanc_1_10::XalanDOMString"* @_ZN11xalanc_1_106assignERNS_14XalanDOMStringERKS0_(%"class.xalanc_1_10::XalanDOMString"* dereferenceable(40) %theString, %"class.xalanc_1_10::XalanDOMString"* dereferenceable(40) %theStringToAssign) #0 comdat !dbg !4441 {
entry:
  %theString.addr = alloca %"class.xalanc_1_10::XalanDOMString"*, align 8
  %theStringToAssign.addr = alloca %"class.xalanc_1_10::XalanDOMString"*, align 8
  store %"class.xalanc_1_10::XalanDOMString"* %theString, %"class.xalanc_1_10::XalanDOMString"** %theString.addr, align 8
  call void @llvm.dbg.declare(metadata %"class.xalanc_1_10::XalanDOMString"** %theString.addr, metadata !4444, metadata !DIExpression()), !dbg !4445
  store %"class.xalanc_1_10::XalanDOMString"* %theStringToAssign, %"class.xalanc_1_10::XalanDOMString"** %theStringToAssign.addr, align 8
  call void @llvm.dbg.declare(metadata %"class.xalanc_1_10::XalanDOMString"** %theStringToAssign.addr, metadata !4446, metadata !DIExpression()), !dbg !4447
  %0 = load %"class.xalanc_1_10::XalanDOMString"*, %"class.xalanc_1_10::XalanDOMString"** %theStringToAssign.addr, align 8, !dbg !4448
  %1 = load %"class.xalanc_1_10::XalanDOMString"*, %"class.xalanc_1_10::XalanDOMString"** %theString.addr, align 8, !dbg !4449
  %call = call dereferenceable(40) %"class.xalanc_1_10::XalanDOMString"* @_ZN11xalanc_1_1014XalanDOMStringaSERKS0_(%"class.xalanc_1_10::XalanDOMString"* %1, %"class.xalanc_1_10::XalanDOMString"* dereferenceable(40) %0), !dbg !4450
  %2 = load %"class.xalanc_1_10::XalanDOMString"*, %"class.xalanc_1_10::XalanDOMString"** %theString.addr, align 8, !dbg !4451
  ret %"class.xalanc_1_10::XalanDOMString"* %2, !dbg !4452
}

; Function Attrs: nounwind readonly
declare dso_local i32 @strcmp(i8*, i8*) #7

; Function Attrs: noinline uwtable
define linkonce_odr dso_local dereferenceable(40) %"class.xalanc_1_10::XalanDOMString"* @_ZN11xalanc_1_106appendERNS_14XalanDOMStringEPKtj(%"class.xalanc_1_10::XalanDOMString"* dereferenceable(40) %theString, i16* %theStringToAppend, i32 %theStringToAppendLength) #0 comdat !dbg !4453 {
entry:
  %theString.addr = alloca %"class.xalanc_1_10::XalanDOMString"*, align 8
  %theStringToAppend.addr = alloca i16*, align 8
  %theStringToAppendLength.addr = alloca i32, align 4
  store %"class.xalanc_1_10::XalanDOMString"* %theString, %"class.xalanc_1_10::XalanDOMString"** %theString.addr, align 8
  call void @llvm.dbg.declare(metadata %"class.xalanc_1_10::XalanDOMString"** %theString.addr, metadata !4456, metadata !DIExpression()), !dbg !4457
  store i16* %theStringToAppend, i16** %theStringToAppend.addr, align 8
  call void @llvm.dbg.declare(metadata i16** %theStringToAppend.addr, metadata !4458, metadata !DIExpression()), !dbg !4459
  store i32 %theStringToAppendLength, i32* %theStringToAppendLength.addr, align 4
  call void @llvm.dbg.declare(metadata i32* %theStringToAppendLength.addr, metadata !4460, metadata !DIExpression()), !dbg !4461
  %0 = load i32, i32* %theStringToAppendLength.addr, align 4, !dbg !4462
  %cmp = icmp eq i32 %0, -1, !dbg !4464
  br i1 %cmp, label %if.then, label %if.else, !dbg !4465

if.then:                                          ; preds = %entry
  %1 = load %"class.xalanc_1_10::XalanDOMString"*, %"class.xalanc_1_10::XalanDOMString"** %theString.addr, align 8, !dbg !4466
  %2 = load i16*, i16** %theStringToAppend.addr, align 8, !dbg !4468
  %call = call dereferenceable(40) %"class.xalanc_1_10::XalanDOMString"* @_ZN11xalanc_1_1014XalanDOMString6appendEPKt(%"class.xalanc_1_10::XalanDOMString"* %1, i16* %2), !dbg !4469
  br label %if.end, !dbg !4470

if.else:                                          ; preds = %entry
  %3 = load %"class.xalanc_1_10::XalanDOMString"*, %"class.xalanc_1_10::XalanDOMString"** %theString.addr, align 8, !dbg !4471
  %4 = load i16*, i16** %theStringToAppend.addr, align 8, !dbg !4473
  %5 = load i32, i32* %theStringToAppendLength.addr, align 4, !dbg !4474
  %call1 = call dereferenceable(40) %"class.xalanc_1_10::XalanDOMString"* @_ZN11xalanc_1_1014XalanDOMString6appendEPKtj(%"class.xalanc_1_10::XalanDOMString"* %3, i16* %4, i32 %5), !dbg !4475
  br label %if.end

if.end:                                           ; preds = %if.else, %if.then
  %6 = load %"class.xalanc_1_10::XalanDOMString"*, %"class.xalanc_1_10::XalanDOMString"** %theString.addr, align 8, !dbg !4476
  ret %"class.xalanc_1_10::XalanDOMString"* %6, !dbg !4477
}

; Function Attrs: noinline uwtable
define dso_local void @_ZN11xalanc_1_1016XalanFileUtility17checkAndCreateDirERKNS_14XalanDOMStringE(%"class.xalanc_1_10::XalanFileUtility"* %this, %"class.xalanc_1_10::XalanDOMString"* dereferenceable(40) %directory) #0 align 2 personality i8* bitcast (i32 (...)* @__gxx_personality_v0 to i8*) !dbg !4478 {
entry:
  %this.addr = alloca %"class.xalanc_1_10::XalanFileUtility"*, align 8
  %directory.addr = alloca %"class.xalanc_1_10::XalanDOMString"*, align 8
  %buffer = alloca [4096 x i8], align 16
  %theResult = alloca %"class.xalanc_1_10::XalanVector.0", align 8
  %exn.slot = alloca i8*
  %ehselector.slot = alloca i32
  %theResult1 = alloca %"class.xalanc_1_10::XalanVector.0", align 8
  store %"class.xalanc_1_10::XalanFileUtility"* %this, %"class.xalanc_1_10::XalanFileUtility"** %this.addr, align 8
  call void @llvm.dbg.declare(metadata %"class.xalanc_1_10::XalanFileUtility"** %this.addr, metadata !4479, metadata !DIExpression()), !dbg !4480
  store %"class.xalanc_1_10::XalanDOMString"* %directory, %"class.xalanc_1_10::XalanDOMString"** %directory.addr, align 8
  call void @llvm.dbg.declare(metadata %"class.xalanc_1_10::XalanDOMString"** %directory.addr, metadata !4481, metadata !DIExpression()), !dbg !4482
  %this1 = load %"class.xalanc_1_10::XalanFileUtility"*, %"class.xalanc_1_10::XalanFileUtility"** %this.addr, align 8
  call void @llvm.dbg.declare(metadata [4096 x i8]* %buffer, metadata !4483, metadata !DIExpression()), !dbg !4484
  %arraydecay = getelementptr inbounds [4096 x i8], [4096 x i8]* %buffer, i64 0, i64 0, !dbg !4485
  %call = call i8* @getcwd(i8* %arraydecay, i64 4096) #3, !dbg !4486
  call void @llvm.dbg.declare(metadata %"class.xalanc_1_10::XalanVector.0"* %theResult, metadata !4487, metadata !DIExpression()), !dbg !4488
  %m_memoryManager = getelementptr inbounds %"class.xalanc_1_10::XalanFileUtility", %"class.xalanc_1_10::XalanFileUtility"* %this1, i32 0, i32 2, !dbg !4489
  %0 = load %"class.xercesc_2_7::MemoryManager"*, %"class.xercesc_2_7::MemoryManager"** %m_memoryManager, align 8, !dbg !4489
  call void @_ZN11xalanc_1_1011XalanVectorIcNS_31MemoryManagedConstructionTraitsIcEEEC2ERN11xercesc_2_713MemoryManagerEm(%"class.xalanc_1_10::XalanVector.0"* %theResult, %"class.xercesc_2_7::MemoryManager"* dereferenceable(8) %0, i64 0), !dbg !4488
  %1 = load %"class.xalanc_1_10::XalanDOMString"*, %"class.xalanc_1_10::XalanDOMString"** %directory.addr, align 8, !dbg !4490
  %call2 = invoke zeroext i1 @_ZN11xalanc_1_1024TranscodeToLocalCodePageERKNS_14XalanDOMStringERNS_11XalanVectorIcNS_31MemoryManagedConstructionTraitsIcEEEEb(%"class.xalanc_1_10::XalanDOMString"* dereferenceable(40) %1, %"class.xalanc_1_10::XalanVector.0"* dereferenceable(32) %theResult, i1 zeroext true)
          to label %invoke.cont unwind label %lpad, !dbg !4491

invoke.cont:                                      ; preds = %entry
  %call4 = invoke i8* @_ZN11xalanc_1_105c_strERKNS_11XalanVectorIcNS_31MemoryManagedConstructionTraitsIcEEEE(%"class.xalanc_1_10::XalanVector.0"* dereferenceable(32) %theResult)
          to label %invoke.cont3 unwind label %lpad, !dbg !4492

invoke.cont3:                                     ; preds = %invoke.cont
  %call5 = call i32 @chdir(i8* %call4) #3, !dbg !4494
  %tobool = icmp ne i32 %call5, 0, !dbg !4495
  br i1 %tobool, label %if.then, label %if.end28, !dbg !4496

if.then:                                          ; preds = %invoke.cont3
  call void @llvm.dbg.declare(metadata %"class.xalanc_1_10::XalanVector.0"* %theResult1, metadata !4497, metadata !DIExpression()), !dbg !4499
  %m_memoryManager6 = getelementptr inbounds %"class.xalanc_1_10::XalanFileUtility", %"class.xalanc_1_10::XalanFileUtility"* %this1, i32 0, i32 2, !dbg !4500
  %2 = load %"class.xercesc_2_7::MemoryManager"*, %"class.xercesc_2_7::MemoryManager"** %m_memoryManager6, align 8, !dbg !4500
  invoke void @_ZN11xalanc_1_1011XalanVectorIcNS_31MemoryManagedConstructionTraitsIcEEEC2ERN11xercesc_2_713MemoryManagerEm(%"class.xalanc_1_10::XalanVector.0"* %theResult1, %"class.xercesc_2_7::MemoryManager"* dereferenceable(8) %2, i64 0)
          to label %invoke.cont7 unwind label %lpad, !dbg !4499

invoke.cont7:                                     ; preds = %if.then
  %3 = load %"class.xalanc_1_10::XalanDOMString"*, %"class.xalanc_1_10::XalanDOMString"** %directory.addr, align 8, !dbg !4501
  %call10 = invoke zeroext i1 @_ZN11xalanc_1_1024TranscodeToLocalCodePageERKNS_14XalanDOMStringERNS_11XalanVectorIcNS_31MemoryManagedConstructionTraitsIcEEEEb(%"class.xalanc_1_10::XalanDOMString"* dereferenceable(40) %3, %"class.xalanc_1_10::XalanVector.0"* dereferenceable(32) %theResult1, i1 zeroext true)
          to label %invoke.cont9 unwind label %lpad8, !dbg !4502

invoke.cont9:                                     ; preds = %invoke.cont7
  %call12 = invoke i8* @_ZN11xalanc_1_105c_strERKNS_11XalanVectorIcNS_31MemoryManagedConstructionTraitsIcEEEE(%"class.xalanc_1_10::XalanVector.0"* dereferenceable(32) %theResult)
          to label %invoke.cont11 unwind label %lpad8, !dbg !4503

invoke.cont11:                                    ; preds = %invoke.cont9
  %call13 = call i32 @mkdir(i8* %call12, i32 509) #3, !dbg !4505
  %tobool14 = icmp ne i32 %call13, 0, !dbg !4505
  br i1 %tobool14, label %if.else, label %if.then15, !dbg !4506

if.then15:                                        ; preds = %invoke.cont11
  %call17 = invoke dereferenceable(272) %"class.std::basic_ostream"* @_ZN11xalanc_1_10lsERSoRKNS_11XalanVectorIcNS_31MemoryManagedConstructionTraitsIcEEEE(%"class.std::basic_ostream"* dereferenceable(272) @_ZSt4cout, %"class.xalanc_1_10::XalanVector.0"* dereferenceable(32) %theResult1)
          to label %invoke.cont16 unwind label %lpad8, !dbg !4507

invoke.cont16:                                    ; preds = %if.then15
  %call19 = invoke dereferenceable(272) %"class.std::basic_ostream"* @_ZStlsISt11char_traitsIcEERSt13basic_ostreamIcT_ES5_PKc(%"class.std::basic_ostream"* dereferenceable(272) %call17, i8* getelementptr inbounds ([10 x i8], [10 x i8]* @.str.23, i64 0, i64 0))
          to label %invoke.cont18 unwind label %lpad8, !dbg !4509

invoke.cont18:                                    ; preds = %invoke.cont16
  %call21 = invoke dereferenceable(272) %"class.std::basic_ostream"* @_ZNSolsEPFRSoS_E(%"class.std::basic_ostream"* %call19, %"class.std::basic_ostream"* (%"class.std::basic_ostream"*)* @_ZSt4endlIcSt11char_traitsIcEERSt13basic_ostreamIT_T0_ES6_)
          to label %invoke.cont20 unwind label %lpad8, !dbg !4510

invoke.cont20:                                    ; preds = %invoke.cont18
  br label %if.end, !dbg !4511

lpad:                                             ; preds = %if.then, %invoke.cont, %entry
  %4 = landingpad { i8*, i32 }
          cleanup, !dbg !4512
  %5 = extractvalue { i8*, i32 } %4, 0, !dbg !4512
  store i8* %5, i8** %exn.slot, align 8, !dbg !4512
  %6 = extractvalue { i8*, i32 } %4, 1, !dbg !4512
  store i32 %6, i32* %ehselector.slot, align 4, !dbg !4512
  br label %ehcleanup, !dbg !4512

lpad8:                                            ; preds = %invoke.cont24, %invoke.cont22, %if.else, %invoke.cont18, %invoke.cont16, %if.then15, %invoke.cont9, %invoke.cont7
  %7 = landingpad { i8*, i32 }
          cleanup, !dbg !4513
  %8 = extractvalue { i8*, i32 } %7, 0, !dbg !4513
  store i8* %8, i8** %exn.slot, align 8, !dbg !4513
  %9 = extractvalue { i8*, i32 } %7, 1, !dbg !4513
  store i32 %9, i32* %ehselector.slot, align 4, !dbg !4513
  call void @_ZN11xalanc_1_1011XalanVectorIcNS_31MemoryManagedConstructionTraitsIcEEED2Ev(%"class.xalanc_1_10::XalanVector.0"* %theResult1) #3, !dbg !4514
  br label %ehcleanup, !dbg !4514

if.else:                                          ; preds = %invoke.cont11
  %call23 = invoke dereferenceable(272) %"class.std::basic_ostream"* @_ZN11xalanc_1_10lsERSoRKNS_11XalanVectorIcNS_31MemoryManagedConstructionTraitsIcEEEE(%"class.std::basic_ostream"* dereferenceable(272) @_ZSt4cout, %"class.xalanc_1_10::XalanVector.0"* dereferenceable(32) %theResult1)
          to label %invoke.cont22 unwind label %lpad8, !dbg !4515

invoke.cont22:                                    ; preds = %if.else
  %call25 = invoke dereferenceable(272) %"class.std::basic_ostream"* @_ZStlsISt11char_traitsIcEERSt13basic_ostreamIcT_ES5_PKc(%"class.std::basic_ostream"* dereferenceable(272) %call23, i8* getelementptr inbounds ([14 x i8], [14 x i8]* @.str.24, i64 0, i64 0))
          to label %invoke.cont24 unwind label %lpad8, !dbg !4517

invoke.cont24:                                    ; preds = %invoke.cont22
  %call27 = invoke dereferenceable(272) %"class.std::basic_ostream"* @_ZNSolsEPFRSoS_E(%"class.std::basic_ostream"* %call25, %"class.std::basic_ostream"* (%"class.std::basic_ostream"*)* @_ZSt4endlIcSt11char_traitsIcEERSt13basic_ostreamIT_T0_ES6_)
          to label %invoke.cont26 unwind label %lpad8, !dbg !4518

invoke.cont26:                                    ; preds = %invoke.cont24
  br label %if.end

if.end:                                           ; preds = %invoke.cont26, %invoke.cont20
  call void @_ZN11xalanc_1_1011XalanVectorIcNS_31MemoryManagedConstructionTraitsIcEEED2Ev(%"class.xalanc_1_10::XalanVector.0"* %theResult1) #3, !dbg !4514
  br label %if.end28, !dbg !4519

if.end28:                                         ; preds = %if.end, %invoke.cont3
  %arraydecay29 = getelementptr inbounds [4096 x i8], [4096 x i8]* %buffer, i64 0, i64 0, !dbg !4520
  %call30 = call i32 @chdir(i8* %arraydecay29) #3, !dbg !4521
  call void @_ZN11xalanc_1_1011XalanVectorIcNS_31MemoryManagedConstructionTraitsIcEEED2Ev(%"class.xalanc_1_10::XalanVector.0"* %theResult) #3, !dbg !4512
  ret void, !dbg !4512

ehcleanup:                                        ; preds = %lpad8, %lpad
  call void @_ZN11xalanc_1_1011XalanVectorIcNS_31MemoryManagedConstructionTraitsIcEEED2Ev(%"class.xalanc_1_10::XalanVector.0"* %theResult) #3, !dbg !4512
  br label %eh.resume, !dbg !4512

eh.resume:                                        ; preds = %ehcleanup
  %exn = load i8*, i8** %exn.slot, align 8, !dbg !4512
  %sel = load i32, i32* %ehselector.slot, align 4, !dbg !4512
  %lpad.val = insertvalue { i8*, i32 } undef, i8* %exn, 0, !dbg !4512
  %lpad.val31 = insertvalue { i8*, i32 } %lpad.val, i32 %sel, 1, !dbg !4512
  resume { i8*, i32 } %lpad.val31, !dbg !4512
}

; Function Attrs: noinline uwtable
define linkonce_odr dso_local void @_ZN11xalanc_1_1011XalanVectorIcNS_31MemoryManagedConstructionTraitsIcEEEC2ERN11xercesc_2_713MemoryManagerEm(%"class.xalanc_1_10::XalanVector.0"* %this, %"class.xercesc_2_7::MemoryManager"* dereferenceable(8) %theManager, i64 %initialAllocation) unnamed_addr #0 comdat align 2 !dbg !4522 {
entry:
  %this.addr = alloca %"class.xalanc_1_10::XalanVector.0"*, align 8
  %theManager.addr = alloca %"class.xercesc_2_7::MemoryManager"*, align 8
  %initialAllocation.addr = alloca i64, align 8
  store %"class.xalanc_1_10::XalanVector.0"* %this, %"class.xalanc_1_10::XalanVector.0"** %this.addr, align 8
  call void @llvm.dbg.declare(metadata %"class.xalanc_1_10::XalanVector.0"** %this.addr, metadata !4523, metadata !DIExpression()), !dbg !4524
  store %"class.xercesc_2_7::MemoryManager"* %theManager, %"class.xercesc_2_7::MemoryManager"** %theManager.addr, align 8
  call void @llvm.dbg.declare(metadata %"class.xercesc_2_7::MemoryManager"** %theManager.addr, metadata !4525, metadata !DIExpression()), !dbg !4526
  store i64 %initialAllocation, i64* %initialAllocation.addr, align 8
  call void @llvm.dbg.declare(metadata i64* %initialAllocation.addr, metadata !4527, metadata !DIExpression()), !dbg !4528
  %this1 = load %"class.xalanc_1_10::XalanVector.0"*, %"class.xalanc_1_10::XalanVector.0"** %this.addr, align 8
  %m_memoryManager = getelementptr inbounds %"class.xalanc_1_10::XalanVector.0", %"class.xalanc_1_10::XalanVector.0"* %this1, i32 0, i32 0, !dbg !4529
  %0 = load %"class.xercesc_2_7::MemoryManager"*, %"class.xercesc_2_7::MemoryManager"** %theManager.addr, align 8, !dbg !4530
  store %"class.xercesc_2_7::MemoryManager"* %0, %"class.xercesc_2_7::MemoryManager"** %m_memoryManager, align 8, !dbg !4529
  %m_size = getelementptr inbounds %"class.xalanc_1_10::XalanVector.0", %"class.xalanc_1_10::XalanVector.0"* %this1, i32 0, i32 1, !dbg !4531
  store i64 0, i64* %m_size, align 8, !dbg !4531
  %m_allocation = getelementptr inbounds %"class.xalanc_1_10::XalanVector.0", %"class.xalanc_1_10::XalanVector.0"* %this1, i32 0, i32 2, !dbg !4532
  %1 = load i64, i64* %initialAllocation.addr, align 8, !dbg !4533
  store i64 %1, i64* %m_allocation, align 8, !dbg !4532
  %m_data = getelementptr inbounds %"class.xalanc_1_10::XalanVector.0", %"class.xalanc_1_10::XalanVector.0"* %this1, i32 0, i32 3, !dbg !4534
  %2 = load i64, i64* %initialAllocation.addr, align 8, !dbg !4535
  %cmp = icmp ugt i64 %2, 0, !dbg !4536
  br i1 %cmp, label %cond.true, label %cond.false, !dbg !4535

cond.true:                                        ; preds = %entry
  %3 = load i64, i64* %initialAllocation.addr, align 8, !dbg !4537
  %call = call i8* @_ZN11xalanc_1_1011XalanVectorIcNS_31MemoryManagedConstructionTraitsIcEEE8allocateEm(%"class.xalanc_1_10::XalanVector.0"* %this1, i64 %3), !dbg !4538
  br label %cond.end, !dbg !4535

cond.false:                                       ; preds = %entry
  br label %cond.end, !dbg !4535

cond.end:                                         ; preds = %cond.false, %cond.true
  %cond = phi i8* [ %call, %cond.true ], [ null, %cond.false ], !dbg !4535
  store i8* %cond, i8** %m_data, align 8, !dbg !4534
  call void @_ZNK11xalanc_1_1011XalanVectorIcNS_31MemoryManagedConstructionTraitsIcEEE10invariantsEv(%"class.xalanc_1_10::XalanVector.0"* %this1), !dbg !4539
  ret void, !dbg !4541
}

; Function Attrs: noinline uwtable
define linkonce_odr dso_local zeroext i1 @_ZN11xalanc_1_1024TranscodeToLocalCodePageERKNS_14XalanDOMStringERNS_11XalanVectorIcNS_31MemoryManagedConstructionTraitsIcEEEEb(%"class.xalanc_1_10::XalanDOMString"* dereferenceable(40) %theSourceString, %"class.xalanc_1_10::XalanVector.0"* dereferenceable(32) %targetVector, i1 zeroext %terminate) #0 comdat !dbg !4542 {
entry:
  %theSourceString.addr = alloca %"class.xalanc_1_10::XalanDOMString"*, align 8
  %targetVector.addr = alloca %"class.xalanc_1_10::XalanVector.0"*, align 8
  %terminate.addr = alloca i8, align 1
  store %"class.xalanc_1_10::XalanDOMString"* %theSourceString, %"class.xalanc_1_10::XalanDOMString"** %theSourceString.addr, align 8
  call void @llvm.dbg.declare(metadata %"class.xalanc_1_10::XalanDOMString"** %theSourceString.addr, metadata !4546, metadata !DIExpression()), !dbg !4547
  store %"class.xalanc_1_10::XalanVector.0"* %targetVector, %"class.xalanc_1_10::XalanVector.0"** %targetVector.addr, align 8
  call void @llvm.dbg.declare(metadata %"class.xalanc_1_10::XalanVector.0"** %targetVector.addr, metadata !4548, metadata !DIExpression()), !dbg !4549
  %frombool = zext i1 %terminate to i8
  store i8 %frombool, i8* %terminate.addr, align 1
  call void @llvm.dbg.declare(metadata i8* %terminate.addr, metadata !4550, metadata !DIExpression()), !dbg !4551
  %0 = load %"class.xalanc_1_10::XalanDOMString"*, %"class.xalanc_1_10::XalanDOMString"** %theSourceString.addr, align 8, !dbg !4552
  %call = call i16* @_ZNK11xalanc_1_1014XalanDOMString5c_strEv(%"class.xalanc_1_10::XalanDOMString"* %0), !dbg !4553
  %1 = load %"class.xalanc_1_10::XalanVector.0"*, %"class.xalanc_1_10::XalanVector.0"** %targetVector.addr, align 8, !dbg !4554
  %2 = load i8, i8* %terminate.addr, align 1, !dbg !4555
  %tobool = trunc i8 %2 to i1, !dbg !4555
  %call1 = call zeroext i1 @_ZN11xalanc_1_1024TranscodeToLocalCodePageEPKtRNS_11XalanVectorIcNS_31MemoryManagedConstructionTraitsIcEEEEb(i16* %call, %"class.xalanc_1_10::XalanVector.0"* dereferenceable(32) %1, i1 zeroext %tobool), !dbg !4556
  ret i1 %call1, !dbg !4557
}

; Function Attrs: noinline uwtable
define linkonce_odr dso_local i8* @_ZN11xalanc_1_105c_strERKNS_11XalanVectorIcNS_31MemoryManagedConstructionTraitsIcEEEE(%"class.xalanc_1_10::XalanVector.0"* dereferenceable(32) %theString) #0 comdat !dbg !4558 {
entry:
  %retval = alloca i8*, align 8
  %theString.addr = alloca %"class.xalanc_1_10::XalanVector.0"*, align 8
  %ptr = alloca i8*, align 8
  store %"class.xalanc_1_10::XalanVector.0"* %theString, %"class.xalanc_1_10::XalanVector.0"** %theString.addr, align 8
  call void @llvm.dbg.declare(metadata %"class.xalanc_1_10::XalanVector.0"** %theString.addr, metadata !4563, metadata !DIExpression()), !dbg !4564
  %0 = load %"class.xalanc_1_10::XalanVector.0"*, %"class.xalanc_1_10::XalanVector.0"** %theString.addr, align 8, !dbg !4565
  %call = call zeroext i1 @_ZNK11xalanc_1_1011XalanVectorIcNS_31MemoryManagedConstructionTraitsIcEEE5emptyEv(%"class.xalanc_1_10::XalanVector.0"* %0), !dbg !4567
  %conv = zext i1 %call to i32, !dbg !4565
  %cmp = icmp eq i32 %conv, 1, !dbg !4568
  br i1 %cmp, label %if.then, label %if.else, !dbg !4569

if.then:                                          ; preds = %entry
  store i8* null, i8** %retval, align 8, !dbg !4570
  br label %return, !dbg !4570

if.else:                                          ; preds = %entry
  call void @llvm.dbg.declare(metadata i8** %ptr, metadata !4572, metadata !DIExpression()), !dbg !4574
  %1 = load %"class.xalanc_1_10::XalanVector.0"*, %"class.xalanc_1_10::XalanVector.0"** %theString.addr, align 8, !dbg !4575
  %call1 = call dereferenceable(1) i8* @_ZNK11xalanc_1_1011XalanVectorIcNS_31MemoryManagedConstructionTraitsIcEEEixEm(%"class.xalanc_1_10::XalanVector.0"* %1, i64 0), !dbg !4575
  store i8* %call1, i8** %ptr, align 8, !dbg !4574
  %2 = load i8*, i8** %ptr, align 8, !dbg !4576
  store i8* %2, i8** %retval, align 8, !dbg !4577
  br label %return, !dbg !4577

return:                                           ; preds = %if.else, %if.then
  %3 = load i8*, i8** %retval, align 8, !dbg !4578
  ret i8* %3, !dbg !4578
}

; Function Attrs: noinline nounwind uwtable
define linkonce_odr dso_local void @_ZN11xalanc_1_1011XalanVectorIcNS_31MemoryManagedConstructionTraitsIcEEED2Ev(%"class.xalanc_1_10::XalanVector.0"* %this) unnamed_addr #5 comdat align 2 personality i8* bitcast (i32 (...)* @__gxx_personality_v0 to i8*) !dbg !4579 {
entry:
  %this.addr = alloca %"class.xalanc_1_10::XalanVector.0"*, align 8
  store %"class.xalanc_1_10::XalanVector.0"* %this, %"class.xalanc_1_10::XalanVector.0"** %this.addr, align 8
  call void @llvm.dbg.declare(metadata %"class.xalanc_1_10::XalanVector.0"** %this.addr, metadata !4580, metadata !DIExpression()), !dbg !4581
  %this1 = load %"class.xalanc_1_10::XalanVector.0"*, %"class.xalanc_1_10::XalanVector.0"** %this.addr, align 8
  invoke void @_ZNK11xalanc_1_1011XalanVectorIcNS_31MemoryManagedConstructionTraitsIcEEE10invariantsEv(%"class.xalanc_1_10::XalanVector.0"* %this1)
          to label %invoke.cont unwind label %terminate.lpad, !dbg !4582

invoke.cont:                                      ; preds = %entry
  %m_allocation = getelementptr inbounds %"class.xalanc_1_10::XalanVector.0", %"class.xalanc_1_10::XalanVector.0"* %this1, i32 0, i32 2, !dbg !4584
  %0 = load i64, i64* %m_allocation, align 8, !dbg !4584
  %cmp = icmp ne i64 %0, 0, !dbg !4586
  br i1 %cmp, label %if.then, label %if.end, !dbg !4587

if.then:                                          ; preds = %invoke.cont
  %call = invoke i8* @_ZN11xalanc_1_1011XalanVectorIcNS_31MemoryManagedConstructionTraitsIcEEE5beginEv(%"class.xalanc_1_10::XalanVector.0"* %this1)
          to label %invoke.cont2 unwind label %terminate.lpad, !dbg !4588

invoke.cont2:                                     ; preds = %if.then
  %call4 = invoke i8* @_ZN11xalanc_1_1011XalanVectorIcNS_31MemoryManagedConstructionTraitsIcEEE3endEv(%"class.xalanc_1_10::XalanVector.0"* %this1)
          to label %invoke.cont3 unwind label %terminate.lpad, !dbg !4590

invoke.cont3:                                     ; preds = %invoke.cont2
  invoke void @_ZN11xalanc_1_1011XalanVectorIcNS_31MemoryManagedConstructionTraitsIcEEE7destroyEPcS4_(i8* %call, i8* %call4)
          to label %invoke.cont5 unwind label %terminate.lpad, !dbg !4591

invoke.cont5:                                     ; preds = %invoke.cont3
  %m_data = getelementptr inbounds %"class.xalanc_1_10::XalanVector.0", %"class.xalanc_1_10::XalanVector.0"* %this1, i32 0, i32 3, !dbg !4592
  %1 = load i8*, i8** %m_data, align 8, !dbg !4592
  invoke void @_ZN11xalanc_1_1011XalanVectorIcNS_31MemoryManagedConstructionTraitsIcEEE10deallocateEPc(%"class.xalanc_1_10::XalanVector.0"* %this1, i8* %1)
          to label %invoke.cont6 unwind label %terminate.lpad, !dbg !4593

invoke.cont6:                                     ; preds = %invoke.cont5
  br label %if.end, !dbg !4594

if.end:                                           ; preds = %invoke.cont6, %invoke.cont
  ret void, !dbg !4595

terminate.lpad:                                   ; preds = %invoke.cont5, %invoke.cont3, %invoke.cont2, %if.then, %entry
  %2 = landingpad { i8*, i32 }
          catch i8* null, !dbg !4582
  %3 = extractvalue { i8*, i32 } %2, 0, !dbg !4582
  call void @__clang_call_terminate(i8* %3) #14, !dbg !4582
  unreachable, !dbg !4582
}

; Function Attrs: nounwind readonly
declare dso_local i64 @atol(i8*) #7

; Function Attrs: noinline uwtable
define linkonce_odr dso_local i32 @_ZN11xalanc_1_1011lastIndexOfERKNS_14XalanDOMStringEt(%"class.xalanc_1_10::XalanDOMString"* dereferenceable(40) %theString, i16 zeroext %theChar) #0 comdat !dbg !4596 {
entry:
  %theString.addr = alloca %"class.xalanc_1_10::XalanDOMString"*, align 8
  %theChar.addr = alloca i16, align 2
  store %"class.xalanc_1_10::XalanDOMString"* %theString, %"class.xalanc_1_10::XalanDOMString"** %theString.addr, align 8
  call void @llvm.dbg.declare(metadata %"class.xalanc_1_10::XalanDOMString"** %theString.addr, metadata !4599, metadata !DIExpression()), !dbg !4600
  store i16 %theChar, i16* %theChar.addr, align 2
  call void @llvm.dbg.declare(metadata i16* %theChar.addr, metadata !4601, metadata !DIExpression()), !dbg !4602
  %0 = load %"class.xalanc_1_10::XalanDOMString"*, %"class.xalanc_1_10::XalanDOMString"** %theString.addr, align 8, !dbg !4603
  %call = call i16* @_ZN11xalanc_1_106c_wstrERKNS_14XalanDOMStringE(%"class.xalanc_1_10::XalanDOMString"* dereferenceable(40) %0), !dbg !4604
  %1 = load i16, i16* %theChar.addr, align 2, !dbg !4605
  %call1 = call i32 @_ZN11xalanc_1_1011lastIndexOfEPKtt(i16* %call, i16 zeroext %1), !dbg !4606
  ret i32 %call1, !dbg !4607
}

; Function Attrs: noinline uwtable
define linkonce_odr dso_local i32 @_ZN11xalanc_1_106lengthERKNS_14XalanDOMStringE(%"class.xalanc_1_10::XalanDOMString"* dereferenceable(40) %theString) #0 comdat !dbg !4608 {
entry:
  %theString.addr = alloca %"class.xalanc_1_10::XalanDOMString"*, align 8
  store %"class.xalanc_1_10::XalanDOMString"* %theString, %"class.xalanc_1_10::XalanDOMString"** %theString.addr, align 8
  call void @llvm.dbg.declare(metadata %"class.xalanc_1_10::XalanDOMString"** %theString.addr, metadata !4611, metadata !DIExpression()), !dbg !4612
  %0 = load %"class.xalanc_1_10::XalanDOMString"*, %"class.xalanc_1_10::XalanDOMString"** %theString.addr, align 8, !dbg !4613
  %call = call i32 @_ZNK11xalanc_1_1014XalanDOMString6lengthEv(%"class.xalanc_1_10::XalanDOMString"* %0), !dbg !4614
  ret i32 %call, !dbg !4615
}

declare dso_local dereferenceable(40) %"class.xalanc_1_10::XalanDOMString"* @_ZN11xalanc_1_1014XalanDOMString6assignERKS0_jj(%"class.xalanc_1_10::XalanDOMString"*, %"class.xalanc_1_10::XalanDOMString"* dereferenceable(40), i32, i32) #1

; Function Attrs: noinline uwtable
define linkonce_odr dso_local dereferenceable(40) %"class.xalanc_1_10::XalanDOMString"* @_ZN11xalanc_1_106appendERNS_14XalanDOMStringERKS0_(%"class.xalanc_1_10::XalanDOMString"* dereferenceable(40) %theString, %"class.xalanc_1_10::XalanDOMString"* dereferenceable(40) %theStringToAppend) #0 comdat !dbg !4616 {
entry:
  %theString.addr = alloca %"class.xalanc_1_10::XalanDOMString"*, align 8
  %theStringToAppend.addr = alloca %"class.xalanc_1_10::XalanDOMString"*, align 8
  store %"class.xalanc_1_10::XalanDOMString"* %theString, %"class.xalanc_1_10::XalanDOMString"** %theString.addr, align 8
  call void @llvm.dbg.declare(metadata %"class.xalanc_1_10::XalanDOMString"** %theString.addr, metadata !4617, metadata !DIExpression()), !dbg !4618
  store %"class.xalanc_1_10::XalanDOMString"* %theStringToAppend, %"class.xalanc_1_10::XalanDOMString"** %theStringToAppend.addr, align 8
  call void @llvm.dbg.declare(metadata %"class.xalanc_1_10::XalanDOMString"** %theStringToAppend.addr, metadata !4619, metadata !DIExpression()), !dbg !4620
  %0 = load %"class.xalanc_1_10::XalanDOMString"*, %"class.xalanc_1_10::XalanDOMString"** %theString.addr, align 8, !dbg !4621
  %1 = load %"class.xalanc_1_10::XalanDOMString"*, %"class.xalanc_1_10::XalanDOMString"** %theStringToAppend.addr, align 8, !dbg !4622
  %call = call dereferenceable(40) %"class.xalanc_1_10::XalanDOMString"* @_ZN11xalanc_1_1014XalanDOMString6appendERKS0_(%"class.xalanc_1_10::XalanDOMString"* %0, %"class.xalanc_1_10::XalanDOMString"* dereferenceable(40) %1), !dbg !4623
  %2 = load %"class.xalanc_1_10::XalanDOMString"*, %"class.xalanc_1_10::XalanDOMString"** %theString.addr, align 8, !dbg !4624
  ret %"class.xalanc_1_10::XalanDOMString"* %2, !dbg !4625
}

; Function Attrs: noinline uwtable
define linkonce_odr dso_local dereferenceable(40) %"class.xalanc_1_10::XalanDOMString"* @_ZN11xalanc_1_1014XalanDOMStringaSERKS0_(%"class.xalanc_1_10::XalanDOMString"* %this, %"class.xalanc_1_10::XalanDOMString"* dereferenceable(40) %theRHS) #0 comdat align 2 !dbg !4626 {
entry:
  %this.addr = alloca %"class.xalanc_1_10::XalanDOMString"*, align 8
  %theRHS.addr = alloca %"class.xalanc_1_10::XalanDOMString"*, align 8
  store %"class.xalanc_1_10::XalanDOMString"* %this, %"class.xalanc_1_10::XalanDOMString"** %this.addr, align 8
  call void @llvm.dbg.declare(metadata %"class.xalanc_1_10::XalanDOMString"** %this.addr, metadata !4627, metadata !DIExpression()), !dbg !4628
  store %"class.xalanc_1_10::XalanDOMString"* %theRHS, %"class.xalanc_1_10::XalanDOMString"** %theRHS.addr, align 8
  call void @llvm.dbg.declare(metadata %"class.xalanc_1_10::XalanDOMString"** %theRHS.addr, metadata !4629, metadata !DIExpression()), !dbg !4630
  %this1 = load %"class.xalanc_1_10::XalanDOMString"*, %"class.xalanc_1_10::XalanDOMString"** %this.addr, align 8
  %0 = load %"class.xalanc_1_10::XalanDOMString"*, %"class.xalanc_1_10::XalanDOMString"** %theRHS.addr, align 8, !dbg !4631
  %call = call dereferenceable(40) %"class.xalanc_1_10::XalanDOMString"* @_ZN11xalanc_1_1014XalanDOMString6assignERKS0_(%"class.xalanc_1_10::XalanDOMString"* %this1, %"class.xalanc_1_10::XalanDOMString"* dereferenceable(40) %0), !dbg !4632
  ret %"class.xalanc_1_10::XalanDOMString"* %call, !dbg !4633
}

; Function Attrs: noinline uwtable
define dso_local dereferenceable(32) %"class.xalanc_1_10::XalanVector.1"* @_ZN11xalanc_1_1016XalanFileUtility16getTestFileNamesERKNS_14XalanDOMStringES3_bRNS_11XalanVectorIS1_NS_31MemoryManagedConstructionTraitsIS1_EEEE(%"class.xalanc_1_10::XalanFileUtility"* %this, %"class.xalanc_1_10::XalanDOMString"* dereferenceable(40) %baseDir, %"class.xalanc_1_10::XalanDOMString"* dereferenceable(40) %relDir, i1 zeroext %useDirPrefix, %"class.xalanc_1_10::XalanVector.1"* dereferenceable(32) %theFiles) #0 align 2 personality i8* bitcast (i32 (...)* @__gxx_personality_v0 to i8*) !dbg !4634 {
entry:
  %this.addr = alloca %"class.xalanc_1_10::XalanFileUtility"*, align 8
  %baseDir.addr = alloca %"class.xalanc_1_10::XalanDOMString"*, align 8
  %relDir.addr = alloca %"class.xalanc_1_10::XalanDOMString"*, align 8
  %useDirPrefix.addr = alloca i8, align 1
  %theFiles.addr = alloca %"class.xalanc_1_10::XalanVector.1"*, align 8
  %buffer3 = alloca [4096 x i8], align 16
  %searchSuffix = alloca %"class.xalanc_1_10::XalanDOMString", align 8
  %searchSpecification = alloca %"class.xalanc_1_10::XalanDOMString", align 8
  %exn.slot = alloca i8*
  %ehselector.slot = alloca i32
  %theEnumerator = alloca %"struct.xalanc_1_10::DirectoryEnumeratorFunctor", align 8
  store %"class.xalanc_1_10::XalanFileUtility"* %this, %"class.xalanc_1_10::XalanFileUtility"** %this.addr, align 8
  call void @llvm.dbg.declare(metadata %"class.xalanc_1_10::XalanFileUtility"** %this.addr, metadata !4635, metadata !DIExpression()), !dbg !4636
  store %"class.xalanc_1_10::XalanDOMString"* %baseDir, %"class.xalanc_1_10::XalanDOMString"** %baseDir.addr, align 8
  call void @llvm.dbg.declare(metadata %"class.xalanc_1_10::XalanDOMString"** %baseDir.addr, metadata !4637, metadata !DIExpression()), !dbg !4638
  store %"class.xalanc_1_10::XalanDOMString"* %relDir, %"class.xalanc_1_10::XalanDOMString"** %relDir.addr, align 8
  call void @llvm.dbg.declare(metadata %"class.xalanc_1_10::XalanDOMString"** %relDir.addr, metadata !4639, metadata !DIExpression()), !dbg !4640
  %frombool = zext i1 %useDirPrefix to i8
  store i8 %frombool, i8* %useDirPrefix.addr, align 1
  call void @llvm.dbg.declare(metadata i8* %useDirPrefix.addr, metadata !4641, metadata !DIExpression()), !dbg !4642
  store %"class.xalanc_1_10::XalanVector.1"* %theFiles, %"class.xalanc_1_10::XalanVector.1"** %theFiles.addr, align 8
  call void @llvm.dbg.declare(metadata %"class.xalanc_1_10::XalanVector.1"** %theFiles.addr, metadata !4643, metadata !DIExpression()), !dbg !4644
  %this1 = load %"class.xalanc_1_10::XalanFileUtility"*, %"class.xalanc_1_10::XalanFileUtility"** %this.addr, align 8
  call void @llvm.dbg.declare(metadata [4096 x i8]* %buffer3, metadata !4645, metadata !DIExpression()), !dbg !4646
  %arraydecay = getelementptr inbounds [4096 x i8], [4096 x i8]* %buffer3, i64 0, i64 0, !dbg !4647
  %call = call i8* @getcwd(i8* %arraydecay, i64 4096) #3, !dbg !4648
  call void @llvm.dbg.declare(metadata %"class.xalanc_1_10::XalanDOMString"* %searchSuffix, metadata !4649, metadata !DIExpression()), !dbg !4650
  %m_memoryManager = getelementptr inbounds %"class.xalanc_1_10::XalanFileUtility", %"class.xalanc_1_10::XalanFileUtility"* %this1, i32 0, i32 2, !dbg !4651
  %0 = load %"class.xercesc_2_7::MemoryManager"*, %"class.xercesc_2_7::MemoryManager"** %m_memoryManager, align 8, !dbg !4651
  call void @_ZN11xalanc_1_1014XalanDOMStringC1EPKcRN11xercesc_2_713MemoryManagerEj(%"class.xalanc_1_10::XalanDOMString"* %searchSuffix, i8* getelementptr inbounds ([6 x i8], [6 x i8]* @.str.21, i64 0, i64 0), %"class.xercesc_2_7::MemoryManager"* dereferenceable(8) %0, i32 -1), !dbg !4650
  call void @llvm.dbg.declare(metadata %"class.xalanc_1_10::XalanDOMString"* %searchSpecification, metadata !4652, metadata !DIExpression()), !dbg !4653
  %m_memoryManager2 = getelementptr inbounds %"class.xalanc_1_10::XalanFileUtility", %"class.xalanc_1_10::XalanFileUtility"* %this1, i32 0, i32 2, !dbg !4654
  %1 = load %"class.xercesc_2_7::MemoryManager"*, %"class.xercesc_2_7::MemoryManager"** %m_memoryManager2, align 8, !dbg !4654
  invoke void @_ZN11xalanc_1_1014XalanDOMStringC1ERN11xercesc_2_713MemoryManagerE(%"class.xalanc_1_10::XalanDOMString"* %searchSpecification, %"class.xercesc_2_7::MemoryManager"* dereferenceable(8) %1)
          to label %invoke.cont unwind label %lpad, !dbg !4653

invoke.cont:                                      ; preds = %entry
  %2 = load i8, i8* %useDirPrefix.addr, align 1, !dbg !4655
  %tobool = trunc i8 %2 to i1, !dbg !4655
  br i1 %tobool, label %if.then, label %if.else, !dbg !4657

if.then:                                          ; preds = %invoke.cont
  %3 = load %"class.xalanc_1_10::XalanDOMString"*, %"class.xalanc_1_10::XalanDOMString"** %baseDir.addr, align 8, !dbg !4658
  %call5 = invoke dereferenceable(40) %"class.xalanc_1_10::XalanDOMString"* @_ZN11xalanc_1_1014XalanDOMString6assignERKS0_(%"class.xalanc_1_10::XalanDOMString"* %searchSpecification, %"class.xalanc_1_10::XalanDOMString"* dereferenceable(40) %3)
          to label %invoke.cont4 unwind label %lpad3, !dbg !4660

invoke.cont4:                                     ; preds = %if.then
  %4 = load %"class.xalanc_1_10::XalanDOMString"*, %"class.xalanc_1_10::XalanDOMString"** %relDir.addr, align 8, !dbg !4661
  %call7 = invoke dereferenceable(40) %"class.xalanc_1_10::XalanDOMString"* @_ZN11xalanc_1_1014XalanDOMStringpLERKS0_(%"class.xalanc_1_10::XalanDOMString"* %searchSpecification, %"class.xalanc_1_10::XalanDOMString"* dereferenceable(40) %4)
          to label %invoke.cont6 unwind label %lpad3, !dbg !4662

invoke.cont6:                                     ; preds = %invoke.cont4
  %call9 = invoke dereferenceable(40) %"class.xalanc_1_10::XalanDOMString"* @_ZN11xalanc_1_1014XalanDOMStringpLEPKt(%"class.xalanc_1_10::XalanDOMString"* %searchSpecification, i16* getelementptr inbounds ([2 x i16], [2 x i16]* @_ZN11xalanc_1_1016XalanFileUtility9s_pathSepE, i64 0, i64 0))
          to label %invoke.cont8 unwind label %lpad3, !dbg !4663

invoke.cont8:                                     ; preds = %invoke.cont6
  %5 = load %"class.xalanc_1_10::XalanDOMString"*, %"class.xalanc_1_10::XalanDOMString"** %relDir.addr, align 8, !dbg !4664
  %call11 = invoke dereferenceable(40) %"class.xalanc_1_10::XalanDOMString"* @_ZN11xalanc_1_1014XalanDOMStringpLERKS0_(%"class.xalanc_1_10::XalanDOMString"* %searchSpecification, %"class.xalanc_1_10::XalanDOMString"* dereferenceable(40) %5)
          to label %invoke.cont10 unwind label %lpad3, !dbg !4665

invoke.cont10:                                    ; preds = %invoke.cont8
  %call13 = invoke dereferenceable(40) %"class.xalanc_1_10::XalanDOMString"* @_ZN11xalanc_1_1014XalanDOMStringpLERKS0_(%"class.xalanc_1_10::XalanDOMString"* %searchSpecification, %"class.xalanc_1_10::XalanDOMString"* dereferenceable(40) %searchSuffix)
          to label %invoke.cont12 unwind label %lpad3, !dbg !4666

invoke.cont12:                                    ; preds = %invoke.cont10
  br label %if.end, !dbg !4667

lpad:                                             ; preds = %entry
  %6 = landingpad { i8*, i32 }
          cleanup, !dbg !4668
  %7 = extractvalue { i8*, i32 } %6, 0, !dbg !4668
  store i8* %7, i8** %exn.slot, align 8, !dbg !4668
  %8 = extractvalue { i8*, i32 } %6, 1, !dbg !4668
  store i32 %8, i32* %ehselector.slot, align 4, !dbg !4668
  br label %ehcleanup, !dbg !4668

lpad3:                                            ; preds = %invoke.cont23, %if.end, %invoke.cont18, %invoke.cont16, %invoke.cont14, %if.else, %invoke.cont10, %invoke.cont8, %invoke.cont6, %invoke.cont4, %if.then
  %9 = landingpad { i8*, i32 }
          cleanup, !dbg !4669
  %10 = extractvalue { i8*, i32 } %9, 0, !dbg !4669
  store i8* %10, i8** %exn.slot, align 8, !dbg !4669
  %11 = extractvalue { i8*, i32 } %9, 1, !dbg !4669
  store i32 %11, i32* %ehselector.slot, align 4, !dbg !4669
  call void @_ZN11xalanc_1_1014XalanDOMStringD2Ev(%"class.xalanc_1_10::XalanDOMString"* %searchSpecification) #3, !dbg !4668
  br label %ehcleanup, !dbg !4668

if.else:                                          ; preds = %invoke.cont
  %12 = load %"class.xalanc_1_10::XalanDOMString"*, %"class.xalanc_1_10::XalanDOMString"** %baseDir.addr, align 8, !dbg !4670
  %call15 = invoke dereferenceable(40) %"class.xalanc_1_10::XalanDOMString"* @_ZN11xalanc_1_1014XalanDOMString6assignERKS0_(%"class.xalanc_1_10::XalanDOMString"* %searchSpecification, %"class.xalanc_1_10::XalanDOMString"* dereferenceable(40) %12)
          to label %invoke.cont14 unwind label %lpad3, !dbg !4672

invoke.cont14:                                    ; preds = %if.else
  %13 = load %"class.xalanc_1_10::XalanDOMString"*, %"class.xalanc_1_10::XalanDOMString"** %relDir.addr, align 8, !dbg !4673
  %call17 = invoke dereferenceable(40) %"class.xalanc_1_10::XalanDOMString"* @_ZN11xalanc_1_1014XalanDOMStringpLERKS0_(%"class.xalanc_1_10::XalanDOMString"* %searchSpecification, %"class.xalanc_1_10::XalanDOMString"* dereferenceable(40) %13)
          to label %invoke.cont16 unwind label %lpad3, !dbg !4674

invoke.cont16:                                    ; preds = %invoke.cont14
  %call19 = invoke dereferenceable(40) %"class.xalanc_1_10::XalanDOMString"* @_ZN11xalanc_1_1014XalanDOMStringpLEPKt(%"class.xalanc_1_10::XalanDOMString"* %searchSpecification, i16* getelementptr inbounds ([2 x i16], [2 x i16]* @_ZN11xalanc_1_1016XalanFileUtility9s_pathSepE, i64 0, i64 0))
          to label %invoke.cont18 unwind label %lpad3, !dbg !4675

invoke.cont18:                                    ; preds = %invoke.cont16
  %call21 = invoke dereferenceable(40) %"class.xalanc_1_10::XalanDOMString"* @_ZN11xalanc_1_1014XalanDOMStringpLERKS0_(%"class.xalanc_1_10::XalanDOMString"* %searchSpecification, %"class.xalanc_1_10::XalanDOMString"* dereferenceable(40) %searchSuffix)
          to label %invoke.cont20 unwind label %lpad3, !dbg !4676

invoke.cont20:                                    ; preds = %invoke.cont18
  br label %if.end

if.end:                                           ; preds = %invoke.cont20, %invoke.cont12
  call void @llvm.dbg.declare(metadata %"struct.xalanc_1_10::DirectoryEnumeratorFunctor"* %theEnumerator, metadata !4677, metadata !DIExpression()), !dbg !4749
  %m_memoryManager22 = getelementptr inbounds %"class.xalanc_1_10::XalanFileUtility", %"class.xalanc_1_10::XalanFileUtility"* %this1, i32 0, i32 2, !dbg !4750
  %14 = load %"class.xercesc_2_7::MemoryManager"*, %"class.xercesc_2_7::MemoryManager"** %m_memoryManager22, align 8, !dbg !4750
  invoke void @_ZN11xalanc_1_1026DirectoryEnumeratorFunctorINS_11XalanVectorINS_14XalanDOMStringENS_31MemoryManagedConstructionTraitsIS2_EEEES2_NS_24FilesOnlyFilterPredicateENS_14c_wstr_functorEEC2ERN11xercesc_2_713MemoryManagerEb(%"struct.xalanc_1_10::DirectoryEnumeratorFunctor"* %theEnumerator, %"class.xercesc_2_7::MemoryManager"* dereferenceable(8) %14, i1 zeroext false)
          to label %invoke.cont23 unwind label %lpad3, !dbg !4749

invoke.cont23:                                    ; preds = %if.end
  %15 = load %"class.xalanc_1_10::XalanVector.1"*, %"class.xalanc_1_10::XalanVector.1"** %theFiles.addr, align 8, !dbg !4751
  invoke void @_ZNK11xalanc_1_1026DirectoryEnumeratorFunctorINS_11XalanVectorINS_14XalanDOMStringENS_31MemoryManagedConstructionTraitsIS2_EEEES2_NS_24FilesOnlyFilterPredicateENS_14c_wstr_functorEEclERKS2_RS5_(%"struct.xalanc_1_10::DirectoryEnumeratorFunctor"* %theEnumerator, %"class.xalanc_1_10::XalanDOMString"* dereferenceable(40) %searchSpecification, %"class.xalanc_1_10::XalanVector.1"* dereferenceable(32) %15)
          to label %invoke.cont24 unwind label %lpad3, !dbg !4752

invoke.cont24:                                    ; preds = %invoke.cont23
  %arraydecay25 = getelementptr inbounds [4096 x i8], [4096 x i8]* %buffer3, i64 0, i64 0, !dbg !4753
  %call26 = call i32 @chdir(i8* %arraydecay25) #3, !dbg !4754
  %16 = load %"class.xalanc_1_10::XalanVector.1"*, %"class.xalanc_1_10::XalanVector.1"** %theFiles.addr, align 8, !dbg !4755
  call void @_ZN11xalanc_1_1014XalanDOMStringD2Ev(%"class.xalanc_1_10::XalanDOMString"* %searchSpecification) #3, !dbg !4668
  call void @_ZN11xalanc_1_1014XalanDOMStringD2Ev(%"class.xalanc_1_10::XalanDOMString"* %searchSuffix) #3, !dbg !4668
  ret %"class.xalanc_1_10::XalanVector.1"* %16, !dbg !4668

ehcleanup:                                        ; preds = %lpad3, %lpad
  call void @_ZN11xalanc_1_1014XalanDOMStringD2Ev(%"class.xalanc_1_10::XalanDOMString"* %searchSuffix) #3, !dbg !4668
  br label %eh.resume, !dbg !4668

eh.resume:                                        ; preds = %ehcleanup
  %exn = load i8*, i8** %exn.slot, align 8, !dbg !4668
  %sel = load i32, i32* %ehselector.slot, align 4, !dbg !4668
  %lpad.val = insertvalue { i8*, i32 } undef, i8* %exn, 0, !dbg !4668
  %lpad.val27 = insertvalue { i8*, i32 } %lpad.val, i32 %sel, 1, !dbg !4668
  resume { i8*, i32 } %lpad.val27, !dbg !4668
}

; Function Attrs: nounwind
declare dso_local i8* @getcwd(i8*, i64) #2

; Function Attrs: noinline uwtable
define linkonce_odr dso_local dereferenceable(40) %"class.xalanc_1_10::XalanDOMString"* @_ZN11xalanc_1_1014XalanDOMString6assignERKS0_(%"class.xalanc_1_10::XalanDOMString"* %this, %"class.xalanc_1_10::XalanDOMString"* dereferenceable(40) %theSource) #0 comdat align 2 !dbg !4756 {
entry:
  %this.addr = alloca %"class.xalanc_1_10::XalanDOMString"*, align 8
  %theSource.addr = alloca %"class.xalanc_1_10::XalanDOMString"*, align 8
  store %"class.xalanc_1_10::XalanDOMString"* %this, %"class.xalanc_1_10::XalanDOMString"** %this.addr, align 8
  call void @llvm.dbg.declare(metadata %"class.xalanc_1_10::XalanDOMString"** %this.addr, metadata !4757, metadata !DIExpression()), !dbg !4758
  store %"class.xalanc_1_10::XalanDOMString"* %theSource, %"class.xalanc_1_10::XalanDOMString"** %theSource.addr, align 8
  call void @llvm.dbg.declare(metadata %"class.xalanc_1_10::XalanDOMString"** %theSource.addr, metadata !4759, metadata !DIExpression()), !dbg !4760
  %this1 = load %"class.xalanc_1_10::XalanDOMString"*, %"class.xalanc_1_10::XalanDOMString"** %this.addr, align 8
  call void @_ZNK11xalanc_1_1014XalanDOMString10invariantsEv(%"class.xalanc_1_10::XalanDOMString"* %this1), !dbg !4761
  %0 = load %"class.xalanc_1_10::XalanDOMString"*, %"class.xalanc_1_10::XalanDOMString"** %theSource.addr, align 8, !dbg !4762
  %cmp = icmp ne %"class.xalanc_1_10::XalanDOMString"* %0, %this1, !dbg !4764
  br i1 %cmp, label %if.then, label %if.end, !dbg !4765

if.then:                                          ; preds = %entry
  %1 = load %"class.xalanc_1_10::XalanDOMString"*, %"class.xalanc_1_10::XalanDOMString"** %theSource.addr, align 8, !dbg !4766
  %m_data = getelementptr inbounds %"class.xalanc_1_10::XalanDOMString", %"class.xalanc_1_10::XalanDOMString"* %1, i32 0, i32 0, !dbg !4768
  %m_data2 = getelementptr inbounds %"class.xalanc_1_10::XalanDOMString", %"class.xalanc_1_10::XalanDOMString"* %this1, i32 0, i32 0, !dbg !4769
  %call = call dereferenceable(32) %"class.xalanc_1_10::XalanVector"* @_ZN11xalanc_1_1011XalanVectorItNS_31MemoryManagedConstructionTraitsItEEEaSERKS3_(%"class.xalanc_1_10::XalanVector"* %m_data2, %"class.xalanc_1_10::XalanVector"* dereferenceable(32) %m_data), !dbg !4770
  %2 = load %"class.xalanc_1_10::XalanDOMString"*, %"class.xalanc_1_10::XalanDOMString"** %theSource.addr, align 8, !dbg !4771
  %m_size = getelementptr inbounds %"class.xalanc_1_10::XalanDOMString", %"class.xalanc_1_10::XalanDOMString"* %2, i32 0, i32 1, !dbg !4772
  %3 = load i32, i32* %m_size, align 8, !dbg !4772
  %m_size3 = getelementptr inbounds %"class.xalanc_1_10::XalanDOMString", %"class.xalanc_1_10::XalanDOMString"* %this1, i32 0, i32 1, !dbg !4773
  store i32 %3, i32* %m_size3, align 8, !dbg !4774
  br label %if.end, !dbg !4775

if.end:                                           ; preds = %if.then, %entry
  call void @_ZNK11xalanc_1_1014XalanDOMString10invariantsEv(%"class.xalanc_1_10::XalanDOMString"* %this1), !dbg !4776
  ret %"class.xalanc_1_10::XalanDOMString"* %this1, !dbg !4777
}

; Function Attrs: noinline uwtable
define linkonce_odr dso_local dereferenceable(40) %"class.xalanc_1_10::XalanDOMString"* @_ZN11xalanc_1_1014XalanDOMStringpLERKS0_(%"class.xalanc_1_10::XalanDOMString"* %this, %"class.xalanc_1_10::XalanDOMString"* dereferenceable(40) %theSource) #0 comdat align 2 !dbg !4778 {
entry:
  %this.addr = alloca %"class.xalanc_1_10::XalanDOMString"*, align 8
  %theSource.addr = alloca %"class.xalanc_1_10::XalanDOMString"*, align 8
  store %"class.xalanc_1_10::XalanDOMString"* %this, %"class.xalanc_1_10::XalanDOMString"** %this.addr, align 8
  call void @llvm.dbg.declare(metadata %"class.xalanc_1_10::XalanDOMString"** %this.addr, metadata !4779, metadata !DIExpression()), !dbg !4780
  store %"class.xalanc_1_10::XalanDOMString"* %theSource, %"class.xalanc_1_10::XalanDOMString"** %theSource.addr, align 8
  call void @llvm.dbg.declare(metadata %"class.xalanc_1_10::XalanDOMString"** %theSource.addr, metadata !4781, metadata !DIExpression()), !dbg !4782
  %this1 = load %"class.xalanc_1_10::XalanDOMString"*, %"class.xalanc_1_10::XalanDOMString"** %this.addr, align 8
  %0 = load %"class.xalanc_1_10::XalanDOMString"*, %"class.xalanc_1_10::XalanDOMString"** %theSource.addr, align 8, !dbg !4783
  %call = call dereferenceable(40) %"class.xalanc_1_10::XalanDOMString"* @_ZN11xalanc_1_1014XalanDOMString6appendERKS0_(%"class.xalanc_1_10::XalanDOMString"* %this1, %"class.xalanc_1_10::XalanDOMString"* dereferenceable(40) %0), !dbg !4784
  ret %"class.xalanc_1_10::XalanDOMString"* %call, !dbg !4785
}

; Function Attrs: noinline uwtable
define linkonce_odr dso_local dereferenceable(40) %"class.xalanc_1_10::XalanDOMString"* @_ZN11xalanc_1_1014XalanDOMStringpLEPKt(%"class.xalanc_1_10::XalanDOMString"* %this, i16* %theString) #0 comdat align 2 !dbg !4786 {
entry:
  %this.addr = alloca %"class.xalanc_1_10::XalanDOMString"*, align 8
  %theString.addr = alloca i16*, align 8
  store %"class.xalanc_1_10::XalanDOMString"* %this, %"class.xalanc_1_10::XalanDOMString"** %this.addr, align 8
  call void @llvm.dbg.declare(metadata %"class.xalanc_1_10::XalanDOMString"** %this.addr, metadata !4787, metadata !DIExpression()), !dbg !4788
  store i16* %theString, i16** %theString.addr, align 8
  call void @llvm.dbg.declare(metadata i16** %theString.addr, metadata !4789, metadata !DIExpression()), !dbg !4790
  %this1 = load %"class.xalanc_1_10::XalanDOMString"*, %"class.xalanc_1_10::XalanDOMString"** %this.addr, align 8
  %0 = load i16*, i16** %theString.addr, align 8, !dbg !4791
  %call = call dereferenceable(40) %"class.xalanc_1_10::XalanDOMString"* @_ZN11xalanc_1_1014XalanDOMString6appendEPKt(%"class.xalanc_1_10::XalanDOMString"* %this1, i16* %0), !dbg !4792
  ret %"class.xalanc_1_10::XalanDOMString"* %call, !dbg !4793
}

; Function Attrs: noinline nounwind uwtable
define linkonce_odr dso_local void @_ZN11xalanc_1_1026DirectoryEnumeratorFunctorINS_11XalanVectorINS_14XalanDOMStringENS_31MemoryManagedConstructionTraitsIS2_EEEES2_NS_24FilesOnlyFilterPredicateENS_14c_wstr_functorEEC2ERN11xercesc_2_713MemoryManagerEb(%"struct.xalanc_1_10::DirectoryEnumeratorFunctor"* %this, %"class.xercesc_2_7::MemoryManager"* dereferenceable(8) %theMemoryManager, i1 zeroext %fIncludeSelfAndParent) unnamed_addr #5 comdat align 2 !dbg !4794 {
entry:
  %this.addr = alloca %"struct.xalanc_1_10::DirectoryEnumeratorFunctor"*, align 8
  %theMemoryManager.addr = alloca %"class.xercesc_2_7::MemoryManager"*, align 8
  %fIncludeSelfAndParent.addr = alloca i8, align 1
  store %"struct.xalanc_1_10::DirectoryEnumeratorFunctor"* %this, %"struct.xalanc_1_10::DirectoryEnumeratorFunctor"** %this.addr, align 8
  call void @llvm.dbg.declare(metadata %"struct.xalanc_1_10::DirectoryEnumeratorFunctor"** %this.addr, metadata !4795, metadata !DIExpression()), !dbg !4797
  store %"class.xercesc_2_7::MemoryManager"* %theMemoryManager, %"class.xercesc_2_7::MemoryManager"** %theMemoryManager.addr, align 8
  call void @llvm.dbg.declare(metadata %"class.xercesc_2_7::MemoryManager"** %theMemoryManager.addr, metadata !4798, metadata !DIExpression()), !dbg !4799
  %frombool = zext i1 %fIncludeSelfAndParent to i8
  store i8 %frombool, i8* %fIncludeSelfAndParent.addr, align 1
  call void @llvm.dbg.declare(metadata i8* %fIncludeSelfAndParent.addr, metadata !4800, metadata !DIExpression()), !dbg !4801
  %this1 = load %"struct.xalanc_1_10::DirectoryEnumeratorFunctor"*, %"struct.xalanc_1_10::DirectoryEnumeratorFunctor"** %this.addr, align 8
  %0 = bitcast %"struct.xalanc_1_10::DirectoryEnumeratorFunctor"* %this1 to %"struct.std::unary_function"*, !dbg !4802
  %m_filterPredicate = getelementptr inbounds %"struct.xalanc_1_10::DirectoryEnumeratorFunctor", %"struct.xalanc_1_10::DirectoryEnumeratorFunctor"* %this1, i32 0, i32 0, !dbg !4803
  %m_conversionFunction = getelementptr inbounds %"struct.xalanc_1_10::DirectoryEnumeratorFunctor", %"struct.xalanc_1_10::DirectoryEnumeratorFunctor"* %this1, i32 0, i32 1, !dbg !4803
  %m_includeSelfAndParent = getelementptr inbounds %"struct.xalanc_1_10::DirectoryEnumeratorFunctor", %"struct.xalanc_1_10::DirectoryEnumeratorFunctor"* %this1, i32 0, i32 2, !dbg !4804
  %1 = load i8, i8* %fIncludeSelfAndParent.addr, align 1, !dbg !4805
  %tobool = trunc i8 %1 to i1, !dbg !4805
  %frombool2 = zext i1 %tobool to i8, !dbg !4804
  store i8 %frombool2, i8* %m_includeSelfAndParent, align 2, !dbg !4804
  %m_memoryManager = getelementptr inbounds %"struct.xalanc_1_10::DirectoryEnumeratorFunctor", %"struct.xalanc_1_10::DirectoryEnumeratorFunctor"* %this1, i32 0, i32 3, !dbg !4806
  %2 = load %"class.xercesc_2_7::MemoryManager"*, %"class.xercesc_2_7::MemoryManager"** %theMemoryManager.addr, align 8, !dbg !4807
  store %"class.xercesc_2_7::MemoryManager"* %2, %"class.xercesc_2_7::MemoryManager"** %m_memoryManager, align 8, !dbg !4806
  ret void, !dbg !4808
}

; Function Attrs: noinline uwtable
define linkonce_odr dso_local void @_ZNK11xalanc_1_1026DirectoryEnumeratorFunctorINS_11XalanVectorINS_14XalanDOMStringENS_31MemoryManagedConstructionTraitsIS2_EEEES2_NS_24FilesOnlyFilterPredicateENS_14c_wstr_functorEEclERKS2_RS5_(%"struct.xalanc_1_10::DirectoryEnumeratorFunctor"* %this, %"class.xalanc_1_10::XalanDOMString"* dereferenceable(40) %theFullSearchSpec, %"class.xalanc_1_10::XalanVector.1"* dereferenceable(32) %theCollection) #0 comdat align 2 !dbg !4809 {
entry:
  %this.addr = alloca %"struct.xalanc_1_10::DirectoryEnumeratorFunctor"*, align 8
  %theFullSearchSpec.addr = alloca %"class.xalanc_1_10::XalanDOMString"*, align 8
  %theCollection.addr = alloca %"class.xalanc_1_10::XalanVector.1"*, align 8
  %agg.tmp = alloca %"class.std::back_insert_iterator", align 8
  %agg.tmp2 = alloca %"struct.xalanc_1_10::FilesOnlyFilterPredicate", align 1
  %agg.tmp3 = alloca %"struct.xalanc_1_10::c_wstr_functor", align 1
  store %"struct.xalanc_1_10::DirectoryEnumeratorFunctor"* %this, %"struct.xalanc_1_10::DirectoryEnumeratorFunctor"** %this.addr, align 8
  call void @llvm.dbg.declare(metadata %"struct.xalanc_1_10::DirectoryEnumeratorFunctor"** %this.addr, metadata !4810, metadata !DIExpression()), !dbg !4812
  store %"class.xalanc_1_10::XalanDOMString"* %theFullSearchSpec, %"class.xalanc_1_10::XalanDOMString"** %theFullSearchSpec.addr, align 8
  call void @llvm.dbg.declare(metadata %"class.xalanc_1_10::XalanDOMString"** %theFullSearchSpec.addr, metadata !4813, metadata !DIExpression()), !dbg !4814
  store %"class.xalanc_1_10::XalanVector.1"* %theCollection, %"class.xalanc_1_10::XalanVector.1"** %theCollection.addr, align 8
  call void @llvm.dbg.declare(metadata %"class.xalanc_1_10::XalanVector.1"** %theCollection.addr, metadata !4815, metadata !DIExpression()), !dbg !4816
  %this1 = load %"struct.xalanc_1_10::DirectoryEnumeratorFunctor"*, %"struct.xalanc_1_10::DirectoryEnumeratorFunctor"** %this.addr, align 8
  %m_memoryManager = getelementptr inbounds %"struct.xalanc_1_10::DirectoryEnumeratorFunctor", %"struct.xalanc_1_10::DirectoryEnumeratorFunctor"* %this1, i32 0, i32 3, !dbg !4817
  %0 = load %"class.xercesc_2_7::MemoryManager"*, %"class.xercesc_2_7::MemoryManager"** %m_memoryManager, align 8, !dbg !4817
  %1 = load %"class.xalanc_1_10::XalanDOMString"*, %"class.xalanc_1_10::XalanDOMString"** %theFullSearchSpec.addr, align 8, !dbg !4818
  %2 = load %"class.xalanc_1_10::XalanVector.1"*, %"class.xalanc_1_10::XalanVector.1"** %theCollection.addr, align 8, !dbg !4819
  %call = call %"class.xalanc_1_10::XalanVector.1"* @_ZSt13back_inserterIN11xalanc_1_1011XalanVectorINS0_14XalanDOMStringENS0_31MemoryManagedConstructionTraitsIS2_EEEEESt20back_insert_iteratorIT_ERS7_(%"class.xalanc_1_10::XalanVector.1"* dereferenceable(32) %2), !dbg !4820
  %coerce.dive = getelementptr inbounds %"class.std::back_insert_iterator", %"class.std::back_insert_iterator"* %agg.tmp, i32 0, i32 0, !dbg !4820
  store %"class.xalanc_1_10::XalanVector.1"* %call, %"class.xalanc_1_10::XalanVector.1"** %coerce.dive, align 8, !dbg !4820
  %m_filterPredicate = getelementptr inbounds %"struct.xalanc_1_10::DirectoryEnumeratorFunctor", %"struct.xalanc_1_10::DirectoryEnumeratorFunctor"* %this1, i32 0, i32 0, !dbg !4821
  %m_conversionFunction = getelementptr inbounds %"struct.xalanc_1_10::DirectoryEnumeratorFunctor", %"struct.xalanc_1_10::DirectoryEnumeratorFunctor"* %this1, i32 0, i32 1, !dbg !4822
  %m_includeSelfAndParent = getelementptr inbounds %"struct.xalanc_1_10::DirectoryEnumeratorFunctor", %"struct.xalanc_1_10::DirectoryEnumeratorFunctor"* %this1, i32 0, i32 2, !dbg !4823
  %3 = load i8, i8* %m_includeSelfAndParent, align 2, !dbg !4823
  %tobool = trunc i8 %3 to i1, !dbg !4823
  %coerce.dive4 = getelementptr inbounds %"class.std::back_insert_iterator", %"class.std::back_insert_iterator"* %agg.tmp, i32 0, i32 0, !dbg !4824
  %4 = load %"class.xalanc_1_10::XalanVector.1"*, %"class.xalanc_1_10::XalanVector.1"** %coerce.dive4, align 8, !dbg !4824
  call void @_ZN11xalanc_1_1018EnumerateDirectoryISt20back_insert_iteratorINS_11XalanVectorINS_14XalanDOMStringENS_31MemoryManagedConstructionTraitsIS3_EEEEENS_24FilesOnlyFilterPredicateES3_NS_14c_wstr_functorEEEvRN11xercesc_2_713MemoryManagerERKT1_T_T0_T2_b(%"class.xercesc_2_7::MemoryManager"* dereferenceable(8) %0, %"class.xalanc_1_10::XalanDOMString"* dereferenceable(40) %1, %"class.xalanc_1_10::XalanVector.1"* %4, i1 zeroext %tobool), !dbg !4824
  ret void, !dbg !4825
}

; Function Attrs: nounwind
declare dso_local i32 @chdir(i8*) #2

; Function Attrs: noinline uwtable
define dso_local dereferenceable(32) %"class.xalanc_1_10::XalanVector.1"* @_ZN11xalanc_1_1016XalanFileUtility17getDirectoryNamesERKNS_14XalanDOMStringERNS_11XalanVectorIS1_NS_31MemoryManagedConstructionTraitsIS1_EEEE(%"class.xalanc_1_10::XalanFileUtility"* %this, %"class.xalanc_1_10::XalanDOMString"* dereferenceable(40) %rootDirectory, %"class.xalanc_1_10::XalanVector.1"* dereferenceable(32) %theFiles) #0 align 2 personality i8* bitcast (i32 (...)* @__gxx_personality_v0 to i8*) !dbg !4826 {
entry:
  %this.addr = alloca %"class.xalanc_1_10::XalanFileUtility"*, align 8
  %rootDirectory.addr = alloca %"class.xalanc_1_10::XalanDOMString"*, align 8
  %theFiles.addr = alloca %"class.xalanc_1_10::XalanVector.1"*, align 8
  %buffer2 = alloca [4096 x i8], align 16
  %dirSpec = alloca %"class.xalanc_1_10::XalanDOMString", align 8
  %theEnumerator = alloca %"struct.xalanc_1_10::DirectoryEnumeratorFunctor.4", align 8
  %exn.slot = alloca i8*
  %ehselector.slot = alloca i32
  %ref.tmp = alloca %"class.xalanc_1_10::XalanDOMString", align 8
  %ref.tmp5 = alloca %"class.xalanc_1_10::XalanDOMString", align 8
  store %"class.xalanc_1_10::XalanFileUtility"* %this, %"class.xalanc_1_10::XalanFileUtility"** %this.addr, align 8
  call void @llvm.dbg.declare(metadata %"class.xalanc_1_10::XalanFileUtility"** %this.addr, metadata !4827, metadata !DIExpression()), !dbg !4828
  store %"class.xalanc_1_10::XalanDOMString"* %rootDirectory, %"class.xalanc_1_10::XalanDOMString"** %rootDirectory.addr, align 8
  call void @llvm.dbg.declare(metadata %"class.xalanc_1_10::XalanDOMString"** %rootDirectory.addr, metadata !4829, metadata !DIExpression()), !dbg !4830
  store %"class.xalanc_1_10::XalanVector.1"* %theFiles, %"class.xalanc_1_10::XalanVector.1"** %theFiles.addr, align 8
  call void @llvm.dbg.declare(metadata %"class.xalanc_1_10::XalanVector.1"** %theFiles.addr, metadata !4831, metadata !DIExpression()), !dbg !4832
  %this1 = load %"class.xalanc_1_10::XalanFileUtility"*, %"class.xalanc_1_10::XalanFileUtility"** %this.addr, align 8
  call void @llvm.dbg.declare(metadata [4096 x i8]* %buffer2, metadata !4833, metadata !DIExpression()), !dbg !4834
  %arraydecay = getelementptr inbounds [4096 x i8], [4096 x i8]* %buffer2, i64 0, i64 0, !dbg !4835
  %call = call i8* @getcwd(i8* %arraydecay, i64 4096) #3, !dbg !4836
  call void @llvm.dbg.declare(metadata %"class.xalanc_1_10::XalanDOMString"* %dirSpec, metadata !4837, metadata !DIExpression()), !dbg !4838
  %m_memoryManager = getelementptr inbounds %"class.xalanc_1_10::XalanFileUtility", %"class.xalanc_1_10::XalanFileUtility"* %this1, i32 0, i32 2, !dbg !4839
  %0 = load %"class.xercesc_2_7::MemoryManager"*, %"class.xercesc_2_7::MemoryManager"** %m_memoryManager, align 8, !dbg !4839
  call void @_ZN11xalanc_1_1014XalanDOMStringC1EPKcRN11xercesc_2_713MemoryManagerEj(%"class.xalanc_1_10::XalanDOMString"* %dirSpec, i8* getelementptr inbounds ([2 x i8], [2 x i8]* @.str.22, i64 0, i64 0), %"class.xercesc_2_7::MemoryManager"* dereferenceable(8) %0, i32 -1), !dbg !4838
  call void @llvm.dbg.declare(metadata %"struct.xalanc_1_10::DirectoryEnumeratorFunctor.4"* %theEnumerator, metadata !4840, metadata !DIExpression()), !dbg !4880
  %m_memoryManager2 = getelementptr inbounds %"class.xalanc_1_10::XalanFileUtility", %"class.xalanc_1_10::XalanFileUtility"* %this1, i32 0, i32 2, !dbg !4881
  %1 = load %"class.xercesc_2_7::MemoryManager"*, %"class.xercesc_2_7::MemoryManager"** %m_memoryManager2, align 8, !dbg !4881
  invoke void @_ZN11xalanc_1_1026DirectoryEnumeratorFunctorINS_11XalanVectorINS_14XalanDOMStringENS_31MemoryManagedConstructionTraitsIS2_EEEES2_NS_24DirectoryFilterPredicateENS_14c_wstr_functorEEC2ERN11xercesc_2_713MemoryManagerEb(%"struct.xalanc_1_10::DirectoryEnumeratorFunctor.4"* %theEnumerator, %"class.xercesc_2_7::MemoryManager"* dereferenceable(8) %1, i1 zeroext false)
          to label %invoke.cont unwind label %lpad, !dbg !4880

invoke.cont:                                      ; preds = %entry
  %2 = load %"class.xalanc_1_10::XalanDOMString"*, %"class.xalanc_1_10::XalanDOMString"** %rootDirectory.addr, align 8, !dbg !4882
  %m_memoryManager3 = getelementptr inbounds %"class.xalanc_1_10::XalanFileUtility", %"class.xalanc_1_10::XalanFileUtility"* %this1, i32 0, i32 2, !dbg !4883
  %3 = load %"class.xercesc_2_7::MemoryManager"*, %"class.xercesc_2_7::MemoryManager"** %m_memoryManager3, align 8, !dbg !4883
  invoke void @_ZN11xalanc_1_1014XalanDOMStringC1ERKS0_RN11xercesc_2_713MemoryManagerEjj(%"class.xalanc_1_10::XalanDOMString"* %ref.tmp, %"class.xalanc_1_10::XalanDOMString"* dereferenceable(40) %2, %"class.xercesc_2_7::MemoryManager"* dereferenceable(8) %3, i32 0, i32 -1)
          to label %invoke.cont4 unwind label %lpad, !dbg !4884

invoke.cont4:                                     ; preds = %invoke.cont
  %m_memoryManager6 = getelementptr inbounds %"class.xalanc_1_10::XalanFileUtility", %"class.xalanc_1_10::XalanFileUtility"* %this1, i32 0, i32 2, !dbg !4885
  %4 = load %"class.xercesc_2_7::MemoryManager"*, %"class.xercesc_2_7::MemoryManager"** %m_memoryManager6, align 8, !dbg !4885
  invoke void @_ZN11xalanc_1_1014XalanDOMStringC1ERKS0_RN11xercesc_2_713MemoryManagerEjj(%"class.xalanc_1_10::XalanDOMString"* %ref.tmp5, %"class.xalanc_1_10::XalanDOMString"* dereferenceable(40) %dirSpec, %"class.xercesc_2_7::MemoryManager"* dereferenceable(8) %4, i32 0, i32 -1)
          to label %invoke.cont8 unwind label %lpad7, !dbg !4886

invoke.cont8:                                     ; preds = %invoke.cont4
  %5 = load %"class.xalanc_1_10::XalanVector.1"*, %"class.xalanc_1_10::XalanVector.1"** %theFiles.addr, align 8, !dbg !4887
  invoke void @_ZNK11xalanc_1_1026DirectoryEnumeratorFunctorINS_11XalanVectorINS_14XalanDOMStringENS_31MemoryManagedConstructionTraitsIS2_EEEES2_NS_24DirectoryFilterPredicateENS_14c_wstr_functorEEclERKS2_SA_RS5_(%"struct.xalanc_1_10::DirectoryEnumeratorFunctor.4"* %theEnumerator, %"class.xalanc_1_10::XalanDOMString"* dereferenceable(40) %ref.tmp, %"class.xalanc_1_10::XalanDOMString"* dereferenceable(40) %ref.tmp5, %"class.xalanc_1_10::XalanVector.1"* dereferenceable(32) %5)
          to label %invoke.cont10 unwind label %lpad9, !dbg !4888

invoke.cont10:                                    ; preds = %invoke.cont8
  call void @_ZN11xalanc_1_1014XalanDOMStringD2Ev(%"class.xalanc_1_10::XalanDOMString"* %ref.tmp5) #3, !dbg !4888
  call void @_ZN11xalanc_1_1014XalanDOMStringD2Ev(%"class.xalanc_1_10::XalanDOMString"* %ref.tmp) #3, !dbg !4888
  %arraydecay11 = getelementptr inbounds [4096 x i8], [4096 x i8]* %buffer2, i64 0, i64 0, !dbg !4889
  %call12 = call i32 @chdir(i8* %arraydecay11) #3, !dbg !4890
  %6 = load %"class.xalanc_1_10::XalanVector.1"*, %"class.xalanc_1_10::XalanVector.1"** %theFiles.addr, align 8, !dbg !4891
  call void @_ZN11xalanc_1_1014XalanDOMStringD2Ev(%"class.xalanc_1_10::XalanDOMString"* %dirSpec) #3, !dbg !4892
  ret %"class.xalanc_1_10::XalanVector.1"* %6, !dbg !4892

lpad:                                             ; preds = %invoke.cont, %entry
  %7 = landingpad { i8*, i32 }
          cleanup, !dbg !4892
  %8 = extractvalue { i8*, i32 } %7, 0, !dbg !4892
  store i8* %8, i8** %exn.slot, align 8, !dbg !4892
  %9 = extractvalue { i8*, i32 } %7, 1, !dbg !4892
  store i32 %9, i32* %ehselector.slot, align 4, !dbg !4892
  br label %ehcleanup13, !dbg !4892

lpad7:                                            ; preds = %invoke.cont4
  %10 = landingpad { i8*, i32 }
          cleanup, !dbg !4892
  %11 = extractvalue { i8*, i32 } %10, 0, !dbg !4892
  store i8* %11, i8** %exn.slot, align 8, !dbg !4892
  %12 = extractvalue { i8*, i32 } %10, 1, !dbg !4892
  store i32 %12, i32* %ehselector.slot, align 4, !dbg !4892
  br label %ehcleanup, !dbg !4892

lpad9:                                            ; preds = %invoke.cont8
  %13 = landingpad { i8*, i32 }
          cleanup, !dbg !4892
  %14 = extractvalue { i8*, i32 } %13, 0, !dbg !4892
  store i8* %14, i8** %exn.slot, align 8, !dbg !4892
  %15 = extractvalue { i8*, i32 } %13, 1, !dbg !4892
  store i32 %15, i32* %ehselector.slot, align 4, !dbg !4892
  call void @_ZN11xalanc_1_1014XalanDOMStringD2Ev(%"class.xalanc_1_10::XalanDOMString"* %ref.tmp5) #3, !dbg !4888
  br label %ehcleanup, !dbg !4888

ehcleanup:                                        ; preds = %lpad9, %lpad7
  call void @_ZN11xalanc_1_1014XalanDOMStringD2Ev(%"class.xalanc_1_10::XalanDOMString"* %ref.tmp) #3, !dbg !4888
  br label %ehcleanup13, !dbg !4888

ehcleanup13:                                      ; preds = %ehcleanup, %lpad
  call void @_ZN11xalanc_1_1014XalanDOMStringD2Ev(%"class.xalanc_1_10::XalanDOMString"* %dirSpec) #3, !dbg !4892
  br label %eh.resume, !dbg !4892

eh.resume:                                        ; preds = %ehcleanup13
  %exn = load i8*, i8** %exn.slot, align 8, !dbg !4892
  %sel = load i32, i32* %ehselector.slot, align 4, !dbg !4892
  %lpad.val = insertvalue { i8*, i32 } undef, i8* %exn, 0, !dbg !4892
  %lpad.val14 = insertvalue { i8*, i32 } %lpad.val, i32 %sel, 1, !dbg !4892
  resume { i8*, i32 } %lpad.val14, !dbg !4892
}

; Function Attrs: noinline nounwind uwtable
define linkonce_odr dso_local void @_ZN11xalanc_1_1026DirectoryEnumeratorFunctorINS_11XalanVectorINS_14XalanDOMStringENS_31MemoryManagedConstructionTraitsIS2_EEEES2_NS_24DirectoryFilterPredicateENS_14c_wstr_functorEEC2ERN11xercesc_2_713MemoryManagerEb(%"struct.xalanc_1_10::DirectoryEnumeratorFunctor.4"* %this, %"class.xercesc_2_7::MemoryManager"* dereferenceable(8) %theMemoryManager, i1 zeroext %fIncludeSelfAndParent) unnamed_addr #5 comdat align 2 !dbg !4893 {
entry:
  %this.addr = alloca %"struct.xalanc_1_10::DirectoryEnumeratorFunctor.4"*, align 8
  %theMemoryManager.addr = alloca %"class.xercesc_2_7::MemoryManager"*, align 8
  %fIncludeSelfAndParent.addr = alloca i8, align 1
  store %"struct.xalanc_1_10::DirectoryEnumeratorFunctor.4"* %this, %"struct.xalanc_1_10::DirectoryEnumeratorFunctor.4"** %this.addr, align 8
  call void @llvm.dbg.declare(metadata %"struct.xalanc_1_10::DirectoryEnumeratorFunctor.4"** %this.addr, metadata !4894, metadata !DIExpression()), !dbg !4896
  store %"class.xercesc_2_7::MemoryManager"* %theMemoryManager, %"class.xercesc_2_7::MemoryManager"** %theMemoryManager.addr, align 8
  call void @llvm.dbg.declare(metadata %"class.xercesc_2_7::MemoryManager"** %theMemoryManager.addr, metadata !4897, metadata !DIExpression()), !dbg !4898
  %frombool = zext i1 %fIncludeSelfAndParent to i8
  store i8 %frombool, i8* %fIncludeSelfAndParent.addr, align 1
  call void @llvm.dbg.declare(metadata i8* %fIncludeSelfAndParent.addr, metadata !4899, metadata !DIExpression()), !dbg !4900
  %this1 = load %"struct.xalanc_1_10::DirectoryEnumeratorFunctor.4"*, %"struct.xalanc_1_10::DirectoryEnumeratorFunctor.4"** %this.addr, align 8
  %0 = bitcast %"struct.xalanc_1_10::DirectoryEnumeratorFunctor.4"* %this1 to %"struct.std::unary_function"*, !dbg !4901
  %m_filterPredicate = getelementptr inbounds %"struct.xalanc_1_10::DirectoryEnumeratorFunctor.4", %"struct.xalanc_1_10::DirectoryEnumeratorFunctor.4"* %this1, i32 0, i32 0, !dbg !4902
  %m_conversionFunction = getelementptr inbounds %"struct.xalanc_1_10::DirectoryEnumeratorFunctor.4", %"struct.xalanc_1_10::DirectoryEnumeratorFunctor.4"* %this1, i32 0, i32 1, !dbg !4902
  %m_includeSelfAndParent = getelementptr inbounds %"struct.xalanc_1_10::DirectoryEnumeratorFunctor.4", %"struct.xalanc_1_10::DirectoryEnumeratorFunctor.4"* %this1, i32 0, i32 2, !dbg !4903
  %1 = load i8, i8* %fIncludeSelfAndParent.addr, align 1, !dbg !4904
  %tobool = trunc i8 %1 to i1, !dbg !4904
  %frombool2 = zext i1 %tobool to i8, !dbg !4903
  store i8 %frombool2, i8* %m_includeSelfAndParent, align 2, !dbg !4903
  %m_memoryManager = getelementptr inbounds %"struct.xalanc_1_10::DirectoryEnumeratorFunctor.4", %"struct.xalanc_1_10::DirectoryEnumeratorFunctor.4"* %this1, i32 0, i32 3, !dbg !4905
  %2 = load %"class.xercesc_2_7::MemoryManager"*, %"class.xercesc_2_7::MemoryManager"** %theMemoryManager.addr, align 8, !dbg !4906
  store %"class.xercesc_2_7::MemoryManager"* %2, %"class.xercesc_2_7::MemoryManager"** %m_memoryManager, align 8, !dbg !4905
  ret void, !dbg !4907
}

; Function Attrs: noinline uwtable
define linkonce_odr dso_local void @_ZNK11xalanc_1_1026DirectoryEnumeratorFunctorINS_11XalanVectorINS_14XalanDOMStringENS_31MemoryManagedConstructionTraitsIS2_EEEES2_NS_24DirectoryFilterPredicateENS_14c_wstr_functorEEclERKS2_SA_RS5_(%"struct.xalanc_1_10::DirectoryEnumeratorFunctor.4"* %this, %"class.xalanc_1_10::XalanDOMString"* dereferenceable(40) %theDirectory, %"class.xalanc_1_10::XalanDOMString"* dereferenceable(40) %theSearchSpec, %"class.xalanc_1_10::XalanVector.1"* dereferenceable(32) %theCollection) #0 comdat align 2 !dbg !4908 {
entry:
  %this.addr = alloca %"struct.xalanc_1_10::DirectoryEnumeratorFunctor.4"*, align 8
  %theDirectory.addr = alloca %"class.xalanc_1_10::XalanDOMString"*, align 8
  %theSearchSpec.addr = alloca %"class.xalanc_1_10::XalanDOMString"*, align 8
  %theCollection.addr = alloca %"class.xalanc_1_10::XalanVector.1"*, align 8
  %agg.tmp = alloca %"class.std::back_insert_iterator", align 8
  %agg.tmp2 = alloca %"struct.xalanc_1_10::DirectoryFilterPredicate", align 1
  %agg.tmp3 = alloca %"struct.xalanc_1_10::c_wstr_functor", align 1
  store %"struct.xalanc_1_10::DirectoryEnumeratorFunctor.4"* %this, %"struct.xalanc_1_10::DirectoryEnumeratorFunctor.4"** %this.addr, align 8
  call void @llvm.dbg.declare(metadata %"struct.xalanc_1_10::DirectoryEnumeratorFunctor.4"** %this.addr, metadata !4909, metadata !DIExpression()), !dbg !4911
  store %"class.xalanc_1_10::XalanDOMString"* %theDirectory, %"class.xalanc_1_10::XalanDOMString"** %theDirectory.addr, align 8
  call void @llvm.dbg.declare(metadata %"class.xalanc_1_10::XalanDOMString"** %theDirectory.addr, metadata !4912, metadata !DIExpression()), !dbg !4913
  store %"class.xalanc_1_10::XalanDOMString"* %theSearchSpec, %"class.xalanc_1_10::XalanDOMString"** %theSearchSpec.addr, align 8
  call void @llvm.dbg.declare(metadata %"class.xalanc_1_10::XalanDOMString"** %theSearchSpec.addr, metadata !4914, metadata !DIExpression()), !dbg !4915
  store %"class.xalanc_1_10::XalanVector.1"* %theCollection, %"class.xalanc_1_10::XalanVector.1"** %theCollection.addr, align 8
  call void @llvm.dbg.declare(metadata %"class.xalanc_1_10::XalanVector.1"** %theCollection.addr, metadata !4916, metadata !DIExpression()), !dbg !4917
  %this1 = load %"struct.xalanc_1_10::DirectoryEnumeratorFunctor.4"*, %"struct.xalanc_1_10::DirectoryEnumeratorFunctor.4"** %this.addr, align 8
  %m_memoryManager = getelementptr inbounds %"struct.xalanc_1_10::DirectoryEnumeratorFunctor.4", %"struct.xalanc_1_10::DirectoryEnumeratorFunctor.4"* %this1, i32 0, i32 3, !dbg !4918
  %0 = load %"class.xercesc_2_7::MemoryManager"*, %"class.xercesc_2_7::MemoryManager"** %m_memoryManager, align 8, !dbg !4918
  %1 = load %"class.xalanc_1_10::XalanDOMString"*, %"class.xalanc_1_10::XalanDOMString"** %theDirectory.addr, align 8, !dbg !4919
  %2 = load %"class.xalanc_1_10::XalanDOMString"*, %"class.xalanc_1_10::XalanDOMString"** %theSearchSpec.addr, align 8, !dbg !4920
  %3 = load %"class.xalanc_1_10::XalanVector.1"*, %"class.xalanc_1_10::XalanVector.1"** %theCollection.addr, align 8, !dbg !4921
  %call = call %"class.xalanc_1_10::XalanVector.1"* @_ZSt13back_inserterIN11xalanc_1_1011XalanVectorINS0_14XalanDOMStringENS0_31MemoryManagedConstructionTraitsIS2_EEEEESt20back_insert_iteratorIT_ERS7_(%"class.xalanc_1_10::XalanVector.1"* dereferenceable(32) %3), !dbg !4922
  %coerce.dive = getelementptr inbounds %"class.std::back_insert_iterator", %"class.std::back_insert_iterator"* %agg.tmp, i32 0, i32 0, !dbg !4922
  store %"class.xalanc_1_10::XalanVector.1"* %call, %"class.xalanc_1_10::XalanVector.1"** %coerce.dive, align 8, !dbg !4922
  %m_filterPredicate = getelementptr inbounds %"struct.xalanc_1_10::DirectoryEnumeratorFunctor.4", %"struct.xalanc_1_10::DirectoryEnumeratorFunctor.4"* %this1, i32 0, i32 0, !dbg !4923
  %m_conversionFunction = getelementptr inbounds %"struct.xalanc_1_10::DirectoryEnumeratorFunctor.4", %"struct.xalanc_1_10::DirectoryEnumeratorFunctor.4"* %this1, i32 0, i32 1, !dbg !4924
  %m_includeSelfAndParent = getelementptr inbounds %"struct.xalanc_1_10::DirectoryEnumeratorFunctor.4", %"struct.xalanc_1_10::DirectoryEnumeratorFunctor.4"* %this1, i32 0, i32 2, !dbg !4925
  %4 = load i8, i8* %m_includeSelfAndParent, align 2, !dbg !4925
  %tobool = trunc i8 %4 to i1, !dbg !4925
  %coerce.dive4 = getelementptr inbounds %"class.std::back_insert_iterator", %"class.std::back_insert_iterator"* %agg.tmp, i32 0, i32 0, !dbg !4926
  %5 = load %"class.xalanc_1_10::XalanVector.1"*, %"class.xalanc_1_10::XalanVector.1"** %coerce.dive4, align 8, !dbg !4926
  call void @_ZN11xalanc_1_1018EnumerateDirectoryISt20back_insert_iteratorINS_11XalanVectorINS_14XalanDOMStringENS_31MemoryManagedConstructionTraitsIS3_EEEEENS_24DirectoryFilterPredicateES3_NS_14c_wstr_functorEEEvRN11xercesc_2_713MemoryManagerERKT1_SF_T_T0_T2_b(%"class.xercesc_2_7::MemoryManager"* dereferenceable(8) %0, %"class.xalanc_1_10::XalanDOMString"* dereferenceable(40) %1, %"class.xalanc_1_10::XalanDOMString"* dereferenceable(40) %2, %"class.xalanc_1_10::XalanVector.1"* %5, i1 zeroext %tobool), !dbg !4926
  ret void, !dbg !4927
}

declare dso_local void @_ZN11xalanc_1_1014XalanDOMStringC1ERKS0_RN11xercesc_2_713MemoryManagerEjj(%"class.xalanc_1_10::XalanDOMString"*, %"class.xalanc_1_10::XalanDOMString"* dereferenceable(40), %"class.xercesc_2_7::MemoryManager"* dereferenceable(8), i32, i32) unnamed_addr #1

; Function Attrs: nounwind
declare dso_local i32 @mkdir(i8*, i32) #2

; Function Attrs: noinline uwtable
define linkonce_odr dso_local dereferenceable(272) %"class.std::basic_ostream"* @_ZN11xalanc_1_10lsERSoRKNS_11XalanVectorIcNS_31MemoryManagedConstructionTraitsIcEEEE(%"class.std::basic_ostream"* dereferenceable(272) %theStream, %"class.xalanc_1_10::XalanVector.0"* dereferenceable(32) %theString) #0 comdat !dbg !4928 {
entry:
  %theStream.addr = alloca %"class.std::basic_ostream"*, align 8
  %theString.addr = alloca %"class.xalanc_1_10::XalanVector.0"*, align 8
  store %"class.std::basic_ostream"* %theStream, %"class.std::basic_ostream"** %theStream.addr, align 8
  call void @llvm.dbg.declare(metadata %"class.std::basic_ostream"** %theStream.addr, metadata !4932, metadata !DIExpression()), !dbg !4933
  store %"class.xalanc_1_10::XalanVector.0"* %theString, %"class.xalanc_1_10::XalanVector.0"** %theString.addr, align 8
  call void @llvm.dbg.declare(metadata %"class.xalanc_1_10::XalanVector.0"** %theString.addr, metadata !4934, metadata !DIExpression()), !dbg !4935
  %0 = load %"class.std::basic_ostream"*, %"class.std::basic_ostream"** %theStream.addr, align 8, !dbg !4936
  %1 = load %"class.xalanc_1_10::XalanVector.0"*, %"class.xalanc_1_10::XalanVector.0"** %theString.addr, align 8, !dbg !4937
  call void @_ZN11xalanc_1_1012OutputStringERSoRKNS_11XalanVectorIcNS_31MemoryManagedConstructionTraitsIcEEEE(%"class.std::basic_ostream"* dereferenceable(272) %0, %"class.xalanc_1_10::XalanVector.0"* dereferenceable(32) %1), !dbg !4938
  %2 = load %"class.std::basic_ostream"*, %"class.std::basic_ostream"** %theStream.addr, align 8, !dbg !4939
  ret %"class.std::basic_ostream"* %2, !dbg !4940
}

; Function Attrs: noinline uwtable
define dso_local dereferenceable(40) %"class.xalanc_1_10::XalanDOMString"* @_ZN11xalanc_1_1016XalanFileUtility16generateFileNameERKNS_14XalanDOMStringEPKcRS1_Pb(%"class.xalanc_1_10::XalanFileUtility"* %this, %"class.xalanc_1_10::XalanDOMString"* dereferenceable(40) %theXMLFileName, i8* %suffix, %"class.xalanc_1_10::XalanDOMString"* dereferenceable(40) %targetFile, i8* %status) #0 align 2 personality i8* bitcast (i32 (...)* @__gxx_personality_v0 to i8*) !dbg !4941 {
entry:
  %this.addr = alloca %"class.xalanc_1_10::XalanFileUtility"*, align 8
  %theXMLFileName.addr = alloca %"class.xalanc_1_10::XalanDOMString"*, align 8
  %suffix.addr = alloca i8*, align 8
  %targetFile.addr = alloca %"class.xalanc_1_10::XalanDOMString"*, align 8
  %status.addr = alloca i8*, align 8
  %thePeriodIndex = alloca i32, align 4
  %theLength = alloca i32, align 4
  %i = alloca i32, align 4
  %ref.tmp = alloca %"class.xalanc_1_10::XalanDOMString", align 8
  %exn.slot = alloca i8*
  %ehselector.slot = alloca i32
  %theResult = alloca %"class.xalanc_1_10::XalanVector.0", align 8
  %fileHandle = alloca %struct._IO_FILE*, align 8
  store %"class.xalanc_1_10::XalanFileUtility"* %this, %"class.xalanc_1_10::XalanFileUtility"** %this.addr, align 8
  call void @llvm.dbg.declare(metadata %"class.xalanc_1_10::XalanFileUtility"** %this.addr, metadata !4942, metadata !DIExpression()), !dbg !4943
  store %"class.xalanc_1_10::XalanDOMString"* %theXMLFileName, %"class.xalanc_1_10::XalanDOMString"** %theXMLFileName.addr, align 8
  call void @llvm.dbg.declare(metadata %"class.xalanc_1_10::XalanDOMString"** %theXMLFileName.addr, metadata !4944, metadata !DIExpression()), !dbg !4945
  store i8* %suffix, i8** %suffix.addr, align 8
  call void @llvm.dbg.declare(metadata i8** %suffix.addr, metadata !4946, metadata !DIExpression()), !dbg !4947
  store %"class.xalanc_1_10::XalanDOMString"* %targetFile, %"class.xalanc_1_10::XalanDOMString"** %targetFile.addr, align 8
  call void @llvm.dbg.declare(metadata %"class.xalanc_1_10::XalanDOMString"** %targetFile.addr, metadata !4948, metadata !DIExpression()), !dbg !4949
  store i8* %status, i8** %status.addr, align 8
  call void @llvm.dbg.declare(metadata i8** %status.addr, metadata !4950, metadata !DIExpression()), !dbg !4951
  %this1 = load %"class.xalanc_1_10::XalanFileUtility"*, %"class.xalanc_1_10::XalanFileUtility"** %this.addr, align 8
  call void @llvm.dbg.declare(metadata i32* %thePeriodIndex, metadata !4952, metadata !DIExpression()), !dbg !4953
  store i32 -1, i32* %thePeriodIndex, align 4, !dbg !4953
  call void @llvm.dbg.declare(metadata i32* %theLength, metadata !4954, metadata !DIExpression()), !dbg !4956
  %0 = load %"class.xalanc_1_10::XalanDOMString"*, %"class.xalanc_1_10::XalanDOMString"** %theXMLFileName.addr, align 8, !dbg !4957
  %call = call i32 @_ZN11xalanc_1_106lengthERKNS_14XalanDOMStringE(%"class.xalanc_1_10::XalanDOMString"* dereferenceable(40) %0), !dbg !4958
  store i32 %call, i32* %theLength, align 4, !dbg !4956
  call void @llvm.dbg.declare(metadata i32* %i, metadata !4959, metadata !DIExpression()), !dbg !4961
  %1 = load i32, i32* %theLength, align 4, !dbg !4962
  %sub = sub nsw i32 %1, 1, !dbg !4963
  store i32 %sub, i32* %i, align 4, !dbg !4961
  br label %for.cond, !dbg !4964

for.cond:                                         ; preds = %for.inc, %entry
  %2 = load i32, i32* %i, align 4, !dbg !4965
  %cmp = icmp sgt i32 %2, 0, !dbg !4967
  br i1 %cmp, label %for.body, label %for.end, !dbg !4968

for.body:                                         ; preds = %for.cond
  %3 = load %"class.xalanc_1_10::XalanDOMString"*, %"class.xalanc_1_10::XalanDOMString"** %theXMLFileName.addr, align 8, !dbg !4969
  %4 = load i32, i32* %i, align 4, !dbg !4972
  %call2 = call zeroext i16 @_ZN11xalanc_1_106charAtERKNS_14XalanDOMStringEj(%"class.xalanc_1_10::XalanDOMString"* dereferenceable(40) %3, i32 %4), !dbg !4973
  %conv = zext i16 %call2 to i32, !dbg !4973
  %cmp3 = icmp eq i32 %conv, 46, !dbg !4974
  br i1 %cmp3, label %if.then, label %if.end, !dbg !4975

if.then:                                          ; preds = %for.body
  %5 = load i32, i32* %i, align 4, !dbg !4976
  store i32 %5, i32* %thePeriodIndex, align 4, !dbg !4978
  br label %for.end, !dbg !4979

if.end:                                           ; preds = %for.body
  br label %for.inc, !dbg !4980

for.inc:                                          ; preds = %if.end
  %6 = load i32, i32* %i, align 4, !dbg !4981
  %dec = add nsw i32 %6, -1, !dbg !4981
  store i32 %dec, i32* %i, align 4, !dbg !4981
  br label %for.cond, !dbg !4982, !llvm.loop !4983

for.end:                                          ; preds = %if.then, %for.cond
  %7 = load i32, i32* %thePeriodIndex, align 4, !dbg !4985
  %cmp4 = icmp ne i32 %7, -1, !dbg !4987
  br i1 %cmp4, label %if.then5, label %if.end8, !dbg !4988

if.then5:                                         ; preds = %for.end
  %8 = load %"class.xalanc_1_10::XalanDOMString"*, %"class.xalanc_1_10::XalanDOMString"** %targetFile.addr, align 8, !dbg !4989
  %9 = load %"class.xalanc_1_10::XalanDOMString"*, %"class.xalanc_1_10::XalanDOMString"** %theXMLFileName.addr, align 8, !dbg !4991
  %10 = load i32, i32* %thePeriodIndex, align 4, !dbg !4992
  %add = add nsw i32 %10, 1, !dbg !4993
  %call6 = call dereferenceable(40) %"class.xalanc_1_10::XalanDOMString"* @_ZN11xalanc_1_1014XalanDOMString6assignERKS0_jj(%"class.xalanc_1_10::XalanDOMString"* %8, %"class.xalanc_1_10::XalanDOMString"* dereferenceable(40) %9, i32 0, i32 %add), !dbg !4994
  %11 = load i8*, i8** %suffix.addr, align 8, !dbg !4995
  %m_memoryManager = getelementptr inbounds %"class.xalanc_1_10::XalanFileUtility", %"class.xalanc_1_10::XalanFileUtility"* %this1, i32 0, i32 2, !dbg !4996
  %12 = load %"class.xercesc_2_7::MemoryManager"*, %"class.xercesc_2_7::MemoryManager"** %m_memoryManager, align 8, !dbg !4996
  call void @_ZN11xalanc_1_1014XalanDOMStringC1EPKcRN11xercesc_2_713MemoryManagerEj(%"class.xalanc_1_10::XalanDOMString"* %ref.tmp, i8* %11, %"class.xercesc_2_7::MemoryManager"* dereferenceable(8) %12, i32 -1), !dbg !4997
  %13 = load %"class.xalanc_1_10::XalanDOMString"*, %"class.xalanc_1_10::XalanDOMString"** %targetFile.addr, align 8, !dbg !4998
  %call7 = invoke dereferenceable(40) %"class.xalanc_1_10::XalanDOMString"* @_ZN11xalanc_1_1014XalanDOMStringpLERKS0_(%"class.xalanc_1_10::XalanDOMString"* %13, %"class.xalanc_1_10::XalanDOMString"* dereferenceable(40) %ref.tmp)
          to label %invoke.cont unwind label %lpad, !dbg !4999

invoke.cont:                                      ; preds = %if.then5
  call void @_ZN11xalanc_1_1014XalanDOMStringD2Ev(%"class.xalanc_1_10::XalanDOMString"* %ref.tmp) #3, !dbg !4998
  br label %if.end8, !dbg !5000

lpad:                                             ; preds = %if.then5
  %14 = landingpad { i8*, i32 }
          cleanup, !dbg !5001
  %15 = extractvalue { i8*, i32 } %14, 0, !dbg !5001
  store i8* %15, i8** %exn.slot, align 8, !dbg !5001
  %16 = extractvalue { i8*, i32 } %14, 1, !dbg !5001
  store i32 %16, i32* %ehselector.slot, align 4, !dbg !5001
  call void @_ZN11xalanc_1_1014XalanDOMStringD2Ev(%"class.xalanc_1_10::XalanDOMString"* %ref.tmp) #3, !dbg !4998
  br label %eh.resume, !dbg !4998

if.end8:                                          ; preds = %invoke.cont, %for.end
  %17 = load i8*, i8** %suffix.addr, align 8, !dbg !5002
  %call9 = call i32 @strcmp(i8* %17, i8* getelementptr inbounds ([4 x i8], [4 x i8]* @.str.25, i64 0, i64 0)) #13, !dbg !5004
  %tobool = icmp ne i32 %call9, 0, !dbg !5004
  br i1 %tobool, label %if.end33, label %if.then10, !dbg !5005

if.then10:                                        ; preds = %if.end8
  call void @llvm.dbg.declare(metadata %"class.xalanc_1_10::XalanVector.0"* %theResult, metadata !5006, metadata !DIExpression()), !dbg !5008
  %m_memoryManager11 = getelementptr inbounds %"class.xalanc_1_10::XalanFileUtility", %"class.xalanc_1_10::XalanFileUtility"* %this1, i32 0, i32 2, !dbg !5009
  %18 = load %"class.xercesc_2_7::MemoryManager"*, %"class.xercesc_2_7::MemoryManager"** %m_memoryManager11, align 8, !dbg !5009
  call void @_ZN11xalanc_1_1011XalanVectorIcNS_31MemoryManagedConstructionTraitsIcEEEC2ERN11xercesc_2_713MemoryManagerEm(%"class.xalanc_1_10::XalanVector.0"* %theResult, %"class.xercesc_2_7::MemoryManager"* dereferenceable(8) %18, i64 0), !dbg !5008
  %19 = load %"class.xalanc_1_10::XalanDOMString"*, %"class.xalanc_1_10::XalanDOMString"** %targetFile.addr, align 8, !dbg !5010
  %call14 = invoke zeroext i1 @_ZN11xalanc_1_1024TranscodeToLocalCodePageERKNS_14XalanDOMStringERNS_11XalanVectorIcNS_31MemoryManagedConstructionTraitsIcEEEEb(%"class.xalanc_1_10::XalanDOMString"* dereferenceable(40) %19, %"class.xalanc_1_10::XalanVector.0"* dereferenceable(32) %theResult, i1 zeroext true)
          to label %invoke.cont13 unwind label %lpad12, !dbg !5011

invoke.cont13:                                    ; preds = %if.then10
  call void @llvm.dbg.declare(metadata %struct._IO_FILE** %fileHandle, metadata !5012, metadata !DIExpression()), !dbg !5013
  %call16 = invoke i8* @_ZN11xalanc_1_105c_strERKNS_11XalanVectorIcNS_31MemoryManagedConstructionTraitsIcEEEE(%"class.xalanc_1_10::XalanVector.0"* dereferenceable(32) %theResult)
          to label %invoke.cont15 unwind label %lpad12, !dbg !5014

invoke.cont15:                                    ; preds = %invoke.cont13
  %call18 = invoke %struct._IO_FILE* @fopen(i8* %call16, i8* getelementptr inbounds ([2 x i8], [2 x i8]* @.str.26, i64 0, i64 0))
          to label %invoke.cont17 unwind label %lpad12, !dbg !5015

invoke.cont17:                                    ; preds = %invoke.cont15
  store %struct._IO_FILE* %call18, %struct._IO_FILE** %fileHandle, align 8, !dbg !5013
  %20 = load %struct._IO_FILE*, %struct._IO_FILE** %fileHandle, align 8, !dbg !5016
  %cmp19 = icmp eq %struct._IO_FILE* %20, null, !dbg !5018
  br i1 %cmp19, label %if.then20, label %if.else, !dbg !5019

if.then20:                                        ; preds = %invoke.cont17
  %call22 = invoke dereferenceable(272) %"class.std::basic_ostream"* @_ZStlsISt11char_traitsIcEERSt13basic_ostreamIcT_ES5_PKc(%"class.std::basic_ostream"* dereferenceable(272) @_ZSt4cout, i8* getelementptr inbounds ([27 x i8], [27 x i8]* @.str.27, i64 0, i64 0))
          to label %invoke.cont21 unwind label %lpad12, !dbg !5020

invoke.cont21:                                    ; preds = %if.then20
  %21 = load %"class.xalanc_1_10::XalanDOMString"*, %"class.xalanc_1_10::XalanDOMString"** %targetFile.addr, align 8, !dbg !5022
  %call24 = invoke dereferenceable(272) %"class.std::basic_ostream"* @_ZN11xalanc_1_10lsERSoRNS_14XalanDOMStringE(%"class.std::basic_ostream"* dereferenceable(272) %call22, %"class.xalanc_1_10::XalanDOMString"* dereferenceable(40) %21)
          to label %invoke.cont23 unwind label %lpad12, !dbg !5023

invoke.cont23:                                    ; preds = %invoke.cont21
  %call26 = invoke dereferenceable(272) %"class.std::basic_ostream"* @_ZNSolsEPFRSoS_E(%"class.std::basic_ostream"* %call24, %"class.std::basic_ostream"* (%"class.std::basic_ostream"*)* @_ZSt4endlIcSt11char_traitsIcEERSt13basic_ostreamIT_T0_ES6_)
          to label %invoke.cont25 unwind label %lpad12, !dbg !5024

invoke.cont25:                                    ; preds = %invoke.cont23
  %22 = load i8*, i8** %status.addr, align 8, !dbg !5025
  %cmp27 = icmp ne i8* %22, null, !dbg !5027
  br i1 %cmp27, label %if.then28, label %if.end29, !dbg !5028

if.then28:                                        ; preds = %invoke.cont25
  %23 = load i8*, i8** %status.addr, align 8, !dbg !5029
  store i8 0, i8* %23, align 1, !dbg !5031
  br label %if.end29, !dbg !5032

lpad12:                                           ; preds = %if.else, %invoke.cont23, %invoke.cont21, %if.then20, %invoke.cont15, %invoke.cont13, %if.then10
  %24 = landingpad { i8*, i32 }
          cleanup, !dbg !5033
  %25 = extractvalue { i8*, i32 } %24, 0, !dbg !5033
  store i8* %25, i8** %exn.slot, align 8, !dbg !5033
  %26 = extractvalue { i8*, i32 } %24, 1, !dbg !5033
  store i32 %26, i32* %ehselector.slot, align 4, !dbg !5033
  call void @_ZN11xalanc_1_1011XalanVectorIcNS_31MemoryManagedConstructionTraitsIcEEED2Ev(%"class.xalanc_1_10::XalanVector.0"* %theResult) #3, !dbg !5034
  br label %eh.resume, !dbg !5034

if.end29:                                         ; preds = %if.then28, %invoke.cont25
  br label %if.end32, !dbg !5035

if.else:                                          ; preds = %invoke.cont17
  %27 = load %struct._IO_FILE*, %struct._IO_FILE** %fileHandle, align 8, !dbg !5036
  %call31 = invoke i32 @fclose(%struct._IO_FILE* %27)
          to label %invoke.cont30 unwind label %lpad12, !dbg !5038

invoke.cont30:                                    ; preds = %if.else
  br label %if.end32

if.end32:                                         ; preds = %invoke.cont30, %if.end29
  call void @_ZN11xalanc_1_1011XalanVectorIcNS_31MemoryManagedConstructionTraitsIcEEED2Ev(%"class.xalanc_1_10::XalanVector.0"* %theResult) #3, !dbg !5034
  br label %if.end33, !dbg !5039

if.end33:                                         ; preds = %if.end32, %if.end8
  %28 = load %"class.xalanc_1_10::XalanDOMString"*, %"class.xalanc_1_10::XalanDOMString"** %targetFile.addr, align 8, !dbg !5040
  ret %"class.xalanc_1_10::XalanDOMString"* %28, !dbg !5041

eh.resume:                                        ; preds = %lpad12, %lpad
  %exn = load i8*, i8** %exn.slot, align 8, !dbg !4998
  %sel = load i32, i32* %ehselector.slot, align 4, !dbg !4998
  %lpad.val = insertvalue { i8*, i32 } undef, i8* %exn, 0, !dbg !4998
  %lpad.val34 = insertvalue { i8*, i32 } %lpad.val, i32 %sel, 1, !dbg !4998
  resume { i8*, i32 } %lpad.val34, !dbg !4998
}

; Function Attrs: noinline uwtable
define linkonce_odr dso_local zeroext i16 @_ZN11xalanc_1_106charAtERKNS_14XalanDOMStringEj(%"class.xalanc_1_10::XalanDOMString"* dereferenceable(40) %theString, i32 %theIndex) #0 comdat !dbg !5042 {
entry:
  %theString.addr = alloca %"class.xalanc_1_10::XalanDOMString"*, align 8
  %theIndex.addr = alloca i32, align 4
  store %"class.xalanc_1_10::XalanDOMString"* %theString, %"class.xalanc_1_10::XalanDOMString"** %theString.addr, align 8
  call void @llvm.dbg.declare(metadata %"class.xalanc_1_10::XalanDOMString"** %theString.addr, metadata !5045, metadata !DIExpression()), !dbg !5046
  store i32 %theIndex, i32* %theIndex.addr, align 4
  call void @llvm.dbg.declare(metadata i32* %theIndex.addr, metadata !5047, metadata !DIExpression()), !dbg !5048
  %0 = load %"class.xalanc_1_10::XalanDOMString"*, %"class.xalanc_1_10::XalanDOMString"** %theString.addr, align 8, !dbg !5049
  %1 = load i32, i32* %theIndex.addr, align 4, !dbg !5050
  %call = call dereferenceable(2) i16* @_ZNK11xalanc_1_1014XalanDOMStringixEj(%"class.xalanc_1_10::XalanDOMString"* %0, i32 %1), !dbg !5049
  %2 = load i16, i16* %call, align 2, !dbg !5049
  ret i16 %2, !dbg !5051
}

declare dso_local %struct._IO_FILE* @fopen(i8*, i8*) #1

; Function Attrs: noinline uwtable
define linkonce_odr dso_local dereferenceable(272) %"class.std::basic_ostream"* @_ZN11xalanc_1_10lsERSoRNS_14XalanDOMStringE(%"class.std::basic_ostream"* dereferenceable(272) %theStream, %"class.xalanc_1_10::XalanDOMString"* dereferenceable(40) %theString) #0 comdat !dbg !5052 {
entry:
  %theStream.addr = alloca %"class.std::basic_ostream"*, align 8
  %theString.addr = alloca %"class.xalanc_1_10::XalanDOMString"*, align 8
  store %"class.std::basic_ostream"* %theStream, %"class.std::basic_ostream"** %theStream.addr, align 8
  call void @llvm.dbg.declare(metadata %"class.std::basic_ostream"** %theStream.addr, metadata !5055, metadata !DIExpression()), !dbg !5056
  store %"class.xalanc_1_10::XalanDOMString"* %theString, %"class.xalanc_1_10::XalanDOMString"** %theString.addr, align 8
  call void @llvm.dbg.declare(metadata %"class.xalanc_1_10::XalanDOMString"** %theString.addr, metadata !5057, metadata !DIExpression()), !dbg !5058
  %0 = load %"class.std::basic_ostream"*, %"class.std::basic_ostream"** %theStream.addr, align 8, !dbg !5059
  %1 = load %"class.xalanc_1_10::XalanDOMString"*, %"class.xalanc_1_10::XalanDOMString"** %theString.addr, align 8, !dbg !5060
  %2 = load %"class.xalanc_1_10::XalanDOMString"*, %"class.xalanc_1_10::XalanDOMString"** %theString.addr, align 8, !dbg !5061
  %call = call dereferenceable(8) %"class.xercesc_2_7::MemoryManager"* @_ZN11xalanc_1_1014XalanDOMString16getMemoryManagerEv(%"class.xalanc_1_10::XalanDOMString"* %2), !dbg !5062
  call void @_ZN11xalanc_1_1012OutputStringERSoRKNS_14XalanDOMStringERN11xercesc_2_713MemoryManagerE(%"class.std::basic_ostream"* dereferenceable(272) %0, %"class.xalanc_1_10::XalanDOMString"* dereferenceable(40) %1, %"class.xercesc_2_7::MemoryManager"* dereferenceable(8) %call), !dbg !5063
  %3 = load %"class.std::basic_ostream"*, %"class.std::basic_ostream"** %theStream.addr, align 8, !dbg !5064
  ret %"class.std::basic_ostream"* %3, !dbg !5065
}

declare dso_local i32 @fclose(%struct._IO_FILE*) #1

; Function Attrs: noinline uwtable
define dso_local dereferenceable(40) %"class.xalanc_1_10::XalanDOMString"* @_ZN11xalanc_1_1016XalanFileUtility17generateUniqRunidERNS_14XalanDOMStringE(%"class.xalanc_1_10::XalanFileUtility"* %this, %"class.xalanc_1_10::XalanDOMString"* dereferenceable(40) %theResult) #0 align 2 !dbg !5066 {
entry:
  %this.addr = alloca %"class.xalanc_1_10::XalanFileUtility"*, align 8
  %theResult.addr = alloca %"class.xalanc_1_10::XalanDOMString"*, align 8
  %newtime = alloca %struct.tm*, align 8
  %long_time = alloca i64, align 8
  %tmpbuf = alloca [10 x i8], align 1
  store %"class.xalanc_1_10::XalanFileUtility"* %this, %"class.xalanc_1_10::XalanFileUtility"** %this.addr, align 8
  call void @llvm.dbg.declare(metadata %"class.xalanc_1_10::XalanFileUtility"** %this.addr, metadata !5067, metadata !DIExpression()), !dbg !5068
  store %"class.xalanc_1_10::XalanDOMString"* %theResult, %"class.xalanc_1_10::XalanDOMString"** %theResult.addr, align 8
  call void @llvm.dbg.declare(metadata %"class.xalanc_1_10::XalanDOMString"** %theResult.addr, metadata !5069, metadata !DIExpression()), !dbg !5070
  %this1 = load %"class.xalanc_1_10::XalanFileUtility"*, %"class.xalanc_1_10::XalanFileUtility"** %this.addr, align 8
  call void @llvm.dbg.declare(metadata %struct.tm** %newtime, metadata !5071, metadata !DIExpression()), !dbg !5072
  call void @llvm.dbg.declare(metadata i64* %long_time, metadata !5073, metadata !DIExpression()), !dbg !5074
  call void @llvm.dbg.declare(metadata [10 x i8]* %tmpbuf, metadata !5075, metadata !DIExpression()), !dbg !5079
  %call = call i64 @time(i64* %long_time) #3, !dbg !5080
  %call2 = call %struct.tm* @localtime(i64* %long_time) #3, !dbg !5081
  store %struct.tm* %call2, %struct.tm** %newtime, align 8, !dbg !5082
  %arraydecay = getelementptr inbounds [10 x i8], [10 x i8]* %tmpbuf, i64 0, i64 0, !dbg !5083
  %0 = load %struct.tm*, %struct.tm** %newtime, align 8, !dbg !5084
  %call3 = call i64 @strftime(i8* %arraydecay, i64 10, i8* getelementptr inbounds ([9 x i8], [9 x i8]* @.str.28, i64 0, i64 0), %struct.tm* %0) #3, !dbg !5085
  %1 = load %"class.xalanc_1_10::XalanDOMString"*, %"class.xalanc_1_10::XalanDOMString"** %theResult.addr, align 8, !dbg !5086
  %arraydecay4 = getelementptr inbounds [10 x i8], [10 x i8]* %tmpbuf, i64 0, i64 0, !dbg !5087
  %call5 = call dereferenceable(40) %"class.xalanc_1_10::XalanDOMString"* @_ZN11xalanc_1_1014XalanDOMString6assignEPKc(%"class.xalanc_1_10::XalanDOMString"* %1, i8* %arraydecay4), !dbg !5088
  %2 = load %"class.xalanc_1_10::XalanDOMString"*, %"class.xalanc_1_10::XalanDOMString"** %theResult.addr, align 8, !dbg !5089
  ret %"class.xalanc_1_10::XalanDOMString"* %2, !dbg !5090
}

; Function Attrs: nounwind
declare dso_local i64 @time(i64*) #2

; Function Attrs: nounwind
declare dso_local %struct.tm* @localtime(i64*) #2

; Function Attrs: nounwind
declare dso_local i64 @strftime(i8*, i64, i8*, %struct.tm*) #2

; Function Attrs: noinline uwtable
define linkonce_odr dso_local dereferenceable(40) %"class.xalanc_1_10::XalanDOMString"* @_ZN11xalanc_1_1014XalanDOMString6assignEPKc(%"class.xalanc_1_10::XalanDOMString"* %this, i8* %theSource) #0 comdat align 2 !dbg !5091 {
entry:
  %this.addr = alloca %"class.xalanc_1_10::XalanDOMString"*, align 8
  %theSource.addr = alloca i8*, align 8
  store %"class.xalanc_1_10::XalanDOMString"* %this, %"class.xalanc_1_10::XalanDOMString"** %this.addr, align 8
  call void @llvm.dbg.declare(metadata %"class.xalanc_1_10::XalanDOMString"** %this.addr, metadata !5092, metadata !DIExpression()), !dbg !5093
  store i8* %theSource, i8** %theSource.addr, align 8
  call void @llvm.dbg.declare(metadata i8** %theSource.addr, metadata !5094, metadata !DIExpression()), !dbg !5095
  %this1 = load %"class.xalanc_1_10::XalanDOMString"*, %"class.xalanc_1_10::XalanDOMString"** %this.addr, align 8
  call void @_ZNK11xalanc_1_1014XalanDOMString10invariantsEv(%"class.xalanc_1_10::XalanDOMString"* %this1), !dbg !5096
  call void @_ZN11xalanc_1_1014XalanDOMString5eraseEjj(%"class.xalanc_1_10::XalanDOMString"* %this1, i32 0, i32 -1), !dbg !5097
  call void @_ZNK11xalanc_1_1014XalanDOMString10invariantsEv(%"class.xalanc_1_10::XalanDOMString"* %this1), !dbg !5098
  %0 = load i8*, i8** %theSource.addr, align 8, !dbg !5099
  %call = call dereferenceable(40) %"class.xalanc_1_10::XalanDOMString"* @_ZN11xalanc_1_1014XalanDOMString6appendEPKc(%"class.xalanc_1_10::XalanDOMString"* %this1, i8* %0), !dbg !5100
  ret %"class.xalanc_1_10::XalanDOMString"* %call, !dbg !5101
}

; Function Attrs: noinline uwtable
define dso_local dereferenceable(40) %"class.xalanc_1_10::XalanDOMString"* @_ZN11xalanc_1_1016XalanFileUtility16getXercesVersionERNS_14XalanDOMStringE(%"class.xalanc_1_10::XalanFileUtility"* %this, %"class.xalanc_1_10::XalanDOMString"* dereferenceable(40) %theResult) #0 align 2 !dbg !5102 {
entry:
  %this.addr = alloca %"class.xalanc_1_10::XalanFileUtility"*, align 8
  %theResult.addr = alloca %"class.xalanc_1_10::XalanDOMString"*, align 8
  store %"class.xalanc_1_10::XalanFileUtility"* %this, %"class.xalanc_1_10::XalanFileUtility"** %this.addr, align 8
  call void @llvm.dbg.declare(metadata %"class.xalanc_1_10::XalanFileUtility"** %this.addr, metadata !5103, metadata !DIExpression()), !dbg !5104
  store %"class.xalanc_1_10::XalanDOMString"* %theResult, %"class.xalanc_1_10::XalanDOMString"** %theResult.addr, align 8
  call void @llvm.dbg.declare(metadata %"class.xalanc_1_10::XalanDOMString"** %theResult.addr, metadata !5105, metadata !DIExpression()), !dbg !5106
  %this1 = load %"class.xalanc_1_10::XalanFileUtility"*, %"class.xalanc_1_10::XalanFileUtility"** %this.addr, align 8
  %0 = load %"class.xalanc_1_10::XalanDOMString"*, %"class.xalanc_1_10::XalanDOMString"** %theResult.addr, align 8, !dbg !5107
  %call = call dereferenceable(40) %"class.xalanc_1_10::XalanDOMString"* @_ZN11xalanc_1_1014XalanDOMString6assignEPKc(%"class.xalanc_1_10::XalanDOMString"* %0, i8* getelementptr inbounds ([6 x i8], [6 x i8]* @.str.29, i32 0, i32 0)), !dbg !5108
  %1 = load %"class.xalanc_1_10::XalanDOMString"*, %"class.xalanc_1_10::XalanDOMString"** %theResult.addr, align 8, !dbg !5109
  ret %"class.xalanc_1_10::XalanDOMString"* %1, !dbg !5110
}

; Function Attrs: noinline uwtable
define dso_local %"class.xalanc_1_10::FormatterListener"* @_ZN11xalanc_1_1016XalanFileUtility15getXMLFormatterERNS_11PrintWriterEiRKNS_14XalanDOMStringEPKNS_14StylesheetRootE(%"class.xalanc_1_10::XalanFileUtility"* %this, %"class.xalanc_1_10::PrintWriter"* dereferenceable(24) %resultWriter, i32 %indentAmount, %"class.xalanc_1_10::XalanDOMString"* dereferenceable(40) %mimeEncoding, %"class.xalanc_1_10::StylesheetRoot"* %stylesheet) #0 align 2 personality i8* bitcast (i32 (...)* @__gxx_personality_v0 to i8*) !dbg !5111 {
entry:
  %this.addr = alloca %"class.xalanc_1_10::XalanFileUtility"*, align 8
  %resultWriter.addr = alloca %"class.xalanc_1_10::PrintWriter"*, align 8
  %indentAmount.addr = alloca i32, align 4
  %mimeEncoding.addr = alloca %"class.xalanc_1_10::XalanDOMString"*, align 8
  %stylesheet.addr = alloca %"class.xalanc_1_10::StylesheetRoot"*, align 8
  %version = alloca %"class.xalanc_1_10::XalanDOMString", align 8
  %outputIndent = alloca i8, align 1
  %mediatype = alloca %"class.xalanc_1_10::XalanDOMString", align 8
  %exn.slot = alloca i8*
  %ehselector.slot = alloca i32
  %doctypeSystem = alloca %"class.xalanc_1_10::XalanDOMString", align 8
  %doctypePublic = alloca %"class.xalanc_1_10::XalanDOMString", align 8
  %standalone = alloca %"class.xalanc_1_10::XalanDOMString", align 8
  %theBuffer = alloca %"class.xalanc_1_10::XalanDOMString", align 8
  store %"class.xalanc_1_10::XalanFileUtility"* %this, %"class.xalanc_1_10::XalanFileUtility"** %this.addr, align 8
  call void @llvm.dbg.declare(metadata %"class.xalanc_1_10::XalanFileUtility"** %this.addr, metadata !5112, metadata !DIExpression()), !dbg !5113
  store %"class.xalanc_1_10::PrintWriter"* %resultWriter, %"class.xalanc_1_10::PrintWriter"** %resultWriter.addr, align 8
  call void @llvm.dbg.declare(metadata %"class.xalanc_1_10::PrintWriter"** %resultWriter.addr, metadata !5114, metadata !DIExpression()), !dbg !5115
  store i32 %indentAmount, i32* %indentAmount.addr, align 4
  call void @llvm.dbg.declare(metadata i32* %indentAmount.addr, metadata !5116, metadata !DIExpression()), !dbg !5117
  store %"class.xalanc_1_10::XalanDOMString"* %mimeEncoding, %"class.xalanc_1_10::XalanDOMString"** %mimeEncoding.addr, align 8
  call void @llvm.dbg.declare(metadata %"class.xalanc_1_10::XalanDOMString"** %mimeEncoding.addr, metadata !5118, metadata !DIExpression()), !dbg !5119
  store %"class.xalanc_1_10::StylesheetRoot"* %stylesheet, %"class.xalanc_1_10::StylesheetRoot"** %stylesheet.addr, align 8
  call void @llvm.dbg.declare(metadata %"class.xalanc_1_10::StylesheetRoot"** %stylesheet.addr, metadata !5120, metadata !DIExpression()), !dbg !5121
  %this1 = load %"class.xalanc_1_10::XalanFileUtility"*, %"class.xalanc_1_10::XalanFileUtility"** %this.addr, align 8
  call void @llvm.dbg.declare(metadata %"class.xalanc_1_10::XalanDOMString"* %version, metadata !5122, metadata !DIExpression()), !dbg !5123
  %m_memoryManager = getelementptr inbounds %"class.xalanc_1_10::XalanFileUtility", %"class.xalanc_1_10::XalanFileUtility"* %this1, i32 0, i32 2, !dbg !5124
  %0 = load %"class.xercesc_2_7::MemoryManager"*, %"class.xercesc_2_7::MemoryManager"** %m_memoryManager, align 8, !dbg !5124
  call void @_ZN11xalanc_1_1014XalanDOMStringC1ERN11xercesc_2_713MemoryManagerE(%"class.xalanc_1_10::XalanDOMString"* %version, %"class.xercesc_2_7::MemoryManager"* dereferenceable(8) %0), !dbg !5123
  call void @llvm.dbg.declare(metadata i8* %outputIndent, metadata !5125, metadata !DIExpression()), !dbg !5126
  store i8 0, i8* %outputIndent, align 1, !dbg !5126
  call void @llvm.dbg.declare(metadata %"class.xalanc_1_10::XalanDOMString"* %mediatype, metadata !5127, metadata !DIExpression()), !dbg !5128
  %m_memoryManager2 = getelementptr inbounds %"class.xalanc_1_10::XalanFileUtility", %"class.xalanc_1_10::XalanFileUtility"* %this1, i32 0, i32 2, !dbg !5129
  %1 = load %"class.xercesc_2_7::MemoryManager"*, %"class.xercesc_2_7::MemoryManager"** %m_memoryManager2, align 8, !dbg !5129
  invoke void @_ZN11xalanc_1_1014XalanDOMStringC1ERN11xercesc_2_713MemoryManagerE(%"class.xalanc_1_10::XalanDOMString"* %mediatype, %"class.xercesc_2_7::MemoryManager"* dereferenceable(8) %1)
          to label %invoke.cont unwind label %lpad, !dbg !5128

invoke.cont:                                      ; preds = %entry
  call void @llvm.dbg.declare(metadata %"class.xalanc_1_10::XalanDOMString"* %doctypeSystem, metadata !5130, metadata !DIExpression()), !dbg !5131
  %m_memoryManager3 = getelementptr inbounds %"class.xalanc_1_10::XalanFileUtility", %"class.xalanc_1_10::XalanFileUtility"* %this1, i32 0, i32 2, !dbg !5132
  %2 = load %"class.xercesc_2_7::MemoryManager"*, %"class.xercesc_2_7::MemoryManager"** %m_memoryManager3, align 8, !dbg !5132
  invoke void @_ZN11xalanc_1_1014XalanDOMStringC1ERN11xercesc_2_713MemoryManagerE(%"class.xalanc_1_10::XalanDOMString"* %doctypeSystem, %"class.xercesc_2_7::MemoryManager"* dereferenceable(8) %2)
          to label %invoke.cont5 unwind label %lpad4, !dbg !5131

invoke.cont5:                                     ; preds = %invoke.cont
  call void @llvm.dbg.declare(metadata %"class.xalanc_1_10::XalanDOMString"* %doctypePublic, metadata !5133, metadata !DIExpression()), !dbg !5134
  %m_memoryManager6 = getelementptr inbounds %"class.xalanc_1_10::XalanFileUtility", %"class.xalanc_1_10::XalanFileUtility"* %this1, i32 0, i32 2, !dbg !5135
  %3 = load %"class.xercesc_2_7::MemoryManager"*, %"class.xercesc_2_7::MemoryManager"** %m_memoryManager6, align 8, !dbg !5135
  invoke void @_ZN11xalanc_1_1014XalanDOMStringC1ERN11xercesc_2_713MemoryManagerE(%"class.xalanc_1_10::XalanDOMString"* %doctypePublic, %"class.xercesc_2_7::MemoryManager"* dereferenceable(8) %3)
          to label %invoke.cont8 unwind label %lpad7, !dbg !5134

invoke.cont8:                                     ; preds = %invoke.cont5
  call void @llvm.dbg.declare(metadata %"class.xalanc_1_10::XalanDOMString"* %standalone, metadata !5136, metadata !DIExpression()), !dbg !5137
  %m_memoryManager9 = getelementptr inbounds %"class.xalanc_1_10::XalanFileUtility", %"class.xalanc_1_10::XalanFileUtility"* %this1, i32 0, i32 2, !dbg !5138
  %4 = load %"class.xercesc_2_7::MemoryManager"*, %"class.xercesc_2_7::MemoryManager"** %m_memoryManager9, align 8, !dbg !5138
  invoke void @_ZN11xalanc_1_1014XalanDOMStringC1ERN11xercesc_2_713MemoryManagerE(%"class.xalanc_1_10::XalanDOMString"* %standalone, %"class.xercesc_2_7::MemoryManager"* dereferenceable(8) %4)
          to label %invoke.cont11 unwind label %lpad10, !dbg !5137

invoke.cont11:                                    ; preds = %invoke.cont8
  %5 = load %"class.xalanc_1_10::StylesheetRoot"*, %"class.xalanc_1_10::StylesheetRoot"** %stylesheet.addr, align 8, !dbg !5139
  %cmp = icmp ne %"class.xalanc_1_10::StylesheetRoot"* %5, null, !dbg !5141
  br i1 %cmp, label %if.then, label %if.end, !dbg !5142

if.then:                                          ; preds = %invoke.cont11
  call void @llvm.dbg.declare(metadata %"class.xalanc_1_10::XalanDOMString"* %theBuffer, metadata !5143, metadata !DIExpression()), !dbg !5145
  %m_memoryManager12 = getelementptr inbounds %"class.xalanc_1_10::XalanFileUtility", %"class.xalanc_1_10::XalanFileUtility"* %this1, i32 0, i32 2, !dbg !5146
  %6 = load %"class.xercesc_2_7::MemoryManager"*, %"class.xercesc_2_7::MemoryManager"** %m_memoryManager12, align 8, !dbg !5146
  invoke void @_ZN11xalanc_1_1014XalanDOMStringC1ERN11xercesc_2_713MemoryManagerE(%"class.xalanc_1_10::XalanDOMString"* %theBuffer, %"class.xercesc_2_7::MemoryManager"* dereferenceable(8) %6)
          to label %invoke.cont14 unwind label %lpad13, !dbg !5145

invoke.cont14:                                    ; preds = %if.then
  %7 = load %"class.xalanc_1_10::StylesheetRoot"*, %"class.xalanc_1_10::StylesheetRoot"** %stylesheet.addr, align 8, !dbg !5147
  %call = invoke dereferenceable(40) %"class.xalanc_1_10::XalanDOMString"* @_ZNK11xalanc_1_1014StylesheetRoot16getOutputVersionERNS_14XalanDOMStringE(%"class.xalanc_1_10::StylesheetRoot"* %7, %"class.xalanc_1_10::XalanDOMString"* dereferenceable(40) %theBuffer)
          to label %invoke.cont16 unwind label %lpad15, !dbg !5148

invoke.cont16:                                    ; preds = %invoke.cont14
  %call18 = invoke dereferenceable(40) %"class.xalanc_1_10::XalanDOMString"* @_ZN11xalanc_1_1014XalanDOMStringaSERKS0_(%"class.xalanc_1_10::XalanDOMString"* %version, %"class.xalanc_1_10::XalanDOMString"* dereferenceable(40) %call)
          to label %invoke.cont17 unwind label %lpad15, !dbg !5149

invoke.cont17:                                    ; preds = %invoke.cont16
  %8 = load %"class.xalanc_1_10::StylesheetRoot"*, %"class.xalanc_1_10::StylesheetRoot"** %stylesheet.addr, align 8, !dbg !5150
  %call20 = invoke dereferenceable(40) %"class.xalanc_1_10::XalanDOMString"* @_ZNK11xalanc_1_1014StylesheetRoot18getOutputMediaTypeERNS_14XalanDOMStringE(%"class.xalanc_1_10::StylesheetRoot"* %8, %"class.xalanc_1_10::XalanDOMString"* dereferenceable(40) %theBuffer)
          to label %invoke.cont19 unwind label %lpad15, !dbg !5151

invoke.cont19:                                    ; preds = %invoke.cont17
  %call22 = invoke dereferenceable(40) %"class.xalanc_1_10::XalanDOMString"* @_ZN11xalanc_1_1014XalanDOMStringaSERKS0_(%"class.xalanc_1_10::XalanDOMString"* %mediatype, %"class.xalanc_1_10::XalanDOMString"* dereferenceable(40) %call20)
          to label %invoke.cont21 unwind label %lpad15, !dbg !5152

invoke.cont21:                                    ; preds = %invoke.cont19
  %9 = load %"class.xalanc_1_10::StylesheetRoot"*, %"class.xalanc_1_10::StylesheetRoot"** %stylesheet.addr, align 8, !dbg !5153
  %call24 = invoke dereferenceable(40) %"class.xalanc_1_10::XalanDOMString"* @_ZNK11xalanc_1_1014StylesheetRoot22getOutputDoctypeSystemERNS_14XalanDOMStringE(%"class.xalanc_1_10::StylesheetRoot"* %9, %"class.xalanc_1_10::XalanDOMString"* dereferenceable(40) %theBuffer)
          to label %invoke.cont23 unwind label %lpad15, !dbg !5154

invoke.cont23:                                    ; preds = %invoke.cont21
  %call26 = invoke dereferenceable(40) %"class.xalanc_1_10::XalanDOMString"* @_ZN11xalanc_1_1014XalanDOMStringaSERKS0_(%"class.xalanc_1_10::XalanDOMString"* %doctypeSystem, %"class.xalanc_1_10::XalanDOMString"* dereferenceable(40) %call24)
          to label %invoke.cont25 unwind label %lpad15, !dbg !5155

invoke.cont25:                                    ; preds = %invoke.cont23
  %10 = load %"class.xalanc_1_10::StylesheetRoot"*, %"class.xalanc_1_10::StylesheetRoot"** %stylesheet.addr, align 8, !dbg !5156
  %call28 = invoke dereferenceable(40) %"class.xalanc_1_10::XalanDOMString"* @_ZNK11xalanc_1_1014StylesheetRoot22getOutputDoctypePublicERNS_14XalanDOMStringE(%"class.xalanc_1_10::StylesheetRoot"* %10, %"class.xalanc_1_10::XalanDOMString"* dereferenceable(40) %theBuffer)
          to label %invoke.cont27 unwind label %lpad15, !dbg !5157

invoke.cont27:                                    ; preds = %invoke.cont25
  %call30 = invoke dereferenceable(40) %"class.xalanc_1_10::XalanDOMString"* @_ZN11xalanc_1_1014XalanDOMStringaSERKS0_(%"class.xalanc_1_10::XalanDOMString"* %doctypePublic, %"class.xalanc_1_10::XalanDOMString"* dereferenceable(40) %call28)
          to label %invoke.cont29 unwind label %lpad15, !dbg !5158

invoke.cont29:                                    ; preds = %invoke.cont27
  %11 = load %"class.xalanc_1_10::StylesheetRoot"*, %"class.xalanc_1_10::StylesheetRoot"** %stylesheet.addr, align 8, !dbg !5159
  %call32 = invoke dereferenceable(40) %"class.xalanc_1_10::XalanDOMString"* @_ZNK11xalanc_1_1014StylesheetRoot19getOutputStandaloneERNS_14XalanDOMStringE(%"class.xalanc_1_10::StylesheetRoot"* %11, %"class.xalanc_1_10::XalanDOMString"* dereferenceable(40) %theBuffer)
          to label %invoke.cont31 unwind label %lpad15, !dbg !5160

invoke.cont31:                                    ; preds = %invoke.cont29
  %call34 = invoke dereferenceable(40) %"class.xalanc_1_10::XalanDOMString"* @_ZN11xalanc_1_1014XalanDOMStringaSERKS0_(%"class.xalanc_1_10::XalanDOMString"* %standalone, %"class.xalanc_1_10::XalanDOMString"* dereferenceable(40) %call32)
          to label %invoke.cont33 unwind label %lpad15, !dbg !5161

invoke.cont33:                                    ; preds = %invoke.cont31
  %12 = load %"class.xalanc_1_10::StylesheetRoot"*, %"class.xalanc_1_10::StylesheetRoot"** %stylesheet.addr, align 8, !dbg !5162
  %call36 = invoke zeroext i1 @_ZNK11xalanc_1_1014StylesheetRoot15getOutputIndentEv(%"class.xalanc_1_10::StylesheetRoot"* %12)
          to label %invoke.cont35 unwind label %lpad15, !dbg !5163

invoke.cont35:                                    ; preds = %invoke.cont33
  %frombool = zext i1 %call36 to i8, !dbg !5164
  store i8 %frombool, i8* %outputIndent, align 1, !dbg !5164
  call void @_ZN11xalanc_1_1014XalanDOMStringD2Ev(%"class.xalanc_1_10::XalanDOMString"* %theBuffer) #3, !dbg !5165
  br label %if.end, !dbg !5166

lpad:                                             ; preds = %entry
  %13 = landingpad { i8*, i32 }
          cleanup, !dbg !5167
  %14 = extractvalue { i8*, i32 } %13, 0, !dbg !5167
  store i8* %14, i8** %exn.slot, align 8, !dbg !5167
  %15 = extractvalue { i8*, i32 } %13, 1, !dbg !5167
  store i32 %15, i32* %ehselector.slot, align 4, !dbg !5167
  br label %ehcleanup44, !dbg !5167

lpad4:                                            ; preds = %invoke.cont
  %16 = landingpad { i8*, i32 }
          cleanup, !dbg !5167
  %17 = extractvalue { i8*, i32 } %16, 0, !dbg !5167
  store i8* %17, i8** %exn.slot, align 8, !dbg !5167
  %18 = extractvalue { i8*, i32 } %16, 1, !dbg !5167
  store i32 %18, i32* %ehselector.slot, align 4, !dbg !5167
  br label %ehcleanup43, !dbg !5167

lpad7:                                            ; preds = %invoke.cont5
  %19 = landingpad { i8*, i32 }
          cleanup, !dbg !5167
  %20 = extractvalue { i8*, i32 } %19, 0, !dbg !5167
  store i8* %20, i8** %exn.slot, align 8, !dbg !5167
  %21 = extractvalue { i8*, i32 } %19, 1, !dbg !5167
  store i32 %21, i32* %ehselector.slot, align 4, !dbg !5167
  br label %ehcleanup42, !dbg !5167

lpad10:                                           ; preds = %invoke.cont8
  %22 = landingpad { i8*, i32 }
          cleanup, !dbg !5167
  %23 = extractvalue { i8*, i32 } %22, 0, !dbg !5167
  store i8* %23, i8** %exn.slot, align 8, !dbg !5167
  %24 = extractvalue { i8*, i32 } %22, 1, !dbg !5167
  store i32 %24, i32* %ehselector.slot, align 4, !dbg !5167
  br label %ehcleanup41, !dbg !5167

lpad13:                                           ; preds = %invoke.cont37, %if.end, %if.then
  %25 = landingpad { i8*, i32 }
          cleanup, !dbg !5168
  %26 = extractvalue { i8*, i32 } %25, 0, !dbg !5168
  store i8* %26, i8** %exn.slot, align 8, !dbg !5168
  %27 = extractvalue { i8*, i32 } %25, 1, !dbg !5168
  store i32 %27, i32* %ehselector.slot, align 4, !dbg !5168
  br label %ehcleanup, !dbg !5168

lpad15:                                           ; preds = %invoke.cont33, %invoke.cont31, %invoke.cont29, %invoke.cont27, %invoke.cont25, %invoke.cont23, %invoke.cont21, %invoke.cont19, %invoke.cont17, %invoke.cont16, %invoke.cont14
  %28 = landingpad { i8*, i32 }
          cleanup, !dbg !5168
  %29 = extractvalue { i8*, i32 } %28, 0, !dbg !5168
  store i8* %29, i8** %exn.slot, align 8, !dbg !5168
  %30 = extractvalue { i8*, i32 } %28, 1, !dbg !5168
  store i32 %30, i32* %ehselector.slot, align 4, !dbg !5168
  call void @_ZN11xalanc_1_1014XalanDOMStringD2Ev(%"class.xalanc_1_10::XalanDOMString"* %theBuffer) #3, !dbg !5165
  br label %ehcleanup, !dbg !5165

if.end:                                           ; preds = %invoke.cont35, %invoke.cont11
  %31 = load %"class.xalanc_1_10::PrintWriter"*, %"class.xalanc_1_10::PrintWriter"** %resultWriter.addr, align 8, !dbg !5169
  %call38 = invoke dereferenceable(8) %"class.xercesc_2_7::MemoryManager"* @_ZN11xalanc_1_1011PrintWriter16getMemoryManagerEv(%"class.xalanc_1_10::PrintWriter"* %31)
          to label %invoke.cont37 unwind label %lpad13, !dbg !5170

invoke.cont37:                                    ; preds = %if.end
  %32 = load %"class.xalanc_1_10::PrintWriter"*, %"class.xalanc_1_10::PrintWriter"** %resultWriter.addr, align 8, !dbg !5171
  %33 = bitcast %"class.xalanc_1_10::PrintWriter"* %32 to %"class.xalanc_1_10::Writer"*, !dbg !5171
  %34 = load i8, i8* %outputIndent, align 1, !dbg !5172
  %tobool = trunc i8 %34 to i1, !dbg !5172
  %35 = load i32, i32* %indentAmount.addr, align 4, !dbg !5173
  %36 = load %"class.xalanc_1_10::XalanDOMString"*, %"class.xalanc_1_10::XalanDOMString"** %mimeEncoding.addr, align 8, !dbg !5174
  %call40 = invoke %"class.xalanc_1_10::FormatterToXML"* @_ZN11xalanc_1_1014FormatterToXML6createERN11xercesc_2_713MemoryManagerERNS_6WriterERKNS_14XalanDOMStringEbiS8_S8_S8_S8_bS8_NS_17FormatterListener7eFormatEb(%"class.xercesc_2_7::MemoryManager"* dereferenceable(8) %call38, %"class.xalanc_1_10::Writer"* dereferenceable(8) %33, %"class.xalanc_1_10::XalanDOMString"* dereferenceable(40) %version, i1 zeroext %tobool, i32 %35, %"class.xalanc_1_10::XalanDOMString"* dereferenceable(40) %36, %"class.xalanc_1_10::XalanDOMString"* dereferenceable(40) %mediatype, %"class.xalanc_1_10::XalanDOMString"* dereferenceable(40) %doctypeSystem, %"class.xalanc_1_10::XalanDOMString"* dereferenceable(40) %doctypePublic, i1 zeroext true, %"class.xalanc_1_10::XalanDOMString"* dereferenceable(40) %standalone, i32 1, i1 zeroext true)
          to label %invoke.cont39 unwind label %lpad13, !dbg !5175

invoke.cont39:                                    ; preds = %invoke.cont37
  %37 = bitcast %"class.xalanc_1_10::FormatterToXML"* %call40 to %"class.xalanc_1_10::FormatterListener"*, !dbg !5175
  call void @_ZN11xalanc_1_1014XalanDOMStringD2Ev(%"class.xalanc_1_10::XalanDOMString"* %standalone) #3, !dbg !5167
  call void @_ZN11xalanc_1_1014XalanDOMStringD2Ev(%"class.xalanc_1_10::XalanDOMString"* %doctypePublic) #3, !dbg !5167
  call void @_ZN11xalanc_1_1014XalanDOMStringD2Ev(%"class.xalanc_1_10::XalanDOMString"* %doctypeSystem) #3, !dbg !5167
  call void @_ZN11xalanc_1_1014XalanDOMStringD2Ev(%"class.xalanc_1_10::XalanDOMString"* %mediatype) #3, !dbg !5167
  call void @_ZN11xalanc_1_1014XalanDOMStringD2Ev(%"class.xalanc_1_10::XalanDOMString"* %version) #3, !dbg !5167
  ret %"class.xalanc_1_10::FormatterListener"* %37, !dbg !5167

ehcleanup:                                        ; preds = %lpad15, %lpad13
  call void @_ZN11xalanc_1_1014XalanDOMStringD2Ev(%"class.xalanc_1_10::XalanDOMString"* %standalone) #3, !dbg !5167
  br label %ehcleanup41, !dbg !5167

ehcleanup41:                                      ; preds = %ehcleanup, %lpad10
  call void @_ZN11xalanc_1_1014XalanDOMStringD2Ev(%"class.xalanc_1_10::XalanDOMString"* %doctypePublic) #3, !dbg !5167
  br label %ehcleanup42, !dbg !5167

ehcleanup42:                                      ; preds = %ehcleanup41, %lpad7
  call void @_ZN11xalanc_1_1014XalanDOMStringD2Ev(%"class.xalanc_1_10::XalanDOMString"* %doctypeSystem) #3, !dbg !5167
  br label %ehcleanup43, !dbg !5167

ehcleanup43:                                      ; preds = %ehcleanup42, %lpad4
  call void @_ZN11xalanc_1_1014XalanDOMStringD2Ev(%"class.xalanc_1_10::XalanDOMString"* %mediatype) #3, !dbg !5167
  br label %ehcleanup44, !dbg !5167

ehcleanup44:                                      ; preds = %ehcleanup43, %lpad
  call void @_ZN11xalanc_1_1014XalanDOMStringD2Ev(%"class.xalanc_1_10::XalanDOMString"* %version) #3, !dbg !5167
  br label %eh.resume, !dbg !5167

eh.resume:                                        ; preds = %ehcleanup44
  %exn = load i8*, i8** %exn.slot, align 8, !dbg !5167
  %sel = load i32, i32* %ehselector.slot, align 4, !dbg !5167
  %lpad.val = insertvalue { i8*, i32 } undef, i8* %exn, 0, !dbg !5167
  %lpad.val45 = insertvalue { i8*, i32 } %lpad.val, i32 %sel, 1, !dbg !5167
  resume { i8*, i32 } %lpad.val45, !dbg !5167
}

; Function Attrs: noinline uwtable
define linkonce_odr dso_local dereferenceable(40) %"class.xalanc_1_10::XalanDOMString"* @_ZNK11xalanc_1_1014StylesheetRoot16getOutputVersionERNS_14XalanDOMStringE(%"class.xalanc_1_10::StylesheetRoot"* %this, %"class.xalanc_1_10::XalanDOMString"* dereferenceable(40) %theResult) #0 comdat align 2 !dbg !5176 {
entry:
  %this.addr = alloca %"class.xalanc_1_10::StylesheetRoot"*, align 8
  %theResult.addr = alloca %"class.xalanc_1_10::XalanDOMString"*, align 8
  store %"class.xalanc_1_10::StylesheetRoot"* %this, %"class.xalanc_1_10::StylesheetRoot"** %this.addr, align 8
  call void @llvm.dbg.declare(metadata %"class.xalanc_1_10::StylesheetRoot"** %this.addr, metadata !5181, metadata !DIExpression()), !dbg !5182
  store %"class.xalanc_1_10::XalanDOMString"* %theResult, %"class.xalanc_1_10::XalanDOMString"** %theResult.addr, align 8
  call void @llvm.dbg.declare(metadata %"class.xalanc_1_10::XalanDOMString"** %theResult.addr, metadata !5183, metadata !DIExpression()), !dbg !5184
  %this1 = load %"class.xalanc_1_10::StylesheetRoot"*, %"class.xalanc_1_10::StylesheetRoot"** %this.addr, align 8
  %0 = load %"class.xalanc_1_10::XalanDOMString"*, %"class.xalanc_1_10::XalanDOMString"** %theResult.addr, align 8, !dbg !5185
  %m_version = getelementptr inbounds %"class.xalanc_1_10::StylesheetRoot", %"class.xalanc_1_10::StylesheetRoot"* %this1, i32 0, i32 1, !dbg !5186
  %call = call dereferenceable(40) %"class.xalanc_1_10::XalanDOMString"* @_ZN11xalanc_1_1014XalanDOMString6assignERKS0_(%"class.xalanc_1_10::XalanDOMString"* %0, %"class.xalanc_1_10::XalanDOMString"* dereferenceable(40) %m_version), !dbg !5187
  %1 = load %"class.xalanc_1_10::XalanDOMString"*, %"class.xalanc_1_10::XalanDOMString"** %theResult.addr, align 8, !dbg !5188
  ret %"class.xalanc_1_10::XalanDOMString"* %1, !dbg !5189
}

; Function Attrs: noinline uwtable
define linkonce_odr dso_local dereferenceable(40) %"class.xalanc_1_10::XalanDOMString"* @_ZNK11xalanc_1_1014StylesheetRoot18getOutputMediaTypeERNS_14XalanDOMStringE(%"class.xalanc_1_10::StylesheetRoot"* %this, %"class.xalanc_1_10::XalanDOMString"* dereferenceable(40) %theResult) #0 comdat align 2 !dbg !5190 {
entry:
  %this.addr = alloca %"class.xalanc_1_10::StylesheetRoot"*, align 8
  %theResult.addr = alloca %"class.xalanc_1_10::XalanDOMString"*, align 8
  store %"class.xalanc_1_10::StylesheetRoot"* %this, %"class.xalanc_1_10::StylesheetRoot"** %this.addr, align 8
  call void @llvm.dbg.declare(metadata %"class.xalanc_1_10::StylesheetRoot"** %this.addr, metadata !5192, metadata !DIExpression()), !dbg !5193
  store %"class.xalanc_1_10::XalanDOMString"* %theResult, %"class.xalanc_1_10::XalanDOMString"** %theResult.addr, align 8
  call void @llvm.dbg.declare(metadata %"class.xalanc_1_10::XalanDOMString"** %theResult.addr, metadata !5194, metadata !DIExpression()), !dbg !5195
  %this1 = load %"class.xalanc_1_10::StylesheetRoot"*, %"class.xalanc_1_10::StylesheetRoot"** %this.addr, align 8
  %0 = load %"class.xalanc_1_10::XalanDOMString"*, %"class.xalanc_1_10::XalanDOMString"** %theResult.addr, align 8, !dbg !5196
  %m_mediatype = getelementptr inbounds %"class.xalanc_1_10::StylesheetRoot", %"class.xalanc_1_10::StylesheetRoot"* %this1, i32 0, i32 5, !dbg !5197
  %call = call dereferenceable(40) %"class.xalanc_1_10::XalanDOMString"* @_ZN11xalanc_1_1014XalanDOMString6assignERKS0_(%"class.xalanc_1_10::XalanDOMString"* %0, %"class.xalanc_1_10::XalanDOMString"* dereferenceable(40) %m_mediatype), !dbg !5198
  %1 = load %"class.xalanc_1_10::XalanDOMString"*, %"class.xalanc_1_10::XalanDOMString"** %theResult.addr, align 8, !dbg !5199
  ret %"class.xalanc_1_10::XalanDOMString"* %1, !dbg !5200
}

; Function Attrs: noinline uwtable
define linkonce_odr dso_local dereferenceable(40) %"class.xalanc_1_10::XalanDOMString"* @_ZNK11xalanc_1_1014StylesheetRoot22getOutputDoctypeSystemERNS_14XalanDOMStringE(%"class.xalanc_1_10::StylesheetRoot"* %this, %"class.xalanc_1_10::XalanDOMString"* dereferenceable(40) %theResult) #0 comdat align 2 !dbg !5201 {
entry:
  %this.addr = alloca %"class.xalanc_1_10::StylesheetRoot"*, align 8
  %theResult.addr = alloca %"class.xalanc_1_10::XalanDOMString"*, align 8
  store %"class.xalanc_1_10::StylesheetRoot"* %this, %"class.xalanc_1_10::StylesheetRoot"** %this.addr, align 8
  call void @llvm.dbg.declare(metadata %"class.xalanc_1_10::StylesheetRoot"** %this.addr, metadata !5203, metadata !DIExpression()), !dbg !5204
  store %"class.xalanc_1_10::XalanDOMString"* %theResult, %"class.xalanc_1_10::XalanDOMString"** %theResult.addr, align 8
  call void @llvm.dbg.declare(metadata %"class.xalanc_1_10::XalanDOMString"** %theResult.addr, metadata !5205, metadata !DIExpression()), !dbg !5206
  %this1 = load %"class.xalanc_1_10::StylesheetRoot"*, %"class.xalanc_1_10::StylesheetRoot"** %this.addr, align 8
  %0 = load %"class.xalanc_1_10::XalanDOMString"*, %"class.xalanc_1_10::XalanDOMString"** %theResult.addr, align 8, !dbg !5207
  %m_doctypeSystem = getelementptr inbounds %"class.xalanc_1_10::StylesheetRoot", %"class.xalanc_1_10::StylesheetRoot"* %this1, i32 0, i32 6, !dbg !5208
  %call = call dereferenceable(40) %"class.xalanc_1_10::XalanDOMString"* @_ZN11xalanc_1_1014XalanDOMString6assignERKS0_(%"class.xalanc_1_10::XalanDOMString"* %0, %"class.xalanc_1_10::XalanDOMString"* dereferenceable(40) %m_doctypeSystem), !dbg !5209
  %1 = load %"class.xalanc_1_10::XalanDOMString"*, %"class.xalanc_1_10::XalanDOMString"** %theResult.addr, align 8, !dbg !5210
  ret %"class.xalanc_1_10::XalanDOMString"* %1, !dbg !5211
}

; Function Attrs: noinline uwtable
define linkonce_odr dso_local dereferenceable(40) %"class.xalanc_1_10::XalanDOMString"* @_ZNK11xalanc_1_1014StylesheetRoot22getOutputDoctypePublicERNS_14XalanDOMStringE(%"class.xalanc_1_10::StylesheetRoot"* %this, %"class.xalanc_1_10::XalanDOMString"* dereferenceable(40) %theResult) #0 comdat align 2 !dbg !5212 {
entry:
  %this.addr = alloca %"class.xalanc_1_10::StylesheetRoot"*, align 8
  %theResult.addr = alloca %"class.xalanc_1_10::XalanDOMString"*, align 8
  store %"class.xalanc_1_10::StylesheetRoot"* %this, %"class.xalanc_1_10::StylesheetRoot"** %this.addr, align 8
  call void @llvm.dbg.declare(metadata %"class.xalanc_1_10::StylesheetRoot"** %this.addr, metadata !5214, metadata !DIExpression()), !dbg !5215
  store %"class.xalanc_1_10::XalanDOMString"* %theResult, %"class.xalanc_1_10::XalanDOMString"** %theResult.addr, align 8
  call void @llvm.dbg.declare(metadata %"class.xalanc_1_10::XalanDOMString"** %theResult.addr, metadata !5216, metadata !DIExpression()), !dbg !5217
  %this1 = load %"class.xalanc_1_10::StylesheetRoot"*, %"class.xalanc_1_10::StylesheetRoot"** %this.addr, align 8
  %0 = load %"class.xalanc_1_10::XalanDOMString"*, %"class.xalanc_1_10::XalanDOMString"** %theResult.addr, align 8, !dbg !5218
  %m_doctypePublic = getelementptr inbounds %"class.xalanc_1_10::StylesheetRoot", %"class.xalanc_1_10::StylesheetRoot"* %this1, i32 0, i32 7, !dbg !5219
  %call = call dereferenceable(40) %"class.xalanc_1_10::XalanDOMString"* @_ZN11xalanc_1_1014XalanDOMString6assignERKS0_(%"class.xalanc_1_10::XalanDOMString"* %0, %"class.xalanc_1_10::XalanDOMString"* dereferenceable(40) %m_doctypePublic), !dbg !5220
  %1 = load %"class.xalanc_1_10::XalanDOMString"*, %"class.xalanc_1_10::XalanDOMString"** %theResult.addr, align 8, !dbg !5221
  ret %"class.xalanc_1_10::XalanDOMString"* %1, !dbg !5222
}

; Function Attrs: noinline uwtable
define linkonce_odr dso_local dereferenceable(40) %"class.xalanc_1_10::XalanDOMString"* @_ZNK11xalanc_1_1014StylesheetRoot19getOutputStandaloneERNS_14XalanDOMStringE(%"class.xalanc_1_10::StylesheetRoot"* %this, %"class.xalanc_1_10::XalanDOMString"* dereferenceable(40) %theResult) #0 comdat align 2 !dbg !5223 {
entry:
  %this.addr = alloca %"class.xalanc_1_10::StylesheetRoot"*, align 8
  %theResult.addr = alloca %"class.xalanc_1_10::XalanDOMString"*, align 8
  store %"class.xalanc_1_10::StylesheetRoot"* %this, %"class.xalanc_1_10::StylesheetRoot"** %this.addr, align 8
  call void @llvm.dbg.declare(metadata %"class.xalanc_1_10::StylesheetRoot"** %this.addr, metadata !5225, metadata !DIExpression()), !dbg !5226
  store %"class.xalanc_1_10::XalanDOMString"* %theResult, %"class.xalanc_1_10::XalanDOMString"** %theResult.addr, align 8
  call void @llvm.dbg.declare(metadata %"class.xalanc_1_10::XalanDOMString"** %theResult.addr, metadata !5227, metadata !DIExpression()), !dbg !5228
  %this1 = load %"class.xalanc_1_10::StylesheetRoot"*, %"class.xalanc_1_10::StylesheetRoot"** %this.addr, align 8
  %0 = load %"class.xalanc_1_10::XalanDOMString"*, %"class.xalanc_1_10::XalanDOMString"** %theResult.addr, align 8, !dbg !5229
  %m_standalone = getelementptr inbounds %"class.xalanc_1_10::StylesheetRoot", %"class.xalanc_1_10::StylesheetRoot"* %this1, i32 0, i32 10, !dbg !5230
  %call = call dereferenceable(40) %"class.xalanc_1_10::XalanDOMString"* @_ZN11xalanc_1_1014XalanDOMString6assignERKS0_(%"class.xalanc_1_10::XalanDOMString"* %0, %"class.xalanc_1_10::XalanDOMString"* dereferenceable(40) %m_standalone), !dbg !5231
  %1 = load %"class.xalanc_1_10::XalanDOMString"*, %"class.xalanc_1_10::XalanDOMString"** %theResult.addr, align 8, !dbg !5232
  ret %"class.xalanc_1_10::XalanDOMString"* %1, !dbg !5233
}

; Function Attrs: noinline nounwind uwtable
define linkonce_odr dso_local zeroext i1 @_ZNK11xalanc_1_1014StylesheetRoot15getOutputIndentEv(%"class.xalanc_1_10::StylesheetRoot"* %this) #5 comdat align 2 !dbg !5234 {
entry:
  %this.addr = alloca %"class.xalanc_1_10::StylesheetRoot"*, align 8
  store %"class.xalanc_1_10::StylesheetRoot"* %this, %"class.xalanc_1_10::StylesheetRoot"** %this.addr, align 8
  call void @llvm.dbg.declare(metadata %"class.xalanc_1_10::StylesheetRoot"** %this.addr, metadata !5238, metadata !DIExpression()), !dbg !5239
  %this1 = load %"class.xalanc_1_10::StylesheetRoot"*, %"class.xalanc_1_10::StylesheetRoot"** %this.addr, align 8
  %m_indentResult = getelementptr inbounds %"class.xalanc_1_10::StylesheetRoot", %"class.xalanc_1_10::StylesheetRoot"* %this1, i32 0, i32 2, !dbg !5240
  %0 = load i32, i32* %m_indentResult, align 8, !dbg !5240
  %cmp = icmp eq i32 %0, 0, !dbg !5241
  br i1 %cmp, label %lor.end, label %lor.rhs, !dbg !5242

lor.rhs:                                          ; preds = %entry
  %m_indentResult2 = getelementptr inbounds %"class.xalanc_1_10::StylesheetRoot", %"class.xalanc_1_10::StylesheetRoot"* %this1, i32 0, i32 2, !dbg !5243
  %1 = load i32, i32* %m_indentResult2, align 8, !dbg !5243
  %cmp3 = icmp eq i32 %1, 1, !dbg !5244
  br label %lor.end, !dbg !5242

lor.end:                                          ; preds = %lor.rhs, %entry
  %2 = phi i1 [ true, %entry ], [ %cmp3, %lor.rhs ]
  %3 = zext i1 %2 to i64, !dbg !5240
  %cond = select i1 %2, i1 false, i1 true, !dbg !5240
  ret i1 %cond, !dbg !5245
}

declare dso_local %"class.xalanc_1_10::FormatterToXML"* @_ZN11xalanc_1_1014FormatterToXML6createERN11xercesc_2_713MemoryManagerERNS_6WriterERKNS_14XalanDOMStringEbiS8_S8_S8_S8_bS8_NS_17FormatterListener7eFormatEb(%"class.xercesc_2_7::MemoryManager"* dereferenceable(8), %"class.xalanc_1_10::Writer"* dereferenceable(8), %"class.xalanc_1_10::XalanDOMString"* dereferenceable(40), i1 zeroext, i32, %"class.xalanc_1_10::XalanDOMString"* dereferenceable(40), %"class.xalanc_1_10::XalanDOMString"* dereferenceable(40), %"class.xalanc_1_10::XalanDOMString"* dereferenceable(40), %"class.xalanc_1_10::XalanDOMString"* dereferenceable(40), i1 zeroext, %"class.xalanc_1_10::XalanDOMString"* dereferenceable(40), i32, i1 zeroext) #1

; Function Attrs: noinline nounwind uwtable
define linkonce_odr dso_local dereferenceable(8) %"class.xercesc_2_7::MemoryManager"* @_ZN11xalanc_1_1011PrintWriter16getMemoryManagerEv(%"class.xalanc_1_10::PrintWriter"* %this) #5 comdat align 2 !dbg !5246 {
entry:
  %this.addr = alloca %"class.xalanc_1_10::PrintWriter"*, align 8
  store %"class.xalanc_1_10::PrintWriter"* %this, %"class.xalanc_1_10::PrintWriter"** %this.addr, align 8
  call void @llvm.dbg.declare(metadata %"class.xalanc_1_10::PrintWriter"** %this.addr, metadata !5251, metadata !DIExpression()), !dbg !5253
  %this1 = load %"class.xalanc_1_10::PrintWriter"*, %"class.xalanc_1_10::PrintWriter"** %this.addr, align 8
  %m_memoryManager = getelementptr inbounds %"class.xalanc_1_10::PrintWriter", %"class.xalanc_1_10::PrintWriter"* %this1, i32 0, i32 2, !dbg !5254
  %0 = load %"class.xercesc_2_7::MemoryManager"*, %"class.xercesc_2_7::MemoryManager"** %m_memoryManager, align 8, !dbg !5254
  ret %"class.xercesc_2_7::MemoryManager"* %0, !dbg !5255
}

; Function Attrs: noinline uwtable
define dso_local void @_ZN11xalanc_1_1016XalanFileUtility12checkResultsERKNS_14XalanDOMStringES3_RNS_20XalanXMLFileReporterE(%"class.xalanc_1_10::XalanFileUtility"* %this, %"class.xalanc_1_10::XalanDOMString"* dereferenceable(40) %outputFile, %"class.xalanc_1_10::XalanDOMString"* dereferenceable(40) %goldFile, %"class.xalanc_1_10::XalanXMLFileReporter"* dereferenceable(1944) %logfile) #0 align 2 personality i8* bitcast (i32 (...)* @__gxx_personality_v0 to i8*) !dbg !5256 {
entry:
  %this.addr = alloca %"class.xalanc_1_10::XalanFileUtility"*, align 8
  %outputFile.addr = alloca %"class.xalanc_1_10::XalanDOMString"*, align 8
  %goldFile.addr = alloca %"class.xalanc_1_10::XalanDOMString"*, align 8
  %logfile.addr = alloca %"class.xalanc_1_10::XalanXMLFileReporter"*, align 8
  %ambgFlag = alloca i32, align 4
  %attrs = alloca %"class.xalanc_1_10::XalanMap.53", align 8
  %actexp = alloca %"class.xalanc_1_10::XalanMap.53", align 8
  %exn.slot = alloca i8*
  %ehselector.slot = alloca i32
  %ref.tmp = alloca %"class.xalanc_1_10::XalanDOMString", align 8
  %ref.tmp14 = alloca %"class.xalanc_1_10::XalanDOMString", align 8
  %ref.tmp21 = alloca %"class.xalanc_1_10::XalanDOMString", align 8
  %ref.tmp28 = alloca %"class.xalanc_1_10::XalanDOMString", align 8
  %ref.tmp35 = alloca %"class.xalanc_1_10::XalanDOMString", align 8
  %ref.tmp42 = alloca %"class.xalanc_1_10::XalanDOMString", align 8
  %ref.tmp49 = alloca %"class.xalanc_1_10::XalanDOMString", align 8
  %ref.tmp56 = alloca %"class.xalanc_1_10::XalanDOMString", align 8
  %ref.tmp62 = alloca %"class.xalanc_1_10::XalanDOMString", align 8
  store %"class.xalanc_1_10::XalanFileUtility"* %this, %"class.xalanc_1_10::XalanFileUtility"** %this.addr, align 8
  call void @llvm.dbg.declare(metadata %"class.xalanc_1_10::XalanFileUtility"** %this.addr, metadata !5257, metadata !DIExpression()), !dbg !5258
  store %"class.xalanc_1_10::XalanDOMString"* %outputFile, %"class.xalanc_1_10::XalanDOMString"** %outputFile.addr, align 8
  call void @llvm.dbg.declare(metadata %"class.xalanc_1_10::XalanDOMString"** %outputFile.addr, metadata !5259, metadata !DIExpression()), !dbg !5260
  store %"class.xalanc_1_10::XalanDOMString"* %goldFile, %"class.xalanc_1_10::XalanDOMString"** %goldFile.addr, align 8
  call void @llvm.dbg.declare(metadata %"class.xalanc_1_10::XalanDOMString"** %goldFile.addr, metadata !5261, metadata !DIExpression()), !dbg !5262
  store %"class.xalanc_1_10::XalanXMLFileReporter"* %logfile, %"class.xalanc_1_10::XalanXMLFileReporter"** %logfile.addr, align 8
  call void @llvm.dbg.declare(metadata %"class.xalanc_1_10::XalanXMLFileReporter"** %logfile.addr, metadata !5263, metadata !DIExpression()), !dbg !5264
  %this1 = load %"class.xalanc_1_10::XalanFileUtility"*, %"class.xalanc_1_10::XalanFileUtility"** %this.addr, align 8
  call void @llvm.dbg.declare(metadata i32* %ambgFlag, metadata !5265, metadata !DIExpression()), !dbg !5266
  %data = getelementptr inbounds %"class.xalanc_1_10::XalanFileUtility", %"class.xalanc_1_10::XalanFileUtility"* %this1, i32 0, i32 0, !dbg !5267
  %nogold = getelementptr inbounds %"struct.xalanc_1_10::XalanFileUtility::reportStruct", %"struct.xalanc_1_10::XalanFileUtility::reportStruct"* %data, i32 0, i32 11, !dbg !5268
  %0 = load i32, i32* %nogold, align 8, !dbg !5268
  store i32 %0, i32* %ambgFlag, align 4, !dbg !5266
  %1 = load %"class.xalanc_1_10::XalanDOMString"*, %"class.xalanc_1_10::XalanDOMString"** %outputFile.addr, align 8, !dbg !5269
  %2 = load %"class.xalanc_1_10::XalanDOMString"*, %"class.xalanc_1_10::XalanDOMString"** %goldFile.addr, align 8, !dbg !5271
  %call = call zeroext i1 @_ZN11xalanc_1_1016XalanFileUtility24compareSerializedResultsERKNS_14XalanDOMStringES3_(%"class.xalanc_1_10::XalanFileUtility"* %this1, %"class.xalanc_1_10::XalanDOMString"* dereferenceable(40) %1, %"class.xalanc_1_10::XalanDOMString"* dereferenceable(40) %2), !dbg !5272
  br i1 %call, label %if.then, label %if.else, !dbg !5273

if.then:                                          ; preds = %entry
  %call2 = call dereferenceable(272) %"class.std::basic_ostream"* @_ZStlsISt11char_traitsIcEERSt13basic_ostreamIcT_ES5_PKc(%"class.std::basic_ostream"* dereferenceable(272) @_ZSt4cout, i8* getelementptr inbounds ([9 x i8], [9 x i8]* @.str.30, i64 0, i64 0)), !dbg !5274
  %data3 = getelementptr inbounds %"class.xalanc_1_10::XalanFileUtility", %"class.xalanc_1_10::XalanFileUtility"* %this1, i32 0, i32 0, !dbg !5276
  %testOrFile = getelementptr inbounds %"struct.xalanc_1_10::XalanFileUtility::reportStruct", %"struct.xalanc_1_10::XalanFileUtility::reportStruct"* %data3, i32 0, i32 1, !dbg !5277
  %call4 = call dereferenceable(272) %"class.std::basic_ostream"* @_ZN11xalanc_1_10lsERSoRNS_14XalanDOMStringE(%"class.std::basic_ostream"* dereferenceable(272) %call2, %"class.xalanc_1_10::XalanDOMString"* dereferenceable(40) %testOrFile), !dbg !5278
  %call5 = call dereferenceable(272) %"class.std::basic_ostream"* @_ZNSolsEPFRSoS_E(%"class.std::basic_ostream"* %call4, %"class.std::basic_ostream"* (%"class.std::basic_ostream"*)* @_ZSt4endlIcSt11char_traitsIcEERSt13basic_ostreamIT_T0_ES6_), !dbg !5279
  %3 = load %"class.xalanc_1_10::XalanXMLFileReporter"*, %"class.xalanc_1_10::XalanXMLFileReporter"** %logfile.addr, align 8, !dbg !5280
  %data6 = getelementptr inbounds %"class.xalanc_1_10::XalanFileUtility", %"class.xalanc_1_10::XalanFileUtility"* %this1, i32 0, i32 0, !dbg !5281
  %testOrFile7 = getelementptr inbounds %"struct.xalanc_1_10::XalanFileUtility::reportStruct", %"struct.xalanc_1_10::XalanFileUtility::reportStruct"* %data6, i32 0, i32 1, !dbg !5282
  call void @_ZN11xalanc_1_1020XalanXMLFileReporter12logCheckPassERKNS_14XalanDOMStringE(%"class.xalanc_1_10::XalanXMLFileReporter"* %3, %"class.xalanc_1_10::XalanDOMString"* dereferenceable(40) %testOrFile7), !dbg !5283
  %data8 = getelementptr inbounds %"class.xalanc_1_10::XalanFileUtility", %"class.xalanc_1_10::XalanFileUtility"* %this1, i32 0, i32 0, !dbg !5284
  %pass = getelementptr inbounds %"struct.xalanc_1_10::XalanFileUtility::reportStruct", %"struct.xalanc_1_10::XalanFileUtility::reportStruct"* %data8, i32 0, i32 9, !dbg !5285
  %4 = load i32, i32* %pass, align 8, !dbg !5286
  %add = add nsw i32 %4, 1, !dbg !5286
  store i32 %add, i32* %pass, align 8, !dbg !5286
  br label %if.end80, !dbg !5287

if.else:                                          ; preds = %entry
  call void @llvm.dbg.declare(metadata %"class.xalanc_1_10::XalanMap.53"* %attrs, metadata !5288, metadata !DIExpression()), !dbg !5291
  %m_memoryManager = getelementptr inbounds %"class.xalanc_1_10::XalanFileUtility", %"class.xalanc_1_10::XalanFileUtility"* %this1, i32 0, i32 2, !dbg !5292
  %5 = load %"class.xercesc_2_7::MemoryManager"*, %"class.xercesc_2_7::MemoryManager"** %m_memoryManager, align 8, !dbg !5292
  call void @_ZN11xalanc_1_108XalanMapINS_14XalanDOMStringES1_NS_17XalanMapKeyTraitsIS1_EEEC2ERN11xercesc_2_713MemoryManagerEfmm(%"class.xalanc_1_10::XalanMap.53"* %attrs, %"class.xercesc_2_7::MemoryManager"* dereferenceable(8) %5, float 7.500000e-01, i64 29, i64 50), !dbg !5291
  call void @llvm.dbg.declare(metadata %"class.xalanc_1_10::XalanMap.53"* %actexp, metadata !5293, metadata !DIExpression()), !dbg !5294
  %m_memoryManager9 = getelementptr inbounds %"class.xalanc_1_10::XalanFileUtility", %"class.xalanc_1_10::XalanFileUtility"* %this1, i32 0, i32 2, !dbg !5295
  %6 = load %"class.xercesc_2_7::MemoryManager"*, %"class.xercesc_2_7::MemoryManager"** %m_memoryManager9, align 8, !dbg !5295
  invoke void @_ZN11xalanc_1_108XalanMapINS_14XalanDOMStringES1_NS_17XalanMapKeyTraitsIS1_EEEC2ERN11xercesc_2_713MemoryManagerEfmm(%"class.xalanc_1_10::XalanMap.53"* %actexp, %"class.xercesc_2_7::MemoryManager"* dereferenceable(8) %6, float 7.500000e-01, i64 29, i64 50)
          to label %invoke.cont unwind label %lpad, !dbg !5294

invoke.cont:                                      ; preds = %if.else
  invoke void @_ZN11xalanc_1_1016XalanFileUtility11reportErrorEv(%"class.xalanc_1_10::XalanFileUtility"* %this1)
          to label %invoke.cont11 unwind label %lpad10, !dbg !5296

invoke.cont11:                                    ; preds = %invoke.cont
  %m_memoryManager12 = getelementptr inbounds %"class.xalanc_1_10::XalanFileUtility", %"class.xalanc_1_10::XalanFileUtility"* %this1, i32 0, i32 2, !dbg !5297
  %7 = load %"class.xercesc_2_7::MemoryManager"*, %"class.xercesc_2_7::MemoryManager"** %m_memoryManager12, align 8, !dbg !5297
  invoke void @_ZN11xalanc_1_1014XalanDOMStringC1EPKcRN11xercesc_2_713MemoryManagerEj(%"class.xalanc_1_10::XalanDOMString"* %ref.tmp, i8* getelementptr inbounds ([7 x i8], [7 x i8]* @.str.31, i64 0, i64 0), %"class.xercesc_2_7::MemoryManager"* dereferenceable(8) %7, i32 -1)
          to label %invoke.cont13 unwind label %lpad10, !dbg !5298

invoke.cont13:                                    ; preds = %invoke.cont11
  %data15 = getelementptr inbounds %"class.xalanc_1_10::XalanFileUtility", %"class.xalanc_1_10::XalanFileUtility"* %this1, i32 0, i32 0, !dbg !5299
  %msg = getelementptr inbounds %"struct.xalanc_1_10::XalanFileUtility::reportStruct", %"struct.xalanc_1_10::XalanFileUtility::reportStruct"* %data15, i32 0, i32 5, !dbg !5300
  %8 = load i8*, i8** %msg, align 8, !dbg !5300
  %m_memoryManager16 = getelementptr inbounds %"class.xalanc_1_10::XalanFileUtility", %"class.xalanc_1_10::XalanFileUtility"* %this1, i32 0, i32 2, !dbg !5301
  %9 = load %"class.xercesc_2_7::MemoryManager"*, %"class.xercesc_2_7::MemoryManager"** %m_memoryManager16, align 8, !dbg !5301
  invoke void @_ZN11xalanc_1_1014XalanDOMStringC1EPKcRN11xercesc_2_713MemoryManagerEj(%"class.xalanc_1_10::XalanDOMString"* %ref.tmp14, i8* %8, %"class.xercesc_2_7::MemoryManager"* dereferenceable(8) %9, i32 -1)
          to label %invoke.cont18 unwind label %lpad17, !dbg !5302

invoke.cont18:                                    ; preds = %invoke.cont13
  invoke void @_ZN11xalanc_1_108XalanMapINS_14XalanDOMStringES1_NS_17XalanMapKeyTraitsIS1_EEE6insertERKS1_S6_(%"class.xalanc_1_10::XalanMap.53"* %attrs, %"class.xalanc_1_10::XalanDOMString"* dereferenceable(40) %ref.tmp, %"class.xalanc_1_10::XalanDOMString"* dereferenceable(40) %ref.tmp14)
          to label %invoke.cont20 unwind label %lpad19, !dbg !5303

invoke.cont20:                                    ; preds = %invoke.cont18
  call void @_ZN11xalanc_1_1014XalanDOMStringD2Ev(%"class.xalanc_1_10::XalanDOMString"* %ref.tmp14) #3, !dbg !5304
  call void @_ZN11xalanc_1_1014XalanDOMStringD2Ev(%"class.xalanc_1_10::XalanDOMString"* %ref.tmp) #3, !dbg !5304
  %m_memoryManager22 = getelementptr inbounds %"class.xalanc_1_10::XalanFileUtility", %"class.xalanc_1_10::XalanFileUtility"* %this1, i32 0, i32 2, !dbg !5305
  %10 = load %"class.xercesc_2_7::MemoryManager"*, %"class.xercesc_2_7::MemoryManager"** %m_memoryManager22, align 8, !dbg !5305
  invoke void @_ZN11xalanc_1_1014XalanDOMStringC1EPKcRN11xercesc_2_713MemoryManagerEj(%"class.xalanc_1_10::XalanDOMString"* %ref.tmp21, i8* getelementptr inbounds ([7 x i8], [7 x i8]* @.str.32, i64 0, i64 0), %"class.xercesc_2_7::MemoryManager"* dereferenceable(8) %10, i32 -1)
          to label %invoke.cont23 unwind label %lpad10, !dbg !5306

invoke.cont23:                                    ; preds = %invoke.cont20
  %data24 = getelementptr inbounds %"class.xalanc_1_10::XalanFileUtility", %"class.xalanc_1_10::XalanFileUtility"* %this1, i32 0, i32 0, !dbg !5307
  %currentNode = getelementptr inbounds %"struct.xalanc_1_10::XalanFileUtility::reportStruct", %"struct.xalanc_1_10::XalanFileUtility::reportStruct"* %data24, i32 0, i32 6, !dbg !5308
  invoke void @_ZN11xalanc_1_108XalanMapINS_14XalanDOMStringES1_NS_17XalanMapKeyTraitsIS1_EEE6insertERKS1_S6_(%"class.xalanc_1_10::XalanMap.53"* %attrs, %"class.xalanc_1_10::XalanDOMString"* dereferenceable(40) %ref.tmp21, %"class.xalanc_1_10::XalanDOMString"* dereferenceable(40) %currentNode)
          to label %invoke.cont26 unwind label %lpad25, !dbg !5309

invoke.cont26:                                    ; preds = %invoke.cont23
  call void @_ZN11xalanc_1_1014XalanDOMStringD2Ev(%"class.xalanc_1_10::XalanDOMString"* %ref.tmp21) #3, !dbg !5310
  %m_memoryManager29 = getelementptr inbounds %"class.xalanc_1_10::XalanFileUtility", %"class.xalanc_1_10::XalanFileUtility"* %this1, i32 0, i32 2, !dbg !5311
  %11 = load %"class.xercesc_2_7::MemoryManager"*, %"class.xercesc_2_7::MemoryManager"** %m_memoryManager29, align 8, !dbg !5311
  invoke void @_ZN11xalanc_1_1014XalanDOMStringC1EPKcRN11xercesc_2_713MemoryManagerEj(%"class.xalanc_1_10::XalanDOMString"* %ref.tmp28, i8* getelementptr inbounds ([4 x i8], [4 x i8]* @.str.33, i64 0, i64 0), %"class.xercesc_2_7::MemoryManager"* dereferenceable(8) %11, i32 -1)
          to label %invoke.cont30 unwind label %lpad10, !dbg !5312

invoke.cont30:                                    ; preds = %invoke.cont26
  %data31 = getelementptr inbounds %"class.xalanc_1_10::XalanFileUtility", %"class.xalanc_1_10::XalanFileUtility"* %this1, i32 0, i32 0, !dbg !5313
  %expected = getelementptr inbounds %"struct.xalanc_1_10::XalanFileUtility::reportStruct", %"struct.xalanc_1_10::XalanFileUtility::reportStruct"* %data31, i32 0, i32 8, !dbg !5314
  invoke void @_ZN11xalanc_1_108XalanMapINS_14XalanDOMStringES1_NS_17XalanMapKeyTraitsIS1_EEE6insertERKS1_S6_(%"class.xalanc_1_10::XalanMap.53"* %actexp, %"class.xalanc_1_10::XalanDOMString"* dereferenceable(40) %ref.tmp28, %"class.xalanc_1_10::XalanDOMString"* dereferenceable(40) %expected)
          to label %invoke.cont33 unwind label %lpad32, !dbg !5315

invoke.cont33:                                    ; preds = %invoke.cont30
  call void @_ZN11xalanc_1_1014XalanDOMStringD2Ev(%"class.xalanc_1_10::XalanDOMString"* %ref.tmp28) #3, !dbg !5316
  %m_memoryManager36 = getelementptr inbounds %"class.xalanc_1_10::XalanFileUtility", %"class.xalanc_1_10::XalanFileUtility"* %this1, i32 0, i32 2, !dbg !5317
  %12 = load %"class.xercesc_2_7::MemoryManager"*, %"class.xercesc_2_7::MemoryManager"** %m_memoryManager36, align 8, !dbg !5317
  invoke void @_ZN11xalanc_1_1014XalanDOMStringC1EPKcRN11xercesc_2_713MemoryManagerEj(%"class.xalanc_1_10::XalanDOMString"* %ref.tmp35, i8* getelementptr inbounds ([4 x i8], [4 x i8]* @.str.34, i64 0, i64 0), %"class.xercesc_2_7::MemoryManager"* dereferenceable(8) %12, i32 -1)
          to label %invoke.cont37 unwind label %lpad10, !dbg !5318

invoke.cont37:                                    ; preds = %invoke.cont33
  %data38 = getelementptr inbounds %"class.xalanc_1_10::XalanFileUtility", %"class.xalanc_1_10::XalanFileUtility"* %this1, i32 0, i32 0, !dbg !5319
  %actual = getelementptr inbounds %"struct.xalanc_1_10::XalanFileUtility::reportStruct", %"struct.xalanc_1_10::XalanFileUtility::reportStruct"* %data38, i32 0, i32 7, !dbg !5320
  invoke void @_ZN11xalanc_1_108XalanMapINS_14XalanDOMStringES1_NS_17XalanMapKeyTraitsIS1_EEE6insertERKS1_S6_(%"class.xalanc_1_10::XalanMap.53"* %actexp, %"class.xalanc_1_10::XalanDOMString"* dereferenceable(40) %ref.tmp35, %"class.xalanc_1_10::XalanDOMString"* dereferenceable(40) %actual)
          to label %invoke.cont40 unwind label %lpad39, !dbg !5321

invoke.cont40:                                    ; preds = %invoke.cont37
  call void @_ZN11xalanc_1_1014XalanDOMStringD2Ev(%"class.xalanc_1_10::XalanDOMString"* %ref.tmp35) #3, !dbg !5322
  %m_memoryManager43 = getelementptr inbounds %"class.xalanc_1_10::XalanFileUtility", %"class.xalanc_1_10::XalanFileUtility"* %this1, i32 0, i32 2, !dbg !5323
  %13 = load %"class.xercesc_2_7::MemoryManager"*, %"class.xercesc_2_7::MemoryManager"** %m_memoryManager43, align 8, !dbg !5323
  invoke void @_ZN11xalanc_1_1014XalanDOMStringC1EPKcRN11xercesc_2_713MemoryManagerEj(%"class.xalanc_1_10::XalanDOMString"* %ref.tmp42, i8* getelementptr inbounds ([4 x i8], [4 x i8]* @.str.35, i64 0, i64 0), %"class.xercesc_2_7::MemoryManager"* dereferenceable(8) %13, i32 -1)
          to label %invoke.cont44 unwind label %lpad10, !dbg !5324

invoke.cont44:                                    ; preds = %invoke.cont40
  %data45 = getelementptr inbounds %"class.xalanc_1_10::XalanFileUtility", %"class.xalanc_1_10::XalanFileUtility"* %this1, i32 0, i32 0, !dbg !5325
  %xslFileURL = getelementptr inbounds %"struct.xalanc_1_10::XalanFileUtility::reportStruct", %"struct.xalanc_1_10::XalanFileUtility::reportStruct"* %data45, i32 0, i32 3, !dbg !5326
  invoke void @_ZN11xalanc_1_108XalanMapINS_14XalanDOMStringES1_NS_17XalanMapKeyTraitsIS1_EEE6insertERKS1_S6_(%"class.xalanc_1_10::XalanMap.53"* %actexp, %"class.xalanc_1_10::XalanDOMString"* dereferenceable(40) %ref.tmp42, %"class.xalanc_1_10::XalanDOMString"* dereferenceable(40) %xslFileURL)
          to label %invoke.cont47 unwind label %lpad46, !dbg !5327

invoke.cont47:                                    ; preds = %invoke.cont44
  call void @_ZN11xalanc_1_1014XalanDOMStringD2Ev(%"class.xalanc_1_10::XalanDOMString"* %ref.tmp42) #3, !dbg !5328
  %m_memoryManager50 = getelementptr inbounds %"class.xalanc_1_10::XalanFileUtility", %"class.xalanc_1_10::XalanFileUtility"* %this1, i32 0, i32 2, !dbg !5329
  %14 = load %"class.xercesc_2_7::MemoryManager"*, %"class.xercesc_2_7::MemoryManager"** %m_memoryManager50, align 8, !dbg !5329
  invoke void @_ZN11xalanc_1_1014XalanDOMStringC1EPKcRN11xercesc_2_713MemoryManagerEj(%"class.xalanc_1_10::XalanDOMString"* %ref.tmp49, i8* getelementptr inbounds ([4 x i8], [4 x i8]* @.str.25, i64 0, i64 0), %"class.xercesc_2_7::MemoryManager"* dereferenceable(8) %14, i32 -1)
          to label %invoke.cont51 unwind label %lpad10, !dbg !5330

invoke.cont51:                                    ; preds = %invoke.cont47
  %data52 = getelementptr inbounds %"class.xalanc_1_10::XalanFileUtility", %"class.xalanc_1_10::XalanFileUtility"* %this1, i32 0, i32 0, !dbg !5331
  %xmlFileURL = getelementptr inbounds %"struct.xalanc_1_10::XalanFileUtility::reportStruct", %"struct.xalanc_1_10::XalanFileUtility::reportStruct"* %data52, i32 0, i32 2, !dbg !5332
  invoke void @_ZN11xalanc_1_108XalanMapINS_14XalanDOMStringES1_NS_17XalanMapKeyTraitsIS1_EEE6insertERKS1_S6_(%"class.xalanc_1_10::XalanMap.53"* %actexp, %"class.xalanc_1_10::XalanDOMString"* dereferenceable(40) %ref.tmp49, %"class.xalanc_1_10::XalanDOMString"* dereferenceable(40) %xmlFileURL)
          to label %invoke.cont54 unwind label %lpad53, !dbg !5333

invoke.cont54:                                    ; preds = %invoke.cont51
  call void @_ZN11xalanc_1_1014XalanDOMStringD2Ev(%"class.xalanc_1_10::XalanDOMString"* %ref.tmp49) #3, !dbg !5334
  %m_memoryManager57 = getelementptr inbounds %"class.xalanc_1_10::XalanFileUtility", %"class.xalanc_1_10::XalanFileUtility"* %this1, i32 0, i32 2, !dbg !5335
  %15 = load %"class.xercesc_2_7::MemoryManager"*, %"class.xercesc_2_7::MemoryManager"** %m_memoryManager57, align 8, !dbg !5335
  invoke void @_ZN11xalanc_1_1014XalanDOMStringC1EPKcRN11xercesc_2_713MemoryManagerEj(%"class.xalanc_1_10::XalanDOMString"* %ref.tmp56, i8* getelementptr inbounds ([7 x i8], [7 x i8]* @.str.36, i64 0, i64 0), %"class.xercesc_2_7::MemoryManager"* dereferenceable(8) %15, i32 -1)
          to label %invoke.cont58 unwind label %lpad10, !dbg !5336

invoke.cont58:                                    ; preds = %invoke.cont54
  %16 = load %"class.xalanc_1_10::XalanDOMString"*, %"class.xalanc_1_10::XalanDOMString"** %outputFile.addr, align 8, !dbg !5337
  invoke void @_ZN11xalanc_1_108XalanMapINS_14XalanDOMStringES1_NS_17XalanMapKeyTraitsIS1_EEE6insertERKS1_S6_(%"class.xalanc_1_10::XalanMap.53"* %actexp, %"class.xalanc_1_10::XalanDOMString"* dereferenceable(40) %ref.tmp56, %"class.xalanc_1_10::XalanDOMString"* dereferenceable(40) %16)
          to label %invoke.cont60 unwind label %lpad59, !dbg !5338

invoke.cont60:                                    ; preds = %invoke.cont58
  call void @_ZN11xalanc_1_1014XalanDOMStringD2Ev(%"class.xalanc_1_10::XalanDOMString"* %ref.tmp56) #3, !dbg !5339
  %m_memoryManager63 = getelementptr inbounds %"class.xalanc_1_10::XalanFileUtility", %"class.xalanc_1_10::XalanFileUtility"* %this1, i32 0, i32 2, !dbg !5340
  %17 = load %"class.xercesc_2_7::MemoryManager"*, %"class.xercesc_2_7::MemoryManager"** %m_memoryManager63, align 8, !dbg !5340
  invoke void @_ZN11xalanc_1_1014XalanDOMStringC1EPKcRN11xercesc_2_713MemoryManagerEj(%"class.xalanc_1_10::XalanDOMString"* %ref.tmp62, i8* getelementptr inbounds ([5 x i8], [5 x i8]* @.str.37, i64 0, i64 0), %"class.xercesc_2_7::MemoryManager"* dereferenceable(8) %17, i32 -1)
          to label %invoke.cont64 unwind label %lpad10, !dbg !5341

invoke.cont64:                                    ; preds = %invoke.cont60
  %18 = load %"class.xalanc_1_10::XalanDOMString"*, %"class.xalanc_1_10::XalanDOMString"** %goldFile.addr, align 8, !dbg !5342
  invoke void @_ZN11xalanc_1_108XalanMapINS_14XalanDOMStringES1_NS_17XalanMapKeyTraitsIS1_EEE6insertERKS1_S6_(%"class.xalanc_1_10::XalanMap.53"* %actexp, %"class.xalanc_1_10::XalanDOMString"* dereferenceable(40) %ref.tmp62, %"class.xalanc_1_10::XalanDOMString"* dereferenceable(40) %18)
          to label %invoke.cont66 unwind label %lpad65, !dbg !5343

invoke.cont66:                                    ; preds = %invoke.cont64
  call void @_ZN11xalanc_1_1014XalanDOMStringD2Ev(%"class.xalanc_1_10::XalanDOMString"* %ref.tmp62) #3, !dbg !5344
  %19 = load i32, i32* %ambgFlag, align 4, !dbg !5345
  %data68 = getelementptr inbounds %"class.xalanc_1_10::XalanFileUtility", %"class.xalanc_1_10::XalanFileUtility"* %this1, i32 0, i32 0, !dbg !5347
  %nogold69 = getelementptr inbounds %"struct.xalanc_1_10::XalanFileUtility::reportStruct", %"struct.xalanc_1_10::XalanFileUtility::reportStruct"* %data68, i32 0, i32 11, !dbg !5348
  %20 = load i32, i32* %nogold69, align 8, !dbg !5348
  %cmp = icmp slt i32 %19, %20, !dbg !5349
  br i1 %cmp, label %if.then70, label %if.else74, !dbg !5350

if.then70:                                        ; preds = %invoke.cont66
  %21 = load %"class.xalanc_1_10::XalanXMLFileReporter"*, %"class.xalanc_1_10::XalanXMLFileReporter"** %logfile.addr, align 8, !dbg !5351
  %data71 = getelementptr inbounds %"class.xalanc_1_10::XalanFileUtility", %"class.xalanc_1_10::XalanFileUtility"* %this1, i32 0, i32 0, !dbg !5353
  %testOrFile72 = getelementptr inbounds %"struct.xalanc_1_10::XalanFileUtility::reportStruct", %"struct.xalanc_1_10::XalanFileUtility::reportStruct"* %data71, i32 0, i32 1, !dbg !5354
  invoke void @_ZN11xalanc_1_1020XalanXMLFileReporter17logCheckAmbiguousERKNS_14XalanDOMStringE(%"class.xalanc_1_10::XalanXMLFileReporter"* %21, %"class.xalanc_1_10::XalanDOMString"* dereferenceable(40) %testOrFile72)
          to label %invoke.cont73 unwind label %lpad10, !dbg !5355

invoke.cont73:                                    ; preds = %if.then70
  br label %if.end, !dbg !5356

lpad:                                             ; preds = %if.else
  %22 = landingpad { i8*, i32 }
          cleanup, !dbg !5357
  %23 = extractvalue { i8*, i32 } %22, 0, !dbg !5357
  store i8* %23, i8** %exn.slot, align 8, !dbg !5357
  %24 = extractvalue { i8*, i32 } %22, 1, !dbg !5357
  store i32 %24, i32* %ehselector.slot, align 4, !dbg !5357
  br label %ehcleanup79, !dbg !5357

lpad10:                                           ; preds = %if.else74, %if.then70, %invoke.cont60, %invoke.cont54, %invoke.cont47, %invoke.cont40, %invoke.cont33, %invoke.cont26, %invoke.cont20, %invoke.cont11, %invoke.cont
  %25 = landingpad { i8*, i32 }
          cleanup, !dbg !5357
  %26 = extractvalue { i8*, i32 } %25, 0, !dbg !5357
  store i8* %26, i8** %exn.slot, align 8, !dbg !5357
  %27 = extractvalue { i8*, i32 } %25, 1, !dbg !5357
  store i32 %27, i32* %ehselector.slot, align 4, !dbg !5357
  br label %ehcleanup78, !dbg !5357

lpad17:                                           ; preds = %invoke.cont13
  %28 = landingpad { i8*, i32 }
          cleanup, !dbg !5357
  %29 = extractvalue { i8*, i32 } %28, 0, !dbg !5357
  store i8* %29, i8** %exn.slot, align 8, !dbg !5357
  %30 = extractvalue { i8*, i32 } %28, 1, !dbg !5357
  store i32 %30, i32* %ehselector.slot, align 4, !dbg !5357
  br label %ehcleanup, !dbg !5357

lpad19:                                           ; preds = %invoke.cont18
  %31 = landingpad { i8*, i32 }
          cleanup, !dbg !5357
  %32 = extractvalue { i8*, i32 } %31, 0, !dbg !5357
  store i8* %32, i8** %exn.slot, align 8, !dbg !5357
  %33 = extractvalue { i8*, i32 } %31, 1, !dbg !5357
  store i32 %33, i32* %ehselector.slot, align 4, !dbg !5357
  call void @_ZN11xalanc_1_1014XalanDOMStringD2Ev(%"class.xalanc_1_10::XalanDOMString"* %ref.tmp14) #3, !dbg !5304
  br label %ehcleanup, !dbg !5304

ehcleanup:                                        ; preds = %lpad19, %lpad17
  call void @_ZN11xalanc_1_1014XalanDOMStringD2Ev(%"class.xalanc_1_10::XalanDOMString"* %ref.tmp) #3, !dbg !5304
  br label %ehcleanup78, !dbg !5304

lpad25:                                           ; preds = %invoke.cont23
  %34 = landingpad { i8*, i32 }
          cleanup, !dbg !5357
  %35 = extractvalue { i8*, i32 } %34, 0, !dbg !5357
  store i8* %35, i8** %exn.slot, align 8, !dbg !5357
  %36 = extractvalue { i8*, i32 } %34, 1, !dbg !5357
  store i32 %36, i32* %ehselector.slot, align 4, !dbg !5357
  call void @_ZN11xalanc_1_1014XalanDOMStringD2Ev(%"class.xalanc_1_10::XalanDOMString"* %ref.tmp21) #3, !dbg !5310
  br label %ehcleanup78, !dbg !5310

lpad32:                                           ; preds = %invoke.cont30
  %37 = landingpad { i8*, i32 }
          cleanup, !dbg !5357
  %38 = extractvalue { i8*, i32 } %37, 0, !dbg !5357
  store i8* %38, i8** %exn.slot, align 8, !dbg !5357
  %39 = extractvalue { i8*, i32 } %37, 1, !dbg !5357
  store i32 %39, i32* %ehselector.slot, align 4, !dbg !5357
  call void @_ZN11xalanc_1_1014XalanDOMStringD2Ev(%"class.xalanc_1_10::XalanDOMString"* %ref.tmp28) #3, !dbg !5316
  br label %ehcleanup78, !dbg !5316

lpad39:                                           ; preds = %invoke.cont37
  %40 = landingpad { i8*, i32 }
          cleanup, !dbg !5357
  %41 = extractvalue { i8*, i32 } %40, 0, !dbg !5357
  store i8* %41, i8** %exn.slot, align 8, !dbg !5357
  %42 = extractvalue { i8*, i32 } %40, 1, !dbg !5357
  store i32 %42, i32* %ehselector.slot, align 4, !dbg !5357
  call void @_ZN11xalanc_1_1014XalanDOMStringD2Ev(%"class.xalanc_1_10::XalanDOMString"* %ref.tmp35) #3, !dbg !5322
  br label %ehcleanup78, !dbg !5322

lpad46:                                           ; preds = %invoke.cont44
  %43 = landingpad { i8*, i32 }
          cleanup, !dbg !5357
  %44 = extractvalue { i8*, i32 } %43, 0, !dbg !5357
  store i8* %44, i8** %exn.slot, align 8, !dbg !5357
  %45 = extractvalue { i8*, i32 } %43, 1, !dbg !5357
  store i32 %45, i32* %ehselector.slot, align 4, !dbg !5357
  call void @_ZN11xalanc_1_1014XalanDOMStringD2Ev(%"class.xalanc_1_10::XalanDOMString"* %ref.tmp42) #3, !dbg !5328
  br label %ehcleanup78, !dbg !5328

lpad53:                                           ; preds = %invoke.cont51
  %46 = landingpad { i8*, i32 }
          cleanup, !dbg !5357
  %47 = extractvalue { i8*, i32 } %46, 0, !dbg !5357
  store i8* %47, i8** %exn.slot, align 8, !dbg !5357
  %48 = extractvalue { i8*, i32 } %46, 1, !dbg !5357
  store i32 %48, i32* %ehselector.slot, align 4, !dbg !5357
  call void @_ZN11xalanc_1_1014XalanDOMStringD2Ev(%"class.xalanc_1_10::XalanDOMString"* %ref.tmp49) #3, !dbg !5334
  br label %ehcleanup78, !dbg !5334

lpad59:                                           ; preds = %invoke.cont58
  %49 = landingpad { i8*, i32 }
          cleanup, !dbg !5357
  %50 = extractvalue { i8*, i32 } %49, 0, !dbg !5357
  store i8* %50, i8** %exn.slot, align 8, !dbg !5357
  %51 = extractvalue { i8*, i32 } %49, 1, !dbg !5357
  store i32 %51, i32* %ehselector.slot, align 4, !dbg !5357
  call void @_ZN11xalanc_1_1014XalanDOMStringD2Ev(%"class.xalanc_1_10::XalanDOMString"* %ref.tmp56) #3, !dbg !5339
  br label %ehcleanup78, !dbg !5339

lpad65:                                           ; preds = %invoke.cont64
  %52 = landingpad { i8*, i32 }
          cleanup, !dbg !5357
  %53 = extractvalue { i8*, i32 } %52, 0, !dbg !5357
  store i8* %53, i8** %exn.slot, align 8, !dbg !5357
  %54 = extractvalue { i8*, i32 } %52, 1, !dbg !5357
  store i32 %54, i32* %ehselector.slot, align 4, !dbg !5357
  call void @_ZN11xalanc_1_1014XalanDOMStringD2Ev(%"class.xalanc_1_10::XalanDOMString"* %ref.tmp62) #3, !dbg !5344
  br label %ehcleanup78, !dbg !5344

if.else74:                                        ; preds = %invoke.cont66
  %55 = load %"class.xalanc_1_10::XalanXMLFileReporter"*, %"class.xalanc_1_10::XalanXMLFileReporter"** %logfile.addr, align 8, !dbg !5358
  %data75 = getelementptr inbounds %"class.xalanc_1_10::XalanFileUtility", %"class.xalanc_1_10::XalanFileUtility"* %this1, i32 0, i32 0, !dbg !5360
  %testOrFile76 = getelementptr inbounds %"struct.xalanc_1_10::XalanFileUtility::reportStruct", %"struct.xalanc_1_10::XalanFileUtility::reportStruct"* %data75, i32 0, i32 1, !dbg !5361
  invoke void @_ZN11xalanc_1_1020XalanXMLFileReporter12logCheckFailERKNS_14XalanDOMStringERKNS_8XalanMapIS1_S1_NS_17XalanMapKeyTraitsIS1_EEEES9_(%"class.xalanc_1_10::XalanXMLFileReporter"* %55, %"class.xalanc_1_10::XalanDOMString"* dereferenceable(40) %testOrFile76, %"class.xalanc_1_10::XalanMap.53"* dereferenceable(136) %attrs, %"class.xalanc_1_10::XalanMap.53"* dereferenceable(136) %actexp)
          to label %invoke.cont77 unwind label %lpad10, !dbg !5362

invoke.cont77:                                    ; preds = %if.else74
  br label %if.end

if.end:                                           ; preds = %invoke.cont77, %invoke.cont73
  call void @_ZN11xalanc_1_108XalanMapINS_14XalanDOMStringES1_NS_17XalanMapKeyTraitsIS1_EEED2Ev(%"class.xalanc_1_10::XalanMap.53"* %actexp) #3, !dbg !5363
  call void @_ZN11xalanc_1_108XalanMapINS_14XalanDOMStringES1_NS_17XalanMapKeyTraitsIS1_EEED2Ev(%"class.xalanc_1_10::XalanMap.53"* %attrs) #3, !dbg !5363
  br label %if.end80

ehcleanup78:                                      ; preds = %lpad65, %lpad59, %lpad53, %lpad46, %lpad39, %lpad32, %lpad25, %ehcleanup, %lpad10
  call void @_ZN11xalanc_1_108XalanMapINS_14XalanDOMStringES1_NS_17XalanMapKeyTraitsIS1_EEED2Ev(%"class.xalanc_1_10::XalanMap.53"* %actexp) #3, !dbg !5363
  br label %ehcleanup79, !dbg !5363

ehcleanup79:                                      ; preds = %ehcleanup78, %lpad
  call void @_ZN11xalanc_1_108XalanMapINS_14XalanDOMStringES1_NS_17XalanMapKeyTraitsIS1_EEED2Ev(%"class.xalanc_1_10::XalanMap.53"* %attrs) #3, !dbg !5363
  br label %eh.resume, !dbg !5363

if.end80:                                         ; preds = %if.end, %if.then
  ret void, !dbg !5364

eh.resume:                                        ; preds = %ehcleanup79
  %exn = load i8*, i8** %exn.slot, align 8, !dbg !5363
  %sel = load i32, i32* %ehselector.slot, align 4, !dbg !5363
  %lpad.val = insertvalue { i8*, i32 } undef, i8* %exn, 0, !dbg !5363
  %lpad.val81 = insertvalue { i8*, i32 } %lpad.val, i32 %sel, 1, !dbg !5363
  resume { i8*, i32 } %lpad.val81, !dbg !5363
}

; Function Attrs: noinline uwtable
define dso_local zeroext i1 @_ZN11xalanc_1_1016XalanFileUtility24compareSerializedResultsERKNS_14XalanDOMStringES3_(%"class.xalanc_1_10::XalanFileUtility"* %this, %"class.xalanc_1_10::XalanDOMString"* dereferenceable(40) %outputFile, %"class.xalanc_1_10::XalanDOMString"* dereferenceable(40) %goldFile) #0 align 2 personality i8* bitcast (i32 (...)* @__gxx_personality_v0 to i8*) !dbg !5365 {
entry:
  %retval = alloca i1, align 1
  %this.addr = alloca %"class.xalanc_1_10::XalanFileUtility"*, align 8
  %outputFile.addr = alloca %"class.xalanc_1_10::XalanDOMString"*, align 8
  %goldFile.addr = alloca %"class.xalanc_1_10::XalanDOMString"*, align 8
  %resultInputSource = alloca %"class.xalanc_1_10::XSLTInputSource", align 8
  %goldInputSource = alloca %"class.xalanc_1_10::XSLTInputSource", align 8
  %exn.slot = alloca i8*
  %ehselector.slot = alloca i32
  %domSupport = alloca %"class.xalanc_1_10::XalanSourceTreeDOMSupport", align 8
  %parserLiaison = alloca %"class.xalanc_1_10::XalanSourceTreeParserLiaison", align 8
  %transformDom = alloca %"class.xalanc_1_10::XalanDocument"*, align 8
  %ref.tmp = alloca %"class.xalanc_1_10::XalanDOMString", align 8
  %goldDom = alloca %"class.xalanc_1_10::XalanDocument"*, align 8
  %ref.tmp16 = alloca %"class.xalanc_1_10::XalanDOMString", align 8
  %cleanup.dest.slot = alloca i32, align 4
  %0 = alloca %"class.xercesc_2_7::SAXException"*, align 8
  %goldFileVec = alloca %"class.xalanc_1_10::XalanVector.0", align 8
  %outputFileVec = alloca %"class.xalanc_1_10::XalanVector.0", align 8
  store %"class.xalanc_1_10::XalanFileUtility"* %this, %"class.xalanc_1_10::XalanFileUtility"** %this.addr, align 8
  call void @llvm.dbg.declare(metadata %"class.xalanc_1_10::XalanFileUtility"** %this.addr, metadata !5366, metadata !DIExpression()), !dbg !5367
  store %"class.xalanc_1_10::XalanDOMString"* %outputFile, %"class.xalanc_1_10::XalanDOMString"** %outputFile.addr, align 8
  call void @llvm.dbg.declare(metadata %"class.xalanc_1_10::XalanDOMString"** %outputFile.addr, metadata !5368, metadata !DIExpression()), !dbg !5369
  store %"class.xalanc_1_10::XalanDOMString"* %goldFile, %"class.xalanc_1_10::XalanDOMString"** %goldFile.addr, align 8
  call void @llvm.dbg.declare(metadata %"class.xalanc_1_10::XalanDOMString"** %goldFile.addr, metadata !5370, metadata !DIExpression()), !dbg !5371
  %this1 = load %"class.xalanc_1_10::XalanFileUtility"*, %"class.xalanc_1_10::XalanFileUtility"** %this.addr, align 8
  call void @llvm.dbg.declare(metadata %"class.xalanc_1_10::XSLTInputSource"* %resultInputSource, metadata !5372, metadata !DIExpression()), !dbg !5373
  %1 = load %"class.xalanc_1_10::XalanDOMString"*, %"class.xalanc_1_10::XalanDOMString"** %outputFile.addr, align 8, !dbg !5374
  %m_memoryManager = getelementptr inbounds %"class.xalanc_1_10::XalanFileUtility", %"class.xalanc_1_10::XalanFileUtility"* %this1, i32 0, i32 2, !dbg !5375
  %2 = load %"class.xercesc_2_7::MemoryManager"*, %"class.xercesc_2_7::MemoryManager"** %m_memoryManager, align 8, !dbg !5375
  call void @_ZN11xalanc_1_1015XSLTInputSourceC1ERKNS_14XalanDOMStringERN11xercesc_2_713MemoryManagerE(%"class.xalanc_1_10::XSLTInputSource"* %resultInputSource, %"class.xalanc_1_10::XalanDOMString"* dereferenceable(40) %1, %"class.xercesc_2_7::MemoryManager"* dereferenceable(8) %2), !dbg !5373
  call void @llvm.dbg.declare(metadata %"class.xalanc_1_10::XSLTInputSource"* %goldInputSource, metadata !5376, metadata !DIExpression()), !dbg !5377
  %3 = load %"class.xalanc_1_10::XalanDOMString"*, %"class.xalanc_1_10::XalanDOMString"** %goldFile.addr, align 8, !dbg !5378
  %m_memoryManager2 = getelementptr inbounds %"class.xalanc_1_10::XalanFileUtility", %"class.xalanc_1_10::XalanFileUtility"* %this1, i32 0, i32 2, !dbg !5379
  %4 = load %"class.xercesc_2_7::MemoryManager"*, %"class.xercesc_2_7::MemoryManager"** %m_memoryManager2, align 8, !dbg !5379
  invoke void @_ZN11xalanc_1_1015XSLTInputSourceC1ERKNS_14XalanDOMStringERN11xercesc_2_713MemoryManagerE(%"class.xalanc_1_10::XSLTInputSource"* %goldInputSource, %"class.xalanc_1_10::XalanDOMString"* dereferenceable(40) %3, %"class.xercesc_2_7::MemoryManager"* dereferenceable(8) %4)
          to label %invoke.cont unwind label %lpad, !dbg !5377

invoke.cont:                                      ; preds = %entry
  call void @llvm.dbg.declare(metadata %"class.xalanc_1_10::XalanSourceTreeDOMSupport"* %domSupport, metadata !5380, metadata !DIExpression()), !dbg !5383
  invoke void @_ZN11xalanc_1_1025XalanSourceTreeDOMSupportC1Ev(%"class.xalanc_1_10::XalanSourceTreeDOMSupport"* %domSupport)
          to label %invoke.cont4 unwind label %lpad3, !dbg !5383

invoke.cont4:                                     ; preds = %invoke.cont
  call void @llvm.dbg.declare(metadata %"class.xalanc_1_10::XalanSourceTreeParserLiaison"* %parserLiaison, metadata !5384, metadata !DIExpression()), !dbg !5387
  %m_memoryManager5 = getelementptr inbounds %"class.xalanc_1_10::XalanFileUtility", %"class.xalanc_1_10::XalanFileUtility"* %this1, i32 0, i32 2, !dbg !5388
  %5 = load %"class.xercesc_2_7::MemoryManager"*, %"class.xercesc_2_7::MemoryManager"** %m_memoryManager5, align 8, !dbg !5388
  invoke void @_ZN11xalanc_1_1028XalanSourceTreeParserLiaisonC1ERNS_25XalanSourceTreeDOMSupportERN11xercesc_2_713MemoryManagerE(%"class.xalanc_1_10::XalanSourceTreeParserLiaison"* %parserLiaison, %"class.xalanc_1_10::XalanSourceTreeDOMSupport"* dereferenceable(16) %domSupport, %"class.xercesc_2_7::MemoryManager"* dereferenceable(8) %5)
          to label %invoke.cont7 unwind label %lpad6, !dbg !5387

invoke.cont7:                                     ; preds = %invoke.cont4
  invoke void @_ZN11xalanc_1_1025XalanSourceTreeDOMSupport16setParserLiaisonEPKNS_28XalanSourceTreeParserLiaisonE(%"class.xalanc_1_10::XalanSourceTreeDOMSupport"* %domSupport, %"class.xalanc_1_10::XalanSourceTreeParserLiaison"* %parserLiaison)
          to label %invoke.cont9 unwind label %lpad8, !dbg !5389

invoke.cont9:                                     ; preds = %invoke.cont7
  call void @llvm.dbg.declare(metadata %"class.xalanc_1_10::XalanDocument"** %transformDom, metadata !5390, metadata !DIExpression()), !dbg !5394
  %6 = bitcast %"class.xalanc_1_10::XSLTInputSource"* %resultInputSource to %"class.xercesc_2_7::InputSource"*, !dbg !5395
  %call = invoke dereferenceable(8) %"class.xercesc_2_7::MemoryManager"* @_ZN11xalanc_1_1012XalanMemMgrs14getDummyMemMgrEv()
          to label %invoke.cont11 unwind label %lpad10, !dbg !5396

invoke.cont11:                                    ; preds = %invoke.cont9
  invoke void @_ZN11xalanc_1_1014XalanDOMStringC1ERN11xercesc_2_713MemoryManagerE(%"class.xalanc_1_10::XalanDOMString"* %ref.tmp, %"class.xercesc_2_7::MemoryManager"* dereferenceable(8) %call)
          to label %invoke.cont12 unwind label %lpad10, !dbg !5396

invoke.cont12:                                    ; preds = %invoke.cont11
  %call15 = invoke %"class.xalanc_1_10::XalanDocument"* @_ZN11xalanc_1_1028XalanSourceTreeParserLiaison14parseXMLStreamERKN11xercesc_2_711InputSourceERKNS_14XalanDOMStringE(%"class.xalanc_1_10::XalanSourceTreeParserLiaison"* %parserLiaison, %"class.xercesc_2_7::InputSource"* dereferenceable(48) %6, %"class.xalanc_1_10::XalanDOMString"* dereferenceable(40) %ref.tmp)
          to label %invoke.cont14 unwind label %lpad13, !dbg !5396

invoke.cont14:                                    ; preds = %invoke.cont12
  call void @_ZN11xalanc_1_1014XalanDOMStringD2Ev(%"class.xalanc_1_10::XalanDOMString"* %ref.tmp) #3, !dbg !5397
  store %"class.xalanc_1_10::XalanDocument"* %call15, %"class.xalanc_1_10::XalanDocument"** %transformDom, align 8, !dbg !5394
  call void @llvm.dbg.declare(metadata %"class.xalanc_1_10::XalanDocument"** %goldDom, metadata !5398, metadata !DIExpression()), !dbg !5399
  %7 = bitcast %"class.xalanc_1_10::XSLTInputSource"* %goldInputSource to %"class.xercesc_2_7::InputSource"*, !dbg !5400
  %call18 = invoke dereferenceable(8) %"class.xercesc_2_7::MemoryManager"* @_ZN11xalanc_1_1012XalanMemMgrs14getDummyMemMgrEv()
          to label %invoke.cont17 unwind label %lpad10, !dbg !5401

invoke.cont17:                                    ; preds = %invoke.cont14
  invoke void @_ZN11xalanc_1_1014XalanDOMStringC1ERN11xercesc_2_713MemoryManagerE(%"class.xalanc_1_10::XalanDOMString"* %ref.tmp16, %"class.xercesc_2_7::MemoryManager"* dereferenceable(8) %call18)
          to label %invoke.cont19 unwind label %lpad10, !dbg !5401

invoke.cont19:                                    ; preds = %invoke.cont17
  %call22 = invoke %"class.xalanc_1_10::XalanDocument"* @_ZN11xalanc_1_1028XalanSourceTreeParserLiaison14parseXMLStreamERKN11xercesc_2_711InputSourceERKNS_14XalanDOMStringE(%"class.xalanc_1_10::XalanSourceTreeParserLiaison"* %parserLiaison, %"class.xercesc_2_7::InputSource"* dereferenceable(48) %7, %"class.xalanc_1_10::XalanDOMString"* dereferenceable(40) %ref.tmp16)
          to label %invoke.cont21 unwind label %lpad20, !dbg !5401

invoke.cont21:                                    ; preds = %invoke.cont19
  call void @_ZN11xalanc_1_1014XalanDOMStringD2Ev(%"class.xalanc_1_10::XalanDOMString"* %ref.tmp16) #3, !dbg !5402
  store %"class.xalanc_1_10::XalanDocument"* %call22, %"class.xalanc_1_10::XalanDocument"** %goldDom, align 8, !dbg !5399
  %8 = load %"class.xalanc_1_10::XalanDocument"*, %"class.xalanc_1_10::XalanDocument"** %goldDom, align 8, !dbg !5403
  %9 = load %"class.xalanc_1_10::XalanDocument"*, %"class.xalanc_1_10::XalanDocument"** %transformDom, align 8, !dbg !5404
  %call24 = invoke zeroext i1 @_ZN11xalanc_1_1016XalanFileUtility10domCompareERKNS_13XalanDocumentES3_(%"class.xalanc_1_10::XalanFileUtility"* %this1, %"class.xalanc_1_10::XalanDocument"* dereferenceable(8) %8, %"class.xalanc_1_10::XalanDocument"* dereferenceable(8) %9)
          to label %invoke.cont23 unwind label %lpad10, !dbg !5405

invoke.cont23:                                    ; preds = %invoke.cont21
  store i1 %call24, i1* %retval, align 1, !dbg !5406
  store i32 1, i32* %cleanup.dest.slot, align 4
  br label %cleanup, !dbg !5406

lpad:                                             ; preds = %entry
  %10 = landingpad { i8*, i32 }
          cleanup, !dbg !5407
  %11 = extractvalue { i8*, i32 } %10, 0, !dbg !5407
  store i8* %11, i8** %exn.slot, align 8, !dbg !5407
  %12 = extractvalue { i8*, i32 } %10, 1, !dbg !5407
  store i32 %12, i32* %ehselector.slot, align 4, !dbg !5407
  br label %ehcleanup53, !dbg !5407

lpad3:                                            ; preds = %invoke.cont
  %13 = landingpad { i8*, i32 }
          cleanup, !dbg !5407
  %14 = extractvalue { i8*, i32 } %13, 0, !dbg !5407
  store i8* %14, i8** %exn.slot, align 8, !dbg !5407
  %15 = extractvalue { i8*, i32 } %13, 1, !dbg !5407
  store i32 %15, i32* %ehselector.slot, align 4, !dbg !5407
  br label %ehcleanup51, !dbg !5407

lpad6:                                            ; preds = %invoke.cont4
  %16 = landingpad { i8*, i32 }
          cleanup, !dbg !5407
  %17 = extractvalue { i8*, i32 } %16, 0, !dbg !5407
  store i8* %17, i8** %exn.slot, align 8, !dbg !5407
  %18 = extractvalue { i8*, i32 } %16, 1, !dbg !5407
  store i32 %18, i32* %ehselector.slot, align 4, !dbg !5407
  br label %ehcleanup49, !dbg !5407

lpad8:                                            ; preds = %invoke.cont42, %invoke.cont7
  %19 = landingpad { i8*, i32 }
          cleanup, !dbg !5407
  %20 = extractvalue { i8*, i32 } %19, 0, !dbg !5407
  store i8* %20, i8** %exn.slot, align 8, !dbg !5407
  %21 = extractvalue { i8*, i32 } %19, 1, !dbg !5407
  store i32 %21, i32* %ehselector.slot, align 4, !dbg !5407
  br label %ehcleanup47, !dbg !5407

lpad10:                                           ; preds = %invoke.cont21, %invoke.cont17, %invoke.cont14, %invoke.cont11, %invoke.cont9
  %22 = landingpad { i8*, i32 }
          cleanup
          catch i8* bitcast ({ i8*, i8*, i8* }* @_ZTIN11xercesc_2_712SAXExceptionE to i8*), !dbg !5396
  %23 = extractvalue { i8*, i32 } %22, 0, !dbg !5396
  store i8* %23, i8** %exn.slot, align 8, !dbg !5396
  %24 = extractvalue { i8*, i32 } %22, 1, !dbg !5396
  store i32 %24, i32* %ehselector.slot, align 4, !dbg !5396
  br label %catch.dispatch, !dbg !5396

lpad13:                                           ; preds = %invoke.cont12
  %25 = landingpad { i8*, i32 }
          cleanup
          catch i8* bitcast ({ i8*, i8*, i8* }* @_ZTIN11xercesc_2_712SAXExceptionE to i8*), !dbg !5408
  %26 = extractvalue { i8*, i32 } %25, 0, !dbg !5408
  store i8* %26, i8** %exn.slot, align 8, !dbg !5408
  %27 = extractvalue { i8*, i32 } %25, 1, !dbg !5408
  store i32 %27, i32* %ehselector.slot, align 4, !dbg !5408
  call void @_ZN11xalanc_1_1014XalanDOMStringD2Ev(%"class.xalanc_1_10::XalanDOMString"* %ref.tmp) #3, !dbg !5397
  br label %catch.dispatch, !dbg !5397

lpad20:                                           ; preds = %invoke.cont19
  %28 = landingpad { i8*, i32 }
          cleanup
          catch i8* bitcast ({ i8*, i8*, i8* }* @_ZTIN11xercesc_2_712SAXExceptionE to i8*), !dbg !5408
  %29 = extractvalue { i8*, i32 } %28, 0, !dbg !5408
  store i8* %29, i8** %exn.slot, align 8, !dbg !5408
  %30 = extractvalue { i8*, i32 } %28, 1, !dbg !5408
  store i32 %30, i32* %ehselector.slot, align 4, !dbg !5408
  call void @_ZN11xalanc_1_1014XalanDOMStringD2Ev(%"class.xalanc_1_10::XalanDOMString"* %ref.tmp16) #3, !dbg !5402
  br label %catch.dispatch, !dbg !5402

catch.dispatch:                                   ; preds = %lpad20, %lpad13, %lpad10
  %sel = load i32, i32* %ehselector.slot, align 4, !dbg !5409
  %31 = call i32 @llvm.eh.typeid.for(i8* bitcast ({ i8*, i8*, i8* }* @_ZTIN11xercesc_2_712SAXExceptionE to i8*)) #3, !dbg !5409
  %matches = icmp eq i32 %sel, %31, !dbg !5409
  br i1 %matches, label %catch, label %ehcleanup47, !dbg !5409

catch:                                            ; preds = %catch.dispatch
  call void @llvm.dbg.declare(metadata %"class.xercesc_2_7::SAXException"** %0, metadata !5410, metadata !DIExpression()), !dbg !5415
  %exn = load i8*, i8** %exn.slot, align 8, !dbg !5409
  %32 = call i8* @__cxa_begin_catch(i8* %exn) #3, !dbg !5409
  %exn.byref = bitcast i8* %32 to %"class.xercesc_2_7::SAXException"*, !dbg !5409
  store %"class.xercesc_2_7::SAXException"* %exn.byref, %"class.xercesc_2_7::SAXException"** %0, align 8, !dbg !5409
  %call27 = invoke dereferenceable(272) %"class.std::basic_ostream"* @_ZStlsISt11char_traitsIcEERSt13basic_ostreamIcT_ES5_PKc(%"class.std::basic_ostream"* dereferenceable(272) @_ZSt4cout, i8* getelementptr inbounds ([50 x i8], [50 x i8]* @.str.39, i64 0, i64 0))
          to label %invoke.cont26 unwind label %lpad25, !dbg !5416

invoke.cont26:                                    ; preds = %catch
  call void @llvm.dbg.declare(metadata %"class.xalanc_1_10::XalanVector.0"* %goldFileVec, metadata !5418, metadata !DIExpression()), !dbg !5419
  %m_memoryManager28 = getelementptr inbounds %"class.xalanc_1_10::XalanFileUtility", %"class.xalanc_1_10::XalanFileUtility"* %this1, i32 0, i32 2, !dbg !5420
  %33 = load %"class.xercesc_2_7::MemoryManager"*, %"class.xercesc_2_7::MemoryManager"** %m_memoryManager28, align 8, !dbg !5420
  invoke void @_ZN11xalanc_1_1011XalanVectorIcNS_31MemoryManagedConstructionTraitsIcEEEC2ERN11xercesc_2_713MemoryManagerEm(%"class.xalanc_1_10::XalanVector.0"* %goldFileVec, %"class.xercesc_2_7::MemoryManager"* dereferenceable(8) %33, i64 0)
          to label %invoke.cont29 unwind label %lpad25, !dbg !5419

invoke.cont29:                                    ; preds = %invoke.cont26
  %34 = load %"class.xalanc_1_10::XalanDOMString"*, %"class.xalanc_1_10::XalanDOMString"** %goldFile.addr, align 8, !dbg !5421
  %call32 = invoke zeroext i1 @_ZN11xalanc_1_1024TranscodeToLocalCodePageERKNS_14XalanDOMStringERNS_11XalanVectorIcNS_31MemoryManagedConstructionTraitsIcEEEEb(%"class.xalanc_1_10::XalanDOMString"* dereferenceable(40) %34, %"class.xalanc_1_10::XalanVector.0"* dereferenceable(32) %goldFileVec, i1 zeroext true)
          to label %invoke.cont31 unwind label %lpad30, !dbg !5422

invoke.cont31:                                    ; preds = %invoke.cont29
  call void @llvm.dbg.declare(metadata %"class.xalanc_1_10::XalanVector.0"* %outputFileVec, metadata !5423, metadata !DIExpression()), !dbg !5424
  %m_memoryManager33 = getelementptr inbounds %"class.xalanc_1_10::XalanFileUtility", %"class.xalanc_1_10::XalanFileUtility"* %this1, i32 0, i32 2, !dbg !5425
  %35 = load %"class.xercesc_2_7::MemoryManager"*, %"class.xercesc_2_7::MemoryManager"** %m_memoryManager33, align 8, !dbg !5425
  invoke void @_ZN11xalanc_1_1011XalanVectorIcNS_31MemoryManagedConstructionTraitsIcEEEC2ERN11xercesc_2_713MemoryManagerEm(%"class.xalanc_1_10::XalanVector.0"* %outputFileVec, %"class.xercesc_2_7::MemoryManager"* dereferenceable(8) %35, i64 0)
          to label %invoke.cont34 unwind label %lpad30, !dbg !5424

invoke.cont34:                                    ; preds = %invoke.cont31
  %36 = load %"class.xalanc_1_10::XalanDOMString"*, %"class.xalanc_1_10::XalanDOMString"** %outputFile.addr, align 8, !dbg !5426
  %call37 = invoke zeroext i1 @_ZN11xalanc_1_1024TranscodeToLocalCodePageERKNS_14XalanDOMStringERNS_11XalanVectorIcNS_31MemoryManagedConstructionTraitsIcEEEEb(%"class.xalanc_1_10::XalanDOMString"* dereferenceable(40) %36, %"class.xalanc_1_10::XalanVector.0"* dereferenceable(32) %outputFileVec, i1 zeroext true)
          to label %invoke.cont36 unwind label %lpad35, !dbg !5427

invoke.cont36:                                    ; preds = %invoke.cont34
  %call39 = invoke i8* @_ZN11xalanc_1_105c_strERKNS_11XalanVectorIcNS_31MemoryManagedConstructionTraitsIcEEEE(%"class.xalanc_1_10::XalanVector.0"* dereferenceable(32) %goldFileVec)
          to label %invoke.cont38 unwind label %lpad35, !dbg !5428

invoke.cont38:                                    ; preds = %invoke.cont36
  %call41 = invoke i8* @_ZN11xalanc_1_105c_strERKNS_11XalanVectorIcNS_31MemoryManagedConstructionTraitsIcEEEE(%"class.xalanc_1_10::XalanVector.0"* dereferenceable(32) %outputFileVec)
          to label %invoke.cont40 unwind label %lpad35, !dbg !5429

invoke.cont40:                                    ; preds = %invoke.cont38
  %call43 = invoke zeroext i1 @_ZN11xalanc_1_1016XalanFileUtility11fileCompareEPKcS2_(%"class.xalanc_1_10::XalanFileUtility"* %this1, i8* %call39, i8* %call41)
          to label %invoke.cont42 unwind label %lpad35, !dbg !5430

invoke.cont42:                                    ; preds = %invoke.cont40
  store i1 %call43, i1* %retval, align 1, !dbg !5431
  store i32 1, i32* %cleanup.dest.slot, align 4
  call void @_ZN11xalanc_1_1011XalanVectorIcNS_31MemoryManagedConstructionTraitsIcEEED2Ev(%"class.xalanc_1_10::XalanVector.0"* %outputFileVec) #3, !dbg !5432
  call void @_ZN11xalanc_1_1011XalanVectorIcNS_31MemoryManagedConstructionTraitsIcEEED2Ev(%"class.xalanc_1_10::XalanVector.0"* %goldFileVec) #3, !dbg !5432
  invoke void @__cxa_end_catch()
          to label %invoke.cont44 unwind label %lpad8, !dbg !5433

lpad25:                                           ; preds = %invoke.cont26, %catch
  %37 = landingpad { i8*, i32 }
          cleanup, !dbg !5434
  %38 = extractvalue { i8*, i32 } %37, 0, !dbg !5434
  store i8* %38, i8** %exn.slot, align 8, !dbg !5434
  %39 = extractvalue { i8*, i32 } %37, 1, !dbg !5434
  store i32 %39, i32* %ehselector.slot, align 4, !dbg !5434
  br label %ehcleanup45, !dbg !5434

lpad30:                                           ; preds = %invoke.cont31, %invoke.cont29
  %40 = landingpad { i8*, i32 }
          cleanup, !dbg !5434
  %41 = extractvalue { i8*, i32 } %40, 0, !dbg !5434
  store i8* %41, i8** %exn.slot, align 8, !dbg !5434
  %42 = extractvalue { i8*, i32 } %40, 1, !dbg !5434
  store i32 %42, i32* %ehselector.slot, align 4, !dbg !5434
  br label %ehcleanup, !dbg !5434

lpad35:                                           ; preds = %invoke.cont40, %invoke.cont38, %invoke.cont36, %invoke.cont34
  %43 = landingpad { i8*, i32 }
          cleanup, !dbg !5434
  %44 = extractvalue { i8*, i32 } %43, 0, !dbg !5434
  store i8* %44, i8** %exn.slot, align 8, !dbg !5434
  %45 = extractvalue { i8*, i32 } %43, 1, !dbg !5434
  store i32 %45, i32* %ehselector.slot, align 4, !dbg !5434
  call void @_ZN11xalanc_1_1011XalanVectorIcNS_31MemoryManagedConstructionTraitsIcEEED2Ev(%"class.xalanc_1_10::XalanVector.0"* %outputFileVec) #3, !dbg !5432
  br label %ehcleanup, !dbg !5432

ehcleanup:                                        ; preds = %lpad35, %lpad30
  call void @_ZN11xalanc_1_1011XalanVectorIcNS_31MemoryManagedConstructionTraitsIcEEED2Ev(%"class.xalanc_1_10::XalanVector.0"* %goldFileVec) #3, !dbg !5432
  br label %ehcleanup45, !dbg !5432

invoke.cont44:                                    ; preds = %invoke.cont42
  br label %cleanup

ehcleanup45:                                      ; preds = %ehcleanup, %lpad25
  invoke void @__cxa_end_catch()
          to label %invoke.cont46 unwind label %terminate.lpad, !dbg !5433

invoke.cont46:                                    ; preds = %ehcleanup45
  br label %ehcleanup47, !dbg !5433

try.cont:                                         ; No predecessors!
  call void @llvm.trap(), !dbg !5433
  unreachable, !dbg !5433

cleanup:                                          ; preds = %invoke.cont44, %invoke.cont23
  call void @_ZN11xalanc_1_1028XalanSourceTreeParserLiaisonD1Ev(%"class.xalanc_1_10::XalanSourceTreeParserLiaison"* %parserLiaison) #3, !dbg !5407
  call void @_ZN11xalanc_1_1025XalanSourceTreeDOMSupportD1Ev(%"class.xalanc_1_10::XalanSourceTreeDOMSupport"* %domSupport) #3, !dbg !5407
  call void @_ZN11xalanc_1_1015XSLTInputSourceD2Ev(%"class.xalanc_1_10::XSLTInputSource"* %goldInputSource) #3, !dbg !5407
  call void @_ZN11xalanc_1_1015XSLTInputSourceD2Ev(%"class.xalanc_1_10::XSLTInputSource"* %resultInputSource) #3, !dbg !5407
  %46 = load i1, i1* %retval, align 1, !dbg !5407
  ret i1 %46, !dbg !5407

ehcleanup47:                                      ; preds = %invoke.cont46, %catch.dispatch, %lpad8
  call void @_ZN11xalanc_1_1028XalanSourceTreeParserLiaisonD1Ev(%"class.xalanc_1_10::XalanSourceTreeParserLiaison"* %parserLiaison) #3, !dbg !5407
  br label %ehcleanup49, !dbg !5407

ehcleanup49:                                      ; preds = %ehcleanup47, %lpad6
  call void @_ZN11xalanc_1_1025XalanSourceTreeDOMSupportD1Ev(%"class.xalanc_1_10::XalanSourceTreeDOMSupport"* %domSupport) #3, !dbg !5407
  br label %ehcleanup51, !dbg !5407

ehcleanup51:                                      ; preds = %ehcleanup49, %lpad3
  call void @_ZN11xalanc_1_1015XSLTInputSourceD2Ev(%"class.xalanc_1_10::XSLTInputSource"* %goldInputSource) #3, !dbg !5407
  br label %ehcleanup53, !dbg !5407

ehcleanup53:                                      ; preds = %ehcleanup51, %lpad
  call void @_ZN11xalanc_1_1015XSLTInputSourceD2Ev(%"class.xalanc_1_10::XSLTInputSource"* %resultInputSource) #3, !dbg !5407
  br label %eh.resume, !dbg !5407

eh.resume:                                        ; preds = %ehcleanup53
  %exn54 = load i8*, i8** %exn.slot, align 8, !dbg !5407
  %sel55 = load i32, i32* %ehselector.slot, align 4, !dbg !5407
  %lpad.val = insertvalue { i8*, i32 } undef, i8* %exn54, 0, !dbg !5407
  %lpad.val56 = insertvalue { i8*, i32 } %lpad.val, i32 %sel55, 1, !dbg !5407
  resume { i8*, i32 } %lpad.val56, !dbg !5407

terminate.lpad:                                   ; preds = %ehcleanup45
  %47 = landingpad { i8*, i32 }
          catch i8* null, !dbg !5433
  %48 = extractvalue { i8*, i32 } %47, 0, !dbg !5433
  call void @__clang_call_terminate(i8* %48) #14, !dbg !5433
  unreachable, !dbg !5433
}

declare dso_local void @_ZN11xalanc_1_1020XalanXMLFileReporter12logCheckPassERKNS_14XalanDOMStringE(%"class.xalanc_1_10::XalanXMLFileReporter"*, %"class.xalanc_1_10::XalanDOMString"* dereferenceable(40)) #1

; Function Attrs: noinline uwtable
define linkonce_odr dso_local void @_ZN11xalanc_1_108XalanMapINS_14XalanDOMStringES1_NS_17XalanMapKeyTraitsIS1_EEEC2ERN11xercesc_2_713MemoryManagerEfmm(%"class.xalanc_1_10::XalanMap.53"* %this, %"class.xercesc_2_7::MemoryManager"* dereferenceable(8) %theMemoryManager, float %loadFactor, i64 %minBuckets, i64 %eraseThreshold) unnamed_addr #0 comdat align 2 personality i8* bitcast (i32 (...)* @__gxx_personality_v0 to i8*) !dbg !5435 {
entry:
  %this.addr = alloca %"class.xalanc_1_10::XalanMap.53"*, align 8
  %theMemoryManager.addr = alloca %"class.xercesc_2_7::MemoryManager"*, align 8
  %loadFactor.addr = alloca float, align 4
  %minBuckets.addr = alloca i64, align 8
  %eraseThreshold.addr = alloca i64, align 8
  %exn.slot = alloca i8*
  %ehselector.slot = alloca i32
  store %"class.xalanc_1_10::XalanMap.53"* %this, %"class.xalanc_1_10::XalanMap.53"** %this.addr, align 8
  call void @llvm.dbg.declare(metadata %"class.xalanc_1_10::XalanMap.53"** %this.addr, metadata !5436, metadata !DIExpression()), !dbg !5438
  store %"class.xercesc_2_7::MemoryManager"* %theMemoryManager, %"class.xercesc_2_7::MemoryManager"** %theMemoryManager.addr, align 8
  call void @llvm.dbg.declare(metadata %"class.xercesc_2_7::MemoryManager"** %theMemoryManager.addr, metadata !5439, metadata !DIExpression()), !dbg !5440
  store float %loadFactor, float* %loadFactor.addr, align 4
  call void @llvm.dbg.declare(metadata float* %loadFactor.addr, metadata !5441, metadata !DIExpression()), !dbg !5442
  store i64 %minBuckets, i64* %minBuckets.addr, align 8
  call void @llvm.dbg.declare(metadata i64* %minBuckets.addr, metadata !5443, metadata !DIExpression()), !dbg !5444
  store i64 %eraseThreshold, i64* %eraseThreshold.addr, align 8
  call void @llvm.dbg.declare(metadata i64* %eraseThreshold.addr, metadata !5445, metadata !DIExpression()), !dbg !5446
  %this1 = load %"class.xalanc_1_10::XalanMap.53"*, %"class.xalanc_1_10::XalanMap.53"** %this.addr, align 8
  %m_hash = getelementptr inbounds %"class.xalanc_1_10::XalanMap.53", %"class.xalanc_1_10::XalanMap.53"* %this1, i32 0, i32 0, !dbg !5447
  %m_equals = getelementptr inbounds %"class.xalanc_1_10::XalanMap.53", %"class.xalanc_1_10::XalanMap.53"* %this1, i32 0, i32 1, !dbg !5447
  %m_memoryManager = getelementptr inbounds %"class.xalanc_1_10::XalanMap.53", %"class.xalanc_1_10::XalanMap.53"* %this1, i32 0, i32 2, !dbg !5448
  %0 = load %"class.xercesc_2_7::MemoryManager"*, %"class.xercesc_2_7::MemoryManager"** %theMemoryManager.addr, align 8, !dbg !5449
  store %"class.xercesc_2_7::MemoryManager"* %0, %"class.xercesc_2_7::MemoryManager"** %m_memoryManager, align 8, !dbg !5448
  %m_loadFactor = getelementptr inbounds %"class.xalanc_1_10::XalanMap.53", %"class.xalanc_1_10::XalanMap.53"* %this1, i32 0, i32 3, !dbg !5450
  %1 = load float, float* %loadFactor.addr, align 4, !dbg !5451
  store float %1, float* %m_loadFactor, align 8, !dbg !5450
  %m_minBuckets = getelementptr inbounds %"class.xalanc_1_10::XalanMap.53", %"class.xalanc_1_10::XalanMap.53"* %this1, i32 0, i32 4, !dbg !5452
  %2 = load i64, i64* %minBuckets.addr, align 8, !dbg !5453
  store i64 %2, i64* %m_minBuckets, align 8, !dbg !5452
  %m_size = getelementptr inbounds %"class.xalanc_1_10::XalanMap.53", %"class.xalanc_1_10::XalanMap.53"* %this1, i32 0, i32 5, !dbg !5454
  store i64 0, i64* %m_size, align 8, !dbg !5454
  %m_entries = getelementptr inbounds %"class.xalanc_1_10::XalanMap.53", %"class.xalanc_1_10::XalanMap.53"* %this1, i32 0, i32 6, !dbg !5455
  %3 = load %"class.xercesc_2_7::MemoryManager"*, %"class.xercesc_2_7::MemoryManager"** %theMemoryManager.addr, align 8, !dbg !5456
  call void @_ZN11xalanc_1_109XalanListINS_8XalanMapINS_14XalanDOMStringES2_NS_17XalanMapKeyTraitsIS2_EEE5EntryEEC2ERN11xercesc_2_713MemoryManagerE(%"class.xalanc_1_10::XalanList.54"* %m_entries, %"class.xercesc_2_7::MemoryManager"* dereferenceable(8) %3), !dbg !5455
  %m_freeEntries = getelementptr inbounds %"class.xalanc_1_10::XalanMap.53", %"class.xalanc_1_10::XalanMap.53"* %this1, i32 0, i32 7, !dbg !5457
  %4 = load %"class.xercesc_2_7::MemoryManager"*, %"class.xercesc_2_7::MemoryManager"** %theMemoryManager.addr, align 8, !dbg !5458
  invoke void @_ZN11xalanc_1_109XalanListINS_8XalanMapINS_14XalanDOMStringES2_NS_17XalanMapKeyTraitsIS2_EEE5EntryEEC2ERN11xercesc_2_713MemoryManagerE(%"class.xalanc_1_10::XalanList.54"* %m_freeEntries, %"class.xercesc_2_7::MemoryManager"* dereferenceable(8) %4)
          to label %invoke.cont unwind label %lpad, !dbg !5457

invoke.cont:                                      ; preds = %entry
  %m_buckets = getelementptr inbounds %"class.xalanc_1_10::XalanMap.53", %"class.xalanc_1_10::XalanMap.53"* %this1, i32 0, i32 8, !dbg !5459
  %5 = load %"class.xercesc_2_7::MemoryManager"*, %"class.xercesc_2_7::MemoryManager"** %theMemoryManager.addr, align 8, !dbg !5460
  invoke void @_ZN11xalanc_1_1011XalanVectorINS0_INS_21XalanListIteratorBaseINS_23XalanListIteratorTraitsINS_8XalanMapINS_14XalanDOMStringES4_NS_17XalanMapKeyTraitsIS4_EEE5EntryEEENS_9XalanListIS8_E4NodeEEENS_31MemoryManagedConstructionTraitsISD_EEEENS_32ConstructWithMemoryManagerTraitsISG_EEEC2ERN11xercesc_2_713MemoryManagerEm(%"class.xalanc_1_10::XalanVector.55"* %m_buckets, %"class.xercesc_2_7::MemoryManager"* dereferenceable(8) %5, i64 0)
          to label %invoke.cont3 unwind label %lpad2, !dbg !5459

invoke.cont3:                                     ; preds = %invoke.cont
  %m_eraseCount = getelementptr inbounds %"class.xalanc_1_10::XalanMap.53", %"class.xalanc_1_10::XalanMap.53"* %this1, i32 0, i32 9, !dbg !5461
  store i64 0, i64* %m_eraseCount, align 8, !dbg !5461
  %m_eraseThreshold = getelementptr inbounds %"class.xalanc_1_10::XalanMap.53", %"class.xalanc_1_10::XalanMap.53"* %this1, i32 0, i32 10, !dbg !5462
  %6 = load i64, i64* %eraseThreshold.addr, align 8, !dbg !5463
  store i64 %6, i64* %m_eraseThreshold, align 8, !dbg !5462
  ret void, !dbg !5464

lpad:                                             ; preds = %entry
  %7 = landingpad { i8*, i32 }
          cleanup, !dbg !5464
  %8 = extractvalue { i8*, i32 } %7, 0, !dbg !5464
  store i8* %8, i8** %exn.slot, align 8, !dbg !5464
  %9 = extractvalue { i8*, i32 } %7, 1, !dbg !5464
  store i32 %9, i32* %ehselector.slot, align 4, !dbg !5464
  br label %ehcleanup, !dbg !5464

lpad2:                                            ; preds = %invoke.cont
  %10 = landingpad { i8*, i32 }
          cleanup, !dbg !5464
  %11 = extractvalue { i8*, i32 } %10, 0, !dbg !5464
  store i8* %11, i8** %exn.slot, align 8, !dbg !5464
  %12 = extractvalue { i8*, i32 } %10, 1, !dbg !5464
  store i32 %12, i32* %ehselector.slot, align 4, !dbg !5464
  call void @_ZN11xalanc_1_109XalanListINS_8XalanMapINS_14XalanDOMStringES2_NS_17XalanMapKeyTraitsIS2_EEE5EntryEED2Ev(%"class.xalanc_1_10::XalanList.54"* %m_freeEntries) #3, !dbg !5465
  br label %ehcleanup, !dbg !5465

ehcleanup:                                        ; preds = %lpad2, %lpad
  call void @_ZN11xalanc_1_109XalanListINS_8XalanMapINS_14XalanDOMStringES2_NS_17XalanMapKeyTraitsIS2_EEE5EntryEED2Ev(%"class.xalanc_1_10::XalanList.54"* %m_entries) #3, !dbg !5465
  br label %eh.resume, !dbg !5465

eh.resume:                                        ; preds = %ehcleanup
  %exn = load i8*, i8** %exn.slot, align 8, !dbg !5465
  %sel = load i32, i32* %ehselector.slot, align 4, !dbg !5465
  %lpad.val = insertvalue { i8*, i32 } undef, i8* %exn, 0, !dbg !5465
  %lpad.val4 = insertvalue { i8*, i32 } %lpad.val, i32 %sel, 1, !dbg !5465
  resume { i8*, i32 } %lpad.val4, !dbg !5465
}

; Function Attrs: noinline uwtable
define dso_local void @_ZN11xalanc_1_1016XalanFileUtility11reportErrorEv(%"class.xalanc_1_10::XalanFileUtility"* %this) #0 align 2 !dbg !5467 {
entry:
  %this.addr = alloca %"class.xalanc_1_10::XalanFileUtility"*, align 8
  store %"class.xalanc_1_10::XalanFileUtility"* %this, %"class.xalanc_1_10::XalanFileUtility"** %this.addr, align 8
  call void @llvm.dbg.declare(metadata %"class.xalanc_1_10::XalanFileUtility"** %this.addr, metadata !5468, metadata !DIExpression()), !dbg !5469
  %this1 = load %"class.xalanc_1_10::XalanFileUtility"*, %"class.xalanc_1_10::XalanFileUtility"** %this.addr, align 8
  %call = call dereferenceable(272) %"class.std::basic_ostream"* @_ZNSolsEPFRSoS_E(%"class.std::basic_ostream"* @_ZSt4cout, %"class.std::basic_ostream"* (%"class.std::basic_ostream"*)* @_ZSt4endlIcSt11char_traitsIcEERSt13basic_ostreamIT_T0_ES6_), !dbg !5470
  %call2 = call dereferenceable(272) %"class.std::basic_ostream"* @_ZStlsISt11char_traitsIcEERSt13basic_ostreamIcT_ES5_PKc(%"class.std::basic_ostream"* dereferenceable(272) %call, i8* getelementptr inbounds ([10 x i8], [10 x i8]* @.str.69, i64 0, i64 0)), !dbg !5471
  %data = getelementptr inbounds %"class.xalanc_1_10::XalanFileUtility", %"class.xalanc_1_10::XalanFileUtility"* %this1, i32 0, i32 0, !dbg !5472
  %testOrFile = getelementptr inbounds %"struct.xalanc_1_10::XalanFileUtility::reportStruct", %"struct.xalanc_1_10::XalanFileUtility::reportStruct"* %data, i32 0, i32 1, !dbg !5473
  %call3 = call dereferenceable(272) %"class.std::basic_ostream"* @_ZN11xalanc_1_10lsERSoRNS_14XalanDOMStringE(%"class.std::basic_ostream"* dereferenceable(272) %call2, %"class.xalanc_1_10::XalanDOMString"* dereferenceable(40) %testOrFile), !dbg !5474
  %call4 = call dereferenceable(272) %"class.std::basic_ostream"* @_ZStlsISt11char_traitsIcEERSt13basic_ostreamIcT_ES5_PKc(%"class.std::basic_ostream"* dereferenceable(272) %call3, i8* getelementptr inbounds ([10 x i8], [10 x i8]* @.str.70, i64 0, i64 0)), !dbg !5475
  %data5 = getelementptr inbounds %"class.xalanc_1_10::XalanFileUtility", %"class.xalanc_1_10::XalanFileUtility"* %this1, i32 0, i32 0, !dbg !5476
  %msg = getelementptr inbounds %"struct.xalanc_1_10::XalanFileUtility::reportStruct", %"struct.xalanc_1_10::XalanFileUtility::reportStruct"* %data5, i32 0, i32 5, !dbg !5477
  %0 = load i8*, i8** %msg, align 8, !dbg !5477
  %call6 = call dereferenceable(272) %"class.std::basic_ostream"* @_ZStlsISt11char_traitsIcEERSt13basic_ostreamIcT_ES5_PKc(%"class.std::basic_ostream"* dereferenceable(272) %call4, i8* %0), !dbg !5478
  %call7 = call dereferenceable(272) %"class.std::basic_ostream"* @_ZNSolsEPFRSoS_E(%"class.std::basic_ostream"* %call6, %"class.std::basic_ostream"* (%"class.std::basic_ostream"*)* @_ZSt4endlIcSt11char_traitsIcEERSt13basic_ostreamIT_T0_ES6_), !dbg !5479
  %call8 = call dereferenceable(272) %"class.std::basic_ostream"* @_ZStlsISt11char_traitsIcEERSt13basic_ostreamIcT_ES5_PKc(%"class.std::basic_ostream"* dereferenceable(272) %call7, i8* getelementptr inbounds ([4 x i8], [4 x i8]* @.str.71, i64 0, i64 0)), !dbg !5480
  %call9 = call dereferenceable(272) %"class.std::basic_ostream"* @_ZStlsISt11char_traitsIcEERSt13basic_ostreamIcT_ES5_PKc(%"class.std::basic_ostream"* dereferenceable(272) %call8, i8* getelementptr inbounds ([18 x i8], [18 x i8]* @.str.72, i64 0, i64 0)), !dbg !5481
  %data10 = getelementptr inbounds %"class.xalanc_1_10::XalanFileUtility", %"class.xalanc_1_10::XalanFileUtility"* %this1, i32 0, i32 0, !dbg !5482
  %currentNode = getelementptr inbounds %"struct.xalanc_1_10::XalanFileUtility::reportStruct", %"struct.xalanc_1_10::XalanFileUtility::reportStruct"* %data10, i32 0, i32 6, !dbg !5483
  %call11 = call dereferenceable(272) %"class.std::basic_ostream"* @_ZN11xalanc_1_10lsERSoRNS_14XalanDOMStringE(%"class.std::basic_ostream"* dereferenceable(272) %call9, %"class.xalanc_1_10::XalanDOMString"* dereferenceable(40) %currentNode), !dbg !5484
  %call12 = call dereferenceable(272) %"class.std::basic_ostream"* @_ZNSolsEPFRSoS_E(%"class.std::basic_ostream"* %call11, %"class.std::basic_ostream"* (%"class.std::basic_ostream"*)* @_ZSt4endlIcSt11char_traitsIcEERSt13basic_ostreamIT_T0_ES6_), !dbg !5485
  %call13 = call dereferenceable(272) %"class.std::basic_ostream"* @_ZStlsISt11char_traitsIcEERSt13basic_ostreamIcT_ES5_PKc(%"class.std::basic_ostream"* dereferenceable(272) %call12, i8* getelementptr inbounds ([16 x i8], [16 x i8]* @.str.73, i64 0, i64 0)), !dbg !5486
  %data14 = getelementptr inbounds %"class.xalanc_1_10::XalanFileUtility", %"class.xalanc_1_10::XalanFileUtility"* %this1, i32 0, i32 0, !dbg !5487
  %expected = getelementptr inbounds %"struct.xalanc_1_10::XalanFileUtility::reportStruct", %"struct.xalanc_1_10::XalanFileUtility::reportStruct"* %data14, i32 0, i32 8, !dbg !5488
  %call15 = call dereferenceable(272) %"class.std::basic_ostream"* @_ZN11xalanc_1_10lsERSoRNS_14XalanDOMStringE(%"class.std::basic_ostream"* dereferenceable(272) %call13, %"class.xalanc_1_10::XalanDOMString"* dereferenceable(40) %expected), !dbg !5489
  %call16 = call dereferenceable(272) %"class.std::basic_ostream"* @_ZNSolsEPFRSoS_E(%"class.std::basic_ostream"* %call15, %"class.std::basic_ostream"* (%"class.std::basic_ostream"*)* @_ZSt4endlIcSt11char_traitsIcEERSt13basic_ostreamIT_T0_ES6_), !dbg !5490
  %call17 = call dereferenceable(272) %"class.std::basic_ostream"* @_ZStlsISt11char_traitsIcEERSt13basic_ostreamIcT_ES5_PKc(%"class.std::basic_ostream"* dereferenceable(272) %call16, i8* getelementptr inbounds ([16 x i8], [16 x i8]* @.str.74, i64 0, i64 0)), !dbg !5491
  %data18 = getelementptr inbounds %"class.xalanc_1_10::XalanFileUtility", %"class.xalanc_1_10::XalanFileUtility"* %this1, i32 0, i32 0, !dbg !5492
  %actual = getelementptr inbounds %"struct.xalanc_1_10::XalanFileUtility::reportStruct", %"struct.xalanc_1_10::XalanFileUtility::reportStruct"* %data18, i32 0, i32 7, !dbg !5493
  %call19 = call dereferenceable(272) %"class.std::basic_ostream"* @_ZN11xalanc_1_10lsERSoRNS_14XalanDOMStringE(%"class.std::basic_ostream"* dereferenceable(272) %call17, %"class.xalanc_1_10::XalanDOMString"* dereferenceable(40) %actual), !dbg !5494
  %call20 = call dereferenceable(272) %"class.std::basic_ostream"* @_ZNSolsEPFRSoS_E(%"class.std::basic_ostream"* %call19, %"class.std::basic_ostream"* (%"class.std::basic_ostream"*)* @_ZSt4endlIcSt11char_traitsIcEERSt13basic_ostreamIT_T0_ES6_), !dbg !5495
  %call21 = call dereferenceable(272) %"class.std::basic_ostream"* @_ZNSolsEPFRSoS_E(%"class.std::basic_ostream"* %call20, %"class.std::basic_ostream"* (%"class.std::basic_ostream"*)* @_ZSt4endlIcSt11char_traitsIcEERSt13basic_ostreamIT_T0_ES6_), !dbg !5496
  ret void, !dbg !5497
}

; Function Attrs: noinline uwtable
define linkonce_odr dso_local void @_ZN11xalanc_1_108XalanMapINS_14XalanDOMStringES1_NS_17XalanMapKeyTraitsIS1_EEE6insertERKS1_S6_(%"class.xalanc_1_10::XalanMap.53"* %this, %"class.xalanc_1_10::XalanDOMString"* dereferenceable(40) %key, %"class.xalanc_1_10::XalanDOMString"* dereferenceable(40) %data) #0 comdat align 2 !dbg !5498 {
entry:
  %this.addr = alloca %"class.xalanc_1_10::XalanMap.53"*, align 8
  %key.addr = alloca %"class.xalanc_1_10::XalanDOMString"*, align 8
  %data.addr = alloca %"class.xalanc_1_10::XalanDOMString"*, align 8
  %pos = alloca %"struct.xalanc_1_10::XalanMapIterator.142", align 8
  %ref.tmp = alloca %"struct.xalanc_1_10::XalanMapIterator.141", align 8
  %ref.tmp2 = alloca %"struct.xalanc_1_10::XalanMapIterator.142", align 8
  %ref.tmp3 = alloca %"struct.xalanc_1_10::XalanMapIterator.141", align 8
  %tmp = alloca %"struct.xalanc_1_10::XalanMapIterator.141", align 8
  store %"class.xalanc_1_10::XalanMap.53"* %this, %"class.xalanc_1_10::XalanMap.53"** %this.addr, align 8
  call void @llvm.dbg.declare(metadata %"class.xalanc_1_10::XalanMap.53"** %this.addr, metadata !5499, metadata !DIExpression()), !dbg !5500
  store %"class.xalanc_1_10::XalanDOMString"* %key, %"class.xalanc_1_10::XalanDOMString"** %key.addr, align 8
  call void @llvm.dbg.declare(metadata %"class.xalanc_1_10::XalanDOMString"** %key.addr, metadata !5501, metadata !DIExpression()), !dbg !5502
  store %"class.xalanc_1_10::XalanDOMString"* %data, %"class.xalanc_1_10::XalanDOMString"** %data.addr, align 8
  call void @llvm.dbg.declare(metadata %"class.xalanc_1_10::XalanDOMString"** %data.addr, metadata !5503, metadata !DIExpression()), !dbg !5504
  %this1 = load %"class.xalanc_1_10::XalanMap.53"*, %"class.xalanc_1_10::XalanMap.53"** %this.addr, align 8
  call void @llvm.dbg.declare(metadata %"struct.xalanc_1_10::XalanMapIterator.142"* %pos, metadata !5505, metadata !DIExpression()), !dbg !5507
  %0 = load %"class.xalanc_1_10::XalanDOMString"*, %"class.xalanc_1_10::XalanDOMString"** %key.addr, align 8, !dbg !5508
  call void @_ZN11xalanc_1_108XalanMapINS_14XalanDOMStringES1_NS_17XalanMapKeyTraitsIS1_EEE4findERKS1_(%"struct.xalanc_1_10::XalanMapIterator.141"* sret %ref.tmp, %"class.xalanc_1_10::XalanMap.53"* %this1, %"class.xalanc_1_10::XalanDOMString"* dereferenceable(40) %0), !dbg !5509
  call void @_ZN11xalanc_1_1016XalanMapIteratorINS_27XalanMapConstIteratorTraitsISt4pairIKNS_14XalanDOMStringES3_EEENS_21XalanListIteratorBaseINS_23XalanListIteratorTraitsINS_8XalanMapIS3_S3_NS_17XalanMapKeyTraitsIS3_EEE5EntryEEENS_9XalanListISD_E4NodeEEEEC2ERKNS0_INS_22XalanMapIteratorTraitsIS5_EESI_EE(%"struct.xalanc_1_10::XalanMapIterator.142"* %pos, %"struct.xalanc_1_10::XalanMapIterator.141"* dereferenceable(8) %ref.tmp), !dbg !5509
  call void @_ZN11xalanc_1_108XalanMapINS_14XalanDOMStringES1_NS_17XalanMapKeyTraitsIS1_EEE3endEv(%"struct.xalanc_1_10::XalanMapIterator.141"* sret %ref.tmp3, %"class.xalanc_1_10::XalanMap.53"* %this1), !dbg !5510
  call void @_ZN11xalanc_1_1016XalanMapIteratorINS_27XalanMapConstIteratorTraitsISt4pairIKNS_14XalanDOMStringES3_EEENS_21XalanListIteratorBaseINS_23XalanListIteratorTraitsINS_8XalanMapIS3_S3_NS_17XalanMapKeyTraitsIS3_EEE5EntryEEENS_9XalanListISD_E4NodeEEEEC2ERKNS0_INS_22XalanMapIteratorTraitsIS5_EESI_EE(%"struct.xalanc_1_10::XalanMapIterator.142"* %ref.tmp2, %"struct.xalanc_1_10::XalanMapIterator.141"* dereferenceable(8) %ref.tmp3), !dbg !5510
  %call = call zeroext i1 @_ZNK11xalanc_1_1016XalanMapIteratorINS_27XalanMapConstIteratorTraitsISt4pairIKNS_14XalanDOMStringES3_EEENS_21XalanListIteratorBaseINS_23XalanListIteratorTraitsINS_8XalanMapIS3_S3_NS_17XalanMapKeyTraitsIS3_EEE5EntryEEENS_9XalanListISD_E4NodeEEEEeqERKSJ_(%"struct.xalanc_1_10::XalanMapIterator.142"* %pos, %"struct.xalanc_1_10::XalanMapIterator.142"* dereferenceable(8) %ref.tmp2), !dbg !5512
  br i1 %call, label %if.then, label %if.end, !dbg !5513

if.then:                                          ; preds = %entry
  %1 = load %"class.xalanc_1_10::XalanDOMString"*, %"class.xalanc_1_10::XalanDOMString"** %key.addr, align 8, !dbg !5514
  %2 = load %"class.xalanc_1_10::XalanDOMString"*, %"class.xalanc_1_10::XalanDOMString"** %data.addr, align 8, !dbg !5516
  call void @_ZN11xalanc_1_108XalanMapINS_14XalanDOMStringES1_NS_17XalanMapKeyTraitsIS1_EEE13doCreateEntryERKS1_PS5_(%"struct.xalanc_1_10::XalanMapIterator.141"* sret %tmp, %"class.xalanc_1_10::XalanMap.53"* %this1, %"class.xalanc_1_10::XalanDOMString"* dereferenceable(40) %1, %"class.xalanc_1_10::XalanDOMString"* %2), !dbg !5517
  br label %if.end, !dbg !5518

if.end:                                           ; preds = %if.then, %entry
  ret void, !dbg !5519
}

declare dso_local void @_ZN11xalanc_1_1020XalanXMLFileReporter17logCheckAmbiguousERKNS_14XalanDOMStringE(%"class.xalanc_1_10::XalanXMLFileReporter"*, %"class.xalanc_1_10::XalanDOMString"* dereferenceable(40)) #1

declare dso_local void @_ZN11xalanc_1_1020XalanXMLFileReporter12logCheckFailERKNS_14XalanDOMStringERKNS_8XalanMapIS1_S1_NS_17XalanMapKeyTraitsIS1_EEEES9_(%"class.xalanc_1_10::XalanXMLFileReporter"*, %"class.xalanc_1_10::XalanDOMString"* dereferenceable(40), %"class.xalanc_1_10::XalanMap.53"* dereferenceable(136), %"class.xalanc_1_10::XalanMap.53"* dereferenceable(136)) #1

; Function Attrs: noinline nounwind uwtable
define linkonce_odr dso_local void @_ZN11xalanc_1_108XalanMapINS_14XalanDOMStringES1_NS_17XalanMapKeyTraitsIS1_EEED2Ev(%"class.xalanc_1_10::XalanMap.53"* %this) unnamed_addr #5 comdat align 2 personality i8* bitcast (i32 (...)* @__gxx_personality_v0 to i8*) !dbg !5520 {
entry:
  %this.addr = alloca %"class.xalanc_1_10::XalanMap.53"*, align 8
  %exn.slot = alloca i8*
  %ehselector.slot = alloca i32
  %toRemove = alloca %"struct.xalanc_1_10::XalanListIteratorBase.57", align 8
  %ref.tmp = alloca %"struct.xalanc_1_10::XalanListIteratorBase.57", align 8
  %tmp = alloca %"struct.xalanc_1_10::XalanListIteratorBase.57", align 8
  store %"class.xalanc_1_10::XalanMap.53"* %this, %"class.xalanc_1_10::XalanMap.53"** %this.addr, align 8
  call void @llvm.dbg.declare(metadata %"class.xalanc_1_10::XalanMap.53"** %this.addr, metadata !5521, metadata !DIExpression()), !dbg !5522
  %this1 = load %"class.xalanc_1_10::XalanMap.53"*, %"class.xalanc_1_10::XalanMap.53"** %this.addr, align 8
  invoke void @_ZN11xalanc_1_108XalanMapINS_14XalanDOMStringES1_NS_17XalanMapKeyTraitsIS1_EEE15doRemoveEntriesEv(%"class.xalanc_1_10::XalanMap.53"* %this1)
          to label %invoke.cont unwind label %lpad, !dbg !5523

invoke.cont:                                      ; preds = %entry
  %m_buckets = getelementptr inbounds %"class.xalanc_1_10::XalanMap.53", %"class.xalanc_1_10::XalanMap.53"* %this1, i32 0, i32 8, !dbg !5525
  %call = invoke zeroext i1 @_ZNK11xalanc_1_1011XalanVectorINS0_INS_21XalanListIteratorBaseINS_23XalanListIteratorTraitsINS_8XalanMapINS_14XalanDOMStringES4_NS_17XalanMapKeyTraitsIS4_EEE5EntryEEENS_9XalanListIS8_E4NodeEEENS_31MemoryManagedConstructionTraitsISD_EEEENS_32ConstructWithMemoryManagerTraitsISG_EEE5emptyEv(%"class.xalanc_1_10::XalanVector.55"* %m_buckets)
          to label %invoke.cont2 unwind label %lpad, !dbg !5527

invoke.cont2:                                     ; preds = %invoke.cont
  br i1 %call, label %if.end, label %if.then, !dbg !5528

if.then:                                          ; preds = %invoke.cont2
  call void @llvm.dbg.declare(metadata %"struct.xalanc_1_10::XalanListIteratorBase.57"* %toRemove, metadata !5529, metadata !DIExpression()), !dbg !5532
  %m_freeEntries = getelementptr inbounds %"class.xalanc_1_10::XalanMap.53", %"class.xalanc_1_10::XalanMap.53"* %this1, i32 0, i32 7, !dbg !5533
  invoke void @_ZN11xalanc_1_109XalanListINS_8XalanMapINS_14XalanDOMStringES2_NS_17XalanMapKeyTraitsIS2_EEE5EntryEE5beginEv(%"struct.xalanc_1_10::XalanListIteratorBase.57"* sret %toRemove, %"class.xalanc_1_10::XalanList.54"* %m_freeEntries)
          to label %invoke.cont3 unwind label %lpad, !dbg !5534

invoke.cont3:                                     ; preds = %if.then
  br label %while.cond, !dbg !5535

while.cond:                                       ; preds = %invoke.cont11, %invoke.cont3
  %m_freeEntries4 = getelementptr inbounds %"class.xalanc_1_10::XalanMap.53", %"class.xalanc_1_10::XalanMap.53"* %this1, i32 0, i32 7, !dbg !5536
  invoke void @_ZN11xalanc_1_109XalanListINS_8XalanMapINS_14XalanDOMStringES2_NS_17XalanMapKeyTraitsIS2_EEE5EntryEE3endEv(%"struct.xalanc_1_10::XalanListIteratorBase.57"* sret %ref.tmp, %"class.xalanc_1_10::XalanList.54"* %m_freeEntries4)
          to label %invoke.cont5 unwind label %lpad, !dbg !5537

invoke.cont5:                                     ; preds = %while.cond
  %call7 = invoke zeroext i1 @_ZNK11xalanc_1_1021XalanListIteratorBaseINS_23XalanListIteratorTraitsINS_8XalanMapINS_14XalanDOMStringES3_NS_17XalanMapKeyTraitsIS3_EEE5EntryEEENS_9XalanListIS7_E4NodeEEneERKSC_(%"struct.xalanc_1_10::XalanListIteratorBase.57"* %toRemove, %"struct.xalanc_1_10::XalanListIteratorBase.57"* dereferenceable(8) %ref.tmp)
          to label %invoke.cont6 unwind label %lpad, !dbg !5538

invoke.cont6:                                     ; preds = %invoke.cont5
  br i1 %call7, label %while.body, label %while.end, !dbg !5535

while.body:                                       ; preds = %invoke.cont6
  %call9 = invoke %"struct.xalanc_1_10::XalanMap<xalanc_1_10::XalanDOMString, xalanc_1_10::XalanDOMString, xalanc_1_10::XalanMapKeyTraits<xalanc_1_10::XalanDOMString> >::Entry"* @_ZNK11xalanc_1_1021XalanListIteratorBaseINS_23XalanListIteratorTraitsINS_8XalanMapINS_14XalanDOMStringES3_NS_17XalanMapKeyTraitsIS3_EEE5EntryEEENS_9XalanListIS7_E4NodeEEptEv(%"struct.xalanc_1_10::XalanListIteratorBase.57"* %toRemove)
          to label %invoke.cont8 unwind label %lpad, !dbg !5539

invoke.cont8:                                     ; preds = %while.body
  %value = getelementptr inbounds %"struct.xalanc_1_10::XalanMap<xalanc_1_10::XalanDOMString, xalanc_1_10::XalanDOMString, xalanc_1_10::XalanMapKeyTraits<xalanc_1_10::XalanDOMString> >::Entry", %"struct.xalanc_1_10::XalanMap<xalanc_1_10::XalanDOMString, xalanc_1_10::XalanDOMString, xalanc_1_10::XalanMapKeyTraits<xalanc_1_10::XalanDOMString> >::Entry"* %call9, i32 0, i32 0, !dbg !5541
  %0 = load %"struct.std::pair.138"*, %"struct.std::pair.138"** %value, align 8, !dbg !5541
  invoke void @_ZN11xalanc_1_108XalanMapINS_14XalanDOMStringES1_NS_17XalanMapKeyTraitsIS1_EEE10deallocateEPSt4pairIKS1_S1_E(%"class.xalanc_1_10::XalanMap.53"* %this1, %"struct.std::pair.138"* %0)
          to label %invoke.cont10 unwind label %lpad, !dbg !5542

invoke.cont10:                                    ; preds = %invoke.cont8
  invoke void @_ZN11xalanc_1_1021XalanListIteratorBaseINS_23XalanListIteratorTraitsINS_8XalanMapINS_14XalanDOMStringES3_NS_17XalanMapKeyTraitsIS3_EEE5EntryEEENS_9XalanListIS7_E4NodeEEppEv(%"struct.xalanc_1_10::XalanListIteratorBase.57"* sret %tmp, %"struct.xalanc_1_10::XalanListIteratorBase.57"* %toRemove)
          to label %invoke.cont11 unwind label %lpad, !dbg !5543

invoke.cont11:                                    ; preds = %invoke.cont10
  br label %while.cond, !dbg !5535, !llvm.loop !5544

lpad:                                             ; preds = %invoke.cont10, %invoke.cont8, %while.body, %invoke.cont5, %while.cond, %if.then, %invoke.cont, %entry
  %1 = landingpad { i8*, i32 }
          catch i8* null, !dbg !5546
  %2 = extractvalue { i8*, i32 } %1, 0, !dbg !5546
  store i8* %2, i8** %exn.slot, align 8, !dbg !5546
  %3 = extractvalue { i8*, i32 } %1, 1, !dbg !5546
  store i32 %3, i32* %ehselector.slot, align 4, !dbg !5546
  %m_buckets13 = getelementptr inbounds %"class.xalanc_1_10::XalanMap.53", %"class.xalanc_1_10::XalanMap.53"* %this1, i32 0, i32 8, !dbg !5546
  call void @_ZN11xalanc_1_1011XalanVectorINS0_INS_21XalanListIteratorBaseINS_23XalanListIteratorTraitsINS_8XalanMapINS_14XalanDOMStringES4_NS_17XalanMapKeyTraitsIS4_EEE5EntryEEENS_9XalanListIS8_E4NodeEEENS_31MemoryManagedConstructionTraitsISD_EEEENS_32ConstructWithMemoryManagerTraitsISG_EEED2Ev(%"class.xalanc_1_10::XalanVector.55"* %m_buckets13) #3, !dbg !5546
  %m_freeEntries15 = getelementptr inbounds %"class.xalanc_1_10::XalanMap.53", %"class.xalanc_1_10::XalanMap.53"* %this1, i32 0, i32 7, !dbg !5546
  call void @_ZN11xalanc_1_109XalanListINS_8XalanMapINS_14XalanDOMStringES2_NS_17XalanMapKeyTraitsIS2_EEE5EntryEED2Ev(%"class.xalanc_1_10::XalanList.54"* %m_freeEntries15) #3, !dbg !5546
  %m_entries16 = getelementptr inbounds %"class.xalanc_1_10::XalanMap.53", %"class.xalanc_1_10::XalanMap.53"* %this1, i32 0, i32 6, !dbg !5546
  call void @_ZN11xalanc_1_109XalanListINS_8XalanMapINS_14XalanDOMStringES2_NS_17XalanMapKeyTraitsIS2_EEE5EntryEED2Ev(%"class.xalanc_1_10::XalanList.54"* %m_entries16) #3, !dbg !5546
  br label %terminate.handler, !dbg !5546

while.end:                                        ; preds = %invoke.cont6
  br label %if.end, !dbg !5547

if.end:                                           ; preds = %while.end, %invoke.cont2
  %m_buckets12 = getelementptr inbounds %"class.xalanc_1_10::XalanMap.53", %"class.xalanc_1_10::XalanMap.53"* %this1, i32 0, i32 8, !dbg !5546
  call void @_ZN11xalanc_1_1011XalanVectorINS0_INS_21XalanListIteratorBaseINS_23XalanListIteratorTraitsINS_8XalanMapINS_14XalanDOMStringES4_NS_17XalanMapKeyTraitsIS4_EEE5EntryEEENS_9XalanListIS8_E4NodeEEENS_31MemoryManagedConstructionTraitsISD_EEEENS_32ConstructWithMemoryManagerTraitsISG_EEED2Ev(%"class.xalanc_1_10::XalanVector.55"* %m_buckets12) #3, !dbg !5546
  %m_freeEntries14 = getelementptr inbounds %"class.xalanc_1_10::XalanMap.53", %"class.xalanc_1_10::XalanMap.53"* %this1, i32 0, i32 7, !dbg !5546
  call void @_ZN11xalanc_1_109XalanListINS_8XalanMapINS_14XalanDOMStringES2_NS_17XalanMapKeyTraitsIS2_EEE5EntryEED2Ev(%"class.xalanc_1_10::XalanList.54"* %m_freeEntries14) #3, !dbg !5546
  %m_entries = getelementptr inbounds %"class.xalanc_1_10::XalanMap.53", %"class.xalanc_1_10::XalanMap.53"* %this1, i32 0, i32 6, !dbg !5546
  call void @_ZN11xalanc_1_109XalanListINS_8XalanMapINS_14XalanDOMStringES2_NS_17XalanMapKeyTraitsIS2_EEE5EntryEED2Ev(%"class.xalanc_1_10::XalanList.54"* %m_entries) #3, !dbg !5546
  ret void, !dbg !5548

terminate.handler:                                ; preds = %lpad
  %exn = load i8*, i8** %exn.slot, align 8, !dbg !5546
  call void @__clang_call_terminate(i8* %exn) #14, !dbg !5546
  unreachable, !dbg !5546
}

; Function Attrs: noinline uwtable
define dso_local void @_ZN11xalanc_1_1016XalanFileUtility15checkAPIResultsERKNS_14XalanDOMStringES3_PKcRNS_20XalanXMLFileReporterES3_S3_b(%"class.xalanc_1_10::XalanFileUtility"* %this, %"class.xalanc_1_10::XalanDOMString"* dereferenceable(40) %actual, %"class.xalanc_1_10::XalanDOMString"* dereferenceable(40) %expected, i8* %msg, %"class.xalanc_1_10::XalanXMLFileReporter"* dereferenceable(1944) %logfile, %"class.xalanc_1_10::XalanDOMString"* dereferenceable(40) %outputFile, %"class.xalanc_1_10::XalanDOMString"* dereferenceable(40) %goldFile, i1 zeroext %containsOnly) #0 align 2 personality i8* bitcast (i32 (...)* @__gxx_personality_v0 to i8*) !dbg !5549 {
entry:
  %this.addr = alloca %"class.xalanc_1_10::XalanFileUtility"*, align 8
  %actual.addr = alloca %"class.xalanc_1_10::XalanDOMString"*, align 8
  %expected.addr = alloca %"class.xalanc_1_10::XalanDOMString"*, align 8
  %msg.addr = alloca i8*, align 8
  %logfile.addr = alloca %"class.xalanc_1_10::XalanXMLFileReporter"*, align 8
  %outputFile.addr = alloca %"class.xalanc_1_10::XalanDOMString"*, align 8
  %goldFile.addr = alloca %"class.xalanc_1_10::XalanDOMString"*, align 8
  %containsOnly.addr = alloca i8, align 1
  %actexp = alloca %"class.xalanc_1_10::XalanMap.53", align 8
  %ref.tmp = alloca %"class.xalanc_1_10::XalanDOMString", align 8
  %exn.slot = alloca i8*
  %ehselector.slot = alloca i32
  %ref.tmp25 = alloca %"class.xalanc_1_10::XalanDOMString", align 8
  %ref.tmp30 = alloca %"class.xalanc_1_10::XalanDOMString", align 8
  %ref.tmp36 = alloca %"class.xalanc_1_10::XalanDOMString", align 8
  %ref.tmp42 = alloca %"class.xalanc_1_10::XalanDOMString", align 8
  %ref.tmp47 = alloca %"class.xalanc_1_10::XalanDOMString", align 8
  store %"class.xalanc_1_10::XalanFileUtility"* %this, %"class.xalanc_1_10::XalanFileUtility"** %this.addr, align 8
  call void @llvm.dbg.declare(metadata %"class.xalanc_1_10::XalanFileUtility"** %this.addr, metadata !5550, metadata !DIExpression()), !dbg !5551
  store %"class.xalanc_1_10::XalanDOMString"* %actual, %"class.xalanc_1_10::XalanDOMString"** %actual.addr, align 8
  call void @llvm.dbg.declare(metadata %"class.xalanc_1_10::XalanDOMString"** %actual.addr, metadata !5552, metadata !DIExpression()), !dbg !5553
  store %"class.xalanc_1_10::XalanDOMString"* %expected, %"class.xalanc_1_10::XalanDOMString"** %expected.addr, align 8
  call void @llvm.dbg.declare(metadata %"class.xalanc_1_10::XalanDOMString"** %expected.addr, metadata !5554, metadata !DIExpression()), !dbg !5555
  store i8* %msg, i8** %msg.addr, align 8
  call void @llvm.dbg.declare(metadata i8** %msg.addr, metadata !5556, metadata !DIExpression()), !dbg !5557
  store %"class.xalanc_1_10::XalanXMLFileReporter"* %logfile, %"class.xalanc_1_10::XalanXMLFileReporter"** %logfile.addr, align 8
  call void @llvm.dbg.declare(metadata %"class.xalanc_1_10::XalanXMLFileReporter"** %logfile.addr, metadata !5558, metadata !DIExpression()), !dbg !5559
  store %"class.xalanc_1_10::XalanDOMString"* %outputFile, %"class.xalanc_1_10::XalanDOMString"** %outputFile.addr, align 8
  call void @llvm.dbg.declare(metadata %"class.xalanc_1_10::XalanDOMString"** %outputFile.addr, metadata !5560, metadata !DIExpression()), !dbg !5561
  store %"class.xalanc_1_10::XalanDOMString"* %goldFile, %"class.xalanc_1_10::XalanDOMString"** %goldFile.addr, align 8
  call void @llvm.dbg.declare(metadata %"class.xalanc_1_10::XalanDOMString"** %goldFile.addr, metadata !5562, metadata !DIExpression()), !dbg !5563
  %frombool = zext i1 %containsOnly to i8
  store i8 %frombool, i8* %containsOnly.addr, align 1
  call void @llvm.dbg.declare(metadata i8* %containsOnly.addr, metadata !5564, metadata !DIExpression()), !dbg !5565
  %this1 = load %"class.xalanc_1_10::XalanFileUtility"*, %"class.xalanc_1_10::XalanFileUtility"** %this.addr, align 8
  %0 = load %"class.xalanc_1_10::XalanDOMString"*, %"class.xalanc_1_10::XalanDOMString"** %actual.addr, align 8, !dbg !5566
  %1 = load %"class.xalanc_1_10::XalanDOMString"*, %"class.xalanc_1_10::XalanDOMString"** %expected.addr, align 8, !dbg !5568
  %call = call zeroext i1 @_ZN11xalanc_1_10eqERKNS_14XalanDOMStringES2_(%"class.xalanc_1_10::XalanDOMString"* dereferenceable(40) %0, %"class.xalanc_1_10::XalanDOMString"* dereferenceable(40) %1), !dbg !5569
  br i1 %call, label %if.then, label %lor.lhs.false, !dbg !5570

lor.lhs.false:                                    ; preds = %entry
  %2 = load i8, i8* %containsOnly.addr, align 1, !dbg !5571
  %tobool = trunc i8 %2 to i1, !dbg !5571
  %conv = zext i1 %tobool to i32, !dbg !5571
  %cmp = icmp eq i32 %conv, 1, !dbg !5572
  br i1 %cmp, label %land.lhs.true, label %if.else, !dbg !5573

land.lhs.true:                                    ; preds = %lor.lhs.false
  %3 = load %"class.xalanc_1_10::XalanDOMString"*, %"class.xalanc_1_10::XalanDOMString"** %actual.addr, align 8, !dbg !5574
  %4 = load %"class.xalanc_1_10::XalanDOMString"*, %"class.xalanc_1_10::XalanDOMString"** %expected.addr, align 8, !dbg !5575
  %call2 = call i32 @_ZN11xalanc_1_107indexOfERKNS_14XalanDOMStringES2_(%"class.xalanc_1_10::XalanDOMString"* dereferenceable(40) %3, %"class.xalanc_1_10::XalanDOMString"* dereferenceable(40) %4), !dbg !5576
  %cmp3 = icmp ne i32 %call2, -1, !dbg !5577
  br i1 %cmp3, label %if.then, label %if.else, !dbg !5578

if.then:                                          ; preds = %land.lhs.true, %entry
  %data = getelementptr inbounds %"class.xalanc_1_10::XalanFileUtility", %"class.xalanc_1_10::XalanFileUtility"* %this1, i32 0, i32 0, !dbg !5579
  %pass = getelementptr inbounds %"struct.xalanc_1_10::XalanFileUtility::reportStruct", %"struct.xalanc_1_10::XalanFileUtility::reportStruct"* %data, i32 0, i32 9, !dbg !5581
  %5 = load i32, i32* %pass, align 8, !dbg !5582
  %add = add nsw i32 %5, 1, !dbg !5582
  store i32 %add, i32* %pass, align 8, !dbg !5582
  %call4 = call dereferenceable(272) %"class.std::basic_ostream"* @_ZStlsISt11char_traitsIcEERSt13basic_ostreamIcT_ES5_PKc(%"class.std::basic_ostream"* dereferenceable(272) @_ZSt4cout, i8* getelementptr inbounds ([9 x i8], [9 x i8]* @.str.30, i64 0, i64 0)), !dbg !5583
  %data5 = getelementptr inbounds %"class.xalanc_1_10::XalanFileUtility", %"class.xalanc_1_10::XalanFileUtility"* %this1, i32 0, i32 0, !dbg !5584
  %testOrFile = getelementptr inbounds %"struct.xalanc_1_10::XalanFileUtility::reportStruct", %"struct.xalanc_1_10::XalanFileUtility::reportStruct"* %data5, i32 0, i32 1, !dbg !5585
  %call6 = call dereferenceable(272) %"class.std::basic_ostream"* @_ZN11xalanc_1_10lsERSoRNS_14XalanDOMStringE(%"class.std::basic_ostream"* dereferenceable(272) %call4, %"class.xalanc_1_10::XalanDOMString"* dereferenceable(40) %testOrFile), !dbg !5586
  %call7 = call dereferenceable(272) %"class.std::basic_ostream"* @_ZNSolsEPFRSoS_E(%"class.std::basic_ostream"* %call6, %"class.std::basic_ostream"* (%"class.std::basic_ostream"*)* @_ZSt4endlIcSt11char_traitsIcEERSt13basic_ostreamIT_T0_ES6_), !dbg !5587
  %6 = load %"class.xalanc_1_10::XalanXMLFileReporter"*, %"class.xalanc_1_10::XalanXMLFileReporter"** %logfile.addr, align 8, !dbg !5588
  %data8 = getelementptr inbounds %"class.xalanc_1_10::XalanFileUtility", %"class.xalanc_1_10::XalanFileUtility"* %this1, i32 0, i32 0, !dbg !5589
  %testOrFile9 = getelementptr inbounds %"struct.xalanc_1_10::XalanFileUtility::reportStruct", %"struct.xalanc_1_10::XalanFileUtility::reportStruct"* %data8, i32 0, i32 1, !dbg !5590
  call void @_ZN11xalanc_1_1020XalanXMLFileReporter12logCheckPassERKNS_14XalanDOMStringE(%"class.xalanc_1_10::XalanXMLFileReporter"* %6, %"class.xalanc_1_10::XalanDOMString"* dereferenceable(40) %testOrFile9), !dbg !5591
  br label %if.end, !dbg !5592

if.else:                                          ; preds = %land.lhs.true, %lor.lhs.false
  %7 = load %"class.xalanc_1_10::XalanDOMString"*, %"class.xalanc_1_10::XalanDOMString"** %actual.addr, align 8, !dbg !5593
  %data10 = getelementptr inbounds %"class.xalanc_1_10::XalanFileUtility", %"class.xalanc_1_10::XalanFileUtility"* %this1, i32 0, i32 0, !dbg !5595
  %actual11 = getelementptr inbounds %"struct.xalanc_1_10::XalanFileUtility::reportStruct", %"struct.xalanc_1_10::XalanFileUtility::reportStruct"* %data10, i32 0, i32 7, !dbg !5596
  %call12 = call dereferenceable(40) %"class.xalanc_1_10::XalanDOMString"* @_ZN11xalanc_1_1014XalanDOMStringaSERKS0_(%"class.xalanc_1_10::XalanDOMString"* %actual11, %"class.xalanc_1_10::XalanDOMString"* dereferenceable(40) %7), !dbg !5597
  %8 = load %"class.xalanc_1_10::XalanDOMString"*, %"class.xalanc_1_10::XalanDOMString"** %expected.addr, align 8, !dbg !5598
  %data13 = getelementptr inbounds %"class.xalanc_1_10::XalanFileUtility", %"class.xalanc_1_10::XalanFileUtility"* %this1, i32 0, i32 0, !dbg !5599
  %expected14 = getelementptr inbounds %"struct.xalanc_1_10::XalanFileUtility::reportStruct", %"struct.xalanc_1_10::XalanFileUtility::reportStruct"* %data13, i32 0, i32 8, !dbg !5600
  %call15 = call dereferenceable(40) %"class.xalanc_1_10::XalanDOMString"* @_ZN11xalanc_1_1014XalanDOMStringaSERKS0_(%"class.xalanc_1_10::XalanDOMString"* %expected14, %"class.xalanc_1_10::XalanDOMString"* dereferenceable(40) %8), !dbg !5601
  %data16 = getelementptr inbounds %"class.xalanc_1_10::XalanFileUtility", %"class.xalanc_1_10::XalanFileUtility"* %this1, i32 0, i32 0, !dbg !5602
  %currentNode = getelementptr inbounds %"struct.xalanc_1_10::XalanFileUtility::reportStruct", %"struct.xalanc_1_10::XalanFileUtility::reportStruct"* %data16, i32 0, i32 6, !dbg !5603
  %call17 = call dereferenceable(40) %"class.xalanc_1_10::XalanDOMString"* @_ZN11xalanc_1_1014XalanDOMStringaSEPKc(%"class.xalanc_1_10::XalanDOMString"* %currentNode, i8* getelementptr inbounds ([9 x i8], [9 x i8]* @.str.38, i64 0, i64 0)), !dbg !5604
  %9 = load i8*, i8** %msg.addr, align 8, !dbg !5605
  %data18 = getelementptr inbounds %"class.xalanc_1_10::XalanFileUtility", %"class.xalanc_1_10::XalanFileUtility"* %this1, i32 0, i32 0, !dbg !5606
  %msg19 = getelementptr inbounds %"struct.xalanc_1_10::XalanFileUtility::reportStruct", %"struct.xalanc_1_10::XalanFileUtility::reportStruct"* %data18, i32 0, i32 5, !dbg !5607
  store i8* %9, i8** %msg19, align 8, !dbg !5608
  %data20 = getelementptr inbounds %"class.xalanc_1_10::XalanFileUtility", %"class.xalanc_1_10::XalanFileUtility"* %this1, i32 0, i32 0, !dbg !5609
  %fail = getelementptr inbounds %"struct.xalanc_1_10::XalanFileUtility::reportStruct", %"struct.xalanc_1_10::XalanFileUtility::reportStruct"* %data20, i32 0, i32 10, !dbg !5610
  %10 = load i32, i32* %fail, align 4, !dbg !5611
  %add21 = add nsw i32 %10, 1, !dbg !5611
  store i32 %add21, i32* %fail, align 4, !dbg !5611
  call void @_ZN11xalanc_1_1016XalanFileUtility11reportErrorEv(%"class.xalanc_1_10::XalanFileUtility"* %this1), !dbg !5612
  call void @llvm.dbg.declare(metadata %"class.xalanc_1_10::XalanMap.53"* %actexp, metadata !5613, metadata !DIExpression()), !dbg !5615
  %m_memoryManager = getelementptr inbounds %"class.xalanc_1_10::XalanFileUtility", %"class.xalanc_1_10::XalanFileUtility"* %this1, i32 0, i32 2, !dbg !5616
  %11 = load %"class.xercesc_2_7::MemoryManager"*, %"class.xercesc_2_7::MemoryManager"** %m_memoryManager, align 8, !dbg !5616
  call void @_ZN11xalanc_1_108XalanMapINS_14XalanDOMStringES1_NS_17XalanMapKeyTraitsIS1_EEEC2ERN11xercesc_2_713MemoryManagerEfmm(%"class.xalanc_1_10::XalanMap.53"* %actexp, %"class.xercesc_2_7::MemoryManager"* dereferenceable(8) %11, float 7.500000e-01, i64 29, i64 50), !dbg !5615
  %m_memoryManager22 = getelementptr inbounds %"class.xalanc_1_10::XalanFileUtility", %"class.xalanc_1_10::XalanFileUtility"* %this1, i32 0, i32 2, !dbg !5617
  %12 = load %"class.xercesc_2_7::MemoryManager"*, %"class.xercesc_2_7::MemoryManager"** %m_memoryManager22, align 8, !dbg !5617
  invoke void @_ZN11xalanc_1_1014XalanDOMStringC1EPKcRN11xercesc_2_713MemoryManagerEj(%"class.xalanc_1_10::XalanDOMString"* %ref.tmp, i8* getelementptr inbounds ([4 x i8], [4 x i8]* @.str.33, i64 0, i64 0), %"class.xercesc_2_7::MemoryManager"* dereferenceable(8) %12, i32 -1)
          to label %invoke.cont unwind label %lpad, !dbg !5618

invoke.cont:                                      ; preds = %if.else
  %13 = load %"class.xalanc_1_10::XalanDOMString"*, %"class.xalanc_1_10::XalanDOMString"** %expected.addr, align 8, !dbg !5619
  invoke void @_ZN11xalanc_1_108XalanMapINS_14XalanDOMStringES1_NS_17XalanMapKeyTraitsIS1_EEE6insertERKS1_S6_(%"class.xalanc_1_10::XalanMap.53"* %actexp, %"class.xalanc_1_10::XalanDOMString"* dereferenceable(40) %ref.tmp, %"class.xalanc_1_10::XalanDOMString"* dereferenceable(40) %13)
          to label %invoke.cont24 unwind label %lpad23, !dbg !5620

invoke.cont24:                                    ; preds = %invoke.cont
  call void @_ZN11xalanc_1_1014XalanDOMStringD2Ev(%"class.xalanc_1_10::XalanDOMString"* %ref.tmp) #3, !dbg !5621
  %m_memoryManager26 = getelementptr inbounds %"class.xalanc_1_10::XalanFileUtility", %"class.xalanc_1_10::XalanFileUtility"* %this1, i32 0, i32 2, !dbg !5622
  %14 = load %"class.xercesc_2_7::MemoryManager"*, %"class.xercesc_2_7::MemoryManager"** %m_memoryManager26, align 8, !dbg !5622
  invoke void @_ZN11xalanc_1_1014XalanDOMStringC1EPKcRN11xercesc_2_713MemoryManagerEj(%"class.xalanc_1_10::XalanDOMString"* %ref.tmp25, i8* getelementptr inbounds ([4 x i8], [4 x i8]* @.str.34, i64 0, i64 0), %"class.xercesc_2_7::MemoryManager"* dereferenceable(8) %14, i32 -1)
          to label %invoke.cont27 unwind label %lpad, !dbg !5623

invoke.cont27:                                    ; preds = %invoke.cont24
  %15 = load %"class.xalanc_1_10::XalanDOMString"*, %"class.xalanc_1_10::XalanDOMString"** %actual.addr, align 8, !dbg !5624
  invoke void @_ZN11xalanc_1_108XalanMapINS_14XalanDOMStringES1_NS_17XalanMapKeyTraitsIS1_EEE6insertERKS1_S6_(%"class.xalanc_1_10::XalanMap.53"* %actexp, %"class.xalanc_1_10::XalanDOMString"* dereferenceable(40) %ref.tmp25, %"class.xalanc_1_10::XalanDOMString"* dereferenceable(40) %15)
          to label %invoke.cont29 unwind label %lpad28, !dbg !5625

invoke.cont29:                                    ; preds = %invoke.cont27
  call void @_ZN11xalanc_1_1014XalanDOMStringD2Ev(%"class.xalanc_1_10::XalanDOMString"* %ref.tmp25) #3, !dbg !5626
  %m_memoryManager31 = getelementptr inbounds %"class.xalanc_1_10::XalanFileUtility", %"class.xalanc_1_10::XalanFileUtility"* %this1, i32 0, i32 2, !dbg !5627
  %16 = load %"class.xercesc_2_7::MemoryManager"*, %"class.xercesc_2_7::MemoryManager"** %m_memoryManager31, align 8, !dbg !5627
  invoke void @_ZN11xalanc_1_1014XalanDOMStringC1EPKcRN11xercesc_2_713MemoryManagerEj(%"class.xalanc_1_10::XalanDOMString"* %ref.tmp30, i8* getelementptr inbounds ([4 x i8], [4 x i8]* @.str.35, i64 0, i64 0), %"class.xercesc_2_7::MemoryManager"* dereferenceable(8) %16, i32 -1)
          to label %invoke.cont32 unwind label %lpad, !dbg !5628

invoke.cont32:                                    ; preds = %invoke.cont29
  %data33 = getelementptr inbounds %"class.xalanc_1_10::XalanFileUtility", %"class.xalanc_1_10::XalanFileUtility"* %this1, i32 0, i32 0, !dbg !5629
  %xslFileURL = getelementptr inbounds %"struct.xalanc_1_10::XalanFileUtility::reportStruct", %"struct.xalanc_1_10::XalanFileUtility::reportStruct"* %data33, i32 0, i32 3, !dbg !5630
  invoke void @_ZN11xalanc_1_108XalanMapINS_14XalanDOMStringES1_NS_17XalanMapKeyTraitsIS1_EEE6insertERKS1_S6_(%"class.xalanc_1_10::XalanMap.53"* %actexp, %"class.xalanc_1_10::XalanDOMString"* dereferenceable(40) %ref.tmp30, %"class.xalanc_1_10::XalanDOMString"* dereferenceable(40) %xslFileURL)
          to label %invoke.cont35 unwind label %lpad34, !dbg !5631

invoke.cont35:                                    ; preds = %invoke.cont32
  call void @_ZN11xalanc_1_1014XalanDOMStringD2Ev(%"class.xalanc_1_10::XalanDOMString"* %ref.tmp30) #3, !dbg !5632
  %m_memoryManager37 = getelementptr inbounds %"class.xalanc_1_10::XalanFileUtility", %"class.xalanc_1_10::XalanFileUtility"* %this1, i32 0, i32 2, !dbg !5633
  %17 = load %"class.xercesc_2_7::MemoryManager"*, %"class.xercesc_2_7::MemoryManager"** %m_memoryManager37, align 8, !dbg !5633
  invoke void @_ZN11xalanc_1_1014XalanDOMStringC1EPKcRN11xercesc_2_713MemoryManagerEj(%"class.xalanc_1_10::XalanDOMString"* %ref.tmp36, i8* getelementptr inbounds ([4 x i8], [4 x i8]* @.str.25, i64 0, i64 0), %"class.xercesc_2_7::MemoryManager"* dereferenceable(8) %17, i32 -1)
          to label %invoke.cont38 unwind label %lpad, !dbg !5634

invoke.cont38:                                    ; preds = %invoke.cont35
  %data39 = getelementptr inbounds %"class.xalanc_1_10::XalanFileUtility", %"class.xalanc_1_10::XalanFileUtility"* %this1, i32 0, i32 0, !dbg !5635
  %xmlFileURL = getelementptr inbounds %"struct.xalanc_1_10::XalanFileUtility::reportStruct", %"struct.xalanc_1_10::XalanFileUtility::reportStruct"* %data39, i32 0, i32 2, !dbg !5636
  invoke void @_ZN11xalanc_1_108XalanMapINS_14XalanDOMStringES1_NS_17XalanMapKeyTraitsIS1_EEE6insertERKS1_S6_(%"class.xalanc_1_10::XalanMap.53"* %actexp, %"class.xalanc_1_10::XalanDOMString"* dereferenceable(40) %ref.tmp36, %"class.xalanc_1_10::XalanDOMString"* dereferenceable(40) %xmlFileURL)
          to label %invoke.cont41 unwind label %lpad40, !dbg !5637

invoke.cont41:                                    ; preds = %invoke.cont38
  call void @_ZN11xalanc_1_1014XalanDOMStringD2Ev(%"class.xalanc_1_10::XalanDOMString"* %ref.tmp36) #3, !dbg !5638
  %m_memoryManager43 = getelementptr inbounds %"class.xalanc_1_10::XalanFileUtility", %"class.xalanc_1_10::XalanFileUtility"* %this1, i32 0, i32 2, !dbg !5639
  %18 = load %"class.xercesc_2_7::MemoryManager"*, %"class.xercesc_2_7::MemoryManager"** %m_memoryManager43, align 8, !dbg !5639
  invoke void @_ZN11xalanc_1_1014XalanDOMStringC1EPKcRN11xercesc_2_713MemoryManagerEj(%"class.xalanc_1_10::XalanDOMString"* %ref.tmp42, i8* getelementptr inbounds ([7 x i8], [7 x i8]* @.str.36, i64 0, i64 0), %"class.xercesc_2_7::MemoryManager"* dereferenceable(8) %18, i32 -1)
          to label %invoke.cont44 unwind label %lpad, !dbg !5640

invoke.cont44:                                    ; preds = %invoke.cont41
  %19 = load %"class.xalanc_1_10::XalanDOMString"*, %"class.xalanc_1_10::XalanDOMString"** %outputFile.addr, align 8, !dbg !5641
  invoke void @_ZN11xalanc_1_108XalanMapINS_14XalanDOMStringES1_NS_17XalanMapKeyTraitsIS1_EEE6insertERKS1_S6_(%"class.xalanc_1_10::XalanMap.53"* %actexp, %"class.xalanc_1_10::XalanDOMString"* dereferenceable(40) %ref.tmp42, %"class.xalanc_1_10::XalanDOMString"* dereferenceable(40) %19)
          to label %invoke.cont46 unwind label %lpad45, !dbg !5642

invoke.cont46:                                    ; preds = %invoke.cont44
  call void @_ZN11xalanc_1_1014XalanDOMStringD2Ev(%"class.xalanc_1_10::XalanDOMString"* %ref.tmp42) #3, !dbg !5643
  %m_memoryManager48 = getelementptr inbounds %"class.xalanc_1_10::XalanFileUtility", %"class.xalanc_1_10::XalanFileUtility"* %this1, i32 0, i32 2, !dbg !5644
  %20 = load %"class.xercesc_2_7::MemoryManager"*, %"class.xercesc_2_7::MemoryManager"** %m_memoryManager48, align 8, !dbg !5644
  invoke void @_ZN11xalanc_1_1014XalanDOMStringC1EPKcRN11xercesc_2_713MemoryManagerEj(%"class.xalanc_1_10::XalanDOMString"* %ref.tmp47, i8* getelementptr inbounds ([5 x i8], [5 x i8]* @.str.37, i64 0, i64 0), %"class.xercesc_2_7::MemoryManager"* dereferenceable(8) %20, i32 -1)
          to label %invoke.cont49 unwind label %lpad, !dbg !5645

invoke.cont49:                                    ; preds = %invoke.cont46
  %21 = load %"class.xalanc_1_10::XalanDOMString"*, %"class.xalanc_1_10::XalanDOMString"** %goldFile.addr, align 8, !dbg !5646
  invoke void @_ZN11xalanc_1_108XalanMapINS_14XalanDOMStringES1_NS_17XalanMapKeyTraitsIS1_EEE6insertERKS1_S6_(%"class.xalanc_1_10::XalanMap.53"* %actexp, %"class.xalanc_1_10::XalanDOMString"* dereferenceable(40) %ref.tmp47, %"class.xalanc_1_10::XalanDOMString"* dereferenceable(40) %21)
          to label %invoke.cont51 unwind label %lpad50, !dbg !5647

invoke.cont51:                                    ; preds = %invoke.cont49
  call void @_ZN11xalanc_1_1014XalanDOMStringD2Ev(%"class.xalanc_1_10::XalanDOMString"* %ref.tmp47) #3, !dbg !5648
  %22 = load %"class.xalanc_1_10::XalanXMLFileReporter"*, %"class.xalanc_1_10::XalanXMLFileReporter"** %logfile.addr, align 8, !dbg !5649
  %data52 = getelementptr inbounds %"class.xalanc_1_10::XalanFileUtility", %"class.xalanc_1_10::XalanFileUtility"* %this1, i32 0, i32 0, !dbg !5650
  %testOrFile53 = getelementptr inbounds %"struct.xalanc_1_10::XalanFileUtility::reportStruct", %"struct.xalanc_1_10::XalanFileUtility::reportStruct"* %data52, i32 0, i32 1, !dbg !5651
  invoke void @_ZN11xalanc_1_1020XalanXMLFileReporter12logCheckFailERKNS_14XalanDOMStringERKNS_8XalanMapIS1_S1_NS_17XalanMapKeyTraitsIS1_EEEE(%"class.xalanc_1_10::XalanXMLFileReporter"* %22, %"class.xalanc_1_10::XalanDOMString"* dereferenceable(40) %testOrFile53, %"class.xalanc_1_10::XalanMap.53"* dereferenceable(136) %actexp)
          to label %invoke.cont54 unwind label %lpad, !dbg !5652

invoke.cont54:                                    ; preds = %invoke.cont51
  call void @_ZN11xalanc_1_108XalanMapINS_14XalanDOMStringES1_NS_17XalanMapKeyTraitsIS1_EEED2Ev(%"class.xalanc_1_10::XalanMap.53"* %actexp) #3, !dbg !5653
  br label %if.end

lpad:                                             ; preds = %invoke.cont51, %invoke.cont46, %invoke.cont41, %invoke.cont35, %invoke.cont29, %invoke.cont24, %if.else
  %23 = landingpad { i8*, i32 }
          cleanup, !dbg !5654
  %24 = extractvalue { i8*, i32 } %23, 0, !dbg !5654
  store i8* %24, i8** %exn.slot, align 8, !dbg !5654
  %25 = extractvalue { i8*, i32 } %23, 1, !dbg !5654
  store i32 %25, i32* %ehselector.slot, align 4, !dbg !5654
  br label %ehcleanup, !dbg !5654

lpad23:                                           ; preds = %invoke.cont
  %26 = landingpad { i8*, i32 }
          cleanup, !dbg !5654
  %27 = extractvalue { i8*, i32 } %26, 0, !dbg !5654
  store i8* %27, i8** %exn.slot, align 8, !dbg !5654
  %28 = extractvalue { i8*, i32 } %26, 1, !dbg !5654
  store i32 %28, i32* %ehselector.slot, align 4, !dbg !5654
  call void @_ZN11xalanc_1_1014XalanDOMStringD2Ev(%"class.xalanc_1_10::XalanDOMString"* %ref.tmp) #3, !dbg !5621
  br label %ehcleanup, !dbg !5621

lpad28:                                           ; preds = %invoke.cont27
  %29 = landingpad { i8*, i32 }
          cleanup, !dbg !5654
  %30 = extractvalue { i8*, i32 } %29, 0, !dbg !5654
  store i8* %30, i8** %exn.slot, align 8, !dbg !5654
  %31 = extractvalue { i8*, i32 } %29, 1, !dbg !5654
  store i32 %31, i32* %ehselector.slot, align 4, !dbg !5654
  call void @_ZN11xalanc_1_1014XalanDOMStringD2Ev(%"class.xalanc_1_10::XalanDOMString"* %ref.tmp25) #3, !dbg !5626
  br label %ehcleanup, !dbg !5626

lpad34:                                           ; preds = %invoke.cont32
  %32 = landingpad { i8*, i32 }
          cleanup, !dbg !5654
  %33 = extractvalue { i8*, i32 } %32, 0, !dbg !5654
  store i8* %33, i8** %exn.slot, align 8, !dbg !5654
  %34 = extractvalue { i8*, i32 } %32, 1, !dbg !5654
  store i32 %34, i32* %ehselector.slot, align 4, !dbg !5654
  call void @_ZN11xalanc_1_1014XalanDOMStringD2Ev(%"class.xalanc_1_10::XalanDOMString"* %ref.tmp30) #3, !dbg !5632
  br label %ehcleanup, !dbg !5632

lpad40:                                           ; preds = %invoke.cont38
  %35 = landingpad { i8*, i32 }
          cleanup, !dbg !5654
  %36 = extractvalue { i8*, i32 } %35, 0, !dbg !5654
  store i8* %36, i8** %exn.slot, align 8, !dbg !5654
  %37 = extractvalue { i8*, i32 } %35, 1, !dbg !5654
  store i32 %37, i32* %ehselector.slot, align 4, !dbg !5654
  call void @_ZN11xalanc_1_1014XalanDOMStringD2Ev(%"class.xalanc_1_10::XalanDOMString"* %ref.tmp36) #3, !dbg !5638
  br label %ehcleanup, !dbg !5638

lpad45:                                           ; preds = %invoke.cont44
  %38 = landingpad { i8*, i32 }
          cleanup, !dbg !5654
  %39 = extractvalue { i8*, i32 } %38, 0, !dbg !5654
  store i8* %39, i8** %exn.slot, align 8, !dbg !5654
  %40 = extractvalue { i8*, i32 } %38, 1, !dbg !5654
  store i32 %40, i32* %ehselector.slot, align 4, !dbg !5654
  call void @_ZN11xalanc_1_1014XalanDOMStringD2Ev(%"class.xalanc_1_10::XalanDOMString"* %ref.tmp42) #3, !dbg !5643
  br label %ehcleanup, !dbg !5643

lpad50:                                           ; preds = %invoke.cont49
  %41 = landingpad { i8*, i32 }
          cleanup, !dbg !5654
  %42 = extractvalue { i8*, i32 } %41, 0, !dbg !5654
  store i8* %42, i8** %exn.slot, align 8, !dbg !5654
  %43 = extractvalue { i8*, i32 } %41, 1, !dbg !5654
  store i32 %43, i32* %ehselector.slot, align 4, !dbg !5654
  call void @_ZN11xalanc_1_1014XalanDOMStringD2Ev(%"class.xalanc_1_10::XalanDOMString"* %ref.tmp47) #3, !dbg !5648
  br label %ehcleanup, !dbg !5648

ehcleanup:                                        ; preds = %lpad50, %lpad45, %lpad40, %lpad34, %lpad28, %lpad23, %lpad
  call void @_ZN11xalanc_1_108XalanMapINS_14XalanDOMStringES1_NS_17XalanMapKeyTraitsIS1_EEED2Ev(%"class.xalanc_1_10::XalanMap.53"* %actexp) #3, !dbg !5653
  br label %eh.resume, !dbg !5653

if.end:                                           ; preds = %invoke.cont54, %if.then
  ret void, !dbg !5655

eh.resume:                                        ; preds = %ehcleanup
  %exn = load i8*, i8** %exn.slot, align 8, !dbg !5653
  %sel = load i32, i32* %ehselector.slot, align 4, !dbg !5653
  %lpad.val = insertvalue { i8*, i32 } undef, i8* %exn, 0, !dbg !5653
  %lpad.val55 = insertvalue { i8*, i32 } %lpad.val, i32 %sel, 1, !dbg !5653
  resume { i8*, i32 } %lpad.val55, !dbg !5653
}

; Function Attrs: noinline uwtable
define linkonce_odr dso_local zeroext i1 @_ZN11xalanc_1_10eqERKNS_14XalanDOMStringES2_(%"class.xalanc_1_10::XalanDOMString"* dereferenceable(40) %theLHS, %"class.xalanc_1_10::XalanDOMString"* dereferenceable(40) %theRHS) #0 comdat !dbg !5656 {
entry:
  %theLHS.addr = alloca %"class.xalanc_1_10::XalanDOMString"*, align 8
  %theRHS.addr = alloca %"class.xalanc_1_10::XalanDOMString"*, align 8
  store %"class.xalanc_1_10::XalanDOMString"* %theLHS, %"class.xalanc_1_10::XalanDOMString"** %theLHS.addr, align 8
  call void @llvm.dbg.declare(metadata %"class.xalanc_1_10::XalanDOMString"** %theLHS.addr, metadata !5657, metadata !DIExpression()), !dbg !5658
  store %"class.xalanc_1_10::XalanDOMString"* %theRHS, %"class.xalanc_1_10::XalanDOMString"** %theRHS.addr, align 8
  call void @llvm.dbg.declare(metadata %"class.xalanc_1_10::XalanDOMString"** %theRHS.addr, metadata !5659, metadata !DIExpression()), !dbg !5660
  %0 = load %"class.xalanc_1_10::XalanDOMString"*, %"class.xalanc_1_10::XalanDOMString"** %theLHS.addr, align 8, !dbg !5661
  %1 = load %"class.xalanc_1_10::XalanDOMString"*, %"class.xalanc_1_10::XalanDOMString"** %theRHS.addr, align 8, !dbg !5662
  %call = call zeroext i1 @_ZN11xalanc_1_1014XalanDOMString6equalsERKS0_S2_(%"class.xalanc_1_10::XalanDOMString"* dereferenceable(40) %0, %"class.xalanc_1_10::XalanDOMString"* dereferenceable(40) %1), !dbg !5663
  ret i1 %call, !dbg !5664
}

declare dso_local i32 @_ZN11xalanc_1_107indexOfERKNS_14XalanDOMStringES2_(%"class.xalanc_1_10::XalanDOMString"* dereferenceable(40), %"class.xalanc_1_10::XalanDOMString"* dereferenceable(40)) #1

; Function Attrs: noinline uwtable
define linkonce_odr dso_local dereferenceable(40) %"class.xalanc_1_10::XalanDOMString"* @_ZN11xalanc_1_1014XalanDOMStringaSEPKc(%"class.xalanc_1_10::XalanDOMString"* %this, i8* %theRHS) #0 comdat align 2 !dbg !5665 {
entry:
  %this.addr = alloca %"class.xalanc_1_10::XalanDOMString"*, align 8
  %theRHS.addr = alloca i8*, align 8
  store %"class.xalanc_1_10::XalanDOMString"* %this, %"class.xalanc_1_10::XalanDOMString"** %this.addr, align 8
  call void @llvm.dbg.declare(metadata %"class.xalanc_1_10::XalanDOMString"** %this.addr, metadata !5666, metadata !DIExpression()), !dbg !5667
  store i8* %theRHS, i8** %theRHS.addr, align 8
  call void @llvm.dbg.declare(metadata i8** %theRHS.addr, metadata !5668, metadata !DIExpression()), !dbg !5669
  %this1 = load %"class.xalanc_1_10::XalanDOMString"*, %"class.xalanc_1_10::XalanDOMString"** %this.addr, align 8
  %0 = load i8*, i8** %theRHS.addr, align 8, !dbg !5670
  %call = call dereferenceable(40) %"class.xalanc_1_10::XalanDOMString"* @_ZN11xalanc_1_1014XalanDOMString6assignEPKc(%"class.xalanc_1_10::XalanDOMString"* %this1, i8* %0), !dbg !5671
  ret %"class.xalanc_1_10::XalanDOMString"* %call, !dbg !5672
}

declare dso_local void @_ZN11xalanc_1_1020XalanXMLFileReporter12logCheckFailERKNS_14XalanDOMStringERKNS_8XalanMapIS1_S1_NS_17XalanMapKeyTraitsIS1_EEEE(%"class.xalanc_1_10::XalanXMLFileReporter"*, %"class.xalanc_1_10::XalanDOMString"* dereferenceable(40), %"class.xalanc_1_10::XalanMap.53"* dereferenceable(136)) #1

; Function Attrs: noinline uwtable
define dso_local void @_ZN11xalanc_1_1016XalanFileUtility15checkDOMResultsERKNS_14XalanDOMStringEPKNS_23XalanCompiledStylesheetEPKNS_23XalanSourceTreeDocumentERKNS_15XSLTInputSourceERNS_20XalanXMLFileReporterE(%"class.xalanc_1_10::XalanFileUtility"* %this, %"class.xalanc_1_10::XalanDOMString"* dereferenceable(40) %theOutputFile, %"class.xalanc_1_10::XalanCompiledStylesheet"* %compiledSS, %"class.xalanc_1_10::XalanSourceTreeDocument"* %dom, %"class.xalanc_1_10::XSLTInputSource"* dereferenceable(64) %goldInputSource, %"class.xalanc_1_10::XalanXMLFileReporter"* dereferenceable(1944) %logfile) #0 align 2 personality i8* bitcast (i32 (...)* @__gxx_personality_v0 to i8*) !dbg !5673 {
entry:
  %this.addr = alloca %"class.xalanc_1_10::XalanFileUtility"*, align 8
  %theOutputFile.addr = alloca %"class.xalanc_1_10::XalanDOMString"*, align 8
  %compiledSS.addr = alloca %"class.xalanc_1_10::XalanCompiledStylesheet"*, align 8
  %dom.addr = alloca %"class.xalanc_1_10::XalanSourceTreeDocument"*, align 8
  %goldInputSource.addr = alloca %"class.xalanc_1_10::XSLTInputSource"*, align 8
  %logfile.addr = alloca %"class.xalanc_1_10::XalanXMLFileReporter"*, align 8
  %ambgFlag = alloca i32, align 4
  %mimeEncoding = alloca %"class.xalanc_1_10::XalanDOMString", align 8
  %myOutput = alloca %"class.xalanc_1_10::XalanFileOutputStream", align 8
  %exn.slot = alloca i8*
  %ehselector.slot = alloca i32
  %myResultWriter = alloca %"class.xalanc_1_10::XalanOutputStreamPrintWriter", align 8
  %theFormatter = alloca %"class.xalanc_1_10::FormatterListener"*, align 8
  %theTreeWalker = alloca %"class.xalanc_1_10::FormatterTreeWalker", align 8
  %domSupport = alloca %"class.xalanc_1_10::XalanSourceTreeDOMSupport", align 8
  %parserLiaison = alloca %"class.xalanc_1_10::XalanSourceTreeParserLiaison", align 8
  %goldDom = alloca %"class.xalanc_1_10::XalanDocument"*, align 8
  %ref.tmp = alloca %"class.xalanc_1_10::XalanDOMString", align 8
  %attrs = alloca %"class.xalanc_1_10::XalanMap.53", align 8
  %actexp = alloca %"class.xalanc_1_10::XalanMap.53", align 8
  %ref.tmp48 = alloca %"class.xalanc_1_10::XalanDOMString", align 8
  %ref.tmp51 = alloca %"class.xalanc_1_10::XalanDOMString", align 8
  %ref.tmp58 = alloca %"class.xalanc_1_10::XalanDOMString", align 8
  %ref.tmp65 = alloca %"class.xalanc_1_10::XalanDOMString", align 8
  %ref.tmp72 = alloca %"class.xalanc_1_10::XalanDOMString", align 8
  store %"class.xalanc_1_10::XalanFileUtility"* %this, %"class.xalanc_1_10::XalanFileUtility"** %this.addr, align 8
  call void @llvm.dbg.declare(metadata %"class.xalanc_1_10::XalanFileUtility"** %this.addr, metadata !5674, metadata !DIExpression()), !dbg !5675
  store %"class.xalanc_1_10::XalanDOMString"* %theOutputFile, %"class.xalanc_1_10::XalanDOMString"** %theOutputFile.addr, align 8
  call void @llvm.dbg.declare(metadata %"class.xalanc_1_10::XalanDOMString"** %theOutputFile.addr, metadata !5676, metadata !DIExpression()), !dbg !5677
  store %"class.xalanc_1_10::XalanCompiledStylesheet"* %compiledSS, %"class.xalanc_1_10::XalanCompiledStylesheet"** %compiledSS.addr, align 8
  call void @llvm.dbg.declare(metadata %"class.xalanc_1_10::XalanCompiledStylesheet"** %compiledSS.addr, metadata !5678, metadata !DIExpression()), !dbg !5679
  store %"class.xalanc_1_10::XalanSourceTreeDocument"* %dom, %"class.xalanc_1_10::XalanSourceTreeDocument"** %dom.addr, align 8
  call void @llvm.dbg.declare(metadata %"class.xalanc_1_10::XalanSourceTreeDocument"** %dom.addr, metadata !5680, metadata !DIExpression()), !dbg !5681
  store %"class.xalanc_1_10::XSLTInputSource"* %goldInputSource, %"class.xalanc_1_10::XSLTInputSource"** %goldInputSource.addr, align 8
  call void @llvm.dbg.declare(metadata %"class.xalanc_1_10::XSLTInputSource"** %goldInputSource.addr, metadata !5682, metadata !DIExpression()), !dbg !5683
  store %"class.xalanc_1_10::XalanXMLFileReporter"* %logfile, %"class.xalanc_1_10::XalanXMLFileReporter"** %logfile.addr, align 8
  call void @llvm.dbg.declare(metadata %"class.xalanc_1_10::XalanXMLFileReporter"** %logfile.addr, metadata !5684, metadata !DIExpression()), !dbg !5685
  %this1 = load %"class.xalanc_1_10::XalanFileUtility"*, %"class.xalanc_1_10::XalanFileUtility"** %this.addr, align 8
  call void @llvm.dbg.declare(metadata i32* %ambgFlag, metadata !5686, metadata !DIExpression()), !dbg !5687
  %data = getelementptr inbounds %"class.xalanc_1_10::XalanFileUtility", %"class.xalanc_1_10::XalanFileUtility"* %this1, i32 0, i32 0, !dbg !5688
  %nogold = getelementptr inbounds %"struct.xalanc_1_10::XalanFileUtility::reportStruct", %"struct.xalanc_1_10::XalanFileUtility::reportStruct"* %data, i32 0, i32 11, !dbg !5689
  %0 = load i32, i32* %nogold, align 8, !dbg !5689
  store i32 %0, i32* %ambgFlag, align 4, !dbg !5687
  call void @llvm.dbg.declare(metadata %"class.xalanc_1_10::XalanDOMString"* %mimeEncoding, metadata !5690, metadata !DIExpression()), !dbg !5691
  %m_memoryManager = getelementptr inbounds %"class.xalanc_1_10::XalanFileUtility", %"class.xalanc_1_10::XalanFileUtility"* %this1, i32 0, i32 2, !dbg !5692
  %1 = load %"class.xercesc_2_7::MemoryManager"*, %"class.xercesc_2_7::MemoryManager"** %m_memoryManager, align 8, !dbg !5692
  call void @_ZN11xalanc_1_1014XalanDOMStringC1EPKcRN11xercesc_2_713MemoryManagerEj(%"class.xalanc_1_10::XalanDOMString"* %mimeEncoding, i8* getelementptr inbounds ([1 x i8], [1 x i8]* @.str, i64 0, i64 0), %"class.xercesc_2_7::MemoryManager"* dereferenceable(8) %1, i32 -1), !dbg !5691
  call void @llvm.dbg.declare(metadata %"class.xalanc_1_10::XalanFileOutputStream"* %myOutput, metadata !5693, metadata !DIExpression()), !dbg !5695
  %2 = load %"class.xalanc_1_10::XalanDOMString"*, %"class.xalanc_1_10::XalanDOMString"** %theOutputFile.addr, align 8, !dbg !5696
  %m_memoryManager2 = getelementptr inbounds %"class.xalanc_1_10::XalanFileUtility", %"class.xalanc_1_10::XalanFileUtility"* %this1, i32 0, i32 2, !dbg !5697
  %3 = load %"class.xercesc_2_7::MemoryManager"*, %"class.xercesc_2_7::MemoryManager"** %m_memoryManager2, align 8, !dbg !5697
  invoke void @_ZN11xalanc_1_1021XalanFileOutputStreamC1ERKNS_14XalanDOMStringERN11xercesc_2_713MemoryManagerEj(%"class.xalanc_1_10::XalanFileOutputStream"* %myOutput, %"class.xalanc_1_10::XalanDOMString"* dereferenceable(40) %2, %"class.xercesc_2_7::MemoryManager"* dereferenceable(8) %3, i32 8192)
          to label %invoke.cont unwind label %lpad, !dbg !5695

invoke.cont:                                      ; preds = %entry
  call void @llvm.dbg.declare(metadata %"class.xalanc_1_10::XalanOutputStreamPrintWriter"* %myResultWriter, metadata !5698, metadata !DIExpression()), !dbg !5701
  %4 = bitcast %"class.xalanc_1_10::XalanFileOutputStream"* %myOutput to %"class.xalanc_1_10::XalanOutputStream"*, !dbg !5702
  invoke void @_ZN11xalanc_1_1028XalanOutputStreamPrintWriterC1ERNS_17XalanOutputStreamEb(%"class.xalanc_1_10::XalanOutputStreamPrintWriter"* %myResultWriter, %"class.xalanc_1_10::XalanOutputStream"* dereferenceable(144) %4, i1 zeroext false)
          to label %invoke.cont4 unwind label %lpad3, !dbg !5701

invoke.cont4:                                     ; preds = %invoke.cont
  call void @llvm.dbg.declare(metadata %"class.xalanc_1_10::FormatterListener"** %theFormatter, metadata !5703, metadata !DIExpression()), !dbg !5705
  %5 = bitcast %"class.xalanc_1_10::XalanOutputStreamPrintWriter"* %myResultWriter to %"class.xalanc_1_10::PrintWriter"*, !dbg !5706
  %6 = load %"class.xalanc_1_10::XalanCompiledStylesheet"*, %"class.xalanc_1_10::XalanCompiledStylesheet"** %compiledSS.addr, align 8, !dbg !5707
  %7 = bitcast %"class.xalanc_1_10::XalanCompiledStylesheet"* %6 to %"class.xalanc_1_10::StylesheetRoot"* (%"class.xalanc_1_10::XalanCompiledStylesheet"*)***, !dbg !5708
  %vtable = load %"class.xalanc_1_10::StylesheetRoot"* (%"class.xalanc_1_10::XalanCompiledStylesheet"*)**, %"class.xalanc_1_10::StylesheetRoot"* (%"class.xalanc_1_10::XalanCompiledStylesheet"*)*** %7, align 8, !dbg !5708
  %vfn = getelementptr inbounds %"class.xalanc_1_10::StylesheetRoot"* (%"class.xalanc_1_10::XalanCompiledStylesheet"*)*, %"class.xalanc_1_10::StylesheetRoot"* (%"class.xalanc_1_10::XalanCompiledStylesheet"*)** %vtable, i64 2, !dbg !5708
  %8 = load %"class.xalanc_1_10::StylesheetRoot"* (%"class.xalanc_1_10::XalanCompiledStylesheet"*)*, %"class.xalanc_1_10::StylesheetRoot"* (%"class.xalanc_1_10::XalanCompiledStylesheet"*)** %vfn, align 8, !dbg !5708
  %call = invoke %"class.xalanc_1_10::StylesheetRoot"* %8(%"class.xalanc_1_10::XalanCompiledStylesheet"* %6)
          to label %invoke.cont6 unwind label %lpad5, !dbg !5708

invoke.cont6:                                     ; preds = %invoke.cont4
  %call8 = invoke %"class.xalanc_1_10::FormatterListener"* @_ZN11xalanc_1_1016XalanFileUtility15getXMLFormatterERNS_11PrintWriterEiRKNS_14XalanDOMStringEPKNS_14StylesheetRootE(%"class.xalanc_1_10::XalanFileUtility"* %this1, %"class.xalanc_1_10::PrintWriter"* dereferenceable(24) %5, i32 0, %"class.xalanc_1_10::XalanDOMString"* dereferenceable(40) %mimeEncoding, %"class.xalanc_1_10::StylesheetRoot"* %call)
          to label %invoke.cont7 unwind label %lpad5, !dbg !5709

invoke.cont7:                                     ; preds = %invoke.cont6
  store %"class.xalanc_1_10::FormatterListener"* %call8, %"class.xalanc_1_10::FormatterListener"** %theFormatter, align 8, !dbg !5705
  call void @llvm.dbg.declare(metadata %"class.xalanc_1_10::FormatterTreeWalker"* %theTreeWalker, metadata !5710, metadata !DIExpression()), !dbg !5713
  %9 = load %"class.xalanc_1_10::FormatterListener"*, %"class.xalanc_1_10::FormatterListener"** %theFormatter, align 8, !dbg !5714
  %m_memoryManager9 = getelementptr inbounds %"class.xalanc_1_10::XalanFileUtility", %"class.xalanc_1_10::XalanFileUtility"* %this1, i32 0, i32 2, !dbg !5715
  %10 = load %"class.xercesc_2_7::MemoryManager"*, %"class.xercesc_2_7::MemoryManager"** %m_memoryManager9, align 8, !dbg !5715
  invoke void @_ZN11xalanc_1_1019FormatterTreeWalkerC1ERNS_17FormatterListenerERN11xercesc_2_713MemoryManagerE(%"class.xalanc_1_10::FormatterTreeWalker"* %theTreeWalker, %"class.xalanc_1_10::FormatterListener"* dereferenceable(24) %9, %"class.xercesc_2_7::MemoryManager"* dereferenceable(8) %10)
          to label %invoke.cont10 unwind label %lpad5, !dbg !5713

invoke.cont10:                                    ; preds = %invoke.cont7
  %11 = bitcast %"class.xalanc_1_10::FormatterTreeWalker"* %theTreeWalker to %"class.xalanc_1_10::TreeWalker"*, !dbg !5716
  %12 = load %"class.xalanc_1_10::XalanSourceTreeDocument"*, %"class.xalanc_1_10::XalanSourceTreeDocument"** %dom.addr, align 8, !dbg !5717
  %13 = bitcast %"class.xalanc_1_10::XalanSourceTreeDocument"* %12 to %"class.xalanc_1_10::XalanNode"*, !dbg !5717
  %call13 = invoke %"class.xalanc_1_10::XalanNode"* @_ZN11xalanc_1_1010TreeWalker8traverseEPKNS_9XalanNodeE(%"class.xalanc_1_10::TreeWalker"* %11, %"class.xalanc_1_10::XalanNode"* %13)
          to label %invoke.cont12 unwind label %lpad11, !dbg !5718

invoke.cont12:                                    ; preds = %invoke.cont10
  %14 = load %"class.xalanc_1_10::FormatterListener"*, %"class.xalanc_1_10::FormatterListener"** %theFormatter, align 8, !dbg !5719
  %m_memoryManager14 = getelementptr inbounds %"class.xalanc_1_10::XalanFileUtility", %"class.xalanc_1_10::XalanFileUtility"* %this1, i32 0, i32 2, !dbg !5720
  %15 = load %"class.xercesc_2_7::MemoryManager"*, %"class.xercesc_2_7::MemoryManager"** %m_memoryManager14, align 8, !dbg !5720
  invoke void @_ZN11xalanc_1_1020destroyObjWithMemMgrINS_17FormatterListenerEEEvPKT_RN11xercesc_2_713MemoryManagerE(%"class.xalanc_1_10::FormatterListener"* %14, %"class.xercesc_2_7::MemoryManager"* dereferenceable(8) %15)
          to label %invoke.cont15 unwind label %lpad11, !dbg !5721

invoke.cont15:                                    ; preds = %invoke.cont12
  call void @llvm.dbg.declare(metadata %"class.xalanc_1_10::XalanSourceTreeDOMSupport"* %domSupport, metadata !5722, metadata !DIExpression()), !dbg !5723
  invoke void @_ZN11xalanc_1_1025XalanSourceTreeDOMSupportC1Ev(%"class.xalanc_1_10::XalanSourceTreeDOMSupport"* %domSupport)
          to label %invoke.cont16 unwind label %lpad11, !dbg !5723

invoke.cont16:                                    ; preds = %invoke.cont15
  call void @llvm.dbg.declare(metadata %"class.xalanc_1_10::XalanSourceTreeParserLiaison"* %parserLiaison, metadata !5724, metadata !DIExpression()), !dbg !5725
  %m_memoryManager17 = getelementptr inbounds %"class.xalanc_1_10::XalanFileUtility", %"class.xalanc_1_10::XalanFileUtility"* %this1, i32 0, i32 2, !dbg !5726
  %16 = load %"class.xercesc_2_7::MemoryManager"*, %"class.xercesc_2_7::MemoryManager"** %m_memoryManager17, align 8, !dbg !5726
  invoke void @_ZN11xalanc_1_1028XalanSourceTreeParserLiaisonC1ERNS_25XalanSourceTreeDOMSupportERN11xercesc_2_713MemoryManagerE(%"class.xalanc_1_10::XalanSourceTreeParserLiaison"* %parserLiaison, %"class.xalanc_1_10::XalanSourceTreeDOMSupport"* dereferenceable(16) %domSupport, %"class.xercesc_2_7::MemoryManager"* dereferenceable(8) %16)
          to label %invoke.cont19 unwind label %lpad18, !dbg !5725

invoke.cont19:                                    ; preds = %invoke.cont16
  invoke void @_ZN11xalanc_1_1025XalanSourceTreeDOMSupport16setParserLiaisonEPKNS_28XalanSourceTreeParserLiaisonE(%"class.xalanc_1_10::XalanSourceTreeDOMSupport"* %domSupport, %"class.xalanc_1_10::XalanSourceTreeParserLiaison"* %parserLiaison)
          to label %invoke.cont21 unwind label %lpad20, !dbg !5727

invoke.cont21:                                    ; preds = %invoke.cont19
  call void @llvm.dbg.declare(metadata %"class.xalanc_1_10::XalanDocument"** %goldDom, metadata !5728, metadata !DIExpression()), !dbg !5729
  %17 = load %"class.xalanc_1_10::XSLTInputSource"*, %"class.xalanc_1_10::XSLTInputSource"** %goldInputSource.addr, align 8, !dbg !5730
  %18 = bitcast %"class.xalanc_1_10::XSLTInputSource"* %17 to %"class.xercesc_2_7::InputSource"*, !dbg !5730
  %call23 = invoke dereferenceable(8) %"class.xercesc_2_7::MemoryManager"* @_ZN11xalanc_1_1012XalanMemMgrs14getDummyMemMgrEv()
          to label %invoke.cont22 unwind label %lpad20, !dbg !5731

invoke.cont22:                                    ; preds = %invoke.cont21
  invoke void @_ZN11xalanc_1_1014XalanDOMStringC1ERN11xercesc_2_713MemoryManagerE(%"class.xalanc_1_10::XalanDOMString"* %ref.tmp, %"class.xercesc_2_7::MemoryManager"* dereferenceable(8) %call23)
          to label %invoke.cont24 unwind label %lpad20, !dbg !5731

invoke.cont24:                                    ; preds = %invoke.cont22
  %call27 = invoke %"class.xalanc_1_10::XalanDocument"* @_ZN11xalanc_1_1028XalanSourceTreeParserLiaison14parseXMLStreamERKN11xercesc_2_711InputSourceERKNS_14XalanDOMStringE(%"class.xalanc_1_10::XalanSourceTreeParserLiaison"* %parserLiaison, %"class.xercesc_2_7::InputSource"* dereferenceable(48) %18, %"class.xalanc_1_10::XalanDOMString"* dereferenceable(40) %ref.tmp)
          to label %invoke.cont26 unwind label %lpad25, !dbg !5731

invoke.cont26:                                    ; preds = %invoke.cont24
  call void @_ZN11xalanc_1_1014XalanDOMStringD2Ev(%"class.xalanc_1_10::XalanDOMString"* %ref.tmp) #3, !dbg !5732
  store %"class.xalanc_1_10::XalanDocument"* %call27, %"class.xalanc_1_10::XalanDocument"** %goldDom, align 8, !dbg !5729
  %19 = load %"class.xalanc_1_10::XalanDocument"*, %"class.xalanc_1_10::XalanDocument"** %goldDom, align 8, !dbg !5733
  %20 = load %"class.xalanc_1_10::XalanSourceTreeDocument"*, %"class.xalanc_1_10::XalanSourceTreeDocument"** %dom.addr, align 8, !dbg !5735
  %21 = bitcast %"class.xalanc_1_10::XalanSourceTreeDocument"* %20 to %"class.xalanc_1_10::XalanDocument"*, !dbg !5736
