; ModuleID = 'SAX2XMLReaderImpl.cpp'
source_filename = "SAX2XMLReaderImpl.cpp"
target datalayout = "e-m:e-p270:32:32-p271:32:32-p272:64:64-i64:64-f80:128-n8:16:32:64-S128"
target triple = "x86_64-unknown-linux-gnu"

%"class.xercesc_2_7::SAX2XMLReaderImpl" = type { %"class.xercesc_2_7::SAX2XMLReader", %"class.xercesc_2_7::XMLDocumentHandler", %"class.xercesc_2_7::XMLErrorReporter", %"class.xercesc_2_7::XMLEntityHandler", %"class.xercesc_2_7::DocTypeHandler", i8, i8, i8, i8, i8, i32, i32, i32, %"class.xercesc_2_7::VecAttributesImpl", %"class.xercesc_2_7::ContentHandler"*, %"class.xercesc_2_7::RefVectorOf"*, %"class.xercesc_2_7::XMLStringPool"*, %"class.xercesc_2_7::ValueStackOf"*, %"class.xercesc_2_7::ValueStackOf"*, %"class.xercesc_2_7::DTDHandler"*, %"class.xercesc_2_7::EntityResolver"*, %"class.xercesc_2_7::XMLEntityResolver"*, %"class.xercesc_2_7::ErrorHandler"*, %"class.xercesc_2_7::PSVIHandler"*, %"class.xercesc_2_7::LexicalHandler"*, %"class.xercesc_2_7::DeclHandler"*, %"class.xercesc_2_7::XMLDocumentHandler"**, %"class.xercesc_2_7::XMLScanner"*, %"class.xercesc_2_7::GrammarResolver"*, %"class.xercesc_2_7::XMLStringPool"*, %"class.xercesc_2_7::XMLValidator"*, %"class.xercesc_2_7::MemoryManager"*, %"class.xercesc_2_7::XMLGrammarPool"* }
%"class.xercesc_2_7::SAX2XMLReader" = type { i32 (...)** }
%"class.xercesc_2_7::XMLDocumentHandler" = type { i32 (...)** }
%"class.xercesc_2_7::XMLErrorReporter" = type { i32 (...)** }
%"class.xercesc_2_7::XMLEntityHandler" = type { i32 (...)** }
%"class.xercesc_2_7::DocTypeHandler" = type { i32 (...)** }
%"class.xercesc_2_7::VecAttributesImpl" = type { %"class.xercesc_2_7::Attributes", i8, i32, %"class.xercesc_2_7::RefVectorOf"*, %"class.xercesc_2_7::XMLScanner"* }
%"class.xercesc_2_7::Attributes" = type { i32 (...)** }
%"class.xercesc_2_7::ContentHandler" = type { i32 (...)** }
%"class.xercesc_2_7::RefVectorOf" = type { %"class.xercesc_2_7::BaseRefVectorOf" }
%"class.xercesc_2_7::BaseRefVectorOf" = type { i32 (...)**, i8, i32, i32, %"class.xercesc_2_7::XMLAttr"**, %"class.xercesc_2_7::MemoryManager"* }
%"class.xercesc_2_7::XMLAttr" = type <{ i8, [3 x i8], i32, i32, [4 x i8], i16*, %"class.xercesc_2_7::QName"*, %"class.xercesc_2_7::MemoryManager"*, %"class.xercesc_2_7::DatatypeValidator"*, i8, [7 x i8] }>
%"class.xercesc_2_7::QName" = type { %"class.xercesc_2_7::XSerializable", i32, i32, i32, i32, i16*, i16*, i16*, %"class.xercesc_2_7::MemoryManager"* }
%"class.xercesc_2_7::XSerializable" = type { i32 (...)** }
%"class.xercesc_2_7::DatatypeValidator" = type { %"class.xercesc_2_7::XSerializable", i8, i8, i8, i8, i16, i32, i32, i32, i32, i32, %"class.xercesc_2_7::DatatypeValidator"*, %"class.xercesc_2_7::RefHashTableOf"*, i16*, %"class.xercesc_2_7::RegularExpression"*, i16*, i16*, i16*, %"class.xercesc_2_7::MemoryManager"* }
%"class.xercesc_2_7::RefHashTableOf" = type opaque
%"class.xercesc_2_7::RegularExpression" = type { i8, i8, i32, i32, i32, i32, %"class.xercesc_2_7::BMPattern"*, i16*, i16*, %"class.xercesc_2_7::Op"*, %"class.xercesc_2_7::Token"*, %"class.xercesc_2_7::RangeToken"*, %"class.xercesc_2_7::OpFactory", %"class.xercesc_2_7::TokenFactory"*, %"class.xercesc_2_7::MemoryManager"* }
%"class.xercesc_2_7::BMPattern" = type { i8, i32, i32*, i16*, i16*, %"class.xercesc_2_7::MemoryManager"* }
%"class.xercesc_2_7::Op" = type { i32 (...)**, %"class.xercesc_2_7::MemoryManager"*, i16, %"class.xercesc_2_7::Op"* }
%"class.xercesc_2_7::Token" = type { i32 (...)**, i16, %"class.xercesc_2_7::MemoryManager"* }
%"class.xercesc_2_7::RangeToken" = type opaque
%"class.xercesc_2_7::OpFactory" = type { %"class.xercesc_2_7::RefVectorOf.0"*, %"class.xercesc_2_7::MemoryManager"* }
%"class.xercesc_2_7::RefVectorOf.0" = type { %"class.xercesc_2_7::BaseRefVectorOf.1" }
%"class.xercesc_2_7::BaseRefVectorOf.1" = type { i32 (...)**, i8, i32, i32, %"class.xercesc_2_7::Op"**, %"class.xercesc_2_7::MemoryManager"* }
%"class.xercesc_2_7::TokenFactory" = type { %"class.xercesc_2_7::RefVectorOf.2"*, %"class.xercesc_2_7::Token"*, %"class.xercesc_2_7::Token"*, %"class.xercesc_2_7::Token"*, %"class.xercesc_2_7::Token"*, %"class.xercesc_2_7::Token"*, %"class.xercesc_2_7::Token"*, %"class.xercesc_2_7::Token"*, %"class.xercesc_2_7::Token"*, %"class.xercesc_2_7::Token"*, %"class.xercesc_2_7::Token"*, %"class.xercesc_2_7::Token"*, %"class.xercesc_2_7::Token"*, %"class.xercesc_2_7::Token"*, %"class.xercesc_2_7::Token"*, %"class.xercesc_2_7::MemoryManager"* }
%"class.xercesc_2_7::RefVectorOf.2" = type opaque
%"class.xercesc_2_7::ValueStackOf" = type { [8 x i8], %"class.xercesc_2_7::ValueVectorOf.12" }
%"class.xercesc_2_7::ValueVectorOf.12" = type { i8, i32, i32, i32*, %"class.xercesc_2_7::MemoryManager"* }
%"class.xercesc_2_7::DTDHandler" = type { i32 (...)** }
%"class.xercesc_2_7::EntityResolver" = type { i32 (...)** }
%"class.xercesc_2_7::XMLEntityResolver" = type { i32 (...)** }
%"class.xercesc_2_7::ErrorHandler" = type { i32 (...)** }
%"class.xercesc_2_7::PSVIHandler" = type opaque
%"class.xercesc_2_7::LexicalHandler" = type { i32 (...)** }
%"class.xercesc_2_7::DeclHandler" = type { i32 (...)** }
%"class.xercesc_2_7::XMLScanner" = type { %"class.xercesc_2_7::XMLBufferFullHandler", i64, i8, i8, i8, i8, i8, i8, i8, i8, i8, i8, i8, i8, i8, i8, i8, i8, i8, i8, i8, i8, i8, i8, i8, i32, i32, i32, i32, i32, i32, i32, i32, i32**, i32, i32, i32, i32, i32, %"class.xercesc_2_7::RefVectorOf"*, %"class.xercesc_2_7::RefHash2KeysTableOf"*, %"class.xercesc_2_7::XMLDocumentHandler"*, %"class.xercesc_2_7::DocTypeHandler"*, %"class.xercesc_2_7::XMLEntityHandler"*, %"class.xercesc_2_7::XMLErrorReporter"*, %"class.xercesc_2_7::ErrorHandler"*, %"class.xercesc_2_7::PSVIHandler"*, %"class.xercesc_2_7::ValidationContext"*, i8, %"class.xercesc_2_7::ReaderMgr", %"class.xercesc_2_7::XMLValidator"*, i32, %"class.xercesc_2_7::GrammarResolver"*, %"class.xercesc_2_7::MemoryManager"*, %"class.xercesc_2_7::Grammar"*, %"class.xercesc_2_7::Grammar"*, %"class.xercesc_2_7::XMLStringPool"*, i16*, i16*, i16*, %"class.xercesc_2_7::SecurityManager"*, i32, %"class.xercesc_2_7::MemoryManager"*, %"class.xercesc_2_7::XMLBufferMgr", %"class.xercesc_2_7::XMLBuffer", %"class.xercesc_2_7::XMLBuffer", %"class.xercesc_2_7::XMLBuffer", %"class.xercesc_2_7::XMLBuffer", %"class.xercesc_2_7::XMLBuffer", %"class.xercesc_2_7::XMLBuffer", %"class.xercesc_2_7::XMLBuffer", %"class.xercesc_2_7::ElemStack" }
%"class.xercesc_2_7::XMLBufferFullHandler" = type { i32 (...)** }
%"class.xercesc_2_7::RefHash2KeysTableOf" = type { %"class.xercesc_2_7::MemoryManager"*, i8, %"struct.xercesc_2_7::RefHash2KeysTableBucketElem"**, i32, i32, %"class.xercesc_2_7::HashBase"* }
%"struct.xercesc_2_7::RefHash2KeysTableBucketElem" = type <{ %"class.xercesc_2_7::XMLAttr"*, %"struct.xercesc_2_7::RefHash2KeysTableBucketElem"*, i8*, i32, [4 x i8] }>
%"class.xercesc_2_7::HashBase" = type { i32 (...)** }
%"class.xercesc_2_7::ValidationContext" = type { i32 (...)**, %"class.xercesc_2_7::MemoryManager"* }
%"class.xercesc_2_7::ReaderMgr" = type { %"class.xercesc_2_7::Locator", %"class.xercesc_2_7::XMLEntityDecl"*, %"class.xercesc_2_7::XMLReader"*, %"class.xercesc_2_7::XMLEntityHandler"*, %"class.xercesc_2_7::RefStackOf"*, i32, %"class.xercesc_2_7::RefStackOf.3"*, i8, i32, i8, %"class.xercesc_2_7::MemoryManager"* }
%"class.xercesc_2_7::Locator" = type { i32 (...)** }
%"class.xercesc_2_7::XMLEntityDecl" = type { %"class.xercesc_2_7::XSerializable", i32, i32, i16*, i16*, i16*, i16*, i16*, i16*, %"class.xercesc_2_7::MemoryManager"* }
%"class.xercesc_2_7::XMLReader" = type { i32, [16384 x i16], i32, [16384 x i8], [16384 x i32], i64, i64, i32, i16*, i8, i8, i16*, i32, [49152 x i8], i32, i32, i32, i8, i32, i32, i8, i8, i16*, %"class.xercesc_2_7::BinInputStream"*, i8, i8, %"class.xercesc_2_7::XMLTranscoder"*, i32, i8*, i8, i32, %"class.xercesc_2_7::MemoryManager"* }
%"class.xercesc_2_7::BinInputStream" = type opaque
%"class.xercesc_2_7::XMLTranscoder" = type opaque
%"class.xercesc_2_7::RefStackOf" = type opaque
%"class.xercesc_2_7::RefStackOf.3" = type opaque
%"class.xercesc_2_7::Grammar" = type { %"class.xercesc_2_7::XSerializable" }
%"class.xercesc_2_7::SecurityManager" = type <{ i32 (...)**, i32, [4 x i8] }>
%"class.xercesc_2_7::XMLBufferMgr" = type { i32, %"class.xercesc_2_7::MemoryManager"*, %"class.xercesc_2_7::XMLBuffer"** }
%"class.xercesc_2_7::XMLBuffer" = type { i32, i32, i32, i8, %"class.xercesc_2_7::MemoryManager"*, %"class.xercesc_2_7::XMLBufferFullHandler"*, i16* }
%"class.xercesc_2_7::ElemStack" = type { i32, i32, %"class.xercesc_2_7::XMLStringPool", %"struct.xercesc_2_7::ElemStack::StackElem"**, i32, i32, i32, i32, i32, i32, i32, %"class.xercesc_2_7::ValueVectorOf.11"*, %"class.xercesc_2_7::MemoryManager"* }
%"class.xercesc_2_7::XMLStringPool" = type { %"class.xercesc_2_7::XSerializable", %"class.xercesc_2_7::MemoryManager"*, %"struct.xercesc_2_7::XMLStringPool::PoolElem"**, %"class.xercesc_2_7::RefHashTableOf.4"*, i32, i32 }
%"struct.xercesc_2_7::XMLStringPool::PoolElem" = type { i32, i16* }
%"class.xercesc_2_7::RefHashTableOf.4" = type { %"class.xercesc_2_7::MemoryManager"*, i8, %"struct.xercesc_2_7::RefHashTableBucketElem"**, i32, i32, i32, %"class.xercesc_2_7::HashBase"* }
%"struct.xercesc_2_7::RefHashTableBucketElem" = type { %"struct.xercesc_2_7::XMLStringPool::PoolElem"*, %"struct.xercesc_2_7::RefHashTableBucketElem"*, i8* }
%"struct.xercesc_2_7::ElemStack::StackElem" = type { %"class.xercesc_2_7::XMLElementDecl"*, i32, i32, i32, %"class.xercesc_2_7::QName"**, %"struct.xercesc_2_7::PrefMapElem"*, i32, i32, i8, i8, i8, i32, %"class.xercesc_2_7::Grammar"*, i32, i16*, i32, i32 }
%"class.xercesc_2_7::XMLElementDecl" = type <{ %"class.xercesc_2_7::XSerializable", %"class.xercesc_2_7::MemoryManager"*, %"class.xercesc_2_7::QName"*, i32, i32, i8, [7 x i8] }>
%"struct.xercesc_2_7::PrefMapElem" = type { i32, i32 }
%"class.xercesc_2_7::ValueVectorOf.11" = type opaque
%"class.xercesc_2_7::GrammarResolver" = type { i8, i8, i8, %"class.xercesc_2_7::XMLStringPool"*, %"class.xercesc_2_7::RefHashTableOf.5"*, %"class.xercesc_2_7::RefHashTableOf.5"*, %"class.xercesc_2_7::DatatypeValidatorFactory"*, %"class.xercesc_2_7::MemoryManager"*, %"class.xercesc_2_7::XMLGrammarPool"*, %"class.xercesc_2_7::XSModel"*, %"class.xercesc_2_7::XSModel"*, %"class.xercesc_2_7::ValueVectorOf"* }
%"class.xercesc_2_7::RefHashTableOf.5" = type opaque
%"class.xercesc_2_7::DatatypeValidatorFactory" = type opaque
%"class.xercesc_2_7::XSModel" = type <{ %"class.xercesc_2_7::MemoryManager"*, %"class.xercesc_2_7::RefArrayVectorOf"*, %"class.xercesc_2_7::RefVectorOf.7"*, [14 x %"class.xercesc_2_7::RefVectorOf.8"*], [14 x %"class.xercesc_2_7::XSNamedMap"*], %"class.xercesc_2_7::XMLStringPool"*, %"class.xercesc_2_7::RefVectorOf.9"*, %"class.xercesc_2_7::RefHashTableOf.10"*, %"class.xercesc_2_7::XSObjectFactory"*, %"class.xercesc_2_7::RefVectorOf.7"*, %"class.xercesc_2_7::XSModel"*, i8, i8, [6 x i8] }>
%"class.xercesc_2_7::RefArrayVectorOf" = type { %"class.xercesc_2_7::BaseRefVectorOf.6" }
%"class.xercesc_2_7::BaseRefVectorOf.6" = type { i32 (...)**, i8, i32, i32, i16**, %"class.xercesc_2_7::MemoryManager"* }
%"class.xercesc_2_7::RefVectorOf.8" = type opaque
%"class.xercesc_2_7::XSNamedMap" = type opaque
%"class.xercesc_2_7::RefVectorOf.9" = type opaque
%"class.xercesc_2_7::RefHashTableOf.10" = type opaque
%"class.xercesc_2_7::XSObjectFactory" = type opaque
%"class.xercesc_2_7::RefVectorOf.7" = type opaque
%"class.xercesc_2_7::ValueVectorOf" = type opaque
%"class.xercesc_2_7::XMLValidator" = type { i32 (...)**, %"class.xercesc_2_7::XMLBufferMgr"*, %"class.xercesc_2_7::XMLErrorReporter"*, %"class.xercesc_2_7::ReaderMgr"*, %"class.xercesc_2_7::XMLScanner"* }
%"class.xercesc_2_7::MemoryManager" = type { i32 (...)** }
%"class.xercesc_2_7::XMLGrammarPool" = type <{ i32 (...)**, %"class.xercesc_2_7::MemoryManager"*, i8, [7 x i8] }>
%"class.xercesc_2_7::XMLDeleter" = type { i32 (...)** }
%"class.xercesc_2_7::XMLRefInfo" = type { %"class.xercesc_2_7::XSerializable", i8, i8, i16*, %"class.xercesc_2_7::MemoryManager"* }
%"class.xercesc_2_7::DTDEntityDecl" = type <{ %"class.xercesc_2_7::XMLEntityDecl", i8, i8, i8, [5 x i8] }>
%"class.xercesc_2_7::XMLAttDefList" = type { %"class.xercesc_2_7::XSerializable", %"class.xercesc_2_7::MemoryManager"* }
%"class.xercesc_2_7::JanitorMemFunCall" = type { %"class.xercesc_2_7::SAX2XMLReaderImpl"*, { i64, i64 } }
%"class.xercesc_2_7::OutOfMemoryException" = type { i8 }
%"class.xercesc_2_7::XMemory" = type { i8 }
%"class.xercesc_2_7::InputSource" = type opaque
%"class.xercesc_2_7::IOException" = type { %"class.xercesc_2_7::XMLException" }
%"class.xercesc_2_7::XMLException" = type { i32 (...)**, i32, i8*, i32, i16*, %"class.xercesc_2_7::MemoryManager"* }
%"class.xercesc_2_7::XMLPScanToken" = type { i32, i32 }
%"class.xercesc_2_7::ArrayIndexOutOfBoundsException" = type { %"class.xercesc_2_7::XMLException" }
%"class.xercesc_2_7::EmptyStackException" = type { %"class.xercesc_2_7::XMLException" }
%"class.xercesc_2_7::DTDElementDecl" = type { %"class.xercesc_2_7::XMLElementDecl.base", i32, %"class.xercesc_2_7::RefHashTableOf.13"*, %"class.xercesc_2_7::DTDAttDefList"*, %"class.xercesc_2_7::ContentSpecNode"*, %"class.xercesc_2_7::XMLContentModel"*, i16* }
%"class.xercesc_2_7::XMLElementDecl.base" = type <{ %"class.xercesc_2_7::XSerializable", %"class.xercesc_2_7::MemoryManager"*, %"class.xercesc_2_7::QName"*, i32, i32, i8 }>
%"class.xercesc_2_7::RefHashTableOf.13" = type opaque
%"class.xercesc_2_7::DTDAttDefList" = type opaque
%"class.xercesc_2_7::ContentSpecNode" = type opaque
%"class.xercesc_2_7::XMLContentModel" = type { i32 (...)** }
%"class.xercesc_2_7::DTDAttDef" = type { %"class.xercesc_2_7::XMLAttDef", i32, i16* }
%"class.xercesc_2_7::XMLAttDef" = type { %"class.xercesc_2_7::XSerializable", i32, i32, i32, i8, i8, i32, i16*, i16*, %"class.xercesc_2_7::MemoryManager"* }
%"class.xercesc_2_7::ArrayJanitor" = type { i16*, %"class.xercesc_2_7::MemoryManager"* }
%"class.xercesc_2_7::XMLNotationDecl" = type { %"class.xercesc_2_7::XSerializable", i32, i32, i16*, i16*, i16*, i16*, %"class.xercesc_2_7::MemoryManager"* }
%"class.xercesc_2_7::XMLResourceIdentifier" = type { i32, i16*, i16*, i16*, i16*, %"class.xercesc_2_7::Locator"* }
%"class.xercesc_2_7::SAXParseException" = type { %"class.xercesc_2_7::SAXException", i64, i64, i16*, i16* }
%"class.xercesc_2_7::SAXException" = type { i32 (...)**, i16*, %"class.xercesc_2_7::MemoryManager"* }
%"class.xercesc_2_7::SAXNotSupportedException" = type { %"class.xercesc_2_7::SAXException" }
%"class.xercesc_2_7::SAXNotRecognizedException" = type { %"class.xercesc_2_7::SAXException" }
%"class.xercesc_2_7::XSerializeEngine" = type <{ i16, i16, [4 x i8], %"class.xercesc_2_7::XMLGrammarPool"*, %"class.xercesc_2_7::BinInputStream"*, %"class.xercesc_2_7::BinOutputStream"*, i64, i64, i8*, i8*, i8*, i8*, %"class.xercesc_2_7::RefHashTableOf.14"*, %"class.xercesc_2_7::ValueVectorOf.15"*, i32, [4 x i8] }>
%"class.xercesc_2_7::BinOutputStream" = type opaque
%"class.xercesc_2_7::RefHashTableOf.14" = type opaque
%"class.xercesc_2_7::ValueVectorOf.15" = type opaque
%"class.xercesc_2_7::XProtoType" = type { i8*, %"class.xercesc_2_7::XSerializable"* (%"class.xercesc_2_7::MemoryManager"*)* }

$_ZN11xercesc_2_710XMLDeleterD0Ev = comdat any

$_ZN11xercesc_2_710XMLDeleterD2Ev = comdat any

$_ZN11xercesc_2_713XSerializableD2Ev = comdat any

$__clang_call_terminate = comdat any

$_ZN11xercesc_2_710XMLRefInfoD0Ev = comdat any

$_ZN11xercesc_2_710XMLRefInfoD2Ev = comdat any

$_ZN11xercesc_2_713DTDEntityDeclD0Ev = comdat any

$_ZN11xercesc_2_713DTDEntityDeclD2Ev = comdat any

$_ZN11xercesc_2_713XMLAttDefListD0Ev = comdat any

$_ZN11xercesc_2_713SAX2XMLReader18setInputBufferSizeEm = comdat any

$_ZN11xercesc_2_77XMemoryC2Ev = comdat any

$_ZN11xercesc_2_713SAX2XMLReaderC2Ev = comdat any

$_ZN11xercesc_2_718XMLDocumentHandlerC2Ev = comdat any

$_ZN11xercesc_2_716XMLErrorReporterC2Ev = comdat any

$_ZN11xercesc_2_716XMLEntityHandlerC2Ev = comdat any

$_ZN11xercesc_2_714DocTypeHandlerC2Ev = comdat any

$_ZN11xercesc_2_717JanitorMemFunCallINS_17SAX2XMLReaderImplEEC2EPS1_MS1_FvvE = comdat any

$_ZN11xercesc_2_717JanitorMemFunCallINS_17SAX2XMLReaderImplEE7releaseEv = comdat any

$_ZN11xercesc_2_717JanitorMemFunCallINS_17SAX2XMLReaderImplEED2Ev = comdat any

$_ZN11xercesc_2_715GrammarResolver13getStringPoolEv = comdat any

$_ZN11xercesc_2_712ValueStackOfIjEC2EjPNS_13MemoryManagerEb = comdat any

$_ZN11xercesc_2_711RefVectorOfINS_7XMLAttrEEC2EjbPNS_13MemoryManagerE = comdat any

$_ZN11xercesc_2_712ValueStackOfIjED2Ev = comdat any

$_ZN11xercesc_2_710XMLScanner13setDocHandlerEPNS_18XMLDocumentHandlerE = comdat any

$_ZN11xercesc_2_710XMLScanner12getValidatorEv = comdat any

$_ZN11xercesc_2_710XMLScanner13getErrorCountEv = comdat any

$_ZN11xercesc_2_710XMLScanner17setDocTypeHandlerEPNS_14DocTypeHandlerE = comdat any

$_ZN11xercesc_2_710XMLScanner16setErrorReporterEPNS_16XMLErrorReporterE = comdat any

$_ZN11xercesc_2_710XMLScanner15setErrorHandlerEPNS_12ErrorHandlerE = comdat any

$_ZN11xercesc_2_710XMLScanner14setPSVIHandlerEPNS_11PSVIHandlerE = comdat any

$_ZN11xercesc_2_710XMLScanner16setEntityHandlerEPNS_16XMLEntityHandlerE = comdat any

$_ZN11xercesc_2_710XMLScanner19setExitOnFirstFatalEb = comdat any

$_ZN11xercesc_2_710XMLScanner28setValidationConstraintFatalEb = comdat any

$_ZN11xercesc_2_711IOExceptionC2EPKcjNS_10XMLExcepts5CodesEPNS_13MemoryManagerE = comdat any

$_ZN11xercesc_2_711IOExceptionD2Ev = comdat any

$_ZN11xercesc_2_79XMLString9stringLenEPKt = comdat any

$_ZNK11xercesc_2_713XMLEntityDecl7getNameEv = comdat any

$_ZN11xercesc_2_712ValueStackOfIjE17removeAllElementsEv = comdat any

$_ZNK11xercesc_2_710XMLScanner10getLocatorEv = comdat any

$_ZNK11xercesc_2_714XMLElementDecl11getFullNameEv = comdat any

$_ZNK11xercesc_2_715BaseRefVectorOfINS_7XMLAttrEE9elementAtEj = comdat any

$_ZN11xercesc_2_79XMLString6equalsEPKtS2_ = comdat any

$_ZNK11xercesc_2_77XMLAttr8getValueEv = comdat any

$_ZNK11xercesc_2_77XMLAttr9getPrefixEv = comdat any

$_ZNK11xercesc_2_77XMLAttr7getNameEv = comdat any

$_ZN11xercesc_2_715BaseRefVectorOfINS_7XMLAttrEE10addElementEPS1_ = comdat any

$_ZN11xercesc_2_712ValueStackOfIjE4pushERKj = comdat any

$_ZNK11xercesc_2_715BaseRefVectorOfINS_7XMLAttrEE4sizeEv = comdat any

$_ZNK11xercesc_2_714XMLElementDecl11getBaseNameEv = comdat any

$_ZN11xercesc_2_712ValueStackOfIjE3popEv = comdat any

$_ZNK11xercesc_2_79XMLAttDef7getTypeEv = comdat any

$_ZNK11xercesc_2_79XMLAttDef14getDefaultTypeEv = comdat any

$_ZN11xercesc_2_79XMLBufferC2EjPNS_13MemoryManagerE = comdat any

$_ZNK11xercesc_2_79XMLAttDef14getEnumerationEv = comdat any

$_ZN11xercesc_2_79XMLBuffer3setEPKt = comdat any

$_ZN11xercesc_2_79XMLBuffer6appendEt = comdat any

$_ZN11xercesc_2_79XMLBuffer12getRawBufferEv = comdat any

$_ZNK11xercesc_2_79XMLAttDef8getValueEv = comdat any

$_ZN11xercesc_2_79XMLBufferD2Ev = comdat any

$_ZNK11xercesc_2_713XMLEntityDecl10isUnparsedEv = comdat any

$_ZNK11xercesc_2_713XMLEntityDecl11getPublicIdEv = comdat any

$_ZNK11xercesc_2_713XMLEntityDecl11getSystemIdEv = comdat any

$_ZNK11xercesc_2_713XMLEntityDecl15getNotationNameEv = comdat any

$_ZN11xercesc_2_712ArrayJanitorItEC2EPt = comdat any

$_ZN11xercesc_2_712ArrayJanitorItE5resetEPtPNS_13MemoryManagerE = comdat any

$_ZNK11xercesc_2_713XMLEntityDecl10isExternalEv = comdat any

$_ZNK11xercesc_2_713XMLEntityDecl8getValueEv = comdat any

$_ZN11xercesc_2_712ArrayJanitorItED2Ev = comdat any

$_ZNK11xercesc_2_715XMLNotationDecl7getNameEv = comdat any

$_ZNK11xercesc_2_715XMLNotationDecl11getPublicIdEv = comdat any

$_ZNK11xercesc_2_715XMLNotationDecl11getSystemIdEv = comdat any

$_ZNK11xercesc_2_721XMLResourceIdentifier11getPublicIdEv = comdat any

$_ZNK11xercesc_2_721XMLResourceIdentifier11getSystemIdEv = comdat any

$_ZN11xercesc_2_724SAXNotSupportedExceptionD2Ev = comdat any

$_ZN11xercesc_2_710XMLScanner31setValidationSchemaFullCheckingEb = comdat any

$_ZN11xercesc_2_710XMLScanner29setIdentityConstraintCheckingEb = comdat any

$_ZN11xercesc_2_710XMLScanner18setLoadExternalDTDEb = comdat any

$_ZN11xercesc_2_710XMLScanner21cacheGrammarFromParseEb = comdat any

$_ZN11xercesc_2_710XMLScanner23useCachedGrammarInParseEb = comdat any

$_ZNK11xercesc_2_710XMLScanner25isCachingGrammarFromParseEv = comdat any

$_ZN11xercesc_2_710XMLScanner18setCalculateSrcOfsEb = comdat any

$_ZN11xercesc_2_710XMLScanner24setStandardUriConformantEb = comdat any

$_ZN11xercesc_2_710XMLScanner31setGenerateSyntheticAnnotationsEb = comdat any

$_ZN11xercesc_2_710XMLScanner22setValidateAnnotationsEb = comdat any

$_ZN11xercesc_2_710XMLScanner19setIgnoredCachedDTDEb = comdat any

$_ZN11xercesc_2_710XMLScanner20setIgnoreAnnotationsEb = comdat any

$_ZN11xercesc_2_710XMLScanner33setDisableDefaultEntityResolutionEb = comdat any

$_ZN11xercesc_2_710XMLScanner20setSkipDTDValidationEb = comdat any

$_ZN11xercesc_2_725SAXNotRecognizedExceptionD2Ev = comdat any

$_ZNK11xercesc_2_710XMLScanner31getValidationSchemaFullCheckingEv = comdat any

$_ZNK11xercesc_2_710XMLScanner29getIdentityConstraintCheckingEv = comdat any

$_ZNK11xercesc_2_710XMLScanner18getLoadExternalDTDEv = comdat any

$_ZNK11xercesc_2_710XMLScanner19getExitOnFirstFatalEv = comdat any

$_ZNK11xercesc_2_710XMLScanner28getValidationConstraintFatalEv = comdat any

$_ZNK11xercesc_2_710XMLScanner27isUsingCachedGrammarInParseEv = comdat any

$_ZNK11xercesc_2_710XMLScanner18getCalculateSrcOfsEv = comdat any

$_ZNK11xercesc_2_710XMLScanner24getStandardUriConformantEv = comdat any

$_ZNK11xercesc_2_710XMLScanner31getGenerateSyntheticAnnotationsEv = comdat any

$_ZNK11xercesc_2_710XMLScanner22getValidateAnnotationsEv = comdat any

$_ZNK11xercesc_2_710XMLScanner18getIgnoreCachedDTDEv = comdat any

$_ZNK11xercesc_2_710XMLScanner20getIgnoreAnnotationsEv = comdat any

$_ZNK11xercesc_2_710XMLScanner33getDisableDefaultEntityResolutionEv = comdat any

$_ZNK11xercesc_2_710XMLScanner20getSkipDTDValidationEv = comdat any

$_ZN11xercesc_2_710XMLScanner25setExternalSchemaLocationEPKt = comdat any

$_ZN11xercesc_2_710XMLScanner36setExternalNoNamespaceSchemaLocationEPKt = comdat any

$_ZN11xercesc_2_710XMLScanner18setSecurityManagerEPNS_15SecurityManagerE = comdat any

$_ZNK11xercesc_2_710XMLScanner25getExternalSchemaLocationEv = comdat any

$_ZNK11xercesc_2_710XMLScanner36getExternalNoNamespaceSchemaLocationEv = comdat any

$_ZNK11xercesc_2_710XMLScanner18getSecurityManagerEv = comdat any

$_ZN11xercesc_2_710XMLScanner19setValidationSchemeENS0_10ValSchemesE = comdat any

$_ZN11xercesc_2_710XMLScanner15setDoNamespacesEb = comdat any

$_ZNK11xercesc_2_710XMLScanner15getDoNamespacesEv = comdat any

$_ZN11xercesc_2_710XMLScanner11setDoSchemaEb = comdat any

$_ZNK11xercesc_2_710XMLScanner11getDoSchemaEv = comdat any

$_ZN11xercesc_2_710XMLScanner18setInputBufferSizeEm = comdat any

$_ZNK11xercesc_2_713DTDEntityDecl22getDeclaredInIntSubsetEv = comdat any

$_ZNK11xercesc_2_713DTDEntityDecl14getIsParameterEv = comdat any

$_ZNK11xercesc_2_713DTDEntityDecl16getIsSpecialCharEv = comdat any

$_ZN11xercesc_2_713XMLAttDefListD2Ev = comdat any

$_ZN11xercesc_2_713SAX2XMLReaderD2Ev = comdat any

$_ZN11xercesc_2_713SAX2XMLReaderD0Ev = comdat any

$_ZNK11xercesc_2_717SAX2XMLReaderImpl17getContentHandlerEv = comdat any

$_ZNK11xercesc_2_717SAX2XMLReaderImpl13getDTDHandlerEv = comdat any

$_ZNK11xercesc_2_717SAX2XMLReaderImpl17getEntityResolverEv = comdat any

$_ZNK11xercesc_2_717SAX2XMLReaderImpl15getErrorHandlerEv = comdat any

$_ZNK11xercesc_2_717SAX2XMLReaderImpl21getDeclarationHandlerEv = comdat any

$_ZNK11xercesc_2_717SAX2XMLReaderImpl17getLexicalHandlerEv = comdat any

$_ZNK11xercesc_2_717SAX2XMLReaderImpl24getExitOnFirstFatalErrorEv = comdat any

$_ZNK11xercesc_2_717SAX2XMLReaderImpl28getValidationConstraintFatalEv = comdat any

$_ZN11xercesc_2_717SAX2XMLReaderImpl14getRootGrammarEv = comdat any

$_ZNK11xercesc_2_717SAX2XMLReaderImpl10getURITextEj = comdat any

$_ZNK11xercesc_2_717SAX2XMLReaderImpl12getSrcOffsetEv = comdat any

$_ZNK11xercesc_2_717SAX2XMLReaderImpl20getXMLEntityResolverEv = comdat any

$_ZNK11xercesc_2_717SAX2XMLReaderImpl14getPSVIHandlerEv = comdat any

$_ZN11xercesc_2_718XMLDocumentHandler15elementTypeInfoEPKtS2_ = comdat any

$_ZN11xercesc_2_718XMLDocumentHandlerD2Ev = comdat any

$_ZN11xercesc_2_718XMLDocumentHandlerD0Ev = comdat any

$_ZN11xercesc_2_716XMLErrorReporterD2Ev = comdat any

$_ZN11xercesc_2_716XMLErrorReporterD0Ev = comdat any

$_ZN11xercesc_2_716XMLEntityHandlerD2Ev = comdat any

$_ZN11xercesc_2_716XMLEntityHandlerD0Ev = comdat any

$_ZN11xercesc_2_714DocTypeHandlerD2Ev = comdat any

$_ZN11xercesc_2_714DocTypeHandlerD0Ev = comdat any

$_ZN11xercesc_2_79ReaderMgr16setEntityHandlerEPNS_16XMLEntityHandlerE = comdat any

$_ZN11xercesc_2_711IOExceptionD0Ev = comdat any

$_ZNK11xercesc_2_711IOException7getTypeEv = comdat any

$_ZNK11xercesc_2_711IOException9duplicateEv = comdat any

$_ZN11xercesc_2_711IOExceptionC2ERKS0_ = comdat any

$_ZN11xercesc_2_75QName9getPrefixEv = comdat any

$_ZN11xercesc_2_75QName12getLocalPartEv = comdat any

$_ZN11xercesc_2_79XMLBuffer6appendEPKt = comdat any

$_ZN11xercesc_2_712SAXExceptionD2Ev = comdat any

$_ZN11xercesc_2_712SAXExceptionD0Ev = comdat any

$_ZNK11xercesc_2_712SAXException10getMessageEv = comdat any

$_ZN11xercesc_2_79ReaderMgr24setStandardUriConformantEb = comdat any

$_ZN11xercesc_2_79XMLString9replicateEPKtPNS_13MemoryManagerE = comdat any

$_ZN11xercesc_2_79XMLBuffer14setFullHandlerEPNS_20XMLBufferFullHandlerEj = comdat any

$_ZNK11xercesc_2_710XMLScanner14getRootGrammarEv = comdat any

$_ZNK11xercesc_2_710XMLScanner12getSrcOffsetEv = comdat any

$_ZNK11xercesc_2_79ReaderMgr12getSrcOffsetEv = comdat any

$_ZN11xercesc_2_713ValueVectorOfIjEC2EjPNS_13MemoryManagerEb = comdat any

$_ZN11xercesc_2_715BaseRefVectorOfINS_7XMLAttrEEC2EjbPNS_13MemoryManagerE = comdat any

$_ZN11xercesc_2_711RefVectorOfINS_7XMLAttrEED2Ev = comdat any

$_ZN11xercesc_2_711RefVectorOfINS_7XMLAttrEED0Ev = comdat any

$_ZN11xercesc_2_715BaseRefVectorOfINS_7XMLAttrEE12setElementAtEPS1_j = comdat any

$_ZN11xercesc_2_715BaseRefVectorOfINS_7XMLAttrEE17removeAllElementsEv = comdat any

$_ZN11xercesc_2_715BaseRefVectorOfINS_7XMLAttrEE15removeElementAtEj = comdat any

$_ZN11xercesc_2_715BaseRefVectorOfINS_7XMLAttrEE17removeLastElementEv = comdat any

$_ZN11xercesc_2_715BaseRefVectorOfINS_7XMLAttrEE7cleanupEv = comdat any

$_ZN11xercesc_2_715BaseRefVectorOfINS_7XMLAttrEED2Ev = comdat any

$_ZN11xercesc_2_715BaseRefVectorOfINS_7XMLAttrEED0Ev = comdat any

$_ZN11xercesc_2_77XMLAttrD2Ev = comdat any

$_ZN11xercesc_2_730ArrayIndexOutOfBoundsExceptionC2EPKcjNS_10XMLExcepts5CodesEPNS_13MemoryManagerE = comdat any

$_ZN11xercesc_2_730ArrayIndexOutOfBoundsExceptionD2Ev = comdat any

$_ZN11xercesc_2_730ArrayIndexOutOfBoundsExceptionD0Ev = comdat any

$_ZNK11xercesc_2_730ArrayIndexOutOfBoundsException7getTypeEv = comdat any

$_ZNK11xercesc_2_730ArrayIndexOutOfBoundsException9duplicateEv = comdat any

$_ZN11xercesc_2_730ArrayIndexOutOfBoundsExceptionC2ERKS0_ = comdat any

$_ZN11xercesc_2_713ValueVectorOfIjED2Ev = comdat any

$_ZN11xercesc_2_713ValueVectorOfIjE17removeAllElementsEv = comdat any

$_ZN11xercesc_2_715BaseRefVectorOfINS_7XMLAttrEE19ensureExtraCapacityEj = comdat any

$_ZN11xercesc_2_713ValueVectorOfIjE10addElementERKj = comdat any

$_ZN11xercesc_2_713ValueVectorOfIjE19ensureExtraCapacityEj = comdat any

$_ZNK11xercesc_2_713ValueVectorOfIjE4sizeEv = comdat any

$_ZNK11xercesc_2_713ValueVectorOfIjE16getMemoryManagerEv = comdat any

$_ZN11xercesc_2_719EmptyStackExceptionC2EPKcjNS_10XMLExcepts5CodesEPNS_13MemoryManagerE = comdat any

$_ZN11xercesc_2_719EmptyStackExceptionD2Ev = comdat any

$_ZN11xercesc_2_713ValueVectorOfIjE9elementAtEj = comdat any

$_ZN11xercesc_2_713ValueVectorOfIjE15removeElementAtEj = comdat any

$_ZN11xercesc_2_719EmptyStackExceptionD0Ev = comdat any

$_ZNK11xercesc_2_719EmptyStackException7getTypeEv = comdat any

$_ZNK11xercesc_2_719EmptyStackException9duplicateEv = comdat any

$_ZN11xercesc_2_719EmptyStackExceptionC2ERKS0_ = comdat any

$_ZN11xercesc_2_712ArrayJanitorItE5resetEPt = comdat any

$_ZTVN11xercesc_2_710XMLRefInfoE = comdat any

$_ZTSN11xercesc_2_720OutOfMemoryExceptionE = comdat any

$_ZTSN11xercesc_2_77XMemoryE = comdat any

$_ZTIN11xercesc_2_77XMemoryE = comdat any

$_ZTIN11xercesc_2_720OutOfMemoryExceptionE = comdat any

$_ZTSN11xercesc_2_711IOExceptionE = comdat any

$_ZTIN11xercesc_2_711IOExceptionE = comdat any

$_ZTSN11xercesc_2_724SAXNotSupportedExceptionE = comdat any

$_ZTSN11xercesc_2_712SAXExceptionE = comdat any

$_ZTIN11xercesc_2_712SAXExceptionE = comdat any

$_ZTIN11xercesc_2_724SAXNotSupportedExceptionE = comdat any

$_ZTSN11xercesc_2_725SAXNotRecognizedExceptionE = comdat any

$_ZTIN11xercesc_2_725SAXNotRecognizedExceptionE = comdat any

$_ZTVN11xercesc_2_710XMLDeleterE = comdat any

$_ZTSN11xercesc_2_710XMLDeleterE = comdat any

$_ZTIN11xercesc_2_710XMLDeleterE = comdat any

$_ZTSN11xercesc_2_710XMLRefInfoE = comdat any

$_ZTSN11xercesc_2_713XSerializableE = comdat any

$_ZTIN11xercesc_2_713XSerializableE = comdat any

$_ZTIN11xercesc_2_710XMLRefInfoE = comdat any

$_ZTVN11xercesc_2_713DTDEntityDeclE = comdat any

$_ZTSN11xercesc_2_713DTDEntityDeclE = comdat any

$_ZTIN11xercesc_2_713DTDEntityDeclE = comdat any

$_ZTVN11xercesc_2_713XMLAttDefListE = comdat any

$_ZTSN11xercesc_2_713XMLAttDefListE = comdat any

$_ZTIN11xercesc_2_713XMLAttDefListE = comdat any

$_ZTVN11xercesc_2_713SAX2XMLReaderE = comdat any

$_ZTSN11xercesc_2_713SAX2XMLReaderE = comdat any

$_ZTIN11xercesc_2_713SAX2XMLReaderE = comdat any

$_ZTSN11xercesc_2_718XMLDocumentHandlerE = comdat any

$_ZTIN11xercesc_2_718XMLDocumentHandlerE = comdat any

$_ZTSN11xercesc_2_716XMLErrorReporterE = comdat any

$_ZTIN11xercesc_2_716XMLErrorReporterE = comdat any

$_ZTSN11xercesc_2_716XMLEntityHandlerE = comdat any

$_ZTIN11xercesc_2_716XMLEntityHandlerE = comdat any

$_ZTSN11xercesc_2_714DocTypeHandlerE = comdat any

$_ZTIN11xercesc_2_714DocTypeHandlerE = comdat any

$_ZTVN11xercesc_2_718XMLDocumentHandlerE = comdat any

$_ZTVN11xercesc_2_716XMLErrorReporterE = comdat any

$_ZTVN11xercesc_2_716XMLEntityHandlerE = comdat any

$_ZTVN11xercesc_2_714DocTypeHandlerE = comdat any

$_ZTVN11xercesc_2_711IOExceptionE = comdat any

$_ZTVN11xercesc_2_712SAXExceptionE = comdat any

$_ZTVN11xercesc_2_711RefVectorOfINS_7XMLAttrEEE = comdat any

$_ZTSN11xercesc_2_711RefVectorOfINS_7XMLAttrEEE = comdat any

$_ZTSN11xercesc_2_715BaseRefVectorOfINS_7XMLAttrEEE = comdat any

$_ZTIN11xercesc_2_715BaseRefVectorOfINS_7XMLAttrEEE = comdat any

$_ZTIN11xercesc_2_711RefVectorOfINS_7XMLAttrEEE = comdat any

$_ZTVN11xercesc_2_715BaseRefVectorOfINS_7XMLAttrEEE = comdat any

$_ZTSN11xercesc_2_730ArrayIndexOutOfBoundsExceptionE = comdat any

$_ZTIN11xercesc_2_730ArrayIndexOutOfBoundsExceptionE = comdat any

$_ZTVN11xercesc_2_730ArrayIndexOutOfBoundsExceptionE = comdat any

$_ZTSN11xercesc_2_719EmptyStackExceptionE = comdat any

$_ZTIN11xercesc_2_719EmptyStackExceptionE = comdat any

$_ZTVN11xercesc_2_719EmptyStackExceptionE = comdat any

@_ZTVN11xercesc_2_710XMLRefInfoE = linkonce_odr dso_local unnamed_addr constant { [7 x i8*] } { [7 x i8*] [i8* null, i8* bitcast ({ i8*, i8*, i32, i32, i8*, i64, i8*, i64 }* @_ZTIN11xercesc_2_710XMLRefInfoE to i8*), i8* bitcast (void (%"class.xercesc_2_7::XMLRefInfo"*)* @_ZN11xercesc_2_710XMLRefInfoD2Ev to i8*), i8* bitcast (void (%"class.xercesc_2_7::XMLRefInfo"*)* @_ZN11xercesc_2_710XMLRefInfoD0Ev to i8*), i8* bitcast (i1 (%"class.xercesc_2_7::XMLRefInfo"*)* @_ZNK11xercesc_2_710XMLRefInfo14isSerializableEv to i8*), i8* bitcast (void (%"class.xercesc_2_7::XMLRefInfo"*, %"class.xercesc_2_7::XSerializeEngine"*)* @_ZN11xercesc_2_710XMLRefInfo9serializeERNS_16XSerializeEngineE to i8*), i8* bitcast (%"class.xercesc_2_7::XProtoType"* (%"class.xercesc_2_7::XMLRefInfo"*)* @_ZNK11xercesc_2_710XMLRefInfo12getProtoTypeEv to i8*)] }, comdat, align 8
@_ZTVN11xercesc_2_717SAX2XMLReaderImplE = dso_local unnamed_addr constant { [86 x i8*], [17 x i8*], [6 x i8*], [10 x i8*], [20 x i8*] } { [86 x i8*] [i8* null, i8* bitcast ({ i8*, i8*, i32, i32, i8*, i64, i8*, i64, i8*, i64, i8*, i64, i8*, i64, i8*, i64 }* @_ZTIN11xercesc_2_717SAX2XMLReaderImplE to i8*), i8* bitcast (void (%"class.xercesc_2_7::SAX2XMLReaderImpl"*)* @_ZN11xercesc_2_717SAX2XMLReaderImplD1Ev to i8*), i8* bitcast (void (%"class.xercesc_2_7::SAX2XMLReaderImpl"*)* @_ZN11xercesc_2_717SAX2XMLReaderImplD0Ev to i8*), i8* bitcast (%"class.xercesc_2_7::ContentHandler"* (%"class.xercesc_2_7::SAX2XMLReaderImpl"*)* @_ZNK11xercesc_2_717SAX2XMLReaderImpl17getContentHandlerEv to i8*), i8* bitcast (%"class.xercesc_2_7::DTDHandler"* (%"class.xercesc_2_7::SAX2XMLReaderImpl"*)* @_ZNK11xercesc_2_717SAX2XMLReaderImpl13getDTDHandlerEv to i8*), i8* bitcast (%"class.xercesc_2_7::EntityResolver"* (%"class.xercesc_2_7::SAX2XMLReaderImpl"*)* @_ZNK11xercesc_2_717SAX2XMLReaderImpl17getEntityResolverEv to i8*), i8* bitcast (%"class.xercesc_2_7::ErrorHandler"* (%"class.xercesc_2_7::SAX2XMLReaderImpl"*)* @_ZNK11xercesc_2_717SAX2XMLReaderImpl15getErrorHandlerEv to i8*), i8* bitcast (i1 (%"class.xercesc_2_7::SAX2XMLReaderImpl"*, i16*)* @_ZNK11xercesc_2_717SAX2XMLReaderImpl10getFeatureEPKt to i8*), i8* bitcast (i8* (%"class.xercesc_2_7::SAX2XMLReaderImpl"*, i16*)* @_ZNK11xercesc_2_717SAX2XMLReaderImpl11getPropertyEPKt to i8*), i8* bitcast (void (%"class.xercesc_2_7::SAX2XMLReaderImpl"*, %"class.xercesc_2_7::ContentHandler"*)* @_ZN11xercesc_2_717SAX2XMLReaderImpl17setContentHandlerEPNS_14ContentHandlerE to i8*), i8* bitcast (void (%"class.xercesc_2_7::SAX2XMLReaderImpl"*, %"class.xercesc_2_7::DTDHandler"*)* @_ZN11xercesc_2_717SAX2XMLReaderImpl13setDTDHandlerEPNS_10DTDHandlerE to i8*), i8* bitcast (void (%"class.xercesc_2_7::SAX2XMLReaderImpl"*, %"class.xercesc_2_7::EntityResolver"*)* @_ZN11xercesc_2_717SAX2XMLReaderImpl17setEntityResolverEPNS_14EntityResolverE to i8*), i8* bitcast (void (%"class.xercesc_2_7::SAX2XMLReaderImpl"*, %"class.xercesc_2_7::ErrorHandler"*)* @_ZN11xercesc_2_717SAX2XMLReaderImpl15setErrorHandlerEPNS_12ErrorHandlerE to i8*), i8* bitcast (void (%"class.xercesc_2_7::SAX2XMLReaderImpl"*, i16*, i1)* @_ZN11xercesc_2_717SAX2XMLReaderImpl10setFeatureEPKtb to i8*), i8* bitcast (void (%"class.xercesc_2_7::SAX2XMLReaderImpl"*, i16*, i8*)* @_ZN11xercesc_2_717SAX2XMLReaderImpl11setPropertyEPKtPv to i8*), i8* bitcast (void (%"class.xercesc_2_7::SAX2XMLReaderImpl"*, %"class.xercesc_2_7::InputSource"*)* @_ZN11xercesc_2_717SAX2XMLReaderImpl5parseERKNS_11InputSourceE to i8*), i8* bitcast (void (%"class.xercesc_2_7::SAX2XMLReaderImpl"*, i16*)* @_ZN11xercesc_2_717SAX2XMLReaderImpl5parseEPKt to i8*), i8* bitcast (void (%"class.xercesc_2_7::SAX2XMLReaderImpl"*, i8*)* @_ZN11xercesc_2_717SAX2XMLReaderImpl5parseEPKc to i8*), i8* bitcast (%"class.xercesc_2_7::DeclHandler"* (%"class.xercesc_2_7::SAX2XMLReaderImpl"*)* @_ZNK11xercesc_2_717SAX2XMLReaderImpl21getDeclarationHandlerEv to i8*), i8* bitcast (%"class.xercesc_2_7::LexicalHandler"* (%"class.xercesc_2_7::SAX2XMLReaderImpl"*)* @_ZNK11xercesc_2_717SAX2XMLReaderImpl17getLexicalHandlerEv to i8*), i8* bitcast (void (%"class.xercesc_2_7::SAX2XMLReaderImpl"*, %"class.xercesc_2_7::DeclHandler"*)* @_ZN11xercesc_2_717SAX2XMLReaderImpl21setDeclarationHandlerEPNS_11DeclHandlerE to i8*), i8* bitcast (void (%"class.xercesc_2_7::SAX2XMLReaderImpl"*, %"class.xercesc_2_7::LexicalHandler"*)* @_ZN11xercesc_2_717SAX2XMLReaderImpl17setLexicalHandlerEPNS_14LexicalHandlerE to i8*), i8* bitcast (%"class.xercesc_2_7::XMLValidator"* (%"class.xercesc_2_7::SAX2XMLReaderImpl"*)* @_ZNK11xercesc_2_717SAX2XMLReaderImpl12getValidatorEv to i8*), i8* bitcast (i32 (%"class.xercesc_2_7::SAX2XMLReaderImpl"*)* @_ZNK11xercesc_2_717SAX2XMLReaderImpl13getErrorCountEv to i8*), i8* bitcast (i1 (%"class.xercesc_2_7::SAX2XMLReaderImpl"*)* @_ZNK11xercesc_2_717SAX2XMLReaderImpl24getExitOnFirstFatalErrorEv to i8*), i8* bitcast (i1 (%"class.xercesc_2_7::SAX2XMLReaderImpl"*)* @_ZNK11xercesc_2_717SAX2XMLReaderImpl28getValidationConstraintFatalEv to i8*), i8* bitcast (%"class.xercesc_2_7::Grammar"* (%"class.xercesc_2_7::SAX2XMLReaderImpl"*, i16*)* @_ZN11xercesc_2_717SAX2XMLReaderImpl10getGrammarEPKt to i8*), i8* bitcast (%"class.xercesc_2_7::Grammar"* (%"class.xercesc_2_7::SAX2XMLReaderImpl"*)* @_ZN11xercesc_2_717SAX2XMLReaderImpl14getRootGrammarEv to i8*), i8* bitcast (i16* (%"class.xercesc_2_7::SAX2XMLReaderImpl"*, i32)* @_ZNK11xercesc_2_717SAX2XMLReaderImpl10getURITextEj to i8*), i8* bitcast (i32 (%"class.xercesc_2_7::SAX2XMLReaderImpl"*)* @_ZNK11xercesc_2_717SAX2XMLReaderImpl12getSrcOffsetEv to i8*), i8* bitcast (void (%"class.xercesc_2_7::SAX2XMLReaderImpl"*, %"class.xercesc_2_7::XMLValidator"*)* @_ZN11xercesc_2_717SAX2XMLReaderImpl12setValidatorEPNS_12XMLValidatorE to i8*), i8* bitcast (void (%"class.xercesc_2_7::SAX2XMLReaderImpl"*, i1)* @_ZN11xercesc_2_717SAX2XMLReaderImpl24setExitOnFirstFatalErrorEb to i8*), i8* bitcast (void (%"class.xercesc_2_7::SAX2XMLReaderImpl"*, i1)* @_ZN11xercesc_2_717SAX2XMLReaderImpl28setValidationConstraintFatalEb to i8*), i8* bitcast (i1 (%"class.xercesc_2_7::SAX2XMLReaderImpl"*, i16*, %"class.xercesc_2_7::XMLPScanToken"*)* @_ZN11xercesc_2_717SAX2XMLReaderImpl10parseFirstEPKtRNS_13XMLPScanTokenE to i8*), i8* bitcast (i1 (%"class.xercesc_2_7::SAX2XMLReaderImpl"*, i8*, %"class.xercesc_2_7::XMLPScanToken"*)* @_ZN11xercesc_2_717SAX2XMLReaderImpl10parseFirstEPKcRNS_13XMLPScanTokenE to i8*), i8* bitcast (i1 (%"class.xercesc_2_7::SAX2XMLReaderImpl"*, %"class.xercesc_2_7::InputSource"*, %"class.xercesc_2_7::XMLPScanToken"*)* @_ZN11xercesc_2_717SAX2XMLReaderImpl10parseFirstERKNS_11InputSourceERNS_13XMLPScanTokenE to i8*), i8* bitcast (i1 (%"class.xercesc_2_7::SAX2XMLReaderImpl"*, %"class.xercesc_2_7::XMLPScanToken"*)* @_ZN11xercesc_2_717SAX2XMLReaderImpl9parseNextERNS_13XMLPScanTokenE to i8*), i8* bitcast (void (%"class.xercesc_2_7::SAX2XMLReaderImpl"*, %"class.xercesc_2_7::XMLPScanToken"*)* @_ZN11xercesc_2_717SAX2XMLReaderImpl10parseResetERNS_13XMLPScanTokenE to i8*), i8* bitcast (%"class.xercesc_2_7::Grammar"* (%"class.xercesc_2_7::SAX2XMLReaderImpl"*, %"class.xercesc_2_7::InputSource"*, i16, i1)* @_ZN11xercesc_2_717SAX2XMLReaderImpl11loadGrammarERKNS_11InputSourceEsb to i8*), i8* bitcast (%"class.xercesc_2_7::Grammar"* (%"class.xercesc_2_7::SAX2XMLReaderImpl"*, i16*, i16, i1)* @_ZN11xercesc_2_717SAX2XMLReaderImpl11loadGrammarEPKtsb to i8*), i8* bitcast (%"class.xercesc_2_7::Grammar"* (%"class.xercesc_2_7::SAX2XMLReaderImpl"*, i8*, i16, i1)* @_ZN11xercesc_2_717SAX2XMLReaderImpl11loadGrammarEPKcsb to i8*), i8* bitcast (void (%"class.xercesc_2_7::SAX2XMLReaderImpl"*)* @_ZN11xercesc_2_717SAX2XMLReaderImpl22resetCachedGrammarPoolEv to i8*), i8* bitcast (void (%"class.xercesc_2_7::SAX2XMLReaderImpl"*, i64)* @_ZN11xercesc_2_717SAX2XMLReaderImpl18setInputBufferSizeEm to i8*), i8* bitcast (void (%"class.xercesc_2_7::SAX2XMLReaderImpl"*, %"class.xercesc_2_7::XMLDocumentHandler"*)* @_ZN11xercesc_2_717SAX2XMLReaderImpl20installAdvDocHandlerEPNS_18XMLDocumentHandlerE to i8*), i8* bitcast (i1 (%"class.xercesc_2_7::SAX2XMLReaderImpl"*, %"class.xercesc_2_7::XMLDocumentHandler"*)* @_ZN11xercesc_2_717SAX2XMLReaderImpl19removeAdvDocHandlerEPNS_18XMLDocumentHandlerE to i8*), i8* bitcast (%"class.xercesc_2_7::XMLEntityResolver"* (%"class.xercesc_2_7::SAX2XMLReaderImpl"*)* @_ZNK11xercesc_2_717SAX2XMLReaderImpl20getXMLEntityResolverEv to i8*), i8* bitcast (%"class.xercesc_2_7::PSVIHandler"* (%"class.xercesc_2_7::SAX2XMLReaderImpl"*)* @_ZNK11xercesc_2_717SAX2XMLReaderImpl14getPSVIHandlerEv to i8*), i8* bitcast (void (%"class.xercesc_2_7::SAX2XMLReaderImpl"*, %"class.xercesc_2_7::XMLEntityResolver"*)* @_ZN11xercesc_2_717SAX2XMLReaderImpl20setXMLEntityResolverEPNS_17XMLEntityResolverE to i8*), i8* bitcast (void (%"class.xercesc_2_7::SAX2XMLReaderImpl"*, %"class.xercesc_2_7::PSVIHandler"*)* @_ZN11xercesc_2_717SAX2XMLReaderImpl14setPSVIHandlerEPNS_11PSVIHandlerE to i8*), i8* bitcast (void (%"class.xercesc_2_7::SAX2XMLReaderImpl"*, i16*, i32, i1)* @_ZN11xercesc_2_717SAX2XMLReaderImpl13docCharactersEPKtjb to i8*), i8* bitcast (void (%"class.xercesc_2_7::SAX2XMLReaderImpl"*, i16*)* @_ZN11xercesc_2_717SAX2XMLReaderImpl10docCommentEPKt to i8*), i8* bitcast (void (%"class.xercesc_2_7::SAX2XMLReaderImpl"*, i16*, i16*)* @_ZN11xercesc_2_717SAX2XMLReaderImpl5docPIEPKtS2_ to i8*), i8* bitcast (void (%"class.xercesc_2_7::SAX2XMLReaderImpl"*)* @_ZN11xercesc_2_717SAX2XMLReaderImpl11endDocumentEv to i8*), i8* bitcast (void (%"class.xercesc_2_7::SAX2XMLReaderImpl"*, %"class.xercesc_2_7::XMLElementDecl"*, i32, i1, i16*)* @_ZN11xercesc_2_717SAX2XMLReaderImpl10endElementERKNS_14XMLElementDeclEjbPKt to i8*), i8* bitcast (void (%"class.xercesc_2_7::SAX2XMLReaderImpl"*, %"class.xercesc_2_7::XMLEntityDecl"*)* @_ZN11xercesc_2_717SAX2XMLReaderImpl18endEntityReferenceERKNS_13XMLEntityDeclE to i8*), i8* bitcast (void (%"class.xercesc_2_7::SAX2XMLReaderImpl"*, i16*, i32, i1)* @_ZN11xercesc_2_717SAX2XMLReaderImpl19ignorableWhitespaceEPKtjb to i8*), i8* bitcast (void (%"class.xercesc_2_7::SAX2XMLReaderImpl"*)* @_ZN11xercesc_2_717SAX2XMLReaderImpl13resetDocumentEv to i8*), i8* bitcast (void (%"class.xercesc_2_7::SAX2XMLReaderImpl"*)* @_ZN11xercesc_2_717SAX2XMLReaderImpl13startDocumentEv to i8*), i8* bitcast (void (%"class.xercesc_2_7::SAX2XMLReaderImpl"*, %"class.xercesc_2_7::XMLElementDecl"*, i32, i16*, %"class.xercesc_2_7::RefVectorOf"*, i32, i1, i1)* @_ZN11xercesc_2_717SAX2XMLReaderImpl12startElementERKNS_14XMLElementDeclEjPKtRKNS_11RefVectorOfINS_7XMLAttrEEEjbb to i8*), i8* bitcast (void (%"class.xercesc_2_7::SAX2XMLReaderImpl"*, %"class.xercesc_2_7::XMLEntityDecl"*)* @_ZN11xercesc_2_717SAX2XMLReaderImpl20startEntityReferenceERKNS_13XMLEntityDeclE to i8*), i8* bitcast (void (%"class.xercesc_2_7::SAX2XMLReaderImpl"*, i16*, i16*, i16*, i16*)* @_ZN11xercesc_2_717SAX2XMLReaderImpl7XMLDeclEPKtS2_S2_S2_ to i8*), i8* bitcast (void (%"class.xercesc_2_7::SAX2XMLReaderImpl"*, i32, i16*, i32, i16*, i16*, i16*, i64, i64)* @_ZN11xercesc_2_717SAX2XMLReaderImpl5errorEjPKtNS_16XMLErrorReporter8ErrTypesES2_S2_S2_ll to i8*), i8* bitcast (void (%"class.xercesc_2_7::SAX2XMLReaderImpl"*)* @_ZN11xercesc_2_717SAX2XMLReaderImpl11resetErrorsEv to i8*), i8* bitcast (void (%"class.xercesc_2_7::SAX2XMLReaderImpl"*, %"class.xercesc_2_7::InputSource"*)* @_ZN11xercesc_2_717SAX2XMLReaderImpl14endInputSourceERKNS_11InputSourceE to i8*), i8* bitcast (i1 (%"class.xercesc_2_7::SAX2XMLReaderImpl"*, i16*, %"class.xercesc_2_7::XMLBuffer"*)* @_ZN11xercesc_2_717SAX2XMLReaderImpl14expandSystemIdEPKtRNS_9XMLBufferE to i8*), i8* bitcast (void (%"class.xercesc_2_7::SAX2XMLReaderImpl"*)* @_ZN11xercesc_2_717SAX2XMLReaderImpl13resetEntitiesEv to i8*), i8* bitcast (%"class.xercesc_2_7::InputSource"* (%"class.xercesc_2_7::SAX2XMLReaderImpl"*, i16*, i16*, i16*)* @_ZN11xercesc_2_717SAX2XMLReaderImpl13resolveEntityEPKtS2_S2_ to i8*), i8* bitcast (%"class.xercesc_2_7::InputSource"* (%"class.xercesc_2_7::SAX2XMLReaderImpl"*, %"class.xercesc_2_7::XMLResourceIdentifier"*)* @_ZN11xercesc_2_717SAX2XMLReaderImpl13resolveEntityEPNS_21XMLResourceIdentifierE to i8*), i8* bitcast (void (%"class.xercesc_2_7::SAX2XMLReaderImpl"*, %"class.xercesc_2_7::InputSource"*)* @_ZN11xercesc_2_717SAX2XMLReaderImpl16startInputSourceERKNS_11InputSourceE to i8*), i8* bitcast (void (%"class.xercesc_2_7::SAX2XMLReaderImpl"*, %"class.xercesc_2_7::DTDElementDecl"*, %"class.xercesc_2_7::DTDAttDef"*, i1)* @_ZN11xercesc_2_717SAX2XMLReaderImpl6attDefERKNS_14DTDElementDeclERKNS_9DTDAttDefEb to i8*), i8* bitcast (void (%"class.xercesc_2_7::SAX2XMLReaderImpl"*, i16*)* @_ZN11xercesc_2_717SAX2XMLReaderImpl14doctypeCommentEPKt to i8*), i8* bitcast (void (%"class.xercesc_2_7::SAX2XMLReaderImpl"*, %"class.xercesc_2_7::DTDElementDecl"*, i16*, i16*, i1, i1)* @_ZN11xercesc_2_717SAX2XMLReaderImpl11doctypeDeclERKNS_14DTDElementDeclEPKtS5_bb to i8*), i8* bitcast (void (%"class.xercesc_2_7::SAX2XMLReaderImpl"*, i16*, i16*)* @_ZN11xercesc_2_717SAX2XMLReaderImpl9doctypePIEPKtS2_ to i8*), i8* bitcast (void (%"class.xercesc_2_7::SAX2XMLReaderImpl"*, i16*, i32)* @_ZN11xercesc_2_717SAX2XMLReaderImpl17doctypeWhitespaceEPKtj to i8*), i8* bitcast (void (%"class.xercesc_2_7::SAX2XMLReaderImpl"*, %"class.xercesc_2_7::DTDElementDecl"*, i1)* @_ZN11xercesc_2_717SAX2XMLReaderImpl11elementDeclERKNS_14DTDElementDeclEb to i8*), i8* bitcast (void (%"class.xercesc_2_7::SAX2XMLReaderImpl"*, %"class.xercesc_2_7::DTDElementDecl"*)* @_ZN11xercesc_2_717SAX2XMLReaderImpl10endAttListERKNS_14DTDElementDeclE to i8*), i8* bitcast (void (%"class.xercesc_2_7::SAX2XMLReaderImpl"*)* @_ZN11xercesc_2_717SAX2XMLReaderImpl12endIntSubsetEv to i8*), i8* bitcast (void (%"class.xercesc_2_7::SAX2XMLReaderImpl"*)* @_ZN11xercesc_2_717SAX2XMLReaderImpl12endExtSubsetEv to i8*), i8* bitcast (void (%"class.xercesc_2_7::SAX2XMLReaderImpl"*, %"class.xercesc_2_7::DTDEntityDecl"*, i1, i1)* @_ZN11xercesc_2_717SAX2XMLReaderImpl10entityDeclERKNS_13DTDEntityDeclEbb to i8*), i8* bitcast (void (%"class.xercesc_2_7::SAX2XMLReaderImpl"*)* @_ZN11xercesc_2_717SAX2XMLReaderImpl12resetDocTypeEv to i8*), i8* bitcast (void (%"class.xercesc_2_7::SAX2XMLReaderImpl"*, %"class.xercesc_2_7::XMLNotationDecl"*, i1)* @_ZN11xercesc_2_717SAX2XMLReaderImpl12notationDeclERKNS_15XMLNotationDeclEb to i8*), i8* bitcast (void (%"class.xercesc_2_7::SAX2XMLReaderImpl"*, %"class.xercesc_2_7::DTDElementDecl"*)* @_ZN11xercesc_2_717SAX2XMLReaderImpl12startAttListERKNS_14DTDElementDeclE to i8*), i8* bitcast (void (%"class.xercesc_2_7::SAX2XMLReaderImpl"*)* @_ZN11xercesc_2_717SAX2XMLReaderImpl14startIntSubsetEv to i8*), i8* bitcast (void (%"class.xercesc_2_7::SAX2XMLReaderImpl"*)* @_ZN11xercesc_2_717SAX2XMLReaderImpl14startExtSubsetEv to i8*), i8* bitcast (void (%"class.xercesc_2_7::SAX2XMLReaderImpl"*, i16*, i16*)* @_ZN11xercesc_2_717SAX2XMLReaderImpl8TextDeclEPKtS2_ to i8*)], [17 x i8*] [i8* inttoptr (i64 -8 to i8*), i8* bitcast ({ i8*, i8*, i32, i32, i8*, i64, i8*, i64, i8*, i64, i8*, i64, i8*, i64, i8*, i64 }* @_ZTIN11xercesc_2_717SAX2XMLReaderImplE to i8*), i8* bitcast (void (%"class.xercesc_2_7::SAX2XMLReaderImpl"*)* @_ZThn8_N11xercesc_2_717SAX2XMLReaderImplD1Ev to i8*), i8* bitcast (void (%"class.xercesc_2_7::SAX2XMLReaderImpl"*)* @_ZThn8_N11xercesc_2_717SAX2XMLReaderImplD0Ev to i8*), i8* bitcast (void (%"class.xercesc_2_7::SAX2XMLReaderImpl"*, i16*, i32, i1)* @_ZThn8_N11xercesc_2_717SAX2XMLReaderImpl13docCharactersEPKtjb to i8*), i8* bitcast (void (%"class.xercesc_2_7::SAX2XMLReaderImpl"*, i16*)* @_ZThn8_N11xercesc_2_717SAX2XMLReaderImpl10docCommentEPKt to i8*), i8* bitcast (void (%"class.xercesc_2_7::SAX2XMLReaderImpl"*, i16*, i16*)* @_ZThn8_N11xercesc_2_717SAX2XMLReaderImpl5docPIEPKtS2_ to i8*), i8* bitcast (void (%"class.xercesc_2_7::SAX2XMLReaderImpl"*)* @_ZThn8_N11xercesc_2_717SAX2XMLReaderImpl11endDocumentEv to i8*), i8* bitcast (void (%"class.xercesc_2_7::SAX2XMLReaderImpl"*, %"class.xercesc_2_7::XMLElementDecl"*, i32, i1, i16*)* @_ZThn8_N11xercesc_2_717SAX2XMLReaderImpl10endElementERKNS_14XMLElementDeclEjbPKt to i8*), i8* bitcast (void (%"class.xercesc_2_7::SAX2XMLReaderImpl"*, %"class.xercesc_2_7::XMLEntityDecl"*)* @_ZThn8_N11xercesc_2_717SAX2XMLReaderImpl18endEntityReferenceERKNS_13XMLEntityDeclE to i8*), i8* bitcast (void (%"class.xercesc_2_7::SAX2XMLReaderImpl"*, i16*, i32, i1)* @_ZThn8_N11xercesc_2_717SAX2XMLReaderImpl19ignorableWhitespaceEPKtjb to i8*), i8* bitcast (void (%"class.xercesc_2_7::SAX2XMLReaderImpl"*)* @_ZThn8_N11xercesc_2_717SAX2XMLReaderImpl13resetDocumentEv to i8*), i8* bitcast (void (%"class.xercesc_2_7::SAX2XMLReaderImpl"*)* @_ZThn8_N11xercesc_2_717SAX2XMLReaderImpl13startDocumentEv to i8*), i8* bitcast (void (%"class.xercesc_2_7::SAX2XMLReaderImpl"*, %"class.xercesc_2_7::XMLElementDecl"*, i32, i16*, %"class.xercesc_2_7::RefVectorOf"*, i32, i1, i1)* @_ZThn8_N11xercesc_2_717SAX2XMLReaderImpl12startElementERKNS_14XMLElementDeclEjPKtRKNS_11RefVectorOfINS_7XMLAttrEEEjbb to i8*), i8* bitcast (void (%"class.xercesc_2_7::SAX2XMLReaderImpl"*, %"class.xercesc_2_7::XMLEntityDecl"*)* @_ZThn8_N11xercesc_2_717SAX2XMLReaderImpl20startEntityReferenceERKNS_13XMLEntityDeclE to i8*), i8* bitcast (void (%"class.xercesc_2_7::SAX2XMLReaderImpl"*, i16*, i16*, i16*, i16*)* @_ZThn8_N11xercesc_2_717SAX2XMLReaderImpl7XMLDeclEPKtS2_S2_S2_ to i8*), i8* bitcast (void (%"class.xercesc_2_7::XMLDocumentHandler"*, i16*, i16*)* @_ZN11xercesc_2_718XMLDocumentHandler15elementTypeInfoEPKtS2_ to i8*)], [6 x i8*] [i8* inttoptr (i64 -16 to i8*), i8* bitcast ({ i8*, i8*, i32, i32, i8*, i64, i8*, i64, i8*, i64, i8*, i64, i8*, i64, i8*, i64 }* @_ZTIN11xercesc_2_717SAX2XMLReaderImplE to i8*), i8* bitcast (void (%"class.xercesc_2_7::SAX2XMLReaderImpl"*)* @_ZThn16_N11xercesc_2_717SAX2XMLReaderImplD1Ev to i8*), i8* bitcast (void (%"class.xercesc_2_7::SAX2XMLReaderImpl"*)* @_ZThn16_N11xercesc_2_717SAX2XMLReaderImplD0Ev to i8*), i8* bitcast (void (%"class.xercesc_2_7::SAX2XMLReaderImpl"*, i32, i16*, i32, i16*, i16*, i16*, i64, i64)* @_ZThn16_N11xercesc_2_717SAX2XMLReaderImpl5errorEjPKtNS_16XMLErrorReporter8ErrTypesES2_S2_S2_ll to i8*), i8* bitcast (void (%"class.xercesc_2_7::SAX2XMLReaderImpl"*)* @_ZThn16_N11xercesc_2_717SAX2XMLReaderImpl11resetErrorsEv to i8*)], [10 x i8*] [i8* inttoptr (i64 -24 to i8*), i8* bitcast ({ i8*, i8*, i32, i32, i8*, i64, i8*, i64, i8*, i64, i8*, i64, i8*, i64, i8*, i64 }* @_ZTIN11xercesc_2_717SAX2XMLReaderImplE to i8*), i8* bitcast (void (%"class.xercesc_2_7::SAX2XMLReaderImpl"*)* @_ZThn24_N11xercesc_2_717SAX2XMLReaderImplD1Ev to i8*), i8* bitcast (void (%"class.xercesc_2_7::SAX2XMLReaderImpl"*)* @_ZThn24_N11xercesc_2_717SAX2XMLReaderImplD0Ev to i8*), i8* bitcast (void (%"class.xercesc_2_7::SAX2XMLReaderImpl"*, %"class.xercesc_2_7::InputSource"*)* @_ZThn24_N11xercesc_2_717SAX2XMLReaderImpl14endInputSourceERKNS_11InputSourceE to i8*), i8* bitcast (i1 (%"class.xercesc_2_7::SAX2XMLReaderImpl"*, i16*, %"class.xercesc_2_7::XMLBuffer"*)* @_ZThn24_N11xercesc_2_717SAX2XMLReaderImpl14expandSystemIdEPKtRNS_9XMLBufferE to i8*), i8* bitcast (void (%"class.xercesc_2_7::SAX2XMLReaderImpl"*)* @_ZThn24_N11xercesc_2_717SAX2XMLReaderImpl13resetEntitiesEv to i8*), i8* bitcast (%"class.xercesc_2_7::InputSource"* (%"class.xercesc_2_7::SAX2XMLReaderImpl"*, i16*, i16*, i16*)* @_ZThn24_N11xercesc_2_717SAX2XMLReaderImpl13resolveEntityEPKtS2_S2_ to i8*), i8* bitcast (%"class.xercesc_2_7::InputSource"* (%"class.xercesc_2_7::SAX2XMLReaderImpl"*, %"class.xercesc_2_7::XMLResourceIdentifier"*)* @_ZThn24_N11xercesc_2_717SAX2XMLReaderImpl13resolveEntityEPNS_21XMLResourceIdentifierE to i8*), i8* bitcast (void (%"class.xercesc_2_7::SAX2XMLReaderImpl"*, %"class.xercesc_2_7::InputSource"*)* @_ZThn24_N11xercesc_2_717SAX2XMLReaderImpl16startInputSourceERKNS_11InputSourceE to i8*)], [20 x i8*] [i8* inttoptr (i64 -32 to i8*), i8* bitcast ({ i8*, i8*, i32, i32, i8*, i64, i8*, i64, i8*, i64, i8*, i64, i8*, i64, i8*, i64 }* @_ZTIN11xercesc_2_717SAX2XMLReaderImplE to i8*), i8* bitcast (void (%"class.xercesc_2_7::SAX2XMLReaderImpl"*)* @_ZThn32_N11xercesc_2_717SAX2XMLReaderImplD1Ev to i8*), i8* bitcast (void (%"class.xercesc_2_7::SAX2XMLReaderImpl"*)* @_ZThn32_N11xercesc_2_717SAX2XMLReaderImplD0Ev to i8*), i8* bitcast (void (%"class.xercesc_2_7::SAX2XMLReaderImpl"*, %"class.xercesc_2_7::DTDElementDecl"*, %"class.xercesc_2_7::DTDAttDef"*, i1)* @_ZThn32_N11xercesc_2_717SAX2XMLReaderImpl6attDefERKNS_14DTDElementDeclERKNS_9DTDAttDefEb to i8*), i8* bitcast (void (%"class.xercesc_2_7::SAX2XMLReaderImpl"*, i16*)* @_ZThn32_N11xercesc_2_717SAX2XMLReaderImpl14doctypeCommentEPKt to i8*), i8* bitcast (void (%"class.xercesc_2_7::SAX2XMLReaderImpl"*, %"class.xercesc_2_7::DTDElementDecl"*, i16*, i16*, i1, i1)* @_ZThn32_N11xercesc_2_717SAX2XMLReaderImpl11doctypeDeclERKNS_14DTDElementDeclEPKtS5_bb to i8*), i8* bitcast (void (%"class.xercesc_2_7::SAX2XMLReaderImpl"*, i16*, i16*)* @_ZThn32_N11xercesc_2_717SAX2XMLReaderImpl9doctypePIEPKtS2_ to i8*), i8* bitcast (void (%"class.xercesc_2_7::SAX2XMLReaderImpl"*, i16*, i32)* @_ZThn32_N11xercesc_2_717SAX2XMLReaderImpl17doctypeWhitespaceEPKtj to i8*), i8* bitcast (void (%"class.xercesc_2_7::SAX2XMLReaderImpl"*, %"class.xercesc_2_7::DTDElementDecl"*, i1)* @_ZThn32_N11xercesc_2_717SAX2XMLReaderImpl11elementDeclERKNS_14DTDElementDeclEb to i8*), i8* bitcast (void (%"class.xercesc_2_7::SAX2XMLReaderImpl"*, %"class.xercesc_2_7::DTDElementDecl"*)* @_ZThn32_N11xercesc_2_717SAX2XMLReaderImpl10endAttListERKNS_14DTDElementDeclE to i8*), i8* bitcast (void (%"class.xercesc_2_7::SAX2XMLReaderImpl"*)* @_ZThn32_N11xercesc_2_717SAX2XMLReaderImpl12endIntSubsetEv to i8*), i8* bitcast (void (%"class.xercesc_2_7::SAX2XMLReaderImpl"*)* @_ZThn32_N11xercesc_2_717SAX2XMLReaderImpl12endExtSubsetEv to i8*), i8* bitcast (void (%"class.xercesc_2_7::SAX2XMLReaderImpl"*, %"class.xercesc_2_7::DTDEntityDecl"*, i1, i1)* @_ZThn32_N11xercesc_2_717SAX2XMLReaderImpl10entityDeclERKNS_13DTDEntityDeclEbb to i8*), i8* bitcast (void (%"class.xercesc_2_7::SAX2XMLReaderImpl"*)* @_ZThn32_N11xercesc_2_717SAX2XMLReaderImpl12resetDocTypeEv to i8*), i8* bitcast (void (%"class.xercesc_2_7::SAX2XMLReaderImpl"*, %"class.xercesc_2_7::XMLNotationDecl"*, i1)* @_ZThn32_N11xercesc_2_717SAX2XMLReaderImpl12notationDeclERKNS_15XMLNotationDeclEb to i8*), i8* bitcast (void (%"class.xercesc_2_7::SAX2XMLReaderImpl"*, %"class.xercesc_2_7::DTDElementDecl"*)* @_ZThn32_N11xercesc_2_717SAX2XMLReaderImpl12startAttListERKNS_14DTDElementDeclE to i8*), i8* bitcast (void (%"class.xercesc_2_7::SAX2XMLReaderImpl"*)* @_ZThn32_N11xercesc_2_717SAX2XMLReaderImpl14startIntSubsetEv to i8*), i8* bitcast (void (%"class.xercesc_2_7::SAX2XMLReaderImpl"*)* @_ZThn32_N11xercesc_2_717SAX2XMLReaderImpl14startExtSubsetEv to i8*), i8* bitcast (void (%"class.xercesc_2_7::SAX2XMLReaderImpl"*, i16*, i16*)* @_ZThn32_N11xercesc_2_717SAX2XMLReaderImpl8TextDeclEPKtS2_ to i8*)] }, align 8
@_ZTVN10__cxxabiv120__si_class_type_infoE = external dso_local global i8*
@_ZTSN11xercesc_2_720OutOfMemoryExceptionE = linkonce_odr dso_local constant [38 x i8] c"N11xercesc_2_720OutOfMemoryExceptionE\00", comdat, align 1
@_ZTVN10__cxxabiv117__class_type_infoE = external dso_local global i8*
@_ZTSN11xercesc_2_77XMemoryE = linkonce_odr dso_local constant [24 x i8] c"N11xercesc_2_77XMemoryE\00", comdat, align 1
@_ZTIN11xercesc_2_77XMemoryE = linkonce_odr dso_local constant { i8*, i8* } { i8* bitcast (i8** getelementptr inbounds (i8*, i8** @_ZTVN10__cxxabiv117__class_type_infoE, i64 2) to i8*), i8* getelementptr inbounds ([24 x i8], [24 x i8]* @_ZTSN11xercesc_2_77XMemoryE, i32 0, i32 0) }, comdat, align 8
@_ZTIN11xercesc_2_720OutOfMemoryExceptionE = linkonce_odr dso_local constant { i8*, i8*, i8* } { i8* bitcast (i8** getelementptr inbounds (i8*, i8** @_ZTVN10__cxxabiv120__si_class_type_infoE, i64 2) to i8*), i8* getelementptr inbounds ([38 x i8], [38 x i8]* @_ZTSN11xercesc_2_720OutOfMemoryExceptionE, i32 0, i32 0), i8* bitcast ({ i8*, i8* }* @_ZTIN11xercesc_2_77XMemoryE to i8*) }, comdat, align 8
@.str = private unnamed_addr constant [22 x i8] c"SAX2XMLReaderImpl.cpp\00", align 1
@_ZTSN11xercesc_2_711IOExceptionE = linkonce_odr dso_local constant [29 x i8] c"N11xercesc_2_711IOExceptionE\00", comdat, align 1
@_ZTIN11xercesc_2_712XMLExceptionE = external dso_local constant i8*
@_ZTIN11xercesc_2_711IOExceptionE = linkonce_odr dso_local constant { i8*, i8*, i8* } { i8* bitcast (i8** getelementptr inbounds (i8*, i8** @_ZTVN10__cxxabiv120__si_class_type_infoE, i64 2) to i8*), i8* getelementptr inbounds ([29 x i8], [29 x i8]* @_ZTSN11xercesc_2_711IOExceptionE, i32 0, i32 0), i8* bitcast (i8** @_ZTIN11xercesc_2_712XMLExceptionE to i8*) }, comdat, align 8
@_ZN11xercesc_2_76XMLUni13fgXMLNSStringE = external dso_local constant [0 x i16], align 2
@_ZN11xercesc_2_76XMLUni15fgZeroLenStringE = external dso_local constant [0 x i16], align 2
@_ZN11xercesc_2_76XMLUni12fgNullStringE = external dso_local constant [0 x i16], align 2
@_ZN11xercesc_2_76XMLUni16fgNotationStringE = external dso_local constant [0 x i16], align 2
@_ZN11xercesc_2_7L13gDTDEntityStrE = internal constant [6 x i16] [i16 91, i16 100, i16 116, i16 100, i16 93, i16 0], align 2, !dbg !0
@_ZTIN11xercesc_2_717SAXParseExceptionE = external dso_local constant i8*
@.str.1 = private unnamed_addr constant [52 x i8] c"Feature modification is not supported during parse.\00", align 1
@_ZTSN11xercesc_2_724SAXNotSupportedExceptionE = linkonce_odr dso_local constant [42 x i8] c"N11xercesc_2_724SAXNotSupportedExceptionE\00", comdat, align 1
@_ZTSN11xercesc_2_712SAXExceptionE = linkonce_odr dso_local constant [30 x i8] c"N11xercesc_2_712SAXExceptionE\00", comdat, align 1
@_ZTIN11xercesc_2_712SAXExceptionE = linkonce_odr dso_local constant { i8*, i8*, i8* } { i8* bitcast (i8** getelementptr inbounds (i8*, i8** @_ZTVN10__cxxabiv120__si_class_type_infoE, i64 2) to i8*), i8* getelementptr inbounds ([30 x i8], [30 x i8]* @_ZTSN11xercesc_2_712SAXExceptionE, i32 0, i32 0), i8* bitcast ({ i8*, i8* }* @_ZTIN11xercesc_2_77XMemoryE to i8*) }, comdat, align 8
@_ZTIN11xercesc_2_724SAXNotSupportedExceptionE = linkonce_odr dso_local constant { i8*, i8*, i8* } { i8* bitcast (i8** getelementptr inbounds (i8*, i8** @_ZTVN10__cxxabiv120__si_class_type_infoE, i64 2) to i8*), i8* getelementptr inbounds ([42 x i8], [42 x i8]* @_ZTSN11xercesc_2_724SAXNotSupportedExceptionE, i32 0, i32 0), i8* bitcast ({ i8*, i8*, i8* }* @_ZTIN11xercesc_2_712SAXExceptionE to i8*) }, comdat, align 8
@_ZN11xercesc_2_76XMLUni20fgSAX2CoreNameSpacesE = external dso_local constant [0 x i16], align 2
@_ZN11xercesc_2_76XMLUni20fgSAX2CoreValidationE = external dso_local constant [0 x i16], align 2
@_ZN11xercesc_2_76XMLUni27fgSAX2CoreNameSpacePrefixesE = external dso_local constant [0 x i16], align 2
@_ZN11xercesc_2_76XMLUni15fgXercesDynamicE = external dso_local constant [0 x i16], align 2
@_ZN11xercesc_2_76XMLUni14fgXercesSchemaE = external dso_local constant [0 x i16], align 2
@_ZN11xercesc_2_76XMLUni26fgXercesSchemaFullCheckingE = external dso_local constant [0 x i16], align 2
@_ZN11xercesc_2_76XMLUni34fgXercesIdentityConstraintCheckingE = external dso_local constant [0 x i16], align 2
@_ZN11xercesc_2_76XMLUni23fgXercesLoadExternalDTDE = external dso_local constant [0 x i16], align 2
@_ZN11xercesc_2_76XMLUni31fgXercesContinueAfterFatalErrorE = external dso_local constant [0 x i16], align 2
@_ZN11xercesc_2_76XMLUni30fgXercesValidationErrorAsFatalE = external dso_local constant [0 x i16], align 2
@_ZN11xercesc_2_76XMLUni29fgXercesCacheGrammarFromParseE = external dso_local constant [0 x i16], align 2
@_ZN11xercesc_2_76XMLUni31fgXercesUseCachedGrammarInParseE = external dso_local constant [0 x i16], align 2
@_ZN11xercesc_2_76XMLUni23fgXercesCalculateSrcOfsE = external dso_local constant [0 x i16], align 2
@_ZN11xercesc_2_76XMLUni29fgXercesStandardUriConformantE = external dso_local constant [0 x i16], align 2
@_ZN11xercesc_2_76XMLUni36fgXercesGenerateSyntheticAnnotationsE = external dso_local constant [0 x i16], align 2
@_ZN11xercesc_2_76XMLUni27fgXercesValidateAnnotationsE = external dso_local constant [0 x i16], align 2
@_ZN11xercesc_2_76XMLUni23fgXercesIgnoreCachedDTDE = external dso_local constant [0 x i16], align 2
@_ZN11xercesc_2_76XMLUni25fgXercesIgnoreAnnotationsE = external dso_local constant [0 x i16], align 2
@_ZN11xercesc_2_76XMLUni38fgXercesDisableDefaultEntityResolutionE = external dso_local constant [0 x i16], align 2
@_ZN11xercesc_2_76XMLUni25fgXercesSkipDTDValidationE = external dso_local constant [0 x i16], align 2
@.str.2 = private unnamed_addr constant [16 x i8] c"Unknown Feature\00", align 1
@_ZTSN11xercesc_2_725SAXNotRecognizedExceptionE = linkonce_odr dso_local constant [43 x i8] c"N11xercesc_2_725SAXNotRecognizedExceptionE\00", comdat, align 1
@_ZTIN11xercesc_2_725SAXNotRecognizedExceptionE = linkonce_odr dso_local constant { i8*, i8*, i8* } { i8* bitcast (i8** getelementptr inbounds (i8*, i8** @_ZTVN10__cxxabiv120__si_class_type_infoE, i64 2) to i8*), i8* getelementptr inbounds ([43 x i8], [43 x i8]* @_ZTSN11xercesc_2_725SAXNotRecognizedExceptionE, i32 0, i32 0), i8* bitcast ({ i8*, i8*, i8* }* @_ZTIN11xercesc_2_712SAXExceptionE to i8*) }, comdat, align 8
@.str.3 = private unnamed_addr constant [53 x i8] c"Property modification is not supported during parse.\00", align 1
@_ZN11xercesc_2_76XMLUni36fgXercesSchemaExternalSchemaLocationE = external dso_local constant [0 x i16], align 2
@_ZN11xercesc_2_76XMLUni47fgXercesSchemaExternalNoNameSpaceSchemaLocationE = external dso_local constant [0 x i16], align 2
@_ZN11xercesc_2_76XMLUni23fgXercesSecurityManagerE = external dso_local constant [0 x i16], align 2
@_ZN11xercesc_2_76XMLUni19fgXercesScannerNameE = external dso_local constant [0 x i16], align 2
@.str.4 = private unnamed_addr constant [17 x i8] c"Unknown Property\00", align 1
@_ZTVN11xercesc_2_710XMLDeleterE = linkonce_odr dso_local unnamed_addr constant { [4 x i8*] } { [4 x i8*] [i8* null, i8* bitcast ({ i8*, i8* }* @_ZTIN11xercesc_2_710XMLDeleterE to i8*), i8* bitcast (void (%"class.xercesc_2_7::XMLDeleter"*)* @_ZN11xercesc_2_710XMLDeleterD2Ev to i8*), i8* bitcast (void (%"class.xercesc_2_7::XMLDeleter"*)* @_ZN11xercesc_2_710XMLDeleterD0Ev to i8*)] }, comdat, align 8
@_ZTSN11xercesc_2_710XMLDeleterE = linkonce_odr dso_local constant [28 x i8] c"N11xercesc_2_710XMLDeleterE\00", comdat, align 1
@_ZTIN11xercesc_2_710XMLDeleterE = linkonce_odr dso_local constant { i8*, i8* } { i8* bitcast (i8** getelementptr inbounds (i8*, i8** @_ZTVN10__cxxabiv117__class_type_infoE, i64 2) to i8*), i8* getelementptr inbounds ([28 x i8], [28 x i8]* @_ZTSN11xercesc_2_710XMLDeleterE, i32 0, i32 0) }, comdat, align 8
@_ZTVN10__cxxabiv121__vmi_class_type_infoE = external dso_local global i8*
@_ZTSN11xercesc_2_710XMLRefInfoE = linkonce_odr dso_local constant [28 x i8] c"N11xercesc_2_710XMLRefInfoE\00", comdat, align 1
@_ZTSN11xercesc_2_713XSerializableE = linkonce_odr dso_local constant [31 x i8] c"N11xercesc_2_713XSerializableE\00", comdat, align 1
@_ZTIN11xercesc_2_713XSerializableE = linkonce_odr dso_local constant { i8*, i8* } { i8* bitcast (i8** getelementptr inbounds (i8*, i8** @_ZTVN10__cxxabiv117__class_type_infoE, i64 2) to i8*), i8* getelementptr inbounds ([31 x i8], [31 x i8]* @_ZTSN11xercesc_2_713XSerializableE, i32 0, i32 0) }, comdat, align 8
@_ZTIN11xercesc_2_710XMLRefInfoE = linkonce_odr dso_local constant { i8*, i8*, i32, i32, i8*, i64, i8*, i64 } { i8* bitcast (i8** getelementptr inbounds (i8*, i8** @_ZTVN10__cxxabiv121__vmi_class_type_infoE, i64 2) to i8*), i8* getelementptr inbounds ([28 x i8], [28 x i8]* @_ZTSN11xercesc_2_710XMLRefInfoE, i32 0, i32 0), i32 0, i32 2, i8* bitcast ({ i8*, i8* }* @_ZTIN11xercesc_2_713XSerializableE to i8*), i64 2, i8* bitcast ({ i8*, i8* }* @_ZTIN11xercesc_2_77XMemoryE to i8*), i64 2 }, comdat, align 8
@_ZTVN11xercesc_2_713DTDEntityDeclE = linkonce_odr dso_local unnamed_addr constant { [10 x i8*] } { [10 x i8*] [i8* null, i8* bitcast ({ i8*, i8*, i8* }* @_ZTIN11xercesc_2_713DTDEntityDeclE to i8*), i8* bitcast (void (%"class.xercesc_2_7::DTDEntityDecl"*)* @_ZN11xercesc_2_713DTDEntityDeclD2Ev to i8*), i8* bitcast (void (%"class.xercesc_2_7::DTDEntityDecl"*)* @_ZN11xercesc_2_713DTDEntityDeclD0Ev to i8*), i8* bitcast (i1 (%"class.xercesc_2_7::DTDEntityDecl"*)* @_ZNK11xercesc_2_713DTDEntityDecl14isSerializableEv to i8*), i8* bitcast (void (%"class.xercesc_2_7::DTDEntityDecl"*, %"class.xercesc_2_7::XSerializeEngine"*)* @_ZN11xercesc_2_713DTDEntityDecl9serializeERNS_16XSerializeEngineE to i8*), i8* bitcast (%"class.xercesc_2_7::XProtoType"* (%"class.xercesc_2_7::DTDEntityDecl"*)* @_ZNK11xercesc_2_713DTDEntityDecl12getProtoTypeEv to i8*), i8* bitcast (i1 (%"class.xercesc_2_7::DTDEntityDecl"*)* @_ZNK11xercesc_2_713DTDEntityDecl22getDeclaredInIntSubsetEv to i8*), i8* bitcast (i1 (%"class.xercesc_2_7::DTDEntityDecl"*)* @_ZNK11xercesc_2_713DTDEntityDecl14getIsParameterEv to i8*), i8* bitcast (i1 (%"class.xercesc_2_7::DTDEntityDecl"*)* @_ZNK11xercesc_2_713DTDEntityDecl16getIsSpecialCharEv to i8*)] }, comdat, align 8
@_ZTSN11xercesc_2_713DTDEntityDeclE = linkonce_odr dso_local constant [31 x i8] c"N11xercesc_2_713DTDEntityDeclE\00", comdat, align 1
@_ZTIN11xercesc_2_713XMLEntityDeclE = external dso_local constant i8*
@_ZTIN11xercesc_2_713DTDEntityDeclE = linkonce_odr dso_local constant { i8*, i8*, i8* } { i8* bitcast (i8** getelementptr inbounds (i8*, i8** @_ZTVN10__cxxabiv120__si_class_type_infoE, i64 2) to i8*), i8* getelementptr inbounds ([31 x i8], [31 x i8]* @_ZTSN11xercesc_2_713DTDEntityDeclE, i32 0, i32 0), i8* bitcast (i8** @_ZTIN11xercesc_2_713XMLEntityDeclE to i8*) }, comdat, align 8
@_ZTVN11xercesc_2_713XMLAttDefListE = linkonce_odr dso_local unnamed_addr constant { [18 x i8*] } { [18 x i8*] [i8* null, i8* bitcast ({ i8*, i8*, i32, i32, i8*, i64, i8*, i64 }* @_ZTIN11xercesc_2_713XMLAttDefListE to i8*), i8* bitcast (void (%"class.xercesc_2_7::XMLAttDefList"*)* @_ZN11xercesc_2_713XMLAttDefListD2Ev to i8*), i8* bitcast (void (%"class.xercesc_2_7::XMLAttDefList"*)* @_ZN11xercesc_2_713XMLAttDefListD0Ev to i8*), i8* bitcast (i1 (%"class.xercesc_2_7::XMLAttDefList"*)* @_ZNK11xercesc_2_713XMLAttDefList14isSerializableEv to i8*), i8* bitcast (void (%"class.xercesc_2_7::XMLAttDefList"*, %"class.xercesc_2_7::XSerializeEngine"*)* @_ZN11xercesc_2_713XMLAttDefList9serializeERNS_16XSerializeEngineE to i8*), i8* bitcast (%"class.xercesc_2_7::XProtoType"* (%"class.xercesc_2_7::XMLAttDefList"*)* @_ZNK11xercesc_2_713XMLAttDefList12getProtoTypeEv to i8*), i8* bitcast (void ()* @__cxa_pure_virtual to i8*), i8* bitcast (void ()* @__cxa_pure_virtual to i8*), i8* bitcast (void ()* @__cxa_pure_virtual to i8*), i8* bitcast (void ()* @__cxa_pure_virtual to i8*), i8* bitcast (void ()* @__cxa_pure_virtual to i8*), i8* bitcast (void ()* @__cxa_pure_virtual to i8*), i8* bitcast (void ()* @__cxa_pure_virtual to i8*), i8* bitcast (void ()* @__cxa_pure_virtual to i8*), i8* bitcast (void ()* @__cxa_pure_virtual to i8*), i8* bitcast (void ()* @__cxa_pure_virtual to i8*), i8* bitcast (void ()* @__cxa_pure_virtual to i8*)] }, comdat, align 8
@_ZTSN11xercesc_2_713XMLAttDefListE = linkonce_odr dso_local constant [31 x i8] c"N11xercesc_2_713XMLAttDefListE\00", comdat, align 1
@_ZTIN11xercesc_2_713XMLAttDefListE = linkonce_odr dso_local constant { i8*, i8*, i32, i32, i8*, i64, i8*, i64 } { i8* bitcast (i8** getelementptr inbounds (i8*, i8** @_ZTVN10__cxxabiv121__vmi_class_type_infoE, i64 2) to i8*), i8* getelementptr inbounds ([31 x i8], [31 x i8]* @_ZTSN11xercesc_2_713XMLAttDefListE, i32 0, i32 0), i32 0, i32 2, i8* bitcast ({ i8*, i8* }* @_ZTIN11xercesc_2_713XSerializableE to i8*), i64 2, i8* bitcast ({ i8*, i8* }* @_ZTIN11xercesc_2_77XMemoryE to i8*), i64 2 }, comdat, align 8
@_ZTVN11xercesc_2_713SAX2XMLReaderE = linkonce_odr dso_local unnamed_addr constant { [46 x i8*] } { [46 x i8*] [i8* null, i8* bitcast ({ i8*, i8* }* @_ZTIN11xercesc_2_713SAX2XMLReaderE to i8*), i8* bitcast (void (%"class.xercesc_2_7::SAX2XMLReader"*)* @_ZN11xercesc_2_713SAX2XMLReaderD2Ev to i8*), i8* bitcast (void (%"class.xercesc_2_7::SAX2XMLReader"*)* @_ZN11xercesc_2_713SAX2XMLReaderD0Ev to i8*), i8* bitcast (void ()* @__cxa_pure_virtual to i8*), i8* bitcast (void ()* @__cxa_pure_virtual to i8*), i8* bitcast (void ()* @__cxa_pure_virtual to i8*), i8* bitcast (void ()* @__cxa_pure_virtual to i8*), i8* bitcast (void ()* @__cxa_pure_virtual to i8*), i8* bitcast (void ()* @__cxa_pure_virtual to i8*), i8* bitcast (void ()* @__cxa_pure_virtual to i8*), i8* bitcast (void ()* @__cxa_pure_virtual to i8*), i8* bitcast (void ()* @__cxa_pure_virtual to i8*), i8* bitcast (void ()* @__cxa_pure_virtual to i8*), i8* bitcast (void ()* @__cxa_pure_virtual to i8*), i8* bitcast (void ()* @__cxa_pure_virtual to i8*), i8* bitcast (void ()* @__cxa_pure_virtual to i8*), i8* bitcast (void ()* @__cxa_pure_virtual to i8*), i8* bitcast (void ()* @__cxa_pure_virtual to i8*), i8* bitcast (void ()* @__cxa_pure_virtual to i8*), i8* bitcast (void ()* @__cxa_pure_virtual to i8*), i8* bitcast (void ()* @__cxa_pure_virtual to i8*), i8* bitcast (void ()* @__cxa_pure_virtual to i8*), i8* bitcast (void ()* @__cxa_pure_virtual to i8*), i8* bitcast (void ()* @__cxa_pure_virtual to i8*), i8* bitcast (void ()* @__cxa_pure_virtual to i8*), i8* bitcast (void ()* @__cxa_pure_virtual to i8*), i8* bitcast (void ()* @__cxa_pure_virtual to i8*), i8* bitcast (void ()* @__cxa_pure_virtual to i8*), i8* bitcast (void ()* @__cxa_pure_virtual to i8*), i8* bitcast (void ()* @__cxa_pure_virtual to i8*), i8* bitcast (void ()* @__cxa_pure_virtual to i8*), i8* bitcast (void ()* @__cxa_pure_virtual to i8*), i8* bitcast (void ()* @__cxa_pure_virtual to i8*), i8* bitcast (void ()* @__cxa_pure_virtual to i8*), i8* bitcast (void ()* @__cxa_pure_virtual to i8*), i8* bitcast (void ()* @__cxa_pure_virtual to i8*), i8* bitcast (void ()* @__cxa_pure_virtual to i8*), i8* bitcast (void ()* @__cxa_pure_virtual to i8*), i8* bitcast (void ()* @__cxa_pure_virtual to i8*), i8* bitcast (void ()* @__cxa_pure_virtual to i8*), i8* bitcast (void ()* @__cxa_pure_virtual to i8*), i8* bitcast (void ()* @__cxa_pure_virtual to i8*), i8* bitcast (void (%"class.xercesc_2_7::SAX2XMLReader"*, i64)* @_ZN11xercesc_2_713SAX2XMLReader18setInputBufferSizeEm to i8*), i8* bitcast (void ()* @__cxa_pure_virtual to i8*), i8* bitcast (void ()* @__cxa_pure_virtual to i8*)] }, comdat, align 8
@_ZTSN11xercesc_2_713SAX2XMLReaderE = linkonce_odr dso_local constant [31 x i8] c"N11xercesc_2_713SAX2XMLReaderE\00", comdat, align 1
@_ZTIN11xercesc_2_713SAX2XMLReaderE = linkonce_odr dso_local constant { i8*, i8* } { i8* bitcast (i8** getelementptr inbounds (i8*, i8** @_ZTVN10__cxxabiv117__class_type_infoE, i64 2) to i8*), i8* getelementptr inbounds ([31 x i8], [31 x i8]* @_ZTSN11xercesc_2_713SAX2XMLReaderE, i32 0, i32 0) }, comdat, align 8
@_ZTSN11xercesc_2_717SAX2XMLReaderImplE = dso_local constant [35 x i8] c"N11xercesc_2_717SAX2XMLReaderImplE\00", align 1
@_ZTSN11xercesc_2_718XMLDocumentHandlerE = linkonce_odr dso_local constant [36 x i8] c"N11xercesc_2_718XMLDocumentHandlerE\00", comdat, align 1
@_ZTIN11xercesc_2_718XMLDocumentHandlerE = linkonce_odr dso_local constant { i8*, i8* } { i8* bitcast (i8** getelementptr inbounds (i8*, i8** @_ZTVN10__cxxabiv117__class_type_infoE, i64 2) to i8*), i8* getelementptr inbounds ([36 x i8], [36 x i8]* @_ZTSN11xercesc_2_718XMLDocumentHandlerE, i32 0, i32 0) }, comdat, align 8
@_ZTSN11xercesc_2_716XMLErrorReporterE = linkonce_odr dso_local constant [34 x i8] c"N11xercesc_2_716XMLErrorReporterE\00", comdat, align 1
@_ZTIN11xercesc_2_716XMLErrorReporterE = linkonce_odr dso_local constant { i8*, i8* } { i8* bitcast (i8** getelementptr inbounds (i8*, i8** @_ZTVN10__cxxabiv117__class_type_infoE, i64 2) to i8*), i8* getelementptr inbounds ([34 x i8], [34 x i8]* @_ZTSN11xercesc_2_716XMLErrorReporterE, i32 0, i32 0) }, comdat, align 8
@_ZTSN11xercesc_2_716XMLEntityHandlerE = linkonce_odr dso_local constant [34 x i8] c"N11xercesc_2_716XMLEntityHandlerE\00", comdat, align 1
@_ZTIN11xercesc_2_716XMLEntityHandlerE = linkonce_odr dso_local constant { i8*, i8* } { i8* bitcast (i8** getelementptr inbounds (i8*, i8** @_ZTVN10__cxxabiv117__class_type_infoE, i64 2) to i8*), i8* getelementptr inbounds ([34 x i8], [34 x i8]* @_ZTSN11xercesc_2_716XMLEntityHandlerE, i32 0, i32 0) }, comdat, align 8
@_ZTSN11xercesc_2_714DocTypeHandlerE = linkonce_odr dso_local constant [32 x i8] c"N11xercesc_2_714DocTypeHandlerE\00", comdat, align 1
@_ZTIN11xercesc_2_714DocTypeHandlerE = linkonce_odr dso_local constant { i8*, i8* } { i8* bitcast (i8** getelementptr inbounds (i8*, i8** @_ZTVN10__cxxabiv117__class_type_infoE, i64 2) to i8*), i8* getelementptr inbounds ([32 x i8], [32 x i8]* @_ZTSN11xercesc_2_714DocTypeHandlerE, i32 0, i32 0) }, comdat, align 8
@_ZTIN11xercesc_2_717SAX2XMLReaderImplE = dso_local constant { i8*, i8*, i32, i32, i8*, i64, i8*, i64, i8*, i64, i8*, i64, i8*, i64, i8*, i64 } { i8* bitcast (i8** getelementptr inbounds (i8*, i8** @_ZTVN10__cxxabiv121__vmi_class_type_infoE, i64 2) to i8*), i8* getelementptr inbounds ([35 x i8], [35 x i8]* @_ZTSN11xercesc_2_717SAX2XMLReaderImplE, i32 0, i32 0), i32 0, i32 6, i8* bitcast ({ i8*, i8* }* @_ZTIN11xercesc_2_77XMemoryE to i8*), i64 2, i8* bitcast ({ i8*, i8* }* @_ZTIN11xercesc_2_713SAX2XMLReaderE to i8*), i64 2, i8* bitcast ({ i8*, i8* }* @_ZTIN11xercesc_2_718XMLDocumentHandlerE to i8*), i64 2050, i8* bitcast ({ i8*, i8* }* @_ZTIN11xercesc_2_716XMLErrorReporterE to i8*), i64 4098, i8* bitcast ({ i8*, i8* }* @_ZTIN11xercesc_2_716XMLEntityHandlerE to i8*), i64 6146, i8* bitcast ({ i8*, i8* }* @_ZTIN11xercesc_2_714DocTypeHandlerE to i8*), i64 8194 }, align 8
@_ZTVN11xercesc_2_718XMLDocumentHandlerE = linkonce_odr dso_local unnamed_addr constant { [17 x i8*] } { [17 x i8*] [i8* null, i8* bitcast ({ i8*, i8* }* @_ZTIN11xercesc_2_718XMLDocumentHandlerE to i8*), i8* bitcast (void (%"class.xercesc_2_7::XMLDocumentHandler"*)* @_ZN11xercesc_2_718XMLDocumentHandlerD2Ev to i8*), i8* bitcast (void (%"class.xercesc_2_7::XMLDocumentHandler"*)* @_ZN11xercesc_2_718XMLDocumentHandlerD0Ev to i8*), i8* bitcast (void ()* @__cxa_pure_virtual to i8*), i8* bitcast (void ()* @__cxa_pure_virtual to i8*), i8* bitcast (void ()* @__cxa_pure_virtual to i8*), i8* bitcast (void ()* @__cxa_pure_virtual to i8*), i8* bitcast (void ()* @__cxa_pure_virtual to i8*), i8* bitcast (void ()* @__cxa_pure_virtual to i8*), i8* bitcast (void ()* @__cxa_pure_virtual to i8*), i8* bitcast (void ()* @__cxa_pure_virtual to i8*), i8* bitcast (void ()* @__cxa_pure_virtual to i8*), i8* bitcast (void ()* @__cxa_pure_virtual to i8*), i8* bitcast (void ()* @__cxa_pure_virtual to i8*), i8* bitcast (void ()* @__cxa_pure_virtual to i8*), i8* bitcast (void (%"class.xercesc_2_7::XMLDocumentHandler"*, i16*, i16*)* @_ZN11xercesc_2_718XMLDocumentHandler15elementTypeInfoEPKtS2_ to i8*)] }, comdat, align 8
@_ZTVN11xercesc_2_716XMLErrorReporterE = linkonce_odr dso_local unnamed_addr constant { [6 x i8*] } { [6 x i8*] [i8* null, i8* bitcast ({ i8*, i8* }* @_ZTIN11xercesc_2_716XMLErrorReporterE to i8*), i8* bitcast (void (%"class.xercesc_2_7::XMLErrorReporter"*)* @_ZN11xercesc_2_716XMLErrorReporterD2Ev to i8*), i8* bitcast (void (%"class.xercesc_2_7::XMLErrorReporter"*)* @_ZN11xercesc_2_716XMLErrorReporterD0Ev to i8*), i8* bitcast (void ()* @__cxa_pure_virtual to i8*), i8* bitcast (void ()* @__cxa_pure_virtual to i8*)] }, comdat, align 8
@_ZTVN11xercesc_2_716XMLEntityHandlerE = linkonce_odr dso_local unnamed_addr constant { [10 x i8*] } { [10 x i8*] [i8* null, i8* bitcast ({ i8*, i8* }* @_ZTIN11xercesc_2_716XMLEntityHandlerE to i8*), i8* bitcast (void (%"class.xercesc_2_7::XMLEntityHandler"*)* @_ZN11xercesc_2_716XMLEntityHandlerD2Ev to i8*), i8* bitcast (void (%"class.xercesc_2_7::XMLEntityHandler"*)* @_ZN11xercesc_2_716XMLEntityHandlerD0Ev to i8*), i8* bitcast (void ()* @__cxa_pure_virtual to i8*), i8* bitcast (void ()* @__cxa_pure_virtual to i8*), i8* bitcast (void ()* @__cxa_pure_virtual to i8*), i8* bitcast (void ()* @__cxa_pure_virtual to i8*), i8* bitcast (void ()* @__cxa_pure_virtual to i8*), i8* bitcast (void ()* @__cxa_pure_virtual to i8*)] }, comdat, align 8
@_ZTVN11xercesc_2_714DocTypeHandlerE = linkonce_odr dso_local unnamed_addr constant { [20 x i8*] } { [20 x i8*] [i8* null, i8* bitcast ({ i8*, i8* }* @_ZTIN11xercesc_2_714DocTypeHandlerE to i8*), i8* bitcast (void (%"class.xercesc_2_7::DocTypeHandler"*)* @_ZN11xercesc_2_714DocTypeHandlerD2Ev to i8*), i8* bitcast (void (%"class.xercesc_2_7::DocTypeHandler"*)* @_ZN11xercesc_2_714DocTypeHandlerD0Ev to i8*), i8* bitcast (void ()* @__cxa_pure_virtual to i8*), i8* bitcast (void ()* @__cxa_pure_virtual to i8*), i8* bitcast (void ()* @__cxa_pure_virtual to i8*), i8* bitcast (void ()* @__cxa_pure_virtual to i8*), i8* bitcast (void ()* @__cxa_pure_virtual to i8*), i8* bitcast (void ()* @__cxa_pure_virtual to i8*), i8* bitcast (void ()* @__cxa_pure_virtual to i8*), i8* bitcast (void ()* @__cxa_pure_virtual to i8*), i8* bitcast (void ()* @__cxa_pure_virtual to i8*), i8* bitcast (void ()* @__cxa_pure_virtual to i8*), i8* bitcast (void ()* @__cxa_pure_virtual to i8*), i8* bitcast (void ()* @__cxa_pure_virtual to i8*), i8* bitcast (void ()* @__cxa_pure_virtual to i8*), i8* bitcast (void ()* @__cxa_pure_virtual to i8*), i8* bitcast (void ()* @__cxa_pure_virtual to i8*), i8* bitcast (void ()* @__cxa_pure_virtual to i8*)] }, comdat, align 8
@_ZTVN11xercesc_2_711IOExceptionE = linkonce_odr dso_local unnamed_addr constant { [6 x i8*] } { [6 x i8*] [i8* null, i8* bitcast ({ i8*, i8*, i8* }* @_ZTIN11xercesc_2_711IOExceptionE to i8*), i8* bitcast (void (%"class.xercesc_2_7::IOException"*)* @_ZN11xercesc_2_711IOExceptionD2Ev to i8*), i8* bitcast (void (%"class.xercesc_2_7::IOException"*)* @_ZN11xercesc_2_711IOExceptionD0Ev to i8*), i8* bitcast (i16* (%"class.xercesc_2_7::IOException"*)* @_ZNK11xercesc_2_711IOException7getTypeEv to i8*), i8* bitcast (%"class.xercesc_2_7::XMLException"* (%"class.xercesc_2_7::IOException"*)* @_ZNK11xercesc_2_711IOException9duplicateEv to i8*)] }, comdat, align 8
@_ZN11xercesc_2_76XMLUni18fgIOException_NameE = external dso_local constant [0 x i16], align 2
@_ZTVN11xercesc_2_712SAXExceptionE = linkonce_odr dso_local unnamed_addr constant { [5 x i8*] } { [5 x i8*] [i8* null, i8* bitcast ({ i8*, i8*, i8* }* @_ZTIN11xercesc_2_712SAXExceptionE to i8*), i8* bitcast (void (%"class.xercesc_2_7::SAXException"*)* @_ZN11xercesc_2_712SAXExceptionD2Ev to i8*), i8* bitcast (void (%"class.xercesc_2_7::SAXException"*)* @_ZN11xercesc_2_712SAXExceptionD0Ev to i8*), i8* bitcast (i16* (%"class.xercesc_2_7::SAXException"*)* @_ZNK11xercesc_2_712SAXException10getMessageEv to i8*)] }, comdat, align 8
@_ZTVN11xercesc_2_711RefVectorOfINS_7XMLAttrEEE = linkonce_odr dso_local unnamed_addr constant { [9 x i8*] } { [9 x i8*] [i8* null, i8* bitcast ({ i8*, i8*, i8* }* @_ZTIN11xercesc_2_711RefVectorOfINS_7XMLAttrEEE to i8*), i8* bitcast (void (%"class.xercesc_2_7::RefVectorOf"*)* @_ZN11xercesc_2_711RefVectorOfINS_7XMLAttrEED2Ev to i8*), i8* bitcast (void (%"class.xercesc_2_7::RefVectorOf"*)* @_ZN11xercesc_2_711RefVectorOfINS_7XMLAttrEED0Ev to i8*), i8* bitcast (void (%"class.xercesc_2_7::BaseRefVectorOf"*, %"class.xercesc_2_7::XMLAttr"*, i32)* @_ZN11xercesc_2_715BaseRefVectorOfINS_7XMLAttrEE12setElementAtEPS1_j to i8*), i8* bitcast (void (%"class.xercesc_2_7::BaseRefVectorOf"*)* @_ZN11xercesc_2_715BaseRefVectorOfINS_7XMLAttrEE17removeAllElementsEv to i8*), i8* bitcast (void (%"class.xercesc_2_7::BaseRefVectorOf"*, i32)* @_ZN11xercesc_2_715BaseRefVectorOfINS_7XMLAttrEE15removeElementAtEj to i8*), i8* bitcast (void (%"class.xercesc_2_7::BaseRefVectorOf"*)* @_ZN11xercesc_2_715BaseRefVectorOfINS_7XMLAttrEE17removeLastElementEv to i8*), i8* bitcast (void (%"class.xercesc_2_7::BaseRefVectorOf"*)* @_ZN11xercesc_2_715BaseRefVectorOfINS_7XMLAttrEE7cleanupEv to i8*)] }, comdat, align 8
@_ZTSN11xercesc_2_711RefVectorOfINS_7XMLAttrEEE = linkonce_odr dso_local constant [43 x i8] c"N11xercesc_2_711RefVectorOfINS_7XMLAttrEEE\00", comdat, align 1
@_ZTSN11xercesc_2_715BaseRefVectorOfINS_7XMLAttrEEE = linkonce_odr dso_local constant [47 x i8] c"N11xercesc_2_715BaseRefVectorOfINS_7XMLAttrEEE\00", comdat, align 1
@_ZTIN11xercesc_2_715BaseRefVectorOfINS_7XMLAttrEEE = linkonce_odr dso_local constant { i8*, i8*, i8* } { i8* bitcast (i8** getelementptr inbounds (i8*, i8** @_ZTVN10__cxxabiv120__si_class_type_infoE, i64 2) to i8*), i8* getelementptr inbounds ([47 x i8], [47 x i8]* @_ZTSN11xercesc_2_715BaseRefVectorOfINS_7XMLAttrEEE, i32 0, i32 0), i8* bitcast ({ i8*, i8* }* @_ZTIN11xercesc_2_77XMemoryE to i8*) }, comdat, align 8
@_ZTIN11xercesc_2_711RefVectorOfINS_7XMLAttrEEE = linkonce_odr dso_local constant { i8*, i8*, i8* } { i8* bitcast (i8** getelementptr inbounds (i8*, i8** @_ZTVN10__cxxabiv120__si_class_type_infoE, i64 2) to i8*), i8* getelementptr inbounds ([43 x i8], [43 x i8]* @_ZTSN11xercesc_2_711RefVectorOfINS_7XMLAttrEEE, i32 0, i32 0), i8* bitcast ({ i8*, i8*, i8* }* @_ZTIN11xercesc_2_715BaseRefVectorOfINS_7XMLAttrEEE to i8*) }, comdat, align 8
@_ZTVN11xercesc_2_715BaseRefVectorOfINS_7XMLAttrEEE = linkonce_odr dso_local unnamed_addr constant { [9 x i8*] } { [9 x i8*] [i8* null, i8* bitcast ({ i8*, i8*, i8* }* @_ZTIN11xercesc_2_715BaseRefVectorOfINS_7XMLAttrEEE to i8*), i8* bitcast (void (%"class.xercesc_2_7::BaseRefVectorOf"*)* @_ZN11xercesc_2_715BaseRefVectorOfINS_7XMLAttrEED2Ev to i8*), i8* bitcast (void (%"class.xercesc_2_7::BaseRefVectorOf"*)* @_ZN11xercesc_2_715BaseRefVectorOfINS_7XMLAttrEED0Ev to i8*), i8* bitcast (void (%"class.xercesc_2_7::BaseRefVectorOf"*, %"class.xercesc_2_7::XMLAttr"*, i32)* @_ZN11xercesc_2_715BaseRefVectorOfINS_7XMLAttrEE12setElementAtEPS1_j to i8*), i8* bitcast (void (%"class.xercesc_2_7::BaseRefVectorOf"*)* @_ZN11xercesc_2_715BaseRefVectorOfINS_7XMLAttrEE17removeAllElementsEv to i8*), i8* bitcast (void (%"class.xercesc_2_7::BaseRefVectorOf"*, i32)* @_ZN11xercesc_2_715BaseRefVectorOfINS_7XMLAttrEE15removeElementAtEj to i8*), i8* bitcast (void (%"class.xercesc_2_7::BaseRefVectorOf"*)* @_ZN11xercesc_2_715BaseRefVectorOfINS_7XMLAttrEE17removeLastElementEv to i8*), i8* bitcast (void (%"class.xercesc_2_7::BaseRefVectorOf"*)* @_ZN11xercesc_2_715BaseRefVectorOfINS_7XMLAttrEE7cleanupEv to i8*)] }, comdat, align 8
@.str.5 = private unnamed_addr constant [33 x i8] c"./xercesc/util/BaseRefVectorOf.c\00", align 1
@_ZTSN11xercesc_2_730ArrayIndexOutOfBoundsExceptionE = linkonce_odr dso_local constant [48 x i8] c"N11xercesc_2_730ArrayIndexOutOfBoundsExceptionE\00", comdat, align 1
@_ZTIN11xercesc_2_730ArrayIndexOutOfBoundsExceptionE = linkonce_odr dso_local constant { i8*, i8*, i8* } { i8* bitcast (i8** getelementptr inbounds (i8*, i8** @_ZTVN10__cxxabiv120__si_class_type_infoE, i64 2) to i8*), i8* getelementptr inbounds ([48 x i8], [48 x i8]* @_ZTSN11xercesc_2_730ArrayIndexOutOfBoundsExceptionE, i32 0, i32 0), i8* bitcast (i8** @_ZTIN11xercesc_2_712XMLExceptionE to i8*) }, comdat, align 8
@_ZTVN11xercesc_2_730ArrayIndexOutOfBoundsExceptionE = linkonce_odr dso_local unnamed_addr constant { [6 x i8*] } { [6 x i8*] [i8* null, i8* bitcast ({ i8*, i8*, i8* }* @_ZTIN11xercesc_2_730ArrayIndexOutOfBoundsExceptionE to i8*), i8* bitcast (void (%"class.xercesc_2_7::ArrayIndexOutOfBoundsException"*)* @_ZN11xercesc_2_730ArrayIndexOutOfBoundsExceptionD2Ev to i8*), i8* bitcast (void (%"class.xercesc_2_7::ArrayIndexOutOfBoundsException"*)* @_ZN11xercesc_2_730ArrayIndexOutOfBoundsExceptionD0Ev to i8*), i8* bitcast (i16* (%"class.xercesc_2_7::ArrayIndexOutOfBoundsException"*)* @_ZNK11xercesc_2_730ArrayIndexOutOfBoundsException7getTypeEv to i8*), i8* bitcast (%"class.xercesc_2_7::XMLException"* (%"class.xercesc_2_7::ArrayIndexOutOfBoundsException"*)* @_ZNK11xercesc_2_730ArrayIndexOutOfBoundsException9duplicateEv to i8*)] }, comdat, align 8
@_ZN11xercesc_2_76XMLUni37fgArrayIndexOutOfBoundsException_NameE = external dso_local constant [0 x i16], align 2
@.str.6 = private unnamed_addr constant [30 x i8] c"./xercesc/util/ValueStackOf.c\00", align 1
@_ZTSN11xercesc_2_719EmptyStackExceptionE = linkonce_odr dso_local constant [37 x i8] c"N11xercesc_2_719EmptyStackExceptionE\00", comdat, align 1
@_ZTIN11xercesc_2_719EmptyStackExceptionE = linkonce_odr dso_local constant { i8*, i8*, i8* } { i8* bitcast (i8** getelementptr inbounds (i8*, i8** @_ZTVN10__cxxabiv120__si_class_type_infoE, i64 2) to i8*), i8* getelementptr inbounds ([37 x i8], [37 x i8]* @_ZTSN11xercesc_2_719EmptyStackExceptionE, i32 0, i32 0), i8* bitcast (i8** @_ZTIN11xercesc_2_712XMLExceptionE to i8*) }, comdat, align 8
@_ZTVN11xercesc_2_719EmptyStackExceptionE = linkonce_odr dso_local unnamed_addr constant { [6 x i8*] } { [6 x i8*] [i8* null, i8* bitcast ({ i8*, i8*, i8* }* @_ZTIN11xercesc_2_719EmptyStackExceptionE to i8*), i8* bitcast (void (%"class.xercesc_2_7::EmptyStackException"*)* @_ZN11xercesc_2_719EmptyStackExceptionD2Ev to i8*), i8* bitcast (void (%"class.xercesc_2_7::EmptyStackException"*)* @_ZN11xercesc_2_719EmptyStackExceptionD0Ev to i8*), i8* bitcast (i16* (%"class.xercesc_2_7::EmptyStackException"*)* @_ZNK11xercesc_2_719EmptyStackException7getTypeEv to i8*), i8* bitcast (%"class.xercesc_2_7::XMLException"* (%"class.xercesc_2_7::EmptyStackException"*)* @_ZNK11xercesc_2_719EmptyStackException9duplicateEv to i8*)] }, comdat, align 8
@_ZN11xercesc_2_76XMLUni26fgEmptyStackException_NameE = external dso_local constant [0 x i16], align 2
@.str.7 = private unnamed_addr constant [31 x i8] c"./xercesc/util/ValueVectorOf.c\00", align 1

@_ZN11xercesc_2_717SAX2XMLReaderImplC1EPNS_13MemoryManagerEPNS_14XMLGrammarPoolE = dso_local unnamed_addr alias void (%"class.xercesc_2_7::SAX2XMLReaderImpl"*, %"class.xercesc_2_7::MemoryManager"*, %"class.xercesc_2_7::XMLGrammarPool"*), void (%"class.xercesc_2_7::SAX2XMLReaderImpl"*, %"class.xercesc_2_7::MemoryManager"*, %"class.xercesc_2_7::XMLGrammarPool"*)* @_ZN11xercesc_2_717SAX2XMLReaderImplC2EPNS_13MemoryManagerEPNS_14XMLGrammarPoolE
@_ZN11xercesc_2_717SAX2XMLReaderImplD1Ev = dso_local unnamed_addr alias void (%"class.xercesc_2_7::SAX2XMLReaderImpl"*), void (%"class.xercesc_2_7::SAX2XMLReaderImpl"*)* @_ZN11xercesc_2_717SAX2XMLReaderImplD2Ev

; Function Attrs: nounwind readnone speculatable willreturn
declare void @llvm.dbg.declare(metadata, metadata, metadata) #0

; Function Attrs: noinline nounwind uwtable
define linkonce_odr dso_local void @_ZN11xercesc_2_710XMLDeleterD0Ev(%"class.xercesc_2_7::XMLDeleter"* %this) unnamed_addr #1 comdat align 2 !dbg !1451 {
entry:
  %this.addr = alloca %"class.xercesc_2_7::XMLDeleter"*, align 8
  store %"class.xercesc_2_7::XMLDeleter"* %this, %"class.xercesc_2_7::XMLDeleter"** %this.addr, align 8
  call void @llvm.dbg.declare(metadata %"class.xercesc_2_7::XMLDeleter"** %this.addr, metadata !1471, metadata !DIExpression()), !dbg !1473
  %this1 = load %"class.xercesc_2_7::XMLDeleter"*, %"class.xercesc_2_7::XMLDeleter"** %this.addr, align 8
  call void @_ZN11xercesc_2_710XMLDeleterD2Ev(%"class.xercesc_2_7::XMLDeleter"* %this1) #10, !dbg !1474
  %0 = bitcast %"class.xercesc_2_7::XMLDeleter"* %this1 to i8*, !dbg !1474
  call void @_ZdlPv(i8* %0) #11, !dbg !1474
  ret void, !dbg !1475
}

; Function Attrs: noinline nounwind uwtable
define linkonce_odr dso_local void @_ZN11xercesc_2_710XMLDeleterD2Ev(%"class.xercesc_2_7::XMLDeleter"* %this) unnamed_addr #1 comdat align 2 !dbg !1476 {
entry:
  %this.addr = alloca %"class.xercesc_2_7::XMLDeleter"*, align 8
  store %"class.xercesc_2_7::XMLDeleter"* %this, %"class.xercesc_2_7::XMLDeleter"** %this.addr, align 8
  call void @llvm.dbg.declare(metadata %"class.xercesc_2_7::XMLDeleter"** %this.addr, metadata !1477, metadata !DIExpression()), !dbg !1478
  %this1 = load %"class.xercesc_2_7::XMLDeleter"*, %"class.xercesc_2_7::XMLDeleter"** %this.addr, align 8
  ret void, !dbg !1479
}

; Function Attrs: nobuiltin nounwind
declare dso_local void @_ZdlPv(i8*) #2

declare dso_local i32 @__gxx_personality_v0(...)

; Function Attrs: noinline nounwind uwtable
define linkonce_odr dso_local void @_ZN11xercesc_2_713XSerializableD2Ev(%"class.xercesc_2_7::XSerializable"* %this) unnamed_addr #1 comdat align 2 !dbg !1480 {
entry:
  %this.addr = alloca %"class.xercesc_2_7::XSerializable"*, align 8
  store %"class.xercesc_2_7::XSerializable"* %this, %"class.xercesc_2_7::XSerializable"** %this.addr, align 8
  call void @llvm.dbg.declare(metadata %"class.xercesc_2_7::XSerializable"** %this.addr, metadata !1487, metadata !DIExpression()), !dbg !1489
  %this1 = load %"class.xercesc_2_7::XSerializable"*, %"class.xercesc_2_7::XSerializable"** %this.addr, align 8
  ret void, !dbg !1490
}

; Function Attrs: noinline noreturn nounwind
define linkonce_odr hidden void @__clang_call_terminate(i8* %0) #3 comdat {
  %2 = call i8* @__cxa_begin_catch(i8* %0) #10
  call void @_ZSt9terminatev() #12
  unreachable
}

declare dso_local i8* @__cxa_begin_catch(i8*)

declare dso_local void @_ZSt9terminatev()

; Function Attrs: noinline nounwind uwtable
define linkonce_odr dso_local void @_ZN11xercesc_2_710XMLRefInfoD0Ev(%"class.xercesc_2_7::XMLRefInfo"* %this) unnamed_addr #1 comdat align 2 !dbg !1491 {
entry:
  %this.addr = alloca %"class.xercesc_2_7::XMLRefInfo"*, align 8
  store %"class.xercesc_2_7::XMLRefInfo"* %this, %"class.xercesc_2_7::XMLRefInfo"** %this.addr, align 8
  call void @llvm.dbg.declare(metadata %"class.xercesc_2_7::XMLRefInfo"** %this.addr, metadata !1828, metadata !DIExpression()), !dbg !1830
  %this1 = load %"class.xercesc_2_7::XMLRefInfo"*, %"class.xercesc_2_7::XMLRefInfo"** %this.addr, align 8
  call void @_ZN11xercesc_2_710XMLRefInfoD2Ev(%"class.xercesc_2_7::XMLRefInfo"* %this1) #10, !dbg !1831
  %0 = bitcast %"class.xercesc_2_7::XMLRefInfo"* %this1 to i8*, !dbg !1831
  call void @_ZN11xercesc_2_77XMemorydlEPv(i8* %0) #10, !dbg !1831
  ret void, !dbg !1832
}

; Function Attrs: noinline nounwind uwtable
define linkonce_odr dso_local void @_ZN11xercesc_2_710XMLRefInfoD2Ev(%"class.xercesc_2_7::XMLRefInfo"* %this) unnamed_addr #1 comdat align 2 personality i8* bitcast (i32 (...)* @__gxx_personality_v0 to i8*) !dbg !1833 {
entry:
  %this.addr = alloca %"class.xercesc_2_7::XMLRefInfo"*, align 8
  %exn.slot = alloca i8*
  %ehselector.slot = alloca i32
  store %"class.xercesc_2_7::XMLRefInfo"* %this, %"class.xercesc_2_7::XMLRefInfo"** %this.addr, align 8
  call void @llvm.dbg.declare(metadata %"class.xercesc_2_7::XMLRefInfo"** %this.addr, metadata !1834, metadata !DIExpression()), !dbg !1835
  %this1 = load %"class.xercesc_2_7::XMLRefInfo"*, %"class.xercesc_2_7::XMLRefInfo"** %this.addr, align 8
  %0 = bitcast %"class.xercesc_2_7::XMLRefInfo"* %this1 to i32 (...)***, !dbg !1836
  store i32 (...)** bitcast (i8** getelementptr inbounds ({ [7 x i8*] }, { [7 x i8*] }* @_ZTVN11xercesc_2_710XMLRefInfoE, i32 0, inrange i32 0, i32 2) to i32 (...)**), i32 (...)*** %0, align 8, !dbg !1836
  %fMemoryManager = getelementptr inbounds %"class.xercesc_2_7::XMLRefInfo", %"class.xercesc_2_7::XMLRefInfo"* %this1, i32 0, i32 4, !dbg !1837
  %1 = load %"class.xercesc_2_7::MemoryManager"*, %"class.xercesc_2_7::MemoryManager"** %fMemoryManager, align 8, !dbg !1837
  %fRefName = getelementptr inbounds %"class.xercesc_2_7::XMLRefInfo", %"class.xercesc_2_7::XMLRefInfo"* %this1, i32 0, i32 3, !dbg !1839
  %2 = load i16*, i16** %fRefName, align 8, !dbg !1839
  %3 = bitcast i16* %2 to i8*, !dbg !1839
  %4 = bitcast %"class.xercesc_2_7::MemoryManager"* %1 to void (%"class.xercesc_2_7::MemoryManager"*, i8*)***, !dbg !1840
  %vtable = load void (%"class.xercesc_2_7::MemoryManager"*, i8*)**, void (%"class.xercesc_2_7::MemoryManager"*, i8*)*** %4, align 8, !dbg !1840
  %vfn = getelementptr inbounds void (%"class.xercesc_2_7::MemoryManager"*, i8*)*, void (%"class.xercesc_2_7::MemoryManager"*, i8*)** %vtable, i64 3, !dbg !1840
  %5 = load void (%"class.xercesc_2_7::MemoryManager"*, i8*)*, void (%"class.xercesc_2_7::MemoryManager"*, i8*)** %vfn, align 8, !dbg !1840
  invoke void %5(%"class.xercesc_2_7::MemoryManager"* %1, i8* %3)
          to label %invoke.cont unwind label %lpad, !dbg !1840

invoke.cont:                                      ; preds = %entry
  %6 = bitcast %"class.xercesc_2_7::XMLRefInfo"* %this1 to %"class.xercesc_2_7::XSerializable"*, !dbg !1841
  call void @_ZN11xercesc_2_713XSerializableD2Ev(%"class.xercesc_2_7::XSerializable"* %6) #10, !dbg !1841
  ret void, !dbg !1842

lpad:                                             ; preds = %entry
  %7 = landingpad { i8*, i32 }
          catch i8* null, !dbg !1841
  %8 = extractvalue { i8*, i32 } %7, 0, !dbg !1841
  store i8* %8, i8** %exn.slot, align 8, !dbg !1841
  %9 = extractvalue { i8*, i32 } %7, 1, !dbg !1841
  store i32 %9, i32* %ehselector.slot, align 4, !dbg !1841
  %10 = bitcast %"class.xercesc_2_7::XMLRefInfo"* %this1 to %"class.xercesc_2_7::XSerializable"*, !dbg !1841
  call void @_ZN11xercesc_2_713XSerializableD2Ev(%"class.xercesc_2_7::XSerializable"* %10) #10, !dbg !1841
  br label %terminate.handler, !dbg !1841

terminate.handler:                                ; preds = %lpad
  %exn = load i8*, i8** %exn.slot, align 8, !dbg !1841
  call void @__clang_call_terminate(i8* %exn) #12, !dbg !1841
  unreachable, !dbg !1841
}

; Function Attrs: nounwind
declare dso_local void @_ZN11xercesc_2_77XMemorydlEPv(i8*) #4

; Function Attrs: nounwind
declare dso_local void @_ZN11xercesc_2_713XMLEntityDeclD2Ev(%"class.xercesc_2_7::XMLEntityDecl"*) unnamed_addr #4

; Function Attrs: noinline nounwind uwtable
define linkonce_odr dso_local void @_ZN11xercesc_2_713DTDEntityDeclD0Ev(%"class.xercesc_2_7::DTDEntityDecl"* %this) unnamed_addr #1 comdat align 2 !dbg !1843 {
entry:
  %this.addr = alloca %"class.xercesc_2_7::DTDEntityDecl"*, align 8
  store %"class.xercesc_2_7::DTDEntityDecl"* %this, %"class.xercesc_2_7::DTDEntityDecl"** %this.addr, align 8
  call void @llvm.dbg.declare(metadata %"class.xercesc_2_7::DTDEntityDecl"** %this.addr, metadata !1896, metadata !DIExpression()), !dbg !1898
  %this1 = load %"class.xercesc_2_7::DTDEntityDecl"*, %"class.xercesc_2_7::DTDEntityDecl"** %this.addr, align 8
  call void @_ZN11xercesc_2_713DTDEntityDeclD2Ev(%"class.xercesc_2_7::DTDEntityDecl"* %this1) #10, !dbg !1899
  %0 = bitcast %"class.xercesc_2_7::DTDEntityDecl"* %this1 to i8*, !dbg !1899
  call void @_ZN11xercesc_2_77XMemorydlEPv(i8* %0) #10, !dbg !1899
  ret void, !dbg !1900
}

; Function Attrs: noinline nounwind uwtable
define linkonce_odr dso_local void @_ZN11xercesc_2_713DTDEntityDeclD2Ev(%"class.xercesc_2_7::DTDEntityDecl"* %this) unnamed_addr #1 comdat align 2 !dbg !1901 {
entry:
  %this.addr = alloca %"class.xercesc_2_7::DTDEntityDecl"*, align 8
  store %"class.xercesc_2_7::DTDEntityDecl"* %this, %"class.xercesc_2_7::DTDEntityDecl"** %this.addr, align 8
  call void @llvm.dbg.declare(metadata %"class.xercesc_2_7::DTDEntityDecl"** %this.addr, metadata !1902, metadata !DIExpression()), !dbg !1903
  %this1 = load %"class.xercesc_2_7::DTDEntityDecl"*, %"class.xercesc_2_7::DTDEntityDecl"** %this.addr, align 8
  %0 = bitcast %"class.xercesc_2_7::DTDEntityDecl"* %this1 to %"class.xercesc_2_7::XMLEntityDecl"*, !dbg !1904
  call void @_ZN11xercesc_2_713XMLEntityDeclD2Ev(%"class.xercesc_2_7::XMLEntityDecl"* %0) #10, !dbg !1904
  ret void, !dbg !1906
}

; Function Attrs: noinline nounwind uwtable
define linkonce_odr dso_local void @_ZN11xercesc_2_713XMLAttDefListD0Ev(%"class.xercesc_2_7::XMLAttDefList"* %this) unnamed_addr #1 comdat align 2 !dbg !1907 {
entry:
  %this.addr = alloca %"class.xercesc_2_7::XMLAttDefList"*, align 8
  store %"class.xercesc_2_7::XMLAttDefList"* %this, %"class.xercesc_2_7::XMLAttDefList"** %this.addr, align 8
  call void @llvm.dbg.declare(metadata %"class.xercesc_2_7::XMLAttDefList"** %this.addr, metadata !1977, metadata !DIExpression()), !dbg !1979
  %this1 = load %"class.xercesc_2_7::XMLAttDefList"*, %"class.xercesc_2_7::XMLAttDefList"** %this.addr, align 8
  call void @llvm.trap() #12, !dbg !1980
  unreachable, !dbg !1980
}

; Function Attrs: cold noreturn nounwind
declare void @llvm.trap() #5

; Function Attrs: noinline nounwind uwtable
define linkonce_odr dso_local void @_ZN11xercesc_2_713SAX2XMLReader18setInputBufferSizeEm(%"class.xercesc_2_7::SAX2XMLReader"* %this, i64 %0) unnamed_addr #1 comdat align 2 !dbg !1981 {
entry:
  %this.addr = alloca %"class.xercesc_2_7::SAX2XMLReader"*, align 8
  %.addr = alloca i64, align 8
  store %"class.xercesc_2_7::SAX2XMLReader"* %this, %"class.xercesc_2_7::SAX2XMLReader"** %this.addr, align 8
  call void @llvm.dbg.declare(metadata %"class.xercesc_2_7::SAX2XMLReader"** %this.addr, metadata !1982, metadata !DIExpression()), !dbg !1984
  store i64 %0, i64* %.addr, align 8
  call void @llvm.dbg.declare(metadata i64* %.addr, metadata !1985, metadata !DIExpression()), !dbg !1986
  %this1 = load %"class.xercesc_2_7::SAX2XMLReader"*, %"class.xercesc_2_7::SAX2XMLReader"** %this.addr, align 8
  ret void, !dbg !1987
}

; Function Attrs: noinline uwtable
define dso_local void @_ZN11xercesc_2_717SAX2XMLReaderImplC2EPNS_13MemoryManagerEPNS_14XMLGrammarPoolE(%"class.xercesc_2_7::SAX2XMLReaderImpl"* %this, %"class.xercesc_2_7::MemoryManager"* %manager, %"class.xercesc_2_7::XMLGrammarPool"* %gramPool) unnamed_addr #6 align 2 personality i8* bitcast (i32 (...)* @__gxx_personality_v0 to i8*) !dbg !1988 {
entry:
  %this.addr = alloca %"class.xercesc_2_7::SAX2XMLReaderImpl"*, align 8
  %manager.addr = alloca %"class.xercesc_2_7::MemoryManager"*, align 8
  %gramPool.addr = alloca %"class.xercesc_2_7::XMLGrammarPool"*, align 8
  %exn.slot = alloca i8*
  %ehselector.slot = alloca i32
  %cleanup = alloca %"class.xercesc_2_7::JanitorMemFunCall", align 8
  %coerce = alloca { i64, i64 }, align 8
  %0 = alloca %"class.xercesc_2_7::OutOfMemoryException"*, align 8
  store %"class.xercesc_2_7::SAX2XMLReaderImpl"* %this, %"class.xercesc_2_7::SAX2XMLReaderImpl"** %this.addr, align 8
  call void @llvm.dbg.declare(metadata %"class.xercesc_2_7::SAX2XMLReaderImpl"** %this.addr, metadata !2757, metadata !DIExpression()), !dbg !2759
  store %"class.xercesc_2_7::MemoryManager"* %manager, %"class.xercesc_2_7::MemoryManager"** %manager.addr, align 8
  call void @llvm.dbg.declare(metadata %"class.xercesc_2_7::MemoryManager"** %manager.addr, metadata !2760, metadata !DIExpression()), !dbg !2761
  store %"class.xercesc_2_7::XMLGrammarPool"* %gramPool, %"class.xercesc_2_7::XMLGrammarPool"** %gramPool.addr, align 8
  call void @llvm.dbg.declare(metadata %"class.xercesc_2_7::XMLGrammarPool"** %gramPool.addr, metadata !2762, metadata !DIExpression()), !dbg !2763
  %this1 = load %"class.xercesc_2_7::SAX2XMLReaderImpl"*, %"class.xercesc_2_7::SAX2XMLReaderImpl"** %this.addr, align 8
  %1 = bitcast %"class.xercesc_2_7::SAX2XMLReaderImpl"* %this1 to %"class.xercesc_2_7::XMemory"*, !dbg !2764
  call void @_ZN11xercesc_2_77XMemoryC2Ev(%"class.xercesc_2_7::XMemory"* %1), !dbg !2765
  %2 = bitcast %"class.xercesc_2_7::SAX2XMLReaderImpl"* %this1 to %"class.xercesc_2_7::SAX2XMLReader"*, !dbg !2764
  call void @_ZN11xercesc_2_713SAX2XMLReaderC2Ev(%"class.xercesc_2_7::SAX2XMLReader"* %2), !dbg !2765
  %3 = bitcast %"class.xercesc_2_7::SAX2XMLReaderImpl"* %this1 to i8*, !dbg !2764
  %4 = getelementptr inbounds i8, i8* %3, i64 8, !dbg !2764
  %5 = bitcast i8* %4 to %"class.xercesc_2_7::XMLDocumentHandler"*, !dbg !2764
  invoke void @_ZN11xercesc_2_718XMLDocumentHandlerC2Ev(%"class.xercesc_2_7::XMLDocumentHandler"* %5)
          to label %invoke.cont unwind label %lpad, !dbg !2765

invoke.cont:                                      ; preds = %entry
  %6 = bitcast %"class.xercesc_2_7::SAX2XMLReaderImpl"* %this1 to i8*, !dbg !2764
  %7 = getelementptr inbounds i8, i8* %6, i64 16, !dbg !2764
  %8 = bitcast i8* %7 to %"class.xercesc_2_7::XMLErrorReporter"*, !dbg !2764
  invoke void @_ZN11xercesc_2_716XMLErrorReporterC2Ev(%"class.xercesc_2_7::XMLErrorReporter"* %8)
          to label %invoke.cont3 unwind label %lpad2, !dbg !2765

invoke.cont3:                                     ; preds = %invoke.cont
  %9 = bitcast %"class.xercesc_2_7::SAX2XMLReaderImpl"* %this1 to i8*, !dbg !2764
  %10 = getelementptr inbounds i8, i8* %9, i64 24, !dbg !2764
  %11 = bitcast i8* %10 to %"class.xercesc_2_7::XMLEntityHandler"*, !dbg !2764
  invoke void @_ZN11xercesc_2_716XMLEntityHandlerC2Ev(%"class.xercesc_2_7::XMLEntityHandler"* %11)
          to label %invoke.cont5 unwind label %lpad4, !dbg !2765

invoke.cont5:                                     ; preds = %invoke.cont3
  %12 = bitcast %"class.xercesc_2_7::SAX2XMLReaderImpl"* %this1 to i8*, !dbg !2764
  %13 = getelementptr inbounds i8, i8* %12, i64 32, !dbg !2764
  %14 = bitcast i8* %13 to %"class.xercesc_2_7::DocTypeHandler"*, !dbg !2764
  invoke void @_ZN11xercesc_2_714DocTypeHandlerC2Ev(%"class.xercesc_2_7::DocTypeHandler"* %14)
          to label %invoke.cont7 unwind label %lpad6, !dbg !2765

invoke.cont7:                                     ; preds = %invoke.cont5
  %15 = bitcast %"class.xercesc_2_7::SAX2XMLReaderImpl"* %this1 to i32 (...)***, !dbg !2764
  store i32 (...)** bitcast (i8** getelementptr inbounds ({ [86 x i8*], [17 x i8*], [6 x i8*], [10 x i8*], [20 x i8*] }, { [86 x i8*], [17 x i8*], [6 x i8*], [10 x i8*], [20 x i8*] }* @_ZTVN11xercesc_2_717SAX2XMLReaderImplE, i32 0, inrange i32 0, i32 2) to i32 (...)**), i32 (...)*** %15, align 8, !dbg !2764
  %16 = bitcast %"class.xercesc_2_7::SAX2XMLReaderImpl"* %this1 to i8*, !dbg !2764
  %add.ptr = getelementptr inbounds i8, i8* %16, i64 8, !dbg !2764
  %17 = bitcast i8* %add.ptr to i32 (...)***, !dbg !2764
  store i32 (...)** bitcast (i8** getelementptr inbounds ({ [86 x i8*], [17 x i8*], [6 x i8*], [10 x i8*], [20 x i8*] }, { [86 x i8*], [17 x i8*], [6 x i8*], [10 x i8*], [20 x i8*] }* @_ZTVN11xercesc_2_717SAX2XMLReaderImplE, i32 0, inrange i32 1, i32 2) to i32 (...)**), i32 (...)*** %17, align 8, !dbg !2764
  %18 = bitcast %"class.xercesc_2_7::SAX2XMLReaderImpl"* %this1 to i8*, !dbg !2764
  %add.ptr8 = getelementptr inbounds i8, i8* %18, i64 16, !dbg !2764
  %19 = bitcast i8* %add.ptr8 to i32 (...)***, !dbg !2764
  store i32 (...)** bitcast (i8** getelementptr inbounds ({ [86 x i8*], [17 x i8*], [6 x i8*], [10 x i8*], [20 x i8*] }, { [86 x i8*], [17 x i8*], [6 x i8*], [10 x i8*], [20 x i8*] }* @_ZTVN11xercesc_2_717SAX2XMLReaderImplE, i32 0, inrange i32 2, i32 2) to i32 (...)**), i32 (...)*** %19, align 8, !dbg !2764
  %20 = bitcast %"class.xercesc_2_7::SAX2XMLReaderImpl"* %this1 to i8*, !dbg !2764
  %add.ptr9 = getelementptr inbounds i8, i8* %20, i64 24, !dbg !2764
  %21 = bitcast i8* %add.ptr9 to i32 (...)***, !dbg !2764
  store i32 (...)** bitcast (i8** getelementptr inbounds ({ [86 x i8*], [17 x i8*], [6 x i8*], [10 x i8*], [20 x i8*] }, { [86 x i8*], [17 x i8*], [6 x i8*], [10 x i8*], [20 x i8*] }* @_ZTVN11xercesc_2_717SAX2XMLReaderImplE, i32 0, inrange i32 3, i32 2) to i32 (...)**), i32 (...)*** %21, align 8, !dbg !2764
  %22 = bitcast %"class.xercesc_2_7::SAX2XMLReaderImpl"* %this1 to i8*, !dbg !2764
  %add.ptr10 = getelementptr inbounds i8, i8* %22, i64 32, !dbg !2764
  %23 = bitcast i8* %add.ptr10 to i32 (...)***, !dbg !2764
  store i32 (...)** bitcast (i8** getelementptr inbounds ({ [86 x i8*], [17 x i8*], [6 x i8*], [10 x i8*], [20 x i8*] }, { [86 x i8*], [17 x i8*], [6 x i8*], [10 x i8*], [20 x i8*] }* @_ZTVN11xercesc_2_717SAX2XMLReaderImplE, i32 0, inrange i32 4, i32 2) to i32 (...)**), i32 (...)*** %23, align 8, !dbg !2764
  %fNamespacePrefix = getelementptr inbounds %"class.xercesc_2_7::SAX2XMLReaderImpl", %"class.xercesc_2_7::SAX2XMLReaderImpl"* %this1, i32 0, i32 5, !dbg !2766
  store i8 0, i8* %fNamespacePrefix, align 8, !dbg !2766
  %fAutoValidation = getelementptr inbounds %"class.xercesc_2_7::SAX2XMLReaderImpl", %"class.xercesc_2_7::SAX2XMLReaderImpl"* %this1, i32 0, i32 6, !dbg !2767
  store i8 0, i8* %fAutoValidation, align 1, !dbg !2767
  %fValidation = getelementptr inbounds %"class.xercesc_2_7::SAX2XMLReaderImpl", %"class.xercesc_2_7::SAX2XMLReaderImpl"* %this1, i32 0, i32 7, !dbg !2768
  store i8 1, i8* %fValidation, align 2, !dbg !2768
  %fParseInProgress = getelementptr inbounds %"class.xercesc_2_7::SAX2XMLReaderImpl", %"class.xercesc_2_7::SAX2XMLReaderImpl"* %this1, i32 0, i32 8, !dbg !2769
  store i8 0, i8* %fParseInProgress, align 1, !dbg !2769
  %fHasExternalSubset = getelementptr inbounds %"class.xercesc_2_7::SAX2XMLReaderImpl", %"class.xercesc_2_7::SAX2XMLReaderImpl"* %this1, i32 0, i32 9, !dbg !2770
  store i8 0, i8* %fHasExternalSubset, align 4, !dbg !2770
  %fElemDepth = getelementptr inbounds %"class.xercesc_2_7::SAX2XMLReaderImpl", %"class.xercesc_2_7::SAX2XMLReaderImpl"* %this1, i32 0, i32 10, !dbg !2771
  store i32 0, i32* %fElemDepth, align 8, !dbg !2771
  %fAdvDHCount = getelementptr inbounds %"class.xercesc_2_7::SAX2XMLReaderImpl", %"class.xercesc_2_7::SAX2XMLReaderImpl"* %this1, i32 0, i32 11, !dbg !2772
  store i32 0, i32* %fAdvDHCount, align 4, !dbg !2772
  %fAdvDHListSize = getelementptr inbounds %"class.xercesc_2_7::SAX2XMLReaderImpl", %"class.xercesc_2_7::SAX2XMLReaderImpl"* %this1, i32 0, i32 12, !dbg !2773
  store i32 32, i32* %fAdvDHListSize, align 8, !dbg !2773
  %fAttrList = getelementptr inbounds %"class.xercesc_2_7::SAX2XMLReaderImpl", %"class.xercesc_2_7::SAX2XMLReaderImpl"* %this1, i32 0, i32 13, !dbg !2765
  invoke void @_ZN11xercesc_2_717VecAttributesImplC1Ev(%"class.xercesc_2_7::VecAttributesImpl"* %fAttrList)
          to label %invoke.cont12 unwind label %lpad11, !dbg !2765

invoke.cont12:                                    ; preds = %invoke.cont7
  %fDocHandler = getelementptr inbounds %"class.xercesc_2_7::SAX2XMLReaderImpl", %"class.xercesc_2_7::SAX2XMLReaderImpl"* %this1, i32 0, i32 14, !dbg !2774
  store %"class.xercesc_2_7::ContentHandler"* null, %"class.xercesc_2_7::ContentHandler"** %fDocHandler, align 8, !dbg !2774
  %fTempAttrVec = getelementptr inbounds %"class.xercesc_2_7::SAX2XMLReaderImpl", %"class.xercesc_2_7::SAX2XMLReaderImpl"* %this1, i32 0, i32 15, !dbg !2775
  store %"class.xercesc_2_7::RefVectorOf"* null, %"class.xercesc_2_7::RefVectorOf"** %fTempAttrVec, align 8, !dbg !2775
  %fPrefixesStorage = getelementptr inbounds %"class.xercesc_2_7::SAX2XMLReaderImpl", %"class.xercesc_2_7::SAX2XMLReaderImpl"* %this1, i32 0, i32 16, !dbg !2776
  store %"class.xercesc_2_7::XMLStringPool"* null, %"class.xercesc_2_7::XMLStringPool"** %fPrefixesStorage, align 8, !dbg !2776
  %fPrefixes = getelementptr inbounds %"class.xercesc_2_7::SAX2XMLReaderImpl", %"class.xercesc_2_7::SAX2XMLReaderImpl"* %this1, i32 0, i32 17, !dbg !2777
  store %"class.xercesc_2_7::ValueStackOf"* null, %"class.xercesc_2_7::ValueStackOf"** %fPrefixes, align 8, !dbg !2777
  %fPrefixCounts = getelementptr inbounds %"class.xercesc_2_7::SAX2XMLReaderImpl", %"class.xercesc_2_7::SAX2XMLReaderImpl"* %this1, i32 0, i32 18, !dbg !2778
  store %"class.xercesc_2_7::ValueStackOf"* null, %"class.xercesc_2_7::ValueStackOf"** %fPrefixCounts, align 8, !dbg !2778
  %fDTDHandler = getelementptr inbounds %"class.xercesc_2_7::SAX2XMLReaderImpl", %"class.xercesc_2_7::SAX2XMLReaderImpl"* %this1, i32 0, i32 19, !dbg !2779
  store %"class.xercesc_2_7::DTDHandler"* null, %"class.xercesc_2_7::DTDHandler"** %fDTDHandler, align 8, !dbg !2779
  %fEntityResolver = getelementptr inbounds %"class.xercesc_2_7::SAX2XMLReaderImpl", %"class.xercesc_2_7::SAX2XMLReaderImpl"* %this1, i32 0, i32 20, !dbg !2780
  store %"class.xercesc_2_7::EntityResolver"* null, %"class.xercesc_2_7::EntityResolver"** %fEntityResolver, align 8, !dbg !2780
  %fXMLEntityResolver = getelementptr inbounds %"class.xercesc_2_7::SAX2XMLReaderImpl", %"class.xercesc_2_7::SAX2XMLReaderImpl"* %this1, i32 0, i32 21, !dbg !2781
  store %"class.xercesc_2_7::XMLEntityResolver"* null, %"class.xercesc_2_7::XMLEntityResolver"** %fXMLEntityResolver, align 8, !dbg !2781
  %fErrorHandler = getelementptr inbounds %"class.xercesc_2_7::SAX2XMLReaderImpl", %"class.xercesc_2_7::SAX2XMLReaderImpl"* %this1, i32 0, i32 22, !dbg !2782
  store %"class.xercesc_2_7::ErrorHandler"* null, %"class.xercesc_2_7::ErrorHandler"** %fErrorHandler, align 8, !dbg !2782
  %fPSVIHandler = getelementptr inbounds %"class.xercesc_2_7::SAX2XMLReaderImpl", %"class.xercesc_2_7::SAX2XMLReaderImpl"* %this1, i32 0, i32 23, !dbg !2783
  store %"class.xercesc_2_7::PSVIHandler"* null, %"class.xercesc_2_7::PSVIHandler"** %fPSVIHandler, align 8, !dbg !2783
  %fLexicalHandler = getelementptr inbounds %"class.xercesc_2_7::SAX2XMLReaderImpl", %"class.xercesc_2_7::SAX2XMLReaderImpl"* %this1, i32 0, i32 24, !dbg !2784
  store %"class.xercesc_2_7::LexicalHandler"* null, %"class.xercesc_2_7::LexicalHandler"** %fLexicalHandler, align 8, !dbg !2784
  %fDeclHandler = getelementptr inbounds %"class.xercesc_2_7::SAX2XMLReaderImpl", %"class.xercesc_2_7::SAX2XMLReaderImpl"* %this1, i32 0, i32 25, !dbg !2785
  store %"class.xercesc_2_7::DeclHandler"* null, %"class.xercesc_2_7::DeclHandler"** %fDeclHandler, align 8, !dbg !2785
  %fAdvDHList = getelementptr inbounds %"class.xercesc_2_7::SAX2XMLReaderImpl", %"class.xercesc_2_7::SAX2XMLReaderImpl"* %this1, i32 0, i32 26, !dbg !2786
  store %"class.xercesc_2_7::XMLDocumentHandler"** null, %"class.xercesc_2_7::XMLDocumentHandler"*** %fAdvDHList, align 8, !dbg !2786
  %fScanner = getelementptr inbounds %"class.xercesc_2_7::SAX2XMLReaderImpl", %"class.xercesc_2_7::SAX2XMLReaderImpl"* %this1, i32 0, i32 27, !dbg !2787
  store %"class.xercesc_2_7::XMLScanner"* null, %"class.xercesc_2_7::XMLScanner"** %fScanner, align 8, !dbg !2787
  %fGrammarResolver = getelementptr inbounds %"class.xercesc_2_7::SAX2XMLReaderImpl", %"class.xercesc_2_7::SAX2XMLReaderImpl"* %this1, i32 0, i32 28, !dbg !2788
  store %"class.xercesc_2_7::GrammarResolver"* null, %"class.xercesc_2_7::GrammarResolver"** %fGrammarResolver, align 8, !dbg !2788
  %fURIStringPool = getelementptr inbounds %"class.xercesc_2_7::SAX2XMLReaderImpl", %"class.xercesc_2_7::SAX2XMLReaderImpl"* %this1, i32 0, i32 29, !dbg !2789
  store %"class.xercesc_2_7::XMLStringPool"* null, %"class.xercesc_2_7::XMLStringPool"** %fURIStringPool, align 8, !dbg !2789
  %fValidator = getelementptr inbounds %"class.xercesc_2_7::SAX2XMLReaderImpl", %"class.xercesc_2_7::SAX2XMLReaderImpl"* %this1, i32 0, i32 30, !dbg !2790
  store %"class.xercesc_2_7::XMLValidator"* null, %"class.xercesc_2_7::XMLValidator"** %fValidator, align 8, !dbg !2790
  %fMemoryManager = getelementptr inbounds %"class.xercesc_2_7::SAX2XMLReaderImpl", %"class.xercesc_2_7::SAX2XMLReaderImpl"* %this1, i32 0, i32 31, !dbg !2791
  %24 = load %"class.xercesc_2_7::MemoryManager"*, %"class.xercesc_2_7::MemoryManager"** %manager.addr, align 8, !dbg !2792
  store %"class.xercesc_2_7::MemoryManager"* %24, %"class.xercesc_2_7::MemoryManager"** %fMemoryManager, align 8, !dbg !2791
  %fGrammarPool = getelementptr inbounds %"class.xercesc_2_7::SAX2XMLReaderImpl", %"class.xercesc_2_7::SAX2XMLReaderImpl"* %this1, i32 0, i32 32, !dbg !2793
  %25 = load %"class.xercesc_2_7::XMLGrammarPool"*, %"class.xercesc_2_7::XMLGrammarPool"** %gramPool.addr, align 8, !dbg !2794
  store %"class.xercesc_2_7::XMLGrammarPool"* %25, %"class.xercesc_2_7::XMLGrammarPool"** %fGrammarPool, align 8, !dbg !2793
  call void @llvm.dbg.declare(metadata %"class.xercesc_2_7::JanitorMemFunCall"* %cleanup, metadata !2795, metadata !DIExpression()), !dbg !2825
  store { i64, i64 } { i64 ptrtoint (void (%"class.xercesc_2_7::SAX2XMLReaderImpl"*)* @_ZN11xercesc_2_717SAX2XMLReaderImpl7cleanUpEv to i64), i64 0 }, { i64, i64 }* %coerce, align 8, !dbg !2825
  %26 = getelementptr inbounds { i64, i64 }, { i64, i64 }* %coerce, i32 0, i32 0, !dbg !2825
  %27 = load i64, i64* %26, align 8, !dbg !2825
  %28 = getelementptr inbounds { i64, i64 }, { i64, i64 }* %coerce, i32 0, i32 1, !dbg !2825
  %29 = load i64, i64* %28, align 8, !dbg !2825
  invoke void @_ZN11xercesc_2_717JanitorMemFunCallINS_17SAX2XMLReaderImplEEC2EPS1_MS1_FvvE(%"class.xercesc_2_7::JanitorMemFunCall"* %cleanup, %"class.xercesc_2_7::SAX2XMLReaderImpl"* %this1, i64 %27, i64 %29)
          to label %invoke.cont14 unwind label %lpad13, !dbg !2825

invoke.cont14:                                    ; preds = %invoke.cont12
  invoke void @_ZN11xercesc_2_717SAX2XMLReaderImpl10initializeEv(%"class.xercesc_2_7::SAX2XMLReaderImpl"* %this1)
          to label %invoke.cont16 unwind label %lpad15, !dbg !2826

invoke.cont16:                                    ; preds = %invoke.cont14
  br label %try.cont, !dbg !2828

lpad:                                             ; preds = %entry
  %30 = landingpad { i8*, i32 }
          cleanup, !dbg !2829
  %31 = extractvalue { i8*, i32 } %30, 0, !dbg !2829
  store i8* %31, i8** %exn.slot, align 8, !dbg !2829
  %32 = extractvalue { i8*, i32 } %30, 1, !dbg !2829
  store i32 %32, i32* %ehselector.slot, align 4, !dbg !2829
  br label %ehcleanup27, !dbg !2829

lpad2:                                            ; preds = %invoke.cont
  %33 = landingpad { i8*, i32 }
          cleanup, !dbg !2829
  %34 = extractvalue { i8*, i32 } %33, 0, !dbg !2829
  store i8* %34, i8** %exn.slot, align 8, !dbg !2829
  %35 = extractvalue { i8*, i32 } %33, 1, !dbg !2829
  store i32 %35, i32* %ehselector.slot, align 4, !dbg !2829
  br label %ehcleanup26, !dbg !2829

lpad4:                                            ; preds = %invoke.cont3
  %36 = landingpad { i8*, i32 }
          cleanup, !dbg !2829
  %37 = extractvalue { i8*, i32 } %36, 0, !dbg !2829
  store i8* %37, i8** %exn.slot, align 8, !dbg !2829
  %38 = extractvalue { i8*, i32 } %36, 1, !dbg !2829
  store i32 %38, i32* %ehselector.slot, align 4, !dbg !2829
  br label %ehcleanup25, !dbg !2829

lpad6:                                            ; preds = %invoke.cont5
  %39 = landingpad { i8*, i32 }
          cleanup, !dbg !2829
  %40 = extractvalue { i8*, i32 } %39, 0, !dbg !2829
  store i8* %40, i8** %exn.slot, align 8, !dbg !2829
  %41 = extractvalue { i8*, i32 } %39, 1, !dbg !2829
  store i32 %41, i32* %ehselector.slot, align 4, !dbg !2829
  br label %ehcleanup24, !dbg !2829

lpad11:                                           ; preds = %invoke.cont7
  %42 = landingpad { i8*, i32 }
          cleanup, !dbg !2829
  %43 = extractvalue { i8*, i32 } %42, 0, !dbg !2829
  store i8* %43, i8** %exn.slot, align 8, !dbg !2829
  %44 = extractvalue { i8*, i32 } %42, 1, !dbg !2829
  store i32 %44, i32* %ehselector.slot, align 4, !dbg !2829
  br label %ehcleanup23, !dbg !2829

lpad13:                                           ; preds = %invoke.cont12
  %45 = landingpad { i8*, i32 }
          cleanup, !dbg !2830
  %46 = extractvalue { i8*, i32 } %45, 0, !dbg !2830
  store i8* %46, i8** %exn.slot, align 8, !dbg !2830
  %47 = extractvalue { i8*, i32 } %45, 1, !dbg !2830
  store i32 %47, i32* %ehselector.slot, align 4, !dbg !2830
  br label %ehcleanup22, !dbg !2830

lpad15:                                           ; preds = %invoke.cont14
  %48 = landingpad { i8*, i32 }
          cleanup
          catch i8* bitcast ({ i8*, i8*, i8* }* @_ZTIN11xercesc_2_720OutOfMemoryExceptionE to i8*), !dbg !2831
  %49 = extractvalue { i8*, i32 } %48, 0, !dbg !2831
  store i8* %49, i8** %exn.slot, align 8, !dbg !2831
  %50 = extractvalue { i8*, i32 } %48, 1, !dbg !2831
  store i32 %50, i32* %ehselector.slot, align 4, !dbg !2831
  br label %catch.dispatch, !dbg !2831

catch.dispatch:                                   ; preds = %lpad15
  %sel = load i32, i32* %ehselector.slot, align 4, !dbg !2828
  %51 = call i32 @llvm.eh.typeid.for(i8* bitcast ({ i8*, i8*, i8* }* @_ZTIN11xercesc_2_720OutOfMemoryExceptionE to i8*)) #10, !dbg !2828
  %matches = icmp eq i32 %sel, %51, !dbg !2828
  br i1 %matches, label %catch, label %ehcleanup, !dbg !2828

catch:                                            ; preds = %catch.dispatch
  call void @llvm.dbg.declare(metadata %"class.xercesc_2_7::OutOfMemoryException"** %0, metadata !2832, metadata !DIExpression()), !dbg !2865
  %exn = load i8*, i8** %exn.slot, align 8, !dbg !2828
  %52 = call i8* @__cxa_begin_catch(i8* %exn) #10, !dbg !2828
  %exn.byref = bitcast i8* %52 to %"class.xercesc_2_7::OutOfMemoryException"*, !dbg !2828
  store %"class.xercesc_2_7::OutOfMemoryException"* %exn.byref, %"class.xercesc_2_7::OutOfMemoryException"** %0, align 8, !dbg !2828
  invoke void @_ZN11xercesc_2_717JanitorMemFunCallINS_17SAX2XMLReaderImplEE7releaseEv(%"class.xercesc_2_7::JanitorMemFunCall"* %cleanup)
          to label %invoke.cont18 unwind label %lpad17, !dbg !2866

invoke.cont18:                                    ; preds = %catch
  invoke void @__cxa_rethrow() #13
          to label %unreachable unwind label %lpad17, !dbg !2868

lpad17:                                           ; preds = %invoke.cont18, %catch
  %53 = landingpad { i8*, i32 }
          cleanup, !dbg !2869
  %54 = extractvalue { i8*, i32 } %53, 0, !dbg !2869
  store i8* %54, i8** %exn.slot, align 8, !dbg !2869
  %55 = extractvalue { i8*, i32 } %53, 1, !dbg !2869
  store i32 %55, i32* %ehselector.slot, align 4, !dbg !2869
  invoke void @__cxa_end_catch()
          to label %invoke.cont19 unwind label %terminate.lpad, !dbg !2870

invoke.cont19:                                    ; preds = %lpad17
  br label %ehcleanup, !dbg !2870

try.cont:                                         ; preds = %invoke.cont16
  invoke void @_ZN11xercesc_2_717JanitorMemFunCallINS_17SAX2XMLReaderImplEE7releaseEv(%"class.xercesc_2_7::JanitorMemFunCall"* %cleanup)
          to label %invoke.cont21 unwind label %lpad20, !dbg !2871

invoke.cont21:                                    ; preds = %try.cont
  call void @_ZN11xercesc_2_717JanitorMemFunCallINS_17SAX2XMLReaderImplEED2Ev(%"class.xercesc_2_7::JanitorMemFunCall"* %cleanup) #10, !dbg !2829
  ret void, !dbg !2829

lpad20:                                           ; preds = %try.cont
  %56 = landingpad { i8*, i32 }
          cleanup, !dbg !2830
  %57 = extractvalue { i8*, i32 } %56, 0, !dbg !2830
  store i8* %57, i8** %exn.slot, align 8, !dbg !2830
  %58 = extractvalue { i8*, i32 } %56, 1, !dbg !2830
  store i32 %58, i32* %ehselector.slot, align 4, !dbg !2830
  br label %ehcleanup, !dbg !2830

ehcleanup:                                        ; preds = %lpad20, %invoke.cont19, %catch.dispatch
  call void @_ZN11xercesc_2_717JanitorMemFunCallINS_17SAX2XMLReaderImplEED2Ev(%"class.xercesc_2_7::JanitorMemFunCall"* %cleanup) #10, !dbg !2829
  br label %ehcleanup22, !dbg !2829

ehcleanup22:                                      ; preds = %ehcleanup, %lpad13
  call void @_ZN11xercesc_2_717VecAttributesImplD1Ev(%"class.xercesc_2_7::VecAttributesImpl"* %fAttrList) #10, !dbg !2830
  br label %ehcleanup23, !dbg !2830

ehcleanup23:                                      ; preds = %ehcleanup22, %lpad11
  %59 = bitcast %"class.xercesc_2_7::SAX2XMLReaderImpl"* %this1 to i8*, !dbg !2830
  %60 = getelementptr inbounds i8, i8* %59, i64 32, !dbg !2830
  %61 = bitcast i8* %60 to %"class.xercesc_2_7::DocTypeHandler"*, !dbg !2830
  call void @_ZN11xercesc_2_714DocTypeHandlerD2Ev(%"class.xercesc_2_7::DocTypeHandler"* %61) #10, !dbg !2830
  br label %ehcleanup24, !dbg !2830

ehcleanup24:                                      ; preds = %ehcleanup23, %lpad6
  %62 = bitcast %"class.xercesc_2_7::SAX2XMLReaderImpl"* %this1 to i8*, !dbg !2830
  %63 = getelementptr inbounds i8, i8* %62, i64 24, !dbg !2830
  %64 = bitcast i8* %63 to %"class.xercesc_2_7::XMLEntityHandler"*, !dbg !2830
  call void @_ZN11xercesc_2_716XMLEntityHandlerD2Ev(%"class.xercesc_2_7::XMLEntityHandler"* %64) #10, !dbg !2830
  br label %ehcleanup25, !dbg !2830

ehcleanup25:                                      ; preds = %ehcleanup24, %lpad4
  %65 = bitcast %"class.xercesc_2_7::SAX2XMLReaderImpl"* %this1 to i8*, !dbg !2830
  %66 = getelementptr inbounds i8, i8* %65, i64 16, !dbg !2830
  %67 = bitcast i8* %66 to %"class.xercesc_2_7::XMLErrorReporter"*, !dbg !2830
  call void @_ZN11xercesc_2_716XMLErrorReporterD2Ev(%"class.xercesc_2_7::XMLErrorReporter"* %67) #10, !dbg !2830
  br label %ehcleanup26, !dbg !2830

ehcleanup26:                                      ; preds = %ehcleanup25, %lpad2
  %68 = bitcast %"class.xercesc_2_7::SAX2XMLReaderImpl"* %this1 to i8*, !dbg !2830
  %69 = getelementptr inbounds i8, i8* %68, i64 8, !dbg !2830
  %70 = bitcast i8* %69 to %"class.xercesc_2_7::XMLDocumentHandler"*, !dbg !2830
  call void @_ZN11xercesc_2_718XMLDocumentHandlerD2Ev(%"class.xercesc_2_7::XMLDocumentHandler"* %70) #10, !dbg !2830
  br label %ehcleanup27, !dbg !2830

ehcleanup27:                                      ; preds = %ehcleanup26, %lpad
  %71 = bitcast %"class.xercesc_2_7::SAX2XMLReaderImpl"* %this1 to %"class.xercesc_2_7::SAX2XMLReader"*, !dbg !2830
  call void @_ZN11xercesc_2_713SAX2XMLReaderD2Ev(%"class.xercesc_2_7::SAX2XMLReader"* %71) #10, !dbg !2830
  br label %eh.resume, !dbg !2830

eh.resume:                                        ; preds = %ehcleanup27
  %exn28 = load i8*, i8** %exn.slot, align 8, !dbg !2830
  %sel29 = load i32, i32* %ehselector.slot, align 4, !dbg !2830
  %lpad.val = insertvalue { i8*, i32 } undef, i8* %exn28, 0, !dbg !2830
  %lpad.val30 = insertvalue { i8*, i32 } %lpad.val, i32 %sel29, 1, !dbg !2830
  resume { i8*, i32 } %lpad.val30, !dbg !2830

terminate.lpad:                                   ; preds = %lpad17
  %72 = landingpad { i8*, i32 }
          catch i8* null, !dbg !2870
  %73 = extractvalue { i8*, i32 } %72, 0, !dbg !2870
  call void @__clang_call_terminate(i8* %73) #12, !dbg !2870
  unreachable, !dbg !2870

unreachable:                                      ; preds = %invoke.cont18
  unreachable
}

; Function Attrs: noinline nounwind uwtable
define linkonce_odr dso_local void @_ZN11xercesc_2_77XMemoryC2Ev(%"class.xercesc_2_7::XMemory"* %this) unnamed_addr #1 comdat align 2 !dbg !2872 {
entry:
  %this.addr = alloca %"class.xercesc_2_7::XMemory"*, align 8
  store %"class.xercesc_2_7::XMemory"* %this, %"class.xercesc_2_7::XMemory"** %this.addr, align 8
  call void @llvm.dbg.declare(metadata %"class.xercesc_2_7::XMemory"** %this.addr, metadata !2873, metadata !DIExpression()), !dbg !2875
  %this1 = load %"class.xercesc_2_7::XMemory"*, %"class.xercesc_2_7::XMemory"** %this.addr, align 8
  ret void, !dbg !2876
}

; Function Attrs: noinline nounwind uwtable
define linkonce_odr dso_local void @_ZN11xercesc_2_713SAX2XMLReaderC2Ev(%"class.xercesc_2_7::SAX2XMLReader"* %this) unnamed_addr #1 comdat align 2 !dbg !2877 {
entry:
  %this.addr = alloca %"class.xercesc_2_7::SAX2XMLReader"*, align 8
  store %"class.xercesc_2_7::SAX2XMLReader"* %this, %"class.xercesc_2_7::SAX2XMLReader"** %this.addr, align 8
  call void @llvm.dbg.declare(metadata %"class.xercesc_2_7::SAX2XMLReader"** %this.addr, metadata !2878, metadata !DIExpression()), !dbg !2879
  %this1 = load %"class.xercesc_2_7::SAX2XMLReader"*, %"class.xercesc_2_7::SAX2XMLReader"** %this.addr, align 8
  %0 = bitcast %"class.xercesc_2_7::SAX2XMLReader"* %this1 to i32 (...)***, !dbg !2880
  store i32 (...)** bitcast (i8** getelementptr inbounds ({ [46 x i8*] }, { [46 x i8*] }* @_ZTVN11xercesc_2_713SAX2XMLReaderE, i32 0, inrange i32 0, i32 2) to i32 (...)**), i32 (...)*** %0, align 8, !dbg !2880
  ret void, !dbg !2881
}

; Function Attrs: noinline nounwind uwtable
define linkonce_odr dso_local void @_ZN11xercesc_2_718XMLDocumentHandlerC2Ev(%"class.xercesc_2_7::XMLDocumentHandler"* %this) unnamed_addr #1 comdat align 2 !dbg !2882 {
entry:
  %this.addr = alloca %"class.xercesc_2_7::XMLDocumentHandler"*, align 8
  store %"class.xercesc_2_7::XMLDocumentHandler"* %this, %"class.xercesc_2_7::XMLDocumentHandler"** %this.addr, align 8
  call void @llvm.dbg.declare(metadata %"class.xercesc_2_7::XMLDocumentHandler"** %this.addr, metadata !2883, metadata !DIExpression()), !dbg !2884
  %this1 = load %"class.xercesc_2_7::XMLDocumentHandler"*, %"class.xercesc_2_7::XMLDocumentHandler"** %this.addr, align 8
  %0 = bitcast %"class.xercesc_2_7::XMLDocumentHandler"* %this1 to i32 (...)***, !dbg !2885
  store i32 (...)** bitcast (i8** getelementptr inbounds ({ [17 x i8*] }, { [17 x i8*] }* @_ZTVN11xercesc_2_718XMLDocumentHandlerE, i32 0, inrange i32 0, i32 2) to i32 (...)**), i32 (...)*** %0, align 8, !dbg !2885
  ret void, !dbg !2886
}

; Function Attrs: noinline nounwind uwtable
define linkonce_odr dso_local void @_ZN11xercesc_2_716XMLErrorReporterC2Ev(%"class.xercesc_2_7::XMLErrorReporter"* %this) unnamed_addr #1 comdat align 2 !dbg !2887 {
entry:
  %this.addr = alloca %"class.xercesc_2_7::XMLErrorReporter"*, align 8
  store %"class.xercesc_2_7::XMLErrorReporter"* %this, %"class.xercesc_2_7::XMLErrorReporter"** %this.addr, align 8
  call void @llvm.dbg.declare(metadata %"class.xercesc_2_7::XMLErrorReporter"** %this.addr, metadata !2888, metadata !DIExpression()), !dbg !2890
  %this1 = load %"class.xercesc_2_7::XMLErrorReporter"*, %"class.xercesc_2_7::XMLErrorReporter"** %this.addr, align 8
  %0 = bitcast %"class.xercesc_2_7::XMLErrorReporter"* %this1 to i32 (...)***, !dbg !2891
  store i32 (...)** bitcast (i8** getelementptr inbounds ({ [6 x i8*] }, { [6 x i8*] }* @_ZTVN11xercesc_2_716XMLErrorReporterE, i32 0, inrange i32 0, i32 2) to i32 (...)**), i32 (...)*** %0, align 8, !dbg !2891
  ret void, !dbg !2892
}

; Function Attrs: noinline nounwind uwtable
define linkonce_odr dso_local void @_ZN11xercesc_2_716XMLEntityHandlerC2Ev(%"class.xercesc_2_7::XMLEntityHandler"* %this) unnamed_addr #1 comdat align 2 !dbg !2893 {
entry:
  %this.addr = alloca %"class.xercesc_2_7::XMLEntityHandler"*, align 8
  store %"class.xercesc_2_7::XMLEntityHandler"* %this, %"class.xercesc_2_7::XMLEntityHandler"** %this.addr, align 8
  call void @llvm.dbg.declare(metadata %"class.xercesc_2_7::XMLEntityHandler"** %this.addr, metadata !2894, metadata !DIExpression()), !dbg !2896
  %this1 = load %"class.xercesc_2_7::XMLEntityHandler"*, %"class.xercesc_2_7::XMLEntityHandler"** %this.addr, align 8
  %0 = bitcast %"class.xercesc_2_7::XMLEntityHandler"* %this1 to i32 (...)***, !dbg !2897
  store i32 (...)** bitcast (i8** getelementptr inbounds ({ [10 x i8*] }, { [10 x i8*] }* @_ZTVN11xercesc_2_716XMLEntityHandlerE, i32 0, inrange i32 0, i32 2) to i32 (...)**), i32 (...)*** %0, align 8, !dbg !2897
  ret void, !dbg !2898
}

; Function Attrs: noinline nounwind uwtable
define linkonce_odr dso_local void @_ZN11xercesc_2_714DocTypeHandlerC2Ev(%"class.xercesc_2_7::DocTypeHandler"* %this) unnamed_addr #1 comdat align 2 !dbg !2899 {
entry:
  %this.addr = alloca %"class.xercesc_2_7::DocTypeHandler"*, align 8
  store %"class.xercesc_2_7::DocTypeHandler"* %this, %"class.xercesc_2_7::DocTypeHandler"** %this.addr, align 8
  call void @llvm.dbg.declare(metadata %"class.xercesc_2_7::DocTypeHandler"** %this.addr, metadata !2900, metadata !DIExpression()), !dbg !2902
  %this1 = load %"class.xercesc_2_7::DocTypeHandler"*, %"class.xercesc_2_7::DocTypeHandler"** %this.addr, align 8
  %0 = bitcast %"class.xercesc_2_7::DocTypeHandler"* %this1 to i32 (...)***, !dbg !2903
  store i32 (...)** bitcast (i8** getelementptr inbounds ({ [20 x i8*] }, { [20 x i8*] }* @_ZTVN11xercesc_2_714DocTypeHandlerE, i32 0, inrange i32 0, i32 2) to i32 (...)**), i32 (...)*** %0, align 8, !dbg !2903
  ret void, !dbg !2904
}

declare dso_local void @_ZN11xercesc_2_717VecAttributesImplC1Ev(%"class.xercesc_2_7::VecAttributesImpl"*) unnamed_addr #7

; Function Attrs: noinline uwtable
define dso_local void @_ZN11xercesc_2_717SAX2XMLReaderImpl7cleanUpEv(%"class.xercesc_2_7::SAX2XMLReaderImpl"* %this) #6 align 2 !dbg !2905 {
entry:
  %this.addr = alloca %"class.xercesc_2_7::SAX2XMLReaderImpl"*, align 8
  store %"class.xercesc_2_7::SAX2XMLReaderImpl"* %this, %"class.xercesc_2_7::SAX2XMLReaderImpl"** %this.addr, align 8
  call void @llvm.dbg.declare(metadata %"class.xercesc_2_7::SAX2XMLReaderImpl"** %this.addr, metadata !2906, metadata !DIExpression()), !dbg !2907
  %this1 = load %"class.xercesc_2_7::SAX2XMLReaderImpl"*, %"class.xercesc_2_7::SAX2XMLReaderImpl"** %this.addr, align 8
  %fMemoryManager = getelementptr inbounds %"class.xercesc_2_7::SAX2XMLReaderImpl", %"class.xercesc_2_7::SAX2XMLReaderImpl"* %this1, i32 0, i32 31, !dbg !2908
  %0 = load %"class.xercesc_2_7::MemoryManager"*, %"class.xercesc_2_7::MemoryManager"** %fMemoryManager, align 8, !dbg !2908
  %fAdvDHList = getelementptr inbounds %"class.xercesc_2_7::SAX2XMLReaderImpl", %"class.xercesc_2_7::SAX2XMLReaderImpl"* %this1, i32 0, i32 26, !dbg !2909
  %1 = load %"class.xercesc_2_7::XMLDocumentHandler"**, %"class.xercesc_2_7::XMLDocumentHandler"*** %fAdvDHList, align 8, !dbg !2909
  %2 = bitcast %"class.xercesc_2_7::XMLDocumentHandler"** %1 to i8*, !dbg !2909
  %3 = bitcast %"class.xercesc_2_7::MemoryManager"* %0 to void (%"class.xercesc_2_7::MemoryManager"*, i8*)***, !dbg !2910
  %vtable = load void (%"class.xercesc_2_7::MemoryManager"*, i8*)**, void (%"class.xercesc_2_7::MemoryManager"*, i8*)*** %3, align 8, !dbg !2910
  %vfn = getelementptr inbounds void (%"class.xercesc_2_7::MemoryManager"*, i8*)*, void (%"class.xercesc_2_7::MemoryManager"*, i8*)** %vtable, i64 3, !dbg !2910
  %4 = load void (%"class.xercesc_2_7::MemoryManager"*, i8*)*, void (%"class.xercesc_2_7::MemoryManager"*, i8*)** %vfn, align 8, !dbg !2910
  call void %4(%"class.xercesc_2_7::MemoryManager"* %0, i8* %2), !dbg !2910
  %fScanner = getelementptr inbounds %"class.xercesc_2_7::SAX2XMLReaderImpl", %"class.xercesc_2_7::SAX2XMLReaderImpl"* %this1, i32 0, i32 27, !dbg !2911
  %5 = load %"class.xercesc_2_7::XMLScanner"*, %"class.xercesc_2_7::XMLScanner"** %fScanner, align 8, !dbg !2911
  %isnull = icmp eq %"class.xercesc_2_7::XMLScanner"* %5, null, !dbg !2912
  br i1 %isnull, label %delete.end, label %delete.notnull, !dbg !2912

delete.notnull:                                   ; preds = %entry
  %6 = bitcast %"class.xercesc_2_7::XMLScanner"* %5 to void (%"class.xercesc_2_7::XMLScanner"*)***, !dbg !2912
  %vtable2 = load void (%"class.xercesc_2_7::XMLScanner"*)**, void (%"class.xercesc_2_7::XMLScanner"*)*** %6, align 8, !dbg !2912
  %vfn3 = getelementptr inbounds void (%"class.xercesc_2_7::XMLScanner"*)*, void (%"class.xercesc_2_7::XMLScanner"*)** %vtable2, i64 1, !dbg !2912
  %7 = load void (%"class.xercesc_2_7::XMLScanner"*)*, void (%"class.xercesc_2_7::XMLScanner"*)** %vfn3, align 8, !dbg !2912
  call void %7(%"class.xercesc_2_7::XMLScanner"* %5) #10, !dbg !2912
  br label %delete.end, !dbg !2912

delete.end:                                       ; preds = %delete.notnull, %entry
  %fPrefixesStorage = getelementptr inbounds %"class.xercesc_2_7::SAX2XMLReaderImpl", %"class.xercesc_2_7::SAX2XMLReaderImpl"* %this1, i32 0, i32 16, !dbg !2913
  %8 = load %"class.xercesc_2_7::XMLStringPool"*, %"class.xercesc_2_7::XMLStringPool"** %fPrefixesStorage, align 8, !dbg !2913
  %isnull4 = icmp eq %"class.xercesc_2_7::XMLStringPool"* %8, null, !dbg !2914
  br i1 %isnull4, label %delete.end8, label %delete.notnull5, !dbg !2914

delete.notnull5:                                  ; preds = %delete.end
  %9 = bitcast %"class.xercesc_2_7::XMLStringPool"* %8 to void (%"class.xercesc_2_7::XMLStringPool"*)***, !dbg !2914
  %vtable6 = load void (%"class.xercesc_2_7::XMLStringPool"*)**, void (%"class.xercesc_2_7::XMLStringPool"*)*** %9, align 8, !dbg !2914
  %vfn7 = getelementptr inbounds void (%"class.xercesc_2_7::XMLStringPool"*)*, void (%"class.xercesc_2_7::XMLStringPool"*)** %vtable6, i64 1, !dbg !2914
  %10 = load void (%"class.xercesc_2_7::XMLStringPool"*)*, void (%"class.xercesc_2_7::XMLStringPool"*)** %vfn7, align 8, !dbg !2914
  call void %10(%"class.xercesc_2_7::XMLStringPool"* %8) #10, !dbg !2914
  br label %delete.end8, !dbg !2914

delete.end8:                                      ; preds = %delete.notnull5, %delete.end
  %fPrefixes = getelementptr inbounds %"class.xercesc_2_7::SAX2XMLReaderImpl", %"class.xercesc_2_7::SAX2XMLReaderImpl"* %this1, i32 0, i32 17, !dbg !2915
  %11 = load %"class.xercesc_2_7::ValueStackOf"*, %"class.xercesc_2_7::ValueStackOf"** %fPrefixes, align 8, !dbg !2915
  %isnull9 = icmp eq %"class.xercesc_2_7::ValueStackOf"* %11, null, !dbg !2916
  br i1 %isnull9, label %delete.end11, label %delete.notnull10, !dbg !2916

delete.notnull10:                                 ; preds = %delete.end8
  call void @_ZN11xercesc_2_712ValueStackOfIjED2Ev(%"class.xercesc_2_7::ValueStackOf"* %11) #10, !dbg !2916
  %12 = bitcast %"class.xercesc_2_7::ValueStackOf"* %11 to i8*, !dbg !2916
  call void @_ZN11xercesc_2_77XMemorydlEPv(i8* %12) #10, !dbg !2916
  br label %delete.end11, !dbg !2916

delete.end11:                                     ; preds = %delete.notnull10, %delete.end8
  %fTempAttrVec = getelementptr inbounds %"class.xercesc_2_7::SAX2XMLReaderImpl", %"class.xercesc_2_7::SAX2XMLReaderImpl"* %this1, i32 0, i32 15, !dbg !2917
  %13 = load %"class.xercesc_2_7::RefVectorOf"*, %"class.xercesc_2_7::RefVectorOf"** %fTempAttrVec, align 8, !dbg !2917
  %isnull12 = icmp eq %"class.xercesc_2_7::RefVectorOf"* %13, null, !dbg !2918
  br i1 %isnull12, label %delete.end16, label %delete.notnull13, !dbg !2918

delete.notnull13:                                 ; preds = %delete.end11
  %14 = bitcast %"class.xercesc_2_7::RefVectorOf"* %13 to void (%"class.xercesc_2_7::RefVectorOf"*)***, !dbg !2918
  %vtable14 = load void (%"class.xercesc_2_7::RefVectorOf"*)**, void (%"class.xercesc_2_7::RefVectorOf"*)*** %14, align 8, !dbg !2918
  %vfn15 = getelementptr inbounds void (%"class.xercesc_2_7::RefVectorOf"*)*, void (%"class.xercesc_2_7::RefVectorOf"*)** %vtable14, i64 1, !dbg !2918
  %15 = load void (%"class.xercesc_2_7::RefVectorOf"*)*, void (%"class.xercesc_2_7::RefVectorOf"*)** %vfn15, align 8, !dbg !2918
  call void %15(%"class.xercesc_2_7::RefVectorOf"* %13) #10, !dbg !2918
  br label %delete.end16, !dbg !2918

delete.end16:                                     ; preds = %delete.notnull13, %delete.end11
  %fPrefixCounts = getelementptr inbounds %"class.xercesc_2_7::SAX2XMLReaderImpl", %"class.xercesc_2_7::SAX2XMLReaderImpl"* %this1, i32 0, i32 18, !dbg !2919
  %16 = load %"class.xercesc_2_7::ValueStackOf"*, %"class.xercesc_2_7::ValueStackOf"** %fPrefixCounts, align 8, !dbg !2919
  %isnull17 = icmp eq %"class.xercesc_2_7::ValueStackOf"* %16, null, !dbg !2920
  br i1 %isnull17, label %delete.end19, label %delete.notnull18, !dbg !2920

delete.notnull18:                                 ; preds = %delete.end16
  call void @_ZN11xercesc_2_712ValueStackOfIjED2Ev(%"class.xercesc_2_7::ValueStackOf"* %16) #10, !dbg !2920
  %17 = bitcast %"class.xercesc_2_7::ValueStackOf"* %16 to i8*, !dbg !2920
  call void @_ZN11xercesc_2_77XMemorydlEPv(i8* %17) #10, !dbg !2920
  br label %delete.end19, !dbg !2920

delete.end19:                                     ; preds = %delete.notnull18, %delete.end16
  %fGrammarResolver = getelementptr inbounds %"class.xercesc_2_7::SAX2XMLReaderImpl", %"class.xercesc_2_7::SAX2XMLReaderImpl"* %this1, i32 0, i32 28, !dbg !2921
  %18 = load %"class.xercesc_2_7::GrammarResolver"*, %"class.xercesc_2_7::GrammarResolver"** %fGrammarResolver, align 8, !dbg !2921
  %isnull20 = icmp eq %"class.xercesc_2_7::GrammarResolver"* %18, null, !dbg !2922
  br i1 %isnull20, label %delete.end22, label %delete.notnull21, !dbg !2922

delete.notnull21:                                 ; preds = %delete.end19
  call void @_ZN11xercesc_2_715GrammarResolverD1Ev(%"class.xercesc_2_7::GrammarResolver"* %18) #10, !dbg !2922
  %19 = bitcast %"class.xercesc_2_7::GrammarResolver"* %18 to i8*, !dbg !2922
  call void @_ZN11xercesc_2_77XMemorydlEPv(i8* %19) #10, !dbg !2922
  br label %delete.end22, !dbg !2922

delete.end22:                                     ; preds = %delete.notnull21, %delete.end19
  ret void, !dbg !2923
}

; Function Attrs: noinline nounwind uwtable
define linkonce_odr dso_local void @_ZN11xercesc_2_717JanitorMemFunCallINS_17SAX2XMLReaderImplEEC2EPS1_MS1_FvvE(%"class.xercesc_2_7::JanitorMemFunCall"* %this, %"class.xercesc_2_7::SAX2XMLReaderImpl"* %object, i64 %toCall.coerce0, i64 %toCall.coerce1) unnamed_addr #1 comdat align 2 !dbg !2924 {
entry:
  %toCall = alloca { i64, i64 }, align 8
  %this.addr = alloca %"class.xercesc_2_7::JanitorMemFunCall"*, align 8
  %object.addr = alloca %"class.xercesc_2_7::SAX2XMLReaderImpl"*, align 8
  %toCall.addr = alloca { i64, i64 }, align 8
  %0 = getelementptr inbounds { i64, i64 }, { i64, i64 }* %toCall, i32 0, i32 0
  store i64 %toCall.coerce0, i64* %0, align 8
  %1 = getelementptr inbounds { i64, i64 }, { i64, i64 }* %toCall, i32 0, i32 1
  store i64 %toCall.coerce1, i64* %1, align 8
  %toCall1 = load { i64, i64 }, { i64, i64 }* %toCall, align 8
  store %"class.xercesc_2_7::JanitorMemFunCall"* %this, %"class.xercesc_2_7::JanitorMemFunCall"** %this.addr, align 8
  call void @llvm.dbg.declare(metadata %"class.xercesc_2_7::JanitorMemFunCall"** %this.addr, metadata !2926, metadata !DIExpression()), !dbg !2928
  store %"class.xercesc_2_7::SAX2XMLReaderImpl"* %object, %"class.xercesc_2_7::SAX2XMLReaderImpl"** %object.addr, align 8
  call void @llvm.dbg.declare(metadata %"class.xercesc_2_7::SAX2XMLReaderImpl"** %object.addr, metadata !2929, metadata !DIExpression()), !dbg !2930
  store { i64, i64 } %toCall1, { i64, i64 }* %toCall.addr, align 8
  call void @llvm.dbg.declare(metadata { i64, i64 }* %toCall.addr, metadata !2931, metadata !DIExpression()), !dbg !2932
  %this2 = load %"class.xercesc_2_7::JanitorMemFunCall"*, %"class.xercesc_2_7::JanitorMemFunCall"** %this.addr, align 8
  %fObject = getelementptr inbounds %"class.xercesc_2_7::JanitorMemFunCall", %"class.xercesc_2_7::JanitorMemFunCall"* %this2, i32 0, i32 0, !dbg !2933
  %2 = load %"class.xercesc_2_7::SAX2XMLReaderImpl"*, %"class.xercesc_2_7::SAX2XMLReaderImpl"** %object.addr, align 8, !dbg !2934
  store %"class.xercesc_2_7::SAX2XMLReaderImpl"* %2, %"class.xercesc_2_7::SAX2XMLReaderImpl"** %fObject, align 8, !dbg !2933
  %fToCall = getelementptr inbounds %"class.xercesc_2_7::JanitorMemFunCall", %"class.xercesc_2_7::JanitorMemFunCall"* %this2, i32 0, i32 1, !dbg !2935
  %3 = load { i64, i64 }, { i64, i64 }* %toCall.addr, align 8, !dbg !2936
  store { i64, i64 } %3, { i64, i64 }* %fToCall, align 8, !dbg !2935
  ret void, !dbg !2937
}

; Function Attrs: noinline uwtable
define dso_local void @_ZN11xercesc_2_717SAX2XMLReaderImpl10initializeEv(%"class.xercesc_2_7::SAX2XMLReaderImpl"* %this) #6 align 2 personality i8* bitcast (i32 (...)* @__gxx_personality_v0 to i8*) !dbg !2938 {
entry:
  %this.addr = alloca %"class.xercesc_2_7::SAX2XMLReaderImpl"*, align 8
  %exn.slot = alloca i8*
  %ehselector.slot = alloca i32
  store %"class.xercesc_2_7::SAX2XMLReaderImpl"* %this, %"class.xercesc_2_7::SAX2XMLReaderImpl"** %this.addr, align 8
  call void @llvm.dbg.declare(metadata %"class.xercesc_2_7::SAX2XMLReaderImpl"** %this.addr, metadata !2939, metadata !DIExpression()), !dbg !2940
  %this1 = load %"class.xercesc_2_7::SAX2XMLReaderImpl"*, %"class.xercesc_2_7::SAX2XMLReaderImpl"** %this.addr, align 8
  %fMemoryManager = getelementptr inbounds %"class.xercesc_2_7::SAX2XMLReaderImpl", %"class.xercesc_2_7::SAX2XMLReaderImpl"* %this1, i32 0, i32 31, !dbg !2941
  %0 = load %"class.xercesc_2_7::MemoryManager"*, %"class.xercesc_2_7::MemoryManager"** %fMemoryManager, align 8, !dbg !2941
  %call = call i8* @_ZN11xercesc_2_77XMemorynwEmPNS_13MemoryManagerE(i64 80, %"class.xercesc_2_7::MemoryManager"* %0), !dbg !2942
  %1 = bitcast i8* %call to %"class.xercesc_2_7::GrammarResolver"*, !dbg !2942
  %fGrammarPool = getelementptr inbounds %"class.xercesc_2_7::SAX2XMLReaderImpl", %"class.xercesc_2_7::SAX2XMLReaderImpl"* %this1, i32 0, i32 32, !dbg !2943
  %2 = load %"class.xercesc_2_7::XMLGrammarPool"*, %"class.xercesc_2_7::XMLGrammarPool"** %fGrammarPool, align 8, !dbg !2943
  %fMemoryManager2 = getelementptr inbounds %"class.xercesc_2_7::SAX2XMLReaderImpl", %"class.xercesc_2_7::SAX2XMLReaderImpl"* %this1, i32 0, i32 31, !dbg !2944
  %3 = load %"class.xercesc_2_7::MemoryManager"*, %"class.xercesc_2_7::MemoryManager"** %fMemoryManager2, align 8, !dbg !2944
  invoke void @_ZN11xercesc_2_715GrammarResolverC1EPNS_14XMLGrammarPoolEPNS_13MemoryManagerE(%"class.xercesc_2_7::GrammarResolver"* %1, %"class.xercesc_2_7::XMLGrammarPool"* %2, %"class.xercesc_2_7::MemoryManager"* %3)
          to label %invoke.cont unwind label %lpad, !dbg !2945

invoke.cont:                                      ; preds = %entry
  %fGrammarResolver = getelementptr inbounds %"class.xercesc_2_7::SAX2XMLReaderImpl", %"class.xercesc_2_7::SAX2XMLReaderImpl"* %this1, i32 0, i32 28, !dbg !2946
  store %"class.xercesc_2_7::GrammarResolver"* %1, %"class.xercesc_2_7::GrammarResolver"** %fGrammarResolver, align 8, !dbg !2947
  %fGrammarResolver3 = getelementptr inbounds %"class.xercesc_2_7::SAX2XMLReaderImpl", %"class.xercesc_2_7::SAX2XMLReaderImpl"* %this1, i32 0, i32 28, !dbg !2948
  %4 = load %"class.xercesc_2_7::GrammarResolver"*, %"class.xercesc_2_7::GrammarResolver"** %fGrammarResolver3, align 8, !dbg !2948
  %call4 = call %"class.xercesc_2_7::XMLStringPool"* @_ZN11xercesc_2_715GrammarResolver13getStringPoolEv(%"class.xercesc_2_7::GrammarResolver"* %4), !dbg !2949
  %fURIStringPool = getelementptr inbounds %"class.xercesc_2_7::SAX2XMLReaderImpl", %"class.xercesc_2_7::SAX2XMLReaderImpl"* %this1, i32 0, i32 29, !dbg !2950
  store %"class.xercesc_2_7::XMLStringPool"* %call4, %"class.xercesc_2_7::XMLStringPool"** %fURIStringPool, align 8, !dbg !2951
  %fGrammarResolver5 = getelementptr inbounds %"class.xercesc_2_7::SAX2XMLReaderImpl", %"class.xercesc_2_7::SAX2XMLReaderImpl"* %this1, i32 0, i32 28, !dbg !2952
  %5 = load %"class.xercesc_2_7::GrammarResolver"*, %"class.xercesc_2_7::GrammarResolver"** %fGrammarResolver5, align 8, !dbg !2952
  %fMemoryManager6 = getelementptr inbounds %"class.xercesc_2_7::SAX2XMLReaderImpl", %"class.xercesc_2_7::SAX2XMLReaderImpl"* %this1, i32 0, i32 31, !dbg !2953
  %6 = load %"class.xercesc_2_7::MemoryManager"*, %"class.xercesc_2_7::MemoryManager"** %fMemoryManager6, align 8, !dbg !2953
  %call7 = call %"class.xercesc_2_7::XMLScanner"* @_ZN11xercesc_2_718XMLScannerResolver17getDefaultScannerEPNS_12XMLValidatorEPNS_15GrammarResolverEPNS_13MemoryManagerE(%"class.xercesc_2_7::XMLValidator"* null, %"class.xercesc_2_7::GrammarResolver"* %5, %"class.xercesc_2_7::MemoryManager"* %6), !dbg !2954
  %fScanner = getelementptr inbounds %"class.xercesc_2_7::SAX2XMLReaderImpl", %"class.xercesc_2_7::SAX2XMLReaderImpl"* %this1, i32 0, i32 27, !dbg !2955
  store %"class.xercesc_2_7::XMLScanner"* %call7, %"class.xercesc_2_7::XMLScanner"** %fScanner, align 8, !dbg !2956
  %fScanner8 = getelementptr inbounds %"class.xercesc_2_7::SAX2XMLReaderImpl", %"class.xercesc_2_7::SAX2XMLReaderImpl"* %this1, i32 0, i32 27, !dbg !2957
  %7 = load %"class.xercesc_2_7::XMLScanner"*, %"class.xercesc_2_7::XMLScanner"** %fScanner8, align 8, !dbg !2957
  %fURIStringPool9 = getelementptr inbounds %"class.xercesc_2_7::SAX2XMLReaderImpl", %"class.xercesc_2_7::SAX2XMLReaderImpl"* %this1, i32 0, i32 29, !dbg !2958
  %8 = load %"class.xercesc_2_7::XMLStringPool"*, %"class.xercesc_2_7::XMLStringPool"** %fURIStringPool9, align 8, !dbg !2958
  call void @_ZN11xercesc_2_710XMLScanner16setURIStringPoolEPNS_13XMLStringPoolE(%"class.xercesc_2_7::XMLScanner"* %7, %"class.xercesc_2_7::XMLStringPool"* %8), !dbg !2959
  %fMemoryManager10 = getelementptr inbounds %"class.xercesc_2_7::SAX2XMLReaderImpl", %"class.xercesc_2_7::SAX2XMLReaderImpl"* %this1, i32 0, i32 31, !dbg !2960
  %9 = load %"class.xercesc_2_7::MemoryManager"*, %"class.xercesc_2_7::MemoryManager"** %fMemoryManager10, align 8, !dbg !2960
  %fAdvDHListSize = getelementptr inbounds %"class.xercesc_2_7::SAX2XMLReaderImpl", %"class.xercesc_2_7::SAX2XMLReaderImpl"* %this1, i32 0, i32 12, !dbg !2961
  %10 = load i32, i32* %fAdvDHListSize, align 8, !dbg !2961
  %conv = zext i32 %10 to i64, !dbg !2961
  %mul = mul i64 %conv, 8, !dbg !2962
  %11 = bitcast %"class.xercesc_2_7::MemoryManager"* %9 to i8* (%"class.xercesc_2_7::MemoryManager"*, i64)***, !dbg !2963
  %vtable = load i8* (%"class.xercesc_2_7::MemoryManager"*, i64)**, i8* (%"class.xercesc_2_7::MemoryManager"*, i64)*** %11, align 8, !dbg !2963
  %vfn = getelementptr inbounds i8* (%"class.xercesc_2_7::MemoryManager"*, i64)*, i8* (%"class.xercesc_2_7::MemoryManager"*, i64)** %vtable, i64 2, !dbg !2963
  %12 = load i8* (%"class.xercesc_2_7::MemoryManager"*, i64)*, i8* (%"class.xercesc_2_7::MemoryManager"*, i64)** %vfn, align 8, !dbg !2963
  %call11 = call i8* %12(%"class.xercesc_2_7::MemoryManager"* %9, i64 %mul), !dbg !2963
  %13 = bitcast i8* %call11 to %"class.xercesc_2_7::XMLDocumentHandler"**, !dbg !2964
  %fAdvDHList = getelementptr inbounds %"class.xercesc_2_7::SAX2XMLReaderImpl", %"class.xercesc_2_7::SAX2XMLReaderImpl"* %this1, i32 0, i32 26, !dbg !2965
  store %"class.xercesc_2_7::XMLDocumentHandler"** %13, %"class.xercesc_2_7::XMLDocumentHandler"*** %fAdvDHList, align 8, !dbg !2966
  %fAdvDHList12 = getelementptr inbounds %"class.xercesc_2_7::SAX2XMLReaderImpl", %"class.xercesc_2_7::SAX2XMLReaderImpl"* %this1, i32 0, i32 26, !dbg !2967
  %14 = load %"class.xercesc_2_7::XMLDocumentHandler"**, %"class.xercesc_2_7::XMLDocumentHandler"*** %fAdvDHList12, align 8, !dbg !2967
  %15 = bitcast %"class.xercesc_2_7::XMLDocumentHandler"** %14 to i8*, !dbg !2968
  %fAdvDHListSize13 = getelementptr inbounds %"class.xercesc_2_7::SAX2XMLReaderImpl", %"class.xercesc_2_7::SAX2XMLReaderImpl"* %this1, i32 0, i32 12, !dbg !2969
  %16 = load i32, i32* %fAdvDHListSize13, align 8, !dbg !2969
  %conv14 = zext i32 %16 to i64, !dbg !2969
  %mul15 = mul i64 8, %conv14, !dbg !2970
  call void @llvm.memset.p0i8.i64(i8* align 8 %15, i8 0, i64 %mul15, i1 false), !dbg !2968
  call void @_ZN11xercesc_2_717SAX2XMLReaderImpl15setDoNamespacesEb(%"class.xercesc_2_7::SAX2XMLReaderImpl"* %this1, i1 zeroext true), !dbg !2971
  call void @_ZN11xercesc_2_717SAX2XMLReaderImpl11setDoSchemaEb(%"class.xercesc_2_7::SAX2XMLReaderImpl"* %this1, i1 zeroext true), !dbg !2972
  %fMemoryManager16 = getelementptr inbounds %"class.xercesc_2_7::SAX2XMLReaderImpl", %"class.xercesc_2_7::SAX2XMLReaderImpl"* %this1, i32 0, i32 31, !dbg !2973
  %17 = load %"class.xercesc_2_7::MemoryManager"*, %"class.xercesc_2_7::MemoryManager"** %fMemoryManager16, align 8, !dbg !2973
  %call17 = call i8* @_ZN11xercesc_2_77XMemorynwEmPNS_13MemoryManagerE(i64 40, %"class.xercesc_2_7::MemoryManager"* %17), !dbg !2974
  %18 = bitcast i8* %call17 to %"class.xercesc_2_7::XMLStringPool"*, !dbg !2974
  %fMemoryManager18 = getelementptr inbounds %"class.xercesc_2_7::SAX2XMLReaderImpl", %"class.xercesc_2_7::SAX2XMLReaderImpl"* %this1, i32 0, i32 31, !dbg !2975
  %19 = load %"class.xercesc_2_7::MemoryManager"*, %"class.xercesc_2_7::MemoryManager"** %fMemoryManager18, align 8, !dbg !2975
  invoke void @_ZN11xercesc_2_713XMLStringPoolC1EjPNS_13MemoryManagerE(%"class.xercesc_2_7::XMLStringPool"* %18, i32 109, %"class.xercesc_2_7::MemoryManager"* %19)
          to label %invoke.cont20 unwind label %lpad19, !dbg !2976

invoke.cont20:                                    ; preds = %invoke.cont
  %fPrefixesStorage = getelementptr inbounds %"class.xercesc_2_7::SAX2XMLReaderImpl", %"class.xercesc_2_7::SAX2XMLReaderImpl"* %this1, i32 0, i32 16, !dbg !2977
  store %"class.xercesc_2_7::XMLStringPool"* %18, %"class.xercesc_2_7::XMLStringPool"** %fPrefixesStorage, align 8, !dbg !2978
  %fMemoryManager21 = getelementptr inbounds %"class.xercesc_2_7::SAX2XMLReaderImpl", %"class.xercesc_2_7::SAX2XMLReaderImpl"* %this1, i32 0, i32 31, !dbg !2979
  %20 = load %"class.xercesc_2_7::MemoryManager"*, %"class.xercesc_2_7::MemoryManager"** %fMemoryManager21, align 8, !dbg !2979
  %call22 = call i8* @_ZN11xercesc_2_77XMemorynwEmPNS_13MemoryManagerE(i64 40, %"class.xercesc_2_7::MemoryManager"* %20), !dbg !2980
  %21 = bitcast i8* %call22 to %"class.xercesc_2_7::ValueStackOf"*, !dbg !2980
  %fMemoryManager23 = getelementptr inbounds %"class.xercesc_2_7::SAX2XMLReaderImpl", %"class.xercesc_2_7::SAX2XMLReaderImpl"* %this1, i32 0, i32 31, !dbg !2981
  %22 = load %"class.xercesc_2_7::MemoryManager"*, %"class.xercesc_2_7::MemoryManager"** %fMemoryManager23, align 8, !dbg !2981
  invoke void @_ZN11xercesc_2_712ValueStackOfIjEC2EjPNS_13MemoryManagerEb(%"class.xercesc_2_7::ValueStackOf"* %21, i32 30, %"class.xercesc_2_7::MemoryManager"* %22, i1 zeroext false)
          to label %invoke.cont25 unwind label %lpad24, !dbg !2982

invoke.cont25:                                    ; preds = %invoke.cont20
  %fPrefixes = getelementptr inbounds %"class.xercesc_2_7::SAX2XMLReaderImpl", %"class.xercesc_2_7::SAX2XMLReaderImpl"* %this1, i32 0, i32 17, !dbg !2983
  store %"class.xercesc_2_7::ValueStackOf"* %21, %"class.xercesc_2_7::ValueStackOf"** %fPrefixes, align 8, !dbg !2984
  %fMemoryManager26 = getelementptr inbounds %"class.xercesc_2_7::SAX2XMLReaderImpl", %"class.xercesc_2_7::SAX2XMLReaderImpl"* %this1, i32 0, i32 31, !dbg !2985
  %23 = load %"class.xercesc_2_7::MemoryManager"*, %"class.xercesc_2_7::MemoryManager"** %fMemoryManager26, align 8, !dbg !2985
  %call27 = call i8* @_ZN11xercesc_2_77XMemorynwEmPNS_13MemoryManagerE(i64 40, %"class.xercesc_2_7::MemoryManager"* %23), !dbg !2986
  %24 = bitcast i8* %call27 to %"class.xercesc_2_7::RefVectorOf"*, !dbg !2986
  %fMemoryManager28 = getelementptr inbounds %"class.xercesc_2_7::SAX2XMLReaderImpl", %"class.xercesc_2_7::SAX2XMLReaderImpl"* %this1, i32 0, i32 31, !dbg !2987
  %25 = load %"class.xercesc_2_7::MemoryManager"*, %"class.xercesc_2_7::MemoryManager"** %fMemoryManager28, align 8, !dbg !2987
  invoke void @_ZN11xercesc_2_711RefVectorOfINS_7XMLAttrEEC2EjbPNS_13MemoryManagerE(%"class.xercesc_2_7::RefVectorOf"* %24, i32 10, i1 zeroext false, %"class.xercesc_2_7::MemoryManager"* %25)
          to label %invoke.cont30 unwind label %lpad29, !dbg !2988

invoke.cont30:                                    ; preds = %invoke.cont25
  %fTempAttrVec = getelementptr inbounds %"class.xercesc_2_7::SAX2XMLReaderImpl", %"class.xercesc_2_7::SAX2XMLReaderImpl"* %this1, i32 0, i32 15, !dbg !2989
  store %"class.xercesc_2_7::RefVectorOf"* %24, %"class.xercesc_2_7::RefVectorOf"** %fTempAttrVec, align 8, !dbg !2990
  %fMemoryManager31 = getelementptr inbounds %"class.xercesc_2_7::SAX2XMLReaderImpl", %"class.xercesc_2_7::SAX2XMLReaderImpl"* %this1, i32 0, i32 31, !dbg !2991
  %26 = load %"class.xercesc_2_7::MemoryManager"*, %"class.xercesc_2_7::MemoryManager"** %fMemoryManager31, align 8, !dbg !2991
  %call32 = call i8* @_ZN11xercesc_2_77XMemorynwEmPNS_13MemoryManagerE(i64 40, %"class.xercesc_2_7::MemoryManager"* %26), !dbg !2992
  %27 = bitcast i8* %call32 to %"class.xercesc_2_7::ValueStackOf"*, !dbg !2992
  %fMemoryManager33 = getelementptr inbounds %"class.xercesc_2_7::SAX2XMLReaderImpl", %"class.xercesc_2_7::SAX2XMLReaderImpl"* %this1, i32 0, i32 31, !dbg !2993
  %28 = load %"class.xercesc_2_7::MemoryManager"*, %"class.xercesc_2_7::MemoryManager"** %fMemoryManager33, align 8, !dbg !2993
  invoke void @_ZN11xercesc_2_712ValueStackOfIjEC2EjPNS_13MemoryManagerEb(%"class.xercesc_2_7::ValueStackOf"* %27, i32 10, %"class.xercesc_2_7::MemoryManager"* %28, i1 zeroext false)
          to label %invoke.cont35 unwind label %lpad34, !dbg !2994

invoke.cont35:                                    ; preds = %invoke.cont30
  %fPrefixCounts = getelementptr inbounds %"class.xercesc_2_7::SAX2XMLReaderImpl", %"class.xercesc_2_7::SAX2XMLReaderImpl"* %this1, i32 0, i32 18, !dbg !2995
  store %"class.xercesc_2_7::ValueStackOf"* %27, %"class.xercesc_2_7::ValueStackOf"** %fPrefixCounts, align 8, !dbg !2996
  ret void, !dbg !2997

lpad:                                             ; preds = %entry
  %29 = landingpad { i8*, i32 }
          cleanup, !dbg !2997
  %30 = extractvalue { i8*, i32 } %29, 0, !dbg !2997
  store i8* %30, i8** %exn.slot, align 8, !dbg !2997
  %31 = extractvalue { i8*, i32 } %29, 1, !dbg !2997
  store i32 %31, i32* %ehselector.slot, align 4, !dbg !2997
  call void @_ZN11xercesc_2_77XMemorydlEPvPNS_13MemoryManagerE(i8* %call, %"class.xercesc_2_7::MemoryManager"* %0) #10, !dbg !2942
  br label %eh.resume, !dbg !2942

lpad19:                                           ; preds = %invoke.cont
  %32 = landingpad { i8*, i32 }
          cleanup, !dbg !2997
  %33 = extractvalue { i8*, i32 } %32, 0, !dbg !2997
  store i8* %33, i8** %exn.slot, align 8, !dbg !2997
  %34 = extractvalue { i8*, i32 } %32, 1, !dbg !2997
  store i32 %34, i32* %ehselector.slot, align 4, !dbg !2997
  call void @_ZN11xercesc_2_77XMemorydlEPvPNS_13MemoryManagerE(i8* %call17, %"class.xercesc_2_7::MemoryManager"* %17) #10, !dbg !2974
  br label %eh.resume, !dbg !2974

lpad24:                                           ; preds = %invoke.cont20
  %35 = landingpad { i8*, i32 }
          cleanup, !dbg !2997
  %36 = extractvalue { i8*, i32 } %35, 0, !dbg !2997
  store i8* %36, i8** %exn.slot, align 8, !dbg !2997
  %37 = extractvalue { i8*, i32 } %35, 1, !dbg !2997
  store i32 %37, i32* %ehselector.slot, align 4, !dbg !2997
  call void @_ZN11xercesc_2_77XMemorydlEPvPNS_13MemoryManagerE(i8* %call22, %"class.xercesc_2_7::MemoryManager"* %20) #10, !dbg !2980
  br label %eh.resume, !dbg !2980

lpad29:                                           ; preds = %invoke.cont25
  %38 = landingpad { i8*, i32 }
          cleanup, !dbg !2997
  %39 = extractvalue { i8*, i32 } %38, 0, !dbg !2997
  store i8* %39, i8** %exn.slot, align 8, !dbg !2997
  %40 = extractvalue { i8*, i32 } %38, 1, !dbg !2997
  store i32 %40, i32* %ehselector.slot, align 4, !dbg !2997
  call void @_ZN11xercesc_2_77XMemorydlEPvPNS_13MemoryManagerE(i8* %call27, %"class.xercesc_2_7::MemoryManager"* %23) #10, !dbg !2986
  br label %eh.resume, !dbg !2986

lpad34:                                           ; preds = %invoke.cont30
  %41 = landingpad { i8*, i32 }
          cleanup, !dbg !2997
  %42 = extractvalue { i8*, i32 } %41, 0, !dbg !2997
  store i8* %42, i8** %exn.slot, align 8, !dbg !2997
  %43 = extractvalue { i8*, i32 } %41, 1, !dbg !2997
  store i32 %43, i32* %ehselector.slot, align 4, !dbg !2997
  call void @_ZN11xercesc_2_77XMemorydlEPvPNS_13MemoryManagerE(i8* %call32, %"class.xercesc_2_7::MemoryManager"* %26) #10, !dbg !2992
  br label %eh.resume, !dbg !2992

eh.resume:                                        ; preds = %lpad34, %lpad29, %lpad24, %lpad19, %lpad
  %exn = load i8*, i8** %exn.slot, align 8, !dbg !2942
  %sel = load i32, i32* %ehselector.slot, align 4, !dbg !2942
  %lpad.val = insertvalue { i8*, i32 } undef, i8* %exn, 0, !dbg !2942
  %lpad.val36 = insertvalue { i8*, i32 } %lpad.val, i32 %sel, 1, !dbg !2942
  resume { i8*, i32 } %lpad.val36, !dbg !2942
}

; Function Attrs: nounwind readnone
declare i32 @llvm.eh.typeid.for(i8*) #8

; Function Attrs: noinline nounwind uwtable
define linkonce_odr dso_local void @_ZN11xercesc_2_717JanitorMemFunCallINS_17SAX2XMLReaderImplEE7releaseEv(%"class.xercesc_2_7::JanitorMemFunCall"* %this) #1 comdat align 2 !dbg !2998 {
entry:
  %this.addr = alloca %"class.xercesc_2_7::JanitorMemFunCall"*, align 8
  store %"class.xercesc_2_7::JanitorMemFunCall"* %this, %"class.xercesc_2_7::JanitorMemFunCall"** %this.addr, align 8
  call void @llvm.dbg.declare(metadata %"class.xercesc_2_7::JanitorMemFunCall"** %this.addr, metadata !2999, metadata !DIExpression()), !dbg !3000
  %this1 = load %"class.xercesc_2_7::JanitorMemFunCall"*, %"class.xercesc_2_7::JanitorMemFunCall"** %this.addr, align 8
  %fObject = getelementptr inbounds %"class.xercesc_2_7::JanitorMemFunCall", %"class.xercesc_2_7::JanitorMemFunCall"* %this1, i32 0, i32 0, !dbg !3001
  store %"class.xercesc_2_7::SAX2XMLReaderImpl"* null, %"class.xercesc_2_7::SAX2XMLReaderImpl"** %fObject, align 8, !dbg !3002
  %fToCall = getelementptr inbounds %"class.xercesc_2_7::JanitorMemFunCall", %"class.xercesc_2_7::JanitorMemFunCall"* %this1, i32 0, i32 1, !dbg !3003
  store { i64, i64 } zeroinitializer, { i64, i64 }* %fToCall, align 8, !dbg !3004
  ret void, !dbg !3005
}

declare dso_local void @__cxa_rethrow()

declare dso_local void @__cxa_end_catch()

; Function Attrs: noinline nounwind uwtable
define linkonce_odr dso_local void @_ZN11xercesc_2_717JanitorMemFunCallINS_17SAX2XMLReaderImplEED2Ev(%"class.xercesc_2_7::JanitorMemFunCall"* %this) unnamed_addr #1 comdat align 2 personality i8* bitcast (i32 (...)* @__gxx_personality_v0 to i8*) !dbg !3006 {
entry:
  %this.addr = alloca %"class.xercesc_2_7::JanitorMemFunCall"*, align 8
  store %"class.xercesc_2_7::JanitorMemFunCall"* %this, %"class.xercesc_2_7::JanitorMemFunCall"** %this.addr, align 8
  call void @llvm.dbg.declare(metadata %"class.xercesc_2_7::JanitorMemFunCall"** %this.addr, metadata !3007, metadata !DIExpression()), !dbg !3008
  %this1 = load %"class.xercesc_2_7::JanitorMemFunCall"*, %"class.xercesc_2_7::JanitorMemFunCall"** %this.addr, align 8
  %fObject = getelementptr inbounds %"class.xercesc_2_7::JanitorMemFunCall", %"class.xercesc_2_7::JanitorMemFunCall"* %this1, i32 0, i32 0, !dbg !3009
  %0 = load %"class.xercesc_2_7::SAX2XMLReaderImpl"*, %"class.xercesc_2_7::SAX2XMLReaderImpl"** %fObject, align 8, !dbg !3009
  %cmp = icmp ne %"class.xercesc_2_7::SAX2XMLReaderImpl"* %0, null, !dbg !3012
  br i1 %cmp, label %land.lhs.true, label %if.end, !dbg !3013

land.lhs.true:                                    ; preds = %entry
  %fToCall = getelementptr inbounds %"class.xercesc_2_7::JanitorMemFunCall", %"class.xercesc_2_7::JanitorMemFunCall"* %this1, i32 0, i32 1, !dbg !3014
  %1 = load { i64, i64 }, { i64, i64 }* %fToCall, align 8, !dbg !3014
  %lhs.memptr.ptr = extractvalue { i64, i64 } %1, 0, !dbg !3015
  %cmp.ptr = icmp ne i64 %lhs.memptr.ptr, 0, !dbg !3015
  %cmp.ptr.null = icmp ne i64 %lhs.memptr.ptr, 0, !dbg !3015
  %lhs.memptr.adj = extractvalue { i64, i64 } %1, 1, !dbg !3015
  %cmp.adj = icmp ne i64 %lhs.memptr.adj, 0, !dbg !3015
  %2 = and i1 %cmp.ptr.null, %cmp.adj, !dbg !3015
  %memptr.ne = or i1 %cmp.ptr, %2, !dbg !3015
  br i1 %memptr.ne, label %if.then, label %if.end, !dbg !3016

if.then:                                          ; preds = %land.lhs.true
  %fObject2 = getelementptr inbounds %"class.xercesc_2_7::JanitorMemFunCall", %"class.xercesc_2_7::JanitorMemFunCall"* %this1, i32 0, i32 0, !dbg !3017
  %3 = load %"class.xercesc_2_7::SAX2XMLReaderImpl"*, %"class.xercesc_2_7::SAX2XMLReaderImpl"** %fObject2, align 8, !dbg !3017
  %fToCall3 = getelementptr inbounds %"class.xercesc_2_7::JanitorMemFunCall", %"class.xercesc_2_7::JanitorMemFunCall"* %this1, i32 0, i32 1, !dbg !3019
  %4 = load { i64, i64 }, { i64, i64 }* %fToCall3, align 8, !dbg !3019
  %memptr.adj = extractvalue { i64, i64 } %4, 1, !dbg !3020
  %5 = bitcast %"class.xercesc_2_7::SAX2XMLReaderImpl"* %3 to i8*, !dbg !3020
  %6 = getelementptr inbounds i8, i8* %5, i64 %memptr.adj, !dbg !3020
  %this.adjusted = bitcast i8* %6 to %"class.xercesc_2_7::SAX2XMLReaderImpl"*, !dbg !3020
  %memptr.ptr = extractvalue { i64, i64 } %4, 0, !dbg !3020
  %7 = and i64 %memptr.ptr, 1, !dbg !3020
  %memptr.isvirtual = icmp ne i64 %7, 0, !dbg !3020
  br i1 %memptr.isvirtual, label %memptr.virtual, label %memptr.nonvirtual, !dbg !3020

memptr.virtual:                                   ; preds = %if.then
  %8 = bitcast %"class.xercesc_2_7::SAX2XMLReaderImpl"* %this.adjusted to i8**, !dbg !3020
  %vtable = load i8*, i8** %8, align 8, !dbg !3020
  %9 = sub i64 %memptr.ptr, 1, !dbg !3020
  %10 = getelementptr i8, i8* %vtable, i64 %9, !dbg !3020, !nosanitize !1470
  %11 = bitcast i8* %10 to void (%"class.xercesc_2_7::SAX2XMLReaderImpl"*)**, !dbg !3020, !nosanitize !1470
  %memptr.virtualfn = load void (%"class.xercesc_2_7::SAX2XMLReaderImpl"*)*, void (%"class.xercesc_2_7::SAX2XMLReaderImpl"*)** %11, align 8, !dbg !3020, !nosanitize !1470
  br label %memptr.end, !dbg !3020

memptr.nonvirtual:                                ; preds = %if.then
  %memptr.nonvirtualfn = inttoptr i64 %memptr.ptr to void (%"class.xercesc_2_7::SAX2XMLReaderImpl"*)*, !dbg !3020
  br label %memptr.end, !dbg !3020

memptr.end:                                       ; preds = %memptr.nonvirtual, %memptr.virtual
  %12 = phi void (%"class.xercesc_2_7::SAX2XMLReaderImpl"*)* [ %memptr.virtualfn, %memptr.virtual ], [ %memptr.nonvirtualfn, %memptr.nonvirtual ], !dbg !3020
  invoke void %12(%"class.xercesc_2_7::SAX2XMLReaderImpl"* %this.adjusted)
          to label %invoke.cont unwind label %terminate.lpad, !dbg !3020

invoke.cont:                                      ; preds = %memptr.end
  br label %if.end, !dbg !3021

if.end:                                           ; preds = %invoke.cont, %land.lhs.true, %entry
  ret void, !dbg !3022

terminate.lpad:                                   ; preds = %memptr.end
  %13 = landingpad { i8*, i32 }
          catch i8* null, !dbg !3020
  %14 = extractvalue { i8*, i32 } %13, 0, !dbg !3020
  call void @__clang_call_terminate(i8* %14) #12, !dbg !3020
  unreachable, !dbg !3020
}

; Function Attrs: nounwind
declare dso_local void @_ZN11xercesc_2_717VecAttributesImplD1Ev(%"class.xercesc_2_7::VecAttributesImpl"*) unnamed_addr #4

; Function Attrs: noinline nounwind uwtable
define dso_local void @_ZN11xercesc_2_717SAX2XMLReaderImplD2Ev(%"class.xercesc_2_7::SAX2XMLReaderImpl"* %this) unnamed_addr #1 align 2 personality i8* bitcast (i32 (...)* @__gxx_personality_v0 to i8*) !dbg !3023 {
entry:
  %this.addr = alloca %"class.xercesc_2_7::SAX2XMLReaderImpl"*, align 8
  %exn.slot = alloca i8*
  %ehselector.slot = alloca i32
  store %"class.xercesc_2_7::SAX2XMLReaderImpl"* %this, %"class.xercesc_2_7::SAX2XMLReaderImpl"** %this.addr, align 8
  call void @llvm.dbg.declare(metadata %"class.xercesc_2_7::SAX2XMLReaderImpl"** %this.addr, metadata !3024, metadata !DIExpression()), !dbg !3025
  %this1 = load %"class.xercesc_2_7::SAX2XMLReaderImpl"*, %"class.xercesc_2_7::SAX2XMLReaderImpl"** %this.addr, align 8
  %0 = bitcast %"class.xercesc_2_7::SAX2XMLReaderImpl"* %this1 to i32 (...)***, !dbg !3026
  store i32 (...)** bitcast (i8** getelementptr inbounds ({ [86 x i8*], [17 x i8*], [6 x i8*], [10 x i8*], [20 x i8*] }, { [86 x i8*], [17 x i8*], [6 x i8*], [10 x i8*], [20 x i8*] }* @_ZTVN11xercesc_2_717SAX2XMLReaderImplE, i32 0, inrange i32 0, i32 2) to i32 (...)**), i32 (...)*** %0, align 8, !dbg !3026
  %1 = bitcast %"class.xercesc_2_7::SAX2XMLReaderImpl"* %this1 to i8*, !dbg !3026
  %add.ptr = getelementptr inbounds i8, i8* %1, i64 8, !dbg !3026
  %2 = bitcast i8* %add.ptr to i32 (...)***, !dbg !3026
  store i32 (...)** bitcast (i8** getelementptr inbounds ({ [86 x i8*], [17 x i8*], [6 x i8*], [10 x i8*], [20 x i8*] }, { [86 x i8*], [17 x i8*], [6 x i8*], [10 x i8*], [20 x i8*] }* @_ZTVN11xercesc_2_717SAX2XMLReaderImplE, i32 0, inrange i32 1, i32 2) to i32 (...)**), i32 (...)*** %2, align 8, !dbg !3026
  %3 = bitcast %"class.xercesc_2_7::SAX2XMLReaderImpl"* %this1 to i8*, !dbg !3026
  %add.ptr2 = getelementptr inbounds i8, i8* %3, i64 16, !dbg !3026
  %4 = bitcast i8* %add.ptr2 to i32 (...)***, !dbg !3026
  store i32 (...)** bitcast (i8** getelementptr inbounds ({ [86 x i8*], [17 x i8*], [6 x i8*], [10 x i8*], [20 x i8*] }, { [86 x i8*], [17 x i8*], [6 x i8*], [10 x i8*], [20 x i8*] }* @_ZTVN11xercesc_2_717SAX2XMLReaderImplE, i32 0, inrange i32 2, i32 2) to i32 (...)**), i32 (...)*** %4, align 8, !dbg !3026
  %5 = bitcast %"class.xercesc_2_7::SAX2XMLReaderImpl"* %this1 to i8*, !dbg !3026
  %add.ptr3 = getelementptr inbounds i8, i8* %5, i64 24, !dbg !3026
  %6 = bitcast i8* %add.ptr3 to i32 (...)***, !dbg !3026
  store i32 (...)** bitcast (i8** getelementptr inbounds ({ [86 x i8*], [17 x i8*], [6 x i8*], [10 x i8*], [20 x i8*] }, { [86 x i8*], [17 x i8*], [6 x i8*], [10 x i8*], [20 x i8*] }* @_ZTVN11xercesc_2_717SAX2XMLReaderImplE, i32 0, inrange i32 3, i32 2) to i32 (...)**), i32 (...)*** %6, align 8, !dbg !3026
  %7 = bitcast %"class.xercesc_2_7::SAX2XMLReaderImpl"* %this1 to i8*, !dbg !3026
  %add.ptr4 = getelementptr inbounds i8, i8* %7, i64 32, !dbg !3026
  %8 = bitcast i8* %add.ptr4 to i32 (...)***, !dbg !3026
  store i32 (...)** bitcast (i8** getelementptr inbounds ({ [86 x i8*], [17 x i8*], [6 x i8*], [10 x i8*], [20 x i8*] }, { [86 x i8*], [17 x i8*], [6 x i8*], [10 x i8*], [20 x i8*] }* @_ZTVN11xercesc_2_717SAX2XMLReaderImplE, i32 0, inrange i32 4, i32 2) to i32 (...)**), i32 (...)*** %8, align 8, !dbg !3026
  invoke void @_ZN11xercesc_2_717SAX2XMLReaderImpl7cleanUpEv(%"class.xercesc_2_7::SAX2XMLReaderImpl"* %this1)
          to label %invoke.cont unwind label %lpad, !dbg !3027

invoke.cont:                                      ; preds = %entry
  %fAttrList = getelementptr inbounds %"class.xercesc_2_7::SAX2XMLReaderImpl", %"class.xercesc_2_7::SAX2XMLReaderImpl"* %this1, i32 0, i32 13, !dbg !3029
  call void @_ZN11xercesc_2_717VecAttributesImplD1Ev(%"class.xercesc_2_7::VecAttributesImpl"* %fAttrList) #10, !dbg !3029
  %9 = bitcast %"class.xercesc_2_7::SAX2XMLReaderImpl"* %this1 to i8*, !dbg !3029
  %10 = getelementptr inbounds i8, i8* %9, i64 32, !dbg !3029
  %11 = bitcast i8* %10 to %"class.xercesc_2_7::DocTypeHandler"*, !dbg !3029
  call void @_ZN11xercesc_2_714DocTypeHandlerD2Ev(%"class.xercesc_2_7::DocTypeHandler"* %11) #10, !dbg !3029
  %12 = bitcast %"class.xercesc_2_7::SAX2XMLReaderImpl"* %this1 to i8*, !dbg !3029
  %13 = getelementptr inbounds i8, i8* %12, i64 24, !dbg !3029
  %14 = bitcast i8* %13 to %"class.xercesc_2_7::XMLEntityHandler"*, !dbg !3029
  call void @_ZN11xercesc_2_716XMLEntityHandlerD2Ev(%"class.xercesc_2_7::XMLEntityHandler"* %14) #10, !dbg !3029
  %15 = bitcast %"class.xercesc_2_7::SAX2XMLReaderImpl"* %this1 to i8*, !dbg !3029
  %16 = getelementptr inbounds i8, i8* %15, i64 16, !dbg !3029
  %17 = bitcast i8* %16 to %"class.xercesc_2_7::XMLErrorReporter"*, !dbg !3029
  call void @_ZN11xercesc_2_716XMLErrorReporterD2Ev(%"class.xercesc_2_7::XMLErrorReporter"* %17) #10, !dbg !3029
  %18 = bitcast %"class.xercesc_2_7::SAX2XMLReaderImpl"* %this1 to i8*, !dbg !3029
  %19 = getelementptr inbounds i8, i8* %18, i64 8, !dbg !3029
  %20 = bitcast i8* %19 to %"class.xercesc_2_7::XMLDocumentHandler"*, !dbg !3029
  call void @_ZN11xercesc_2_718XMLDocumentHandlerD2Ev(%"class.xercesc_2_7::XMLDocumentHandler"* %20) #10, !dbg !3029
  %21 = bitcast %"class.xercesc_2_7::SAX2XMLReaderImpl"* %this1 to %"class.xercesc_2_7::SAX2XMLReader"*, !dbg !3029
  call void @_ZN11xercesc_2_713SAX2XMLReaderD2Ev(%"class.xercesc_2_7::SAX2XMLReader"* %21) #10, !dbg !3029
  ret void, !dbg !3030

lpad:                                             ; preds = %entry
  %22 = landingpad { i8*, i32 }
          catch i8* null, !dbg !3029
  %23 = extractvalue { i8*, i32 } %22, 0, !dbg !3029
  store i8* %23, i8** %exn.slot, align 8, !dbg !3029
  %24 = extractvalue { i8*, i32 } %22, 1, !dbg !3029
  store i32 %24, i32* %ehselector.slot, align 4, !dbg !3029
  %fAttrList5 = getelementptr inbounds %"class.xercesc_2_7::SAX2XMLReaderImpl", %"class.xercesc_2_7::SAX2XMLReaderImpl"* %this1, i32 0, i32 13, !dbg !3029
  call void @_ZN11xercesc_2_717VecAttributesImplD1Ev(%"class.xercesc_2_7::VecAttributesImpl"* %fAttrList5) #10, !dbg !3029
  %25 = bitcast %"class.xercesc_2_7::SAX2XMLReaderImpl"* %this1 to i8*, !dbg !3029
  %26 = getelementptr inbounds i8, i8* %25, i64 32, !dbg !3029
  %27 = bitcast i8* %26 to %"class.xercesc_2_7::DocTypeHandler"*, !dbg !3029
  call void @_ZN11xercesc_2_714DocTypeHandlerD2Ev(%"class.xercesc_2_7::DocTypeHandler"* %27) #10, !dbg !3029
  %28 = bitcast %"class.xercesc_2_7::SAX2XMLReaderImpl"* %this1 to i8*, !dbg !3029
  %29 = getelementptr inbounds i8, i8* %28, i64 24, !dbg !3029
  %30 = bitcast i8* %29 to %"class.xercesc_2_7::XMLEntityHandler"*, !dbg !3029
  call void @_ZN11xercesc_2_716XMLEntityHandlerD2Ev(%"class.xercesc_2_7::XMLEntityHandler"* %30) #10, !dbg !3029
  %31 = bitcast %"class.xercesc_2_7::SAX2XMLReaderImpl"* %this1 to i8*, !dbg !3029
  %32 = getelementptr inbounds i8, i8* %31, i64 16, !dbg !3029
  %33 = bitcast i8* %32 to %"class.xercesc_2_7::XMLErrorReporter"*, !dbg !3029
  call void @_ZN11xercesc_2_716XMLErrorReporterD2Ev(%"class.xercesc_2_7::XMLErrorReporter"* %33) #10, !dbg !3029
  %34 = bitcast %"class.xercesc_2_7::SAX2XMLReaderImpl"* %this1 to i8*, !dbg !3029
  %35 = getelementptr inbounds i8, i8* %34, i64 8, !dbg !3029
  %36 = bitcast i8* %35 to %"class.xercesc_2_7::XMLDocumentHandler"*, !dbg !3029
  call void @_ZN11xercesc_2_718XMLDocumentHandlerD2Ev(%"class.xercesc_2_7::XMLDocumentHandler"* %36) #10, !dbg !3029
  %37 = bitcast %"class.xercesc_2_7::SAX2XMLReaderImpl"* %this1 to %"class.xercesc_2_7::SAX2XMLReader"*, !dbg !3029
  call void @_ZN11xercesc_2_713SAX2XMLReaderD2Ev(%"class.xercesc_2_7::SAX2XMLReader"* %37) #10, !dbg !3029
  br label %terminate.handler, !dbg !3029

terminate.handler:                                ; preds = %lpad
  %exn = load i8*, i8** %exn.slot, align 8, !dbg !3029
  call void @__clang_call_terminate(i8* %exn) #12, !dbg !3029
  unreachable, !dbg !3029
}

; Function Attrs: noinline nounwind uwtable
define dso_local void @_ZThn8_N11xercesc_2_717SAX2XMLReaderImplD1Ev(%"class.xercesc_2_7::SAX2XMLReaderImpl"* %this) unnamed_addr #1 align 2 !dbg !3031 {
entry:
  %this.addr = alloca %"class.xercesc_2_7::SAX2XMLReaderImpl"*, align 8
  store %"class.xercesc_2_7::SAX2XMLReaderImpl"* %this, %"class.xercesc_2_7::SAX2XMLReaderImpl"** %this.addr, align 8
  %this1 = load %"class.xercesc_2_7::SAX2XMLReaderImpl"*, %"class.xercesc_2_7::SAX2XMLReaderImpl"** %this.addr, align 8, !dbg !3033
  %0 = bitcast %"class.xercesc_2_7::SAX2XMLReaderImpl"* %this1 to i8*, !dbg !3033
  %1 = getelementptr inbounds i8, i8* %0, i64 -8, !dbg !3033
  %2 = bitcast i8* %1 to %"class.xercesc_2_7::SAX2XMLReaderImpl"*, !dbg !3033
  tail call void @_ZN11xercesc_2_717SAX2XMLReaderImplD1Ev(%"class.xercesc_2_7::SAX2XMLReaderImpl"* %2) #10, !dbg !3033
  ret void, !dbg !3033
}

; Function Attrs: noinline nounwind uwtable
define dso_local void @_ZThn16_N11xercesc_2_717SAX2XMLReaderImplD1Ev(%"class.xercesc_2_7::SAX2XMLReaderImpl"* %this) unnamed_addr #1 align 2 !dbg !3034 {
entry:
  %this.addr = alloca %"class.xercesc_2_7::SAX2XMLReaderImpl"*, align 8
  store %"class.xercesc_2_7::SAX2XMLReaderImpl"* %this, %"class.xercesc_2_7::SAX2XMLReaderImpl"** %this.addr, align 8
  %this1 = load %"class.xercesc_2_7::SAX2XMLReaderImpl"*, %"class.xercesc_2_7::SAX2XMLReaderImpl"** %this.addr, align 8, !dbg !3035
  %0 = bitcast %"class.xercesc_2_7::SAX2XMLReaderImpl"* %this1 to i8*, !dbg !3035
  %1 = getelementptr inbounds i8, i8* %0, i64 -16, !dbg !3035
  %2 = bitcast i8* %1 to %"class.xercesc_2_7::SAX2XMLReaderImpl"*, !dbg !3035
  tail call void @_ZN11xercesc_2_717SAX2XMLReaderImplD1Ev(%"class.xercesc_2_7::SAX2XMLReaderImpl"* %2) #10, !dbg !3035
  ret void, !dbg !3035
}

; Function Attrs: noinline nounwind uwtable
define dso_local void @_ZThn24_N11xercesc_2_717SAX2XMLReaderImplD1Ev(%"class.xercesc_2_7::SAX2XMLReaderImpl"* %this) unnamed_addr #1 align 2 !dbg !3036 {
entry:
  %this.addr = alloca %"class.xercesc_2_7::SAX2XMLReaderImpl"*, align 8
  store %"class.xercesc_2_7::SAX2XMLReaderImpl"* %this, %"class.xercesc_2_7::SAX2XMLReaderImpl"** %this.addr, align 8
  %this1 = load %"class.xercesc_2_7::SAX2XMLReaderImpl"*, %"class.xercesc_2_7::SAX2XMLReaderImpl"** %this.addr, align 8, !dbg !3037
  %0 = bitcast %"class.xercesc_2_7::SAX2XMLReaderImpl"* %this1 to i8*, !dbg !3037
  %1 = getelementptr inbounds i8, i8* %0, i64 -24, !dbg !3037
  %2 = bitcast i8* %1 to %"class.xercesc_2_7::SAX2XMLReaderImpl"*, !dbg !3037
  tail call void @_ZN11xercesc_2_717SAX2XMLReaderImplD1Ev(%"class.xercesc_2_7::SAX2XMLReaderImpl"* %2) #10, !dbg !3037
  ret void, !dbg !3037
}

; Function Attrs: noinline nounwind uwtable
define dso_local void @_ZThn32_N11xercesc_2_717SAX2XMLReaderImplD1Ev(%"class.xercesc_2_7::SAX2XMLReaderImpl"* %this) unnamed_addr #1 align 2 !dbg !3038 {
entry:
  %this.addr = alloca %"class.xercesc_2_7::SAX2XMLReaderImpl"*, align 8
  store %"class.xercesc_2_7::SAX2XMLReaderImpl"* %this, %"class.xercesc_2_7::SAX2XMLReaderImpl"** %this.addr, align 8
  %this1 = load %"class.xercesc_2_7::SAX2XMLReaderImpl"*, %"class.xercesc_2_7::SAX2XMLReaderImpl"** %this.addr, align 8, !dbg !3039
  %0 = bitcast %"class.xercesc_2_7::SAX2XMLReaderImpl"* %this1 to i8*, !dbg !3039
  %1 = getelementptr inbounds i8, i8* %0, i64 -32, !dbg !3039
  %2 = bitcast i8* %1 to %"class.xercesc_2_7::SAX2XMLReaderImpl"*, !dbg !3039
  tail call void @_ZN11xercesc_2_717SAX2XMLReaderImplD1Ev(%"class.xercesc_2_7::SAX2XMLReaderImpl"* %2) #10, !dbg !3039
  ret void, !dbg !3039
}

; Function Attrs: noinline nounwind uwtable
define dso_local void @_ZN11xercesc_2_717SAX2XMLReaderImplD0Ev(%"class.xercesc_2_7::SAX2XMLReaderImpl"* %this) unnamed_addr #1 align 2 !dbg !3040 {
entry:
  %this.addr = alloca %"class.xercesc_2_7::SAX2XMLReaderImpl"*, align 8
  store %"class.xercesc_2_7::SAX2XMLReaderImpl"* %this, %"class.xercesc_2_7::SAX2XMLReaderImpl"** %this.addr, align 8
  call void @llvm.dbg.declare(metadata %"class.xercesc_2_7::SAX2XMLReaderImpl"** %this.addr, metadata !3041, metadata !DIExpression()), !dbg !3042
  %this1 = load %"class.xercesc_2_7::SAX2XMLReaderImpl"*, %"class.xercesc_2_7::SAX2XMLReaderImpl"** %this.addr, align 8
  call void @_ZN11xercesc_2_717SAX2XMLReaderImplD1Ev(%"class.xercesc_2_7::SAX2XMLReaderImpl"* %this1) #10, !dbg !3043
  %0 = bitcast %"class.xercesc_2_7::SAX2XMLReaderImpl"* %this1 to i8*, !dbg !3043
  call void @_ZN11xercesc_2_77XMemorydlEPv(i8* %0) #10, !dbg !3043
  ret void, !dbg !3044
}

; Function Attrs: noinline nounwind uwtable
define dso_local void @_ZThn8_N11xercesc_2_717SAX2XMLReaderImplD0Ev(%"class.xercesc_2_7::SAX2XMLReaderImpl"* %this) unnamed_addr #1 align 2 !dbg !3045 {
entry:
  %this.addr = alloca %"class.xercesc_2_7::SAX2XMLReaderImpl"*, align 8
  store %"class.xercesc_2_7::SAX2XMLReaderImpl"* %this, %"class.xercesc_2_7::SAX2XMLReaderImpl"** %this.addr, align 8
  %this1 = load %"class.xercesc_2_7::SAX2XMLReaderImpl"*, %"class.xercesc_2_7::SAX2XMLReaderImpl"** %this.addr, align 8, !dbg !3046
  %0 = bitcast %"class.xercesc_2_7::SAX2XMLReaderImpl"* %this1 to i8*, !dbg !3046
  %1 = getelementptr inbounds i8, i8* %0, i64 -8, !dbg !3046
  %2 = bitcast i8* %1 to %"class.xercesc_2_7::SAX2XMLReaderImpl"*, !dbg !3046
  tail call void @_ZN11xercesc_2_717SAX2XMLReaderImplD0Ev(%"class.xercesc_2_7::SAX2XMLReaderImpl"* %2) #10, !dbg !3046
  ret void, !dbg !3046
}

; Function Attrs: noinline nounwind uwtable
define dso_local void @_ZThn16_N11xercesc_2_717SAX2XMLReaderImplD0Ev(%"class.xercesc_2_7::SAX2XMLReaderImpl"* %this) unnamed_addr #1 align 2 !dbg !3047 {
entry:
  %this.addr = alloca %"class.xercesc_2_7::SAX2XMLReaderImpl"*, align 8
  store %"class.xercesc_2_7::SAX2XMLReaderImpl"* %this, %"class.xercesc_2_7::SAX2XMLReaderImpl"** %this.addr, align 8
  %this1 = load %"class.xercesc_2_7::SAX2XMLReaderImpl"*, %"class.xercesc_2_7::SAX2XMLReaderImpl"** %this.addr, align 8, !dbg !3048
  %0 = bitcast %"class.xercesc_2_7::SAX2XMLReaderImpl"* %this1 to i8*, !dbg !3048
  %1 = getelementptr inbounds i8, i8* %0, i64 -16, !dbg !3048
  %2 = bitcast i8* %1 to %"class.xercesc_2_7::SAX2XMLReaderImpl"*, !dbg !3048
  tail call void @_ZN11xercesc_2_717SAX2XMLReaderImplD0Ev(%"class.xercesc_2_7::SAX2XMLReaderImpl"* %2) #10, !dbg !3048
  ret void, !dbg !3048
}

; Function Attrs: noinline nounwind uwtable
define dso_local void @_ZThn24_N11xercesc_2_717SAX2XMLReaderImplD0Ev(%"class.xercesc_2_7::SAX2XMLReaderImpl"* %this) unnamed_addr #1 align 2 !dbg !3049 {
entry:
  %this.addr = alloca %"class.xercesc_2_7::SAX2XMLReaderImpl"*, align 8
  store %"class.xercesc_2_7::SAX2XMLReaderImpl"* %this, %"class.xercesc_2_7::SAX2XMLReaderImpl"** %this.addr, align 8
  %this1 = load %"class.xercesc_2_7::SAX2XMLReaderImpl"*, %"class.xercesc_2_7::SAX2XMLReaderImpl"** %this.addr, align 8, !dbg !3050
  %0 = bitcast %"class.xercesc_2_7::SAX2XMLReaderImpl"* %this1 to i8*, !dbg !3050
  %1 = getelementptr inbounds i8, i8* %0, i64 -24, !dbg !3050
  %2 = bitcast i8* %1 to %"class.xercesc_2_7::SAX2XMLReaderImpl"*, !dbg !3050
  tail call void @_ZN11xercesc_2_717SAX2XMLReaderImplD0Ev(%"class.xercesc_2_7::SAX2XMLReaderImpl"* %2) #10, !dbg !3050
  ret void, !dbg !3050
}

; Function Attrs: noinline nounwind uwtable
define dso_local void @_ZThn32_N11xercesc_2_717SAX2XMLReaderImplD0Ev(%"class.xercesc_2_7::SAX2XMLReaderImpl"* %this) unnamed_addr #1 align 2 !dbg !3051 {
entry:
  %this.addr = alloca %"class.xercesc_2_7::SAX2XMLReaderImpl"*, align 8
  store %"class.xercesc_2_7::SAX2XMLReaderImpl"* %this, %"class.xercesc_2_7::SAX2XMLReaderImpl"** %this.addr, align 8
  %this1 = load %"class.xercesc_2_7::SAX2XMLReaderImpl"*, %"class.xercesc_2_7::SAX2XMLReaderImpl"** %this.addr, align 8, !dbg !3052
  %0 = bitcast %"class.xercesc_2_7::SAX2XMLReaderImpl"* %this1 to i8*, !dbg !3052
  %1 = getelementptr inbounds i8, i8* %0, i64 -32, !dbg !3052
  %2 = bitcast i8* %1 to %"class.xercesc_2_7::SAX2XMLReaderImpl"*, !dbg !3052
  tail call void @_ZN11xercesc_2_717SAX2XMLReaderImplD0Ev(%"class.xercesc_2_7::SAX2XMLReaderImpl"* %2) #10, !dbg !3052
  ret void, !dbg !3052
}

declare dso_local i8* @_ZN11xercesc_2_77XMemorynwEmPNS_13MemoryManagerE(i64, %"class.xercesc_2_7::MemoryManager"*) #7

declare dso_local void @_ZN11xercesc_2_715GrammarResolverC1EPNS_14XMLGrammarPoolEPNS_13MemoryManagerE(%"class.xercesc_2_7::GrammarResolver"*, %"class.xercesc_2_7::XMLGrammarPool"*, %"class.xercesc_2_7::MemoryManager"*) unnamed_addr #7

; Function Attrs: nounwind
declare dso_local void @_ZN11xercesc_2_77XMemorydlEPvPNS_13MemoryManagerE(i8*, %"class.xercesc_2_7::MemoryManager"*) #4

; Function Attrs: noinline nounwind uwtable
define linkonce_odr dso_local %"class.xercesc_2_7::XMLStringPool"* @_ZN11xercesc_2_715GrammarResolver13getStringPoolEv(%"class.xercesc_2_7::GrammarResolver"* %this) #1 comdat align 2 !dbg !3053 {
entry:
  %this.addr = alloca %"class.xercesc_2_7::GrammarResolver"*, align 8
  store %"class.xercesc_2_7::GrammarResolver"* %this, %"class.xercesc_2_7::GrammarResolver"** %this.addr, align 8
  call void @llvm.dbg.declare(metadata %"class.xercesc_2_7::GrammarResolver"** %this.addr, metadata !3054, metadata !DIExpression()), !dbg !3055
  %this1 = load %"class.xercesc_2_7::GrammarResolver"*, %"class.xercesc_2_7::GrammarResolver"** %this.addr, align 8
  %fStringPool = getelementptr inbounds %"class.xercesc_2_7::GrammarResolver", %"class.xercesc_2_7::GrammarResolver"* %this1, i32 0, i32 3, !dbg !3056
  %0 = load %"class.xercesc_2_7::XMLStringPool"*, %"class.xercesc_2_7::XMLStringPool"** %fStringPool, align 8, !dbg !3056
  ret %"class.xercesc_2_7::XMLStringPool"* %0, !dbg !3057
}

declare dso_local %"class.xercesc_2_7::XMLScanner"* @_ZN11xercesc_2_718XMLScannerResolver17getDefaultScannerEPNS_12XMLValidatorEPNS_15GrammarResolverEPNS_13MemoryManagerE(%"class.xercesc_2_7::XMLValidator"*, %"class.xercesc_2_7::GrammarResolver"*, %"class.xercesc_2_7::MemoryManager"*) #7

declare dso_local void @_ZN11xercesc_2_710XMLScanner16setURIStringPoolEPNS_13XMLStringPoolE(%"class.xercesc_2_7::XMLScanner"*, %"class.xercesc_2_7::XMLStringPool"*) #7

; Function Attrs: argmemonly nounwind willreturn
declare void @llvm.memset.p0i8.i64(i8* nocapture writeonly, i8, i64, i1 immarg) #9

; Function Attrs: noinline uwtable
define dso_local void @_ZN11xercesc_2_717SAX2XMLReaderImpl15setDoNamespacesEb(%"class.xercesc_2_7::SAX2XMLReaderImpl"* %this, i1 zeroext %newState) #6 align 2 !dbg !3058 {
entry:
  %this.addr = alloca %"class.xercesc_2_7::SAX2XMLReaderImpl"*, align 8
  %newState.addr = alloca i8, align 1
  store %"class.xercesc_2_7::SAX2XMLReaderImpl"* %this, %"class.xercesc_2_7::SAX2XMLReaderImpl"** %this.addr, align 8
  call void @llvm.dbg.declare(metadata %"class.xercesc_2_7::SAX2XMLReaderImpl"** %this.addr, metadata !3059, metadata !DIExpression()), !dbg !3060
  %frombool = zext i1 %newState to i8
  store i8 %frombool, i8* %newState.addr, align 1
  call void @llvm.dbg.declare(metadata i8* %newState.addr, metadata !3061, metadata !DIExpression()), !dbg !3062
  %this1 = load %"class.xercesc_2_7::SAX2XMLReaderImpl"*, %"class.xercesc_2_7::SAX2XMLReaderImpl"** %this.addr, align 8
  %fScanner = getelementptr inbounds %"class.xercesc_2_7::SAX2XMLReaderImpl", %"class.xercesc_2_7::SAX2XMLReaderImpl"* %this1, i32 0, i32 27, !dbg !3063
  %0 = load %"class.xercesc_2_7::XMLScanner"*, %"class.xercesc_2_7::XMLScanner"** %fScanner, align 8, !dbg !3063
  %1 = load i8, i8* %newState.addr, align 1, !dbg !3064
  %tobool = trunc i8 %1 to i1, !dbg !3064
  call void @_ZN11xercesc_2_710XMLScanner15setDoNamespacesEb(%"class.xercesc_2_7::XMLScanner"* %0, i1 zeroext %tobool), !dbg !3065
  ret void, !dbg !3066
}

; Function Attrs: noinline uwtable
define dso_local void @_ZN11xercesc_2_717SAX2XMLReaderImpl11setDoSchemaEb(%"class.xercesc_2_7::SAX2XMLReaderImpl"* %this, i1 zeroext %newState) #6 align 2 !dbg !3067 {
entry:
  %this.addr = alloca %"class.xercesc_2_7::SAX2XMLReaderImpl"*, align 8
  %newState.addr = alloca i8, align 1
  store %"class.xercesc_2_7::SAX2XMLReaderImpl"* %this, %"class.xercesc_2_7::SAX2XMLReaderImpl"** %this.addr, align 8
  call void @llvm.dbg.declare(metadata %"class.xercesc_2_7::SAX2XMLReaderImpl"** %this.addr, metadata !3068, metadata !DIExpression()), !dbg !3069
  %frombool = zext i1 %newState to i8
  store i8 %frombool, i8* %newState.addr, align 1
  call void @llvm.dbg.declare(metadata i8* %newState.addr, metadata !3070, metadata !DIExpression()), !dbg !3071
  %this1 = load %"class.xercesc_2_7::SAX2XMLReaderImpl"*, %"class.xercesc_2_7::SAX2XMLReaderImpl"** %this.addr, align 8
  %fScanner = getelementptr inbounds %"class.xercesc_2_7::SAX2XMLReaderImpl", %"class.xercesc_2_7::SAX2XMLReaderImpl"* %this1, i32 0, i32 27, !dbg !3072
  %0 = load %"class.xercesc_2_7::XMLScanner"*, %"class.xercesc_2_7::XMLScanner"** %fScanner, align 8, !dbg !3072
  %1 = load i8, i8* %newState.addr, align 1, !dbg !3073
  %tobool = trunc i8 %1 to i1, !dbg !3073
  call void @_ZN11xercesc_2_710XMLScanner11setDoSchemaEb(%"class.xercesc_2_7::XMLScanner"* %0, i1 zeroext %tobool), !dbg !3074
  ret void, !dbg !3075
}

declare dso_local void @_ZN11xercesc_2_713XMLStringPoolC1EjPNS_13MemoryManagerE(%"class.xercesc_2_7::XMLStringPool"*, i32, %"class.xercesc_2_7::MemoryManager"*) unnamed_addr #7

; Function Attrs: noinline uwtable
define linkonce_odr dso_local void @_ZN11xercesc_2_712ValueStackOfIjEC2EjPNS_13MemoryManagerEb(%"class.xercesc_2_7::ValueStackOf"* %this, i32 %fInitCapacity, %"class.xercesc_2_7::MemoryManager"* %manager, i1 zeroext %toCallDestructor) unnamed_addr #6 comdat align 2 !dbg !3076 {
entry:
  %this.addr = alloca %"class.xercesc_2_7::ValueStackOf"*, align 8
  %fInitCapacity.addr = alloca i32, align 4
  %manager.addr = alloca %"class.xercesc_2_7::MemoryManager"*, align 8
  %toCallDestructor.addr = alloca i8, align 1
  store %"class.xercesc_2_7::ValueStackOf"* %this, %"class.xercesc_2_7::ValueStackOf"** %this.addr, align 8
  call void @llvm.dbg.declare(metadata %"class.xercesc_2_7::ValueStackOf"** %this.addr, metadata !3078, metadata !DIExpression()), !dbg !3079
  store i32 %fInitCapacity, i32* %fInitCapacity.addr, align 4
  call void @llvm.dbg.declare(metadata i32* %fInitCapacity.addr, metadata !3080, metadata !DIExpression()), !dbg !3081
  store %"class.xercesc_2_7::MemoryManager"* %manager, %"class.xercesc_2_7::MemoryManager"** %manager.addr, align 8
  call void @llvm.dbg.declare(metadata %"class.xercesc_2_7::MemoryManager"** %manager.addr, metadata !3082, metadata !DIExpression()), !dbg !3083
  %frombool = zext i1 %toCallDestructor to i8
  store i8 %frombool, i8* %toCallDestructor.addr, align 1
  call void @llvm.dbg.declare(metadata i8* %toCallDestructor.addr, metadata !3084, metadata !DIExpression()), !dbg !3085
  %this1 = load %"class.xercesc_2_7::ValueStackOf"*, %"class.xercesc_2_7::ValueStackOf"** %this.addr, align 8
  %0 = bitcast %"class.xercesc_2_7::ValueStackOf"* %this1 to %"class.xercesc_2_7::XMemory"*, !dbg !3086
  call void @_ZN11xercesc_2_77XMemoryC2Ev(%"class.xercesc_2_7::XMemory"* %0), !dbg !3087
  %fVector = getelementptr inbounds %"class.xercesc_2_7::ValueStackOf", %"class.xercesc_2_7::ValueStackOf"* %this1, i32 0, i32 1, !dbg !3089
  %1 = load i32, i32* %fInitCapacity.addr, align 4, !dbg !3091
  %2 = load %"class.xercesc_2_7::MemoryManager"*, %"class.xercesc_2_7::MemoryManager"** %manager.addr, align 8, !dbg !3092
  %3 = load i8, i8* %toCallDestructor.addr, align 1, !dbg !3093
  %tobool = trunc i8 %3 to i1, !dbg !3093
  call void @_ZN11xercesc_2_713ValueVectorOfIjEC2EjPNS_13MemoryManagerEb(%"class.xercesc_2_7::ValueVectorOf.12"* %fVector, i32 %1, %"class.xercesc_2_7::MemoryManager"* %2, i1 zeroext %tobool), !dbg !3089
  ret void, !dbg !3094
}

; Function Attrs: noinline uwtable
define linkonce_odr dso_local void @_ZN11xercesc_2_711RefVectorOfINS_7XMLAttrEEC2EjbPNS_13MemoryManagerE(%"class.xercesc_2_7::RefVectorOf"* %this, i32 %maxElems, i1 zeroext %adoptElems, %"class.xercesc_2_7::MemoryManager"* %manager) unnamed_addr #6 comdat align 2 !dbg !3095 {
entry:
  %this.addr = alloca %"class.xercesc_2_7::RefVectorOf"*, align 8
  %maxElems.addr = alloca i32, align 4
  %adoptElems.addr = alloca i8, align 1
  %manager.addr = alloca %"class.xercesc_2_7::MemoryManager"*, align 8
  store %"class.xercesc_2_7::RefVectorOf"* %this, %"class.xercesc_2_7::RefVectorOf"** %this.addr, align 8
  call void @llvm.dbg.declare(metadata %"class.xercesc_2_7::RefVectorOf"** %this.addr, metadata !3097, metadata !DIExpression()), !dbg !3098
  store i32 %maxElems, i32* %maxElems.addr, align 4
  call void @llvm.dbg.declare(metadata i32* %maxElems.addr, metadata !3099, metadata !DIExpression()), !dbg !3100
  %frombool = zext i1 %adoptElems to i8
  store i8 %frombool, i8* %adoptElems.addr, align 1
  call void @llvm.dbg.declare(metadata i8* %adoptElems.addr, metadata !3101, metadata !DIExpression()), !dbg !3102
  store %"class.xercesc_2_7::MemoryManager"* %manager, %"class.xercesc_2_7::MemoryManager"** %manager.addr, align 8
  call void @llvm.dbg.declare(metadata %"class.xercesc_2_7::MemoryManager"** %manager.addr, metadata !3103, metadata !DIExpression()), !dbg !3104
  %this1 = load %"class.xercesc_2_7::RefVectorOf"*, %"class.xercesc_2_7::RefVectorOf"** %this.addr, align 8
  %0 = bitcast %"class.xercesc_2_7::RefVectorOf"* %this1 to %"class.xercesc_2_7::BaseRefVectorOf"*, !dbg !3105
  %1 = load i32, i32* %maxElems.addr, align 4, !dbg !3106
  %2 = load i8, i8* %adoptElems.addr, align 1, !dbg !3107
  %tobool = trunc i8 %2 to i1, !dbg !3107
  %3 = load %"class.xercesc_2_7::MemoryManager"*, %"class.xercesc_2_7::MemoryManager"** %manager.addr, align 8, !dbg !3108
  call void @_ZN11xercesc_2_715BaseRefVectorOfINS_7XMLAttrEEC2EjbPNS_13MemoryManagerE(%"class.xercesc_2_7::BaseRefVectorOf"* %0, i32 %1, i1 zeroext %tobool, %"class.xercesc_2_7::MemoryManager"* %3), !dbg !3109
  %4 = bitcast %"class.xercesc_2_7::RefVectorOf"* %this1 to i32 (...)***, !dbg !3105
  store i32 (...)** bitcast (i8** getelementptr inbounds ({ [9 x i8*] }, { [9 x i8*] }* @_ZTVN11xercesc_2_711RefVectorOfINS_7XMLAttrEEE, i32 0, inrange i32 0, i32 2) to i32 (...)**), i32 (...)*** %4, align 8, !dbg !3105
  ret void, !dbg !3110
}

; Function Attrs: noinline nounwind uwtable
define linkonce_odr dso_local void @_ZN11xercesc_2_712ValueStackOfIjED2Ev(%"class.xercesc_2_7::ValueStackOf"* %this) unnamed_addr #1 comdat align 2 !dbg !3111 {
entry:
  %this.addr = alloca %"class.xercesc_2_7::ValueStackOf"*, align 8
  store %"class.xercesc_2_7::ValueStackOf"* %this, %"class.xercesc_2_7::ValueStackOf"** %this.addr, align 8
  call void @llvm.dbg.declare(metadata %"class.xercesc_2_7::ValueStackOf"** %this.addr, metadata !3112, metadata !DIExpression()), !dbg !3113
  %this1 = load %"class.xercesc_2_7::ValueStackOf"*, %"class.xercesc_2_7::ValueStackOf"** %this.addr, align 8
  %fVector = getelementptr inbounds %"class.xercesc_2_7::ValueStackOf", %"class.xercesc_2_7::ValueStackOf"* %this1, i32 0, i32 1, !dbg !3114
  call void @_ZN11xercesc_2_713ValueVectorOfIjED2Ev(%"class.xercesc_2_7::ValueVectorOf.12"* %fVector) #10, !dbg !3114
  ret void, !dbg !3116
}

; Function Attrs: nounwind
declare dso_local void @_ZN11xercesc_2_715GrammarResolverD1Ev(%"class.xercesc_2_7::GrammarResolver"*) unnamed_addr #4

; Function Attrs: noinline uwtable
define dso_local void @_ZN11xercesc_2_717SAX2XMLReaderImpl20installAdvDocHandlerEPNS_18XMLDocumentHandlerE(%"class.xercesc_2_7::SAX2XMLReaderImpl"* %this, %"class.xercesc_2_7::XMLDocumentHandler"* %toInstall) unnamed_addr #6 align 2 !dbg !3117 {
entry:
  %this.addr = alloca %"class.xercesc_2_7::SAX2XMLReaderImpl"*, align 8
  %toInstall.addr = alloca %"class.xercesc_2_7::XMLDocumentHandler"*, align 8
  %newSize = alloca i32, align 4
  %newList = alloca %"class.xercesc_2_7::XMLDocumentHandler"**, align 8
  store %"class.xercesc_2_7::SAX2XMLReaderImpl"* %this, %"class.xercesc_2_7::SAX2XMLReaderImpl"** %this.addr, align 8
  call void @llvm.dbg.declare(metadata %"class.xercesc_2_7::SAX2XMLReaderImpl"** %this.addr, metadata !3118, metadata !DIExpression()), !dbg !3119
  store %"class.xercesc_2_7::XMLDocumentHandler"* %toInstall, %"class.xercesc_2_7::XMLDocumentHandler"** %toInstall.addr, align 8
  call void @llvm.dbg.declare(metadata %"class.xercesc_2_7::XMLDocumentHandler"** %toInstall.addr, metadata !3120, metadata !DIExpression()), !dbg !3121
  %this1 = load %"class.xercesc_2_7::SAX2XMLReaderImpl"*, %"class.xercesc_2_7::SAX2XMLReaderImpl"** %this.addr, align 8
  %fAdvDHCount = getelementptr inbounds %"class.xercesc_2_7::SAX2XMLReaderImpl", %"class.xercesc_2_7::SAX2XMLReaderImpl"* %this1, i32 0, i32 11, !dbg !3122
  %0 = load i32, i32* %fAdvDHCount, align 4, !dbg !3122
  %fAdvDHListSize = getelementptr inbounds %"class.xercesc_2_7::SAX2XMLReaderImpl", %"class.xercesc_2_7::SAX2XMLReaderImpl"* %this1, i32 0, i32 12, !dbg !3124
  %1 = load i32, i32* %fAdvDHListSize, align 8, !dbg !3124
  %cmp = icmp eq i32 %0, %1, !dbg !3125
  br i1 %cmp, label %if.then, label %if.end, !dbg !3126

if.then:                                          ; preds = %entry
  call void @llvm.dbg.declare(metadata i32* %newSize, metadata !3127, metadata !DIExpression()), !dbg !3129
  %fAdvDHListSize2 = getelementptr inbounds %"class.xercesc_2_7::SAX2XMLReaderImpl", %"class.xercesc_2_7::SAX2XMLReaderImpl"* %this1, i32 0, i32 12, !dbg !3130
  %2 = load i32, i32* %fAdvDHListSize2, align 8, !dbg !3130
  %conv = uitofp i32 %2 to double, !dbg !3130
  %mul = fmul double %conv, 1.500000e+00, !dbg !3131
  %conv3 = fptoui double %mul to i32, !dbg !3132
  store i32 %conv3, i32* %newSize, align 4, !dbg !3129
  call void @llvm.dbg.declare(metadata %"class.xercesc_2_7::XMLDocumentHandler"*** %newList, metadata !3133, metadata !DIExpression()), !dbg !3134
  %fMemoryManager = getelementptr inbounds %"class.xercesc_2_7::SAX2XMLReaderImpl", %"class.xercesc_2_7::SAX2XMLReaderImpl"* %this1, i32 0, i32 31, !dbg !3135
  %3 = load %"class.xercesc_2_7::MemoryManager"*, %"class.xercesc_2_7::MemoryManager"** %fMemoryManager, align 8, !dbg !3135
  %4 = load i32, i32* %newSize, align 4, !dbg !3136
  %conv4 = zext i32 %4 to i64, !dbg !3136
  %mul5 = mul i64 %conv4, 8, !dbg !3137
  %5 = bitcast %"class.xercesc_2_7::MemoryManager"* %3 to i8* (%"class.xercesc_2_7::MemoryManager"*, i64)***, !dbg !3138
  %vtable = load i8* (%"class.xercesc_2_7::MemoryManager"*, i64)**, i8* (%"class.xercesc_2_7::MemoryManager"*, i64)*** %5, align 8, !dbg !3138
  %vfn = getelementptr inbounds i8* (%"class.xercesc_2_7::MemoryManager"*, i64)*, i8* (%"class.xercesc_2_7::MemoryManager"*, i64)** %vtable, i64 2, !dbg !3138
  %6 = load i8* (%"class.xercesc_2_7::MemoryManager"*, i64)*, i8* (%"class.xercesc_2_7::MemoryManager"*, i64)** %vfn, align 8, !dbg !3138
  %call = call i8* %6(%"class.xercesc_2_7::MemoryManager"* %3, i64 %mul5), !dbg !3138
  %7 = bitcast i8* %call to %"class.xercesc_2_7::XMLDocumentHandler"**, !dbg !3139
  store %"class.xercesc_2_7::XMLDocumentHandler"** %7, %"class.xercesc_2_7::XMLDocumentHandler"*** %newList, align 8, !dbg !3134
  %8 = load %"class.xercesc_2_7::XMLDocumentHandler"**, %"class.xercesc_2_7::XMLDocumentHandler"*** %newList, align 8, !dbg !3140
  %9 = bitcast %"class.xercesc_2_7::XMLDocumentHandler"** %8 to i8*, !dbg !3141
  %fAdvDHList = getelementptr inbounds %"class.xercesc_2_7::SAX2XMLReaderImpl", %"class.xercesc_2_7::SAX2XMLReaderImpl"* %this1, i32 0, i32 26, !dbg !3142
  %10 = load %"class.xercesc_2_7::XMLDocumentHandler"**, %"class.xercesc_2_7::XMLDocumentHandler"*** %fAdvDHList, align 8, !dbg !3142
  %11 = bitcast %"class.xercesc_2_7::XMLDocumentHandler"** %10 to i8*, !dbg !3141
  %fAdvDHListSize6 = getelementptr inbounds %"class.xercesc_2_7::SAX2XMLReaderImpl", %"class.xercesc_2_7::SAX2XMLReaderImpl"* %this1, i32 0, i32 12, !dbg !3143
  %12 = load i32, i32* %fAdvDHListSize6, align 8, !dbg !3143
  %conv7 = zext i32 %12 to i64, !dbg !3143
  %mul8 = mul i64 8, %conv7, !dbg !3144
  call void @llvm.memcpy.p0i8.p0i8.i64(i8* align 8 %9, i8* align 8 %11, i64 %mul8, i1 false), !dbg !3141
  %13 = load %"class.xercesc_2_7::XMLDocumentHandler"**, %"class.xercesc_2_7::XMLDocumentHandler"*** %newList, align 8, !dbg !3145
  %fAdvDHListSize9 = getelementptr inbounds %"class.xercesc_2_7::SAX2XMLReaderImpl", %"class.xercesc_2_7::SAX2XMLReaderImpl"* %this1, i32 0, i32 12, !dbg !3146
  %14 = load i32, i32* %fAdvDHListSize9, align 8, !dbg !3146
  %idxprom = zext i32 %14 to i64, !dbg !3145
  %arrayidx = getelementptr inbounds %"class.xercesc_2_7::XMLDocumentHandler"*, %"class.xercesc_2_7::XMLDocumentHandler"** %13, i64 %idxprom, !dbg !3145
  %15 = bitcast %"class.xercesc_2_7::XMLDocumentHandler"** %arrayidx to i8*, !dbg !3147
  %16 = load i32, i32* %newSize, align 4, !dbg !3148
  %fAdvDHListSize10 = getelementptr inbounds %"class.xercesc_2_7::SAX2XMLReaderImpl", %"class.xercesc_2_7::SAX2XMLReaderImpl"* %this1, i32 0, i32 12, !dbg !3149
  %17 = load i32, i32* %fAdvDHListSize10, align 8, !dbg !3149
  %sub = sub i32 %16, %17, !dbg !3150
  %conv11 = zext i32 %sub to i64, !dbg !3151
  %mul12 = mul i64 8, %conv11, !dbg !3152
  call void @llvm.memset.p0i8.i64(i8* align 8 %15, i8 0, i64 %mul12, i1 false), !dbg !3147
  %fMemoryManager13 = getelementptr inbounds %"class.xercesc_2_7::SAX2XMLReaderImpl", %"class.xercesc_2_7::SAX2XMLReaderImpl"* %this1, i32 0, i32 31, !dbg !3153
  %18 = load %"class.xercesc_2_7::MemoryManager"*, %"class.xercesc_2_7::MemoryManager"** %fMemoryManager13, align 8, !dbg !3153
  %fAdvDHList14 = getelementptr inbounds %"class.xercesc_2_7::SAX2XMLReaderImpl", %"class.xercesc_2_7::SAX2XMLReaderImpl"* %this1, i32 0, i32 26, !dbg !3154
  %19 = load %"class.xercesc_2_7::XMLDocumentHandler"**, %"class.xercesc_2_7::XMLDocumentHandler"*** %fAdvDHList14, align 8, !dbg !3154
  %20 = bitcast %"class.xercesc_2_7::XMLDocumentHandler"** %19 to i8*, !dbg !3154
  %21 = bitcast %"class.xercesc_2_7::MemoryManager"* %18 to void (%"class.xercesc_2_7::MemoryManager"*, i8*)***, !dbg !3155
  %vtable15 = load void (%"class.xercesc_2_7::MemoryManager"*, i8*)**, void (%"class.xercesc_2_7::MemoryManager"*, i8*)*** %21, align 8, !dbg !3155
  %vfn16 = getelementptr inbounds void (%"class.xercesc_2_7::MemoryManager"*, i8*)*, void (%"class.xercesc_2_7::MemoryManager"*, i8*)** %vtable15, i64 3, !dbg !3155
  %22 = load void (%"class.xercesc_2_7::MemoryManager"*, i8*)*, void (%"class.xercesc_2_7::MemoryManager"*, i8*)** %vfn16, align 8, !dbg !3155
  call void %22(%"class.xercesc_2_7::MemoryManager"* %18, i8* %20), !dbg !3155
  %23 = load %"class.xercesc_2_7::XMLDocumentHandler"**, %"class.xercesc_2_7::XMLDocumentHandler"*** %newList, align 8, !dbg !3156
  %fAdvDHList17 = getelementptr inbounds %"class.xercesc_2_7::SAX2XMLReaderImpl", %"class.xercesc_2_7::SAX2XMLReaderImpl"* %this1, i32 0, i32 26, !dbg !3157
  store %"class.xercesc_2_7::XMLDocumentHandler"** %23, %"class.xercesc_2_7::XMLDocumentHandler"*** %fAdvDHList17, align 8, !dbg !3158
  %24 = load i32, i32* %newSize, align 4, !dbg !3159
  %fAdvDHListSize18 = getelementptr inbounds %"class.xercesc_2_7::SAX2XMLReaderImpl", %"class.xercesc_2_7::SAX2XMLReaderImpl"* %this1, i32 0, i32 12, !dbg !3160
  store i32 %24, i32* %fAdvDHListSize18, align 8, !dbg !3161
  br label %if.end, !dbg !3162

if.end:                                           ; preds = %if.then, %entry
  %25 = load %"class.xercesc_2_7::XMLDocumentHandler"*, %"class.xercesc_2_7::XMLDocumentHandler"** %toInstall.addr, align 8, !dbg !3163
  %fAdvDHList19 = getelementptr inbounds %"class.xercesc_2_7::SAX2XMLReaderImpl", %"class.xercesc_2_7::SAX2XMLReaderImpl"* %this1, i32 0, i32 26, !dbg !3164
  %26 = load %"class.xercesc_2_7::XMLDocumentHandler"**, %"class.xercesc_2_7::XMLDocumentHandler"*** %fAdvDHList19, align 8, !dbg !3164
  %fAdvDHCount20 = getelementptr inbounds %"class.xercesc_2_7::SAX2XMLReaderImpl", %"class.xercesc_2_7::SAX2XMLReaderImpl"* %this1, i32 0, i32 11, !dbg !3165
  %27 = load i32, i32* %fAdvDHCount20, align 4, !dbg !3166
  %inc = add i32 %27, 1, !dbg !3166
  store i32 %inc, i32* %fAdvDHCount20, align 4, !dbg !3166
  %idxprom21 = zext i32 %27 to i64, !dbg !3164
  %arrayidx22 = getelementptr inbounds %"class.xercesc_2_7::XMLDocumentHandler"*, %"class.xercesc_2_7::XMLDocumentHandler"** %26, i64 %idxprom21, !dbg !3164
  store %"class.xercesc_2_7::XMLDocumentHandler"* %25, %"class.xercesc_2_7::XMLDocumentHandler"** %arrayidx22, align 8, !dbg !3167
  %fScanner = getelementptr inbounds %"class.xercesc_2_7::SAX2XMLReaderImpl", %"class.xercesc_2_7::SAX2XMLReaderImpl"* %this1, i32 0, i32 27, !dbg !3168
  %28 = load %"class.xercesc_2_7::XMLScanner"*, %"class.xercesc_2_7::XMLScanner"** %fScanner, align 8, !dbg !3168
  %29 = bitcast %"class.xercesc_2_7::SAX2XMLReaderImpl"* %this1 to i8*, !dbg !3169
  %add.ptr = getelementptr inbounds i8, i8* %29, i64 8, !dbg !3169
  %30 = bitcast i8* %add.ptr to %"class.xercesc_2_7::XMLDocumentHandler"*, !dbg !3169
  call void @_ZN11xercesc_2_710XMLScanner13setDocHandlerEPNS_18XMLDocumentHandlerE(%"class.xercesc_2_7::XMLScanner"* %28, %"class.xercesc_2_7::XMLDocumentHandler"* %30), !dbg !3170
  ret void, !dbg !3171
}

; Function Attrs: argmemonly nounwind willreturn
declare void @llvm.memcpy.p0i8.p0i8.i64(i8* noalias nocapture writeonly, i8* noalias nocapture readonly, i64, i1 immarg) #9

; Function Attrs: noinline nounwind uwtable
define linkonce_odr dso_local void @_ZN11xercesc_2_710XMLScanner13setDocHandlerEPNS_18XMLDocumentHandlerE(%"class.xercesc_2_7::XMLScanner"* %this, %"class.xercesc_2_7::XMLDocumentHandler"* %docHandler) #1 comdat align 2 !dbg !3172 {
entry:
  %this.addr = alloca %"class.xercesc_2_7::XMLScanner"*, align 8
  %docHandler.addr = alloca %"class.xercesc_2_7::XMLDocumentHandler"*, align 8
  store %"class.xercesc_2_7::XMLScanner"* %this, %"class.xercesc_2_7::XMLScanner"** %this.addr, align 8
  call void @llvm.dbg.declare(metadata %"class.xercesc_2_7::XMLScanner"** %this.addr, metadata !3177, metadata !DIExpression()), !dbg !3178
  store %"class.xercesc_2_7::XMLDocumentHandler"* %docHandler, %"class.xercesc_2_7::XMLDocumentHandler"** %docHandler.addr, align 8
  call void @llvm.dbg.declare(metadata %"class.xercesc_2_7::XMLDocumentHandler"** %docHandler.addr, metadata !3179, metadata !DIExpression()), !dbg !3180
  %this1 = load %"class.xercesc_2_7::XMLScanner"*, %"class.xercesc_2_7::XMLScanner"** %this.addr, align 8
  %0 = load %"class.xercesc_2_7::XMLDocumentHandler"*, %"class.xercesc_2_7::XMLDocumentHandler"** %docHandler.addr, align 8, !dbg !3181
  %fDocHandler = getelementptr inbounds %"class.xercesc_2_7::XMLScanner", %"class.xercesc_2_7::XMLScanner"* %this1, i32 0, i32 41, !dbg !3182
  store %"class.xercesc_2_7::XMLDocumentHandler"* %0, %"class.xercesc_2_7::XMLDocumentHandler"** %fDocHandler, align 8, !dbg !3183
  ret void, !dbg !3184
}

; Function Attrs: noinline uwtable
define dso_local zeroext i1 @_ZN11xercesc_2_717SAX2XMLReaderImpl19removeAdvDocHandlerEPNS_18XMLDocumentHandlerE(%"class.xercesc_2_7::SAX2XMLReaderImpl"* %this, %"class.xercesc_2_7::XMLDocumentHandler"* %toRemove) unnamed_addr #6 align 2 !dbg !3185 {
entry:
  %retval = alloca i1, align 1
  %this.addr = alloca %"class.xercesc_2_7::SAX2XMLReaderImpl"*, align 8
  %toRemove.addr = alloca %"class.xercesc_2_7::XMLDocumentHandler"*, align 8
  %index = alloca i32, align 4
  store %"class.xercesc_2_7::SAX2XMLReaderImpl"* %this, %"class.xercesc_2_7::SAX2XMLReaderImpl"** %this.addr, align 8
  call void @llvm.dbg.declare(metadata %"class.xercesc_2_7::SAX2XMLReaderImpl"** %this.addr, metadata !3186, metadata !DIExpression()), !dbg !3187
  store %"class.xercesc_2_7::XMLDocumentHandler"* %toRemove, %"class.xercesc_2_7::XMLDocumentHandler"** %toRemove.addr, align 8
  call void @llvm.dbg.declare(metadata %"class.xercesc_2_7::XMLDocumentHandler"** %toRemove.addr, metadata !3188, metadata !DIExpression()), !dbg !3189
  %this1 = load %"class.xercesc_2_7::SAX2XMLReaderImpl"*, %"class.xercesc_2_7::SAX2XMLReaderImpl"** %this.addr, align 8
  %fAdvDHCount = getelementptr inbounds %"class.xercesc_2_7::SAX2XMLReaderImpl", %"class.xercesc_2_7::SAX2XMLReaderImpl"* %this1, i32 0, i32 11, !dbg !3190
  %0 = load i32, i32* %fAdvDHCount, align 4, !dbg !3190
  %tobool = icmp ne i32 %0, 0, !dbg !3190
  br i1 %tobool, label %if.end, label %if.then, !dbg !3192

if.then:                                          ; preds = %entry
  store i1 false, i1* %retval, align 1, !dbg !3193
  br label %return, !dbg !3193

if.end:                                           ; preds = %entry
  call void @llvm.dbg.declare(metadata i32* %index, metadata !3194, metadata !DIExpression()), !dbg !3195
  store i32 0, i32* %index, align 4, !dbg !3196
  br label %for.cond, !dbg !3198

for.cond:                                         ; preds = %for.inc, %if.end
  %1 = load i32, i32* %index, align 4, !dbg !3199
  %fAdvDHCount2 = getelementptr inbounds %"class.xercesc_2_7::SAX2XMLReaderImpl", %"class.xercesc_2_7::SAX2XMLReaderImpl"* %this1, i32 0, i32 11, !dbg !3201
  %2 = load i32, i32* %fAdvDHCount2, align 4, !dbg !3201
  %cmp = icmp ult i32 %1, %2, !dbg !3202
  br i1 %cmp, label %for.body, label %for.end, !dbg !3203

for.body:                                         ; preds = %for.cond
  %fAdvDHList = getelementptr inbounds %"class.xercesc_2_7::SAX2XMLReaderImpl", %"class.xercesc_2_7::SAX2XMLReaderImpl"* %this1, i32 0, i32 26, !dbg !3204
  %3 = load %"class.xercesc_2_7::XMLDocumentHandler"**, %"class.xercesc_2_7::XMLDocumentHandler"*** %fAdvDHList, align 8, !dbg !3204
  %4 = load i32, i32* %index, align 4, !dbg !3207
  %idxprom = zext i32 %4 to i64, !dbg !3204
  %arrayidx = getelementptr inbounds %"class.xercesc_2_7::XMLDocumentHandler"*, %"class.xercesc_2_7::XMLDocumentHandler"** %3, i64 %idxprom, !dbg !3204
  %5 = load %"class.xercesc_2_7::XMLDocumentHandler"*, %"class.xercesc_2_7::XMLDocumentHandler"** %arrayidx, align 8, !dbg !3204
  %6 = load %"class.xercesc_2_7::XMLDocumentHandler"*, %"class.xercesc_2_7::XMLDocumentHandler"** %toRemove.addr, align 8, !dbg !3208
  %cmp3 = icmp eq %"class.xercesc_2_7::XMLDocumentHandler"* %5, %6, !dbg !3209
  br i1 %cmp3, label %if.then4, label %if.end27, !dbg !3210

if.then4:                                         ; preds = %for.body
  %fAdvDHCount5 = getelementptr inbounds %"class.xercesc_2_7::SAX2XMLReaderImpl", %"class.xercesc_2_7::SAX2XMLReaderImpl"* %this1, i32 0, i32 11, !dbg !3211
  %7 = load i32, i32* %fAdvDHCount5, align 4, !dbg !3211
  %cmp6 = icmp ugt i32 %7, 1, !dbg !3214
  br i1 %cmp6, label %if.then7, label %if.end16, !dbg !3215

if.then7:                                         ; preds = %if.then4
  %8 = load i32, i32* %index, align 4, !dbg !3216
  %inc = add i32 %8, 1, !dbg !3216
  store i32 %inc, i32* %index, align 4, !dbg !3216
  br label %while.cond, !dbg !3218

while.cond:                                       ; preds = %while.body, %if.then7
  %9 = load i32, i32* %index, align 4, !dbg !3219
  %fAdvDHCount8 = getelementptr inbounds %"class.xercesc_2_7::SAX2XMLReaderImpl", %"class.xercesc_2_7::SAX2XMLReaderImpl"* %this1, i32 0, i32 11, !dbg !3220
  %10 = load i32, i32* %fAdvDHCount8, align 4, !dbg !3220
  %cmp9 = icmp ult i32 %9, %10, !dbg !3221
  br i1 %cmp9, label %while.body, label %while.end, !dbg !3218

while.body:                                       ; preds = %while.cond
  %fAdvDHList10 = getelementptr inbounds %"class.xercesc_2_7::SAX2XMLReaderImpl", %"class.xercesc_2_7::SAX2XMLReaderImpl"* %this1, i32 0, i32 26, !dbg !3222
  %11 = load %"class.xercesc_2_7::XMLDocumentHandler"**, %"class.xercesc_2_7::XMLDocumentHandler"*** %fAdvDHList10, align 8, !dbg !3222
  %12 = load i32, i32* %index, align 4, !dbg !3223
  %idxprom11 = zext i32 %12 to i64, !dbg !3222
  %arrayidx12 = getelementptr inbounds %"class.xercesc_2_7::XMLDocumentHandler"*, %"class.xercesc_2_7::XMLDocumentHandler"** %11, i64 %idxprom11, !dbg !3222
  %13 = load %"class.xercesc_2_7::XMLDocumentHandler"*, %"class.xercesc_2_7::XMLDocumentHandler"** %arrayidx12, align 8, !dbg !3222
  %fAdvDHList13 = getelementptr inbounds %"class.xercesc_2_7::SAX2XMLReaderImpl", %"class.xercesc_2_7::SAX2XMLReaderImpl"* %this1, i32 0, i32 26, !dbg !3224
  %14 = load %"class.xercesc_2_7::XMLDocumentHandler"**, %"class.xercesc_2_7::XMLDocumentHandler"*** %fAdvDHList13, align 8, !dbg !3224
  %15 = load i32, i32* %index, align 4, !dbg !3225
  %sub = sub i32 %15, 1, !dbg !3226
  %idxprom14 = zext i32 %sub to i64, !dbg !3224
  %arrayidx15 = getelementptr inbounds %"class.xercesc_2_7::XMLDocumentHandler"*, %"class.xercesc_2_7::XMLDocumentHandler"** %14, i64 %idxprom14, !dbg !3224
  store %"class.xercesc_2_7::XMLDocumentHandler"* %13, %"class.xercesc_2_7::XMLDocumentHandler"** %arrayidx15, align 8, !dbg !3227
  br label %while.cond, !dbg !3218, !llvm.loop !3228

while.end:                                        ; preds = %while.cond
  br label %if.end16, !dbg !3230

if.end16:                                         ; preds = %while.end, %if.then4
  %fAdvDHCount17 = getelementptr inbounds %"class.xercesc_2_7::SAX2XMLReaderImpl", %"class.xercesc_2_7::SAX2XMLReaderImpl"* %this1, i32 0, i32 11, !dbg !3231
  %16 = load i32, i32* %fAdvDHCount17, align 4, !dbg !3232
  %dec = add i32 %16, -1, !dbg !3232
  store i32 %dec, i32* %fAdvDHCount17, align 4, !dbg !3232
  %fAdvDHList18 = getelementptr inbounds %"class.xercesc_2_7::SAX2XMLReaderImpl", %"class.xercesc_2_7::SAX2XMLReaderImpl"* %this1, i32 0, i32 26, !dbg !3233
  %17 = load %"class.xercesc_2_7::XMLDocumentHandler"**, %"class.xercesc_2_7::XMLDocumentHandler"*** %fAdvDHList18, align 8, !dbg !3233
  %fAdvDHCount19 = getelementptr inbounds %"class.xercesc_2_7::SAX2XMLReaderImpl", %"class.xercesc_2_7::SAX2XMLReaderImpl"* %this1, i32 0, i32 11, !dbg !3234
  %18 = load i32, i32* %fAdvDHCount19, align 4, !dbg !3234
  %idxprom20 = zext i32 %18 to i64, !dbg !3233
  %arrayidx21 = getelementptr inbounds %"class.xercesc_2_7::XMLDocumentHandler"*, %"class.xercesc_2_7::XMLDocumentHandler"** %17, i64 %idxprom20, !dbg !3233
  store %"class.xercesc_2_7::XMLDocumentHandler"* null, %"class.xercesc_2_7::XMLDocumentHandler"** %arrayidx21, align 8, !dbg !3235
  %fAdvDHCount22 = getelementptr inbounds %"class.xercesc_2_7::SAX2XMLReaderImpl", %"class.xercesc_2_7::SAX2XMLReaderImpl"* %this1, i32 0, i32 11, !dbg !3236
  %19 = load i32, i32* %fAdvDHCount22, align 4, !dbg !3236
  %tobool23 = icmp ne i32 %19, 0, !dbg !3236
  br i1 %tobool23, label %if.end26, label %land.lhs.true, !dbg !3238

land.lhs.true:                                    ; preds = %if.end16
  %fDocHandler = getelementptr inbounds %"class.xercesc_2_7::SAX2XMLReaderImpl", %"class.xercesc_2_7::SAX2XMLReaderImpl"* %this1, i32 0, i32 14, !dbg !3239
  %20 = load %"class.xercesc_2_7::ContentHandler"*, %"class.xercesc_2_7::ContentHandler"** %fDocHandler, align 8, !dbg !3239
  %tobool24 = icmp ne %"class.xercesc_2_7::ContentHandler"* %20, null, !dbg !3239
  br i1 %tobool24, label %if.end26, label %if.then25, !dbg !3240

if.then25:                                        ; preds = %land.lhs.true
  %fScanner = getelementptr inbounds %"class.xercesc_2_7::SAX2XMLReaderImpl", %"class.xercesc_2_7::SAX2XMLReaderImpl"* %this1, i32 0, i32 27, !dbg !3241
  %21 = load %"class.xercesc_2_7::XMLScanner"*, %"class.xercesc_2_7::XMLScanner"** %fScanner, align 8, !dbg !3241
  call void @_ZN11xercesc_2_710XMLScanner13setDocHandlerEPNS_18XMLDocumentHandlerE(%"class.xercesc_2_7::XMLScanner"* %21, %"class.xercesc_2_7::XMLDocumentHandler"* null), !dbg !3242
  br label %if.end26, !dbg !3241

if.end26:                                         ; preds = %if.then25, %land.lhs.true, %if.end16
  store i1 true, i1* %retval, align 1, !dbg !3243
  br label %return, !dbg !3243

if.end27:                                         ; preds = %for.body
  br label %for.inc, !dbg !3244

for.inc:                                          ; preds = %if.end27
  %22 = load i32, i32* %index, align 4, !dbg !3245
  %inc28 = add i32 %22, 1, !dbg !3245
  store i32 %inc28, i32* %index, align 4, !dbg !3245
  br label %for.cond, !dbg !3246, !llvm.loop !3247

for.end:                                          ; preds = %for.cond
  store i1 false, i1* %retval, align 1, !dbg !3249
  br label %return, !dbg !3249

return:                                           ; preds = %for.end, %if.end26, %if.then
  %23 = load i1, i1* %retval, align 1, !dbg !3250
  ret i1 %23, !dbg !3250
}

; Function Attrs: noinline uwtable
define dso_local void @_ZN11xercesc_2_717SAX2XMLReaderImpl12setValidatorEPNS_12XMLValidatorE(%"class.xercesc_2_7::SAX2XMLReaderImpl"* %this, %"class.xercesc_2_7::XMLValidator"* %valueToAdopt) unnamed_addr #6 align 2 !dbg !3251 {
entry:
  %this.addr = alloca %"class.xercesc_2_7::SAX2XMLReaderImpl"*, align 8
  %valueToAdopt.addr = alloca %"class.xercesc_2_7::XMLValidator"*, align 8
  store %"class.xercesc_2_7::SAX2XMLReaderImpl"* %this, %"class.xercesc_2_7::SAX2XMLReaderImpl"** %this.addr, align 8
  call void @llvm.dbg.declare(metadata %"class.xercesc_2_7::SAX2XMLReaderImpl"** %this.addr, metadata !3252, metadata !DIExpression()), !dbg !3253
  store %"class.xercesc_2_7::XMLValidator"* %valueToAdopt, %"class.xercesc_2_7::XMLValidator"** %valueToAdopt.addr, align 8
  call void @llvm.dbg.declare(metadata %"class.xercesc_2_7::XMLValidator"** %valueToAdopt.addr, metadata !3254, metadata !DIExpression()), !dbg !3255
  %this1 = load %"class.xercesc_2_7::SAX2XMLReaderImpl"*, %"class.xercesc_2_7::SAX2XMLReaderImpl"** %this.addr, align 8
  %0 = load %"class.xercesc_2_7::XMLValidator"*, %"class.xercesc_2_7::XMLValidator"** %valueToAdopt.addr, align 8, !dbg !3256
  %fValidator = getelementptr inbounds %"class.xercesc_2_7::SAX2XMLReaderImpl", %"class.xercesc_2_7::SAX2XMLReaderImpl"* %this1, i32 0, i32 30, !dbg !3257
  store %"class.xercesc_2_7::XMLValidator"* %0, %"class.xercesc_2_7::XMLValidator"** %fValidator, align 8, !dbg !3258
  %fScanner = getelementptr inbounds %"class.xercesc_2_7::SAX2XMLReaderImpl", %"class.xercesc_2_7::SAX2XMLReaderImpl"* %this1, i32 0, i32 27, !dbg !3259
  %1 = load %"class.xercesc_2_7::XMLScanner"*, %"class.xercesc_2_7::XMLScanner"** %fScanner, align 8, !dbg !3259
  %2 = load %"class.xercesc_2_7::XMLValidator"*, %"class.xercesc_2_7::XMLValidator"** %valueToAdopt.addr, align 8, !dbg !3260
  call void @_ZN11xercesc_2_710XMLScanner12setValidatorEPNS_12XMLValidatorE(%"class.xercesc_2_7::XMLScanner"* %1, %"class.xercesc_2_7::XMLValidator"* %2), !dbg !3261
  ret void, !dbg !3262
}

declare dso_local void @_ZN11xercesc_2_710XMLScanner12setValidatorEPNS_12XMLValidatorE(%"class.xercesc_2_7::XMLScanner"*, %"class.xercesc_2_7::XMLValidator"*) #7

; Function Attrs: noinline uwtable
define dso_local %"class.xercesc_2_7::XMLValidator"* @_ZNK11xercesc_2_717SAX2XMLReaderImpl12getValidatorEv(%"class.xercesc_2_7::SAX2XMLReaderImpl"* %this) unnamed_addr #6 align 2 !dbg !3263 {
entry:
  %this.addr = alloca %"class.xercesc_2_7::SAX2XMLReaderImpl"*, align 8
  store %"class.xercesc_2_7::SAX2XMLReaderImpl"* %this, %"class.xercesc_2_7::SAX2XMLReaderImpl"** %this.addr, align 8
  call void @llvm.dbg.declare(metadata %"class.xercesc_2_7::SAX2XMLReaderImpl"** %this.addr, metadata !3264, metadata !DIExpression()), !dbg !3266
  %this1 = load %"class.xercesc_2_7::SAX2XMLReaderImpl"*, %"class.xercesc_2_7::SAX2XMLReaderImpl"** %this.addr, align 8
  %fScanner = getelementptr inbounds %"class.xercesc_2_7::SAX2XMLReaderImpl", %"class.xercesc_2_7::SAX2XMLReaderImpl"* %this1, i32 0, i32 27, !dbg !3267
  %0 = load %"class.xercesc_2_7::XMLScanner"*, %"class.xercesc_2_7::XMLScanner"** %fScanner, align 8, !dbg !3267
  %call = call %"class.xercesc_2_7::XMLValidator"* @_ZN11xercesc_2_710XMLScanner12getValidatorEv(%"class.xercesc_2_7::XMLScanner"* %0), !dbg !3268
  ret %"class.xercesc_2_7::XMLValidator"* %call, !dbg !3269
}

; Function Attrs: noinline nounwind uwtable
define linkonce_odr dso_local %"class.xercesc_2_7::XMLValidator"* @_ZN11xercesc_2_710XMLScanner12getValidatorEv(%"class.xercesc_2_7::XMLScanner"* %this) #1 comdat align 2 !dbg !3270 {
entry:
  %this.addr = alloca %"class.xercesc_2_7::XMLScanner"*, align 8
  store %"class.xercesc_2_7::XMLScanner"* %this, %"class.xercesc_2_7::XMLScanner"** %this.addr, align 8
  call void @llvm.dbg.declare(metadata %"class.xercesc_2_7::XMLScanner"** %this.addr, metadata !3274, metadata !DIExpression()), !dbg !3275
  %this1 = load %"class.xercesc_2_7::XMLScanner"*, %"class.xercesc_2_7::XMLScanner"** %this.addr, align 8
  %fValidator = getelementptr inbounds %"class.xercesc_2_7::XMLScanner", %"class.xercesc_2_7::XMLScanner"* %this1, i32 0, i32 50, !dbg !3276
  %0 = load %"class.xercesc_2_7::XMLValidator"*, %"class.xercesc_2_7::XMLValidator"** %fValidator, align 8, !dbg !3276
  ret %"class.xercesc_2_7::XMLValidator"* %0, !dbg !3277
}

; Function Attrs: noinline uwtable
define dso_local i32 @_ZNK11xercesc_2_717SAX2XMLReaderImpl13getErrorCountEv(%"class.xercesc_2_7::SAX2XMLReaderImpl"* %this) unnamed_addr #6 align 2 !dbg !3278 {
entry:
  %this.addr = alloca %"class.xercesc_2_7::SAX2XMLReaderImpl"*, align 8
  store %"class.xercesc_2_7::SAX2XMLReaderImpl"* %this, %"class.xercesc_2_7::SAX2XMLReaderImpl"** %this.addr, align 8
  call void @llvm.dbg.declare(metadata %"class.xercesc_2_7::SAX2XMLReaderImpl"** %this.addr, metadata !3279, metadata !DIExpression()), !dbg !3280
  %this1 = load %"class.xercesc_2_7::SAX2XMLReaderImpl"*, %"class.xercesc_2_7::SAX2XMLReaderImpl"** %this.addr, align 8
  %fScanner = getelementptr inbounds %"class.xercesc_2_7::SAX2XMLReaderImpl", %"class.xercesc_2_7::SAX2XMLReaderImpl"* %this1, i32 0, i32 27, !dbg !3281
  %0 = load %"class.xercesc_2_7::XMLScanner"*, %"class.xercesc_2_7::XMLScanner"** %fScanner, align 8, !dbg !3281
  %call = call i32 @_ZN11xercesc_2_710XMLScanner13getErrorCountEv(%"class.xercesc_2_7::XMLScanner"* %0), !dbg !3282
  ret i32 %call, !dbg !3283
}

; Function Attrs: noinline nounwind uwtable
define linkonce_odr dso_local i32 @_ZN11xercesc_2_710XMLScanner13getErrorCountEv(%"class.xercesc_2_7::XMLScanner"* %this) #1 comdat align 2 !dbg !3284 {
entry:
  %this.addr = alloca %"class.xercesc_2_7::XMLScanner"*, align 8
  store %"class.xercesc_2_7::XMLScanner"* %this, %"class.xercesc_2_7::XMLScanner"** %this.addr, align 8
  call void @llvm.dbg.declare(metadata %"class.xercesc_2_7::XMLScanner"** %this.addr, metadata !3288, metadata !DIExpression()), !dbg !3289
  %this1 = load %"class.xercesc_2_7::XMLScanner"*, %"class.xercesc_2_7::XMLScanner"** %this.addr, align 8
  %fErrorCount = getelementptr inbounds %"class.xercesc_2_7::XMLScanner", %"class.xercesc_2_7::XMLScanner"* %this1, i32 0, i32 25, !dbg !3290
  %0 = load i32, i32* %fErrorCount, align 8, !dbg !3290
  ret i32 %0, !dbg !3291
}

; Function Attrs: noinline uwtable
define dso_local void @_ZN11xercesc_2_717SAX2XMLReaderImpl17setContentHandlerEPNS_14ContentHandlerE(%"class.xercesc_2_7::SAX2XMLReaderImpl"* %this, %"class.xercesc_2_7::ContentHandler"* %handler) unnamed_addr #6 align 2 !dbg !3292 {
entry:
  %this.addr = alloca %"class.xercesc_2_7::SAX2XMLReaderImpl"*, align 8
  %handler.addr = alloca %"class.xercesc_2_7::ContentHandler"*, align 8
  store %"class.xercesc_2_7::SAX2XMLReaderImpl"* %this, %"class.xercesc_2_7::SAX2XMLReaderImpl"** %this.addr, align 8
  call void @llvm.dbg.declare(metadata %"class.xercesc_2_7::SAX2XMLReaderImpl"** %this.addr, metadata !3293, metadata !DIExpression()), !dbg !3294
  store %"class.xercesc_2_7::ContentHandler"* %handler, %"class.xercesc_2_7::ContentHandler"** %handler.addr, align 8
  call void @llvm.dbg.declare(metadata %"class.xercesc_2_7::ContentHandler"** %handler.addr, metadata !3295, metadata !DIExpression()), !dbg !3296
  %this1 = load %"class.xercesc_2_7::SAX2XMLReaderImpl"*, %"class.xercesc_2_7::SAX2XMLReaderImpl"** %this.addr, align 8
  %0 = load %"class.xercesc_2_7::ContentHandler"*, %"class.xercesc_2_7::ContentHandler"** %handler.addr, align 8, !dbg !3297
  %fDocHandler = getelementptr inbounds %"class.xercesc_2_7::SAX2XMLReaderImpl", %"class.xercesc_2_7::SAX2XMLReaderImpl"* %this1, i32 0, i32 14, !dbg !3298
  store %"class.xercesc_2_7::ContentHandler"* %0, %"class.xercesc_2_7::ContentHandler"** %fDocHandler, align 8, !dbg !3299
  %fDocHandler2 = getelementptr inbounds %"class.xercesc_2_7::SAX2XMLReaderImpl", %"class.xercesc_2_7::SAX2XMLReaderImpl"* %this1, i32 0, i32 14, !dbg !3300
  %1 = load %"class.xercesc_2_7::ContentHandler"*, %"class.xercesc_2_7::ContentHandler"** %fDocHandler2, align 8, !dbg !3300
  %tobool = icmp ne %"class.xercesc_2_7::ContentHandler"* %1, null, !dbg !3300
  br i1 %tobool, label %if.then, label %if.else, !dbg !3302

if.then:                                          ; preds = %entry
  %fScanner = getelementptr inbounds %"class.xercesc_2_7::SAX2XMLReaderImpl", %"class.xercesc_2_7::SAX2XMLReaderImpl"* %this1, i32 0, i32 27, !dbg !3303
  %2 = load %"class.xercesc_2_7::XMLScanner"*, %"class.xercesc_2_7::XMLScanner"** %fScanner, align 8, !dbg !3303
  %3 = bitcast %"class.xercesc_2_7::SAX2XMLReaderImpl"* %this1 to i8*, !dbg !3305
  %add.ptr = getelementptr inbounds i8, i8* %3, i64 8, !dbg !3305
  %4 = bitcast i8* %add.ptr to %"class.xercesc_2_7::XMLDocumentHandler"*, !dbg !3305
  call void @_ZN11xercesc_2_710XMLScanner13setDocHandlerEPNS_18XMLDocumentHandlerE(%"class.xercesc_2_7::XMLScanner"* %2, %"class.xercesc_2_7::XMLDocumentHandler"* %4), !dbg !3306
  br label %if.end6, !dbg !3307

if.else:                                          ; preds = %entry
  %fAdvDHCount = getelementptr inbounds %"class.xercesc_2_7::SAX2XMLReaderImpl", %"class.xercesc_2_7::SAX2XMLReaderImpl"* %this1, i32 0, i32 11, !dbg !3308
  %5 = load i32, i32* %fAdvDHCount, align 4, !dbg !3308
  %tobool3 = icmp ne i32 %5, 0, !dbg !3308
  br i1 %tobool3, label %if.end, label %if.then4, !dbg !3311

if.then4:                                         ; preds = %if.else
  %fScanner5 = getelementptr inbounds %"class.xercesc_2_7::SAX2XMLReaderImpl", %"class.xercesc_2_7::SAX2XMLReaderImpl"* %this1, i32 0, i32 27, !dbg !3312
  %6 = load %"class.xercesc_2_7::XMLScanner"*, %"class.xercesc_2_7::XMLScanner"** %fScanner5, align 8, !dbg !3312
  call void @_ZN11xercesc_2_710XMLScanner13setDocHandlerEPNS_18XMLDocumentHandlerE(%"class.xercesc_2_7::XMLScanner"* %6, %"class.xercesc_2_7::XMLDocumentHandler"* null), !dbg !3313
  br label %if.end, !dbg !3312

if.end:                                           ; preds = %if.then4, %if.else
  br label %if.end6

if.end6:                                          ; preds = %if.end, %if.then
  ret void, !dbg !3314
}

; Function Attrs: noinline uwtable
define dso_local void @_ZN11xercesc_2_717SAX2XMLReaderImpl13setDTDHandlerEPNS_10DTDHandlerE(%"class.xercesc_2_7::SAX2XMLReaderImpl"* %this, %"class.xercesc_2_7::DTDHandler"* %handler) unnamed_addr #6 align 2 !dbg !3315 {
entry:
  %this.addr = alloca %"class.xercesc_2_7::SAX2XMLReaderImpl"*, align 8
  %handler.addr = alloca %"class.xercesc_2_7::DTDHandler"*, align 8
  store %"class.xercesc_2_7::SAX2XMLReaderImpl"* %this, %"class.xercesc_2_7::SAX2XMLReaderImpl"** %this.addr, align 8
  call void @llvm.dbg.declare(metadata %"class.xercesc_2_7::SAX2XMLReaderImpl"** %this.addr, metadata !3316, metadata !DIExpression()), !dbg !3317
  store %"class.xercesc_2_7::DTDHandler"* %handler, %"class.xercesc_2_7::DTDHandler"** %handler.addr, align 8
  call void @llvm.dbg.declare(metadata %"class.xercesc_2_7::DTDHandler"** %handler.addr, metadata !3318, metadata !DIExpression()), !dbg !3319
  %this1 = load %"class.xercesc_2_7::SAX2XMLReaderImpl"*, %"class.xercesc_2_7::SAX2XMLReaderImpl"** %this.addr, align 8
  %0 = load %"class.xercesc_2_7::DTDHandler"*, %"class.xercesc_2_7::DTDHandler"** %handler.addr, align 8, !dbg !3320
  %fDTDHandler = getelementptr inbounds %"class.xercesc_2_7::SAX2XMLReaderImpl", %"class.xercesc_2_7::SAX2XMLReaderImpl"* %this1, i32 0, i32 19, !dbg !3321
  store %"class.xercesc_2_7::DTDHandler"* %0, %"class.xercesc_2_7::DTDHandler"** %fDTDHandler, align 8, !dbg !3322
  %fDTDHandler2 = getelementptr inbounds %"class.xercesc_2_7::SAX2XMLReaderImpl", %"class.xercesc_2_7::SAX2XMLReaderImpl"* %this1, i32 0, i32 19, !dbg !3323
  %1 = load %"class.xercesc_2_7::DTDHandler"*, %"class.xercesc_2_7::DTDHandler"** %fDTDHandler2, align 8, !dbg !3323
  %tobool = icmp ne %"class.xercesc_2_7::DTDHandler"* %1, null, !dbg !3323
  br i1 %tobool, label %if.then, label %if.else, !dbg !3325

if.then:                                          ; preds = %entry
  %fScanner = getelementptr inbounds %"class.xercesc_2_7::SAX2XMLReaderImpl", %"class.xercesc_2_7::SAX2XMLReaderImpl"* %this1, i32 0, i32 27, !dbg !3326
  %2 = load %"class.xercesc_2_7::XMLScanner"*, %"class.xercesc_2_7::XMLScanner"** %fScanner, align 8, !dbg !3326
  %3 = bitcast %"class.xercesc_2_7::SAX2XMLReaderImpl"* %this1 to i8*, !dbg !3327
  %add.ptr = getelementptr inbounds i8, i8* %3, i64 32, !dbg !3327
  %4 = bitcast i8* %add.ptr to %"class.xercesc_2_7::DocTypeHandler"*, !dbg !3327
  call void @_ZN11xercesc_2_710XMLScanner17setDocTypeHandlerEPNS_14DocTypeHandlerE(%"class.xercesc_2_7::XMLScanner"* %2, %"class.xercesc_2_7::DocTypeHandler"* %4), !dbg !3328
  br label %if.end, !dbg !3326

if.else:                                          ; preds = %entry
  %fScanner3 = getelementptr inbounds %"class.xercesc_2_7::SAX2XMLReaderImpl", %"class.xercesc_2_7::SAX2XMLReaderImpl"* %this1, i32 0, i32 27, !dbg !3329
  %5 = load %"class.xercesc_2_7::XMLScanner"*, %"class.xercesc_2_7::XMLScanner"** %fScanner3, align 8, !dbg !3329
  call void @_ZN11xercesc_2_710XMLScanner17setDocTypeHandlerEPNS_14DocTypeHandlerE(%"class.xercesc_2_7::XMLScanner"* %5, %"class.xercesc_2_7::DocTypeHandler"* null), !dbg !3330
  br label %if.end

if.end:                                           ; preds = %if.else, %if.then
  ret void, !dbg !3331
}

; Function Attrs: noinline nounwind uwtable
define linkonce_odr dso_local void @_ZN11xercesc_2_710XMLScanner17setDocTypeHandlerEPNS_14DocTypeHandlerE(%"class.xercesc_2_7::XMLScanner"* %this, %"class.xercesc_2_7::DocTypeHandler"* %docTypeHandler) #1 comdat align 2 !dbg !3332 {
entry:
  %this.addr = alloca %"class.xercesc_2_7::XMLScanner"*, align 8
  %docTypeHandler.addr = alloca %"class.xercesc_2_7::DocTypeHandler"*, align 8
  store %"class.xercesc_2_7::XMLScanner"* %this, %"class.xercesc_2_7::XMLScanner"** %this.addr, align 8
  call void @llvm.dbg.declare(metadata %"class.xercesc_2_7::XMLScanner"** %this.addr, metadata !3337, metadata !DIExpression()), !dbg !3338
  store %"class.xercesc_2_7::DocTypeHandler"* %docTypeHandler, %"class.xercesc_2_7::DocTypeHandler"** %docTypeHandler.addr, align 8
  call void @llvm.dbg.declare(metadata %"class.xercesc_2_7::DocTypeHandler"** %docTypeHandler.addr, metadata !3339, metadata !DIExpression()), !dbg !3340
  %this1 = load %"class.xercesc_2_7::XMLScanner"*, %"class.xercesc_2_7::XMLScanner"** %this.addr, align 8
  %0 = load %"class.xercesc_2_7::DocTypeHandler"*, %"class.xercesc_2_7::DocTypeHandler"** %docTypeHandler.addr, align 8, !dbg !3341
  %fDocTypeHandler = getelementptr inbounds %"class.xercesc_2_7::XMLScanner", %"class.xercesc_2_7::XMLScanner"* %this1, i32 0, i32 42, !dbg !3342
  store %"class.xercesc_2_7::DocTypeHandler"* %0, %"class.xercesc_2_7::DocTypeHandler"** %fDocTypeHandler, align 8, !dbg !3343
  ret void, !dbg !3344
}

; Function Attrs: noinline uwtable
define dso_local void @_ZN11xercesc_2_717SAX2XMLReaderImpl15setErrorHandlerEPNS_12ErrorHandlerE(%"class.xercesc_2_7::SAX2XMLReaderImpl"* %this, %"class.xercesc_2_7::ErrorHandler"* %handler) unnamed_addr #6 align 2 !dbg !3345 {
entry:
  %this.addr = alloca %"class.xercesc_2_7::SAX2XMLReaderImpl"*, align 8
  %handler.addr = alloca %"class.xercesc_2_7::ErrorHandler"*, align 8
  store %"class.xercesc_2_7::SAX2XMLReaderImpl"* %this, %"class.xercesc_2_7::SAX2XMLReaderImpl"** %this.addr, align 8
  call void @llvm.dbg.declare(metadata %"class.xercesc_2_7::SAX2XMLReaderImpl"** %this.addr, metadata !3346, metadata !DIExpression()), !dbg !3347
  store %"class.xercesc_2_7::ErrorHandler"* %handler, %"class.xercesc_2_7::ErrorHandler"** %handler.addr, align 8
  call void @llvm.dbg.declare(metadata %"class.xercesc_2_7::ErrorHandler"** %handler.addr, metadata !3348, metadata !DIExpression()), !dbg !3349
  %this1 = load %"class.xercesc_2_7::SAX2XMLReaderImpl"*, %"class.xercesc_2_7::SAX2XMLReaderImpl"** %this.addr, align 8
  %0 = load %"class.xercesc_2_7::ErrorHandler"*, %"class.xercesc_2_7::ErrorHandler"** %handler.addr, align 8, !dbg !3350
  %fErrorHandler = getelementptr inbounds %"class.xercesc_2_7::SAX2XMLReaderImpl", %"class.xercesc_2_7::SAX2XMLReaderImpl"* %this1, i32 0, i32 22, !dbg !3351
  store %"class.xercesc_2_7::ErrorHandler"* %0, %"class.xercesc_2_7::ErrorHandler"** %fErrorHandler, align 8, !dbg !3352
  %fErrorHandler2 = getelementptr inbounds %"class.xercesc_2_7::SAX2XMLReaderImpl", %"class.xercesc_2_7::SAX2XMLReaderImpl"* %this1, i32 0, i32 22, !dbg !3353
  %1 = load %"class.xercesc_2_7::ErrorHandler"*, %"class.xercesc_2_7::ErrorHandler"** %fErrorHandler2, align 8, !dbg !3353
  %tobool = icmp ne %"class.xercesc_2_7::ErrorHandler"* %1, null, !dbg !3353
  br i1 %tobool, label %if.then, label %if.else, !dbg !3355

if.then:                                          ; preds = %entry
  %fScanner = getelementptr inbounds %"class.xercesc_2_7::SAX2XMLReaderImpl", %"class.xercesc_2_7::SAX2XMLReaderImpl"* %this1, i32 0, i32 27, !dbg !3356
  %2 = load %"class.xercesc_2_7::XMLScanner"*, %"class.xercesc_2_7::XMLScanner"** %fScanner, align 8, !dbg !3356
  %3 = bitcast %"class.xercesc_2_7::SAX2XMLReaderImpl"* %this1 to i8*, !dbg !3358
  %add.ptr = getelementptr inbounds i8, i8* %3, i64 16, !dbg !3358
  %4 = bitcast i8* %add.ptr to %"class.xercesc_2_7::XMLErrorReporter"*, !dbg !3358
  call void @_ZN11xercesc_2_710XMLScanner16setErrorReporterEPNS_16XMLErrorReporterE(%"class.xercesc_2_7::XMLScanner"* %2, %"class.xercesc_2_7::XMLErrorReporter"* %4), !dbg !3359
  %fScanner3 = getelementptr inbounds %"class.xercesc_2_7::SAX2XMLReaderImpl", %"class.xercesc_2_7::SAX2XMLReaderImpl"* %this1, i32 0, i32 27, !dbg !3360
  %5 = load %"class.xercesc_2_7::XMLScanner"*, %"class.xercesc_2_7::XMLScanner"** %fScanner3, align 8, !dbg !3360
  %fErrorHandler4 = getelementptr inbounds %"class.xercesc_2_7::SAX2XMLReaderImpl", %"class.xercesc_2_7::SAX2XMLReaderImpl"* %this1, i32 0, i32 22, !dbg !3361
  %6 = load %"class.xercesc_2_7::ErrorHandler"*, %"class.xercesc_2_7::ErrorHandler"** %fErrorHandler4, align 8, !dbg !3361
  call void @_ZN11xercesc_2_710XMLScanner15setErrorHandlerEPNS_12ErrorHandlerE(%"class.xercesc_2_7::XMLScanner"* %5, %"class.xercesc_2_7::ErrorHandler"* %6), !dbg !3362
  br label %if.end, !dbg !3363

if.else:                                          ; preds = %entry
  %fScanner5 = getelementptr inbounds %"class.xercesc_2_7::SAX2XMLReaderImpl", %"class.xercesc_2_7::SAX2XMLReaderImpl"* %this1, i32 0, i32 27, !dbg !3364
  %7 = load %"class.xercesc_2_7::XMLScanner"*, %"class.xercesc_2_7::XMLScanner"** %fScanner5, align 8, !dbg !3364
  call void @_ZN11xercesc_2_710XMLScanner16setErrorReporterEPNS_16XMLErrorReporterE(%"class.xercesc_2_7::XMLScanner"* %7, %"class.xercesc_2_7::XMLErrorReporter"* null), !dbg !3366
  %fScanner6 = getelementptr inbounds %"class.xercesc_2_7::SAX2XMLReaderImpl", %"class.xercesc_2_7::SAX2XMLReaderImpl"* %this1, i32 0, i32 27, !dbg !3367
  %8 = load %"class.xercesc_2_7::XMLScanner"*, %"class.xercesc_2_7::XMLScanner"** %fScanner6, align 8, !dbg !3367
  call void @_ZN11xercesc_2_710XMLScanner15setErrorHandlerEPNS_12ErrorHandlerE(%"class.xercesc_2_7::XMLScanner"* %8, %"class.xercesc_2_7::ErrorHandler"* null), !dbg !3368
  br label %if.end

if.end:                                           ; preds = %if.else, %if.then
  ret void, !dbg !3369
}

; Function Attrs: noinline nounwind uwtable
define linkonce_odr dso_local void @_ZN11xercesc_2_710XMLScanner16setErrorReporterEPNS_16XMLErrorReporterE(%"class.xercesc_2_7::XMLScanner"* %this, %"class.xercesc_2_7::XMLErrorReporter"* %errHandler) #1 comdat align 2 !dbg !3370 {
entry:
  %this.addr = alloca %"class.xercesc_2_7::XMLScanner"*, align 8
  %errHandler.addr = alloca %"class.xercesc_2_7::XMLErrorReporter"*, align 8
  store %"class.xercesc_2_7::XMLScanner"* %this, %"class.xercesc_2_7::XMLScanner"** %this.addr, align 8
  call void @llvm.dbg.declare(metadata %"class.xercesc_2_7::XMLScanner"** %this.addr, metadata !3375, metadata !DIExpression()), !dbg !3376
  store %"class.xercesc_2_7::XMLErrorReporter"* %errHandler, %"class.xercesc_2_7::XMLErrorReporter"** %errHandler.addr, align 8
  call void @llvm.dbg.declare(metadata %"class.xercesc_2_7::XMLErrorReporter"** %errHandler.addr, metadata !3377, metadata !DIExpression()), !dbg !3378
  %this1 = load %"class.xercesc_2_7::XMLScanner"*, %"class.xercesc_2_7::XMLScanner"** %this.addr, align 8
  %0 = load %"class.xercesc_2_7::XMLErrorReporter"*, %"class.xercesc_2_7::XMLErrorReporter"** %errHandler.addr, align 8, !dbg !3379
  %fErrorReporter = getelementptr inbounds %"class.xercesc_2_7::XMLScanner", %"class.xercesc_2_7::XMLScanner"* %this1, i32 0, i32 44, !dbg !3380
  store %"class.xercesc_2_7::XMLErrorReporter"* %0, %"class.xercesc_2_7::XMLErrorReporter"** %fErrorReporter, align 8, !dbg !3381
  ret void, !dbg !3382
}

; Function Attrs: noinline nounwind uwtable
define linkonce_odr dso_local void @_ZN11xercesc_2_710XMLScanner15setErrorHandlerEPNS_12ErrorHandlerE(%"class.xercesc_2_7::XMLScanner"* %this, %"class.xercesc_2_7::ErrorHandler"* %handler) #1 comdat align 2 !dbg !3383 {
entry:
  %this.addr = alloca %"class.xercesc_2_7::XMLScanner"*, align 8
  %handler.addr = alloca %"class.xercesc_2_7::ErrorHandler"*, align 8
  store %"class.xercesc_2_7::XMLScanner"* %this, %"class.xercesc_2_7::XMLScanner"** %this.addr, align 8
  call void @llvm.dbg.declare(metadata %"class.xercesc_2_7::XMLScanner"** %this.addr, metadata !3387, metadata !DIExpression()), !dbg !3388
  store %"class.xercesc_2_7::ErrorHandler"* %handler, %"class.xercesc_2_7::ErrorHandler"** %handler.addr, align 8
  call void @llvm.dbg.declare(metadata %"class.xercesc_2_7::ErrorHandler"** %handler.addr, metadata !3389, metadata !DIExpression()), !dbg !3390
  %this1 = load %"class.xercesc_2_7::XMLScanner"*, %"class.xercesc_2_7::XMLScanner"** %this.addr, align 8
  %0 = load %"class.xercesc_2_7::ErrorHandler"*, %"class.xercesc_2_7::ErrorHandler"** %handler.addr, align 8, !dbg !3391
  %fErrorHandler = getelementptr inbounds %"class.xercesc_2_7::XMLScanner", %"class.xercesc_2_7::XMLScanner"* %this1, i32 0, i32 45, !dbg !3392
  store %"class.xercesc_2_7::ErrorHandler"* %0, %"class.xercesc_2_7::ErrorHandler"** %fErrorHandler, align 8, !dbg !3393
  ret void, !dbg !3394
}

; Function Attrs: noinline uwtable
define dso_local void @_ZN11xercesc_2_717SAX2XMLReaderImpl14setPSVIHandlerEPNS_11PSVIHandlerE(%"class.xercesc_2_7::SAX2XMLReaderImpl"* %this, %"class.xercesc_2_7::PSVIHandler"* %handler) unnamed_addr #6 align 2 !dbg !3395 {
entry:
  %this.addr = alloca %"class.xercesc_2_7::SAX2XMLReaderImpl"*, align 8
  %handler.addr = alloca %"class.xercesc_2_7::PSVIHandler"*, align 8
  store %"class.xercesc_2_7::SAX2XMLReaderImpl"* %this, %"class.xercesc_2_7::SAX2XMLReaderImpl"** %this.addr, align 8
  call void @llvm.dbg.declare(metadata %"class.xercesc_2_7::SAX2XMLReaderImpl"** %this.addr, metadata !3396, metadata !DIExpression()), !dbg !3397
  store %"class.xercesc_2_7::PSVIHandler"* %handler, %"class.xercesc_2_7::PSVIHandler"** %handler.addr, align 8
  call void @llvm.dbg.declare(metadata %"class.xercesc_2_7::PSVIHandler"** %handler.addr, metadata !3398, metadata !DIExpression()), !dbg !3399
  %this1 = load %"class.xercesc_2_7::SAX2XMLReaderImpl"*, %"class.xercesc_2_7::SAX2XMLReaderImpl"** %this.addr, align 8
  %0 = load %"class.xercesc_2_7::PSVIHandler"*, %"class.xercesc_2_7::PSVIHandler"** %handler.addr, align 8, !dbg !3400
  %fPSVIHandler = getelementptr inbounds %"class.xercesc_2_7::SAX2XMLReaderImpl", %"class.xercesc_2_7::SAX2XMLReaderImpl"* %this1, i32 0, i32 23, !dbg !3401
  store %"class.xercesc_2_7::PSVIHandler"* %0, %"class.xercesc_2_7::PSVIHandler"** %fPSVIHandler, align 8, !dbg !3402
  %fPSVIHandler2 = getelementptr inbounds %"class.xercesc_2_7::SAX2XMLReaderImpl", %"class.xercesc_2_7::SAX2XMLReaderImpl"* %this1, i32 0, i32 23, !dbg !3403
  %1 = load %"class.xercesc_2_7::PSVIHandler"*, %"class.xercesc_2_7::PSVIHandler"** %fPSVIHandler2, align 8, !dbg !3403
  %tobool = icmp ne %"class.xercesc_2_7::PSVIHandler"* %1, null, !dbg !3403
  br i1 %tobool, label %if.then, label %if.else, !dbg !3405

if.then:                                          ; preds = %entry
  %fScanner = getelementptr inbounds %"class.xercesc_2_7::SAX2XMLReaderImpl", %"class.xercesc_2_7::SAX2XMLReaderImpl"* %this1, i32 0, i32 27, !dbg !3406
  %2 = load %"class.xercesc_2_7::XMLScanner"*, %"class.xercesc_2_7::XMLScanner"** %fScanner, align 8, !dbg !3406
  %fPSVIHandler3 = getelementptr inbounds %"class.xercesc_2_7::SAX2XMLReaderImpl", %"class.xercesc_2_7::SAX2XMLReaderImpl"* %this1, i32 0, i32 23, !dbg !3408
  %3 = load %"class.xercesc_2_7::PSVIHandler"*, %"class.xercesc_2_7::PSVIHandler"** %fPSVIHandler3, align 8, !dbg !3408
  call void @_ZN11xercesc_2_710XMLScanner14setPSVIHandlerEPNS_11PSVIHandlerE(%"class.xercesc_2_7::XMLScanner"* %2, %"class.xercesc_2_7::PSVIHandler"* %3), !dbg !3409
  br label %if.end, !dbg !3410

if.else:                                          ; preds = %entry
  %fScanner4 = getelementptr inbounds %"class.xercesc_2_7::SAX2XMLReaderImpl", %"class.xercesc_2_7::SAX2XMLReaderImpl"* %this1, i32 0, i32 27, !dbg !3411
  %4 = load %"class.xercesc_2_7::XMLScanner"*, %"class.xercesc_2_7::XMLScanner"** %fScanner4, align 8, !dbg !3411
  call void @_ZN11xercesc_2_710XMLScanner14setPSVIHandlerEPNS_11PSVIHandlerE(%"class.xercesc_2_7::XMLScanner"* %4, %"class.xercesc_2_7::PSVIHandler"* null), !dbg !3413
  br label %if.end

if.end:                                           ; preds = %if.else, %if.then
  ret void, !dbg !3414
}

; Function Attrs: noinline nounwind uwtable
define linkonce_odr dso_local void @_ZN11xercesc_2_710XMLScanner14setPSVIHandlerEPNS_11PSVIHandlerE(%"class.xercesc_2_7::XMLScanner"* %this, %"class.xercesc_2_7::PSVIHandler"* %handler) #1 comdat align 2 !dbg !3415 {
entry:
  %this.addr = alloca %"class.xercesc_2_7::XMLScanner"*, align 8
  %handler.addr = alloca %"class.xercesc_2_7::PSVIHandler"*, align 8
  store %"class.xercesc_2_7::XMLScanner"* %this, %"class.xercesc_2_7::XMLScanner"** %this.addr, align 8
  call void @llvm.dbg.declare(metadata %"class.xercesc_2_7::XMLScanner"** %this.addr, metadata !3419, metadata !DIExpression()), !dbg !3420
  store %"class.xercesc_2_7::PSVIHandler"* %handler, %"class.xercesc_2_7::PSVIHandler"** %handler.addr, align 8
  call void @llvm.dbg.declare(metadata %"class.xercesc_2_7::PSVIHandler"** %handler.addr, metadata !3421, metadata !DIExpression()), !dbg !3422
  %this1 = load %"class.xercesc_2_7::XMLScanner"*, %"class.xercesc_2_7::XMLScanner"** %this.addr, align 8
  %0 = load %"class.xercesc_2_7::PSVIHandler"*, %"class.xercesc_2_7::PSVIHandler"** %handler.addr, align 8, !dbg !3423
  %fPSVIHandler = getelementptr inbounds %"class.xercesc_2_7::XMLScanner", %"class.xercesc_2_7::XMLScanner"* %this1, i32 0, i32 46, !dbg !3424
  store %"class.xercesc_2_7::PSVIHandler"* %0, %"class.xercesc_2_7::PSVIHandler"** %fPSVIHandler, align 8, !dbg !3425
  ret void, !dbg !3426
}

; Function Attrs: noinline uwtable
define dso_local void @_ZN11xercesc_2_717SAX2XMLReaderImpl17setLexicalHandlerEPNS_14LexicalHandlerE(%"class.xercesc_2_7::SAX2XMLReaderImpl"* %this, %"class.xercesc_2_7::LexicalHandler"* %handler) unnamed_addr #6 align 2 !dbg !3427 {
entry:
  %this.addr = alloca %"class.xercesc_2_7::SAX2XMLReaderImpl"*, align 8
  %handler.addr = alloca %"class.xercesc_2_7::LexicalHandler"*, align 8
  store %"class.xercesc_2_7::SAX2XMLReaderImpl"* %this, %"class.xercesc_2_7::SAX2XMLReaderImpl"** %this.addr, align 8
  call void @llvm.dbg.declare(metadata %"class.xercesc_2_7::SAX2XMLReaderImpl"** %this.addr, metadata !3428, metadata !DIExpression()), !dbg !3429
  store %"class.xercesc_2_7::LexicalHandler"* %handler, %"class.xercesc_2_7::LexicalHandler"** %handler.addr, align 8
  call void @llvm.dbg.declare(metadata %"class.xercesc_2_7::LexicalHandler"** %handler.addr, metadata !3430, metadata !DIExpression()), !dbg !3431
  %this1 = load %"class.xercesc_2_7::SAX2XMLReaderImpl"*, %"class.xercesc_2_7::SAX2XMLReaderImpl"** %this.addr, align 8
  %0 = load %"class.xercesc_2_7::LexicalHandler"*, %"class.xercesc_2_7::LexicalHandler"** %handler.addr, align 8, !dbg !3432
  %fLexicalHandler = getelementptr inbounds %"class.xercesc_2_7::SAX2XMLReaderImpl", %"class.xercesc_2_7::SAX2XMLReaderImpl"* %this1, i32 0, i32 24, !dbg !3433
  store %"class.xercesc_2_7::LexicalHandler"* %0, %"class.xercesc_2_7::LexicalHandler"** %fLexicalHandler, align 8, !dbg !3434
  %fLexicalHandler2 = getelementptr inbounds %"class.xercesc_2_7::SAX2XMLReaderImpl", %"class.xercesc_2_7::SAX2XMLReaderImpl"* %this1, i32 0, i32 24, !dbg !3435
  %1 = load %"class.xercesc_2_7::LexicalHandler"*, %"class.xercesc_2_7::LexicalHandler"** %fLexicalHandler2, align 8, !dbg !3435
  %tobool = icmp ne %"class.xercesc_2_7::LexicalHandler"* %1, null, !dbg !3435
  br i1 %tobool, label %if.then, label %if.else, !dbg !3437

if.then:                                          ; preds = %entry
  %fScanner = getelementptr inbounds %"class.xercesc_2_7::SAX2XMLReaderImpl", %"class.xercesc_2_7::SAX2XMLReaderImpl"* %this1, i32 0, i32 27, !dbg !3438
  %2 = load %"class.xercesc_2_7::XMLScanner"*, %"class.xercesc_2_7::XMLScanner"** %fScanner, align 8, !dbg !3438
  %3 = bitcast %"class.xercesc_2_7::SAX2XMLReaderImpl"* %this1 to i8*, !dbg !3439
  %add.ptr = getelementptr inbounds i8, i8* %3, i64 32, !dbg !3439
  %4 = bitcast i8* %add.ptr to %"class.xercesc_2_7::DocTypeHandler"*, !dbg !3439
  call void @_ZN11xercesc_2_710XMLScanner17setDocTypeHandlerEPNS_14DocTypeHandlerE(%"class.xercesc_2_7::XMLScanner"* %2, %"class.xercesc_2_7::DocTypeHandler"* %4), !dbg !3440
  br label %if.end, !dbg !3438

if.else:                                          ; preds = %entry
  %fScanner3 = getelementptr inbounds %"class.xercesc_2_7::SAX2XMLReaderImpl", %"class.xercesc_2_7::SAX2XMLReaderImpl"* %this1, i32 0, i32 27, !dbg !3441
  %5 = load %"class.xercesc_2_7::XMLScanner"*, %"class.xercesc_2_7::XMLScanner"** %fScanner3, align 8, !dbg !3441
  call void @_ZN11xercesc_2_710XMLScanner17setDocTypeHandlerEPNS_14DocTypeHandlerE(%"class.xercesc_2_7::XMLScanner"* %5, %"class.xercesc_2_7::DocTypeHandler"* null), !dbg !3442
  br label %if.end

if.end:                                           ; preds = %if.else, %if.then
  ret void, !dbg !3443
}

; Function Attrs: noinline uwtable
define dso_local void @_ZN11xercesc_2_717SAX2XMLReaderImpl21setDeclarationHandlerEPNS_11DeclHandlerE(%"class.xercesc_2_7::SAX2XMLReaderImpl"* %this, %"class.xercesc_2_7::DeclHandler"* %handler) unnamed_addr #6 align 2 !dbg !3444 {
entry:
  %this.addr = alloca %"class.xercesc_2_7::SAX2XMLReaderImpl"*, align 8
  %handler.addr = alloca %"class.xercesc_2_7::DeclHandler"*, align 8
  store %"class.xercesc_2_7::SAX2XMLReaderImpl"* %this, %"class.xercesc_2_7::SAX2XMLReaderImpl"** %this.addr, align 8
  call void @llvm.dbg.declare(metadata %"class.xercesc_2_7::SAX2XMLReaderImpl"** %this.addr, metadata !3445, metadata !DIExpression()), !dbg !3446
  store %"class.xercesc_2_7::DeclHandler"* %handler, %"class.xercesc_2_7::DeclHandler"** %handler.addr, align 8
  call void @llvm.dbg.declare(metadata %"class.xercesc_2_7::DeclHandler"** %handler.addr, metadata !3447, metadata !DIExpression()), !dbg !3448
  %this1 = load %"class.xercesc_2_7::SAX2XMLReaderImpl"*, %"class.xercesc_2_7::SAX2XMLReaderImpl"** %this.addr, align 8
  %0 = load %"class.xercesc_2_7::DeclHandler"*, %"class.xercesc_2_7::DeclHandler"** %handler.addr, align 8, !dbg !3449
  %fDeclHandler = getelementptr inbounds %"class.xercesc_2_7::SAX2XMLReaderImpl", %"class.xercesc_2_7::SAX2XMLReaderImpl"* %this1, i32 0, i32 25, !dbg !3450
  store %"class.xercesc_2_7::DeclHandler"* %0, %"class.xercesc_2_7::DeclHandler"** %fDeclHandler, align 8, !dbg !3451
  %fDeclHandler2 = getelementptr inbounds %"class.xercesc_2_7::SAX2XMLReaderImpl", %"class.xercesc_2_7::SAX2XMLReaderImpl"* %this1, i32 0, i32 25, !dbg !3452
  %1 = load %"class.xercesc_2_7::DeclHandler"*, %"class.xercesc_2_7::DeclHandler"** %fDeclHandler2, align 8, !dbg !3452
  %tobool = icmp ne %"class.xercesc_2_7::DeclHandler"* %1, null, !dbg !3452
  br i1 %tobool, label %if.then, label %if.else, !dbg !3454

if.then:                                          ; preds = %entry
  %fScanner = getelementptr inbounds %"class.xercesc_2_7::SAX2XMLReaderImpl", %"class.xercesc_2_7::SAX2XMLReaderImpl"* %this1, i32 0, i32 27, !dbg !3455
  %2 = load %"class.xercesc_2_7::XMLScanner"*, %"class.xercesc_2_7::XMLScanner"** %fScanner, align 8, !dbg !3455
  %3 = bitcast %"class.xercesc_2_7::SAX2XMLReaderImpl"* %this1 to i8*, !dbg !3456
  %add.ptr = getelementptr inbounds i8, i8* %3, i64 32, !dbg !3456
  %4 = bitcast i8* %add.ptr to %"class.xercesc_2_7::DocTypeHandler"*, !dbg !3456
  call void @_ZN11xercesc_2_710XMLScanner17setDocTypeHandlerEPNS_14DocTypeHandlerE(%"class.xercesc_2_7::XMLScanner"* %2, %"class.xercesc_2_7::DocTypeHandler"* %4), !dbg !3457
  br label %if.end, !dbg !3455

if.else:                                          ; preds = %entry
  %fScanner3 = getelementptr inbounds %"class.xercesc_2_7::SAX2XMLReaderImpl", %"class.xercesc_2_7::SAX2XMLReaderImpl"* %this1, i32 0, i32 27, !dbg !3458
  %5 = load %"class.xercesc_2_7::XMLScanner"*, %"class.xercesc_2_7::XMLScanner"** %fScanner3, align 8, !dbg !3458
  call void @_ZN11xercesc_2_710XMLScanner17setDocTypeHandlerEPNS_14DocTypeHandlerE(%"class.xercesc_2_7::XMLScanner"* %5, %"class.xercesc_2_7::DocTypeHandler"* null), !dbg !3459
  br label %if.end

if.end:                                           ; preds = %if.else, %if.then
  ret void, !dbg !3460
}

; Function Attrs: noinline uwtable
define dso_local void @_ZN11xercesc_2_717SAX2XMLReaderImpl17setEntityResolverEPNS_14EntityResolverE(%"class.xercesc_2_7::SAX2XMLReaderImpl"* %this, %"class.xercesc_2_7::EntityResolver"* %resolver) unnamed_addr #6 align 2 !dbg !3461 {
entry:
  %this.addr = alloca %"class.xercesc_2_7::SAX2XMLReaderImpl"*, align 8
  %resolver.addr = alloca %"class.xercesc_2_7::EntityResolver"*, align 8
  store %"class.xercesc_2_7::SAX2XMLReaderImpl"* %this, %"class.xercesc_2_7::SAX2XMLReaderImpl"** %this.addr, align 8
  call void @llvm.dbg.declare(metadata %"class.xercesc_2_7::SAX2XMLReaderImpl"** %this.addr, metadata !3462, metadata !DIExpression()), !dbg !3463
  store %"class.xercesc_2_7::EntityResolver"* %resolver, %"class.xercesc_2_7::EntityResolver"** %resolver.addr, align 8
  call void @llvm.dbg.declare(metadata %"class.xercesc_2_7::EntityResolver"** %resolver.addr, metadata !3464, metadata !DIExpression()), !dbg !3465
  %this1 = load %"class.xercesc_2_7::SAX2XMLReaderImpl"*, %"class.xercesc_2_7::SAX2XMLReaderImpl"** %this.addr, align 8
  %0 = load %"class.xercesc_2_7::EntityResolver"*, %"class.xercesc_2_7::EntityResolver"** %resolver.addr, align 8, !dbg !3466
  %fEntityResolver = getelementptr inbounds %"class.xercesc_2_7::SAX2XMLReaderImpl", %"class.xercesc_2_7::SAX2XMLReaderImpl"* %this1, i32 0, i32 20, !dbg !3467
  store %"class.xercesc_2_7::EntityResolver"* %0, %"class.xercesc_2_7::EntityResolver"** %fEntityResolver, align 8, !dbg !3468
  %fEntityResolver2 = getelementptr inbounds %"class.xercesc_2_7::SAX2XMLReaderImpl", %"class.xercesc_2_7::SAX2XMLReaderImpl"* %this1, i32 0, i32 20, !dbg !3469
  %1 = load %"class.xercesc_2_7::EntityResolver"*, %"class.xercesc_2_7::EntityResolver"** %fEntityResolver2, align 8, !dbg !3469
  %tobool = icmp ne %"class.xercesc_2_7::EntityResolver"* %1, null, !dbg !3469
  br i1 %tobool, label %if.then, label %if.else, !dbg !3471

if.then:                                          ; preds = %entry
  %fScanner = getelementptr inbounds %"class.xercesc_2_7::SAX2XMLReaderImpl", %"class.xercesc_2_7::SAX2XMLReaderImpl"* %this1, i32 0, i32 27, !dbg !3472
  %2 = load %"class.xercesc_2_7::XMLScanner"*, %"class.xercesc_2_7::XMLScanner"** %fScanner, align 8, !dbg !3472
  %3 = bitcast %"class.xercesc_2_7::SAX2XMLReaderImpl"* %this1 to i8*, !dbg !3474
  %add.ptr = getelementptr inbounds i8, i8* %3, i64 24, !dbg !3474
  %4 = bitcast i8* %add.ptr to %"class.xercesc_2_7::XMLEntityHandler"*, !dbg !3474
  call void @_ZN11xercesc_2_710XMLScanner16setEntityHandlerEPNS_16XMLEntityHandlerE(%"class.xercesc_2_7::XMLScanner"* %2, %"class.xercesc_2_7::XMLEntityHandler"* %4), !dbg !3475
  %fXMLEntityResolver = getelementptr inbounds %"class.xercesc_2_7::SAX2XMLReaderImpl", %"class.xercesc_2_7::SAX2XMLReaderImpl"* %this1, i32 0, i32 21, !dbg !3476
  store %"class.xercesc_2_7::XMLEntityResolver"* null, %"class.xercesc_2_7::XMLEntityResolver"** %fXMLEntityResolver, align 8, !dbg !3477
  br label %if.end, !dbg !3478

if.else:                                          ; preds = %entry
  %fScanner3 = getelementptr inbounds %"class.xercesc_2_7::SAX2XMLReaderImpl", %"class.xercesc_2_7::SAX2XMLReaderImpl"* %this1, i32 0, i32 27, !dbg !3479
  %5 = load %"class.xercesc_2_7::XMLScanner"*, %"class.xercesc_2_7::XMLScanner"** %fScanner3, align 8, !dbg !3479
  call void @_ZN11xercesc_2_710XMLScanner16setEntityHandlerEPNS_16XMLEntityHandlerE(%"class.xercesc_2_7::XMLScanner"* %5, %"class.xercesc_2_7::XMLEntityHandler"* null), !dbg !3481
  br label %if.end

if.end:                                           ; preds = %if.else, %if.then
  ret void, !dbg !3482
}

; Function Attrs: noinline uwtable
define linkonce_odr dso_local void @_ZN11xercesc_2_710XMLScanner16setEntityHandlerEPNS_16XMLEntityHandlerE(%"class.xercesc_2_7::XMLScanner"* %this, %"class.xercesc_2_7::XMLEntityHandler"* %entityHandler) #6 comdat align 2 !dbg !3483 {
entry:
  %this.addr = alloca %"class.xercesc_2_7::XMLScanner"*, align 8
  %entityHandler.addr = alloca %"class.xercesc_2_7::XMLEntityHandler"*, align 8
  store %"class.xercesc_2_7::XMLScanner"* %this, %"class.xercesc_2_7::XMLScanner"** %this.addr, align 8
  call void @llvm.dbg.declare(metadata %"class.xercesc_2_7::XMLScanner"** %this.addr, metadata !3488, metadata !DIExpression()), !dbg !3489
  store %"class.xercesc_2_7::XMLEntityHandler"* %entityHandler, %"class.xercesc_2_7::XMLEntityHandler"** %entityHandler.addr, align 8
  call void @llvm.dbg.declare(metadata %"class.xercesc_2_7::XMLEntityHandler"** %entityHandler.addr, metadata !3490, metadata !DIExpression()), !dbg !3491
  %this1 = load %"class.xercesc_2_7::XMLScanner"*, %"class.xercesc_2_7::XMLScanner"** %this.addr, align 8
  %0 = load %"class.xercesc_2_7::XMLEntityHandler"*, %"class.xercesc_2_7::XMLEntityHandler"** %entityHandler.addr, align 8, !dbg !3492
  %fEntityHandler = getelementptr inbounds %"class.xercesc_2_7::XMLScanner", %"class.xercesc_2_7::XMLScanner"* %this1, i32 0, i32 43, !dbg !3493
  store %"class.xercesc_2_7::XMLEntityHandler"* %0, %"class.xercesc_2_7::XMLEntityHandler"** %fEntityHandler, align 8, !dbg !3494
  %fReaderMgr = getelementptr inbounds %"class.xercesc_2_7::XMLScanner", %"class.xercesc_2_7::XMLScanner"* %this1, i32 0, i32 49, !dbg !3495
  %1 = load %"class.xercesc_2_7::XMLEntityHandler"*, %"class.xercesc_2_7::XMLEntityHandler"** %entityHandler.addr, align 8, !dbg !3496
  call void @_ZN11xercesc_2_79ReaderMgr16setEntityHandlerEPNS_16XMLEntityHandlerE(%"class.xercesc_2_7::ReaderMgr"* %fReaderMgr, %"class.xercesc_2_7::XMLEntityHandler"* %1), !dbg !3497
  ret void, !dbg !3498
}

; Function Attrs: noinline uwtable
define dso_local void @_ZN11xercesc_2_717SAX2XMLReaderImpl20setXMLEntityResolverEPNS_17XMLEntityResolverE(%"class.xercesc_2_7::SAX2XMLReaderImpl"* %this, %"class.xercesc_2_7::XMLEntityResolver"* %resolver) unnamed_addr #6 align 2 !dbg !3499 {
entry:
  %this.addr = alloca %"class.xercesc_2_7::SAX2XMLReaderImpl"*, align 8
  %resolver.addr = alloca %"class.xercesc_2_7::XMLEntityResolver"*, align 8
  store %"class.xercesc_2_7::SAX2XMLReaderImpl"* %this, %"class.xercesc_2_7::SAX2XMLReaderImpl"** %this.addr, align 8
  call void @llvm.dbg.declare(metadata %"class.xercesc_2_7::SAX2XMLReaderImpl"** %this.addr, metadata !3500, metadata !DIExpression()), !dbg !3501
  store %"class.xercesc_2_7::XMLEntityResolver"* %resolver, %"class.xercesc_2_7::XMLEntityResolver"** %resolver.addr, align 8
  call void @llvm.dbg.declare(metadata %"class.xercesc_2_7::XMLEntityResolver"** %resolver.addr, metadata !3502, metadata !DIExpression()), !dbg !3503
  %this1 = load %"class.xercesc_2_7::SAX2XMLReaderImpl"*, %"class.xercesc_2_7::SAX2XMLReaderImpl"** %this.addr, align 8
  %0 = load %"class.xercesc_2_7::XMLEntityResolver"*, %"class.xercesc_2_7::XMLEntityResolver"** %resolver.addr, align 8, !dbg !3504
  %fXMLEntityResolver = getelementptr inbounds %"class.xercesc_2_7::SAX2XMLReaderImpl", %"class.xercesc_2_7::SAX2XMLReaderImpl"* %this1, i32 0, i32 21, !dbg !3505
  store %"class.xercesc_2_7::XMLEntityResolver"* %0, %"class.xercesc_2_7::XMLEntityResolver"** %fXMLEntityResolver, align 8, !dbg !3506
  %fXMLEntityResolver2 = getelementptr inbounds %"class.xercesc_2_7::SAX2XMLReaderImpl", %"class.xercesc_2_7::SAX2XMLReaderImpl"* %this1, i32 0, i32 21, !dbg !3507
  %1 = load %"class.xercesc_2_7::XMLEntityResolver"*, %"class.xercesc_2_7::XMLEntityResolver"** %fXMLEntityResolver2, align 8, !dbg !3507
  %tobool = icmp ne %"class.xercesc_2_7::XMLEntityResolver"* %1, null, !dbg !3507
  br i1 %tobool, label %if.then, label %if.else, !dbg !3509

if.then:                                          ; preds = %entry
  %fScanner = getelementptr inbounds %"class.xercesc_2_7::SAX2XMLReaderImpl", %"class.xercesc_2_7::SAX2XMLReaderImpl"* %this1, i32 0, i32 27, !dbg !3510
  %2 = load %"class.xercesc_2_7::XMLScanner"*, %"class.xercesc_2_7::XMLScanner"** %fScanner, align 8, !dbg !3510
  %3 = bitcast %"class.xercesc_2_7::SAX2XMLReaderImpl"* %this1 to i8*, !dbg !3512
  %add.ptr = getelementptr inbounds i8, i8* %3, i64 24, !dbg !3512
  %4 = bitcast i8* %add.ptr to %"class.xercesc_2_7::XMLEntityHandler"*, !dbg !3512
  call void @_ZN11xercesc_2_710XMLScanner16setEntityHandlerEPNS_16XMLEntityHandlerE(%"class.xercesc_2_7::XMLScanner"* %2, %"class.xercesc_2_7::XMLEntityHandler"* %4), !dbg !3513
  %fEntityResolver = getelementptr inbounds %"class.xercesc_2_7::SAX2XMLReaderImpl", %"class.xercesc_2_7::SAX2XMLReaderImpl"* %this1, i32 0, i32 20, !dbg !3514
  store %"class.xercesc_2_7::EntityResolver"* null, %"class.xercesc_2_7::EntityResolver"** %fEntityResolver, align 8, !dbg !3515
  br label %if.end, !dbg !3516

if.else:                                          ; preds = %entry
  %fScanner3 = getelementptr inbounds %"class.xercesc_2_7::SAX2XMLReaderImpl", %"class.xercesc_2_7::SAX2XMLReaderImpl"* %this1, i32 0, i32 27, !dbg !3517
  %5 = load %"class.xercesc_2_7::XMLScanner"*, %"class.xercesc_2_7::XMLScanner"** %fScanner3, align 8, !dbg !3517
