; ModuleID = 'SelectionEvent.cpp'
source_filename = "SelectionEvent.cpp"
target datalayout = "e-m:e-p270:32:32-p271:32:32-p272:64:64-i64:64-f80:128-n8:16:32:64-S128"
target triple = "x86_64-unknown-linux-gnu"

%"class.xalanc_1_10::SelectionEvent" = type { i32 (...)**, %"class.xalanc_1_10::StylesheetExecutionContext"*, %"class.xalanc_1_10::XalanNode"*, %"class.xalanc_1_10::ElemTemplateElement"*, %"class.xalanc_1_10::XalanDOMString"*, %"class.xalanc_1_10::XalanDOMString"*, %"class.xalanc_1_10::XObjectPtr", i32, i8, %"class.xalanc_1_10::NodeRefListBase"* }
%"class.xalanc_1_10::XObjectPtr" = type { %"class.xalanc_1_10::XObject"* }
%"class.xalanc_1_10::XObject" = type { %"class.xalanc_1_10::XalanReferenceCountedObject.base", i32, %"class.xalanc_1_10::XObjectFactory"* }
%"class.xalanc_1_10::XalanReferenceCountedObject.base" = type <{ i32 (...)**, i32 }>
%"class.xalanc_1_10::XObjectFactory" = type opaque
%"class.xalanc_1_10::NodeRefListBase" = type { i32 (...)** }
%"class.xalanc_1_10::StylesheetExecutionContext" = type opaque
%"class.xalanc_1_10::XalanNode" = type { i32 (...)** }
%"class.xalanc_1_10::ElemTemplateElement" = type opaque
%"class.xalanc_1_10::XalanDOMString" = type <{ %"class.xalanc_1_10::XalanVector", i32, [4 x i8] }>
%"class.xalanc_1_10::XalanVector" = type { %"class.xercesc_2_7::MemoryManager"*, i64, i64, i16* }
%"class.xercesc_2_7::MemoryManager" = type { i32 (...)** }
%"class.xalanc_1_10::XPath" = type <{ %"class.xalanc_1_10::XPathExpression", %"class.xercesc_2_7::Locator"*, i8, [7 x i8] }>
%"class.xalanc_1_10::XPathExpression" = type { %"class.xalanc_1_10::XalanVector.0", i32, %"class.xalanc_1_10::XalanVector.1", i32, %"class.xalanc_1_10::XalanDOMString"*, %"class.xalanc_1_10::XalanVector.2" }
%"class.xalanc_1_10::XalanVector.0" = type { %"class.xercesc_2_7::MemoryManager"*, i64, i64, i32* }
%"class.xalanc_1_10::XalanVector.1" = type { %"class.xercesc_2_7::MemoryManager"*, i64, i64, %"class.xalanc_1_10::XToken"* }
%"class.xalanc_1_10::XToken" = type <{ %"class.xalanc_1_10::XObject", %"class.xalanc_1_10::XalanDOMString"*, double, i8, [7 x i8] }>
%"class.xalanc_1_10::XalanVector.2" = type { %"class.xercesc_2_7::MemoryManager"*, i64, i64, double* }
%"class.xercesc_2_7::Locator" = type { i32 (...)** }
%"class.xalanc_1_10::XalanReferenceCountedObject" = type <{ i32 (...)**, i32, [4 x i8] }>

$_ZNK11xalanc_1_105XPath13getExpressionEv = comdat any

$_ZNK11xalanc_1_1015XPathExpression17getCurrentPatternEv = comdat any

$_ZN11xalanc_1_1010XObjectPtrC2ERKS0_ = comdat any

$_ZNK11xalanc_1_1010XObjectPtr4nullEv = comdat any

$_ZN11xalanc_1_1010XObjectPtrD2Ev = comdat any

$_ZN11xalanc_1_1010XObjectPtrC2EPNS_7XObjectE = comdat any

$__clang_call_terminate = comdat any

@_ZTVN11xalanc_1_1014SelectionEventE = dso_local unnamed_addr constant { [4 x i8*] } { [4 x i8*] [i8* null, i8* bitcast ({ i8*, i8* }* @_ZTIN11xalanc_1_1014SelectionEventE to i8*), i8* bitcast (void (%"class.xalanc_1_10::SelectionEvent"*)* @_ZN11xalanc_1_1014SelectionEventD1Ev to i8*), i8* bitcast (void (%"class.xalanc_1_10::SelectionEvent"*)* @_ZN11xalanc_1_1014SelectionEventD0Ev to i8*)] }, align 8
@_ZTVN10__cxxabiv117__class_type_infoE = external dso_local global i8*
@_ZTSN11xalanc_1_1014SelectionEventE = dso_local constant [32 x i8] c"N11xalanc_1_1014SelectionEventE\00", align 1
@_ZTIN11xalanc_1_1014SelectionEventE = dso_local constant { i8*, i8* } { i8* bitcast (i8** getelementptr inbounds (i8*, i8** @_ZTVN10__cxxabiv117__class_type_infoE, i64 2) to i8*), i8* getelementptr inbounds ([32 x i8], [32 x i8]* @_ZTSN11xalanc_1_1014SelectionEventE, i32 0, i32 0) }, align 8

@_ZN11xalanc_1_1014SelectionEventC1ERNS_26StylesheetExecutionContextEPKNS_9XalanNodeERKNS_19ElemTemplateElementERKNS_14XalanDOMStringERKNS_5XPathENS_10XObjectPtrE = dso_local unnamed_addr alias void (%"class.xalanc_1_10::SelectionEvent"*, %"class.xalanc_1_10::StylesheetExecutionContext"*, %"class.xalanc_1_10::XalanNode"*, %"class.xalanc_1_10::ElemTemplateElement"*, %"class.xalanc_1_10::XalanDOMString"*, %"class.xalanc_1_10::XPath"*, %"class.xalanc_1_10::XObjectPtr"*), void (%"class.xalanc_1_10::SelectionEvent"*, %"class.xalanc_1_10::StylesheetExecutionContext"*, %"class.xalanc_1_10::XalanNode"*, %"class.xalanc_1_10::ElemTemplateElement"*, %"class.xalanc_1_10::XalanDOMString"*, %"class.xalanc_1_10::XPath"*, %"class.xalanc_1_10::XObjectPtr"*)* @_ZN11xalanc_1_1014SelectionEventC2ERNS_26StylesheetExecutionContextEPKNS_9XalanNodeERKNS_19ElemTemplateElementERKNS_14XalanDOMStringERKNS_5XPathENS_10XObjectPtrE
@_ZN11xalanc_1_1014SelectionEventC1ERNS_26StylesheetExecutionContextEPKNS_9XalanNodeERKNS_19ElemTemplateElementERKNS_14XalanDOMStringESB_NS_10XObjectPtrE = dso_local unnamed_addr alias void (%"class.xalanc_1_10::SelectionEvent"*, %"class.xalanc_1_10::StylesheetExecutionContext"*, %"class.xalanc_1_10::XalanNode"*, %"class.xalanc_1_10::ElemTemplateElement"*, %"class.xalanc_1_10::XalanDOMString"*, %"class.xalanc_1_10::XalanDOMString"*, %"class.xalanc_1_10::XObjectPtr"*), void (%"class.xalanc_1_10::SelectionEvent"*, %"class.xalanc_1_10::StylesheetExecutionContext"*, %"class.xalanc_1_10::XalanNode"*, %"class.xalanc_1_10::ElemTemplateElement"*, %"class.xalanc_1_10::XalanDOMString"*, %"class.xalanc_1_10::XalanDOMString"*, %"class.xalanc_1_10::XObjectPtr"*)* @_ZN11xalanc_1_1014SelectionEventC2ERNS_26StylesheetExecutionContextEPKNS_9XalanNodeERKNS_19ElemTemplateElementERKNS_14XalanDOMStringESB_NS_10XObjectPtrE
@_ZN11xalanc_1_1014SelectionEventC1ERNS_26StylesheetExecutionContextEPKNS_9XalanNodeERKNS_19ElemTemplateElementERKNS_14XalanDOMStringERKNS_5XPathEb = dso_local unnamed_addr alias void (%"class.xalanc_1_10::SelectionEvent"*, %"class.xalanc_1_10::StylesheetExecutionContext"*, %"class.xalanc_1_10::XalanNode"*, %"class.xalanc_1_10::ElemTemplateElement"*, %"class.xalanc_1_10::XalanDOMString"*, %"class.xalanc_1_10::XPath"*, i1), void (%"class.xalanc_1_10::SelectionEvent"*, %"class.xalanc_1_10::StylesheetExecutionContext"*, %"class.xalanc_1_10::XalanNode"*, %"class.xalanc_1_10::ElemTemplateElement"*, %"class.xalanc_1_10::XalanDOMString"*, %"class.xalanc_1_10::XPath"*, i1)* @_ZN11xalanc_1_1014SelectionEventC2ERNS_26StylesheetExecutionContextEPKNS_9XalanNodeERKNS_19ElemTemplateElementERKNS_14XalanDOMStringERKNS_5XPathEb
@_ZN11xalanc_1_1014SelectionEventC1ERNS_26StylesheetExecutionContextEPKNS_9XalanNodeERKNS_19ElemTemplateElementERKNS_14XalanDOMStringERKNS_5XPathERKNS_15NodeRefListBaseE = dso_local unnamed_addr alias void (%"class.xalanc_1_10::SelectionEvent"*, %"class.xalanc_1_10::StylesheetExecutionContext"*, %"class.xalanc_1_10::XalanNode"*, %"class.xalanc_1_10::ElemTemplateElement"*, %"class.xalanc_1_10::XalanDOMString"*, %"class.xalanc_1_10::XPath"*, %"class.xalanc_1_10::NodeRefListBase"*), void (%"class.xalanc_1_10::SelectionEvent"*, %"class.xalanc_1_10::StylesheetExecutionContext"*, %"class.xalanc_1_10::XalanNode"*, %"class.xalanc_1_10::ElemTemplateElement"*, %"class.xalanc_1_10::XalanDOMString"*, %"class.xalanc_1_10::XPath"*, %"class.xalanc_1_10::NodeRefListBase"*)* @_ZN11xalanc_1_1014SelectionEventC2ERNS_26StylesheetExecutionContextEPKNS_9XalanNodeERKNS_19ElemTemplateElementERKNS_14XalanDOMStringERKNS_5XPathERKNS_15NodeRefListBaseE
@_ZN11xalanc_1_1014SelectionEventD1Ev = dso_local unnamed_addr alias void (%"class.xalanc_1_10::SelectionEvent"*), void (%"class.xalanc_1_10::SelectionEvent"*)* @_ZN11xalanc_1_1014SelectionEventD2Ev

; Function Attrs: noinline uwtable
define dso_local void @_ZN11xalanc_1_1014SelectionEventC2ERNS_26StylesheetExecutionContextEPKNS_9XalanNodeERKNS_19ElemTemplateElementERKNS_14XalanDOMStringERKNS_5XPathENS_10XObjectPtrE(%"class.xalanc_1_10::SelectionEvent"* %this, %"class.xalanc_1_10::StylesheetExecutionContext"* nonnull %executionContext, %"class.xalanc_1_10::XalanNode"* %sourceNode, %"class.xalanc_1_10::ElemTemplateElement"* nonnull %styleNode, %"class.xalanc_1_10::XalanDOMString"* dereferenceable(40) %attributeName, %"class.xalanc_1_10::XPath"* dereferenceable(136) %xpath, %"class.xalanc_1_10::XObjectPtr"* %selection) unnamed_addr #0 align 2 personality i8* bitcast (i32 (...)* @__gxx_personality_v0 to i8*) !dbg !3426 {
entry:
  %this.addr = alloca %"class.xalanc_1_10::SelectionEvent"*, align 8
  %executionContext.addr = alloca %"class.xalanc_1_10::StylesheetExecutionContext"*, align 8
  %sourceNode.addr = alloca %"class.xalanc_1_10::XalanNode"*, align 8
  %styleNode.addr = alloca %"class.xalanc_1_10::ElemTemplateElement"*, align 8
  %attributeName.addr = alloca %"class.xalanc_1_10::XalanDOMString"*, align 8
  %xpath.addr = alloca %"class.xalanc_1_10::XPath"*, align 8
  %exn.slot = alloca i8*
  %ehselector.slot = alloca i32
  store %"class.xalanc_1_10::SelectionEvent"* %this, %"class.xalanc_1_10::SelectionEvent"** %this.addr, align 8
  call void @llvm.dbg.declare(metadata %"class.xalanc_1_10::SelectionEvent"** %this.addr, metadata !3427, metadata !DIExpression()), !dbg !3429
  store %"class.xalanc_1_10::StylesheetExecutionContext"* %executionContext, %"class.xalanc_1_10::StylesheetExecutionContext"** %executionContext.addr, align 8
  call void @llvm.dbg.declare(metadata %"class.xalanc_1_10::StylesheetExecutionContext"** %executionContext.addr, metadata !3430, metadata !DIExpression()), !dbg !3431
  store %"class.xalanc_1_10::XalanNode"* %sourceNode, %"class.xalanc_1_10::XalanNode"** %sourceNode.addr, align 8
  call void @llvm.dbg.declare(metadata %"class.xalanc_1_10::XalanNode"** %sourceNode.addr, metadata !3432, metadata !DIExpression()), !dbg !3433
  store %"class.xalanc_1_10::ElemTemplateElement"* %styleNode, %"class.xalanc_1_10::ElemTemplateElement"** %styleNode.addr, align 8
  call void @llvm.dbg.declare(metadata %"class.xalanc_1_10::ElemTemplateElement"** %styleNode.addr, metadata !3434, metadata !DIExpression()), !dbg !3435
  store %"class.xalanc_1_10::XalanDOMString"* %attributeName, %"class.xalanc_1_10::XalanDOMString"** %attributeName.addr, align 8
  call void @llvm.dbg.declare(metadata %"class.xalanc_1_10::XalanDOMString"** %attributeName.addr, metadata !3436, metadata !DIExpression()), !dbg !3437
  store %"class.xalanc_1_10::XPath"* %xpath, %"class.xalanc_1_10::XPath"** %xpath.addr, align 8
  call void @llvm.dbg.declare(metadata %"class.xalanc_1_10::XPath"** %xpath.addr, metadata !3438, metadata !DIExpression()), !dbg !3439
  call void @llvm.dbg.declare(metadata %"class.xalanc_1_10::XObjectPtr"* %selection, metadata !3440, metadata !DIExpression()), !dbg !3441
  %this1 = load %"class.xalanc_1_10::SelectionEvent"*, %"class.xalanc_1_10::SelectionEvent"** %this.addr, align 8
  %0 = bitcast %"class.xalanc_1_10::SelectionEvent"* %this1 to i32 (...)***, !dbg !3442
  store i32 (...)** bitcast (i8** getelementptr inbounds ({ [4 x i8*] }, { [4 x i8*] }* @_ZTVN11xalanc_1_1014SelectionEventE, i32 0, inrange i32 0, i32 2) to i32 (...)**), i32 (...)*** %0, align 8, !dbg !3442
  %m_executionContext = getelementptr inbounds %"class.xalanc_1_10::SelectionEvent", %"class.xalanc_1_10::SelectionEvent"* %this1, i32 0, i32 1, !dbg !3443
  %1 = load %"class.xalanc_1_10::StylesheetExecutionContext"*, %"class.xalanc_1_10::StylesheetExecutionContext"** %executionContext.addr, align 8, !dbg !3444
  store %"class.xalanc_1_10::StylesheetExecutionContext"* %1, %"class.xalanc_1_10::StylesheetExecutionContext"** %m_executionContext, align 8, !dbg !3443
  %m_sourceNode = getelementptr inbounds %"class.xalanc_1_10::SelectionEvent", %"class.xalanc_1_10::SelectionEvent"* %this1, i32 0, i32 2, !dbg !3445
  %2 = load %"class.xalanc_1_10::XalanNode"*, %"class.xalanc_1_10::XalanNode"** %sourceNode.addr, align 8, !dbg !3446
  store %"class.xalanc_1_10::XalanNode"* %2, %"class.xalanc_1_10::XalanNode"** %m_sourceNode, align 8, !dbg !3445
  %m_styleNode = getelementptr inbounds %"class.xalanc_1_10::SelectionEvent", %"class.xalanc_1_10::SelectionEvent"* %this1, i32 0, i32 3, !dbg !3447
  %3 = load %"class.xalanc_1_10::ElemTemplateElement"*, %"class.xalanc_1_10::ElemTemplateElement"** %styleNode.addr, align 8, !dbg !3448
  store %"class.xalanc_1_10::ElemTemplateElement"* %3, %"class.xalanc_1_10::ElemTemplateElement"** %m_styleNode, align 8, !dbg !3447
  %m_attributeName = getelementptr inbounds %"class.xalanc_1_10::SelectionEvent", %"class.xalanc_1_10::SelectionEvent"* %this1, i32 0, i32 4, !dbg !3449
  %4 = load %"class.xalanc_1_10::XalanDOMString"*, %"class.xalanc_1_10::XalanDOMString"** %attributeName.addr, align 8, !dbg !3450
  store %"class.xalanc_1_10::XalanDOMString"* %4, %"class.xalanc_1_10::XalanDOMString"** %m_attributeName, align 8, !dbg !3449
  %m_xpathExpression = getelementptr inbounds %"class.xalanc_1_10::SelectionEvent", %"class.xalanc_1_10::SelectionEvent"* %this1, i32 0, i32 5, !dbg !3451
  %5 = load %"class.xalanc_1_10::XPath"*, %"class.xalanc_1_10::XPath"** %xpath.addr, align 8, !dbg !3452
  %call = call dereferenceable(120) %"class.xalanc_1_10::XPathExpression"* @_ZNK11xalanc_1_105XPath13getExpressionEv(%"class.xalanc_1_10::XPath"* %5), !dbg !3453
  %call2 = call dereferenceable(40) %"class.xalanc_1_10::XalanDOMString"* @_ZNK11xalanc_1_1015XPathExpression17getCurrentPatternEv(%"class.xalanc_1_10::XPathExpression"* %call), !dbg !3454
  store %"class.xalanc_1_10::XalanDOMString"* %call2, %"class.xalanc_1_10::XalanDOMString"** %m_xpathExpression, align 8, !dbg !3451
  %m_selection = getelementptr inbounds %"class.xalanc_1_10::SelectionEvent", %"class.xalanc_1_10::SelectionEvent"* %this1, i32 0, i32 6, !dbg !3455
  call void @_ZN11xalanc_1_1010XObjectPtrC2ERKS0_(%"class.xalanc_1_10::XObjectPtr"* %m_selection, %"class.xalanc_1_10::XObjectPtr"* dereferenceable(8) %selection), !dbg !3455
  %m_type = getelementptr inbounds %"class.xalanc_1_10::SelectionEvent", %"class.xalanc_1_10::SelectionEvent"* %this1, i32 0, i32 7, !dbg !3456
  %call3 = invoke zeroext i1 @_ZNK11xalanc_1_1010XObjectPtr4nullEv(%"class.xalanc_1_10::XObjectPtr"* %selection)
          to label %invoke.cont unwind label %lpad, !dbg !3457

invoke.cont:                                      ; preds = %entry
  %conv = zext i1 %call3 to i32, !dbg !3458
  %cmp = icmp eq i32 %conv, 1, !dbg !3459
  %6 = zext i1 %cmp to i64, !dbg !3458
  %cond = select i1 %cmp, i32 0, i32 3, !dbg !3458
  store i32 %cond, i32* %m_type, align 8, !dbg !3456
  %m_boolean = getelementptr inbounds %"class.xalanc_1_10::SelectionEvent", %"class.xalanc_1_10::SelectionEvent"* %this1, i32 0, i32 8, !dbg !3460
  store i8 0, i8* %m_boolean, align 4, !dbg !3460
  %m_nodeList = getelementptr inbounds %"class.xalanc_1_10::SelectionEvent", %"class.xalanc_1_10::SelectionEvent"* %this1, i32 0, i32 9, !dbg !3461
  store %"class.xalanc_1_10::NodeRefListBase"* null, %"class.xalanc_1_10::NodeRefListBase"** %m_nodeList, align 8, !dbg !3461
  ret void, !dbg !3462

lpad:                                             ; preds = %entry
  %7 = landingpad { i8*, i32 }
          cleanup, !dbg !3462
  %8 = extractvalue { i8*, i32 } %7, 0, !dbg !3462
  store i8* %8, i8** %exn.slot, align 8, !dbg !3462
  %9 = extractvalue { i8*, i32 } %7, 1, !dbg !3462
  store i32 %9, i32* %ehselector.slot, align 4, !dbg !3462
  call void @_ZN11xalanc_1_1010XObjectPtrD2Ev(%"class.xalanc_1_10::XObjectPtr"* %m_selection) #6, !dbg !3463
  br label %eh.resume, !dbg !3463

eh.resume:                                        ; preds = %lpad
  %exn = load i8*, i8** %exn.slot, align 8, !dbg !3463
  %sel = load i32, i32* %ehselector.slot, align 4, !dbg !3463
  %lpad.val = insertvalue { i8*, i32 } undef, i8* %exn, 0, !dbg !3463
  %lpad.val4 = insertvalue { i8*, i32 } %lpad.val, i32 %sel, 1, !dbg !3463
  resume { i8*, i32 } %lpad.val4, !dbg !3463
}

; Function Attrs: nounwind readnone speculatable willreturn
declare void @llvm.dbg.declare(metadata, metadata, metadata) #1

; Function Attrs: noinline nounwind uwtable
define linkonce_odr dso_local dereferenceable(120) %"class.xalanc_1_10::XPathExpression"* @_ZNK11xalanc_1_105XPath13getExpressionEv(%"class.xalanc_1_10::XPath"* %this) #2 comdat align 2 !dbg !3465 {
entry:
  %this.addr = alloca %"class.xalanc_1_10::XPath"*, align 8
  store %"class.xalanc_1_10::XPath"* %this, %"class.xalanc_1_10::XPath"** %this.addr, align 8
  call void @llvm.dbg.declare(metadata %"class.xalanc_1_10::XPath"** %this.addr, metadata !3466, metadata !DIExpression()), !dbg !3468
  %this1 = load %"class.xalanc_1_10::XPath"*, %"class.xalanc_1_10::XPath"** %this.addr, align 8
  %m_expression = getelementptr inbounds %"class.xalanc_1_10::XPath", %"class.xalanc_1_10::XPath"* %this1, i32 0, i32 0, !dbg !3469
  ret %"class.xalanc_1_10::XPathExpression"* %m_expression, !dbg !3470
}

; Function Attrs: noinline nounwind uwtable
define linkonce_odr dso_local dereferenceable(40) %"class.xalanc_1_10::XalanDOMString"* @_ZNK11xalanc_1_1015XPathExpression17getCurrentPatternEv(%"class.xalanc_1_10::XPathExpression"* %this) #2 comdat align 2 !dbg !3471 {
entry:
  %this.addr = alloca %"class.xalanc_1_10::XPathExpression"*, align 8
  store %"class.xalanc_1_10::XPathExpression"* %this, %"class.xalanc_1_10::XPathExpression"** %this.addr, align 8
  call void @llvm.dbg.declare(metadata %"class.xalanc_1_10::XPathExpression"** %this.addr, metadata !3472, metadata !DIExpression()), !dbg !3474
  %this1 = load %"class.xalanc_1_10::XPathExpression"*, %"class.xalanc_1_10::XPathExpression"** %this.addr, align 8
  %m_currentPattern = getelementptr inbounds %"class.xalanc_1_10::XPathExpression", %"class.xalanc_1_10::XPathExpression"* %this1, i32 0, i32 4, !dbg !3475
  %0 = load %"class.xalanc_1_10::XalanDOMString"*, %"class.xalanc_1_10::XalanDOMString"** %m_currentPattern, align 8, !dbg !3475
  ret %"class.xalanc_1_10::XalanDOMString"* %0, !dbg !3476
}

; Function Attrs: noinline uwtable
define linkonce_odr dso_local void @_ZN11xalanc_1_1010XObjectPtrC2ERKS0_(%"class.xalanc_1_10::XObjectPtr"* %this, %"class.xalanc_1_10::XObjectPtr"* dereferenceable(8) %theSource) unnamed_addr #0 comdat align 2 !dbg !3477 {
entry:
  %this.addr = alloca %"class.xalanc_1_10::XObjectPtr"*, align 8
  %theSource.addr = alloca %"class.xalanc_1_10::XObjectPtr"*, align 8
  store %"class.xalanc_1_10::XObjectPtr"* %this, %"class.xalanc_1_10::XObjectPtr"** %this.addr, align 8
  call void @llvm.dbg.declare(metadata %"class.xalanc_1_10::XObjectPtr"** %this.addr, metadata !3478, metadata !DIExpression()), !dbg !3480
  store %"class.xalanc_1_10::XObjectPtr"* %theSource, %"class.xalanc_1_10::XObjectPtr"** %theSource.addr, align 8
  call void @llvm.dbg.declare(metadata %"class.xalanc_1_10::XObjectPtr"** %theSource.addr, metadata !3481, metadata !DIExpression()), !dbg !3482
  %this1 = load %"class.xalanc_1_10::XObjectPtr"*, %"class.xalanc_1_10::XObjectPtr"** %this.addr, align 8
  %m_xobjectPtr = getelementptr inbounds %"class.xalanc_1_10::XObjectPtr", %"class.xalanc_1_10::XObjectPtr"* %this1, i32 0, i32 0, !dbg !3483
  %0 = load %"class.xalanc_1_10::XObjectPtr"*, %"class.xalanc_1_10::XObjectPtr"** %theSource.addr, align 8, !dbg !3484
  %m_xobjectPtr2 = getelementptr inbounds %"class.xalanc_1_10::XObjectPtr", %"class.xalanc_1_10::XObjectPtr"* %0, i32 0, i32 0, !dbg !3485
  %1 = load %"class.xalanc_1_10::XObject"*, %"class.xalanc_1_10::XObject"** %m_xobjectPtr2, align 8, !dbg !3485
  store %"class.xalanc_1_10::XObject"* %1, %"class.xalanc_1_10::XObject"** %m_xobjectPtr, align 8, !dbg !3483
  %m_xobjectPtr3 = getelementptr inbounds %"class.xalanc_1_10::XObjectPtr", %"class.xalanc_1_10::XObjectPtr"* %this1, i32 0, i32 0, !dbg !3486
  %2 = load %"class.xalanc_1_10::XObject"*, %"class.xalanc_1_10::XObject"** %m_xobjectPtr3, align 8, !dbg !3486
  %3 = bitcast %"class.xalanc_1_10::XObject"* %2 to %"class.xalanc_1_10::XalanReferenceCountedObject"*, !dbg !3486
  call void @_ZN11xalanc_1_1027XalanReferenceCountedObject12addReferenceEPS0_(%"class.xalanc_1_10::XalanReferenceCountedObject"* %3), !dbg !3488
  ret void, !dbg !3489
}

; Function Attrs: noinline nounwind uwtable
define linkonce_odr dso_local zeroext i1 @_ZNK11xalanc_1_1010XObjectPtr4nullEv(%"class.xalanc_1_10::XObjectPtr"* %this) #2 comdat align 2 !dbg !3490 {
entry:
  %this.addr = alloca %"class.xalanc_1_10::XObjectPtr"*, align 8
  store %"class.xalanc_1_10::XObjectPtr"* %this, %"class.xalanc_1_10::XObjectPtr"** %this.addr, align 8
  call void @llvm.dbg.declare(metadata %"class.xalanc_1_10::XObjectPtr"** %this.addr, metadata !3491, metadata !DIExpression()), !dbg !3493
  %this1 = load %"class.xalanc_1_10::XObjectPtr"*, %"class.xalanc_1_10::XObjectPtr"** %this.addr, align 8
  %m_xobjectPtr = getelementptr inbounds %"class.xalanc_1_10::XObjectPtr", %"class.xalanc_1_10::XObjectPtr"* %this1, i32 0, i32 0, !dbg !3494
  %0 = load %"class.xalanc_1_10::XObject"*, %"class.xalanc_1_10::XObject"** %m_xobjectPtr, align 8, !dbg !3494
  %cmp = icmp eq %"class.xalanc_1_10::XObject"* %0, null, !dbg !3495
  %1 = zext i1 %cmp to i64, !dbg !3494
  %cond = select i1 %cmp, i1 true, i1 false, !dbg !3494
  ret i1 %cond, !dbg !3496
}

declare dso_local i32 @__gxx_personality_v0(...)

; Function Attrs: noinline nounwind uwtable
define linkonce_odr dso_local void @_ZN11xalanc_1_1010XObjectPtrD2Ev(%"class.xalanc_1_10::XObjectPtr"* %this) unnamed_addr #2 comdat align 2 personality i8* bitcast (i32 (...)* @__gxx_personality_v0 to i8*) !dbg !3497 {
entry:
  %this.addr = alloca %"class.xalanc_1_10::XObjectPtr"*, align 8
  store %"class.xalanc_1_10::XObjectPtr"* %this, %"class.xalanc_1_10::XObjectPtr"** %this.addr, align 8
  call void @llvm.dbg.declare(metadata %"class.xalanc_1_10::XObjectPtr"** %this.addr, metadata !3498, metadata !DIExpression()), !dbg !3499
  %this1 = load %"class.xalanc_1_10::XObjectPtr"*, %"class.xalanc_1_10::XObjectPtr"** %this.addr, align 8
  %m_xobjectPtr = getelementptr inbounds %"class.xalanc_1_10::XObjectPtr", %"class.xalanc_1_10::XObjectPtr"* %this1, i32 0, i32 0, !dbg !3500
  %0 = load %"class.xalanc_1_10::XObject"*, %"class.xalanc_1_10::XObject"** %m_xobjectPtr, align 8, !dbg !3500
  %1 = bitcast %"class.xalanc_1_10::XObject"* %0 to %"class.xalanc_1_10::XalanReferenceCountedObject"*, !dbg !3500
  invoke void @_ZN11xalanc_1_1027XalanReferenceCountedObject15removeReferenceEPS0_(%"class.xalanc_1_10::XalanReferenceCountedObject"* %1)
          to label %invoke.cont unwind label %terminate.lpad, !dbg !3502

invoke.cont:                                      ; preds = %entry
  ret void, !dbg !3503

terminate.lpad:                                   ; preds = %entry
  %2 = landingpad { i8*, i32 }
          catch i8* null, !dbg !3502
  %3 = extractvalue { i8*, i32 } %2, 0, !dbg !3502
  call void @__clang_call_terminate(i8* %3) #7, !dbg !3502
  unreachable, !dbg !3502
}

; Function Attrs: noinline uwtable
define dso_local void @_ZN11xalanc_1_1014SelectionEventC2ERNS_26StylesheetExecutionContextEPKNS_9XalanNodeERKNS_19ElemTemplateElementERKNS_14XalanDOMStringESB_NS_10XObjectPtrE(%"class.xalanc_1_10::SelectionEvent"* %this, %"class.xalanc_1_10::StylesheetExecutionContext"* nonnull %executionContext, %"class.xalanc_1_10::XalanNode"* %sourceNode, %"class.xalanc_1_10::ElemTemplateElement"* nonnull %styleNode, %"class.xalanc_1_10::XalanDOMString"* dereferenceable(40) %attributeName, %"class.xalanc_1_10::XalanDOMString"* dereferenceable(40) %xpathExpression, %"class.xalanc_1_10::XObjectPtr"* %selection) unnamed_addr #0 align 2 personality i8* bitcast (i32 (...)* @__gxx_personality_v0 to i8*) !dbg !3504 {
entry:
  %this.addr = alloca %"class.xalanc_1_10::SelectionEvent"*, align 8
  %executionContext.addr = alloca %"class.xalanc_1_10::StylesheetExecutionContext"*, align 8
  %sourceNode.addr = alloca %"class.xalanc_1_10::XalanNode"*, align 8
  %styleNode.addr = alloca %"class.xalanc_1_10::ElemTemplateElement"*, align 8
  %attributeName.addr = alloca %"class.xalanc_1_10::XalanDOMString"*, align 8
  %xpathExpression.addr = alloca %"class.xalanc_1_10::XalanDOMString"*, align 8
  %exn.slot = alloca i8*
  %ehselector.slot = alloca i32
  store %"class.xalanc_1_10::SelectionEvent"* %this, %"class.xalanc_1_10::SelectionEvent"** %this.addr, align 8
  call void @llvm.dbg.declare(metadata %"class.xalanc_1_10::SelectionEvent"** %this.addr, metadata !3505, metadata !DIExpression()), !dbg !3506
  store %"class.xalanc_1_10::StylesheetExecutionContext"* %executionContext, %"class.xalanc_1_10::StylesheetExecutionContext"** %executionContext.addr, align 8
  call void @llvm.dbg.declare(metadata %"class.xalanc_1_10::StylesheetExecutionContext"** %executionContext.addr, metadata !3507, metadata !DIExpression()), !dbg !3508
  store %"class.xalanc_1_10::XalanNode"* %sourceNode, %"class.xalanc_1_10::XalanNode"** %sourceNode.addr, align 8
  call void @llvm.dbg.declare(metadata %"class.xalanc_1_10::XalanNode"** %sourceNode.addr, metadata !3509, metadata !DIExpression()), !dbg !3510
  store %"class.xalanc_1_10::ElemTemplateElement"* %styleNode, %"class.xalanc_1_10::ElemTemplateElement"** %styleNode.addr, align 8
  call void @llvm.dbg.declare(metadata %"class.xalanc_1_10::ElemTemplateElement"** %styleNode.addr, metadata !3511, metadata !DIExpression()), !dbg !3512
  store %"class.xalanc_1_10::XalanDOMString"* %attributeName, %"class.xalanc_1_10::XalanDOMString"** %attributeName.addr, align 8
  call void @llvm.dbg.declare(metadata %"class.xalanc_1_10::XalanDOMString"** %attributeName.addr, metadata !3513, metadata !DIExpression()), !dbg !3514
  store %"class.xalanc_1_10::XalanDOMString"* %xpathExpression, %"class.xalanc_1_10::XalanDOMString"** %xpathExpression.addr, align 8
  call void @llvm.dbg.declare(metadata %"class.xalanc_1_10::XalanDOMString"** %xpathExpression.addr, metadata !3515, metadata !DIExpression()), !dbg !3516
  call void @llvm.dbg.declare(metadata %"class.xalanc_1_10::XObjectPtr"* %selection, metadata !3517, metadata !DIExpression()), !dbg !3518
  %this1 = load %"class.xalanc_1_10::SelectionEvent"*, %"class.xalanc_1_10::SelectionEvent"** %this.addr, align 8
  %0 = bitcast %"class.xalanc_1_10::SelectionEvent"* %this1 to i32 (...)***, !dbg !3519
  store i32 (...)** bitcast (i8** getelementptr inbounds ({ [4 x i8*] }, { [4 x i8*] }* @_ZTVN11xalanc_1_1014SelectionEventE, i32 0, inrange i32 0, i32 2) to i32 (...)**), i32 (...)*** %0, align 8, !dbg !3519
  %m_executionContext = getelementptr inbounds %"class.xalanc_1_10::SelectionEvent", %"class.xalanc_1_10::SelectionEvent"* %this1, i32 0, i32 1, !dbg !3520
  %1 = load %"class.xalanc_1_10::StylesheetExecutionContext"*, %"class.xalanc_1_10::StylesheetExecutionContext"** %executionContext.addr, align 8, !dbg !3521
  store %"class.xalanc_1_10::StylesheetExecutionContext"* %1, %"class.xalanc_1_10::StylesheetExecutionContext"** %m_executionContext, align 8, !dbg !3520
  %m_sourceNode = getelementptr inbounds %"class.xalanc_1_10::SelectionEvent", %"class.xalanc_1_10::SelectionEvent"* %this1, i32 0, i32 2, !dbg !3522
  %2 = load %"class.xalanc_1_10::XalanNode"*, %"class.xalanc_1_10::XalanNode"** %sourceNode.addr, align 8, !dbg !3523
  store %"class.xalanc_1_10::XalanNode"* %2, %"class.xalanc_1_10::XalanNode"** %m_sourceNode, align 8, !dbg !3522
  %m_styleNode = getelementptr inbounds %"class.xalanc_1_10::SelectionEvent", %"class.xalanc_1_10::SelectionEvent"* %this1, i32 0, i32 3, !dbg !3524
  %3 = load %"class.xalanc_1_10::ElemTemplateElement"*, %"class.xalanc_1_10::ElemTemplateElement"** %styleNode.addr, align 8, !dbg !3525
  store %"class.xalanc_1_10::ElemTemplateElement"* %3, %"class.xalanc_1_10::ElemTemplateElement"** %m_styleNode, align 8, !dbg !3524
  %m_attributeName = getelementptr inbounds %"class.xalanc_1_10::SelectionEvent", %"class.xalanc_1_10::SelectionEvent"* %this1, i32 0, i32 4, !dbg !3526
  %4 = load %"class.xalanc_1_10::XalanDOMString"*, %"class.xalanc_1_10::XalanDOMString"** %attributeName.addr, align 8, !dbg !3527
  store %"class.xalanc_1_10::XalanDOMString"* %4, %"class.xalanc_1_10::XalanDOMString"** %m_attributeName, align 8, !dbg !3526
  %m_xpathExpression = getelementptr inbounds %"class.xalanc_1_10::SelectionEvent", %"class.xalanc_1_10::SelectionEvent"* %this1, i32 0, i32 5, !dbg !3528
  %5 = load %"class.xalanc_1_10::XalanDOMString"*, %"class.xalanc_1_10::XalanDOMString"** %xpathExpression.addr, align 8, !dbg !3529
  store %"class.xalanc_1_10::XalanDOMString"* %5, %"class.xalanc_1_10::XalanDOMString"** %m_xpathExpression, align 8, !dbg !3528
  %m_selection = getelementptr inbounds %"class.xalanc_1_10::SelectionEvent", %"class.xalanc_1_10::SelectionEvent"* %this1, i32 0, i32 6, !dbg !3530
  call void @_ZN11xalanc_1_1010XObjectPtrC2ERKS0_(%"class.xalanc_1_10::XObjectPtr"* %m_selection, %"class.xalanc_1_10::XObjectPtr"* dereferenceable(8) %selection), !dbg !3530
  %m_type = getelementptr inbounds %"class.xalanc_1_10::SelectionEvent", %"class.xalanc_1_10::SelectionEvent"* %this1, i32 0, i32 7, !dbg !3531
  %call = invoke zeroext i1 @_ZNK11xalanc_1_1010XObjectPtr4nullEv(%"class.xalanc_1_10::XObjectPtr"* %selection)
          to label %invoke.cont unwind label %lpad, !dbg !3532

invoke.cont:                                      ; preds = %entry
  %conv = zext i1 %call to i32, !dbg !3533
  %cmp = icmp eq i32 %conv, 1, !dbg !3534
  %6 = zext i1 %cmp to i64, !dbg !3533
  %cond = select i1 %cmp, i32 0, i32 3, !dbg !3533
  store i32 %cond, i32* %m_type, align 8, !dbg !3531
  %m_boolean = getelementptr inbounds %"class.xalanc_1_10::SelectionEvent", %"class.xalanc_1_10::SelectionEvent"* %this1, i32 0, i32 8, !dbg !3535
  store i8 0, i8* %m_boolean, align 4, !dbg !3535
  %m_nodeList = getelementptr inbounds %"class.xalanc_1_10::SelectionEvent", %"class.xalanc_1_10::SelectionEvent"* %this1, i32 0, i32 9, !dbg !3536
  store %"class.xalanc_1_10::NodeRefListBase"* null, %"class.xalanc_1_10::NodeRefListBase"** %m_nodeList, align 8, !dbg !3536
  ret void, !dbg !3537

lpad:                                             ; preds = %entry
  %7 = landingpad { i8*, i32 }
          cleanup, !dbg !3537
  %8 = extractvalue { i8*, i32 } %7, 0, !dbg !3537
  store i8* %8, i8** %exn.slot, align 8, !dbg !3537
  %9 = extractvalue { i8*, i32 } %7, 1, !dbg !3537
  store i32 %9, i32* %ehselector.slot, align 4, !dbg !3537
  call void @_ZN11xalanc_1_1010XObjectPtrD2Ev(%"class.xalanc_1_10::XObjectPtr"* %m_selection) #6, !dbg !3538
  br label %eh.resume, !dbg !3538

eh.resume:                                        ; preds = %lpad
  %exn = load i8*, i8** %exn.slot, align 8, !dbg !3538
  %sel = load i32, i32* %ehselector.slot, align 4, !dbg !3538
  %lpad.val = insertvalue { i8*, i32 } undef, i8* %exn, 0, !dbg !3538
  %lpad.val2 = insertvalue { i8*, i32 } %lpad.val, i32 %sel, 1, !dbg !3538
  resume { i8*, i32 } %lpad.val2, !dbg !3538
}

; Function Attrs: noinline uwtable
define dso_local void @_ZN11xalanc_1_1014SelectionEventC2ERNS_26StylesheetExecutionContextEPKNS_9XalanNodeERKNS_19ElemTemplateElementERKNS_14XalanDOMStringERKNS_5XPathEb(%"class.xalanc_1_10::SelectionEvent"* %this, %"class.xalanc_1_10::StylesheetExecutionContext"* nonnull %executionContext, %"class.xalanc_1_10::XalanNode"* %sourceNode, %"class.xalanc_1_10::ElemTemplateElement"* nonnull %styleNode, %"class.xalanc_1_10::XalanDOMString"* dereferenceable(40) %attributeName, %"class.xalanc_1_10::XPath"* dereferenceable(136) %xpath, i1 zeroext %selection) unnamed_addr #0 align 2 !dbg !3540 {
entry:
  %this.addr = alloca %"class.xalanc_1_10::SelectionEvent"*, align 8
  %executionContext.addr = alloca %"class.xalanc_1_10::StylesheetExecutionContext"*, align 8
  %sourceNode.addr = alloca %"class.xalanc_1_10::XalanNode"*, align 8
  %styleNode.addr = alloca %"class.xalanc_1_10::ElemTemplateElement"*, align 8
  %attributeName.addr = alloca %"class.xalanc_1_10::XalanDOMString"*, align 8
  %xpath.addr = alloca %"class.xalanc_1_10::XPath"*, align 8
  %selection.addr = alloca i8, align 1
  store %"class.xalanc_1_10::SelectionEvent"* %this, %"class.xalanc_1_10::SelectionEvent"** %this.addr, align 8
  call void @llvm.dbg.declare(metadata %"class.xalanc_1_10::SelectionEvent"** %this.addr, metadata !3541, metadata !DIExpression()), !dbg !3542
  store %"class.xalanc_1_10::StylesheetExecutionContext"* %executionContext, %"class.xalanc_1_10::StylesheetExecutionContext"** %executionContext.addr, align 8
  call void @llvm.dbg.declare(metadata %"class.xalanc_1_10::StylesheetExecutionContext"** %executionContext.addr, metadata !3543, metadata !DIExpression()), !dbg !3544
  store %"class.xalanc_1_10::XalanNode"* %sourceNode, %"class.xalanc_1_10::XalanNode"** %sourceNode.addr, align 8
  call void @llvm.dbg.declare(metadata %"class.xalanc_1_10::XalanNode"** %sourceNode.addr, metadata !3545, metadata !DIExpression()), !dbg !3546
  store %"class.xalanc_1_10::ElemTemplateElement"* %styleNode, %"class.xalanc_1_10::ElemTemplateElement"** %styleNode.addr, align 8
  call void @llvm.dbg.declare(metadata %"class.xalanc_1_10::ElemTemplateElement"** %styleNode.addr, metadata !3547, metadata !DIExpression()), !dbg !3548
  store %"class.xalanc_1_10::XalanDOMString"* %attributeName, %"class.xalanc_1_10::XalanDOMString"** %attributeName.addr, align 8
  call void @llvm.dbg.declare(metadata %"class.xalanc_1_10::XalanDOMString"** %attributeName.addr, metadata !3549, metadata !DIExpression()), !dbg !3550
  store %"class.xalanc_1_10::XPath"* %xpath, %"class.xalanc_1_10::XPath"** %xpath.addr, align 8
  call void @llvm.dbg.declare(metadata %"class.xalanc_1_10::XPath"** %xpath.addr, metadata !3551, metadata !DIExpression()), !dbg !3552
  %frombool = zext i1 %selection to i8
  store i8 %frombool, i8* %selection.addr, align 1
  call void @llvm.dbg.declare(metadata i8* %selection.addr, metadata !3553, metadata !DIExpression()), !dbg !3554
  %this1 = load %"class.xalanc_1_10::SelectionEvent"*, %"class.xalanc_1_10::SelectionEvent"** %this.addr, align 8
  %0 = bitcast %"class.xalanc_1_10::SelectionEvent"* %this1 to i32 (...)***, !dbg !3555
  store i32 (...)** bitcast (i8** getelementptr inbounds ({ [4 x i8*] }, { [4 x i8*] }* @_ZTVN11xalanc_1_1014SelectionEventE, i32 0, inrange i32 0, i32 2) to i32 (...)**), i32 (...)*** %0, align 8, !dbg !3555
  %m_executionContext = getelementptr inbounds %"class.xalanc_1_10::SelectionEvent", %"class.xalanc_1_10::SelectionEvent"* %this1, i32 0, i32 1, !dbg !3556
  %1 = load %"class.xalanc_1_10::StylesheetExecutionContext"*, %"class.xalanc_1_10::StylesheetExecutionContext"** %executionContext.addr, align 8, !dbg !3557
  store %"class.xalanc_1_10::StylesheetExecutionContext"* %1, %"class.xalanc_1_10::StylesheetExecutionContext"** %m_executionContext, align 8, !dbg !3556
  %m_sourceNode = getelementptr inbounds %"class.xalanc_1_10::SelectionEvent", %"class.xalanc_1_10::SelectionEvent"* %this1, i32 0, i32 2, !dbg !3558
  %2 = load %"class.xalanc_1_10::XalanNode"*, %"class.xalanc_1_10::XalanNode"** %sourceNode.addr, align 8, !dbg !3559
  store %"class.xalanc_1_10::XalanNode"* %2, %"class.xalanc_1_10::XalanNode"** %m_sourceNode, align 8, !dbg !3558
  %m_styleNode = getelementptr inbounds %"class.xalanc_1_10::SelectionEvent", %"class.xalanc_1_10::SelectionEvent"* %this1, i32 0, i32 3, !dbg !3560
  %3 = load %"class.xalanc_1_10::ElemTemplateElement"*, %"class.xalanc_1_10::ElemTemplateElement"** %styleNode.addr, align 8, !dbg !3561
  store %"class.xalanc_1_10::ElemTemplateElement"* %3, %"class.xalanc_1_10::ElemTemplateElement"** %m_styleNode, align 8, !dbg !3560
  %m_attributeName = getelementptr inbounds %"class.xalanc_1_10::SelectionEvent", %"class.xalanc_1_10::SelectionEvent"* %this1, i32 0, i32 4, !dbg !3562
  %4 = load %"class.xalanc_1_10::XalanDOMString"*, %"class.xalanc_1_10::XalanDOMString"** %attributeName.addr, align 8, !dbg !3563
  store %"class.xalanc_1_10::XalanDOMString"* %4, %"class.xalanc_1_10::XalanDOMString"** %m_attributeName, align 8, !dbg !3562
  %m_xpathExpression = getelementptr inbounds %"class.xalanc_1_10::SelectionEvent", %"class.xalanc_1_10::SelectionEvent"* %this1, i32 0, i32 5, !dbg !3564
  %5 = load %"class.xalanc_1_10::XPath"*, %"class.xalanc_1_10::XPath"** %xpath.addr, align 8, !dbg !3565
  %call = call dereferenceable(120) %"class.xalanc_1_10::XPathExpression"* @_ZNK11xalanc_1_105XPath13getExpressionEv(%"class.xalanc_1_10::XPath"* %5), !dbg !3566
  %call2 = call dereferenceable(40) %"class.xalanc_1_10::XalanDOMString"* @_ZNK11xalanc_1_1015XPathExpression17getCurrentPatternEv(%"class.xalanc_1_10::XPathExpression"* %call), !dbg !3567
  store %"class.xalanc_1_10::XalanDOMString"* %call2, %"class.xalanc_1_10::XalanDOMString"** %m_xpathExpression, align 8, !dbg !3564
  %m_selection = getelementptr inbounds %"class.xalanc_1_10::SelectionEvent", %"class.xalanc_1_10::SelectionEvent"* %this1, i32 0, i32 6, !dbg !3568
  call void @_ZN11xalanc_1_1010XObjectPtrC2EPNS_7XObjectE(%"class.xalanc_1_10::XObjectPtr"* %m_selection, %"class.xalanc_1_10::XObject"* null), !dbg !3568
  %m_type = getelementptr inbounds %"class.xalanc_1_10::SelectionEvent", %"class.xalanc_1_10::SelectionEvent"* %this1, i32 0, i32 7, !dbg !3569
  store i32 1, i32* %m_type, align 8, !dbg !3569
  %m_boolean = getelementptr inbounds %"class.xalanc_1_10::SelectionEvent", %"class.xalanc_1_10::SelectionEvent"* %this1, i32 0, i32 8, !dbg !3570
  %6 = load i8, i8* %selection.addr, align 1, !dbg !3571
  %tobool = trunc i8 %6 to i1, !dbg !3571
  %frombool3 = zext i1 %tobool to i8, !dbg !3570
  store i8 %frombool3, i8* %m_boolean, align 4, !dbg !3570
  %m_nodeList = getelementptr inbounds %"class.xalanc_1_10::SelectionEvent", %"class.xalanc_1_10::SelectionEvent"* %this1, i32 0, i32 9, !dbg !3572
  store %"class.xalanc_1_10::NodeRefListBase"* null, %"class.xalanc_1_10::NodeRefListBase"** %m_nodeList, align 8, !dbg !3572
  ret void, !dbg !3573
}

; Function Attrs: noinline uwtable
define linkonce_odr dso_local void @_ZN11xalanc_1_1010XObjectPtrC2EPNS_7XObjectE(%"class.xalanc_1_10::XObjectPtr"* %this, %"class.xalanc_1_10::XObject"* %theXObject) unnamed_addr #0 comdat align 2 !dbg !3574 {
entry:
  %this.addr = alloca %"class.xalanc_1_10::XObjectPtr"*, align 8
  %theXObject.addr = alloca %"class.xalanc_1_10::XObject"*, align 8
  store %"class.xalanc_1_10::XObjectPtr"* %this, %"class.xalanc_1_10::XObjectPtr"** %this.addr, align 8
  call void @llvm.dbg.declare(metadata %"class.xalanc_1_10::XObjectPtr"** %this.addr, metadata !3575, metadata !DIExpression()), !dbg !3576
  store %"class.xalanc_1_10::XObject"* %theXObject, %"class.xalanc_1_10::XObject"** %theXObject.addr, align 8
  call void @llvm.dbg.declare(metadata %"class.xalanc_1_10::XObject"** %theXObject.addr, metadata !3577, metadata !DIExpression()), !dbg !3578
  %this1 = load %"class.xalanc_1_10::XObjectPtr"*, %"class.xalanc_1_10::XObjectPtr"** %this.addr, align 8
  %m_xobjectPtr = getelementptr inbounds %"class.xalanc_1_10::XObjectPtr", %"class.xalanc_1_10::XObjectPtr"* %this1, i32 0, i32 0, !dbg !3579
  %0 = load %"class.xalanc_1_10::XObject"*, %"class.xalanc_1_10::XObject"** %theXObject.addr, align 8, !dbg !3580
  store %"class.xalanc_1_10::XObject"* %0, %"class.xalanc_1_10::XObject"** %m_xobjectPtr, align 8, !dbg !3579
  %1 = load %"class.xalanc_1_10::XObject"*, %"class.xalanc_1_10::XObject"** %theXObject.addr, align 8, !dbg !3581
  %2 = bitcast %"class.xalanc_1_10::XObject"* %1 to %"class.xalanc_1_10::XalanReferenceCountedObject"*, !dbg !3581
  call void @_ZN11xalanc_1_1027XalanReferenceCountedObject12addReferenceEPS0_(%"class.xalanc_1_10::XalanReferenceCountedObject"* %2), !dbg !3583
  ret void, !dbg !3584
}

; Function Attrs: noinline uwtable
define dso_local void @_ZN11xalanc_1_1014SelectionEventC2ERNS_26StylesheetExecutionContextEPKNS_9XalanNodeERKNS_19ElemTemplateElementERKNS_14XalanDOMStringERKNS_5XPathERKNS_15NodeRefListBaseE(%"class.xalanc_1_10::SelectionEvent"* %this, %"class.xalanc_1_10::StylesheetExecutionContext"* nonnull %executionContext, %"class.xalanc_1_10::XalanNode"* %sourceNode, %"class.xalanc_1_10::ElemTemplateElement"* nonnull %styleNode, %"class.xalanc_1_10::XalanDOMString"* dereferenceable(40) %attributeName, %"class.xalanc_1_10::XPath"* dereferenceable(136) %xpath, %"class.xalanc_1_10::NodeRefListBase"* dereferenceable(8) %selection) unnamed_addr #0 align 2 !dbg !3585 {
entry:
  %this.addr = alloca %"class.xalanc_1_10::SelectionEvent"*, align 8
  %executionContext.addr = alloca %"class.xalanc_1_10::StylesheetExecutionContext"*, align 8
  %sourceNode.addr = alloca %"class.xalanc_1_10::XalanNode"*, align 8
  %styleNode.addr = alloca %"class.xalanc_1_10::ElemTemplateElement"*, align 8
  %attributeName.addr = alloca %"class.xalanc_1_10::XalanDOMString"*, align 8
  %xpath.addr = alloca %"class.xalanc_1_10::XPath"*, align 8
  %selection.addr = alloca %"class.xalanc_1_10::NodeRefListBase"*, align 8
  store %"class.xalanc_1_10::SelectionEvent"* %this, %"class.xalanc_1_10::SelectionEvent"** %this.addr, align 8
  call void @llvm.dbg.declare(metadata %"class.xalanc_1_10::SelectionEvent"** %this.addr, metadata !3586, metadata !DIExpression()), !dbg !3587
  store %"class.xalanc_1_10::StylesheetExecutionContext"* %executionContext, %"class.xalanc_1_10::StylesheetExecutionContext"** %executionContext.addr, align 8
  call void @llvm.dbg.declare(metadata %"class.xalanc_1_10::StylesheetExecutionContext"** %executionContext.addr, metadata !3588, metadata !DIExpression()), !dbg !3589
  store %"class.xalanc_1_10::XalanNode"* %sourceNode, %"class.xalanc_1_10::XalanNode"** %sourceNode.addr, align 8
  call void @llvm.dbg.declare(metadata %"class.xalanc_1_10::XalanNode"** %sourceNode.addr, metadata !3590, metadata !DIExpression()), !dbg !3591
  store %"class.xalanc_1_10::ElemTemplateElement"* %styleNode, %"class.xalanc_1_10::ElemTemplateElement"** %styleNode.addr, align 8
  call void @llvm.dbg.declare(metadata %"class.xalanc_1_10::ElemTemplateElement"** %styleNode.addr, metadata !3592, metadata !DIExpression()), !dbg !3593
  store %"class.xalanc_1_10::XalanDOMString"* %attributeName, %"class.xalanc_1_10::XalanDOMString"** %attributeName.addr, align 8
  call void @llvm.dbg.declare(metadata %"class.xalanc_1_10::XalanDOMString"** %attributeName.addr, metadata !3594, metadata !DIExpression()), !dbg !3595
  store %"class.xalanc_1_10::XPath"* %xpath, %"class.xalanc_1_10::XPath"** %xpath.addr, align 8
  call void @llvm.dbg.declare(metadata %"class.xalanc_1_10::XPath"** %xpath.addr, metadata !3596, metadata !DIExpression()), !dbg !3597
  store %"class.xalanc_1_10::NodeRefListBase"* %selection, %"class.xalanc_1_10::NodeRefListBase"** %selection.addr, align 8
  call void @llvm.dbg.declare(metadata %"class.xalanc_1_10::NodeRefListBase"** %selection.addr, metadata !3598, metadata !DIExpression()), !dbg !3599
  %this1 = load %"class.xalanc_1_10::SelectionEvent"*, %"class.xalanc_1_10::SelectionEvent"** %this.addr, align 8
  %0 = bitcast %"class.xalanc_1_10::SelectionEvent"* %this1 to i32 (...)***, !dbg !3600
  store i32 (...)** bitcast (i8** getelementptr inbounds ({ [4 x i8*] }, { [4 x i8*] }* @_ZTVN11xalanc_1_1014SelectionEventE, i32 0, inrange i32 0, i32 2) to i32 (...)**), i32 (...)*** %0, align 8, !dbg !3600
  %m_executionContext = getelementptr inbounds %"class.xalanc_1_10::SelectionEvent", %"class.xalanc_1_10::SelectionEvent"* %this1, i32 0, i32 1, !dbg !3601
  %1 = load %"class.xalanc_1_10::StylesheetExecutionContext"*, %"class.xalanc_1_10::StylesheetExecutionContext"** %executionContext.addr, align 8, !dbg !3602
  store %"class.xalanc_1_10::StylesheetExecutionContext"* %1, %"class.xalanc_1_10::StylesheetExecutionContext"** %m_executionContext, align 8, !dbg !3601
  %m_sourceNode = getelementptr inbounds %"class.xalanc_1_10::SelectionEvent", %"class.xalanc_1_10::SelectionEvent"* %this1, i32 0, i32 2, !dbg !3603
  %2 = load %"class.xalanc_1_10::XalanNode"*, %"class.xalanc_1_10::XalanNode"** %sourceNode.addr, align 8, !dbg !3604
  store %"class.xalanc_1_10::XalanNode"* %2, %"class.xalanc_1_10::XalanNode"** %m_sourceNode, align 8, !dbg !3603
  %m_styleNode = getelementptr inbounds %"class.xalanc_1_10::SelectionEvent", %"class.xalanc_1_10::SelectionEvent"* %this1, i32 0, i32 3, !dbg !3605
  %3 = load %"class.xalanc_1_10::ElemTemplateElement"*, %"class.xalanc_1_10::ElemTemplateElement"** %styleNode.addr, align 8, !dbg !3606
  store %"class.xalanc_1_10::ElemTemplateElement"* %3, %"class.xalanc_1_10::ElemTemplateElement"** %m_styleNode, align 8, !dbg !3605
  %m_attributeName = getelementptr inbounds %"class.xalanc_1_10::SelectionEvent", %"class.xalanc_1_10::SelectionEvent"* %this1, i32 0, i32 4, !dbg !3607
  %4 = load %"class.xalanc_1_10::XalanDOMString"*, %"class.xalanc_1_10::XalanDOMString"** %attributeName.addr, align 8, !dbg !3608
  store %"class.xalanc_1_10::XalanDOMString"* %4, %"class.xalanc_1_10::XalanDOMString"** %m_attributeName, align 8, !dbg !3607
  %m_xpathExpression = getelementptr inbounds %"class.xalanc_1_10::SelectionEvent", %"class.xalanc_1_10::SelectionEvent"* %this1, i32 0, i32 5, !dbg !3609
  %5 = load %"class.xalanc_1_10::XPath"*, %"class.xalanc_1_10::XPath"** %xpath.addr, align 8, !dbg !3610
  %call = call dereferenceable(120) %"class.xalanc_1_10::XPathExpression"* @_ZNK11xalanc_1_105XPath13getExpressionEv(%"class.xalanc_1_10::XPath"* %5), !dbg !3611
  %call2 = call dereferenceable(40) %"class.xalanc_1_10::XalanDOMString"* @_ZNK11xalanc_1_1015XPathExpression17getCurrentPatternEv(%"class.xalanc_1_10::XPathExpression"* %call), !dbg !3612
  store %"class.xalanc_1_10::XalanDOMString"* %call2, %"class.xalanc_1_10::XalanDOMString"** %m_xpathExpression, align 8, !dbg !3609
  %m_selection = getelementptr inbounds %"class.xalanc_1_10::SelectionEvent", %"class.xalanc_1_10::SelectionEvent"* %this1, i32 0, i32 6, !dbg !3613
  call void @_ZN11xalanc_1_1010XObjectPtrC2EPNS_7XObjectE(%"class.xalanc_1_10::XObjectPtr"* %m_selection, %"class.xalanc_1_10::XObject"* null), !dbg !3613
  %m_type = getelementptr inbounds %"class.xalanc_1_10::SelectionEvent", %"class.xalanc_1_10::SelectionEvent"* %this1, i32 0, i32 7, !dbg !3614
  store i32 2, i32* %m_type, align 8, !dbg !3614
  %m_boolean = getelementptr inbounds %"class.xalanc_1_10::SelectionEvent", %"class.xalanc_1_10::SelectionEvent"* %this1, i32 0, i32 8, !dbg !3615
  store i8 0, i8* %m_boolean, align 4, !dbg !3615
  %m_nodeList = getelementptr inbounds %"class.xalanc_1_10::SelectionEvent", %"class.xalanc_1_10::SelectionEvent"* %this1, i32 0, i32 9, !dbg !3616
  %6 = load %"class.xalanc_1_10::NodeRefListBase"*, %"class.xalanc_1_10::NodeRefListBase"** %selection.addr, align 8, !dbg !3617
  store %"class.xalanc_1_10::NodeRefListBase"* %6, %"class.xalanc_1_10::NodeRefListBase"** %m_nodeList, align 8, !dbg !3616
  ret void, !dbg !3618
}

; Function Attrs: noinline nounwind uwtable
define dso_local void @_ZN11xalanc_1_1014SelectionEventD2Ev(%"class.xalanc_1_10::SelectionEvent"* %this) unnamed_addr #2 align 2 !dbg !3619 {
entry:
  %this.addr = alloca %"class.xalanc_1_10::SelectionEvent"*, align 8
  store %"class.xalanc_1_10::SelectionEvent"* %this, %"class.xalanc_1_10::SelectionEvent"** %this.addr, align 8
  call void @llvm.dbg.declare(metadata %"class.xalanc_1_10::SelectionEvent"** %this.addr, metadata !3620, metadata !DIExpression()), !dbg !3621
  %this1 = load %"class.xalanc_1_10::SelectionEvent"*, %"class.xalanc_1_10::SelectionEvent"** %this.addr, align 8
  %0 = bitcast %"class.xalanc_1_10::SelectionEvent"* %this1 to i32 (...)***, !dbg !3622
  store i32 (...)** bitcast (i8** getelementptr inbounds ({ [4 x i8*] }, { [4 x i8*] }* @_ZTVN11xalanc_1_1014SelectionEventE, i32 0, inrange i32 0, i32 2) to i32 (...)**), i32 (...)*** %0, align 8, !dbg !3622
  %m_selection = getelementptr inbounds %"class.xalanc_1_10::SelectionEvent", %"class.xalanc_1_10::SelectionEvent"* %this1, i32 0, i32 6, !dbg !3623
  call void @_ZN11xalanc_1_1010XObjectPtrD2Ev(%"class.xalanc_1_10::XObjectPtr"* %m_selection) #6, !dbg !3623
  ret void, !dbg !3625
}

; Function Attrs: noinline nounwind uwtable
define dso_local void @_ZN11xalanc_1_1014SelectionEventD0Ev(%"class.xalanc_1_10::SelectionEvent"* %this) unnamed_addr #2 align 2 !dbg !3626 {
entry:
  %this.addr = alloca %"class.xalanc_1_10::SelectionEvent"*, align 8
  store %"class.xalanc_1_10::SelectionEvent"* %this, %"class.xalanc_1_10::SelectionEvent"** %this.addr, align 8
  call void @llvm.dbg.declare(metadata %"class.xalanc_1_10::SelectionEvent"** %this.addr, metadata !3627, metadata !DIExpression()), !dbg !3628
  %this1 = load %"class.xalanc_1_10::SelectionEvent"*, %"class.xalanc_1_10::SelectionEvent"** %this.addr, align 8
  call void @_ZN11xalanc_1_1014SelectionEventD1Ev(%"class.xalanc_1_10::SelectionEvent"* %this1) #6, !dbg !3629
  %0 = bitcast %"class.xalanc_1_10::SelectionEvent"* %this1 to i8*, !dbg !3629
  call void @_ZdlPv(i8* %0) #8, !dbg !3629
  ret void, !dbg !3630
}

; Function Attrs: nobuiltin nounwind
declare dso_local void @_ZdlPv(i8*) #3

declare dso_local void @_ZN11xalanc_1_1027XalanReferenceCountedObject12addReferenceEPS0_(%"class.xalanc_1_10::XalanReferenceCountedObject"*) #4

declare dso_local void @_ZN11xalanc_1_1027XalanReferenceCountedObject15removeReferenceEPS0_(%"class.xalanc_1_10::XalanReferenceCountedObject"*) #4

; Function Attrs: noinline noreturn nounwind
define linkonce_odr hidden void @__clang_call_terminate(i8* %0) #5 comdat {
  %2 = call i8* @__cxa_begin_catch(i8* %0) #6
  call void @_ZSt9terminatev() #7
  unreachable
}

declare dso_local i8* @__cxa_begin_catch(i8*)

declare dso_local void @_ZSt9terminatev()

attributes #0 = { noinline uwtable "correctly-rounded-divide-sqrt-fp-math"="false" "disable-tail-calls"="false" "frame-pointer"="all" "less-precise-fpmad"="false" "min-legal-vector-width"="0" "no-infs-fp-math"="false" "no-jump-tables"="false" "no-nans-fp-math"="false" "no-signed-zeros-fp-math"="false" "no-trapping-math"="false" "stack-protector-buffer-size"="8" "target-cpu"="x86-64" "target-features"="+cx8,+fxsr,+mmx,+sse,+sse2,+x87" "unsafe-fp-math"="false" "use-soft-float"="false" }
attributes #1 = { nounwind readnone speculatable willreturn }
attributes #2 = { noinline nounwind uwtable "correctly-rounded-divide-sqrt-fp-math"="false" "disable-tail-calls"="false" "frame-pointer"="all" "less-precise-fpmad"="false" "min-legal-vector-width"="0" "no-infs-fp-math"="false" "no-jump-tables"="false" "no-nans-fp-math"="false" "no-signed-zeros-fp-math"="false" "no-trapping-math"="false" "stack-protector-buffer-size"="8" "target-cpu"="x86-64" "target-features"="+cx8,+fxsr,+mmx,+sse,+sse2,+x87" "unsafe-fp-math"="false" "use-soft-float"="false" }
attributes #3 = { nobuiltin nounwind "correctly-rounded-divide-sqrt-fp-math"="false" "disable-tail-calls"="false" "frame-pointer"="all" "less-precise-fpmad"="false" "no-infs-fp-math"="false" "no-nans-fp-math"="false" "no-signed-zeros-fp-math"="false" "no-trapping-math"="false" "stack-protector-buffer-size"="8" "target-cpu"="x86-64" "target-features"="+cx8,+fxsr,+mmx,+sse,+sse2,+x87" "unsafe-fp-math"="false" "use-soft-float"="false" }
attributes #4 = { "correctly-rounded-divide-sqrt-fp-math"="false" "disable-tail-calls"="false" "frame-pointer"="all" "less-precise-fpmad"="false" "no-infs-fp-math"="false" "no-nans-fp-math"="false" "no-signed-zeros-fp-math"="false" "no-trapping-math"="false" "stack-protector-buffer-size"="8" "target-cpu"="x86-64" "target-features"="+cx8,+fxsr,+mmx,+sse,+sse2,+x87" "unsafe-fp-math"="false" "use-soft-float"="false" }
attributes #5 = { noinline noreturn nounwind }
attributes #6 = { nounwind }
attributes #7 = { noreturn nounwind }
attributes #8 = { builtin nounwind }

!llvm.dbg.cu = !{!0}
!llvm.module.flags = !{!3422, !3423, !3424}
!llvm.ident = !{!3425}

!0 = distinct !DICompileUnit(language: DW_LANG_C_plus_plus_14, file: !1, producer: "clang version 10.0.1 (https://github.com/svkeerthy/IR2Vec-LoopOptimizationFramework.git 561ac470e63b728263a0ac06ef987886ac648486)", isOptimized: false, runtimeVersion: 0, emissionKind: FullDebug, enums: !2, imports: !2217, splitDebugInlining: false, nameTableKind: None)
!1 = !DIFile(filename: "SelectionEvent.cpp", directory: "/home/venkat/IF-DV/spec_build_release/CPU_2017/benchspec/CPU/523.xalancbmk_r/build/build_base_ld-loop-ext-m64.0000")
!2 = !{!3, !1453, !1601, !2160}
!3 = !DICompositeType(tag: DW_TAG_enumeration_type, name: "eOpCodes", scope: !5, file: !4, line: 106, baseType: !11, size: 32, elements: !1517, identifier: "_ZTSN11xalanc_1_1015XPathExpression8eOpCodesE")
!4 = !DIFile(filename: "./xalanc/XPath/XPathExpression.hpp", directory: "/home/venkat/IF-DV/spec_build_release/CPU_2017/benchspec/CPU/523.xalancbmk_r/build/build_base_ld-loop-ext-m64.0000")
!5 = distinct !DICompositeType(tag: DW_TAG_class_type, name: "XPathExpression", scope: !6, file: !4, line: 60, size: 960, flags: DIFlagTypePassByReference | DIFlagNonTrivial, elements: !7, identifier: "_ZTSN11xalanc_1_1015XPathExpressionE")
!6 = !DINamespace(name: "xalanc_1_10", scope: null)
!7 = !{!8, !12, !215, !218, !404, !405, !1159, !1344, !1348, !1351, !1354, !1355, !1356, !1361, !1364, !1368, !1371, !1374, !1377, !1380, !1385, !1386, !1389, !1392, !1395, !1398, !1404, !1407, !1410, !1413, !1416, !1419, !1422, !1425, !1428, !1429, !1432, !1435, !1438, !1439, !1440, !1446, !1449, !1450, !1457, !1460, !1463, !1464, !1465, !1468, !1474, !1482, !1485, !1488, !1491, !1494, !1497, !1501, !1502, !1503, !1506, !1509, !1510, !1511, !1514}
!8 = !DIDerivedType(tag: DW_TAG_member, name: "s_opCodeMapLengthIndex", scope: !5, file: !4, line: 713, baseType: !9, flags: DIFlagPublic | DIFlagStaticMember, extraData: i32 1)
!9 = !DIDerivedType(tag: DW_TAG_const_type, baseType: !10)
!10 = !DIDerivedType(tag: DW_TAG_typedef, name: "TokenQueueSizeType", scope: !5, file: !4, line: 85, baseType: !11)
!11 = !DIBasicType(name: "int", size: 32, encoding: DW_ATE_signed)
!12 = !DIDerivedType(tag: DW_TAG_member, name: "m_opMap", scope: !5, file: !4, line: 1467, baseType: !13, size: 256)
!13 = !DIDerivedType(tag: DW_TAG_typedef, name: "OpCodeMapType", scope: !5, file: !4, line: 66, baseType: !14)
!14 = distinct !DICompositeType(tag: DW_TAG_class_type, name: "XalanVector<int, xalanc_1_10::MemoryManagedConstructionTraits<int> >", scope: !6, file: !15, line: 61, size: 256, flags: DIFlagTypePassByReference | DIFlagNonTrivial, elements: !16, templateParams: !207, identifier: "_ZTSN11xalanc_1_1011XalanVectorIiNS_31MemoryManagedConstructionTraitsIiEEEE")
!15 = !DIFile(filename: "./xalanc/Include/XalanVector.hpp", directory: "/home/venkat/IF-DV/spec_build_release/CPU_2017/benchspec/CPU/523.xalancbmk_r/build/build_base_ld-loop-ext-m64.0000")
!16 = !{!17, !22, !27, !28, !31, !36, !40, !46, !52, !55, !59, !62, !65, !66, !70, !73, !76, !79, !82, !85, !88, !91, !96, !97, !100, !101, !102, !106, !107, !112, !116, !117, !118, !121, !124, !125, !126, !134, !140, !141, !142, !145, !148, !149, !150, !151, !155, !158, !163, !166, !170, !173, !177, !180, !183, !186, !189, !190, !193, !194, !195, !199, !202, !203, !204}
!17 = !DIDerivedType(tag: DW_TAG_member, name: "m_memoryManager", scope: !14, file: !15, line: 1087, baseType: !18, size: 64)
!18 = !DIDerivedType(tag: DW_TAG_pointer_type, baseType: !19, size: 64)
!19 = !DICompositeType(tag: DW_TAG_class_type, name: "MemoryManager", scope: !21, file: !20, line: 38, flags: DIFlagFwdDecl, identifier: "_ZTSN11xercesc_2_713MemoryManagerE")
!20 = !DIFile(filename: "./xercesc/framework/MemoryManager.hpp", directory: "/home/venkat/IF-DV/spec_build_release/CPU_2017/benchspec/CPU/523.xalancbmk_r/build/build_base_ld-loop-ext-m64.0000")
!21 = !DINamespace(name: "xercesc_2_7", scope: null)
!22 = !DIDerivedType(tag: DW_TAG_member, name: "m_size", scope: !14, file: !15, line: 1089, baseType: !23, size: 64, offset: 64)
!23 = !DIDerivedType(tag: DW_TAG_typedef, name: "size_type", file: !15, line: 71, baseType: !24)
!24 = !DIDerivedType(tag: DW_TAG_typedef, name: "size_t", file: !25, line: 46, baseType: !26)
!25 = !DIFile(filename: "Rohit/IR2Vec-LoopOptimizationFramework/build_REL_AsrtON/lib/clang/10.0.1/include/stddef.h", directory: "/home/venkat/IF-DV")
!26 = !DIBasicType(name: "long unsigned int", size: 64, encoding: DW_ATE_unsigned)
!27 = !DIDerivedType(tag: DW_TAG_member, name: "m_allocation", scope: !14, file: !15, line: 1091, baseType: !23, size: 64, offset: 128)
!28 = !DIDerivedType(tag: DW_TAG_member, name: "m_data", scope: !14, file: !15, line: 1093, baseType: !29, size: 64, offset: 192)
!29 = !DIDerivedType(tag: DW_TAG_pointer_type, baseType: !30, size: 64)
!30 = !DIDerivedType(tag: DW_TAG_typedef, name: "value_type", scope: !14, file: !15, line: 66, baseType: !11)
!31 = !DISubprogram(name: "XalanVector", scope: !14, file: !15, line: 120, type: !32, scopeLine: 120, flags: DIFlagPublic | DIFlagPrototyped, spFlags: 0)
!32 = !DISubroutineType(types: !33)
!33 = !{null, !34, !35, !23}
!34 = !DIDerivedType(tag: DW_TAG_pointer_type, baseType: !14, size: 64, flags: DIFlagArtificial | DIFlagObjectPointer)
!35 = !DIDerivedType(tag: DW_TAG_reference_type, baseType: !19, size: 64)
!36 = !DISubprogram(name: "create", linkageName: "_ZN11xalanc_1_1011XalanVectorIiNS_31MemoryManagedConstructionTraitsIiEEE6createERN11xercesc_2_713MemoryManagerEm", scope: !14, file: !15, line: 132, type: !37, scopeLine: 132, flags: DIFlagPublic | DIFlagPrototyped | DIFlagStaticMember, spFlags: 0)
!37 = !DISubroutineType(types: !38)
!38 = !{!39, !35, !23}
!39 = !DIDerivedType(tag: DW_TAG_pointer_type, baseType: !14, size: 64)
!40 = !DISubprogram(name: "XalanVector", scope: !14, file: !15, line: 149, type: !41, scopeLine: 149, flags: DIFlagPublic | DIFlagPrototyped, spFlags: 0)
!41 = !DISubroutineType(types: !42)
!42 = !{null, !34, !43, !35, !23}
!43 = !DIDerivedType(tag: DW_TAG_reference_type, baseType: !44, size: 64)
!44 = !DIDerivedType(tag: DW_TAG_const_type, baseType: !45)
!45 = !DIDerivedType(tag: DW_TAG_typedef, name: "ThisType", scope: !14, file: !15, line: 115, baseType: !14)
!46 = !DISubprogram(name: "XalanVector", scope: !14, file: !15, line: 177, type: !47, scopeLine: 177, flags: DIFlagPublic | DIFlagPrototyped, spFlags: 0)
!47 = !DISubroutineType(types: !48)
!48 = !{null, !34, !49, !49, !35}
!49 = !DIDerivedType(tag: DW_TAG_typedef, name: "const_iterator", scope: !14, file: !15, line: 92, baseType: !50)
!50 = !DIDerivedType(tag: DW_TAG_pointer_type, baseType: !51, size: 64)
!51 = !DIDerivedType(tag: DW_TAG_const_type, baseType: !30)
!52 = !DISubprogram(name: "create", linkageName: "_ZN11xalanc_1_1011XalanVectorIiNS_31MemoryManagedConstructionTraitsIiEEE6createEPKiS5_RN11xercesc_2_713MemoryManagerE", scope: !14, file: !15, line: 197, type: !53, scopeLine: 197, flags: DIFlagPublic | DIFlagPrototyped | DIFlagStaticMember, spFlags: 0)
!53 = !DISubroutineType(types: !54)
!54 = !{!39, !49, !49, !35}
!55 = !DISubprogram(name: "XalanVector", scope: !14, file: !15, line: 215, type: !56, scopeLine: 215, flags: DIFlagPublic | DIFlagPrototyped, spFlags: 0)
!56 = !DISubroutineType(types: !57)
!57 = !{null, !34, !23, !58, !35}
!58 = !DIDerivedType(tag: DW_TAG_reference_type, baseType: !51, size: 64)
!59 = !DISubprogram(name: "~XalanVector", scope: !14, file: !15, line: 233, type: !60, scopeLine: 233, flags: DIFlagPublic | DIFlagPrototyped, spFlags: 0)
!60 = !DISubroutineType(types: !61)
!61 = !{null, !34}
!62 = !DISubprogram(name: "push_back", linkageName: "_ZN11xalanc_1_1011XalanVectorIiNS_31MemoryManagedConstructionTraitsIiEEE9push_backERKi", scope: !14, file: !15, line: 246, type: !63, scopeLine: 246, flags: DIFlagPublic | DIFlagPrototyped, spFlags: 0)
!63 = !DISubroutineType(types: !64)
!64 = !{null, !34, !58}
!65 = !DISubprogram(name: "pop_back", linkageName: "_ZN11xalanc_1_1011XalanVectorIiNS_31MemoryManagedConstructionTraitsIiEEE8pop_backEv", scope: !14, file: !15, line: 256, type: !60, scopeLine: 256, flags: DIFlagPublic | DIFlagPrototyped, spFlags: 0)
!66 = !DISubprogram(name: "erase", linkageName: "_ZN11xalanc_1_1011XalanVectorIiNS_31MemoryManagedConstructionTraitsIiEEE5eraseEPiS4_", scope: !14, file: !15, line: 268, type: !67, scopeLine: 268, flags: DIFlagPublic | DIFlagPrototyped, spFlags: 0)
!67 = !DISubroutineType(types: !68)
!68 = !{!69, !34, !69, !69}
!69 = !DIDerivedType(tag: DW_TAG_typedef, name: "iterator", scope: !14, file: !15, line: 91, baseType: !29)
!70 = !DISubprogram(name: "erase", linkageName: "_ZN11xalanc_1_1011XalanVectorIiNS_31MemoryManagedConstructionTraitsIiEEE5eraseEPi", scope: !14, file: !15, line: 290, type: !71, scopeLine: 290, flags: DIFlagPublic | DIFlagPrototyped, spFlags: 0)
!71 = !DISubroutineType(types: !72)
!72 = !{!69, !34, !69}
!73 = !DISubprogram(name: "insert", linkageName: "_ZN11xalanc_1_1011XalanVectorIiNS_31MemoryManagedConstructionTraitsIiEEE6insertEPiPKiS6_", scope: !14, file: !15, line: 296, type: !74, scopeLine: 296, flags: DIFlagPublic | DIFlagPrototyped, spFlags: 0)
!74 = !DISubroutineType(types: !75)
!75 = !{null, !34, !69, !49, !49}
!76 = !DISubprogram(name: "insert", linkageName: "_ZN11xalanc_1_1011XalanVectorIiNS_31MemoryManagedConstructionTraitsIiEEE6insertEPimRKi", scope: !14, file: !15, line: 415, type: !77, scopeLine: 415, flags: DIFlagPublic | DIFlagPrototyped, spFlags: 0)
!77 = !DISubroutineType(types: !78)
!78 = !{null, !34, !69, !23, !58}
!79 = !DISubprogram(name: "insert", linkageName: "_ZN11xalanc_1_1011XalanVectorIiNS_31MemoryManagedConstructionTraitsIiEEE6insertEPiRKi", scope: !14, file: !15, line: 516, type: !80, scopeLine: 516, flags: DIFlagPublic | DIFlagPrototyped, spFlags: 0)
!80 = !DISubroutineType(types: !81)
!81 = !{!69, !34, !69, !58}
!82 = !DISubprogram(name: "assign", linkageName: "_ZN11xalanc_1_1011XalanVectorIiNS_31MemoryManagedConstructionTraitsIiEEE6assignEPKiS5_", scope: !14, file: !15, line: 538, type: !83, scopeLine: 538, flags: DIFlagPublic | DIFlagPrototyped, spFlags: 0)
!83 = !DISubroutineType(types: !84)
!84 = !{null, !34, !49, !49}
!85 = !DISubprogram(name: "assign", linkageName: "_ZN11xalanc_1_1011XalanVectorIiNS_31MemoryManagedConstructionTraitsIiEEE6assignEPiS4_", scope: !14, file: !15, line: 551, type: !86, scopeLine: 551, flags: DIFlagPublic | DIFlagPrototyped, spFlags: 0)
!86 = !DISubroutineType(types: !87)
!87 = !{null, !34, !69, !69}
!88 = !DISubprogram(name: "assign", linkageName: "_ZN11xalanc_1_1011XalanVectorIiNS_31MemoryManagedConstructionTraitsIiEEE6assignEmRKi", scope: !14, file: !15, line: 561, type: !89, scopeLine: 561, flags: DIFlagPublic | DIFlagPrototyped, spFlags: 0)
!89 = !DISubroutineType(types: !90)
!90 = !{null, !34, !23, !58}
!91 = !DISubprogram(name: "size", linkageName: "_ZNK11xalanc_1_1011XalanVectorIiNS_31MemoryManagedConstructionTraitsIiEEE4sizeEv", scope: !14, file: !15, line: 571, type: !92, scopeLine: 571, flags: DIFlagPublic | DIFlagPrototyped, spFlags: 0)
!92 = !DISubroutineType(types: !93)
!93 = !{!23, !94}
!94 = !DIDerivedType(tag: DW_TAG_pointer_type, baseType: !95, size: 64, flags: DIFlagArtificial | DIFlagObjectPointer)
!95 = !DIDerivedType(tag: DW_TAG_const_type, baseType: !14)
!96 = !DISubprogram(name: "max_size", linkageName: "_ZNK11xalanc_1_1011XalanVectorIiNS_31MemoryManagedConstructionTraitsIiEEE8max_sizeEv", scope: !14, file: !15, line: 579, type: !92, scopeLine: 579, flags: DIFlagPublic | DIFlagPrototyped, spFlags: 0)
!97 = !DISubprogram(name: "resize", linkageName: "_ZN11xalanc_1_1011XalanVectorIiNS_31MemoryManagedConstructionTraitsIiEEE6resizeEm", scope: !14, file: !15, line: 587, type: !98, scopeLine: 587, flags: DIFlagPublic | DIFlagPrototyped, spFlags: 0)
!98 = !DISubroutineType(types: !99)
!99 = !{null, !34, !23}
!100 = !DISubprogram(name: "resize", linkageName: "_ZN11xalanc_1_1011XalanVectorIiNS_31MemoryManagedConstructionTraitsIiEEE6resizeEmRKi", scope: !14, file: !15, line: 595, type: !89, scopeLine: 595, flags: DIFlagPublic | DIFlagPrototyped, spFlags: 0)
!101 = !DISubprogram(name: "capacity", linkageName: "_ZNK11xalanc_1_1011XalanVectorIiNS_31MemoryManagedConstructionTraitsIiEEE8capacityEv", scope: !14, file: !15, line: 628, type: !92, scopeLine: 628, flags: DIFlagPublic | DIFlagPrototyped, spFlags: 0)
!102 = !DISubprogram(name: "empty", linkageName: "_ZNK11xalanc_1_1011XalanVectorIiNS_31MemoryManagedConstructionTraitsIiEEE5emptyEv", scope: !14, file: !15, line: 636, type: !103, scopeLine: 636, flags: DIFlagPublic | DIFlagPrototyped, spFlags: 0)
!103 = !DISubroutineType(types: !104)
!104 = !{!105, !94}
!105 = !DIBasicType(name: "bool", size: 8, encoding: DW_ATE_boolean)
!106 = !DISubprogram(name: "reserve", linkageName: "_ZN11xalanc_1_1011XalanVectorIiNS_31MemoryManagedConstructionTraitsIiEEE7reserveEm", scope: !14, file: !15, line: 644, type: !98, scopeLine: 644, flags: DIFlagPublic | DIFlagPrototyped, spFlags: 0)
!107 = !DISubprogram(name: "front", linkageName: "_ZN11xalanc_1_1011XalanVectorIiNS_31MemoryManagedConstructionTraitsIiEEE5frontEv", scope: !14, file: !15, line: 657, type: !108, scopeLine: 657, flags: DIFlagPublic | DIFlagPrototyped, spFlags: 0)
!108 = !DISubroutineType(types: !109)
!109 = !{!110, !34}
!110 = !DIDerivedType(tag: DW_TAG_typedef, name: "reference", scope: !14, file: !15, line: 69, baseType: !111)
!111 = !DIDerivedType(tag: DW_TAG_reference_type, baseType: !30, size: 64)
!112 = !DISubprogram(name: "front", linkageName: "_ZNK11xalanc_1_1011XalanVectorIiNS_31MemoryManagedConstructionTraitsIiEEE5frontEv", scope: !14, file: !15, line: 665, type: !113, scopeLine: 665, flags: DIFlagPublic | DIFlagPrototyped, spFlags: 0)
!113 = !DISubroutineType(types: !114)
!114 = !{!115, !94}
!115 = !DIDerivedType(tag: DW_TAG_typedef, name: "const_reference", scope: !14, file: !15, line: 70, baseType: !58)
!116 = !DISubprogram(name: "back", linkageName: "_ZN11xalanc_1_1011XalanVectorIiNS_31MemoryManagedConstructionTraitsIiEEE4backEv", scope: !14, file: !15, line: 673, type: !108, scopeLine: 673, flags: DIFlagPublic | DIFlagPrototyped, spFlags: 0)
!117 = !DISubprogram(name: "back", linkageName: "_ZNK11xalanc_1_1011XalanVectorIiNS_31MemoryManagedConstructionTraitsIiEEE4backEv", scope: !14, file: !15, line: 679, type: !113, scopeLine: 679, flags: DIFlagPublic | DIFlagPrototyped, spFlags: 0)
!118 = !DISubprogram(name: "begin", linkageName: "_ZN11xalanc_1_1011XalanVectorIiNS_31MemoryManagedConstructionTraitsIiEEE5beginEv", scope: !14, file: !15, line: 685, type: !119, scopeLine: 685, flags: DIFlagPublic | DIFlagPrototyped, spFlags: 0)
!119 = !DISubroutineType(types: !120)
!120 = !{!69, !34}
!121 = !DISubprogram(name: "begin", linkageName: "_ZNK11xalanc_1_1011XalanVectorIiNS_31MemoryManagedConstructionTraitsIiEEE5beginEv", scope: !14, file: !15, line: 693, type: !122, scopeLine: 693, flags: DIFlagPublic | DIFlagPrototyped, spFlags: 0)
!122 = !DISubroutineType(types: !123)
!123 = !{!49, !94}
!124 = !DISubprogram(name: "end", linkageName: "_ZN11xalanc_1_1011XalanVectorIiNS_31MemoryManagedConstructionTraitsIiEEE3endEv", scope: !14, file: !15, line: 701, type: !119, scopeLine: 701, flags: DIFlagPublic | DIFlagPrototyped, spFlags: 0)
!125 = !DISubprogram(name: "end", linkageName: "_ZNK11xalanc_1_1011XalanVectorIiNS_31MemoryManagedConstructionTraitsIiEEE3endEv", scope: !14, file: !15, line: 709, type: !122, scopeLine: 709, flags: DIFlagPublic | DIFlagPrototyped, spFlags: 0)
!126 = !DISubprogram(name: "rbegin", linkageName: "_ZN11xalanc_1_1011XalanVectorIiNS_31MemoryManagedConstructionTraitsIiEEE6rbeginEv", scope: !14, file: !15, line: 717, type: !127, scopeLine: 717, flags: DIFlagPublic | DIFlagPrototyped, spFlags: 0)
!127 = !DISubroutineType(types: !128)
!128 = !{!129, !34}
!129 = !DIDerivedType(tag: DW_TAG_typedef, name: "reverse_iterator", scope: !14, file: !15, line: 112, baseType: !130)
!130 = !DIDerivedType(tag: DW_TAG_typedef, name: "reverse_iterator_", scope: !14, file: !15, line: 96, baseType: !131)
!131 = !DICompositeType(tag: DW_TAG_class_type, name: "reverse_iterator<int *>", scope: !133, file: !132, line: 125, flags: DIFlagFwdDecl, identifier: "_ZTSSt16reverse_iteratorIPiE")
!132 = !DIFile(filename: "/usr/lib/gcc/x86_64-linux-gnu/10/../../../../include/c++/10/bits/stl_iterator.h", directory: "")
!133 = !DINamespace(name: "std", scope: null)
!134 = !DISubprogram(name: "rbegin", linkageName: "_ZNK11xalanc_1_1011XalanVectorIiNS_31MemoryManagedConstructionTraitsIiEEE6rbeginEv", scope: !14, file: !15, line: 725, type: !135, scopeLine: 725, flags: DIFlagPublic | DIFlagPrototyped, spFlags: 0)
!135 = !DISubroutineType(types: !136)
!136 = !{!137, !94}
!137 = !DIDerivedType(tag: DW_TAG_typedef, name: "const_reverse_iterator", scope: !14, file: !15, line: 113, baseType: !138)
!138 = !DIDerivedType(tag: DW_TAG_typedef, name: "const_reverse_iterator_", scope: !14, file: !15, line: 97, baseType: !139)
!139 = !DICompositeType(tag: DW_TAG_class_type, name: "reverse_iterator<const int *>", scope: !133, file: !132, line: 125, flags: DIFlagFwdDecl, identifier: "_ZTSSt16reverse_iteratorIPKiE")
!140 = !DISubprogram(name: "rend", linkageName: "_ZN11xalanc_1_1011XalanVectorIiNS_31MemoryManagedConstructionTraitsIiEEE4rendEv", scope: !14, file: !15, line: 733, type: !127, scopeLine: 733, flags: DIFlagPublic | DIFlagPrototyped, spFlags: 0)
!141 = !DISubprogram(name: "rend", linkageName: "_ZNK11xalanc_1_1011XalanVectorIiNS_31MemoryManagedConstructionTraitsIiEEE4rendEv", scope: !14, file: !15, line: 741, type: !135, scopeLine: 741, flags: DIFlagPublic | DIFlagPrototyped, spFlags: 0)
!142 = !DISubprogram(name: "at", linkageName: "_ZN11xalanc_1_1011XalanVectorIiNS_31MemoryManagedConstructionTraitsIiEEE2atEm", scope: !14, file: !15, line: 750, type: !143, scopeLine: 750, flags: DIFlagPublic | DIFlagPrototyped, spFlags: 0)
!143 = !DISubroutineType(types: !144)
!144 = !{!110, !34, !23}
!145 = !DISubprogram(name: "at", linkageName: "_ZNK11xalanc_1_1011XalanVectorIiNS_31MemoryManagedConstructionTraitsIiEEE2atEm", scope: !14, file: !15, line: 761, type: !146, scopeLine: 761, flags: DIFlagPublic | DIFlagPrototyped, spFlags: 0)
!146 = !DISubroutineType(types: !147)
!147 = !{!115, !94, !23}
!148 = !DISubprogram(name: "operator[]", linkageName: "_ZN11xalanc_1_1011XalanVectorIiNS_31MemoryManagedConstructionTraitsIiEEEixEm", scope: !14, file: !15, line: 772, type: !143, scopeLine: 772, flags: DIFlagPublic | DIFlagPrototyped, spFlags: 0)
!149 = !DISubprogram(name: "operator[]", linkageName: "_ZNK11xalanc_1_1011XalanVectorIiNS_31MemoryManagedConstructionTraitsIiEEEixEm", scope: !14, file: !15, line: 780, type: !146, scopeLine: 780, flags: DIFlagPublic | DIFlagPrototyped, spFlags: 0)
!150 = !DISubprogram(name: "clear", linkageName: "_ZN11xalanc_1_1011XalanVectorIiNS_31MemoryManagedConstructionTraitsIiEEE5clearEv", scope: !14, file: !15, line: 788, type: !60, scopeLine: 788, flags: DIFlagPublic | DIFlagPrototyped, spFlags: 0)
!151 = !DISubprogram(name: "operator=", linkageName: "_ZN11xalanc_1_1011XalanVectorIiNS_31MemoryManagedConstructionTraitsIiEEEaSERKS3_", scope: !14, file: !15, line: 802, type: !152, scopeLine: 802, flags: DIFlagPublic | DIFlagPrototyped, spFlags: 0)
!152 = !DISubroutineType(types: !153)
!153 = !{!154, !34, !43}
!154 = !DIDerivedType(tag: DW_TAG_reference_type, baseType: !45, size: 64)
!155 = !DISubprogram(name: "swap", linkageName: "_ZN11xalanc_1_1011XalanVectorIiNS_31MemoryManagedConstructionTraitsIiEEE4swapERS3_", scope: !14, file: !15, line: 848, type: !156, scopeLine: 848, flags: DIFlagPublic | DIFlagPrototyped, spFlags: 0)
!156 = !DISubroutineType(types: !157)
!157 = !{null, !34, !154}
!158 = !DISubprogram(name: "getMemoryManager", linkageName: "_ZNK11xalanc_1_1011XalanVectorIiNS_31MemoryManagedConstructionTraitsIiEEE16getMemoryManagerEv", scope: !14, file: !15, line: 871, type: !159, scopeLine: 871, flags: DIFlagPublic | DIFlagPrototyped, spFlags: 0)
!159 = !DISubroutineType(types: !160)
!160 = !{!161, !94}
!161 = !DIDerivedType(tag: DW_TAG_pointer_type, baseType: !162, size: 64)
!162 = !DIDerivedType(tag: DW_TAG_const_type, baseType: !19)
!163 = !DISubprogram(name: "getMemoryManager", linkageName: "_ZN11xalanc_1_1011XalanVectorIiNS_31MemoryManagedConstructionTraitsIiEEE16getMemoryManagerEv", scope: !14, file: !15, line: 877, type: !164, scopeLine: 877, flags: DIFlagPublic | DIFlagPrototyped, spFlags: 0)
!164 = !DISubroutineType(types: !165)
!165 = !{!35, !34}
!166 = !DISubprogram(name: "detach", linkageName: "_ZN11xalanc_1_1011XalanVectorIiNS_31MemoryManagedConstructionTraitsIiEEE6detachEv", scope: !14, file: !15, line: 889, type: !167, scopeLine: 889, flags: DIFlagPublic | DIFlagPrototyped, spFlags: 0)
!167 = !DISubroutineType(types: !168)
!168 = !{!169, !34}
!169 = !DIDerivedType(tag: DW_TAG_typedef, name: "pointer", scope: !14, file: !15, line: 67, baseType: !29)
!170 = !DISubprogram(name: "invariants", linkageName: "_ZNK11xalanc_1_1011XalanVectorIiNS_31MemoryManagedConstructionTraitsIiEEE10invariantsEv", scope: !14, file: !15, line: 905, type: !171, scopeLine: 905, flags: DIFlagPrototyped, spFlags: 0)
!171 = !DISubroutineType(types: !172)
!172 = !{null, !94}
!173 = !DISubprogram(name: "local_distance", linkageName: "_ZN11xalanc_1_1011XalanVectorIiNS_31MemoryManagedConstructionTraitsIiEEE14local_distanceEPKiS5_", scope: !14, file: !15, line: 918, type: !174, scopeLine: 918, flags: DIFlagPrototyped, spFlags: 0)
!174 = !DISubroutineType(types: !175)
!175 = !{!176, !34, !49, !49}
!176 = !DIDerivedType(tag: DW_TAG_typedef, name: "size_type", scope: !14, file: !15, line: 71, baseType: !24)
!177 = !DISubprogram(name: "allocate", linkageName: "_ZN11xalanc_1_1011XalanVectorIiNS_31MemoryManagedConstructionTraitsIiEEE8allocateEm", scope: !14, file: !15, line: 938, type: !178, scopeLine: 938, flags: DIFlagPrototyped, spFlags: 0)
!178 = !DISubroutineType(types: !179)
!179 = !{!29, !34, !23}
!180 = !DISubprogram(name: "deallocate", linkageName: "_ZN11xalanc_1_1011XalanVectorIiNS_31MemoryManagedConstructionTraitsIiEEE10deallocateEPi", scope: !14, file: !15, line: 952, type: !181, scopeLine: 952, flags: DIFlagPrototyped, spFlags: 0)
!181 = !DISubroutineType(types: !182)
!182 = !{null, !34, !29}
!183 = !DISubprogram(name: "destroy", linkageName: "_ZN11xalanc_1_1011XalanVectorIiNS_31MemoryManagedConstructionTraitsIiEEE7destroyERi", scope: !14, file: !15, line: 961, type: !184, scopeLine: 961, flags: DIFlagPrototyped | DIFlagStaticMember, spFlags: 0)
!184 = !DISubroutineType(types: !185)
!185 = !{null, !111}
!186 = !DISubprogram(name: "destroy", linkageName: "_ZN11xalanc_1_1011XalanVectorIiNS_31MemoryManagedConstructionTraitsIiEEE7destroyEPiS4_", scope: !14, file: !15, line: 967, type: !187, scopeLine: 967, flags: DIFlagPrototyped | DIFlagStaticMember, spFlags: 0)
!187 = !DISubroutineType(types: !188)
!188 = !{null, !69, !69}
!189 = !DISubprogram(name: "doPushBack", linkageName: "_ZN11xalanc_1_1011XalanVectorIiNS_31MemoryManagedConstructionTraitsIiEEE10doPushBackERKi", scope: !14, file: !15, line: 978, type: !63, scopeLine: 978, flags: DIFlagPrototyped, spFlags: 0)
!190 = !DISubprogram(name: "ensureCapacity", linkageName: "_ZN11xalanc_1_1011XalanVectorIiNS_31MemoryManagedConstructionTraitsIiEEE14ensureCapacityEm", scope: !14, file: !15, line: 1006, type: !191, scopeLine: 1006, flags: DIFlagPrototyped, spFlags: 0)
!191 = !DISubroutineType(types: !192)
!192 = !{!169, !34, !23}
!193 = !DISubprogram(name: "doReserve", linkageName: "_ZN11xalanc_1_1011XalanVectorIiNS_31MemoryManagedConstructionTraitsIiEEE9doReserveEm", scope: !14, file: !15, line: 1017, type: !98, scopeLine: 1017, flags: DIFlagPrototyped, spFlags: 0)
!194 = !DISubprogram(name: "endPointer", linkageName: "_ZN11xalanc_1_1011XalanVectorIiNS_31MemoryManagedConstructionTraitsIiEEE10endPointerEv", scope: !14, file: !15, line: 1031, type: !167, scopeLine: 1031, flags: DIFlagPrototyped, spFlags: 0)
!195 = !DISubprogram(name: "endPointer", linkageName: "_ZNK11xalanc_1_1011XalanVectorIiNS_31MemoryManagedConstructionTraitsIiEEE10endPointerEv", scope: !14, file: !15, line: 1037, type: !196, scopeLine: 1037, flags: DIFlagPrototyped, spFlags: 0)
!196 = !DISubroutineType(types: !197)
!197 = !{!198, !94}
!198 = !DIDerivedType(tag: DW_TAG_typedef, name: "const_pointer", scope: !14, file: !15, line: 68, baseType: !50)
!199 = !DISubprogram(name: "outOfRange", linkageName: "_ZN11xalanc_1_1011XalanVectorIiNS_31MemoryManagedConstructionTraitsIiEEE10outOfRangeEv", scope: !14, file: !15, line: 1043, type: !200, scopeLine: 1043, flags: DIFlagPrototyped | DIFlagStaticMember, spFlags: 0)
!200 = !DISubroutineType(types: !201)
!201 = !{null}
!202 = !DISubprogram(name: "shrinkToSize", linkageName: "_ZN11xalanc_1_1011XalanVectorIiNS_31MemoryManagedConstructionTraitsIiEEE12shrinkToSizeEm", scope: !14, file: !15, line: 1049, type: !98, scopeLine: 1049, flags: DIFlagPrototyped, spFlags: 0)
!203 = !DISubprogram(name: "shrinkCount", linkageName: "_ZN11xalanc_1_1011XalanVectorIiNS_31MemoryManagedConstructionTraitsIiEEE11shrinkCountEm", scope: !14, file: !15, line: 1060, type: !98, scopeLine: 1060, flags: DIFlagPrototyped, spFlags: 0)
!204 = !DISubprogram(name: "local_max", linkageName: "_ZN11xalanc_1_1011XalanVectorIiNS_31MemoryManagedConstructionTraitsIiEEE9local_maxEmm", scope: !14, file: !15, line: 1073, type: !205, scopeLine: 1073, flags: DIFlagPrototyped, spFlags: 0)
!205 = !DISubroutineType(types: !206)
!206 = !{!176, !34, !23, !23}
!207 = !{!208, !209}
!208 = !DITemplateTypeParameter(name: "Type", type: !11)
!209 = !DITemplateTypeParameter(name: "ConstructionTraits", type: !210)
!210 = distinct !DICompositeType(tag: DW_TAG_structure_type, name: "MemoryManagedConstructionTraits<int>", scope: !6, file: !211, line: 462, size: 8, flags: DIFlagTypePassByValue, elements: !212, templateParams: !213, identifier: "_ZTSN11xalanc_1_1031MemoryManagedConstructionTraitsIiEE")
!211 = !DIFile(filename: "./xalanc/Include/XalanMemoryManagement.hpp", directory: "/home/venkat/IF-DV/spec_build_release/CPU_2017/benchspec/CPU/523.xalancbmk_r/build/build_base_ld-loop-ext-m64.0000")
!212 = !{}
!213 = !{!214}
!214 = !DITemplateTypeParameter(name: "C", type: !11)
!215 = !DIDerivedType(tag: DW_TAG_member, name: "m_lastOpCodeIndex", scope: !5, file: !4, line: 1473, baseType: !216, size: 32, offset: 256)
!216 = !DIDerivedType(tag: DW_TAG_typedef, name: "OpCodeMapSizeType", scope: !5, file: !4, line: 70, baseType: !217)
!217 = !DIDerivedType(tag: DW_TAG_typedef, name: "OpCodeMapValueType", scope: !5, file: !4, line: 69, baseType: !30)
!218 = !DIDerivedType(tag: DW_TAG_member, name: "m_tokenQueue", scope: !5, file: !4, line: 1480, baseType: !219, size: 256, offset: 320)
!219 = !DIDerivedType(tag: DW_TAG_typedef, name: "TokenQueueType", scope: !5, file: !4, line: 67, baseType: !220)
!220 = distinct !DICompositeType(tag: DW_TAG_class_type, name: "XalanVector<xalanc_1_10::XToken, xalanc_1_10::MemoryManagedConstructionTraits<xalanc_1_10::XToken> >", scope: !6, file: !15, line: 61, size: 256, flags: DIFlagTypePassByReference | DIFlagNonTrivial, elements: !221, templateParams: !398, identifier: "_ZTSN11xalanc_1_1011XalanVectorINS_6XTokenENS_31MemoryManagedConstructionTraitsIS1_EEEE")
!221 = !{!222, !223, !224, !225, !230, !234, !238, !244, !250, !253, !257, !260, !263, !264, !268, !271, !274, !277, !280, !283, !286, !289, !294, !295, !298, !299, !300, !303, !304, !309, !313, !314, !315, !318, !321, !322, !323, !329, !335, !336, !337, !340, !343, !344, !345, !346, !350, !353, !356, !359, !363, !366, !370, !373, !376, !379, !382, !383, !386, !387, !388, !392, !393, !394, !395}
!222 = !DIDerivedType(tag: DW_TAG_member, name: "m_memoryManager", scope: !220, file: !15, line: 1087, baseType: !18, size: 64)
!223 = !DIDerivedType(tag: DW_TAG_member, name: "m_size", scope: !220, file: !15, line: 1089, baseType: !23, size: 64, offset: 64)
!224 = !DIDerivedType(tag: DW_TAG_member, name: "m_allocation", scope: !220, file: !15, line: 1091, baseType: !23, size: 64, offset: 128)
!225 = !DIDerivedType(tag: DW_TAG_member, name: "m_data", scope: !220, file: !15, line: 1093, baseType: !226, size: 64, offset: 192)
!226 = !DIDerivedType(tag: DW_TAG_pointer_type, baseType: !227, size: 64)
!227 = !DIDerivedType(tag: DW_TAG_typedef, name: "value_type", scope: !220, file: !15, line: 66, baseType: !228)
!228 = !DICompositeType(tag: DW_TAG_class_type, name: "XToken", scope: !6, file: !229, line: 35, flags: DIFlagFwdDecl)
!229 = !DIFile(filename: "./xalanc/XPath/XToken.hpp", directory: "/home/venkat/IF-DV/spec_build_release/CPU_2017/benchspec/CPU/523.xalancbmk_r/build/build_base_ld-loop-ext-m64.0000")
!230 = !DISubprogram(name: "XalanVector", scope: !220, file: !15, line: 120, type: !231, scopeLine: 120, flags: DIFlagPublic | DIFlagPrototyped, spFlags: 0)
!231 = !DISubroutineType(types: !232)
!232 = !{null, !233, !35, !23}
!233 = !DIDerivedType(tag: DW_TAG_pointer_type, baseType: !220, size: 64, flags: DIFlagArtificial | DIFlagObjectPointer)
!234 = !DISubprogram(name: "create", linkageName: "_ZN11xalanc_1_1011XalanVectorINS_6XTokenENS_31MemoryManagedConstructionTraitsIS1_EEE6createERN11xercesc_2_713MemoryManagerEm", scope: !220, file: !15, line: 132, type: !235, scopeLine: 132, flags: DIFlagPublic | DIFlagPrototyped | DIFlagStaticMember, spFlags: 0)
!235 = !DISubroutineType(types: !236)
!236 = !{!237, !35, !23}
!237 = !DIDerivedType(tag: DW_TAG_pointer_type, baseType: !220, size: 64)
!238 = !DISubprogram(name: "XalanVector", scope: !220, file: !15, line: 149, type: !239, scopeLine: 149, flags: DIFlagPublic | DIFlagPrototyped, spFlags: 0)
!239 = !DISubroutineType(types: !240)
!240 = !{null, !233, !241, !35, !23}
!241 = !DIDerivedType(tag: DW_TAG_reference_type, baseType: !242, size: 64)
!242 = !DIDerivedType(tag: DW_TAG_const_type, baseType: !243)
!243 = !DIDerivedType(tag: DW_TAG_typedef, name: "ThisType", scope: !220, file: !15, line: 115, baseType: !220)
!244 = !DISubprogram(name: "XalanVector", scope: !220, file: !15, line: 177, type: !245, scopeLine: 177, flags: DIFlagPublic | DIFlagPrototyped, spFlags: 0)
!245 = !DISubroutineType(types: !246)
!246 = !{null, !233, !247, !247, !35}
!247 = !DIDerivedType(tag: DW_TAG_typedef, name: "const_iterator", scope: !220, file: !15, line: 92, baseType: !248)
!248 = !DIDerivedType(tag: DW_TAG_pointer_type, baseType: !249, size: 64)
!249 = !DIDerivedType(tag: DW_TAG_const_type, baseType: !227)
!250 = !DISubprogram(name: "create", linkageName: "_ZN11xalanc_1_1011XalanVectorINS_6XTokenENS_31MemoryManagedConstructionTraitsIS1_EEE6createEPKS1_S6_RN11xercesc_2_713MemoryManagerE", scope: !220, file: !15, line: 197, type: !251, scopeLine: 197, flags: DIFlagPublic | DIFlagPrototyped | DIFlagStaticMember, spFlags: 0)
!251 = !DISubroutineType(types: !252)
!252 = !{!237, !247, !247, !35}
!253 = !DISubprogram(name: "XalanVector", scope: !220, file: !15, line: 215, type: !254, scopeLine: 215, flags: DIFlagPublic | DIFlagPrototyped, spFlags: 0)
!254 = !DISubroutineType(types: !255)
!255 = !{null, !233, !23, !256, !35}
!256 = !DIDerivedType(tag: DW_TAG_reference_type, baseType: !249, size: 64)
!257 = !DISubprogram(name: "~XalanVector", scope: !220, file: !15, line: 233, type: !258, scopeLine: 233, flags: DIFlagPublic | DIFlagPrototyped, spFlags: 0)
!258 = !DISubroutineType(types: !259)
!259 = !{null, !233}
!260 = !DISubprogram(name: "push_back", linkageName: "_ZN11xalanc_1_1011XalanVectorINS_6XTokenENS_31MemoryManagedConstructionTraitsIS1_EEE9push_backERKS1_", scope: !220, file: !15, line: 246, type: !261, scopeLine: 246, flags: DIFlagPublic | DIFlagPrototyped, spFlags: 0)
!261 = !DISubroutineType(types: !262)
!262 = !{null, !233, !256}
!263 = !DISubprogram(name: "pop_back", linkageName: "_ZN11xalanc_1_1011XalanVectorINS_6XTokenENS_31MemoryManagedConstructionTraitsIS1_EEE8pop_backEv", scope: !220, file: !15, line: 256, type: !258, scopeLine: 256, flags: DIFlagPublic | DIFlagPrototyped, spFlags: 0)
!264 = !DISubprogram(name: "erase", linkageName: "_ZN11xalanc_1_1011XalanVectorINS_6XTokenENS_31MemoryManagedConstructionTraitsIS1_EEE5eraseEPS1_S5_", scope: !220, file: !15, line: 268, type: !265, scopeLine: 268, flags: DIFlagPublic | DIFlagPrototyped, spFlags: 0)
!265 = !DISubroutineType(types: !266)
!266 = !{!267, !233, !267, !267}
!267 = !DIDerivedType(tag: DW_TAG_typedef, name: "iterator", scope: !220, file: !15, line: 91, baseType: !226)
!268 = !DISubprogram(name: "erase", linkageName: "_ZN11xalanc_1_1011XalanVectorINS_6XTokenENS_31MemoryManagedConstructionTraitsIS1_EEE5eraseEPS1_", scope: !220, file: !15, line: 290, type: !269, scopeLine: 290, flags: DIFlagPublic | DIFlagPrototyped, spFlags: 0)
!269 = !DISubroutineType(types: !270)
!270 = !{!267, !233, !267}
!271 = !DISubprogram(name: "insert", linkageName: "_ZN11xalanc_1_1011XalanVectorINS_6XTokenENS_31MemoryManagedConstructionTraitsIS1_EEE6insertEPS1_PKS1_S7_", scope: !220, file: !15, line: 296, type: !272, scopeLine: 296, flags: DIFlagPublic | DIFlagPrototyped, spFlags: 0)
!272 = !DISubroutineType(types: !273)
!273 = !{null, !233, !267, !247, !247}
!274 = !DISubprogram(name: "insert", linkageName: "_ZN11xalanc_1_1011XalanVectorINS_6XTokenENS_31MemoryManagedConstructionTraitsIS1_EEE6insertEPS1_mRKS1_", scope: !220, file: !15, line: 415, type: !275, scopeLine: 415, flags: DIFlagPublic | DIFlagPrototyped, spFlags: 0)
!275 = !DISubroutineType(types: !276)
!276 = !{null, !233, !267, !23, !256}
!277 = !DISubprogram(name: "insert", linkageName: "_ZN11xalanc_1_1011XalanVectorINS_6XTokenENS_31MemoryManagedConstructionTraitsIS1_EEE6insertEPS1_RKS1_", scope: !220, file: !15, line: 516, type: !278, scopeLine: 516, flags: DIFlagPublic | DIFlagPrototyped, spFlags: 0)
!278 = !DISubroutineType(types: !279)
!279 = !{!267, !233, !267, !256}
!280 = !DISubprogram(name: "assign", linkageName: "_ZN11xalanc_1_1011XalanVectorINS_6XTokenENS_31MemoryManagedConstructionTraitsIS1_EEE6assignEPKS1_S6_", scope: !220, file: !15, line: 538, type: !281, scopeLine: 538, flags: DIFlagPublic | DIFlagPrototyped, spFlags: 0)
!281 = !DISubroutineType(types: !282)
!282 = !{null, !233, !247, !247}
!283 = !DISubprogram(name: "assign", linkageName: "_ZN11xalanc_1_1011XalanVectorINS_6XTokenENS_31MemoryManagedConstructionTraitsIS1_EEE6assignEPS1_S5_", scope: !220, file: !15, line: 551, type: !284, scopeLine: 551, flags: DIFlagPublic | DIFlagPrototyped, spFlags: 0)
!284 = !DISubroutineType(types: !285)
!285 = !{null, !233, !267, !267}
!286 = !DISubprogram(name: "assign", linkageName: "_ZN11xalanc_1_1011XalanVectorINS_6XTokenENS_31MemoryManagedConstructionTraitsIS1_EEE6assignEmRKS1_", scope: !220, file: !15, line: 561, type: !287, scopeLine: 561, flags: DIFlagPublic | DIFlagPrototyped, spFlags: 0)
!287 = !DISubroutineType(types: !288)
!288 = !{null, !233, !23, !256}
!289 = !DISubprogram(name: "size", linkageName: "_ZNK11xalanc_1_1011XalanVectorINS_6XTokenENS_31MemoryManagedConstructionTraitsIS1_EEE4sizeEv", scope: !220, file: !15, line: 571, type: !290, scopeLine: 571, flags: DIFlagPublic | DIFlagPrototyped, spFlags: 0)
!290 = !DISubroutineType(types: !291)
!291 = !{!23, !292}
!292 = !DIDerivedType(tag: DW_TAG_pointer_type, baseType: !293, size: 64, flags: DIFlagArtificial | DIFlagObjectPointer)
!293 = !DIDerivedType(tag: DW_TAG_const_type, baseType: !220)
!294 = !DISubprogram(name: "max_size", linkageName: "_ZNK11xalanc_1_1011XalanVectorINS_6XTokenENS_31MemoryManagedConstructionTraitsIS1_EEE8max_sizeEv", scope: !220, file: !15, line: 579, type: !290, scopeLine: 579, flags: DIFlagPublic | DIFlagPrototyped, spFlags: 0)
!295 = !DISubprogram(name: "resize", linkageName: "_ZN11xalanc_1_1011XalanVectorINS_6XTokenENS_31MemoryManagedConstructionTraitsIS1_EEE6resizeEm", scope: !220, file: !15, line: 587, type: !296, scopeLine: 587, flags: DIFlagPublic | DIFlagPrototyped, spFlags: 0)
!296 = !DISubroutineType(types: !297)
!297 = !{null, !233, !23}
!298 = !DISubprogram(name: "resize", linkageName: "_ZN11xalanc_1_1011XalanVectorINS_6XTokenENS_31MemoryManagedConstructionTraitsIS1_EEE6resizeEmRKS1_", scope: !220, file: !15, line: 595, type: !287, scopeLine: 595, flags: DIFlagPublic | DIFlagPrototyped, spFlags: 0)
!299 = !DISubprogram(name: "capacity", linkageName: "_ZNK11xalanc_1_1011XalanVectorINS_6XTokenENS_31MemoryManagedConstructionTraitsIS1_EEE8capacityEv", scope: !220, file: !15, line: 628, type: !290, scopeLine: 628, flags: DIFlagPublic | DIFlagPrototyped, spFlags: 0)
!300 = !DISubprogram(name: "empty", linkageName: "_ZNK11xalanc_1_1011XalanVectorINS_6XTokenENS_31MemoryManagedConstructionTraitsIS1_EEE5emptyEv", scope: !220, file: !15, line: 636, type: !301, scopeLine: 636, flags: DIFlagPublic | DIFlagPrototyped, spFlags: 0)
!301 = !DISubroutineType(types: !302)
!302 = !{!105, !292}
!303 = !DISubprogram(name: "reserve", linkageName: "_ZN11xalanc_1_1011XalanVectorINS_6XTokenENS_31MemoryManagedConstructionTraitsIS1_EEE7reserveEm", scope: !220, file: !15, line: 644, type: !296, scopeLine: 644, flags: DIFlagPublic | DIFlagPrototyped, spFlags: 0)
!304 = !DISubprogram(name: "front", linkageName: "_ZN11xalanc_1_1011XalanVectorINS_6XTokenENS_31MemoryManagedConstructionTraitsIS1_EEE5frontEv", scope: !220, file: !15, line: 657, type: !305, scopeLine: 657, flags: DIFlagPublic | DIFlagPrototyped, spFlags: 0)
!305 = !DISubroutineType(types: !306)
!306 = !{!307, !233}
!307 = !DIDerivedType(tag: DW_TAG_typedef, name: "reference", scope: !220, file: !15, line: 69, baseType: !308)
!308 = !DIDerivedType(tag: DW_TAG_reference_type, baseType: !227, size: 64)
!309 = !DISubprogram(name: "front", linkageName: "_ZNK11xalanc_1_1011XalanVectorINS_6XTokenENS_31MemoryManagedConstructionTraitsIS1_EEE5frontEv", scope: !220, file: !15, line: 665, type: !310, scopeLine: 665, flags: DIFlagPublic | DIFlagPrototyped, spFlags: 0)
!310 = !DISubroutineType(types: !311)
!311 = !{!312, !292}
!312 = !DIDerivedType(tag: DW_TAG_typedef, name: "const_reference", scope: !220, file: !15, line: 70, baseType: !256)
!313 = !DISubprogram(name: "back", linkageName: "_ZN11xalanc_1_1011XalanVectorINS_6XTokenENS_31MemoryManagedConstructionTraitsIS1_EEE4backEv", scope: !220, file: !15, line: 673, type: !305, scopeLine: 673, flags: DIFlagPublic | DIFlagPrototyped, spFlags: 0)
!314 = !DISubprogram(name: "back", linkageName: "_ZNK11xalanc_1_1011XalanVectorINS_6XTokenENS_31MemoryManagedConstructionTraitsIS1_EEE4backEv", scope: !220, file: !15, line: 679, type: !310, scopeLine: 679, flags: DIFlagPublic | DIFlagPrototyped, spFlags: 0)
!315 = !DISubprogram(name: "begin", linkageName: "_ZN11xalanc_1_1011XalanVectorINS_6XTokenENS_31MemoryManagedConstructionTraitsIS1_EEE5beginEv", scope: !220, file: !15, line: 685, type: !316, scopeLine: 685, flags: DIFlagPublic | DIFlagPrototyped, spFlags: 0)
!316 = !DISubroutineType(types: !317)
!317 = !{!267, !233}
!318 = !DISubprogram(name: "begin", linkageName: "_ZNK11xalanc_1_1011XalanVectorINS_6XTokenENS_31MemoryManagedConstructionTraitsIS1_EEE5beginEv", scope: !220, file: !15, line: 693, type: !319, scopeLine: 693, flags: DIFlagPublic | DIFlagPrototyped, spFlags: 0)
!319 = !DISubroutineType(types: !320)
!320 = !{!247, !292}
!321 = !DISubprogram(name: "end", linkageName: "_ZN11xalanc_1_1011XalanVectorINS_6XTokenENS_31MemoryManagedConstructionTraitsIS1_EEE3endEv", scope: !220, file: !15, line: 701, type: !316, scopeLine: 701, flags: DIFlagPublic | DIFlagPrototyped, spFlags: 0)
!322 = !DISubprogram(name: "end", linkageName: "_ZNK11xalanc_1_1011XalanVectorINS_6XTokenENS_31MemoryManagedConstructionTraitsIS1_EEE3endEv", scope: !220, file: !15, line: 709, type: !319, scopeLine: 709, flags: DIFlagPublic | DIFlagPrototyped, spFlags: 0)
!323 = !DISubprogram(name: "rbegin", linkageName: "_ZN11xalanc_1_1011XalanVectorINS_6XTokenENS_31MemoryManagedConstructionTraitsIS1_EEE6rbeginEv", scope: !220, file: !15, line: 717, type: !324, scopeLine: 717, flags: DIFlagPublic | DIFlagPrototyped, spFlags: 0)
!324 = !DISubroutineType(types: !325)
!325 = !{!326, !233}
!326 = !DIDerivedType(tag: DW_TAG_typedef, name: "reverse_iterator", scope: !220, file: !15, line: 112, baseType: !327)
!327 = !DIDerivedType(tag: DW_TAG_typedef, name: "reverse_iterator_", scope: !220, file: !15, line: 96, baseType: !328)
!328 = !DICompositeType(tag: DW_TAG_class_type, name: "reverse_iterator<xalanc_1_10::XToken *>", scope: !133, file: !132, line: 125, flags: DIFlagFwdDecl, identifier: "_ZTSSt16reverse_iteratorIPN11xalanc_1_106XTokenEE")
!329 = !DISubprogram(name: "rbegin", linkageName: "_ZNK11xalanc_1_1011XalanVectorINS_6XTokenENS_31MemoryManagedConstructionTraitsIS1_EEE6rbeginEv", scope: !220, file: !15, line: 725, type: !330, scopeLine: 725, flags: DIFlagPublic | DIFlagPrototyped, spFlags: 0)
!330 = !DISubroutineType(types: !331)
!331 = !{!332, !292}
!332 = !DIDerivedType(tag: DW_TAG_typedef, name: "const_reverse_iterator", scope: !220, file: !15, line: 113, baseType: !333)
!333 = !DIDerivedType(tag: DW_TAG_typedef, name: "const_reverse_iterator_", scope: !220, file: !15, line: 97, baseType: !334)
!334 = !DICompositeType(tag: DW_TAG_class_type, name: "reverse_iterator<const xalanc_1_10::XToken *>", scope: !133, file: !132, line: 125, flags: DIFlagFwdDecl, identifier: "_ZTSSt16reverse_iteratorIPKN11xalanc_1_106XTokenEE")
!335 = !DISubprogram(name: "rend", linkageName: "_ZN11xalanc_1_1011XalanVectorINS_6XTokenENS_31MemoryManagedConstructionTraitsIS1_EEE4rendEv", scope: !220, file: !15, line: 733, type: !324, scopeLine: 733, flags: DIFlagPublic | DIFlagPrototyped, spFlags: 0)
!336 = !DISubprogram(name: "rend", linkageName: "_ZNK11xalanc_1_1011XalanVectorINS_6XTokenENS_31MemoryManagedConstructionTraitsIS1_EEE4rendEv", scope: !220, file: !15, line: 741, type: !330, scopeLine: 741, flags: DIFlagPublic | DIFlagPrototyped, spFlags: 0)
!337 = !DISubprogram(name: "at", linkageName: "_ZN11xalanc_1_1011XalanVectorINS_6XTokenENS_31MemoryManagedConstructionTraitsIS1_EEE2atEm", scope: !220, file: !15, line: 750, type: !338, scopeLine: 750, flags: DIFlagPublic | DIFlagPrototyped, spFlags: 0)
!338 = !DISubroutineType(types: !339)
!339 = !{!307, !233, !23}
!340 = !DISubprogram(name: "at", linkageName: "_ZNK11xalanc_1_1011XalanVectorINS_6XTokenENS_31MemoryManagedConstructionTraitsIS1_EEE2atEm", scope: !220, file: !15, line: 761, type: !341, scopeLine: 761, flags: DIFlagPublic | DIFlagPrototyped, spFlags: 0)
!341 = !DISubroutineType(types: !342)
!342 = !{!312, !292, !23}
!343 = !DISubprogram(name: "operator[]", linkageName: "_ZN11xalanc_1_1011XalanVectorINS_6XTokenENS_31MemoryManagedConstructionTraitsIS1_EEEixEm", scope: !220, file: !15, line: 772, type: !338, scopeLine: 772, flags: DIFlagPublic | DIFlagPrototyped, spFlags: 0)
!344 = !DISubprogram(name: "operator[]", linkageName: "_ZNK11xalanc_1_1011XalanVectorINS_6XTokenENS_31MemoryManagedConstructionTraitsIS1_EEEixEm", scope: !220, file: !15, line: 780, type: !341, scopeLine: 780, flags: DIFlagPublic | DIFlagPrototyped, spFlags: 0)
!345 = !DISubprogram(name: "clear", linkageName: "_ZN11xalanc_1_1011XalanVectorINS_6XTokenENS_31MemoryManagedConstructionTraitsIS1_EEE5clearEv", scope: !220, file: !15, line: 788, type: !258, scopeLine: 788, flags: DIFlagPublic | DIFlagPrototyped, spFlags: 0)
!346 = !DISubprogram(name: "operator=", linkageName: "_ZN11xalanc_1_1011XalanVectorINS_6XTokenENS_31MemoryManagedConstructionTraitsIS1_EEEaSERKS4_", scope: !220, file: !15, line: 802, type: !347, scopeLine: 802, flags: DIFlagPublic | DIFlagPrototyped, spFlags: 0)
!347 = !DISubroutineType(types: !348)
!348 = !{!349, !233, !241}
!349 = !DIDerivedType(tag: DW_TAG_reference_type, baseType: !243, size: 64)
!350 = !DISubprogram(name: "swap", linkageName: "_ZN11xalanc_1_1011XalanVectorINS_6XTokenENS_31MemoryManagedConstructionTraitsIS1_EEE4swapERS4_", scope: !220, file: !15, line: 848, type: !351, scopeLine: 848, flags: DIFlagPublic | DIFlagPrototyped, spFlags: 0)
!351 = !DISubroutineType(types: !352)
!352 = !{null, !233, !349}
!353 = !DISubprogram(name: "getMemoryManager", linkageName: "_ZNK11xalanc_1_1011XalanVectorINS_6XTokenENS_31MemoryManagedConstructionTraitsIS1_EEE16getMemoryManagerEv", scope: !220, file: !15, line: 871, type: !354, scopeLine: 871, flags: DIFlagPublic | DIFlagPrototyped, spFlags: 0)
!354 = !DISubroutineType(types: !355)
!355 = !{!161, !292}
!356 = !DISubprogram(name: "getMemoryManager", linkageName: "_ZN11xalanc_1_1011XalanVectorINS_6XTokenENS_31MemoryManagedConstructionTraitsIS1_EEE16getMemoryManagerEv", scope: !220, file: !15, line: 877, type: !357, scopeLine: 877, flags: DIFlagPublic | DIFlagPrototyped, spFlags: 0)
!357 = !DISubroutineType(types: !358)
!358 = !{!35, !233}
!359 = !DISubprogram(name: "detach", linkageName: "_ZN11xalanc_1_1011XalanVectorINS_6XTokenENS_31MemoryManagedConstructionTraitsIS1_EEE6detachEv", scope: !220, file: !15, line: 889, type: !360, scopeLine: 889, flags: DIFlagPublic | DIFlagPrototyped, spFlags: 0)
!360 = !DISubroutineType(types: !361)
!361 = !{!362, !233}
!362 = !DIDerivedType(tag: DW_TAG_typedef, name: "pointer", scope: !220, file: !15, line: 67, baseType: !226)
!363 = !DISubprogram(name: "invariants", linkageName: "_ZNK11xalanc_1_1011XalanVectorINS_6XTokenENS_31MemoryManagedConstructionTraitsIS1_EEE10invariantsEv", scope: !220, file: !15, line: 905, type: !364, scopeLine: 905, flags: DIFlagPrototyped, spFlags: 0)
!364 = !DISubroutineType(types: !365)
!365 = !{null, !292}
!366 = !DISubprogram(name: "local_distance", linkageName: "_ZN11xalanc_1_1011XalanVectorINS_6XTokenENS_31MemoryManagedConstructionTraitsIS1_EEE14local_distanceEPKS1_S6_", scope: !220, file: !15, line: 918, type: !367, scopeLine: 918, flags: DIFlagPrototyped, spFlags: 0)
!367 = !DISubroutineType(types: !368)
!368 = !{!369, !233, !247, !247}
!369 = !DIDerivedType(tag: DW_TAG_typedef, name: "size_type", scope: !220, file: !15, line: 71, baseType: !24)
!370 = !DISubprogram(name: "allocate", linkageName: "_ZN11xalanc_1_1011XalanVectorINS_6XTokenENS_31MemoryManagedConstructionTraitsIS1_EEE8allocateEm", scope: !220, file: !15, line: 938, type: !371, scopeLine: 938, flags: DIFlagPrototyped, spFlags: 0)
!371 = !DISubroutineType(types: !372)
!372 = !{!226, !233, !23}
!373 = !DISubprogram(name: "deallocate", linkageName: "_ZN11xalanc_1_1011XalanVectorINS_6XTokenENS_31MemoryManagedConstructionTraitsIS1_EEE10deallocateEPS1_", scope: !220, file: !15, line: 952, type: !374, scopeLine: 952, flags: DIFlagPrototyped, spFlags: 0)
!374 = !DISubroutineType(types: !375)
!375 = !{null, !233, !226}
!376 = !DISubprogram(name: "destroy", linkageName: "_ZN11xalanc_1_1011XalanVectorINS_6XTokenENS_31MemoryManagedConstructionTraitsIS1_EEE7destroyERS1_", scope: !220, file: !15, line: 961, type: !377, scopeLine: 961, flags: DIFlagPrototyped | DIFlagStaticMember, spFlags: 0)
!377 = !DISubroutineType(types: !378)
!378 = !{null, !308}
!379 = !DISubprogram(name: "destroy", linkageName: "_ZN11xalanc_1_1011XalanVectorINS_6XTokenENS_31MemoryManagedConstructionTraitsIS1_EEE7destroyEPS1_S5_", scope: !220, file: !15, line: 967, type: !380, scopeLine: 967, flags: DIFlagPrototyped | DIFlagStaticMember, spFlags: 0)
!380 = !DISubroutineType(types: !381)
!381 = !{null, !267, !267}
!382 = !DISubprogram(name: "doPushBack", linkageName: "_ZN11xalanc_1_1011XalanVectorINS_6XTokenENS_31MemoryManagedConstructionTraitsIS1_EEE10doPushBackERKS1_", scope: !220, file: !15, line: 978, type: !261, scopeLine: 978, flags: DIFlagPrototyped, spFlags: 0)
!383 = !DISubprogram(name: "ensureCapacity", linkageName: "_ZN11xalanc_1_1011XalanVectorINS_6XTokenENS_31MemoryManagedConstructionTraitsIS1_EEE14ensureCapacityEm", scope: !220, file: !15, line: 1006, type: !384, scopeLine: 1006, flags: DIFlagPrototyped, spFlags: 0)
!384 = !DISubroutineType(types: !385)
!385 = !{!362, !233, !23}
!386 = !DISubprogram(name: "doReserve", linkageName: "_ZN11xalanc_1_1011XalanVectorINS_6XTokenENS_31MemoryManagedConstructionTraitsIS1_EEE9doReserveEm", scope: !220, file: !15, line: 1017, type: !296, scopeLine: 1017, flags: DIFlagPrototyped, spFlags: 0)
!387 = !DISubprogram(name: "endPointer", linkageName: "_ZN11xalanc_1_1011XalanVectorINS_6XTokenENS_31MemoryManagedConstructionTraitsIS1_EEE10endPointerEv", scope: !220, file: !15, line: 1031, type: !360, scopeLine: 1031, flags: DIFlagPrototyped, spFlags: 0)
!388 = !DISubprogram(name: "endPointer", linkageName: "_ZNK11xalanc_1_1011XalanVectorINS_6XTokenENS_31MemoryManagedConstructionTraitsIS1_EEE10endPointerEv", scope: !220, file: !15, line: 1037, type: !389, scopeLine: 1037, flags: DIFlagPrototyped, spFlags: 0)
!389 = !DISubroutineType(types: !390)
!390 = !{!391, !292}
!391 = !DIDerivedType(tag: DW_TAG_typedef, name: "const_pointer", scope: !220, file: !15, line: 68, baseType: !248)
!392 = !DISubprogram(name: "outOfRange", linkageName: "_ZN11xalanc_1_1011XalanVectorINS_6XTokenENS_31MemoryManagedConstructionTraitsIS1_EEE10outOfRangeEv", scope: !220, file: !15, line: 1043, type: !200, scopeLine: 1043, flags: DIFlagPrototyped | DIFlagStaticMember, spFlags: 0)
!393 = !DISubprogram(name: "shrinkToSize", linkageName: "_ZN11xalanc_1_1011XalanVectorINS_6XTokenENS_31MemoryManagedConstructionTraitsIS1_EEE12shrinkToSizeEm", scope: !220, file: !15, line: 1049, type: !296, scopeLine: 1049, flags: DIFlagPrototyped, spFlags: 0)
!394 = !DISubprogram(name: "shrinkCount", linkageName: "_ZN11xalanc_1_1011XalanVectorINS_6XTokenENS_31MemoryManagedConstructionTraitsIS1_EEE11shrinkCountEm", scope: !220, file: !15, line: 1060, type: !296, scopeLine: 1060, flags: DIFlagPrototyped, spFlags: 0)
!395 = !DISubprogram(name: "local_max", linkageName: "_ZN11xalanc_1_1011XalanVectorINS_6XTokenENS_31MemoryManagedConstructionTraitsIS1_EEE9local_maxEmm", scope: !220, file: !15, line: 1073, type: !396, scopeLine: 1073, flags: DIFlagPrototyped, spFlags: 0)
!396 = !DISubroutineType(types: !397)
!397 = !{!369, !233, !23, !23}
!398 = !{!399, !400}
!399 = !DITemplateTypeParameter(name: "Type", type: !228)
!400 = !DITemplateTypeParameter(name: "ConstructionTraits", type: !401)
!401 = distinct !DICompositeType(tag: DW_TAG_structure_type, name: "MemoryManagedConstructionTraits<xalanc_1_10::XToken>", scope: !6, file: !211, line: 462, size: 8, flags: DIFlagTypePassByValue, elements: !212, templateParams: !402, identifier: "_ZTSN11xalanc_1_1031MemoryManagedConstructionTraitsINS_6XTokenEEE")
!402 = !{!403}
!403 = !DITemplateTypeParameter(name: "C", type: !228)
!404 = !DIDerivedType(tag: DW_TAG_member, name: "m_currentPosition", scope: !5, file: !4, line: 1485, baseType: !10, size: 32, offset: 576)
!405 = !DIDerivedType(tag: DW_TAG_member, name: "m_currentPattern", scope: !5, file: !4, line: 1490, baseType: !406, size: 64, offset: 640)
!406 = !DIDerivedType(tag: DW_TAG_pointer_type, baseType: !407, size: 64)
!407 = !DIDerivedType(tag: DW_TAG_const_type, baseType: !408)
!408 = distinct !DICompositeType(tag: DW_TAG_class_type, name: "XalanDOMString", scope: !6, file: !409, line: 42, size: 320, flags: DIFlagTypePassByReference | DIFlagNonTrivial, elements: !410, identifier: "_ZTSN11xalanc_1_1014XalanDOMStringE")
!409 = !DIFile(filename: "./xalanc/XalanDOM/XalanDOMString.hpp", directory: "/home/venkat/IF-DV/spec_build_release/CPU_2017/benchspec/CPU/523.xalancbmk_r/build/build_base_ld-loop-ext-m64.0000")
!410 = !{!411, !415, !746, !747, !751, !757, !763, !767, !771, !774, !778, !781, !785, !788, !791, !794, !798, !803, !804, !805, !809, !813, !814, !815, !818, !819, !820, !823, !826, !827, !828, !829, !832, !835, !840, !845, !846, !847, !850, !851, !854, !855, !856, !857, !858, !861, !862, !865, !868, !869, !872, !875, !876, !877, !878, !879, !880, !881, !882, !885, !888, !891, !894, !897, !900, !903, !906, !909, !912, !915, !918, !921, !924, !927, !930, !933, !1120, !1123, !1124, !1127, !1130, !1133, !1136, !1139, !1142, !1145, !1148, !1151, !1152, !1153, !1156}
!411 = !DIDerivedType(tag: DW_TAG_member, name: "npos", scope: !408, file: !409, line: 61, baseType: !412, flags: DIFlagPublic | DIFlagStaticMember, extraData: i32 -1)
!412 = !DIDerivedType(tag: DW_TAG_const_type, baseType: !413)
!413 = !DIDerivedType(tag: DW_TAG_typedef, name: "size_type", scope: !408, file: !409, line: 53, baseType: !414)
!414 = !DIBasicType(name: "unsigned int", size: 32, encoding: DW_ATE_unsigned)
!415 = !DIDerivedType(tag: DW_TAG_member, name: "m_data", scope: !408, file: !409, line: 793, baseType: !416, size: 256)
!416 = !DIDerivedType(tag: DW_TAG_typedef, name: "XalanDOMCharVectorType", scope: !408, file: !409, line: 45, baseType: !417)
!417 = distinct !DICompositeType(tag: DW_TAG_class_type, name: "XalanVector<unsigned short, xalanc_1_10::MemoryManagedConstructionTraits<unsigned short> >", scope: !6, file: !15, line: 61, size: 256, flags: DIFlagTypePassByReference | DIFlagNonTrivial, elements: !418, templateParams: !740, identifier: "_ZTSN11xalanc_1_1011XalanVectorItNS_31MemoryManagedConstructionTraitsItEEEE")
!418 = !{!419, !420, !421, !422, !426, !430, !434, !440, !446, !449, !453, !456, !459, !460, !464, !467, !470, !473, !476, !479, !482, !485, !490, !491, !494, !495, !496, !499, !500, !505, !509, !510, !511, !514, !517, !518, !519, !606, !677, !678, !679, !682, !685, !686, !687, !688, !692, !695, !698, !701, !705, !708, !712, !715, !718, !721, !724, !725, !728, !729, !730, !734, !735, !736, !737}
!419 = !DIDerivedType(tag: DW_TAG_member, name: "m_memoryManager", scope: !417, file: !15, line: 1087, baseType: !18, size: 64)
!420 = !DIDerivedType(tag: DW_TAG_member, name: "m_size", scope: !417, file: !15, line: 1089, baseType: !23, size: 64, offset: 64)
!421 = !DIDerivedType(tag: DW_TAG_member, name: "m_allocation", scope: !417, file: !15, line: 1091, baseType: !23, size: 64, offset: 128)
!422 = !DIDerivedType(tag: DW_TAG_member, name: "m_data", scope: !417, file: !15, line: 1093, baseType: !423, size: 64, offset: 192)
!423 = !DIDerivedType(tag: DW_TAG_pointer_type, baseType: !424, size: 64)
!424 = !DIDerivedType(tag: DW_TAG_typedef, name: "value_type", scope: !417, file: !15, line: 66, baseType: !425)
!425 = !DIBasicType(name: "unsigned short", size: 16, encoding: DW_ATE_unsigned)
!426 = !DISubprogram(name: "XalanVector", scope: !417, file: !15, line: 120, type: !427, scopeLine: 120, flags: DIFlagPublic | DIFlagPrototyped, spFlags: 0)
!427 = !DISubroutineType(types: !428)
!428 = !{null, !429, !35, !23}
!429 = !DIDerivedType(tag: DW_TAG_pointer_type, baseType: !417, size: 64, flags: DIFlagArtificial | DIFlagObjectPointer)
!430 = !DISubprogram(name: "create", linkageName: "_ZN11xalanc_1_1011XalanVectorItNS_31MemoryManagedConstructionTraitsItEEE6createERN11xercesc_2_713MemoryManagerEm", scope: !417, file: !15, line: 132, type: !431, scopeLine: 132, flags: DIFlagPublic | DIFlagPrototyped | DIFlagStaticMember, spFlags: 0)
!431 = !DISubroutineType(types: !432)
!432 = !{!433, !35, !23}
!433 = !DIDerivedType(tag: DW_TAG_pointer_type, baseType: !417, size: 64)
!434 = !DISubprogram(name: "XalanVector", scope: !417, file: !15, line: 149, type: !435, scopeLine: 149, flags: DIFlagPublic | DIFlagPrototyped, spFlags: 0)
!435 = !DISubroutineType(types: !436)
!436 = !{null, !429, !437, !35, !23}
!437 = !DIDerivedType(tag: DW_TAG_reference_type, baseType: !438, size: 64)
!438 = !DIDerivedType(tag: DW_TAG_const_type, baseType: !439)
!439 = !DIDerivedType(tag: DW_TAG_typedef, name: "ThisType", scope: !417, file: !15, line: 115, baseType: !417)
!440 = !DISubprogram(name: "XalanVector", scope: !417, file: !15, line: 177, type: !441, scopeLine: 177, flags: DIFlagPublic | DIFlagPrototyped, spFlags: 0)
!441 = !DISubroutineType(types: !442)
!442 = !{null, !429, !443, !443, !35}
!443 = !DIDerivedType(tag: DW_TAG_typedef, name: "const_iterator", scope: !417, file: !15, line: 92, baseType: !444)
!444 = !DIDerivedType(tag: DW_TAG_pointer_type, baseType: !445, size: 64)
!445 = !DIDerivedType(tag: DW_TAG_const_type, baseType: !424)
!446 = !DISubprogram(name: "create", linkageName: "_ZN11xalanc_1_1011XalanVectorItNS_31MemoryManagedConstructionTraitsItEEE6createEPKtS5_RN11xercesc_2_713MemoryManagerE", scope: !417, file: !15, line: 197, type: !447, scopeLine: 197, flags: DIFlagPublic | DIFlagPrototyped | DIFlagStaticMember, spFlags: 0)
!447 = !DISubroutineType(types: !448)
!448 = !{!433, !443, !443, !35}
!449 = !DISubprogram(name: "XalanVector", scope: !417, file: !15, line: 215, type: !450, scopeLine: 215, flags: DIFlagPublic | DIFlagPrototyped, spFlags: 0)
!450 = !DISubroutineType(types: !451)
!451 = !{null, !429, !23, !452, !35}
!452 = !DIDerivedType(tag: DW_TAG_reference_type, baseType: !445, size: 64)
!453 = !DISubprogram(name: "~XalanVector", scope: !417, file: !15, line: 233, type: !454, scopeLine: 233, flags: DIFlagPublic | DIFlagPrototyped, spFlags: 0)
!454 = !DISubroutineType(types: !455)
!455 = !{null, !429}
!456 = !DISubprogram(name: "push_back", linkageName: "_ZN11xalanc_1_1011XalanVectorItNS_31MemoryManagedConstructionTraitsItEEE9push_backERKt", scope: !417, file: !15, line: 246, type: !457, scopeLine: 246, flags: DIFlagPublic | DIFlagPrototyped, spFlags: 0)
!457 = !DISubroutineType(types: !458)
!458 = !{null, !429, !452}
!459 = !DISubprogram(name: "pop_back", linkageName: "_ZN11xalanc_1_1011XalanVectorItNS_31MemoryManagedConstructionTraitsItEEE8pop_backEv", scope: !417, file: !15, line: 256, type: !454, scopeLine: 256, flags: DIFlagPublic | DIFlagPrototyped, spFlags: 0)
!460 = !DISubprogram(name: "erase", linkageName: "_ZN11xalanc_1_1011XalanVectorItNS_31MemoryManagedConstructionTraitsItEEE5eraseEPtS4_", scope: !417, file: !15, line: 268, type: !461, scopeLine: 268, flags: DIFlagPublic | DIFlagPrototyped, spFlags: 0)
!461 = !DISubroutineType(types: !462)
!462 = !{!463, !429, !463, !463}
!463 = !DIDerivedType(tag: DW_TAG_typedef, name: "iterator", scope: !417, file: !15, line: 91, baseType: !423)
!464 = !DISubprogram(name: "erase", linkageName: "_ZN11xalanc_1_1011XalanVectorItNS_31MemoryManagedConstructionTraitsItEEE5eraseEPt", scope: !417, file: !15, line: 290, type: !465, scopeLine: 290, flags: DIFlagPublic | DIFlagPrototyped, spFlags: 0)
!465 = !DISubroutineType(types: !466)
!466 = !{!463, !429, !463}
!467 = !DISubprogram(name: "insert", linkageName: "_ZN11xalanc_1_1011XalanVectorItNS_31MemoryManagedConstructionTraitsItEEE6insertEPtPKtS6_", scope: !417, file: !15, line: 296, type: !468, scopeLine: 296, flags: DIFlagPublic | DIFlagPrototyped, spFlags: 0)
!468 = !DISubroutineType(types: !469)
!469 = !{null, !429, !463, !443, !443}
!470 = !DISubprogram(name: "insert", linkageName: "_ZN11xalanc_1_1011XalanVectorItNS_31MemoryManagedConstructionTraitsItEEE6insertEPtmRKt", scope: !417, file: !15, line: 415, type: !471, scopeLine: 415, flags: DIFlagPublic | DIFlagPrototyped, spFlags: 0)
!471 = !DISubroutineType(types: !472)
!472 = !{null, !429, !463, !23, !452}
!473 = !DISubprogram(name: "insert", linkageName: "_ZN11xalanc_1_1011XalanVectorItNS_31MemoryManagedConstructionTraitsItEEE6insertEPtRKt", scope: !417, file: !15, line: 516, type: !474, scopeLine: 516, flags: DIFlagPublic | DIFlagPrototyped, spFlags: 0)
!474 = !DISubroutineType(types: !475)
!475 = !{!463, !429, !463, !452}
!476 = !DISubprogram(name: "assign", linkageName: "_ZN11xalanc_1_1011XalanVectorItNS_31MemoryManagedConstructionTraitsItEEE6assignEPKtS5_", scope: !417, file: !15, line: 538, type: !477, scopeLine: 538, flags: DIFlagPublic | DIFlagPrototyped, spFlags: 0)
!477 = !DISubroutineType(types: !478)
!478 = !{null, !429, !443, !443}
!479 = !DISubprogram(name: "assign", linkageName: "_ZN11xalanc_1_1011XalanVectorItNS_31MemoryManagedConstructionTraitsItEEE6assignEPtS4_", scope: !417, file: !15, line: 551, type: !480, scopeLine: 551, flags: DIFlagPublic | DIFlagPrototyped, spFlags: 0)
!480 = !DISubroutineType(types: !481)
!481 = !{null, !429, !463, !463}
!482 = !DISubprogram(name: "assign", linkageName: "_ZN11xalanc_1_1011XalanVectorItNS_31MemoryManagedConstructionTraitsItEEE6assignEmRKt", scope: !417, file: !15, line: 561, type: !483, scopeLine: 561, flags: DIFlagPublic | DIFlagPrototyped, spFlags: 0)
!483 = !DISubroutineType(types: !484)
!484 = !{null, !429, !23, !452}
!485 = !DISubprogram(name: "size", linkageName: "_ZNK11xalanc_1_1011XalanVectorItNS_31MemoryManagedConstructionTraitsItEEE4sizeEv", scope: !417, file: !15, line: 571, type: !486, scopeLine: 571, flags: DIFlagPublic | DIFlagPrototyped, spFlags: 0)
!486 = !DISubroutineType(types: !487)
!487 = !{!23, !488}
!488 = !DIDerivedType(tag: DW_TAG_pointer_type, baseType: !489, size: 64, flags: DIFlagArtificial | DIFlagObjectPointer)
!489 = !DIDerivedType(tag: DW_TAG_const_type, baseType: !417)
!490 = !DISubprogram(name: "max_size", linkageName: "_ZNK11xalanc_1_1011XalanVectorItNS_31MemoryManagedConstructionTraitsItEEE8max_sizeEv", scope: !417, file: !15, line: 579, type: !486, scopeLine: 579, flags: DIFlagPublic | DIFlagPrototyped, spFlags: 0)
!491 = !DISubprogram(name: "resize", linkageName: "_ZN11xalanc_1_1011XalanVectorItNS_31MemoryManagedConstructionTraitsItEEE6resizeEm", scope: !417, file: !15, line: 587, type: !492, scopeLine: 587, flags: DIFlagPublic | DIFlagPrototyped, spFlags: 0)
!492 = !DISubroutineType(types: !493)
!493 = !{null, !429, !23}
!494 = !DISubprogram(name: "resize", linkageName: "_ZN11xalanc_1_1011XalanVectorItNS_31MemoryManagedConstructionTraitsItEEE6resizeEmRKt", scope: !417, file: !15, line: 595, type: !483, scopeLine: 595, flags: DIFlagPublic | DIFlagPrototyped, spFlags: 0)
!495 = !DISubprogram(name: "capacity", linkageName: "_ZNK11xalanc_1_1011XalanVectorItNS_31MemoryManagedConstructionTraitsItEEE8capacityEv", scope: !417, file: !15, line: 628, type: !486, scopeLine: 628, flags: DIFlagPublic | DIFlagPrototyped, spFlags: 0)
!496 = !DISubprogram(name: "empty", linkageName: "_ZNK11xalanc_1_1011XalanVectorItNS_31MemoryManagedConstructionTraitsItEEE5emptyEv", scope: !417, file: !15, line: 636, type: !497, scopeLine: 636, flags: DIFlagPublic | DIFlagPrototyped, spFlags: 0)
!497 = !DISubroutineType(types: !498)
!498 = !{!105, !488}
!499 = !DISubprogram(name: "reserve", linkageName: "_ZN11xalanc_1_1011XalanVectorItNS_31MemoryManagedConstructionTraitsItEEE7reserveEm", scope: !417, file: !15, line: 644, type: !492, scopeLine: 644, flags: DIFlagPublic | DIFlagPrototyped, spFlags: 0)
!500 = !DISubprogram(name: "front", linkageName: "_ZN11xalanc_1_1011XalanVectorItNS_31MemoryManagedConstructionTraitsItEEE5frontEv", scope: !417, file: !15, line: 657, type: !501, scopeLine: 657, flags: DIFlagPublic | DIFlagPrototyped, spFlags: 0)
!501 = !DISubroutineType(types: !502)
!502 = !{!503, !429}
!503 = !DIDerivedType(tag: DW_TAG_typedef, name: "reference", scope: !417, file: !15, line: 69, baseType: !504)
!504 = !DIDerivedType(tag: DW_TAG_reference_type, baseType: !424, size: 64)
!505 = !DISubprogram(name: "front", linkageName: "_ZNK11xalanc_1_1011XalanVectorItNS_31MemoryManagedConstructionTraitsItEEE5frontEv", scope: !417, file: !15, line: 665, type: !506, scopeLine: 665, flags: DIFlagPublic | DIFlagPrototyped, spFlags: 0)
!506 = !DISubroutineType(types: !507)
!507 = !{!508, !488}
!508 = !DIDerivedType(tag: DW_TAG_typedef, name: "const_reference", scope: !417, file: !15, line: 70, baseType: !452)
!509 = !DISubprogram(name: "back", linkageName: "_ZN11xalanc_1_1011XalanVectorItNS_31MemoryManagedConstructionTraitsItEEE4backEv", scope: !417, file: !15, line: 673, type: !501, scopeLine: 673, flags: DIFlagPublic | DIFlagPrototyped, spFlags: 0)
!510 = !DISubprogram(name: "back", linkageName: "_ZNK11xalanc_1_1011XalanVectorItNS_31MemoryManagedConstructionTraitsItEEE4backEv", scope: !417, file: !15, line: 679, type: !506, scopeLine: 679, flags: DIFlagPublic | DIFlagPrototyped, spFlags: 0)
!511 = !DISubprogram(name: "begin", linkageName: "_ZN11xalanc_1_1011XalanVectorItNS_31MemoryManagedConstructionTraitsItEEE5beginEv", scope: !417, file: !15, line: 685, type: !512, scopeLine: 685, flags: DIFlagPublic | DIFlagPrototyped, spFlags: 0)
!512 = !DISubroutineType(types: !513)
!513 = !{!463, !429}
!514 = !DISubprogram(name: "begin", linkageName: "_ZNK11xalanc_1_1011XalanVectorItNS_31MemoryManagedConstructionTraitsItEEE5beginEv", scope: !417, file: !15, line: 693, type: !515, scopeLine: 693, flags: DIFlagPublic | DIFlagPrototyped, spFlags: 0)
!515 = !DISubroutineType(types: !516)
!516 = !{!443, !488}
!517 = !DISubprogram(name: "end", linkageName: "_ZN11xalanc_1_1011XalanVectorItNS_31MemoryManagedConstructionTraitsItEEE3endEv", scope: !417, file: !15, line: 701, type: !512, scopeLine: 701, flags: DIFlagPublic | DIFlagPrototyped, spFlags: 0)
!518 = !DISubprogram(name: "end", linkageName: "_ZNK11xalanc_1_1011XalanVectorItNS_31MemoryManagedConstructionTraitsItEEE3endEv", scope: !417, file: !15, line: 709, type: !515, scopeLine: 709, flags: DIFlagPublic | DIFlagPrototyped, spFlags: 0)
!519 = !DISubprogram(name: "rbegin", linkageName: "_ZN11xalanc_1_1011XalanVectorItNS_31MemoryManagedConstructionTraitsItEEE6rbeginEv", scope: !417, file: !15, line: 717, type: !520, scopeLine: 717, flags: DIFlagPublic | DIFlagPrototyped, spFlags: 0)
!520 = !DISubroutineType(types: !521)
!521 = !{!522, !429}
!522 = !DIDerivedType(tag: DW_TAG_typedef, name: "reverse_iterator", scope: !417, file: !15, line: 112, baseType: !523)
!523 = !DIDerivedType(tag: DW_TAG_typedef, name: "reverse_iterator_", scope: !417, file: !15, line: 96, baseType: !524)
!524 = distinct !DICompositeType(tag: DW_TAG_class_type, name: "reverse_iterator<unsigned short *>", scope: !133, file: !132, line: 125, size: 64, flags: DIFlagTypePassByReference | DIFlagNonTrivial, elements: !525, templateParams: !576, identifier: "_ZTSSt16reverse_iteratorIPtE")
!525 = !{!526, !548, !549, !553, !557, !562, !566, !570, !578, !583, !586, !589, !590, !591, !598, !601, !602, !603}
!526 = !DIDerivedType(tag: DW_TAG_inheritance, scope: !524, baseType: !527, flags: DIFlagPublic, extraData: i32 0)
!527 = distinct !DICompositeType(tag: DW_TAG_structure_type, name: "iterator<std::random_access_iterator_tag, unsigned short, long, unsigned short *, unsigned short &>", scope: !133, file: !528, line: 127, size: 8, flags: DIFlagTypePassByValue, elements: !212, templateParams: !529, identifier: "_ZTSSt8iteratorISt26random_access_iterator_tagtlPtRtE")
!528 = !DIFile(filename: "/usr/lib/gcc/x86_64-linux-gnu/10/../../../../include/c++/10/bits/stl_iterator_base_types.h", directory: "")
!529 = !{!530, !541, !542, !544, !546}
!530 = !DITemplateTypeParameter(name: "_Category", type: !531)
!531 = distinct !DICompositeType(tag: DW_TAG_structure_type, name: "random_access_iterator_tag", scope: !133, file: !528, line: 107, size: 8, flags: DIFlagTypePassByValue, elements: !532, identifier: "_ZTSSt26random_access_iterator_tag")
!532 = !{!533}
!533 = !DIDerivedType(tag: DW_TAG_inheritance, scope: !531, baseType: !534, extraData: i32 0)
!534 = distinct !DICompositeType(tag: DW_TAG_structure_type, name: "bidirectional_iterator_tag", scope: !133, file: !528, line: 103, size: 8, flags: DIFlagTypePassByValue, elements: !535, identifier: "_ZTSSt26bidirectional_iterator_tag")
!535 = !{!536}
!536 = !DIDerivedType(tag: DW_TAG_inheritance, scope: !534, baseType: !537, extraData: i32 0)
!537 = distinct !DICompositeType(tag: DW_TAG_structure_type, name: "forward_iterator_tag", scope: !133, file: !528, line: 99, size: 8, flags: DIFlagTypePassByValue, elements: !538, identifier: "_ZTSSt20forward_iterator_tag")
!538 = !{!539}
!539 = !DIDerivedType(tag: DW_TAG_inheritance, scope: !537, baseType: !540, extraData: i32 0)
!540 = distinct !DICompositeType(tag: DW_TAG_structure_type, name: "input_iterator_tag", scope: !133, file: !528, line: 93, size: 8, flags: DIFlagTypePassByValue, elements: !212, identifier: "_ZTSSt18input_iterator_tag")
!541 = !DITemplateTypeParameter(name: "_Tp", type: !425)
!542 = !DITemplateTypeParameter(name: "_Distance", type: !543)
!543 = !DIBasicType(name: "long int", size: 64, encoding: DW_ATE_signed)
!544 = !DITemplateTypeParameter(name: "_Pointer", type: !545)
!545 = !DIDerivedType(tag: DW_TAG_pointer_type, baseType: !425, size: 64)
!546 = !DITemplateTypeParameter(name: "_Reference", type: !547)
!547 = !DIDerivedType(tag: DW_TAG_reference_type, baseType: !425, size: 64)
!548 = !DIDerivedType(tag: DW_TAG_member, name: "current", scope: !524, file: !132, line: 133, baseType: !545, size: 64, flags: DIFlagProtected)
!549 = !DISubprogram(name: "reverse_iterator", scope: !524, file: !132, line: 161, type: !550, scopeLine: 161, flags: DIFlagPublic | DIFlagPrototyped, spFlags: 0)
!550 = !DISubroutineType(types: !551)
!551 = !{null, !552}
!552 = !DIDerivedType(tag: DW_TAG_pointer_type, baseType: !524, size: 64, flags: DIFlagArtificial | DIFlagObjectPointer)
!553 = !DISubprogram(name: "reverse_iterator", scope: !524, file: !132, line: 167, type: !554, scopeLine: 167, flags: DIFlagPublic | DIFlagExplicit | DIFlagPrototyped, spFlags: 0)
!554 = !DISubroutineType(types: !555)
!555 = !{null, !552, !556}
!556 = !DIDerivedType(tag: DW_TAG_typedef, name: "iterator_type", scope: !524, file: !132, line: 138, baseType: !545)
!557 = !DISubprogram(name: "reverse_iterator", scope: !524, file: !132, line: 173, type: !558, scopeLine: 173, flags: DIFlagPublic | DIFlagPrototyped, spFlags: 0)
!558 = !DISubroutineType(types: !559)
!559 = !{null, !552, !560}
!560 = !DIDerivedType(tag: DW_TAG_reference_type, baseType: !561, size: 64)
!561 = !DIDerivedType(tag: DW_TAG_const_type, baseType: !524)
!562 = !DISubprogram(name: "operator=", linkageName: "_ZNSt16reverse_iteratorIPtEaSERKS1_", scope: !524, file: !132, line: 177, type: !563, scopeLine: 177, flags: DIFlagPublic | DIFlagPrototyped, spFlags: 0)
!563 = !DISubroutineType(types: !564)
!564 = !{!565, !552, !560}
!565 = !DIDerivedType(tag: DW_TAG_reference_type, baseType: !524, size: 64)
!566 = !DISubprogram(name: "base", linkageName: "_ZNKSt16reverse_iteratorIPtE4baseEv", scope: !524, file: !132, line: 193, type: !567, scopeLine: 193, flags: DIFlagPublic | DIFlagPrototyped, spFlags: 0)
!567 = !DISubroutineType(types: !568)
!568 = !{!556, !569}
!569 = !DIDerivedType(tag: DW_TAG_pointer_type, baseType: !561, size: 64, flags: DIFlagArtificial | DIFlagObjectPointer)
!570 = !DISubprogram(name: "operator*", linkageName: "_ZNKSt16reverse_iteratorIPtEdeEv", scope: !524, file: !132, line: 207, type: !571, scopeLine: 207, flags: DIFlagPublic | DIFlagPrototyped, spFlags: 0)
!571 = !DISubroutineType(types: !572)
!572 = !{!573, !569}
!573 = !DIDerivedType(tag: DW_TAG_typedef, name: "reference", scope: !524, file: !132, line: 141, baseType: !574)
!574 = !DIDerivedType(tag: DW_TAG_typedef, name: "reference", scope: !575, file: !528, line: 216, baseType: !547)
!575 = distinct !DICompositeType(tag: DW_TAG_structure_type, name: "iterator_traits<unsigned short *>", scope: !133, file: !528, line: 210, size: 8, flags: DIFlagTypePassByValue, elements: !212, templateParams: !576, identifier: "_ZTSSt15iterator_traitsIPtE")
!576 = !{!577}
!577 = !DITemplateTypeParameter(name: "_Iterator", type: !545)
!578 = !DISubprogram(name: "operator->", linkageName: "_ZNKSt16reverse_iteratorIPtEptEv", scope: !524, file: !132, line: 219, type: !579, scopeLine: 219, flags: DIFlagPublic | DIFlagPrototyped, spFlags: 0)
!579 = !DISubroutineType(types: !580)
!580 = !{!581, !569}
!581 = !DIDerivedType(tag: DW_TAG_typedef, name: "pointer", scope: !524, file: !132, line: 140, baseType: !582)
!582 = !DIDerivedType(tag: DW_TAG_typedef, name: "pointer", scope: !575, file: !528, line: 215, baseType: !545)
!583 = !DISubprogram(name: "operator++", linkageName: "_ZNSt16reverse_iteratorIPtEppEv", scope: !524, file: !132, line: 238, type: !584, scopeLine: 238, flags: DIFlagPublic | DIFlagPrototyped, spFlags: 0)
!584 = !DISubroutineType(types: !585)
!585 = !{!565, !552}
!586 = !DISubprogram(name: "operator++", linkageName: "_ZNSt16reverse_iteratorIPtEppEi", scope: !524, file: !132, line: 250, type: !587, scopeLine: 250, flags: DIFlagPublic | DIFlagPrototyped, spFlags: 0)
!587 = !DISubroutineType(types: !588)
!588 = !{!524, !552, !11}
!589 = !DISubprogram(name: "operator--", linkageName: "_ZNSt16reverse_iteratorIPtEmmEv", scope: !524, file: !132, line: 263, type: !584, scopeLine: 263, flags: DIFlagPublic | DIFlagPrototyped, spFlags: 0)
!590 = !DISubprogram(name: "operator--", linkageName: "_ZNSt16reverse_iteratorIPtEmmEi", scope: !524, file: !132, line: 275, type: !587, scopeLine: 275, flags: DIFlagPublic | DIFlagPrototyped, spFlags: 0)
!591 = !DISubprogram(name: "operator+", linkageName: "_ZNKSt16reverse_iteratorIPtEplEl", scope: !524, file: !132, line: 288, type: !592, scopeLine: 288, flags: DIFlagPublic | DIFlagPrototyped, spFlags: 0)
!592 = !DISubroutineType(types: !593)
!593 = !{!524, !569, !594}
!594 = !DIDerivedType(tag: DW_TAG_typedef, name: "difference_type", scope: !524, file: !132, line: 139, baseType: !595)
!595 = !DIDerivedType(tag: DW_TAG_typedef, name: "difference_type", scope: !575, file: !528, line: 214, baseType: !596)
!596 = !DIDerivedType(tag: DW_TAG_typedef, name: "ptrdiff_t", scope: !133, file: !597, line: 261, baseType: !543)
!597 = !DIFile(filename: "/usr/lib/gcc/x86_64-linux-gnu/10/../../../../include/x86_64-linux-gnu/c++/10/bits/c++config.h", directory: "")
!598 = !DISubprogram(name: "operator+=", linkageName: "_ZNSt16reverse_iteratorIPtEpLEl", scope: !524, file: !132, line: 298, type: !599, scopeLine: 298, flags: DIFlagPublic | DIFlagPrototyped, spFlags: 0)
!599 = !DISubroutineType(types: !600)
!600 = !{!565, !552, !594}
!601 = !DISubprogram(name: "operator-", linkageName: "_ZNKSt16reverse_iteratorIPtEmiEl", scope: !524, file: !132, line: 310, type: !592, scopeLine: 310, flags: DIFlagPublic | DIFlagPrototyped, spFlags: 0)
!602 = !DISubprogram(name: "operator-=", linkageName: "_ZNSt16reverse_iteratorIPtEmIEl", scope: !524, file: !132, line: 320, type: !599, scopeLine: 320, flags: DIFlagPublic | DIFlagPrototyped, spFlags: 0)
!603 = !DISubprogram(name: "operator[]", linkageName: "_ZNKSt16reverse_iteratorIPtEixEl", scope: !524, file: !132, line: 332, type: !604, scopeLine: 332, flags: DIFlagPublic | DIFlagPrototyped, spFlags: 0)
!604 = !DISubroutineType(types: !605)
!605 = !{!573, !569, !594}
!606 = !DISubprogram(name: "rbegin", linkageName: "_ZNK11xalanc_1_1011XalanVectorItNS_31MemoryManagedConstructionTraitsItEEE6rbeginEv", scope: !417, file: !15, line: 725, type: !607, scopeLine: 725, flags: DIFlagPublic | DIFlagPrototyped, spFlags: 0)
!607 = !DISubroutineType(types: !608)
!608 = !{!609, !488}
!609 = !DIDerivedType(tag: DW_TAG_typedef, name: "const_reverse_iterator", scope: !417, file: !15, line: 113, baseType: !610)
!610 = !DIDerivedType(tag: DW_TAG_typedef, name: "const_reverse_iterator_", scope: !417, file: !15, line: 97, baseType: !611)
!611 = distinct !DICompositeType(tag: DW_TAG_class_type, name: "reverse_iterator<const unsigned short *>", scope: !133, file: !132, line: 125, size: 64, flags: DIFlagTypePassByReference | DIFlagNonTrivial, elements: !612, templateParams: !649, identifier: "_ZTSSt16reverse_iteratorIPKtE")
!612 = !{!613, !621, !622, !626, !630, !635, !639, !643, !651, !656, !659, !662, !663, !664, !669, !672, !673, !674}
!613 = !DIDerivedType(tag: DW_TAG_inheritance, scope: !611, baseType: !614, flags: DIFlagPublic, extraData: i32 0)
!614 = distinct !DICompositeType(tag: DW_TAG_structure_type, name: "iterator<std::random_access_iterator_tag, unsigned short, long, const unsigned short *, const unsigned short &>", scope: !133, file: !528, line: 127, size: 8, flags: DIFlagTypePassByValue, elements: !212, templateParams: !615, identifier: "_ZTSSt8iteratorISt26random_access_iterator_tagtlPKtRS1_E")
!615 = !{!530, !541, !542, !616, !619}
!616 = !DITemplateTypeParameter(name: "_Pointer", type: !617)
!617 = !DIDerivedType(tag: DW_TAG_pointer_type, baseType: !618, size: 64)
!618 = !DIDerivedType(tag: DW_TAG_const_type, baseType: !425)
!619 = !DITemplateTypeParameter(name: "_Reference", type: !620)
!620 = !DIDerivedType(tag: DW_TAG_reference_type, baseType: !618, size: 64)
!621 = !DIDerivedType(tag: DW_TAG_member, name: "current", scope: !611, file: !132, line: 133, baseType: !617, size: 64, flags: DIFlagProtected)
!622 = !DISubprogram(name: "reverse_iterator", scope: !611, file: !132, line: 161, type: !623, scopeLine: 161, flags: DIFlagPublic | DIFlagPrototyped, spFlags: 0)
!623 = !DISubroutineType(types: !624)
!624 = !{null, !625}
!625 = !DIDerivedType(tag: DW_TAG_pointer_type, baseType: !611, size: 64, flags: DIFlagArtificial | DIFlagObjectPointer)
!626 = !DISubprogram(name: "reverse_iterator", scope: !611, file: !132, line: 167, type: !627, scopeLine: 167, flags: DIFlagPublic | DIFlagExplicit | DIFlagPrototyped, spFlags: 0)
!627 = !DISubroutineType(types: !628)
!628 = !{null, !625, !629}
!629 = !DIDerivedType(tag: DW_TAG_typedef, name: "iterator_type", scope: !611, file: !132, line: 138, baseType: !617)
!630 = !DISubprogram(name: "reverse_iterator", scope: !611, file: !132, line: 173, type: !631, scopeLine: 173, flags: DIFlagPublic | DIFlagPrototyped, spFlags: 0)
!631 = !DISubroutineType(types: !632)
!632 = !{null, !625, !633}
!633 = !DIDerivedType(tag: DW_TAG_reference_type, baseType: !634, size: 64)
!634 = !DIDerivedType(tag: DW_TAG_const_type, baseType: !611)
!635 = !DISubprogram(name: "operator=", linkageName: "_ZNSt16reverse_iteratorIPKtEaSERKS2_", scope: !611, file: !132, line: 177, type: !636, scopeLine: 177, flags: DIFlagPublic | DIFlagPrototyped, spFlags: 0)
!636 = !DISubroutineType(types: !637)
!637 = !{!638, !625, !633}
!638 = !DIDerivedType(tag: DW_TAG_reference_type, baseType: !611, size: 64)
!639 = !DISubprogram(name: "base", linkageName: "_ZNKSt16reverse_iteratorIPKtE4baseEv", scope: !611, file: !132, line: 193, type: !640, scopeLine: 193, flags: DIFlagPublic | DIFlagPrototyped, spFlags: 0)
!640 = !DISubroutineType(types: !641)
!641 = !{!629, !642}
!642 = !DIDerivedType(tag: DW_TAG_pointer_type, baseType: !634, size: 64, flags: DIFlagArtificial | DIFlagObjectPointer)
!643 = !DISubprogram(name: "operator*", linkageName: "_ZNKSt16reverse_iteratorIPKtEdeEv", scope: !611, file: !132, line: 207, type: !644, scopeLine: 207, flags: DIFlagPublic | DIFlagPrototyped, spFlags: 0)
!644 = !DISubroutineType(types: !645)
!645 = !{!646, !642}
!646 = !DIDerivedType(tag: DW_TAG_typedef, name: "reference", scope: !611, file: !132, line: 141, baseType: !647)
!647 = !DIDerivedType(tag: DW_TAG_typedef, name: "reference", scope: !648, file: !528, line: 227, baseType: !620)
!648 = distinct !DICompositeType(tag: DW_TAG_structure_type, name: "iterator_traits<const unsigned short *>", scope: !133, file: !528, line: 221, size: 8, flags: DIFlagTypePassByValue, elements: !212, templateParams: !649, identifier: "_ZTSSt15iterator_traitsIPKtE")
!649 = !{!650}
!650 = !DITemplateTypeParameter(name: "_Iterator", type: !617)
!651 = !DISubprogram(name: "operator->", linkageName: "_ZNKSt16reverse_iteratorIPKtEptEv", scope: !611, file: !132, line: 219, type: !652, scopeLine: 219, flags: DIFlagPublic | DIFlagPrototyped, spFlags: 0)
!652 = !DISubroutineType(types: !653)
!653 = !{!654, !642}
!654 = !DIDerivedType(tag: DW_TAG_typedef, name: "pointer", scope: !611, file: !132, line: 140, baseType: !655)
!655 = !DIDerivedType(tag: DW_TAG_typedef, name: "pointer", scope: !648, file: !528, line: 226, baseType: !617)
!656 = !DISubprogram(name: "operator++", linkageName: "_ZNSt16reverse_iteratorIPKtEppEv", scope: !611, file: !132, line: 238, type: !657, scopeLine: 238, flags: DIFlagPublic | DIFlagPrototyped, spFlags: 0)
!657 = !DISubroutineType(types: !658)
!658 = !{!638, !625}
!659 = !DISubprogram(name: "operator++", linkageName: "_ZNSt16reverse_iteratorIPKtEppEi", scope: !611, file: !132, line: 250, type: !660, scopeLine: 250, flags: DIFlagPublic | DIFlagPrototyped, spFlags: 0)
!660 = !DISubroutineType(types: !661)
!661 = !{!611, !625, !11}
!662 = !DISubprogram(name: "operator--", linkageName: "_ZNSt16reverse_iteratorIPKtEmmEv", scope: !611, file: !132, line: 263, type: !657, scopeLine: 263, flags: DIFlagPublic | DIFlagPrototyped, spFlags: 0)
!663 = !DISubprogram(name: "operator--", linkageName: "_ZNSt16reverse_iteratorIPKtEmmEi", scope: !611, file: !132, line: 275, type: !660, scopeLine: 275, flags: DIFlagPublic | DIFlagPrototyped, spFlags: 0)
!664 = !DISubprogram(name: "operator+", linkageName: "_ZNKSt16reverse_iteratorIPKtEplEl", scope: !611, file: !132, line: 288, type: !665, scopeLine: 288, flags: DIFlagPublic | DIFlagPrototyped, spFlags: 0)
!665 = !DISubroutineType(types: !666)
!666 = !{!611, !642, !667}
!667 = !DIDerivedType(tag: DW_TAG_typedef, name: "difference_type", scope: !611, file: !132, line: 139, baseType: !668)
!668 = !DIDerivedType(tag: DW_TAG_typedef, name: "difference_type", scope: !648, file: !528, line: 225, baseType: !596)
!669 = !DISubprogram(name: "operator+=", linkageName: "_ZNSt16reverse_iteratorIPKtEpLEl", scope: !611, file: !132, line: 298, type: !670, scopeLine: 298, flags: DIFlagPublic | DIFlagPrototyped, spFlags: 0)
!670 = !DISubroutineType(types: !671)
!671 = !{!638, !625, !667}
!672 = !DISubprogram(name: "operator-", linkageName: "_ZNKSt16reverse_iteratorIPKtEmiEl", scope: !611, file: !132, line: 310, type: !665, scopeLine: 310, flags: DIFlagPublic | DIFlagPrototyped, spFlags: 0)
!673 = !DISubprogram(name: "operator-=", linkageName: "_ZNSt16reverse_iteratorIPKtEmIEl", scope: !611, file: !132, line: 320, type: !670, scopeLine: 320, flags: DIFlagPublic | DIFlagPrototyped, spFlags: 0)
!674 = !DISubprogram(name: "operator[]", linkageName: "_ZNKSt16reverse_iteratorIPKtEixEl", scope: !611, file: !132, line: 332, type: !675, scopeLine: 332, flags: DIFlagPublic | DIFlagPrototyped, spFlags: 0)
!675 = !DISubroutineType(types: !676)
!676 = !{!646, !642, !667}
!677 = !DISubprogram(name: "rend", linkageName: "_ZN11xalanc_1_1011XalanVectorItNS_31MemoryManagedConstructionTraitsItEEE4rendEv", scope: !417, file: !15, line: 733, type: !520, scopeLine: 733, flags: DIFlagPublic | DIFlagPrototyped, spFlags: 0)
!678 = !DISubprogram(name: "rend", linkageName: "_ZNK11xalanc_1_1011XalanVectorItNS_31MemoryManagedConstructionTraitsItEEE4rendEv", scope: !417, file: !15, line: 741, type: !607, scopeLine: 741, flags: DIFlagPublic | DIFlagPrototyped, spFlags: 0)
!679 = !DISubprogram(name: "at", linkageName: "_ZN11xalanc_1_1011XalanVectorItNS_31MemoryManagedConstructionTraitsItEEE2atEm", scope: !417, file: !15, line: 750, type: !680, scopeLine: 750, flags: DIFlagPublic | DIFlagPrototyped, spFlags: 0)
!680 = !DISubroutineType(types: !681)
!681 = !{!503, !429, !23}
!682 = !DISubprogram(name: "at", linkageName: "_ZNK11xalanc_1_1011XalanVectorItNS_31MemoryManagedConstructionTraitsItEEE2atEm", scope: !417, file: !15, line: 761, type: !683, scopeLine: 761, flags: DIFlagPublic | DIFlagPrototyped, spFlags: 0)
!683 = !DISubroutineType(types: !684)
!684 = !{!508, !488, !23}
!685 = !DISubprogram(name: "operator[]", linkageName: "_ZN11xalanc_1_1011XalanVectorItNS_31MemoryManagedConstructionTraitsItEEEixEm", scope: !417, file: !15, line: 772, type: !680, scopeLine: 772, flags: DIFlagPublic | DIFlagPrototyped, spFlags: 0)
!686 = !DISubprogram(name: "operator[]", linkageName: "_ZNK11xalanc_1_1011XalanVectorItNS_31MemoryManagedConstructionTraitsItEEEixEm", scope: !417, file: !15, line: 780, type: !683, scopeLine: 780, flags: DIFlagPublic | DIFlagPrototyped, spFlags: 0)
!687 = !DISubprogram(name: "clear", linkageName: "_ZN11xalanc_1_1011XalanVectorItNS_31MemoryManagedConstructionTraitsItEEE5clearEv", scope: !417, file: !15, line: 788, type: !454, scopeLine: 788, flags: DIFlagPublic | DIFlagPrototyped, spFlags: 0)
!688 = !DISubprogram(name: "operator=", linkageName: "_ZN11xalanc_1_1011XalanVectorItNS_31MemoryManagedConstructionTraitsItEEEaSERKS3_", scope: !417, file: !15, line: 802, type: !689, scopeLine: 802, flags: DIFlagPublic | DIFlagPrototyped, spFlags: 0)
!689 = !DISubroutineType(types: !690)
!690 = !{!691, !429, !437}
!691 = !DIDerivedType(tag: DW_TAG_reference_type, baseType: !439, size: 64)
!692 = !DISubprogram(name: "swap", linkageName: "_ZN11xalanc_1_1011XalanVectorItNS_31MemoryManagedConstructionTraitsItEEE4swapERS3_", scope: !417, file: !15, line: 848, type: !693, scopeLine: 848, flags: DIFlagPublic | DIFlagPrototyped, spFlags: 0)
!693 = !DISubroutineType(types: !694)
!694 = !{null, !429, !691}
!695 = !DISubprogram(name: "getMemoryManager", linkageName: "_ZNK11xalanc_1_1011XalanVectorItNS_31MemoryManagedConstructionTraitsItEEE16getMemoryManagerEv", scope: !417, file: !15, line: 871, type: !696, scopeLine: 871, flags: DIFlagPublic | DIFlagPrototyped, spFlags: 0)
!696 = !DISubroutineType(types: !697)
!697 = !{!161, !488}
!698 = !DISubprogram(name: "getMemoryManager", linkageName: "_ZN11xalanc_1_1011XalanVectorItNS_31MemoryManagedConstructionTraitsItEEE16getMemoryManagerEv", scope: !417, file: !15, line: 877, type: !699, scopeLine: 877, flags: DIFlagPublic | DIFlagPrototyped, spFlags: 0)
!699 = !DISubroutineType(types: !700)
!700 = !{!35, !429}
!701 = !DISubprogram(name: "detach", linkageName: "_ZN11xalanc_1_1011XalanVectorItNS_31MemoryManagedConstructionTraitsItEEE6detachEv", scope: !417, file: !15, line: 889, type: !702, scopeLine: 889, flags: DIFlagPublic | DIFlagPrototyped, spFlags: 0)
!702 = !DISubroutineType(types: !703)
!703 = !{!704, !429}
!704 = !DIDerivedType(tag: DW_TAG_typedef, name: "pointer", scope: !417, file: !15, line: 67, baseType: !423)
!705 = !DISubprogram(name: "invariants", linkageName: "_ZNK11xalanc_1_1011XalanVectorItNS_31MemoryManagedConstructionTraitsItEEE10invariantsEv", scope: !417, file: !15, line: 905, type: !706, scopeLine: 905, flags: DIFlagPrototyped, spFlags: 0)
!706 = !DISubroutineType(types: !707)
!707 = !{null, !488}
!708 = !DISubprogram(name: "local_distance", linkageName: "_ZN11xalanc_1_1011XalanVectorItNS_31MemoryManagedConstructionTraitsItEEE14local_distanceEPKtS5_", scope: !417, file: !15, line: 918, type: !709, scopeLine: 918, flags: DIFlagPrototyped, spFlags: 0)
!709 = !DISubroutineType(types: !710)
!710 = !{!711, !429, !443, !443}
!711 = !DIDerivedType(tag: DW_TAG_typedef, name: "size_type", scope: !417, file: !15, line: 71, baseType: !24)
!712 = !DISubprogram(name: "allocate", linkageName: "_ZN11xalanc_1_1011XalanVectorItNS_31MemoryManagedConstructionTraitsItEEE8allocateEm", scope: !417, file: !15, line: 938, type: !713, scopeLine: 938, flags: DIFlagPrototyped, spFlags: 0)
!713 = !DISubroutineType(types: !714)
!714 = !{!423, !429, !23}
!715 = !DISubprogram(name: "deallocate", linkageName: "_ZN11xalanc_1_1011XalanVectorItNS_31MemoryManagedConstructionTraitsItEEE10deallocateEPt", scope: !417, file: !15, line: 952, type: !716, scopeLine: 952, flags: DIFlagPrototyped, spFlags: 0)
!716 = !DISubroutineType(types: !717)
!717 = !{null, !429, !423}
!718 = !DISubprogram(name: "destroy", linkageName: "_ZN11xalanc_1_1011XalanVectorItNS_31MemoryManagedConstructionTraitsItEEE7destroyERt", scope: !417, file: !15, line: 961, type: !719, scopeLine: 961, flags: DIFlagPrototyped | DIFlagStaticMember, spFlags: 0)
!719 = !DISubroutineType(types: !720)
!720 = !{null, !504}
!721 = !DISubprogram(name: "destroy", linkageName: "_ZN11xalanc_1_1011XalanVectorItNS_31MemoryManagedConstructionTraitsItEEE7destroyEPtS4_", scope: !417, file: !15, line: 967, type: !722, scopeLine: 967, flags: DIFlagPrototyped | DIFlagStaticMember, spFlags: 0)
!722 = !DISubroutineType(types: !723)
!723 = !{null, !463, !463}
!724 = !DISubprogram(name: "doPushBack", linkageName: "_ZN11xalanc_1_1011XalanVectorItNS_31MemoryManagedConstructionTraitsItEEE10doPushBackERKt", scope: !417, file: !15, line: 978, type: !457, scopeLine: 978, flags: DIFlagPrototyped, spFlags: 0)
!725 = !DISubprogram(name: "ensureCapacity", linkageName: "_ZN11xalanc_1_1011XalanVectorItNS_31MemoryManagedConstructionTraitsItEEE14ensureCapacityEm", scope: !417, file: !15, line: 1006, type: !726, scopeLine: 1006, flags: DIFlagPrototyped, spFlags: 0)
!726 = !DISubroutineType(types: !727)
!727 = !{!704, !429, !23}
!728 = !DISubprogram(name: "doReserve", linkageName: "_ZN11xalanc_1_1011XalanVectorItNS_31MemoryManagedConstructionTraitsItEEE9doReserveEm", scope: !417, file: !15, line: 1017, type: !492, scopeLine: 1017, flags: DIFlagPrototyped, spFlags: 0)
!729 = !DISubprogram(name: "endPointer", linkageName: "_ZN11xalanc_1_1011XalanVectorItNS_31MemoryManagedConstructionTraitsItEEE10endPointerEv", scope: !417, file: !15, line: 1031, type: !702, scopeLine: 1031, flags: DIFlagPrototyped, spFlags: 0)
!730 = !DISubprogram(name: "endPointer", linkageName: "_ZNK11xalanc_1_1011XalanVectorItNS_31MemoryManagedConstructionTraitsItEEE10endPointerEv", scope: !417, file: !15, line: 1037, type: !731, scopeLine: 1037, flags: DIFlagPrototyped, spFlags: 0)
!731 = !DISubroutineType(types: !732)
!732 = !{!733, !488}
!733 = !DIDerivedType(tag: DW_TAG_typedef, name: "const_pointer", scope: !417, file: !15, line: 68, baseType: !444)
!734 = !DISubprogram(name: "outOfRange", linkageName: "_ZN11xalanc_1_1011XalanVectorItNS_31MemoryManagedConstructionTraitsItEEE10outOfRangeEv", scope: !417, file: !15, line: 1043, type: !200, scopeLine: 1043, flags: DIFlagPrototyped | DIFlagStaticMember, spFlags: 0)
!735 = !DISubprogram(name: "shrinkToSize", linkageName: "_ZN11xalanc_1_1011XalanVectorItNS_31MemoryManagedConstructionTraitsItEEE12shrinkToSizeEm", scope: !417, file: !15, line: 1049, type: !492, scopeLine: 1049, flags: DIFlagPrototyped, spFlags: 0)
!736 = !DISubprogram(name: "shrinkCount", linkageName: "_ZN11xalanc_1_1011XalanVectorItNS_31MemoryManagedConstructionTraitsItEEE11shrinkCountEm", scope: !417, file: !15, line: 1060, type: !492, scopeLine: 1060, flags: DIFlagPrototyped, spFlags: 0)
!737 = !DISubprogram(name: "local_max", linkageName: "_ZN11xalanc_1_1011XalanVectorItNS_31MemoryManagedConstructionTraitsItEEE9local_maxEmm", scope: !417, file: !15, line: 1073, type: !738, scopeLine: 1073, flags: DIFlagPrototyped, spFlags: 0)
!738 = !DISubroutineType(types: !739)
!739 = !{!711, !429, !23, !23}
!740 = !{!741, !742}
!741 = !DITemplateTypeParameter(name: "Type", type: !425)
!742 = !DITemplateTypeParameter(name: "ConstructionTraits", type: !743)
!743 = distinct !DICompositeType(tag: DW_TAG_structure_type, name: "MemoryManagedConstructionTraits<unsigned short>", scope: !6, file: !211, line: 462, size: 8, flags: DIFlagTypePassByValue, elements: !212, templateParams: !744, identifier: "_ZTSN11xalanc_1_1031MemoryManagedConstructionTraitsItEE")
!744 = !{!745}
!745 = !DITemplateTypeParameter(name: "C", type: !425)
!746 = !DIDerivedType(tag: DW_TAG_member, name: "m_size", scope: !408, file: !409, line: 795, baseType: !413, size: 32, offset: 256)
!747 = !DIDerivedType(tag: DW_TAG_member, name: "s_empty", scope: !408, file: !409, line: 797, baseType: !748, flags: DIFlagStaticMember)
!748 = !DIDerivedType(tag: DW_TAG_const_type, baseType: !749)
!749 = !DIDerivedType(tag: DW_TAG_typedef, name: "XalanDOMChar", scope: !6, file: !750, line: 127, baseType: !425)
!750 = !DIFile(filename: "./xalanc/Include/PlatformDefinitions.hpp", directory: "/home/venkat/IF-DV/spec_build_release/CPU_2017/benchspec/CPU/523.xalancbmk_r/build/build_base_ld-loop-ext-m64.0000")
!751 = !DISubprogram(name: "XalanDOMString", scope: !408, file: !409, line: 66, type: !752, scopeLine: 66, flags: DIFlagPublic | DIFlagPrototyped, spFlags: 0)
!752 = !DISubroutineType(types: !753)
!753 = !{null, !754, !755}
!754 = !DIDerivedType(tag: DW_TAG_pointer_type, baseType: !408, size: 64, flags: DIFlagArtificial | DIFlagObjectPointer)
!755 = !DIDerivedType(tag: DW_TAG_reference_type, baseType: !756, size: 64)
!756 = !DIDerivedType(tag: DW_TAG_typedef, name: "MemoryManagerType", scope: !6, file: !211, line: 39, baseType: !19)
!757 = !DISubprogram(name: "XalanDOMString", scope: !408, file: !409, line: 69, type: !758, scopeLine: 69, flags: DIFlagPublic | DIFlagExplicit | DIFlagPrototyped, spFlags: 0)
!758 = !DISubroutineType(types: !759)
!759 = !{null, !754, !760, !755, !413}
!760 = !DIDerivedType(tag: DW_TAG_pointer_type, baseType: !761, size: 64)
!761 = !DIDerivedType(tag: DW_TAG_const_type, baseType: !762)
!762 = !DIBasicType(name: "char", size: 8, encoding: DW_ATE_signed_char)
!763 = !DISubprogram(name: "XalanDOMString", scope: !408, file: !409, line: 74, type: !764, scopeLine: 74, flags: DIFlagPublic | DIFlagPrototyped, spFlags: 0)
!764 = !DISubroutineType(types: !765)
!765 = !{null, !754, !766, !755, !413, !413}
!766 = !DIDerivedType(tag: DW_TAG_reference_type, baseType: !407, size: 64)
!767 = !DISubprogram(name: "XalanDOMString", scope: !408, file: !409, line: 81, type: !768, scopeLine: 81, flags: DIFlagPublic | DIFlagExplicit | DIFlagPrototyped, spFlags: 0)
!768 = !DISubroutineType(types: !769)
!769 = !{null, !754, !770, !755, !413}
!770 = !DIDerivedType(tag: DW_TAG_pointer_type, baseType: !748, size: 64)
!771 = !DISubprogram(name: "XalanDOMString", scope: !408, file: !409, line: 86, type: !772, scopeLine: 86, flags: DIFlagPublic | DIFlagPrototyped, spFlags: 0)
!772 = !DISubroutineType(types: !773)
!773 = !{null, !754, !413, !749, !755}
!774 = !DISubprogram(name: "clone", linkageName: "_ZN11xalanc_1_1014XalanDOMString5cloneERN11xercesc_2_713MemoryManagerE", scope: !408, file: !409, line: 92, type: !775, scopeLine: 92, flags: DIFlagPublic | DIFlagPrototyped, spFlags: 0)
!775 = !DISubroutineType(types: !776)
!776 = !{!777, !754, !755}
!777 = !DIDerivedType(tag: DW_TAG_pointer_type, baseType: !408, size: 64)
!778 = !DISubprogram(name: "~XalanDOMString", scope: !408, file: !409, line: 94, type: !779, scopeLine: 94, flags: DIFlagPublic | DIFlagPrototyped, spFlags: 0)
!779 = !DISubroutineType(types: !780)
!780 = !{null, !754}
!781 = !DISubprogram(name: "operator=", linkageName: "_ZN11xalanc_1_1014XalanDOMStringaSERKS0_", scope: !408, file: !409, line: 99, type: !782, scopeLine: 99, flags: DIFlagPublic | DIFlagPrototyped, spFlags: 0)
!782 = !DISubroutineType(types: !783)
!783 = !{!784, !754, !766}
!784 = !DIDerivedType(tag: DW_TAG_reference_type, baseType: !408, size: 64)
!785 = !DISubprogram(name: "operator=", linkageName: "_ZN11xalanc_1_1014XalanDOMStringaSEPKt", scope: !408, file: !409, line: 105, type: !786, scopeLine: 105, flags: DIFlagPublic | DIFlagPrototyped, spFlags: 0)
!786 = !DISubroutineType(types: !787)
!787 = !{!784, !754, !770}
!788 = !DISubprogram(name: "operator=", linkageName: "_ZN11xalanc_1_1014XalanDOMStringaSEPKc", scope: !408, file: !409, line: 111, type: !789, scopeLine: 111, flags: DIFlagPublic | DIFlagPrototyped, spFlags: 0)
!789 = !DISubroutineType(types: !790)
!790 = !{!784, !754, !760}
!791 = !DISubprogram(name: "operator=", linkageName: "_ZN11xalanc_1_1014XalanDOMStringaSEt", scope: !408, file: !409, line: 117, type: !792, scopeLine: 117, flags: DIFlagPublic | DIFlagPrototyped, spFlags: 0)
!792 = !DISubroutineType(types: !793)
!793 = !{!784, !754, !749}
!794 = !DISubprogram(name: "begin", linkageName: "_ZN11xalanc_1_1014XalanDOMString5beginEv", scope: !408, file: !409, line: 123, type: !795, scopeLine: 123, flags: DIFlagPublic | DIFlagPrototyped, spFlags: 0)
!795 = !DISubroutineType(types: !796)
!796 = !{!797, !754}
!797 = !DIDerivedType(tag: DW_TAG_typedef, name: "iterator", scope: !408, file: !409, line: 55, baseType: !463)
!798 = !DISubprogram(name: "begin", linkageName: "_ZNK11xalanc_1_1014XalanDOMString5beginEv", scope: !408, file: !409, line: 131, type: !799, scopeLine: 131, flags: DIFlagPublic | DIFlagPrototyped, spFlags: 0)
!799 = !DISubroutineType(types: !800)
!800 = !{!801, !802}
!801 = !DIDerivedType(tag: DW_TAG_typedef, name: "const_iterator", scope: !408, file: !409, line: 56, baseType: !443)
!802 = !DIDerivedType(tag: DW_TAG_pointer_type, baseType: !407, size: 64, flags: DIFlagArtificial | DIFlagObjectPointer)
!803 = !DISubprogram(name: "end", linkageName: "_ZN11xalanc_1_1014XalanDOMString3endEv", scope: !408, file: !409, line: 139, type: !795, scopeLine: 139, flags: DIFlagPublic | DIFlagPrototyped, spFlags: 0)
!804 = !DISubprogram(name: "end", linkageName: "_ZNK11xalanc_1_1014XalanDOMString3endEv", scope: !408, file: !409, line: 147, type: !799, scopeLine: 147, flags: DIFlagPublic | DIFlagPrototyped, spFlags: 0)
!805 = !DISubprogram(name: "rbegin", linkageName: "_ZN11xalanc_1_1014XalanDOMString6rbeginEv", scope: !408, file: !409, line: 155, type: !806, scopeLine: 155, flags: DIFlagPublic | DIFlagPrototyped, spFlags: 0)
!806 = !DISubroutineType(types: !807)
!807 = !{!808, !754}
!808 = !DIDerivedType(tag: DW_TAG_typedef, name: "reverse_iterator", scope: !408, file: !409, line: 57, baseType: !522)
!809 = !DISubprogram(name: "rbegin", linkageName: "_ZNK11xalanc_1_1014XalanDOMString6rbeginEv", scope: !408, file: !409, line: 170, type: !810, scopeLine: 170, flags: DIFlagPublic | DIFlagPrototyped, spFlags: 0)
!810 = !DISubroutineType(types: !811)
!811 = !{!812, !802}
!812 = !DIDerivedType(tag: DW_TAG_typedef, name: "const_reverse_iterator", scope: !408, file: !409, line: 58, baseType: !609)
!813 = !DISubprogram(name: "rend", linkageName: "_ZN11xalanc_1_1014XalanDOMString4rendEv", scope: !408, file: !409, line: 185, type: !806, scopeLine: 185, flags: DIFlagPublic | DIFlagPrototyped, spFlags: 0)
!814 = !DISubprogram(name: "rend", linkageName: "_ZNK11xalanc_1_1014XalanDOMString4rendEv", scope: !408, file: !409, line: 193, type: !810, scopeLine: 193, flags: DIFlagPublic | DIFlagPrototyped, spFlags: 0)
!815 = !DISubprogram(name: "size", linkageName: "_ZNK11xalanc_1_1014XalanDOMString4sizeEv", scope: !408, file: !409, line: 201, type: !816, scopeLine: 201, flags: DIFlagPublic | DIFlagPrototyped, spFlags: 0)
!816 = !DISubroutineType(types: !817)
!817 = !{!413, !802}
!818 = !DISubprogram(name: "length", linkageName: "_ZNK11xalanc_1_1014XalanDOMString6lengthEv", scope: !408, file: !409, line: 209, type: !816, scopeLine: 209, flags: DIFlagPublic | DIFlagPrototyped, spFlags: 0)
!819 = !DISubprogram(name: "max_size", linkageName: "_ZNK11xalanc_1_1014XalanDOMString8max_sizeEv", scope: !408, file: !409, line: 217, type: !816, scopeLine: 217, flags: DIFlagPublic | DIFlagPrototyped, spFlags: 0)
!820 = !DISubprogram(name: "resize", linkageName: "_ZN11xalanc_1_1014XalanDOMString6resizeEjt", scope: !408, file: !409, line: 225, type: !821, scopeLine: 225, flags: DIFlagPublic | DIFlagPrototyped, spFlags: 0)
!821 = !DISubroutineType(types: !822)
!822 = !{null, !754, !413, !749}
!823 = !DISubprogram(name: "resize", linkageName: "_ZN11xalanc_1_1014XalanDOMString6resizeEj", scope: !408, file: !409, line: 230, type: !824, scopeLine: 230, flags: DIFlagPublic | DIFlagPrototyped, spFlags: 0)
!824 = !DISubroutineType(types: !825)
!825 = !{null, !754, !413}
!826 = !DISubprogram(name: "capacity", linkageName: "_ZNK11xalanc_1_1014XalanDOMString8capacityEv", scope: !408, file: !409, line: 238, type: !816, scopeLine: 238, flags: DIFlagPublic | DIFlagPrototyped, spFlags: 0)
!827 = !DISubprogram(name: "reserve", linkageName: "_ZN11xalanc_1_1014XalanDOMString7reserveEj", scope: !408, file: !409, line: 249, type: !824, scopeLine: 249, flags: DIFlagPublic | DIFlagPrototyped, spFlags: 0)
!828 = !DISubprogram(name: "clear", linkageName: "_ZN11xalanc_1_1014XalanDOMString5clearEv", scope: !408, file: !409, line: 257, type: !779, scopeLine: 257, flags: DIFlagPublic | DIFlagPrototyped, spFlags: 0)
!829 = !DISubprogram(name: "erase", linkageName: "_ZN11xalanc_1_1014XalanDOMString5eraseEjj", scope: !408, file: !409, line: 269, type: !830, scopeLine: 269, flags: DIFlagPublic | DIFlagPrototyped, spFlags: 0)
!830 = !DISubroutineType(types: !831)
!831 = !{null, !754, !413, !413}
!832 = !DISubprogram(name: "empty", linkageName: "_ZNK11xalanc_1_1014XalanDOMString5emptyEv", scope: !408, file: !409, line: 274, type: !833, scopeLine: 274, flags: DIFlagPublic | DIFlagPrototyped, spFlags: 0)
!833 = !DISubroutineType(types: !834)
!834 = !{!105, !802}
!835 = !DISubprogram(name: "operator[]", linkageName: "_ZNK11xalanc_1_1014XalanDOMStringixEj", scope: !408, file: !409, line: 282, type: !836, scopeLine: 282, flags: DIFlagPublic | DIFlagPrototyped, spFlags: 0)
!836 = !DISubroutineType(types: !837)
!837 = !{!838, !802, !413}
!838 = !DIDerivedType(tag: DW_TAG_typedef, name: "const_reference", scope: !408, file: !409, line: 51, baseType: !839)
!839 = !DIDerivedType(tag: DW_TAG_reference_type, baseType: !748, size: 64)
!840 = !DISubprogram(name: "operator[]", linkageName: "_ZN11xalanc_1_1014XalanDOMStringixEj", scope: !408, file: !409, line: 290, type: !841, scopeLine: 290, flags: DIFlagPublic | DIFlagPrototyped, spFlags: 0)
!841 = !DISubroutineType(types: !842)
!842 = !{!843, !754, !413}
!843 = !DIDerivedType(tag: DW_TAG_typedef, name: "reference", scope: !408, file: !409, line: 50, baseType: !844)
!844 = !DIDerivedType(tag: DW_TAG_reference_type, baseType: !749, size: 64)
!845 = !DISubprogram(name: "at", linkageName: "_ZNK11xalanc_1_1014XalanDOMString2atEj", scope: !408, file: !409, line: 298, type: !836, scopeLine: 298, flags: DIFlagPublic | DIFlagPrototyped, spFlags: 0)
!846 = !DISubprogram(name: "at", linkageName: "_ZN11xalanc_1_1014XalanDOMString2atEj", scope: !408, file: !409, line: 306, type: !841, scopeLine: 306, flags: DIFlagPublic | DIFlagPrototyped, spFlags: 0)
!847 = !DISubprogram(name: "c_str", linkageName: "_ZNK11xalanc_1_1014XalanDOMString5c_strEv", scope: !408, file: !409, line: 314, type: !848, scopeLine: 314, flags: DIFlagPublic | DIFlagPrototyped, spFlags: 0)
!848 = !DISubroutineType(types: !849)
!849 = !{!770, !802}
!850 = !DISubprogram(name: "data", linkageName: "_ZNK11xalanc_1_1014XalanDOMString4dataEv", scope: !408, file: !409, line: 322, type: !848, scopeLine: 322, flags: DIFlagPublic | DIFlagPrototyped, spFlags: 0)
!851 = !DISubprogram(name: "swap", linkageName: "_ZN11xalanc_1_1014XalanDOMString4swapERS0_", scope: !408, file: !409, line: 330, type: !852, scopeLine: 330, flags: DIFlagPublic | DIFlagPrototyped, spFlags: 0)
!852 = !DISubroutineType(types: !853)
!853 = !{null, !754, !784}
!854 = !DISubprogram(name: "operator+=", linkageName: "_ZN11xalanc_1_1014XalanDOMStringpLERKS0_", scope: !408, file: !409, line: 344, type: !782, scopeLine: 344, flags: DIFlagPublic | DIFlagPrototyped, spFlags: 0)
!855 = !DISubprogram(name: "operator+=", linkageName: "_ZN11xalanc_1_1014XalanDOMStringpLEPKt", scope: !408, file: !409, line: 350, type: !786, scopeLine: 350, flags: DIFlagPublic | DIFlagPrototyped, spFlags: 0)
!856 = !DISubprogram(name: "operator+=", linkageName: "_ZN11xalanc_1_1014XalanDOMStringpLEt", scope: !408, file: !409, line: 356, type: !792, scopeLine: 356, flags: DIFlagPublic | DIFlagPrototyped, spFlags: 0)
!857 = !DISubprogram(name: "assign", linkageName: "_ZN11xalanc_1_1014XalanDOMString6assignEPKt", scope: !408, file: !409, line: 364, type: !786, scopeLine: 364, flags: DIFlagPublic | DIFlagPrototyped, spFlags: 0)
!858 = !DISubprogram(name: "assign", linkageName: "_ZN11xalanc_1_1014XalanDOMString6assignEPKtj", scope: !408, file: !409, line: 376, type: !859, scopeLine: 376, flags: DIFlagPublic | DIFlagPrototyped, spFlags: 0)
!859 = !DISubroutineType(types: !860)
!860 = !{!784, !754, !770, !413}
!861 = !DISubprogram(name: "assign", linkageName: "_ZN11xalanc_1_1014XalanDOMString6assignEPKc", scope: !408, file: !409, line: 390, type: !789, scopeLine: 390, flags: DIFlagPublic | DIFlagPrototyped, spFlags: 0)
!862 = !DISubprogram(name: "assign", linkageName: "_ZN11xalanc_1_1014XalanDOMString6assignEPKcj", scope: !408, file: !409, line: 402, type: !863, scopeLine: 402, flags: DIFlagPublic | DIFlagPrototyped, spFlags: 0)
!863 = !DISubroutineType(types: !864)
!864 = !{!784, !754, !760, !413}
!865 = !DISubprogram(name: "assign", linkageName: "_ZN11xalanc_1_1014XalanDOMString6assignERKS0_jj", scope: !408, file: !409, line: 416, type: !866, scopeLine: 416, flags: DIFlagPublic | DIFlagPrototyped, spFlags: 0)
!866 = !DISubroutineType(types: !867)
!867 = !{!784, !754, !766, !413, !413}
!868 = !DISubprogram(name: "assign", linkageName: "_ZN11xalanc_1_1014XalanDOMString6assignERKS0_", scope: !408, file: !409, line: 422, type: !782, scopeLine: 422, flags: DIFlagPublic | DIFlagPrototyped, spFlags: 0)
!869 = !DISubprogram(name: "assign", linkageName: "_ZN11xalanc_1_1014XalanDOMString6assignEjt", scope: !408, file: !409, line: 439, type: !870, scopeLine: 439, flags: DIFlagPublic | DIFlagPrototyped, spFlags: 0)
!870 = !DISubroutineType(types: !871)
!871 = !{!784, !754, !413, !749}
!872 = !DISubprogram(name: "assign", linkageName: "_ZN11xalanc_1_1014XalanDOMString6assignEPtS1_", scope: !408, file: !409, line: 453, type: !873, scopeLine: 453, flags: DIFlagPublic | DIFlagPrototyped, spFlags: 0)
!873 = !DISubroutineType(types: !874)
!874 = !{!784, !754, !797, !797}
!875 = !DISubprogram(name: "append", linkageName: "_ZN11xalanc_1_1014XalanDOMString6appendERKS0_", scope: !408, file: !409, line: 458, type: !782, scopeLine: 458, flags: DIFlagPublic | DIFlagPrototyped, spFlags: 0)
!876 = !DISubprogram(name: "append", linkageName: "_ZN11xalanc_1_1014XalanDOMString6appendERKS0_jj", scope: !408, file: !409, line: 464, type: !866, scopeLine: 464, flags: DIFlagPublic | DIFlagPrototyped, spFlags: 0)
!877 = !DISubprogram(name: "append", linkageName: "_ZN11xalanc_1_1014XalanDOMString6appendEPKtj", scope: !408, file: !409, line: 476, type: !859, scopeLine: 476, flags: DIFlagPublic | DIFlagPrototyped, spFlags: 0)
!878 = !DISubprogram(name: "append", linkageName: "_ZN11xalanc_1_1014XalanDOMString6appendEPKt", scope: !408, file: !409, line: 481, type: !786, scopeLine: 481, flags: DIFlagPublic | DIFlagPrototyped, spFlags: 0)
!879 = !DISubprogram(name: "append", linkageName: "_ZN11xalanc_1_1014XalanDOMString6appendEPKcj", scope: !408, file: !409, line: 487, type: !863, scopeLine: 487, flags: DIFlagPublic | DIFlagPrototyped, spFlags: 0)
!880 = !DISubprogram(name: "append", linkageName: "_ZN11xalanc_1_1014XalanDOMString6appendEPKc", scope: !408, file: !409, line: 492, type: !789, scopeLine: 492, flags: DIFlagPublic | DIFlagPrototyped, spFlags: 0)
!881 = !DISubprogram(name: "append", linkageName: "_ZN11xalanc_1_1014XalanDOMString6appendEjt", scope: !408, file: !409, line: 498, type: !870, scopeLine: 498, flags: DIFlagPublic | DIFlagPrototyped, spFlags: 0)
!882 = !DISubprogram(name: "push_back", linkageName: "_ZN11xalanc_1_1014XalanDOMString9push_backEt", scope: !408, file: !409, line: 503, type: !883, scopeLine: 503, flags: DIFlagPublic | DIFlagPrototyped, spFlags: 0)
!883 = !DISubroutineType(types: !884)
!884 = !{null, !754, !749}
!885 = !DISubprogram(name: "insert", linkageName: "_ZN11xalanc_1_1014XalanDOMString6insertEjRKS0_", scope: !408, file: !409, line: 513, type: !886, scopeLine: 513, flags: DIFlagPublic | DIFlagPrototyped, spFlags: 0)
!886 = !DISubroutineType(types: !887)
!887 = !{!784, !754, !413, !766}
!888 = !DISubprogram(name: "insert", linkageName: "_ZN11xalanc_1_1014XalanDOMString6insertEjRKS0_jj", scope: !408, file: !409, line: 521, type: !889, scopeLine: 521, flags: DIFlagPublic | DIFlagPrototyped, spFlags: 0)
!889 = !DISubroutineType(types: !890)
!890 = !{!784, !754, !413, !766, !413, !413}
!891 = !DISubprogram(name: "insert", linkageName: "_ZN11xalanc_1_1014XalanDOMString6insertEjPKtj", scope: !408, file: !409, line: 531, type: !892, scopeLine: 531, flags: DIFlagPublic | DIFlagPrototyped, spFlags: 0)
!892 = !DISubroutineType(types: !893)
!893 = !{!784, !754, !413, !770, !413}
!894 = !DISubprogram(name: "insert", linkageName: "_ZN11xalanc_1_1014XalanDOMString6insertEjPKt", scope: !408, file: !409, line: 537, type: !895, scopeLine: 537, flags: DIFlagPublic | DIFlagPrototyped, spFlags: 0)
!895 = !DISubroutineType(types: !896)
!896 = !{!784, !754, !413, !770}
!897 = !DISubprogram(name: "insert", linkageName: "_ZN11xalanc_1_1014XalanDOMString6insertEjjt", scope: !408, file: !409, line: 545, type: !898, scopeLine: 545, flags: DIFlagPublic | DIFlagPrototyped, spFlags: 0)
!898 = !DISubroutineType(types: !899)
!899 = !{!784, !754, !413, !413, !749}
!900 = !DISubprogram(name: "insert", linkageName: "_ZN11xalanc_1_1014XalanDOMString6insertEPtt", scope: !408, file: !409, line: 551, type: !901, scopeLine: 551, flags: DIFlagPublic | DIFlagPrototyped, spFlags: 0)
!901 = !DISubroutineType(types: !902)
!902 = !{!797, !754, !797, !749}
!903 = !DISubprogram(name: "insert", linkageName: "_ZN11xalanc_1_1014XalanDOMString6insertEPtjt", scope: !408, file: !409, line: 556, type: !904, scopeLine: 556, flags: DIFlagPublic | DIFlagPrototyped, spFlags: 0)
!904 = !DISubroutineType(types: !905)
!905 = !{null, !754, !797, !413, !749}
!906 = !DISubprogram(name: "insert", linkageName: "_ZN11xalanc_1_1014XalanDOMString6insertEPtS1_S1_", scope: !408, file: !409, line: 562, type: !907, scopeLine: 562, flags: DIFlagPublic | DIFlagPrototyped, spFlags: 0)
!907 = !DISubroutineType(types: !908)
!908 = !{null, !754, !797, !797, !797}
!909 = !DISubprogram(name: "substr", linkageName: "_ZNK11xalanc_1_1014XalanDOMString6substrERS0_jj", scope: !408, file: !409, line: 569, type: !910, scopeLine: 569, flags: DIFlagPublic | DIFlagPrototyped, spFlags: 0)
!910 = !DISubroutineType(types: !911)
!911 = !{!784, !802, !784, !413, !413}
!912 = !DISubprogram(name: "compare", linkageName: "_ZNK11xalanc_1_1014XalanDOMString7compareERKS0_", scope: !408, file: !409, line: 583, type: !913, scopeLine: 583, flags: DIFlagPublic | DIFlagPrototyped, spFlags: 0)
!913 = !DISubroutineType(types: !914)
!914 = !{!11, !802, !766}
!915 = !DISubprogram(name: "compare", linkageName: "_ZNK11xalanc_1_1014XalanDOMString7compareEjjRKS0_", scope: !408, file: !409, line: 591, type: !916, scopeLine: 591, flags: DIFlagPublic | DIFlagPrototyped, spFlags: 0)
!916 = !DISubroutineType(types: !917)
!917 = !{!11, !802, !413, !413, !766}
!918 = !DISubprogram(name: "compare", linkageName: "_ZNK11xalanc_1_1014XalanDOMString7compareEjjRKS0_jj", scope: !408, file: !409, line: 602, type: !919, scopeLine: 602, flags: DIFlagPublic | DIFlagPrototyped, spFlags: 0)
!919 = !DISubroutineType(types: !920)
!920 = !{!11, !802, !413, !413, !766, !413, !413}
!921 = !DISubprogram(name: "compare", linkageName: "_ZNK11xalanc_1_1014XalanDOMString7compareEPKt", scope: !408, file: !409, line: 615, type: !922, scopeLine: 615, flags: DIFlagPublic | DIFlagPrototyped, spFlags: 0)
!922 = !DISubroutineType(types: !923)
!923 = !{!11, !802, !770}
!924 = !DISubprogram(name: "compare", linkageName: "_ZNK11xalanc_1_1014XalanDOMString7compareEjjPKtj", scope: !408, file: !409, line: 618, type: !925, scopeLine: 618, flags: DIFlagPublic | DIFlagPrototyped, spFlags: 0)
!925 = !DISubroutineType(types: !926)
!926 = !{!11, !802, !413, !413, !770, !413}
!927 = !DISubprogram(name: "reset", linkageName: "_ZN11xalanc_1_1014XalanDOMString5resetERN11xercesc_2_713MemoryManagerEPKc", scope: !408, file: !409, line: 626, type: !928, scopeLine: 626, flags: DIFlagPublic | DIFlagPrototyped, spFlags: 0)
!928 = !DISubroutineType(types: !929)
!929 = !{null, !754, !755, !760}
!930 = !DISubprogram(name: "reset", linkageName: "_ZN11xalanc_1_1014XalanDOMString5resetERN11xercesc_2_713MemoryManagerEPKt", scope: !408, file: !409, line: 629, type: !931, scopeLine: 629, flags: DIFlagPublic | DIFlagPrototyped, spFlags: 0)
!931 = !DISubroutineType(types: !932)
!932 = !{null, !754, !755, !770}
!933 = !DISubprogram(name: "transcode", linkageName: "_ZNK11xalanc_1_1014XalanDOMString9transcodeERNS_11XalanVectorIcNS_31MemoryManagedConstructionTraitsIcEEEE", scope: !408, file: !409, line: 656, type: !934, scopeLine: 656, flags: DIFlagPublic | DIFlagPrototyped, spFlags: 0)
!934 = !DISubroutineType(types: !935)
!935 = !{null, !802, !936}
!936 = !DIDerivedType(tag: DW_TAG_reference_type, baseType: !937, size: 64)
!937 = !DIDerivedType(tag: DW_TAG_typedef, name: "CharVectorType", scope: !408, file: !409, line: 46, baseType: !938)
!938 = distinct !DICompositeType(tag: DW_TAG_class_type, name: "XalanVector<char, xalanc_1_10::MemoryManagedConstructionTraits<char> >", scope: !6, file: !15, line: 61, size: 256, flags: DIFlagTypePassByReference | DIFlagNonTrivial, elements: !939, templateParams: !1114, identifier: "_ZTSN11xalanc_1_1011XalanVectorIcNS_31MemoryManagedConstructionTraitsIcEEEE")
!939 = !{!940, !941, !942, !943, !946, !950, !954, !960, !966, !969, !973, !976, !979, !980, !984, !987, !990, !993, !996, !999, !1002, !1005, !1010, !1011, !1014, !1015, !1016, !1019, !1020, !1025, !1029, !1030, !1031, !1034, !1037, !1038, !1039, !1045, !1051, !1052, !1053, !1056, !1059, !1060, !1061, !1062, !1066, !1069, !1072, !1075, !1079, !1082, !1086, !1089, !1092, !1095, !1098, !1099, !1102, !1103, !1104, !1108, !1109, !1110, !1111}
!940 = !DIDerivedType(tag: DW_TAG_member, name: "m_memoryManager", scope: !938, file: !15, line: 1087, baseType: !18, size: 64)
!941 = !DIDerivedType(tag: DW_TAG_member, name: "m_size", scope: !938, file: !15, line: 1089, baseType: !23, size: 64, offset: 64)
!942 = !DIDerivedType(tag: DW_TAG_member, name: "m_allocation", scope: !938, file: !15, line: 1091, baseType: !23, size: 64, offset: 128)
!943 = !DIDerivedType(tag: DW_TAG_member, name: "m_data", scope: !938, file: !15, line: 1093, baseType: !944, size: 64, offset: 192)
!944 = !DIDerivedType(tag: DW_TAG_pointer_type, baseType: !945, size: 64)
!945 = !DIDerivedType(tag: DW_TAG_typedef, name: "value_type", scope: !938, file: !15, line: 66, baseType: !762)
!946 = !DISubprogram(name: "XalanVector", scope: !938, file: !15, line: 120, type: !947, scopeLine: 120, flags: DIFlagPublic | DIFlagPrototyped, spFlags: 0)
!947 = !DISubroutineType(types: !948)
!948 = !{null, !949, !35, !23}
!949 = !DIDerivedType(tag: DW_TAG_pointer_type, baseType: !938, size: 64, flags: DIFlagArtificial | DIFlagObjectPointer)
!950 = !DISubprogram(name: "create", linkageName: "_ZN11xalanc_1_1011XalanVectorIcNS_31MemoryManagedConstructionTraitsIcEEE6createERN11xercesc_2_713MemoryManagerEm", scope: !938, file: !15, line: 132, type: !951, scopeLine: 132, flags: DIFlagPublic | DIFlagPrototyped | DIFlagStaticMember, spFlags: 0)
!951 = !DISubroutineType(types: !952)
!952 = !{!953, !35, !23}
!953 = !DIDerivedType(tag: DW_TAG_pointer_type, baseType: !938, size: 64)
!954 = !DISubprogram(name: "XalanVector", scope: !938, file: !15, line: 149, type: !955, scopeLine: 149, flags: DIFlagPublic | DIFlagPrototyped, spFlags: 0)
!955 = !DISubroutineType(types: !956)
!956 = !{null, !949, !957, !35, !23}
!957 = !DIDerivedType(tag: DW_TAG_reference_type, baseType: !958, size: 64)
!958 = !DIDerivedType(tag: DW_TAG_const_type, baseType: !959)
!959 = !DIDerivedType(tag: DW_TAG_typedef, name: "ThisType", scope: !938, file: !15, line: 115, baseType: !938)
!960 = !DISubprogram(name: "XalanVector", scope: !938, file: !15, line: 177, type: !961, scopeLine: 177, flags: DIFlagPublic | DIFlagPrototyped, spFlags: 0)
!961 = !DISubroutineType(types: !962)
!962 = !{null, !949, !963, !963, !35}
!963 = !DIDerivedType(tag: DW_TAG_typedef, name: "const_iterator", scope: !938, file: !15, line: 92, baseType: !964)
!964 = !DIDerivedType(tag: DW_TAG_pointer_type, baseType: !965, size: 64)
!965 = !DIDerivedType(tag: DW_TAG_const_type, baseType: !945)
!966 = !DISubprogram(name: "create", linkageName: "_ZN11xalanc_1_1011XalanVectorIcNS_31MemoryManagedConstructionTraitsIcEEE6createEPKcS5_RN11xercesc_2_713MemoryManagerE", scope: !938, file: !15, line: 197, type: !967, scopeLine: 197, flags: DIFlagPublic | DIFlagPrototyped | DIFlagStaticMember, spFlags: 0)
!967 = !DISubroutineType(types: !968)
!968 = !{!953, !963, !963, !35}
!969 = !DISubprogram(name: "XalanVector", scope: !938, file: !15, line: 215, type: !970, scopeLine: 215, flags: DIFlagPublic | DIFlagPrototyped, spFlags: 0)
!970 = !DISubroutineType(types: !971)
!971 = !{null, !949, !23, !972, !35}
!972 = !DIDerivedType(tag: DW_TAG_reference_type, baseType: !965, size: 64)
!973 = !DISubprogram(name: "~XalanVector", scope: !938, file: !15, line: 233, type: !974, scopeLine: 233, flags: DIFlagPublic | DIFlagPrototyped, spFlags: 0)
!974 = !DISubroutineType(types: !975)
!975 = !{null, !949}
!976 = !DISubprogram(name: "push_back", linkageName: "_ZN11xalanc_1_1011XalanVectorIcNS_31MemoryManagedConstructionTraitsIcEEE9push_backERKc", scope: !938, file: !15, line: 246, type: !977, scopeLine: 246, flags: DIFlagPublic | DIFlagPrototyped, spFlags: 0)
!977 = !DISubroutineType(types: !978)
!978 = !{null, !949, !972}
!979 = !DISubprogram(name: "pop_back", linkageName: "_ZN11xalanc_1_1011XalanVectorIcNS_31MemoryManagedConstructionTraitsIcEEE8pop_backEv", scope: !938, file: !15, line: 256, type: !974, scopeLine: 256, flags: DIFlagPublic | DIFlagPrototyped, spFlags: 0)
!980 = !DISubprogram(name: "erase", linkageName: "_ZN11xalanc_1_1011XalanVectorIcNS_31MemoryManagedConstructionTraitsIcEEE5eraseEPcS4_", scope: !938, file: !15, line: 268, type: !981, scopeLine: 268, flags: DIFlagPublic | DIFlagPrototyped, spFlags: 0)
!981 = !DISubroutineType(types: !982)
!982 = !{!983, !949, !983, !983}
!983 = !DIDerivedType(tag: DW_TAG_typedef, name: "iterator", scope: !938, file: !15, line: 91, baseType: !944)
!984 = !DISubprogram(name: "erase", linkageName: "_ZN11xalanc_1_1011XalanVectorIcNS_31MemoryManagedConstructionTraitsIcEEE5eraseEPc", scope: !938, file: !15, line: 290, type: !985, scopeLine: 290, flags: DIFlagPublic | DIFlagPrototyped, spFlags: 0)
!985 = !DISubroutineType(types: !986)
!986 = !{!983, !949, !983}
!987 = !DISubprogram(name: "insert", linkageName: "_ZN11xalanc_1_1011XalanVectorIcNS_31MemoryManagedConstructionTraitsIcEEE6insertEPcPKcS6_", scope: !938, file: !15, line: 296, type: !988, scopeLine: 296, flags: DIFlagPublic | DIFlagPrototyped, spFlags: 0)
!988 = !DISubroutineType(types: !989)
!989 = !{null, !949, !983, !963, !963}
!990 = !DISubprogram(name: "insert", linkageName: "_ZN11xalanc_1_1011XalanVectorIcNS_31MemoryManagedConstructionTraitsIcEEE6insertEPcmRKc", scope: !938, file: !15, line: 415, type: !991, scopeLine: 415, flags: DIFlagPublic | DIFlagPrototyped, spFlags: 0)
!991 = !DISubroutineType(types: !992)
!992 = !{null, !949, !983, !23, !972}
!993 = !DISubprogram(name: "insert", linkageName: "_ZN11xalanc_1_1011XalanVectorIcNS_31MemoryManagedConstructionTraitsIcEEE6insertEPcRKc", scope: !938, file: !15, line: 516, type: !994, scopeLine: 516, flags: DIFlagPublic | DIFlagPrototyped, spFlags: 0)
!994 = !DISubroutineType(types: !995)
!995 = !{!983, !949, !983, !972}
!996 = !DISubprogram(name: "assign", linkageName: "_ZN11xalanc_1_1011XalanVectorIcNS_31MemoryManagedConstructionTraitsIcEEE6assignEPKcS5_", scope: !938, file: !15, line: 538, type: !997, scopeLine: 538, flags: DIFlagPublic | DIFlagPrototyped, spFlags: 0)
!997 = !DISubroutineType(types: !998)
!998 = !{null, !949, !963, !963}
!999 = !DISubprogram(name: "assign", linkageName: "_ZN11xalanc_1_1011XalanVectorIcNS_31MemoryManagedConstructionTraitsIcEEE6assignEPcS4_", scope: !938, file: !15, line: 551, type: !1000, scopeLine: 551, flags: DIFlagPublic | DIFlagPrototyped, spFlags: 0)
!1000 = !DISubroutineType(types: !1001)
!1001 = !{null, !949, !983, !983}
!1002 = !DISubprogram(name: "assign", linkageName: "_ZN11xalanc_1_1011XalanVectorIcNS_31MemoryManagedConstructionTraitsIcEEE6assignEmRKc", scope: !938, file: !15, line: 561, type: !1003, scopeLine: 561, flags: DIFlagPublic | DIFlagPrototyped, spFlags: 0)
!1003 = !DISubroutineType(types: !1004)
!1004 = !{null, !949, !23, !972}
!1005 = !DISubprogram(name: "size", linkageName: "_ZNK11xalanc_1_1011XalanVectorIcNS_31MemoryManagedConstructionTraitsIcEEE4sizeEv", scope: !938, file: !15, line: 571, type: !1006, scopeLine: 571, flags: DIFlagPublic | DIFlagPrototyped, spFlags: 0)
!1006 = !DISubroutineType(types: !1007)
!1007 = !{!23, !1008}
!1008 = !DIDerivedType(tag: DW_TAG_pointer_type, baseType: !1009, size: 64, flags: DIFlagArtificial | DIFlagObjectPointer)
!1009 = !DIDerivedType(tag: DW_TAG_const_type, baseType: !938)
!1010 = !DISubprogram(name: "max_size", linkageName: "_ZNK11xalanc_1_1011XalanVectorIcNS_31MemoryManagedConstructionTraitsIcEEE8max_sizeEv", scope: !938, file: !15, line: 579, type: !1006, scopeLine: 579, flags: DIFlagPublic | DIFlagPrototyped, spFlags: 0)
!1011 = !DISubprogram(name: "resize", linkageName: "_ZN11xalanc_1_1011XalanVectorIcNS_31MemoryManagedConstructionTraitsIcEEE6resizeEm", scope: !938, file: !15, line: 587, type: !1012, scopeLine: 587, flags: DIFlagPublic | DIFlagPrototyped, spFlags: 0)
!1012 = !DISubroutineType(types: !1013)
!1013 = !{null, !949, !23}
!1014 = !DISubprogram(name: "resize", linkageName: "_ZN11xalanc_1_1011XalanVectorIcNS_31MemoryManagedConstructionTraitsIcEEE6resizeEmRKc", scope: !938, file: !15, line: 595, type: !1003, scopeLine: 595, flags: DIFlagPublic | DIFlagPrototyped, spFlags: 0)
!1015 = !DISubprogram(name: "capacity", linkageName: "_ZNK11xalanc_1_1011XalanVectorIcNS_31MemoryManagedConstructionTraitsIcEEE8capacityEv", scope: !938, file: !15, line: 628, type: !1006, scopeLine: 628, flags: DIFlagPublic | DIFlagPrototyped, spFlags: 0)
!1016 = !DISubprogram(name: "empty", linkageName: "_ZNK11xalanc_1_1011XalanVectorIcNS_31MemoryManagedConstructionTraitsIcEEE5emptyEv", scope: !938, file: !15, line: 636, type: !1017, scopeLine: 636, flags: DIFlagPublic | DIFlagPrototyped, spFlags: 0)
!1017 = !DISubroutineType(types: !1018)
!1018 = !{!105, !1008}
!1019 = !DISubprogram(name: "reserve", linkageName: "_ZN11xalanc_1_1011XalanVectorIcNS_31MemoryManagedConstructionTraitsIcEEE7reserveEm", scope: !938, file: !15, line: 644, type: !1012, scopeLine: 644, flags: DIFlagPublic | DIFlagPrototyped, spFlags: 0)
!1020 = !DISubprogram(name: "front", linkageName: "_ZN11xalanc_1_1011XalanVectorIcNS_31MemoryManagedConstructionTraitsIcEEE5frontEv", scope: !938, file: !15, line: 657, type: !1021, scopeLine: 657, flags: DIFlagPublic | DIFlagPrototyped, spFlags: 0)
!1021 = !DISubroutineType(types: !1022)
!1022 = !{!1023, !949}
!1023 = !DIDerivedType(tag: DW_TAG_typedef, name: "reference", scope: !938, file: !15, line: 69, baseType: !1024)
!1024 = !DIDerivedType(tag: DW_TAG_reference_type, baseType: !945, size: 64)
!1025 = !DISubprogram(name: "front", linkageName: "_ZNK11xalanc_1_1011XalanVectorIcNS_31MemoryManagedConstructionTraitsIcEEE5frontEv", scope: !938, file: !15, line: 665, type: !1026, scopeLine: 665, flags: DIFlagPublic | DIFlagPrototyped, spFlags: 0)
!1026 = !DISubroutineType(types: !1027)
!1027 = !{!1028, !1008}
!1028 = !DIDerivedType(tag: DW_TAG_typedef, name: "const_reference", scope: !938, file: !15, line: 70, baseType: !972)
!1029 = !DISubprogram(name: "back", linkageName: "_ZN11xalanc_1_1011XalanVectorIcNS_31MemoryManagedConstructionTraitsIcEEE4backEv", scope: !938, file: !15, line: 673, type: !1021, scopeLine: 673, flags: DIFlagPublic | DIFlagPrototyped, spFlags: 0)
!1030 = !DISubprogram(name: "back", linkageName: "_ZNK11xalanc_1_1011XalanVectorIcNS_31MemoryManagedConstructionTraitsIcEEE4backEv", scope: !938, file: !15, line: 679, type: !1026, scopeLine: 679, flags: DIFlagPublic | DIFlagPrototyped, spFlags: 0)
!1031 = !DISubprogram(name: "begin", linkageName: "_ZN11xalanc_1_1011XalanVectorIcNS_31MemoryManagedConstructionTraitsIcEEE5beginEv", scope: !938, file: !15, line: 685, type: !1032, scopeLine: 685, flags: DIFlagPublic | DIFlagPrototyped, spFlags: 0)
!1032 = !DISubroutineType(types: !1033)
!1033 = !{!983, !949}
!1034 = !DISubprogram(name: "begin", linkageName: "_ZNK11xalanc_1_1011XalanVectorIcNS_31MemoryManagedConstructionTraitsIcEEE5beginEv", scope: !938, file: !15, line: 693, type: !1035, scopeLine: 693, flags: DIFlagPublic | DIFlagPrototyped, spFlags: 0)
!1035 = !DISubroutineType(types: !1036)
!1036 = !{!963, !1008}
!1037 = !DISubprogram(name: "end", linkageName: "_ZN11xalanc_1_1011XalanVectorIcNS_31MemoryManagedConstructionTraitsIcEEE3endEv", scope: !938, file: !15, line: 701, type: !1032, scopeLine: 701, flags: DIFlagPublic | DIFlagPrototyped, spFlags: 0)
!1038 = !DISubprogram(name: "end", linkageName: "_ZNK11xalanc_1_1011XalanVectorIcNS_31MemoryManagedConstructionTraitsIcEEE3endEv", scope: !938, file: !15, line: 709, type: !1035, scopeLine: 709, flags: DIFlagPublic | DIFlagPrototyped, spFlags: 0)
!1039 = !DISubprogram(name: "rbegin", linkageName: "_ZN11xalanc_1_1011XalanVectorIcNS_31MemoryManagedConstructionTraitsIcEEE6rbeginEv", scope: !938, file: !15, line: 717, type: !1040, scopeLine: 717, flags: DIFlagPublic | DIFlagPrototyped, spFlags: 0)
!1040 = !DISubroutineType(types: !1041)
!1041 = !{!1042, !949}
!1042 = !DIDerivedType(tag: DW_TAG_typedef, name: "reverse_iterator", scope: !938, file: !15, line: 112, baseType: !1043)
!1043 = !DIDerivedType(tag: DW_TAG_typedef, name: "reverse_iterator_", scope: !938, file: !15, line: 96, baseType: !1044)
!1044 = !DICompositeType(tag: DW_TAG_class_type, name: "reverse_iterator<char *>", scope: !133, file: !132, line: 125, flags: DIFlagFwdDecl, identifier: "_ZTSSt16reverse_iteratorIPcE")
!1045 = !DISubprogram(name: "rbegin", linkageName: "_ZNK11xalanc_1_1011XalanVectorIcNS_31MemoryManagedConstructionTraitsIcEEE6rbeginEv", scope: !938, file: !15, line: 725, type: !1046, scopeLine: 725, flags: DIFlagPublic | DIFlagPrototyped, spFlags: 0)
!1046 = !DISubroutineType(types: !1047)
!1047 = !{!1048, !1008}
!1048 = !DIDerivedType(tag: DW_TAG_typedef, name: "const_reverse_iterator", scope: !938, file: !15, line: 113, baseType: !1049)
!1049 = !DIDerivedType(tag: DW_TAG_typedef, name: "const_reverse_iterator_", scope: !938, file: !15, line: 97, baseType: !1050)
!1050 = !DICompositeType(tag: DW_TAG_class_type, name: "reverse_iterator<const char *>", scope: !133, file: !132, line: 125, flags: DIFlagFwdDecl, identifier: "_ZTSSt16reverse_iteratorIPKcE")
!1051 = !DISubprogram(name: "rend", linkageName: "_ZN11xalanc_1_1011XalanVectorIcNS_31MemoryManagedConstructionTraitsIcEEE4rendEv", scope: !938, file: !15, line: 733, type: !1040, scopeLine: 733, flags: DIFlagPublic | DIFlagPrototyped, spFlags: 0)
!1052 = !DISubprogram(name: "rend", linkageName: "_ZNK11xalanc_1_1011XalanVectorIcNS_31MemoryManagedConstructionTraitsIcEEE4rendEv", scope: !938, file: !15, line: 741, type: !1046, scopeLine: 741, flags: DIFlagPublic | DIFlagPrototyped, spFlags: 0)
!1053 = !DISubprogram(name: "at", linkageName: "_ZN11xalanc_1_1011XalanVectorIcNS_31MemoryManagedConstructionTraitsIcEEE2atEm", scope: !938, file: !15, line: 750, type: !1054, scopeLine: 750, flags: DIFlagPublic | DIFlagPrototyped, spFlags: 0)
!1054 = !DISubroutineType(types: !1055)
!1055 = !{!1023, !949, !23}
!1056 = !DISubprogram(name: "at", linkageName: "_ZNK11xalanc_1_1011XalanVectorIcNS_31MemoryManagedConstructionTraitsIcEEE2atEm", scope: !938, file: !15, line: 761, type: !1057, scopeLine: 761, flags: DIFlagPublic | DIFlagPrototyped, spFlags: 0)
!1057 = !DISubroutineType(types: !1058)
!1058 = !{!1028, !1008, !23}
!1059 = !DISubprogram(name: "operator[]", linkageName: "_ZN11xalanc_1_1011XalanVectorIcNS_31MemoryManagedConstructionTraitsIcEEEixEm", scope: !938, file: !15, line: 772, type: !1054, scopeLine: 772, flags: DIFlagPublic | DIFlagPrototyped, spFlags: 0)
!1060 = !DISubprogram(name: "operator[]", linkageName: "_ZNK11xalanc_1_1011XalanVectorIcNS_31MemoryManagedConstructionTraitsIcEEEixEm", scope: !938, file: !15, line: 780, type: !1057, scopeLine: 780, flags: DIFlagPublic | DIFlagPrototyped, spFlags: 0)
!1061 = !DISubprogram(name: "clear", linkageName: "_ZN11xalanc_1_1011XalanVectorIcNS_31MemoryManagedConstructionTraitsIcEEE5clearEv", scope: !938, file: !15, line: 788, type: !974, scopeLine: 788, flags: DIFlagPublic | DIFlagPrototyped, spFlags: 0)
!1062 = !DISubprogram(name: "operator=", linkageName: "_ZN11xalanc_1_1011XalanVectorIcNS_31MemoryManagedConstructionTraitsIcEEEaSERKS3_", scope: !938, file: !15, line: 802, type: !1063, scopeLine: 802, flags: DIFlagPublic | DIFlagPrototyped, spFlags: 0)
!1063 = !DISubroutineType(types: !1064)
!1064 = !{!1065, !949, !957}
!1065 = !DIDerivedType(tag: DW_TAG_reference_type, baseType: !959, size: 64)
!1066 = !DISubprogram(name: "swap", linkageName: "_ZN11xalanc_1_1011XalanVectorIcNS_31MemoryManagedConstructionTraitsIcEEE4swapERS3_", scope: !938, file: !15, line: 848, type: !1067, scopeLine: 848, flags: DIFlagPublic | DIFlagPrototyped, spFlags: 0)
!1067 = !DISubroutineType(types: !1068)
!1068 = !{null, !949, !1065}
!1069 = !DISubprogram(name: "getMemoryManager", linkageName: "_ZNK11xalanc_1_1011XalanVectorIcNS_31MemoryManagedConstructionTraitsIcEEE16getMemoryManagerEv", scope: !938, file: !15, line: 871, type: !1070, scopeLine: 871, flags: DIFlagPublic | DIFlagPrototyped, spFlags: 0)
!1070 = !DISubroutineType(types: !1071)
!1071 = !{!161, !1008}
!1072 = !DISubprogram(name: "getMemoryManager", linkageName: "_ZN11xalanc_1_1011XalanVectorIcNS_31MemoryManagedConstructionTraitsIcEEE16getMemoryManagerEv", scope: !938, file: !15, line: 877, type: !1073, scopeLine: 877, flags: DIFlagPublic | DIFlagPrototyped, spFlags: 0)
!1073 = !DISubroutineType(types: !1074)
!1074 = !{!35, !949}
!1075 = !DISubprogram(name: "detach", linkageName: "_ZN11xalanc_1_1011XalanVectorIcNS_31MemoryManagedConstructionTraitsIcEEE6detachEv", scope: !938, file: !15, line: 889, type: !1076, scopeLine: 889, flags: DIFlagPublic | DIFlagPrototyped, spFlags: 0)
!1076 = !DISubroutineType(types: !1077)
!1077 = !{!1078, !949}
!1078 = !DIDerivedType(tag: DW_TAG_typedef, name: "pointer", scope: !938, file: !15, line: 67, baseType: !944)
!1079 = !DISubprogram(name: "invariants", linkageName: "_ZNK11xalanc_1_1011XalanVectorIcNS_31MemoryManagedConstructionTraitsIcEEE10invariantsEv", scope: !938, file: !15, line: 905, type: !1080, scopeLine: 905, flags: DIFlagPrototyped, spFlags: 0)
!1080 = !DISubroutineType(types: !1081)
!1081 = !{null, !1008}
!1082 = !DISubprogram(name: "local_distance", linkageName: "_ZN11xalanc_1_1011XalanVectorIcNS_31MemoryManagedConstructionTraitsIcEEE14local_distanceEPKcS5_", scope: !938, file: !15, line: 918, type: !1083, scopeLine: 918, flags: DIFlagPrototyped, spFlags: 0)
!1083 = !DISubroutineType(types: !1084)
!1084 = !{!1085, !949, !963, !963}
!1085 = !DIDerivedType(tag: DW_TAG_typedef, name: "size_type", scope: !938, file: !15, line: 71, baseType: !24)
!1086 = !DISubprogram(name: "allocate", linkageName: "_ZN11xalanc_1_1011XalanVectorIcNS_31MemoryManagedConstructionTraitsIcEEE8allocateEm", scope: !938, file: !15, line: 938, type: !1087, scopeLine: 938, flags: DIFlagPrototyped, spFlags: 0)
!1087 = !DISubroutineType(types: !1088)
!1088 = !{!944, !949, !23}
!1089 = !DISubprogram(name: "deallocate", linkageName: "_ZN11xalanc_1_1011XalanVectorIcNS_31MemoryManagedConstructionTraitsIcEEE10deallocateEPc", scope: !938, file: !15, line: 952, type: !1090, scopeLine: 952, flags: DIFlagPrototyped, spFlags: 0)
!1090 = !DISubroutineType(types: !1091)
!1091 = !{null, !949, !944}
!1092 = !DISubprogram(name: "destroy", linkageName: "_ZN11xalanc_1_1011XalanVectorIcNS_31MemoryManagedConstructionTraitsIcEEE7destroyERc", scope: !938, file: !15, line: 961, type: !1093, scopeLine: 961, flags: DIFlagPrototyped | DIFlagStaticMember, spFlags: 0)
!1093 = !DISubroutineType(types: !1094)
!1094 = !{null, !1024}
!1095 = !DISubprogram(name: "destroy", linkageName: "_ZN11xalanc_1_1011XalanVectorIcNS_31MemoryManagedConstructionTraitsIcEEE7destroyEPcS4_", scope: !938, file: !15, line: 967, type: !1096, scopeLine: 967, flags: DIFlagPrototyped | DIFlagStaticMember, spFlags: 0)
!1096 = !DISubroutineType(types: !1097)
!1097 = !{null, !983, !983}
!1098 = !DISubprogram(name: "doPushBack", linkageName: "_ZN11xalanc_1_1011XalanVectorIcNS_31MemoryManagedConstructionTraitsIcEEE10doPushBackERKc", scope: !938, file: !15, line: 978, type: !977, scopeLine: 978, flags: DIFlagPrototyped, spFlags: 0)
!1099 = !DISubprogram(name: "ensureCapacity", linkageName: "_ZN11xalanc_1_1011XalanVectorIcNS_31MemoryManagedConstructionTraitsIcEEE14ensureCapacityEm", scope: !938, file: !15, line: 1006, type: !1100, scopeLine: 1006, flags: DIFlagPrototyped, spFlags: 0)
!1100 = !DISubroutineType(types: !1101)
!1101 = !{!1078, !949, !23}
!1102 = !DISubprogram(name: "doReserve", linkageName: "_ZN11xalanc_1_1011XalanVectorIcNS_31MemoryManagedConstructionTraitsIcEEE9doReserveEm", scope: !938, file: !15, line: 1017, type: !1012, scopeLine: 1017, flags: DIFlagPrototyped, spFlags: 0)
!1103 = !DISubprogram(name: "endPointer", linkageName: "_ZN11xalanc_1_1011XalanVectorIcNS_31MemoryManagedConstructionTraitsIcEEE10endPointerEv", scope: !938, file: !15, line: 1031, type: !1076, scopeLine: 1031, flags: DIFlagPrototyped, spFlags: 0)
!1104 = !DISubprogram(name: "endPointer", linkageName: "_ZNK11xalanc_1_1011XalanVectorIcNS_31MemoryManagedConstructionTraitsIcEEE10endPointerEv", scope: !938, file: !15, line: 1037, type: !1105, scopeLine: 1037, flags: DIFlagPrototyped, spFlags: 0)
!1105 = !DISubroutineType(types: !1106)
!1106 = !{!1107, !1008}
!1107 = !DIDerivedType(tag: DW_TAG_typedef, name: "const_pointer", scope: !938, file: !15, line: 68, baseType: !964)
!1108 = !DISubprogram(name: "outOfRange", linkageName: "_ZN11xalanc_1_1011XalanVectorIcNS_31MemoryManagedConstructionTraitsIcEEE10outOfRangeEv", scope: !938, file: !15, line: 1043, type: !200, scopeLine: 1043, flags: DIFlagPrototyped | DIFlagStaticMember, spFlags: 0)
!1109 = !DISubprogram(name: "shrinkToSize", linkageName: "_ZN11xalanc_1_1011XalanVectorIcNS_31MemoryManagedConstructionTraitsIcEEE12shrinkToSizeEm", scope: !938, file: !15, line: 1049, type: !1012, scopeLine: 1049, flags: DIFlagPrototyped, spFlags: 0)
!1110 = !DISubprogram(name: "shrinkCount", linkageName: "_ZN11xalanc_1_1011XalanVectorIcNS_31MemoryManagedConstructionTraitsIcEEE11shrinkCountEm", scope: !938, file: !15, line: 1060, type: !1012, scopeLine: 1060, flags: DIFlagPrototyped, spFlags: 0)
!1111 = !DISubprogram(name: "local_max", linkageName: "_ZN11xalanc_1_1011XalanVectorIcNS_31MemoryManagedConstructionTraitsIcEEE9local_maxEmm", scope: !938, file: !15, line: 1073, type: !1112, scopeLine: 1073, flags: DIFlagPrototyped, spFlags: 0)
!1112 = !DISubroutineType(types: !1113)
!1113 = !{!1085, !949, !23, !23}
!1114 = !{!1115, !1116}
!1115 = !DITemplateTypeParameter(name: "Type", type: !762)
!1116 = !DITemplateTypeParameter(name: "ConstructionTraits", type: !1117)
!1117 = distinct !DICompositeType(tag: DW_TAG_structure_type, name: "MemoryManagedConstructionTraits<char>", scope: !6, file: !211, line: 462, size: 8, flags: DIFlagTypePassByValue, elements: !212, templateParams: !1118, identifier: "_ZTSN11xalanc_1_1031MemoryManagedConstructionTraitsIcEE")
!1118 = !{!1119}
!1119 = !DITemplateTypeParameter(name: "C", type: !762)
!1120 = !DISubprogram(name: "getMemoryManager", linkageName: "_ZN11xalanc_1_1014XalanDOMString16getMemoryManagerEv", scope: !408, file: !409, line: 659, type: !1121, scopeLine: 659, flags: DIFlagPublic | DIFlagPrototyped, spFlags: 0)
!1121 = !DISubroutineType(types: !1122)
!1122 = !{!755, !754}
!1123 = !DISubprogram(name: "hash", linkageName: "_ZNK11xalanc_1_1014XalanDOMString4hashEv", scope: !408, file: !409, line: 665, type: !816, scopeLine: 665, flags: DIFlagPublic | DIFlagPrototyped, spFlags: 0)
!1124 = !DISubprogram(name: "equals", linkageName: "_ZN11xalanc_1_1014XalanDOMString6equalsEPKtjS2_j", scope: !408, file: !409, line: 671, type: !1125, scopeLine: 671, flags: DIFlagPublic | DIFlagPrototyped | DIFlagStaticMember, spFlags: 0)
!1125 = !DISubroutineType(types: !1126)
!1126 = !{!105, !770, !413, !770, !413}
!1127 = !DISubprogram(name: "equals", linkageName: "_ZN11xalanc_1_1014XalanDOMString6equalsEPKtS2_", scope: !408, file: !409, line: 678, type: !1128, scopeLine: 678, flags: DIFlagPublic | DIFlagPrototyped | DIFlagStaticMember, spFlags: 0)
!1128 = !DISubroutineType(types: !1129)
!1129 = !{!105, !770, !770}
!1130 = !DISubprogram(name: "equals", linkageName: "_ZN11xalanc_1_1014XalanDOMString6equalsERKS0_S2_", scope: !408, file: !409, line: 686, type: !1131, scopeLine: 686, flags: DIFlagPublic | DIFlagPrototyped | DIFlagStaticMember, spFlags: 0)
!1131 = !DISubroutineType(types: !1132)
!1132 = !{!105, !766, !766}
!1133 = !DISubprogram(name: "equals", linkageName: "_ZN11xalanc_1_1014XalanDOMString6equalsERKS0_PKt", scope: !408, file: !409, line: 691, type: !1134, scopeLine: 691, flags: DIFlagPublic | DIFlagPrototyped | DIFlagStaticMember, spFlags: 0)
!1134 = !DISubroutineType(types: !1135)
!1135 = !{!105, !766, !770}
!1136 = !DISubprogram(name: "equals", linkageName: "_ZN11xalanc_1_1014XalanDOMString6equalsEPKtRKS0_", scope: !408, file: !409, line: 699, type: !1137, scopeLine: 699, flags: DIFlagPublic | DIFlagPrototyped | DIFlagStaticMember, spFlags: 0)
!1137 = !DISubroutineType(types: !1138)
!1138 = !{!105, !770, !766}
!1139 = !DISubprogram(name: "length", linkageName: "_ZN11xalanc_1_1014XalanDOMString6lengthEPKt", scope: !408, file: !409, line: 714, type: !1140, scopeLine: 714, flags: DIFlagPublic | DIFlagPrototyped | DIFlagStaticMember, spFlags: 0)
!1140 = !DISubroutineType(types: !1141)
!1141 = !{!413, !770}
!1142 = !DISubprogram(name: "length", linkageName: "_ZN11xalanc_1_1014XalanDOMString6lengthEPKc", scope: !408, file: !409, line: 724, type: !1143, scopeLine: 724, flags: DIFlagPublic | DIFlagPrototyped | DIFlagStaticMember, spFlags: 0)
!1143 = !DISubroutineType(types: !1144)
!1144 = !{!413, !760}
!1145 = !DISubprogram(name: "hash", linkageName: "_ZN11xalanc_1_1014XalanDOMString4hashEPKtj", scope: !408, file: !409, line: 727, type: !1146, scopeLine: 727, flags: DIFlagPublic | DIFlagPrototyped | DIFlagStaticMember, spFlags: 0)
!1146 = !DISubroutineType(types: !1147)
!1147 = !{!413, !770, !413}
!1148 = !DISubprogram(name: "invariants", linkageName: "_ZNK11xalanc_1_1014XalanDOMString10invariantsEv", scope: !408, file: !409, line: 739, type: !1149, scopeLine: 739, flags: DIFlagProtected | DIFlagPrototyped, spFlags: 0)
!1149 = !DISubroutineType(types: !1150)
!1150 = !{null, !802}
!1151 = !DISubprogram(name: "getBackInsertIterator", linkageName: "_ZN11xalanc_1_1014XalanDOMString21getBackInsertIteratorEv", scope: !408, file: !409, line: 753, type: !795, scopeLine: 753, flags: DIFlagProtected | DIFlagPrototyped, spFlags: 0)
!1152 = !DISubprogram(name: "getBackInsertIterator", linkageName: "_ZNK11xalanc_1_1014XalanDOMString21getBackInsertIteratorEv", scope: !408, file: !409, line: 761, type: !799, scopeLine: 761, flags: DIFlagProtected | DIFlagPrototyped, spFlags: 0)
!1153 = !DISubprogram(name: "getIteratorForPosition", linkageName: "_ZN11xalanc_1_1014XalanDOMString22getIteratorForPositionEj", scope: !408, file: !409, line: 769, type: !1154, scopeLine: 769, flags: DIFlagProtected | DIFlagPrototyped, spFlags: 0)
!1154 = !DISubroutineType(types: !1155)
!1155 = !{!797, !754, !413}
!1156 = !DISubprogram(name: "getIteratorForPosition", linkageName: "_ZNK11xalanc_1_1014XalanDOMString22getIteratorForPositionEj", scope: !408, file: !409, line: 777, type: !1157, scopeLine: 777, flags: DIFlagProtected | DIFlagPrototyped, spFlags: 0)
!1157 = !DISubroutineType(types: !1158)
!1158 = !{!801, !802, !413}
!1159 = !DIDerivedType(tag: DW_TAG_member, name: "m_numberLiteralValues", scope: !5, file: !4, line: 1499, baseType: !1160, size: 256, offset: 704)
!1160 = !DIDerivedType(tag: DW_TAG_typedef, name: "NumberLiteralValueVectorType", scope: !5, file: !4, line: 74, baseType: !1161)
!1161 = distinct !DICompositeType(tag: DW_TAG_class_type, name: "XalanVector<double, xalanc_1_10::MemoryManagedConstructionTraits<double> >", scope: !6, file: !15, line: 61, size: 256, flags: DIFlagTypePassByReference | DIFlagNonTrivial, elements: !1162, templateParams: !1338, identifier: "_ZTSN11xalanc_1_1011XalanVectorIdNS_31MemoryManagedConstructionTraitsIdEEEE")
!1162 = !{!1163, !1164, !1165, !1166, !1170, !1174, !1178, !1184, !1190, !1193, !1197, !1200, !1203, !1204, !1208, !1211, !1214, !1217, !1220, !1223, !1226, !1229, !1234, !1235, !1238, !1239, !1240, !1243, !1244, !1249, !1253, !1254, !1255, !1258, !1261, !1262, !1263, !1269, !1275, !1276, !1277, !1280, !1283, !1284, !1285, !1286, !1290, !1293, !1296, !1299, !1303, !1306, !1310, !1313, !1316, !1319, !1322, !1323, !1326, !1327, !1328, !1332, !1333, !1334, !1335}
!1163 = !DIDerivedType(tag: DW_TAG_member, name: "m_memoryManager", scope: !1161, file: !15, line: 1087, baseType: !18, size: 64)
!1164 = !DIDerivedType(tag: DW_TAG_member, name: "m_size", scope: !1161, file: !15, line: 1089, baseType: !23, size: 64, offset: 64)
!1165 = !DIDerivedType(tag: DW_TAG_member, name: "m_allocation", scope: !1161, file: !15, line: 1091, baseType: !23, size: 64, offset: 128)
!1166 = !DIDerivedType(tag: DW_TAG_member, name: "m_data", scope: !1161, file: !15, line: 1093, baseType: !1167, size: 64, offset: 192)
!1167 = !DIDerivedType(tag: DW_TAG_pointer_type, baseType: !1168, size: 64)
!1168 = !DIDerivedType(tag: DW_TAG_typedef, name: "value_type", scope: !1161, file: !15, line: 66, baseType: !1169)
!1169 = !DIBasicType(name: "double", size: 64, encoding: DW_ATE_float)
!1170 = !DISubprogram(name: "XalanVector", scope: !1161, file: !15, line: 120, type: !1171, scopeLine: 120, flags: DIFlagPublic | DIFlagPrototyped, spFlags: 0)
!1171 = !DISubroutineType(types: !1172)
!1172 = !{null, !1173, !35, !23}
!1173 = !DIDerivedType(tag: DW_TAG_pointer_type, baseType: !1161, size: 64, flags: DIFlagArtificial | DIFlagObjectPointer)
!1174 = !DISubprogram(name: "create", linkageName: "_ZN11xalanc_1_1011XalanVectorIdNS_31MemoryManagedConstructionTraitsIdEEE6createERN11xercesc_2_713MemoryManagerEm", scope: !1161, file: !15, line: 132, type: !1175, scopeLine: 132, flags: DIFlagPublic | DIFlagPrototyped | DIFlagStaticMember, spFlags: 0)
!1175 = !DISubroutineType(types: !1176)
!1176 = !{!1177, !35, !23}
!1177 = !DIDerivedType(tag: DW_TAG_pointer_type, baseType: !1161, size: 64)
!1178 = !DISubprogram(name: "XalanVector", scope: !1161, file: !15, line: 149, type: !1179, scopeLine: 149, flags: DIFlagPublic | DIFlagPrototyped, spFlags: 0)
!1179 = !DISubroutineType(types: !1180)
!1180 = !{null, !1173, !1181, !35, !23}
!1181 = !DIDerivedType(tag: DW_TAG_reference_type, baseType: !1182, size: 64)
!1182 = !DIDerivedType(tag: DW_TAG_const_type, baseType: !1183)
!1183 = !DIDerivedType(tag: DW_TAG_typedef, name: "ThisType", scope: !1161, file: !15, line: 115, baseType: !1161)
!1184 = !DISubprogram(name: "XalanVector", scope: !1161, file: !15, line: 177, type: !1185, scopeLine: 177, flags: DIFlagPublic | DIFlagPrototyped, spFlags: 0)
!1185 = !DISubroutineType(types: !1186)
!1186 = !{null, !1173, !1187, !1187, !35}
!1187 = !DIDerivedType(tag: DW_TAG_typedef, name: "const_iterator", scope: !1161, file: !15, line: 92, baseType: !1188)
!1188 = !DIDerivedType(tag: DW_TAG_pointer_type, baseType: !1189, size: 64)
!1189 = !DIDerivedType(tag: DW_TAG_const_type, baseType: !1168)
!1190 = !DISubprogram(name: "create", linkageName: "_ZN11xalanc_1_1011XalanVectorIdNS_31MemoryManagedConstructionTraitsIdEEE6createEPKdS5_RN11xercesc_2_713MemoryManagerE", scope: !1161, file: !15, line: 197, type: !1191, scopeLine: 197, flags: DIFlagPublic | DIFlagPrototyped | DIFlagStaticMember, spFlags: 0)
!1191 = !DISubroutineType(types: !1192)
!1192 = !{!1177, !1187, !1187, !35}
!1193 = !DISubprogram(name: "XalanVector", scope: !1161, file: !15, line: 215, type: !1194, scopeLine: 215, flags: DIFlagPublic | DIFlagPrototyped, spFlags: 0)
!1194 = !DISubroutineType(types: !1195)
!1195 = !{null, !1173, !23, !1196, !35}
!1196 = !DIDerivedType(tag: DW_TAG_reference_type, baseType: !1189, size: 64)
!1197 = !DISubprogram(name: "~XalanVector", scope: !1161, file: !15, line: 233, type: !1198, scopeLine: 233, flags: DIFlagPublic | DIFlagPrototyped, spFlags: 0)
!1198 = !DISubroutineType(types: !1199)
!1199 = !{null, !1173}
!1200 = !DISubprogram(name: "push_back", linkageName: "_ZN11xalanc_1_1011XalanVectorIdNS_31MemoryManagedConstructionTraitsIdEEE9push_backERKd", scope: !1161, file: !15, line: 246, type: !1201, scopeLine: 246, flags: DIFlagPublic | DIFlagPrototyped, spFlags: 0)
!1201 = !DISubroutineType(types: !1202)
!1202 = !{null, !1173, !1196}
!1203 = !DISubprogram(name: "pop_back", linkageName: "_ZN11xalanc_1_1011XalanVectorIdNS_31MemoryManagedConstructionTraitsIdEEE8pop_backEv", scope: !1161, file: !15, line: 256, type: !1198, scopeLine: 256, flags: DIFlagPublic | DIFlagPrototyped, spFlags: 0)
!1204 = !DISubprogram(name: "erase", linkageName: "_ZN11xalanc_1_1011XalanVectorIdNS_31MemoryManagedConstructionTraitsIdEEE5eraseEPdS4_", scope: !1161, file: !15, line: 268, type: !1205, scopeLine: 268, flags: DIFlagPublic | DIFlagPrototyped, spFlags: 0)
!1205 = !DISubroutineType(types: !1206)
!1206 = !{!1207, !1173, !1207, !1207}
!1207 = !DIDerivedType(tag: DW_TAG_typedef, name: "iterator", scope: !1161, file: !15, line: 91, baseType: !1167)
!1208 = !DISubprogram(name: "erase", linkageName: "_ZN11xalanc_1_1011XalanVectorIdNS_31MemoryManagedConstructionTraitsIdEEE5eraseEPd", scope: !1161, file: !15, line: 290, type: !1209, scopeLine: 290, flags: DIFlagPublic | DIFlagPrototyped, spFlags: 0)
!1209 = !DISubroutineType(types: !1210)
!1210 = !{!1207, !1173, !1207}
!1211 = !DISubprogram(name: "insert", linkageName: "_ZN11xalanc_1_1011XalanVectorIdNS_31MemoryManagedConstructionTraitsIdEEE6insertEPdPKdS6_", scope: !1161, file: !15, line: 296, type: !1212, scopeLine: 296, flags: DIFlagPublic | DIFlagPrototyped, spFlags: 0)
!1212 = !DISubroutineType(types: !1213)
!1213 = !{null, !1173, !1207, !1187, !1187}
!1214 = !DISubprogram(name: "insert", linkageName: "_ZN11xalanc_1_1011XalanVectorIdNS_31MemoryManagedConstructionTraitsIdEEE6insertEPdmRKd", scope: !1161, file: !15, line: 415, type: !1215, scopeLine: 415, flags: DIFlagPublic | DIFlagPrototyped, spFlags: 0)
!1215 = !DISubroutineType(types: !1216)
!1216 = !{null, !1173, !1207, !23, !1196}
!1217 = !DISubprogram(name: "insert", linkageName: "_ZN11xalanc_1_1011XalanVectorIdNS_31MemoryManagedConstructionTraitsIdEEE6insertEPdRKd", scope: !1161, file: !15, line: 516, type: !1218, scopeLine: 516, flags: DIFlagPublic | DIFlagPrototyped, spFlags: 0)
!1218 = !DISubroutineType(types: !1219)
!1219 = !{!1207, !1173, !1207, !1196}
!1220 = !DISubprogram(name: "assign", linkageName: "_ZN11xalanc_1_1011XalanVectorIdNS_31MemoryManagedConstructionTraitsIdEEE6assignEPKdS5_", scope: !1161, file: !15, line: 538, type: !1221, scopeLine: 538, flags: DIFlagPublic | DIFlagPrototyped, spFlags: 0)
!1221 = !DISubroutineType(types: !1222)
!1222 = !{null, !1173, !1187, !1187}
!1223 = !DISubprogram(name: "assign", linkageName: "_ZN11xalanc_1_1011XalanVectorIdNS_31MemoryManagedConstructionTraitsIdEEE6assignEPdS4_", scope: !1161, file: !15, line: 551, type: !1224, scopeLine: 551, flags: DIFlagPublic | DIFlagPrototyped, spFlags: 0)
!1224 = !DISubroutineType(types: !1225)
!1225 = !{null, !1173, !1207, !1207}
!1226 = !DISubprogram(name: "assign", linkageName: "_ZN11xalanc_1_1011XalanVectorIdNS_31MemoryManagedConstructionTraitsIdEEE6assignEmRKd", scope: !1161, file: !15, line: 561, type: !1227, scopeLine: 561, flags: DIFlagPublic | DIFlagPrototyped, spFlags: 0)
!1227 = !DISubroutineType(types: !1228)
!1228 = !{null, !1173, !23, !1196}
!1229 = !DISubprogram(name: "size", linkageName: "_ZNK11xalanc_1_1011XalanVectorIdNS_31MemoryManagedConstructionTraitsIdEEE4sizeEv", scope: !1161, file: !15, line: 571, type: !1230, scopeLine: 571, flags: DIFlagPublic | DIFlagPrototyped, spFlags: 0)
!1230 = !DISubroutineType(types: !1231)
!1231 = !{!23, !1232}
!1232 = !DIDerivedType(tag: DW_TAG_pointer_type, baseType: !1233, size: 64, flags: DIFlagArtificial | DIFlagObjectPointer)
!1233 = !DIDerivedType(tag: DW_TAG_const_type, baseType: !1161)
!1234 = !DISubprogram(name: "max_size", linkageName: "_ZNK11xalanc_1_1011XalanVectorIdNS_31MemoryManagedConstructionTraitsIdEEE8max_sizeEv", scope: !1161, file: !15, line: 579, type: !1230, scopeLine: 579, flags: DIFlagPublic | DIFlagPrototyped, spFlags: 0)
!1235 = !DISubprogram(name: "resize", linkageName: "_ZN11xalanc_1_1011XalanVectorIdNS_31MemoryManagedConstructionTraitsIdEEE6resizeEm", scope: !1161, file: !15, line: 587, type: !1236, scopeLine: 587, flags: DIFlagPublic | DIFlagPrototyped, spFlags: 0)
!1236 = !DISubroutineType(types: !1237)
!1237 = !{null, !1173, !23}
!1238 = !DISubprogram(name: "resize", linkageName: "_ZN11xalanc_1_1011XalanVectorIdNS_31MemoryManagedConstructionTraitsIdEEE6resizeEmRKd", scope: !1161, file: !15, line: 595, type: !1227, scopeLine: 595, flags: DIFlagPublic | DIFlagPrototyped, spFlags: 0)
!1239 = !DISubprogram(name: "capacity", linkageName: "_ZNK11xalanc_1_1011XalanVectorIdNS_31MemoryManagedConstructionTraitsIdEEE8capacityEv", scope: !1161, file: !15, line: 628, type: !1230, scopeLine: 628, flags: DIFlagPublic | DIFlagPrototyped, spFlags: 0)
!1240 = !DISubprogram(name: "empty", linkageName: "_ZNK11xalanc_1_1011XalanVectorIdNS_31MemoryManagedConstructionTraitsIdEEE5emptyEv", scope: !1161, file: !15, line: 636, type: !1241, scopeLine: 636, flags: DIFlagPublic | DIFlagPrototyped, spFlags: 0)
!1241 = !DISubroutineType(types: !1242)
!1242 = !{!105, !1232}
!1243 = !DISubprogram(name: "reserve", linkageName: "_ZN11xalanc_1_1011XalanVectorIdNS_31MemoryManagedConstructionTraitsIdEEE7reserveEm", scope: !1161, file: !15, line: 644, type: !1236, scopeLine: 644, flags: DIFlagPublic | DIFlagPrototyped, spFlags: 0)
!1244 = !DISubprogram(name: "front", linkageName: "_ZN11xalanc_1_1011XalanVectorIdNS_31MemoryManagedConstructionTraitsIdEEE5frontEv", scope: !1161, file: !15, line: 657, type: !1245, scopeLine: 657, flags: DIFlagPublic | DIFlagPrototyped, spFlags: 0)
!1245 = !DISubroutineType(types: !1246)
!1246 = !{!1247, !1173}
!1247 = !DIDerivedType(tag: DW_TAG_typedef, name: "reference", scope: !1161, file: !15, line: 69, baseType: !1248)
!1248 = !DIDerivedType(tag: DW_TAG_reference_type, baseType: !1168, size: 64)
!1249 = !DISubprogram(name: "front", linkageName: "_ZNK11xalanc_1_1011XalanVectorIdNS_31MemoryManagedConstructionTraitsIdEEE5frontEv", scope: !1161, file: !15, line: 665, type: !1250, scopeLine: 665, flags: DIFlagPublic | DIFlagPrototyped, spFlags: 0)
!1250 = !DISubroutineType(types: !1251)
!1251 = !{!1252, !1232}
!1252 = !DIDerivedType(tag: DW_TAG_typedef, name: "const_reference", scope: !1161, file: !15, line: 70, baseType: !1196)
!1253 = !DISubprogram(name: "back", linkageName: "_ZN11xalanc_1_1011XalanVectorIdNS_31MemoryManagedConstructionTraitsIdEEE4backEv", scope: !1161, file: !15, line: 673, type: !1245, scopeLine: 673, flags: DIFlagPublic | DIFlagPrototyped, spFlags: 0)
!1254 = !DISubprogram(name: "back", linkageName: "_ZNK11xalanc_1_1011XalanVectorIdNS_31MemoryManagedConstructionTraitsIdEEE4backEv", scope: !1161, file: !15, line: 679, type: !1250, scopeLine: 679, flags: DIFlagPublic | DIFlagPrototyped, spFlags: 0)
!1255 = !DISubprogram(name: "begin", linkageName: "_ZN11xalanc_1_1011XalanVectorIdNS_31MemoryManagedConstructionTraitsIdEEE5beginEv", scope: !1161, file: !15, line: 685, type: !1256, scopeLine: 685, flags: DIFlagPublic | DIFlagPrototyped, spFlags: 0)
!1256 = !DISubroutineType(types: !1257)
!1257 = !{!1207, !1173}
!1258 = !DISubprogram(name: "begin", linkageName: "_ZNK11xalanc_1_1011XalanVectorIdNS_31MemoryManagedConstructionTraitsIdEEE5beginEv", scope: !1161, file: !15, line: 693, type: !1259, scopeLine: 693, flags: DIFlagPublic | DIFlagPrototyped, spFlags: 0)
!1259 = !DISubroutineType(types: !1260)
!1260 = !{!1187, !1232}
!1261 = !DISubprogram(name: "end", linkageName: "_ZN11xalanc_1_1011XalanVectorIdNS_31MemoryManagedConstructionTraitsIdEEE3endEv", scope: !1161, file: !15, line: 701, type: !1256, scopeLine: 701, flags: DIFlagPublic | DIFlagPrototyped, spFlags: 0)
!1262 = !DISubprogram(name: "end", linkageName: "_ZNK11xalanc_1_1011XalanVectorIdNS_31MemoryManagedConstructionTraitsIdEEE3endEv", scope: !1161, file: !15, line: 709, type: !1259, scopeLine: 709, flags: DIFlagPublic | DIFlagPrototyped, spFlags: 0)
!1263 = !DISubprogram(name: "rbegin", linkageName: "_ZN11xalanc_1_1011XalanVectorIdNS_31MemoryManagedConstructionTraitsIdEEE6rbeginEv", scope: !1161, file: !15, line: 717, type: !1264, scopeLine: 717, flags: DIFlagPublic | DIFlagPrototyped, spFlags: 0)
!1264 = !DISubroutineType(types: !1265)
!1265 = !{!1266, !1173}
!1266 = !DIDerivedType(tag: DW_TAG_typedef, name: "reverse_iterator", scope: !1161, file: !15, line: 112, baseType: !1267)
!1267 = !DIDerivedType(tag: DW_TAG_typedef, name: "reverse_iterator_", scope: !1161, file: !15, line: 96, baseType: !1268)
!1268 = !DICompositeType(tag: DW_TAG_class_type, name: "reverse_iterator<double *>", scope: !133, file: !132, line: 125, flags: DIFlagFwdDecl, identifier: "_ZTSSt16reverse_iteratorIPdE")
!1269 = !DISubprogram(name: "rbegin", linkageName: "_ZNK11xalanc_1_1011XalanVectorIdNS_31MemoryManagedConstructionTraitsIdEEE6rbeginEv", scope: !1161, file: !15, line: 725, type: !1270, scopeLine: 725, flags: DIFlagPublic | DIFlagPrototyped, spFlags: 0)
!1270 = !DISubroutineType(types: !1271)
!1271 = !{!1272, !1232}
!1272 = !DIDerivedType(tag: DW_TAG_typedef, name: "const_reverse_iterator", scope: !1161, file: !15, line: 113, baseType: !1273)
!1273 = !DIDerivedType(tag: DW_TAG_typedef, name: "const_reverse_iterator_", scope: !1161, file: !15, line: 97, baseType: !1274)
!1274 = !DICompositeType(tag: DW_TAG_class_type, name: "reverse_iterator<const double *>", scope: !133, file: !132, line: 125, flags: DIFlagFwdDecl, identifier: "_ZTSSt16reverse_iteratorIPKdE")
!1275 = !DISubprogram(name: "rend", linkageName: "_ZN11xalanc_1_1011XalanVectorIdNS_31MemoryManagedConstructionTraitsIdEEE4rendEv", scope: !1161, file: !15, line: 733, type: !1264, scopeLine: 733, flags: DIFlagPublic | DIFlagPrototyped, spFlags: 0)
!1276 = !DISubprogram(name: "rend", linkageName: "_ZNK11xalanc_1_1011XalanVectorIdNS_31MemoryManagedConstructionTraitsIdEEE4rendEv", scope: !1161, file: !15, line: 741, type: !1270, scopeLine: 741, flags: DIFlagPublic | DIFlagPrototyped, spFlags: 0)
!1277 = !DISubprogram(name: "at", linkageName: "_ZN11xalanc_1_1011XalanVectorIdNS_31MemoryManagedConstructionTraitsIdEEE2atEm", scope: !1161, file: !15, line: 750, type: !1278, scopeLine: 750, flags: DIFlagPublic | DIFlagPrototyped, spFlags: 0)
!1278 = !DISubroutineType(types: !1279)
!1279 = !{!1247, !1173, !23}
!1280 = !DISubprogram(name: "at", linkageName: "_ZNK11xalanc_1_1011XalanVectorIdNS_31MemoryManagedConstructionTraitsIdEEE2atEm", scope: !1161, file: !15, line: 761, type: !1281, scopeLine: 761, flags: DIFlagPublic | DIFlagPrototyped, spFlags: 0)
!1281 = !DISubroutineType(types: !1282)
!1282 = !{!1252, !1232, !23}
!1283 = !DISubprogram(name: "operator[]", linkageName: "_ZN11xalanc_1_1011XalanVectorIdNS_31MemoryManagedConstructionTraitsIdEEEixEm", scope: !1161, file: !15, line: 772, type: !1278, scopeLine: 772, flags: DIFlagPublic | DIFlagPrototyped, spFlags: 0)
!1284 = !DISubprogram(name: "operator[]", linkageName: "_ZNK11xalanc_1_1011XalanVectorIdNS_31MemoryManagedConstructionTraitsIdEEEixEm", scope: !1161, file: !15, line: 780, type: !1281, scopeLine: 780, flags: DIFlagPublic | DIFlagPrototyped, spFlags: 0)
!1285 = !DISubprogram(name: "clear", linkageName: "_ZN11xalanc_1_1011XalanVectorIdNS_31MemoryManagedConstructionTraitsIdEEE5clearEv", scope: !1161, file: !15, line: 788, type: !1198, scopeLine: 788, flags: DIFlagPublic | DIFlagPrototyped, spFlags: 0)
!1286 = !DISubprogram(name: "operator=", linkageName: "_ZN11xalanc_1_1011XalanVectorIdNS_31MemoryManagedConstructionTraitsIdEEEaSERKS3_", scope: !1161, file: !15, line: 802, type: !1287, scopeLine: 802, flags: DIFlagPublic | DIFlagPrototyped, spFlags: 0)
!1287 = !DISubroutineType(types: !1288)
!1288 = !{!1289, !1173, !1181}
!1289 = !DIDerivedType(tag: DW_TAG_reference_type, baseType: !1183, size: 64)
!1290 = !DISubprogram(name: "swap", linkageName: "_ZN11xalanc_1_1011XalanVectorIdNS_31MemoryManagedConstructionTraitsIdEEE4swapERS3_", scope: !1161, file: !15, line: 848, type: !1291, scopeLine: 848, flags: DIFlagPublic | DIFlagPrototyped, spFlags: 0)
!1291 = !DISubroutineType(types: !1292)
!1292 = !{null, !1173, !1289}
!1293 = !DISubprogram(name: "getMemoryManager", linkageName: "_ZNK11xalanc_1_1011XalanVectorIdNS_31MemoryManagedConstructionTraitsIdEEE16getMemoryManagerEv", scope: !1161, file: !15, line: 871, type: !1294, scopeLine: 871, flags: DIFlagPublic | DIFlagPrototyped, spFlags: 0)
!1294 = !DISubroutineType(types: !1295)
!1295 = !{!161, !1232}
!1296 = !DISubprogram(name: "getMemoryManager", linkageName: "_ZN11xalanc_1_1011XalanVectorIdNS_31MemoryManagedConstructionTraitsIdEEE16getMemoryManagerEv", scope: !1161, file: !15, line: 877, type: !1297, scopeLine: 877, flags: DIFlagPublic | DIFlagPrototyped, spFlags: 0)
!1297 = !DISubroutineType(types: !1298)
!1298 = !{!35, !1173}
!1299 = !DISubprogram(name: "detach", linkageName: "_ZN11xalanc_1_1011XalanVectorIdNS_31MemoryManagedConstructionTraitsIdEEE6detachEv", scope: !1161, file: !15, line: 889, type: !1300, scopeLine: 889, flags: DIFlagPublic | DIFlagPrototyped, spFlags: 0)
!1300 = !DISubroutineType(types: !1301)
!1301 = !{!1302, !1173}
!1302 = !DIDerivedType(tag: DW_TAG_typedef, name: "pointer", scope: !1161, file: !15, line: 67, baseType: !1167)
!1303 = !DISubprogram(name: "invariants", linkageName: "_ZNK11xalanc_1_1011XalanVectorIdNS_31MemoryManagedConstructionTraitsIdEEE10invariantsEv", scope: !1161, file: !15, line: 905, type: !1304, scopeLine: 905, flags: DIFlagPrototyped, spFlags: 0)
!1304 = !DISubroutineType(types: !1305)
!1305 = !{null, !1232}
!1306 = !DISubprogram(name: "local_distance", linkageName: "_ZN11xalanc_1_1011XalanVectorIdNS_31MemoryManagedConstructionTraitsIdEEE14local_distanceEPKdS5_", scope: !1161, file: !15, line: 918, type: !1307, scopeLine: 918, flags: DIFlagPrototyped, spFlags: 0)
!1307 = !DISubroutineType(types: !1308)
!1308 = !{!1309, !1173, !1187, !1187}
!1309 = !DIDerivedType(tag: DW_TAG_typedef, name: "size_type", scope: !1161, file: !15, line: 71, baseType: !24)
!1310 = !DISubprogram(name: "allocate", linkageName: "_ZN11xalanc_1_1011XalanVectorIdNS_31MemoryManagedConstructionTraitsIdEEE8allocateEm", scope: !1161, file: !15, line: 938, type: !1311, scopeLine: 938, flags: DIFlagPrototyped, spFlags: 0)
!1311 = !DISubroutineType(types: !1312)
!1312 = !{!1167, !1173, !23}
!1313 = !DISubprogram(name: "deallocate", linkageName: "_ZN11xalanc_1_1011XalanVectorIdNS_31MemoryManagedConstructionTraitsIdEEE10deallocateEPd", scope: !1161, file: !15, line: 952, type: !1314, scopeLine: 952, flags: DIFlagPrototyped, spFlags: 0)
!1314 = !DISubroutineType(types: !1315)
!1315 = !{null, !1173, !1167}
!1316 = !DISubprogram(name: "destroy", linkageName: "_ZN11xalanc_1_1011XalanVectorIdNS_31MemoryManagedConstructionTraitsIdEEE7destroyERd", scope: !1161, file: !15, line: 961, type: !1317, scopeLine: 961, flags: DIFlagPrototyped | DIFlagStaticMember, spFlags: 0)
!1317 = !DISubroutineType(types: !1318)
!1318 = !{null, !1248}
!1319 = !DISubprogram(name: "destroy", linkageName: "_ZN11xalanc_1_1011XalanVectorIdNS_31MemoryManagedConstructionTraitsIdEEE7destroyEPdS4_", scope: !1161, file: !15, line: 967, type: !1320, scopeLine: 967, flags: DIFlagPrototyped | DIFlagStaticMember, spFlags: 0)
!1320 = !DISubroutineType(types: !1321)
!1321 = !{null, !1207, !1207}
!1322 = !DISubprogram(name: "doPushBack", linkageName: "_ZN11xalanc_1_1011XalanVectorIdNS_31MemoryManagedConstructionTraitsIdEEE10doPushBackERKd", scope: !1161, file: !15, line: 978, type: !1201, scopeLine: 978, flags: DIFlagPrototyped, spFlags: 0)
!1323 = !DISubprogram(name: "ensureCapacity", linkageName: "_ZN11xalanc_1_1011XalanVectorIdNS_31MemoryManagedConstructionTraitsIdEEE14ensureCapacityEm", scope: !1161, file: !15, line: 1006, type: !1324, scopeLine: 1006, flags: DIFlagPrototyped, spFlags: 0)
!1324 = !DISubroutineType(types: !1325)
!1325 = !{!1302, !1173, !23}
!1326 = !DISubprogram(name: "doReserve", linkageName: "_ZN11xalanc_1_1011XalanVectorIdNS_31MemoryManagedConstructionTraitsIdEEE9doReserveEm", scope: !1161, file: !15, line: 1017, type: !1236, scopeLine: 1017, flags: DIFlagPrototyped, spFlags: 0)
!1327 = !DISubprogram(name: "endPointer", linkageName: "_ZN11xalanc_1_1011XalanVectorIdNS_31MemoryManagedConstructionTraitsIdEEE10endPointerEv", scope: !1161, file: !15, line: 1031, type: !1300, scopeLine: 1031, flags: DIFlagPrototyped, spFlags: 0)
!1328 = !DISubprogram(name: "endPointer", linkageName: "_ZNK11xalanc_1_1011XalanVectorIdNS_31MemoryManagedConstructionTraitsIdEEE10endPointerEv", scope: !1161, file: !15, line: 1037, type: !1329, scopeLine: 1037, flags: DIFlagPrototyped, spFlags: 0)
!1329 = !DISubroutineType(types: !1330)
!1330 = !{!1331, !1232}
!1331 = !DIDerivedType(tag: DW_TAG_typedef, name: "const_pointer", scope: !1161, file: !15, line: 68, baseType: !1188)
!1332 = !DISubprogram(name: "outOfRange", linkageName: "_ZN11xalanc_1_1011XalanVectorIdNS_31MemoryManagedConstructionTraitsIdEEE10outOfRangeEv", scope: !1161, file: !15, line: 1043, type: !200, scopeLine: 1043, flags: DIFlagPrototyped | DIFlagStaticMember, spFlags: 0)
!1333 = !DISubprogram(name: "shrinkToSize", linkageName: "_ZN11xalanc_1_1011XalanVectorIdNS_31MemoryManagedConstructionTraitsIdEEE12shrinkToSizeEm", scope: !1161, file: !15, line: 1049, type: !1236, scopeLine: 1049, flags: DIFlagPrototyped, spFlags: 0)
!1334 = !DISubprogram(name: "shrinkCount", linkageName: "_ZN11xalanc_1_1011XalanVectorIdNS_31MemoryManagedConstructionTraitsIdEEE11shrinkCountEm", scope: !1161, file: !15, line: 1060, type: !1236, scopeLine: 1060, flags: DIFlagPrototyped, spFlags: 0)
!1335 = !DISubprogram(name: "local_max", linkageName: "_ZN11xalanc_1_1011XalanVectorIdNS_31MemoryManagedConstructionTraitsIdEEE9local_maxEmm", scope: !1161, file: !15, line: 1073, type: !1336, scopeLine: 1073, flags: DIFlagPrototyped, spFlags: 0)
!1336 = !DISubroutineType(types: !1337)
!1337 = !{!1309, !1173, !23, !23}
!1338 = !{!1339, !1340}
!1339 = !DITemplateTypeParameter(name: "Type", type: !1169)
!1340 = !DITemplateTypeParameter(name: "ConstructionTraits", type: !1341)
!1341 = distinct !DICompositeType(tag: DW_TAG_structure_type, name: "MemoryManagedConstructionTraits<double>", scope: !6, file: !211, line: 462, size: 8, flags: DIFlagTypePassByValue, elements: !212, templateParams: !1342, identifier: "_ZTSN11xalanc_1_1031MemoryManagedConstructionTraitsIdEE")
!1342 = !{!1343}
!1343 = !DITemplateTypeParameter(name: "C", type: !1169)
!1344 = !DISubprogram(name: "XPathExpression", scope: !5, file: !4, line: 722, type: !1345, scopeLine: 722, flags: DIFlagPublic | DIFlagExplicit | DIFlagPrototyped, spFlags: 0)
!1345 = !DISubroutineType(types: !1346)
!1346 = !{null, !1347, !755}
!1347 = !DIDerivedType(tag: DW_TAG_pointer_type, baseType: !5, size: 64, flags: DIFlagArtificial | DIFlagObjectPointer)
!1348 = !DISubprogram(name: "~XPathExpression", scope: !5, file: !4, line: 724, type: !1349, scopeLine: 724, flags: DIFlagPublic | DIFlagPrototyped, spFlags: 0)
!1349 = !DISubroutineType(types: !1350)
!1350 = !{null, !1347}
!1351 = !DISubprogram(name: "getMemoryManager", linkageName: "_ZN11xalanc_1_1015XPathExpression16getMemoryManagerEv", scope: !5, file: !4, line: 727, type: !1352, scopeLine: 727, flags: DIFlagPublic | DIFlagPrototyped, spFlags: 0)
!1352 = !DISubroutineType(types: !1353)
!1353 = !{!755, !1347}
!1354 = !DISubprogram(name: "reset", linkageName: "_ZN11xalanc_1_1015XPathExpression5resetEv", scope: !5, file: !4, line: 735, type: !1349, scopeLine: 735, flags: DIFlagPublic | DIFlagPrototyped, spFlags: 0)
!1355 = !DISubprogram(name: "shrink", linkageName: "_ZN11xalanc_1_1015XPathExpression6shrinkEv", scope: !5, file: !4, line: 741, type: !1349, scopeLine: 741, flags: DIFlagPublic | DIFlagPrototyped, spFlags: 0)
!1356 = !DISubprogram(name: "opCodeMapSize", linkageName: "_ZNK11xalanc_1_1015XPathExpression13opCodeMapSizeEv", scope: !5, file: !4, line: 749, type: !1357, scopeLine: 749, flags: DIFlagPublic | DIFlagPrototyped, spFlags: 0)
!1357 = !DISubroutineType(types: !1358)
!1358 = !{!216, !1359}
!1359 = !DIDerivedType(tag: DW_TAG_pointer_type, baseType: !1360, size: 64, flags: DIFlagArtificial | DIFlagObjectPointer)
!1360 = !DIDerivedType(tag: DW_TAG_const_type, baseType: !5)
!1361 = !DISubprogram(name: "opCodeMapLength", linkageName: "_ZNK11xalanc_1_1015XPathExpression15opCodeMapLengthEv", scope: !5, file: !4, line: 766, type: !1362, scopeLine: 766, flags: DIFlagPublic | DIFlagPrototyped, spFlags: 0)
!1362 = !DISubroutineType(types: !1363)
!1363 = !{!217, !1359}
!1364 = !DISubprogram(name: "getInitialOpCodePosition", linkageName: "_ZNK11xalanc_1_1015XPathExpression24getInitialOpCodePositionEv", scope: !5, file: !4, line: 785, type: !1365, scopeLine: 785, flags: DIFlagPublic | DIFlagPrototyped, spFlags: 0)
!1365 = !DISubroutineType(types: !1366)
!1366 = !{!1367, !1359}
!1367 = !DIDerivedType(tag: DW_TAG_typedef, name: "OpCodeMapPositionType", scope: !5, file: !4, line: 79, baseType: !49)
!1368 = !DISubprogram(name: "isValidOpCodePosition", linkageName: "_ZNK11xalanc_1_1015XPathExpression21isValidOpCodePositionEPKi", scope: !5, file: !4, line: 795, type: !1369, scopeLine: 795, flags: DIFlagPublic | DIFlagPrototyped, spFlags: 0)
!1369 = !DISubroutineType(types: !1370)
!1370 = !{!105, !1359, !1367}
!1371 = !DISubprogram(name: "isValidOpCodePosition", linkageName: "_ZNK11xalanc_1_1015XPathExpression21isValidOpCodePositionEi", scope: !5, file: !4, line: 806, type: !1372, scopeLine: 806, flags: DIFlagPublic | DIFlagPrototyped, spFlags: 0)
!1372 = !DISubroutineType(types: !1373)
!1373 = !{!105, !1359, !216}
!1374 = !DISubprogram(name: "getOpCodeMapValue", linkageName: "_ZNK11xalanc_1_1015XPathExpression17getOpCodeMapValueEi", scope: !5, file: !4, line: 819, type: !1375, scopeLine: 819, flags: DIFlagPublic | DIFlagPrototyped, spFlags: 0)
!1375 = !DISubroutineType(types: !1376)
!1376 = !{!217, !1359, !216}
!1377 = !DISubprogram(name: "getOpCodeMapValue", linkageName: "_ZNK11xalanc_1_1015XPathExpression17getOpCodeMapValueEPKi", scope: !5, file: !4, line: 835, type: !1378, scopeLine: 835, flags: DIFlagPublic | DIFlagPrototyped, spFlags: 0)
!1378 = !DISubroutineType(types: !1379)
!1379 = !{!217, !1359, !1367}
!1380 = !DISubprogram(name: "setOpCodeMapValue", linkageName: "_ZN11xalanc_1_1015XPathExpression17setOpCodeMapValueEiRKi", scope: !5, file: !4, line: 855, type: !1381, scopeLine: 855, flags: DIFlagPublic | DIFlagPrototyped, spFlags: 0)
!1381 = !DISubroutineType(types: !1382)
!1382 = !{null, !1347, !216, !1383}
!1383 = !DIDerivedType(tag: DW_TAG_reference_type, baseType: !1384, size: 64)
!1384 = !DIDerivedType(tag: DW_TAG_const_type, baseType: !217)
!1385 = !DISubprogram(name: "getOpCodeArgumentLength", linkageName: "_ZNK11xalanc_1_1015XPathExpression23getOpCodeArgumentLengthEPKi", scope: !5, file: !4, line: 865, type: !1378, scopeLine: 865, flags: DIFlagPublic | DIFlagPrototyped, spFlags: 0)
!1386 = !DISubprogram(name: "getOpCodeLengthFromOpMap", linkageName: "_ZNK11xalanc_1_1015XPathExpression24getOpCodeLengthFromOpMapEPKiRN11xercesc_2_713MemoryManagerE", scope: !5, file: !4, line: 878, type: !1387, scopeLine: 878, flags: DIFlagPublic | DIFlagPrototyped, spFlags: 0)
!1387 = !DISubroutineType(types: !1388)
!1388 = !{!217, !1359, !1367, !755}
!1389 = !DISubprogram(name: "getOpCodeLengthFromOpMap", linkageName: "_ZNK11xalanc_1_1015XPathExpression24getOpCodeLengthFromOpMapEiRN11xercesc_2_713MemoryManagerE", scope: !5, file: !4, line: 890, type: !1390, scopeLine: 890, flags: DIFlagPublic | DIFlagPrototyped, spFlags: 0)
!1390 = !DISubroutineType(types: !1391)
!1391 = !{!217, !1359, !216, !755}
!1392 = !DISubprogram(name: "getNextOpCodePosition", linkageName: "_ZNK11xalanc_1_1015XPathExpression21getNextOpCodePositionEPKi", scope: !5, file: !4, line: 903, type: !1393, scopeLine: 903, flags: DIFlagPublic | DIFlagPrototyped, spFlags: 0)
!1393 = !DISubroutineType(types: !1394)
!1394 = !{!1367, !1359, !1367}
!1395 = !DISubprogram(name: "getNextOpCodePosition", linkageName: "_ZNK11xalanc_1_1015XPathExpression21getNextOpCodePositionEi", scope: !5, file: !4, line: 920, type: !1396, scopeLine: 920, flags: DIFlagPublic | DIFlagPrototyped, spFlags: 0)
!1396 = !DISubroutineType(types: !1397)
!1397 = !{!216, !1359, !216}
!1398 = !DISubprogram(name: "setOpCodeArgs", linkageName: "_ZN11xalanc_1_1015XPathExpression13setOpCodeArgsENS0_8eOpCodesEiRKNS_11XalanVectorIiNS_31MemoryManagedConstructionTraitsIiEEEE", scope: !5, file: !4, line: 943, type: !1399, scopeLine: 943, flags: DIFlagPublic | DIFlagPrototyped, spFlags: 0)
!1399 = !DISubroutineType(types: !1400)
!1400 = !{null, !1347, !3, !216, !1401}
!1401 = !DIDerivedType(tag: DW_TAG_reference_type, baseType: !1402, size: 64)
!1402 = !DIDerivedType(tag: DW_TAG_const_type, baseType: !1403)
!1403 = !DIDerivedType(tag: DW_TAG_typedef, name: "OpCodeMapValueVectorType", scope: !5, file: !4, line: 72, baseType: !14)
!1404 = !DISubprogram(name: "appendOpCode", linkageName: "_ZN11xalanc_1_1015XPathExpression12appendOpCodeENS0_8eOpCodesE", scope: !5, file: !4, line: 955, type: !1405, scopeLine: 955, flags: DIFlagPublic | DIFlagPrototyped, spFlags: 0)
!1405 = !DISubroutineType(types: !1406)
!1406 = !{!216, !1347, !3}
!1407 = !DISubprogram(name: "appendOpCode", linkageName: "_ZN11xalanc_1_1015XPathExpression12appendOpCodeENS0_8eOpCodesERKNS_11XalanVectorIiNS_31MemoryManagedConstructionTraitsIiEEEE", scope: !5, file: !4, line: 964, type: !1408, scopeLine: 964, flags: DIFlagPublic | DIFlagPrototyped, spFlags: 0)
!1408 = !DISubroutineType(types: !1409)
!1409 = !{!216, !1347, !3, !1401}
!1410 = !DISubprogram(name: "replaceOpCode", linkageName: "_ZN11xalanc_1_1015XPathExpression13replaceOpCodeEiNS0_8eOpCodesES1_", scope: !5, file: !4, line: 985, type: !1411, scopeLine: 985, flags: DIFlagPublic | DIFlagPrototyped, spFlags: 0)
!1411 = !DISubroutineType(types: !1412)
!1412 = !{null, !1347, !216, !3, !3}
!1413 = !DISubprogram(name: "insertOpCode", linkageName: "_ZN11xalanc_1_1015XPathExpression12insertOpCodeENS0_8eOpCodesEi", scope: !5, file: !4, line: 997, type: !1414, scopeLine: 997, flags: DIFlagPublic | DIFlagPrototyped, spFlags: 0)
!1414 = !DISubroutineType(types: !1415)
!1415 = !{!217, !1347, !3, !216}
!1416 = !DISubprogram(name: "updateOpCodeLength", linkageName: "_ZN11xalanc_1_1015XPathExpression18updateOpCodeLengthEi", scope: !5, file: !4, line: 1011, type: !1417, scopeLine: 1011, flags: DIFlagPublic | DIFlagPrototyped, spFlags: 0)
!1417 = !DISubroutineType(types: !1418)
!1418 = !{null, !1347, !216}
!1419 = !DISubprogram(name: "updateShiftedOpCodeLength", linkageName: "_ZN11xalanc_1_1015XPathExpression25updateShiftedOpCodeLengthEiii", scope: !5, file: !4, line: 1027, type: !1420, scopeLine: 1027, flags: DIFlagPublic | DIFlagPrototyped, spFlags: 0)
!1420 = !DISubroutineType(types: !1421)
!1421 = !{null, !1347, !217, !216, !216}
!1422 = !DISubprogram(name: "updateOpCodeLength", linkageName: "_ZN11xalanc_1_1015XPathExpression18updateOpCodeLengthEii", scope: !5, file: !4, line: 1043, type: !1423, scopeLine: 1043, flags: DIFlagPublic | DIFlagPrototyped, spFlags: 0)
!1423 = !DISubroutineType(types: !1424)
!1424 = !{null, !1347, !217, !216}
!1425 = !DISubprogram(name: "isNodeTestOpCode", linkageName: "_ZN11xalanc_1_1015XPathExpression16isNodeTestOpCodeEi", scope: !5, file: !4, line: 1055, type: !1426, scopeLine: 1055, flags: DIFlagPublic | DIFlagPrototyped | DIFlagStaticMember, spFlags: 0)
!1426 = !DISubroutineType(types: !1427)
!1427 = !{!105, !217}
!1428 = !DISubprogram(name: "updateOpCodeLengthAfterNodeTest", linkageName: "_ZN11xalanc_1_1015XPathExpression31updateOpCodeLengthAfterNodeTestEi", scope: !5, file: !4, line: 1063, type: !1417, scopeLine: 1063, flags: DIFlagPublic | DIFlagPrototyped, spFlags: 0)
!1429 = !DISubprogram(name: "hasMoreTokens", linkageName: "_ZNK11xalanc_1_1015XPathExpression13hasMoreTokensEv", scope: !5, file: !4, line: 1071, type: !1430, scopeLine: 1071, flags: DIFlagPublic | DIFlagPrototyped, spFlags: 0)
!1430 = !DISubroutineType(types: !1431)
!1431 = !{!105, !1359}
!1432 = !DISubprogram(name: "tokenQueueSize", linkageName: "_ZNK11xalanc_1_1015XPathExpression14tokenQueueSizeEv", scope: !5, file: !4, line: 1082, type: !1433, scopeLine: 1082, flags: DIFlagPublic | DIFlagPrototyped, spFlags: 0)
!1433 = !DISubroutineType(types: !1434)
!1434 = !{!10, !1359}
!1435 = !DISubprogram(name: "isValidTokenQueuePosition", linkageName: "_ZNK11xalanc_1_1015XPathExpression25isValidTokenQueuePositionEi", scope: !5, file: !4, line: 1088, type: !1436, scopeLine: 1088, flags: DIFlagPublic | DIFlagPrototyped, spFlags: 0)
!1436 = !DISubroutineType(types: !1437)
!1437 = !{!105, !1359, !10}
!1438 = !DISubprogram(name: "getTokenPosition", linkageName: "_ZNK11xalanc_1_1015XPathExpression16getTokenPositionEv", scope: !5, file: !4, line: 1099, type: !1433, scopeLine: 1099, flags: DIFlagPublic | DIFlagPrototyped, spFlags: 0)
!1439 = !DISubprogram(name: "resetTokenPosition", linkageName: "_ZN11xalanc_1_1015XPathExpression18resetTokenPositionEv", scope: !5, file: !4, line: 1108, type: !1349, scopeLine: 1108, flags: DIFlagPublic | DIFlagPrototyped, spFlags: 0)
!1440 = !DISubprogram(name: "getToken", linkageName: "_ZNK11xalanc_1_1015XPathExpression8getTokenEi", scope: !5, file: !4, line: 1120, type: !1441, scopeLine: 1120, flags: DIFlagPublic | DIFlagPrototyped, spFlags: 0)
!1441 = !DISubroutineType(types: !1442)
!1442 = !{!1443, !1359, !1445}
!1443 = !DIDerivedType(tag: DW_TAG_pointer_type, baseType: !1444, size: 64)
!1444 = !DIDerivedType(tag: DW_TAG_const_type, baseType: !228)
!1445 = !DIDerivedType(tag: DW_TAG_typedef, name: "TokenQueuePositionType", scope: !5, file: !4, line: 86, baseType: !10)
!1446 = !DISubprogram(name: "getNextToken", linkageName: "_ZN11xalanc_1_1015XPathExpression12getNextTokenEv", scope: !5, file: !4, line: 1133, type: !1447, scopeLine: 1133, flags: DIFlagPublic | DIFlagPrototyped, spFlags: 0)
!1447 = !DISubroutineType(types: !1448)
!1448 = !{!1443, !1347}
!1449 = !DISubprogram(name: "getPreviousToken", linkageName: "_ZN11xalanc_1_1015XPathExpression16getPreviousTokenEv", scope: !5, file: !4, line: 1151, type: !1447, scopeLine: 1151, flags: DIFlagPublic | DIFlagPrototyped, spFlags: 0)
!1450 = !DISubprogram(name: "getRelativeToken", linkageName: "_ZNK11xalanc_1_1015XPathExpression16getRelativeTokenEiNS0_18eRelativeDirectionE", scope: !5, file: !4, line: 1178, type: !1451, scopeLine: 1178, flags: DIFlagPublic | DIFlagPrototyped, spFlags: 0)
!1451 = !DISubroutineType(types: !1452)
!1452 = !{!1443, !1359, !1445, !1453}
!1453 = !DICompositeType(tag: DW_TAG_enumeration_type, name: "eRelativeDirection", scope: !5, file: !4, line: 1163, baseType: !414, size: 32, elements: !1454, identifier: "_ZTSN11xalanc_1_1015XPathExpression18eRelativeDirectionE")
!1454 = !{!1455, !1456}
!1455 = !DIEnumerator(name: "eRelativeBackward", value: 0, isUnsigned: true)
!1456 = !DIEnumerator(name: "eRelativeForward", value: 1, isUnsigned: true)
!1457 = !DISubprogram(name: "pushToken", linkageName: "_ZN11xalanc_1_1015XPathExpression9pushTokenERKNS_14XalanDOMStringE", scope: !5, file: !4, line: 1201, type: !1458, scopeLine: 1201, flags: DIFlagPublic | DIFlagPrototyped, spFlags: 0)
!1458 = !DISubroutineType(types: !1459)
!1459 = !{null, !1347, !766}
!1460 = !DISubprogram(name: "pushToken", linkageName: "_ZN11xalanc_1_1015XPathExpression9pushTokenEdRKNS_14XalanDOMStringE", scope: !5, file: !4, line: 1213, type: !1461, scopeLine: 1213, flags: DIFlagPublic | DIFlagPrototyped, spFlags: 0)
!1461 = !DISubroutineType(types: !1462)
!1462 = !{null, !1347, !1169, !766}
!1463 = !DISubprogram(name: "insertToken", linkageName: "_ZN11xalanc_1_1015XPathExpression11insertTokenERKNS_14XalanDOMStringE", scope: !5, file: !4, line: 1227, type: !1458, scopeLine: 1227, flags: DIFlagPublic | DIFlagPrototyped, spFlags: 0)
!1464 = !DISubprogram(name: "insertToken", linkageName: "_ZN11xalanc_1_1015XPathExpression11insertTokenEdRKNS_14XalanDOMStringE", scope: !5, file: !4, line: 1240, type: !1461, scopeLine: 1240, flags: DIFlagPublic | DIFlagPrototyped, spFlags: 0)
!1465 = !DISubprogram(name: "replaceRelativeToken", linkageName: "_ZN11xalanc_1_1015XPathExpression20replaceRelativeTokenEiNS0_18eRelativeDirectionERKNS_14XalanDOMStringE", scope: !5, file: !4, line: 1254, type: !1466, scopeLine: 1254, flags: DIFlagPublic | DIFlagPrototyped, spFlags: 0)
!1466 = !DISubroutineType(types: !1467)
!1467 = !{null, !1347, !1445, !1453, !766}
!1468 = !DISubprogram(name: "dumpOpCodeMap", linkageName: "_ZNK11xalanc_1_1015XPathExpression13dumpOpCodeMapERNS_11PrintWriterEi", scope: !5, file: !4, line: 1273, type: !1469, scopeLine: 1273, flags: DIFlagPublic | DIFlagPrototyped, spFlags: 0)
!1469 = !DISubroutineType(types: !1470)
!1470 = !{null, !1359, !1471, !216}
!1471 = !DIDerivedType(tag: DW_TAG_reference_type, baseType: !1472, size: 64)
!1472 = !DICompositeType(tag: DW_TAG_class_type, name: "PrintWriter", scope: !6, file: !1473, line: 35, flags: DIFlagFwdDecl)
!1473 = !DIFile(filename: "./xalanc/PlatformSupport/PrintWriter.hpp", directory: "/home/venkat/IF-DV/spec_build_release/CPU_2017/benchspec/CPU/523.xalancbmk_r/build/build_base_ld-loop-ext-m64.0000")
!1474 = !DISubprogram(name: "dumpOpCodeMap", linkageName: "_ZNK11xalanc_1_1015XPathExpression13dumpOpCodeMapERSoi", scope: !5, file: !4, line: 1284, type: !1475, scopeLine: 1284, flags: DIFlagPublic | DIFlagPrototyped, spFlags: 0)
!1475 = !DISubroutineType(types: !1476)
!1476 = !{null, !1359, !1477, !216}
!1477 = !DIDerivedType(tag: DW_TAG_reference_type, baseType: !1478, size: 64)
!1478 = !DIDerivedType(tag: DW_TAG_typedef, name: "OstreamType", scope: !5, file: !4, line: 64, baseType: !1479)
!1479 = !DIDerivedType(tag: DW_TAG_typedef, name: "ostream", scope: !133, file: !1480, line: 141, baseType: !1481)
!1480 = !DIFile(filename: "/usr/lib/gcc/x86_64-linux-gnu/10/../../../../include/c++/10/iosfwd", directory: "")
!1481 = !DICompositeType(tag: DW_TAG_class_type, name: "basic_ostream<char, std::char_traits<char> >", scope: !133, file: !1480, line: 86, flags: DIFlagFwdDecl, identifier: "_ZTSSo")
!1482 = !DISubprogram(name: "dumpTokenQueue", linkageName: "_ZNK11xalanc_1_1015XPathExpression14dumpTokenQueueERNS_11PrintWriterEi", scope: !5, file: !4, line: 1295, type: !1483, scopeLine: 1295, flags: DIFlagPublic | DIFlagPrototyped, spFlags: 0)
!1483 = !DISubroutineType(types: !1484)
!1484 = !{null, !1359, !1471, !10}
!1485 = !DISubprogram(name: "dumpTokenQueue", linkageName: "_ZNK11xalanc_1_1015XPathExpression14dumpTokenQueueERSoi", scope: !5, file: !4, line: 1306, type: !1486, scopeLine: 1306, flags: DIFlagPublic | DIFlagPrototyped, spFlags: 0)
!1486 = !DISubroutineType(types: !1487)
!1487 = !{null, !1359, !1477, !10}
!1488 = !DISubprogram(name: "dumpRemainingTokenQueue", linkageName: "_ZNK11xalanc_1_1015XPathExpression23dumpRemainingTokenQueueERNS_11PrintWriterE", scope: !5, file: !4, line: 1316, type: !1489, scopeLine: 1316, flags: DIFlagPublic | DIFlagPrototyped, spFlags: 0)
!1489 = !DISubroutineType(types: !1490)
!1490 = !{null, !1359, !1471}
!1491 = !DISubprogram(name: "dumpRemainingTokenQueue", linkageName: "_ZNK11xalanc_1_1015XPathExpression23dumpRemainingTokenQueueERSoRN11xercesc_2_713MemoryManagerE", scope: !5, file: !4, line: 1325, type: !1492, scopeLine: 1325, flags: DIFlagPublic | DIFlagPrototyped, spFlags: 0)
!1492 = !DISubroutineType(types: !1493)
!1493 = !{null, !1359, !1477, !35}
!1494 = !DISubprogram(name: "pushValueOnOpCodeMap", linkageName: "_ZN11xalanc_1_1015XPathExpression20pushValueOnOpCodeMapERKi", scope: !5, file: !4, line: 1336, type: !1495, scopeLine: 1336, flags: DIFlagPublic | DIFlagPrototyped, spFlags: 0)
!1495 = !DISubroutineType(types: !1496)
!1496 = !{null, !1347, !58}
!1497 = !DISubprogram(name: "pushArgumentOnOpCodeMap", linkageName: "_ZN11xalanc_1_1015XPathExpression23pushArgumentOnOpCodeMapERKNS_6XTokenE", scope: !5, file: !4, line: 1352, type: !1498, scopeLine: 1352, flags: DIFlagPublic | DIFlagPrototyped, spFlags: 0)
!1498 = !DISubroutineType(types: !1499)
!1499 = !{null, !1347, !1500}
!1500 = !DIDerivedType(tag: DW_TAG_reference_type, baseType: !1444, size: 64)
!1501 = !DISubprogram(name: "pushArgumentOnOpCodeMap", linkageName: "_ZN11xalanc_1_1015XPathExpression23pushArgumentOnOpCodeMapERKNS_14XalanDOMStringE", scope: !5, file: !4, line: 1361, type: !1458, scopeLine: 1361, flags: DIFlagPublic | DIFlagPrototyped, spFlags: 0)
!1502 = !DISubprogram(name: "pushArgumentOnOpCodeMap", linkageName: "_ZN11xalanc_1_1015XPathExpression23pushArgumentOnOpCodeMapEdRKNS_14XalanDOMStringE", scope: !5, file: !4, line: 1371, type: !1461, scopeLine: 1371, flags: DIFlagPublic | DIFlagPrototyped, spFlags: 0)
!1503 = !DISubprogram(name: "pushNumberLiteralOnOpCodeMap", linkageName: "_ZN11xalanc_1_1015XPathExpression28pushNumberLiteralOnOpCodeMapEd", scope: !5, file: !4, line: 1382, type: !1504, scopeLine: 1382, flags: DIFlagPublic | DIFlagPrototyped, spFlags: 0)
!1504 = !DISubroutineType(types: !1505)
!1505 = !{null, !1347, !1169}
!1506 = !DISubprogram(name: "getNumberLiteral", linkageName: "_ZNK11xalanc_1_1015XPathExpression16getNumberLiteralEi", scope: !5, file: !4, line: 1390, type: !1507, scopeLine: 1390, flags: DIFlagPublic | DIFlagPrototyped, spFlags: 0)
!1507 = !DISubroutineType(types: !1508)
!1508 = !{!1169, !1359, !11}
!1509 = !DISubprogram(name: "pushCurrentTokenOnOpCodeMap", linkageName: "_ZN11xalanc_1_1015XPathExpression27pushCurrentTokenOnOpCodeMapEv", scope: !5, file: !4, line: 1403, type: !1349, scopeLine: 1403, flags: DIFlagPublic | DIFlagPrototyped, spFlags: 0)
!1510 = !DISubprogram(name: "setCurrentPattern", linkageName: "_ZN11xalanc_1_1015XPathExpression17setCurrentPatternERKNS_14XalanDOMStringE", scope: !5, file: !4, line: 1411, type: !1458, scopeLine: 1411, flags: DIFlagPublic | DIFlagPrototyped, spFlags: 0)
!1511 = !DISubprogram(name: "getCurrentPattern", linkageName: "_ZNK11xalanc_1_1015XPathExpression17getCurrentPatternEv", scope: !5, file: !4, line: 1422, type: !1512, scopeLine: 1422, flags: DIFlagPublic | DIFlagPrototyped, spFlags: 0)
!1512 = !DISubroutineType(types: !1513)
!1513 = !{!766, !1359}
!1514 = !DISubprogram(name: "calculateRelativePosition", linkageName: "_ZNK11xalanc_1_1015XPathExpression25calculateRelativePositionEiNS0_18eRelativeDirectionE", scope: !5, file: !4, line: 1441, type: !1515, scopeLine: 1441, flags: DIFlagPrototyped, spFlags: 0)
!1515 = !DISubroutineType(types: !1516)
!1516 = !{!1445, !1359, !1445, !1453}
!1517 = !{!1518, !1519, !1520, !1521, !1522, !1523, !1524, !1525, !1526, !1527, !1528, !1529, !1530, !1531, !1532, !1533, !1534, !1535, !1536, !1537, !1538, !1539, !1540, !1541, !1542, !1543, !1544, !1545, !1546, !1547, !1548, !1549, !1550, !1551, !1552, !1553, !1554, !1555, !1556, !1557, !1558, !1559, !1560, !1561, !1562, !1563, !1564, !1565, !1566, !1567, !1568, !1569, !1570, !1571, !1572, !1573, !1574, !1575, !1576, !1577, !1578, !1579, !1580, !1581, !1582, !1583, !1584, !1585, !1586, !1587, !1588, !1589, !1590, !1591, !1592, !1593, !1594, !1595, !1596, !1597, !1598, !1599, !1600}
!1518 = !DIEnumerator(name: "eELEMWILDCARD", value: -3)
!1519 = !DIEnumerator(name: "eEMPTY", value: -2)
!1520 = !DIEnumerator(name: "eENDOP", value: -1)
!1521 = !DIEnumerator(name: "eOP_XPATH", value: 1)
!1522 = !DIEnumerator(name: "eOP_OR", value: 2)
!1523 = !DIEnumerator(name: "eOP_AND", value: 3)
!1524 = !DIEnumerator(name: "eOP_NOTEQUALS", value: 4)
!1525 = !DIEnumerator(name: "eOP_EQUALS", value: 5)
!1526 = !DIEnumerator(name: "eOP_LTE", value: 6)
!1527 = !DIEnumerator(name: "eOP_LT", value: 7)
!1528 = !DIEnumerator(name: "eOP_GTE", value: 8)
!1529 = !DIEnumerator(name: "eOP_GT", value: 9)
!1530 = !DIEnumerator(name: "eOP_PLUS", value: 10)
!1531 = !DIEnumerator(name: "eOP_MINUS", value: 11)
!1532 = !DIEnumerator(name: "eOP_MULT", value: 12)
!1533 = !DIEnumerator(name: "eOP_DIV", value: 13)
!1534 = !DIEnumerator(name: "eOP_MOD", value: 14)
!1535 = !DIEnumerator(name: "eOP_NEG", value: 15)
!1536 = !DIEnumerator(name: "eOP_BOOL", value: 16)
!1537 = !DIEnumerator(name: "eOP_UNION", value: 17)
!1538 = !DIEnumerator(name: "eOP_LITERAL", value: 18)
!1539 = !DIEnumerator(name: "eOP_VARIABLE", value: 19)
!1540 = !DIEnumerator(name: "eOP_GROUP", value: 20)
!1541 = !DIEnumerator(name: "eOP_NUMBERLIT", value: 21)
!1542 = !DIEnumerator(name: "eOP_ARGUMENT", value: 22)
!1543 = !DIEnumerator(name: "eOP_EXTFUNCTION", value: 23)
!1544 = !DIEnumerator(name: "eOP_FUNCTION", value: 24)
!1545 = !DIEnumerator(name: "eOP_LOCATIONPATH", value: 25)
!1546 = !DIEnumerator(name: "eOP_PREDICATE", value: 26)
!1547 = !DIEnumerator(name: "eNODETYPE_COMMENT", value: 27)
!1548 = !DIEnumerator(name: "eNODETYPE_TEXT", value: 28)
!1549 = !DIEnumerator(name: "eNODETYPE_PI", value: 29)
!1550 = !DIEnumerator(name: "eNODETYPE_NODE", value: 30)
!1551 = !DIEnumerator(name: "eNODENAME", value: 31)
!1552 = !DIEnumerator(name: "eNODETYPE_ROOT", value: 32)
!1553 = !DIEnumerator(name: "eNODETYPE_ANYELEMENT", value: 33)
!1554 = !DIEnumerator(name: "eFROM_ANCESTORS", value: 34)
!1555 = !DIEnumerator(name: "eFROM_ANCESTORS_OR_SELF", value: 35)
!1556 = !DIEnumerator(name: "eFROM_ATTRIBUTES", value: 36)
!1557 = !DIEnumerator(name: "eFROM_CHILDREN", value: 37)
!1558 = !DIEnumerator(name: "eFROM_DESCENDANTS", value: 38)
!1559 = !DIEnumerator(name: "eFROM_DESCENDANTS_OR_SELF", value: 39)
!1560 = !DIEnumerator(name: "eFROM_FOLLOWING", value: 40)
!1561 = !DIEnumerator(name: "eFROM_FOLLOWING_SIBLINGS", value: 41)
!1562 = !DIEnumerator(name: "eFROM_PARENT", value: 42)
!1563 = !DIEnumerator(name: "eFROM_PRECEDING", value: 43)
!1564 = !DIEnumerator(name: "eFROM_PRECEDING_SIBLINGS", value: 44)
!1565 = !DIEnumerator(name: "eFROM_SELF", value: 45)
!1566 = !DIEnumerator(name: "eFROM_NAMESPACE", value: 46)
!1567 = !DIEnumerator(name: "eFROM_ROOT", value: 47)
!1568 = !DIEnumerator(name: "eOP_MATCHPATTERN", value: 48)
!1569 = !DIEnumerator(name: "eOP_LOCATIONPATHPATTERN", value: 49)
!1570 = !DIEnumerator(name: "eMATCH_ATTRIBUTE", value: 50)
!1571 = !DIEnumerator(name: "eMATCH_ANY_ANCESTOR", value: 51)
!1572 = !DIEnumerator(name: "eMATCH_IMMEDIATE_ANCESTOR", value: 52)
!1573 = !DIEnumerator(name: "eMATCH_ANY_ANCESTOR_WITH_PREDICATE", value: 53)
!1574 = !DIEnumerator(name: "eMATCH_ANY_ANCESTOR_WITH_FUNCTION_CALL", value: 54)
!1575 = !DIEnumerator(name: "eOP_PREDICATE_WITH_POSITION", value: 55)
!1576 = !DIEnumerator(name: "eOP_FUNCTION_POSITION", value: 56)
!1577 = !DIEnumerator(name: "eOP_FUNCTION_LAST", value: 57)
!1578 = !DIEnumerator(name: "eOP_FUNCTION_COUNT", value: 58)
!1579 = !DIEnumerator(name: "eOP_FUNCTION_NOT", value: 59)
!1580 = !DIEnumerator(name: "eOP_FUNCTION_TRUE", value: 60)
!1581 = !DIEnumerator(name: "eOP_FUNCTION_FALSE", value: 61)
!1582 = !DIEnumerator(name: "eOP_FUNCTION_BOOLEAN", value: 62)
!1583 = !DIEnumerator(name: "eOP_FUNCTION_NAME_0", value: 63)
!1584 = !DIEnumerator(name: "eOP_FUNCTION_NAME_1", value: 64)
!1585 = !DIEnumerator(name: "eOP_FUNCTION_LOCALNAME_0", value: 65)
!1586 = !DIEnumerator(name: "eOP_FUNCTION_LOCALNAME_1", value: 66)
!1587 = !DIEnumerator(name: "eOP_FUNCTION_FLOOR", value: 67)
!1588 = !DIEnumerator(name: "eOP_FUNCTION_CEILING", value: 68)
!1589 = !DIEnumerator(name: "eOP_FUNCTION_ROUND", value: 69)
!1590 = !DIEnumerator(name: "eOP_FUNCTION_NUMBER_0", value: 70)
!1591 = !DIEnumerator(name: "eOP_FUNCTION_NUMBER_1", value: 71)
!1592 = !DIEnumerator(name: "eOP_FUNCTION_STRING_0", value: 72)
!1593 = !DIEnumerator(name: "eOP_FUNCTION_STRING_1", value: 73)
!1594 = !DIEnumerator(name: "eOP_FUNCTION_STRINGLENGTH_0", value: 74)
!1595 = !DIEnumerator(name: "eOP_FUNCTION_STRINGLENGTH_1", value: 75)
!1596 = !DIEnumerator(name: "eOP_FUNCTION_NAMESPACEURI_0", value: 76)
!1597 = !DIEnumerator(name: "eOP_FUNCTION_NAMESPACEURI_1", value: 77)
!1598 = !DIEnumerator(name: "eOP_FUNCTION_SUM", value: 78)
!1599 = !DIEnumerator(name: "eOP_FUNCTION_CONCAT", value: 79)
!1600 = !DIEnumerator(name: "eOpCodeNextAvailable", value: 80)
!1601 = !DICompositeType(tag: DW_TAG_enumeration_type, name: "eMatchScore", scope: !1603, file: !1602, line: 84, baseType: !414, size: 32, elements: !2154, identifier: "_ZTSN11xalanc_1_105XPath11eMatchScoreE")
!1602 = !DIFile(filename: "./xalanc/XPath/XPath.hpp", directory: "/home/venkat/IF-DV/spec_build_release/CPU_2017/benchspec/CPU/523.xalancbmk_r/build/build_base_ld-loop-ext-m64.0000")
!1603 = distinct !DICompositeType(tag: DW_TAG_class_type, name: "XPath", scope: !6, file: !1602, line: 62, size: 1088, flags: DIFlagTypePassByReference | DIFlagNonTrivial, elements: !1604, identifier: "_ZTSN11xalanc_1_105XPathE")
!1604 = !{!1605, !1609, !1610, !1611, !1612, !1613, !1614, !1615, !1616, !1622, !1623, !1742, !1743, !1746, !1747, !1751, !1755, !1758, !1761, !1762, !1822, !1826, !1830, !1833, !1849, !1855, !1862, !1865, !1868, !1871, !1874, !1877, !1880, !1883, !1886, !1889, !1892, !1895, !1898, !1901, !1904, !1907, !1910, !1913, !1917, !1921, !1924, !1927, !1930, !1934, !1940, !1943, !1946, !1949, !1952, !1953, !1958, !1959, !1962, !1965, !1968, !1971, !1972, !1975, !1978, !1981, !1984, !1987, !1988, !1989, !1990, !1991, !1992, !1995, !1999, !2002, !2003, !2004, !2005, !2006, !2007, !2008, !2009, !2012, !2013, !2014, !2015, !2016, !2017, !2018, !2019, !2020, !2021, !2022, !2023, !2024, !2025, !2026, !2027, !2028, !2029, !2032, !2035, !2038, !2041, !2044, !2045, !2046, !2047, !2048, !2049, !2050, !2051, !2054, !2055, !2056, !2057, !2058, !2059, !2067, !2068, !2072, !2075, !2078, !2079, !2080, !2081, !2084, !2087, !2088, !2089, !2090, !2091, !2092, !2093, !2094, !2097, !2098, !2099, !2100, !2104, !2108, !2111, !2114, !2118, !2121, !2124, !2127, !2128, !2129, !2130, !2131, !2132, !2133, !2134, !2135, !2136, !2137, !2138, !2139, !2140, !2141, !2144, !2147, !2148, !2151}
!1605 = !DIDerivedType(tag: DW_TAG_member, name: "PSEUDONAME_ANY", scope: !1603, file: !1602, line: 76, baseType: !1606, flags: DIFlagPublic | DIFlagStaticMember)
!1606 = !DICompositeType(tag: DW_TAG_array_type, baseType: !748, elements: !1607)
!1607 = !{!1608}
!1608 = !DISubrange(count: -1)
!1609 = !DIDerivedType(tag: DW_TAG_member, name: "PSEUDONAME_ROOT", scope: !1603, file: !1602, line: 77, baseType: !1606, flags: DIFlagPublic | DIFlagStaticMember)
!1610 = !DIDerivedType(tag: DW_TAG_member, name: "PSEUDONAME_TEXT", scope: !1603, file: !1602, line: 78, baseType: !1606, flags: DIFlagPublic | DIFlagStaticMember)
!1611 = !DIDerivedType(tag: DW_TAG_member, name: "PSEUDONAME_COMMENT", scope: !1603, file: !1602, line: 79, baseType: !1606, flags: DIFlagPublic | DIFlagStaticMember)
!1612 = !DIDerivedType(tag: DW_TAG_member, name: "PSEUDONAME_PI", scope: !1603, file: !1602, line: 80, baseType: !1606, flags: DIFlagPublic | DIFlagStaticMember)
!1613 = !DIDerivedType(tag: DW_TAG_member, name: "PSEUDONAME_OTHER", scope: !1603, file: !1602, line: 81, baseType: !1606, flags: DIFlagPublic | DIFlagStaticMember)
!1614 = !DIDerivedType(tag: DW_TAG_member, name: "PSEUDONAME_NODE", scope: !1603, file: !1602, line: 82, baseType: !1606, flags: DIFlagPublic | DIFlagStaticMember)
!1615 = !DIDerivedType(tag: DW_TAG_member, name: "m_expression", scope: !1603, file: !1602, line: 2611, baseType: !5, size: 960)
!1616 = !DIDerivedType(tag: DW_TAG_member, name: "m_locator", scope: !1603, file: !1602, line: 2616, baseType: !1617, size: 64, offset: 960)
!1617 = !DIDerivedType(tag: DW_TAG_pointer_type, baseType: !1618, size: 64)
!1618 = !DIDerivedType(tag: DW_TAG_const_type, baseType: !1619)
!1619 = !DIDerivedType(tag: DW_TAG_typedef, name: "LocatorType", scope: !1603, file: !1602, line: 66, baseType: !1620)
!1620 = !DICompositeType(tag: DW_TAG_class_type, name: "Locator", scope: !21, file: !1621, line: 30, flags: DIFlagFwdDecl, identifier: "_ZTSN11xercesc_2_77LocatorE")
!1621 = !DIFile(filename: "./xercesc/sax/DocumentHandler.hpp", directory: "/home/venkat/IF-DV/spec_build_release/CPU_2017/benchspec/CPU/523.xalancbmk_r/build/build_base_ld-loop-ext-m64.0000")
!1622 = !DIDerivedType(tag: DW_TAG_member, name: "m_inStylesheet", scope: !1603, file: !1602, line: 2623, baseType: !105, size: 8, offset: 1024)
!1623 = !DIDerivedType(tag: DW_TAG_member, name: "s_functions", scope: !1603, file: !1602, line: 2630, baseType: !1624, flags: DIFlagStaticMember)
!1624 = !DIDerivedType(tag: DW_TAG_typedef, name: "FunctionTableType", scope: !1603, file: !1602, line: 967, baseType: !1625)
!1625 = distinct !DICompositeType(tag: DW_TAG_class_type, name: "XPathFunctionTable", scope: !6, file: !1626, line: 88, size: 2432, flags: DIFlagTypePassByReference | DIFlagNonTrivial, elements: !1627, identifier: "_ZTSN11xalanc_1_1018XPathFunctionTableE")
!1626 = !DIFile(filename: "./xalanc/XPath/XPathFunctionTable.hpp", directory: "/home/venkat/IF-DV/spec_build_release/CPU_2017/benchspec/CPU/523.xalancbmk_r/build/build_base_ld-loop-ext-m64.0000")
!1627 = !{!1628, !1629, !1630, !1631, !1632, !1633, !1634, !1635, !1636, !1637, !1638, !1639, !1640, !1641, !1642, !1643, !1644, !1645, !1646, !1647, !1648, !1649, !1650, !1651, !1652, !1653, !1654, !1655, !1656, !1657, !1658, !1659, !1660, !1661, !1662, !1663, !1664, !1672, !1675, !1677, !1685, !1688, !1691, !1695, !1698, !1701, !1702, !1703, !1709, !1712, !1715, !1718, !1721, !1724, !1727, !1730, !1733, !1736, !1739}
!1628 = !DIDerivedType(tag: DW_TAG_member, name: "s_id", scope: !1625, file: !1626, line: 323, baseType: !1606, flags: DIFlagPublic | DIFlagStaticMember)
!1629 = !DIDerivedType(tag: DW_TAG_member, name: "s_key", scope: !1625, file: !1626, line: 326, baseType: !1606, flags: DIFlagPublic | DIFlagStaticMember)
!1630 = !DIDerivedType(tag: DW_TAG_member, name: "s_not", scope: !1625, file: !1626, line: 329, baseType: !1606, flags: DIFlagPublic | DIFlagStaticMember)
!1631 = !DIDerivedType(tag: DW_TAG_member, name: "s_sum", scope: !1625, file: !1626, line: 332, baseType: !1606, flags: DIFlagPublic | DIFlagStaticMember)
!1632 = !DIDerivedType(tag: DW_TAG_member, name: "s_lang", scope: !1625, file: !1626, line: 335, baseType: !1606, flags: DIFlagPublic | DIFlagStaticMember)
!1633 = !DIDerivedType(tag: DW_TAG_member, name: "s_last", scope: !1625, file: !1626, line: 338, baseType: !1606, flags: DIFlagPublic | DIFlagStaticMember)
!1634 = !DIDerivedType(tag: DW_TAG_member, name: "s_name", scope: !1625, file: !1626, line: 341, baseType: !1606, flags: DIFlagPublic | DIFlagStaticMember)
!1635 = !DIDerivedType(tag: DW_TAG_member, name: "s_true", scope: !1625, file: !1626, line: 344, baseType: !1606, flags: DIFlagPublic | DIFlagStaticMember)
!1636 = !DIDerivedType(tag: DW_TAG_member, name: "s_count", scope: !1625, file: !1626, line: 347, baseType: !1606, flags: DIFlagPublic | DIFlagStaticMember)
!1637 = !DIDerivedType(tag: DW_TAG_member, name: "s_false", scope: !1625, file: !1626, line: 350, baseType: !1606, flags: DIFlagPublic | DIFlagStaticMember)
!1638 = !DIDerivedType(tag: DW_TAG_member, name: "s_floor", scope: !1625, file: !1626, line: 353, baseType: !1606, flags: DIFlagPublic | DIFlagStaticMember)
!1639 = !DIDerivedType(tag: DW_TAG_member, name: "s_round", scope: !1625, file: !1626, line: 356, baseType: !1606, flags: DIFlagPublic | DIFlagStaticMember)
!1640 = !DIDerivedType(tag: DW_TAG_member, name: "s_concat", scope: !1625, file: !1626, line: 359, baseType: !1606, flags: DIFlagPublic | DIFlagStaticMember)
!1641 = !DIDerivedType(tag: DW_TAG_member, name: "s_number", scope: !1625, file: !1626, line: 362, baseType: !1606, flags: DIFlagPublic | DIFlagStaticMember)
!1642 = !DIDerivedType(tag: DW_TAG_member, name: "s_string", scope: !1625, file: !1626, line: 365, baseType: !1606, flags: DIFlagPublic | DIFlagStaticMember)
!1643 = !DIDerivedType(tag: DW_TAG_member, name: "s_boolean", scope: !1625, file: !1626, line: 368, baseType: !1606, flags: DIFlagPublic | DIFlagStaticMember)
!1644 = !DIDerivedType(tag: DW_TAG_member, name: "s_ceiling", scope: !1625, file: !1626, line: 371, baseType: !1606, flags: DIFlagPublic | DIFlagStaticMember)
!1645 = !DIDerivedType(tag: DW_TAG_member, name: "s_current", scope: !1625, file: !1626, line: 374, baseType: !1606, flags: DIFlagPublic | DIFlagStaticMember)
!1646 = !DIDerivedType(tag: DW_TAG_member, name: "s_contains", scope: !1625, file: !1626, line: 377, baseType: !1606, flags: DIFlagPublic | DIFlagStaticMember)
!1647 = !DIDerivedType(tag: DW_TAG_member, name: "s_document", scope: !1625, file: !1626, line: 380, baseType: !1606, flags: DIFlagPublic | DIFlagStaticMember)
!1648 = !DIDerivedType(tag: DW_TAG_member, name: "s_position", scope: !1625, file: !1626, line: 383, baseType: !1606, flags: DIFlagPublic | DIFlagStaticMember)
!1649 = !DIDerivedType(tag: DW_TAG_member, name: "s_substring", scope: !1625, file: !1626, line: 386, baseType: !1606, flags: DIFlagPublic | DIFlagStaticMember)
!1650 = !DIDerivedType(tag: DW_TAG_member, name: "s_translate", scope: !1625, file: !1626, line: 389, baseType: !1606, flags: DIFlagPublic | DIFlagStaticMember)
!1651 = !DIDerivedType(tag: DW_TAG_member, name: "s_localName", scope: !1625, file: !1626, line: 392, baseType: !1606, flags: DIFlagPublic | DIFlagStaticMember)
!1652 = !DIDerivedType(tag: DW_TAG_member, name: "s_generateId", scope: !1625, file: !1626, line: 395, baseType: !1606, flags: DIFlagPublic | DIFlagStaticMember)
!1653 = !DIDerivedType(tag: DW_TAG_member, name: "s_startsWith", scope: !1625, file: !1626, line: 398, baseType: !1606, flags: DIFlagPublic | DIFlagStaticMember)
!1654 = !DIDerivedType(tag: DW_TAG_member, name: "s_formatNumber", scope: !1625, file: !1626, line: 401, baseType: !1606, flags: DIFlagPublic | DIFlagStaticMember)
!1655 = !DIDerivedType(tag: DW_TAG_member, name: "s_namespaceUri", scope: !1625, file: !1626, line: 404, baseType: !1606, flags: DIFlagPublic | DIFlagStaticMember)
!1656 = !DIDerivedType(tag: DW_TAG_member, name: "s_stringLength", scope: !1625, file: !1626, line: 407, baseType: !1606, flags: DIFlagPublic | DIFlagStaticMember)
!1657 = !DIDerivedType(tag: DW_TAG_member, name: "s_normalizeSpace", scope: !1625, file: !1626, line: 410, baseType: !1606, flags: DIFlagPublic | DIFlagStaticMember)
!1658 = !DIDerivedType(tag: DW_TAG_member, name: "s_substringAfter", scope: !1625, file: !1626, line: 413, baseType: !1606, flags: DIFlagPublic | DIFlagStaticMember)
!1659 = !DIDerivedType(tag: DW_TAG_member, name: "s_systemProperty", scope: !1625, file: !1626, line: 416, baseType: !1606, flags: DIFlagPublic | DIFlagStaticMember)
!1660 = !DIDerivedType(tag: DW_TAG_member, name: "s_substringBefore", scope: !1625, file: !1626, line: 419, baseType: !1606, flags: DIFlagPublic | DIFlagStaticMember)
!1661 = !DIDerivedType(tag: DW_TAG_member, name: "s_elementAvailable", scope: !1625, file: !1626, line: 422, baseType: !1606, flags: DIFlagPublic | DIFlagStaticMember)
!1662 = !DIDerivedType(tag: DW_TAG_member, name: "s_functionAvailable", scope: !1625, file: !1626, line: 425, baseType: !1606, flags: DIFlagPublic | DIFlagStaticMember)
!1663 = !DIDerivedType(tag: DW_TAG_member, name: "s_unparsedEntityUri", scope: !1625, file: !1626, line: 428, baseType: !1606, flags: DIFlagPublic | DIFlagStaticMember)
!1664 = !DIDerivedType(tag: DW_TAG_member, name: "s_functionNames", scope: !1625, file: !1626, line: 431, baseType: !1665, flags: DIFlagPublic | DIFlagStaticMember)
!1665 = !DICompositeType(tag: DW_TAG_array_type, baseType: !1666, elements: !1607)
!1666 = !DIDerivedType(tag: DW_TAG_const_type, baseType: !1667)
!1667 = distinct !DICompositeType(tag: DW_TAG_structure_type, name: "FunctionNameTableEntry", scope: !1625, file: !1626, line: 311, size: 128, flags: DIFlagTypePassByValue, elements: !1668, identifier: "_ZTSN11xalanc_1_1018XPathFunctionTable22FunctionNameTableEntryE")
!1668 = !{!1669, !1670}
!1669 = !DIDerivedType(tag: DW_TAG_member, name: "m_name", scope: !1667, file: !1626, line: 313, baseType: !770, size: 64)
!1670 = !DIDerivedType(tag: DW_TAG_member, name: "m_size", scope: !1667, file: !1626, line: 315, baseType: !1671, size: 32, offset: 64)
!1671 = !DIDerivedType(tag: DW_TAG_typedef, name: "StringSizeType", scope: !1625, file: !1626, line: 95, baseType: !413)
!1672 = !DIDerivedType(tag: DW_TAG_member, name: "s_functionNamesSize", scope: !1625, file: !1626, line: 434, baseType: !1673, flags: DIFlagPublic | DIFlagStaticMember)
!1673 = !DIDerivedType(tag: DW_TAG_const_type, baseType: !1674)
!1674 = !DIDerivedType(tag: DW_TAG_typedef, name: "SizeType", scope: !1625, file: !1626, line: 94, baseType: !24)
