; ModuleID = 'NodeNameTreeWalker.cpp'
source_filename = "NodeNameTreeWalker.cpp"
target datalayout = "e-m:e-p270:32:32-p271:32:32-p272:64:64-i64:64-f80:128-n8:16:32:64-S128"
target triple = "x86_64-unknown-linux-gnu"

%"class.xalanc_1_10::NodeNameTreeWalker" = type { %"class.xalanc_1_10::TreeWalker", %"class.xalanc_1_10::XalanDOMString", %"class.xalanc_1_10::XalanVector.0" }
%"class.xalanc_1_10::TreeWalker" = type { i32 (...)** }
%"class.xalanc_1_10::XalanDOMString" = type <{ %"class.xalanc_1_10::XalanVector", i32, [4 x i8] }>
%"class.xalanc_1_10::XalanVector" = type { %"class.xercesc_2_7::MemoryManager"*, i64, i64, i16* }
%"class.xalanc_1_10::XalanVector.0" = type { %"class.xercesc_2_7::MemoryManager"*, i64, i64, %"class.xalanc_1_10::XalanNode"** }
%"class.xalanc_1_10::XalanNode" = type { i32 (...)** }
%"class.xercesc_2_7::MemoryManager" = type { i32 (...)** }
%"struct.std::random_access_iterator_tag" = type { i8 }

$_ZN11xalanc_1_1011XalanVectorIPKNS_9XalanNodeENS_31MemoryManagedConstructionTraitsIS3_EEEC2ERN11xercesc_2_713MemoryManagerEm = comdat any

$_ZN11xalanc_1_1014XalanDOMStringD2Ev = comdat any

$_ZN11xalanc_1_1011XalanVectorIPKNS_9XalanNodeENS_31MemoryManagedConstructionTraitsIS3_EEED2Ev = comdat any

$_ZN11xalanc_1_1014XalanDOMStringaSERKS0_ = comdat any

$_ZN11xalanc_1_1011XalanVectorIPKNS_9XalanNodeENS_31MemoryManagedConstructionTraitsIS3_EEE5clearEv = comdat any

$_ZN11xalanc_1_106equalsERKNS_14XalanDOMStringES2_ = comdat any

$_ZN11xalanc_1_1011XalanVectorIPKNS_9XalanNodeENS_31MemoryManagedConstructionTraitsIS3_EEE9push_backERKS3_ = comdat any

$_ZN11xalanc_1_1011XalanVectorItNS_31MemoryManagedConstructionTraitsItEEED2Ev = comdat any

$_ZNK11xalanc_1_1011XalanVectorItNS_31MemoryManagedConstructionTraitsItEEE10invariantsEv = comdat any

$__clang_call_terminate = comdat any

$_ZN11xalanc_1_1011XalanVectorItNS_31MemoryManagedConstructionTraitsItEEE7destroyEPtS4_ = comdat any

$_ZN11xalanc_1_1011XalanVectorItNS_31MemoryManagedConstructionTraitsItEEE5beginEv = comdat any

$_ZN11xalanc_1_1011XalanVectorItNS_31MemoryManagedConstructionTraitsItEEE3endEv = comdat any

$_ZN11xalanc_1_1011XalanVectorItNS_31MemoryManagedConstructionTraitsItEEE10deallocateEPt = comdat any

$_ZN11xalanc_1_1011XalanVectorItNS_31MemoryManagedConstructionTraitsItEEE7destroyERt = comdat any

$_ZN11xalanc_1_1011XalanVectorItNS_31MemoryManagedConstructionTraitsItEEE10endPointerEv = comdat any

$_ZN11xalanc_1_1014XalanDOMString6assignERKS0_ = comdat any

$_ZNK11xalanc_1_1014XalanDOMString10invariantsEv = comdat any

$_ZN11xalanc_1_1011XalanVectorItNS_31MemoryManagedConstructionTraitsItEEEaSERKS3_ = comdat any

$_ZN11xalanc_1_1011XalanVectorItNS_31MemoryManagedConstructionTraitsItEEEC2ERKS3_RN11xercesc_2_713MemoryManagerEm = comdat any

$_ZN11xalanc_1_1011XalanVectorItNS_31MemoryManagedConstructionTraitsItEEE4swapERS3_ = comdat any

$_ZNK11xalanc_1_1011XalanVectorItNS_31MemoryManagedConstructionTraitsItEEE3endEv = comdat any

$_ZN11xalanc_1_1011XalanVectorItNS_31MemoryManagedConstructionTraitsItEEE12shrinkToSizeEm = comdat any

$_ZNK11xalanc_1_1011XalanVectorItNS_31MemoryManagedConstructionTraitsItEEE5beginEv = comdat any

$_ZN11xalanc_1_1011XalanVectorItNS_31MemoryManagedConstructionTraitsItEEE6insertEPtPKtS6_ = comdat any

$_ZSt4copyIPKtPtET0_T_S4_S3_ = comdat any

$_ZN11xalanc_1_1011XalanVectorItNS_31MemoryManagedConstructionTraitsItEEE9local_maxEmm = comdat any

$_ZN11xalanc_1_1011XalanVectorItNS_31MemoryManagedConstructionTraitsItEEEC2ERN11xercesc_2_713MemoryManagerEm = comdat any

$_ZN11xalanc_1_1011XalanVectorItNS_31MemoryManagedConstructionTraitsItEEE8allocateEm = comdat any

$_ZNK11xalanc_1_1011XalanVectorItNS_31MemoryManagedConstructionTraitsItEEE10endPointerEv = comdat any

$_ZN11xalanc_1_1011XalanVectorItNS_31MemoryManagedConstructionTraitsItEEE8pop_backEv = comdat any

$_ZN11xalanc_1_1011XalanVectorItNS_31MemoryManagedConstructionTraitsItEEE14local_distanceEPKtS5_ = comdat any

$_ZNK11xalanc_1_1011XalanVectorItNS_31MemoryManagedConstructionTraitsItEEE4sizeEv = comdat any

$_ZN11xalanc_1_1011XalanVectorItNS_31MemoryManagedConstructionTraitsItEEE14ensureCapacityEm = comdat any

$_ZN11xalanc_1_1028ConstructWithNoMemoryManagerItE9constructEPtRKtRN11xercesc_2_713MemoryManagerE = comdat any

$_ZNK11xalanc_1_1011XalanVectorItNS_31MemoryManagedConstructionTraitsItEEE8capacityEv = comdat any

$_ZN11xalanc_1_1011XalanVectorItNS_31MemoryManagedConstructionTraitsItEEE10doPushBackERKt = comdat any

$_ZSt13copy_backwardIPtS0_ET0_T_S2_S1_ = comdat any

$_ZSt8distanceIPKtENSt15iterator_traitsIT_E15difference_typeES3_S3_ = comdat any

$_ZSt10__distanceIPKtENSt15iterator_traitsIT_E15difference_typeES3_S3_St26random_access_iterator_tag = comdat any

$_ZSt19__iterator_categoryIPKtENSt15iterator_traitsIT_E17iterator_categoryERKS3_ = comdat any

$_ZN11xalanc_1_1011XalanVectorItNS_31MemoryManagedConstructionTraitsItEEE9doReserveEm = comdat any

$_ZSt22__copy_move_backward_aILb0EPtS0_ET1_T0_S2_S1_ = comdat any

$_ZSt12__miter_baseIPtET_S1_ = comdat any

$_ZSt12__niter_wrapIPtET_RKS1_S1_ = comdat any

$_ZSt23__copy_move_backward_a1ILb0EPtS0_ET1_T0_S2_S1_ = comdat any

$_ZSt12__niter_baseIPtET_S1_ = comdat any

$_ZSt23__copy_move_backward_a2ILb0EPtS0_ET1_T0_S2_S1_ = comdat any

$_ZNSt20__copy_move_backwardILb0ELb1ESt26random_access_iterator_tagE13__copy_move_bItEEPT_PKS3_S6_S4_ = comdat any

$_ZSt13__copy_move_aILb0EPKtPtET1_T0_S4_S3_ = comdat any

$_ZSt12__miter_baseIPKtET_S2_ = comdat any

$_ZSt14__copy_move_a1ILb0EPKtPtET1_T0_S4_S3_ = comdat any

$_ZSt12__niter_baseIPKtET_S2_ = comdat any

$_ZSt14__copy_move_a2ILb0EPKtPtET1_T0_S4_S3_ = comdat any

$_ZNSt11__copy_moveILb0ELb1ESt26random_access_iterator_tagE8__copy_mItEEPT_PKS3_S6_S4_ = comdat any

$_ZN11xalanc_1_10eqERKNS_14XalanDOMStringES2_ = comdat any

$_ZN11xalanc_1_1011XalanVectorIPKNS_9XalanNodeENS_31MemoryManagedConstructionTraitsIS3_EEE8allocateEm = comdat any

$_ZNK11xalanc_1_1011XalanVectorIPKNS_9XalanNodeENS_31MemoryManagedConstructionTraitsIS3_EEE10invariantsEv = comdat any

$_ZN11xalanc_1_1011XalanVectorIPKNS_9XalanNodeENS_31MemoryManagedConstructionTraitsIS3_EEE7destroyEPS3_S7_ = comdat any

$_ZN11xalanc_1_1011XalanVectorIPKNS_9XalanNodeENS_31MemoryManagedConstructionTraitsIS3_EEE5beginEv = comdat any

$_ZN11xalanc_1_1011XalanVectorIPKNS_9XalanNodeENS_31MemoryManagedConstructionTraitsIS3_EEE3endEv = comdat any

$_ZN11xalanc_1_1011XalanVectorIPKNS_9XalanNodeENS_31MemoryManagedConstructionTraitsIS3_EEE10deallocateEPS3_ = comdat any

$_ZN11xalanc_1_1011XalanVectorIPKNS_9XalanNodeENS_31MemoryManagedConstructionTraitsIS3_EEE7destroyERS3_ = comdat any

$_ZN11xalanc_1_1011XalanVectorIPKNS_9XalanNodeENS_31MemoryManagedConstructionTraitsIS3_EEE10endPointerEv = comdat any

$_ZN11xalanc_1_1011XalanVectorIPKNS_9XalanNodeENS_31MemoryManagedConstructionTraitsIS3_EEE12shrinkToSizeEm = comdat any

$_ZN11xalanc_1_1011XalanVectorIPKNS_9XalanNodeENS_31MemoryManagedConstructionTraitsIS3_EEE8pop_backEv = comdat any

$_ZN11xalanc_1_1011XalanVectorIPKNS_9XalanNodeENS_31MemoryManagedConstructionTraitsIS3_EEE10doPushBackERKS3_ = comdat any

$_ZN11xalanc_1_1028ConstructWithNoMemoryManagerIPKNS_9XalanNodeEE9constructEPS3_RKS3_RN11xercesc_2_713MemoryManagerE = comdat any

$_ZN11xalanc_1_1011XalanVectorIPKNS_9XalanNodeENS_31MemoryManagedConstructionTraitsIS3_EEEC2ERKS6_RN11xercesc_2_713MemoryManagerEm = comdat any

$_ZN11xalanc_1_1011XalanVectorIPKNS_9XalanNodeENS_31MemoryManagedConstructionTraitsIS3_EEE4swapERS6_ = comdat any

$_ZN11xalanc_1_1011XalanVectorIPKNS_9XalanNodeENS_31MemoryManagedConstructionTraitsIS3_EEE9local_maxEmm = comdat any

$_ZN11xalanc_1_1011XalanVectorIPKNS_9XalanNodeENS_31MemoryManagedConstructionTraitsIS3_EEE6insertEPS3_PKS3_S9_ = comdat any

$_ZNK11xalanc_1_1011XalanVectorIPKNS_9XalanNodeENS_31MemoryManagedConstructionTraitsIS3_EEE5beginEv = comdat any

$_ZNK11xalanc_1_1011XalanVectorIPKNS_9XalanNodeENS_31MemoryManagedConstructionTraitsIS3_EEE3endEv = comdat any

$_ZN11xalanc_1_1011XalanVectorIPKNS_9XalanNodeENS_31MemoryManagedConstructionTraitsIS3_EEE14local_distanceEPKS3_S8_ = comdat any

$_ZNK11xalanc_1_1011XalanVectorIPKNS_9XalanNodeENS_31MemoryManagedConstructionTraitsIS3_EEE4sizeEv = comdat any

$_ZN11xalanc_1_1011XalanVectorIPKNS_9XalanNodeENS_31MemoryManagedConstructionTraitsIS3_EEE14ensureCapacityEm = comdat any

$_ZNK11xalanc_1_1011XalanVectorIPKNS_9XalanNodeENS_31MemoryManagedConstructionTraitsIS3_EEE8capacityEv = comdat any

$_ZSt4copyIPKPKN11xalanc_1_109XalanNodeEPS3_ET0_T_S8_S7_ = comdat any

$_ZSt13copy_backwardIPPKN11xalanc_1_109XalanNodeES4_ET0_T_S6_S5_ = comdat any

$_ZSt8distanceIPKPKN11xalanc_1_109XalanNodeEENSt15iterator_traitsIT_E15difference_typeES7_S7_ = comdat any

$_ZSt10__distanceIPKPKN11xalanc_1_109XalanNodeEENSt15iterator_traitsIT_E15difference_typeES7_S7_St26random_access_iterator_tag = comdat any

$_ZSt19__iterator_categoryIPKPKN11xalanc_1_109XalanNodeEENSt15iterator_traitsIT_E17iterator_categoryERKS7_ = comdat any

$_ZN11xalanc_1_1011XalanVectorIPKNS_9XalanNodeENS_31MemoryManagedConstructionTraitsIS3_EEE9doReserveEm = comdat any

$_ZSt13__copy_move_aILb0EPKPKN11xalanc_1_109XalanNodeEPS3_ET1_T0_S8_S7_ = comdat any

$_ZSt12__miter_baseIPKPKN11xalanc_1_109XalanNodeEET_S6_ = comdat any

$_ZSt12__niter_wrapIPPKN11xalanc_1_109XalanNodeEET_RKS5_S5_ = comdat any

$_ZSt14__copy_move_a1ILb0EPKPKN11xalanc_1_109XalanNodeEPS3_ET1_T0_S8_S7_ = comdat any

$_ZSt12__niter_baseIPKPKN11xalanc_1_109XalanNodeEET_S6_ = comdat any

$_ZSt12__niter_baseIPPKN11xalanc_1_109XalanNodeEET_S5_ = comdat any

$_ZSt14__copy_move_a2ILb0EPKPKN11xalanc_1_109XalanNodeEPS3_ET1_T0_S8_S7_ = comdat any

$_ZNSt11__copy_moveILb0ELb1ESt26random_access_iterator_tagE8__copy_mIPKN11xalanc_1_109XalanNodeEEEPT_PKS7_SA_S8_ = comdat any

$_ZSt22__copy_move_backward_aILb0EPPKN11xalanc_1_109XalanNodeES4_ET1_T0_S6_S5_ = comdat any

$_ZSt12__miter_baseIPPKN11xalanc_1_109XalanNodeEET_S5_ = comdat any

$_ZSt23__copy_move_backward_a1ILb0EPPKN11xalanc_1_109XalanNodeES4_ET1_T0_S6_S5_ = comdat any

$_ZSt23__copy_move_backward_a2ILb0EPPKN11xalanc_1_109XalanNodeES4_ET1_T0_S6_S5_ = comdat any

$_ZNSt20__copy_move_backwardILb0ELb1ESt26random_access_iterator_tagE13__copy_move_bIPKN11xalanc_1_109XalanNodeEEEPT_PKS7_SA_S8_ = comdat any

$_ZNK11xalanc_1_1011XalanVectorIPKNS_9XalanNodeENS_31MemoryManagedConstructionTraitsIS3_EEE10endPointerEv = comdat any

@_ZTVN11xalanc_1_1018NodeNameTreeWalkerE = dso_local unnamed_addr constant { [12 x i8*] } { [12 x i8*] [i8* null, i8* bitcast ({ i8*, i8*, i8* }* @_ZTIN11xalanc_1_1018NodeNameTreeWalkerE to i8*), i8* bitcast (void (%"class.xalanc_1_10::NodeNameTreeWalker"*)* @_ZN11xalanc_1_1018NodeNameTreeWalkerD1Ev to i8*), i8* bitcast (void (%"class.xalanc_1_10::NodeNameTreeWalker"*)* @_ZN11xalanc_1_1018NodeNameTreeWalkerD0Ev to i8*), i8* bitcast (void (%"class.xalanc_1_10::TreeWalker"*, %"class.xalanc_1_10::XalanNode"*)* @_ZN11xalanc_1_1010TreeWalker15traverseSubtreeEPKNS_9XalanNodeE to i8*), i8* bitcast (void (%"class.xalanc_1_10::TreeWalker"*, %"class.xalanc_1_10::XalanNode"*)* @_ZN11xalanc_1_1010TreeWalker15traverseSubtreeEPNS_9XalanNodeE to i8*), i8* bitcast (i1 (%"class.xalanc_1_10::NodeNameTreeWalker"*, %"class.xalanc_1_10::XalanNode"*)* @_ZN11xalanc_1_1018NodeNameTreeWalker9startNodeEPKNS_9XalanNodeE to i8*), i8* bitcast (i1 (%"class.xalanc_1_10::NodeNameTreeWalker"*, %"class.xalanc_1_10::XalanNode"*)* @_ZN11xalanc_1_1018NodeNameTreeWalker9startNodeEPNS_9XalanNodeE to i8*), i8* bitcast (i1 (%"class.xalanc_1_10::NodeNameTreeWalker"*, %"class.xalanc_1_10::XalanNode"*)* @_ZN11xalanc_1_1018NodeNameTreeWalker7endNodeEPKNS_9XalanNodeE to i8*), i8* bitcast (i1 (%"class.xalanc_1_10::NodeNameTreeWalker"*, %"class.xalanc_1_10::XalanNode"*)* @_ZN11xalanc_1_1018NodeNameTreeWalker7endNodeEPNS_9XalanNodeE to i8*), i8* bitcast (void (%"class.xalanc_1_10::NodeNameTreeWalker"*, %"class.xalanc_1_10::XalanDOMString"*, %"class.xalanc_1_10::XalanNode"*)* @_ZN11xalanc_1_1018NodeNameTreeWalker17findMatchingNodesERKNS_14XalanDOMStringEPKNS_9XalanNodeE to i8*), i8* bitcast (void (%"class.xalanc_1_10::NodeNameTreeWalker"*, %"class.xalanc_1_10::XalanDOMString"*, %"class.xalanc_1_10::XalanNode"*)* @_ZN11xalanc_1_1018NodeNameTreeWalker17findMatchingNodesERKNS_14XalanDOMStringEPNS_9XalanNodeE to i8*)] }, align 8
@_ZTVN10__cxxabiv120__si_class_type_infoE = external dso_local global i8*
@_ZTSN11xalanc_1_1018NodeNameTreeWalkerE = dso_local constant [36 x i8] c"N11xalanc_1_1018NodeNameTreeWalkerE\00", align 1
@_ZTIN11xalanc_1_1010TreeWalkerE = external dso_local constant i8*
@_ZTIN11xalanc_1_1018NodeNameTreeWalkerE = dso_local constant { i8*, i8*, i8* } { i8* bitcast (i8** getelementptr inbounds (i8*, i8** @_ZTVN10__cxxabiv120__si_class_type_infoE, i64 2) to i8*), i8* getelementptr inbounds ([36 x i8], [36 x i8]* @_ZTSN11xalanc_1_1018NodeNameTreeWalkerE, i32 0, i32 0), i8* bitcast (i8** @_ZTIN11xalanc_1_1010TreeWalkerE to i8*) }, align 8

@_ZN11xalanc_1_1018NodeNameTreeWalkerC1ERN11xercesc_2_713MemoryManagerE = dso_local unnamed_addr alias void (%"class.xalanc_1_10::NodeNameTreeWalker"*, %"class.xercesc_2_7::MemoryManager"*), void (%"class.xalanc_1_10::NodeNameTreeWalker"*, %"class.xercesc_2_7::MemoryManager"*)* @_ZN11xalanc_1_1018NodeNameTreeWalkerC2ERN11xercesc_2_713MemoryManagerE
@_ZN11xalanc_1_1018NodeNameTreeWalkerD1Ev = dso_local unnamed_addr alias void (%"class.xalanc_1_10::NodeNameTreeWalker"*), void (%"class.xalanc_1_10::NodeNameTreeWalker"*)* @_ZN11xalanc_1_1018NodeNameTreeWalkerD2Ev

; Function Attrs: noinline uwtable
define dso_local void @_ZN11xalanc_1_1018NodeNameTreeWalkerC2ERN11xercesc_2_713MemoryManagerE(%"class.xalanc_1_10::NodeNameTreeWalker"* %this, %"class.xercesc_2_7::MemoryManager"* dereferenceable(8) %theManager) unnamed_addr #0 align 2 personality i8* bitcast (i32 (...)* @__gxx_personality_v0 to i8*) !dbg !1426 {
entry:
  %this.addr = alloca %"class.xalanc_1_10::NodeNameTreeWalker"*, align 8
  %theManager.addr = alloca %"class.xercesc_2_7::MemoryManager"*, align 8
  %exn.slot = alloca i8*
  %ehselector.slot = alloca i32
  store %"class.xalanc_1_10::NodeNameTreeWalker"* %this, %"class.xalanc_1_10::NodeNameTreeWalker"** %this.addr, align 8
  call void @llvm.dbg.declare(metadata %"class.xalanc_1_10::NodeNameTreeWalker"** %this.addr, metadata !1883, metadata !DIExpression()), !dbg !1885
  store %"class.xercesc_2_7::MemoryManager"* %theManager, %"class.xercesc_2_7::MemoryManager"** %theManager.addr, align 8
  call void @llvm.dbg.declare(metadata %"class.xercesc_2_7::MemoryManager"** %theManager.addr, metadata !1886, metadata !DIExpression()), !dbg !1887
  %this1 = load %"class.xalanc_1_10::NodeNameTreeWalker"*, %"class.xalanc_1_10::NodeNameTreeWalker"** %this.addr, align 8
  %0 = bitcast %"class.xalanc_1_10::NodeNameTreeWalker"* %this1 to %"class.xalanc_1_10::TreeWalker"*, !dbg !1888
  call void @_ZN11xalanc_1_1010TreeWalkerC2Ev(%"class.xalanc_1_10::TreeWalker"* %0), !dbg !1889
  %1 = bitcast %"class.xalanc_1_10::NodeNameTreeWalker"* %this1 to i32 (...)***, !dbg !1888
  store i32 (...)** bitcast (i8** getelementptr inbounds ({ [12 x i8*] }, { [12 x i8*] }* @_ZTVN11xalanc_1_1018NodeNameTreeWalkerE, i32 0, inrange i32 0, i32 2) to i32 (...)**), i32 (...)*** %1, align 8, !dbg !1888
  %m_nodeName = getelementptr inbounds %"class.xalanc_1_10::NodeNameTreeWalker", %"class.xalanc_1_10::NodeNameTreeWalker"* %this1, i32 0, i32 1, !dbg !1890
  %2 = load %"class.xercesc_2_7::MemoryManager"*, %"class.xercesc_2_7::MemoryManager"** %theManager.addr, align 8, !dbg !1891
  invoke void @_ZN11xalanc_1_1014XalanDOMStringC1ERN11xercesc_2_713MemoryManagerE(%"class.xalanc_1_10::XalanDOMString"* %m_nodeName, %"class.xercesc_2_7::MemoryManager"* dereferenceable(8) %2)
          to label %invoke.cont unwind label %lpad, !dbg !1890

invoke.cont:                                      ; preds = %entry
  %m_matchingNodes = getelementptr inbounds %"class.xalanc_1_10::NodeNameTreeWalker", %"class.xalanc_1_10::NodeNameTreeWalker"* %this1, i32 0, i32 2, !dbg !1892
  %3 = load %"class.xercesc_2_7::MemoryManager"*, %"class.xercesc_2_7::MemoryManager"** %theManager.addr, align 8, !dbg !1893
  invoke void @_ZN11xalanc_1_1011XalanVectorIPKNS_9XalanNodeENS_31MemoryManagedConstructionTraitsIS3_EEEC2ERN11xercesc_2_713MemoryManagerEm(%"class.xalanc_1_10::XalanVector.0"* %m_matchingNodes, %"class.xercesc_2_7::MemoryManager"* dereferenceable(8) %3, i64 0)
          to label %invoke.cont3 unwind label %lpad2, !dbg !1892

invoke.cont3:                                     ; preds = %invoke.cont
  ret void, !dbg !1894

lpad:                                             ; preds = %entry
  %4 = landingpad { i8*, i32 }
          cleanup, !dbg !1894
  %5 = extractvalue { i8*, i32 } %4, 0, !dbg !1894
  store i8* %5, i8** %exn.slot, align 8, !dbg !1894
  %6 = extractvalue { i8*, i32 } %4, 1, !dbg !1894
  store i32 %6, i32* %ehselector.slot, align 4, !dbg !1894
  br label %ehcleanup, !dbg !1894

lpad2:                                            ; preds = %invoke.cont
  %7 = landingpad { i8*, i32 }
          cleanup, !dbg !1894
  %8 = extractvalue { i8*, i32 } %7, 0, !dbg !1894
  store i8* %8, i8** %exn.slot, align 8, !dbg !1894
  %9 = extractvalue { i8*, i32 } %7, 1, !dbg !1894
  store i32 %9, i32* %ehselector.slot, align 4, !dbg !1894
  call void @_ZN11xalanc_1_1014XalanDOMStringD2Ev(%"class.xalanc_1_10::XalanDOMString"* %m_nodeName) #8, !dbg !1895
  br label %ehcleanup, !dbg !1895

ehcleanup:                                        ; preds = %lpad2, %lpad
  %10 = bitcast %"class.xalanc_1_10::NodeNameTreeWalker"* %this1 to %"class.xalanc_1_10::TreeWalker"*, !dbg !1895
  call void @_ZN11xalanc_1_1010TreeWalkerD2Ev(%"class.xalanc_1_10::TreeWalker"* %10) #8, !dbg !1895
  br label %eh.resume, !dbg !1895

eh.resume:                                        ; preds = %ehcleanup
  %exn = load i8*, i8** %exn.slot, align 8, !dbg !1895
  %sel = load i32, i32* %ehselector.slot, align 4, !dbg !1895
  %lpad.val = insertvalue { i8*, i32 } undef, i8* %exn, 0, !dbg !1895
  %lpad.val4 = insertvalue { i8*, i32 } %lpad.val, i32 %sel, 1, !dbg !1895
  resume { i8*, i32 } %lpad.val4, !dbg !1895
}

; Function Attrs: nounwind readnone speculatable willreturn
declare void @llvm.dbg.declare(metadata, metadata, metadata) #1

declare dso_local void @_ZN11xalanc_1_1010TreeWalkerC2Ev(%"class.xalanc_1_10::TreeWalker"*) unnamed_addr #2

declare dso_local void @_ZN11xalanc_1_1014XalanDOMStringC1ERN11xercesc_2_713MemoryManagerE(%"class.xalanc_1_10::XalanDOMString"*, %"class.xercesc_2_7::MemoryManager"* dereferenceable(8)) unnamed_addr #2

declare dso_local i32 @__gxx_personality_v0(...)

; Function Attrs: noinline uwtable
define linkonce_odr dso_local void @_ZN11xalanc_1_1011XalanVectorIPKNS_9XalanNodeENS_31MemoryManagedConstructionTraitsIS3_EEEC2ERN11xercesc_2_713MemoryManagerEm(%"class.xalanc_1_10::XalanVector.0"* %this, %"class.xercesc_2_7::MemoryManager"* dereferenceable(8) %theManager, i64 %initialAllocation) unnamed_addr #0 comdat align 2 !dbg !1897 {
entry:
  %this.addr = alloca %"class.xalanc_1_10::XalanVector.0"*, align 8
  %theManager.addr = alloca %"class.xercesc_2_7::MemoryManager"*, align 8
  %initialAllocation.addr = alloca i64, align 8
  store %"class.xalanc_1_10::XalanVector.0"* %this, %"class.xalanc_1_10::XalanVector.0"** %this.addr, align 8
  call void @llvm.dbg.declare(metadata %"class.xalanc_1_10::XalanVector.0"** %this.addr, metadata !1898, metadata !DIExpression()), !dbg !1899
  store %"class.xercesc_2_7::MemoryManager"* %theManager, %"class.xercesc_2_7::MemoryManager"** %theManager.addr, align 8
  call void @llvm.dbg.declare(metadata %"class.xercesc_2_7::MemoryManager"** %theManager.addr, metadata !1900, metadata !DIExpression()), !dbg !1901
  store i64 %initialAllocation, i64* %initialAllocation.addr, align 8
  call void @llvm.dbg.declare(metadata i64* %initialAllocation.addr, metadata !1902, metadata !DIExpression()), !dbg !1903
  %this1 = load %"class.xalanc_1_10::XalanVector.0"*, %"class.xalanc_1_10::XalanVector.0"** %this.addr, align 8
  %m_memoryManager = getelementptr inbounds %"class.xalanc_1_10::XalanVector.0", %"class.xalanc_1_10::XalanVector.0"* %this1, i32 0, i32 0, !dbg !1904
  %0 = load %"class.xercesc_2_7::MemoryManager"*, %"class.xercesc_2_7::MemoryManager"** %theManager.addr, align 8, !dbg !1905
  store %"class.xercesc_2_7::MemoryManager"* %0, %"class.xercesc_2_7::MemoryManager"** %m_memoryManager, align 8, !dbg !1904
  %m_size = getelementptr inbounds %"class.xalanc_1_10::XalanVector.0", %"class.xalanc_1_10::XalanVector.0"* %this1, i32 0, i32 1, !dbg !1906
  store i64 0, i64* %m_size, align 8, !dbg !1906
  %m_allocation = getelementptr inbounds %"class.xalanc_1_10::XalanVector.0", %"class.xalanc_1_10::XalanVector.0"* %this1, i32 0, i32 2, !dbg !1907
  %1 = load i64, i64* %initialAllocation.addr, align 8, !dbg !1908
  store i64 %1, i64* %m_allocation, align 8, !dbg !1907
  %m_data = getelementptr inbounds %"class.xalanc_1_10::XalanVector.0", %"class.xalanc_1_10::XalanVector.0"* %this1, i32 0, i32 3, !dbg !1909
  %2 = load i64, i64* %initialAllocation.addr, align 8, !dbg !1910
  %cmp = icmp ugt i64 %2, 0, !dbg !1911
  br i1 %cmp, label %cond.true, label %cond.false, !dbg !1910

cond.true:                                        ; preds = %entry
  %3 = load i64, i64* %initialAllocation.addr, align 8, !dbg !1912
  %call = call %"class.xalanc_1_10::XalanNode"** @_ZN11xalanc_1_1011XalanVectorIPKNS_9XalanNodeENS_31MemoryManagedConstructionTraitsIS3_EEE8allocateEm(%"class.xalanc_1_10::XalanVector.0"* %this1, i64 %3), !dbg !1913
  br label %cond.end, !dbg !1910

cond.false:                                       ; preds = %entry
  br label %cond.end, !dbg !1910

cond.end:                                         ; preds = %cond.false, %cond.true
  %cond = phi %"class.xalanc_1_10::XalanNode"** [ %call, %cond.true ], [ null, %cond.false ], !dbg !1910
  store %"class.xalanc_1_10::XalanNode"** %cond, %"class.xalanc_1_10::XalanNode"*** %m_data, align 8, !dbg !1909
  call void @_ZNK11xalanc_1_1011XalanVectorIPKNS_9XalanNodeENS_31MemoryManagedConstructionTraitsIS3_EEE10invariantsEv(%"class.xalanc_1_10::XalanVector.0"* %this1), !dbg !1914
  ret void, !dbg !1916
}

; Function Attrs: noinline nounwind uwtable
define linkonce_odr dso_local void @_ZN11xalanc_1_1014XalanDOMStringD2Ev(%"class.xalanc_1_10::XalanDOMString"* %this) unnamed_addr #3 comdat align 2 !dbg !1917 {
entry:
  %this.addr = alloca %"class.xalanc_1_10::XalanDOMString"*, align 8
  store %"class.xalanc_1_10::XalanDOMString"* %this, %"class.xalanc_1_10::XalanDOMString"** %this.addr, align 8
  call void @llvm.dbg.declare(metadata %"class.xalanc_1_10::XalanDOMString"** %this.addr, metadata !1918, metadata !DIExpression()), !dbg !1919
  %this1 = load %"class.xalanc_1_10::XalanDOMString"*, %"class.xalanc_1_10::XalanDOMString"** %this.addr, align 8
  %m_data = getelementptr inbounds %"class.xalanc_1_10::XalanDOMString", %"class.xalanc_1_10::XalanDOMString"* %this1, i32 0, i32 0, !dbg !1920
  call void @_ZN11xalanc_1_1011XalanVectorItNS_31MemoryManagedConstructionTraitsItEEED2Ev(%"class.xalanc_1_10::XalanVector"* %m_data) #8, !dbg !1920
  ret void, !dbg !1922
}

; Function Attrs: nounwind
declare dso_local void @_ZN11xalanc_1_1010TreeWalkerD2Ev(%"class.xalanc_1_10::TreeWalker"*) unnamed_addr #4

; Function Attrs: noinline nounwind uwtable
define dso_local void @_ZN11xalanc_1_1018NodeNameTreeWalkerD2Ev(%"class.xalanc_1_10::NodeNameTreeWalker"* %this) unnamed_addr #3 align 2 !dbg !1923 {
entry:
  %this.addr = alloca %"class.xalanc_1_10::NodeNameTreeWalker"*, align 8
  store %"class.xalanc_1_10::NodeNameTreeWalker"* %this, %"class.xalanc_1_10::NodeNameTreeWalker"** %this.addr, align 8
  call void @llvm.dbg.declare(metadata %"class.xalanc_1_10::NodeNameTreeWalker"** %this.addr, metadata !1924, metadata !DIExpression()), !dbg !1925
  %this1 = load %"class.xalanc_1_10::NodeNameTreeWalker"*, %"class.xalanc_1_10::NodeNameTreeWalker"** %this.addr, align 8
  %0 = bitcast %"class.xalanc_1_10::NodeNameTreeWalker"* %this1 to i32 (...)***, !dbg !1926
  store i32 (...)** bitcast (i8** getelementptr inbounds ({ [12 x i8*] }, { [12 x i8*] }* @_ZTVN11xalanc_1_1018NodeNameTreeWalkerE, i32 0, inrange i32 0, i32 2) to i32 (...)**), i32 (...)*** %0, align 8, !dbg !1926
  %m_matchingNodes = getelementptr inbounds %"class.xalanc_1_10::NodeNameTreeWalker", %"class.xalanc_1_10::NodeNameTreeWalker"* %this1, i32 0, i32 2, !dbg !1927
  call void @_ZN11xalanc_1_1011XalanVectorIPKNS_9XalanNodeENS_31MemoryManagedConstructionTraitsIS3_EEED2Ev(%"class.xalanc_1_10::XalanVector.0"* %m_matchingNodes) #8, !dbg !1927
  %m_nodeName = getelementptr inbounds %"class.xalanc_1_10::NodeNameTreeWalker", %"class.xalanc_1_10::NodeNameTreeWalker"* %this1, i32 0, i32 1, !dbg !1927
  call void @_ZN11xalanc_1_1014XalanDOMStringD2Ev(%"class.xalanc_1_10::XalanDOMString"* %m_nodeName) #8, !dbg !1927
  %1 = bitcast %"class.xalanc_1_10::NodeNameTreeWalker"* %this1 to %"class.xalanc_1_10::TreeWalker"*, !dbg !1927
  call void @_ZN11xalanc_1_1010TreeWalkerD2Ev(%"class.xalanc_1_10::TreeWalker"* %1) #8, !dbg !1927
  ret void, !dbg !1929
}

; Function Attrs: noinline nounwind uwtable
define linkonce_odr dso_local void @_ZN11xalanc_1_1011XalanVectorIPKNS_9XalanNodeENS_31MemoryManagedConstructionTraitsIS3_EEED2Ev(%"class.xalanc_1_10::XalanVector.0"* %this) unnamed_addr #3 comdat align 2 personality i8* bitcast (i32 (...)* @__gxx_personality_v0 to i8*) !dbg !1930 {
entry:
  %this.addr = alloca %"class.xalanc_1_10::XalanVector.0"*, align 8
  store %"class.xalanc_1_10::XalanVector.0"* %this, %"class.xalanc_1_10::XalanVector.0"** %this.addr, align 8
  call void @llvm.dbg.declare(metadata %"class.xalanc_1_10::XalanVector.0"** %this.addr, metadata !1931, metadata !DIExpression()), !dbg !1932
  %this1 = load %"class.xalanc_1_10::XalanVector.0"*, %"class.xalanc_1_10::XalanVector.0"** %this.addr, align 8
  invoke void @_ZNK11xalanc_1_1011XalanVectorIPKNS_9XalanNodeENS_31MemoryManagedConstructionTraitsIS3_EEE10invariantsEv(%"class.xalanc_1_10::XalanVector.0"* %this1)
          to label %invoke.cont unwind label %terminate.lpad, !dbg !1933

invoke.cont:                                      ; preds = %entry
  %m_allocation = getelementptr inbounds %"class.xalanc_1_10::XalanVector.0", %"class.xalanc_1_10::XalanVector.0"* %this1, i32 0, i32 2, !dbg !1935
  %0 = load i64, i64* %m_allocation, align 8, !dbg !1935
  %cmp = icmp ne i64 %0, 0, !dbg !1937
  br i1 %cmp, label %if.then, label %if.end, !dbg !1938

if.then:                                          ; preds = %invoke.cont
  %call = invoke %"class.xalanc_1_10::XalanNode"** @_ZN11xalanc_1_1011XalanVectorIPKNS_9XalanNodeENS_31MemoryManagedConstructionTraitsIS3_EEE5beginEv(%"class.xalanc_1_10::XalanVector.0"* %this1)
          to label %invoke.cont2 unwind label %terminate.lpad, !dbg !1939

invoke.cont2:                                     ; preds = %if.then
  %call4 = invoke %"class.xalanc_1_10::XalanNode"** @_ZN11xalanc_1_1011XalanVectorIPKNS_9XalanNodeENS_31MemoryManagedConstructionTraitsIS3_EEE3endEv(%"class.xalanc_1_10::XalanVector.0"* %this1)
          to label %invoke.cont3 unwind label %terminate.lpad, !dbg !1941

invoke.cont3:                                     ; preds = %invoke.cont2
  invoke void @_ZN11xalanc_1_1011XalanVectorIPKNS_9XalanNodeENS_31MemoryManagedConstructionTraitsIS3_EEE7destroyEPS3_S7_(%"class.xalanc_1_10::XalanNode"** %call, %"class.xalanc_1_10::XalanNode"** %call4)
          to label %invoke.cont5 unwind label %terminate.lpad, !dbg !1942

invoke.cont5:                                     ; preds = %invoke.cont3
  %m_data = getelementptr inbounds %"class.xalanc_1_10::XalanVector.0", %"class.xalanc_1_10::XalanVector.0"* %this1, i32 0, i32 3, !dbg !1943
  %1 = load %"class.xalanc_1_10::XalanNode"**, %"class.xalanc_1_10::XalanNode"*** %m_data, align 8, !dbg !1943
  invoke void @_ZN11xalanc_1_1011XalanVectorIPKNS_9XalanNodeENS_31MemoryManagedConstructionTraitsIS3_EEE10deallocateEPS3_(%"class.xalanc_1_10::XalanVector.0"* %this1, %"class.xalanc_1_10::XalanNode"** %1)
          to label %invoke.cont6 unwind label %terminate.lpad, !dbg !1944

invoke.cont6:                                     ; preds = %invoke.cont5
  br label %if.end, !dbg !1945

if.end:                                           ; preds = %invoke.cont6, %invoke.cont
  ret void, !dbg !1946

terminate.lpad:                                   ; preds = %invoke.cont5, %invoke.cont3, %invoke.cont2, %if.then, %entry
  %2 = landingpad { i8*, i32 }
          catch i8* null, !dbg !1933
  %3 = extractvalue { i8*, i32 } %2, 0, !dbg !1933
  call void @__clang_call_terminate(i8* %3) #9, !dbg !1933
  unreachable, !dbg !1933
}

; Function Attrs: noinline nounwind uwtable
define dso_local void @_ZN11xalanc_1_1018NodeNameTreeWalkerD0Ev(%"class.xalanc_1_10::NodeNameTreeWalker"* %this) unnamed_addr #3 align 2 !dbg !1947 {
entry:
  %this.addr = alloca %"class.xalanc_1_10::NodeNameTreeWalker"*, align 8
  store %"class.xalanc_1_10::NodeNameTreeWalker"* %this, %"class.xalanc_1_10::NodeNameTreeWalker"** %this.addr, align 8
  call void @llvm.dbg.declare(metadata %"class.xalanc_1_10::NodeNameTreeWalker"** %this.addr, metadata !1948, metadata !DIExpression()), !dbg !1949
  %this1 = load %"class.xalanc_1_10::NodeNameTreeWalker"*, %"class.xalanc_1_10::NodeNameTreeWalker"** %this.addr, align 8
  call void @_ZN11xalanc_1_1018NodeNameTreeWalkerD1Ev(%"class.xalanc_1_10::NodeNameTreeWalker"* %this1) #8, !dbg !1950
  %0 = bitcast %"class.xalanc_1_10::NodeNameTreeWalker"* %this1 to i8*, !dbg !1950
  call void @_ZdlPv(i8* %0) #10, !dbg !1950
  ret void, !dbg !1951
}

; Function Attrs: nobuiltin nounwind
declare dso_local void @_ZdlPv(i8*) #5

; Function Attrs: noinline uwtable
define dso_local void @_ZN11xalanc_1_1018NodeNameTreeWalker17findMatchingNodesERKNS_14XalanDOMStringEPKNS_9XalanNodeE(%"class.xalanc_1_10::NodeNameTreeWalker"* %this, %"class.xalanc_1_10::XalanDOMString"* dereferenceable(40) %theNodeName, %"class.xalanc_1_10::XalanNode"* %theStartNode) unnamed_addr #0 align 2 !dbg !1952 {
entry:
  %this.addr = alloca %"class.xalanc_1_10::NodeNameTreeWalker"*, align 8
  %theNodeName.addr = alloca %"class.xalanc_1_10::XalanDOMString"*, align 8
  %theStartNode.addr = alloca %"class.xalanc_1_10::XalanNode"*, align 8
  store %"class.xalanc_1_10::NodeNameTreeWalker"* %this, %"class.xalanc_1_10::NodeNameTreeWalker"** %this.addr, align 8
  call void @llvm.dbg.declare(metadata %"class.xalanc_1_10::NodeNameTreeWalker"** %this.addr, metadata !1953, metadata !DIExpression()), !dbg !1954
  store %"class.xalanc_1_10::XalanDOMString"* %theNodeName, %"class.xalanc_1_10::XalanDOMString"** %theNodeName.addr, align 8
  call void @llvm.dbg.declare(metadata %"class.xalanc_1_10::XalanDOMString"** %theNodeName.addr, metadata !1955, metadata !DIExpression()), !dbg !1956
  store %"class.xalanc_1_10::XalanNode"* %theStartNode, %"class.xalanc_1_10::XalanNode"** %theStartNode.addr, align 8
  call void @llvm.dbg.declare(metadata %"class.xalanc_1_10::XalanNode"** %theStartNode.addr, metadata !1957, metadata !DIExpression()), !dbg !1958
  %this1 = load %"class.xalanc_1_10::NodeNameTreeWalker"*, %"class.xalanc_1_10::NodeNameTreeWalker"** %this.addr, align 8
  %0 = load %"class.xalanc_1_10::XalanDOMString"*, %"class.xalanc_1_10::XalanDOMString"** %theNodeName.addr, align 8, !dbg !1959
  %m_nodeName = getelementptr inbounds %"class.xalanc_1_10::NodeNameTreeWalker", %"class.xalanc_1_10::NodeNameTreeWalker"* %this1, i32 0, i32 1, !dbg !1960
  %call = call dereferenceable(40) %"class.xalanc_1_10::XalanDOMString"* @_ZN11xalanc_1_1014XalanDOMStringaSERKS0_(%"class.xalanc_1_10::XalanDOMString"* %m_nodeName, %"class.xalanc_1_10::XalanDOMString"* dereferenceable(40) %0), !dbg !1961
  %m_matchingNodes = getelementptr inbounds %"class.xalanc_1_10::NodeNameTreeWalker", %"class.xalanc_1_10::NodeNameTreeWalker"* %this1, i32 0, i32 2, !dbg !1962
  call void @_ZN11xalanc_1_1011XalanVectorIPKNS_9XalanNodeENS_31MemoryManagedConstructionTraitsIS3_EEE5clearEv(%"class.xalanc_1_10::XalanVector.0"* %m_matchingNodes), !dbg !1963
  %1 = bitcast %"class.xalanc_1_10::NodeNameTreeWalker"* %this1 to %"class.xalanc_1_10::TreeWalker"*, !dbg !1964
  %2 = load %"class.xalanc_1_10::XalanNode"*, %"class.xalanc_1_10::XalanNode"** %theStartNode.addr, align 8, !dbg !1965
  %3 = bitcast %"class.xalanc_1_10::XalanNode"* %2 to %"class.xalanc_1_10::XalanNode"* (%"class.xalanc_1_10::XalanNode"*)***, !dbg !1966
  %vtable = load %"class.xalanc_1_10::XalanNode"* (%"class.xalanc_1_10::XalanNode"*)**, %"class.xalanc_1_10::XalanNode"* (%"class.xalanc_1_10::XalanNode"*)*** %3, align 8, !dbg !1966
  %vfn = getelementptr inbounds %"class.xalanc_1_10::XalanNode"* (%"class.xalanc_1_10::XalanNode"*)*, %"class.xalanc_1_10::XalanNode"* (%"class.xalanc_1_10::XalanNode"*)** %vtable, i64 7, !dbg !1966
  %4 = load %"class.xalanc_1_10::XalanNode"* (%"class.xalanc_1_10::XalanNode"*)*, %"class.xalanc_1_10::XalanNode"* (%"class.xalanc_1_10::XalanNode"*)** %vfn, align 8, !dbg !1966
  %call2 = call %"class.xalanc_1_10::XalanNode"* %4(%"class.xalanc_1_10::XalanNode"* %2), !dbg !1966
  %5 = load %"class.xalanc_1_10::XalanNode"*, %"class.xalanc_1_10::XalanNode"** %theStartNode.addr, align 8, !dbg !1967
  %call3 = call %"class.xalanc_1_10::XalanNode"* @_ZN11xalanc_1_1010TreeWalker8traverseEPKNS_9XalanNodeES3_(%"class.xalanc_1_10::TreeWalker"* %1, %"class.xalanc_1_10::XalanNode"* %call2, %"class.xalanc_1_10::XalanNode"* %5), !dbg !1964
  ret void, !dbg !1968
}

; Function Attrs: noinline uwtable
define linkonce_odr dso_local dereferenceable(40) %"class.xalanc_1_10::XalanDOMString"* @_ZN11xalanc_1_1014XalanDOMStringaSERKS0_(%"class.xalanc_1_10::XalanDOMString"* %this, %"class.xalanc_1_10::XalanDOMString"* dereferenceable(40) %theRHS) #0 comdat align 2 !dbg !1969 {
entry:
  %this.addr = alloca %"class.xalanc_1_10::XalanDOMString"*, align 8
  %theRHS.addr = alloca %"class.xalanc_1_10::XalanDOMString"*, align 8
  store %"class.xalanc_1_10::XalanDOMString"* %this, %"class.xalanc_1_10::XalanDOMString"** %this.addr, align 8
  call void @llvm.dbg.declare(metadata %"class.xalanc_1_10::XalanDOMString"** %this.addr, metadata !1970, metadata !DIExpression()), !dbg !1971
  store %"class.xalanc_1_10::XalanDOMString"* %theRHS, %"class.xalanc_1_10::XalanDOMString"** %theRHS.addr, align 8
  call void @llvm.dbg.declare(metadata %"class.xalanc_1_10::XalanDOMString"** %theRHS.addr, metadata !1972, metadata !DIExpression()), !dbg !1973
  %this1 = load %"class.xalanc_1_10::XalanDOMString"*, %"class.xalanc_1_10::XalanDOMString"** %this.addr, align 8
  %0 = load %"class.xalanc_1_10::XalanDOMString"*, %"class.xalanc_1_10::XalanDOMString"** %theRHS.addr, align 8, !dbg !1974
  %call = call dereferenceable(40) %"class.xalanc_1_10::XalanDOMString"* @_ZN11xalanc_1_1014XalanDOMString6assignERKS0_(%"class.xalanc_1_10::XalanDOMString"* %this1, %"class.xalanc_1_10::XalanDOMString"* dereferenceable(40) %0), !dbg !1975
  ret %"class.xalanc_1_10::XalanDOMString"* %call, !dbg !1976
}

; Function Attrs: noinline uwtable
define linkonce_odr dso_local void @_ZN11xalanc_1_1011XalanVectorIPKNS_9XalanNodeENS_31MemoryManagedConstructionTraitsIS3_EEE5clearEv(%"class.xalanc_1_10::XalanVector.0"* %this) #0 comdat align 2 !dbg !1977 {
entry:
  %this.addr = alloca %"class.xalanc_1_10::XalanVector.0"*, align 8
  store %"class.xalanc_1_10::XalanVector.0"* %this, %"class.xalanc_1_10::XalanVector.0"** %this.addr, align 8
  call void @llvm.dbg.declare(metadata %"class.xalanc_1_10::XalanVector.0"** %this.addr, metadata !1978, metadata !DIExpression()), !dbg !1979
  %this1 = load %"class.xalanc_1_10::XalanVector.0"*, %"class.xalanc_1_10::XalanVector.0"** %this.addr, align 8
  call void @_ZNK11xalanc_1_1011XalanVectorIPKNS_9XalanNodeENS_31MemoryManagedConstructionTraitsIS3_EEE10invariantsEv(%"class.xalanc_1_10::XalanVector.0"* %this1), !dbg !1980
  %m_size = getelementptr inbounds %"class.xalanc_1_10::XalanVector.0", %"class.xalanc_1_10::XalanVector.0"* %this1, i32 0, i32 1, !dbg !1981
  %0 = load i64, i64* %m_size, align 8, !dbg !1981
  %cmp = icmp ugt i64 %0, 0, !dbg !1983
  br i1 %cmp, label %if.then, label %if.end, !dbg !1984

if.then:                                          ; preds = %entry
  call void @_ZN11xalanc_1_1011XalanVectorIPKNS_9XalanNodeENS_31MemoryManagedConstructionTraitsIS3_EEE12shrinkToSizeEm(%"class.xalanc_1_10::XalanVector.0"* %this1, i64 0), !dbg !1985
  br label %if.end, !dbg !1987

if.end:                                           ; preds = %if.then, %entry
  call void @_ZNK11xalanc_1_1011XalanVectorIPKNS_9XalanNodeENS_31MemoryManagedConstructionTraitsIS3_EEE10invariantsEv(%"class.xalanc_1_10::XalanVector.0"* %this1), !dbg !1988
  ret void, !dbg !1989
}

declare dso_local %"class.xalanc_1_10::XalanNode"* @_ZN11xalanc_1_1010TreeWalker8traverseEPKNS_9XalanNodeES3_(%"class.xalanc_1_10::TreeWalker"*, %"class.xalanc_1_10::XalanNode"*, %"class.xalanc_1_10::XalanNode"*) #2

; Function Attrs: noinline uwtable
define dso_local void @_ZN11xalanc_1_1018NodeNameTreeWalker17findMatchingNodesERKNS_14XalanDOMStringEPNS_9XalanNodeE(%"class.xalanc_1_10::NodeNameTreeWalker"* %this, %"class.xalanc_1_10::XalanDOMString"* dereferenceable(40) %theNodeName, %"class.xalanc_1_10::XalanNode"* %theStartNode) unnamed_addr #0 align 2 !dbg !1990 {
entry:
  %this.addr = alloca %"class.xalanc_1_10::NodeNameTreeWalker"*, align 8
  %theNodeName.addr = alloca %"class.xalanc_1_10::XalanDOMString"*, align 8
  %theStartNode.addr = alloca %"class.xalanc_1_10::XalanNode"*, align 8
  store %"class.xalanc_1_10::NodeNameTreeWalker"* %this, %"class.xalanc_1_10::NodeNameTreeWalker"** %this.addr, align 8
  call void @llvm.dbg.declare(metadata %"class.xalanc_1_10::NodeNameTreeWalker"** %this.addr, metadata !1991, metadata !DIExpression()), !dbg !1992
  store %"class.xalanc_1_10::XalanDOMString"* %theNodeName, %"class.xalanc_1_10::XalanDOMString"** %theNodeName.addr, align 8
  call void @llvm.dbg.declare(metadata %"class.xalanc_1_10::XalanDOMString"** %theNodeName.addr, metadata !1993, metadata !DIExpression()), !dbg !1994
  store %"class.xalanc_1_10::XalanNode"* %theStartNode, %"class.xalanc_1_10::XalanNode"** %theStartNode.addr, align 8
  call void @llvm.dbg.declare(metadata %"class.xalanc_1_10::XalanNode"** %theStartNode.addr, metadata !1995, metadata !DIExpression()), !dbg !1996
  %this1 = load %"class.xalanc_1_10::NodeNameTreeWalker"*, %"class.xalanc_1_10::NodeNameTreeWalker"** %this.addr, align 8
  %0 = load %"class.xalanc_1_10::XalanDOMString"*, %"class.xalanc_1_10::XalanDOMString"** %theNodeName.addr, align 8, !dbg !1997
  %m_nodeName = getelementptr inbounds %"class.xalanc_1_10::NodeNameTreeWalker", %"class.xalanc_1_10::NodeNameTreeWalker"* %this1, i32 0, i32 1, !dbg !1998
  %call = call dereferenceable(40) %"class.xalanc_1_10::XalanDOMString"* @_ZN11xalanc_1_1014XalanDOMStringaSERKS0_(%"class.xalanc_1_10::XalanDOMString"* %m_nodeName, %"class.xalanc_1_10::XalanDOMString"* dereferenceable(40) %0), !dbg !1999
  %m_matchingNodes = getelementptr inbounds %"class.xalanc_1_10::NodeNameTreeWalker", %"class.xalanc_1_10::NodeNameTreeWalker"* %this1, i32 0, i32 2, !dbg !2000
  call void @_ZN11xalanc_1_1011XalanVectorIPKNS_9XalanNodeENS_31MemoryManagedConstructionTraitsIS3_EEE5clearEv(%"class.xalanc_1_10::XalanVector.0"* %m_matchingNodes), !dbg !2001
  %1 = bitcast %"class.xalanc_1_10::NodeNameTreeWalker"* %this1 to %"class.xalanc_1_10::TreeWalker"*, !dbg !2002
  %2 = load %"class.xalanc_1_10::XalanNode"*, %"class.xalanc_1_10::XalanNode"** %theStartNode.addr, align 8, !dbg !2003
  %3 = bitcast %"class.xalanc_1_10::XalanNode"* %2 to %"class.xalanc_1_10::XalanNode"* (%"class.xalanc_1_10::XalanNode"*)***, !dbg !2004
  %vtable = load %"class.xalanc_1_10::XalanNode"* (%"class.xalanc_1_10::XalanNode"*)**, %"class.xalanc_1_10::XalanNode"* (%"class.xalanc_1_10::XalanNode"*)*** %3, align 8, !dbg !2004
  %vfn = getelementptr inbounds %"class.xalanc_1_10::XalanNode"* (%"class.xalanc_1_10::XalanNode"*)*, %"class.xalanc_1_10::XalanNode"* (%"class.xalanc_1_10::XalanNode"*)** %vtable, i64 7, !dbg !2004
  %4 = load %"class.xalanc_1_10::XalanNode"* (%"class.xalanc_1_10::XalanNode"*)*, %"class.xalanc_1_10::XalanNode"* (%"class.xalanc_1_10::XalanNode"*)** %vfn, align 8, !dbg !2004
  %call2 = call %"class.xalanc_1_10::XalanNode"* %4(%"class.xalanc_1_10::XalanNode"* %2), !dbg !2004
  %5 = load %"class.xalanc_1_10::XalanNode"*, %"class.xalanc_1_10::XalanNode"** %theStartNode.addr, align 8, !dbg !2005
  %call3 = call %"class.xalanc_1_10::XalanNode"* @_ZN11xalanc_1_1010TreeWalker8traverseEPNS_9XalanNodeES2_(%"class.xalanc_1_10::TreeWalker"* %1, %"class.xalanc_1_10::XalanNode"* %call2, %"class.xalanc_1_10::XalanNode"* %5), !dbg !2002
  ret void, !dbg !2006
}

declare dso_local %"class.xalanc_1_10::XalanNode"* @_ZN11xalanc_1_1010TreeWalker8traverseEPNS_9XalanNodeES2_(%"class.xalanc_1_10::TreeWalker"*, %"class.xalanc_1_10::XalanNode"*, %"class.xalanc_1_10::XalanNode"*) #2

; Function Attrs: noinline uwtable
define dso_local zeroext i1 @_ZN11xalanc_1_1018NodeNameTreeWalker9startNodeEPNS_9XalanNodeE(%"class.xalanc_1_10::NodeNameTreeWalker"* %this, %"class.xalanc_1_10::XalanNode"* %node) unnamed_addr #0 align 2 !dbg !2007 {
entry:
  %this.addr = alloca %"class.xalanc_1_10::NodeNameTreeWalker"*, align 8
  %node.addr = alloca %"class.xalanc_1_10::XalanNode"*, align 8
  %theNodeName = alloca %"class.xalanc_1_10::XalanDOMString"*, align 8
  store %"class.xalanc_1_10::NodeNameTreeWalker"* %this, %"class.xalanc_1_10::NodeNameTreeWalker"** %this.addr, align 8
  call void @llvm.dbg.declare(metadata %"class.xalanc_1_10::NodeNameTreeWalker"** %this.addr, metadata !2008, metadata !DIExpression()), !dbg !2009
  store %"class.xalanc_1_10::XalanNode"* %node, %"class.xalanc_1_10::XalanNode"** %node.addr, align 8
  call void @llvm.dbg.declare(metadata %"class.xalanc_1_10::XalanNode"** %node.addr, metadata !2010, metadata !DIExpression()), !dbg !2011
  %this1 = load %"class.xalanc_1_10::NodeNameTreeWalker"*, %"class.xalanc_1_10::NodeNameTreeWalker"** %this.addr, align 8
  call void @llvm.dbg.declare(metadata %"class.xalanc_1_10::XalanDOMString"** %theNodeName, metadata !2012, metadata !DIExpression()), !dbg !2013
  %0 = load %"class.xalanc_1_10::XalanNode"*, %"class.xalanc_1_10::XalanNode"** %node.addr, align 8, !dbg !2014
  %1 = bitcast %"class.xalanc_1_10::XalanNode"* %0 to %"class.xalanc_1_10::XalanDOMString"* (%"class.xalanc_1_10::XalanNode"*)***, !dbg !2015
  %vtable = load %"class.xalanc_1_10::XalanDOMString"* (%"class.xalanc_1_10::XalanNode"*)**, %"class.xalanc_1_10::XalanDOMString"* (%"class.xalanc_1_10::XalanNode"*)*** %1, align 8, !dbg !2015
  %vfn = getelementptr inbounds %"class.xalanc_1_10::XalanDOMString"* (%"class.xalanc_1_10::XalanNode"*)*, %"class.xalanc_1_10::XalanDOMString"* (%"class.xalanc_1_10::XalanNode"*)** %vtable, i64 2, !dbg !2015
  %2 = load %"class.xalanc_1_10::XalanDOMString"* (%"class.xalanc_1_10::XalanNode"*)*, %"class.xalanc_1_10::XalanDOMString"* (%"class.xalanc_1_10::XalanNode"*)** %vfn, align 8, !dbg !2015
  %call = call dereferenceable(40) %"class.xalanc_1_10::XalanDOMString"* %2(%"class.xalanc_1_10::XalanNode"* %0), !dbg !2015
  store %"class.xalanc_1_10::XalanDOMString"* %call, %"class.xalanc_1_10::XalanDOMString"** %theNodeName, align 8, !dbg !2013
  %3 = load %"class.xalanc_1_10::XalanDOMString"*, %"class.xalanc_1_10::XalanDOMString"** %theNodeName, align 8, !dbg !2016
  %m_nodeName = getelementptr inbounds %"class.xalanc_1_10::NodeNameTreeWalker", %"class.xalanc_1_10::NodeNameTreeWalker"* %this1, i32 0, i32 1, !dbg !2018
  %call2 = call zeroext i1 @_ZN11xalanc_1_106equalsERKNS_14XalanDOMStringES2_(%"class.xalanc_1_10::XalanDOMString"* dereferenceable(40) %3, %"class.xalanc_1_10::XalanDOMString"* dereferenceable(40) %m_nodeName), !dbg !2019
  %conv = zext i1 %call2 to i32, !dbg !2019
  %cmp = icmp eq i32 %conv, 1, !dbg !2020
  br i1 %cmp, label %if.then, label %if.end, !dbg !2021

if.then:                                          ; preds = %entry
  %m_matchingNodes = getelementptr inbounds %"class.xalanc_1_10::NodeNameTreeWalker", %"class.xalanc_1_10::NodeNameTreeWalker"* %this1, i32 0, i32 2, !dbg !2022
  call void @_ZN11xalanc_1_1011XalanVectorIPKNS_9XalanNodeENS_31MemoryManagedConstructionTraitsIS3_EEE9push_backERKS3_(%"class.xalanc_1_10::XalanVector.0"* %m_matchingNodes, %"class.xalanc_1_10::XalanNode"** dereferenceable(8) %node.addr), !dbg !2024
  br label %if.end, !dbg !2025

if.end:                                           ; preds = %if.then, %entry
  ret i1 false, !dbg !2026
}

; Function Attrs: noinline uwtable
define linkonce_odr dso_local zeroext i1 @_ZN11xalanc_1_106equalsERKNS_14XalanDOMStringES2_(%"class.xalanc_1_10::XalanDOMString"* dereferenceable(40) %theLHS, %"class.xalanc_1_10::XalanDOMString"* dereferenceable(40) %theRHS) #0 comdat !dbg !2027 {
entry:
  %theLHS.addr = alloca %"class.xalanc_1_10::XalanDOMString"*, align 8
  %theRHS.addr = alloca %"class.xalanc_1_10::XalanDOMString"*, align 8
  store %"class.xalanc_1_10::XalanDOMString"* %theLHS, %"class.xalanc_1_10::XalanDOMString"** %theLHS.addr, align 8
  call void @llvm.dbg.declare(metadata %"class.xalanc_1_10::XalanDOMString"** %theLHS.addr, metadata !2028, metadata !DIExpression()), !dbg !2029
  store %"class.xalanc_1_10::XalanDOMString"* %theRHS, %"class.xalanc_1_10::XalanDOMString"** %theRHS.addr, align 8
  call void @llvm.dbg.declare(metadata %"class.xalanc_1_10::XalanDOMString"** %theRHS.addr, metadata !2030, metadata !DIExpression()), !dbg !2031
  %0 = load %"class.xalanc_1_10::XalanDOMString"*, %"class.xalanc_1_10::XalanDOMString"** %theLHS.addr, align 8, !dbg !2032
  %1 = load %"class.xalanc_1_10::XalanDOMString"*, %"class.xalanc_1_10::XalanDOMString"** %theRHS.addr, align 8, !dbg !2033
  %call = call zeroext i1 @_ZN11xalanc_1_10eqERKNS_14XalanDOMStringES2_(%"class.xalanc_1_10::XalanDOMString"* dereferenceable(40) %0, %"class.xalanc_1_10::XalanDOMString"* dereferenceable(40) %1), !dbg !2034
  ret i1 %call, !dbg !2035
}

; Function Attrs: noinline uwtable
define linkonce_odr dso_local void @_ZN11xalanc_1_1011XalanVectorIPKNS_9XalanNodeENS_31MemoryManagedConstructionTraitsIS3_EEE9push_backERKS3_(%"class.xalanc_1_10::XalanVector.0"* %this, %"class.xalanc_1_10::XalanNode"** dereferenceable(8) %data) #0 comdat align 2 !dbg !2036 {
entry:
  %this.addr = alloca %"class.xalanc_1_10::XalanVector.0"*, align 8
  %data.addr = alloca %"class.xalanc_1_10::XalanNode"**, align 8
  store %"class.xalanc_1_10::XalanVector.0"* %this, %"class.xalanc_1_10::XalanVector.0"** %this.addr, align 8
  call void @llvm.dbg.declare(metadata %"class.xalanc_1_10::XalanVector.0"** %this.addr, metadata !2037, metadata !DIExpression()), !dbg !2038
  store %"class.xalanc_1_10::XalanNode"** %data, %"class.xalanc_1_10::XalanNode"*** %data.addr, align 8
  call void @llvm.dbg.declare(metadata %"class.xalanc_1_10::XalanNode"*** %data.addr, metadata !2039, metadata !DIExpression()), !dbg !2040
  %this1 = load %"class.xalanc_1_10::XalanVector.0"*, %"class.xalanc_1_10::XalanVector.0"** %this.addr, align 8
  call void @_ZNK11xalanc_1_1011XalanVectorIPKNS_9XalanNodeENS_31MemoryManagedConstructionTraitsIS3_EEE10invariantsEv(%"class.xalanc_1_10::XalanVector.0"* %this1), !dbg !2041
  %0 = load %"class.xalanc_1_10::XalanNode"**, %"class.xalanc_1_10::XalanNode"*** %data.addr, align 8, !dbg !2042
  call void @_ZN11xalanc_1_1011XalanVectorIPKNS_9XalanNodeENS_31MemoryManagedConstructionTraitsIS3_EEE10doPushBackERKS3_(%"class.xalanc_1_10::XalanVector.0"* %this1, %"class.xalanc_1_10::XalanNode"** dereferenceable(8) %0), !dbg !2043
  call void @_ZNK11xalanc_1_1011XalanVectorIPKNS_9XalanNodeENS_31MemoryManagedConstructionTraitsIS3_EEE10invariantsEv(%"class.xalanc_1_10::XalanVector.0"* %this1), !dbg !2044
  ret void, !dbg !2045
}

; Function Attrs: noinline nounwind uwtable
define dso_local zeroext i1 @_ZN11xalanc_1_1018NodeNameTreeWalker7endNodeEPNS_9XalanNodeE(%"class.xalanc_1_10::NodeNameTreeWalker"* %this, %"class.xalanc_1_10::XalanNode"* %0) unnamed_addr #3 align 2 !dbg !2046 {
entry:
  %this.addr = alloca %"class.xalanc_1_10::NodeNameTreeWalker"*, align 8
  %.addr = alloca %"class.xalanc_1_10::XalanNode"*, align 8
  store %"class.xalanc_1_10::NodeNameTreeWalker"* %this, %"class.xalanc_1_10::NodeNameTreeWalker"** %this.addr, align 8
  call void @llvm.dbg.declare(metadata %"class.xalanc_1_10::NodeNameTreeWalker"** %this.addr, metadata !2047, metadata !DIExpression()), !dbg !2048
  store %"class.xalanc_1_10::XalanNode"* %0, %"class.xalanc_1_10::XalanNode"** %.addr, align 8
  call void @llvm.dbg.declare(metadata %"class.xalanc_1_10::XalanNode"** %.addr, metadata !2049, metadata !DIExpression()), !dbg !2050
  %this1 = load %"class.xalanc_1_10::NodeNameTreeWalker"*, %"class.xalanc_1_10::NodeNameTreeWalker"** %this.addr, align 8
  ret i1 false, !dbg !2051
}

; Function Attrs: noinline uwtable
define dso_local zeroext i1 @_ZN11xalanc_1_1018NodeNameTreeWalker9startNodeEPKNS_9XalanNodeE(%"class.xalanc_1_10::NodeNameTreeWalker"* %this, %"class.xalanc_1_10::XalanNode"* %node) unnamed_addr #0 align 2 !dbg !2052 {
entry:
  %this.addr = alloca %"class.xalanc_1_10::NodeNameTreeWalker"*, align 8
  %node.addr = alloca %"class.xalanc_1_10::XalanNode"*, align 8
  %theNodeName = alloca %"class.xalanc_1_10::XalanDOMString"*, align 8
  store %"class.xalanc_1_10::NodeNameTreeWalker"* %this, %"class.xalanc_1_10::NodeNameTreeWalker"** %this.addr, align 8
  call void @llvm.dbg.declare(metadata %"class.xalanc_1_10::NodeNameTreeWalker"** %this.addr, metadata !2053, metadata !DIExpression()), !dbg !2054
  store %"class.xalanc_1_10::XalanNode"* %node, %"class.xalanc_1_10::XalanNode"** %node.addr, align 8
  call void @llvm.dbg.declare(metadata %"class.xalanc_1_10::XalanNode"** %node.addr, metadata !2055, metadata !DIExpression()), !dbg !2056
  %this1 = load %"class.xalanc_1_10::NodeNameTreeWalker"*, %"class.xalanc_1_10::NodeNameTreeWalker"** %this.addr, align 8
  call void @llvm.dbg.declare(metadata %"class.xalanc_1_10::XalanDOMString"** %theNodeName, metadata !2057, metadata !DIExpression()), !dbg !2058
  %0 = load %"class.xalanc_1_10::XalanNode"*, %"class.xalanc_1_10::XalanNode"** %node.addr, align 8, !dbg !2059
  %1 = bitcast %"class.xalanc_1_10::XalanNode"* %0 to %"class.xalanc_1_10::XalanDOMString"* (%"class.xalanc_1_10::XalanNode"*)***, !dbg !2060
  %vtable = load %"class.xalanc_1_10::XalanDOMString"* (%"class.xalanc_1_10::XalanNode"*)**, %"class.xalanc_1_10::XalanDOMString"* (%"class.xalanc_1_10::XalanNode"*)*** %1, align 8, !dbg !2060
  %vfn = getelementptr inbounds %"class.xalanc_1_10::XalanDOMString"* (%"class.xalanc_1_10::XalanNode"*)*, %"class.xalanc_1_10::XalanDOMString"* (%"class.xalanc_1_10::XalanNode"*)** %vtable, i64 2, !dbg !2060
  %2 = load %"class.xalanc_1_10::XalanDOMString"* (%"class.xalanc_1_10::XalanNode"*)*, %"class.xalanc_1_10::XalanDOMString"* (%"class.xalanc_1_10::XalanNode"*)** %vfn, align 8, !dbg !2060
  %call = call dereferenceable(40) %"class.xalanc_1_10::XalanDOMString"* %2(%"class.xalanc_1_10::XalanNode"* %0), !dbg !2060
  store %"class.xalanc_1_10::XalanDOMString"* %call, %"class.xalanc_1_10::XalanDOMString"** %theNodeName, align 8, !dbg !2058
  %3 = load %"class.xalanc_1_10::XalanDOMString"*, %"class.xalanc_1_10::XalanDOMString"** %theNodeName, align 8, !dbg !2061
  %m_nodeName = getelementptr inbounds %"class.xalanc_1_10::NodeNameTreeWalker", %"class.xalanc_1_10::NodeNameTreeWalker"* %this1, i32 0, i32 1, !dbg !2063
  %call2 = call zeroext i1 @_ZN11xalanc_1_106equalsERKNS_14XalanDOMStringES2_(%"class.xalanc_1_10::XalanDOMString"* dereferenceable(40) %3, %"class.xalanc_1_10::XalanDOMString"* dereferenceable(40) %m_nodeName), !dbg !2064
  %conv = zext i1 %call2 to i32, !dbg !2064
  %cmp = icmp eq i32 %conv, 1, !dbg !2065
  br i1 %cmp, label %if.then, label %if.end, !dbg !2066

if.then:                                          ; preds = %entry
  %m_matchingNodes = getelementptr inbounds %"class.xalanc_1_10::NodeNameTreeWalker", %"class.xalanc_1_10::NodeNameTreeWalker"* %this1, i32 0, i32 2, !dbg !2067
  call void @_ZN11xalanc_1_1011XalanVectorIPKNS_9XalanNodeENS_31MemoryManagedConstructionTraitsIS3_EEE9push_backERKS3_(%"class.xalanc_1_10::XalanVector.0"* %m_matchingNodes, %"class.xalanc_1_10::XalanNode"** dereferenceable(8) %node.addr), !dbg !2069
  br label %if.end, !dbg !2070

if.end:                                           ; preds = %if.then, %entry
  ret i1 false, !dbg !2071
}

; Function Attrs: noinline nounwind uwtable
define dso_local zeroext i1 @_ZN11xalanc_1_1018NodeNameTreeWalker7endNodeEPKNS_9XalanNodeE(%"class.xalanc_1_10::NodeNameTreeWalker"* %this, %"class.xalanc_1_10::XalanNode"* %0) unnamed_addr #3 align 2 !dbg !2072 {
entry:
  %this.addr = alloca %"class.xalanc_1_10::NodeNameTreeWalker"*, align 8
  %.addr = alloca %"class.xalanc_1_10::XalanNode"*, align 8
  store %"class.xalanc_1_10::NodeNameTreeWalker"* %this, %"class.xalanc_1_10::NodeNameTreeWalker"** %this.addr, align 8
  call void @llvm.dbg.declare(metadata %"class.xalanc_1_10::NodeNameTreeWalker"** %this.addr, metadata !2073, metadata !DIExpression()), !dbg !2074
  store %"class.xalanc_1_10::XalanNode"* %0, %"class.xalanc_1_10::XalanNode"** %.addr, align 8
  call void @llvm.dbg.declare(metadata %"class.xalanc_1_10::XalanNode"** %.addr, metadata !2075, metadata !DIExpression()), !dbg !2076
  %this1 = load %"class.xalanc_1_10::NodeNameTreeWalker"*, %"class.xalanc_1_10::NodeNameTreeWalker"** %this.addr, align 8
  ret i1 false, !dbg !2077
}

declare dso_local void @_ZN11xalanc_1_1010TreeWalker15traverseSubtreeEPKNS_9XalanNodeE(%"class.xalanc_1_10::TreeWalker"*, %"class.xalanc_1_10::XalanNode"*) unnamed_addr #2

declare dso_local void @_ZN11xalanc_1_1010TreeWalker15traverseSubtreeEPNS_9XalanNodeE(%"class.xalanc_1_10::TreeWalker"*, %"class.xalanc_1_10::XalanNode"*) unnamed_addr #2

; Function Attrs: noinline nounwind uwtable
define linkonce_odr dso_local void @_ZN11xalanc_1_1011XalanVectorItNS_31MemoryManagedConstructionTraitsItEEED2Ev(%"class.xalanc_1_10::XalanVector"* %this) unnamed_addr #3 comdat align 2 personality i8* bitcast (i32 (...)* @__gxx_personality_v0 to i8*) !dbg !2078 {
entry:
  %this.addr = alloca %"class.xalanc_1_10::XalanVector"*, align 8
  store %"class.xalanc_1_10::XalanVector"* %this, %"class.xalanc_1_10::XalanVector"** %this.addr, align 8
  call void @llvm.dbg.declare(metadata %"class.xalanc_1_10::XalanVector"** %this.addr, metadata !2079, metadata !DIExpression()), !dbg !2080
  %this1 = load %"class.xalanc_1_10::XalanVector"*, %"class.xalanc_1_10::XalanVector"** %this.addr, align 8
  invoke void @_ZNK11xalanc_1_1011XalanVectorItNS_31MemoryManagedConstructionTraitsItEEE10invariantsEv(%"class.xalanc_1_10::XalanVector"* %this1)
          to label %invoke.cont unwind label %terminate.lpad, !dbg !2081

invoke.cont:                                      ; preds = %entry
  %m_allocation = getelementptr inbounds %"class.xalanc_1_10::XalanVector", %"class.xalanc_1_10::XalanVector"* %this1, i32 0, i32 2, !dbg !2083
  %0 = load i64, i64* %m_allocation, align 8, !dbg !2083
  %cmp = icmp ne i64 %0, 0, !dbg !2085
  br i1 %cmp, label %if.then, label %if.end, !dbg !2086

if.then:                                          ; preds = %invoke.cont
  %call = invoke i16* @_ZN11xalanc_1_1011XalanVectorItNS_31MemoryManagedConstructionTraitsItEEE5beginEv(%"class.xalanc_1_10::XalanVector"* %this1)
          to label %invoke.cont2 unwind label %terminate.lpad, !dbg !2087

invoke.cont2:                                     ; preds = %if.then
  %call4 = invoke i16* @_ZN11xalanc_1_1011XalanVectorItNS_31MemoryManagedConstructionTraitsItEEE3endEv(%"class.xalanc_1_10::XalanVector"* %this1)
          to label %invoke.cont3 unwind label %terminate.lpad, !dbg !2089

invoke.cont3:                                     ; preds = %invoke.cont2
  invoke void @_ZN11xalanc_1_1011XalanVectorItNS_31MemoryManagedConstructionTraitsItEEE7destroyEPtS4_(i16* %call, i16* %call4)
          to label %invoke.cont5 unwind label %terminate.lpad, !dbg !2090

invoke.cont5:                                     ; preds = %invoke.cont3
  %m_data = getelementptr inbounds %"class.xalanc_1_10::XalanVector", %"class.xalanc_1_10::XalanVector"* %this1, i32 0, i32 3, !dbg !2091
  %1 = load i16*, i16** %m_data, align 8, !dbg !2091
  invoke void @_ZN11xalanc_1_1011XalanVectorItNS_31MemoryManagedConstructionTraitsItEEE10deallocateEPt(%"class.xalanc_1_10::XalanVector"* %this1, i16* %1)
          to label %invoke.cont6 unwind label %terminate.lpad, !dbg !2092

invoke.cont6:                                     ; preds = %invoke.cont5
  br label %if.end, !dbg !2093

if.end:                                           ; preds = %invoke.cont6, %invoke.cont
  ret void, !dbg !2094

terminate.lpad:                                   ; preds = %invoke.cont5, %invoke.cont3, %invoke.cont2, %if.then, %entry
  %2 = landingpad { i8*, i32 }
          catch i8* null, !dbg !2081
  %3 = extractvalue { i8*, i32 } %2, 0, !dbg !2081
  call void @__clang_call_terminate(i8* %3) #9, !dbg !2081
  unreachable, !dbg !2081
}

; Function Attrs: noinline nounwind uwtable
define linkonce_odr dso_local void @_ZNK11xalanc_1_1011XalanVectorItNS_31MemoryManagedConstructionTraitsItEEE10invariantsEv(%"class.xalanc_1_10::XalanVector"* %this) #3 comdat align 2 !dbg !2095 {
entry:
  %this.addr = alloca %"class.xalanc_1_10::XalanVector"*, align 8
  store %"class.xalanc_1_10::XalanVector"* %this, %"class.xalanc_1_10::XalanVector"** %this.addr, align 8
  call void @llvm.dbg.declare(metadata %"class.xalanc_1_10::XalanVector"** %this.addr, metadata !2096, metadata !DIExpression()), !dbg !2098
  %this1 = load %"class.xalanc_1_10::XalanVector"*, %"class.xalanc_1_10::XalanVector"** %this.addr, align 8
  ret void, !dbg !2099
}

; Function Attrs: noinline noreturn nounwind
define linkonce_odr hidden void @__clang_call_terminate(i8* %0) #6 comdat {
  %2 = call i8* @__cxa_begin_catch(i8* %0) #8
  call void @_ZSt9terminatev() #9
  unreachable
}

declare dso_local i8* @__cxa_begin_catch(i8*)

declare dso_local void @_ZSt9terminatev()

; Function Attrs: noinline uwtable
define linkonce_odr dso_local void @_ZN11xalanc_1_1011XalanVectorItNS_31MemoryManagedConstructionTraitsItEEE7destroyEPtS4_(i16* %theFirst, i16* %theLast) #0 comdat align 2 !dbg !2100 {
entry:
  %theFirst.addr = alloca i16*, align 8
  %theLast.addr = alloca i16*, align 8
  store i16* %theFirst, i16** %theFirst.addr, align 8
  call void @llvm.dbg.declare(metadata i16** %theFirst.addr, metadata !2101, metadata !DIExpression()), !dbg !2102
  store i16* %theLast, i16** %theLast.addr, align 8
  call void @llvm.dbg.declare(metadata i16** %theLast.addr, metadata !2103, metadata !DIExpression()), !dbg !2104
  br label %for.cond, !dbg !2105

for.cond:                                         ; preds = %for.inc, %entry
  %0 = load i16*, i16** %theFirst.addr, align 8, !dbg !2106
  %1 = load i16*, i16** %theLast.addr, align 8, !dbg !2109
  %cmp = icmp ne i16* %0, %1, !dbg !2110
  br i1 %cmp, label %for.body, label %for.end, !dbg !2111

for.body:                                         ; preds = %for.cond
  %2 = load i16*, i16** %theFirst.addr, align 8, !dbg !2112
  call void @_ZN11xalanc_1_1011XalanVectorItNS_31MemoryManagedConstructionTraitsItEEE7destroyERt(i16* dereferenceable(2) %2), !dbg !2114
  br label %for.inc, !dbg !2115

for.inc:                                          ; preds = %for.body
  %3 = load i16*, i16** %theFirst.addr, align 8, !dbg !2116
  %incdec.ptr = getelementptr inbounds i16, i16* %3, i32 1, !dbg !2116
  store i16* %incdec.ptr, i16** %theFirst.addr, align 8, !dbg !2116
  br label %for.cond, !dbg !2117, !llvm.loop !2118

for.end:                                          ; preds = %for.cond
  ret void, !dbg !2120
}

; Function Attrs: noinline nounwind uwtable
define linkonce_odr dso_local i16* @_ZN11xalanc_1_1011XalanVectorItNS_31MemoryManagedConstructionTraitsItEEE5beginEv(%"class.xalanc_1_10::XalanVector"* %this) #3 comdat align 2 !dbg !2121 {
entry:
  %this.addr = alloca %"class.xalanc_1_10::XalanVector"*, align 8
  store %"class.xalanc_1_10::XalanVector"* %this, %"class.xalanc_1_10::XalanVector"** %this.addr, align 8
  call void @llvm.dbg.declare(metadata %"class.xalanc_1_10::XalanVector"** %this.addr, metadata !2122, metadata !DIExpression()), !dbg !2123
  %this1 = load %"class.xalanc_1_10::XalanVector"*, %"class.xalanc_1_10::XalanVector"** %this.addr, align 8
  call void @_ZNK11xalanc_1_1011XalanVectorItNS_31MemoryManagedConstructionTraitsItEEE10invariantsEv(%"class.xalanc_1_10::XalanVector"* %this1), !dbg !2124
  %m_data = getelementptr inbounds %"class.xalanc_1_10::XalanVector", %"class.xalanc_1_10::XalanVector"* %this1, i32 0, i32 3, !dbg !2125
  %0 = load i16*, i16** %m_data, align 8, !dbg !2125
  ret i16* %0, !dbg !2126
}

; Function Attrs: noinline uwtable
define linkonce_odr dso_local i16* @_ZN11xalanc_1_1011XalanVectorItNS_31MemoryManagedConstructionTraitsItEEE3endEv(%"class.xalanc_1_10::XalanVector"* %this) #0 comdat align 2 !dbg !2127 {
entry:
  %this.addr = alloca %"class.xalanc_1_10::XalanVector"*, align 8
  store %"class.xalanc_1_10::XalanVector"* %this, %"class.xalanc_1_10::XalanVector"** %this.addr, align 8
  call void @llvm.dbg.declare(metadata %"class.xalanc_1_10::XalanVector"** %this.addr, metadata !2128, metadata !DIExpression()), !dbg !2129
  %this1 = load %"class.xalanc_1_10::XalanVector"*, %"class.xalanc_1_10::XalanVector"** %this.addr, align 8
  call void @_ZNK11xalanc_1_1011XalanVectorItNS_31MemoryManagedConstructionTraitsItEEE10invariantsEv(%"class.xalanc_1_10::XalanVector"* %this1), !dbg !2130
  %call = call i16* @_ZN11xalanc_1_1011XalanVectorItNS_31MemoryManagedConstructionTraitsItEEE10endPointerEv(%"class.xalanc_1_10::XalanVector"* %this1), !dbg !2131
  ret i16* %call, !dbg !2132
}

; Function Attrs: noinline uwtable
define linkonce_odr dso_local void @_ZN11xalanc_1_1011XalanVectorItNS_31MemoryManagedConstructionTraitsItEEE10deallocateEPt(%"class.xalanc_1_10::XalanVector"* %this, i16* %pointer) #0 comdat align 2 !dbg !2133 {
entry:
  %this.addr = alloca %"class.xalanc_1_10::XalanVector"*, align 8
  %pointer.addr = alloca i16*, align 8
  store %"class.xalanc_1_10::XalanVector"* %this, %"class.xalanc_1_10::XalanVector"** %this.addr, align 8
  call void @llvm.dbg.declare(metadata %"class.xalanc_1_10::XalanVector"** %this.addr, metadata !2134, metadata !DIExpression()), !dbg !2135
  store i16* %pointer, i16** %pointer.addr, align 8
  call void @llvm.dbg.declare(metadata i16** %pointer.addr, metadata !2136, metadata !DIExpression()), !dbg !2137
  %this1 = load %"class.xalanc_1_10::XalanVector"*, %"class.xalanc_1_10::XalanVector"** %this.addr, align 8
  %m_memoryManager = getelementptr inbounds %"class.xalanc_1_10::XalanVector", %"class.xalanc_1_10::XalanVector"* %this1, i32 0, i32 0, !dbg !2138
  %0 = load %"class.xercesc_2_7::MemoryManager"*, %"class.xercesc_2_7::MemoryManager"** %m_memoryManager, align 8, !dbg !2138
  %1 = load i16*, i16** %pointer.addr, align 8, !dbg !2139
  %2 = bitcast i16* %1 to i8*, !dbg !2139
  %3 = bitcast %"class.xercesc_2_7::MemoryManager"* %0 to void (%"class.xercesc_2_7::MemoryManager"*, i8*)***, !dbg !2140
  %vtable = load void (%"class.xercesc_2_7::MemoryManager"*, i8*)**, void (%"class.xercesc_2_7::MemoryManager"*, i8*)*** %3, align 8, !dbg !2140
  %vfn = getelementptr inbounds void (%"class.xercesc_2_7::MemoryManager"*, i8*)*, void (%"class.xercesc_2_7::MemoryManager"*, i8*)** %vtable, i64 3, !dbg !2140
  %4 = load void (%"class.xercesc_2_7::MemoryManager"*, i8*)*, void (%"class.xercesc_2_7::MemoryManager"*, i8*)** %vfn, align 8, !dbg !2140
  call void %4(%"class.xercesc_2_7::MemoryManager"* %0, i8* %2), !dbg !2140
  ret void, !dbg !2141
}

; Function Attrs: noinline nounwind uwtable
define linkonce_odr dso_local void @_ZN11xalanc_1_1011XalanVectorItNS_31MemoryManagedConstructionTraitsItEEE7destroyERt(i16* dereferenceable(2) %theValue) #3 comdat align 2 !dbg !2142 {
entry:
  %theValue.addr = alloca i16*, align 8
  store i16* %theValue, i16** %theValue.addr, align 8
  call void @llvm.dbg.declare(metadata i16** %theValue.addr, metadata !2143, metadata !DIExpression()), !dbg !2144
  %0 = load i16*, i16** %theValue.addr, align 8, !dbg !2145
  ret void, !dbg !2146
}

; Function Attrs: noinline nounwind uwtable
define linkonce_odr dso_local i16* @_ZN11xalanc_1_1011XalanVectorItNS_31MemoryManagedConstructionTraitsItEEE10endPointerEv(%"class.xalanc_1_10::XalanVector"* %this) #3 comdat align 2 !dbg !2147 {
entry:
  %this.addr = alloca %"class.xalanc_1_10::XalanVector"*, align 8
  store %"class.xalanc_1_10::XalanVector"* %this, %"class.xalanc_1_10::XalanVector"** %this.addr, align 8
  call void @llvm.dbg.declare(metadata %"class.xalanc_1_10::XalanVector"** %this.addr, metadata !2148, metadata !DIExpression()), !dbg !2149
  %this1 = load %"class.xalanc_1_10::XalanVector"*, %"class.xalanc_1_10::XalanVector"** %this.addr, align 8
  %m_data = getelementptr inbounds %"class.xalanc_1_10::XalanVector", %"class.xalanc_1_10::XalanVector"* %this1, i32 0, i32 3, !dbg !2150
  %0 = load i16*, i16** %m_data, align 8, !dbg !2150
  %m_size = getelementptr inbounds %"class.xalanc_1_10::XalanVector", %"class.xalanc_1_10::XalanVector"* %this1, i32 0, i32 1, !dbg !2151
  %1 = load i64, i64* %m_size, align 8, !dbg !2151
  %add.ptr = getelementptr inbounds i16, i16* %0, i64 %1, !dbg !2152
  ret i16* %add.ptr, !dbg !2153
}

; Function Attrs: noinline uwtable
define linkonce_odr dso_local dereferenceable(40) %"class.xalanc_1_10::XalanDOMString"* @_ZN11xalanc_1_1014XalanDOMString6assignERKS0_(%"class.xalanc_1_10::XalanDOMString"* %this, %"class.xalanc_1_10::XalanDOMString"* dereferenceable(40) %theSource) #0 comdat align 2 !dbg !2154 {
entry:
  %this.addr = alloca %"class.xalanc_1_10::XalanDOMString"*, align 8
  %theSource.addr = alloca %"class.xalanc_1_10::XalanDOMString"*, align 8
  store %"class.xalanc_1_10::XalanDOMString"* %this, %"class.xalanc_1_10::XalanDOMString"** %this.addr, align 8
  call void @llvm.dbg.declare(metadata %"class.xalanc_1_10::XalanDOMString"** %this.addr, metadata !2155, metadata !DIExpression()), !dbg !2156
  store %"class.xalanc_1_10::XalanDOMString"* %theSource, %"class.xalanc_1_10::XalanDOMString"** %theSource.addr, align 8
  call void @llvm.dbg.declare(metadata %"class.xalanc_1_10::XalanDOMString"** %theSource.addr, metadata !2157, metadata !DIExpression()), !dbg !2158
  %this1 = load %"class.xalanc_1_10::XalanDOMString"*, %"class.xalanc_1_10::XalanDOMString"** %this.addr, align 8
  call void @_ZNK11xalanc_1_1014XalanDOMString10invariantsEv(%"class.xalanc_1_10::XalanDOMString"* %this1), !dbg !2159
  %0 = load %"class.xalanc_1_10::XalanDOMString"*, %"class.xalanc_1_10::XalanDOMString"** %theSource.addr, align 8, !dbg !2160
  %cmp = icmp ne %"class.xalanc_1_10::XalanDOMString"* %0, %this1, !dbg !2162
  br i1 %cmp, label %if.then, label %if.end, !dbg !2163

if.then:                                          ; preds = %entry
  %1 = load %"class.xalanc_1_10::XalanDOMString"*, %"class.xalanc_1_10::XalanDOMString"** %theSource.addr, align 8, !dbg !2164
  %m_data = getelementptr inbounds %"class.xalanc_1_10::XalanDOMString", %"class.xalanc_1_10::XalanDOMString"* %1, i32 0, i32 0, !dbg !2166
  %m_data2 = getelementptr inbounds %"class.xalanc_1_10::XalanDOMString", %"class.xalanc_1_10::XalanDOMString"* %this1, i32 0, i32 0, !dbg !2167
  %call = call dereferenceable(32) %"class.xalanc_1_10::XalanVector"* @_ZN11xalanc_1_1011XalanVectorItNS_31MemoryManagedConstructionTraitsItEEEaSERKS3_(%"class.xalanc_1_10::XalanVector"* %m_data2, %"class.xalanc_1_10::XalanVector"* dereferenceable(32) %m_data), !dbg !2168
  %2 = load %"class.xalanc_1_10::XalanDOMString"*, %"class.xalanc_1_10::XalanDOMString"** %theSource.addr, align 8, !dbg !2169
  %m_size = getelementptr inbounds %"class.xalanc_1_10::XalanDOMString", %"class.xalanc_1_10::XalanDOMString"* %2, i32 0, i32 1, !dbg !2170
  %3 = load i32, i32* %m_size, align 8, !dbg !2170
  %m_size3 = getelementptr inbounds %"class.xalanc_1_10::XalanDOMString", %"class.xalanc_1_10::XalanDOMString"* %this1, i32 0, i32 1, !dbg !2171
  store i32 %3, i32* %m_size3, align 8, !dbg !2172
  br label %if.end, !dbg !2173

if.end:                                           ; preds = %if.then, %entry
  call void @_ZNK11xalanc_1_1014XalanDOMString10invariantsEv(%"class.xalanc_1_10::XalanDOMString"* %this1), !dbg !2174
  ret %"class.xalanc_1_10::XalanDOMString"* %this1, !dbg !2175
}

; Function Attrs: noinline nounwind uwtable
define linkonce_odr dso_local void @_ZNK11xalanc_1_1014XalanDOMString10invariantsEv(%"class.xalanc_1_10::XalanDOMString"* %this) #3 comdat align 2 !dbg !2176 {
entry:
  %this.addr = alloca %"class.xalanc_1_10::XalanDOMString"*, align 8
  store %"class.xalanc_1_10::XalanDOMString"* %this, %"class.xalanc_1_10::XalanDOMString"** %this.addr, align 8
  call void @llvm.dbg.declare(metadata %"class.xalanc_1_10::XalanDOMString"** %this.addr, metadata !2177, metadata !DIExpression()), !dbg !2179
  %this1 = load %"class.xalanc_1_10::XalanDOMString"*, %"class.xalanc_1_10::XalanDOMString"** %this.addr, align 8
  ret void, !dbg !2180
}

; Function Attrs: noinline uwtable
define linkonce_odr dso_local dereferenceable(32) %"class.xalanc_1_10::XalanVector"* @_ZN11xalanc_1_1011XalanVectorItNS_31MemoryManagedConstructionTraitsItEEEaSERKS3_(%"class.xalanc_1_10::XalanVector"* %this, %"class.xalanc_1_10::XalanVector"* dereferenceable(32) %theRHS) #0 comdat align 2 personality i8* bitcast (i32 (...)* @__gxx_personality_v0 to i8*) !dbg !2181 {
entry:
  %this.addr = alloca %"class.xalanc_1_10::XalanVector"*, align 8
  %theRHS.addr = alloca %"class.xalanc_1_10::XalanVector"*, align 8
  %theTemp = alloca %"class.xalanc_1_10::XalanVector", align 8
  %exn.slot = alloca i8*
  %ehselector.slot = alloca i32
  %theRHSCopyEnd = alloca i16*, align 8
  store %"class.xalanc_1_10::XalanVector"* %this, %"class.xalanc_1_10::XalanVector"** %this.addr, align 8
  call void @llvm.dbg.declare(metadata %"class.xalanc_1_10::XalanVector"** %this.addr, metadata !2182, metadata !DIExpression()), !dbg !2183
  store %"class.xalanc_1_10::XalanVector"* %theRHS, %"class.xalanc_1_10::XalanVector"** %theRHS.addr, align 8
  call void @llvm.dbg.declare(metadata %"class.xalanc_1_10::XalanVector"** %theRHS.addr, metadata !2184, metadata !DIExpression()), !dbg !2185
  %this1 = load %"class.xalanc_1_10::XalanVector"*, %"class.xalanc_1_10::XalanVector"** %this.addr, align 8
  call void @_ZNK11xalanc_1_1011XalanVectorItNS_31MemoryManagedConstructionTraitsItEEE10invariantsEv(%"class.xalanc_1_10::XalanVector"* %this1), !dbg !2186
  %0 = load %"class.xalanc_1_10::XalanVector"*, %"class.xalanc_1_10::XalanVector"** %theRHS.addr, align 8, !dbg !2187
  %cmp = icmp ne %"class.xalanc_1_10::XalanVector"* %0, %this1, !dbg !2189
  br i1 %cmp, label %if.then, label %if.end23, !dbg !2190

if.then:                                          ; preds = %entry
  %m_allocation = getelementptr inbounds %"class.xalanc_1_10::XalanVector", %"class.xalanc_1_10::XalanVector"* %this1, i32 0, i32 2, !dbg !2191
  %1 = load i64, i64* %m_allocation, align 8, !dbg !2191
  %2 = load %"class.xalanc_1_10::XalanVector"*, %"class.xalanc_1_10::XalanVector"** %theRHS.addr, align 8, !dbg !2194
  %m_size = getelementptr inbounds %"class.xalanc_1_10::XalanVector", %"class.xalanc_1_10::XalanVector"* %2, i32 0, i32 1, !dbg !2195
  %3 = load i64, i64* %m_size, align 8, !dbg !2195
  %cmp2 = icmp ult i64 %1, %3, !dbg !2196
  br i1 %cmp2, label %if.then3, label %if.else, !dbg !2197

if.then3:                                         ; preds = %if.then
  call void @llvm.dbg.declare(metadata %"class.xalanc_1_10::XalanVector"* %theTemp, metadata !2198, metadata !DIExpression()), !dbg !2200
  %4 = load %"class.xalanc_1_10::XalanVector"*, %"class.xalanc_1_10::XalanVector"** %theRHS.addr, align 8, !dbg !2201
  %m_memoryManager = getelementptr inbounds %"class.xalanc_1_10::XalanVector", %"class.xalanc_1_10::XalanVector"* %this1, i32 0, i32 0, !dbg !2202
  %5 = load %"class.xercesc_2_7::MemoryManager"*, %"class.xercesc_2_7::MemoryManager"** %m_memoryManager, align 8, !dbg !2202
  call void @_ZN11xalanc_1_1011XalanVectorItNS_31MemoryManagedConstructionTraitsItEEEC2ERKS3_RN11xercesc_2_713MemoryManagerEm(%"class.xalanc_1_10::XalanVector"* %theTemp, %"class.xalanc_1_10::XalanVector"* dereferenceable(32) %4, %"class.xercesc_2_7::MemoryManager"* dereferenceable(8) %5, i64 0), !dbg !2200
  invoke void @_ZN11xalanc_1_1011XalanVectorItNS_31MemoryManagedConstructionTraitsItEEE4swapERS3_(%"class.xalanc_1_10::XalanVector"* %this1, %"class.xalanc_1_10::XalanVector"* dereferenceable(32) %theTemp)
          to label %invoke.cont unwind label %lpad, !dbg !2203

invoke.cont:                                      ; preds = %if.then3
  call void @_ZN11xalanc_1_1011XalanVectorItNS_31MemoryManagedConstructionTraitsItEEED2Ev(%"class.xalanc_1_10::XalanVector"* %theTemp) #8, !dbg !2204
  br label %if.end22, !dbg !2205

lpad:                                             ; preds = %if.then3
  %6 = landingpad { i8*, i32 }
          cleanup, !dbg !2206
  %7 = extractvalue { i8*, i32 } %6, 0, !dbg !2206
  store i8* %7, i8** %exn.slot, align 8, !dbg !2206
  %8 = extractvalue { i8*, i32 } %6, 1, !dbg !2206
  store i32 %8, i32* %ehselector.slot, align 4, !dbg !2206
  call void @_ZN11xalanc_1_1011XalanVectorItNS_31MemoryManagedConstructionTraitsItEEED2Ev(%"class.xalanc_1_10::XalanVector"* %theTemp) #8, !dbg !2204
  br label %eh.resume, !dbg !2204

if.else:                                          ; preds = %if.then
  call void @llvm.dbg.declare(metadata i16** %theRHSCopyEnd, metadata !2207, metadata !DIExpression()), !dbg !2209
  %9 = load %"class.xalanc_1_10::XalanVector"*, %"class.xalanc_1_10::XalanVector"** %theRHS.addr, align 8, !dbg !2210
  %call = call i16* @_ZNK11xalanc_1_1011XalanVectorItNS_31MemoryManagedConstructionTraitsItEEE3endEv(%"class.xalanc_1_10::XalanVector"* %9), !dbg !2211
  store i16* %call, i16** %theRHSCopyEnd, align 8, !dbg !2209
  %m_size4 = getelementptr inbounds %"class.xalanc_1_10::XalanVector", %"class.xalanc_1_10::XalanVector"* %this1, i32 0, i32 1, !dbg !2212
  %10 = load i64, i64* %m_size4, align 8, !dbg !2212
  %11 = load %"class.xalanc_1_10::XalanVector"*, %"class.xalanc_1_10::XalanVector"** %theRHS.addr, align 8, !dbg !2214
  %m_size5 = getelementptr inbounds %"class.xalanc_1_10::XalanVector", %"class.xalanc_1_10::XalanVector"* %11, i32 0, i32 1, !dbg !2215
  %12 = load i64, i64* %m_size5, align 8, !dbg !2215
  %cmp6 = icmp ugt i64 %10, %12, !dbg !2216
  br i1 %cmp6, label %if.then7, label %if.else9, !dbg !2217

if.then7:                                         ; preds = %if.else
  %13 = load %"class.xalanc_1_10::XalanVector"*, %"class.xalanc_1_10::XalanVector"** %theRHS.addr, align 8, !dbg !2218
  %m_size8 = getelementptr inbounds %"class.xalanc_1_10::XalanVector", %"class.xalanc_1_10::XalanVector"* %13, i32 0, i32 1, !dbg !2220
  %14 = load i64, i64* %m_size8, align 8, !dbg !2220
  call void @_ZN11xalanc_1_1011XalanVectorItNS_31MemoryManagedConstructionTraitsItEEE12shrinkToSizeEm(%"class.xalanc_1_10::XalanVector"* %this1, i64 %14), !dbg !2221
  br label %if.end18, !dbg !2222

if.else9:                                         ; preds = %if.else
  %m_size10 = getelementptr inbounds %"class.xalanc_1_10::XalanVector", %"class.xalanc_1_10::XalanVector"* %this1, i32 0, i32 1, !dbg !2223
  %15 = load i64, i64* %m_size10, align 8, !dbg !2223
  %16 = load %"class.xalanc_1_10::XalanVector"*, %"class.xalanc_1_10::XalanVector"** %theRHS.addr, align 8, !dbg !2225
  %m_size11 = getelementptr inbounds %"class.xalanc_1_10::XalanVector", %"class.xalanc_1_10::XalanVector"* %16, i32 0, i32 1, !dbg !2226
  %17 = load i64, i64* %m_size11, align 8, !dbg !2226
  %cmp12 = icmp ult i64 %15, %17, !dbg !2227
  br i1 %cmp12, label %if.then13, label %if.end, !dbg !2228

if.then13:                                        ; preds = %if.else9
  %18 = load %"class.xalanc_1_10::XalanVector"*, %"class.xalanc_1_10::XalanVector"** %theRHS.addr, align 8, !dbg !2229
  %call14 = call i16* @_ZNK11xalanc_1_1011XalanVectorItNS_31MemoryManagedConstructionTraitsItEEE5beginEv(%"class.xalanc_1_10::XalanVector"* %18), !dbg !2231
  %m_size15 = getelementptr inbounds %"class.xalanc_1_10::XalanVector", %"class.xalanc_1_10::XalanVector"* %this1, i32 0, i32 1, !dbg !2232
  %19 = load i64, i64* %m_size15, align 8, !dbg !2232
  %add.ptr = getelementptr inbounds i16, i16* %call14, i64 %19, !dbg !2233
  store i16* %add.ptr, i16** %theRHSCopyEnd, align 8, !dbg !2234
  %call16 = call i16* @_ZN11xalanc_1_1011XalanVectorItNS_31MemoryManagedConstructionTraitsItEEE3endEv(%"class.xalanc_1_10::XalanVector"* %this1), !dbg !2235
  %20 = load i16*, i16** %theRHSCopyEnd, align 8, !dbg !2236
  %21 = load %"class.xalanc_1_10::XalanVector"*, %"class.xalanc_1_10::XalanVector"** %theRHS.addr, align 8, !dbg !2237
  %call17 = call i16* @_ZNK11xalanc_1_1011XalanVectorItNS_31MemoryManagedConstructionTraitsItEEE3endEv(%"class.xalanc_1_10::XalanVector"* %21), !dbg !2238
  call void @_ZN11xalanc_1_1011XalanVectorItNS_31MemoryManagedConstructionTraitsItEEE6insertEPtPKtS6_(%"class.xalanc_1_10::XalanVector"* %this1, i16* %call16, i16* %20, i16* %call17), !dbg !2239
  br label %if.end, !dbg !2240

if.end:                                           ; preds = %if.then13, %if.else9
  br label %if.end18

if.end18:                                         ; preds = %if.end, %if.then7
  %22 = load %"class.xalanc_1_10::XalanVector"*, %"class.xalanc_1_10::XalanVector"** %theRHS.addr, align 8, !dbg !2241
  %call19 = call i16* @_ZNK11xalanc_1_1011XalanVectorItNS_31MemoryManagedConstructionTraitsItEEE5beginEv(%"class.xalanc_1_10::XalanVector"* %22), !dbg !2242
  %23 = load i16*, i16** %theRHSCopyEnd, align 8, !dbg !2243
  %call20 = call i16* @_ZN11xalanc_1_1011XalanVectorItNS_31MemoryManagedConstructionTraitsItEEE5beginEv(%"class.xalanc_1_10::XalanVector"* %this1), !dbg !2244
  %call21 = call i16* @_ZSt4copyIPKtPtET0_T_S4_S3_(i16* %call19, i16* %23, i16* %call20), !dbg !2245
  br label %if.end22

if.end22:                                         ; preds = %if.end18, %invoke.cont
  br label %if.end23, !dbg !2246

if.end23:                                         ; preds = %if.end22, %entry
  call void @_ZNK11xalanc_1_1011XalanVectorItNS_31MemoryManagedConstructionTraitsItEEE10invariantsEv(%"class.xalanc_1_10::XalanVector"* %this1), !dbg !2247
  ret %"class.xalanc_1_10::XalanVector"* %this1, !dbg !2248

eh.resume:                                        ; preds = %lpad
  %exn = load i8*, i8** %exn.slot, align 8, !dbg !2204
  %sel = load i32, i32* %ehselector.slot, align 4, !dbg !2204
  %lpad.val = insertvalue { i8*, i32 } undef, i8* %exn, 0, !dbg !2204
  %lpad.val24 = insertvalue { i8*, i32 } %lpad.val, i32 %sel, 1, !dbg !2204
  resume { i8*, i32 } %lpad.val24, !dbg !2204
}

; Function Attrs: noinline uwtable
define linkonce_odr dso_local void @_ZN11xalanc_1_1011XalanVectorItNS_31MemoryManagedConstructionTraitsItEEEC2ERKS3_RN11xercesc_2_713MemoryManagerEm(%"class.xalanc_1_10::XalanVector"* %this, %"class.xalanc_1_10::XalanVector"* dereferenceable(32) %theSource, %"class.xercesc_2_7::MemoryManager"* dereferenceable(8) %theManager, i64 %theInitialAllocation) unnamed_addr #0 comdat align 2 personality i8* bitcast (i32 (...)* @__gxx_personality_v0 to i8*) !dbg !2249 {
entry:
  %this.addr = alloca %"class.xalanc_1_10::XalanVector"*, align 8
  %theSource.addr = alloca %"class.xalanc_1_10::XalanVector"*, align 8
  %theManager.addr = alloca %"class.xercesc_2_7::MemoryManager"*, align 8
  %theInitialAllocation.addr = alloca i64, align 8
  %theTemp = alloca %"class.xalanc_1_10::XalanVector", align 8
  %exn.slot = alloca i8*
  %ehselector.slot = alloca i32
  store %"class.xalanc_1_10::XalanVector"* %this, %"class.xalanc_1_10::XalanVector"** %this.addr, align 8
  call void @llvm.dbg.declare(metadata %"class.xalanc_1_10::XalanVector"** %this.addr, metadata !2250, metadata !DIExpression()), !dbg !2251
  store %"class.xalanc_1_10::XalanVector"* %theSource, %"class.xalanc_1_10::XalanVector"** %theSource.addr, align 8
  call void @llvm.dbg.declare(metadata %"class.xalanc_1_10::XalanVector"** %theSource.addr, metadata !2252, metadata !DIExpression()), !dbg !2253
  store %"class.xercesc_2_7::MemoryManager"* %theManager, %"class.xercesc_2_7::MemoryManager"** %theManager.addr, align 8
  call void @llvm.dbg.declare(metadata %"class.xercesc_2_7::MemoryManager"** %theManager.addr, metadata !2254, metadata !DIExpression()), !dbg !2255
  store i64 %theInitialAllocation, i64* %theInitialAllocation.addr, align 8
  call void @llvm.dbg.declare(metadata i64* %theInitialAllocation.addr, metadata !2256, metadata !DIExpression()), !dbg !2257
  %this1 = load %"class.xalanc_1_10::XalanVector"*, %"class.xalanc_1_10::XalanVector"** %this.addr, align 8
  %m_memoryManager = getelementptr inbounds %"class.xalanc_1_10::XalanVector", %"class.xalanc_1_10::XalanVector"* %this1, i32 0, i32 0, !dbg !2258
  %0 = load %"class.xercesc_2_7::MemoryManager"*, %"class.xercesc_2_7::MemoryManager"** %theManager.addr, align 8, !dbg !2259
  store %"class.xercesc_2_7::MemoryManager"* %0, %"class.xercesc_2_7::MemoryManager"** %m_memoryManager, align 8, !dbg !2258
  %m_size = getelementptr inbounds %"class.xalanc_1_10::XalanVector", %"class.xalanc_1_10::XalanVector"* %this1, i32 0, i32 1, !dbg !2260
  store i64 0, i64* %m_size, align 8, !dbg !2260
  %m_allocation = getelementptr inbounds %"class.xalanc_1_10::XalanVector", %"class.xalanc_1_10::XalanVector"* %this1, i32 0, i32 2, !dbg !2261
  store i64 0, i64* %m_allocation, align 8, !dbg !2261
  %m_data = getelementptr inbounds %"class.xalanc_1_10::XalanVector", %"class.xalanc_1_10::XalanVector"* %this1, i32 0, i32 3, !dbg !2262
  store i16* null, i16** %m_data, align 8, !dbg !2262
  %1 = load %"class.xalanc_1_10::XalanVector"*, %"class.xalanc_1_10::XalanVector"** %theSource.addr, align 8, !dbg !2263
  %m_size2 = getelementptr inbounds %"class.xalanc_1_10::XalanVector", %"class.xalanc_1_10::XalanVector"* %1, i32 0, i32 1, !dbg !2266
  %2 = load i64, i64* %m_size2, align 8, !dbg !2266
  %cmp = icmp ugt i64 %2, 0, !dbg !2267
  br i1 %cmp, label %if.then, label %if.else, !dbg !2268

if.then:                                          ; preds = %entry
  call void @llvm.dbg.declare(metadata %"class.xalanc_1_10::XalanVector"* %theTemp, metadata !2269, metadata !DIExpression()), !dbg !2271
  %3 = load %"class.xercesc_2_7::MemoryManager"*, %"class.xercesc_2_7::MemoryManager"** %theManager.addr, align 8, !dbg !2272
  %4 = load %"class.xalanc_1_10::XalanVector"*, %"class.xalanc_1_10::XalanVector"** %theSource.addr, align 8, !dbg !2273
  %m_size3 = getelementptr inbounds %"class.xalanc_1_10::XalanVector", %"class.xalanc_1_10::XalanVector"* %4, i32 0, i32 1, !dbg !2274
  %5 = load i64, i64* %m_size3, align 8, !dbg !2274
  %6 = load i64, i64* %theInitialAllocation.addr, align 8, !dbg !2275
  %call = call i64 @_ZN11xalanc_1_1011XalanVectorItNS_31MemoryManagedConstructionTraitsItEEE9local_maxEmm(%"class.xalanc_1_10::XalanVector"* %this1, i64 %5, i64 %6), !dbg !2276
  call void @_ZN11xalanc_1_1011XalanVectorItNS_31MemoryManagedConstructionTraitsItEEEC2ERN11xercesc_2_713MemoryManagerEm(%"class.xalanc_1_10::XalanVector"* %theTemp, %"class.xercesc_2_7::MemoryManager"* dereferenceable(8) %3, i64 %call), !dbg !2271
  %call4 = invoke i16* @_ZN11xalanc_1_1011XalanVectorItNS_31MemoryManagedConstructionTraitsItEEE5beginEv(%"class.xalanc_1_10::XalanVector"* %theTemp)
          to label %invoke.cont unwind label %lpad, !dbg !2277

invoke.cont:                                      ; preds = %if.then
  %7 = load %"class.xalanc_1_10::XalanVector"*, %"class.xalanc_1_10::XalanVector"** %theSource.addr, align 8, !dbg !2278
  %call6 = invoke i16* @_ZNK11xalanc_1_1011XalanVectorItNS_31MemoryManagedConstructionTraitsItEEE5beginEv(%"class.xalanc_1_10::XalanVector"* %7)
          to label %invoke.cont5 unwind label %lpad, !dbg !2279

invoke.cont5:                                     ; preds = %invoke.cont
  %8 = load %"class.xalanc_1_10::XalanVector"*, %"class.xalanc_1_10::XalanVector"** %theSource.addr, align 8, !dbg !2280
  %call8 = invoke i16* @_ZNK11xalanc_1_1011XalanVectorItNS_31MemoryManagedConstructionTraitsItEEE3endEv(%"class.xalanc_1_10::XalanVector"* %8)
          to label %invoke.cont7 unwind label %lpad, !dbg !2281

invoke.cont7:                                     ; preds = %invoke.cont5
  invoke void @_ZN11xalanc_1_1011XalanVectorItNS_31MemoryManagedConstructionTraitsItEEE6insertEPtPKtS6_(%"class.xalanc_1_10::XalanVector"* %theTemp, i16* %call4, i16* %call6, i16* %call8)
          to label %invoke.cont9 unwind label %lpad, !dbg !2282

invoke.cont9:                                     ; preds = %invoke.cont7
  invoke void @_ZN11xalanc_1_1011XalanVectorItNS_31MemoryManagedConstructionTraitsItEEE4swapERS3_(%"class.xalanc_1_10::XalanVector"* %this1, %"class.xalanc_1_10::XalanVector"* dereferenceable(32) %theTemp)
          to label %invoke.cont10 unwind label %lpad, !dbg !2283

invoke.cont10:                                    ; preds = %invoke.cont9
  call void @_ZN11xalanc_1_1011XalanVectorItNS_31MemoryManagedConstructionTraitsItEEED2Ev(%"class.xalanc_1_10::XalanVector"* %theTemp) #8, !dbg !2284
  br label %if.end16, !dbg !2285

lpad:                                             ; preds = %invoke.cont9, %invoke.cont7, %invoke.cont5, %invoke.cont, %if.then
  %9 = landingpad { i8*, i32 }
          cleanup, !dbg !2286
  %10 = extractvalue { i8*, i32 } %9, 0, !dbg !2286
  store i8* %10, i8** %exn.slot, align 8, !dbg !2286
  %11 = extractvalue { i8*, i32 } %9, 1, !dbg !2286
  store i32 %11, i32* %ehselector.slot, align 4, !dbg !2286
  call void @_ZN11xalanc_1_1011XalanVectorItNS_31MemoryManagedConstructionTraitsItEEED2Ev(%"class.xalanc_1_10::XalanVector"* %theTemp) #8, !dbg !2284
  br label %eh.resume, !dbg !2284

if.else:                                          ; preds = %entry
  %12 = load i64, i64* %theInitialAllocation.addr, align 8, !dbg !2287
  %cmp11 = icmp ugt i64 %12, 0, !dbg !2289
  br i1 %cmp11, label %if.then12, label %if.end, !dbg !2290

if.then12:                                        ; preds = %if.else
  %13 = load i64, i64* %theInitialAllocation.addr, align 8, !dbg !2291
  %call13 = call i16* @_ZN11xalanc_1_1011XalanVectorItNS_31MemoryManagedConstructionTraitsItEEE8allocateEm(%"class.xalanc_1_10::XalanVector"* %this1, i64 %13), !dbg !2293
  %m_data14 = getelementptr inbounds %"class.xalanc_1_10::XalanVector", %"class.xalanc_1_10::XalanVector"* %this1, i32 0, i32 3, !dbg !2294
  store i16* %call13, i16** %m_data14, align 8, !dbg !2295
  %14 = load i64, i64* %theInitialAllocation.addr, align 8, !dbg !2296
  %m_allocation15 = getelementptr inbounds %"class.xalanc_1_10::XalanVector", %"class.xalanc_1_10::XalanVector"* %this1, i32 0, i32 2, !dbg !2297
  store i64 %14, i64* %m_allocation15, align 8, !dbg !2298
  br label %if.end, !dbg !2299

if.end:                                           ; preds = %if.then12, %if.else
  br label %if.end16

if.end16:                                         ; preds = %if.end, %invoke.cont10
  call void @_ZNK11xalanc_1_1011XalanVectorItNS_31MemoryManagedConstructionTraitsItEEE10invariantsEv(%"class.xalanc_1_10::XalanVector"* %this1), !dbg !2300
  ret void, !dbg !2301

eh.resume:                                        ; preds = %lpad
  %exn = load i8*, i8** %exn.slot, align 8, !dbg !2284
  %sel = load i32, i32* %ehselector.slot, align 4, !dbg !2284
  %lpad.val = insertvalue { i8*, i32 } undef, i8* %exn, 0, !dbg !2284
  %lpad.val17 = insertvalue { i8*, i32 } %lpad.val, i32 %sel, 1, !dbg !2284
  resume { i8*, i32 } %lpad.val17, !dbg !2284
}

; Function Attrs: noinline nounwind uwtable
define linkonce_odr dso_local void @_ZN11xalanc_1_1011XalanVectorItNS_31MemoryManagedConstructionTraitsItEEE4swapERS3_(%"class.xalanc_1_10::XalanVector"* %this, %"class.xalanc_1_10::XalanVector"* dereferenceable(32) %theOther) #3 comdat align 2 !dbg !2302 {
entry:
  %this.addr = alloca %"class.xalanc_1_10::XalanVector"*, align 8
  %theOther.addr = alloca %"class.xalanc_1_10::XalanVector"*, align 8
  %theTempManager = alloca %"class.xercesc_2_7::MemoryManager"*, align 8
  %theTempLength = alloca i64, align 8
  %theTempAllocation = alloca i64, align 8
  %theTempData = alloca i16*, align 8
  store %"class.xalanc_1_10::XalanVector"* %this, %"class.xalanc_1_10::XalanVector"** %this.addr, align 8
  call void @llvm.dbg.declare(metadata %"class.xalanc_1_10::XalanVector"** %this.addr, metadata !2303, metadata !DIExpression()), !dbg !2304
  store %"class.xalanc_1_10::XalanVector"* %theOther, %"class.xalanc_1_10::XalanVector"** %theOther.addr, align 8
  call void @llvm.dbg.declare(metadata %"class.xalanc_1_10::XalanVector"** %theOther.addr, metadata !2305, metadata !DIExpression()), !dbg !2306
  %this1 = load %"class.xalanc_1_10::XalanVector"*, %"class.xalanc_1_10::XalanVector"** %this.addr, align 8
  call void @_ZNK11xalanc_1_1011XalanVectorItNS_31MemoryManagedConstructionTraitsItEEE10invariantsEv(%"class.xalanc_1_10::XalanVector"* %this1), !dbg !2307
  call void @llvm.dbg.declare(metadata %"class.xercesc_2_7::MemoryManager"** %theTempManager, metadata !2308, metadata !DIExpression()), !dbg !2310
  %m_memoryManager = getelementptr inbounds %"class.xalanc_1_10::XalanVector", %"class.xalanc_1_10::XalanVector"* %this1, i32 0, i32 0, !dbg !2311
  %0 = load %"class.xercesc_2_7::MemoryManager"*, %"class.xercesc_2_7::MemoryManager"** %m_memoryManager, align 8, !dbg !2311
  store %"class.xercesc_2_7::MemoryManager"* %0, %"class.xercesc_2_7::MemoryManager"** %theTempManager, align 8, !dbg !2310
  call void @llvm.dbg.declare(metadata i64* %theTempLength, metadata !2312, metadata !DIExpression()), !dbg !2314
  %m_size = getelementptr inbounds %"class.xalanc_1_10::XalanVector", %"class.xalanc_1_10::XalanVector"* %this1, i32 0, i32 1, !dbg !2315
  %1 = load i64, i64* %m_size, align 8, !dbg !2315
  store i64 %1, i64* %theTempLength, align 8, !dbg !2314
  call void @llvm.dbg.declare(metadata i64* %theTempAllocation, metadata !2316, metadata !DIExpression()), !dbg !2317
  %m_allocation = getelementptr inbounds %"class.xalanc_1_10::XalanVector", %"class.xalanc_1_10::XalanVector"* %this1, i32 0, i32 2, !dbg !2318
  %2 = load i64, i64* %m_allocation, align 8, !dbg !2318
  store i64 %2, i64* %theTempAllocation, align 8, !dbg !2317
  call void @llvm.dbg.declare(metadata i16** %theTempData, metadata !2319, metadata !DIExpression()), !dbg !2321
  %m_data = getelementptr inbounds %"class.xalanc_1_10::XalanVector", %"class.xalanc_1_10::XalanVector"* %this1, i32 0, i32 3, !dbg !2322
  %3 = load i16*, i16** %m_data, align 8, !dbg !2322
  store i16* %3, i16** %theTempData, align 8, !dbg !2321
  %4 = load %"class.xalanc_1_10::XalanVector"*, %"class.xalanc_1_10::XalanVector"** %theOther.addr, align 8, !dbg !2323
  %m_memoryManager2 = getelementptr inbounds %"class.xalanc_1_10::XalanVector", %"class.xalanc_1_10::XalanVector"* %4, i32 0, i32 0, !dbg !2324
  %5 = load %"class.xercesc_2_7::MemoryManager"*, %"class.xercesc_2_7::MemoryManager"** %m_memoryManager2, align 8, !dbg !2324
  %m_memoryManager3 = getelementptr inbounds %"class.xalanc_1_10::XalanVector", %"class.xalanc_1_10::XalanVector"* %this1, i32 0, i32 0, !dbg !2325
  store %"class.xercesc_2_7::MemoryManager"* %5, %"class.xercesc_2_7::MemoryManager"** %m_memoryManager3, align 8, !dbg !2326
  %6 = load %"class.xalanc_1_10::XalanVector"*, %"class.xalanc_1_10::XalanVector"** %theOther.addr, align 8, !dbg !2327
  %m_size4 = getelementptr inbounds %"class.xalanc_1_10::XalanVector", %"class.xalanc_1_10::XalanVector"* %6, i32 0, i32 1, !dbg !2328
  %7 = load i64, i64* %m_size4, align 8, !dbg !2328
  %m_size5 = getelementptr inbounds %"class.xalanc_1_10::XalanVector", %"class.xalanc_1_10::XalanVector"* %this1, i32 0, i32 1, !dbg !2329
  store i64 %7, i64* %m_size5, align 8, !dbg !2330
  %8 = load %"class.xalanc_1_10::XalanVector"*, %"class.xalanc_1_10::XalanVector"** %theOther.addr, align 8, !dbg !2331
  %m_allocation6 = getelementptr inbounds %"class.xalanc_1_10::XalanVector", %"class.xalanc_1_10::XalanVector"* %8, i32 0, i32 2, !dbg !2332
  %9 = load i64, i64* %m_allocation6, align 8, !dbg !2332
  %m_allocation7 = getelementptr inbounds %"class.xalanc_1_10::XalanVector", %"class.xalanc_1_10::XalanVector"* %this1, i32 0, i32 2, !dbg !2333
  store i64 %9, i64* %m_allocation7, align 8, !dbg !2334
  %10 = load %"class.xalanc_1_10::XalanVector"*, %"class.xalanc_1_10::XalanVector"** %theOther.addr, align 8, !dbg !2335
  %m_data8 = getelementptr inbounds %"class.xalanc_1_10::XalanVector", %"class.xalanc_1_10::XalanVector"* %10, i32 0, i32 3, !dbg !2336
  %11 = load i16*, i16** %m_data8, align 8, !dbg !2336
  %m_data9 = getelementptr inbounds %"class.xalanc_1_10::XalanVector", %"class.xalanc_1_10::XalanVector"* %this1, i32 0, i32 3, !dbg !2337
  store i16* %11, i16** %m_data9, align 8, !dbg !2338
  %12 = load %"class.xercesc_2_7::MemoryManager"*, %"class.xercesc_2_7::MemoryManager"** %theTempManager, align 8, !dbg !2339
  %13 = load %"class.xalanc_1_10::XalanVector"*, %"class.xalanc_1_10::XalanVector"** %theOther.addr, align 8, !dbg !2340
  %m_memoryManager10 = getelementptr inbounds %"class.xalanc_1_10::XalanVector", %"class.xalanc_1_10::XalanVector"* %13, i32 0, i32 0, !dbg !2341
  store %"class.xercesc_2_7::MemoryManager"* %12, %"class.xercesc_2_7::MemoryManager"** %m_memoryManager10, align 8, !dbg !2342
  %14 = load i64, i64* %theTempLength, align 8, !dbg !2343
  %15 = load %"class.xalanc_1_10::XalanVector"*, %"class.xalanc_1_10::XalanVector"** %theOther.addr, align 8, !dbg !2344
  %m_size11 = getelementptr inbounds %"class.xalanc_1_10::XalanVector", %"class.xalanc_1_10::XalanVector"* %15, i32 0, i32 1, !dbg !2345
  store i64 %14, i64* %m_size11, align 8, !dbg !2346
  %16 = load i64, i64* %theTempAllocation, align 8, !dbg !2347
  %17 = load %"class.xalanc_1_10::XalanVector"*, %"class.xalanc_1_10::XalanVector"** %theOther.addr, align 8, !dbg !2348
  %m_allocation12 = getelementptr inbounds %"class.xalanc_1_10::XalanVector", %"class.xalanc_1_10::XalanVector"* %17, i32 0, i32 2, !dbg !2349
  store i64 %16, i64* %m_allocation12, align 8, !dbg !2350
  %18 = load i16*, i16** %theTempData, align 8, !dbg !2351
  %19 = load %"class.xalanc_1_10::XalanVector"*, %"class.xalanc_1_10::XalanVector"** %theOther.addr, align 8, !dbg !2352
  %m_data13 = getelementptr inbounds %"class.xalanc_1_10::XalanVector", %"class.xalanc_1_10::XalanVector"* %19, i32 0, i32 3, !dbg !2353
  store i16* %18, i16** %m_data13, align 8, !dbg !2354
  call void @_ZNK11xalanc_1_1011XalanVectorItNS_31MemoryManagedConstructionTraitsItEEE10invariantsEv(%"class.xalanc_1_10::XalanVector"* %this1), !dbg !2355
  ret void, !dbg !2356
}

; Function Attrs: noinline uwtable
define linkonce_odr dso_local i16* @_ZNK11xalanc_1_1011XalanVectorItNS_31MemoryManagedConstructionTraitsItEEE3endEv(%"class.xalanc_1_10::XalanVector"* %this) #0 comdat align 2 !dbg !2357 {
entry:
  %this.addr = alloca %"class.xalanc_1_10::XalanVector"*, align 8
  store %"class.xalanc_1_10::XalanVector"* %this, %"class.xalanc_1_10::XalanVector"** %this.addr, align 8
  call void @llvm.dbg.declare(metadata %"class.xalanc_1_10::XalanVector"** %this.addr, metadata !2358, metadata !DIExpression()), !dbg !2359
  %this1 = load %"class.xalanc_1_10::XalanVector"*, %"class.xalanc_1_10::XalanVector"** %this.addr, align 8
  call void @_ZNK11xalanc_1_1011XalanVectorItNS_31MemoryManagedConstructionTraitsItEEE10invariantsEv(%"class.xalanc_1_10::XalanVector"* %this1), !dbg !2360
  %call = call i16* @_ZNK11xalanc_1_1011XalanVectorItNS_31MemoryManagedConstructionTraitsItEEE10endPointerEv(%"class.xalanc_1_10::XalanVector"* %this1), !dbg !2361
  ret i16* %call, !dbg !2362
}

; Function Attrs: noinline uwtable
define linkonce_odr dso_local void @_ZN11xalanc_1_1011XalanVectorItNS_31MemoryManagedConstructionTraitsItEEE12shrinkToSizeEm(%"class.xalanc_1_10::XalanVector"* %this, i64 %theSize) #0 comdat align 2 !dbg !2363 {
entry:
  %this.addr = alloca %"class.xalanc_1_10::XalanVector"*, align 8
  %theSize.addr = alloca i64, align 8
  store %"class.xalanc_1_10::XalanVector"* %this, %"class.xalanc_1_10::XalanVector"** %this.addr, align 8
  call void @llvm.dbg.declare(metadata %"class.xalanc_1_10::XalanVector"** %this.addr, metadata !2364, metadata !DIExpression()), !dbg !2365
  store i64 %theSize, i64* %theSize.addr, align 8
  call void @llvm.dbg.declare(metadata i64* %theSize.addr, metadata !2366, metadata !DIExpression()), !dbg !2367
  %this1 = load %"class.xalanc_1_10::XalanVector"*, %"class.xalanc_1_10::XalanVector"** %this.addr, align 8
  br label %do.body, !dbg !2368

do.body:                                          ; preds = %do.cond, %entry
  call void @_ZN11xalanc_1_1011XalanVectorItNS_31MemoryManagedConstructionTraitsItEEE8pop_backEv(%"class.xalanc_1_10::XalanVector"* %this1), !dbg !2369
  br label %do.cond, !dbg !2371

do.cond:                                          ; preds = %do.body
  %m_size = getelementptr inbounds %"class.xalanc_1_10::XalanVector", %"class.xalanc_1_10::XalanVector"* %this1, i32 0, i32 1, !dbg !2372
  %0 = load i64, i64* %m_size, align 8, !dbg !2372
  %1 = load i64, i64* %theSize.addr, align 8, !dbg !2373
  %cmp = icmp ugt i64 %0, %1, !dbg !2374
  br i1 %cmp, label %do.body, label %do.end, !dbg !2371, !llvm.loop !2375

do.end:                                           ; preds = %do.cond
  ret void, !dbg !2377
}

; Function Attrs: noinline nounwind uwtable
define linkonce_odr dso_local i16* @_ZNK11xalanc_1_1011XalanVectorItNS_31MemoryManagedConstructionTraitsItEEE5beginEv(%"class.xalanc_1_10::XalanVector"* %this) #3 comdat align 2 !dbg !2378 {
entry:
  %this.addr = alloca %"class.xalanc_1_10::XalanVector"*, align 8
  store %"class.xalanc_1_10::XalanVector"* %this, %"class.xalanc_1_10::XalanVector"** %this.addr, align 8
  call void @llvm.dbg.declare(metadata %"class.xalanc_1_10::XalanVector"** %this.addr, metadata !2379, metadata !DIExpression()), !dbg !2380
  %this1 = load %"class.xalanc_1_10::XalanVector"*, %"class.xalanc_1_10::XalanVector"** %this.addr, align 8
  call void @_ZNK11xalanc_1_1011XalanVectorItNS_31MemoryManagedConstructionTraitsItEEE10invariantsEv(%"class.xalanc_1_10::XalanVector"* %this1), !dbg !2381
  %m_data = getelementptr inbounds %"class.xalanc_1_10::XalanVector", %"class.xalanc_1_10::XalanVector"* %this1, i32 0, i32 3, !dbg !2382
  %0 = load i16*, i16** %m_data, align 8, !dbg !2382
  ret i16* %0, !dbg !2383
}

; Function Attrs: noinline uwtable
define linkonce_odr dso_local void @_ZN11xalanc_1_1011XalanVectorItNS_31MemoryManagedConstructionTraitsItEEE6insertEPtPKtS6_(%"class.xalanc_1_10::XalanVector"* %this, i16* %thePosition, i16* %theFirst, i16* %theLast) #0 comdat align 2 personality i8* bitcast (i32 (...)* @__gxx_personality_v0 to i8*) !dbg !2384 {
entry:
  %this.addr = alloca %"class.xalanc_1_10::XalanVector"*, align 8
  %thePosition.addr = alloca i16*, align 8
  %theFirst.addr = alloca i16*, align 8
  %theLast.addr = alloca i16*, align 8
  %theInsertSize = alloca i64, align 8
  %theTotalSize = alloca i64, align 8
  %thePointer = alloca i16*, align 8
  %theTemp = alloca %"class.xalanc_1_10::XalanVector", align 8
  %exn.slot = alloca i8*
  %ehselector.slot = alloca i32
  %theOriginalEnd = alloca i16*, align 8
  %theRightSplitSize = alloca i64, align 8
  %toInsertSplit = alloca i16*, align 8
  %toInsertIter = alloca i16*, align 8
  %toMoveIter = alloca i16*, align 8
  store %"class.xalanc_1_10::XalanVector"* %this, %"class.xalanc_1_10::XalanVector"** %this.addr, align 8
  call void @llvm.dbg.declare(metadata %"class.xalanc_1_10::XalanVector"** %this.addr, metadata !2385, metadata !DIExpression()), !dbg !2386
  store i16* %thePosition, i16** %thePosition.addr, align 8
  call void @llvm.dbg.declare(metadata i16** %thePosition.addr, metadata !2387, metadata !DIExpression()), !dbg !2388
  store i16* %theFirst, i16** %theFirst.addr, align 8
  call void @llvm.dbg.declare(metadata i16** %theFirst.addr, metadata !2389, metadata !DIExpression()), !dbg !2390
  store i16* %theLast, i16** %theLast.addr, align 8
  call void @llvm.dbg.declare(metadata i16** %theLast.addr, metadata !2391, metadata !DIExpression()), !dbg !2392
  %this1 = load %"class.xalanc_1_10::XalanVector"*, %"class.xalanc_1_10::XalanVector"** %this.addr, align 8
  call void @_ZNK11xalanc_1_1011XalanVectorItNS_31MemoryManagedConstructionTraitsItEEE10invariantsEv(%"class.xalanc_1_10::XalanVector"* %this1), !dbg !2393
  call void @llvm.dbg.declare(metadata i64* %theInsertSize, metadata !2394, metadata !DIExpression()), !dbg !2395
  %0 = load i16*, i16** %theFirst.addr, align 8, !dbg !2396
  %1 = load i16*, i16** %theLast.addr, align 8, !dbg !2397
  %call = call i64 @_ZN11xalanc_1_1011XalanVectorItNS_31MemoryManagedConstructionTraitsItEEE14local_distanceEPKtS5_(%"class.xalanc_1_10::XalanVector"* %this1, i16* %0, i16* %1), !dbg !2398
  store i64 %call, i64* %theInsertSize, align 8, !dbg !2395
  %2 = load i64, i64* %theInsertSize, align 8, !dbg !2399
  %cmp = icmp eq i64 %2, 0, !dbg !2401
  br i1 %cmp, label %if.then, label %if.end, !dbg !2402

if.then:                                          ; preds = %entry
  br label %return, !dbg !2403

if.end:                                           ; preds = %entry
  call void @llvm.dbg.declare(metadata i64* %theTotalSize, metadata !2405, metadata !DIExpression()), !dbg !2406
  %call2 = call i64 @_ZNK11xalanc_1_1011XalanVectorItNS_31MemoryManagedConstructionTraitsItEEE4sizeEv(%"class.xalanc_1_10::XalanVector"* %this1), !dbg !2407
  %3 = load i64, i64* %theInsertSize, align 8, !dbg !2408
  %add = add i64 %call2, %3, !dbg !2409
  store i64 %add, i64* %theTotalSize, align 8, !dbg !2406
  %4 = load i16*, i16** %thePosition.addr, align 8, !dbg !2410
  %call3 = call i16* @_ZN11xalanc_1_1011XalanVectorItNS_31MemoryManagedConstructionTraitsItEEE3endEv(%"class.xalanc_1_10::XalanVector"* %this1), !dbg !2412
  %cmp4 = icmp eq i16* %4, %call3, !dbg !2413
  br i1 %cmp4, label %if.then5, label %if.else, !dbg !2414

if.then5:                                         ; preds = %if.end
  call void @llvm.dbg.declare(metadata i16** %thePointer, metadata !2415, metadata !DIExpression()), !dbg !2417
  %5 = load i64, i64* %theTotalSize, align 8, !dbg !2418
  %call6 = call i16* @_ZN11xalanc_1_1011XalanVectorItNS_31MemoryManagedConstructionTraitsItEEE14ensureCapacityEm(%"class.xalanc_1_10::XalanVector"* %this1, i64 %5), !dbg !2419
  store i16* %call6, i16** %thePointer, align 8, !dbg !2417
  br label %while.cond, !dbg !2420

while.cond:                                       ; preds = %while.body, %if.then5
  %6 = load i16*, i16** %theFirst.addr, align 8, !dbg !2421
  %7 = load i16*, i16** %theLast.addr, align 8, !dbg !2422
  %cmp7 = icmp ne i16* %6, %7, !dbg !2423
  br i1 %cmp7, label %while.body, label %while.end, !dbg !2420

while.body:                                       ; preds = %while.cond
  %8 = load i16*, i16** %thePointer, align 8, !dbg !2424
  %9 = load i16*, i16** %theFirst.addr, align 8, !dbg !2426
  %m_memoryManager = getelementptr inbounds %"class.xalanc_1_10::XalanVector", %"class.xalanc_1_10::XalanVector"* %this1, i32 0, i32 0, !dbg !2427
  %10 = load %"class.xercesc_2_7::MemoryManager"*, %"class.xercesc_2_7::MemoryManager"** %m_memoryManager, align 8, !dbg !2427
  %call8 = call i16* @_ZN11xalanc_1_1028ConstructWithNoMemoryManagerItE9constructEPtRKtRN11xercesc_2_713MemoryManagerE(i16* %8, i16* dereferenceable(2) %9, %"class.xercesc_2_7::MemoryManager"* dereferenceable(8) %10), !dbg !2428
  %11 = load i16*, i16** %thePointer, align 8, !dbg !2429
  %incdec.ptr = getelementptr inbounds i16, i16* %11, i32 1, !dbg !2429
  store i16* %incdec.ptr, i16** %thePointer, align 8, !dbg !2429
  %m_size = getelementptr inbounds %"class.xalanc_1_10::XalanVector", %"class.xalanc_1_10::XalanVector"* %this1, i32 0, i32 1, !dbg !2430
  %12 = load i64, i64* %m_size, align 8, !dbg !2431
  %inc = add i64 %12, 1, !dbg !2431
  store i64 %inc, i64* %m_size, align 8, !dbg !2431
  %13 = load i16*, i16** %theFirst.addr, align 8, !dbg !2432
  %incdec.ptr9 = getelementptr inbounds i16, i16* %13, i32 1, !dbg !2432
  store i16* %incdec.ptr9, i16** %theFirst.addr, align 8, !dbg !2432
  br label %while.cond, !dbg !2420, !llvm.loop !2433

while.end:                                        ; preds = %while.cond
  br label %if.end57, !dbg !2435

if.else:                                          ; preds = %if.end
  %14 = load i64, i64* %theTotalSize, align 8, !dbg !2436
  %call10 = call i64 @_ZNK11xalanc_1_1011XalanVectorItNS_31MemoryManagedConstructionTraitsItEEE8capacityEv(%"class.xalanc_1_10::XalanVector"* %this1), !dbg !2439
  %cmp11 = icmp ugt i64 %14, %call10, !dbg !2440
  br i1 %cmp11, label %if.then12, label %if.else27, !dbg !2441

if.then12:                                        ; preds = %if.else
  call void @llvm.dbg.declare(metadata %"class.xalanc_1_10::XalanVector"* %theTemp, metadata !2442, metadata !DIExpression()), !dbg !2444
  %m_memoryManager13 = getelementptr inbounds %"class.xalanc_1_10::XalanVector", %"class.xalanc_1_10::XalanVector"* %this1, i32 0, i32 0, !dbg !2445
  %15 = load %"class.xercesc_2_7::MemoryManager"*, %"class.xercesc_2_7::MemoryManager"** %m_memoryManager13, align 8, !dbg !2445
  %16 = load i64, i64* %theTotalSize, align 8, !dbg !2446
  call void @_ZN11xalanc_1_1011XalanVectorItNS_31MemoryManagedConstructionTraitsItEEEC2ERN11xercesc_2_713MemoryManagerEm(%"class.xalanc_1_10::XalanVector"* %theTemp, %"class.xercesc_2_7::MemoryManager"* dereferenceable(8) %15, i64 %16), !dbg !2444
  %call14 = invoke i16* @_ZN11xalanc_1_1011XalanVectorItNS_31MemoryManagedConstructionTraitsItEEE3endEv(%"class.xalanc_1_10::XalanVector"* %theTemp)
          to label %invoke.cont unwind label %lpad, !dbg !2447

invoke.cont:                                      ; preds = %if.then12
  %call16 = invoke i16* @_ZN11xalanc_1_1011XalanVectorItNS_31MemoryManagedConstructionTraitsItEEE5beginEv(%"class.xalanc_1_10::XalanVector"* %this1)
          to label %invoke.cont15 unwind label %lpad, !dbg !2448

invoke.cont15:                                    ; preds = %invoke.cont
  %17 = load i16*, i16** %thePosition.addr, align 8, !dbg !2449
  invoke void @_ZN11xalanc_1_1011XalanVectorItNS_31MemoryManagedConstructionTraitsItEEE6insertEPtPKtS6_(%"class.xalanc_1_10::XalanVector"* %theTemp, i16* %call14, i16* %call16, i16* %17)
          to label %invoke.cont17 unwind label %lpad, !dbg !2450

invoke.cont17:                                    ; preds = %invoke.cont15
  %call19 = invoke i16* @_ZN11xalanc_1_1011XalanVectorItNS_31MemoryManagedConstructionTraitsItEEE3endEv(%"class.xalanc_1_10::XalanVector"* %theTemp)
          to label %invoke.cont18 unwind label %lpad, !dbg !2451

invoke.cont18:                                    ; preds = %invoke.cont17
  %18 = load i16*, i16** %theFirst.addr, align 8, !dbg !2452
  %19 = load i16*, i16** %theLast.addr, align 8, !dbg !2453
  invoke void @_ZN11xalanc_1_1011XalanVectorItNS_31MemoryManagedConstructionTraitsItEEE6insertEPtPKtS6_(%"class.xalanc_1_10::XalanVector"* %theTemp, i16* %call19, i16* %18, i16* %19)
          to label %invoke.cont20 unwind label %lpad, !dbg !2454

invoke.cont20:                                    ; preds = %invoke.cont18
  %call22 = invoke i16* @_ZN11xalanc_1_1011XalanVectorItNS_31MemoryManagedConstructionTraitsItEEE3endEv(%"class.xalanc_1_10::XalanVector"* %theTemp)
          to label %invoke.cont21 unwind label %lpad, !dbg !2455

invoke.cont21:                                    ; preds = %invoke.cont20
  %20 = load i16*, i16** %thePosition.addr, align 8, !dbg !2456
  %call24 = invoke i16* @_ZN11xalanc_1_1011XalanVectorItNS_31MemoryManagedConstructionTraitsItEEE3endEv(%"class.xalanc_1_10::XalanVector"* %this1)
          to label %invoke.cont23 unwind label %lpad, !dbg !2457

invoke.cont23:                                    ; preds = %invoke.cont21
  invoke void @_ZN11xalanc_1_1011XalanVectorItNS_31MemoryManagedConstructionTraitsItEEE6insertEPtPKtS6_(%"class.xalanc_1_10::XalanVector"* %theTemp, i16* %call22, i16* %20, i16* %call24)
          to label %invoke.cont25 unwind label %lpad, !dbg !2458

invoke.cont25:                                    ; preds = %invoke.cont23
  invoke void @_ZN11xalanc_1_1011XalanVectorItNS_31MemoryManagedConstructionTraitsItEEE4swapERS3_(%"class.xalanc_1_10::XalanVector"* %this1, %"class.xalanc_1_10::XalanVector"* dereferenceable(32) %theTemp)
          to label %invoke.cont26 unwind label %lpad, !dbg !2459

invoke.cont26:                                    ; preds = %invoke.cont25
  call void @_ZN11xalanc_1_1011XalanVectorItNS_31MemoryManagedConstructionTraitsItEEED2Ev(%"class.xalanc_1_10::XalanVector"* %theTemp) #8, !dbg !2460
  br label %if.end56, !dbg !2461

lpad:                                             ; preds = %invoke.cont25, %invoke.cont23, %invoke.cont21, %invoke.cont20, %invoke.cont18, %invoke.cont17, %invoke.cont15, %invoke.cont, %if.then12
  %21 = landingpad { i8*, i32 }
          cleanup, !dbg !2462
  %22 = extractvalue { i8*, i32 } %21, 0, !dbg !2462
  store i8* %22, i8** %exn.slot, align 8, !dbg !2462
  %23 = extractvalue { i8*, i32 } %21, 1, !dbg !2462
  store i32 %23, i32* %ehselector.slot, align 4, !dbg !2462
  call void @_ZN11xalanc_1_1011XalanVectorItNS_31MemoryManagedConstructionTraitsItEEED2Ev(%"class.xalanc_1_10::XalanVector"* %theTemp) #8, !dbg !2460
  br label %eh.resume, !dbg !2460

if.else27:                                        ; preds = %if.else
  call void @llvm.dbg.declare(metadata i16** %theOriginalEnd, metadata !2463, metadata !DIExpression()), !dbg !2466
  %call28 = call i16* @_ZN11xalanc_1_1011XalanVectorItNS_31MemoryManagedConstructionTraitsItEEE3endEv(%"class.xalanc_1_10::XalanVector"* %this1), !dbg !2467
  store i16* %call28, i16** %theOriginalEnd, align 8, !dbg !2466
  call void @llvm.dbg.declare(metadata i64* %theRightSplitSize, metadata !2468, metadata !DIExpression()), !dbg !2469
  %24 = load i16*, i16** %thePosition.addr, align 8, !dbg !2470
  %25 = load i16*, i16** %theOriginalEnd, align 8, !dbg !2471
  %call29 = call i64 @_ZN11xalanc_1_1011XalanVectorItNS_31MemoryManagedConstructionTraitsItEEE14local_distanceEPKtS5_(%"class.xalanc_1_10::XalanVector"* %this1, i16* %24, i16* %25), !dbg !2472
  store i64 %call29, i64* %theRightSplitSize, align 8, !dbg !2469
  %26 = load i64, i64* %theRightSplitSize, align 8, !dbg !2473
  %27 = load i64, i64* %theInsertSize, align 8, !dbg !2475
  %cmp30 = icmp ule i64 %26, %27, !dbg !2476
  br i1 %cmp30, label %if.then31, label %if.else43, !dbg !2477

if.then31:                                        ; preds = %if.else27
  call void @llvm.dbg.declare(metadata i16** %toInsertSplit, metadata !2478, metadata !DIExpression()), !dbg !2481
  %28 = load i16*, i16** %theFirst.addr, align 8, !dbg !2482
  %29 = load i64, i64* %theRightSplitSize, align 8, !dbg !2483
  %add.ptr = getelementptr inbounds i16, i16* %28, i64 %29, !dbg !2484
  store i16* %add.ptr, i16** %toInsertSplit, align 8, !dbg !2481
  call void @llvm.dbg.declare(metadata i16** %toInsertIter, metadata !2485, metadata !DIExpression()), !dbg !2486
  %30 = load i16*, i16** %toInsertSplit, align 8, !dbg !2487
  store i16* %30, i16** %toInsertIter, align 8, !dbg !2486
  br label %while.cond32, !dbg !2488

while.cond32:                                     ; preds = %while.body34, %if.then31
  %31 = load i16*, i16** %toInsertIter, align 8, !dbg !2489
  %32 = load i16*, i16** %theLast.addr, align 8, !dbg !2490
  %cmp33 = icmp ne i16* %31, %32, !dbg !2491
  br i1 %cmp33, label %while.body34, label %while.end36, !dbg !2488

while.body34:                                     ; preds = %while.cond32
  %33 = load i16*, i16** %toInsertIter, align 8, !dbg !2492
  call void @_ZN11xalanc_1_1011XalanVectorItNS_31MemoryManagedConstructionTraitsItEEE10doPushBackERKt(%"class.xalanc_1_10::XalanVector"* %this1, i16* dereferenceable(2) %33), !dbg !2494
  %34 = load i16*, i16** %toInsertIter, align 8, !dbg !2495
  %incdec.ptr35 = getelementptr inbounds i16, i16* %34, i32 1, !dbg !2495
  store i16* %incdec.ptr35, i16** %toInsertIter, align 8, !dbg !2495
  br label %while.cond32, !dbg !2488, !llvm.loop !2496

while.end36:                                      ; preds = %while.cond32
  %35 = load i16*, i16** %thePosition.addr, align 8, !dbg !2498
  store i16* %35, i16** %toInsertIter, align 8, !dbg !2499
  br label %while.cond37, !dbg !2500

while.cond37:                                     ; preds = %while.body39, %while.end36
  %36 = load i16*, i16** %toInsertIter, align 8, !dbg !2501
  %37 = load i16*, i16** %theOriginalEnd, align 8, !dbg !2502
  %cmp38 = icmp ne i16* %36, %37, !dbg !2503
  br i1 %cmp38, label %while.body39, label %while.end41, !dbg !2500

while.body39:                                     ; preds = %while.cond37
  %38 = load i16*, i16** %toInsertIter, align 8, !dbg !2504
  call void @_ZN11xalanc_1_1011XalanVectorItNS_31MemoryManagedConstructionTraitsItEEE10doPushBackERKt(%"class.xalanc_1_10::XalanVector"* %this1, i16* dereferenceable(2) %38), !dbg !2506
  %39 = load i16*, i16** %toInsertIter, align 8, !dbg !2507
  %incdec.ptr40 = getelementptr inbounds i16, i16* %39, i32 1, !dbg !2507
  store i16* %incdec.ptr40, i16** %toInsertIter, align 8, !dbg !2507
  br label %while.cond37, !dbg !2500, !llvm.loop !2508

while.end41:                                      ; preds = %while.cond37
  %40 = load i16*, i16** %theFirst.addr, align 8, !dbg !2510
  %41 = load i16*, i16** %toInsertSplit, align 8, !dbg !2511
  %42 = load i16*, i16** %thePosition.addr, align 8, !dbg !2512
  %call42 = call i16* @_ZSt4copyIPKtPtET0_T_S4_S3_(i16* %40, i16* %41, i16* %42), !dbg !2513
  br label %if.end55, !dbg !2514

if.else43:                                        ; preds = %if.else27
  call void @llvm.dbg.declare(metadata i16** %toMoveIter, metadata !2515, metadata !DIExpression()), !dbg !2517
  %call44 = call i16* @_ZN11xalanc_1_1011XalanVectorItNS_31MemoryManagedConstructionTraitsItEEE3endEv(%"class.xalanc_1_10::XalanVector"* %this1), !dbg !2518
  %43 = load i64, i64* %theInsertSize, align 8, !dbg !2519
  %idx.neg = sub i64 0, %43, !dbg !2520
  %add.ptr45 = getelementptr inbounds i16, i16* %call44, i64 %idx.neg, !dbg !2520
  store i16* %add.ptr45, i16** %toMoveIter, align 8, !dbg !2517
  br label %while.cond46, !dbg !2521

while.cond46:                                     ; preds = %while.body48, %if.else43
  %44 = load i16*, i16** %toMoveIter, align 8, !dbg !2522
  %45 = load i16*, i16** %theOriginalEnd, align 8, !dbg !2523
  %cmp47 = icmp ne i16* %44, %45, !dbg !2524
  br i1 %cmp47, label %while.body48, label %while.end50, !dbg !2521

while.body48:                                     ; preds = %while.cond46
  %46 = load i16*, i16** %toMoveIter, align 8, !dbg !2525
  call void @_ZN11xalanc_1_1011XalanVectorItNS_31MemoryManagedConstructionTraitsItEEE10doPushBackERKt(%"class.xalanc_1_10::XalanVector"* %this1, i16* dereferenceable(2) %46), !dbg !2527
  %47 = load i16*, i16** %toMoveIter, align 8, !dbg !2528
  %incdec.ptr49 = getelementptr inbounds i16, i16* %47, i32 1, !dbg !2528
  store i16* %incdec.ptr49, i16** %toMoveIter, align 8, !dbg !2528
  br label %while.cond46, !dbg !2521, !llvm.loop !2529

while.end50:                                      ; preds = %while.cond46
  %48 = load i16*, i16** %thePosition.addr, align 8, !dbg !2531
  %49 = load i16*, i16** %theOriginalEnd, align 8, !dbg !2532
  %50 = load i64, i64* %theInsertSize, align 8, !dbg !2533
  %idx.neg51 = sub i64 0, %50, !dbg !2534
  %add.ptr52 = getelementptr inbounds i16, i16* %49, i64 %idx.neg51, !dbg !2534
  %51 = load i16*, i16** %theOriginalEnd, align 8, !dbg !2535
  %call53 = call i16* @_ZSt13copy_backwardIPtS0_ET0_T_S2_S1_(i16* %48, i16* %add.ptr52, i16* %51), !dbg !2536
  %52 = load i16*, i16** %theFirst.addr, align 8, !dbg !2537
  %53 = load i16*, i16** %theLast.addr, align 8, !dbg !2538
  %54 = load i16*, i16** %thePosition.addr, align 8, !dbg !2539
  %call54 = call i16* @_ZSt4copyIPKtPtET0_T_S4_S3_(i16* %52, i16* %53, i16* %54), !dbg !2540
  br label %if.end55

if.end55:                                         ; preds = %while.end50, %while.end41
  br label %if.end56

if.end56:                                         ; preds = %if.end55, %invoke.cont26
  br label %if.end57

if.end57:                                         ; preds = %if.end56, %while.end
  call void @_ZNK11xalanc_1_1011XalanVectorItNS_31MemoryManagedConstructionTraitsItEEE10invariantsEv(%"class.xalanc_1_10::XalanVector"* %this1), !dbg !2541
  br label %return, !dbg !2542

return:                                           ; preds = %if.end57, %if.then
  ret void, !dbg !2542

eh.resume:                                        ; preds = %lpad
  %exn = load i8*, i8** %exn.slot, align 8, !dbg !2460
  %sel = load i32, i32* %ehselector.slot, align 4, !dbg !2460
  %lpad.val = insertvalue { i8*, i32 } undef, i8* %exn, 0, !dbg !2460
  %lpad.val58 = insertvalue { i8*, i32 } %lpad.val, i32 %sel, 1, !dbg !2460
  resume { i8*, i32 } %lpad.val58, !dbg !2460
}

; Function Attrs: noinline uwtable
define linkonce_odr dso_local i16* @_ZSt4copyIPKtPtET0_T_S4_S3_(i16* %__first, i16* %__last, i16* %__result) #0 comdat !dbg !2543 {
entry:
  %__first.addr = alloca i16*, align 8
  %__last.addr = alloca i16*, align 8
  %__result.addr = alloca i16*, align 8
  store i16* %__first, i16** %__first.addr, align 8
  call void @llvm.dbg.declare(metadata i16** %__first.addr, metadata !2550, metadata !DIExpression()), !dbg !2552
  store i16* %__last, i16** %__last.addr, align 8
  call void @llvm.dbg.declare(metadata i16** %__last.addr, metadata !2553, metadata !DIExpression()), !dbg !2554
  store i16* %__result, i16** %__result.addr, align 8
  call void @llvm.dbg.declare(metadata i16** %__result.addr, metadata !2555, metadata !DIExpression()), !dbg !2556
  %0 = load i16*, i16** %__first.addr, align 8, !dbg !2557
  %call = call i16* @_ZSt12__miter_baseIPKtET_S2_(i16* %0), !dbg !2558
  %1 = load i16*, i16** %__last.addr, align 8, !dbg !2559
  %call1 = call i16* @_ZSt12__miter_baseIPKtET_S2_(i16* %1), !dbg !2560
  %2 = load i16*, i16** %__result.addr, align 8, !dbg !2561
  %call2 = call i16* @_ZSt13__copy_move_aILb0EPKtPtET1_T0_S4_S3_(i16* %call, i16* %call1, i16* %2), !dbg !2562
  ret i16* %call2, !dbg !2563
}

; Function Attrs: noinline nounwind uwtable
define linkonce_odr dso_local i64 @_ZN11xalanc_1_1011XalanVectorItNS_31MemoryManagedConstructionTraitsItEEE9local_maxEmm(%"class.xalanc_1_10::XalanVector"* %this, i64 %theLHS, i64 %theRHS) #3 comdat align 2 !dbg !2564 {
entry:
  %this.addr = alloca %"class.xalanc_1_10::XalanVector"*, align 8
  %theLHS.addr = alloca i64, align 8
  %theRHS.addr = alloca i64, align 8
  store %"class.xalanc_1_10::XalanVector"* %this, %"class.xalanc_1_10::XalanVector"** %this.addr, align 8
  call void @llvm.dbg.declare(metadata %"class.xalanc_1_10::XalanVector"** %this.addr, metadata !2565, metadata !DIExpression()), !dbg !2566
  store i64 %theLHS, i64* %theLHS.addr, align 8
  call void @llvm.dbg.declare(metadata i64* %theLHS.addr, metadata !2567, metadata !DIExpression()), !dbg !2568
  store i64 %theRHS, i64* %theRHS.addr, align 8
  call void @llvm.dbg.declare(metadata i64* %theRHS.addr, metadata !2569, metadata !DIExpression()), !dbg !2570
  %this1 = load %"class.xalanc_1_10::XalanVector"*, %"class.xalanc_1_10::XalanVector"** %this.addr, align 8
  %0 = load i64, i64* %theLHS.addr, align 8, !dbg !2571
  %1 = load i64, i64* %theRHS.addr, align 8, !dbg !2572
  %cmp = icmp ugt i64 %0, %1, !dbg !2573
  br i1 %cmp, label %cond.true, label %cond.false, !dbg !2571

cond.true:                                        ; preds = %entry
  %2 = load i64, i64* %theLHS.addr, align 8, !dbg !2574
  br label %cond.end, !dbg !2571

cond.false:                                       ; preds = %entry
  %3 = load i64, i64* %theRHS.addr, align 8, !dbg !2575
  br label %cond.end, !dbg !2571

cond.end:                                         ; preds = %cond.false, %cond.true
  %cond = phi i64 [ %2, %cond.true ], [ %3, %cond.false ], !dbg !2571
  ret i64 %cond, !dbg !2576
}

; Function Attrs: noinline uwtable
define linkonce_odr dso_local void @_ZN11xalanc_1_1011XalanVectorItNS_31MemoryManagedConstructionTraitsItEEEC2ERN11xercesc_2_713MemoryManagerEm(%"class.xalanc_1_10::XalanVector"* %this, %"class.xercesc_2_7::MemoryManager"* dereferenceable(8) %theManager, i64 %initialAllocation) unnamed_addr #0 comdat align 2 !dbg !2577 {
entry:
  %this.addr = alloca %"class.xalanc_1_10::XalanVector"*, align 8
  %theManager.addr = alloca %"class.xercesc_2_7::MemoryManager"*, align 8
  %initialAllocation.addr = alloca i64, align 8
  store %"class.xalanc_1_10::XalanVector"* %this, %"class.xalanc_1_10::XalanVector"** %this.addr, align 8
  call void @llvm.dbg.declare(metadata %"class.xalanc_1_10::XalanVector"** %this.addr, metadata !2578, metadata !DIExpression()), !dbg !2579
  store %"class.xercesc_2_7::MemoryManager"* %theManager, %"class.xercesc_2_7::MemoryManager"** %theManager.addr, align 8
  call void @llvm.dbg.declare(metadata %"class.xercesc_2_7::MemoryManager"** %theManager.addr, metadata !2580, metadata !DIExpression()), !dbg !2581
  store i64 %initialAllocation, i64* %initialAllocation.addr, align 8
  call void @llvm.dbg.declare(metadata i64* %initialAllocation.addr, metadata !2582, metadata !DIExpression()), !dbg !2583
  %this1 = load %"class.xalanc_1_10::XalanVector"*, %"class.xalanc_1_10::XalanVector"** %this.addr, align 8
  %m_memoryManager = getelementptr inbounds %"class.xalanc_1_10::XalanVector", %"class.xalanc_1_10::XalanVector"* %this1, i32 0, i32 0, !dbg !2584
  %0 = load %"class.xercesc_2_7::MemoryManager"*, %"class.xercesc_2_7::MemoryManager"** %theManager.addr, align 8, !dbg !2585
  store %"class.xercesc_2_7::MemoryManager"* %0, %"class.xercesc_2_7::MemoryManager"** %m_memoryManager, align 8, !dbg !2584
  %m_size = getelementptr inbounds %"class.xalanc_1_10::XalanVector", %"class.xalanc_1_10::XalanVector"* %this1, i32 0, i32 1, !dbg !2586
  store i64 0, i64* %m_size, align 8, !dbg !2586
  %m_allocation = getelementptr inbounds %"class.xalanc_1_10::XalanVector", %"class.xalanc_1_10::XalanVector"* %this1, i32 0, i32 2, !dbg !2587
  %1 = load i64, i64* %initialAllocation.addr, align 8, !dbg !2588
  store i64 %1, i64* %m_allocation, align 8, !dbg !2587
  %m_data = getelementptr inbounds %"class.xalanc_1_10::XalanVector", %"class.xalanc_1_10::XalanVector"* %this1, i32 0, i32 3, !dbg !2589
  %2 = load i64, i64* %initialAllocation.addr, align 8, !dbg !2590
  %cmp = icmp ugt i64 %2, 0, !dbg !2591
  br i1 %cmp, label %cond.true, label %cond.false, !dbg !2590

cond.true:                                        ; preds = %entry
  %3 = load i64, i64* %initialAllocation.addr, align 8, !dbg !2592
  %call = call i16* @_ZN11xalanc_1_1011XalanVectorItNS_31MemoryManagedConstructionTraitsItEEE8allocateEm(%"class.xalanc_1_10::XalanVector"* %this1, i64 %3), !dbg !2593
  br label %cond.end, !dbg !2590

cond.false:                                       ; preds = %entry
  br label %cond.end, !dbg !2590

cond.end:                                         ; preds = %cond.false, %cond.true
  %cond = phi i16* [ %call, %cond.true ], [ null, %cond.false ], !dbg !2590
  store i16* %cond, i16** %m_data, align 8, !dbg !2589
  call void @_ZNK11xalanc_1_1011XalanVectorItNS_31MemoryManagedConstructionTraitsItEEE10invariantsEv(%"class.xalanc_1_10::XalanVector"* %this1), !dbg !2594
  ret void, !dbg !2596
}

; Function Attrs: noinline uwtable
define linkonce_odr dso_local i16* @_ZN11xalanc_1_1011XalanVectorItNS_31MemoryManagedConstructionTraitsItEEE8allocateEm(%"class.xalanc_1_10::XalanVector"* %this, i64 %size) #0 comdat align 2 !dbg !2597 {
entry:
  %this.addr = alloca %"class.xalanc_1_10::XalanVector"*, align 8
  %size.addr = alloca i64, align 8
  %theBytesNeeded = alloca i64, align 8
  %pointer = alloca i8*, align 8
  store %"class.xalanc_1_10::XalanVector"* %this, %"class.xalanc_1_10::XalanVector"** %this.addr, align 8
  call void @llvm.dbg.declare(metadata %"class.xalanc_1_10::XalanVector"** %this.addr, metadata !2598, metadata !DIExpression()), !dbg !2599
  store i64 %size, i64* %size.addr, align 8
  call void @llvm.dbg.declare(metadata i64* %size.addr, metadata !2600, metadata !DIExpression()), !dbg !2601
  %this1 = load %"class.xalanc_1_10::XalanVector"*, %"class.xalanc_1_10::XalanVector"** %this.addr, align 8
  call void @llvm.dbg.declare(metadata i64* %theBytesNeeded, metadata !2602, metadata !DIExpression()), !dbg !2603
  %0 = load i64, i64* %size.addr, align 8, !dbg !2604
  %mul = mul i64 %0, 2, !dbg !2605
  store i64 %mul, i64* %theBytesNeeded, align 8, !dbg !2603
  call void @llvm.dbg.declare(metadata i8** %pointer, metadata !2606, metadata !DIExpression()), !dbg !2607
  %m_memoryManager = getelementptr inbounds %"class.xalanc_1_10::XalanVector", %"class.xalanc_1_10::XalanVector"* %this1, i32 0, i32 0, !dbg !2608
  %1 = load %"class.xercesc_2_7::MemoryManager"*, %"class.xercesc_2_7::MemoryManager"** %m_memoryManager, align 8, !dbg !2608
  %2 = load i64, i64* %theBytesNeeded, align 8, !dbg !2609
  %3 = bitcast %"class.xercesc_2_7::MemoryManager"* %1 to i8* (%"class.xercesc_2_7::MemoryManager"*, i64)***, !dbg !2610
  %vtable = load i8* (%"class.xercesc_2_7::MemoryManager"*, i64)**, i8* (%"class.xercesc_2_7::MemoryManager"*, i64)*** %3, align 8, !dbg !2610
  %vfn = getelementptr inbounds i8* (%"class.xercesc_2_7::MemoryManager"*, i64)*, i8* (%"class.xercesc_2_7::MemoryManager"*, i64)** %vtable, i64 2, !dbg !2610
  %4 = load i8* (%"class.xercesc_2_7::MemoryManager"*, i64)*, i8* (%"class.xercesc_2_7::MemoryManager"*, i64)** %vfn, align 8, !dbg !2610
  %call = call i8* %4(%"class.xercesc_2_7::MemoryManager"* %1, i64 %2), !dbg !2610
  store i8* %call, i8** %pointer, align 8, !dbg !2607
  %5 = load i8*, i8** %pointer, align 8, !dbg !2611
  %6 = bitcast i8* %5 to i16*, !dbg !2612
  ret i16* %6, !dbg !2613
}

; Function Attrs: noinline nounwind uwtable
define linkonce_odr dso_local i16* @_ZNK11xalanc_1_1011XalanVectorItNS_31MemoryManagedConstructionTraitsItEEE10endPointerEv(%"class.xalanc_1_10::XalanVector"* %this) #3 comdat align 2 !dbg !2614 {
entry:
  %this.addr = alloca %"class.xalanc_1_10::XalanVector"*, align 8
  store %"class.xalanc_1_10::XalanVector"* %this, %"class.xalanc_1_10::XalanVector"** %this.addr, align 8
  call void @llvm.dbg.declare(metadata %"class.xalanc_1_10::XalanVector"** %this.addr, metadata !2615, metadata !DIExpression()), !dbg !2616
  %this1 = load %"class.xalanc_1_10::XalanVector"*, %"class.xalanc_1_10::XalanVector"** %this.addr, align 8
  %m_data = getelementptr inbounds %"class.xalanc_1_10::XalanVector", %"class.xalanc_1_10::XalanVector"* %this1, i32 0, i32 3, !dbg !2617
  %0 = load i16*, i16** %m_data, align 8, !dbg !2617
  %m_size = getelementptr inbounds %"class.xalanc_1_10::XalanVector", %"class.xalanc_1_10::XalanVector"* %this1, i32 0, i32 1, !dbg !2618
  %1 = load i64, i64* %m_size, align 8, !dbg !2618
  %add.ptr = getelementptr inbounds i16, i16* %0, i64 %1, !dbg !2619
  ret i16* %add.ptr, !dbg !2620
}

; Function Attrs: noinline nounwind uwtable
define linkonce_odr dso_local void @_ZN11xalanc_1_1011XalanVectorItNS_31MemoryManagedConstructionTraitsItEEE8pop_backEv(%"class.xalanc_1_10::XalanVector"* %this) #3 comdat align 2 !dbg !2621 {
entry:
  %this.addr = alloca %"class.xalanc_1_10::XalanVector"*, align 8
  store %"class.xalanc_1_10::XalanVector"* %this, %"class.xalanc_1_10::XalanVector"** %this.addr, align 8
  call void @llvm.dbg.declare(metadata %"class.xalanc_1_10::XalanVector"** %this.addr, metadata !2622, metadata !DIExpression()), !dbg !2623
  %this1 = load %"class.xalanc_1_10::XalanVector"*, %"class.xalanc_1_10::XalanVector"** %this.addr, align 8
  call void @_ZNK11xalanc_1_1011XalanVectorItNS_31MemoryManagedConstructionTraitsItEEE10invariantsEv(%"class.xalanc_1_10::XalanVector"* %this1), !dbg !2624
  %m_size = getelementptr inbounds %"class.xalanc_1_10::XalanVector", %"class.xalanc_1_10::XalanVector"* %this1, i32 0, i32 1, !dbg !2625
  %0 = load i64, i64* %m_size, align 8, !dbg !2626
  %dec = add i64 %0, -1, !dbg !2626
  store i64 %dec, i64* %m_size, align 8, !dbg !2626
  %m_data = getelementptr inbounds %"class.xalanc_1_10::XalanVector", %"class.xalanc_1_10::XalanVector"* %this1, i32 0, i32 3, !dbg !2627
  %1 = load i16*, i16** %m_data, align 8, !dbg !2627
  %m_size2 = getelementptr inbounds %"class.xalanc_1_10::XalanVector", %"class.xalanc_1_10::XalanVector"* %this1, i32 0, i32 1, !dbg !2628
  %2 = load i64, i64* %m_size2, align 8, !dbg !2628
  %arrayidx = getelementptr inbounds i16, i16* %1, i64 %2, !dbg !2627
  call void @_ZN11xalanc_1_1011XalanVectorItNS_31MemoryManagedConstructionTraitsItEEE7destroyERt(i16* dereferenceable(2) %arrayidx), !dbg !2629
  call void @_ZNK11xalanc_1_1011XalanVectorItNS_31MemoryManagedConstructionTraitsItEEE10invariantsEv(%"class.xalanc_1_10::XalanVector"* %this1), !dbg !2630
  ret void, !dbg !2631
}

; Function Attrs: noinline uwtable
define linkonce_odr dso_local i64 @_ZN11xalanc_1_1011XalanVectorItNS_31MemoryManagedConstructionTraitsItEEE14local_distanceEPKtS5_(%"class.xalanc_1_10::XalanVector"* %this, i16* %theFirst, i16* %theLast) #0 comdat align 2 !dbg !2632 {
entry:
  %this.addr = alloca %"class.xalanc_1_10::XalanVector"*, align 8
  %theFirst.addr = alloca i16*, align 8
  %theLast.addr = alloca i16*, align 8
  store %"class.xalanc_1_10::XalanVector"* %this, %"class.xalanc_1_10::XalanVector"** %this.addr, align 8
  call void @llvm.dbg.declare(metadata %"class.xalanc_1_10::XalanVector"** %this.addr, metadata !2633, metadata !DIExpression()), !dbg !2634
  store i16* %theFirst, i16** %theFirst.addr, align 8
  call void @llvm.dbg.declare(metadata i16** %theFirst.addr, metadata !2635, metadata !DIExpression()), !dbg !2636
  store i16* %theLast, i16** %theLast.addr, align 8
  call void @llvm.dbg.declare(metadata i16** %theLast.addr, metadata !2637, metadata !DIExpression()), !dbg !2638
  %this1 = load %"class.xalanc_1_10::XalanVector"*, %"class.xalanc_1_10::XalanVector"** %this.addr, align 8
  %0 = load i16*, i16** %theFirst.addr, align 8, !dbg !2639
  %1 = load i16*, i16** %theLast.addr, align 8, !dbg !2640
  %call = call i64 @_ZSt8distanceIPKtENSt15iterator_traitsIT_E15difference_typeES3_S3_(i16* %0, i16* %1), !dbg !2641
  ret i64 %call, !dbg !2642
}

; Function Attrs: noinline nounwind uwtable
define linkonce_odr dso_local i64 @_ZNK11xalanc_1_1011XalanVectorItNS_31MemoryManagedConstructionTraitsItEEE4sizeEv(%"class.xalanc_1_10::XalanVector"* %this) #3 comdat align 2 !dbg !2643 {
entry:
  %this.addr = alloca %"class.xalanc_1_10::XalanVector"*, align 8
  store %"class.xalanc_1_10::XalanVector"* %this, %"class.xalanc_1_10::XalanVector"** %this.addr, align 8
  call void @llvm.dbg.declare(metadata %"class.xalanc_1_10::XalanVector"** %this.addr, metadata !2644, metadata !DIExpression()), !dbg !2645
  %this1 = load %"class.xalanc_1_10::XalanVector"*, %"class.xalanc_1_10::XalanVector"** %this.addr, align 8
  call void @_ZNK11xalanc_1_1011XalanVectorItNS_31MemoryManagedConstructionTraitsItEEE10invariantsEv(%"class.xalanc_1_10::XalanVector"* %this1), !dbg !2646
  %m_size = getelementptr inbounds %"class.xalanc_1_10::XalanVector", %"class.xalanc_1_10::XalanVector"* %this1, i32 0, i32 1, !dbg !2647
  %0 = load i64, i64* %m_size, align 8, !dbg !2647
  ret i64 %0, !dbg !2648
}

; Function Attrs: noinline uwtable
define linkonce_odr dso_local i16* @_ZN11xalanc_1_1011XalanVectorItNS_31MemoryManagedConstructionTraitsItEEE14ensureCapacityEm(%"class.xalanc_1_10::XalanVector"* %this, i64 %theSize) #0 comdat align 2 !dbg !2649 {
entry:
  %this.addr = alloca %"class.xalanc_1_10::XalanVector"*, align 8
  %theSize.addr = alloca i64, align 8
  store %"class.xalanc_1_10::XalanVector"* %this, %"class.xalanc_1_10::XalanVector"** %this.addr, align 8
  call void @llvm.dbg.declare(metadata %"class.xalanc_1_10::XalanVector"** %this.addr, metadata !2650, metadata !DIExpression()), !dbg !2651
  store i64 %theSize, i64* %theSize.addr, align 8
  call void @llvm.dbg.declare(metadata i64* %theSize.addr, metadata !2652, metadata !DIExpression()), !dbg !2653
  %this1 = load %"class.xalanc_1_10::XalanVector"*, %"class.xalanc_1_10::XalanVector"** %this.addr, align 8
  %0 = load i64, i64* %theSize.addr, align 8, !dbg !2654
  %call = call i64 @_ZNK11xalanc_1_1011XalanVectorItNS_31MemoryManagedConstructionTraitsItEEE8capacityEv(%"class.xalanc_1_10::XalanVector"* %this1), !dbg !2656
  %cmp = icmp ugt i64 %0, %call, !dbg !2657
  br i1 %cmp, label %if.then, label %if.end, !dbg !2658

if.then:                                          ; preds = %entry
  %1 = load i64, i64* %theSize.addr, align 8, !dbg !2659
  call void @_ZN11xalanc_1_1011XalanVectorItNS_31MemoryManagedConstructionTraitsItEEE9doReserveEm(%"class.xalanc_1_10::XalanVector"* %this1, i64 %1), !dbg !2661
  br label %if.end, !dbg !2662

if.end:                                           ; preds = %if.then, %entry
  %call2 = call i16* @_ZN11xalanc_1_1011XalanVectorItNS_31MemoryManagedConstructionTraitsItEEE10endPointerEv(%"class.xalanc_1_10::XalanVector"* %this1), !dbg !2663
  ret i16* %call2, !dbg !2664
}

; Function Attrs: noinline nounwind uwtable
define linkonce_odr dso_local i16* @_ZN11xalanc_1_1028ConstructWithNoMemoryManagerItE9constructEPtRKtRN11xercesc_2_713MemoryManagerE(i16* %address, i16* dereferenceable(2) %theRhs, %"class.xercesc_2_7::MemoryManager"* dereferenceable(8) %0) #3 comdat align 2 !dbg !2665 {
entry:
  %address.addr = alloca i16*, align 8
  %theRhs.addr = alloca i16*, align 8
  %.addr = alloca %"class.xercesc_2_7::MemoryManager"*, align 8
  store i16* %address, i16** %address.addr, align 8
  call void @llvm.dbg.declare(metadata i16** %address.addr, metadata !2674, metadata !DIExpression()), !dbg !2675
  store i16* %theRhs, i16** %theRhs.addr, align 8
  call void @llvm.dbg.declare(metadata i16** %theRhs.addr, metadata !2676, metadata !DIExpression()), !dbg !2677
  store %"class.xercesc_2_7::MemoryManager"* %0, %"class.xercesc_2_7::MemoryManager"** %.addr, align 8
  call void @llvm.dbg.declare(metadata %"class.xercesc_2_7::MemoryManager"** %.addr, metadata !2678, metadata !DIExpression()), !dbg !2679
  %1 = load i16*, i16** %address.addr, align 8, !dbg !2680
  %2 = bitcast i16* %1 to i8*, !dbg !2681
  %3 = bitcast i8* %2 to i16*, !dbg !2681
  %4 = load i16*, i16** %theRhs.addr, align 8, !dbg !2682
  %5 = load i16, i16* %4, align 2, !dbg !2682
  store i16 %5, i16* %3, align 2, !dbg !2681
  ret i16* %3, !dbg !2683
}

; Function Attrs: noinline nounwind uwtable
define linkonce_odr dso_local i64 @_ZNK11xalanc_1_1011XalanVectorItNS_31MemoryManagedConstructionTraitsItEEE8capacityEv(%"class.xalanc_1_10::XalanVector"* %this) #3 comdat align 2 !dbg !2684 {
entry:
  %this.addr = alloca %"class.xalanc_1_10::XalanVector"*, align 8
  store %"class.xalanc_1_10::XalanVector"* %this, %"class.xalanc_1_10::XalanVector"** %this.addr, align 8
  call void @llvm.dbg.declare(metadata %"class.xalanc_1_10::XalanVector"** %this.addr, metadata !2685, metadata !DIExpression()), !dbg !2686
  %this1 = load %"class.xalanc_1_10::XalanVector"*, %"class.xalanc_1_10::XalanVector"** %this.addr, align 8
  call void @_ZNK11xalanc_1_1011XalanVectorItNS_31MemoryManagedConstructionTraitsItEEE10invariantsEv(%"class.xalanc_1_10::XalanVector"* %this1), !dbg !2687
  %m_allocation = getelementptr inbounds %"class.xalanc_1_10::XalanVector", %"class.xalanc_1_10::XalanVector"* %this1, i32 0, i32 2, !dbg !2688
  %0 = load i64, i64* %m_allocation, align 8, !dbg !2688
  ret i64 %0, !dbg !2689
}

; Function Attrs: noinline uwtable
define linkonce_odr dso_local void @_ZN11xalanc_1_1011XalanVectorItNS_31MemoryManagedConstructionTraitsItEEE10doPushBackERKt(%"class.xalanc_1_10::XalanVector"* %this, i16* dereferenceable(2) %data) #0 comdat align 2 personality i8* bitcast (i32 (...)* @__gxx_personality_v0 to i8*) !dbg !2690 {
entry:
  %this.addr = alloca %"class.xalanc_1_10::XalanVector"*, align 8
  %data.addr = alloca i16*, align 8
  %theNewSize = alloca i64, align 8
  %theTemp = alloca %"class.xalanc_1_10::XalanVector", align 8
  %exn.slot = alloca i8*
  %ehselector.slot = alloca i32
  store %"class.xalanc_1_10::XalanVector"* %this, %"class.xalanc_1_10::XalanVector"** %this.addr, align 8
  call void @llvm.dbg.declare(metadata %"class.xalanc_1_10::XalanVector"** %this.addr, metadata !2691, metadata !DIExpression()), !dbg !2692
  store i16* %data, i16** %data.addr, align 8
  call void @llvm.dbg.declare(metadata i16** %data.addr, metadata !2693, metadata !DIExpression()), !dbg !2694
  %this1 = load %"class.xalanc_1_10::XalanVector"*, %"class.xalanc_1_10::XalanVector"** %this.addr, align 8
  call void @_ZNK11xalanc_1_1011XalanVectorItNS_31MemoryManagedConstructionTraitsItEEE10invariantsEv(%"class.xalanc_1_10::XalanVector"* %this1), !dbg !2695
  %m_size = getelementptr inbounds %"class.xalanc_1_10::XalanVector", %"class.xalanc_1_10::XalanVector"* %this1, i32 0, i32 1, !dbg !2696
  %0 = load i64, i64* %m_size, align 8, !dbg !2696
  %m_allocation = getelementptr inbounds %"class.xalanc_1_10::XalanVector", %"class.xalanc_1_10::XalanVector"* %this1, i32 0, i32 2, !dbg !2698
  %1 = load i64, i64* %m_allocation, align 8, !dbg !2698
  %cmp = icmp ult i64 %0, %1, !dbg !2699
  br i1 %cmp, label %if.then, label %if.else, !dbg !2700

if.then:                                          ; preds = %entry
  %call = call i16* @_ZN11xalanc_1_1011XalanVectorItNS_31MemoryManagedConstructionTraitsItEEE10endPointerEv(%"class.xalanc_1_10::XalanVector"* %this1), !dbg !2701
  %2 = load i16*, i16** %data.addr, align 8, !dbg !2703
  %m_memoryManager = getelementptr inbounds %"class.xalanc_1_10::XalanVector", %"class.xalanc_1_10::XalanVector"* %this1, i32 0, i32 0, !dbg !2704
  %3 = load %"class.xercesc_2_7::MemoryManager"*, %"class.xercesc_2_7::MemoryManager"** %m_memoryManager, align 8, !dbg !2704
  %call2 = call i16* @_ZN11xalanc_1_1028ConstructWithNoMemoryManagerItE9constructEPtRKtRN11xercesc_2_713MemoryManagerE(i16* %call, i16* dereferenceable(2) %2, %"class.xercesc_2_7::MemoryManager"* dereferenceable(8) %3), !dbg !2705
  %m_size3 = getelementptr inbounds %"class.xalanc_1_10::XalanVector", %"class.xalanc_1_10::XalanVector"* %this1, i32 0, i32 1, !dbg !2706
  %4 = load i64, i64* %m_size3, align 8, !dbg !2707
  %inc = add i64 %4, 1, !dbg !2707
  store i64 %inc, i64* %m_size3, align 8, !dbg !2707
  br label %if.end, !dbg !2708

if.else:                                          ; preds = %entry
  call void @llvm.dbg.declare(metadata i64* %theNewSize, metadata !2709, metadata !DIExpression()), !dbg !2711
  %m_size4 = getelementptr inbounds %"class.xalanc_1_10::XalanVector", %"class.xalanc_1_10::XalanVector"* %this1, i32 0, i32 1, !dbg !2712
  %5 = load i64, i64* %m_size4, align 8, !dbg !2712
  %cmp5 = icmp eq i64 %5, 0, !dbg !2713
  br i1 %cmp5, label %cond.true, label %cond.false, !dbg !2712

cond.true:                                        ; preds = %if.else
  br label %cond.end, !dbg !2712

cond.false:                                       ; preds = %if.else
  %m_size6 = getelementptr inbounds %"class.xalanc_1_10::XalanVector", %"class.xalanc_1_10::XalanVector"* %this1, i32 0, i32 1, !dbg !2714
  %6 = load i64, i64* %m_size6, align 8, !dbg !2714
  %conv = uitofp i64 %6 to double, !dbg !2714
  %mul = fmul double %conv, 1.600000e+00, !dbg !2715
  %add = fadd double %mul, 5.000000e-01, !dbg !2716
  %conv7 = fptoui double %add to i64, !dbg !2717
  br label %cond.end, !dbg !2712

cond.end:                                         ; preds = %cond.false, %cond.true
  %cond = phi i64 [ 1, %cond.true ], [ %conv7, %cond.false ], !dbg !2712
  store i64 %cond, i64* %theNewSize, align 8, !dbg !2711
  call void @llvm.dbg.declare(metadata %"class.xalanc_1_10::XalanVector"* %theTemp, metadata !2718, metadata !DIExpression()), !dbg !2719
  %m_memoryManager8 = getelementptr inbounds %"class.xalanc_1_10::XalanVector", %"class.xalanc_1_10::XalanVector"* %this1, i32 0, i32 0, !dbg !2720
  %7 = load %"class.xercesc_2_7::MemoryManager"*, %"class.xercesc_2_7::MemoryManager"** %m_memoryManager8, align 8, !dbg !2720
  %8 = load i64, i64* %theNewSize, align 8, !dbg !2721
  call void @_ZN11xalanc_1_1011XalanVectorItNS_31MemoryManagedConstructionTraitsItEEEC2ERKS3_RN11xercesc_2_713MemoryManagerEm(%"class.xalanc_1_10::XalanVector"* %theTemp, %"class.xalanc_1_10::XalanVector"* dereferenceable(32) %this1, %"class.xercesc_2_7::MemoryManager"* dereferenceable(8) %7, i64 %8), !dbg !2719
  %9 = load i16*, i16** %data.addr, align 8, !dbg !2722
  invoke void @_ZN11xalanc_1_1011XalanVectorItNS_31MemoryManagedConstructionTraitsItEEE10doPushBackERKt(%"class.xalanc_1_10::XalanVector"* %theTemp, i16* dereferenceable(2) %9)
          to label %invoke.cont unwind label %lpad, !dbg !2723

invoke.cont:                                      ; preds = %cond.end
  invoke void @_ZN11xalanc_1_1011XalanVectorItNS_31MemoryManagedConstructionTraitsItEEE4swapERS3_(%"class.xalanc_1_10::XalanVector"* %this1, %"class.xalanc_1_10::XalanVector"* dereferenceable(32) %theTemp)
          to label %invoke.cont9 unwind label %lpad, !dbg !2724

invoke.cont9:                                     ; preds = %invoke.cont
  call void @_ZN11xalanc_1_1011XalanVectorItNS_31MemoryManagedConstructionTraitsItEEED2Ev(%"class.xalanc_1_10::XalanVector"* %theTemp) #8, !dbg !2725
  br label %if.end

lpad:                                             ; preds = %invoke.cont, %cond.end
  %10 = landingpad { i8*, i32 }
          cleanup, !dbg !2726
  %11 = extractvalue { i8*, i32 } %10, 0, !dbg !2726
  store i8* %11, i8** %exn.slot, align 8, !dbg !2726
  %12 = extractvalue { i8*, i32 } %10, 1, !dbg !2726
  store i32 %12, i32* %ehselector.slot, align 4, !dbg !2726
  call void @_ZN11xalanc_1_1011XalanVectorItNS_31MemoryManagedConstructionTraitsItEEED2Ev(%"class.xalanc_1_10::XalanVector"* %theTemp) #8, !dbg !2725
  br label %eh.resume, !dbg !2725

if.end:                                           ; preds = %invoke.cont9, %if.then
  call void @_ZNK11xalanc_1_1011XalanVectorItNS_31MemoryManagedConstructionTraitsItEEE10invariantsEv(%"class.xalanc_1_10::XalanVector"* %this1), !dbg !2727
  ret void, !dbg !2728

eh.resume:                                        ; preds = %lpad
  %exn = load i8*, i8** %exn.slot, align 8, !dbg !2725
  %sel = load i32, i32* %ehselector.slot, align 4, !dbg !2725
  %lpad.val = insertvalue { i8*, i32 } undef, i8* %exn, 0, !dbg !2725
  %lpad.val10 = insertvalue { i8*, i32 } %lpad.val, i32 %sel, 1, !dbg !2725
  resume { i8*, i32 } %lpad.val10, !dbg !2725
}

; Function Attrs: noinline uwtable
define linkonce_odr dso_local i16* @_ZSt13copy_backwardIPtS0_ET0_T_S2_S1_(i16* %__first, i16* %__last, i16* %__result) #0 comdat !dbg !2729 {
entry:
  %__first.addr = alloca i16*, align 8
  %__last.addr = alloca i16*, align 8
  %__result.addr = alloca i16*, align 8
  store i16* %__first, i16** %__first.addr, align 8
  call void @llvm.dbg.declare(metadata i16** %__first.addr, metadata !2735, metadata !DIExpression()), !dbg !2736
  store i16* %__last, i16** %__last.addr, align 8
  call void @llvm.dbg.declare(metadata i16** %__last.addr, metadata !2737, metadata !DIExpression()), !dbg !2738
  store i16* %__result, i16** %__result.addr, align 8
  call void @llvm.dbg.declare(metadata i16** %__result.addr, metadata !2739, metadata !DIExpression()), !dbg !2740
  %0 = load i16*, i16** %__first.addr, align 8, !dbg !2741
  %call = call i16* @_ZSt12__miter_baseIPtET_S1_(i16* %0), !dbg !2742
  %1 = load i16*, i16** %__last.addr, align 8, !dbg !2743
  %call1 = call i16* @_ZSt12__miter_baseIPtET_S1_(i16* %1), !dbg !2744
  %2 = load i16*, i16** %__result.addr, align 8, !dbg !2745
  %call2 = call i16* @_ZSt22__copy_move_backward_aILb0EPtS0_ET1_T0_S2_S1_(i16* %call, i16* %call1, i16* %2), !dbg !2746
  ret i16* %call2, !dbg !2747
}

; Function Attrs: noinline uwtable
define linkonce_odr dso_local i64 @_ZSt8distanceIPKtENSt15iterator_traitsIT_E15difference_typeES3_S3_(i16* %__first, i16* %__last) #0 comdat !dbg !2748 {
entry:
  %__first.addr = alloca i16*, align 8
  %__last.addr = alloca i16*, align 8
  %agg.tmp = alloca %"struct.std::random_access_iterator_tag", align 1
  %undef.agg.tmp = alloca %"struct.std::random_access_iterator_tag", align 1
  store i16* %__first, i16** %__first.addr, align 8
  call void @llvm.dbg.declare(metadata i16** %__first.addr, metadata !2754, metadata !DIExpression()), !dbg !2755
  store i16* %__last, i16** %__last.addr, align 8
  call void @llvm.dbg.declare(metadata i16** %__last.addr, metadata !2756, metadata !DIExpression()), !dbg !2757
  %0 = load i16*, i16** %__first.addr, align 8, !dbg !2758
  %1 = load i16*, i16** %__last.addr, align 8, !dbg !2759
  call void @_ZSt19__iterator_categoryIPKtENSt15iterator_traitsIT_E17iterator_categoryERKS3_(i16** dereferenceable(8) %__first.addr), !dbg !2760
  %call = call i64 @_ZSt10__distanceIPKtENSt15iterator_traitsIT_E15difference_typeES3_S3_St26random_access_iterator_tag(i16* %0, i16* %1), !dbg !2761
  ret i64 %call, !dbg !2762
}

; Function Attrs: noinline nounwind uwtable
define linkonce_odr dso_local i64 @_ZSt10__distanceIPKtENSt15iterator_traitsIT_E15difference_typeES3_S3_St26random_access_iterator_tag(i16* %__first, i16* %__last) #3 comdat !dbg !2763 {
entry:
  %0 = alloca %"struct.std::random_access_iterator_tag", align 1
  %__first.addr = alloca i16*, align 8
  %__last.addr = alloca i16*, align 8
  store i16* %__first, i16** %__first.addr, align 8
  call void @llvm.dbg.declare(metadata i16** %__first.addr, metadata !2768, metadata !DIExpression()), !dbg !2769
  store i16* %__last, i16** %__last.addr, align 8
  call void @llvm.dbg.declare(metadata i16** %__last.addr, metadata !2770, metadata !DIExpression()), !dbg !2771
  call void @llvm.dbg.declare(metadata %"struct.std::random_access_iterator_tag"* %0, metadata !2772, metadata !DIExpression()), !dbg !2773
  %1 = load i16*, i16** %__last.addr, align 8, !dbg !2774
  %2 = load i16*, i16** %__first.addr, align 8, !dbg !2775
  %sub.ptr.lhs.cast = ptrtoint i16* %1 to i64, !dbg !2776
  %sub.ptr.rhs.cast = ptrtoint i16* %2 to i64, !dbg !2776
  %sub.ptr.sub = sub i64 %sub.ptr.lhs.cast, %sub.ptr.rhs.cast, !dbg !2776
  %sub.ptr.div = sdiv exact i64 %sub.ptr.sub, 2, !dbg !2776
  ret i64 %sub.ptr.div, !dbg !2777
}

; Function Attrs: noinline nounwind uwtable
define linkonce_odr dso_local void @_ZSt19__iterator_categoryIPKtENSt15iterator_traitsIT_E17iterator_categoryERKS3_(i16** dereferenceable(8) %0) #3 comdat !dbg !2778 {
entry:
  %.addr = alloca i16**, align 8
  store i16** %0, i16*** %.addr, align 8
  call void @llvm.dbg.declare(metadata i16*** %.addr, metadata !2786, metadata !DIExpression()), !dbg !2787
  ret void, !dbg !2788
}

; Function Attrs: noinline uwtable
define linkonce_odr dso_local void @_ZN11xalanc_1_1011XalanVectorItNS_31MemoryManagedConstructionTraitsItEEE9doReserveEm(%"class.xalanc_1_10::XalanVector"* %this, i64 %theSize) #0 comdat align 2 personality i8* bitcast (i32 (...)* @__gxx_personality_v0 to i8*) !dbg !2789 {
entry:
  %this.addr = alloca %"class.xalanc_1_10::XalanVector"*, align 8
  %theSize.addr = alloca i64, align 8
  %theTemp = alloca %"class.xalanc_1_10::XalanVector", align 8
  %exn.slot = alloca i8*
  %ehselector.slot = alloca i32
  store %"class.xalanc_1_10::XalanVector"* %this, %"class.xalanc_1_10::XalanVector"** %this.addr, align 8
  call void @llvm.dbg.declare(metadata %"class.xalanc_1_10::XalanVector"** %this.addr, metadata !2790, metadata !DIExpression()), !dbg !2791
  store i64 %theSize, i64* %theSize.addr, align 8
  call void @llvm.dbg.declare(metadata i64* %theSize.addr, metadata !2792, metadata !DIExpression()), !dbg !2793
  %this1 = load %"class.xalanc_1_10::XalanVector"*, %"class.xalanc_1_10::XalanVector"** %this.addr, align 8
  call void @_ZNK11xalanc_1_1011XalanVectorItNS_31MemoryManagedConstructionTraitsItEEE10invariantsEv(%"class.xalanc_1_10::XalanVector"* %this1), !dbg !2794
  call void @llvm.dbg.declare(metadata %"class.xalanc_1_10::XalanVector"* %theTemp, metadata !2795, metadata !DIExpression()), !dbg !2796
  %m_memoryManager = getelementptr inbounds %"class.xalanc_1_10::XalanVector", %"class.xalanc_1_10::XalanVector"* %this1, i32 0, i32 0, !dbg !2797
  %0 = load %"class.xercesc_2_7::MemoryManager"*, %"class.xercesc_2_7::MemoryManager"** %m_memoryManager, align 8, !dbg !2797
  %1 = load i64, i64* %theSize.addr, align 8, !dbg !2798
  call void @_ZN11xalanc_1_1011XalanVectorItNS_31MemoryManagedConstructionTraitsItEEEC2ERKS3_RN11xercesc_2_713MemoryManagerEm(%"class.xalanc_1_10::XalanVector"* %theTemp, %"class.xalanc_1_10::XalanVector"* dereferenceable(32) %this1, %"class.xercesc_2_7::MemoryManager"* dereferenceable(8) %0, i64 %1), !dbg !2796
  invoke void @_ZN11xalanc_1_1011XalanVectorItNS_31MemoryManagedConstructionTraitsItEEE4swapERS3_(%"class.xalanc_1_10::XalanVector"* %this1, %"class.xalanc_1_10::XalanVector"* dereferenceable(32) %theTemp)
          to label %invoke.cont unwind label %lpad, !dbg !2799

invoke.cont:                                      ; preds = %entry
  invoke void @_ZNK11xalanc_1_1011XalanVectorItNS_31MemoryManagedConstructionTraitsItEEE10invariantsEv(%"class.xalanc_1_10::XalanVector"* %this1)
          to label %invoke.cont2 unwind label %lpad, !dbg !2800

invoke.cont2:                                     ; preds = %invoke.cont
  call void @_ZN11xalanc_1_1011XalanVectorItNS_31MemoryManagedConstructionTraitsItEEED2Ev(%"class.xalanc_1_10::XalanVector"* %theTemp) #8, !dbg !2801
  ret void, !dbg !2801

lpad:                                             ; preds = %invoke.cont, %entry
  %2 = landingpad { i8*, i32 }
          cleanup, !dbg !2801
  %3 = extractvalue { i8*, i32 } %2, 0, !dbg !2801
  store i8* %3, i8** %exn.slot, align 8, !dbg !2801
  %4 = extractvalue { i8*, i32 } %2, 1, !dbg !2801
  store i32 %4, i32* %ehselector.slot, align 4, !dbg !2801
  call void @_ZN11xalanc_1_1011XalanVectorItNS_31MemoryManagedConstructionTraitsItEEED2Ev(%"class.xalanc_1_10::XalanVector"* %theTemp) #8, !dbg !2801
  br label %eh.resume, !dbg !2801

eh.resume:                                        ; preds = %lpad
  %exn = load i8*, i8** %exn.slot, align 8, !dbg !2801
  %sel = load i32, i32* %ehselector.slot, align 4, !dbg !2801
  %lpad.val = insertvalue { i8*, i32 } undef, i8* %exn, 0, !dbg !2801
  %lpad.val3 = insertvalue { i8*, i32 } %lpad.val, i32 %sel, 1, !dbg !2801
  resume { i8*, i32 } %lpad.val3, !dbg !2801
}

; Function Attrs: noinline uwtable
define linkonce_odr dso_local i16* @_ZSt22__copy_move_backward_aILb0EPtS0_ET1_T0_S2_S1_(i16* %__first, i16* %__last, i16* %__result) #0 comdat !dbg !2802 {
entry:
  %__first.addr = alloca i16*, align 8
  %__last.addr = alloca i16*, align 8
  %__result.addr = alloca i16*, align 8
  store i16* %__first, i16** %__first.addr, align 8
  call void @llvm.dbg.declare(metadata i16** %__first.addr, metadata !2807, metadata !DIExpression()), !dbg !2808
  store i16* %__last, i16** %__last.addr, align 8
  call void @llvm.dbg.declare(metadata i16** %__last.addr, metadata !2809, metadata !DIExpression()), !dbg !2810
  store i16* %__result, i16** %__result.addr, align 8
  call void @llvm.dbg.declare(metadata i16** %__result.addr, metadata !2811, metadata !DIExpression()), !dbg !2812
  %0 = load i16*, i16** %__first.addr, align 8, !dbg !2813
  %call = call i16* @_ZSt12__niter_baseIPtET_S1_(i16* %0) #8, !dbg !2814
  %1 = load i16*, i16** %__last.addr, align 8, !dbg !2815
  %call1 = call i16* @_ZSt12__niter_baseIPtET_S1_(i16* %1) #8, !dbg !2816
  %2 = load i16*, i16** %__result.addr, align 8, !dbg !2817
  %call2 = call i16* @_ZSt12__niter_baseIPtET_S1_(i16* %2) #8, !dbg !2818
  %call3 = call i16* @_ZSt23__copy_move_backward_a1ILb0EPtS0_ET1_T0_S2_S1_(i16* %call, i16* %call1, i16* %call2), !dbg !2819
  %call4 = call i16* @_ZSt12__niter_wrapIPtET_RKS1_S1_(i16** dereferenceable(8) %__result.addr, i16* %call3), !dbg !2820
  ret i16* %call4, !dbg !2821
}

; Function Attrs: noinline nounwind uwtable
define linkonce_odr dso_local i16* @_ZSt12__miter_baseIPtET_S1_(i16* %__it) #3 comdat !dbg !2822 {
entry:
  %__it.addr = alloca i16*, align 8
  store i16* %__it, i16** %__it.addr, align 8
  call void @llvm.dbg.declare(metadata i16** %__it.addr, metadata !2826, metadata !DIExpression()), !dbg !2827
  %0 = load i16*, i16** %__it.addr, align 8, !dbg !2828
  ret i16* %0, !dbg !2829
}

; Function Attrs: noinline nounwind uwtable
define linkonce_odr dso_local i16* @_ZSt12__niter_wrapIPtET_RKS1_S1_(i16** dereferenceable(8) %0, i16* %__res) #3 comdat !dbg !2830 {
entry:
  %.addr = alloca i16**, align 8
  %__res.addr = alloca i16*, align 8
  store i16** %0, i16*** %.addr, align 8
  call void @llvm.dbg.declare(metadata i16*** %.addr, metadata !2835, metadata !DIExpression()), !dbg !2836
  store i16* %__res, i16** %__res.addr, align 8
  call void @llvm.dbg.declare(metadata i16** %__res.addr, metadata !2837, metadata !DIExpression()), !dbg !2838
  %1 = load i16*, i16** %__res.addr, align 8, !dbg !2839
  ret i16* %1, !dbg !2840
}

; Function Attrs: noinline uwtable
define linkonce_odr dso_local i16* @_ZSt23__copy_move_backward_a1ILb0EPtS0_ET1_T0_S2_S1_(i16* %__first, i16* %__last, i16* %__result) #0 comdat !dbg !2841 {
entry:
  %__first.addr = alloca i16*, align 8
  %__last.addr = alloca i16*, align 8
  %__result.addr = alloca i16*, align 8
  store i16* %__first, i16** %__first.addr, align 8
  call void @llvm.dbg.declare(metadata i16** %__first.addr, metadata !2845, metadata !DIExpression()), !dbg !2846
  store i16* %__last, i16** %__last.addr, align 8
  call void @llvm.dbg.declare(metadata i16** %__last.addr, metadata !2847, metadata !DIExpression()), !dbg !2848
  store i16* %__result, i16** %__result.addr, align 8
  call void @llvm.dbg.declare(metadata i16** %__result.addr, metadata !2849, metadata !DIExpression()), !dbg !2850
  %0 = load i16*, i16** %__first.addr, align 8, !dbg !2851
  %1 = load i16*, i16** %__last.addr, align 8, !dbg !2852
  %2 = load i16*, i16** %__result.addr, align 8, !dbg !2853
  %call = call i16* @_ZSt23__copy_move_backward_a2ILb0EPtS0_ET1_T0_S2_S1_(i16* %0, i16* %1, i16* %2), !dbg !2854
  ret i16* %call, !dbg !2855
}

; Function Attrs: noinline nounwind uwtable
define linkonce_odr dso_local i16* @_ZSt12__niter_baseIPtET_S1_(i16* %__it) #3 comdat !dbg !2856 {
entry:
  %__it.addr = alloca i16*, align 8
  store i16* %__it, i16** %__it.addr, align 8
  call void @llvm.dbg.declare(metadata i16** %__it.addr, metadata !2857, metadata !DIExpression()), !dbg !2858
  %0 = load i16*, i16** %__it.addr, align 8, !dbg !2859
  ret i16* %0, !dbg !2860
}

; Function Attrs: noinline uwtable
define linkonce_odr dso_local i16* @_ZSt23__copy_move_backward_a2ILb0EPtS0_ET1_T0_S2_S1_(i16* %__first, i16* %__last, i16* %__result) #0 comdat !dbg !2861 {
entry:
  %__first.addr = alloca i16*, align 8
  %__last.addr = alloca i16*, align 8
  %__result.addr = alloca i16*, align 8
  store i16* %__first, i16** %__first.addr, align 8
  call void @llvm.dbg.declare(metadata i16** %__first.addr, metadata !2862, metadata !DIExpression()), !dbg !2863
  store i16* %__last, i16** %__last.addr, align 8
  call void @llvm.dbg.declare(metadata i16** %__last.addr, metadata !2864, metadata !DIExpression()), !dbg !2865
  store i16* %__result, i16** %__result.addr, align 8
  call void @llvm.dbg.declare(metadata i16** %__result.addr, metadata !2866, metadata !DIExpression()), !dbg !2867
  %0 = load i16*, i16** %__first.addr, align 8, !dbg !2868
  %1 = load i16*, i16** %__last.addr, align 8, !dbg !2869
  %2 = load i16*, i16** %__result.addr, align 8, !dbg !2870
  %call = call i16* @_ZNSt20__copy_move_backwardILb0ELb1ESt26random_access_iterator_tagE13__copy_move_bItEEPT_PKS3_S6_S4_(i16* %0, i16* %1, i16* %2), !dbg !2871
  ret i16* %call, !dbg !2872
}

; Function Attrs: noinline nounwind uwtable
define linkonce_odr dso_local i16* @_ZNSt20__copy_move_backwardILb0ELb1ESt26random_access_iterator_tagE13__copy_move_bItEEPT_PKS3_S6_S4_(i16* %__first, i16* %__last, i16* %__result) #3 comdat align 2 !dbg !2873 {
entry:
  %__first.addr = alloca i16*, align 8
  %__last.addr = alloca i16*, align 8
  %__result.addr = alloca i16*, align 8
  %_Num = alloca i64, align 8
  store i16* %__first, i16** %__first.addr, align 8
  call void @llvm.dbg.declare(metadata i16** %__first.addr, metadata !2879, metadata !DIExpression()), !dbg !2880
  store i16* %__last, i16** %__last.addr, align 8
  call void @llvm.dbg.declare(metadata i16** %__last.addr, metadata !2881, metadata !DIExpression()), !dbg !2882
  store i16* %__result, i16** %__result.addr, align 8
  call void @llvm.dbg.declare(metadata i16** %__result.addr, metadata !2883, metadata !DIExpression()), !dbg !2884
  call void @llvm.dbg.declare(metadata i64* %_Num, metadata !2885, metadata !DIExpression()), !dbg !2887
  %0 = load i16*, i16** %__last.addr, align 8, !dbg !2888
  %1 = load i16*, i16** %__first.addr, align 8, !dbg !2889
  %sub.ptr.lhs.cast = ptrtoint i16* %0 to i64, !dbg !2890
  %sub.ptr.rhs.cast = ptrtoint i16* %1 to i64, !dbg !2890
  %sub.ptr.sub = sub i64 %sub.ptr.lhs.cast, %sub.ptr.rhs.cast, !dbg !2890
  %sub.ptr.div = sdiv exact i64 %sub.ptr.sub, 2, !dbg !2890
  store i64 %sub.ptr.div, i64* %_Num, align 8, !dbg !2887
  %2 = load i64, i64* %_Num, align 8, !dbg !2891
  %tobool = icmp ne i64 %2, 0, !dbg !2891
  br i1 %tobool, label %if.then, label %if.end, !dbg !2893

if.then:                                          ; preds = %entry
  %3 = load i16*, i16** %__result.addr, align 8, !dbg !2894
  %4 = load i64, i64* %_Num, align 8, !dbg !2895
  %idx.neg = sub i64 0, %4, !dbg !2896
  %add.ptr = getelementptr inbounds i16, i16* %3, i64 %idx.neg, !dbg !2896
  %5 = bitcast i16* %add.ptr to i8*, !dbg !2897
  %6 = load i16*, i16** %__first.addr, align 8, !dbg !2898
  %7 = bitcast i16* %6 to i8*, !dbg !2897
  %8 = load i64, i64* %_Num, align 8, !dbg !2899
  %mul = mul i64 2, %8, !dbg !2900
  call void @llvm.memmove.p0i8.p0i8.i64(i8* align 2 %5, i8* align 2 %7, i64 %mul, i1 false), !dbg !2897
  br label %if.end, !dbg !2897

if.end:                                           ; preds = %if.then, %entry
  %9 = load i16*, i16** %__result.addr, align 8, !dbg !2901
  %10 = load i64, i64* %_Num, align 8, !dbg !2902
  %idx.neg1 = sub i64 0, %10, !dbg !2903
  %add.ptr2 = getelementptr inbounds i16, i16* %9, i64 %idx.neg1, !dbg !2903
  ret i16* %add.ptr2, !dbg !2904
}

; Function Attrs: argmemonly nounwind willreturn
declare void @llvm.memmove.p0i8.p0i8.i64(i8* nocapture, i8* nocapture readonly, i64, i1 immarg) #7

; Function Attrs: noinline uwtable
define linkonce_odr dso_local i16* @_ZSt13__copy_move_aILb0EPKtPtET1_T0_S4_S3_(i16* %__first, i16* %__last, i16* %__result) #0 comdat !dbg !2905 {
entry:
  %__first.addr = alloca i16*, align 8
  %__last.addr = alloca i16*, align 8
  %__result.addr = alloca i16*, align 8
  store i16* %__first, i16** %__first.addr, align 8
  call void @llvm.dbg.declare(metadata i16** %__first.addr, metadata !2908, metadata !DIExpression()), !dbg !2909
  store i16* %__last, i16** %__last.addr, align 8
  call void @llvm.dbg.declare(metadata i16** %__last.addr, metadata !2910, metadata !DIExpression()), !dbg !2911
  store i16* %__result, i16** %__result.addr, align 8
  call void @llvm.dbg.declare(metadata i16** %__result.addr, metadata !2912, metadata !DIExpression()), !dbg !2913
  %0 = load i16*, i16** %__first.addr, align 8, !dbg !2914
  %call = call i16* @_ZSt12__niter_baseIPKtET_S2_(i16* %0) #8, !dbg !2915
  %1 = load i16*, i16** %__last.addr, align 8, !dbg !2916
  %call1 = call i16* @_ZSt12__niter_baseIPKtET_S2_(i16* %1) #8, !dbg !2917
  %2 = load i16*, i16** %__result.addr, align 8, !dbg !2918
  %call2 = call i16* @_ZSt12__niter_baseIPtET_S1_(i16* %2) #8, !dbg !2919
  %call3 = call i16* @_ZSt14__copy_move_a1ILb0EPKtPtET1_T0_S4_S3_(i16* %call, i16* %call1, i16* %call2), !dbg !2920
  %call4 = call i16* @_ZSt12__niter_wrapIPtET_RKS1_S1_(i16** dereferenceable(8) %__result.addr, i16* %call3), !dbg !2921
  ret i16* %call4, !dbg !2922
}

; Function Attrs: noinline nounwind uwtable
define linkonce_odr dso_local i16* @_ZSt12__miter_baseIPKtET_S2_(i16* %__it) #3 comdat !dbg !2923 {
entry:
  %__it.addr = alloca i16*, align 8
  store i16* %__it, i16** %__it.addr, align 8
  call void @llvm.dbg.declare(metadata i16** %__it.addr, metadata !2926, metadata !DIExpression()), !dbg !2927
  %0 = load i16*, i16** %__it.addr, align 8, !dbg !2928
  ret i16* %0, !dbg !2929
}

; Function Attrs: noinline uwtable
define linkonce_odr dso_local i16* @_ZSt14__copy_move_a1ILb0EPKtPtET1_T0_S4_S3_(i16* %__first, i16* %__last, i16* %__result) #0 comdat !dbg !2930 {
entry:
  %__first.addr = alloca i16*, align 8
  %__last.addr = alloca i16*, align 8
  %__result.addr = alloca i16*, align 8
  store i16* %__first, i16** %__first.addr, align 8
  call void @llvm.dbg.declare(metadata i16** %__first.addr, metadata !2931, metadata !DIExpression()), !dbg !2932
  store i16* %__last, i16** %__last.addr, align 8
  call void @llvm.dbg.declare(metadata i16** %__last.addr, metadata !2933, metadata !DIExpression()), !dbg !2934
  store i16* %__result, i16** %__result.addr, align 8
  call void @llvm.dbg.declare(metadata i16** %__result.addr, metadata !2935, metadata !DIExpression()), !dbg !2936
  %0 = load i16*, i16** %__first.addr, align 8, !dbg !2937
  %1 = load i16*, i16** %__last.addr, align 8, !dbg !2938
  %2 = load i16*, i16** %__result.addr, align 8, !dbg !2939
  %call = call i16* @_ZSt14__copy_move_a2ILb0EPKtPtET1_T0_S4_S3_(i16* %0, i16* %1, i16* %2), !dbg !2940
  ret i16* %call, !dbg !2941
}

; Function Attrs: noinline nounwind uwtable
define linkonce_odr dso_local i16* @_ZSt12__niter_baseIPKtET_S2_(i16* %__it) #3 comdat !dbg !2942 {
entry:
  %__it.addr = alloca i16*, align 8
  store i16* %__it, i16** %__it.addr, align 8
  call void @llvm.dbg.declare(metadata i16** %__it.addr, metadata !2943, metadata !DIExpression()), !dbg !2944
  %0 = load i16*, i16** %__it.addr, align 8, !dbg !2945
  ret i16* %0, !dbg !2946
}

; Function Attrs: noinline uwtable
define linkonce_odr dso_local i16* @_ZSt14__copy_move_a2ILb0EPKtPtET1_T0_S4_S3_(i16* %__first, i16* %__last, i16* %__result) #0 comdat !dbg !2947 {
entry:
  %__first.addr = alloca i16*, align 8
  %__last.addr = alloca i16*, align 8
  %__result.addr = alloca i16*, align 8
  store i16* %__first, i16** %__first.addr, align 8
  call void @llvm.dbg.declare(metadata i16** %__first.addr, metadata !2948, metadata !DIExpression()), !dbg !2949
  store i16* %__last, i16** %__last.addr, align 8
  call void @llvm.dbg.declare(metadata i16** %__last.addr, metadata !2950, metadata !DIExpression()), !dbg !2951
  store i16* %__result, i16** %__result.addr, align 8
  call void @llvm.dbg.declare(metadata i16** %__result.addr, metadata !2952, metadata !DIExpression()), !dbg !2953
  %0 = load i16*, i16** %__first.addr, align 8, !dbg !2954
  %1 = load i16*, i16** %__last.addr, align 8, !dbg !2955
  %2 = load i16*, i16** %__result.addr, align 8, !dbg !2956
  %call = call i16* @_ZNSt11__copy_moveILb0ELb1ESt26random_access_iterator_tagE8__copy_mItEEPT_PKS3_S6_S4_(i16* %0, i16* %1, i16* %2), !dbg !2957
  ret i16* %call, !dbg !2958
}

; Function Attrs: noinline nounwind uwtable
define linkonce_odr dso_local i16* @_ZNSt11__copy_moveILb0ELb1ESt26random_access_iterator_tagE8__copy_mItEEPT_PKS3_S6_S4_(i16* %__first, i16* %__last, i16* %__result) #3 comdat align 2 !dbg !2959 {
entry:
  %__first.addr = alloca i16*, align 8
  %__last.addr = alloca i16*, align 8
  %__result.addr = alloca i16*, align 8
  %_Num = alloca i64, align 8
  store i16* %__first, i16** %__first.addr, align 8
  call void @llvm.dbg.declare(metadata i16** %__first.addr, metadata !2962, metadata !DIExpression()), !dbg !2963
  store i16* %__last, i16** %__last.addr, align 8
  call void @llvm.dbg.declare(metadata i16** %__last.addr, metadata !2964, metadata !DIExpression()), !dbg !2965
  store i16* %__result, i16** %__result.addr, align 8
  call void @llvm.dbg.declare(metadata i16** %__result.addr, metadata !2966, metadata !DIExpression()), !dbg !2967
  call void @llvm.dbg.declare(metadata i64* %_Num, metadata !2968, metadata !DIExpression()), !dbg !2969
  %0 = load i16*, i16** %__last.addr, align 8, !dbg !2970
  %1 = load i16*, i16** %__first.addr, align 8, !dbg !2971
  %sub.ptr.lhs.cast = ptrtoint i16* %0 to i64, !dbg !2972
  %sub.ptr.rhs.cast = ptrtoint i16* %1 to i64, !dbg !2972
  %sub.ptr.sub = sub i64 %sub.ptr.lhs.cast, %sub.ptr.rhs.cast, !dbg !2972
  %sub.ptr.div = sdiv exact i64 %sub.ptr.sub, 2, !dbg !2972
  store i64 %sub.ptr.div, i64* %_Num, align 8, !dbg !2969
  %2 = load i64, i64* %_Num, align 8, !dbg !2973
  %tobool = icmp ne i64 %2, 0, !dbg !2973
  br i1 %tobool, label %if.then, label %if.end, !dbg !2975

if.then:                                          ; preds = %entry
  %3 = load i16*, i16** %__result.addr, align 8, !dbg !2976
  %4 = bitcast i16* %3 to i8*, !dbg !2977
  %5 = load i16*, i16** %__first.addr, align 8, !dbg !2978
  %6 = bitcast i16* %5 to i8*, !dbg !2977
  %7 = load i64, i64* %_Num, align 8, !dbg !2979
  %mul = mul i64 2, %7, !dbg !2980
  call void @llvm.memmove.p0i8.p0i8.i64(i8* align 2 %4, i8* align 2 %6, i64 %mul, i1 false), !dbg !2977
  br label %if.end, !dbg !2977

if.end:                                           ; preds = %if.then, %entry
  %8 = load i16*, i16** %__result.addr, align 8, !dbg !2981
  %9 = load i64, i64* %_Num, align 8, !dbg !2982
  %add.ptr = getelementptr inbounds i16, i16* %8, i64 %9, !dbg !2983
  ret i16* %add.ptr, !dbg !2984
}

; Function Attrs: noinline uwtable
define linkonce_odr dso_local zeroext i1 @_ZN11xalanc_1_10eqERKNS_14XalanDOMStringES2_(%"class.xalanc_1_10::XalanDOMString"* dereferenceable(40) %theLHS, %"class.xalanc_1_10::XalanDOMString"* dereferenceable(40) %theRHS) #0 comdat !dbg !2985 {
entry:
  %theLHS.addr = alloca %"class.xalanc_1_10::XalanDOMString"*, align 8
  %theRHS.addr = alloca %"class.xalanc_1_10::XalanDOMString"*, align 8
  store %"class.xalanc_1_10::XalanDOMString"* %theLHS, %"class.xalanc_1_10::XalanDOMString"** %theLHS.addr, align 8
  call void @llvm.dbg.declare(metadata %"class.xalanc_1_10::XalanDOMString"** %theLHS.addr, metadata !2986, metadata !DIExpression()), !dbg !2987
  store %"class.xalanc_1_10::XalanDOMString"* %theRHS, %"class.xalanc_1_10::XalanDOMString"** %theRHS.addr, align 8
  call void @llvm.dbg.declare(metadata %"class.xalanc_1_10::XalanDOMString"** %theRHS.addr, metadata !2988, metadata !DIExpression()), !dbg !2989
  %0 = load %"class.xalanc_1_10::XalanDOMString"*, %"class.xalanc_1_10::XalanDOMString"** %theLHS.addr, align 8, !dbg !2990
  %1 = load %"class.xalanc_1_10::XalanDOMString"*, %"class.xalanc_1_10::XalanDOMString"** %theRHS.addr, align 8, !dbg !2991
  %call = call zeroext i1 @_ZN11xalanc_1_1014XalanDOMString6equalsERKS0_S2_(%"class.xalanc_1_10::XalanDOMString"* dereferenceable(40) %0, %"class.xalanc_1_10::XalanDOMString"* dereferenceable(40) %1), !dbg !2992
  ret i1 %call, !dbg !2993
}

declare dso_local zeroext i1 @_ZN11xalanc_1_1014XalanDOMString6equalsERKS0_S2_(%"class.xalanc_1_10::XalanDOMString"* dereferenceable(40), %"class.xalanc_1_10::XalanDOMString"* dereferenceable(40)) #2

; Function Attrs: noinline uwtable
define linkonce_odr dso_local %"class.xalanc_1_10::XalanNode"** @_ZN11xalanc_1_1011XalanVectorIPKNS_9XalanNodeENS_31MemoryManagedConstructionTraitsIS3_EEE8allocateEm(%"class.xalanc_1_10::XalanVector.0"* %this, i64 %size) #0 comdat align 2 !dbg !2994 {
entry:
  %this.addr = alloca %"class.xalanc_1_10::XalanVector.0"*, align 8
  %size.addr = alloca i64, align 8
  %theBytesNeeded = alloca i64, align 8
  %pointer = alloca i8*, align 8
  store %"class.xalanc_1_10::XalanVector.0"* %this, %"class.xalanc_1_10::XalanVector.0"** %this.addr, align 8
  call void @llvm.dbg.declare(metadata %"class.xalanc_1_10::XalanVector.0"** %this.addr, metadata !2995, metadata !DIExpression()), !dbg !2996
  store i64 %size, i64* %size.addr, align 8
  call void @llvm.dbg.declare(metadata i64* %size.addr, metadata !2997, metadata !DIExpression()), !dbg !2998
  %this1 = load %"class.xalanc_1_10::XalanVector.0"*, %"class.xalanc_1_10::XalanVector.0"** %this.addr, align 8
  call void @llvm.dbg.declare(metadata i64* %theBytesNeeded, metadata !2999, metadata !DIExpression()), !dbg !3000
  %0 = load i64, i64* %size.addr, align 8, !dbg !3001
  %mul = mul i64 %0, 8, !dbg !3002
  store i64 %mul, i64* %theBytesNeeded, align 8, !dbg !3000
  call void @llvm.dbg.declare(metadata i8** %pointer, metadata !3003, metadata !DIExpression()), !dbg !3004
  %m_memoryManager = getelementptr inbounds %"class.xalanc_1_10::XalanVector.0", %"class.xalanc_1_10::XalanVector.0"* %this1, i32 0, i32 0, !dbg !3005
  %1 = load %"class.xercesc_2_7::MemoryManager"*, %"class.xercesc_2_7::MemoryManager"** %m_memoryManager, align 8, !dbg !3005
  %2 = load i64, i64* %theBytesNeeded, align 8, !dbg !3006
  %3 = bitcast %"class.xercesc_2_7::MemoryManager"* %1 to i8* (%"class.xercesc_2_7::MemoryManager"*, i64)***, !dbg !3007
  %vtable = load i8* (%"class.xercesc_2_7::MemoryManager"*, i64)**, i8* (%"class.xercesc_2_7::MemoryManager"*, i64)*** %3, align 8, !dbg !3007
  %vfn = getelementptr inbounds i8* (%"class.xercesc_2_7::MemoryManager"*, i64)*, i8* (%"class.xercesc_2_7::MemoryManager"*, i64)** %vtable, i64 2, !dbg !3007
  %4 = load i8* (%"class.xercesc_2_7::MemoryManager"*, i64)*, i8* (%"class.xercesc_2_7::MemoryManager"*, i64)** %vfn, align 8, !dbg !3007
  %call = call i8* %4(%"class.xercesc_2_7::MemoryManager"* %1, i64 %2), !dbg !3007
  store i8* %call, i8** %pointer, align 8, !dbg !3004
  %5 = load i8*, i8** %pointer, align 8, !dbg !3008
  %6 = bitcast i8* %5 to %"class.xalanc_1_10::XalanNode"**, !dbg !3009
  ret %"class.xalanc_1_10::XalanNode"** %6, !dbg !3010
}

; Function Attrs: noinline nounwind uwtable
define linkonce_odr dso_local void @_ZNK11xalanc_1_1011XalanVectorIPKNS_9XalanNodeENS_31MemoryManagedConstructionTraitsIS3_EEE10invariantsEv(%"class.xalanc_1_10::XalanVector.0"* %this) #3 comdat align 2 !dbg !3011 {
entry:
  %this.addr = alloca %"class.xalanc_1_10::XalanVector.0"*, align 8
  store %"class.xalanc_1_10::XalanVector.0"* %this, %"class.xalanc_1_10::XalanVector.0"** %this.addr, align 8
  call void @llvm.dbg.declare(metadata %"class.xalanc_1_10::XalanVector.0"** %this.addr, metadata !3012, metadata !DIExpression()), !dbg !3014
  %this1 = load %"class.xalanc_1_10::XalanVector.0"*, %"class.xalanc_1_10::XalanVector.0"** %this.addr, align 8
  ret void, !dbg !3015
}

; Function Attrs: noinline uwtable
define linkonce_odr dso_local void @_ZN11xalanc_1_1011XalanVectorIPKNS_9XalanNodeENS_31MemoryManagedConstructionTraitsIS3_EEE7destroyEPS3_S7_(%"class.xalanc_1_10::XalanNode"** %theFirst, %"class.xalanc_1_10::XalanNode"** %theLast) #0 comdat align 2 !dbg !3016 {
entry:
  %theFirst.addr = alloca %"class.xalanc_1_10::XalanNode"**, align 8
  %theLast.addr = alloca %"class.xalanc_1_10::XalanNode"**, align 8
  store %"class.xalanc_1_10::XalanNode"** %theFirst, %"class.xalanc_1_10::XalanNode"*** %theFirst.addr, align 8
  call void @llvm.dbg.declare(metadata %"class.xalanc_1_10::XalanNode"*** %theFirst.addr, metadata !3017, metadata !DIExpression()), !dbg !3018
  store %"class.xalanc_1_10::XalanNode"** %theLast, %"class.xalanc_1_10::XalanNode"*** %theLast.addr, align 8
  call void @llvm.dbg.declare(metadata %"class.xalanc_1_10::XalanNode"*** %theLast.addr, metadata !3019, metadata !DIExpression()), !dbg !3020
  br label %for.cond, !dbg !3021

for.cond:                                         ; preds = %for.inc, %entry
  %0 = load %"class.xalanc_1_10::XalanNode"**, %"class.xalanc_1_10::XalanNode"*** %theFirst.addr, align 8, !dbg !3022
  %1 = load %"class.xalanc_1_10::XalanNode"**, %"class.xalanc_1_10::XalanNode"*** %theLast.addr, align 8, !dbg !3025
  %cmp = icmp ne %"class.xalanc_1_10::XalanNode"** %0, %1, !dbg !3026
  br i1 %cmp, label %for.body, label %for.end, !dbg !3027

for.body:                                         ; preds = %for.cond
  %2 = load %"class.xalanc_1_10::XalanNode"**, %"class.xalanc_1_10::XalanNode"*** %theFirst.addr, align 8, !dbg !3028
  call void @_ZN11xalanc_1_1011XalanVectorIPKNS_9XalanNodeENS_31MemoryManagedConstructionTraitsIS3_EEE7destroyERS3_(%"class.xalanc_1_10::XalanNode"** dereferenceable(8) %2), !dbg !3030
  br label %for.inc, !dbg !3031

for.inc:                                          ; preds = %for.body
  %3 = load %"class.xalanc_1_10::XalanNode"**, %"class.xalanc_1_10::XalanNode"*** %theFirst.addr, align 8, !dbg !3032
  %incdec.ptr = getelementptr inbounds %"class.xalanc_1_10::XalanNode"*, %"class.xalanc_1_10::XalanNode"** %3, i32 1, !dbg !3032
  store %"class.xalanc_1_10::XalanNode"** %incdec.ptr, %"class.xalanc_1_10::XalanNode"*** %theFirst.addr, align 8, !dbg !3032
  br label %for.cond, !dbg !3033, !llvm.loop !3034

for.end:                                          ; preds = %for.cond
  ret void, !dbg !3036
}

; Function Attrs: noinline nounwind uwtable
define linkonce_odr dso_local %"class.xalanc_1_10::XalanNode"** @_ZN11xalanc_1_1011XalanVectorIPKNS_9XalanNodeENS_31MemoryManagedConstructionTraitsIS3_EEE5beginEv(%"class.xalanc_1_10::XalanVector.0"* %this) #3 comdat align 2 !dbg !3037 {
entry:
  %this.addr = alloca %"class.xalanc_1_10::XalanVector.0"*, align 8
  store %"class.xalanc_1_10::XalanVector.0"* %this, %"class.xalanc_1_10::XalanVector.0"** %this.addr, align 8
  call void @llvm.dbg.declare(metadata %"class.xalanc_1_10::XalanVector.0"** %this.addr, metadata !3038, metadata !DIExpression()), !dbg !3039
  %this1 = load %"class.xalanc_1_10::XalanVector.0"*, %"class.xalanc_1_10::XalanVector.0"** %this.addr, align 8
  call void @_ZNK11xalanc_1_1011XalanVectorIPKNS_9XalanNodeENS_31MemoryManagedConstructionTraitsIS3_EEE10invariantsEv(%"class.xalanc_1_10::XalanVector.0"* %this1), !dbg !3040
  %m_data = getelementptr inbounds %"class.xalanc_1_10::XalanVector.0", %"class.xalanc_1_10::XalanVector.0"* %this1, i32 0, i32 3, !dbg !3041
  %0 = load %"class.xalanc_1_10::XalanNode"**, %"class.xalanc_1_10::XalanNode"*** %m_data, align 8, !dbg !3041
  ret %"class.xalanc_1_10::XalanNode"** %0, !dbg !3042
}

; Function Attrs: noinline uwtable
define linkonce_odr dso_local %"class.xalanc_1_10::XalanNode"** @_ZN11xalanc_1_1011XalanVectorIPKNS_9XalanNodeENS_31MemoryManagedConstructionTraitsIS3_EEE3endEv(%"class.xalanc_1_10::XalanVector.0"* %this) #0 comdat align 2 !dbg !3043 {
entry:
  %this.addr = alloca %"class.xalanc_1_10::XalanVector.0"*, align 8
  store %"class.xalanc_1_10::XalanVector.0"* %this, %"class.xalanc_1_10::XalanVector.0"** %this.addr, align 8
  call void @llvm.dbg.declare(metadata %"class.xalanc_1_10::XalanVector.0"** %this.addr, metadata !3044, metadata !DIExpression()), !dbg !3045
  %this1 = load %"class.xalanc_1_10::XalanVector.0"*, %"class.xalanc_1_10::XalanVector.0"** %this.addr, align 8
  call void @_ZNK11xalanc_1_1011XalanVectorIPKNS_9XalanNodeENS_31MemoryManagedConstructionTraitsIS3_EEE10invariantsEv(%"class.xalanc_1_10::XalanVector.0"* %this1), !dbg !3046
  %call = call %"class.xalanc_1_10::XalanNode"** @_ZN11xalanc_1_1011XalanVectorIPKNS_9XalanNodeENS_31MemoryManagedConstructionTraitsIS3_EEE10endPointerEv(%"class.xalanc_1_10::XalanVector.0"* %this1), !dbg !3047
  ret %"class.xalanc_1_10::XalanNode"** %call, !dbg !3048
}

; Function Attrs: noinline uwtable
define linkonce_odr dso_local void @_ZN11xalanc_1_1011XalanVectorIPKNS_9XalanNodeENS_31MemoryManagedConstructionTraitsIS3_EEE10deallocateEPS3_(%"class.xalanc_1_10::XalanVector.0"* %this, %"class.xalanc_1_10::XalanNode"** %pointer) #0 comdat align 2 !dbg !3049 {
entry:
  %this.addr = alloca %"class.xalanc_1_10::XalanVector.0"*, align 8
  %pointer.addr = alloca %"class.xalanc_1_10::XalanNode"**, align 8
  store %"class.xalanc_1_10::XalanVector.0"* %this, %"class.xalanc_1_10::XalanVector.0"** %this.addr, align 8
  call void @llvm.dbg.declare(metadata %"class.xalanc_1_10::XalanVector.0"** %this.addr, metadata !3050, metadata !DIExpression()), !dbg !3051
  store %"class.xalanc_1_10::XalanNode"** %pointer, %"class.xalanc_1_10::XalanNode"*** %pointer.addr, align 8
  call void @llvm.dbg.declare(metadata %"class.xalanc_1_10::XalanNode"*** %pointer.addr, metadata !3052, metadata !DIExpression()), !dbg !3053
  %this1 = load %"class.xalanc_1_10::XalanVector.0"*, %"class.xalanc_1_10::XalanVector.0"** %this.addr, align 8
  %m_memoryManager = getelementptr inbounds %"class.xalanc_1_10::XalanVector.0", %"class.xalanc_1_10::XalanVector.0"* %this1, i32 0, i32 0, !dbg !3054
  %0 = load %"class.xercesc_2_7::MemoryManager"*, %"class.xercesc_2_7::MemoryManager"** %m_memoryManager, align 8, !dbg !3054
  %1 = load %"class.xalanc_1_10::XalanNode"**, %"class.xalanc_1_10::XalanNode"*** %pointer.addr, align 8, !dbg !3055
  %2 = bitcast %"class.xalanc_1_10::XalanNode"** %1 to i8*, !dbg !3055
  %3 = bitcast %"class.xercesc_2_7::MemoryManager"* %0 to void (%"class.xercesc_2_7::MemoryManager"*, i8*)***, !dbg !3056
  %vtable = load void (%"class.xercesc_2_7::MemoryManager"*, i8*)**, void (%"class.xercesc_2_7::MemoryManager"*, i8*)*** %3, align 8, !dbg !3056
  %vfn = getelementptr inbounds void (%"class.xercesc_2_7::MemoryManager"*, i8*)*, void (%"class.xercesc_2_7::MemoryManager"*, i8*)** %vtable, i64 3, !dbg !3056
  %4 = load void (%"class.xercesc_2_7::MemoryManager"*, i8*)*, void (%"class.xercesc_2_7::MemoryManager"*, i8*)** %vfn, align 8, !dbg !3056
  call void %4(%"class.xercesc_2_7::MemoryManager"* %0, i8* %2), !dbg !3056
  ret void, !dbg !3057
}

; Function Attrs: noinline nounwind uwtable
define linkonce_odr dso_local void @_ZN11xalanc_1_1011XalanVectorIPKNS_9XalanNodeENS_31MemoryManagedConstructionTraitsIS3_EEE7destroyERS3_(%"class.xalanc_1_10::XalanNode"** dereferenceable(8) %theValue) #3 comdat align 2 !dbg !3058 {
entry:
  %theValue.addr = alloca %"class.xalanc_1_10::XalanNode"**, align 8
  store %"class.xalanc_1_10::XalanNode"** %theValue, %"class.xalanc_1_10::XalanNode"*** %theValue.addr, align 8
  call void @llvm.dbg.declare(metadata %"class.xalanc_1_10::XalanNode"*** %theValue.addr, metadata !3059, metadata !DIExpression()), !dbg !3060
  %0 = load %"class.xalanc_1_10::XalanNode"**, %"class.xalanc_1_10::XalanNode"*** %theValue.addr, align 8, !dbg !3061
  ret void, !dbg !3062
}

; Function Attrs: noinline nounwind uwtable
define linkonce_odr dso_local %"class.xalanc_1_10::XalanNode"** @_ZN11xalanc_1_1011XalanVectorIPKNS_9XalanNodeENS_31MemoryManagedConstructionTraitsIS3_EEE10endPointerEv(%"class.xalanc_1_10::XalanVector.0"* %this) #3 comdat align 2 !dbg !3063 {
entry:
  %this.addr = alloca %"class.xalanc_1_10::XalanVector.0"*, align 8
  store %"class.xalanc_1_10::XalanVector.0"* %this, %"class.xalanc_1_10::XalanVector.0"** %this.addr, align 8
  call void @llvm.dbg.declare(metadata %"class.xalanc_1_10::XalanVector.0"** %this.addr, metadata !3064, metadata !DIExpression()), !dbg !3065
  %this1 = load %"class.xalanc_1_10::XalanVector.0"*, %"class.xalanc_1_10::XalanVector.0"** %this.addr, align 8
  %m_data = getelementptr inbounds %"class.xalanc_1_10::XalanVector.0", %"class.xalanc_1_10::XalanVector.0"* %this1, i32 0, i32 3, !dbg !3066
  %0 = load %"class.xalanc_1_10::XalanNode"**, %"class.xalanc_1_10::XalanNode"*** %m_data, align 8, !dbg !3066
  %m_size = getelementptr inbounds %"class.xalanc_1_10::XalanVector.0", %"class.xalanc_1_10::XalanVector.0"* %this1, i32 0, i32 1, !dbg !3067
  %1 = load i64, i64* %m_size, align 8, !dbg !3067
  %add.ptr = getelementptr inbounds %"class.xalanc_1_10::XalanNode"*, %"class.xalanc_1_10::XalanNode"** %0, i64 %1, !dbg !3068
  ret %"class.xalanc_1_10::XalanNode"** %add.ptr, !dbg !3069
}

; Function Attrs: noinline uwtable
define linkonce_odr dso_local void @_ZN11xalanc_1_1011XalanVectorIPKNS_9XalanNodeENS_31MemoryManagedConstructionTraitsIS3_EEE12shrinkToSizeEm(%"class.xalanc_1_10::XalanVector.0"* %this, i64 %theSize) #0 comdat align 2 !dbg !3070 {
entry:
  %this.addr = alloca %"class.xalanc_1_10::XalanVector.0"*, align 8
  %theSize.addr = alloca i64, align 8
  store %"class.xalanc_1_10::XalanVector.0"* %this, %"class.xalanc_1_10::XalanVector.0"** %this.addr, align 8
  call void @llvm.dbg.declare(metadata %"class.xalanc_1_10::XalanVector.0"** %this.addr, metadata !3071, metadata !DIExpression()), !dbg !3072
  store i64 %theSize, i64* %theSize.addr, align 8
  call void @llvm.dbg.declare(metadata i64* %theSize.addr, metadata !3073, metadata !DIExpression()), !dbg !3074
  %this1 = load %"class.xalanc_1_10::XalanVector.0"*, %"class.xalanc_1_10::XalanVector.0"** %this.addr, align 8
  br label %do.body, !dbg !3075

do.body:                                          ; preds = %do.cond, %entry
  call void @_ZN11xalanc_1_1011XalanVectorIPKNS_9XalanNodeENS_31MemoryManagedConstructionTraitsIS3_EEE8pop_backEv(%"class.xalanc_1_10::XalanVector.0"* %this1), !dbg !3076
  br label %do.cond, !dbg !3078

do.cond:                                          ; preds = %do.body
  %m_size = getelementptr inbounds %"class.xalanc_1_10::XalanVector.0", %"class.xalanc_1_10::XalanVector.0"* %this1, i32 0, i32 1, !dbg !3079
  %0 = load i64, i64* %m_size, align 8, !dbg !3079
  %1 = load i64, i64* %theSize.addr, align 8, !dbg !3080
  %cmp = icmp ugt i64 %0, %1, !dbg !3081
  br i1 %cmp, label %do.body, label %do.end, !dbg !3078, !llvm.loop !3082

do.end:                                           ; preds = %do.cond
  ret void, !dbg !3084
}

; Function Attrs: noinline nounwind uwtable
define linkonce_odr dso_local void @_ZN11xalanc_1_1011XalanVectorIPKNS_9XalanNodeENS_31MemoryManagedConstructionTraitsIS3_EEE8pop_backEv(%"class.xalanc_1_10::XalanVector.0"* %this) #3 comdat align 2 !dbg !3085 {
entry:
  %this.addr = alloca %"class.xalanc_1_10::XalanVector.0"*, align 8
  store %"class.xalanc_1_10::XalanVector.0"* %this, %"class.xalanc_1_10::XalanVector.0"** %this.addr, align 8
  call void @llvm.dbg.declare(metadata %"class.xalanc_1_10::XalanVector.0"** %this.addr, metadata !3086, metadata !DIExpression()), !dbg !3087
  %this1 = load %"class.xalanc_1_10::XalanVector.0"*, %"class.xalanc_1_10::XalanVector.0"** %this.addr, align 8
  call void @_ZNK11xalanc_1_1011XalanVectorIPKNS_9XalanNodeENS_31MemoryManagedConstructionTraitsIS3_EEE10invariantsEv(%"class.xalanc_1_10::XalanVector.0"* %this1), !dbg !3088
  %m_size = getelementptr inbounds %"class.xalanc_1_10::XalanVector.0", %"class.xalanc_1_10::XalanVector.0"* %this1, i32 0, i32 1, !dbg !3089
  %0 = load i64, i64* %m_size, align 8, !dbg !3090
  %dec = add i64 %0, -1, !dbg !3090
  store i64 %dec, i64* %m_size, align 8, !dbg !3090
  %m_data = getelementptr inbounds %"class.xalanc_1_10::XalanVector.0", %"class.xalanc_1_10::XalanVector.0"* %this1, i32 0, i32 3, !dbg !3091
  %1 = load %"class.xalanc_1_10::XalanNode"**, %"class.xalanc_1_10::XalanNode"*** %m_data, align 8, !dbg !3091
  %m_size2 = getelementptr inbounds %"class.xalanc_1_10::XalanVector.0", %"class.xalanc_1_10::XalanVector.0"* %this1, i32 0, i32 1, !dbg !3092
  %2 = load i64, i64* %m_size2, align 8, !dbg !3092
  %arrayidx = getelementptr inbounds %"class.xalanc_1_10::XalanNode"*, %"class.xalanc_1_10::XalanNode"** %1, i64 %2, !dbg !3091
  call void @_ZN11xalanc_1_1011XalanVectorIPKNS_9XalanNodeENS_31MemoryManagedConstructionTraitsIS3_EEE7destroyERS3_(%"class.xalanc_1_10::XalanNode"** dereferenceable(8) %arrayidx), !dbg !3093
  call void @_ZNK11xalanc_1_1011XalanVectorIPKNS_9XalanNodeENS_31MemoryManagedConstructionTraitsIS3_EEE10invariantsEv(%"class.xalanc_1_10::XalanVector.0"* %this1), !dbg !3094
  ret void, !dbg !3095
}

; Function Attrs: noinline uwtable
define linkonce_odr dso_local void @_ZN11xalanc_1_1011XalanVectorIPKNS_9XalanNodeENS_31MemoryManagedConstructionTraitsIS3_EEE10doPushBackERKS3_(%"class.xalanc_1_10::XalanVector.0"* %this, %"class.xalanc_1_10::XalanNode"** dereferenceable(8) %data) #0 comdat align 2 personality i8* bitcast (i32 (...)* @__gxx_personality_v0 to i8*) !dbg !3096 {
entry:
  %this.addr = alloca %"class.xalanc_1_10::XalanVector.0"*, align 8
  %data.addr = alloca %"class.xalanc_1_10::XalanNode"**, align 8
  %theNewSize = alloca i64, align 8
  %theTemp = alloca %"class.xalanc_1_10::XalanVector.0", align 8
  %exn.slot = alloca i8*
  %ehselector.slot = alloca i32
  store %"class.xalanc_1_10::XalanVector.0"* %this, %"class.xalanc_1_10::XalanVector.0"** %this.addr, align 8
  call void @llvm.dbg.declare(metadata %"class.xalanc_1_10::XalanVector.0"** %this.addr, metadata !3097, metadata !DIExpression()), !dbg !3098
  store %"class.xalanc_1_10::XalanNode"** %data, %"class.xalanc_1_10::XalanNode"*** %data.addr, align 8
  call void @llvm.dbg.declare(metadata %"class.xalanc_1_10::XalanNode"*** %data.addr, metadata !3099, metadata !DIExpression()), !dbg !3100
  %this1 = load %"class.xalanc_1_10::XalanVector.0"*, %"class.xalanc_1_10::XalanVector.0"** %this.addr, align 8
  call void @_ZNK11xalanc_1_1011XalanVectorIPKNS_9XalanNodeENS_31MemoryManagedConstructionTraitsIS3_EEE10invariantsEv(%"class.xalanc_1_10::XalanVector.0"* %this1), !dbg !3101
  %m_size = getelementptr inbounds %"class.xalanc_1_10::XalanVector.0", %"class.xalanc_1_10::XalanVector.0"* %this1, i32 0, i32 1, !dbg !3102
  %0 = load i64, i64* %m_size, align 8, !dbg !3102
  %m_allocation = getelementptr inbounds %"class.xalanc_1_10::XalanVector.0", %"class.xalanc_1_10::XalanVector.0"* %this1, i32 0, i32 2, !dbg !3104
  %1 = load i64, i64* %m_allocation, align 8, !dbg !3104
  %cmp = icmp ult i64 %0, %1, !dbg !3105
  br i1 %cmp, label %if.then, label %if.else, !dbg !3106

if.then:                                          ; preds = %entry
  %call = call %"class.xalanc_1_10::XalanNode"** @_ZN11xalanc_1_1011XalanVectorIPKNS_9XalanNodeENS_31MemoryManagedConstructionTraitsIS3_EEE10endPointerEv(%"class.xalanc_1_10::XalanVector.0"* %this1), !dbg !3107
  %2 = load %"class.xalanc_1_10::XalanNode"**, %"class.xalanc_1_10::XalanNode"*** %data.addr, align 8, !dbg !3109
  %m_memoryManager = getelementptr inbounds %"class.xalanc_1_10::XalanVector.0", %"class.xalanc_1_10::XalanVector.0"* %this1, i32 0, i32 0, !dbg !3110
  %3 = load %"class.xercesc_2_7::MemoryManager"*, %"class.xercesc_2_7::MemoryManager"** %m_memoryManager, align 8, !dbg !3110
  %call2 = call %"class.xalanc_1_10::XalanNode"** @_ZN11xalanc_1_1028ConstructWithNoMemoryManagerIPKNS_9XalanNodeEE9constructEPS3_RKS3_RN11xercesc_2_713MemoryManagerE(%"class.xalanc_1_10::XalanNode"** %call, %"class.xalanc_1_10::XalanNode"** dereferenceable(8) %2, %"class.xercesc_2_7::MemoryManager"* dereferenceable(8) %3), !dbg !3111
  %m_size3 = getelementptr inbounds %"class.xalanc_1_10::XalanVector.0", %"class.xalanc_1_10::XalanVector.0"* %this1, i32 0, i32 1, !dbg !3112
  %4 = load i64, i64* %m_size3, align 8, !dbg !3113
  %inc = add i64 %4, 1, !dbg !3113
  store i64 %inc, i64* %m_size3, align 8, !dbg !3113
  br label %if.end, !dbg !3114

if.else:                                          ; preds = %entry
  call void @llvm.dbg.declare(metadata i64* %theNewSize, metadata !3115, metadata !DIExpression()), !dbg !3117
  %m_size4 = getelementptr inbounds %"class.xalanc_1_10::XalanVector.0", %"class.xalanc_1_10::XalanVector.0"* %this1, i32 0, i32 1, !dbg !3118
  %5 = load i64, i64* %m_size4, align 8, !dbg !3118
  %cmp5 = icmp eq i64 %5, 0, !dbg !3119
  br i1 %cmp5, label %cond.true, label %cond.false, !dbg !3118

cond.true:                                        ; preds = %if.else
  br label %cond.end, !dbg !3118

cond.false:                                       ; preds = %if.else
  %m_size6 = getelementptr inbounds %"class.xalanc_1_10::XalanVector.0", %"class.xalanc_1_10::XalanVector.0"* %this1, i32 0, i32 1, !dbg !3120
  %6 = load i64, i64* %m_size6, align 8, !dbg !3120
  %conv = uitofp i64 %6 to double, !dbg !3120
  %mul = fmul double %conv, 1.600000e+00, !dbg !3121
  %add = fadd double %mul, 5.000000e-01, !dbg !3122
  %conv7 = fptoui double %add to i64, !dbg !3123
  br label %cond.end, !dbg !3118

cond.end:                                         ; preds = %cond.false, %cond.true
  %cond = phi i64 [ 1, %cond.true ], [ %conv7, %cond.false ], !dbg !3118
  store i64 %cond, i64* %theNewSize, align 8, !dbg !3117
  call void @llvm.dbg.declare(metadata %"class.xalanc_1_10::XalanVector.0"* %theTemp, metadata !3124, metadata !DIExpression()), !dbg !3125
  %m_memoryManager8 = getelementptr inbounds %"class.xalanc_1_10::XalanVector.0", %"class.xalanc_1_10::XalanVector.0"* %this1, i32 0, i32 0, !dbg !3126
  %7 = load %"class.xercesc_2_7::MemoryManager"*, %"class.xercesc_2_7::MemoryManager"** %m_memoryManager8, align 8, !dbg !3126
  %8 = load i64, i64* %theNewSize, align 8, !dbg !3127
  call void @_ZN11xalanc_1_1011XalanVectorIPKNS_9XalanNodeENS_31MemoryManagedConstructionTraitsIS3_EEEC2ERKS6_RN11xercesc_2_713MemoryManagerEm(%"class.xalanc_1_10::XalanVector.0"* %theTemp, %"class.xalanc_1_10::XalanVector.0"* dereferenceable(32) %this1, %"class.xercesc_2_7::MemoryManager"* dereferenceable(8) %7, i64 %8), !dbg !3125
  %9 = load %"class.xalanc_1_10::XalanNode"**, %"class.xalanc_1_10::XalanNode"*** %data.addr, align 8, !dbg !3128
  invoke void @_ZN11xalanc_1_1011XalanVectorIPKNS_9XalanNodeENS_31MemoryManagedConstructionTraitsIS3_EEE10doPushBackERKS3_(%"class.xalanc_1_10::XalanVector.0"* %theTemp, %"class.xalanc_1_10::XalanNode"** dereferenceable(8) %9)
          to label %invoke.cont unwind label %lpad, !dbg !3129

invoke.cont:                                      ; preds = %cond.end
  invoke void @_ZN11xalanc_1_1011XalanVectorIPKNS_9XalanNodeENS_31MemoryManagedConstructionTraitsIS3_EEE4swapERS6_(%"class.xalanc_1_10::XalanVector.0"* %this1, %"class.xalanc_1_10::XalanVector.0"* dereferenceable(32) %theTemp)
          to label %invoke.cont9 unwind label %lpad, !dbg !3130

invoke.cont9:                                     ; preds = %invoke.cont
  call void @_ZN11xalanc_1_1011XalanVectorIPKNS_9XalanNodeENS_31MemoryManagedConstructionTraitsIS3_EEED2Ev(%"class.xalanc_1_10::XalanVector.0"* %theTemp) #8, !dbg !3131
  br label %if.end

lpad:                                             ; preds = %invoke.cont, %cond.end
  %10 = landingpad { i8*, i32 }
          cleanup, !dbg !3132
  %11 = extractvalue { i8*, i32 } %10, 0, !dbg !3132
  store i8* %11, i8** %exn.slot, align 8, !dbg !3132
  %12 = extractvalue { i8*, i32 } %10, 1, !dbg !3132
  store i32 %12, i32* %ehselector.slot, align 4, !dbg !3132
  call void @_ZN11xalanc_1_1011XalanVectorIPKNS_9XalanNodeENS_31MemoryManagedConstructionTraitsIS3_EEED2Ev(%"class.xalanc_1_10::XalanVector.0"* %theTemp) #8, !dbg !3131
  br label %eh.resume, !dbg !3131

if.end:                                           ; preds = %invoke.cont9, %if.then
  call void @_ZNK11xalanc_1_1011XalanVectorIPKNS_9XalanNodeENS_31MemoryManagedConstructionTraitsIS3_EEE10invariantsEv(%"class.xalanc_1_10::XalanVector.0"* %this1), !dbg !3133
  ret void, !dbg !3134

eh.resume:                                        ; preds = %lpad
  %exn = load i8*, i8** %exn.slot, align 8, !dbg !3131
  %sel = load i32, i32* %ehselector.slot, align 4, !dbg !3131
  %lpad.val = insertvalue { i8*, i32 } undef, i8* %exn, 0, !dbg !3131
  %lpad.val10 = insertvalue { i8*, i32 } %lpad.val, i32 %sel, 1, !dbg !3131
  resume { i8*, i32 } %lpad.val10, !dbg !3131
}

; Function Attrs: noinline nounwind uwtable
define linkonce_odr dso_local %"class.xalanc_1_10::XalanNode"** @_ZN11xalanc_1_1028ConstructWithNoMemoryManagerIPKNS_9XalanNodeEE9constructEPS3_RKS3_RN11xercesc_2_713MemoryManagerE(%"class.xalanc_1_10::XalanNode"** %address, %"class.xalanc_1_10::XalanNode"** dereferenceable(8) %theRhs, %"class.xercesc_2_7::MemoryManager"* dereferenceable(8) %0) #3 comdat align 2 !dbg !3135 {
entry:
  %address.addr = alloca %"class.xalanc_1_10::XalanNode"**, align 8
  %theRhs.addr = alloca %"class.xalanc_1_10::XalanNode"**, align 8
  %.addr = alloca %"class.xercesc_2_7::MemoryManager"*, align 8
  store %"class.xalanc_1_10::XalanNode"** %address, %"class.xalanc_1_10::XalanNode"*** %address.addr, align 8
  call void @llvm.dbg.declare(metadata %"class.xalanc_1_10::XalanNode"*** %address.addr, metadata !3146, metadata !DIExpression()), !dbg !3147
  store %"class.xalanc_1_10::XalanNode"** %theRhs, %"class.xalanc_1_10::XalanNode"*** %theRhs.addr, align 8
  call void @llvm.dbg.declare(metadata %"class.xalanc_1_10::XalanNode"*** %theRhs.addr, metadata !3148, metadata !DIExpression()), !dbg !3149
  store %"class.xercesc_2_7::MemoryManager"* %0, %"class.xercesc_2_7::MemoryManager"** %.addr, align 8
  call void @llvm.dbg.declare(metadata %"class.xercesc_2_7::MemoryManager"** %.addr, metadata !3150, metadata !DIExpression()), !dbg !3151
  %1 = load %"class.xalanc_1_10::XalanNode"**, %"class.xalanc_1_10::XalanNode"*** %address.addr, align 8, !dbg !3152
  %2 = bitcast %"class.xalanc_1_10::XalanNode"** %1 to i8*, !dbg !3153
  %3 = bitcast i8* %2 to %"class.xalanc_1_10::XalanNode"**, !dbg !3153
  %4 = load %"class.xalanc_1_10::XalanNode"**, %"class.xalanc_1_10::XalanNode"*** %theRhs.addr, align 8, !dbg !3154
  %5 = load %"class.xalanc_1_10::XalanNode"*, %"class.xalanc_1_10::XalanNode"** %4, align 8, !dbg !3154
  store %"class.xalanc_1_10::XalanNode"* %5, %"class.xalanc_1_10::XalanNode"** %3, align 8, !dbg !3153
  ret %"class.xalanc_1_10::XalanNode"** %3, !dbg !3155
}

; Function Attrs: noinline uwtable
define linkonce_odr dso_local void @_ZN11xalanc_1_1011XalanVectorIPKNS_9XalanNodeENS_31MemoryManagedConstructionTraitsIS3_EEEC2ERKS6_RN11xercesc_2_713MemoryManagerEm(%"class.xalanc_1_10::XalanVector.0"* %this, %"class.xalanc_1_10::XalanVector.0"* dereferenceable(32) %theSource, %"class.xercesc_2_7::MemoryManager"* dereferenceable(8) %theManager, i64 %theInitialAllocation) unnamed_addr #0 comdat align 2 personality i8* bitcast (i32 (...)* @__gxx_personality_v0 to i8*) !dbg !3156 {
entry:
  %this.addr = alloca %"class.xalanc_1_10::XalanVector.0"*, align 8
  %theSource.addr = alloca %"class.xalanc_1_10::XalanVector.0"*, align 8
  %theManager.addr = alloca %"class.xercesc_2_7::MemoryManager"*, align 8
  %theInitialAllocation.addr = alloca i64, align 8
  %theTemp = alloca %"class.xalanc_1_10::XalanVector.0", align 8
  %exn.slot = alloca i8*
  %ehselector.slot = alloca i32
  store %"class.xalanc_1_10::XalanVector.0"* %this, %"class.xalanc_1_10::XalanVector.0"** %this.addr, align 8
  call void @llvm.dbg.declare(metadata %"class.xalanc_1_10::XalanVector.0"** %this.addr, metadata !3157, metadata !DIExpression()), !dbg !3158
  store %"class.xalanc_1_10::XalanVector.0"* %theSource, %"class.xalanc_1_10::XalanVector.0"** %theSource.addr, align 8
  call void @llvm.dbg.declare(metadata %"class.xalanc_1_10::XalanVector.0"** %theSource.addr, metadata !3159, metadata !DIExpression()), !dbg !3160
  store %"class.xercesc_2_7::MemoryManager"* %theManager, %"class.xercesc_2_7::MemoryManager"** %theManager.addr, align 8
  call void @llvm.dbg.declare(metadata %"class.xercesc_2_7::MemoryManager"** %theManager.addr, metadata !3161, metadata !DIExpression()), !dbg !3162
  store i64 %theInitialAllocation, i64* %theInitialAllocation.addr, align 8
  call void @llvm.dbg.declare(metadata i64* %theInitialAllocation.addr, metadata !3163, metadata !DIExpression()), !dbg !3164
  %this1 = load %"class.xalanc_1_10::XalanVector.0"*, %"class.xalanc_1_10::XalanVector.0"** %this.addr, align 8
  %m_memoryManager = getelementptr inbounds %"class.xalanc_1_10::XalanVector.0", %"class.xalanc_1_10::XalanVector.0"* %this1, i32 0, i32 0, !dbg !3165
  %0 = load %"class.xercesc_2_7::MemoryManager"*, %"class.xercesc_2_7::MemoryManager"** %theManager.addr, align 8, !dbg !3166
  store %"class.xercesc_2_7::MemoryManager"* %0, %"class.xercesc_2_7::MemoryManager"** %m_memoryManager, align 8, !dbg !3165
  %m_size = getelementptr inbounds %"class.xalanc_1_10::XalanVector.0", %"class.xalanc_1_10::XalanVector.0"* %this1, i32 0, i32 1, !dbg !3167
  store i64 0, i64* %m_size, align 8, !dbg !3167
  %m_allocation = getelementptr inbounds %"class.xalanc_1_10::XalanVector.0", %"class.xalanc_1_10::XalanVector.0"* %this1, i32 0, i32 2, !dbg !3168
  store i64 0, i64* %m_allocation, align 8, !dbg !3168
  %m_data = getelementptr inbounds %"class.xalanc_1_10::XalanVector.0", %"class.xalanc_1_10::XalanVector.0"* %this1, i32 0, i32 3, !dbg !3169
  store %"class.xalanc_1_10::XalanNode"** null, %"class.xalanc_1_10::XalanNode"*** %m_data, align 8, !dbg !3169
  %1 = load %"class.xalanc_1_10::XalanVector.0"*, %"class.xalanc_1_10::XalanVector.0"** %theSource.addr, align 8, !dbg !3170
  %m_size2 = getelementptr inbounds %"class.xalanc_1_10::XalanVector.0", %"class.xalanc_1_10::XalanVector.0"* %1, i32 0, i32 1, !dbg !3173
  %2 = load i64, i64* %m_size2, align 8, !dbg !3173
  %cmp = icmp ugt i64 %2, 0, !dbg !3174
  br i1 %cmp, label %if.then, label %if.else, !dbg !3175

if.then:                                          ; preds = %entry
  call void @llvm.dbg.declare(metadata %"class.xalanc_1_10::XalanVector.0"* %theTemp, metadata !3176, metadata !DIExpression()), !dbg !3178
  %3 = load %"class.xercesc_2_7::MemoryManager"*, %"class.xercesc_2_7::MemoryManager"** %theManager.addr, align 8, !dbg !3179
  %4 = load %"class.xalanc_1_10::XalanVector.0"*, %"class.xalanc_1_10::XalanVector.0"** %theSource.addr, align 8, !dbg !3180
  %m_size3 = getelementptr inbounds %"class.xalanc_1_10::XalanVector.0", %"class.xalanc_1_10::XalanVector.0"* %4, i32 0, i32 1, !dbg !3181
  %5 = load i64, i64* %m_size3, align 8, !dbg !3181
  %6 = load i64, i64* %theInitialAllocation.addr, align 8, !dbg !3182
  %call = call i64 @_ZN11xalanc_1_1011XalanVectorIPKNS_9XalanNodeENS_31MemoryManagedConstructionTraitsIS3_EEE9local_maxEmm(%"class.xalanc_1_10::XalanVector.0"* %this1, i64 %5, i64 %6), !dbg !3183
  call void @_ZN11xalanc_1_1011XalanVectorIPKNS_9XalanNodeENS_31MemoryManagedConstructionTraitsIS3_EEEC2ERN11xercesc_2_713MemoryManagerEm(%"class.xalanc_1_10::XalanVector.0"* %theTemp, %"class.xercesc_2_7::MemoryManager"* dereferenceable(8) %3, i64 %call), !dbg !3178
  %call4 = invoke %"class.xalanc_1_10::XalanNode"** @_ZN11xalanc_1_1011XalanVectorIPKNS_9XalanNodeENS_31MemoryManagedConstructionTraitsIS3_EEE5beginEv(%"class.xalanc_1_10::XalanVector.0"* %theTemp)
          to label %invoke.cont unwind label %lpad, !dbg !3184

invoke.cont:                                      ; preds = %if.then
  %7 = load %"class.xalanc_1_10::XalanVector.0"*, %"class.xalanc_1_10::XalanVector.0"** %theSource.addr, align 8, !dbg !3185
  %call6 = invoke %"class.xalanc_1_10::XalanNode"** @_ZNK11xalanc_1_1011XalanVectorIPKNS_9XalanNodeENS_31MemoryManagedConstructionTraitsIS3_EEE5beginEv(%"class.xalanc_1_10::XalanVector.0"* %7)
          to label %invoke.cont5 unwind label %lpad, !dbg !3186

invoke.cont5:                                     ; preds = %invoke.cont
  %8 = load %"class.xalanc_1_10::XalanVector.0"*, %"class.xalanc_1_10::XalanVector.0"** %theSource.addr, align 8, !dbg !3187
  %call8 = invoke %"class.xalanc_1_10::XalanNode"** @_ZNK11xalanc_1_1011XalanVectorIPKNS_9XalanNodeENS_31MemoryManagedConstructionTraitsIS3_EEE3endEv(%"class.xalanc_1_10::XalanVector.0"* %8)
          to label %invoke.cont7 unwind label %lpad, !dbg !3188

invoke.cont7:                                     ; preds = %invoke.cont5
  invoke void @_ZN11xalanc_1_1011XalanVectorIPKNS_9XalanNodeENS_31MemoryManagedConstructionTraitsIS3_EEE6insertEPS3_PKS3_S9_(%"class.xalanc_1_10::XalanVector.0"* %theTemp, %"class.xalanc_1_10::XalanNode"** %call4, %"class.xalanc_1_10::XalanNode"** %call6, %"class.xalanc_1_10::XalanNode"** %call8)
          to label %invoke.cont9 unwind label %lpad, !dbg !3189

invoke.cont9:                                     ; preds = %invoke.cont7
  invoke void @_ZN11xalanc_1_1011XalanVectorIPKNS_9XalanNodeENS_31MemoryManagedConstructionTraitsIS3_EEE4swapERS6_(%"class.xalanc_1_10::XalanVector.0"* %this1, %"class.xalanc_1_10::XalanVector.0"* dereferenceable(32) %theTemp)
          to label %invoke.cont10 unwind label %lpad, !dbg !3190

invoke.cont10:                                    ; preds = %invoke.cont9
  call void @_ZN11xalanc_1_1011XalanVectorIPKNS_9XalanNodeENS_31MemoryManagedConstructionTraitsIS3_EEED2Ev(%"class.xalanc_1_10::XalanVector.0"* %theTemp) #8, !dbg !3191
  br label %if.end16, !dbg !3192

lpad:                                             ; preds = %invoke.cont9, %invoke.cont7, %invoke.cont5, %invoke.cont, %if.then
  %9 = landingpad { i8*, i32 }
          cleanup, !dbg !3193
  %10 = extractvalue { i8*, i32 } %9, 0, !dbg !3193
  store i8* %10, i8** %exn.slot, align 8, !dbg !3193
  %11 = extractvalue { i8*, i32 } %9, 1, !dbg !3193
  store i32 %11, i32* %ehselector.slot, align 4, !dbg !3193
  call void @_ZN11xalanc_1_1011XalanVectorIPKNS_9XalanNodeENS_31MemoryManagedConstructionTraitsIS3_EEED2Ev(%"class.xalanc_1_10::XalanVector.0"* %theTemp) #8, !dbg !3191
  br label %eh.resume, !dbg !3191

if.else:                                          ; preds = %entry
  %12 = load i64, i64* %theInitialAllocation.addr, align 8, !dbg !3194
  %cmp11 = icmp ugt i64 %12, 0, !dbg !3196
  br i1 %cmp11, label %if.then12, label %if.end, !dbg !3197

if.then12:                                        ; preds = %if.else
  %13 = load i64, i64* %theInitialAllocation.addr, align 8, !dbg !3198
  %call13 = call %"class.xalanc_1_10::XalanNode"** @_ZN11xalanc_1_1011XalanVectorIPKNS_9XalanNodeENS_31MemoryManagedConstructionTraitsIS3_EEE8allocateEm(%"class.xalanc_1_10::XalanVector.0"* %this1, i64 %13), !dbg !3200
  %m_data14 = getelementptr inbounds %"class.xalanc_1_10::XalanVector.0", %"class.xalanc_1_10::XalanVector.0"* %this1, i32 0, i32 3, !dbg !3201
  store %"class.xalanc_1_10::XalanNode"** %call13, %"class.xalanc_1_10::XalanNode"*** %m_data14, align 8, !dbg !3202
  %14 = load i64, i64* %theInitialAllocation.addr, align 8, !dbg !3203
  %m_allocation15 = getelementptr inbounds %"class.xalanc_1_10::XalanVector.0", %"class.xalanc_1_10::XalanVector.0"* %this1, i32 0, i32 2, !dbg !3204
  store i64 %14, i64* %m_allocation15, align 8, !dbg !3205
  br label %if.end, !dbg !3206

if.end:                                           ; preds = %if.then12, %if.else
  br label %if.end16

if.end16:                                         ; preds = %if.end, %invoke.cont10
  call void @_ZNK11xalanc_1_1011XalanVectorIPKNS_9XalanNodeENS_31MemoryManagedConstructionTraitsIS3_EEE10invariantsEv(%"class.xalanc_1_10::XalanVector.0"* %this1), !dbg !3207
  ret void, !dbg !3208

eh.resume:                                        ; preds = %lpad
  %exn = load i8*, i8** %exn.slot, align 8, !dbg !3191
  %sel = load i32, i32* %ehselector.slot, align 4, !dbg !3191
  %lpad.val = insertvalue { i8*, i32 } undef, i8* %exn, 0, !dbg !3191
  %lpad.val17 = insertvalue { i8*, i32 } %lpad.val, i32 %sel, 1, !dbg !3191
  resume { i8*, i32 } %lpad.val17, !dbg !3191
}

; Function Attrs: noinline nounwind uwtable
define linkonce_odr dso_local void @_ZN11xalanc_1_1011XalanVectorIPKNS_9XalanNodeENS_31MemoryManagedConstructionTraitsIS3_EEE4swapERS6_(%"class.xalanc_1_10::XalanVector.0"* %this, %"class.xalanc_1_10::XalanVector.0"* dereferenceable(32) %theOther) #3 comdat align 2 !dbg !3209 {
entry:
  %this.addr = alloca %"class.xalanc_1_10::XalanVector.0"*, align 8
  %theOther.addr = alloca %"class.xalanc_1_10::XalanVector.0"*, align 8
  %theTempManager = alloca %"class.xercesc_2_7::MemoryManager"*, align 8
  %theTempLength = alloca i64, align 8
  %theTempAllocation = alloca i64, align 8
  %theTempData = alloca %"class.xalanc_1_10::XalanNode"**, align 8
  store %"class.xalanc_1_10::XalanVector.0"* %this, %"class.xalanc_1_10::XalanVector.0"** %this.addr, align 8
  call void @llvm.dbg.declare(metadata %"class.xalanc_1_10::XalanVector.0"** %this.addr, metadata !3210, metadata !DIExpression()), !dbg !3211
  store %"class.xalanc_1_10::XalanVector.0"* %theOther, %"class.xalanc_1_10::XalanVector.0"** %theOther.addr, align 8
  call void @llvm.dbg.declare(metadata %"class.xalanc_1_10::XalanVector.0"** %theOther.addr, metadata !3212, metadata !DIExpression()), !dbg !3213
  %this1 = load %"class.xalanc_1_10::XalanVector.0"*, %"class.xalanc_1_10::XalanVector.0"** %this.addr, align 8
  call void @_ZNK11xalanc_1_1011XalanVectorIPKNS_9XalanNodeENS_31MemoryManagedConstructionTraitsIS3_EEE10invariantsEv(%"class.xalanc_1_10::XalanVector.0"* %this1), !dbg !3214
  call void @llvm.dbg.declare(metadata %"class.xercesc_2_7::MemoryManager"** %theTempManager, metadata !3215, metadata !DIExpression()), !dbg !3216
  %m_memoryManager = getelementptr inbounds %"class.xalanc_1_10::XalanVector.0", %"class.xalanc_1_10::XalanVector.0"* %this1, i32 0, i32 0, !dbg !3217
  %0 = load %"class.xercesc_2_7::MemoryManager"*, %"class.xercesc_2_7::MemoryManager"** %m_memoryManager, align 8, !dbg !3217
  store %"class.xercesc_2_7::MemoryManager"* %0, %"class.xercesc_2_7::MemoryManager"** %theTempManager, align 8, !dbg !3216
  call void @llvm.dbg.declare(metadata i64* %theTempLength, metadata !3218, metadata !DIExpression()), !dbg !3219
  %m_size = getelementptr inbounds %"class.xalanc_1_10::XalanVector.0", %"class.xalanc_1_10::XalanVector.0"* %this1, i32 0, i32 1, !dbg !3220
  %1 = load i64, i64* %m_size, align 8, !dbg !3220
  store i64 %1, i64* %theTempLength, align 8, !dbg !3219
  call void @llvm.dbg.declare(metadata i64* %theTempAllocation, metadata !3221, metadata !DIExpression()), !dbg !3222
  %m_allocation = getelementptr inbounds %"class.xalanc_1_10::XalanVector.0", %"class.xalanc_1_10::XalanVector.0"* %this1, i32 0, i32 2, !dbg !3223
  %2 = load i64, i64* %m_allocation, align 8, !dbg !3223
  store i64 %2, i64* %theTempAllocation, align 8, !dbg !3222
  call void @llvm.dbg.declare(metadata %"class.xalanc_1_10::XalanNode"*** %theTempData, metadata !3224, metadata !DIExpression()), !dbg !3226
  %m_data = getelementptr inbounds %"class.xalanc_1_10::XalanVector.0", %"class.xalanc_1_10::XalanVector.0"* %this1, i32 0, i32 3, !dbg !3227
  %3 = load %"class.xalanc_1_10::XalanNode"**, %"class.xalanc_1_10::XalanNode"*** %m_data, align 8, !dbg !3227
  store %"class.xalanc_1_10::XalanNode"** %3, %"class.xalanc_1_10::XalanNode"*** %theTempData, align 8, !dbg !3226
  %4 = load %"class.xalanc_1_10::XalanVector.0"*, %"class.xalanc_1_10::XalanVector.0"** %theOther.addr, align 8, !dbg !3228
  %m_memoryManager2 = getelementptr inbounds %"class.xalanc_1_10::XalanVector.0", %"class.xalanc_1_10::XalanVector.0"* %4, i32 0, i32 0, !dbg !3229
  %5 = load %"class.xercesc_2_7::MemoryManager"*, %"class.xercesc_2_7::MemoryManager"** %m_memoryManager2, align 8, !dbg !3229
  %m_memoryManager3 = getelementptr inbounds %"class.xalanc_1_10::XalanVector.0", %"class.xalanc_1_10::XalanVector.0"* %this1, i32 0, i32 0, !dbg !3230
  store %"class.xercesc_2_7::MemoryManager"* %5, %"class.xercesc_2_7::MemoryManager"** %m_memoryManager3, align 8, !dbg !3231
  %6 = load %"class.xalanc_1_10::XalanVector.0"*, %"class.xalanc_1_10::XalanVector.0"** %theOther.addr, align 8, !dbg !3232
  %m_size4 = getelementptr inbounds %"class.xalanc_1_10::XalanVector.0", %"class.xalanc_1_10::XalanVector.0"* %6, i32 0, i32 1, !dbg !3233
  %7 = load i64, i64* %m_size4, align 8, !dbg !3233
  %m_size5 = getelementptr inbounds %"class.xalanc_1_10::XalanVector.0", %"class.xalanc_1_10::XalanVector.0"* %this1, i32 0, i32 1, !dbg !3234
  store i64 %7, i64* %m_size5, align 8, !dbg !3235
  %8 = load %"class.xalanc_1_10::XalanVector.0"*, %"class.xalanc_1_10::XalanVector.0"** %theOther.addr, align 8, !dbg !3236
  %m_allocation6 = getelementptr inbounds %"class.xalanc_1_10::XalanVector.0", %"class.xalanc_1_10::XalanVector.0"* %8, i32 0, i32 2, !dbg !3237
  %9 = load i64, i64* %m_allocation6, align 8, !dbg !3237
  %m_allocation7 = getelementptr inbounds %"class.xalanc_1_10::XalanVector.0", %"class.xalanc_1_10::XalanVector.0"* %this1, i32 0, i32 2, !dbg !3238
  store i64 %9, i64* %m_allocation7, align 8, !dbg !3239
  %10 = load %"class.xalanc_1_10::XalanVector.0"*, %"class.xalanc_1_10::XalanVector.0"** %theOther.addr, align 8, !dbg !3240
  %m_data8 = getelementptr inbounds %"class.xalanc_1_10::XalanVector.0", %"class.xalanc_1_10::XalanVector.0"* %10, i32 0, i32 3, !dbg !3241
  %11 = load %"class.xalanc_1_10::XalanNode"**, %"class.xalanc_1_10::XalanNode"*** %m_data8, align 8, !dbg !3241
  %m_data9 = getelementptr inbounds %"class.xalanc_1_10::XalanVector.0", %"class.xalanc_1_10::XalanVector.0"* %this1, i32 0, i32 3, !dbg !3242
  store %"class.xalanc_1_10::XalanNode"** %11, %"class.xalanc_1_10::XalanNode"*** %m_data9, align 8, !dbg !3243
  %12 = load %"class.xercesc_2_7::MemoryManager"*, %"class.xercesc_2_7::MemoryManager"** %theTempManager, align 8, !dbg !3244
  %13 = load %"class.xalanc_1_10::XalanVector.0"*, %"class.xalanc_1_10::XalanVector.0"** %theOther.addr, align 8, !dbg !3245
  %m_memoryManager10 = getelementptr inbounds %"class.xalanc_1_10::XalanVector.0", %"class.xalanc_1_10::XalanVector.0"* %13, i32 0, i32 0, !dbg !3246
  store %"class.xercesc_2_7::MemoryManager"* %12, %"class.xercesc_2_7::MemoryManager"** %m_memoryManager10, align 8, !dbg !3247
  %14 = load i64, i64* %theTempLength, align 8, !dbg !3248
  %15 = load %"class.xalanc_1_10::XalanVector.0"*, %"class.xalanc_1_10::XalanVector.0"** %theOther.addr, align 8, !dbg !3249
  %m_size11 = getelementptr inbounds %"class.xalanc_1_10::XalanVector.0", %"class.xalanc_1_10::XalanVector.0"* %15, i32 0, i32 1, !dbg !3250
  store i64 %14, i64* %m_size11, align 8, !dbg !3251
  %16 = load i64, i64* %theTempAllocation, align 8, !dbg !3252
  %17 = load %"class.xalanc_1_10::XalanVector.0"*, %"class.xalanc_1_10::XalanVector.0"** %theOther.addr, align 8, !dbg !3253
  %m_allocation12 = getelementptr inbounds %"class.xalanc_1_10::XalanVector.0", %"class.xalanc_1_10::XalanVector.0"* %17, i32 0, i32 2, !dbg !3254
  store i64 %16, i64* %m_allocation12, align 8, !dbg !3255
  %18 = load %"class.xalanc_1_10::XalanNode"**, %"class.xalanc_1_10::XalanNode"*** %theTempData, align 8, !dbg !3256
  %19 = load %"class.xalanc_1_10::XalanVector.0"*, %"class.xalanc_1_10::XalanVector.0"** %theOther.addr, align 8, !dbg !3257
  %m_data13 = getelementptr inbounds %"class.xalanc_1_10::XalanVector.0", %"class.xalanc_1_10::XalanVector.0"* %19, i32 0, i32 3, !dbg !3258
  store %"class.xalanc_1_10::XalanNode"** %18, %"class.xalanc_1_10::XalanNode"*** %m_data13, align 8, !dbg !3259
  call void @_ZNK11xalanc_1_1011XalanVectorIPKNS_9XalanNodeENS_31MemoryManagedConstructionTraitsIS3_EEE10invariantsEv(%"class.xalanc_1_10::XalanVector.0"* %this1), !dbg !3260
  ret void, !dbg !3261
}

; Function Attrs: noinline nounwind uwtable
define linkonce_odr dso_local i64 @_ZN11xalanc_1_1011XalanVectorIPKNS_9XalanNodeENS_31MemoryManagedConstructionTraitsIS3_EEE9local_maxEmm(%"class.xalanc_1_10::XalanVector.0"* %this, i64 %theLHS, i64 %theRHS) #3 comdat align 2 !dbg !3262 {
entry:
  %this.addr = alloca %"class.xalanc_1_10::XalanVector.0"*, align 8
  %theLHS.addr = alloca i64, align 8
  %theRHS.addr = alloca i64, align 8
  store %"class.xalanc_1_10::XalanVector.0"* %this, %"class.xalanc_1_10::XalanVector.0"** %this.addr, align 8
  call void @llvm.dbg.declare(metadata %"class.xalanc_1_10::XalanVector.0"** %this.addr, metadata !3263, metadata !DIExpression()), !dbg !3264
  store i64 %theLHS, i64* %theLHS.addr, align 8
  call void @llvm.dbg.declare(metadata i64* %theLHS.addr, metadata !3265, metadata !DIExpression()), !dbg !3266
  store i64 %theRHS, i64* %theRHS.addr, align 8
  call void @llvm.dbg.declare(metadata i64* %theRHS.addr, metadata !3267, metadata !DIExpression()), !dbg !3268
  %this1 = load %"class.xalanc_1_10::XalanVector.0"*, %"class.xalanc_1_10::XalanVector.0"** %this.addr, align 8
  %0 = load i64, i64* %theLHS.addr, align 8, !dbg !3269
  %1 = load i64, i64* %theRHS.addr, align 8, !dbg !3270
  %cmp = icmp ugt i64 %0, %1, !dbg !3271
  br i1 %cmp, label %cond.true, label %cond.false, !dbg !3269

cond.true:                                        ; preds = %entry
  %2 = load i64, i64* %theLHS.addr, align 8, !dbg !3272
  br label %cond.end, !dbg !3269

cond.false:                                       ; preds = %entry
  %3 = load i64, i64* %theRHS.addr, align 8, !dbg !3273
  br label %cond.end, !dbg !3269

cond.end:                                         ; preds = %cond.false, %cond.true
  %cond = phi i64 [ %2, %cond.true ], [ %3, %cond.false ], !dbg !3269
  ret i64 %cond, !dbg !3274
}

; Function Attrs: noinline uwtable
define linkonce_odr dso_local void @_ZN11xalanc_1_1011XalanVectorIPKNS_9XalanNodeENS_31MemoryManagedConstructionTraitsIS3_EEE6insertEPS3_PKS3_S9_(%"class.xalanc_1_10::XalanVector.0"* %this, %"class.xalanc_1_10::XalanNode"** %thePosition, %"class.xalanc_1_10::XalanNode"** %theFirst, %"class.xalanc_1_10::XalanNode"** %theLast) #0 comdat align 2 personality i8* bitcast (i32 (...)* @__gxx_personality_v0 to i8*) !dbg !3275 {
entry:
  %this.addr = alloca %"class.xalanc_1_10::XalanVector.0"*, align 8
  %thePosition.addr = alloca %"class.xalanc_1_10::XalanNode"**, align 8
  %theFirst.addr = alloca %"class.xalanc_1_10::XalanNode"**, align 8
  %theLast.addr = alloca %"class.xalanc_1_10::XalanNode"**, align 8
  %theInsertSize = alloca i64, align 8
  %theTotalSize = alloca i64, align 8
  %thePointer = alloca %"class.xalanc_1_10::XalanNode"**, align 8
  %theTemp = alloca %"class.xalanc_1_10::XalanVector.0", align 8
  %exn.slot = alloca i8*
  %ehselector.slot = alloca i32
  %theOriginalEnd = alloca %"class.xalanc_1_10::XalanNode"**, align 8
  %theRightSplitSize = alloca i64, align 8
  %toInsertSplit = alloca %"class.xalanc_1_10::XalanNode"**, align 8
  %toInsertIter = alloca %"class.xalanc_1_10::XalanNode"**, align 8
  %toMoveIter = alloca %"class.xalanc_1_10::XalanNode"**, align 8
  store %"class.xalanc_1_10::XalanVector.0"* %this, %"class.xalanc_1_10::XalanVector.0"** %this.addr, align 8
  call void @llvm.dbg.declare(metadata %"class.xalanc_1_10::XalanVector.0"** %this.addr, metadata !3276, metadata !DIExpression()), !dbg !3277
  store %"class.xalanc_1_10::XalanNode"** %thePosition, %"class.xalanc_1_10::XalanNode"*** %thePosition.addr, align 8
  call void @llvm.dbg.declare(metadata %"class.xalanc_1_10::XalanNode"*** %thePosition.addr, metadata !3278, metadata !DIExpression()), !dbg !3279
  store %"class.xalanc_1_10::XalanNode"** %theFirst, %"class.xalanc_1_10::XalanNode"*** %theFirst.addr, align 8
  call void @llvm.dbg.declare(metadata %"class.xalanc_1_10::XalanNode"*** %theFirst.addr, metadata !3280, metadata !DIExpression()), !dbg !3281
  store %"class.xalanc_1_10::XalanNode"** %theLast, %"class.xalanc_1_10::XalanNode"*** %theLast.addr, align 8
  call void @llvm.dbg.declare(metadata %"class.xalanc_1_10::XalanNode"*** %theLast.addr, metadata !3282, metadata !DIExpression()), !dbg !3283
  %this1 = load %"class.xalanc_1_10::XalanVector.0"*, %"class.xalanc_1_10::XalanVector.0"** %this.addr, align 8
  call void @_ZNK11xalanc_1_1011XalanVectorIPKNS_9XalanNodeENS_31MemoryManagedConstructionTraitsIS3_EEE10invariantsEv(%"class.xalanc_1_10::XalanVector.0"* %this1), !dbg !3284
  call void @llvm.dbg.declare(metadata i64* %theInsertSize, metadata !3285, metadata !DIExpression()), !dbg !3286
  %0 = load %"class.xalanc_1_10::XalanNode"**, %"class.xalanc_1_10::XalanNode"*** %theFirst.addr, align 8, !dbg !3287
  %1 = load %"class.xalanc_1_10::XalanNode"**, %"class.xalanc_1_10::XalanNode"*** %theLast.addr, align 8, !dbg !3288
  %call = call i64 @_ZN11xalanc_1_1011XalanVectorIPKNS_9XalanNodeENS_31MemoryManagedConstructionTraitsIS3_EEE14local_distanceEPKS3_S8_(%"class.xalanc_1_10::XalanVector.0"* %this1, %"class.xalanc_1_10::XalanNode"** %0, %"class.xalanc_1_10::XalanNode"** %1), !dbg !3289
  store i64 %call, i64* %theInsertSize, align 8, !dbg !3286
  %2 = load i64, i64* %theInsertSize, align 8, !dbg !3290
  %cmp = icmp eq i64 %2, 0, !dbg !3292
  br i1 %cmp, label %if.then, label %if.end, !dbg !3293

if.then:                                          ; preds = %entry
  br label %return, !dbg !3294

if.end:                                           ; preds = %entry
  call void @llvm.dbg.declare(metadata i64* %theTotalSize, metadata !3296, metadata !DIExpression()), !dbg !3297
  %call2 = call i64 @_ZNK11xalanc_1_1011XalanVectorIPKNS_9XalanNodeENS_31MemoryManagedConstructionTraitsIS3_EEE4sizeEv(%"class.xalanc_1_10::XalanVector.0"* %this1), !dbg !3298
  %3 = load i64, i64* %theInsertSize, align 8, !dbg !3299
  %add = add i64 %call2, %3, !dbg !3300
  store i64 %add, i64* %theTotalSize, align 8, !dbg !3297
  %4 = load %"class.xalanc_1_10::XalanNode"**, %"class.xalanc_1_10::XalanNode"*** %thePosition.addr, align 8, !dbg !3301
  %call3 = call %"class.xalanc_1_10::XalanNode"** @_ZN11xalanc_1_1011XalanVectorIPKNS_9XalanNodeENS_31MemoryManagedConstructionTraitsIS3_EEE3endEv(%"class.xalanc_1_10::XalanVector.0"* %this1), !dbg !3303
  %cmp4 = icmp eq %"class.xalanc_1_10::XalanNode"** %4, %call3, !dbg !3304
  br i1 %cmp4, label %if.then5, label %if.else, !dbg !3305

if.then5:                                         ; preds = %if.end
  call void @llvm.dbg.declare(metadata %"class.xalanc_1_10::XalanNode"*** %thePointer, metadata !3306, metadata !DIExpression()), !dbg !3308
  %5 = load i64, i64* %theTotalSize, align 8, !dbg !3309
  %call6 = call %"class.xalanc_1_10::XalanNode"** @_ZN11xalanc_1_1011XalanVectorIPKNS_9XalanNodeENS_31MemoryManagedConstructionTraitsIS3_EEE14ensureCapacityEm(%"class.xalanc_1_10::XalanVector.0"* %this1, i64 %5), !dbg !3310
  store %"class.xalanc_1_10::XalanNode"** %call6, %"class.xalanc_1_10::XalanNode"*** %thePointer, align 8, !dbg !3308
  br label %while.cond, !dbg !3311

while.cond:                                       ; preds = %while.body, %if.then5
  %6 = load %"class.xalanc_1_10::XalanNode"**, %"class.xalanc_1_10::XalanNode"*** %theFirst.addr, align 8, !dbg !3312
  %7 = load %"class.xalanc_1_10::XalanNode"**, %"class.xalanc_1_10::XalanNode"*** %theLast.addr, align 8, !dbg !3313
  %cmp7 = icmp ne %"class.xalanc_1_10::XalanNode"** %6, %7, !dbg !3314
  br i1 %cmp7, label %while.body, label %while.end, !dbg !3311

while.body:                                       ; preds = %while.cond
  %8 = load %"class.xalanc_1_10::XalanNode"**, %"class.xalanc_1_10::XalanNode"*** %thePointer, align 8, !dbg !3315
  %9 = load %"class.xalanc_1_10::XalanNode"**, %"class.xalanc_1_10::XalanNode"*** %theFirst.addr, align 8, !dbg !3317
  %m_memoryManager = getelementptr inbounds %"class.xalanc_1_10::XalanVector.0", %"class.xalanc_1_10::XalanVector.0"* %this1, i32 0, i32 0, !dbg !3318
  %10 = load %"class.xercesc_2_7::MemoryManager"*, %"class.xercesc_2_7::MemoryManager"** %m_memoryManager, align 8, !dbg !3318
  %call8 = call %"class.xalanc_1_10::XalanNode"** @_ZN11xalanc_1_1028ConstructWithNoMemoryManagerIPKNS_9XalanNodeEE9constructEPS3_RKS3_RN11xercesc_2_713MemoryManagerE(%"class.xalanc_1_10::XalanNode"** %8, %"class.xalanc_1_10::XalanNode"** dereferenceable(8) %9, %"class.xercesc_2_7::MemoryManager"* dereferenceable(8) %10), !dbg !3319
  %11 = load %"class.xalanc_1_10::XalanNode"**, %"class.xalanc_1_10::XalanNode"*** %thePointer, align 8, !dbg !3320
  %incdec.ptr = getelementptr inbounds %"class.xalanc_1_10::XalanNode"*, %"class.xalanc_1_10::XalanNode"** %11, i32 1, !dbg !3320
  store %"class.xalanc_1_10::XalanNode"** %incdec.ptr, %"class.xalanc_1_10::XalanNode"*** %thePointer, align 8, !dbg !3320
  %m_size = getelementptr inbounds %"class.xalanc_1_10::XalanVector.0", %"class.xalanc_1_10::XalanVector.0"* %this1, i32 0, i32 1, !dbg !3321
  %12 = load i64, i64* %m_size, align 8, !dbg !3322
  %inc = add i64 %12, 1, !dbg !3322
  store i64 %inc, i64* %m_size, align 8, !dbg !3322
  %13 = load %"class.xalanc_1_10::XalanNode"**, %"class.xalanc_1_10::XalanNode"*** %theFirst.addr, align 8, !dbg !3323
  %incdec.ptr9 = getelementptr inbounds %"class.xalanc_1_10::XalanNode"*, %"class.xalanc_1_10::XalanNode"** %13, i32 1, !dbg !3323
  store %"class.xalanc_1_10::XalanNode"** %incdec.ptr9, %"class.xalanc_1_10::XalanNode"*** %theFirst.addr, align 8, !dbg !3323
  br label %while.cond, !dbg !3311, !llvm.loop !3324

while.end:                                        ; preds = %while.cond
  br label %if.end57, !dbg !3326

if.else:                                          ; preds = %if.end
  %14 = load i64, i64* %theTotalSize, align 8, !dbg !3327
  %call10 = call i64 @_ZNK11xalanc_1_1011XalanVectorIPKNS_9XalanNodeENS_31MemoryManagedConstructionTraitsIS3_EEE8capacityEv(%"class.xalanc_1_10::XalanVector.0"* %this1), !dbg !3330
  %cmp11 = icmp ugt i64 %14, %call10, !dbg !3331
  br i1 %cmp11, label %if.then12, label %if.else27, !dbg !3332

if.then12:                                        ; preds = %if.else
  call void @llvm.dbg.declare(metadata %"class.xalanc_1_10::XalanVector.0"* %theTemp, metadata !3333, metadata !DIExpression()), !dbg !3335
  %m_memoryManager13 = getelementptr inbounds %"class.xalanc_1_10::XalanVector.0", %"class.xalanc_1_10::XalanVector.0"* %this1, i32 0, i32 0, !dbg !3336
  %15 = load %"class.xercesc_2_7::MemoryManager"*, %"class.xercesc_2_7::MemoryManager"** %m_memoryManager13, align 8, !dbg !3336
  %16 = load i64, i64* %theTotalSize, align 8, !dbg !3337
  call void @_ZN11xalanc_1_1011XalanVectorIPKNS_9XalanNodeENS_31MemoryManagedConstructionTraitsIS3_EEEC2ERN11xercesc_2_713MemoryManagerEm(%"class.xalanc_1_10::XalanVector.0"* %theTemp, %"class.xercesc_2_7::MemoryManager"* dereferenceable(8) %15, i64 %16), !dbg !3335
  %call14 = invoke %"class.xalanc_1_10::XalanNode"** @_ZN11xalanc_1_1011XalanVectorIPKNS_9XalanNodeENS_31MemoryManagedConstructionTraitsIS3_EEE3endEv(%"class.xalanc_1_10::XalanVector.0"* %theTemp)
          to label %invoke.cont unwind label %lpad, !dbg !3338

invoke.cont:                                      ; preds = %if.then12
  %call16 = invoke %"class.xalanc_1_10::XalanNode"** @_ZN11xalanc_1_1011XalanVectorIPKNS_9XalanNodeENS_31MemoryManagedConstructionTraitsIS3_EEE5beginEv(%"class.xalanc_1_10::XalanVector.0"* %this1)
          to label %invoke.cont15 unwind label %lpad, !dbg !3339

invoke.cont15:                                    ; preds = %invoke.cont
  %17 = load %"class.xalanc_1_10::XalanNode"**, %"class.xalanc_1_10::XalanNode"*** %thePosition.addr, align 8, !dbg !3340
  invoke void @_ZN11xalanc_1_1011XalanVectorIPKNS_9XalanNodeENS_31MemoryManagedConstructionTraitsIS3_EEE6insertEPS3_PKS3_S9_(%"class.xalanc_1_10::XalanVector.0"* %theTemp, %"class.xalanc_1_10::XalanNode"** %call14, %"class.xalanc_1_10::XalanNode"** %call16, %"class.xalanc_1_10::XalanNode"** %17)
          to label %invoke.cont17 unwind label %lpad, !dbg !3341

invoke.cont17:                                    ; preds = %invoke.cont15
  %call19 = invoke %"class.xalanc_1_10::XalanNode"** @_ZN11xalanc_1_1011XalanVectorIPKNS_9XalanNodeENS_31MemoryManagedConstructionTraitsIS3_EEE3endEv(%"class.xalanc_1_10::XalanVector.0"* %theTemp)
          to label %invoke.cont18 unwind label %lpad, !dbg !3342

invoke.cont18:                                    ; preds = %invoke.cont17
  %18 = load %"class.xalanc_1_10::XalanNode"**, %"class.xalanc_1_10::XalanNode"*** %theFirst.addr, align 8, !dbg !3343
  %19 = load %"class.xalanc_1_10::XalanNode"**, %"class.xalanc_1_10::XalanNode"*** %theLast.addr, align 8, !dbg !3344
  invoke void @_ZN11xalanc_1_1011XalanVectorIPKNS_9XalanNodeENS_31MemoryManagedConstructionTraitsIS3_EEE6insertEPS3_PKS3_S9_(%"class.xalanc_1_10::XalanVector.0"* %theTemp, %"class.xalanc_1_10::XalanNode"** %call19, %"class.xalanc_1_10::XalanNode"** %18, %"class.xalanc_1_10::XalanNode"** %19)
          to label %invoke.cont20 unwind label %lpad, !dbg !3345

invoke.cont20:                                    ; preds = %invoke.cont18
  %call22 = invoke %"class.xalanc_1_10::XalanNode"** @_ZN11xalanc_1_1011XalanVectorIPKNS_9XalanNodeENS_31MemoryManagedConstructionTraitsIS3_EEE3endEv(%"class.xalanc_1_10::XalanVector.0"* %theTemp)
          to label %invoke.cont21 unwind label %lpad, !dbg !3346

invoke.cont21:                                    ; preds = %invoke.cont20
  %20 = load %"class.xalanc_1_10::XalanNode"**, %"class.xalanc_1_10::XalanNode"*** %thePosition.addr, align 8, !dbg !3347
  %call24 = invoke %"class.xalanc_1_10::XalanNode"** @_ZN11xalanc_1_1011XalanVectorIPKNS_9XalanNodeENS_31MemoryManagedConstructionTraitsIS3_EEE3endEv(%"class.xalanc_1_10::XalanVector.0"* %this1)
          to label %invoke.cont23 unwind label %lpad, !dbg !3348

invoke.cont23:                                    ; preds = %invoke.cont21
  invoke void @_ZN11xalanc_1_1011XalanVectorIPKNS_9XalanNodeENS_31MemoryManagedConstructionTraitsIS3_EEE6insertEPS3_PKS3_S9_(%"class.xalanc_1_10::XalanVector.0"* %theTemp, %"class.xalanc_1_10::XalanNode"** %call22, %"class.xalanc_1_10::XalanNode"** %20, %"class.xalanc_1_10::XalanNode"** %call24)
          to label %invoke.cont25 unwind label %lpad, !dbg !3349

invoke.cont25:                                    ; preds = %invoke.cont23
  invoke void @_ZN11xalanc_1_1011XalanVectorIPKNS_9XalanNodeENS_31MemoryManagedConstructionTraitsIS3_EEE4swapERS6_(%"class.xalanc_1_10::XalanVector.0"* %this1, %"class.xalanc_1_10::XalanVector.0"* dereferenceable(32) %theTemp)
          to label %invoke.cont26 unwind label %lpad, !dbg !3350

invoke.cont26:                                    ; preds = %invoke.cont25
  call void @_ZN11xalanc_1_1011XalanVectorIPKNS_9XalanNodeENS_31MemoryManagedConstructionTraitsIS3_EEED2Ev(%"class.xalanc_1_10::XalanVector.0"* %theTemp) #8, !dbg !3351
  br label %if.end56, !dbg !3352

lpad:                                             ; preds = %invoke.cont25, %invoke.cont23, %invoke.cont21, %invoke.cont20, %invoke.cont18, %invoke.cont17, %invoke.cont15, %invoke.cont, %if.then12
  %21 = landingpad { i8*, i32 }
          cleanup, !dbg !3353
  %22 = extractvalue { i8*, i32 } %21, 0, !dbg !3353
  store i8* %22, i8** %exn.slot, align 8, !dbg !3353
  %23 = extractvalue { i8*, i32 } %21, 1, !dbg !3353
  store i32 %23, i32* %ehselector.slot, align 4, !dbg !3353
  call void @_ZN11xalanc_1_1011XalanVectorIPKNS_9XalanNodeENS_31MemoryManagedConstructionTraitsIS3_EEED2Ev(%"class.xalanc_1_10::XalanVector.0"* %theTemp) #8, !dbg !3351
  br label %eh.resume, !dbg !3351

if.else27:                                        ; preds = %if.else
  call void @llvm.dbg.declare(metadata %"class.xalanc_1_10::XalanNode"*** %theOriginalEnd, metadata !3354, metadata !DIExpression()), !dbg !3357
  %call28 = call %"class.xalanc_1_10::XalanNode"** @_ZN11xalanc_1_1011XalanVectorIPKNS_9XalanNodeENS_31MemoryManagedConstructionTraitsIS3_EEE3endEv(%"class.xalanc_1_10::XalanVector.0"* %this1), !dbg !3358
  store %"class.xalanc_1_10::XalanNode"** %call28, %"class.xalanc_1_10::XalanNode"*** %theOriginalEnd, align 8, !dbg !3357
  call void @llvm.dbg.declare(metadata i64* %theRightSplitSize, metadata !3359, metadata !DIExpression()), !dbg !3360
  %24 = load %"class.xalanc_1_10::XalanNode"**, %"class.xalanc_1_10::XalanNode"*** %thePosition.addr, align 8, !dbg !3361
  %25 = load %"class.xalanc_1_10::XalanNode"**, %"class.xalanc_1_10::XalanNode"*** %theOriginalEnd, align 8, !dbg !3362
  %call29 = call i64 @_ZN11xalanc_1_1011XalanVectorIPKNS_9XalanNodeENS_31MemoryManagedConstructionTraitsIS3_EEE14local_distanceEPKS3_S8_(%"class.xalanc_1_10::XalanVector.0"* %this1, %"class.xalanc_1_10::XalanNode"** %24, %"class.xalanc_1_10::XalanNode"** %25), !dbg !3363
  store i64 %call29, i64* %theRightSplitSize, align 8, !dbg !3360
  %26 = load i64, i64* %theRightSplitSize, align 8, !dbg !3364
  %27 = load i64, i64* %theInsertSize, align 8, !dbg !3366
  %cmp30 = icmp ule i64 %26, %27, !dbg !3367
  br i1 %cmp30, label %if.then31, label %if.else43, !dbg !3368

if.then31:                                        ; preds = %if.else27
  call void @llvm.dbg.declare(metadata %"class.xalanc_1_10::XalanNode"*** %toInsertSplit, metadata !3369, metadata !DIExpression()), !dbg !3372
  %28 = load %"class.xalanc_1_10::XalanNode"**, %"class.xalanc_1_10::XalanNode"*** %theFirst.addr, align 8, !dbg !3373
  %29 = load i64, i64* %theRightSplitSize, align 8, !dbg !3374
  %add.ptr = getelementptr inbounds %"class.xalanc_1_10::XalanNode"*, %"class.xalanc_1_10::XalanNode"** %28, i64 %29, !dbg !3375
  store %"class.xalanc_1_10::XalanNode"** %add.ptr, %"class.xalanc_1_10::XalanNode"*** %toInsertSplit, align 8, !dbg !3372
  call void @llvm.dbg.declare(metadata %"class.xalanc_1_10::XalanNode"*** %toInsertIter, metadata !3376, metadata !DIExpression()), !dbg !3377
  %30 = load %"class.xalanc_1_10::XalanNode"**, %"class.xalanc_1_10::XalanNode"*** %toInsertSplit, align 8, !dbg !3378
  store %"class.xalanc_1_10::XalanNode"** %30, %"class.xalanc_1_10::XalanNode"*** %toInsertIter, align 8, !dbg !3377
  br label %while.cond32, !dbg !3379

while.cond32:                                     ; preds = %while.body34, %if.then31
  %31 = load %"class.xalanc_1_10::XalanNode"**, %"class.xalanc_1_10::XalanNode"*** %toInsertIter, align 8, !dbg !3380
  %32 = load %"class.xalanc_1_10::XalanNode"**, %"class.xalanc_1_10::XalanNode"*** %theLast.addr, align 8, !dbg !3381
  %cmp33 = icmp ne %"class.xalanc_1_10::XalanNode"** %31, %32, !dbg !3382
  br i1 %cmp33, label %while.body34, label %while.end36, !dbg !3379

while.body34:                                     ; preds = %while.cond32
  %33 = load %"class.xalanc_1_10::XalanNode"**, %"class.xalanc_1_10::XalanNode"*** %toInsertIter, align 8, !dbg !3383
  call void @_ZN11xalanc_1_1011XalanVectorIPKNS_9XalanNodeENS_31MemoryManagedConstructionTraitsIS3_EEE10doPushBackERKS3_(%"class.xalanc_1_10::XalanVector.0"* %this1, %"class.xalanc_1_10::XalanNode"** dereferenceable(8) %33), !dbg !3385
  %34 = load %"class.xalanc_1_10::XalanNode"**, %"class.xalanc_1_10::XalanNode"*** %toInsertIter, align 8, !dbg !3386
  %incdec.ptr35 = getelementptr inbounds %"class.xalanc_1_10::XalanNode"*, %"class.xalanc_1_10::XalanNode"** %34, i32 1, !dbg !3386
  store %"class.xalanc_1_10::XalanNode"** %incdec.ptr35, %"class.xalanc_1_10::XalanNode"*** %toInsertIter, align 8, !dbg !3386
  br label %while.cond32, !dbg !3379, !llvm.loop !3387

while.end36:                                      ; preds = %while.cond32
  %35 = load %"class.xalanc_1_10::XalanNode"**, %"class.xalanc_1_10::XalanNode"*** %thePosition.addr, align 8, !dbg !3389
  store %"class.xalanc_1_10::XalanNode"** %35, %"class.xalanc_1_10::XalanNode"*** %toInsertIter, align 8, !dbg !3390
  br label %while.cond37, !dbg !3391

while.cond37:                                     ; preds = %while.body39, %while.end36
  %36 = load %"class.xalanc_1_10::XalanNode"**, %"class.xalanc_1_10::XalanNode"*** %toInsertIter, align 8, !dbg !3392
  %37 = load %"class.xalanc_1_10::XalanNode"**, %"class.xalanc_1_10::XalanNode"*** %theOriginalEnd, align 8, !dbg !3393
  %cmp38 = icmp ne %"class.xalanc_1_10::XalanNode"** %36, %37, !dbg !3394
  br i1 %cmp38, label %while.body39, label %while.end41, !dbg !3391

while.body39:                                     ; preds = %while.cond37
  %38 = load %"class.xalanc_1_10::XalanNode"**, %"class.xalanc_1_10::XalanNode"*** %toInsertIter, align 8, !dbg !3395
  call void @_ZN11xalanc_1_1011XalanVectorIPKNS_9XalanNodeENS_31MemoryManagedConstructionTraitsIS3_EEE10doPushBackERKS3_(%"class.xalanc_1_10::XalanVector.0"* %this1, %"class.xalanc_1_10::XalanNode"** dereferenceable(8) %38), !dbg !3397
  %39 = load %"class.xalanc_1_10::XalanNode"**, %"class.xalanc_1_10::XalanNode"*** %toInsertIter, align 8, !dbg !3398
  %incdec.ptr40 = getelementptr inbounds %"class.xalanc_1_10::XalanNode"*, %"class.xalanc_1_10::XalanNode"** %39, i32 1, !dbg !3398
  store %"class.xalanc_1_10::XalanNode"** %incdec.ptr40, %"class.xalanc_1_10::XalanNode"*** %toInsertIter, align 8, !dbg !3398
  br label %while.cond37, !dbg !3391, !llvm.loop !3399

while.end41:                                      ; preds = %while.cond37
  %40 = load %"class.xalanc_1_10::XalanNode"**, %"class.xalanc_1_10::XalanNode"*** %theFirst.addr, align 8, !dbg !3401
  %41 = load %"class.xalanc_1_10::XalanNode"**, %"class.xalanc_1_10::XalanNode"*** %toInsertSplit, align 8, !dbg !3402
  %42 = load %"class.xalanc_1_10::XalanNode"**, %"class.xalanc_1_10::XalanNode"*** %thePosition.addr, align 8, !dbg !3403
  %call42 = call %"class.xalanc_1_10::XalanNode"** @_ZSt4copyIPKPKN11xalanc_1_109XalanNodeEPS3_ET0_T_S8_S7_(%"class.xalanc_1_10::XalanNode"** %40, %"class.xalanc_1_10::XalanNode"** %41, %"class.xalanc_1_10::XalanNode"** %42), !dbg !3404
  br label %if.end55, !dbg !3405

if.else43:                                        ; preds = %if.else27
  call void @llvm.dbg.declare(metadata %"class.xalanc_1_10::XalanNode"*** %toMoveIter, metadata !3406, metadata !DIExpression()), !dbg !3408
  %call44 = call %"class.xalanc_1_10::XalanNode"** @_ZN11xalanc_1_1011XalanVectorIPKNS_9XalanNodeENS_31MemoryManagedConstructionTraitsIS3_EEE3endEv(%"class.xalanc_1_10::XalanVector.0"* %this1), !dbg !3409
  %43 = load i64, i64* %theInsertSize, align 8, !dbg !3410
  %idx.neg = sub i64 0, %43, !dbg !3411
  %add.ptr45 = getelementptr inbounds %"class.xalanc_1_10::XalanNode"*, %"class.xalanc_1_10::XalanNode"** %call44, i64 %idx.neg, !dbg !3411
  store %"class.xalanc_1_10::XalanNode"** %add.ptr45, %"class.xalanc_1_10::XalanNode"*** %toMoveIter, align 8, !dbg !3408
  br label %while.cond46, !dbg !3412

while.cond46:                                     ; preds = %while.body48, %if.else43
  %44 = load %"class.xalanc_1_10::XalanNode"**, %"class.xalanc_1_10::XalanNode"*** %toMoveIter, align 8, !dbg !3413
  %45 = load %"class.xalanc_1_10::XalanNode"**, %"class.xalanc_1_10::XalanNode"*** %theOriginalEnd, align 8, !dbg !3414
  %cmp47 = icmp ne %"class.xalanc_1_10::XalanNode"** %44, %45, !dbg !3415
  br i1 %cmp47, label %while.body48, label %while.end50, !dbg !3412

while.body48:                                     ; preds = %while.cond46
  %46 = load %"class.xalanc_1_10::XalanNode"**, %"class.xalanc_1_10::XalanNode"*** %toMoveIter, align 8, !dbg !3416
  call void @_ZN11xalanc_1_1011XalanVectorIPKNS_9XalanNodeENS_31MemoryManagedConstructionTraitsIS3_EEE10doPushBackERKS3_(%"class.xalanc_1_10::XalanVector.0"* %this1, %"class.xalanc_1_10::XalanNode"** dereferenceable(8) %46), !dbg !3418
  %47 = load %"class.xalanc_1_10::XalanNode"**, %"class.xalanc_1_10::XalanNode"*** %toMoveIter, align 8, !dbg !3419
  %incdec.ptr49 = getelementptr inbounds %"class.xalanc_1_10::XalanNode"*, %"class.xalanc_1_10::XalanNode"** %47, i32 1, !dbg !3419
  store %"class.xalanc_1_10::XalanNode"** %incdec.ptr49, %"class.xalanc_1_10::XalanNode"*** %toMoveIter, align 8, !dbg !3419
  br label %while.cond46, !dbg !3412, !llvm.loop !3420

while.end50:                                      ; preds = %while.cond46
  %48 = load %"class.xalanc_1_10::XalanNode"**, %"class.xalanc_1_10::XalanNode"*** %thePosition.addr, align 8, !dbg !3422
  %49 = load %"class.xalanc_1_10::XalanNode"**, %"class.xalanc_1_10::XalanNode"*** %theOriginalEnd, align 8, !dbg !3423
  %50 = load i64, i64* %theInsertSize, align 8, !dbg !3424
  %idx.neg51 = sub i64 0, %50, !dbg !3425
  %add.ptr52 = getelementptr inbounds %"class.xalanc_1_10::XalanNode"*, %"class.xalanc_1_10::XalanNode"** %49, i64 %idx.neg51, !dbg !3425
  %51 = load %"class.xalanc_1_10::XalanNode"**, %"class.xalanc_1_10::XalanNode"*** %theOriginalEnd, align 8, !dbg !3426
  %call53 = call %"class.xalanc_1_10::XalanNode"** @_ZSt13copy_backwardIPPKN11xalanc_1_109XalanNodeES4_ET0_T_S6_S5_(%"class.xalanc_1_10::XalanNode"** %48, %"class.xalanc_1_10::XalanNode"** %add.ptr52, %"class.xalanc_1_10::XalanNode"** %51), !dbg !3427
  %52 = load %"class.xalanc_1_10::XalanNode"**, %"class.xalanc_1_10::XalanNode"*** %theFirst.addr, align 8, !dbg !3428
  %53 = load %"class.xalanc_1_10::XalanNode"**, %"class.xalanc_1_10::XalanNode"*** %theLast.addr, align 8, !dbg !3429
  %54 = load %"class.xalanc_1_10::XalanNode"**, %"class.xalanc_1_10::XalanNode"*** %thePosition.addr, align 8, !dbg !3430
  %call54 = call %"class.xalanc_1_10::XalanNode"** @_ZSt4copyIPKPKN11xalanc_1_109XalanNodeEPS3_ET0_T_S8_S7_(%"class.xalanc_1_10::XalanNode"** %52, %"class.xalanc_1_10::XalanNode"** %53, %"class.xalanc_1_10::XalanNode"** %54), !dbg !3431
  br label %if.end55

if.end55:                                         ; preds = %while.end50, %while.end41
  br label %if.end56

if.end56:                                         ; preds = %if.end55, %invoke.cont26
  br label %if.end57

if.end57:                                         ; preds = %if.end56, %while.end
  call void @_ZNK11xalanc_1_1011XalanVectorIPKNS_9XalanNodeENS_31MemoryManagedConstructionTraitsIS3_EEE10invariantsEv(%"class.xalanc_1_10::XalanVector.0"* %this1), !dbg !3432
  br label %return, !dbg !3433

return:                                           ; preds = %if.end57, %if.then
  ret void, !dbg !3433

eh.resume:                                        ; preds = %lpad
  %exn = load i8*, i8** %exn.slot, align 8, !dbg !3351
  %sel = load i32, i32* %ehselector.slot, align 4, !dbg !3351
  %lpad.val = insertvalue { i8*, i32 } undef, i8* %exn, 0, !dbg !3351
  %lpad.val58 = insertvalue { i8*, i32 } %lpad.val, i32 %sel, 1, !dbg !3351
  resume { i8*, i32 } %lpad.val58, !dbg !3351
}

; Function Attrs: noinline nounwind uwtable
define linkonce_odr dso_local %"class.xalanc_1_10::XalanNode"** @_ZNK11xalanc_1_1011XalanVectorIPKNS_9XalanNodeENS_31MemoryManagedConstructionTraitsIS3_EEE5beginEv(%"class.xalanc_1_10::XalanVector.0"* %this) #3 comdat align 2 !dbg !3434 {
entry:
  %this.addr = alloca %"class.xalanc_1_10::XalanVector.0"*, align 8
  store %"class.xalanc_1_10::XalanVector.0"* %this, %"class.xalanc_1_10::XalanVector.0"** %this.addr, align 8
  call void @llvm.dbg.declare(metadata %"class.xalanc_1_10::XalanVector.0"** %this.addr, metadata !3435, metadata !DIExpression()), !dbg !3436
  %this1 = load %"class.xalanc_1_10::XalanVector.0"*, %"class.xalanc_1_10::XalanVector.0"** %this.addr, align 8
  call void @_ZNK11xalanc_1_1011XalanVectorIPKNS_9XalanNodeENS_31MemoryManagedConstructionTraitsIS3_EEE10invariantsEv(%"class.xalanc_1_10::XalanVector.0"* %this1), !dbg !3437
  %m_data = getelementptr inbounds %"class.xalanc_1_10::XalanVector.0", %"class.xalanc_1_10::XalanVector.0"* %this1, i32 0, i32 3, !dbg !3438
  %0 = load %"class.xalanc_1_10::XalanNode"**, %"class.xalanc_1_10::XalanNode"*** %m_data, align 8, !dbg !3438
  ret %"class.xalanc_1_10::XalanNode"** %0, !dbg !3439
}

; Function Attrs: noinline uwtable
define linkonce_odr dso_local %"class.xalanc_1_10::XalanNode"** @_ZNK11xalanc_1_1011XalanVectorIPKNS_9XalanNodeENS_31MemoryManagedConstructionTraitsIS3_EEE3endEv(%"class.xalanc_1_10::XalanVector.0"* %this) #0 comdat align 2 !dbg !3440 {
entry:
  %this.addr = alloca %"class.xalanc_1_10::XalanVector.0"*, align 8
  store %"class.xalanc_1_10::XalanVector.0"* %this, %"class.xalanc_1_10::XalanVector.0"** %this.addr, align 8
  call void @llvm.dbg.declare(metadata %"class.xalanc_1_10::XalanVector.0"** %this.addr, metadata !3441, metadata !DIExpression()), !dbg !3442
  %this1 = load %"class.xalanc_1_10::XalanVector.0"*, %"class.xalanc_1_10::XalanVector.0"** %this.addr, align 8
  call void @_ZNK11xalanc_1_1011XalanVectorIPKNS_9XalanNodeENS_31MemoryManagedConstructionTraitsIS3_EEE10invariantsEv(%"class.xalanc_1_10::XalanVector.0"* %this1), !dbg !3443
  %call = call %"class.xalanc_1_10::XalanNode"** @_ZNK11xalanc_1_1011XalanVectorIPKNS_9XalanNodeENS_31MemoryManagedConstructionTraitsIS3_EEE10endPointerEv(%"class.xalanc_1_10::XalanVector.0"* %this1), !dbg !3444
  ret %"class.xalanc_1_10::XalanNode"** %call, !dbg !3445
}

; Function Attrs: noinline uwtable
define linkonce_odr dso_local i64 @_ZN11xalanc_1_1011XalanVectorIPKNS_9XalanNodeENS_31MemoryManagedConstructionTraitsIS3_EEE14local_distanceEPKS3_S8_(%"class.xalanc_1_10::XalanVector.0"* %this, %"class.xalanc_1_10::XalanNode"** %theFirst, %"class.xalanc_1_10::XalanNode"** %theLast) #0 comdat align 2 !dbg !3446 {
entry:
  %this.addr = alloca %"class.xalanc_1_10::XalanVector.0"*, align 8
  %theFirst.addr = alloca %"class.xalanc_1_10::XalanNode"**, align 8
  %theLast.addr = alloca %"class.xalanc_1_10::XalanNode"**, align 8
  store %"class.xalanc_1_10::XalanVector.0"* %this, %"class.xalanc_1_10::XalanVector.0"** %this.addr, align 8
  call void @llvm.dbg.declare(metadata %"class.xalanc_1_10::XalanVector.0"** %this.addr, metadata !3447, metadata !DIExpression()), !dbg !3448
  store %"class.xalanc_1_10::XalanNode"** %theFirst, %"class.xalanc_1_10::XalanNode"*** %theFirst.addr, align 8
  call void @llvm.dbg.declare(metadata %"class.xalanc_1_10::XalanNode"*** %theFirst.addr, metadata !3449, metadata !DIExpression()), !dbg !3450
  store %"class.xalanc_1_10::XalanNode"** %theLast, %"class.xalanc_1_10::XalanNode"*** %theLast.addr, align 8
  call void @llvm.dbg.declare(metadata %"class.xalanc_1_10::XalanNode"*** %theLast.addr, metadata !3451, metadata !DIExpression()), !dbg !3452
  %this1 = load %"class.xalanc_1_10::XalanVector.0"*, %"class.xalanc_1_10::XalanVector.0"** %this.addr, align 8
  %0 = load %"class.xalanc_1_10::XalanNode"**, %"class.xalanc_1_10::XalanNode"*** %theFirst.addr, align 8, !dbg !3453
  %1 = load %"class.xalanc_1_10::XalanNode"**, %"class.xalanc_1_10::XalanNode"*** %theLast.addr, align 8, !dbg !3454
  %call = call i64 @_ZSt8distanceIPKPKN11xalanc_1_109XalanNodeEENSt15iterator_traitsIT_E15difference_typeES7_S7_(%"class.xalanc_1_10::XalanNode"** %0, %"class.xalanc_1_10::XalanNode"** %1), !dbg !3455
  ret i64 %call, !dbg !3456
}

; Function Attrs: noinline nounwind uwtable
define linkonce_odr dso_local i64 @_ZNK11xalanc_1_1011XalanVectorIPKNS_9XalanNodeENS_31MemoryManagedConstructionTraitsIS3_EEE4sizeEv(%"class.xalanc_1_10::XalanVector.0"* %this) #3 comdat align 2 !dbg !3457 {
entry:
  %this.addr = alloca %"class.xalanc_1_10::XalanVector.0"*, align 8
  store %"class.xalanc_1_10::XalanVector.0"* %this, %"class.xalanc_1_10::XalanVector.0"** %this.addr, align 8
  call void @llvm.dbg.declare(metadata %"class.xalanc_1_10::XalanVector.0"** %this.addr, metadata !3458, metadata !DIExpression()), !dbg !3459
  %this1 = load %"class.xalanc_1_10::XalanVector.0"*, %"class.xalanc_1_10::XalanVector.0"** %this.addr, align 8
  call void @_ZNK11xalanc_1_1011XalanVectorIPKNS_9XalanNodeENS_31MemoryManagedConstructionTraitsIS3_EEE10invariantsEv(%"class.xalanc_1_10::XalanVector.0"* %this1), !dbg !3460
  %m_size = getelementptr inbounds %"class.xalanc_1_10::XalanVector.0", %"class.xalanc_1_10::XalanVector.0"* %this1, i32 0, i32 1, !dbg !3461
  %0 = load i64, i64* %m_size, align 8, !dbg !3461
  ret i64 %0, !dbg !3462
}

; Function Attrs: noinline uwtable
define linkonce_odr dso_local %"class.xalanc_1_10::XalanNode"** @_ZN11xalanc_1_1011XalanVectorIPKNS_9XalanNodeENS_31MemoryManagedConstructionTraitsIS3_EEE14ensureCapacityEm(%"class.xalanc_1_10::XalanVector.0"* %this, i64 %theSize) #0 comdat align 2 !dbg !3463 {
entry:
  %this.addr = alloca %"class.xalanc_1_10::XalanVector.0"*, align 8
  %theSize.addr = alloca i64, align 8
  store %"class.xalanc_1_10::XalanVector.0"* %this, %"class.xalanc_1_10::XalanVector.0"** %this.addr, align 8
  call void @llvm.dbg.declare(metadata %"class.xalanc_1_10::XalanVector.0"** %this.addr, metadata !3464, metadata !DIExpression()), !dbg !3465
  store i64 %theSize, i64* %theSize.addr, align 8
  call void @llvm.dbg.declare(metadata i64* %theSize.addr, metadata !3466, metadata !DIExpression()), !dbg !3467
  %this1 = load %"class.xalanc_1_10::XalanVector.0"*, %"class.xalanc_1_10::XalanVector.0"** %this.addr, align 8
  %0 = load i64, i64* %theSize.addr, align 8, !dbg !3468
  %call = call i64 @_ZNK11xalanc_1_1011XalanVectorIPKNS_9XalanNodeENS_31MemoryManagedConstructionTraitsIS3_EEE8capacityEv(%"class.xalanc_1_10::XalanVector.0"* %this1), !dbg !3470
  %cmp = icmp ugt i64 %0, %call, !dbg !3471
  br i1 %cmp, label %if.then, label %if.end, !dbg !3472

if.then:                                          ; preds = %entry
  %1 = load i64, i64* %theSize.addr, align 8, !dbg !3473
  call void @_ZN11xalanc_1_1011XalanVectorIPKNS_9XalanNodeENS_31MemoryManagedConstructionTraitsIS3_EEE9doReserveEm(%"class.xalanc_1_10::XalanVector.0"* %this1, i64 %1), !dbg !3475
  br label %if.end, !dbg !3476

if.end:                                           ; preds = %if.then, %entry
  %call2 = call %"class.xalanc_1_10::XalanNode"** @_ZN11xalanc_1_1011XalanVectorIPKNS_9XalanNodeENS_31MemoryManagedConstructionTraitsIS3_EEE10endPointerEv(%"class.xalanc_1_10::XalanVector.0"* %this1), !dbg !3477
  ret %"class.xalanc_1_10::XalanNode"** %call2, !dbg !3478
}

; Function Attrs: noinline nounwind uwtable
define linkonce_odr dso_local i64 @_ZNK11xalanc_1_1011XalanVectorIPKNS_9XalanNodeENS_31MemoryManagedConstructionTraitsIS3_EEE8capacityEv(%"class.xalanc_1_10::XalanVector.0"* %this) #3 comdat align 2 !dbg !3479 {
entry:
  %this.addr = alloca %"class.xalanc_1_10::XalanVector.0"*, align 8
  store %"class.xalanc_1_10::XalanVector.0"* %this, %"class.xalanc_1_10::XalanVector.0"** %this.addr, align 8
  call void @llvm.dbg.declare(metadata %"class.xalanc_1_10::XalanVector.0"** %this.addr, metadata !3480, metadata !DIExpression()), !dbg !3481
  %this1 = load %"class.xalanc_1_10::XalanVector.0"*, %"class.xalanc_1_10::XalanVector.0"** %this.addr, align 8
  call void @_ZNK11xalanc_1_1011XalanVectorIPKNS_9XalanNodeENS_31MemoryManagedConstructionTraitsIS3_EEE10invariantsEv(%"class.xalanc_1_10::XalanVector.0"* %this1), !dbg !3482
  %m_allocation = getelementptr inbounds %"class.xalanc_1_10::XalanVector.0", %"class.xalanc_1_10::XalanVector.0"* %this1, i32 0, i32 2, !dbg !3483
  %0 = load i64, i64* %m_allocation, align 8, !dbg !3483
  ret i64 %0, !dbg !3484
}

; Function Attrs: noinline uwtable
define linkonce_odr dso_local %"class.xalanc_1_10::XalanNode"** @_ZSt4copyIPKPKN11xalanc_1_109XalanNodeEPS3_ET0_T_S8_S7_(%"class.xalanc_1_10::XalanNode"** %__first, %"class.xalanc_1_10::XalanNode"** %__last, %"class.xalanc_1_10::XalanNode"** %__result) #0 comdat !dbg !3485 {
entry:
  %__first.addr = alloca %"class.xalanc_1_10::XalanNode"**, align 8
  %__last.addr = alloca %"class.xalanc_1_10::XalanNode"**, align 8
  %__result.addr = alloca %"class.xalanc_1_10::XalanNode"**, align 8
  store %"class.xalanc_1_10::XalanNode"** %__first, %"class.xalanc_1_10::XalanNode"*** %__first.addr, align 8
  call void @llvm.dbg.declare(metadata %"class.xalanc_1_10::XalanNode"*** %__first.addr, metadata !3492, metadata !DIExpression()), !dbg !3493
  store %"class.xalanc_1_10::XalanNode"** %__last, %"class.xalanc_1_10::XalanNode"*** %__last.addr, align 8
  call void @llvm.dbg.declare(metadata %"class.xalanc_1_10::XalanNode"*** %__last.addr, metadata !3494, metadata !DIExpression()), !dbg !3495
  store %"class.xalanc_1_10::XalanNode"** %__result, %"class.xalanc_1_10::XalanNode"*** %__result.addr, align 8
  call void @llvm.dbg.declare(metadata %"class.xalanc_1_10::XalanNode"*** %__result.addr, metadata !3496, metadata !DIExpression()), !dbg !3497
  %0 = load %"class.xalanc_1_10::XalanNode"**, %"class.xalanc_1_10::XalanNode"*** %__first.addr, align 8, !dbg !3498
  %call = call %"class.xalanc_1_10::XalanNode"** @_ZSt12__miter_baseIPKPKN11xalanc_1_109XalanNodeEET_S6_(%"class.xalanc_1_10::XalanNode"** %0), !dbg !3499
  %1 = load %"class.xalanc_1_10::XalanNode"**, %"class.xalanc_1_10::XalanNode"*** %__last.addr, align 8, !dbg !3500
  %call1 = call %"class.xalanc_1_10::XalanNode"** @_ZSt12__miter_baseIPKPKN11xalanc_1_109XalanNodeEET_S6_(%"class.xalanc_1_10::XalanNode"** %1), !dbg !3501
  %2 = load %"class.xalanc_1_10::XalanNode"**, %"class.xalanc_1_10::XalanNode"*** %__result.addr, align 8, !dbg !3502
  %call2 = call %"class.xalanc_1_10::XalanNode"** @_ZSt13__copy_move_aILb0EPKPKN11xalanc_1_109XalanNodeEPS3_ET1_T0_S8_S7_(%"class.xalanc_1_10::XalanNode"** %call, %"class.xalanc_1_10::XalanNode"** %call1, %"class.xalanc_1_10::XalanNode"** %2), !dbg !3503
  ret %"class.xalanc_1_10::XalanNode"** %call2, !dbg !3504
}

; Function Attrs: noinline uwtable
define linkonce_odr dso_local %"class.xalanc_1_10::XalanNode"** @_ZSt13copy_backwardIPPKN11xalanc_1_109XalanNodeES4_ET0_T_S6_S5_(%"class.xalanc_1_10::XalanNode"** %__first, %"class.xalanc_1_10::XalanNode"** %__last, %"class.xalanc_1_10::XalanNode"** %__result) #0 comdat !dbg !3505 {
entry:
  %__first.addr = alloca %"class.xalanc_1_10::XalanNode"**, align 8
  %__last.addr = alloca %"class.xalanc_1_10::XalanNode"**, align 8
  %__result.addr = alloca %"class.xalanc_1_10::XalanNode"**, align 8
  store %"class.xalanc_1_10::XalanNode"** %__first, %"class.xalanc_1_10::XalanNode"*** %__first.addr, align 8
  call void @llvm.dbg.declare(metadata %"class.xalanc_1_10::XalanNode"*** %__first.addr, metadata !3511, metadata !DIExpression()), !dbg !3512
  store %"class.xalanc_1_10::XalanNode"** %__last, %"class.xalanc_1_10::XalanNode"*** %__last.addr, align 8
  call void @llvm.dbg.declare(metadata %"class.xalanc_1_10::XalanNode"*** %__last.addr, metadata !3513, metadata !DIExpression()), !dbg !3514
  store %"class.xalanc_1_10::XalanNode"** %__result, %"class.xalanc_1_10::XalanNode"*** %__result.addr, align 8
  call void @llvm.dbg.declare(metadata %"class.xalanc_1_10::XalanNode"*** %__result.addr, metadata !3515, metadata !DIExpression()), !dbg !3516
  %0 = load %"class.xalanc_1_10::XalanNode"**, %"class.xalanc_1_10::XalanNode"*** %__first.addr, align 8, !dbg !3517
  %call = call %"class.xalanc_1_10::XalanNode"** @_ZSt12__miter_baseIPPKN11xalanc_1_109XalanNodeEET_S5_(%"class.xalanc_1_10::XalanNode"** %0), !dbg !3518
  %1 = load %"class.xalanc_1_10::XalanNode"**, %"class.xalanc_1_10::XalanNode"*** %__last.addr, align 8, !dbg !3519
  %call1 = call %"class.xalanc_1_10::XalanNode"** @_ZSt12__miter_baseIPPKN11xalanc_1_109XalanNodeEET_S5_(%"class.xalanc_1_10::XalanNode"** %1), !dbg !3520
  %2 = load %"class.xalanc_1_10::XalanNode"**, %"class.xalanc_1_10::XalanNode"*** %__result.addr, align 8, !dbg !3521
  %call2 = call %"class.xalanc_1_10::XalanNode"** @_ZSt22__copy_move_backward_aILb0EPPKN11xalanc_1_109XalanNodeES4_ET1_T0_S6_S5_(%"class.xalanc_1_10::XalanNode"** %call, %"class.xalanc_1_10::XalanNode"** %call1, %"class.xalanc_1_10::XalanNode"** %2), !dbg !3522
  ret %"class.xalanc_1_10::XalanNode"** %call2, !dbg !3523
}

; Function Attrs: noinline uwtable
define linkonce_odr dso_local i64 @_ZSt8distanceIPKPKN11xalanc_1_109XalanNodeEENSt15iterator_traitsIT_E15difference_typeES7_S7_(%"class.xalanc_1_10::XalanNode"** %__first, %"class.xalanc_1_10::XalanNode"** %__last) #0 comdat !dbg !3524 {
entry:
  %__first.addr = alloca %"class.xalanc_1_10::XalanNode"**, align 8
  %__last.addr = alloca %"class.xalanc_1_10::XalanNode"**, align 8
  %agg.tmp = alloca %"struct.std::random_access_iterator_tag", align 1
