; ModuleID = 'XalanBitmap.cpp'
source_filename = "XalanBitmap.cpp"
target datalayout = "e-m:e-p270:32:32-p271:32:32-p272:64:64-i64:64-f80:128-n8:16:32:64-S128"
target triple = "x86_64-unknown-linux-gnu"

%"class.xalanc_1_10::XalanBitmap" = type { i64, %"class.xalanc_1_10::XalanVector" }
%"class.xalanc_1_10::XalanVector" = type { %"class.xercesc_2_7::MemoryManager"*, i64, i64, i8* }
%"class.xercesc_2_7::MemoryManager" = type { i32 (...)** }
%"struct.std::random_access_iterator_tag" = type { i8 }

$_ZN11xalanc_1_1011XalanVectorIcNS_31MemoryManagedConstructionTraitsIcEEEC2EmRKcRN11xercesc_2_713MemoryManagerE = comdat any

$_ZN11xalanc_1_1011XalanVectorIcNS_31MemoryManagedConstructionTraitsIcEEED2Ev = comdat any

$_ZSt4fillIPccEvT_S1_RKT0_ = comdat any

$_ZN11xalanc_1_1011XalanVectorIcNS_31MemoryManagedConstructionTraitsIcEEE5beginEv = comdat any

$_ZN11xalanc_1_1011XalanVectorIcNS_31MemoryManagedConstructionTraitsIcEEE3endEv = comdat any

$_ZN11xalanc_1_1011XalanVectorIcNS_31MemoryManagedConstructionTraitsIcEEEC2ERN11xercesc_2_713MemoryManagerEm = comdat any

$_ZN11xalanc_1_1011XalanVectorIcNS_31MemoryManagedConstructionTraitsIcEEE6insertEPcmRKc = comdat any

$_ZN11xalanc_1_1011XalanVectorIcNS_31MemoryManagedConstructionTraitsIcEEE4swapERS3_ = comdat any

$_ZNK11xalanc_1_1011XalanVectorIcNS_31MemoryManagedConstructionTraitsIcEEE10invariantsEv = comdat any

$_ZN11xalanc_1_1011XalanVectorIcNS_31MemoryManagedConstructionTraitsIcEEE8allocateEm = comdat any

$_ZNK11xalanc_1_1011XalanVectorIcNS_31MemoryManagedConstructionTraitsIcEEE4sizeEv = comdat any

$_ZN11xalanc_1_1011XalanVectorIcNS_31MemoryManagedConstructionTraitsIcEEE14ensureCapacityEm = comdat any

$_ZN11xalanc_1_1028ConstructWithNoMemoryManagerIcE9constructEPcRKcRN11xercesc_2_713MemoryManagerE = comdat any

$_ZNK11xalanc_1_1011XalanVectorIcNS_31MemoryManagedConstructionTraitsIcEEE8capacityEv = comdat any

$_ZN11xalanc_1_1011XalanVectorIcNS_31MemoryManagedConstructionTraitsIcEEE6insertEPcPKcS6_ = comdat any

$_ZN11xalanc_1_1011XalanVectorIcNS_31MemoryManagedConstructionTraitsIcEEE14local_distanceEPKcS5_ = comdat any

$_ZN11xalanc_1_1011XalanVectorIcNS_31MemoryManagedConstructionTraitsIcEEE10doPushBackERKc = comdat any

$_ZSt13copy_backwardIPcS0_ET0_T_S2_S1_ = comdat any

$_ZN11xalanc_1_1011XalanVectorIcNS_31MemoryManagedConstructionTraitsIcEEE9doReserveEm = comdat any

$_ZN11xalanc_1_1011XalanVectorIcNS_31MemoryManagedConstructionTraitsIcEEE10endPointerEv = comdat any

$_ZN11xalanc_1_1011XalanVectorIcNS_31MemoryManagedConstructionTraitsIcEEEC2ERKS3_RN11xercesc_2_713MemoryManagerEm = comdat any

$_ZN11xalanc_1_1011XalanVectorIcNS_31MemoryManagedConstructionTraitsIcEEE9local_maxEmm = comdat any

$_ZNK11xalanc_1_1011XalanVectorIcNS_31MemoryManagedConstructionTraitsIcEEE5beginEv = comdat any

$_ZNK11xalanc_1_1011XalanVectorIcNS_31MemoryManagedConstructionTraitsIcEEE3endEv = comdat any

$_ZNK11xalanc_1_1011XalanVectorIcNS_31MemoryManagedConstructionTraitsIcEEE10endPointerEv = comdat any

$_ZSt4copyIPKcPcET0_T_S4_S3_ = comdat any

$_ZSt13__copy_move_aILb0EPKcPcET1_T0_S4_S3_ = comdat any

$_ZSt12__miter_baseIPKcET_S2_ = comdat any

$_ZSt12__niter_wrapIPcET_RKS1_S1_ = comdat any

$_ZSt14__copy_move_a1ILb0EPKcPcET1_T0_S4_S3_ = comdat any

$_ZSt12__niter_baseIPKcET_S2_ = comdat any

$_ZSt12__niter_baseIPcET_S1_ = comdat any

$_ZSt14__copy_move_a2ILb0EPKcPcET1_T0_S4_S3_ = comdat any

$_ZNSt11__copy_moveILb0ELb1ESt26random_access_iterator_tagE8__copy_mIcEEPT_PKS3_S6_S4_ = comdat any

$_ZSt8distanceIPKcENSt15iterator_traitsIT_E15difference_typeES3_S3_ = comdat any

$_ZSt10__distanceIPKcENSt15iterator_traitsIT_E15difference_typeES3_S3_St26random_access_iterator_tag = comdat any

$_ZSt19__iterator_categoryIPKcENSt15iterator_traitsIT_E17iterator_categoryERKS3_ = comdat any

$_ZSt22__copy_move_backward_aILb0EPcS0_ET1_T0_S2_S1_ = comdat any

$_ZSt12__miter_baseIPcET_S1_ = comdat any

$_ZSt23__copy_move_backward_a1ILb0EPcS0_ET1_T0_S2_S1_ = comdat any

$_ZSt23__copy_move_backward_a2ILb0EPcS0_ET1_T0_S2_S1_ = comdat any

$_ZNSt20__copy_move_backwardILb0ELb1ESt26random_access_iterator_tagE13__copy_move_bIcEEPT_PKS3_S6_S4_ = comdat any

$__clang_call_terminate = comdat any

$_ZN11xalanc_1_1011XalanVectorIcNS_31MemoryManagedConstructionTraitsIcEEE7destroyEPcS4_ = comdat any

$_ZN11xalanc_1_1011XalanVectorIcNS_31MemoryManagedConstructionTraitsIcEEE10deallocateEPc = comdat any

$_ZN11xalanc_1_1011XalanVectorIcNS_31MemoryManagedConstructionTraitsIcEEE7destroyERc = comdat any

$_ZSt8__fill_aIPccEvT_S1_RKT0_ = comdat any

$_ZSt9__fill_a1IcEN9__gnu_cxx11__enable_ifIXsr9__is_byteIT_EE7__valueEvE6__typeEPS2_S5_RKS2_ = comdat any

@_ZN11xalanc_1_1011XalanBitmap10s_setMasksE = dso_local constant [8 x i32] [i32 1, i32 2, i32 4, i32 8, i32 16, i32 32, i32 64, i32 128], align 16, !dbg !0
@_ZN11xalanc_1_1011XalanBitmap12s_clearMasksE = dso_local constant [8 x i32] [i32 -2, i32 -3, i32 -5, i32 -9, i32 -17, i32 -33, i32 -65, i32 -129], align 16, !dbg !247

@_ZN11xalanc_1_1011XalanBitmapC1ERN11xercesc_2_713MemoryManagerEm = dso_local unnamed_addr alias void (%"class.xalanc_1_10::XalanBitmap"*, %"class.xercesc_2_7::MemoryManager"*, i64), void (%"class.xalanc_1_10::XalanBitmap"*, %"class.xercesc_2_7::MemoryManager"*, i64)* @_ZN11xalanc_1_1011XalanBitmapC2ERN11xercesc_2_713MemoryManagerEm
@_ZN11xalanc_1_1011XalanBitmapD1Ev = dso_local unnamed_addr alias void (%"class.xalanc_1_10::XalanBitmap"*), void (%"class.xalanc_1_10::XalanBitmap"*)* @_ZN11xalanc_1_1011XalanBitmapD2Ev

; Function Attrs: noinline uwtable
define dso_local void @_ZN11xalanc_1_1011XalanBitmapC2ERN11xercesc_2_713MemoryManagerEm(%"class.xalanc_1_10::XalanBitmap"* %this, %"class.xercesc_2_7::MemoryManager"* dereferenceable(8) %theManager, i64 %theSize) unnamed_addr #0 align 2 !dbg !1136 {
entry:
  %this.addr = alloca %"class.xalanc_1_10::XalanBitmap"*, align 8
  %theManager.addr = alloca %"class.xercesc_2_7::MemoryManager"*, align 8
  %theSize.addr = alloca i64, align 8
  %ref.tmp = alloca i8, align 1
  store %"class.xalanc_1_10::XalanBitmap"* %this, %"class.xalanc_1_10::XalanBitmap"** %this.addr, align 8
  call void @llvm.dbg.declare(metadata %"class.xalanc_1_10::XalanBitmap"** %this.addr, metadata !1137, metadata !DIExpression()), !dbg !1139
  store %"class.xercesc_2_7::MemoryManager"* %theManager, %"class.xercesc_2_7::MemoryManager"** %theManager.addr, align 8
  call void @llvm.dbg.declare(metadata %"class.xercesc_2_7::MemoryManager"** %theManager.addr, metadata !1140, metadata !DIExpression()), !dbg !1141
  store i64 %theSize, i64* %theSize.addr, align 8
  call void @llvm.dbg.declare(metadata i64* %theSize.addr, metadata !1142, metadata !DIExpression()), !dbg !1143
  %this1 = load %"class.xalanc_1_10::XalanBitmap"*, %"class.xalanc_1_10::XalanBitmap"** %this.addr, align 8
  %m_size = getelementptr inbounds %"class.xalanc_1_10::XalanBitmap", %"class.xalanc_1_10::XalanBitmap"* %this1, i32 0, i32 0, !dbg !1144
  %0 = load i64, i64* %theSize.addr, align 8, !dbg !1145
  store i64 %0, i64* %m_size, align 8, !dbg !1144
  %m_bitmap = getelementptr inbounds %"class.xalanc_1_10::XalanBitmap", %"class.xalanc_1_10::XalanBitmap"* %this1, i32 0, i32 1, !dbg !1146
  %1 = load i64, i64* %theSize.addr, align 8, !dbg !1147
  %add = add i64 %1, 8, !dbg !1148
  %div = udiv i64 %add, 8, !dbg !1149
  store i8 0, i8* %ref.tmp, align 1, !dbg !1150
  %2 = load %"class.xercesc_2_7::MemoryManager"*, %"class.xercesc_2_7::MemoryManager"** %theManager.addr, align 8, !dbg !1151
  call void @_ZN11xalanc_1_1011XalanVectorIcNS_31MemoryManagedConstructionTraitsIcEEEC2EmRKcRN11xercesc_2_713MemoryManagerE(%"class.xalanc_1_10::XalanVector"* %m_bitmap, i64 %div, i8* dereferenceable(1) %ref.tmp, %"class.xercesc_2_7::MemoryManager"* dereferenceable(8) %2), !dbg !1146
  ret void, !dbg !1152
}

; Function Attrs: nounwind readnone speculatable willreturn
declare void @llvm.dbg.declare(metadata, metadata, metadata) #1

; Function Attrs: noinline uwtable
define linkonce_odr dso_local void @_ZN11xalanc_1_1011XalanVectorIcNS_31MemoryManagedConstructionTraitsIcEEEC2EmRKcRN11xercesc_2_713MemoryManagerE(%"class.xalanc_1_10::XalanVector"* %this, i64 %theInsertSize, i8* dereferenceable(1) %theData, %"class.xercesc_2_7::MemoryManager"* dereferenceable(8) %theManager) unnamed_addr #0 comdat align 2 personality i8* bitcast (i32 (...)* @__gxx_personality_v0 to i8*) !dbg !1153 {
entry:
  %this.addr = alloca %"class.xalanc_1_10::XalanVector"*, align 8
  %theInsertSize.addr = alloca i64, align 8
  %theData.addr = alloca i8*, align 8
  %theManager.addr = alloca %"class.xercesc_2_7::MemoryManager"*, align 8
  %theTemp = alloca %"class.xalanc_1_10::XalanVector", align 8
  %exn.slot = alloca i8*
  %ehselector.slot = alloca i32
  store %"class.xalanc_1_10::XalanVector"* %this, %"class.xalanc_1_10::XalanVector"** %this.addr, align 8
  call void @llvm.dbg.declare(metadata %"class.xalanc_1_10::XalanVector"** %this.addr, metadata !1154, metadata !DIExpression()), !dbg !1155
  store i64 %theInsertSize, i64* %theInsertSize.addr, align 8
  call void @llvm.dbg.declare(metadata i64* %theInsertSize.addr, metadata !1156, metadata !DIExpression()), !dbg !1157
  store i8* %theData, i8** %theData.addr, align 8
  call void @llvm.dbg.declare(metadata i8** %theData.addr, metadata !1158, metadata !DIExpression()), !dbg !1159
  store %"class.xercesc_2_7::MemoryManager"* %theManager, %"class.xercesc_2_7::MemoryManager"** %theManager.addr, align 8
  call void @llvm.dbg.declare(metadata %"class.xercesc_2_7::MemoryManager"** %theManager.addr, metadata !1160, metadata !DIExpression()), !dbg !1161
  %this1 = load %"class.xalanc_1_10::XalanVector"*, %"class.xalanc_1_10::XalanVector"** %this.addr, align 8
  %m_memoryManager = getelementptr inbounds %"class.xalanc_1_10::XalanVector", %"class.xalanc_1_10::XalanVector"* %this1, i32 0, i32 0, !dbg !1162
  %0 = load %"class.xercesc_2_7::MemoryManager"*, %"class.xercesc_2_7::MemoryManager"** %theManager.addr, align 8, !dbg !1163
  store %"class.xercesc_2_7::MemoryManager"* %0, %"class.xercesc_2_7::MemoryManager"** %m_memoryManager, align 8, !dbg !1162
  %m_size = getelementptr inbounds %"class.xalanc_1_10::XalanVector", %"class.xalanc_1_10::XalanVector"* %this1, i32 0, i32 1, !dbg !1164
  store i64 0, i64* %m_size, align 8, !dbg !1164
  %m_allocation = getelementptr inbounds %"class.xalanc_1_10::XalanVector", %"class.xalanc_1_10::XalanVector"* %this1, i32 0, i32 2, !dbg !1165
  store i64 0, i64* %m_allocation, align 8, !dbg !1165
  %m_data = getelementptr inbounds %"class.xalanc_1_10::XalanVector", %"class.xalanc_1_10::XalanVector"* %this1, i32 0, i32 3, !dbg !1166
  store i8* null, i8** %m_data, align 8, !dbg !1166
  call void @llvm.dbg.declare(metadata %"class.xalanc_1_10::XalanVector"* %theTemp, metadata !1167, metadata !DIExpression()), !dbg !1169
  %1 = load %"class.xercesc_2_7::MemoryManager"*, %"class.xercesc_2_7::MemoryManager"** %theManager.addr, align 8, !dbg !1170
  call void @_ZN11xalanc_1_1011XalanVectorIcNS_31MemoryManagedConstructionTraitsIcEEEC2ERN11xercesc_2_713MemoryManagerEm(%"class.xalanc_1_10::XalanVector"* %theTemp, %"class.xercesc_2_7::MemoryManager"* dereferenceable(8) %1, i64 0), !dbg !1169
  %call = invoke i8* @_ZN11xalanc_1_1011XalanVectorIcNS_31MemoryManagedConstructionTraitsIcEEE5beginEv(%"class.xalanc_1_10::XalanVector"* %theTemp)
          to label %invoke.cont unwind label %lpad, !dbg !1171

invoke.cont:                                      ; preds = %entry
  %2 = load i64, i64* %theInsertSize.addr, align 8, !dbg !1172
  %3 = load i8*, i8** %theData.addr, align 8, !dbg !1173
  invoke void @_ZN11xalanc_1_1011XalanVectorIcNS_31MemoryManagedConstructionTraitsIcEEE6insertEPcmRKc(%"class.xalanc_1_10::XalanVector"* %theTemp, i8* %call, i64 %2, i8* dereferenceable(1) %3)
          to label %invoke.cont2 unwind label %lpad, !dbg !1174

invoke.cont2:                                     ; preds = %invoke.cont
  invoke void @_ZN11xalanc_1_1011XalanVectorIcNS_31MemoryManagedConstructionTraitsIcEEE4swapERS3_(%"class.xalanc_1_10::XalanVector"* %this1, %"class.xalanc_1_10::XalanVector"* dereferenceable(32) %theTemp)
          to label %invoke.cont3 unwind label %lpad, !dbg !1175

invoke.cont3:                                     ; preds = %invoke.cont2
  invoke void @_ZNK11xalanc_1_1011XalanVectorIcNS_31MemoryManagedConstructionTraitsIcEEE10invariantsEv(%"class.xalanc_1_10::XalanVector"* %this1)
          to label %invoke.cont4 unwind label %lpad, !dbg !1176

invoke.cont4:                                     ; preds = %invoke.cont3
  call void @_ZN11xalanc_1_1011XalanVectorIcNS_31MemoryManagedConstructionTraitsIcEEED2Ev(%"class.xalanc_1_10::XalanVector"* %theTemp) #5, !dbg !1177
  ret void, !dbg !1177

lpad:                                             ; preds = %invoke.cont3, %invoke.cont2, %invoke.cont, %entry
  %4 = landingpad { i8*, i32 }
          cleanup, !dbg !1178
  %5 = extractvalue { i8*, i32 } %4, 0, !dbg !1178
  store i8* %5, i8** %exn.slot, align 8, !dbg !1178
  %6 = extractvalue { i8*, i32 } %4, 1, !dbg !1178
  store i32 %6, i32* %ehselector.slot, align 4, !dbg !1178
  call void @_ZN11xalanc_1_1011XalanVectorIcNS_31MemoryManagedConstructionTraitsIcEEED2Ev(%"class.xalanc_1_10::XalanVector"* %theTemp) #5, !dbg !1177
  br label %eh.resume, !dbg !1177

eh.resume:                                        ; preds = %lpad
  %exn = load i8*, i8** %exn.slot, align 8, !dbg !1177
  %sel = load i32, i32* %ehselector.slot, align 4, !dbg !1177
  %lpad.val = insertvalue { i8*, i32 } undef, i8* %exn, 0, !dbg !1177
  %lpad.val5 = insertvalue { i8*, i32 } %lpad.val, i32 %sel, 1, !dbg !1177
  resume { i8*, i32 } %lpad.val5, !dbg !1177
}

; Function Attrs: noinline nounwind uwtable
define dso_local void @_ZN11xalanc_1_1011XalanBitmapD2Ev(%"class.xalanc_1_10::XalanBitmap"* %this) unnamed_addr #2 align 2 !dbg !1179 {
entry:
  %this.addr = alloca %"class.xalanc_1_10::XalanBitmap"*, align 8
  store %"class.xalanc_1_10::XalanBitmap"* %this, %"class.xalanc_1_10::XalanBitmap"** %this.addr, align 8
  call void @llvm.dbg.declare(metadata %"class.xalanc_1_10::XalanBitmap"** %this.addr, metadata !1180, metadata !DIExpression()), !dbg !1181
  %this1 = load %"class.xalanc_1_10::XalanBitmap"*, %"class.xalanc_1_10::XalanBitmap"** %this.addr, align 8
  %m_bitmap = getelementptr inbounds %"class.xalanc_1_10::XalanBitmap", %"class.xalanc_1_10::XalanBitmap"* %this1, i32 0, i32 1, !dbg !1182
  call void @_ZN11xalanc_1_1011XalanVectorIcNS_31MemoryManagedConstructionTraitsIcEEED2Ev(%"class.xalanc_1_10::XalanVector"* %m_bitmap) #5, !dbg !1182
  ret void, !dbg !1184
}

; Function Attrs: noinline nounwind uwtable
define linkonce_odr dso_local void @_ZN11xalanc_1_1011XalanVectorIcNS_31MemoryManagedConstructionTraitsIcEEED2Ev(%"class.xalanc_1_10::XalanVector"* %this) unnamed_addr #2 comdat align 2 personality i8* bitcast (i32 (...)* @__gxx_personality_v0 to i8*) !dbg !1185 {
entry:
  %this.addr = alloca %"class.xalanc_1_10::XalanVector"*, align 8
  store %"class.xalanc_1_10::XalanVector"* %this, %"class.xalanc_1_10::XalanVector"** %this.addr, align 8
  call void @llvm.dbg.declare(metadata %"class.xalanc_1_10::XalanVector"** %this.addr, metadata !1186, metadata !DIExpression()), !dbg !1187
  %this1 = load %"class.xalanc_1_10::XalanVector"*, %"class.xalanc_1_10::XalanVector"** %this.addr, align 8
  invoke void @_ZNK11xalanc_1_1011XalanVectorIcNS_31MemoryManagedConstructionTraitsIcEEE10invariantsEv(%"class.xalanc_1_10::XalanVector"* %this1)
          to label %invoke.cont unwind label %terminate.lpad, !dbg !1188

invoke.cont:                                      ; preds = %entry
  %m_allocation = getelementptr inbounds %"class.xalanc_1_10::XalanVector", %"class.xalanc_1_10::XalanVector"* %this1, i32 0, i32 2, !dbg !1190
  %0 = load i64, i64* %m_allocation, align 8, !dbg !1190
  %cmp = icmp ne i64 %0, 0, !dbg !1192
  br i1 %cmp, label %if.then, label %if.end, !dbg !1193

if.then:                                          ; preds = %invoke.cont
  %call = invoke i8* @_ZN11xalanc_1_1011XalanVectorIcNS_31MemoryManagedConstructionTraitsIcEEE5beginEv(%"class.xalanc_1_10::XalanVector"* %this1)
          to label %invoke.cont2 unwind label %terminate.lpad, !dbg !1194

invoke.cont2:                                     ; preds = %if.then
  %call4 = invoke i8* @_ZN11xalanc_1_1011XalanVectorIcNS_31MemoryManagedConstructionTraitsIcEEE3endEv(%"class.xalanc_1_10::XalanVector"* %this1)
          to label %invoke.cont3 unwind label %terminate.lpad, !dbg !1196

invoke.cont3:                                     ; preds = %invoke.cont2
  invoke void @_ZN11xalanc_1_1011XalanVectorIcNS_31MemoryManagedConstructionTraitsIcEEE7destroyEPcS4_(i8* %call, i8* %call4)
          to label %invoke.cont5 unwind label %terminate.lpad, !dbg !1197

invoke.cont5:                                     ; preds = %invoke.cont3
  %m_data = getelementptr inbounds %"class.xalanc_1_10::XalanVector", %"class.xalanc_1_10::XalanVector"* %this1, i32 0, i32 3, !dbg !1198
  %1 = load i8*, i8** %m_data, align 8, !dbg !1198
  invoke void @_ZN11xalanc_1_1011XalanVectorIcNS_31MemoryManagedConstructionTraitsIcEEE10deallocateEPc(%"class.xalanc_1_10::XalanVector"* %this1, i8* %1)
          to label %invoke.cont6 unwind label %terminate.lpad, !dbg !1199

invoke.cont6:                                     ; preds = %invoke.cont5
  br label %if.end, !dbg !1200

if.end:                                           ; preds = %invoke.cont6, %invoke.cont
  ret void, !dbg !1201

terminate.lpad:                                   ; preds = %invoke.cont5, %invoke.cont3, %invoke.cont2, %if.then, %entry
  %2 = landingpad { i8*, i32 }
          catch i8* null, !dbg !1188
  %3 = extractvalue { i8*, i32 } %2, 0, !dbg !1188
  call void @__clang_call_terminate(i8* %3) #6, !dbg !1188
  unreachable, !dbg !1188
}

; Function Attrs: noinline uwtable
define dso_local void @_ZN11xalanc_1_1011XalanBitmap8clearAllEv(%"class.xalanc_1_10::XalanBitmap"* %this) #0 align 2 !dbg !1202 {
entry:
  %this.addr = alloca %"class.xalanc_1_10::XalanBitmap"*, align 8
  %ref.tmp = alloca i8, align 1
  store %"class.xalanc_1_10::XalanBitmap"* %this, %"class.xalanc_1_10::XalanBitmap"** %this.addr, align 8
  call void @llvm.dbg.declare(metadata %"class.xalanc_1_10::XalanBitmap"** %this.addr, metadata !1203, metadata !DIExpression()), !dbg !1204
  %this1 = load %"class.xalanc_1_10::XalanBitmap"*, %"class.xalanc_1_10::XalanBitmap"** %this.addr, align 8
  %m_bitmap = getelementptr inbounds %"class.xalanc_1_10::XalanBitmap", %"class.xalanc_1_10::XalanBitmap"* %this1, i32 0, i32 1, !dbg !1205
  %call = call i8* @_ZN11xalanc_1_1011XalanVectorIcNS_31MemoryManagedConstructionTraitsIcEEE5beginEv(%"class.xalanc_1_10::XalanVector"* %m_bitmap), !dbg !1206
  %m_bitmap2 = getelementptr inbounds %"class.xalanc_1_10::XalanBitmap", %"class.xalanc_1_10::XalanBitmap"* %this1, i32 0, i32 1, !dbg !1207
  %call3 = call i8* @_ZN11xalanc_1_1011XalanVectorIcNS_31MemoryManagedConstructionTraitsIcEEE3endEv(%"class.xalanc_1_10::XalanVector"* %m_bitmap2), !dbg !1208
  store i8 0, i8* %ref.tmp, align 1, !dbg !1209
  call void @_ZSt4fillIPccEvT_S1_RKT0_(i8* %call, i8* %call3, i8* dereferenceable(1) %ref.tmp), !dbg !1210
  ret void, !dbg !1211
}

; Function Attrs: noinline uwtable
define linkonce_odr dso_local void @_ZSt4fillIPccEvT_S1_RKT0_(i8* %__first, i8* %__last, i8* dereferenceable(1) %__value) #0 comdat !dbg !1212 {
entry:
  %__first.addr = alloca i8*, align 8
  %__last.addr = alloca i8*, align 8
  %__value.addr = alloca i8*, align 8
  store i8* %__first, i8** %__first.addr, align 8
  call void @llvm.dbg.declare(metadata i8** %__first.addr, metadata !1220, metadata !DIExpression()), !dbg !1222
  store i8* %__last, i8** %__last.addr, align 8
  call void @llvm.dbg.declare(metadata i8** %__last.addr, metadata !1223, metadata !DIExpression()), !dbg !1224
  store i8* %__value, i8** %__value.addr, align 8
  call void @llvm.dbg.declare(metadata i8** %__value.addr, metadata !1225, metadata !DIExpression()), !dbg !1226
  %0 = load i8*, i8** %__first.addr, align 8, !dbg !1227
  %1 = load i8*, i8** %__last.addr, align 8, !dbg !1228
  %2 = load i8*, i8** %__value.addr, align 8, !dbg !1229
  call void @_ZSt8__fill_aIPccEvT_S1_RKT0_(i8* %0, i8* %1, i8* dereferenceable(1) %2), !dbg !1230
  ret void, !dbg !1231
}

; Function Attrs: noinline nounwind uwtable
define linkonce_odr dso_local i8* @_ZN11xalanc_1_1011XalanVectorIcNS_31MemoryManagedConstructionTraitsIcEEE5beginEv(%"class.xalanc_1_10::XalanVector"* %this) #2 comdat align 2 !dbg !1232 {
entry:
  %this.addr = alloca %"class.xalanc_1_10::XalanVector"*, align 8
  store %"class.xalanc_1_10::XalanVector"* %this, %"class.xalanc_1_10::XalanVector"** %this.addr, align 8
  call void @llvm.dbg.declare(metadata %"class.xalanc_1_10::XalanVector"** %this.addr, metadata !1233, metadata !DIExpression()), !dbg !1234
  %this1 = load %"class.xalanc_1_10::XalanVector"*, %"class.xalanc_1_10::XalanVector"** %this.addr, align 8
  call void @_ZNK11xalanc_1_1011XalanVectorIcNS_31MemoryManagedConstructionTraitsIcEEE10invariantsEv(%"class.xalanc_1_10::XalanVector"* %this1), !dbg !1235
  %m_data = getelementptr inbounds %"class.xalanc_1_10::XalanVector", %"class.xalanc_1_10::XalanVector"* %this1, i32 0, i32 3, !dbg !1236
  %0 = load i8*, i8** %m_data, align 8, !dbg !1236
  ret i8* %0, !dbg !1237
}

; Function Attrs: noinline nounwind uwtable
define linkonce_odr dso_local i8* @_ZN11xalanc_1_1011XalanVectorIcNS_31MemoryManagedConstructionTraitsIcEEE3endEv(%"class.xalanc_1_10::XalanVector"* %this) #2 comdat align 2 !dbg !1238 {
entry:
  %this.addr = alloca %"class.xalanc_1_10::XalanVector"*, align 8
  store %"class.xalanc_1_10::XalanVector"* %this, %"class.xalanc_1_10::XalanVector"** %this.addr, align 8
  call void @llvm.dbg.declare(metadata %"class.xalanc_1_10::XalanVector"** %this.addr, metadata !1239, metadata !DIExpression()), !dbg !1240
  %this1 = load %"class.xalanc_1_10::XalanVector"*, %"class.xalanc_1_10::XalanVector"** %this.addr, align 8
  call void @_ZNK11xalanc_1_1011XalanVectorIcNS_31MemoryManagedConstructionTraitsIcEEE10invariantsEv(%"class.xalanc_1_10::XalanVector"* %this1), !dbg !1241
  %call = call i8* @_ZN11xalanc_1_1011XalanVectorIcNS_31MemoryManagedConstructionTraitsIcEEE10endPointerEv(%"class.xalanc_1_10::XalanVector"* %this1), !dbg !1242
  ret i8* %call, !dbg !1243
}

; Function Attrs: noinline uwtable
define linkonce_odr dso_local void @_ZN11xalanc_1_1011XalanVectorIcNS_31MemoryManagedConstructionTraitsIcEEEC2ERN11xercesc_2_713MemoryManagerEm(%"class.xalanc_1_10::XalanVector"* %this, %"class.xercesc_2_7::MemoryManager"* dereferenceable(8) %theManager, i64 %initialAllocation) unnamed_addr #0 comdat align 2 !dbg !1244 {
entry:
  %this.addr = alloca %"class.xalanc_1_10::XalanVector"*, align 8
  %theManager.addr = alloca %"class.xercesc_2_7::MemoryManager"*, align 8
  %initialAllocation.addr = alloca i64, align 8
  store %"class.xalanc_1_10::XalanVector"* %this, %"class.xalanc_1_10::XalanVector"** %this.addr, align 8
  call void @llvm.dbg.declare(metadata %"class.xalanc_1_10::XalanVector"** %this.addr, metadata !1245, metadata !DIExpression()), !dbg !1246
  store %"class.xercesc_2_7::MemoryManager"* %theManager, %"class.xercesc_2_7::MemoryManager"** %theManager.addr, align 8
  call void @llvm.dbg.declare(metadata %"class.xercesc_2_7::MemoryManager"** %theManager.addr, metadata !1247, metadata !DIExpression()), !dbg !1248
  store i64 %initialAllocation, i64* %initialAllocation.addr, align 8
  call void @llvm.dbg.declare(metadata i64* %initialAllocation.addr, metadata !1249, metadata !DIExpression()), !dbg !1250
  %this1 = load %"class.xalanc_1_10::XalanVector"*, %"class.xalanc_1_10::XalanVector"** %this.addr, align 8
  %m_memoryManager = getelementptr inbounds %"class.xalanc_1_10::XalanVector", %"class.xalanc_1_10::XalanVector"* %this1, i32 0, i32 0, !dbg !1251
  %0 = load %"class.xercesc_2_7::MemoryManager"*, %"class.xercesc_2_7::MemoryManager"** %theManager.addr, align 8, !dbg !1252
  store %"class.xercesc_2_7::MemoryManager"* %0, %"class.xercesc_2_7::MemoryManager"** %m_memoryManager, align 8, !dbg !1251
  %m_size = getelementptr inbounds %"class.xalanc_1_10::XalanVector", %"class.xalanc_1_10::XalanVector"* %this1, i32 0, i32 1, !dbg !1253
  store i64 0, i64* %m_size, align 8, !dbg !1253
  %m_allocation = getelementptr inbounds %"class.xalanc_1_10::XalanVector", %"class.xalanc_1_10::XalanVector"* %this1, i32 0, i32 2, !dbg !1254
  %1 = load i64, i64* %initialAllocation.addr, align 8, !dbg !1255
  store i64 %1, i64* %m_allocation, align 8, !dbg !1254
  %m_data = getelementptr inbounds %"class.xalanc_1_10::XalanVector", %"class.xalanc_1_10::XalanVector"* %this1, i32 0, i32 3, !dbg !1256
  %2 = load i64, i64* %initialAllocation.addr, align 8, !dbg !1257
  %cmp = icmp ugt i64 %2, 0, !dbg !1258
  br i1 %cmp, label %cond.true, label %cond.false, !dbg !1257

cond.true:                                        ; preds = %entry
  %3 = load i64, i64* %initialAllocation.addr, align 8, !dbg !1259
  %call = call i8* @_ZN11xalanc_1_1011XalanVectorIcNS_31MemoryManagedConstructionTraitsIcEEE8allocateEm(%"class.xalanc_1_10::XalanVector"* %this1, i64 %3), !dbg !1260
  br label %cond.end, !dbg !1257

cond.false:                                       ; preds = %entry
  br label %cond.end, !dbg !1257

cond.end:                                         ; preds = %cond.false, %cond.true
  %cond = phi i8* [ %call, %cond.true ], [ null, %cond.false ], !dbg !1257
  store i8* %cond, i8** %m_data, align 8, !dbg !1256
  call void @_ZNK11xalanc_1_1011XalanVectorIcNS_31MemoryManagedConstructionTraitsIcEEE10invariantsEv(%"class.xalanc_1_10::XalanVector"* %this1), !dbg !1261
  ret void, !dbg !1263
}

; Function Attrs: noinline uwtable
define linkonce_odr dso_local void @_ZN11xalanc_1_1011XalanVectorIcNS_31MemoryManagedConstructionTraitsIcEEE6insertEPcmRKc(%"class.xalanc_1_10::XalanVector"* %this, i8* %thePosition, i64 %theCount, i8* dereferenceable(1) %theData) #0 comdat align 2 personality i8* bitcast (i32 (...)* @__gxx_personality_v0 to i8*) !dbg !1264 {
entry:
  %this.addr = alloca %"class.xalanc_1_10::XalanVector"*, align 8
  %thePosition.addr = alloca i8*, align 8
  %theCount.addr = alloca i64, align 8
  %theData.addr = alloca i8*, align 8
  %theTotalSize = alloca i64, align 8
  %thePointer = alloca i8*, align 8
  %index = alloca i64, align 8
  %theTemp = alloca %"class.xalanc_1_10::XalanVector", align 8
  %exn.slot = alloca i8*
  %ehselector.slot = alloca i32
  %theOriginalEnd = alloca i8*, align 8
  %theRightSplitSize = alloca i64, align 8
  %i = alloca i64, align 8
  %toInsertIter = alloca i8*, align 8
  %toMoveIter = alloca i8*, align 8
  store %"class.xalanc_1_10::XalanVector"* %this, %"class.xalanc_1_10::XalanVector"** %this.addr, align 8
  call void @llvm.dbg.declare(metadata %"class.xalanc_1_10::XalanVector"** %this.addr, metadata !1265, metadata !DIExpression()), !dbg !1266
  store i8* %thePosition, i8** %thePosition.addr, align 8
  call void @llvm.dbg.declare(metadata i8** %thePosition.addr, metadata !1267, metadata !DIExpression()), !dbg !1268
  store i64 %theCount, i64* %theCount.addr, align 8
  call void @llvm.dbg.declare(metadata i64* %theCount.addr, metadata !1269, metadata !DIExpression()), !dbg !1270
  store i8* %theData, i8** %theData.addr, align 8
  call void @llvm.dbg.declare(metadata i8** %theData.addr, metadata !1271, metadata !DIExpression()), !dbg !1272
  %this1 = load %"class.xalanc_1_10::XalanVector"*, %"class.xalanc_1_10::XalanVector"** %this.addr, align 8
  call void @_ZNK11xalanc_1_1011XalanVectorIcNS_31MemoryManagedConstructionTraitsIcEEE10invariantsEv(%"class.xalanc_1_10::XalanVector"* %this1), !dbg !1273
  call void @llvm.dbg.declare(metadata i64* %theTotalSize, metadata !1274, metadata !DIExpression()), !dbg !1276
  %call = call i64 @_ZNK11xalanc_1_1011XalanVectorIcNS_31MemoryManagedConstructionTraitsIcEEE4sizeEv(%"class.xalanc_1_10::XalanVector"* %this1), !dbg !1277
  %0 = load i64, i64* %theCount.addr, align 8, !dbg !1278
  %add = add i64 %call, %0, !dbg !1279
  store i64 %add, i64* %theTotalSize, align 8, !dbg !1276
  %1 = load i8*, i8** %thePosition.addr, align 8, !dbg !1280
  %call2 = call i8* @_ZN11xalanc_1_1011XalanVectorIcNS_31MemoryManagedConstructionTraitsIcEEE3endEv(%"class.xalanc_1_10::XalanVector"* %this1), !dbg !1282
  %cmp = icmp eq i8* %1, %call2, !dbg !1283
  br i1 %cmp, label %if.then, label %if.else, !dbg !1284

if.then:                                          ; preds = %entry
  call void @llvm.dbg.declare(metadata i8** %thePointer, metadata !1285, metadata !DIExpression()), !dbg !1287
  %2 = load i64, i64* %theTotalSize, align 8, !dbg !1288
  %call3 = call i8* @_ZN11xalanc_1_1011XalanVectorIcNS_31MemoryManagedConstructionTraitsIcEEE14ensureCapacityEm(%"class.xalanc_1_10::XalanVector"* %this1, i64 %2), !dbg !1289
  store i8* %call3, i8** %thePointer, align 8, !dbg !1287
  call void @llvm.dbg.declare(metadata i64* %index, metadata !1290, metadata !DIExpression()), !dbg !1292
  store i64 0, i64* %index, align 8, !dbg !1292
  br label %for.cond, !dbg !1293

for.cond:                                         ; preds = %for.inc, %if.then
  %3 = load i64, i64* %index, align 8, !dbg !1294
  %4 = load i64, i64* %theCount.addr, align 8, !dbg !1296
  %cmp4 = icmp ult i64 %3, %4, !dbg !1297
  br i1 %cmp4, label %for.body, label %for.end, !dbg !1298

for.body:                                         ; preds = %for.cond
  %5 = load i8*, i8** %thePointer, align 8, !dbg !1299
  %6 = load i8*, i8** %theData.addr, align 8, !dbg !1301
  %m_memoryManager = getelementptr inbounds %"class.xalanc_1_10::XalanVector", %"class.xalanc_1_10::XalanVector"* %this1, i32 0, i32 0, !dbg !1302
  %7 = load %"class.xercesc_2_7::MemoryManager"*, %"class.xercesc_2_7::MemoryManager"** %m_memoryManager, align 8, !dbg !1302
  %call5 = call i8* @_ZN11xalanc_1_1028ConstructWithNoMemoryManagerIcE9constructEPcRKcRN11xercesc_2_713MemoryManagerE(i8* %5, i8* dereferenceable(1) %6, %"class.xercesc_2_7::MemoryManager"* dereferenceable(8) %7), !dbg !1303
  %8 = load i8*, i8** %thePointer, align 8, !dbg !1304
  %incdec.ptr = getelementptr inbounds i8, i8* %8, i32 1, !dbg !1304
  store i8* %incdec.ptr, i8** %thePointer, align 8, !dbg !1304
  %m_size = getelementptr inbounds %"class.xalanc_1_10::XalanVector", %"class.xalanc_1_10::XalanVector"* %this1, i32 0, i32 1, !dbg !1305
  %9 = load i64, i64* %m_size, align 8, !dbg !1306
  %inc = add i64 %9, 1, !dbg !1306
  store i64 %inc, i64* %m_size, align 8, !dbg !1306
  br label %for.inc, !dbg !1307

for.inc:                                          ; preds = %for.body
  %10 = load i64, i64* %index, align 8, !dbg !1308
  %inc6 = add i64 %10, 1, !dbg !1308
  store i64 %inc6, i64* %index, align 8, !dbg !1308
  br label %for.cond, !dbg !1309, !llvm.loop !1310

for.end:                                          ; preds = %for.cond
  br label %if.end50, !dbg !1312

if.else:                                          ; preds = %entry
  %11 = load i64, i64* %theTotalSize, align 8, !dbg !1313
  %call7 = call i64 @_ZNK11xalanc_1_1011XalanVectorIcNS_31MemoryManagedConstructionTraitsIcEEE8capacityEv(%"class.xalanc_1_10::XalanVector"* %this1), !dbg !1316
  %cmp8 = icmp ugt i64 %11, %call7, !dbg !1317
  br i1 %cmp8, label %if.then9, label %if.else24, !dbg !1318

if.then9:                                         ; preds = %if.else
  call void @llvm.dbg.declare(metadata %"class.xalanc_1_10::XalanVector"* %theTemp, metadata !1319, metadata !DIExpression()), !dbg !1321
  %m_memoryManager10 = getelementptr inbounds %"class.xalanc_1_10::XalanVector", %"class.xalanc_1_10::XalanVector"* %this1, i32 0, i32 0, !dbg !1322
  %12 = load %"class.xercesc_2_7::MemoryManager"*, %"class.xercesc_2_7::MemoryManager"** %m_memoryManager10, align 8, !dbg !1322
  %13 = load i64, i64* %theTotalSize, align 8, !dbg !1323
  call void @_ZN11xalanc_1_1011XalanVectorIcNS_31MemoryManagedConstructionTraitsIcEEEC2ERN11xercesc_2_713MemoryManagerEm(%"class.xalanc_1_10::XalanVector"* %theTemp, %"class.xercesc_2_7::MemoryManager"* dereferenceable(8) %12, i64 %13), !dbg !1321
  %call11 = invoke i8* @_ZN11xalanc_1_1011XalanVectorIcNS_31MemoryManagedConstructionTraitsIcEEE3endEv(%"class.xalanc_1_10::XalanVector"* %theTemp)
          to label %invoke.cont unwind label %lpad, !dbg !1324

invoke.cont:                                      ; preds = %if.then9
  %call13 = invoke i8* @_ZN11xalanc_1_1011XalanVectorIcNS_31MemoryManagedConstructionTraitsIcEEE5beginEv(%"class.xalanc_1_10::XalanVector"* %this1)
          to label %invoke.cont12 unwind label %lpad, !dbg !1325

invoke.cont12:                                    ; preds = %invoke.cont
  %14 = load i8*, i8** %thePosition.addr, align 8, !dbg !1326
  invoke void @_ZN11xalanc_1_1011XalanVectorIcNS_31MemoryManagedConstructionTraitsIcEEE6insertEPcPKcS6_(%"class.xalanc_1_10::XalanVector"* %theTemp, i8* %call11, i8* %call13, i8* %14)
          to label %invoke.cont14 unwind label %lpad, !dbg !1327

invoke.cont14:                                    ; preds = %invoke.cont12
  %call16 = invoke i8* @_ZN11xalanc_1_1011XalanVectorIcNS_31MemoryManagedConstructionTraitsIcEEE3endEv(%"class.xalanc_1_10::XalanVector"* %theTemp)
          to label %invoke.cont15 unwind label %lpad, !dbg !1328

invoke.cont15:                                    ; preds = %invoke.cont14
  %15 = load i64, i64* %theCount.addr, align 8, !dbg !1329
  %16 = load i8*, i8** %theData.addr, align 8, !dbg !1330
  invoke void @_ZN11xalanc_1_1011XalanVectorIcNS_31MemoryManagedConstructionTraitsIcEEE6insertEPcmRKc(%"class.xalanc_1_10::XalanVector"* %theTemp, i8* %call16, i64 %15, i8* dereferenceable(1) %16)
          to label %invoke.cont17 unwind label %lpad, !dbg !1331

invoke.cont17:                                    ; preds = %invoke.cont15
  %call19 = invoke i8* @_ZN11xalanc_1_1011XalanVectorIcNS_31MemoryManagedConstructionTraitsIcEEE3endEv(%"class.xalanc_1_10::XalanVector"* %theTemp)
          to label %invoke.cont18 unwind label %lpad, !dbg !1332

invoke.cont18:                                    ; preds = %invoke.cont17
  %17 = load i8*, i8** %thePosition.addr, align 8, !dbg !1333
  %call21 = invoke i8* @_ZN11xalanc_1_1011XalanVectorIcNS_31MemoryManagedConstructionTraitsIcEEE3endEv(%"class.xalanc_1_10::XalanVector"* %this1)
          to label %invoke.cont20 unwind label %lpad, !dbg !1334

invoke.cont20:                                    ; preds = %invoke.cont18
  invoke void @_ZN11xalanc_1_1011XalanVectorIcNS_31MemoryManagedConstructionTraitsIcEEE6insertEPcPKcS6_(%"class.xalanc_1_10::XalanVector"* %theTemp, i8* %call19, i8* %17, i8* %call21)
          to label %invoke.cont22 unwind label %lpad, !dbg !1335

invoke.cont22:                                    ; preds = %invoke.cont20
  invoke void @_ZN11xalanc_1_1011XalanVectorIcNS_31MemoryManagedConstructionTraitsIcEEE4swapERS3_(%"class.xalanc_1_10::XalanVector"* %this1, %"class.xalanc_1_10::XalanVector"* dereferenceable(32) %theTemp)
          to label %invoke.cont23 unwind label %lpad, !dbg !1336

invoke.cont23:                                    ; preds = %invoke.cont22
  call void @_ZN11xalanc_1_1011XalanVectorIcNS_31MemoryManagedConstructionTraitsIcEEED2Ev(%"class.xalanc_1_10::XalanVector"* %theTemp) #5, !dbg !1337
  br label %if.end49, !dbg !1338

lpad:                                             ; preds = %invoke.cont22, %invoke.cont20, %invoke.cont18, %invoke.cont17, %invoke.cont15, %invoke.cont14, %invoke.cont12, %invoke.cont, %if.then9
  %18 = landingpad { i8*, i32 }
          cleanup, !dbg !1339
  %19 = extractvalue { i8*, i32 } %18, 0, !dbg !1339
  store i8* %19, i8** %exn.slot, align 8, !dbg !1339
  %20 = extractvalue { i8*, i32 } %18, 1, !dbg !1339
  store i32 %20, i32* %ehselector.slot, align 4, !dbg !1339
  call void @_ZN11xalanc_1_1011XalanVectorIcNS_31MemoryManagedConstructionTraitsIcEEED2Ev(%"class.xalanc_1_10::XalanVector"* %theTemp) #5, !dbg !1337
  br label %eh.resume, !dbg !1337

if.else24:                                        ; preds = %if.else
  call void @llvm.dbg.declare(metadata i8** %theOriginalEnd, metadata !1340, metadata !DIExpression()), !dbg !1343
  %call25 = call i8* @_ZN11xalanc_1_1011XalanVectorIcNS_31MemoryManagedConstructionTraitsIcEEE3endEv(%"class.xalanc_1_10::XalanVector"* %this1), !dbg !1344
  store i8* %call25, i8** %theOriginalEnd, align 8, !dbg !1343
  call void @llvm.dbg.declare(metadata i64* %theRightSplitSize, metadata !1345, metadata !DIExpression()), !dbg !1346
  %21 = load i8*, i8** %thePosition.addr, align 8, !dbg !1347
  %22 = load i8*, i8** %theOriginalEnd, align 8, !dbg !1348
  %call26 = call i64 @_ZN11xalanc_1_1011XalanVectorIcNS_31MemoryManagedConstructionTraitsIcEEE14local_distanceEPKcS5_(%"class.xalanc_1_10::XalanVector"* %this1, i8* %21, i8* %22), !dbg !1349
  store i64 %call26, i64* %theRightSplitSize, align 8, !dbg !1346
  %23 = load i64, i64* %theRightSplitSize, align 8, !dbg !1350
  %24 = load i64, i64* %theCount.addr, align 8, !dbg !1352
  %cmp27 = icmp ule i64 %23, %24, !dbg !1353
  br i1 %cmp27, label %if.then28, label %if.else37, !dbg !1354

if.then28:                                        ; preds = %if.else24
  call void @llvm.dbg.declare(metadata i64* %i, metadata !1355, metadata !DIExpression()), !dbg !1358
  store i64 0, i64* %i, align 8, !dbg !1358
  br label %for.cond29, !dbg !1359

for.cond29:                                       ; preds = %for.inc32, %if.then28
  %25 = load i64, i64* %i, align 8, !dbg !1360
  %26 = load i64, i64* %theCount.addr, align 8, !dbg !1362
  %27 = load i64, i64* %theRightSplitSize, align 8, !dbg !1363
  %sub = sub i64 %26, %27, !dbg !1364
  %cmp30 = icmp ult i64 %25, %sub, !dbg !1365
  br i1 %cmp30, label %for.body31, label %for.end34, !dbg !1366

for.body31:                                       ; preds = %for.cond29
  %28 = load i8*, i8** %theData.addr, align 8, !dbg !1367
  call void @_ZN11xalanc_1_1011XalanVectorIcNS_31MemoryManagedConstructionTraitsIcEEE10doPushBackERKc(%"class.xalanc_1_10::XalanVector"* %this1, i8* dereferenceable(1) %28), !dbg !1369
  br label %for.inc32, !dbg !1370

for.inc32:                                        ; preds = %for.body31
  %29 = load i64, i64* %i, align 8, !dbg !1371
  %inc33 = add i64 %29, 1, !dbg !1371
  store i64 %inc33, i64* %i, align 8, !dbg !1371
  br label %for.cond29, !dbg !1372, !llvm.loop !1373

for.end34:                                        ; preds = %for.cond29
  call void @llvm.dbg.declare(metadata i8** %toInsertIter, metadata !1375, metadata !DIExpression()), !dbg !1376
  %30 = load i8*, i8** %thePosition.addr, align 8, !dbg !1377
  store i8* %30, i8** %toInsertIter, align 8, !dbg !1376
  br label %while.cond, !dbg !1378

while.cond:                                       ; preds = %while.body, %for.end34
  %31 = load i8*, i8** %toInsertIter, align 8, !dbg !1379
  %32 = load i8*, i8** %theOriginalEnd, align 8, !dbg !1380
  %cmp35 = icmp ne i8* %31, %32, !dbg !1381
  br i1 %cmp35, label %while.body, label %while.end, !dbg !1378

while.body:                                       ; preds = %while.cond
  %33 = load i8*, i8** %toInsertIter, align 8, !dbg !1382
  call void @_ZN11xalanc_1_1011XalanVectorIcNS_31MemoryManagedConstructionTraitsIcEEE10doPushBackERKc(%"class.xalanc_1_10::XalanVector"* %this1, i8* dereferenceable(1) %33), !dbg !1384
  %34 = load i8*, i8** %toInsertIter, align 8, !dbg !1385
  %incdec.ptr36 = getelementptr inbounds i8, i8* %34, i32 1, !dbg !1385
  store i8* %incdec.ptr36, i8** %toInsertIter, align 8, !dbg !1385
  br label %while.cond, !dbg !1378, !llvm.loop !1386

while.end:                                        ; preds = %while.cond
  %35 = load i8*, i8** %thePosition.addr, align 8, !dbg !1388
  %36 = load i8*, i8** %thePosition.addr, align 8, !dbg !1389
  %37 = load i64, i64* %theRightSplitSize, align 8, !dbg !1390
  %add.ptr = getelementptr inbounds i8, i8* %36, i64 %37, !dbg !1391
  %38 = load i8*, i8** %theData.addr, align 8, !dbg !1392
  call void @_ZSt4fillIPccEvT_S1_RKT0_(i8* %35, i8* %add.ptr, i8* dereferenceable(1) %38), !dbg !1393
  br label %if.end, !dbg !1394

if.else37:                                        ; preds = %if.else24
  call void @llvm.dbg.declare(metadata i8** %toMoveIter, metadata !1395, metadata !DIExpression()), !dbg !1397
  %call38 = call i8* @_ZN11xalanc_1_1011XalanVectorIcNS_31MemoryManagedConstructionTraitsIcEEE3endEv(%"class.xalanc_1_10::XalanVector"* %this1), !dbg !1398
  %39 = load i64, i64* %theCount.addr, align 8, !dbg !1399
  %idx.neg = sub i64 0, %39, !dbg !1400
  %add.ptr39 = getelementptr inbounds i8, i8* %call38, i64 %idx.neg, !dbg !1400
  store i8* %add.ptr39, i8** %toMoveIter, align 8, !dbg !1397
  br label %while.cond40, !dbg !1401

while.cond40:                                     ; preds = %while.body42, %if.else37
  %40 = load i8*, i8** %toMoveIter, align 8, !dbg !1402
  %41 = load i8*, i8** %theOriginalEnd, align 8, !dbg !1403
  %cmp41 = icmp ne i8* %40, %41, !dbg !1404
  br i1 %cmp41, label %while.body42, label %while.end44, !dbg !1401

while.body42:                                     ; preds = %while.cond40
  %42 = load i8*, i8** %toMoveIter, align 8, !dbg !1405
  call void @_ZN11xalanc_1_1011XalanVectorIcNS_31MemoryManagedConstructionTraitsIcEEE10doPushBackERKc(%"class.xalanc_1_10::XalanVector"* %this1, i8* dereferenceable(1) %42), !dbg !1407
  %43 = load i8*, i8** %toMoveIter, align 8, !dbg !1408
  %incdec.ptr43 = getelementptr inbounds i8, i8* %43, i32 1, !dbg !1408
  store i8* %incdec.ptr43, i8** %toMoveIter, align 8, !dbg !1408
  br label %while.cond40, !dbg !1401, !llvm.loop !1409

while.end44:                                      ; preds = %while.cond40
  %44 = load i8*, i8** %thePosition.addr, align 8, !dbg !1411
  %45 = load i8*, i8** %theOriginalEnd, align 8, !dbg !1412
  %46 = load i64, i64* %theCount.addr, align 8, !dbg !1413
  %idx.neg45 = sub i64 0, %46, !dbg !1414
  %add.ptr46 = getelementptr inbounds i8, i8* %45, i64 %idx.neg45, !dbg !1414
  %47 = load i8*, i8** %theOriginalEnd, align 8, !dbg !1415
  %call47 = call i8* @_ZSt13copy_backwardIPcS0_ET0_T_S2_S1_(i8* %44, i8* %add.ptr46, i8* %47), !dbg !1416
  %48 = load i8*, i8** %thePosition.addr, align 8, !dbg !1417
  %49 = load i8*, i8** %thePosition.addr, align 8, !dbg !1418
  %50 = load i64, i64* %theCount.addr, align 8, !dbg !1419
  %add.ptr48 = getelementptr inbounds i8, i8* %49, i64 %50, !dbg !1420
  %51 = load i8*, i8** %theData.addr, align 8, !dbg !1421
  call void @_ZSt4fillIPccEvT_S1_RKT0_(i8* %48, i8* %add.ptr48, i8* dereferenceable(1) %51), !dbg !1422
  br label %if.end

if.end:                                           ; preds = %while.end44, %while.end
  br label %if.end49

if.end49:                                         ; preds = %if.end, %invoke.cont23
  br label %if.end50

if.end50:                                         ; preds = %if.end49, %for.end
  call void @_ZNK11xalanc_1_1011XalanVectorIcNS_31MemoryManagedConstructionTraitsIcEEE10invariantsEv(%"class.xalanc_1_10::XalanVector"* %this1), !dbg !1423
  ret void, !dbg !1424

eh.resume:                                        ; preds = %lpad
  %exn = load i8*, i8** %exn.slot, align 8, !dbg !1337
  %sel = load i32, i32* %ehselector.slot, align 4, !dbg !1337
  %lpad.val = insertvalue { i8*, i32 } undef, i8* %exn, 0, !dbg !1337
  %lpad.val51 = insertvalue { i8*, i32 } %lpad.val, i32 %sel, 1, !dbg !1337
  resume { i8*, i32 } %lpad.val51, !dbg !1337
}

declare dso_local i32 @__gxx_personality_v0(...)

; Function Attrs: noinline uwtable
define linkonce_odr dso_local void @_ZN11xalanc_1_1011XalanVectorIcNS_31MemoryManagedConstructionTraitsIcEEE4swapERS3_(%"class.xalanc_1_10::XalanVector"* %this, %"class.xalanc_1_10::XalanVector"* dereferenceable(32) %theOther) #0 comdat align 2 !dbg !1425 {
entry:
  %this.addr = alloca %"class.xalanc_1_10::XalanVector"*, align 8
  %theOther.addr = alloca %"class.xalanc_1_10::XalanVector"*, align 8
  %theTempManager = alloca %"class.xercesc_2_7::MemoryManager"*, align 8
  %theTempLength = alloca i64, align 8
  %theTempAllocation = alloca i64, align 8
  %theTempData = alloca i8*, align 8
  store %"class.xalanc_1_10::XalanVector"* %this, %"class.xalanc_1_10::XalanVector"** %this.addr, align 8
  call void @llvm.dbg.declare(metadata %"class.xalanc_1_10::XalanVector"** %this.addr, metadata !1426, metadata !DIExpression()), !dbg !1427
  store %"class.xalanc_1_10::XalanVector"* %theOther, %"class.xalanc_1_10::XalanVector"** %theOther.addr, align 8
  call void @llvm.dbg.declare(metadata %"class.xalanc_1_10::XalanVector"** %theOther.addr, metadata !1428, metadata !DIExpression()), !dbg !1429
  %this1 = load %"class.xalanc_1_10::XalanVector"*, %"class.xalanc_1_10::XalanVector"** %this.addr, align 8
  call void @_ZNK11xalanc_1_1011XalanVectorIcNS_31MemoryManagedConstructionTraitsIcEEE10invariantsEv(%"class.xalanc_1_10::XalanVector"* %this1), !dbg !1430
  call void @llvm.dbg.declare(metadata %"class.xercesc_2_7::MemoryManager"** %theTempManager, metadata !1431, metadata !DIExpression()), !dbg !1433
  %m_memoryManager = getelementptr inbounds %"class.xalanc_1_10::XalanVector", %"class.xalanc_1_10::XalanVector"* %this1, i32 0, i32 0, !dbg !1434
  %0 = load %"class.xercesc_2_7::MemoryManager"*, %"class.xercesc_2_7::MemoryManager"** %m_memoryManager, align 8, !dbg !1434
  store %"class.xercesc_2_7::MemoryManager"* %0, %"class.xercesc_2_7::MemoryManager"** %theTempManager, align 8, !dbg !1433
  call void @llvm.dbg.declare(metadata i64* %theTempLength, metadata !1435, metadata !DIExpression()), !dbg !1436
  %m_size = getelementptr inbounds %"class.xalanc_1_10::XalanVector", %"class.xalanc_1_10::XalanVector"* %this1, i32 0, i32 1, !dbg !1437
  %1 = load i64, i64* %m_size, align 8, !dbg !1437
  store i64 %1, i64* %theTempLength, align 8, !dbg !1436
  call void @llvm.dbg.declare(metadata i64* %theTempAllocation, metadata !1438, metadata !DIExpression()), !dbg !1439
  %m_allocation = getelementptr inbounds %"class.xalanc_1_10::XalanVector", %"class.xalanc_1_10::XalanVector"* %this1, i32 0, i32 2, !dbg !1440
  %2 = load i64, i64* %m_allocation, align 8, !dbg !1440
  store i64 %2, i64* %theTempAllocation, align 8, !dbg !1439
  call void @llvm.dbg.declare(metadata i8** %theTempData, metadata !1441, metadata !DIExpression()), !dbg !1443
  %m_data = getelementptr inbounds %"class.xalanc_1_10::XalanVector", %"class.xalanc_1_10::XalanVector"* %this1, i32 0, i32 3, !dbg !1444
  %3 = load i8*, i8** %m_data, align 8, !dbg !1444
  store i8* %3, i8** %theTempData, align 8, !dbg !1443
  %4 = load %"class.xalanc_1_10::XalanVector"*, %"class.xalanc_1_10::XalanVector"** %theOther.addr, align 8, !dbg !1445
  %m_memoryManager2 = getelementptr inbounds %"class.xalanc_1_10::XalanVector", %"class.xalanc_1_10::XalanVector"* %4, i32 0, i32 0, !dbg !1446
  %5 = load %"class.xercesc_2_7::MemoryManager"*, %"class.xercesc_2_7::MemoryManager"** %m_memoryManager2, align 8, !dbg !1446
  %m_memoryManager3 = getelementptr inbounds %"class.xalanc_1_10::XalanVector", %"class.xalanc_1_10::XalanVector"* %this1, i32 0, i32 0, !dbg !1447
  store %"class.xercesc_2_7::MemoryManager"* %5, %"class.xercesc_2_7::MemoryManager"** %m_memoryManager3, align 8, !dbg !1448
  %6 = load %"class.xalanc_1_10::XalanVector"*, %"class.xalanc_1_10::XalanVector"** %theOther.addr, align 8, !dbg !1449
  %m_size4 = getelementptr inbounds %"class.xalanc_1_10::XalanVector", %"class.xalanc_1_10::XalanVector"* %6, i32 0, i32 1, !dbg !1450
  %7 = load i64, i64* %m_size4, align 8, !dbg !1450
  %m_size5 = getelementptr inbounds %"class.xalanc_1_10::XalanVector", %"class.xalanc_1_10::XalanVector"* %this1, i32 0, i32 1, !dbg !1451
  store i64 %7, i64* %m_size5, align 8, !dbg !1452
  %8 = load %"class.xalanc_1_10::XalanVector"*, %"class.xalanc_1_10::XalanVector"** %theOther.addr, align 8, !dbg !1453
  %m_allocation6 = getelementptr inbounds %"class.xalanc_1_10::XalanVector", %"class.xalanc_1_10::XalanVector"* %8, i32 0, i32 2, !dbg !1454
  %9 = load i64, i64* %m_allocation6, align 8, !dbg !1454
  %m_allocation7 = getelementptr inbounds %"class.xalanc_1_10::XalanVector", %"class.xalanc_1_10::XalanVector"* %this1, i32 0, i32 2, !dbg !1455
  store i64 %9, i64* %m_allocation7, align 8, !dbg !1456
  %10 = load %"class.xalanc_1_10::XalanVector"*, %"class.xalanc_1_10::XalanVector"** %theOther.addr, align 8, !dbg !1457
  %m_data8 = getelementptr inbounds %"class.xalanc_1_10::XalanVector", %"class.xalanc_1_10::XalanVector"* %10, i32 0, i32 3, !dbg !1458
  %11 = load i8*, i8** %m_data8, align 8, !dbg !1458
  %m_data9 = getelementptr inbounds %"class.xalanc_1_10::XalanVector", %"class.xalanc_1_10::XalanVector"* %this1, i32 0, i32 3, !dbg !1459
  store i8* %11, i8** %m_data9, align 8, !dbg !1460
  %12 = load %"class.xercesc_2_7::MemoryManager"*, %"class.xercesc_2_7::MemoryManager"** %theTempManager, align 8, !dbg !1461
  %13 = load %"class.xalanc_1_10::XalanVector"*, %"class.xalanc_1_10::XalanVector"** %theOther.addr, align 8, !dbg !1462
  %m_memoryManager10 = getelementptr inbounds %"class.xalanc_1_10::XalanVector", %"class.xalanc_1_10::XalanVector"* %13, i32 0, i32 0, !dbg !1463
  store %"class.xercesc_2_7::MemoryManager"* %12, %"class.xercesc_2_7::MemoryManager"** %m_memoryManager10, align 8, !dbg !1464
  %14 = load i64, i64* %theTempLength, align 8, !dbg !1465
  %15 = load %"class.xalanc_1_10::XalanVector"*, %"class.xalanc_1_10::XalanVector"** %theOther.addr, align 8, !dbg !1466
  %m_size11 = getelementptr inbounds %"class.xalanc_1_10::XalanVector", %"class.xalanc_1_10::XalanVector"* %15, i32 0, i32 1, !dbg !1467
  store i64 %14, i64* %m_size11, align 8, !dbg !1468
  %16 = load i64, i64* %theTempAllocation, align 8, !dbg !1469
  %17 = load %"class.xalanc_1_10::XalanVector"*, %"class.xalanc_1_10::XalanVector"** %theOther.addr, align 8, !dbg !1470
  %m_allocation12 = getelementptr inbounds %"class.xalanc_1_10::XalanVector", %"class.xalanc_1_10::XalanVector"* %17, i32 0, i32 2, !dbg !1471
  store i64 %16, i64* %m_allocation12, align 8, !dbg !1472
  %18 = load i8*, i8** %theTempData, align 8, !dbg !1473
  %19 = load %"class.xalanc_1_10::XalanVector"*, %"class.xalanc_1_10::XalanVector"** %theOther.addr, align 8, !dbg !1474
  %m_data13 = getelementptr inbounds %"class.xalanc_1_10::XalanVector", %"class.xalanc_1_10::XalanVector"* %19, i32 0, i32 3, !dbg !1475
  store i8* %18, i8** %m_data13, align 8, !dbg !1476
  call void @_ZNK11xalanc_1_1011XalanVectorIcNS_31MemoryManagedConstructionTraitsIcEEE10invariantsEv(%"class.xalanc_1_10::XalanVector"* %this1), !dbg !1477
  ret void, !dbg !1478
}

; Function Attrs: noinline nounwind uwtable
define linkonce_odr dso_local void @_ZNK11xalanc_1_1011XalanVectorIcNS_31MemoryManagedConstructionTraitsIcEEE10invariantsEv(%"class.xalanc_1_10::XalanVector"* %this) #2 comdat align 2 !dbg !1479 {
entry:
  %this.addr = alloca %"class.xalanc_1_10::XalanVector"*, align 8
  store %"class.xalanc_1_10::XalanVector"* %this, %"class.xalanc_1_10::XalanVector"** %this.addr, align 8
  call void @llvm.dbg.declare(metadata %"class.xalanc_1_10::XalanVector"** %this.addr, metadata !1480, metadata !DIExpression()), !dbg !1482
  %this1 = load %"class.xalanc_1_10::XalanVector"*, %"class.xalanc_1_10::XalanVector"** %this.addr, align 8
  ret void, !dbg !1483
}

; Function Attrs: noinline uwtable
define linkonce_odr dso_local i8* @_ZN11xalanc_1_1011XalanVectorIcNS_31MemoryManagedConstructionTraitsIcEEE8allocateEm(%"class.xalanc_1_10::XalanVector"* %this, i64 %size) #0 comdat align 2 !dbg !1484 {
entry:
  %this.addr = alloca %"class.xalanc_1_10::XalanVector"*, align 8
  %size.addr = alloca i64, align 8
  %theBytesNeeded = alloca i64, align 8
  %pointer = alloca i8*, align 8
  store %"class.xalanc_1_10::XalanVector"* %this, %"class.xalanc_1_10::XalanVector"** %this.addr, align 8
  call void @llvm.dbg.declare(metadata %"class.xalanc_1_10::XalanVector"** %this.addr, metadata !1485, metadata !DIExpression()), !dbg !1486
  store i64 %size, i64* %size.addr, align 8
  call void @llvm.dbg.declare(metadata i64* %size.addr, metadata !1487, metadata !DIExpression()), !dbg !1488
  %this1 = load %"class.xalanc_1_10::XalanVector"*, %"class.xalanc_1_10::XalanVector"** %this.addr, align 8
  call void @llvm.dbg.declare(metadata i64* %theBytesNeeded, metadata !1489, metadata !DIExpression()), !dbg !1490
  %0 = load i64, i64* %size.addr, align 8, !dbg !1491
  %mul = mul i64 %0, 1, !dbg !1492
  store i64 %mul, i64* %theBytesNeeded, align 8, !dbg !1490
  call void @llvm.dbg.declare(metadata i8** %pointer, metadata !1493, metadata !DIExpression()), !dbg !1494
  %m_memoryManager = getelementptr inbounds %"class.xalanc_1_10::XalanVector", %"class.xalanc_1_10::XalanVector"* %this1, i32 0, i32 0, !dbg !1495
  %1 = load %"class.xercesc_2_7::MemoryManager"*, %"class.xercesc_2_7::MemoryManager"** %m_memoryManager, align 8, !dbg !1495
  %2 = load i64, i64* %theBytesNeeded, align 8, !dbg !1496
  %3 = bitcast %"class.xercesc_2_7::MemoryManager"* %1 to i8* (%"class.xercesc_2_7::MemoryManager"*, i64)***, !dbg !1497
  %vtable = load i8* (%"class.xercesc_2_7::MemoryManager"*, i64)**, i8* (%"class.xercesc_2_7::MemoryManager"*, i64)*** %3, align 8, !dbg !1497
  %vfn = getelementptr inbounds i8* (%"class.xercesc_2_7::MemoryManager"*, i64)*, i8* (%"class.xercesc_2_7::MemoryManager"*, i64)** %vtable, i64 2, !dbg !1497
  %4 = load i8* (%"class.xercesc_2_7::MemoryManager"*, i64)*, i8* (%"class.xercesc_2_7::MemoryManager"*, i64)** %vfn, align 8, !dbg !1497
  %call = call i8* %4(%"class.xercesc_2_7::MemoryManager"* %1, i64 %2), !dbg !1497
  store i8* %call, i8** %pointer, align 8, !dbg !1494
  %5 = load i8*, i8** %pointer, align 8, !dbg !1498
  ret i8* %5, !dbg !1499
}

; Function Attrs: noinline uwtable
define linkonce_odr dso_local i64 @_ZNK11xalanc_1_1011XalanVectorIcNS_31MemoryManagedConstructionTraitsIcEEE4sizeEv(%"class.xalanc_1_10::XalanVector"* %this) #0 comdat align 2 !dbg !1500 {
entry:
  %this.addr = alloca %"class.xalanc_1_10::XalanVector"*, align 8
  store %"class.xalanc_1_10::XalanVector"* %this, %"class.xalanc_1_10::XalanVector"** %this.addr, align 8
  call void @llvm.dbg.declare(metadata %"class.xalanc_1_10::XalanVector"** %this.addr, metadata !1501, metadata !DIExpression()), !dbg !1502
  %this1 = load %"class.xalanc_1_10::XalanVector"*, %"class.xalanc_1_10::XalanVector"** %this.addr, align 8
  call void @_ZNK11xalanc_1_1011XalanVectorIcNS_31MemoryManagedConstructionTraitsIcEEE10invariantsEv(%"class.xalanc_1_10::XalanVector"* %this1), !dbg !1503
  %m_size = getelementptr inbounds %"class.xalanc_1_10::XalanVector", %"class.xalanc_1_10::XalanVector"* %this1, i32 0, i32 1, !dbg !1504
  %0 = load i64, i64* %m_size, align 8, !dbg !1504
  ret i64 %0, !dbg !1505
}

; Function Attrs: noinline uwtable
define linkonce_odr dso_local i8* @_ZN11xalanc_1_1011XalanVectorIcNS_31MemoryManagedConstructionTraitsIcEEE14ensureCapacityEm(%"class.xalanc_1_10::XalanVector"* %this, i64 %theSize) #0 comdat align 2 !dbg !1506 {
entry:
  %this.addr = alloca %"class.xalanc_1_10::XalanVector"*, align 8
  %theSize.addr = alloca i64, align 8
  store %"class.xalanc_1_10::XalanVector"* %this, %"class.xalanc_1_10::XalanVector"** %this.addr, align 8
  call void @llvm.dbg.declare(metadata %"class.xalanc_1_10::XalanVector"** %this.addr, metadata !1507, metadata !DIExpression()), !dbg !1508
  store i64 %theSize, i64* %theSize.addr, align 8
  call void @llvm.dbg.declare(metadata i64* %theSize.addr, metadata !1509, metadata !DIExpression()), !dbg !1510
  %this1 = load %"class.xalanc_1_10::XalanVector"*, %"class.xalanc_1_10::XalanVector"** %this.addr, align 8
  %0 = load i64, i64* %theSize.addr, align 8, !dbg !1511
  %call = call i64 @_ZNK11xalanc_1_1011XalanVectorIcNS_31MemoryManagedConstructionTraitsIcEEE8capacityEv(%"class.xalanc_1_10::XalanVector"* %this1), !dbg !1513
  %cmp = icmp ugt i64 %0, %call, !dbg !1514
  br i1 %cmp, label %if.then, label %if.end, !dbg !1515

if.then:                                          ; preds = %entry
  %1 = load i64, i64* %theSize.addr, align 8, !dbg !1516
  call void @_ZN11xalanc_1_1011XalanVectorIcNS_31MemoryManagedConstructionTraitsIcEEE9doReserveEm(%"class.xalanc_1_10::XalanVector"* %this1, i64 %1), !dbg !1518
  br label %if.end, !dbg !1519

if.end:                                           ; preds = %if.then, %entry
  %call2 = call i8* @_ZN11xalanc_1_1011XalanVectorIcNS_31MemoryManagedConstructionTraitsIcEEE10endPointerEv(%"class.xalanc_1_10::XalanVector"* %this1), !dbg !1520
  ret i8* %call2, !dbg !1521
}

; Function Attrs: noinline nounwind uwtable
define linkonce_odr dso_local i8* @_ZN11xalanc_1_1028ConstructWithNoMemoryManagerIcE9constructEPcRKcRN11xercesc_2_713MemoryManagerE(i8* %address, i8* dereferenceable(1) %theRhs, %"class.xercesc_2_7::MemoryManager"* dereferenceable(8) %0) #2 comdat align 2 !dbg !1522 {
entry:
  %address.addr = alloca i8*, align 8
  %theRhs.addr = alloca i8*, align 8
  %.addr = alloca %"class.xercesc_2_7::MemoryManager"*, align 8
  store i8* %address, i8** %address.addr, align 8
  call void @llvm.dbg.declare(metadata i8** %address.addr, metadata !1531, metadata !DIExpression()), !dbg !1532
  store i8* %theRhs, i8** %theRhs.addr, align 8
  call void @llvm.dbg.declare(metadata i8** %theRhs.addr, metadata !1533, metadata !DIExpression()), !dbg !1534
  store %"class.xercesc_2_7::MemoryManager"* %0, %"class.xercesc_2_7::MemoryManager"** %.addr, align 8
  call void @llvm.dbg.declare(metadata %"class.xercesc_2_7::MemoryManager"** %.addr, metadata !1535, metadata !DIExpression()), !dbg !1536
  %1 = load i8*, i8** %address.addr, align 8, !dbg !1537
  %2 = load i8*, i8** %theRhs.addr, align 8, !dbg !1538
  %3 = load i8, i8* %2, align 1, !dbg !1538
  store i8 %3, i8* %1, align 1, !dbg !1539
  ret i8* %1, !dbg !1540
}

; Function Attrs: noinline uwtable
define linkonce_odr dso_local i64 @_ZNK11xalanc_1_1011XalanVectorIcNS_31MemoryManagedConstructionTraitsIcEEE8capacityEv(%"class.xalanc_1_10::XalanVector"* %this) #0 comdat align 2 !dbg !1541 {
entry:
  %this.addr = alloca %"class.xalanc_1_10::XalanVector"*, align 8
  store %"class.xalanc_1_10::XalanVector"* %this, %"class.xalanc_1_10::XalanVector"** %this.addr, align 8
  call void @llvm.dbg.declare(metadata %"class.xalanc_1_10::XalanVector"** %this.addr, metadata !1542, metadata !DIExpression()), !dbg !1543
  %this1 = load %"class.xalanc_1_10::XalanVector"*, %"class.xalanc_1_10::XalanVector"** %this.addr, align 8
  call void @_ZNK11xalanc_1_1011XalanVectorIcNS_31MemoryManagedConstructionTraitsIcEEE10invariantsEv(%"class.xalanc_1_10::XalanVector"* %this1), !dbg !1544
  %m_allocation = getelementptr inbounds %"class.xalanc_1_10::XalanVector", %"class.xalanc_1_10::XalanVector"* %this1, i32 0, i32 2, !dbg !1545
  %0 = load i64, i64* %m_allocation, align 8, !dbg !1545
  ret i64 %0, !dbg !1546
}

; Function Attrs: noinline uwtable
define linkonce_odr dso_local void @_ZN11xalanc_1_1011XalanVectorIcNS_31MemoryManagedConstructionTraitsIcEEE6insertEPcPKcS6_(%"class.xalanc_1_10::XalanVector"* %this, i8* %thePosition, i8* %theFirst, i8* %theLast) #0 comdat align 2 personality i8* bitcast (i32 (...)* @__gxx_personality_v0 to i8*) !dbg !1547 {
entry:
  %this.addr = alloca %"class.xalanc_1_10::XalanVector"*, align 8
  %thePosition.addr = alloca i8*, align 8
  %theFirst.addr = alloca i8*, align 8
  %theLast.addr = alloca i8*, align 8
  %theInsertSize = alloca i64, align 8
  %theTotalSize = alloca i64, align 8
  %thePointer = alloca i8*, align 8
  %theTemp = alloca %"class.xalanc_1_10::XalanVector", align 8
  %exn.slot = alloca i8*
  %ehselector.slot = alloca i32
  %theOriginalEnd = alloca i8*, align 8
  %theRightSplitSize = alloca i64, align 8
  %toInsertSplit = alloca i8*, align 8
  %toInsertIter = alloca i8*, align 8
  %toMoveIter = alloca i8*, align 8
  store %"class.xalanc_1_10::XalanVector"* %this, %"class.xalanc_1_10::XalanVector"** %this.addr, align 8
  call void @llvm.dbg.declare(metadata %"class.xalanc_1_10::XalanVector"** %this.addr, metadata !1548, metadata !DIExpression()), !dbg !1549
  store i8* %thePosition, i8** %thePosition.addr, align 8
  call void @llvm.dbg.declare(metadata i8** %thePosition.addr, metadata !1550, metadata !DIExpression()), !dbg !1551
  store i8* %theFirst, i8** %theFirst.addr, align 8
  call void @llvm.dbg.declare(metadata i8** %theFirst.addr, metadata !1552, metadata !DIExpression()), !dbg !1553
  store i8* %theLast, i8** %theLast.addr, align 8
  call void @llvm.dbg.declare(metadata i8** %theLast.addr, metadata !1554, metadata !DIExpression()), !dbg !1555
  %this1 = load %"class.xalanc_1_10::XalanVector"*, %"class.xalanc_1_10::XalanVector"** %this.addr, align 8
  call void @_ZNK11xalanc_1_1011XalanVectorIcNS_31MemoryManagedConstructionTraitsIcEEE10invariantsEv(%"class.xalanc_1_10::XalanVector"* %this1), !dbg !1556
  call void @llvm.dbg.declare(metadata i64* %theInsertSize, metadata !1557, metadata !DIExpression()), !dbg !1558
  %0 = load i8*, i8** %theFirst.addr, align 8, !dbg !1559
  %1 = load i8*, i8** %theLast.addr, align 8, !dbg !1560
  %call = call i64 @_ZN11xalanc_1_1011XalanVectorIcNS_31MemoryManagedConstructionTraitsIcEEE14local_distanceEPKcS5_(%"class.xalanc_1_10::XalanVector"* %this1, i8* %0, i8* %1), !dbg !1561
  store i64 %call, i64* %theInsertSize, align 8, !dbg !1558
  %2 = load i64, i64* %theInsertSize, align 8, !dbg !1562
  %cmp = icmp eq i64 %2, 0, !dbg !1564
  br i1 %cmp, label %if.then, label %if.end, !dbg !1565

if.then:                                          ; preds = %entry
  br label %return, !dbg !1566

if.end:                                           ; preds = %entry
  call void @llvm.dbg.declare(metadata i64* %theTotalSize, metadata !1568, metadata !DIExpression()), !dbg !1569
  %call2 = call i64 @_ZNK11xalanc_1_1011XalanVectorIcNS_31MemoryManagedConstructionTraitsIcEEE4sizeEv(%"class.xalanc_1_10::XalanVector"* %this1), !dbg !1570
  %3 = load i64, i64* %theInsertSize, align 8, !dbg !1571
  %add = add i64 %call2, %3, !dbg !1572
  store i64 %add, i64* %theTotalSize, align 8, !dbg !1569
  %4 = load i8*, i8** %thePosition.addr, align 8, !dbg !1573
  %call3 = call i8* @_ZN11xalanc_1_1011XalanVectorIcNS_31MemoryManagedConstructionTraitsIcEEE3endEv(%"class.xalanc_1_10::XalanVector"* %this1), !dbg !1575
  %cmp4 = icmp eq i8* %4, %call3, !dbg !1576
  br i1 %cmp4, label %if.then5, label %if.else, !dbg !1577

if.then5:                                         ; preds = %if.end
  call void @llvm.dbg.declare(metadata i8** %thePointer, metadata !1578, metadata !DIExpression()), !dbg !1580
  %5 = load i64, i64* %theTotalSize, align 8, !dbg !1581
  %call6 = call i8* @_ZN11xalanc_1_1011XalanVectorIcNS_31MemoryManagedConstructionTraitsIcEEE14ensureCapacityEm(%"class.xalanc_1_10::XalanVector"* %this1, i64 %5), !dbg !1582
  store i8* %call6, i8** %thePointer, align 8, !dbg !1580
  br label %while.cond, !dbg !1583

while.cond:                                       ; preds = %while.body, %if.then5
  %6 = load i8*, i8** %theFirst.addr, align 8, !dbg !1584
  %7 = load i8*, i8** %theLast.addr, align 8, !dbg !1585
  %cmp7 = icmp ne i8* %6, %7, !dbg !1586
  br i1 %cmp7, label %while.body, label %while.end, !dbg !1583

while.body:                                       ; preds = %while.cond
  %8 = load i8*, i8** %thePointer, align 8, !dbg !1587
  %9 = load i8*, i8** %theFirst.addr, align 8, !dbg !1589
  %m_memoryManager = getelementptr inbounds %"class.xalanc_1_10::XalanVector", %"class.xalanc_1_10::XalanVector"* %this1, i32 0, i32 0, !dbg !1590
  %10 = load %"class.xercesc_2_7::MemoryManager"*, %"class.xercesc_2_7::MemoryManager"** %m_memoryManager, align 8, !dbg !1590
  %call8 = call i8* @_ZN11xalanc_1_1028ConstructWithNoMemoryManagerIcE9constructEPcRKcRN11xercesc_2_713MemoryManagerE(i8* %8, i8* dereferenceable(1) %9, %"class.xercesc_2_7::MemoryManager"* dereferenceable(8) %10), !dbg !1591
  %11 = load i8*, i8** %thePointer, align 8, !dbg !1592
  %incdec.ptr = getelementptr inbounds i8, i8* %11, i32 1, !dbg !1592
  store i8* %incdec.ptr, i8** %thePointer, align 8, !dbg !1592
  %m_size = getelementptr inbounds %"class.xalanc_1_10::XalanVector", %"class.xalanc_1_10::XalanVector"* %this1, i32 0, i32 1, !dbg !1593
  %12 = load i64, i64* %m_size, align 8, !dbg !1594
  %inc = add i64 %12, 1, !dbg !1594
  store i64 %inc, i64* %m_size, align 8, !dbg !1594
  %13 = load i8*, i8** %theFirst.addr, align 8, !dbg !1595
  %incdec.ptr9 = getelementptr inbounds i8, i8* %13, i32 1, !dbg !1595
  store i8* %incdec.ptr9, i8** %theFirst.addr, align 8, !dbg !1595
  br label %while.cond, !dbg !1583, !llvm.loop !1596

while.end:                                        ; preds = %while.cond
  br label %if.end57, !dbg !1598

if.else:                                          ; preds = %if.end
  %14 = load i64, i64* %theTotalSize, align 8, !dbg !1599
  %call10 = call i64 @_ZNK11xalanc_1_1011XalanVectorIcNS_31MemoryManagedConstructionTraitsIcEEE8capacityEv(%"class.xalanc_1_10::XalanVector"* %this1), !dbg !1602
  %cmp11 = icmp ugt i64 %14, %call10, !dbg !1603
  br i1 %cmp11, label %if.then12, label %if.else27, !dbg !1604

if.then12:                                        ; preds = %if.else
  call void @llvm.dbg.declare(metadata %"class.xalanc_1_10::XalanVector"* %theTemp, metadata !1605, metadata !DIExpression()), !dbg !1607
  %m_memoryManager13 = getelementptr inbounds %"class.xalanc_1_10::XalanVector", %"class.xalanc_1_10::XalanVector"* %this1, i32 0, i32 0, !dbg !1608
  %15 = load %"class.xercesc_2_7::MemoryManager"*, %"class.xercesc_2_7::MemoryManager"** %m_memoryManager13, align 8, !dbg !1608
  %16 = load i64, i64* %theTotalSize, align 8, !dbg !1609
  call void @_ZN11xalanc_1_1011XalanVectorIcNS_31MemoryManagedConstructionTraitsIcEEEC2ERN11xercesc_2_713MemoryManagerEm(%"class.xalanc_1_10::XalanVector"* %theTemp, %"class.xercesc_2_7::MemoryManager"* dereferenceable(8) %15, i64 %16), !dbg !1607
  %call14 = invoke i8* @_ZN11xalanc_1_1011XalanVectorIcNS_31MemoryManagedConstructionTraitsIcEEE3endEv(%"class.xalanc_1_10::XalanVector"* %theTemp)
          to label %invoke.cont unwind label %lpad, !dbg !1610

invoke.cont:                                      ; preds = %if.then12
  %call16 = invoke i8* @_ZN11xalanc_1_1011XalanVectorIcNS_31MemoryManagedConstructionTraitsIcEEE5beginEv(%"class.xalanc_1_10::XalanVector"* %this1)
          to label %invoke.cont15 unwind label %lpad, !dbg !1611

invoke.cont15:                                    ; preds = %invoke.cont
  %17 = load i8*, i8** %thePosition.addr, align 8, !dbg !1612
  invoke void @_ZN11xalanc_1_1011XalanVectorIcNS_31MemoryManagedConstructionTraitsIcEEE6insertEPcPKcS6_(%"class.xalanc_1_10::XalanVector"* %theTemp, i8* %call14, i8* %call16, i8* %17)
          to label %invoke.cont17 unwind label %lpad, !dbg !1613

invoke.cont17:                                    ; preds = %invoke.cont15
  %call19 = invoke i8* @_ZN11xalanc_1_1011XalanVectorIcNS_31MemoryManagedConstructionTraitsIcEEE3endEv(%"class.xalanc_1_10::XalanVector"* %theTemp)
          to label %invoke.cont18 unwind label %lpad, !dbg !1614

invoke.cont18:                                    ; preds = %invoke.cont17
  %18 = load i8*, i8** %theFirst.addr, align 8, !dbg !1615
  %19 = load i8*, i8** %theLast.addr, align 8, !dbg !1616
  invoke void @_ZN11xalanc_1_1011XalanVectorIcNS_31MemoryManagedConstructionTraitsIcEEE6insertEPcPKcS6_(%"class.xalanc_1_10::XalanVector"* %theTemp, i8* %call19, i8* %18, i8* %19)
          to label %invoke.cont20 unwind label %lpad, !dbg !1617

invoke.cont20:                                    ; preds = %invoke.cont18
  %call22 = invoke i8* @_ZN11xalanc_1_1011XalanVectorIcNS_31MemoryManagedConstructionTraitsIcEEE3endEv(%"class.xalanc_1_10::XalanVector"* %theTemp)
          to label %invoke.cont21 unwind label %lpad, !dbg !1618

invoke.cont21:                                    ; preds = %invoke.cont20
  %20 = load i8*, i8** %thePosition.addr, align 8, !dbg !1619
  %call24 = invoke i8* @_ZN11xalanc_1_1011XalanVectorIcNS_31MemoryManagedConstructionTraitsIcEEE3endEv(%"class.xalanc_1_10::XalanVector"* %this1)
          to label %invoke.cont23 unwind label %lpad, !dbg !1620

invoke.cont23:                                    ; preds = %invoke.cont21
  invoke void @_ZN11xalanc_1_1011XalanVectorIcNS_31MemoryManagedConstructionTraitsIcEEE6insertEPcPKcS6_(%"class.xalanc_1_10::XalanVector"* %theTemp, i8* %call22, i8* %20, i8* %call24)
          to label %invoke.cont25 unwind label %lpad, !dbg !1621

invoke.cont25:                                    ; preds = %invoke.cont23
  invoke void @_ZN11xalanc_1_1011XalanVectorIcNS_31MemoryManagedConstructionTraitsIcEEE4swapERS3_(%"class.xalanc_1_10::XalanVector"* %this1, %"class.xalanc_1_10::XalanVector"* dereferenceable(32) %theTemp)
          to label %invoke.cont26 unwind label %lpad, !dbg !1622

invoke.cont26:                                    ; preds = %invoke.cont25
  call void @_ZN11xalanc_1_1011XalanVectorIcNS_31MemoryManagedConstructionTraitsIcEEED2Ev(%"class.xalanc_1_10::XalanVector"* %theTemp) #5, !dbg !1623
  br label %if.end56, !dbg !1624

lpad:                                             ; preds = %invoke.cont25, %invoke.cont23, %invoke.cont21, %invoke.cont20, %invoke.cont18, %invoke.cont17, %invoke.cont15, %invoke.cont, %if.then12
  %21 = landingpad { i8*, i32 }
          cleanup, !dbg !1625
  %22 = extractvalue { i8*, i32 } %21, 0, !dbg !1625
  store i8* %22, i8** %exn.slot, align 8, !dbg !1625
  %23 = extractvalue { i8*, i32 } %21, 1, !dbg !1625
  store i32 %23, i32* %ehselector.slot, align 4, !dbg !1625
  call void @_ZN11xalanc_1_1011XalanVectorIcNS_31MemoryManagedConstructionTraitsIcEEED2Ev(%"class.xalanc_1_10::XalanVector"* %theTemp) #5, !dbg !1623
  br label %eh.resume, !dbg !1623

if.else27:                                        ; preds = %if.else
  call void @llvm.dbg.declare(metadata i8** %theOriginalEnd, metadata !1626, metadata !DIExpression()), !dbg !1628
  %call28 = call i8* @_ZN11xalanc_1_1011XalanVectorIcNS_31MemoryManagedConstructionTraitsIcEEE3endEv(%"class.xalanc_1_10::XalanVector"* %this1), !dbg !1629
  store i8* %call28, i8** %theOriginalEnd, align 8, !dbg !1628
  call void @llvm.dbg.declare(metadata i64* %theRightSplitSize, metadata !1630, metadata !DIExpression()), !dbg !1631
  %24 = load i8*, i8** %thePosition.addr, align 8, !dbg !1632
  %25 = load i8*, i8** %theOriginalEnd, align 8, !dbg !1633
  %call29 = call i64 @_ZN11xalanc_1_1011XalanVectorIcNS_31MemoryManagedConstructionTraitsIcEEE14local_distanceEPKcS5_(%"class.xalanc_1_10::XalanVector"* %this1, i8* %24, i8* %25), !dbg !1634
  store i64 %call29, i64* %theRightSplitSize, align 8, !dbg !1631
  %26 = load i64, i64* %theRightSplitSize, align 8, !dbg !1635
  %27 = load i64, i64* %theInsertSize, align 8, !dbg !1637
  %cmp30 = icmp ule i64 %26, %27, !dbg !1638
  br i1 %cmp30, label %if.then31, label %if.else43, !dbg !1639

if.then31:                                        ; preds = %if.else27
  call void @llvm.dbg.declare(metadata i8** %toInsertSplit, metadata !1640, metadata !DIExpression()), !dbg !1643
  %28 = load i8*, i8** %theFirst.addr, align 8, !dbg !1644
  %29 = load i64, i64* %theRightSplitSize, align 8, !dbg !1645
  %add.ptr = getelementptr inbounds i8, i8* %28, i64 %29, !dbg !1646
  store i8* %add.ptr, i8** %toInsertSplit, align 8, !dbg !1643
  call void @llvm.dbg.declare(metadata i8** %toInsertIter, metadata !1647, metadata !DIExpression()), !dbg !1648
  %30 = load i8*, i8** %toInsertSplit, align 8, !dbg !1649
  store i8* %30, i8** %toInsertIter, align 8, !dbg !1648
  br label %while.cond32, !dbg !1650

while.cond32:                                     ; preds = %while.body34, %if.then31
  %31 = load i8*, i8** %toInsertIter, align 8, !dbg !1651
  %32 = load i8*, i8** %theLast.addr, align 8, !dbg !1652
  %cmp33 = icmp ne i8* %31, %32, !dbg !1653
  br i1 %cmp33, label %while.body34, label %while.end36, !dbg !1650

while.body34:                                     ; preds = %while.cond32
  %33 = load i8*, i8** %toInsertIter, align 8, !dbg !1654
  call void @_ZN11xalanc_1_1011XalanVectorIcNS_31MemoryManagedConstructionTraitsIcEEE10doPushBackERKc(%"class.xalanc_1_10::XalanVector"* %this1, i8* dereferenceable(1) %33), !dbg !1656
  %34 = load i8*, i8** %toInsertIter, align 8, !dbg !1657
  %incdec.ptr35 = getelementptr inbounds i8, i8* %34, i32 1, !dbg !1657
  store i8* %incdec.ptr35, i8** %toInsertIter, align 8, !dbg !1657
  br label %while.cond32, !dbg !1650, !llvm.loop !1658

while.end36:                                      ; preds = %while.cond32
  %35 = load i8*, i8** %thePosition.addr, align 8, !dbg !1660
  store i8* %35, i8** %toInsertIter, align 8, !dbg !1661
  br label %while.cond37, !dbg !1662

while.cond37:                                     ; preds = %while.body39, %while.end36
  %36 = load i8*, i8** %toInsertIter, align 8, !dbg !1663
  %37 = load i8*, i8** %theOriginalEnd, align 8, !dbg !1664
  %cmp38 = icmp ne i8* %36, %37, !dbg !1665
  br i1 %cmp38, label %while.body39, label %while.end41, !dbg !1662

while.body39:                                     ; preds = %while.cond37
  %38 = load i8*, i8** %toInsertIter, align 8, !dbg !1666
  call void @_ZN11xalanc_1_1011XalanVectorIcNS_31MemoryManagedConstructionTraitsIcEEE10doPushBackERKc(%"class.xalanc_1_10::XalanVector"* %this1, i8* dereferenceable(1) %38), !dbg !1668
  %39 = load i8*, i8** %toInsertIter, align 8, !dbg !1669
  %incdec.ptr40 = getelementptr inbounds i8, i8* %39, i32 1, !dbg !1669
  store i8* %incdec.ptr40, i8** %toInsertIter, align 8, !dbg !1669
  br label %while.cond37, !dbg !1662, !llvm.loop !1670

while.end41:                                      ; preds = %while.cond37
  %40 = load i8*, i8** %theFirst.addr, align 8, !dbg !1672
  %41 = load i8*, i8** %toInsertSplit, align 8, !dbg !1673
  %42 = load i8*, i8** %thePosition.addr, align 8, !dbg !1674
  %call42 = call i8* @_ZSt4copyIPKcPcET0_T_S4_S3_(i8* %40, i8* %41, i8* %42), !dbg !1675
  br label %if.end55, !dbg !1676

if.else43:                                        ; preds = %if.else27
  call void @llvm.dbg.declare(metadata i8** %toMoveIter, metadata !1677, metadata !DIExpression()), !dbg !1679
  %call44 = call i8* @_ZN11xalanc_1_1011XalanVectorIcNS_31MemoryManagedConstructionTraitsIcEEE3endEv(%"class.xalanc_1_10::XalanVector"* %this1), !dbg !1680
  %43 = load i64, i64* %theInsertSize, align 8, !dbg !1681
  %idx.neg = sub i64 0, %43, !dbg !1682
  %add.ptr45 = getelementptr inbounds i8, i8* %call44, i64 %idx.neg, !dbg !1682
  store i8* %add.ptr45, i8** %toMoveIter, align 8, !dbg !1679
  br label %while.cond46, !dbg !1683

while.cond46:                                     ; preds = %while.body48, %if.else43
  %44 = load i8*, i8** %toMoveIter, align 8, !dbg !1684
  %45 = load i8*, i8** %theOriginalEnd, align 8, !dbg !1685
  %cmp47 = icmp ne i8* %44, %45, !dbg !1686
  br i1 %cmp47, label %while.body48, label %while.end50, !dbg !1683

while.body48:                                     ; preds = %while.cond46
  %46 = load i8*, i8** %toMoveIter, align 8, !dbg !1687
  call void @_ZN11xalanc_1_1011XalanVectorIcNS_31MemoryManagedConstructionTraitsIcEEE10doPushBackERKc(%"class.xalanc_1_10::XalanVector"* %this1, i8* dereferenceable(1) %46), !dbg !1689
  %47 = load i8*, i8** %toMoveIter, align 8, !dbg !1690
  %incdec.ptr49 = getelementptr inbounds i8, i8* %47, i32 1, !dbg !1690
  store i8* %incdec.ptr49, i8** %toMoveIter, align 8, !dbg !1690
  br label %while.cond46, !dbg !1683, !llvm.loop !1691

while.end50:                                      ; preds = %while.cond46
  %48 = load i8*, i8** %thePosition.addr, align 8, !dbg !1693
  %49 = load i8*, i8** %theOriginalEnd, align 8, !dbg !1694
  %50 = load i64, i64* %theInsertSize, align 8, !dbg !1695
  %idx.neg51 = sub i64 0, %50, !dbg !1696
  %add.ptr52 = getelementptr inbounds i8, i8* %49, i64 %idx.neg51, !dbg !1696
  %51 = load i8*, i8** %theOriginalEnd, align 8, !dbg !1697
  %call53 = call i8* @_ZSt13copy_backwardIPcS0_ET0_T_S2_S1_(i8* %48, i8* %add.ptr52, i8* %51), !dbg !1698
  %52 = load i8*, i8** %theFirst.addr, align 8, !dbg !1699
  %53 = load i8*, i8** %theLast.addr, align 8, !dbg !1700
  %54 = load i8*, i8** %thePosition.addr, align 8, !dbg !1701
  %call54 = call i8* @_ZSt4copyIPKcPcET0_T_S4_S3_(i8* %52, i8* %53, i8* %54), !dbg !1702
  br label %if.end55

if.end55:                                         ; preds = %while.end50, %while.end41
  br label %if.end56

if.end56:                                         ; preds = %if.end55, %invoke.cont26
  br label %if.end57

if.end57:                                         ; preds = %if.end56, %while.end
  call void @_ZNK11xalanc_1_1011XalanVectorIcNS_31MemoryManagedConstructionTraitsIcEEE10invariantsEv(%"class.xalanc_1_10::XalanVector"* %this1), !dbg !1703
  br label %return, !dbg !1704

return:                                           ; preds = %if.end57, %if.then
  ret void, !dbg !1704

eh.resume:                                        ; preds = %lpad
  %exn = load i8*, i8** %exn.slot, align 8, !dbg !1623
  %sel = load i32, i32* %ehselector.slot, align 4, !dbg !1623
  %lpad.val = insertvalue { i8*, i32 } undef, i8* %exn, 0, !dbg !1623
  %lpad.val58 = insertvalue { i8*, i32 } %lpad.val, i32 %sel, 1, !dbg !1623
  resume { i8*, i32 } %lpad.val58, !dbg !1623
}

; Function Attrs: noinline uwtable
define linkonce_odr dso_local i64 @_ZN11xalanc_1_1011XalanVectorIcNS_31MemoryManagedConstructionTraitsIcEEE14local_distanceEPKcS5_(%"class.xalanc_1_10::XalanVector"* %this, i8* %theFirst, i8* %theLast) #0 comdat align 2 !dbg !1705 {
entry:
  %this.addr = alloca %"class.xalanc_1_10::XalanVector"*, align 8
  %theFirst.addr = alloca i8*, align 8
  %theLast.addr = alloca i8*, align 8
  store %"class.xalanc_1_10::XalanVector"* %this, %"class.xalanc_1_10::XalanVector"** %this.addr, align 8
  call void @llvm.dbg.declare(metadata %"class.xalanc_1_10::XalanVector"** %this.addr, metadata !1706, metadata !DIExpression()), !dbg !1707
  store i8* %theFirst, i8** %theFirst.addr, align 8
  call void @llvm.dbg.declare(metadata i8** %theFirst.addr, metadata !1708, metadata !DIExpression()), !dbg !1709
  store i8* %theLast, i8** %theLast.addr, align 8
  call void @llvm.dbg.declare(metadata i8** %theLast.addr, metadata !1710, metadata !DIExpression()), !dbg !1711
  %this1 = load %"class.xalanc_1_10::XalanVector"*, %"class.xalanc_1_10::XalanVector"** %this.addr, align 8
  %0 = load i8*, i8** %theFirst.addr, align 8, !dbg !1712
  %1 = load i8*, i8** %theLast.addr, align 8, !dbg !1713
  %call = call i64 @_ZSt8distanceIPKcENSt15iterator_traitsIT_E15difference_typeES3_S3_(i8* %0, i8* %1), !dbg !1714
  ret i64 %call, !dbg !1715
}

; Function Attrs: noinline uwtable
define linkonce_odr dso_local void @_ZN11xalanc_1_1011XalanVectorIcNS_31MemoryManagedConstructionTraitsIcEEE10doPushBackERKc(%"class.xalanc_1_10::XalanVector"* %this, i8* dereferenceable(1) %data) #0 comdat align 2 personality i8* bitcast (i32 (...)* @__gxx_personality_v0 to i8*) !dbg !1716 {
entry:
  %this.addr = alloca %"class.xalanc_1_10::XalanVector"*, align 8
  %data.addr = alloca i8*, align 8
  %theNewSize = alloca i64, align 8
  %theTemp = alloca %"class.xalanc_1_10::XalanVector", align 8
  %exn.slot = alloca i8*
  %ehselector.slot = alloca i32
  store %"class.xalanc_1_10::XalanVector"* %this, %"class.xalanc_1_10::XalanVector"** %this.addr, align 8
  call void @llvm.dbg.declare(metadata %"class.xalanc_1_10::XalanVector"** %this.addr, metadata !1717, metadata !DIExpression()), !dbg !1718
  store i8* %data, i8** %data.addr, align 8
  call void @llvm.dbg.declare(metadata i8** %data.addr, metadata !1719, metadata !DIExpression()), !dbg !1720
  %this1 = load %"class.xalanc_1_10::XalanVector"*, %"class.xalanc_1_10::XalanVector"** %this.addr, align 8
  call void @_ZNK11xalanc_1_1011XalanVectorIcNS_31MemoryManagedConstructionTraitsIcEEE10invariantsEv(%"class.xalanc_1_10::XalanVector"* %this1), !dbg !1721
  %m_size = getelementptr inbounds %"class.xalanc_1_10::XalanVector", %"class.xalanc_1_10::XalanVector"* %this1, i32 0, i32 1, !dbg !1722
  %0 = load i64, i64* %m_size, align 8, !dbg !1722
  %m_allocation = getelementptr inbounds %"class.xalanc_1_10::XalanVector", %"class.xalanc_1_10::XalanVector"* %this1, i32 0, i32 2, !dbg !1724
  %1 = load i64, i64* %m_allocation, align 8, !dbg !1724
  %cmp = icmp ult i64 %0, %1, !dbg !1725
  br i1 %cmp, label %if.then, label %if.else, !dbg !1726

if.then:                                          ; preds = %entry
  %call = call i8* @_ZN11xalanc_1_1011XalanVectorIcNS_31MemoryManagedConstructionTraitsIcEEE10endPointerEv(%"class.xalanc_1_10::XalanVector"* %this1), !dbg !1727
  %2 = load i8*, i8** %data.addr, align 8, !dbg !1729
  %m_memoryManager = getelementptr inbounds %"class.xalanc_1_10::XalanVector", %"class.xalanc_1_10::XalanVector"* %this1, i32 0, i32 0, !dbg !1730
  %3 = load %"class.xercesc_2_7::MemoryManager"*, %"class.xercesc_2_7::MemoryManager"** %m_memoryManager, align 8, !dbg !1730
  %call2 = call i8* @_ZN11xalanc_1_1028ConstructWithNoMemoryManagerIcE9constructEPcRKcRN11xercesc_2_713MemoryManagerE(i8* %call, i8* dereferenceable(1) %2, %"class.xercesc_2_7::MemoryManager"* dereferenceable(8) %3), !dbg !1731
  %m_size3 = getelementptr inbounds %"class.xalanc_1_10::XalanVector", %"class.xalanc_1_10::XalanVector"* %this1, i32 0, i32 1, !dbg !1732
  %4 = load i64, i64* %m_size3, align 8, !dbg !1733
  %inc = add i64 %4, 1, !dbg !1733
  store i64 %inc, i64* %m_size3, align 8, !dbg !1733
  br label %if.end, !dbg !1734

if.else:                                          ; preds = %entry
  call void @llvm.dbg.declare(metadata i64* %theNewSize, metadata !1735, metadata !DIExpression()), !dbg !1737
  %m_size4 = getelementptr inbounds %"class.xalanc_1_10::XalanVector", %"class.xalanc_1_10::XalanVector"* %this1, i32 0, i32 1, !dbg !1738
  %5 = load i64, i64* %m_size4, align 8, !dbg !1738
  %cmp5 = icmp eq i64 %5, 0, !dbg !1739
  br i1 %cmp5, label %cond.true, label %cond.false, !dbg !1738

cond.true:                                        ; preds = %if.else
  br label %cond.end, !dbg !1738

cond.false:                                       ; preds = %if.else
  %m_size6 = getelementptr inbounds %"class.xalanc_1_10::XalanVector", %"class.xalanc_1_10::XalanVector"* %this1, i32 0, i32 1, !dbg !1740
  %6 = load i64, i64* %m_size6, align 8, !dbg !1740
  %conv = uitofp i64 %6 to double, !dbg !1740
  %mul = fmul double %conv, 1.600000e+00, !dbg !1741
  %add = fadd double %mul, 5.000000e-01, !dbg !1742
  %conv7 = fptoui double %add to i64, !dbg !1743
  br label %cond.end, !dbg !1738

cond.end:                                         ; preds = %cond.false, %cond.true
  %cond = phi i64 [ 1, %cond.true ], [ %conv7, %cond.false ], !dbg !1738
  store i64 %cond, i64* %theNewSize, align 8, !dbg !1737
  call void @llvm.dbg.declare(metadata %"class.xalanc_1_10::XalanVector"* %theTemp, metadata !1744, metadata !DIExpression()), !dbg !1745
  %m_memoryManager8 = getelementptr inbounds %"class.xalanc_1_10::XalanVector", %"class.xalanc_1_10::XalanVector"* %this1, i32 0, i32 0, !dbg !1746
  %7 = load %"class.xercesc_2_7::MemoryManager"*, %"class.xercesc_2_7::MemoryManager"** %m_memoryManager8, align 8, !dbg !1746
  %8 = load i64, i64* %theNewSize, align 8, !dbg !1747
  call void @_ZN11xalanc_1_1011XalanVectorIcNS_31MemoryManagedConstructionTraitsIcEEEC2ERKS3_RN11xercesc_2_713MemoryManagerEm(%"class.xalanc_1_10::XalanVector"* %theTemp, %"class.xalanc_1_10::XalanVector"* dereferenceable(32) %this1, %"class.xercesc_2_7::MemoryManager"* dereferenceable(8) %7, i64 %8), !dbg !1745
  %9 = load i8*, i8** %data.addr, align 8, !dbg !1748
  invoke void @_ZN11xalanc_1_1011XalanVectorIcNS_31MemoryManagedConstructionTraitsIcEEE10doPushBackERKc(%"class.xalanc_1_10::XalanVector"* %theTemp, i8* dereferenceable(1) %9)
          to label %invoke.cont unwind label %lpad, !dbg !1749

invoke.cont:                                      ; preds = %cond.end
  invoke void @_ZN11xalanc_1_1011XalanVectorIcNS_31MemoryManagedConstructionTraitsIcEEE4swapERS3_(%"class.xalanc_1_10::XalanVector"* %this1, %"class.xalanc_1_10::XalanVector"* dereferenceable(32) %theTemp)
          to label %invoke.cont9 unwind label %lpad, !dbg !1750

invoke.cont9:                                     ; preds = %invoke.cont
  call void @_ZN11xalanc_1_1011XalanVectorIcNS_31MemoryManagedConstructionTraitsIcEEED2Ev(%"class.xalanc_1_10::XalanVector"* %theTemp) #5, !dbg !1751
  br label %if.end

lpad:                                             ; preds = %invoke.cont, %cond.end
  %10 = landingpad { i8*, i32 }
          cleanup, !dbg !1752
  %11 = extractvalue { i8*, i32 } %10, 0, !dbg !1752
  store i8* %11, i8** %exn.slot, align 8, !dbg !1752
  %12 = extractvalue { i8*, i32 } %10, 1, !dbg !1752
  store i32 %12, i32* %ehselector.slot, align 4, !dbg !1752
  call void @_ZN11xalanc_1_1011XalanVectorIcNS_31MemoryManagedConstructionTraitsIcEEED2Ev(%"class.xalanc_1_10::XalanVector"* %theTemp) #5, !dbg !1751
  br label %eh.resume, !dbg !1751

if.end:                                           ; preds = %invoke.cont9, %if.then
  call void @_ZNK11xalanc_1_1011XalanVectorIcNS_31MemoryManagedConstructionTraitsIcEEE10invariantsEv(%"class.xalanc_1_10::XalanVector"* %this1), !dbg !1753
  ret void, !dbg !1754

eh.resume:                                        ; preds = %lpad
  %exn = load i8*, i8** %exn.slot, align 8, !dbg !1751
  %sel = load i32, i32* %ehselector.slot, align 4, !dbg !1751
  %lpad.val = insertvalue { i8*, i32 } undef, i8* %exn, 0, !dbg !1751
  %lpad.val10 = insertvalue { i8*, i32 } %lpad.val, i32 %sel, 1, !dbg !1751
  resume { i8*, i32 } %lpad.val10, !dbg !1751
}

; Function Attrs: noinline uwtable
define linkonce_odr dso_local i8* @_ZSt13copy_backwardIPcS0_ET0_T_S2_S1_(i8* %__first, i8* %__last, i8* %__result) #0 comdat !dbg !1755 {
entry:
  %__first.addr = alloca i8*, align 8
  %__last.addr = alloca i8*, align 8
  %__result.addr = alloca i8*, align 8
  store i8* %__first, i8** %__first.addr, align 8
  call void @llvm.dbg.declare(metadata i8** %__first.addr, metadata !1761, metadata !DIExpression()), !dbg !1762
  store i8* %__last, i8** %__last.addr, align 8
  call void @llvm.dbg.declare(metadata i8** %__last.addr, metadata !1763, metadata !DIExpression()), !dbg !1764
  store i8* %__result, i8** %__result.addr, align 8
  call void @llvm.dbg.declare(metadata i8** %__result.addr, metadata !1765, metadata !DIExpression()), !dbg !1766
  %0 = load i8*, i8** %__first.addr, align 8, !dbg !1767
  %call = call i8* @_ZSt12__miter_baseIPcET_S1_(i8* %0), !dbg !1768
  %1 = load i8*, i8** %__last.addr, align 8, !dbg !1769
  %call1 = call i8* @_ZSt12__miter_baseIPcET_S1_(i8* %1), !dbg !1770
  %2 = load i8*, i8** %__result.addr, align 8, !dbg !1771
  %call2 = call i8* @_ZSt22__copy_move_backward_aILb0EPcS0_ET1_T0_S2_S1_(i8* %call, i8* %call1, i8* %2), !dbg !1772
  ret i8* %call2, !dbg !1773
}

; Function Attrs: noinline uwtable
define linkonce_odr dso_local void @_ZN11xalanc_1_1011XalanVectorIcNS_31MemoryManagedConstructionTraitsIcEEE9doReserveEm(%"class.xalanc_1_10::XalanVector"* %this, i64 %theSize) #0 comdat align 2 personality i8* bitcast (i32 (...)* @__gxx_personality_v0 to i8*) !dbg !1774 {
entry:
  %this.addr = alloca %"class.xalanc_1_10::XalanVector"*, align 8
  %theSize.addr = alloca i64, align 8
  %theTemp = alloca %"class.xalanc_1_10::XalanVector", align 8
  %exn.slot = alloca i8*
  %ehselector.slot = alloca i32
  store %"class.xalanc_1_10::XalanVector"* %this, %"class.xalanc_1_10::XalanVector"** %this.addr, align 8
  call void @llvm.dbg.declare(metadata %"class.xalanc_1_10::XalanVector"** %this.addr, metadata !1775, metadata !DIExpression()), !dbg !1776
  store i64 %theSize, i64* %theSize.addr, align 8
  call void @llvm.dbg.declare(metadata i64* %theSize.addr, metadata !1777, metadata !DIExpression()), !dbg !1778
  %this1 = load %"class.xalanc_1_10::XalanVector"*, %"class.xalanc_1_10::XalanVector"** %this.addr, align 8
  call void @_ZNK11xalanc_1_1011XalanVectorIcNS_31MemoryManagedConstructionTraitsIcEEE10invariantsEv(%"class.xalanc_1_10::XalanVector"* %this1), !dbg !1779
  call void @llvm.dbg.declare(metadata %"class.xalanc_1_10::XalanVector"* %theTemp, metadata !1780, metadata !DIExpression()), !dbg !1781
  %m_memoryManager = getelementptr inbounds %"class.xalanc_1_10::XalanVector", %"class.xalanc_1_10::XalanVector"* %this1, i32 0, i32 0, !dbg !1782
  %0 = load %"class.xercesc_2_7::MemoryManager"*, %"class.xercesc_2_7::MemoryManager"** %m_memoryManager, align 8, !dbg !1782
  %1 = load i64, i64* %theSize.addr, align 8, !dbg !1783
  call void @_ZN11xalanc_1_1011XalanVectorIcNS_31MemoryManagedConstructionTraitsIcEEEC2ERKS3_RN11xercesc_2_713MemoryManagerEm(%"class.xalanc_1_10::XalanVector"* %theTemp, %"class.xalanc_1_10::XalanVector"* dereferenceable(32) %this1, %"class.xercesc_2_7::MemoryManager"* dereferenceable(8) %0, i64 %1), !dbg !1781
  invoke void @_ZN11xalanc_1_1011XalanVectorIcNS_31MemoryManagedConstructionTraitsIcEEE4swapERS3_(%"class.xalanc_1_10::XalanVector"* %this1, %"class.xalanc_1_10::XalanVector"* dereferenceable(32) %theTemp)
          to label %invoke.cont unwind label %lpad, !dbg !1784

invoke.cont:                                      ; preds = %entry
  invoke void @_ZNK11xalanc_1_1011XalanVectorIcNS_31MemoryManagedConstructionTraitsIcEEE10invariantsEv(%"class.xalanc_1_10::XalanVector"* %this1)
          to label %invoke.cont2 unwind label %lpad, !dbg !1785

invoke.cont2:                                     ; preds = %invoke.cont
  call void @_ZN11xalanc_1_1011XalanVectorIcNS_31MemoryManagedConstructionTraitsIcEEED2Ev(%"class.xalanc_1_10::XalanVector"* %theTemp) #5, !dbg !1786
  ret void, !dbg !1786

lpad:                                             ; preds = %invoke.cont, %entry
  %2 = landingpad { i8*, i32 }
          cleanup, !dbg !1786
  %3 = extractvalue { i8*, i32 } %2, 0, !dbg !1786
  store i8* %3, i8** %exn.slot, align 8, !dbg !1786
  %4 = extractvalue { i8*, i32 } %2, 1, !dbg !1786
  store i32 %4, i32* %ehselector.slot, align 4, !dbg !1786
  call void @_ZN11xalanc_1_1011XalanVectorIcNS_31MemoryManagedConstructionTraitsIcEEED2Ev(%"class.xalanc_1_10::XalanVector"* %theTemp) #5, !dbg !1786
  br label %eh.resume, !dbg !1786

eh.resume:                                        ; preds = %lpad
  %exn = load i8*, i8** %exn.slot, align 8, !dbg !1786
  %sel = load i32, i32* %ehselector.slot, align 4, !dbg !1786
  %lpad.val = insertvalue { i8*, i32 } undef, i8* %exn, 0, !dbg !1786
  %lpad.val3 = insertvalue { i8*, i32 } %lpad.val, i32 %sel, 1, !dbg !1786
  resume { i8*, i32 } %lpad.val3, !dbg !1786
}

; Function Attrs: noinline nounwind uwtable
define linkonce_odr dso_local i8* @_ZN11xalanc_1_1011XalanVectorIcNS_31MemoryManagedConstructionTraitsIcEEE10endPointerEv(%"class.xalanc_1_10::XalanVector"* %this) #2 comdat align 2 !dbg !1787 {
entry:
  %this.addr = alloca %"class.xalanc_1_10::XalanVector"*, align 8
  store %"class.xalanc_1_10::XalanVector"* %this, %"class.xalanc_1_10::XalanVector"** %this.addr, align 8
  call void @llvm.dbg.declare(metadata %"class.xalanc_1_10::XalanVector"** %this.addr, metadata !1788, metadata !DIExpression()), !dbg !1789
  %this1 = load %"class.xalanc_1_10::XalanVector"*, %"class.xalanc_1_10::XalanVector"** %this.addr, align 8
  %m_data = getelementptr inbounds %"class.xalanc_1_10::XalanVector", %"class.xalanc_1_10::XalanVector"* %this1, i32 0, i32 3, !dbg !1790
  %0 = load i8*, i8** %m_data, align 8, !dbg !1790
  %m_size = getelementptr inbounds %"class.xalanc_1_10::XalanVector", %"class.xalanc_1_10::XalanVector"* %this1, i32 0, i32 1, !dbg !1791
  %1 = load i64, i64* %m_size, align 8, !dbg !1791
  %add.ptr = getelementptr inbounds i8, i8* %0, i64 %1, !dbg !1792
  ret i8* %add.ptr, !dbg !1793
}

; Function Attrs: noinline uwtable
define linkonce_odr dso_local void @_ZN11xalanc_1_1011XalanVectorIcNS_31MemoryManagedConstructionTraitsIcEEEC2ERKS3_RN11xercesc_2_713MemoryManagerEm(%"class.xalanc_1_10::XalanVector"* %this, %"class.xalanc_1_10::XalanVector"* dereferenceable(32) %theSource, %"class.xercesc_2_7::MemoryManager"* dereferenceable(8) %theManager, i64 %theInitialAllocation) unnamed_addr #0 comdat align 2 personality i8* bitcast (i32 (...)* @__gxx_personality_v0 to i8*) !dbg !1794 {
entry:
  %this.addr = alloca %"class.xalanc_1_10::XalanVector"*, align 8
  %theSource.addr = alloca %"class.xalanc_1_10::XalanVector"*, align 8
  %theManager.addr = alloca %"class.xercesc_2_7::MemoryManager"*, align 8
  %theInitialAllocation.addr = alloca i64, align 8
  %theTemp = alloca %"class.xalanc_1_10::XalanVector", align 8
  %exn.slot = alloca i8*
  %ehselector.slot = alloca i32
  store %"class.xalanc_1_10::XalanVector"* %this, %"class.xalanc_1_10::XalanVector"** %this.addr, align 8
  call void @llvm.dbg.declare(metadata %"class.xalanc_1_10::XalanVector"** %this.addr, metadata !1795, metadata !DIExpression()), !dbg !1796
  store %"class.xalanc_1_10::XalanVector"* %theSource, %"class.xalanc_1_10::XalanVector"** %theSource.addr, align 8
  call void @llvm.dbg.declare(metadata %"class.xalanc_1_10::XalanVector"** %theSource.addr, metadata !1797, metadata !DIExpression()), !dbg !1798
  store %"class.xercesc_2_7::MemoryManager"* %theManager, %"class.xercesc_2_7::MemoryManager"** %theManager.addr, align 8
  call void @llvm.dbg.declare(metadata %"class.xercesc_2_7::MemoryManager"** %theManager.addr, metadata !1799, metadata !DIExpression()), !dbg !1800
  store i64 %theInitialAllocation, i64* %theInitialAllocation.addr, align 8
  call void @llvm.dbg.declare(metadata i64* %theInitialAllocation.addr, metadata !1801, metadata !DIExpression()), !dbg !1802
  %this1 = load %"class.xalanc_1_10::XalanVector"*, %"class.xalanc_1_10::XalanVector"** %this.addr, align 8
  %m_memoryManager = getelementptr inbounds %"class.xalanc_1_10::XalanVector", %"class.xalanc_1_10::XalanVector"* %this1, i32 0, i32 0, !dbg !1803
  %0 = load %"class.xercesc_2_7::MemoryManager"*, %"class.xercesc_2_7::MemoryManager"** %theManager.addr, align 8, !dbg !1804
  store %"class.xercesc_2_7::MemoryManager"* %0, %"class.xercesc_2_7::MemoryManager"** %m_memoryManager, align 8, !dbg !1803
  %m_size = getelementptr inbounds %"class.xalanc_1_10::XalanVector", %"class.xalanc_1_10::XalanVector"* %this1, i32 0, i32 1, !dbg !1805
  store i64 0, i64* %m_size, align 8, !dbg !1805
  %m_allocation = getelementptr inbounds %"class.xalanc_1_10::XalanVector", %"class.xalanc_1_10::XalanVector"* %this1, i32 0, i32 2, !dbg !1806
  store i64 0, i64* %m_allocation, align 8, !dbg !1806
  %m_data = getelementptr inbounds %"class.xalanc_1_10::XalanVector", %"class.xalanc_1_10::XalanVector"* %this1, i32 0, i32 3, !dbg !1807
  store i8* null, i8** %m_data, align 8, !dbg !1807
  %1 = load %"class.xalanc_1_10::XalanVector"*, %"class.xalanc_1_10::XalanVector"** %theSource.addr, align 8, !dbg !1808
  %m_size2 = getelementptr inbounds %"class.xalanc_1_10::XalanVector", %"class.xalanc_1_10::XalanVector"* %1, i32 0, i32 1, !dbg !1811
  %2 = load i64, i64* %m_size2, align 8, !dbg !1811
  %cmp = icmp ugt i64 %2, 0, !dbg !1812
  br i1 %cmp, label %if.then, label %if.else, !dbg !1813

if.then:                                          ; preds = %entry
  call void @llvm.dbg.declare(metadata %"class.xalanc_1_10::XalanVector"* %theTemp, metadata !1814, metadata !DIExpression()), !dbg !1816
  %3 = load %"class.xercesc_2_7::MemoryManager"*, %"class.xercesc_2_7::MemoryManager"** %theManager.addr, align 8, !dbg !1817
  %4 = load %"class.xalanc_1_10::XalanVector"*, %"class.xalanc_1_10::XalanVector"** %theSource.addr, align 8, !dbg !1818
  %m_size3 = getelementptr inbounds %"class.xalanc_1_10::XalanVector", %"class.xalanc_1_10::XalanVector"* %4, i32 0, i32 1, !dbg !1819
  %5 = load i64, i64* %m_size3, align 8, !dbg !1819
  %6 = load i64, i64* %theInitialAllocation.addr, align 8, !dbg !1820
  %call = call i64 @_ZN11xalanc_1_1011XalanVectorIcNS_31MemoryManagedConstructionTraitsIcEEE9local_maxEmm(%"class.xalanc_1_10::XalanVector"* %this1, i64 %5, i64 %6), !dbg !1821
  call void @_ZN11xalanc_1_1011XalanVectorIcNS_31MemoryManagedConstructionTraitsIcEEEC2ERN11xercesc_2_713MemoryManagerEm(%"class.xalanc_1_10::XalanVector"* %theTemp, %"class.xercesc_2_7::MemoryManager"* dereferenceable(8) %3, i64 %call), !dbg !1816
  %call4 = invoke i8* @_ZN11xalanc_1_1011XalanVectorIcNS_31MemoryManagedConstructionTraitsIcEEE5beginEv(%"class.xalanc_1_10::XalanVector"* %theTemp)
          to label %invoke.cont unwind label %lpad, !dbg !1822

invoke.cont:                                      ; preds = %if.then
  %7 = load %"class.xalanc_1_10::XalanVector"*, %"class.xalanc_1_10::XalanVector"** %theSource.addr, align 8, !dbg !1823
  %call6 = invoke i8* @_ZNK11xalanc_1_1011XalanVectorIcNS_31MemoryManagedConstructionTraitsIcEEE5beginEv(%"class.xalanc_1_10::XalanVector"* %7)
          to label %invoke.cont5 unwind label %lpad, !dbg !1824

invoke.cont5:                                     ; preds = %invoke.cont
  %8 = load %"class.xalanc_1_10::XalanVector"*, %"class.xalanc_1_10::XalanVector"** %theSource.addr, align 8, !dbg !1825
  %call8 = invoke i8* @_ZNK11xalanc_1_1011XalanVectorIcNS_31MemoryManagedConstructionTraitsIcEEE3endEv(%"class.xalanc_1_10::XalanVector"* %8)
          to label %invoke.cont7 unwind label %lpad, !dbg !1826

invoke.cont7:                                     ; preds = %invoke.cont5
  invoke void @_ZN11xalanc_1_1011XalanVectorIcNS_31MemoryManagedConstructionTraitsIcEEE6insertEPcPKcS6_(%"class.xalanc_1_10::XalanVector"* %theTemp, i8* %call4, i8* %call6, i8* %call8)
          to label %invoke.cont9 unwind label %lpad, !dbg !1827

invoke.cont9:                                     ; preds = %invoke.cont7
  invoke void @_ZN11xalanc_1_1011XalanVectorIcNS_31MemoryManagedConstructionTraitsIcEEE4swapERS3_(%"class.xalanc_1_10::XalanVector"* %this1, %"class.xalanc_1_10::XalanVector"* dereferenceable(32) %theTemp)
          to label %invoke.cont10 unwind label %lpad, !dbg !1828

invoke.cont10:                                    ; preds = %invoke.cont9
  call void @_ZN11xalanc_1_1011XalanVectorIcNS_31MemoryManagedConstructionTraitsIcEEED2Ev(%"class.xalanc_1_10::XalanVector"* %theTemp) #5, !dbg !1829
  br label %if.end16, !dbg !1830

lpad:                                             ; preds = %invoke.cont9, %invoke.cont7, %invoke.cont5, %invoke.cont, %if.then
  %9 = landingpad { i8*, i32 }
          cleanup, !dbg !1831
  %10 = extractvalue { i8*, i32 } %9, 0, !dbg !1831
  store i8* %10, i8** %exn.slot, align 8, !dbg !1831
  %11 = extractvalue { i8*, i32 } %9, 1, !dbg !1831
  store i32 %11, i32* %ehselector.slot, align 4, !dbg !1831
  call void @_ZN11xalanc_1_1011XalanVectorIcNS_31MemoryManagedConstructionTraitsIcEEED2Ev(%"class.xalanc_1_10::XalanVector"* %theTemp) #5, !dbg !1829
  br label %eh.resume, !dbg !1829

if.else:                                          ; preds = %entry
  %12 = load i64, i64* %theInitialAllocation.addr, align 8, !dbg !1832
  %cmp11 = icmp ugt i64 %12, 0, !dbg !1834
  br i1 %cmp11, label %if.then12, label %if.end, !dbg !1835

if.then12:                                        ; preds = %if.else
  %13 = load i64, i64* %theInitialAllocation.addr, align 8, !dbg !1836
  %call13 = call i8* @_ZN11xalanc_1_1011XalanVectorIcNS_31MemoryManagedConstructionTraitsIcEEE8allocateEm(%"class.xalanc_1_10::XalanVector"* %this1, i64 %13), !dbg !1838
  %m_data14 = getelementptr inbounds %"class.xalanc_1_10::XalanVector", %"class.xalanc_1_10::XalanVector"* %this1, i32 0, i32 3, !dbg !1839
  store i8* %call13, i8** %m_data14, align 8, !dbg !1840
  %14 = load i64, i64* %theInitialAllocation.addr, align 8, !dbg !1841
  %m_allocation15 = getelementptr inbounds %"class.xalanc_1_10::XalanVector", %"class.xalanc_1_10::XalanVector"* %this1, i32 0, i32 2, !dbg !1842
  store i64 %14, i64* %m_allocation15, align 8, !dbg !1843
  br label %if.end, !dbg !1844

if.end:                                           ; preds = %if.then12, %if.else
  br label %if.end16

if.end16:                                         ; preds = %if.end, %invoke.cont10
  call void @_ZNK11xalanc_1_1011XalanVectorIcNS_31MemoryManagedConstructionTraitsIcEEE10invariantsEv(%"class.xalanc_1_10::XalanVector"* %this1), !dbg !1845
  ret void, !dbg !1846

eh.resume:                                        ; preds = %lpad
  %exn = load i8*, i8** %exn.slot, align 8, !dbg !1829
  %sel = load i32, i32* %ehselector.slot, align 4, !dbg !1829
  %lpad.val = insertvalue { i8*, i32 } undef, i8* %exn, 0, !dbg !1829
  %lpad.val17 = insertvalue { i8*, i32 } %lpad.val, i32 %sel, 1, !dbg !1829
  resume { i8*, i32 } %lpad.val17, !dbg !1829
}

; Function Attrs: noinline nounwind uwtable
define linkonce_odr dso_local i64 @_ZN11xalanc_1_1011XalanVectorIcNS_31MemoryManagedConstructionTraitsIcEEE9local_maxEmm(%"class.xalanc_1_10::XalanVector"* %this, i64 %theLHS, i64 %theRHS) #2 comdat align 2 !dbg !1847 {
entry:
  %this.addr = alloca %"class.xalanc_1_10::XalanVector"*, align 8
  %theLHS.addr = alloca i64, align 8
  %theRHS.addr = alloca i64, align 8
  store %"class.xalanc_1_10::XalanVector"* %this, %"class.xalanc_1_10::XalanVector"** %this.addr, align 8
  call void @llvm.dbg.declare(metadata %"class.xalanc_1_10::XalanVector"** %this.addr, metadata !1848, metadata !DIExpression()), !dbg !1849
  store i64 %theLHS, i64* %theLHS.addr, align 8
  call void @llvm.dbg.declare(metadata i64* %theLHS.addr, metadata !1850, metadata !DIExpression()), !dbg !1851
  store i64 %theRHS, i64* %theRHS.addr, align 8
  call void @llvm.dbg.declare(metadata i64* %theRHS.addr, metadata !1852, metadata !DIExpression()), !dbg !1853
  %this1 = load %"class.xalanc_1_10::XalanVector"*, %"class.xalanc_1_10::XalanVector"** %this.addr, align 8
  %0 = load i64, i64* %theLHS.addr, align 8, !dbg !1854
  %1 = load i64, i64* %theRHS.addr, align 8, !dbg !1855
  %cmp = icmp ugt i64 %0, %1, !dbg !1856
  br i1 %cmp, label %cond.true, label %cond.false, !dbg !1854

cond.true:                                        ; preds = %entry
  %2 = load i64, i64* %theLHS.addr, align 8, !dbg !1857
  br label %cond.end, !dbg !1854

cond.false:                                       ; preds = %entry
  %3 = load i64, i64* %theRHS.addr, align 8, !dbg !1858
  br label %cond.end, !dbg !1854

cond.end:                                         ; preds = %cond.false, %cond.true
  %cond = phi i64 [ %2, %cond.true ], [ %3, %cond.false ], !dbg !1854
  ret i64 %cond, !dbg !1859
}

; Function Attrs: noinline uwtable
define linkonce_odr dso_local i8* @_ZNK11xalanc_1_1011XalanVectorIcNS_31MemoryManagedConstructionTraitsIcEEE5beginEv(%"class.xalanc_1_10::XalanVector"* %this) #0 comdat align 2 !dbg !1860 {
entry:
  %this.addr = alloca %"class.xalanc_1_10::XalanVector"*, align 8
  store %"class.xalanc_1_10::XalanVector"* %this, %"class.xalanc_1_10::XalanVector"** %this.addr, align 8
  call void @llvm.dbg.declare(metadata %"class.xalanc_1_10::XalanVector"** %this.addr, metadata !1861, metadata !DIExpression()), !dbg !1862
  %this1 = load %"class.xalanc_1_10::XalanVector"*, %"class.xalanc_1_10::XalanVector"** %this.addr, align 8
  call void @_ZNK11xalanc_1_1011XalanVectorIcNS_31MemoryManagedConstructionTraitsIcEEE10invariantsEv(%"class.xalanc_1_10::XalanVector"* %this1), !dbg !1863
  %m_data = getelementptr inbounds %"class.xalanc_1_10::XalanVector", %"class.xalanc_1_10::XalanVector"* %this1, i32 0, i32 3, !dbg !1864
  %0 = load i8*, i8** %m_data, align 8, !dbg !1864
  ret i8* %0, !dbg !1865
}

; Function Attrs: noinline uwtable
define linkonce_odr dso_local i8* @_ZNK11xalanc_1_1011XalanVectorIcNS_31MemoryManagedConstructionTraitsIcEEE3endEv(%"class.xalanc_1_10::XalanVector"* %this) #0 comdat align 2 !dbg !1866 {
entry:
  %this.addr = alloca %"class.xalanc_1_10::XalanVector"*, align 8
  store %"class.xalanc_1_10::XalanVector"* %this, %"class.xalanc_1_10::XalanVector"** %this.addr, align 8
  call void @llvm.dbg.declare(metadata %"class.xalanc_1_10::XalanVector"** %this.addr, metadata !1867, metadata !DIExpression()), !dbg !1868
  %this1 = load %"class.xalanc_1_10::XalanVector"*, %"class.xalanc_1_10::XalanVector"** %this.addr, align 8
  call void @_ZNK11xalanc_1_1011XalanVectorIcNS_31MemoryManagedConstructionTraitsIcEEE10invariantsEv(%"class.xalanc_1_10::XalanVector"* %this1), !dbg !1869
  %call = call i8* @_ZNK11xalanc_1_1011XalanVectorIcNS_31MemoryManagedConstructionTraitsIcEEE10endPointerEv(%"class.xalanc_1_10::XalanVector"* %this1), !dbg !1870
  ret i8* %call, !dbg !1871
}

; Function Attrs: noinline nounwind uwtable
define linkonce_odr dso_local i8* @_ZNK11xalanc_1_1011XalanVectorIcNS_31MemoryManagedConstructionTraitsIcEEE10endPointerEv(%"class.xalanc_1_10::XalanVector"* %this) #2 comdat align 2 !dbg !1872 {
entry:
  %this.addr = alloca %"class.xalanc_1_10::XalanVector"*, align 8
  store %"class.xalanc_1_10::XalanVector"* %this, %"class.xalanc_1_10::XalanVector"** %this.addr, align 8
  call void @llvm.dbg.declare(metadata %"class.xalanc_1_10::XalanVector"** %this.addr, metadata !1873, metadata !DIExpression()), !dbg !1874
  %this1 = load %"class.xalanc_1_10::XalanVector"*, %"class.xalanc_1_10::XalanVector"** %this.addr, align 8
  %m_data = getelementptr inbounds %"class.xalanc_1_10::XalanVector", %"class.xalanc_1_10::XalanVector"* %this1, i32 0, i32 3, !dbg !1875
  %0 = load i8*, i8** %m_data, align 8, !dbg !1875
  %m_size = getelementptr inbounds %"class.xalanc_1_10::XalanVector", %"class.xalanc_1_10::XalanVector"* %this1, i32 0, i32 1, !dbg !1876
  %1 = load i64, i64* %m_size, align 8, !dbg !1876
  %add.ptr = getelementptr inbounds i8, i8* %0, i64 %1, !dbg !1877
  ret i8* %add.ptr, !dbg !1878
}

; Function Attrs: noinline uwtable
define linkonce_odr dso_local i8* @_ZSt4copyIPKcPcET0_T_S4_S3_(i8* %__first, i8* %__last, i8* %__result) #0 comdat !dbg !1879 {
entry:
  %__first.addr = alloca i8*, align 8
  %__last.addr = alloca i8*, align 8
  %__result.addr = alloca i8*, align 8
  store i8* %__first, i8** %__first.addr, align 8
  call void @llvm.dbg.declare(metadata i8** %__first.addr, metadata !1885, metadata !DIExpression()), !dbg !1886
  store i8* %__last, i8** %__last.addr, align 8
  call void @llvm.dbg.declare(metadata i8** %__last.addr, metadata !1887, metadata !DIExpression()), !dbg !1888
  store i8* %__result, i8** %__result.addr, align 8
  call void @llvm.dbg.declare(metadata i8** %__result.addr, metadata !1889, metadata !DIExpression()), !dbg !1890
  %0 = load i8*, i8** %__first.addr, align 8, !dbg !1891
  %call = call i8* @_ZSt12__miter_baseIPKcET_S2_(i8* %0), !dbg !1892
  %1 = load i8*, i8** %__last.addr, align 8, !dbg !1893
  %call1 = call i8* @_ZSt12__miter_baseIPKcET_S2_(i8* %1), !dbg !1894
  %2 = load i8*, i8** %__result.addr, align 8, !dbg !1895
  %call2 = call i8* @_ZSt13__copy_move_aILb0EPKcPcET1_T0_S4_S3_(i8* %call, i8* %call1, i8* %2), !dbg !1896
  ret i8* %call2, !dbg !1897
}

; Function Attrs: noinline uwtable
define linkonce_odr dso_local i8* @_ZSt13__copy_move_aILb0EPKcPcET1_T0_S4_S3_(i8* %__first, i8* %__last, i8* %__result) #0 comdat !dbg !1898 {
entry:
  %__first.addr = alloca i8*, align 8
  %__last.addr = alloca i8*, align 8
  %__result.addr = alloca i8*, align 8
  store i8* %__first, i8** %__first.addr, align 8
  call void @llvm.dbg.declare(metadata i8** %__first.addr, metadata !1903, metadata !DIExpression()), !dbg !1904
  store i8* %__last, i8** %__last.addr, align 8
  call void @llvm.dbg.declare(metadata i8** %__last.addr, metadata !1905, metadata !DIExpression()), !dbg !1906
  store i8* %__result, i8** %__result.addr, align 8
  call void @llvm.dbg.declare(metadata i8** %__result.addr, metadata !1907, metadata !DIExpression()), !dbg !1908
  %0 = load i8*, i8** %__first.addr, align 8, !dbg !1909
  %call = call i8* @_ZSt12__niter_baseIPKcET_S2_(i8* %0) #5, !dbg !1910
  %1 = load i8*, i8** %__last.addr, align 8, !dbg !1911
  %call1 = call i8* @_ZSt12__niter_baseIPKcET_S2_(i8* %1) #5, !dbg !1912
  %2 = load i8*, i8** %__result.addr, align 8, !dbg !1913
  %call2 = call i8* @_ZSt12__niter_baseIPcET_S1_(i8* %2) #5, !dbg !1914
  %call3 = call i8* @_ZSt14__copy_move_a1ILb0EPKcPcET1_T0_S4_S3_(i8* %call, i8* %call1, i8* %call2), !dbg !1915
  %call4 = call i8* @_ZSt12__niter_wrapIPcET_RKS1_S1_(i8** dereferenceable(8) %__result.addr, i8* %call3), !dbg !1916
  ret i8* %call4, !dbg !1917
}

; Function Attrs: noinline nounwind uwtable
define linkonce_odr dso_local i8* @_ZSt12__miter_baseIPKcET_S2_(i8* %__it) #2 comdat !dbg !1918 {
entry:
  %__it.addr = alloca i8*, align 8
  store i8* %__it, i8** %__it.addr, align 8
  call void @llvm.dbg.declare(metadata i8** %__it.addr, metadata !1924, metadata !DIExpression()), !dbg !1925
  %0 = load i8*, i8** %__it.addr, align 8, !dbg !1926
  ret i8* %0, !dbg !1927
}

; Function Attrs: noinline nounwind uwtable
define linkonce_odr dso_local i8* @_ZSt12__niter_wrapIPcET_RKS1_S1_(i8** dereferenceable(8) %0, i8* %__res) #2 comdat !dbg !1928 {
entry:
  %.addr = alloca i8**, align 8
  %__res.addr = alloca i8*, align 8
  store i8** %0, i8*** %.addr, align 8
  call void @llvm.dbg.declare(metadata i8*** %.addr, metadata !1935, metadata !DIExpression()), !dbg !1936
  store i8* %__res, i8** %__res.addr, align 8
  call void @llvm.dbg.declare(metadata i8** %__res.addr, metadata !1937, metadata !DIExpression()), !dbg !1938
  %1 = load i8*, i8** %__res.addr, align 8, !dbg !1939
  ret i8* %1, !dbg !1940
}

; Function Attrs: noinline uwtable
define linkonce_odr dso_local i8* @_ZSt14__copy_move_a1ILb0EPKcPcET1_T0_S4_S3_(i8* %__first, i8* %__last, i8* %__result) #0 comdat !dbg !1941 {
entry:
  %__first.addr = alloca i8*, align 8
  %__last.addr = alloca i8*, align 8
  %__result.addr = alloca i8*, align 8
  store i8* %__first, i8** %__first.addr, align 8
  call void @llvm.dbg.declare(metadata i8** %__first.addr, metadata !1942, metadata !DIExpression()), !dbg !1943
  store i8* %__last, i8** %__last.addr, align 8
  call void @llvm.dbg.declare(metadata i8** %__last.addr, metadata !1944, metadata !DIExpression()), !dbg !1945
  store i8* %__result, i8** %__result.addr, align 8
  call void @llvm.dbg.declare(metadata i8** %__result.addr, metadata !1946, metadata !DIExpression()), !dbg !1947
  %0 = load i8*, i8** %__first.addr, align 8, !dbg !1948
  %1 = load i8*, i8** %__last.addr, align 8, !dbg !1949
  %2 = load i8*, i8** %__result.addr, align 8, !dbg !1950
  %call = call i8* @_ZSt14__copy_move_a2ILb0EPKcPcET1_T0_S4_S3_(i8* %0, i8* %1, i8* %2), !dbg !1951
  ret i8* %call, !dbg !1952
}

; Function Attrs: noinline nounwind uwtable
define linkonce_odr dso_local i8* @_ZSt12__niter_baseIPKcET_S2_(i8* %__it) #2 comdat !dbg !1953 {
entry:
  %__it.addr = alloca i8*, align 8
  store i8* %__it, i8** %__it.addr, align 8
  call void @llvm.dbg.declare(metadata i8** %__it.addr, metadata !1954, metadata !DIExpression()), !dbg !1955
  %0 = load i8*, i8** %__it.addr, align 8, !dbg !1956
  ret i8* %0, !dbg !1957
}

; Function Attrs: noinline nounwind uwtable
define linkonce_odr dso_local i8* @_ZSt12__niter_baseIPcET_S1_(i8* %__it) #2 comdat !dbg !1958 {
entry:
  %__it.addr = alloca i8*, align 8
  store i8* %__it, i8** %__it.addr, align 8
  call void @llvm.dbg.declare(metadata i8** %__it.addr, metadata !1959, metadata !DIExpression()), !dbg !1960
  %0 = load i8*, i8** %__it.addr, align 8, !dbg !1961
  ret i8* %0, !dbg !1962
}

; Function Attrs: noinline uwtable
define linkonce_odr dso_local i8* @_ZSt14__copy_move_a2ILb0EPKcPcET1_T0_S4_S3_(i8* %__first, i8* %__last, i8* %__result) #0 comdat !dbg !1963 {
entry:
  %__first.addr = alloca i8*, align 8
  %__last.addr = alloca i8*, align 8
  %__result.addr = alloca i8*, align 8
  store i8* %__first, i8** %__first.addr, align 8
  call void @llvm.dbg.declare(metadata i8** %__first.addr, metadata !1964, metadata !DIExpression()), !dbg !1965
  store i8* %__last, i8** %__last.addr, align 8
  call void @llvm.dbg.declare(metadata i8** %__last.addr, metadata !1966, metadata !DIExpression()), !dbg !1967
  store i8* %__result, i8** %__result.addr, align 8
  call void @llvm.dbg.declare(metadata i8** %__result.addr, metadata !1968, metadata !DIExpression()), !dbg !1969
  %0 = load i8*, i8** %__first.addr, align 8, !dbg !1970
  %1 = load i8*, i8** %__last.addr, align 8, !dbg !1971
  %2 = load i8*, i8** %__result.addr, align 8, !dbg !1972
  %call = call i8* @_ZNSt11__copy_moveILb0ELb1ESt26random_access_iterator_tagE8__copy_mIcEEPT_PKS3_S6_S4_(i8* %0, i8* %1, i8* %2), !dbg !1973
  ret i8* %call, !dbg !1974
}

; Function Attrs: noinline nounwind uwtable
define linkonce_odr dso_local i8* @_ZNSt11__copy_moveILb0ELb1ESt26random_access_iterator_tagE8__copy_mIcEEPT_PKS3_S6_S4_(i8* %__first, i8* %__last, i8* %__result) #2 comdat align 2 !dbg !1975 {
entry:
  %__first.addr = alloca i8*, align 8
  %__last.addr = alloca i8*, align 8
  %__result.addr = alloca i8*, align 8
  %_Num = alloca i64, align 8
  store i8* %__first, i8** %__first.addr, align 8
  call void @llvm.dbg.declare(metadata i8** %__first.addr, metadata !1993, metadata !DIExpression()), !dbg !1994
  store i8* %__last, i8** %__last.addr, align 8
  call void @llvm.dbg.declare(metadata i8** %__last.addr, metadata !1995, metadata !DIExpression()), !dbg !1996
  store i8* %__result, i8** %__result.addr, align 8
  call void @llvm.dbg.declare(metadata i8** %__result.addr, metadata !1997, metadata !DIExpression()), !dbg !1998
  call void @llvm.dbg.declare(metadata i64* %_Num, metadata !1999, metadata !DIExpression()), !dbg !2002
  %0 = load i8*, i8** %__last.addr, align 8, !dbg !2003
  %1 = load i8*, i8** %__first.addr, align 8, !dbg !2004
  %sub.ptr.lhs.cast = ptrtoint i8* %0 to i64, !dbg !2005
  %sub.ptr.rhs.cast = ptrtoint i8* %1 to i64, !dbg !2005
  %sub.ptr.sub = sub i64 %sub.ptr.lhs.cast, %sub.ptr.rhs.cast, !dbg !2005
  store i64 %sub.ptr.sub, i64* %_Num, align 8, !dbg !2002
  %2 = load i64, i64* %_Num, align 8, !dbg !2006
  %tobool = icmp ne i64 %2, 0, !dbg !2006
  br i1 %tobool, label %if.then, label %if.end, !dbg !2008

if.then:                                          ; preds = %entry
  %3 = load i8*, i8** %__result.addr, align 8, !dbg !2009
  %4 = load i8*, i8** %__first.addr, align 8, !dbg !2010
  %5 = load i64, i64* %_Num, align 8, !dbg !2011
  %mul = mul i64 1, %5, !dbg !2012
  call void @llvm.memmove.p0i8.p0i8.i64(i8* align 1 %3, i8* align 1 %4, i64 %mul, i1 false), !dbg !2013
  br label %if.end, !dbg !2013

if.end:                                           ; preds = %if.then, %entry
  %6 = load i8*, i8** %__result.addr, align 8, !dbg !2014
  %7 = load i64, i64* %_Num, align 8, !dbg !2015
  %add.ptr = getelementptr inbounds i8, i8* %6, i64 %7, !dbg !2016
  ret i8* %add.ptr, !dbg !2017
}

; Function Attrs: argmemonly nounwind willreturn
declare void @llvm.memmove.p0i8.p0i8.i64(i8* nocapture, i8* nocapture readonly, i64, i1 immarg) #3

; Function Attrs: noinline uwtable
define linkonce_odr dso_local i64 @_ZSt8distanceIPKcENSt15iterator_traitsIT_E15difference_typeES3_S3_(i8* %__first, i8* %__last) #0 comdat !dbg !2018 {
entry:
  %__first.addr = alloca i8*, align 8
  %__last.addr = alloca i8*, align 8
  %agg.tmp = alloca %"struct.std::random_access_iterator_tag", align 1
  %undef.agg.tmp = alloca %"struct.std::random_access_iterator_tag", align 1
  store i8* %__first, i8** %__first.addr, align 8
  call void @llvm.dbg.declare(metadata i8** %__first.addr, metadata !2026, metadata !DIExpression()), !dbg !2027
  store i8* %__last, i8** %__last.addr, align 8
  call void @llvm.dbg.declare(metadata i8** %__last.addr, metadata !2028, metadata !DIExpression()), !dbg !2029
  %0 = load i8*, i8** %__first.addr, align 8, !dbg !2030
  %1 = load i8*, i8** %__last.addr, align 8, !dbg !2031
  call void @_ZSt19__iterator_categoryIPKcENSt15iterator_traitsIT_E17iterator_categoryERKS3_(i8** dereferenceable(8) %__first.addr), !dbg !2032
  %call = call i64 @_ZSt10__distanceIPKcENSt15iterator_traitsIT_E15difference_typeES3_S3_St26random_access_iterator_tag(i8* %0, i8* %1), !dbg !2033
  ret i64 %call, !dbg !2034
}

; Function Attrs: noinline nounwind uwtable
define linkonce_odr dso_local i64 @_ZSt10__distanceIPKcENSt15iterator_traitsIT_E15difference_typeES3_S3_St26random_access_iterator_tag(i8* %__first, i8* %__last) #2 comdat !dbg !2035 {
entry:
  %0 = alloca %"struct.std::random_access_iterator_tag", align 1
  %__first.addr = alloca i8*, align 8
  %__last.addr = alloca i8*, align 8
  store i8* %__first, i8** %__first.addr, align 8
  call void @llvm.dbg.declare(metadata i8** %__first.addr, metadata !2040, metadata !DIExpression()), !dbg !2041
  store i8* %__last, i8** %__last.addr, align 8
  call void @llvm.dbg.declare(metadata i8** %__last.addr, metadata !2042, metadata !DIExpression()), !dbg !2043
  call void @llvm.dbg.declare(metadata %"struct.std::random_access_iterator_tag"* %0, metadata !2044, metadata !DIExpression()), !dbg !2045
  %1 = load i8*, i8** %__last.addr, align 8, !dbg !2046
  %2 = load i8*, i8** %__first.addr, align 8, !dbg !2047
  %sub.ptr.lhs.cast = ptrtoint i8* %1 to i64, !dbg !2048
  %sub.ptr.rhs.cast = ptrtoint i8* %2 to i64, !dbg !2048
  %sub.ptr.sub = sub i64 %sub.ptr.lhs.cast, %sub.ptr.rhs.cast, !dbg !2048
  ret i64 %sub.ptr.sub, !dbg !2049
}

; Function Attrs: noinline nounwind uwtable
define linkonce_odr dso_local void @_ZSt19__iterator_categoryIPKcENSt15iterator_traitsIT_E17iterator_categoryERKS3_(i8** dereferenceable(8) %0) #2 comdat !dbg !2050 {
entry:
  %.addr = alloca i8**, align 8
  store i8** %0, i8*** %.addr, align 8
  call void @llvm.dbg.declare(metadata i8*** %.addr, metadata !2058, metadata !DIExpression()), !dbg !2059
  ret void, !dbg !2060
}

; Function Attrs: noinline uwtable
define linkonce_odr dso_local i8* @_ZSt22__copy_move_backward_aILb0EPcS0_ET1_T0_S2_S1_(i8* %__first, i8* %__last, i8* %__result) #0 comdat !dbg !2061 {
entry:
  %__first.addr = alloca i8*, align 8
  %__last.addr = alloca i8*, align 8
  %__result.addr = alloca i8*, align 8
  store i8* %__first, i8** %__first.addr, align 8
  call void @llvm.dbg.declare(metadata i8** %__first.addr, metadata !2064, metadata !DIExpression()), !dbg !2065
  store i8* %__last, i8** %__last.addr, align 8
  call void @llvm.dbg.declare(metadata i8** %__last.addr, metadata !2066, metadata !DIExpression()), !dbg !2067
  store i8* %__result, i8** %__result.addr, align 8
  call void @llvm.dbg.declare(metadata i8** %__result.addr, metadata !2068, metadata !DIExpression()), !dbg !2069
  %0 = load i8*, i8** %__first.addr, align 8, !dbg !2070
  %call = call i8* @_ZSt12__niter_baseIPcET_S1_(i8* %0) #5, !dbg !2071
  %1 = load i8*, i8** %__last.addr, align 8, !dbg !2072
  %call1 = call i8* @_ZSt12__niter_baseIPcET_S1_(i8* %1) #5, !dbg !2073
  %2 = load i8*, i8** %__result.addr, align 8, !dbg !2074
  %call2 = call i8* @_ZSt12__niter_baseIPcET_S1_(i8* %2) #5, !dbg !2075
  %call3 = call i8* @_ZSt23__copy_move_backward_a1ILb0EPcS0_ET1_T0_S2_S1_(i8* %call, i8* %call1, i8* %call2), !dbg !2076
  %call4 = call i8* @_ZSt12__niter_wrapIPcET_RKS1_S1_(i8** dereferenceable(8) %__result.addr, i8* %call3), !dbg !2077
  ret i8* %call4, !dbg !2078
}

; Function Attrs: noinline nounwind uwtable
define linkonce_odr dso_local i8* @_ZSt12__miter_baseIPcET_S1_(i8* %__it) #2 comdat !dbg !2079 {
entry:
  %__it.addr = alloca i8*, align 8
  store i8* %__it, i8** %__it.addr, align 8
  call void @llvm.dbg.declare(metadata i8** %__it.addr, metadata !2080, metadata !DIExpression()), !dbg !2081
  %0 = load i8*, i8** %__it.addr, align 8, !dbg !2082
  ret i8* %0, !dbg !2083
}

; Function Attrs: noinline uwtable
define linkonce_odr dso_local i8* @_ZSt23__copy_move_backward_a1ILb0EPcS0_ET1_T0_S2_S1_(i8* %__first, i8* %__last, i8* %__result) #0 comdat !dbg !2084 {
entry:
  %__first.addr = alloca i8*, align 8
  %__last.addr = alloca i8*, align 8
  %__result.addr = alloca i8*, align 8
  store i8* %__first, i8** %__first.addr, align 8
  call void @llvm.dbg.declare(metadata i8** %__first.addr, metadata !2088, metadata !DIExpression()), !dbg !2089
  store i8* %__last, i8** %__last.addr, align 8
  call void @llvm.dbg.declare(metadata i8** %__last.addr, metadata !2090, metadata !DIExpression()), !dbg !2091
  store i8* %__result, i8** %__result.addr, align 8
  call void @llvm.dbg.declare(metadata i8** %__result.addr, metadata !2092, metadata !DIExpression()), !dbg !2093
  %0 = load i8*, i8** %__first.addr, align 8, !dbg !2094
  %1 = load i8*, i8** %__last.addr, align 8, !dbg !2095
  %2 = load i8*, i8** %__result.addr, align 8, !dbg !2096
  %call = call i8* @_ZSt23__copy_move_backward_a2ILb0EPcS0_ET1_T0_S2_S1_(i8* %0, i8* %1, i8* %2), !dbg !2097
  ret i8* %call, !dbg !2098
}

; Function Attrs: noinline uwtable
define linkonce_odr dso_local i8* @_ZSt23__copy_move_backward_a2ILb0EPcS0_ET1_T0_S2_S1_(i8* %__first, i8* %__last, i8* %__result) #0 comdat !dbg !2099 {
entry:
  %__first.addr = alloca i8*, align 8
  %__last.addr = alloca i8*, align 8
  %__result.addr = alloca i8*, align 8
  store i8* %__first, i8** %__first.addr, align 8
  call void @llvm.dbg.declare(metadata i8** %__first.addr, metadata !2100, metadata !DIExpression()), !dbg !2101
  store i8* %__last, i8** %__last.addr, align 8
  call void @llvm.dbg.declare(metadata i8** %__last.addr, metadata !2102, metadata !DIExpression()), !dbg !2103
  store i8* %__result, i8** %__result.addr, align 8
  call void @llvm.dbg.declare(metadata i8** %__result.addr, metadata !2104, metadata !DIExpression()), !dbg !2105
  %0 = load i8*, i8** %__first.addr, align 8, !dbg !2106
  %1 = load i8*, i8** %__last.addr, align 8, !dbg !2107
  %2 = load i8*, i8** %__result.addr, align 8, !dbg !2108
  %call = call i8* @_ZNSt20__copy_move_backwardILb0ELb1ESt26random_access_iterator_tagE13__copy_move_bIcEEPT_PKS3_S6_S4_(i8* %0, i8* %1, i8* %2), !dbg !2109
  ret i8* %call, !dbg !2110
}

; Function Attrs: noinline nounwind uwtable
define linkonce_odr dso_local i8* @_ZNSt20__copy_move_backwardILb0ELb1ESt26random_access_iterator_tagE13__copy_move_bIcEEPT_PKS3_S6_S4_(i8* %__first, i8* %__last, i8* %__result) #2 comdat align 2 !dbg !2111 {
entry:
  %__first.addr = alloca i8*, align 8
  %__last.addr = alloca i8*, align 8
  %__result.addr = alloca i8*, align 8
  %_Num = alloca i64, align 8
  store i8* %__first, i8** %__first.addr, align 8
  call void @llvm.dbg.declare(metadata i8** %__first.addr, metadata !2114, metadata !DIExpression()), !dbg !2115
  store i8* %__last, i8** %__last.addr, align 8
  call void @llvm.dbg.declare(metadata i8** %__last.addr, metadata !2116, metadata !DIExpression()), !dbg !2117
  store i8* %__result, i8** %__result.addr, align 8
  call void @llvm.dbg.declare(metadata i8** %__result.addr, metadata !2118, metadata !DIExpression()), !dbg !2119
  call void @llvm.dbg.declare(metadata i64* %_Num, metadata !2120, metadata !DIExpression()), !dbg !2121
  %0 = load i8*, i8** %__last.addr, align 8, !dbg !2122
  %1 = load i8*, i8** %__first.addr, align 8, !dbg !2123
  %sub.ptr.lhs.cast = ptrtoint i8* %0 to i64, !dbg !2124
  %sub.ptr.rhs.cast = ptrtoint i8* %1 to i64, !dbg !2124
  %sub.ptr.sub = sub i64 %sub.ptr.lhs.cast, %sub.ptr.rhs.cast, !dbg !2124
  store i64 %sub.ptr.sub, i64* %_Num, align 8, !dbg !2121
  %2 = load i64, i64* %_Num, align 8, !dbg !2125
  %tobool = icmp ne i64 %2, 0, !dbg !2125
  br i1 %tobool, label %if.then, label %if.end, !dbg !2127

if.then:                                          ; preds = %entry
  %3 = load i8*, i8** %__result.addr, align 8, !dbg !2128
  %4 = load i64, i64* %_Num, align 8, !dbg !2129
  %idx.neg = sub i64 0, %4, !dbg !2130
  %add.ptr = getelementptr inbounds i8, i8* %3, i64 %idx.neg, !dbg !2130
  %5 = load i8*, i8** %__first.addr, align 8, !dbg !2131
  %6 = load i64, i64* %_Num, align 8, !dbg !2132
  %mul = mul i64 1, %6, !dbg !2133
  call void @llvm.memmove.p0i8.p0i8.i64(i8* align 1 %add.ptr, i8* align 1 %5, i64 %mul, i1 false), !dbg !2134
  br label %if.end, !dbg !2134

if.end:                                           ; preds = %if.then, %entry
  %7 = load i8*, i8** %__result.addr, align 8, !dbg !2135
  %8 = load i64, i64* %_Num, align 8, !dbg !2136
  %idx.neg1 = sub i64 0, %8, !dbg !2137
  %add.ptr2 = getelementptr inbounds i8, i8* %7, i64 %idx.neg1, !dbg !2137
  ret i8* %add.ptr2, !dbg !2138
}

; Function Attrs: noinline noreturn nounwind
define linkonce_odr hidden void @__clang_call_terminate(i8* %0) #4 comdat {
  %2 = call i8* @__cxa_begin_catch(i8* %0) #5
  call void @_ZSt9terminatev() #6
  unreachable
}

declare dso_local i8* @__cxa_begin_catch(i8*)

declare dso_local void @_ZSt9terminatev()

; Function Attrs: noinline uwtable
define linkonce_odr dso_local void @_ZN11xalanc_1_1011XalanVectorIcNS_31MemoryManagedConstructionTraitsIcEEE7destroyEPcS4_(i8* %theFirst, i8* %theLast) #0 comdat align 2 !dbg !2139 {
entry:
  %theFirst.addr = alloca i8*, align 8
  %theLast.addr = alloca i8*, align 8
  store i8* %theFirst, i8** %theFirst.addr, align 8
  call void @llvm.dbg.declare(metadata i8** %theFirst.addr, metadata !2140, metadata !DIExpression()), !dbg !2141
  store i8* %theLast, i8** %theLast.addr, align 8
  call void @llvm.dbg.declare(metadata i8** %theLast.addr, metadata !2142, metadata !DIExpression()), !dbg !2143
  br label %for.cond, !dbg !2144

for.cond:                                         ; preds = %for.inc, %entry
  %0 = load i8*, i8** %theFirst.addr, align 8, !dbg !2145
  %1 = load i8*, i8** %theLast.addr, align 8, !dbg !2148
  %cmp = icmp ne i8* %0, %1, !dbg !2149
  br i1 %cmp, label %for.body, label %for.end, !dbg !2150

for.body:                                         ; preds = %for.cond
  %2 = load i8*, i8** %theFirst.addr, align 8, !dbg !2151
  call void @_ZN11xalanc_1_1011XalanVectorIcNS_31MemoryManagedConstructionTraitsIcEEE7destroyERc(i8* dereferenceable(1) %2), !dbg !2153
  br label %for.inc, !dbg !2154

for.inc:                                          ; preds = %for.body
  %3 = load i8*, i8** %theFirst.addr, align 8, !dbg !2155
  %incdec.ptr = getelementptr inbounds i8, i8* %3, i32 1, !dbg !2155
  store i8* %incdec.ptr, i8** %theFirst.addr, align 8, !dbg !2155
  br label %for.cond, !dbg !2156, !llvm.loop !2157

for.end:                                          ; preds = %for.cond
  ret void, !dbg !2159
}

; Function Attrs: noinline uwtable
define linkonce_odr dso_local void @_ZN11xalanc_1_1011XalanVectorIcNS_31MemoryManagedConstructionTraitsIcEEE10deallocateEPc(%"class.xalanc_1_10::XalanVector"* %this, i8* %pointer) #0 comdat align 2 !dbg !2160 {
entry:
  %this.addr = alloca %"class.xalanc_1_10::XalanVector"*, align 8
  %pointer.addr = alloca i8*, align 8
  store %"class.xalanc_1_10::XalanVector"* %this, %"class.xalanc_1_10::XalanVector"** %this.addr, align 8
  call void @llvm.dbg.declare(metadata %"class.xalanc_1_10::XalanVector"** %this.addr, metadata !2161, metadata !DIExpression()), !dbg !2162
  store i8* %pointer, i8** %pointer.addr, align 8
  call void @llvm.dbg.declare(metadata i8** %pointer.addr, metadata !2163, metadata !DIExpression()), !dbg !2164
  %this1 = load %"class.xalanc_1_10::XalanVector"*, %"class.xalanc_1_10::XalanVector"** %this.addr, align 8
  %m_memoryManager = getelementptr inbounds %"class.xalanc_1_10::XalanVector", %"class.xalanc_1_10::XalanVector"* %this1, i32 0, i32 0, !dbg !2165
  %0 = load %"class.xercesc_2_7::MemoryManager"*, %"class.xercesc_2_7::MemoryManager"** %m_memoryManager, align 8, !dbg !2165
  %1 = load i8*, i8** %pointer.addr, align 8, !dbg !2166
  %2 = bitcast %"class.xercesc_2_7::MemoryManager"* %0 to void (%"class.xercesc_2_7::MemoryManager"*, i8*)***, !dbg !2167
  %vtable = load void (%"class.xercesc_2_7::MemoryManager"*, i8*)**, void (%"class.xercesc_2_7::MemoryManager"*, i8*)*** %2, align 8, !dbg !2167
  %vfn = getelementptr inbounds void (%"class.xercesc_2_7::MemoryManager"*, i8*)*, void (%"class.xercesc_2_7::MemoryManager"*, i8*)** %vtable, i64 3, !dbg !2167
  %3 = load void (%"class.xercesc_2_7::MemoryManager"*, i8*)*, void (%"class.xercesc_2_7::MemoryManager"*, i8*)** %vfn, align 8, !dbg !2167
  call void %3(%"class.xercesc_2_7::MemoryManager"* %0, i8* %1), !dbg !2167
  ret void, !dbg !2168
}

; Function Attrs: noinline nounwind uwtable
define linkonce_odr dso_local void @_ZN11xalanc_1_1011XalanVectorIcNS_31MemoryManagedConstructionTraitsIcEEE7destroyERc(i8* dereferenceable(1) %theValue) #2 comdat align 2 !dbg !2169 {
entry:
  %theValue.addr = alloca i8*, align 8
  store i8* %theValue, i8** %theValue.addr, align 8
  call void @llvm.dbg.declare(metadata i8** %theValue.addr, metadata !2170, metadata !DIExpression()), !dbg !2171
  %0 = load i8*, i8** %theValue.addr, align 8, !dbg !2172
  ret void, !dbg !2173
}

; Function Attrs: noinline uwtable
define linkonce_odr dso_local void @_ZSt8__fill_aIPccEvT_S1_RKT0_(i8* %__first, i8* %__last, i8* dereferenceable(1) %__value) #0 comdat !dbg !2174 {
entry:
  %__first.addr = alloca i8*, align 8
  %__last.addr = alloca i8*, align 8
  %__value.addr = alloca i8*, align 8
  store i8* %__first, i8** %__first.addr, align 8
  call void @llvm.dbg.declare(metadata i8** %__first.addr, metadata !2177, metadata !DIExpression()), !dbg !2178
  store i8* %__last, i8** %__last.addr, align 8
  call void @llvm.dbg.declare(metadata i8** %__last.addr, metadata !2179, metadata !DIExpression()), !dbg !2180
  store i8* %__value, i8** %__value.addr, align 8
  call void @llvm.dbg.declare(metadata i8** %__value.addr, metadata !2181, metadata !DIExpression()), !dbg !2182
  %0 = load i8*, i8** %__first.addr, align 8, !dbg !2183
  %1 = load i8*, i8** %__last.addr, align 8, !dbg !2184
  %2 = load i8*, i8** %__value.addr, align 8, !dbg !2185
  call void @_ZSt9__fill_a1IcEN9__gnu_cxx11__enable_ifIXsr9__is_byteIT_EE7__valueEvE6__typeEPS2_S5_RKS2_(i8* %0, i8* %1, i8* dereferenceable(1) %2), !dbg !2186
  ret void, !dbg !2187
}

; Function Attrs: noinline nounwind uwtable
define linkonce_odr dso_local void @_ZSt9__fill_a1IcEN9__gnu_cxx11__enable_ifIXsr9__is_byteIT_EE7__valueEvE6__typeEPS2_S5_RKS2_(i8* %__first, i8* %__last, i8* dereferenceable(1) %__c) #2 comdat !dbg !2188 {
entry:
  %__first.addr = alloca i8*, align 8
  %__last.addr = alloca i8*, align 8
  %__c.addr = alloca i8*, align 8
  %__tmp = alloca i8, align 1
  %__len = alloca i64, align 8
  store i8* %__first, i8** %__first.addr, align 8
  call void @llvm.dbg.declare(metadata i8** %__first.addr, metadata !2197, metadata !DIExpression()), !dbg !2198
  store i8* %__last, i8** %__last.addr, align 8
  call void @llvm.dbg.declare(metadata i8** %__last.addr, metadata !2199, metadata !DIExpression()), !dbg !2200
  store i8* %__c, i8** %__c.addr, align 8
  call void @llvm.dbg.declare(metadata i8** %__c.addr, metadata !2201, metadata !DIExpression()), !dbg !2202
  call void @llvm.dbg.declare(metadata i8* %__tmp, metadata !2203, metadata !DIExpression()), !dbg !2204
  %0 = load i8*, i8** %__c.addr, align 8, !dbg !2205
  %1 = load i8, i8* %0, align 1, !dbg !2205
  store i8 %1, i8* %__tmp, align 1, !dbg !2204
  call void @llvm.dbg.declare(metadata i64* %__len, metadata !2206, metadata !DIExpression()), !dbg !2210
  %2 = load i8*, i8** %__last.addr, align 8, !dbg !2211
  %3 = load i8*, i8** %__first.addr, align 8, !dbg !2212
  %sub.ptr.lhs.cast = ptrtoint i8* %2 to i64, !dbg !2213
  %sub.ptr.rhs.cast = ptrtoint i8* %3 to i64, !dbg !2213
  %sub.ptr.sub = sub i64 %sub.ptr.lhs.cast, %sub.ptr.rhs.cast, !dbg !2213
  store i64 %sub.ptr.sub, i64* %__len, align 8, !dbg !2210
  %4 = load i64, i64* %__len, align 8, !dbg !2210
  %tobool = icmp ne i64 %4, 0, !dbg !2210
  br i1 %tobool, label %if.then, label %if.end, !dbg !2214

if.then:                                          ; preds = %entry
  %5 = load i8*, i8** %__first.addr, align 8, !dbg !2215
  %6 = load i8, i8* %__tmp, align 1, !dbg !2216
  %conv = zext i8 %6 to i32, !dbg !2217
  %7 = trunc i32 %conv to i8, !dbg !2218
  %8 = load i64, i64* %__len, align 8, !dbg !2219
  call void @llvm.memset.p0i8.i64(i8* align 1 %5, i8 %7, i64 %8, i1 false), !dbg !2218
  br label %if.end, !dbg !2218

if.end:                                           ; preds = %if.then, %entry
  ret void, !dbg !2220
}

; Function Attrs: argmemonly nounwind willreturn
declare void @llvm.memset.p0i8.i64(i8* nocapture writeonly, i8, i64, i1 immarg) #3

attributes #0 = { noinline uwtable "correctly-rounded-divide-sqrt-fp-math"="false" "disable-tail-calls"="false" "frame-pointer"="all" "less-precise-fpmad"="false" "min-legal-vector-width"="0" "no-infs-fp-math"="false" "no-jump-tables"="false" "no-nans-fp-math"="false" "no-signed-zeros-fp-math"="false" "no-trapping-math"="false" "stack-protector-buffer-size"="8" "target-cpu"="x86-64" "target-features"="+cx8,+fxsr,+mmx,+sse,+sse2,+x87" "unsafe-fp-math"="false" "use-soft-float"="false" }
attributes #1 = { nounwind readnone speculatable willreturn }
attributes #2 = { noinline nounwind uwtable "correctly-rounded-divide-sqrt-fp-math"="false" "disable-tail-calls"="false" "frame-pointer"="all" "less-precise-fpmad"="false" "min-legal-vector-width"="0" "no-infs-fp-math"="false" "no-jump-tables"="false" "no-nans-fp-math"="false" "no-signed-zeros-fp-math"="false" "no-trapping-math"="false" "stack-protector-buffer-size"="8" "target-cpu"="x86-64" "target-features"="+cx8,+fxsr,+mmx,+sse,+sse2,+x87" "unsafe-fp-math"="false" "use-soft-float"="false" }
attributes #3 = { argmemonly nounwind willreturn }
attributes #4 = { noinline noreturn nounwind }
attributes #5 = { nounwind }
attributes #6 = { noreturn nounwind }

!llvm.dbg.cu = !{!249}
!llvm.module.flags = !{!1132, !1133, !1134}
!llvm.ident = !{!1135}

!0 = !DIGlobalVariableExpression(var: !1, expr: !DIExpression())
!1 = distinct !DIGlobalVariable(name: "s_setMasks", linkageName: "_ZN11xalanc_1_1011XalanBitmap10s_setMasksE", scope: !2, file: !3, line: 30, type: !4, isLocal: false, isDefinition: true, declaration: !9)
!2 = !DINamespace(name: "xalanc_1_10", scope: null)
!3 = !DIFile(filename: "XalanBitmap.cpp", directory: "/home/venkat/IF-DV/spec_build_release/CPU_2017/benchspec/CPU/523.xalancbmk_r/build/build_base_ld-loop-ext-m64.0000")
!4 = !DICompositeType(tag: DW_TAG_array_type, baseType: !5, size: 256, elements: !7)
!5 = !DIDerivedType(tag: DW_TAG_const_type, baseType: !6)
!6 = !DIBasicType(name: "int", size: 32, encoding: DW_ATE_signed)
!7 = !{!8}
!8 = !DISubrange(count: 8)
!9 = !DIDerivedType(tag: DW_TAG_member, name: "s_setMasks", scope: !11, file: !10, line: 135, baseType: !14, flags: DIFlagStaticMember)
!10 = !DIFile(filename: "./xalanc/PlatformSupport/XalanBitmap.hpp", directory: "/home/venkat/IF-DV/spec_build_release/CPU_2017/benchspec/CPU/523.xalancbmk_r/build/build_base_ld-loop-ext-m64.0000")
!11 = distinct !DICompositeType(tag: DW_TAG_class_type, name: "XalanBitmap", scope: !2, file: !10, line: 34, size: 320, flags: DIFlagTypePassByReference | DIFlagNonTrivial, elements: !12, identifier: "_ZTSN11xalanc_1_1011XalanBitmapE")
!12 = !{!9, !13, !17, !23, !224, !230, !233, !238, !241, !242, !243, !244}
!13 = !DIDerivedType(tag: DW_TAG_member, name: "s_clearMasks", scope: !11, file: !10, line: 137, baseType: !14, flags: DIFlagStaticMember)
!14 = !DICompositeType(tag: DW_TAG_array_type, baseType: !5, elements: !15)
!15 = !{!16}
!16 = !DISubrange(count: -1)
!17 = !DIDerivedType(tag: DW_TAG_member, name: "m_size", scope: !11, file: !10, line: 142, baseType: !18, size: 64)
!18 = !DIDerivedType(tag: DW_TAG_const_type, baseType: !19)
!19 = !DIDerivedType(tag: DW_TAG_typedef, name: "size_type", scope: !11, file: !10, line: 42, baseType: !20)
!20 = !DIDerivedType(tag: DW_TAG_typedef, name: "size_t", file: !21, line: 46, baseType: !22)
!21 = !DIFile(filename: "Rohit/IR2Vec-LoopOptimizationFramework/build_REL_AsrtON/lib/clang/10.0.1/include/stddef.h", directory: "/home/venkat/IF-DV")
!22 = !DIBasicType(name: "long unsigned int", size: 64, encoding: DW_ATE_unsigned)
!23 = !DIDerivedType(tag: DW_TAG_member, name: "m_bitmap", scope: !11, file: !10, line: 144, baseType: !24, size: 256, offset: 64)
!24 = !DIDerivedType(tag: DW_TAG_typedef, name: "BitmapVectorType", scope: !11, file: !10, line: 140, baseType: !25)
!25 = distinct !DICompositeType(tag: DW_TAG_class_type, name: "XalanVector<char, xalanc_1_10::MemoryManagedConstructionTraits<char> >", scope: !2, file: !26, line: 61, size: 256, flags: DIFlagTypePassByReference | DIFlagNonTrivial, elements: !27, templateParams: !216, identifier: "_ZTSN11xalanc_1_1011XalanVectorIcNS_31MemoryManagedConstructionTraitsIcEEEE")
!26 = !DIFile(filename: "./xalanc/Include/XalanVector.hpp", directory: "/home/venkat/IF-DV/spec_build_release/CPU_2017/benchspec/CPU/523.xalancbmk_r/build/build_base_ld-loop-ext-m64.0000")
!27 = !{!28, !33, !35, !36, !40, !45, !49, !55, !61, !64, !68, !71, !74, !75, !79, !82, !85, !88, !91, !94, !97, !100, !105, !106, !109, !110, !111, !115, !116, !121, !125, !126, !127, !130, !133, !134, !135, !143, !149, !150, !151, !154, !157, !158, !159, !160, !164, !167, !172, !175, !179, !182, !186, !189, !192, !195, !198, !199, !202, !203, !204, !208, !211, !212, !213}
!28 = !DIDerivedType(tag: DW_TAG_member, name: "m_memoryManager", scope: !25, file: !26, line: 1087, baseType: !29, size: 64)
!29 = !DIDerivedType(tag: DW_TAG_pointer_type, baseType: !30, size: 64)
!30 = !DICompositeType(tag: DW_TAG_class_type, name: "MemoryManager", scope: !32, file: !31, line: 38, flags: DIFlagFwdDecl, identifier: "_ZTSN11xercesc_2_713MemoryManagerE")
!31 = !DIFile(filename: "./xercesc/framework/MemoryManager.hpp", directory: "/home/venkat/IF-DV/spec_build_release/CPU_2017/benchspec/CPU/523.xalancbmk_r/build/build_base_ld-loop-ext-m64.0000")
!32 = !DINamespace(name: "xercesc_2_7", scope: null)
!33 = !DIDerivedType(tag: DW_TAG_member, name: "m_size", scope: !25, file: !26, line: 1089, baseType: !34, size: 64, offset: 64)
!34 = !DIDerivedType(tag: DW_TAG_typedef, name: "size_type", file: !26, line: 71, baseType: !20)
!35 = !DIDerivedType(tag: DW_TAG_member, name: "m_allocation", scope: !25, file: !26, line: 1091, baseType: !34, size: 64, offset: 128)
!36 = !DIDerivedType(tag: DW_TAG_member, name: "m_data", scope: !25, file: !26, line: 1093, baseType: !37, size: 64, offset: 192)
!37 = !DIDerivedType(tag: DW_TAG_pointer_type, baseType: !38, size: 64)
!38 = !DIDerivedType(tag: DW_TAG_typedef, name: "value_type", scope: !25, file: !26, line: 66, baseType: !39)
!39 = !DIBasicType(name: "char", size: 8, encoding: DW_ATE_signed_char)
!40 = !DISubprogram(name: "XalanVector", scope: !25, file: !26, line: 120, type: !41, scopeLine: 120, flags: DIFlagPublic | DIFlagPrototyped, spFlags: 0)
!41 = !DISubroutineType(types: !42)
!42 = !{null, !43, !44, !34}
!43 = !DIDerivedType(tag: DW_TAG_pointer_type, baseType: !25, size: 64, flags: DIFlagArtificial | DIFlagObjectPointer)
!44 = !DIDerivedType(tag: DW_TAG_reference_type, baseType: !30, size: 64)
!45 = !DISubprogram(name: "create", linkageName: "_ZN11xalanc_1_1011XalanVectorIcNS_31MemoryManagedConstructionTraitsIcEEE6createERN11xercesc_2_713MemoryManagerEm", scope: !25, file: !26, line: 132, type: !46, scopeLine: 132, flags: DIFlagPublic | DIFlagPrototyped | DIFlagStaticMember, spFlags: 0)
!46 = !DISubroutineType(types: !47)
!47 = !{!48, !44, !34}
!48 = !DIDerivedType(tag: DW_TAG_pointer_type, baseType: !25, size: 64)
!49 = !DISubprogram(name: "XalanVector", scope: !25, file: !26, line: 149, type: !50, scopeLine: 149, flags: DIFlagPublic | DIFlagPrototyped, spFlags: 0)
!50 = !DISubroutineType(types: !51)
!51 = !{null, !43, !52, !44, !34}
!52 = !DIDerivedType(tag: DW_TAG_reference_type, baseType: !53, size: 64)
!53 = !DIDerivedType(tag: DW_TAG_const_type, baseType: !54)
!54 = !DIDerivedType(tag: DW_TAG_typedef, name: "ThisType", scope: !25, file: !26, line: 115, baseType: !25)
!55 = !DISubprogram(name: "XalanVector", scope: !25, file: !26, line: 177, type: !56, scopeLine: 177, flags: DIFlagPublic | DIFlagPrototyped, spFlags: 0)
!56 = !DISubroutineType(types: !57)
!57 = !{null, !43, !58, !58, !44}
!58 = !DIDerivedType(tag: DW_TAG_typedef, name: "const_iterator", scope: !25, file: !26, line: 92, baseType: !59)
!59 = !DIDerivedType(tag: DW_TAG_pointer_type, baseType: !60, size: 64)
!60 = !DIDerivedType(tag: DW_TAG_const_type, baseType: !38)
!61 = !DISubprogram(name: "create", linkageName: "_ZN11xalanc_1_1011XalanVectorIcNS_31MemoryManagedConstructionTraitsIcEEE6createEPKcS5_RN11xercesc_2_713MemoryManagerE", scope: !25, file: !26, line: 197, type: !62, scopeLine: 197, flags: DIFlagPublic | DIFlagPrototyped | DIFlagStaticMember, spFlags: 0)
!62 = !DISubroutineType(types: !63)
!63 = !{!48, !58, !58, !44}
!64 = !DISubprogram(name: "XalanVector", scope: !25, file: !26, line: 215, type: !65, scopeLine: 215, flags: DIFlagPublic | DIFlagPrototyped, spFlags: 0)
!65 = !DISubroutineType(types: !66)
!66 = !{null, !43, !34, !67, !44}
!67 = !DIDerivedType(tag: DW_TAG_reference_type, baseType: !60, size: 64)
!68 = !DISubprogram(name: "~XalanVector", scope: !25, file: !26, line: 233, type: !69, scopeLine: 233, flags: DIFlagPublic | DIFlagPrototyped, spFlags: 0)
!69 = !DISubroutineType(types: !70)
!70 = !{null, !43}
!71 = !DISubprogram(name: "push_back", linkageName: "_ZN11xalanc_1_1011XalanVectorIcNS_31MemoryManagedConstructionTraitsIcEEE9push_backERKc", scope: !25, file: !26, line: 246, type: !72, scopeLine: 246, flags: DIFlagPublic | DIFlagPrototyped, spFlags: 0)
!72 = !DISubroutineType(types: !73)
!73 = !{null, !43, !67}
!74 = !DISubprogram(name: "pop_back", linkageName: "_ZN11xalanc_1_1011XalanVectorIcNS_31MemoryManagedConstructionTraitsIcEEE8pop_backEv", scope: !25, file: !26, line: 256, type: !69, scopeLine: 256, flags: DIFlagPublic | DIFlagPrototyped, spFlags: 0)
!75 = !DISubprogram(name: "erase", linkageName: "_ZN11xalanc_1_1011XalanVectorIcNS_31MemoryManagedConstructionTraitsIcEEE5eraseEPcS4_", scope: !25, file: !26, line: 268, type: !76, scopeLine: 268, flags: DIFlagPublic | DIFlagPrototyped, spFlags: 0)
!76 = !DISubroutineType(types: !77)
!77 = !{!78, !43, !78, !78}
!78 = !DIDerivedType(tag: DW_TAG_typedef, name: "iterator", scope: !25, file: !26, line: 91, baseType: !37)
!79 = !DISubprogram(name: "erase", linkageName: "_ZN11xalanc_1_1011XalanVectorIcNS_31MemoryManagedConstructionTraitsIcEEE5eraseEPc", scope: !25, file: !26, line: 290, type: !80, scopeLine: 290, flags: DIFlagPublic | DIFlagPrototyped, spFlags: 0)
!80 = !DISubroutineType(types: !81)
!81 = !{!78, !43, !78}
!82 = !DISubprogram(name: "insert", linkageName: "_ZN11xalanc_1_1011XalanVectorIcNS_31MemoryManagedConstructionTraitsIcEEE6insertEPcPKcS6_", scope: !25, file: !26, line: 296, type: !83, scopeLine: 296, flags: DIFlagPublic | DIFlagPrototyped, spFlags: 0)
!83 = !DISubroutineType(types: !84)
!84 = !{null, !43, !78, !58, !58}
!85 = !DISubprogram(name: "insert", linkageName: "_ZN11xalanc_1_1011XalanVectorIcNS_31MemoryManagedConstructionTraitsIcEEE6insertEPcmRKc", scope: !25, file: !26, line: 415, type: !86, scopeLine: 415, flags: DIFlagPublic | DIFlagPrototyped, spFlags: 0)
!86 = !DISubroutineType(types: !87)
!87 = !{null, !43, !78, !34, !67}
!88 = !DISubprogram(name: "insert", linkageName: "_ZN11xalanc_1_1011XalanVectorIcNS_31MemoryManagedConstructionTraitsIcEEE6insertEPcRKc", scope: !25, file: !26, line: 516, type: !89, scopeLine: 516, flags: DIFlagPublic | DIFlagPrototyped, spFlags: 0)
!89 = !DISubroutineType(types: !90)
!90 = !{!78, !43, !78, !67}
!91 = !DISubprogram(name: "assign", linkageName: "_ZN11xalanc_1_1011XalanVectorIcNS_31MemoryManagedConstructionTraitsIcEEE6assignEPKcS5_", scope: !25, file: !26, line: 538, type: !92, scopeLine: 538, flags: DIFlagPublic | DIFlagPrototyped, spFlags: 0)
!92 = !DISubroutineType(types: !93)
!93 = !{null, !43, !58, !58}
!94 = !DISubprogram(name: "assign", linkageName: "_ZN11xalanc_1_1011XalanVectorIcNS_31MemoryManagedConstructionTraitsIcEEE6assignEPcS4_", scope: !25, file: !26, line: 551, type: !95, scopeLine: 551, flags: DIFlagPublic | DIFlagPrototyped, spFlags: 0)
!95 = !DISubroutineType(types: !96)
!96 = !{null, !43, !78, !78}
!97 = !DISubprogram(name: "assign", linkageName: "_ZN11xalanc_1_1011XalanVectorIcNS_31MemoryManagedConstructionTraitsIcEEE6assignEmRKc", scope: !25, file: !26, line: 561, type: !98, scopeLine: 561, flags: DIFlagPublic | DIFlagPrototyped, spFlags: 0)
!98 = !DISubroutineType(types: !99)
!99 = !{null, !43, !34, !67}
!100 = !DISubprogram(name: "size", linkageName: "_ZNK11xalanc_1_1011XalanVectorIcNS_31MemoryManagedConstructionTraitsIcEEE4sizeEv", scope: !25, file: !26, line: 571, type: !101, scopeLine: 571, flags: DIFlagPublic | DIFlagPrototyped, spFlags: 0)
!101 = !DISubroutineType(types: !102)
!102 = !{!34, !103}
!103 = !DIDerivedType(tag: DW_TAG_pointer_type, baseType: !104, size: 64, flags: DIFlagArtificial | DIFlagObjectPointer)
!104 = !DIDerivedType(tag: DW_TAG_const_type, baseType: !25)
!105 = !DISubprogram(name: "max_size", linkageName: "_ZNK11xalanc_1_1011XalanVectorIcNS_31MemoryManagedConstructionTraitsIcEEE8max_sizeEv", scope: !25, file: !26, line: 579, type: !101, scopeLine: 579, flags: DIFlagPublic | DIFlagPrototyped, spFlags: 0)
!106 = !DISubprogram(name: "resize", linkageName: "_ZN11xalanc_1_1011XalanVectorIcNS_31MemoryManagedConstructionTraitsIcEEE6resizeEm", scope: !25, file: !26, line: 587, type: !107, scopeLine: 587, flags: DIFlagPublic | DIFlagPrototyped, spFlags: 0)
!107 = !DISubroutineType(types: !108)
!108 = !{null, !43, !34}
!109 = !DISubprogram(name: "resize", linkageName: "_ZN11xalanc_1_1011XalanVectorIcNS_31MemoryManagedConstructionTraitsIcEEE6resizeEmRKc", scope: !25, file: !26, line: 595, type: !98, scopeLine: 595, flags: DIFlagPublic | DIFlagPrototyped, spFlags: 0)
!110 = !DISubprogram(name: "capacity", linkageName: "_ZNK11xalanc_1_1011XalanVectorIcNS_31MemoryManagedConstructionTraitsIcEEE8capacityEv", scope: !25, file: !26, line: 628, type: !101, scopeLine: 628, flags: DIFlagPublic | DIFlagPrototyped, spFlags: 0)
!111 = !DISubprogram(name: "empty", linkageName: "_ZNK11xalanc_1_1011XalanVectorIcNS_31MemoryManagedConstructionTraitsIcEEE5emptyEv", scope: !25, file: !26, line: 636, type: !112, scopeLine: 636, flags: DIFlagPublic | DIFlagPrototyped, spFlags: 0)
!112 = !DISubroutineType(types: !113)
!113 = !{!114, !103}
!114 = !DIBasicType(name: "bool", size: 8, encoding: DW_ATE_boolean)
!115 = !DISubprogram(name: "reserve", linkageName: "_ZN11xalanc_1_1011XalanVectorIcNS_31MemoryManagedConstructionTraitsIcEEE7reserveEm", scope: !25, file: !26, line: 644, type: !107, scopeLine: 644, flags: DIFlagPublic | DIFlagPrototyped, spFlags: 0)
!116 = !DISubprogram(name: "front", linkageName: "_ZN11xalanc_1_1011XalanVectorIcNS_31MemoryManagedConstructionTraitsIcEEE5frontEv", scope: !25, file: !26, line: 657, type: !117, scopeLine: 657, flags: DIFlagPublic | DIFlagPrototyped, spFlags: 0)
!117 = !DISubroutineType(types: !118)
!118 = !{!119, !43}
!119 = !DIDerivedType(tag: DW_TAG_typedef, name: "reference", scope: !25, file: !26, line: 69, baseType: !120)
!120 = !DIDerivedType(tag: DW_TAG_reference_type, baseType: !38, size: 64)
!121 = !DISubprogram(name: "front", linkageName: "_ZNK11xalanc_1_1011XalanVectorIcNS_31MemoryManagedConstructionTraitsIcEEE5frontEv", scope: !25, file: !26, line: 665, type: !122, scopeLine: 665, flags: DIFlagPublic | DIFlagPrototyped, spFlags: 0)
!122 = !DISubroutineType(types: !123)
!123 = !{!124, !103}
!124 = !DIDerivedType(tag: DW_TAG_typedef, name: "const_reference", scope: !25, file: !26, line: 70, baseType: !67)
!125 = !DISubprogram(name: "back", linkageName: "_ZN11xalanc_1_1011XalanVectorIcNS_31MemoryManagedConstructionTraitsIcEEE4backEv", scope: !25, file: !26, line: 673, type: !117, scopeLine: 673, flags: DIFlagPublic | DIFlagPrototyped, spFlags: 0)
!126 = !DISubprogram(name: "back", linkageName: "_ZNK11xalanc_1_1011XalanVectorIcNS_31MemoryManagedConstructionTraitsIcEEE4backEv", scope: !25, file: !26, line: 679, type: !122, scopeLine: 679, flags: DIFlagPublic | DIFlagPrototyped, spFlags: 0)
!127 = !DISubprogram(name: "begin", linkageName: "_ZN11xalanc_1_1011XalanVectorIcNS_31MemoryManagedConstructionTraitsIcEEE5beginEv", scope: !25, file: !26, line: 685, type: !128, scopeLine: 685, flags: DIFlagPublic | DIFlagPrototyped, spFlags: 0)
!128 = !DISubroutineType(types: !129)
!129 = !{!78, !43}
!130 = !DISubprogram(name: "begin", linkageName: "_ZNK11xalanc_1_1011XalanVectorIcNS_31MemoryManagedConstructionTraitsIcEEE5beginEv", scope: !25, file: !26, line: 693, type: !131, scopeLine: 693, flags: DIFlagPublic | DIFlagPrototyped, spFlags: 0)
!131 = !DISubroutineType(types: !132)
!132 = !{!58, !103}
!133 = !DISubprogram(name: "end", linkageName: "_ZN11xalanc_1_1011XalanVectorIcNS_31MemoryManagedConstructionTraitsIcEEE3endEv", scope: !25, file: !26, line: 701, type: !128, scopeLine: 701, flags: DIFlagPublic | DIFlagPrototyped, spFlags: 0)
!134 = !DISubprogram(name: "end", linkageName: "_ZNK11xalanc_1_1011XalanVectorIcNS_31MemoryManagedConstructionTraitsIcEEE3endEv", scope: !25, file: !26, line: 709, type: !131, scopeLine: 709, flags: DIFlagPublic | DIFlagPrototyped, spFlags: 0)
!135 = !DISubprogram(name: "rbegin", linkageName: "_ZN11xalanc_1_1011XalanVectorIcNS_31MemoryManagedConstructionTraitsIcEEE6rbeginEv", scope: !25, file: !26, line: 717, type: !136, scopeLine: 717, flags: DIFlagPublic | DIFlagPrototyped, spFlags: 0)
!136 = !DISubroutineType(types: !137)
!137 = !{!138, !43}
!138 = !DIDerivedType(tag: DW_TAG_typedef, name: "reverse_iterator", scope: !25, file: !26, line: 112, baseType: !139)
!139 = !DIDerivedType(tag: DW_TAG_typedef, name: "reverse_iterator_", scope: !25, file: !26, line: 96, baseType: !140)
!140 = !DICompositeType(tag: DW_TAG_class_type, name: "reverse_iterator<char *>", scope: !142, file: !141, line: 125, flags: DIFlagFwdDecl, identifier: "_ZTSSt16reverse_iteratorIPcE")
!141 = !DIFile(filename: "/usr/lib/gcc/x86_64-linux-gnu/10/../../../../include/c++/10/bits/stl_iterator.h", directory: "")
!142 = !DINamespace(name: "std", scope: null)
!143 = !DISubprogram(name: "rbegin", linkageName: "_ZNK11xalanc_1_1011XalanVectorIcNS_31MemoryManagedConstructionTraitsIcEEE6rbeginEv", scope: !25, file: !26, line: 725, type: !144, scopeLine: 725, flags: DIFlagPublic | DIFlagPrototyped, spFlags: 0)
!144 = !DISubroutineType(types: !145)
!145 = !{!146, !103}
!146 = !DIDerivedType(tag: DW_TAG_typedef, name: "const_reverse_iterator", scope: !25, file: !26, line: 113, baseType: !147)
!147 = !DIDerivedType(tag: DW_TAG_typedef, name: "const_reverse_iterator_", scope: !25, file: !26, line: 97, baseType: !148)
!148 = !DICompositeType(tag: DW_TAG_class_type, name: "reverse_iterator<const char *>", scope: !142, file: !141, line: 125, flags: DIFlagFwdDecl, identifier: "_ZTSSt16reverse_iteratorIPKcE")
!149 = !DISubprogram(name: "rend", linkageName: "_ZN11xalanc_1_1011XalanVectorIcNS_31MemoryManagedConstructionTraitsIcEEE4rendEv", scope: !25, file: !26, line: 733, type: !136, scopeLine: 733, flags: DIFlagPublic | DIFlagPrototyped, spFlags: 0)
!150 = !DISubprogram(name: "rend", linkageName: "_ZNK11xalanc_1_1011XalanVectorIcNS_31MemoryManagedConstructionTraitsIcEEE4rendEv", scope: !25, file: !26, line: 741, type: !144, scopeLine: 741, flags: DIFlagPublic | DIFlagPrototyped, spFlags: 0)
!151 = !DISubprogram(name: "at", linkageName: "_ZN11xalanc_1_1011XalanVectorIcNS_31MemoryManagedConstructionTraitsIcEEE2atEm", scope: !25, file: !26, line: 750, type: !152, scopeLine: 750, flags: DIFlagPublic | DIFlagPrototyped, spFlags: 0)
!152 = !DISubroutineType(types: !153)
!153 = !{!119, !43, !34}
!154 = !DISubprogram(name: "at", linkageName: "_ZNK11xalanc_1_1011XalanVectorIcNS_31MemoryManagedConstructionTraitsIcEEE2atEm", scope: !25, file: !26, line: 761, type: !155, scopeLine: 761, flags: DIFlagPublic | DIFlagPrototyped, spFlags: 0)
!155 = !DISubroutineType(types: !156)
!156 = !{!124, !103, !34}
!157 = !DISubprogram(name: "operator[]", linkageName: "_ZN11xalanc_1_1011XalanVectorIcNS_31MemoryManagedConstructionTraitsIcEEEixEm", scope: !25, file: !26, line: 772, type: !152, scopeLine: 772, flags: DIFlagPublic | DIFlagPrototyped, spFlags: 0)
!158 = !DISubprogram(name: "operator[]", linkageName: "_ZNK11xalanc_1_1011XalanVectorIcNS_31MemoryManagedConstructionTraitsIcEEEixEm", scope: !25, file: !26, line: 780, type: !155, scopeLine: 780, flags: DIFlagPublic | DIFlagPrototyped, spFlags: 0)
!159 = !DISubprogram(name: "clear", linkageName: "_ZN11xalanc_1_1011XalanVectorIcNS_31MemoryManagedConstructionTraitsIcEEE5clearEv", scope: !25, file: !26, line: 788, type: !69, scopeLine: 788, flags: DIFlagPublic | DIFlagPrototyped, spFlags: 0)
!160 = !DISubprogram(name: "operator=", linkageName: "_ZN11xalanc_1_1011XalanVectorIcNS_31MemoryManagedConstructionTraitsIcEEEaSERKS3_", scope: !25, file: !26, line: 802, type: !161, scopeLine: 802, flags: DIFlagPublic | DIFlagPrototyped, spFlags: 0)
!161 = !DISubroutineType(types: !162)
!162 = !{!163, !43, !52}
!163 = !DIDerivedType(tag: DW_TAG_reference_type, baseType: !54, size: 64)
!164 = !DISubprogram(name: "swap", linkageName: "_ZN11xalanc_1_1011XalanVectorIcNS_31MemoryManagedConstructionTraitsIcEEE4swapERS3_", scope: !25, file: !26, line: 848, type: !165, scopeLine: 848, flags: DIFlagPublic | DIFlagPrototyped, spFlags: 0)
!165 = !DISubroutineType(types: !166)
!166 = !{null, !43, !163}
!167 = !DISubprogram(name: "getMemoryManager", linkageName: "_ZNK11xalanc_1_1011XalanVectorIcNS_31MemoryManagedConstructionTraitsIcEEE16getMemoryManagerEv", scope: !25, file: !26, line: 871, type: !168, scopeLine: 871, flags: DIFlagPublic | DIFlagPrototyped, spFlags: 0)
!168 = !DISubroutineType(types: !169)
!169 = !{!170, !103}
!170 = !DIDerivedType(tag: DW_TAG_pointer_type, baseType: !171, size: 64)
!171 = !DIDerivedType(tag: DW_TAG_const_type, baseType: !30)
!172 = !DISubprogram(name: "getMemoryManager", linkageName: "_ZN11xalanc_1_1011XalanVectorIcNS_31MemoryManagedConstructionTraitsIcEEE16getMemoryManagerEv", scope: !25, file: !26, line: 877, type: !173, scopeLine: 877, flags: DIFlagPublic | DIFlagPrototyped, spFlags: 0)
!173 = !DISubroutineType(types: !174)
!174 = !{!44, !43}
!175 = !DISubprogram(name: "detach", linkageName: "_ZN11xalanc_1_1011XalanVectorIcNS_31MemoryManagedConstructionTraitsIcEEE6detachEv", scope: !25, file: !26, line: 889, type: !176, scopeLine: 889, flags: DIFlagPublic | DIFlagPrototyped, spFlags: 0)
!176 = !DISubroutineType(types: !177)
!177 = !{!178, !43}
!178 = !DIDerivedType(tag: DW_TAG_typedef, name: "pointer", scope: !25, file: !26, line: 67, baseType: !37)
!179 = !DISubprogram(name: "invariants", linkageName: "_ZNK11xalanc_1_1011XalanVectorIcNS_31MemoryManagedConstructionTraitsIcEEE10invariantsEv", scope: !25, file: !26, line: 905, type: !180, scopeLine: 905, flags: DIFlagPrototyped, spFlags: 0)
!180 = !DISubroutineType(types: !181)
!181 = !{null, !103}
!182 = !DISubprogram(name: "local_distance", linkageName: "_ZN11xalanc_1_1011XalanVectorIcNS_31MemoryManagedConstructionTraitsIcEEE14local_distanceEPKcS5_", scope: !25, file: !26, line: 918, type: !183, scopeLine: 918, flags: DIFlagPrototyped, spFlags: 0)
!183 = !DISubroutineType(types: !184)
!184 = !{!185, !43, !58, !58}
!185 = !DIDerivedType(tag: DW_TAG_typedef, name: "size_type", scope: !25, file: !26, line: 71, baseType: !20)
!186 = !DISubprogram(name: "allocate", linkageName: "_ZN11xalanc_1_1011XalanVectorIcNS_31MemoryManagedConstructionTraitsIcEEE8allocateEm", scope: !25, file: !26, line: 938, type: !187, scopeLine: 938, flags: DIFlagPrototyped, spFlags: 0)
!187 = !DISubroutineType(types: !188)
!188 = !{!37, !43, !34}
!189 = !DISubprogram(name: "deallocate", linkageName: "_ZN11xalanc_1_1011XalanVectorIcNS_31MemoryManagedConstructionTraitsIcEEE10deallocateEPc", scope: !25, file: !26, line: 952, type: !190, scopeLine: 952, flags: DIFlagPrototyped, spFlags: 0)
!190 = !DISubroutineType(types: !191)
!191 = !{null, !43, !37}
!192 = !DISubprogram(name: "destroy", linkageName: "_ZN11xalanc_1_1011XalanVectorIcNS_31MemoryManagedConstructionTraitsIcEEE7destroyERc", scope: !25, file: !26, line: 961, type: !193, scopeLine: 961, flags: DIFlagPrototyped | DIFlagStaticMember, spFlags: 0)
!193 = !DISubroutineType(types: !194)
!194 = !{null, !120}
!195 = !DISubprogram(name: "destroy", linkageName: "_ZN11xalanc_1_1011XalanVectorIcNS_31MemoryManagedConstructionTraitsIcEEE7destroyEPcS4_", scope: !25, file: !26, line: 967, type: !196, scopeLine: 967, flags: DIFlagPrototyped | DIFlagStaticMember, spFlags: 0)
!196 = !DISubroutineType(types: !197)
!197 = !{null, !78, !78}
!198 = !DISubprogram(name: "doPushBack", linkageName: "_ZN11xalanc_1_1011XalanVectorIcNS_31MemoryManagedConstructionTraitsIcEEE10doPushBackERKc", scope: !25, file: !26, line: 978, type: !72, scopeLine: 978, flags: DIFlagPrototyped, spFlags: 0)
!199 = !DISubprogram(name: "ensureCapacity", linkageName: "_ZN11xalanc_1_1011XalanVectorIcNS_31MemoryManagedConstructionTraitsIcEEE14ensureCapacityEm", scope: !25, file: !26, line: 1006, type: !200, scopeLine: 1006, flags: DIFlagPrototyped, spFlags: 0)
!200 = !DISubroutineType(types: !201)
!201 = !{!178, !43, !34}
!202 = !DISubprogram(name: "doReserve", linkageName: "_ZN11xalanc_1_1011XalanVectorIcNS_31MemoryManagedConstructionTraitsIcEEE9doReserveEm", scope: !25, file: !26, line: 1017, type: !107, scopeLine: 1017, flags: DIFlagPrototyped, spFlags: 0)
!203 = !DISubprogram(name: "endPointer", linkageName: "_ZN11xalanc_1_1011XalanVectorIcNS_31MemoryManagedConstructionTraitsIcEEE10endPointerEv", scope: !25, file: !26, line: 1031, type: !176, scopeLine: 1031, flags: DIFlagPrototyped, spFlags: 0)
!204 = !DISubprogram(name: "endPointer", linkageName: "_ZNK11xalanc_1_1011XalanVectorIcNS_31MemoryManagedConstructionTraitsIcEEE10endPointerEv", scope: !25, file: !26, line: 1037, type: !205, scopeLine: 1037, flags: DIFlagPrototyped, spFlags: 0)
!205 = !DISubroutineType(types: !206)
!206 = !{!207, !103}
!207 = !DIDerivedType(tag: DW_TAG_typedef, name: "const_pointer", scope: !25, file: !26, line: 68, baseType: !59)
!208 = !DISubprogram(name: "outOfRange", linkageName: "_ZN11xalanc_1_1011XalanVectorIcNS_31MemoryManagedConstructionTraitsIcEEE10outOfRangeEv", scope: !25, file: !26, line: 1043, type: !209, scopeLine: 1043, flags: DIFlagPrototyped | DIFlagStaticMember, spFlags: 0)
!209 = !DISubroutineType(types: !210)
!210 = !{null}
!211 = !DISubprogram(name: "shrinkToSize", linkageName: "_ZN11xalanc_1_1011XalanVectorIcNS_31MemoryManagedConstructionTraitsIcEEE12shrinkToSizeEm", scope: !25, file: !26, line: 1049, type: !107, scopeLine: 1049, flags: DIFlagPrototyped, spFlags: 0)
!212 = !DISubprogram(name: "shrinkCount", linkageName: "_ZN11xalanc_1_1011XalanVectorIcNS_31MemoryManagedConstructionTraitsIcEEE11shrinkCountEm", scope: !25, file: !26, line: 1060, type: !107, scopeLine: 1060, flags: DIFlagPrototyped, spFlags: 0)
!213 = !DISubprogram(name: "local_max", linkageName: "_ZN11xalanc_1_1011XalanVectorIcNS_31MemoryManagedConstructionTraitsIcEEE9local_maxEmm", scope: !25, file: !26, line: 1073, type: !214, scopeLine: 1073, flags: DIFlagPrototyped, spFlags: 0)
!214 = !DISubroutineType(types: !215)
!215 = !{!185, !43, !34, !34}
!216 = !{!217, !218}
!217 = !DITemplateTypeParameter(name: "Type", type: !39)
!218 = !DITemplateTypeParameter(name: "ConstructionTraits", type: !219)
!219 = distinct !DICompositeType(tag: DW_TAG_structure_type, name: "MemoryManagedConstructionTraits<char>", scope: !2, file: !220, line: 462, size: 8, flags: DIFlagTypePassByValue, elements: !221, templateParams: !222, identifier: "_ZTSN11xalanc_1_1031MemoryManagedConstructionTraitsIcEE")
!220 = !DIFile(filename: "./xalanc/Include/XalanMemoryManagement.hpp", directory: "/home/venkat/IF-DV/spec_build_release/CPU_2017/benchspec/CPU/523.xalancbmk_r/build/build_base_ld-loop-ext-m64.0000")
!221 = !{}
!222 = !{!223}
!223 = !DITemplateTypeParameter(name: "C", type: !39)
!224 = !DISubprogram(name: "XalanBitmap", scope: !11, file: !10, line: 58, type: !225, scopeLine: 58, flags: DIFlagPublic | DIFlagPrototyped, spFlags: 0)
!225 = !DISubroutineType(types: !226)
!226 = !{null, !227, !228, !19}
!227 = !DIDerivedType(tag: DW_TAG_pointer_type, baseType: !11, size: 64, flags: DIFlagArtificial | DIFlagObjectPointer)
!228 = !DIDerivedType(tag: DW_TAG_reference_type, baseType: !229, size: 64)
!229 = !DIDerivedType(tag: DW_TAG_typedef, name: "MemoryManagerType", scope: !2, file: !220, line: 39, baseType: !30)
!230 = !DISubprogram(name: "~XalanBitmap", scope: !11, file: !10, line: 60, type: !231, scopeLine: 60, flags: DIFlagPublic | DIFlagPrototyped, spFlags: 0)
!231 = !DISubroutineType(types: !232)
!232 = !{null, !227}
!233 = !DISubprogram(name: "isSet", linkageName: "_ZNK11xalanc_1_1011XalanBitmap5isSetEm", scope: !11, file: !10, line: 70, type: !234, scopeLine: 70, flags: DIFlagPublic | DIFlagPrototyped, spFlags: 0)
!234 = !DISubroutineType(types: !235)
!235 = !{!114, !236, !19}
!236 = !DIDerivedType(tag: DW_TAG_pointer_type, baseType: !237, size: 64, flags: DIFlagArtificial | DIFlagObjectPointer)
!237 = !DIDerivedType(tag: DW_TAG_const_type, baseType: !11)
!238 = !DISubprogram(name: "set", linkageName: "_ZN11xalanc_1_1011XalanBitmap3setEm", scope: !11, file: !10, line: 83, type: !239, scopeLine: 83, flags: DIFlagPublic | DIFlagPrototyped, spFlags: 0)
!239 = !DISubroutineType(types: !240)
!240 = !{null, !227, !19}
!241 = !DISubprogram(name: "clear", linkageName: "_ZN11xalanc_1_1011XalanBitmap5clearEm", scope: !11, file: !10, line: 96, type: !239, scopeLine: 96, flags: DIFlagPublic | DIFlagPrototyped, spFlags: 0)
!242 = !DISubprogram(name: "toggle", linkageName: "_ZN11xalanc_1_1011XalanBitmap6toggleEm", scope: !11, file: !10, line: 109, type: !239, scopeLine: 109, flags: DIFlagPublic | DIFlagPrototyped, spFlags: 0)
!243 = !DISubprogram(name: "clearAll", linkageName: "_ZN11xalanc_1_1011XalanBitmap8clearAllEv", scope: !11, file: !10, line: 120, type: !231, scopeLine: 120, flags: DIFlagPublic | DIFlagPrototyped, spFlags: 0)
!244 = !DISubprogram(name: "getSize", linkageName: "_ZNK11xalanc_1_1011XalanBitmap7getSizeEv", scope: !11, file: !10, line: 128, type: !245, scopeLine: 128, flags: DIFlagPublic | DIFlagPrototyped, spFlags: 0)
!245 = !DISubroutineType(types: !246)
!246 = !{!19, !236}
!247 = !DIGlobalVariableExpression(var: !248, expr: !DIExpression())
!248 = distinct !DIGlobalVariable(name: "s_clearMasks", linkageName: "_ZN11xalanc_1_1011XalanBitmap12s_clearMasksE", scope: !2, file: !3, line: 31, type: !4, isLocal: false, isDefinition: true, declaration: !13)
!249 = distinct !DICompileUnit(language: DW_LANG_C_plus_plus_14, file: !3, producer: "clang version 10.0.1 (https://github.com/svkeerthy/IR2Vec-LoopOptimizationFramework.git 561ac470e63b728263a0ac06ef987886ac648486)", isOptimized: false, runtimeVersion: 0, emissionKind: FullDebug, enums: !250, retainedTypes: !255, globals: !258, imports: !259, splitDebugInlining: false, nameTableKind: None)
!250 = !{!251}
!251 = !DICompositeType(tag: DW_TAG_enumeration_type, scope: !11, file: !10, line: 49, baseType: !252, size: 32, elements: !253, identifier: "_ZTSN11xalanc_1_1011XalanBitmapUt_E")
!252 = !DIBasicType(name: "unsigned int", size: 32, encoding: DW_ATE_unsigned)
!253 = !{!254}
!254 = !DIEnumerator(name: "eBitsPerUnit", value: 8, isUnsigned: true)
!255 = !{!19, !34, !37, !256, !257}
!256 = !DIDerivedType(tag: DW_TAG_pointer_type, baseType: !39, size: 64)
!257 = !DIBasicType(name: "unsigned char", size: 8, encoding: DW_ATE_unsigned_char)
!258 = !{!0, !247}
!259 = !{!260, !262, !264, !269, !325, !329, !335, !339, !346, !348, !353, !355, !362, !366, !370, !380, !384, !388, !392, !396, !400, !404, !408, !412, !416, !424, !428, !432, !434, !438, !442, !446, !452, !456, !460, !462, !470, !474, !482, !484, !488, !492, !496, !500, !505, !510, !515, !516, !517, !518, !520, !521, !522, !523, !524, !525, !526, !528, !529, !530, !531, !532, !533, !534, !539, !540, !541, !542, !543, !544, !545, !546, !547, !548, !549, !550, !551, !552, !553, !554, !555, !556, !557, !558, !559, !560, !561, !562, !563, !564, !566, !570, !587, !590, !595, !603, !608, !612, !616, !620, !624, !626, !628, !632, !638, !642, !648, !654, !656, !660, !664, !668, !672, !683, !685, !689, !693, !697, !699, !703, !707, !711, !713, !715, !719, !727, !731, !735, !739, !741, !747, !749, !755, !759, !763, !767, !771, !775, !779, !781, !783, !787, !791, !795, !797, !801, !805, !807, !809, !813, !817, !821, !825, !826, !827, !828, !829, !830, !831, !832, !833, !834, !835, !839, !843, !848, !852, !854, !856, !858, !860, !862, !864, !866, !868, !870, !872, !874, !876, !878, !885, !889, !892, !895, !898, !900, !902, !904, !907, !910, !913, !916, !919, !921, !925, !929, !932, !935, !937, !939, !941, !943, !946, !949, !952, !955, !958, !960, !964, !970, !975, !979, !981, !983, !985, !987, !994, !998, !1002, !1006, !1010, !1014, !1019, !1023, !1025, !1029, !1035, !1039, !1044, !1046, !1048, !1052, !1056, !1058, !1060, !1062, !1064, !1068, !1070, !1072, !1076, !1080, !1084, !1088, !1092, !1096, !1098, !1102, !1106, !1110, !1114, !1116, !1118, !1122, !1126, !1127, !1128, !1129, !1130, !1131}
!260 = !DIImportedEntity(tag: DW_TAG_imported_declaration, name: "xercesc", scope: !249, entity: !32, file: !261, line: 433)
!261 = !DIFile(filename: "./xercesc/util/XercesDefs.hpp", directory: "/home/venkat/IF-DV/spec_build_release/CPU_2017/benchspec/CPU/523.xalancbmk_r/build/build_base_ld-loop-ext-m64.0000")
!262 = !DIImportedEntity(tag: DW_TAG_imported_declaration, name: "xalanc", scope: !249, entity: !2, file: !263, line: 69)
!263 = !DIFile(filename: "./xalanc/Include/PlatformDefinitions.hpp", directory: "/home/venkat/IF-DV/spec_build_release/CPU_2017/benchspec/CPU/523.xalancbmk_r/build/build_base_ld-loop-ext-m64.0000")
!264 = !DIImportedEntity(tag: DW_TAG_imported_declaration, scope: !142, entity: !265, file: !268, line: 58)
!265 = !DIDerivedType(tag: DW_TAG_typedef, name: "max_align_t", file: !266, line: 24, baseType: !267)
!266 = !DIFile(filename: "Rohit/IR2Vec-LoopOptimizationFramework/build_REL_AsrtON/lib/clang/10.0.1/include/__stddef_max_align_t.h", directory: "/home/venkat/IF-DV")
!267 = !DICompositeType(tag: DW_TAG_structure_type, file: !266, line: 19, flags: DIFlagFwdDecl, identifier: "_ZTS11max_align_t")
!268 = !DIFile(filename: "/usr/lib/gcc/x86_64-linux-gnu/10/../../../../include/c++/10/cstddef", directory: "")
!269 = !DIImportedEntity(tag: DW_TAG_imported_declaration, scope: !142, entity: !270, file: !271, line: 58)
!270 = distinct !DICompositeType(tag: DW_TAG_class_type, name: "exception_ptr", scope: !272, file: !271, line: 80, size: 64, flags: DIFlagTypePassByReference | DIFlagNonTrivial, elements: !273, identifier: "_ZTSNSt15__exception_ptr13exception_ptrE")
!271 = !DIFile(filename: "/usr/lib/gcc/x86_64-linux-gnu/10/../../../../include/c++/10/bits/exception_ptr.h", directory: "")
!272 = !DINamespace(name: "__exception_ptr", scope: !142)
!273 = !{!274, !276, !280, !283, !284, !289, !290, !294, !300, !304, !308, !311, !312, !315, !318}
!274 = !DIDerivedType(tag: DW_TAG_member, name: "_M_exception_object", scope: !270, file: !271, line: 82, baseType: !275, size: 64)
!275 = !DIDerivedType(tag: DW_TAG_pointer_type, baseType: null, size: 64)
!276 = !DISubprogram(name: "exception_ptr", scope: !270, file: !271, line: 84, type: !277, scopeLine: 84, flags: DIFlagExplicit | DIFlagPrototyped, spFlags: 0)
!277 = !DISubroutineType(types: !278)
!278 = !{null, !279, !275}
!279 = !DIDerivedType(tag: DW_TAG_pointer_type, baseType: !270, size: 64, flags: DIFlagArtificial | DIFlagObjectPointer)
!280 = !DISubprogram(name: "_M_addref", linkageName: "_ZNSt15__exception_ptr13exception_ptr9_M_addrefEv", scope: !270, file: !271, line: 86, type: !281, scopeLine: 86, flags: DIFlagPrototyped, spFlags: 0)
!281 = !DISubroutineType(types: !282)
!282 = !{null, !279}
!283 = !DISubprogram(name: "_M_release", linkageName: "_ZNSt15__exception_ptr13exception_ptr10_M_releaseEv", scope: !270, file: !271, line: 87, type: !281, scopeLine: 87, flags: DIFlagPrototyped, spFlags: 0)
!284 = !DISubprogram(name: "_M_get", linkageName: "_ZNKSt15__exception_ptr13exception_ptr6_M_getEv", scope: !270, file: !271, line: 89, type: !285, scopeLine: 89, flags: DIFlagPrototyped, spFlags: 0)
!285 = !DISubroutineType(types: !286)
!286 = !{!275, !287}
!287 = !DIDerivedType(tag: DW_TAG_pointer_type, baseType: !288, size: 64, flags: DIFlagArtificial | DIFlagObjectPointer)
!288 = !DIDerivedType(tag: DW_TAG_const_type, baseType: !270)
!289 = !DISubprogram(name: "exception_ptr", scope: !270, file: !271, line: 97, type: !281, scopeLine: 97, flags: DIFlagPublic | DIFlagPrototyped, spFlags: 0)
!290 = !DISubprogram(name: "exception_ptr", scope: !270, file: !271, line: 99, type: !291, scopeLine: 99, flags: DIFlagPublic | DIFlagPrototyped, spFlags: 0)
!291 = !DISubroutineType(types: !292)
!292 = !{null, !279, !293}
!293 = !DIDerivedType(tag: DW_TAG_reference_type, baseType: !288, size: 64)
!294 = !DISubprogram(name: "exception_ptr", scope: !270, file: !271, line: 102, type: !295, scopeLine: 102, flags: DIFlagPublic | DIFlagPrototyped, spFlags: 0)
!295 = !DISubroutineType(types: !296)
!296 = !{null, !279, !297}
!297 = !DIDerivedType(tag: DW_TAG_typedef, name: "nullptr_t", scope: !142, file: !298, line: 264, baseType: !299)
!298 = !DIFile(filename: "/usr/lib/gcc/x86_64-linux-gnu/10/../../../../include/x86_64-linux-gnu/c++/10/bits/c++config.h", directory: "")
!299 = !DIBasicType(tag: DW_TAG_unspecified_type, name: "decltype(nullptr)")
!300 = !DISubprogram(name: "exception_ptr", scope: !270, file: !271, line: 106, type: !301, scopeLine: 106, flags: DIFlagPublic | DIFlagPrototyped, spFlags: 0)
!301 = !DISubroutineType(types: !302)
!302 = !{null, !279, !303}
!303 = !DIDerivedType(tag: DW_TAG_rvalue_reference_type, baseType: !270, size: 64)
!304 = !DISubprogram(name: "operator=", linkageName: "_ZNSt15__exception_ptr13exception_ptraSERKS0_", scope: !270, file: !271, line: 119, type: !305, scopeLine: 119, flags: DIFlagPublic | DIFlagPrototyped, spFlags: 0)
!305 = !DISubroutineType(types: !306)
!306 = !{!307, !279, !293}
!307 = !DIDerivedType(tag: DW_TAG_reference_type, baseType: !270, size: 64)
!308 = !DISubprogram(name: "operator=", linkageName: "_ZNSt15__exception_ptr13exception_ptraSEOS0_", scope: !270, file: !271, line: 123, type: !309, scopeLine: 123, flags: DIFlagPublic | DIFlagPrototyped, spFlags: 0)
!309 = !DISubroutineType(types: !310)
!310 = !{!307, !279, !303}
!311 = !DISubprogram(name: "~exception_ptr", scope: !270, file: !271, line: 130, type: !281, scopeLine: 130, flags: DIFlagPublic | DIFlagPrototyped, spFlags: 0)
!312 = !DISubprogram(name: "swap", linkageName: "_ZNSt15__exception_ptr13exception_ptr4swapERS0_", scope: !270, file: !271, line: 133, type: !313, scopeLine: 133, flags: DIFlagPublic | DIFlagPrototyped, spFlags: 0)
!313 = !DISubroutineType(types: !314)
!314 = !{null, !279, !307}
!315 = !DISubprogram(name: "operator bool", linkageName: "_ZNKSt15__exception_ptr13exception_ptrcvbEv", scope: !270, file: !271, line: 145, type: !316, scopeLine: 145, flags: DIFlagPublic | DIFlagExplicit | DIFlagPrototyped, spFlags: 0)
!316 = !DISubroutineType(types: !317)
!317 = !{!114, !287}
!318 = !DISubprogram(name: "__cxa_exception_type", linkageName: "_ZNKSt15__exception_ptr13exception_ptr20__cxa_exception_typeEv", scope: !270, file: !271, line: 154, type: !319, scopeLine: 154, flags: DIFlagPublic | DIFlagPrototyped, spFlags: 0)
!319 = !DISubroutineType(types: !320)
!320 = !{!321, !287}
!321 = !DIDerivedType(tag: DW_TAG_pointer_type, baseType: !322, size: 64)
!322 = !DIDerivedType(tag: DW_TAG_const_type, baseType: !323)
!323 = !DICompositeType(tag: DW_TAG_class_type, name: "type_info", scope: !142, file: !324, line: 88, flags: DIFlagFwdDecl)
!324 = !DIFile(filename: "/usr/lib/gcc/x86_64-linux-gnu/10/../../../../include/c++/10/typeinfo", directory: "")
!325 = !DIImportedEntity(tag: DW_TAG_imported_declaration, scope: !272, entity: !326, file: !271, line: 74)
!326 = !DISubprogram(name: "rethrow_exception", linkageName: "_ZSt17rethrow_exceptionNSt15__exception_ptr13exception_ptrE", scope: !142, file: !271, line: 70, type: !327, flags: DIFlagPrototyped | DIFlagNoReturn, spFlags: 0)
!327 = !DISubroutineType(types: !328)
!328 = !{null, !270}
!329 = !DIImportedEntity(tag: DW_TAG_imported_declaration, scope: !142, entity: !330, file: !334, line: 52)
!330 = !DISubprogram(name: "abs", scope: !331, file: !331, line: 840, type: !332, flags: DIFlagPrototyped, spFlags: 0)
!331 = !DIFile(filename: "/usr/include/stdlib.h", directory: "")
!332 = !DISubroutineType(types: !333)
!333 = !{!6, !6}
!334 = !DIFile(filename: "/usr/lib/gcc/x86_64-linux-gnu/10/../../../../include/c++/10/bits/std_abs.h", directory: "")
!335 = !DIImportedEntity(tag: DW_TAG_imported_declaration, scope: !142, entity: !336, file: !338, line: 127)
!336 = !DIDerivedType(tag: DW_TAG_typedef, name: "div_t", file: !331, line: 62, baseType: !337)
!337 = !DICompositeType(tag: DW_TAG_structure_type, file: !331, line: 58, flags: DIFlagFwdDecl, identifier: "_ZTS5div_t")
!338 = !DIFile(filename: "/usr/lib/gcc/x86_64-linux-gnu/10/../../../../include/c++/10/cstdlib", directory: "")
!339 = !DIImportedEntity(tag: DW_TAG_imported_declaration, scope: !142, entity: !340, file: !338, line: 128)
!340 = !DIDerivedType(tag: DW_TAG_typedef, name: "ldiv_t", file: !331, line: 70, baseType: !341)
!341 = distinct !DICompositeType(tag: DW_TAG_structure_type, file: !331, line: 66, size: 128, flags: DIFlagTypePassByValue, elements: !342, identifier: "_ZTS6ldiv_t")
!342 = !{!343, !345}
!343 = !DIDerivedType(tag: DW_TAG_member, name: "quot", scope: !341, file: !331, line: 68, baseType: !344, size: 64)
!344 = !DIBasicType(name: "long int", size: 64, encoding: DW_ATE_signed)
!345 = !DIDerivedType(tag: DW_TAG_member, name: "rem", scope: !341, file: !331, line: 69, baseType: !344, size: 64, offset: 64)
!346 = !DIImportedEntity(tag: DW_TAG_imported_declaration, scope: !142, entity: !347, file: !338, line: 130)
!347 = !DISubprogram(name: "abort", scope: !331, file: !331, line: 591, type: !209, flags: DIFlagPrototyped | DIFlagNoReturn, spFlags: 0)
!348 = !DIImportedEntity(tag: DW_TAG_imported_declaration, scope: !142, entity: !349, file: !338, line: 134)
!349 = !DISubprogram(name: "atexit", scope: !331, file: !331, line: 595, type: !350, flags: DIFlagPrototyped, spFlags: 0)
!350 = !DISubroutineType(types: !351)
!351 = !{!6, !352}
!352 = !DIDerivedType(tag: DW_TAG_pointer_type, baseType: !209, size: 64)
!353 = !DIImportedEntity(tag: DW_TAG_imported_declaration, scope: !142, entity: !354, file: !338, line: 137)
!354 = !DISubprogram(name: "at_quick_exit", scope: !331, file: !331, line: 600, type: !350, flags: DIFlagPrototyped, spFlags: 0)
!355 = !DIImportedEntity(tag: DW_TAG_imported_declaration, scope: !142, entity: !356, file: !338, line: 140)
!356 = !DISubprogram(name: "atof", scope: !331, file: !331, line: 101, type: !357, flags: DIFlagPrototyped, spFlags: 0)
!357 = !DISubroutineType(types: !358)
!358 = !{!359, !360}
!359 = !DIBasicType(name: "double", size: 64, encoding: DW_ATE_float)
!360 = !DIDerivedType(tag: DW_TAG_pointer_type, baseType: !361, size: 64)
!361 = !DIDerivedType(tag: DW_TAG_const_type, baseType: !39)
!362 = !DIImportedEntity(tag: DW_TAG_imported_declaration, scope: !142, entity: !363, file: !338, line: 141)
!363 = !DISubprogram(name: "atoi", scope: !331, file: !331, line: 104, type: !364, flags: DIFlagPrototyped, spFlags: 0)
!364 = !DISubroutineType(types: !365)
!365 = !{!6, !360}
!366 = !DIImportedEntity(tag: DW_TAG_imported_declaration, scope: !142, entity: !367, file: !338, line: 142)
!367 = !DISubprogram(name: "atol", scope: !331, file: !331, line: 107, type: !368, flags: DIFlagPrototyped, spFlags: 0)
!368 = !DISubroutineType(types: !369)
!369 = !{!344, !360}
!370 = !DIImportedEntity(tag: DW_TAG_imported_declaration, scope: !142, entity: !371, file: !338, line: 143)
!371 = !DISubprogram(name: "bsearch", scope: !331, file: !331, line: 820, type: !372, flags: DIFlagPrototyped, spFlags: 0)
!372 = !DISubroutineType(types: !373)
!373 = !{!275, !374, !374, !20, !20, !376}
!374 = !DIDerivedType(tag: DW_TAG_pointer_type, baseType: !375, size: 64)
!375 = !DIDerivedType(tag: DW_TAG_const_type, baseType: null)
!376 = !DIDerivedType(tag: DW_TAG_typedef, name: "__compar_fn_t", file: !331, line: 808, baseType: !377)
!377 = !DIDerivedType(tag: DW_TAG_pointer_type, baseType: !378, size: 64)
!378 = !DISubroutineType(types: !379)
!379 = !{!6, !374, !374}
!380 = !DIImportedEntity(tag: DW_TAG_imported_declaration, scope: !142, entity: !381, file: !338, line: 144)
!381 = !DISubprogram(name: "calloc", scope: !331, file: !331, line: 542, type: !382, flags: DIFlagPrototyped, spFlags: 0)
!382 = !DISubroutineType(types: !383)
!383 = !{!275, !20, !20}
!384 = !DIImportedEntity(tag: DW_TAG_imported_declaration, scope: !142, entity: !385, file: !338, line: 145)
!385 = !DISubprogram(name: "div", scope: !331, file: !331, line: 852, type: !386, flags: DIFlagPrototyped, spFlags: 0)
!386 = !DISubroutineType(types: !387)
!387 = !{!336, !6, !6}
!388 = !DIImportedEntity(tag: DW_TAG_imported_declaration, scope: !142, entity: !389, file: !338, line: 146)
!389 = !DISubprogram(name: "exit", scope: !331, file: !331, line: 617, type: !390, flags: DIFlagPrototyped | DIFlagNoReturn, spFlags: 0)
!390 = !DISubroutineType(types: !391)
!391 = !{null, !6}
!392 = !DIImportedEntity(tag: DW_TAG_imported_declaration, scope: !142, entity: !393, file: !338, line: 147)
!393 = !DISubprogram(name: "free", scope: !331, file: !331, line: 565, type: !394, flags: DIFlagPrototyped, spFlags: 0)
!394 = !DISubroutineType(types: !395)
!395 = !{null, !275}
!396 = !DIImportedEntity(tag: DW_TAG_imported_declaration, scope: !142, entity: !397, file: !338, line: 148)
!397 = !DISubprogram(name: "getenv", scope: !331, file: !331, line: 634, type: !398, flags: DIFlagPrototyped, spFlags: 0)
!398 = !DISubroutineType(types: !399)
!399 = !{!256, !360}
!400 = !DIImportedEntity(tag: DW_TAG_imported_declaration, scope: !142, entity: !401, file: !338, line: 149)
!401 = !DISubprogram(name: "labs", scope: !331, file: !331, line: 841, type: !402, flags: DIFlagPrototyped, spFlags: 0)
!402 = !DISubroutineType(types: !403)
!403 = !{!344, !344}
!404 = !DIImportedEntity(tag: DW_TAG_imported_declaration, scope: !142, entity: !405, file: !338, line: 150)
!405 = !DISubprogram(name: "ldiv", scope: !331, file: !331, line: 854, type: !406, flags: DIFlagPrototyped, spFlags: 0)
!406 = !DISubroutineType(types: !407)
!407 = !{!340, !344, !344}
!408 = !DIImportedEntity(tag: DW_TAG_imported_declaration, scope: !142, entity: !409, file: !338, line: 151)
!409 = !DISubprogram(name: "malloc", scope: !331, file: !331, line: 539, type: !410, flags: DIFlagPrototyped, spFlags: 0)
!410 = !DISubroutineType(types: !411)
!411 = !{!275, !20}
!412 = !DIImportedEntity(tag: DW_TAG_imported_declaration, scope: !142, entity: !413, file: !338, line: 153)
!413 = !DISubprogram(name: "mblen", scope: !331, file: !331, line: 922, type: !414, flags: DIFlagPrototyped, spFlags: 0)
!414 = !DISubroutineType(types: !415)
!415 = !{!6, !360, !20}
!416 = !DIImportedEntity(tag: DW_TAG_imported_declaration, scope: !142, entity: !417, file: !338, line: 154)
!417 = !DISubprogram(name: "mbstowcs", scope: !331, file: !331, line: 933, type: !418, flags: DIFlagPrototyped, spFlags: 0)
!418 = !DISubroutineType(types: !419)
!419 = !{!20, !420, !423, !20}
!420 = !DIDerivedType(tag: DW_TAG_restrict_type, baseType: !421)
!421 = !DIDerivedType(tag: DW_TAG_pointer_type, baseType: !422, size: 64)
!422 = !DIBasicType(name: "wchar_t", size: 32, encoding: DW_ATE_signed)
!423 = !DIDerivedType(tag: DW_TAG_restrict_type, baseType: !360)
!424 = !DIImportedEntity(tag: DW_TAG_imported_declaration, scope: !142, entity: !425, file: !338, line: 155)
!425 = !DISubprogram(name: "mbtowc", scope: !331, file: !331, line: 925, type: !426, flags: DIFlagPrototyped, spFlags: 0)
!426 = !DISubroutineType(types: !427)
!427 = !{!6, !420, !423, !20}
!428 = !DIImportedEntity(tag: DW_TAG_imported_declaration, scope: !142, entity: !429, file: !338, line: 157)
!429 = !DISubprogram(name: "qsort", scope: !331, file: !331, line: 830, type: !430, flags: DIFlagPrototyped, spFlags: 0)
!430 = !DISubroutineType(types: !431)
!431 = !{null, !275, !20, !20, !376}
!432 = !DIImportedEntity(tag: DW_TAG_imported_declaration, scope: !142, entity: !433, file: !338, line: 160)
!433 = !DISubprogram(name: "quick_exit", scope: !331, file: !331, line: 623, type: !390, flags: DIFlagPrototyped | DIFlagNoReturn, spFlags: 0)
!434 = !DIImportedEntity(tag: DW_TAG_imported_declaration, scope: !142, entity: !435, file: !338, line: 163)
!435 = !DISubprogram(name: "rand", scope: !331, file: !331, line: 453, type: !436, flags: DIFlagPrototyped, spFlags: 0)
!436 = !DISubroutineType(types: !437)
!437 = !{!6}
!438 = !DIImportedEntity(tag: DW_TAG_imported_declaration, scope: !142, entity: !439, file: !338, line: 164)
!439 = !DISubprogram(name: "realloc", scope: !331, file: !331, line: 550, type: !440, flags: DIFlagPrototyped, spFlags: 0)
!440 = !DISubroutineType(types: !441)
!441 = !{!275, !275, !20}
!442 = !DIImportedEntity(tag: DW_TAG_imported_declaration, scope: !142, entity: !443, file: !338, line: 165)
!443 = !DISubprogram(name: "srand", scope: !331, file: !331, line: 455, type: !444, flags: DIFlagPrototyped, spFlags: 0)
!444 = !DISubroutineType(types: !445)
!445 = !{null, !252}
!446 = !DIImportedEntity(tag: DW_TAG_imported_declaration, scope: !142, entity: !447, file: !338, line: 166)
!447 = !DISubprogram(name: "strtod", scope: !331, file: !331, line: 117, type: !448, flags: DIFlagPrototyped, spFlags: 0)
!448 = !DISubroutineType(types: !449)
!449 = !{!359, !423, !450}
!450 = !DIDerivedType(tag: DW_TAG_restrict_type, baseType: !451)
!451 = !DIDerivedType(tag: DW_TAG_pointer_type, baseType: !256, size: 64)
!452 = !DIImportedEntity(tag: DW_TAG_imported_declaration, scope: !142, entity: !453, file: !338, line: 167)
!453 = !DISubprogram(name: "strtol", scope: !331, file: !331, line: 176, type: !454, flags: DIFlagPrototyped, spFlags: 0)
!454 = !DISubroutineType(types: !455)
!455 = !{!344, !423, !450, !6}
!456 = !DIImportedEntity(tag: DW_TAG_imported_declaration, scope: !142, entity: !457, file: !338, line: 168)
!457 = !DISubprogram(name: "strtoul", scope: !331, file: !331, line: 180, type: !458, flags: DIFlagPrototyped, spFlags: 0)
!458 = !DISubroutineType(types: !459)
!459 = !{!22, !423, !450, !6}
!460 = !DIImportedEntity(tag: DW_TAG_imported_declaration, scope: !142, entity: !461, file: !338, line: 169)
!461 = !DISubprogram(name: "system", scope: !331, file: !331, line: 784, type: !364, flags: DIFlagPrototyped, spFlags: 0)
!462 = !DIImportedEntity(tag: DW_TAG_imported_declaration, scope: !142, entity: !463, file: !338, line: 171)
!463 = !DISubprogram(name: "wcstombs", scope: !331, file: !331, line: 936, type: !464, flags: DIFlagPrototyped, spFlags: 0)
!464 = !DISubroutineType(types: !465)
!465 = !{!20, !466, !467, !20}
!466 = !DIDerivedType(tag: DW_TAG_restrict_type, baseType: !256)
!467 = !DIDerivedType(tag: DW_TAG_restrict_type, baseType: !468)
!468 = !DIDerivedType(tag: DW_TAG_pointer_type, baseType: !469, size: 64)
!469 = !DIDerivedType(tag: DW_TAG_const_type, baseType: !422)
!470 = !DIImportedEntity(tag: DW_TAG_imported_declaration, scope: !142, entity: !471, file: !338, line: 172)
!471 = !DISubprogram(name: "wctomb", scope: !331, file: !331, line: 929, type: !472, flags: DIFlagPrototyped, spFlags: 0)
!472 = !DISubroutineType(types: !473)
!473 = !{!6, !256, !422}
!474 = !DIImportedEntity(tag: DW_TAG_imported_declaration, scope: !475, entity: !476, file: !338, line: 200)
!475 = !DINamespace(name: "__gnu_cxx", scope: null)
!476 = !DIDerivedType(tag: DW_TAG_typedef, name: "lldiv_t", file: !331, line: 80, baseType: !477)
!477 = distinct !DICompositeType(tag: DW_TAG_structure_type, file: !331, line: 76, size: 128, flags: DIFlagTypePassByValue, elements: !478, identifier: "_ZTS7lldiv_t")
!478 = !{!479, !481}
!479 = !DIDerivedType(tag: DW_TAG_member, name: "quot", scope: !477, file: !331, line: 78, baseType: !480, size: 64)
!480 = !DIBasicType(name: "long long int", size: 64, encoding: DW_ATE_signed)
!481 = !DIDerivedType(tag: DW_TAG_member, name: "rem", scope: !477, file: !331, line: 79, baseType: !480, size: 64, offset: 64)
!482 = !DIImportedEntity(tag: DW_TAG_imported_declaration, scope: !475, entity: !483, file: !338, line: 206)
!483 = !DISubprogram(name: "_Exit", scope: !331, file: !331, line: 629, type: !390, flags: DIFlagPrototyped | DIFlagNoReturn, spFlags: 0)
!484 = !DIImportedEntity(tag: DW_TAG_imported_declaration, scope: !475, entity: !485, file: !338, line: 210)
!485 = !DISubprogram(name: "llabs", scope: !331, file: !331, line: 844, type: !486, flags: DIFlagPrototyped, spFlags: 0)
!486 = !DISubroutineType(types: !487)
!487 = !{!480, !480}
!488 = !DIImportedEntity(tag: DW_TAG_imported_declaration, scope: !475, entity: !489, file: !338, line: 216)
!489 = !DISubprogram(name: "lldiv", scope: !331, file: !331, line: 858, type: !490, flags: DIFlagPrototyped, spFlags: 0)
!490 = !DISubroutineType(types: !491)
!491 = !{!476, !480, !480}
!492 = !DIImportedEntity(tag: DW_TAG_imported_declaration, scope: !475, entity: !493, file: !338, line: 227)
!493 = !DISubprogram(name: "atoll", scope: !331, file: !331, line: 112, type: !494, flags: DIFlagPrototyped, spFlags: 0)
!494 = !DISubroutineType(types: !495)
!495 = !{!480, !360}
!496 = !DIImportedEntity(tag: DW_TAG_imported_declaration, scope: !475, entity: !497, file: !338, line: 228)
!497 = !DISubprogram(name: "strtoll", scope: !331, file: !331, line: 200, type: !498, flags: DIFlagPrototyped, spFlags: 0)
!498 = !DISubroutineType(types: !499)
!499 = !{!480, !423, !450, !6}
!500 = !DIImportedEntity(tag: DW_TAG_imported_declaration, scope: !475, entity: !501, file: !338, line: 229)
!501 = !DISubprogram(name: "strtoull", scope: !331, file: !331, line: 205, type: !502, flags: DIFlagPrototyped, spFlags: 0)
!502 = !DISubroutineType(types: !503)
!503 = !{!504, !423, !450, !6}
!504 = !DIBasicType(name: "long long unsigned int", size: 64, encoding: DW_ATE_unsigned)
!505 = !DIImportedEntity(tag: DW_TAG_imported_declaration, scope: !475, entity: !506, file: !338, line: 231)
!506 = !DISubprogram(name: "strtof", scope: !331, file: !331, line: 123, type: !507, flags: DIFlagPrototyped, spFlags: 0)
!507 = !DISubroutineType(types: !508)
!508 = !{!509, !423, !450}
!509 = !DIBasicType(name: "float", size: 32, encoding: DW_ATE_float)
!510 = !DIImportedEntity(tag: DW_TAG_imported_declaration, scope: !475, entity: !511, file: !338, line: 232)
!511 = !DISubprogram(name: "strtold", scope: !331, file: !331, line: 126, type: !512, flags: DIFlagPrototyped, spFlags: 0)
!512 = !DISubroutineType(types: !513)
!513 = !{!514, !423, !450}
!514 = !DIBasicType(name: "long double", size: 128, encoding: DW_ATE_float)
!515 = !DIImportedEntity(tag: DW_TAG_imported_declaration, scope: !142, entity: !476, file: !338, line: 240)
!516 = !DIImportedEntity(tag: DW_TAG_imported_declaration, scope: !142, entity: !483, file: !338, line: 242)
!517 = !DIImportedEntity(tag: DW_TAG_imported_declaration, scope: !142, entity: !485, file: !338, line: 244)
!518 = !DIImportedEntity(tag: DW_TAG_imported_declaration, scope: !142, entity: !519, file: !338, line: 245)
!519 = !DISubprogram(name: "div", linkageName: "_ZN9__gnu_cxx3divExx", scope: !475, file: !338, line: 213, type: !490, flags: DIFlagPrototyped, spFlags: 0)
!520 = !DIImportedEntity(tag: DW_TAG_imported_declaration, scope: !142, entity: !489, file: !338, line: 246)
!521 = !DIImportedEntity(tag: DW_TAG_imported_declaration, scope: !142, entity: !493, file: !338, line: 248)
!522 = !DIImportedEntity(tag: DW_TAG_imported_declaration, scope: !142, entity: !506, file: !338, line: 249)
!523 = !DIImportedEntity(tag: DW_TAG_imported_declaration, scope: !142, entity: !497, file: !338, line: 250)
!524 = !DIImportedEntity(tag: DW_TAG_imported_declaration, scope: !142, entity: !501, file: !338, line: 251)
!525 = !DIImportedEntity(tag: DW_TAG_imported_declaration, scope: !142, entity: !511, file: !338, line: 252)
!526 = !DIImportedEntity(tag: DW_TAG_imported_declaration, scope: !249, entity: !347, file: !527, line: 38)
!527 = !DIFile(filename: "/usr/lib/gcc/x86_64-linux-gnu/10/../../../../include/c++/10/stdlib.h", directory: "")
!528 = !DIImportedEntity(tag: DW_TAG_imported_declaration, scope: !249, entity: !349, file: !527, line: 39)
!529 = !DIImportedEntity(tag: DW_TAG_imported_declaration, scope: !249, entity: !389, file: !527, line: 40)
!530 = !DIImportedEntity(tag: DW_TAG_imported_declaration, scope: !249, entity: !354, file: !527, line: 43)
!531 = !DIImportedEntity(tag: DW_TAG_imported_declaration, scope: !249, entity: !433, file: !527, line: 46)
!532 = !DIImportedEntity(tag: DW_TAG_imported_declaration, scope: !249, entity: !336, file: !527, line: 51)
!533 = !DIImportedEntity(tag: DW_TAG_imported_declaration, scope: !249, entity: !340, file: !527, line: 52)
!534 = !DIImportedEntity(tag: DW_TAG_imported_declaration, scope: !249, entity: !535, file: !527, line: 54)
!535 = !DISubprogram(name: "abs", linkageName: "_ZSt3absg", scope: !142, file: !334, line: 103, type: !536, flags: DIFlagPrototyped, spFlags: 0)
!536 = !DISubroutineType(types: !537)
!537 = !{!538, !538}
!538 = !DIBasicType(name: "__float128", size: 128, encoding: DW_ATE_float)
!539 = !DIImportedEntity(tag: DW_TAG_imported_declaration, scope: !249, entity: !356, file: !527, line: 55)
!540 = !DIImportedEntity(tag: DW_TAG_imported_declaration, scope: !249, entity: !363, file: !527, line: 56)
!541 = !DIImportedEntity(tag: DW_TAG_imported_declaration, scope: !249, entity: !367, file: !527, line: 57)
!542 = !DIImportedEntity(tag: DW_TAG_imported_declaration, scope: !249, entity: !371, file: !527, line: 58)
!543 = !DIImportedEntity(tag: DW_TAG_imported_declaration, scope: !249, entity: !381, file: !527, line: 59)
!544 = !DIImportedEntity(tag: DW_TAG_imported_declaration, scope: !249, entity: !519, file: !527, line: 60)
!545 = !DIImportedEntity(tag: DW_TAG_imported_declaration, scope: !249, entity: !393, file: !527, line: 61)
!546 = !DIImportedEntity(tag: DW_TAG_imported_declaration, scope: !249, entity: !397, file: !527, line: 62)
!547 = !DIImportedEntity(tag: DW_TAG_imported_declaration, scope: !249, entity: !401, file: !527, line: 63)
!548 = !DIImportedEntity(tag: DW_TAG_imported_declaration, scope: !249, entity: !405, file: !527, line: 64)
!549 = !DIImportedEntity(tag: DW_TAG_imported_declaration, scope: !249, entity: !409, file: !527, line: 65)
!550 = !DIImportedEntity(tag: DW_TAG_imported_declaration, scope: !249, entity: !413, file: !527, line: 67)
!551 = !DIImportedEntity(tag: DW_TAG_imported_declaration, scope: !249, entity: !417, file: !527, line: 68)
!552 = !DIImportedEntity(tag: DW_TAG_imported_declaration, scope: !249, entity: !425, file: !527, line: 69)
!553 = !DIImportedEntity(tag: DW_TAG_imported_declaration, scope: !249, entity: !429, file: !527, line: 71)
!554 = !DIImportedEntity(tag: DW_TAG_imported_declaration, scope: !249, entity: !435, file: !527, line: 72)
!555 = !DIImportedEntity(tag: DW_TAG_imported_declaration, scope: !249, entity: !439, file: !527, line: 73)
!556 = !DIImportedEntity(tag: DW_TAG_imported_declaration, scope: !249, entity: !443, file: !527, line: 74)
!557 = !DIImportedEntity(tag: DW_TAG_imported_declaration, scope: !249, entity: !447, file: !527, line: 75)
!558 = !DIImportedEntity(tag: DW_TAG_imported_declaration, scope: !249, entity: !453, file: !527, line: 76)
!559 = !DIImportedEntity(tag: DW_TAG_imported_declaration, scope: !249, entity: !457, file: !527, line: 77)
!560 = !DIImportedEntity(tag: DW_TAG_imported_declaration, scope: !249, entity: !461, file: !527, line: 78)
!561 = !DIImportedEntity(tag: DW_TAG_imported_declaration, scope: !249, entity: !463, file: !527, line: 80)
!562 = !DIImportedEntity(tag: DW_TAG_imported_declaration, scope: !249, entity: !471, file: !527, line: 81)
!563 = !DIImportedEntity(tag: DW_TAG_imported_declaration, scope: !2, entity: !30, file: !220, line: 40)
!564 = !DIImportedEntity(tag: DW_TAG_imported_declaration, scope: !2, entity: !30, file: !565, line: 40)
!565 = !DIFile(filename: "./xalanc/Include/XalanMemMgrAutoPtr.hpp", directory: "/home/venkat/IF-DV/spec_build_release/CPU_2017/benchspec/CPU/523.xalancbmk_r/build/build_base_ld-loop-ext-m64.0000")
!566 = !DIImportedEntity(tag: DW_TAG_imported_module, scope: !567, entity: !568, file: !569, line: 58)
!567 = !DINamespace(name: "__gnu_debug", scope: null)
!568 = !DINamespace(name: "__debug", scope: !142)
!569 = !DIFile(filename: "/usr/lib/gcc/x86_64-linux-gnu/10/../../../../include/c++/10/debug/debug.h", directory: "")
!570 = !DIImportedEntity(tag: DW_TAG_imported_declaration, scope: !142, entity: !571, file: !586, line: 64)
!571 = !DIDerivedType(tag: DW_TAG_typedef, name: "mbstate_t", file: !572, line: 6, baseType: !573)
!572 = !DIFile(filename: "/usr/include/x86_64-linux-gnu/bits/types/mbstate_t.h", directory: "")
!573 = !DIDerivedType(tag: DW_TAG_typedef, name: "__mbstate_t", file: !574, line: 21, baseType: !575)
!574 = !DIFile(filename: "/usr/include/x86_64-linux-gnu/bits/types/__mbstate_t.h", directory: "")
!575 = distinct !DICompositeType(tag: DW_TAG_structure_type, file: !574, line: 13, size: 64, flags: DIFlagTypePassByValue, elements: !576, identifier: "_ZTS11__mbstate_t")
!576 = !{!577, !578}
!577 = !DIDerivedType(tag: DW_TAG_member, name: "__count", scope: !575, file: !574, line: 15, baseType: !6, size: 32)
!578 = !DIDerivedType(tag: DW_TAG_member, name: "__value", scope: !575, file: !574, line: 20, baseType: !579, size: 32, offset: 32)
!579 = distinct !DICompositeType(tag: DW_TAG_union_type, scope: !575, file: !574, line: 16, size: 32, flags: DIFlagTypePassByValue, elements: !580, identifier: "_ZTSN11__mbstate_tUt_E")
!580 = !{!581, !582}
!581 = !DIDerivedType(tag: DW_TAG_member, name: "__wch", scope: !579, file: !574, line: 18, baseType: !252, size: 32)
!582 = !DIDerivedType(tag: DW_TAG_member, name: "__wchb", scope: !579, file: !574, line: 19, baseType: !583, size: 32)
!583 = !DICompositeType(tag: DW_TAG_array_type, baseType: !39, size: 32, elements: !584)
!584 = !{!585}
!585 = !DISubrange(count: 4)
!586 = !DIFile(filename: "/usr/lib/gcc/x86_64-linux-gnu/10/../../../../include/c++/10/cwchar", directory: "")
!587 = !DIImportedEntity(tag: DW_TAG_imported_declaration, scope: !142, entity: !588, file: !586, line: 141)
!588 = !DIDerivedType(tag: DW_TAG_typedef, name: "wint_t", file: !589, line: 20, baseType: !252)
!589 = !DIFile(filename: "/usr/include/x86_64-linux-gnu/bits/types/wint_t.h", directory: "")
!590 = !DIImportedEntity(tag: DW_TAG_imported_declaration, scope: !142, entity: !591, file: !586, line: 143)
!591 = !DISubprogram(name: "btowc", scope: !592, file: !592, line: 284, type: !593, flags: DIFlagPrototyped, spFlags: 0)
!592 = !DIFile(filename: "/usr/include/wchar.h", directory: "")
!593 = !DISubroutineType(types: !594)
!594 = !{!588, !6}
!595 = !DIImportedEntity(tag: DW_TAG_imported_declaration, scope: !142, entity: !596, file: !586, line: 144)
!596 = !DISubprogram(name: "fgetwc", scope: !592, file: !592, line: 726, type: !597, flags: DIFlagPrototyped, spFlags: 0)
!597 = !DISubroutineType(types: !598)
!598 = !{!588, !599}
!599 = !DIDerivedType(tag: DW_TAG_pointer_type, baseType: !600, size: 64)
!600 = !DIDerivedType(tag: DW_TAG_typedef, name: "__FILE", file: !601, line: 5, baseType: !602)
!601 = !DIFile(filename: "/usr/include/x86_64-linux-gnu/bits/types/__FILE.h", directory: "")
!602 = !DICompositeType(tag: DW_TAG_structure_type, name: "_IO_FILE", file: !601, line: 4, flags: DIFlagFwdDecl, identifier: "_ZTS8_IO_FILE")
!603 = !DIImportedEntity(tag: DW_TAG_imported_declaration, scope: !142, entity: !604, file: !586, line: 145)
!604 = !DISubprogram(name: "fgetws", scope: !592, file: !592, line: 755, type: !605, flags: DIFlagPrototyped, spFlags: 0)
!605 = !DISubroutineType(types: !606)
!606 = !{!421, !420, !6, !607}
!607 = !DIDerivedType(tag: DW_TAG_restrict_type, baseType: !599)
!608 = !DIImportedEntity(tag: DW_TAG_imported_declaration, scope: !142, entity: !609, file: !586, line: 146)
!609 = !DISubprogram(name: "fputwc", scope: !592, file: !592, line: 740, type: !610, flags: DIFlagPrototyped, spFlags: 0)
!610 = !DISubroutineType(types: !611)
!611 = !{!588, !422, !599}
!612 = !DIImportedEntity(tag: DW_TAG_imported_declaration, scope: !142, entity: !613, file: !586, line: 147)
!613 = !DISubprogram(name: "fputws", scope: !592, file: !592, line: 762, type: !614, flags: DIFlagPrototyped, spFlags: 0)
!614 = !DISubroutineType(types: !615)
!615 = !{!6, !467, !607}
!616 = !DIImportedEntity(tag: DW_TAG_imported_declaration, scope: !142, entity: !617, file: !586, line: 148)
!617 = !DISubprogram(name: "fwide", scope: !592, file: !592, line: 573, type: !618, flags: DIFlagPrototyped, spFlags: 0)
!618 = !DISubroutineType(types: !619)
!619 = !{!6, !599, !6}
!620 = !DIImportedEntity(tag: DW_TAG_imported_declaration, scope: !142, entity: !621, file: !586, line: 149)
!621 = !DISubprogram(name: "fwprintf", scope: !592, file: !592, line: 580, type: !622, flags: DIFlagPrototyped, spFlags: 0)
!622 = !DISubroutineType(types: !623)
!623 = !{!6, !607, !467, null}
!624 = !DIImportedEntity(tag: DW_TAG_imported_declaration, scope: !142, entity: !625, file: !586, line: 150)
!625 = !DISubprogram(name: "fwscanf", linkageName: "__isoc99_fwscanf", scope: !592, file: !592, line: 640, type: !622, flags: DIFlagPrototyped, spFlags: 0)
!626 = !DIImportedEntity(tag: DW_TAG_imported_declaration, scope: !142, entity: !627, file: !586, line: 151)
!627 = !DISubprogram(name: "getwc", scope: !592, file: !592, line: 727, type: !597, flags: DIFlagPrototyped, spFlags: 0)
!628 = !DIImportedEntity(tag: DW_TAG_imported_declaration, scope: !142, entity: !629, file: !586, line: 152)
!629 = !DISubprogram(name: "getwchar", scope: !592, file: !592, line: 733, type: !630, flags: DIFlagPrototyped, spFlags: 0)
!630 = !DISubroutineType(types: !631)
!631 = !{!588}
!632 = !DIImportedEntity(tag: DW_TAG_imported_declaration, scope: !142, entity: !633, file: !586, line: 153)
!633 = !DISubprogram(name: "mbrlen", scope: !592, file: !592, line: 307, type: !634, flags: DIFlagPrototyped, spFlags: 0)
!634 = !DISubroutineType(types: !635)
!635 = !{!20, !423, !20, !636}
!636 = !DIDerivedType(tag: DW_TAG_restrict_type, baseType: !637)
!637 = !DIDerivedType(tag: DW_TAG_pointer_type, baseType: !571, size: 64)
!638 = !DIImportedEntity(tag: DW_TAG_imported_declaration, scope: !142, entity: !639, file: !586, line: 154)
!639 = !DISubprogram(name: "mbrtowc", scope: !592, file: !592, line: 296, type: !640, flags: DIFlagPrototyped, spFlags: 0)
!640 = !DISubroutineType(types: !641)
!641 = !{!20, !420, !423, !20, !636}
!642 = !DIImportedEntity(tag: DW_TAG_imported_declaration, scope: !142, entity: !643, file: !586, line: 155)
!643 = !DISubprogram(name: "mbsinit", scope: !592, file: !592, line: 292, type: !644, flags: DIFlagPrototyped, spFlags: 0)
!644 = !DISubroutineType(types: !645)
!645 = !{!6, !646}
!646 = !DIDerivedType(tag: DW_TAG_pointer_type, baseType: !647, size: 64)
!647 = !DIDerivedType(tag: DW_TAG_const_type, baseType: !571)
!648 = !DIImportedEntity(tag: DW_TAG_imported_declaration, scope: !142, entity: !649, file: !586, line: 156)
!649 = !DISubprogram(name: "mbsrtowcs", scope: !592, file: !592, line: 337, type: !650, flags: DIFlagPrototyped, spFlags: 0)
!650 = !DISubroutineType(types: !651)
!651 = !{!20, !420, !652, !20, !636}
!652 = !DIDerivedType(tag: DW_TAG_restrict_type, baseType: !653)
!653 = !DIDerivedType(tag: DW_TAG_pointer_type, baseType: !360, size: 64)
!654 = !DIImportedEntity(tag: DW_TAG_imported_declaration, scope: !142, entity: !655, file: !586, line: 157)
!655 = !DISubprogram(name: "putwc", scope: !592, file: !592, line: 741, type: !610, flags: DIFlagPrototyped, spFlags: 0)
!656 = !DIImportedEntity(tag: DW_TAG_imported_declaration, scope: !142, entity: !657, file: !586, line: 158)
!657 = !DISubprogram(name: "putwchar", scope: !592, file: !592, line: 747, type: !658, flags: DIFlagPrototyped, spFlags: 0)
!658 = !DISubroutineType(types: !659)
!659 = !{!588, !422}
!660 = !DIImportedEntity(tag: DW_TAG_imported_declaration, scope: !142, entity: !661, file: !586, line: 160)
!661 = !DISubprogram(name: "swprintf", scope: !592, file: !592, line: 590, type: !662, flags: DIFlagPrototyped, spFlags: 0)
!662 = !DISubroutineType(types: !663)
!663 = !{!6, !420, !20, !467, null}
!664 = !DIImportedEntity(tag: DW_TAG_imported_declaration, scope: !142, entity: !665, file: !586, line: 162)
!665 = !DISubprogram(name: "swscanf", linkageName: "__isoc99_swscanf", scope: !592, file: !592, line: 647, type: !666, flags: DIFlagPrototyped, spFlags: 0)
!666 = !DISubroutineType(types: !667)
!667 = !{!6, !467, !467, null}
!668 = !DIImportedEntity(tag: DW_TAG_imported_declaration, scope: !142, entity: !669, file: !586, line: 163)
!669 = !DISubprogram(name: "ungetwc", scope: !592, file: !592, line: 770, type: !670, flags: DIFlagPrototyped, spFlags: 0)
!670 = !DISubroutineType(types: !671)
!671 = !{!588, !588, !599}
!672 = !DIImportedEntity(tag: DW_TAG_imported_declaration, scope: !142, entity: !673, file: !586, line: 164)
!673 = !DISubprogram(name: "vfwprintf", scope: !592, file: !592, line: 598, type: !674, flags: DIFlagPrototyped, spFlags: 0)
!674 = !DISubroutineType(types: !675)
!675 = !{!6, !607, !467, !676}
!676 = !DIDerivedType(tag: DW_TAG_pointer_type, baseType: !677, size: 64)
!677 = distinct !DICompositeType(tag: DW_TAG_structure_type, name: "__va_list_tag", file: !3, size: 192, flags: DIFlagTypePassByValue, elements: !678, identifier: "_ZTS13__va_list_tag")
!678 = !{!679, !680, !681, !682}
!679 = !DIDerivedType(tag: DW_TAG_member, name: "gp_offset", scope: !677, file: !3, baseType: !252, size: 32)
!680 = !DIDerivedType(tag: DW_TAG_member, name: "fp_offset", scope: !677, file: !3, baseType: !252, size: 32, offset: 32)
!681 = !DIDerivedType(tag: DW_TAG_member, name: "overflow_arg_area", scope: !677, file: !3, baseType: !275, size: 64, offset: 64)
!682 = !DIDerivedType(tag: DW_TAG_member, name: "reg_save_area", scope: !677, file: !3, baseType: !275, size: 64, offset: 128)
!683 = !DIImportedEntity(tag: DW_TAG_imported_declaration, scope: !142, entity: !684, file: !586, line: 166)
!684 = !DISubprogram(name: "vfwscanf", linkageName: "__isoc99_vfwscanf", scope: !592, file: !592, line: 693, type: !674, flags: DIFlagPrototyped, spFlags: 0)
!685 = !DIImportedEntity(tag: DW_TAG_imported_declaration, scope: !142, entity: !686, file: !586, line: 169)
!686 = !DISubprogram(name: "vswprintf", scope: !592, file: !592, line: 611, type: !687, flags: DIFlagPrototyped, spFlags: 0)
!687 = !DISubroutineType(types: !688)
!688 = !{!6, !420, !20, !467, !676}
!689 = !DIImportedEntity(tag: DW_TAG_imported_declaration, scope: !142, entity: !690, file: !586, line: 172)
!690 = !DISubprogram(name: "vswscanf", linkageName: "__isoc99_vswscanf", scope: !592, file: !592, line: 700, type: !691, flags: DIFlagPrototyped, spFlags: 0)
!691 = !DISubroutineType(types: !692)
!692 = !{!6, !467, !467, !676}
!693 = !DIImportedEntity(tag: DW_TAG_imported_declaration, scope: !142, entity: !694, file: !586, line: 174)
!694 = !DISubprogram(name: "vwprintf", scope: !592, file: !592, line: 606, type: !695, flags: DIFlagPrototyped, spFlags: 0)
!695 = !DISubroutineType(types: !696)
!696 = !{!6, !467, !676}
!697 = !DIImportedEntity(tag: DW_TAG_imported_declaration, scope: !142, entity: !698, file: !586, line: 176)
!698 = !DISubprogram(name: "vwscanf", linkageName: "__isoc99_vwscanf", scope: !592, file: !592, line: 697, type: !695, flags: DIFlagPrototyped, spFlags: 0)
!699 = !DIImportedEntity(tag: DW_TAG_imported_declaration, scope: !142, entity: !700, file: !586, line: 178)
!700 = !DISubprogram(name: "wcrtomb", scope: !592, file: !592, line: 301, type: !701, flags: DIFlagPrototyped, spFlags: 0)
!701 = !DISubroutineType(types: !702)
!702 = !{!20, !466, !422, !636}
!703 = !DIImportedEntity(tag: DW_TAG_imported_declaration, scope: !142, entity: !704, file: !586, line: 179)
!704 = !DISubprogram(name: "wcscat", scope: !592, file: !592, line: 97, type: !705, flags: DIFlagPrototyped, spFlags: 0)
!705 = !DISubroutineType(types: !706)
!706 = !{!421, !420, !467}
!707 = !DIImportedEntity(tag: DW_TAG_imported_declaration, scope: !142, entity: !708, file: !586, line: 180)
!708 = !DISubprogram(name: "wcscmp", scope: !592, file: !592, line: 106, type: !709, flags: DIFlagPrototyped, spFlags: 0)
!709 = !DISubroutineType(types: !710)
!710 = !{!6, !468, !468}
!711 = !DIImportedEntity(tag: DW_TAG_imported_declaration, scope: !142, entity: !712, file: !586, line: 181)
!712 = !DISubprogram(name: "wcscoll", scope: !592, file: !592, line: 131, type: !709, flags: DIFlagPrototyped, spFlags: 0)
!713 = !DIImportedEntity(tag: DW_TAG_imported_declaration, scope: !142, entity: !714, file: !586, line: 182)
!714 = !DISubprogram(name: "wcscpy", scope: !592, file: !592, line: 87, type: !705, flags: DIFlagPrototyped, spFlags: 0)
!715 = !DIImportedEntity(tag: DW_TAG_imported_declaration, scope: !142, entity: !716, file: !586, line: 183)
!716 = !DISubprogram(name: "wcscspn", scope: !592, file: !592, line: 187, type: !717, flags: DIFlagPrototyped, spFlags: 0)
!717 = !DISubroutineType(types: !718)
!718 = !{!20, !468, !468}
!719 = !DIImportedEntity(tag: DW_TAG_imported_declaration, scope: !142, entity: !720, file: !586, line: 184)
!720 = !DISubprogram(name: "wcsftime", scope: !592, file: !592, line: 834, type: !721, flags: DIFlagPrototyped, spFlags: 0)
!721 = !DISubroutineType(types: !722)
!722 = !{!20, !420, !20, !467, !723}
!723 = !DIDerivedType(tag: DW_TAG_restrict_type, baseType: !724)
!724 = !DIDerivedType(tag: DW_TAG_pointer_type, baseType: !725, size: 64)
!725 = !DIDerivedType(tag: DW_TAG_const_type, baseType: !726)
!726 = !DICompositeType(tag: DW_TAG_structure_type, name: "tm", file: !592, line: 83, flags: DIFlagFwdDecl, identifier: "_ZTS2tm")
!727 = !DIImportedEntity(tag: DW_TAG_imported_declaration, scope: !142, entity: !728, file: !586, line: 185)
!728 = !DISubprogram(name: "wcslen", scope: !592, file: !592, line: 222, type: !729, flags: DIFlagPrototyped, spFlags: 0)
!729 = !DISubroutineType(types: !730)
!730 = !{!20, !468}
!731 = !DIImportedEntity(tag: DW_TAG_imported_declaration, scope: !142, entity: !732, file: !586, line: 186)
!732 = !DISubprogram(name: "wcsncat", scope: !592, file: !592, line: 101, type: !733, flags: DIFlagPrototyped, spFlags: 0)
!733 = !DISubroutineType(types: !734)
!734 = !{!421, !420, !467, !20}
!735 = !DIImportedEntity(tag: DW_TAG_imported_declaration, scope: !142, entity: !736, file: !586, line: 187)
!736 = !DISubprogram(name: "wcsncmp", scope: !592, file: !592, line: 109, type: !737, flags: DIFlagPrototyped, spFlags: 0)
!737 = !DISubroutineType(types: !738)
!738 = !{!6, !468, !468, !20}
!739 = !DIImportedEntity(tag: DW_TAG_imported_declaration, scope: !142, entity: !740, file: !586, line: 188)
!740 = !DISubprogram(name: "wcsncpy", scope: !592, file: !592, line: 92, type: !733, flags: DIFlagPrototyped, spFlags: 0)
!741 = !DIImportedEntity(tag: DW_TAG_imported_declaration, scope: !142, entity: !742, file: !586, line: 189)
!742 = !DISubprogram(name: "wcsrtombs", scope: !592, file: !592, line: 343, type: !743, flags: DIFlagPrototyped, spFlags: 0)
!743 = !DISubroutineType(types: !744)
!744 = !{!20, !466, !745, !20, !636}
!745 = !DIDerivedType(tag: DW_TAG_restrict_type, baseType: !746)
!746 = !DIDerivedType(tag: DW_TAG_pointer_type, baseType: !468, size: 64)
!747 = !DIImportedEntity(tag: DW_TAG_imported_declaration, scope: !142, entity: !748, file: !586, line: 190)
!748 = !DISubprogram(name: "wcsspn", scope: !592, file: !592, line: 191, type: !717, flags: DIFlagPrototyped, spFlags: 0)
!749 = !DIImportedEntity(tag: DW_TAG_imported_declaration, scope: !142, entity: !750, file: !586, line: 191)
!750 = !DISubprogram(name: "wcstod", scope: !592, file: !592, line: 377, type: !751, flags: DIFlagPrototyped, spFlags: 0)
!751 = !DISubroutineType(types: !752)
!752 = !{!359, !467, !753}
!753 = !DIDerivedType(tag: DW_TAG_restrict_type, baseType: !754)
!754 = !DIDerivedType(tag: DW_TAG_pointer_type, baseType: !421, size: 64)
!755 = !DIImportedEntity(tag: DW_TAG_imported_declaration, scope: !142, entity: !756, file: !586, line: 193)
!756 = !DISubprogram(name: "wcstof", scope: !592, file: !592, line: 382, type: !757, flags: DIFlagPrototyped, spFlags: 0)
!757 = !DISubroutineType(types: !758)
!758 = !{!509, !467, !753}
!759 = !DIImportedEntity(tag: DW_TAG_imported_declaration, scope: !142, entity: !760, file: !586, line: 195)
!760 = !DISubprogram(name: "wcstok", scope: !592, file: !592, line: 217, type: !761, flags: DIFlagPrototyped, spFlags: 0)
!761 = !DISubroutineType(types: !762)
!762 = !{!421, !420, !467, !753}
!763 = !DIImportedEntity(tag: DW_TAG_imported_declaration, scope: !142, entity: !764, file: !586, line: 196)
!764 = !DISubprogram(name: "wcstol", scope: !592, file: !592, line: 428, type: !765, flags: DIFlagPrototyped, spFlags: 0)
!765 = !DISubroutineType(types: !766)
!766 = !{!344, !467, !753, !6}
!767 = !DIImportedEntity(tag: DW_TAG_imported_declaration, scope: !142, entity: !768, file: !586, line: 197)
!768 = !DISubprogram(name: "wcstoul", scope: !592, file: !592, line: 433, type: !769, flags: DIFlagPrototyped, spFlags: 0)
!769 = !DISubroutineType(types: !770)
!770 = !{!22, !467, !753, !6}
!771 = !DIImportedEntity(tag: DW_TAG_imported_declaration, scope: !142, entity: !772, file: !586, line: 198)
!772 = !DISubprogram(name: "wcsxfrm", scope: !592, file: !592, line: 135, type: !773, flags: DIFlagPrototyped, spFlags: 0)
!773 = !DISubroutineType(types: !774)
!774 = !{!20, !420, !467, !20}
!775 = !DIImportedEntity(tag: DW_TAG_imported_declaration, scope: !142, entity: !776, file: !586, line: 199)
!776 = !DISubprogram(name: "wctob", scope: !592, file: !592, line: 288, type: !777, flags: DIFlagPrototyped, spFlags: 0)
!777 = !DISubroutineType(types: !778)
!778 = !{!6, !588}
!779 = !DIImportedEntity(tag: DW_TAG_imported_declaration, scope: !142, entity: !780, file: !586, line: 200)
!780 = !DISubprogram(name: "wmemcmp", scope: !592, file: !592, line: 258, type: !737, flags: DIFlagPrototyped, spFlags: 0)
!781 = !DIImportedEntity(tag: DW_TAG_imported_declaration, scope: !142, entity: !782, file: !586, line: 201)
!782 = !DISubprogram(name: "wmemcpy", scope: !592, file: !592, line: 262, type: !733, flags: DIFlagPrototyped, spFlags: 0)
!783 = !DIImportedEntity(tag: DW_TAG_imported_declaration, scope: !142, entity: !784, file: !586, line: 202)
!784 = !DISubprogram(name: "wmemmove", scope: !592, file: !592, line: 267, type: !785, flags: DIFlagPrototyped, spFlags: 0)
!785 = !DISubroutineType(types: !786)
!786 = !{!421, !421, !468, !20}
!787 = !DIImportedEntity(tag: DW_TAG_imported_declaration, scope: !142, entity: !788, file: !586, line: 203)
!788 = !DISubprogram(name: "wmemset", scope: !592, file: !592, line: 271, type: !789, flags: DIFlagPrototyped, spFlags: 0)
!789 = !DISubroutineType(types: !790)
!790 = !{!421, !421, !422, !20}
!791 = !DIImportedEntity(tag: DW_TAG_imported_declaration, scope: !142, entity: !792, file: !586, line: 204)
!792 = !DISubprogram(name: "wprintf", scope: !592, file: !592, line: 587, type: !793, flags: DIFlagPrototyped, spFlags: 0)
!793 = !DISubroutineType(types: !794)
!794 = !{!6, !467, null}
!795 = !DIImportedEntity(tag: DW_TAG_imported_declaration, scope: !142, entity: !796, file: !586, line: 205)
!796 = !DISubprogram(name: "wscanf", linkageName: "__isoc99_wscanf", scope: !592, file: !592, line: 644, type: !793, flags: DIFlagPrototyped, spFlags: 0)
!797 = !DIImportedEntity(tag: DW_TAG_imported_declaration, scope: !142, entity: !798, file: !586, line: 206)
!798 = !DISubprogram(name: "wcschr", scope: !592, file: !592, line: 164, type: !799, flags: DIFlagPrototyped, spFlags: 0)
!799 = !DISubroutineType(types: !800)
!800 = !{!421, !468, !422}
!801 = !DIImportedEntity(tag: DW_TAG_imported_declaration, scope: !142, entity: !802, file: !586, line: 207)
!802 = !DISubprogram(name: "wcspbrk", scope: !592, file: !592, line: 201, type: !803, flags: DIFlagPrototyped, spFlags: 0)
!803 = !DISubroutineType(types: !804)
!804 = !{!421, !468, !468}
!805 = !DIImportedEntity(tag: DW_TAG_imported_declaration, scope: !142, entity: !806, file: !586, line: 208)
!806 = !DISubprogram(name: "wcsrchr", scope: !592, file: !592, line: 174, type: !799, flags: DIFlagPrototyped, spFlags: 0)
!807 = !DIImportedEntity(tag: DW_TAG_imported_declaration, scope: !142, entity: !808, file: !586, line: 209)
!808 = !DISubprogram(name: "wcsstr", scope: !592, file: !592, line: 212, type: !803, flags: DIFlagPrototyped, spFlags: 0)
!809 = !DIImportedEntity(tag: DW_TAG_imported_declaration, scope: !142, entity: !810, file: !586, line: 210)
!810 = !DISubprogram(name: "wmemchr", scope: !592, file: !592, line: 253, type: !811, flags: DIFlagPrototyped, spFlags: 0)
!811 = !DISubroutineType(types: !812)
!812 = !{!421, !468, !422, !20}
!813 = !DIImportedEntity(tag: DW_TAG_imported_declaration, scope: !475, entity: !814, file: !586, line: 251)
!814 = !DISubprogram(name: "wcstold", scope: !592, file: !592, line: 384, type: !815, flags: DIFlagPrototyped, spFlags: 0)
!815 = !DISubroutineType(types: !816)
!816 = !{!514, !467, !753}
!817 = !DIImportedEntity(tag: DW_TAG_imported_declaration, scope: !475, entity: !818, file: !586, line: 260)
!818 = !DISubprogram(name: "wcstoll", scope: !592, file: !592, line: 441, type: !819, flags: DIFlagPrototyped, spFlags: 0)
!819 = !DISubroutineType(types: !820)
!820 = !{!480, !467, !753, !6}
!821 = !DIImportedEntity(tag: DW_TAG_imported_declaration, scope: !475, entity: !822, file: !586, line: 261)
!822 = !DISubprogram(name: "wcstoull", scope: !592, file: !592, line: 448, type: !823, flags: DIFlagPrototyped, spFlags: 0)
!823 = !DISubroutineType(types: !824)
!824 = !{!504, !467, !753, !6}
!825 = !DIImportedEntity(tag: DW_TAG_imported_declaration, scope: !142, entity: !814, file: !586, line: 267)
!826 = !DIImportedEntity(tag: DW_TAG_imported_declaration, scope: !142, entity: !818, file: !586, line: 268)
!827 = !DIImportedEntity(tag: DW_TAG_imported_declaration, scope: !142, entity: !822, file: !586, line: 269)
!828 = !DIImportedEntity(tag: DW_TAG_imported_declaration, scope: !142, entity: !756, file: !586, line: 283)
!829 = !DIImportedEntity(tag: DW_TAG_imported_declaration, scope: !142, entity: !684, file: !586, line: 286)
!830 = !DIImportedEntity(tag: DW_TAG_imported_declaration, scope: !142, entity: !690, file: !586, line: 289)
!831 = !DIImportedEntity(tag: DW_TAG_imported_declaration, scope: !142, entity: !698, file: !586, line: 292)
!832 = !DIImportedEntity(tag: DW_TAG_imported_declaration, scope: !142, entity: !814, file: !586, line: 296)
!833 = !DIImportedEntity(tag: DW_TAG_imported_declaration, scope: !142, entity: !818, file: !586, line: 297)
!834 = !DIImportedEntity(tag: DW_TAG_imported_declaration, scope: !142, entity: !822, file: !586, line: 298)
!835 = !DIImportedEntity(tag: DW_TAG_imported_declaration, scope: !142, entity: !836, file: !838, line: 53)
!836 = !DICompositeType(tag: DW_TAG_structure_type, name: "lconv", file: !837, line: 51, flags: DIFlagFwdDecl, identifier: "_ZTS5lconv")
!837 = !DIFile(filename: "/usr/include/locale.h", directory: "")
!838 = !DIFile(filename: "/usr/lib/gcc/x86_64-linux-gnu/10/../../../../include/c++/10/clocale", directory: "")
!839 = !DIImportedEntity(tag: DW_TAG_imported_declaration, scope: !142, entity: !840, file: !838, line: 54)
!840 = !DISubprogram(name: "setlocale", scope: !837, file: !837, line: 122, type: !841, flags: DIFlagPrototyped, spFlags: 0)
!841 = !DISubroutineType(types: !842)
!842 = !{!256, !6, !360}
!843 = !DIImportedEntity(tag: DW_TAG_imported_declaration, scope: !142, entity: !844, file: !838, line: 55)
!844 = !DISubprogram(name: "localeconv", scope: !837, file: !837, line: 125, type: !845, flags: DIFlagPrototyped, spFlags: 0)
!845 = !DISubroutineType(types: !846)
!846 = !{!847}
!847 = !DIDerivedType(tag: DW_TAG_pointer_type, baseType: !836, size: 64)
!848 = !DIImportedEntity(tag: DW_TAG_imported_declaration, scope: !142, entity: !849, file: !851, line: 64)
!849 = !DISubprogram(name: "isalnum", scope: !850, file: !850, line: 108, type: !332, flags: DIFlagPrototyped, spFlags: 0)
!850 = !DIFile(filename: "/usr/include/ctype.h", directory: "")
!851 = !DIFile(filename: "/usr/lib/gcc/x86_64-linux-gnu/10/../../../../include/c++/10/cctype", directory: "")
!852 = !DIImportedEntity(tag: DW_TAG_imported_declaration, scope: !142, entity: !853, file: !851, line: 65)
!853 = !DISubprogram(name: "isalpha", scope: !850, file: !850, line: 109, type: !332, flags: DIFlagPrototyped, spFlags: 0)
!854 = !DIImportedEntity(tag: DW_TAG_imported_declaration, scope: !142, entity: !855, file: !851, line: 66)
!855 = !DISubprogram(name: "iscntrl", scope: !850, file: !850, line: 110, type: !332, flags: DIFlagPrototyped, spFlags: 0)
!856 = !DIImportedEntity(tag: DW_TAG_imported_declaration, scope: !142, entity: !857, file: !851, line: 67)
!857 = !DISubprogram(name: "isdigit", scope: !850, file: !850, line: 111, type: !332, flags: DIFlagPrototyped, spFlags: 0)
!858 = !DIImportedEntity(tag: DW_TAG_imported_declaration, scope: !142, entity: !859, file: !851, line: 68)
!859 = !DISubprogram(name: "isgraph", scope: !850, file: !850, line: 113, type: !332, flags: DIFlagPrototyped, spFlags: 0)
!860 = !DIImportedEntity(tag: DW_TAG_imported_declaration, scope: !142, entity: !861, file: !851, line: 69)
!861 = !DISubprogram(name: "islower", scope: !850, file: !850, line: 112, type: !332, flags: DIFlagPrototyped, spFlags: 0)
!862 = !DIImportedEntity(tag: DW_TAG_imported_declaration, scope: !142, entity: !863, file: !851, line: 70)
!863 = !DISubprogram(name: "isprint", scope: !850, file: !850, line: 114, type: !332, flags: DIFlagPrototyped, spFlags: 0)
!864 = !DIImportedEntity(tag: DW_TAG_imported_declaration, scope: !142, entity: !865, file: !851, line: 71)
!865 = !DISubprogram(name: "ispunct", scope: !850, file: !850, line: 115, type: !332, flags: DIFlagPrototyped, spFlags: 0)
!866 = !DIImportedEntity(tag: DW_TAG_imported_declaration, scope: !142, entity: !867, file: !851, line: 72)
!867 = !DISubprogram(name: "isspace", scope: !850, file: !850, line: 116, type: !332, flags: DIFlagPrototyped, spFlags: 0)
!868 = !DIImportedEntity(tag: DW_TAG_imported_declaration, scope: !142, entity: !869, file: !851, line: 73)
!869 = !DISubprogram(name: "isupper", scope: !850, file: !850, line: 117, type: !332, flags: DIFlagPrototyped, spFlags: 0)
!870 = !DIImportedEntity(tag: DW_TAG_imported_declaration, scope: !142, entity: !871, file: !851, line: 74)
!871 = !DISubprogram(name: "isxdigit", scope: !850, file: !850, line: 118, type: !332, flags: DIFlagPrototyped, spFlags: 0)
!872 = !DIImportedEntity(tag: DW_TAG_imported_declaration, scope: !142, entity: !873, file: !851, line: 75)
!873 = !DISubprogram(name: "tolower", scope: !850, file: !850, line: 122, type: !332, flags: DIFlagPrototyped, spFlags: 0)
!874 = !DIImportedEntity(tag: DW_TAG_imported_declaration, scope: !142, entity: !875, file: !851, line: 76)
!875 = !DISubprogram(name: "toupper", scope: !850, file: !850, line: 125, type: !332, flags: DIFlagPrototyped, spFlags: 0)
!876 = !DIImportedEntity(tag: DW_TAG_imported_declaration, scope: !142, entity: !877, file: !851, line: 87)
!877 = !DISubprogram(name: "isblank", scope: !850, file: !850, line: 130, type: !332, flags: DIFlagPrototyped, spFlags: 0)
!878 = !DIImportedEntity(tag: DW_TAG_imported_declaration, scope: !142, entity: !879, file: !884, line: 47)
!879 = !DIDerivedType(tag: DW_TAG_typedef, name: "int8_t", file: !880, line: 24, baseType: !881)
!880 = !DIFile(filename: "/usr/include/x86_64-linux-gnu/bits/stdint-intn.h", directory: "")
!881 = !DIDerivedType(tag: DW_TAG_typedef, name: "__int8_t", file: !882, line: 37, baseType: !883)
!882 = !DIFile(filename: "/usr/include/x86_64-linux-gnu/bits/types.h", directory: "")
!883 = !DIBasicType(name: "signed char", size: 8, encoding: DW_ATE_signed_char)
!884 = !DIFile(filename: "/usr/lib/gcc/x86_64-linux-gnu/10/../../../../include/c++/10/cstdint", directory: "")
!885 = !DIImportedEntity(tag: DW_TAG_imported_declaration, scope: !142, entity: !886, file: !884, line: 48)
!886 = !DIDerivedType(tag: DW_TAG_typedef, name: "int16_t", file: !880, line: 25, baseType: !887)
!887 = !DIDerivedType(tag: DW_TAG_typedef, name: "__int16_t", file: !882, line: 39, baseType: !888)
!888 = !DIBasicType(name: "short", size: 16, encoding: DW_ATE_signed)
!889 = !DIImportedEntity(tag: DW_TAG_imported_declaration, scope: !142, entity: !890, file: !884, line: 49)
!890 = !DIDerivedType(tag: DW_TAG_typedef, name: "int32_t", file: !880, line: 26, baseType: !891)
!891 = !DIDerivedType(tag: DW_TAG_typedef, name: "__int32_t", file: !882, line: 41, baseType: !6)
!892 = !DIImportedEntity(tag: DW_TAG_imported_declaration, scope: !142, entity: !893, file: !884, line: 50)
!893 = !DIDerivedType(tag: DW_TAG_typedef, name: "int64_t", file: !880, line: 27, baseType: !894)
!894 = !DIDerivedType(tag: DW_TAG_typedef, name: "__int64_t", file: !882, line: 44, baseType: !344)
!895 = !DIImportedEntity(tag: DW_TAG_imported_declaration, scope: !142, entity: !896, file: !884, line: 52)
!896 = !DIDerivedType(tag: DW_TAG_typedef, name: "int_fast8_t", file: !897, line: 58, baseType: !883)
!897 = !DIFile(filename: "/usr/include/stdint.h", directory: "")
!898 = !DIImportedEntity(tag: DW_TAG_imported_declaration, scope: !142, entity: !899, file: !884, line: 53)
!899 = !DIDerivedType(tag: DW_TAG_typedef, name: "int_fast16_t", file: !897, line: 60, baseType: !344)
!900 = !DIImportedEntity(tag: DW_TAG_imported_declaration, scope: !142, entity: !901, file: !884, line: 54)
!901 = !DIDerivedType(tag: DW_TAG_typedef, name: "int_fast32_t", file: !897, line: 61, baseType: !344)
!902 = !DIImportedEntity(tag: DW_TAG_imported_declaration, scope: !142, entity: !903, file: !884, line: 55)
!903 = !DIDerivedType(tag: DW_TAG_typedef, name: "int_fast64_t", file: !897, line: 62, baseType: !344)
!904 = !DIImportedEntity(tag: DW_TAG_imported_declaration, scope: !142, entity: !905, file: !884, line: 57)
!905 = !DIDerivedType(tag: DW_TAG_typedef, name: "int_least8_t", file: !897, line: 43, baseType: !906)
!906 = !DIDerivedType(tag: DW_TAG_typedef, name: "__int_least8_t", file: !882, line: 52, baseType: !881)
!907 = !DIImportedEntity(tag: DW_TAG_imported_declaration, scope: !142, entity: !908, file: !884, line: 58)
!908 = !DIDerivedType(tag: DW_TAG_typedef, name: "int_least16_t", file: !897, line: 44, baseType: !909)
!909 = !DIDerivedType(tag: DW_TAG_typedef, name: "__int_least16_t", file: !882, line: 54, baseType: !887)
!910 = !DIImportedEntity(tag: DW_TAG_imported_declaration, scope: !142, entity: !911, file: !884, line: 59)
!911 = !DIDerivedType(tag: DW_TAG_typedef, name: "int_least32_t", file: !897, line: 45, baseType: !912)
!912 = !DIDerivedType(tag: DW_TAG_typedef, name: "__int_least32_t", file: !882, line: 56, baseType: !891)
!913 = !DIImportedEntity(tag: DW_TAG_imported_declaration, scope: !142, entity: !914, file: !884, line: 60)
!914 = !DIDerivedType(tag: DW_TAG_typedef, name: "int_least64_t", file: !897, line: 46, baseType: !915)
!915 = !DIDerivedType(tag: DW_TAG_typedef, name: "__int_least64_t", file: !882, line: 58, baseType: !894)
!916 = !DIImportedEntity(tag: DW_TAG_imported_declaration, scope: !142, entity: !917, file: !884, line: 62)
!917 = !DIDerivedType(tag: DW_TAG_typedef, name: "intmax_t", file: !897, line: 101, baseType: !918)
!918 = !DIDerivedType(tag: DW_TAG_typedef, name: "__intmax_t", file: !882, line: 72, baseType: !344)
!919 = !DIImportedEntity(tag: DW_TAG_imported_declaration, scope: !142, entity: !920, file: !884, line: 63)
!920 = !DIDerivedType(tag: DW_TAG_typedef, name: "intptr_t", file: !897, line: 87, baseType: !344)
!921 = !DIImportedEntity(tag: DW_TAG_imported_declaration, scope: !142, entity: !922, file: !884, line: 65)
!922 = !DIDerivedType(tag: DW_TAG_typedef, name: "uint8_t", file: !923, line: 24, baseType: !924)
!923 = !DIFile(filename: "/usr/include/x86_64-linux-gnu/bits/stdint-uintn.h", directory: "")
!924 = !DIDerivedType(tag: DW_TAG_typedef, name: "__uint8_t", file: !882, line: 38, baseType: !257)
!925 = !DIImportedEntity(tag: DW_TAG_imported_declaration, scope: !142, entity: !926, file: !884, line: 66)
!926 = !DIDerivedType(tag: DW_TAG_typedef, name: "uint16_t", file: !923, line: 25, baseType: !927)
!927 = !DIDerivedType(tag: DW_TAG_typedef, name: "__uint16_t", file: !882, line: 40, baseType: !928)
!928 = !DIBasicType(name: "unsigned short", size: 16, encoding: DW_ATE_unsigned)
!929 = !DIImportedEntity(tag: DW_TAG_imported_declaration, scope: !142, entity: !930, file: !884, line: 67)
!930 = !DIDerivedType(tag: DW_TAG_typedef, name: "uint32_t", file: !923, line: 26, baseType: !931)
!931 = !DIDerivedType(tag: DW_TAG_typedef, name: "__uint32_t", file: !882, line: 42, baseType: !252)
!932 = !DIImportedEntity(tag: DW_TAG_imported_declaration, scope: !142, entity: !933, file: !884, line: 68)
!933 = !DIDerivedType(tag: DW_TAG_typedef, name: "uint64_t", file: !923, line: 27, baseType: !934)
!934 = !DIDerivedType(tag: DW_TAG_typedef, name: "__uint64_t", file: !882, line: 45, baseType: !22)
!935 = !DIImportedEntity(tag: DW_TAG_imported_declaration, scope: !142, entity: !936, file: !884, line: 70)
!936 = !DIDerivedType(tag: DW_TAG_typedef, name: "uint_fast8_t", file: !897, line: 71, baseType: !257)
!937 = !DIImportedEntity(tag: DW_TAG_imported_declaration, scope: !142, entity: !938, file: !884, line: 71)
!938 = !DIDerivedType(tag: DW_TAG_typedef, name: "uint_fast16_t", file: !897, line: 73, baseType: !22)
!939 = !DIImportedEntity(tag: DW_TAG_imported_declaration, scope: !142, entity: !940, file: !884, line: 72)
!940 = !DIDerivedType(tag: DW_TAG_typedef, name: "uint_fast32_t", file: !897, line: 74, baseType: !22)
!941 = !DIImportedEntity(tag: DW_TAG_imported_declaration, scope: !142, entity: !942, file: !884, line: 73)
!942 = !DIDerivedType(tag: DW_TAG_typedef, name: "uint_fast64_t", file: !897, line: 75, baseType: !22)
!943 = !DIImportedEntity(tag: DW_TAG_imported_declaration, scope: !142, entity: !944, file: !884, line: 75)
!944 = !DIDerivedType(tag: DW_TAG_typedef, name: "uint_least8_t", file: !897, line: 49, baseType: !945)
!945 = !DIDerivedType(tag: DW_TAG_typedef, name: "__uint_least8_t", file: !882, line: 53, baseType: !924)
!946 = !DIImportedEntity(tag: DW_TAG_imported_declaration, scope: !142, entity: !947, file: !884, line: 76)
!947 = !DIDerivedType(tag: DW_TAG_typedef, name: "uint_least16_t", file: !897, line: 50, baseType: !948)
!948 = !DIDerivedType(tag: DW_TAG_typedef, name: "__uint_least16_t", file: !882, line: 55, baseType: !927)
!949 = !DIImportedEntity(tag: DW_TAG_imported_declaration, scope: !142, entity: !950, file: !884, line: 77)
!950 = !DIDerivedType(tag: DW_TAG_typedef, name: "uint_least32_t", file: !897, line: 51, baseType: !951)
!951 = !DIDerivedType(tag: DW_TAG_typedef, name: "__uint_least32_t", file: !882, line: 57, baseType: !931)
!952 = !DIImportedEntity(tag: DW_TAG_imported_declaration, scope: !142, entity: !953, file: !884, line: 78)
!953 = !DIDerivedType(tag: DW_TAG_typedef, name: "uint_least64_t", file: !897, line: 52, baseType: !954)
!954 = !DIDerivedType(tag: DW_TAG_typedef, name: "__uint_least64_t", file: !882, line: 59, baseType: !934)
!955 = !DIImportedEntity(tag: DW_TAG_imported_declaration, scope: !142, entity: !956, file: !884, line: 80)
!956 = !DIDerivedType(tag: DW_TAG_typedef, name: "uintmax_t", file: !897, line: 102, baseType: !957)
!957 = !DIDerivedType(tag: DW_TAG_typedef, name: "__uintmax_t", file: !882, line: 73, baseType: !22)
!958 = !DIImportedEntity(tag: DW_TAG_imported_declaration, scope: !142, entity: !959, file: !884, line: 81)
!959 = !DIDerivedType(tag: DW_TAG_typedef, name: "uintptr_t", file: !897, line: 90, baseType: !22)
!960 = !DIImportedEntity(tag: DW_TAG_imported_declaration, scope: !142, entity: !961, file: !963, line: 98)
!961 = !DIDerivedType(tag: DW_TAG_typedef, name: "FILE", file: !962, line: 7, baseType: !602)
!962 = !DIFile(filename: "/usr/include/x86_64-linux-gnu/bits/types/FILE.h", directory: "")
!963 = !DIFile(filename: "/usr/lib/gcc/x86_64-linux-gnu/10/../../../../include/c++/10/cstdio", directory: "")
!964 = !DIImportedEntity(tag: DW_TAG_imported_declaration, scope: !142, entity: !965, file: !963, line: 99)
!965 = !DIDerivedType(tag: DW_TAG_typedef, name: "fpos_t", file: !966, line: 84, baseType: !967)
!966 = !DIFile(filename: "/usr/include/stdio.h", directory: "")
!967 = !DIDerivedType(tag: DW_TAG_typedef, name: "__fpos_t", file: !968, line: 14, baseType: !969)
!968 = !DIFile(filename: "/usr/include/x86_64-linux-gnu/bits/types/__fpos_t.h", directory: "")
!969 = !DICompositeType(tag: DW_TAG_structure_type, name: "_G_fpos_t", file: !968, line: 10, flags: DIFlagFwdDecl, identifier: "_ZTS9_G_fpos_t")
!970 = !DIImportedEntity(tag: DW_TAG_imported_declaration, scope: !142, entity: !971, file: !963, line: 101)
!971 = !DISubprogram(name: "clearerr", scope: !966, file: !966, line: 757, type: !972, flags: DIFlagPrototyped, spFlags: 0)
!972 = !DISubroutineType(types: !973)
!973 = !{null, !974}
!974 = !DIDerivedType(tag: DW_TAG_pointer_type, baseType: !961, size: 64)
!975 = !DIImportedEntity(tag: DW_TAG_imported_declaration, scope: !142, entity: !976, file: !963, line: 102)
!976 = !DISubprogram(name: "fclose", scope: !966, file: !966, line: 213, type: !977, flags: DIFlagPrototyped, spFlags: 0)
!977 = !DISubroutineType(types: !978)
!978 = !{!6, !974}
!979 = !DIImportedEntity(tag: DW_TAG_imported_declaration, scope: !142, entity: !980, file: !963, line: 103)
!980 = !DISubprogram(name: "feof", scope: !966, file: !966, line: 759, type: !977, flags: DIFlagPrototyped, spFlags: 0)
!981 = !DIImportedEntity(tag: DW_TAG_imported_declaration, scope: !142, entity: !982, file: !963, line: 104)
!982 = !DISubprogram(name: "ferror", scope: !966, file: !966, line: 761, type: !977, flags: DIFlagPrototyped, spFlags: 0)
!983 = !DIImportedEntity(tag: DW_TAG_imported_declaration, scope: !142, entity: !984, file: !963, line: 105)
!984 = !DISubprogram(name: "fflush", scope: !966, file: !966, line: 218, type: !977, flags: DIFlagPrototyped, spFlags: 0)
!985 = !DIImportedEntity(tag: DW_TAG_imported_declaration, scope: !142, entity: !986, file: !963, line: 106)
!986 = !DISubprogram(name: "fgetc", scope: !966, file: !966, line: 485, type: !977, flags: DIFlagPrototyped, spFlags: 0)
!987 = !DIImportedEntity(tag: DW_TAG_imported_declaration, scope: !142, entity: !988, file: !963, line: 107)
!988 = !DISubprogram(name: "fgetpos", scope: !966, file: !966, line: 731, type: !989, flags: DIFlagPrototyped, spFlags: 0)
!989 = !DISubroutineType(types: !990)
!990 = !{!6, !991, !992}
!991 = !DIDerivedType(tag: DW_TAG_restrict_type, baseType: !974)
!992 = !DIDerivedType(tag: DW_TAG_restrict_type, baseType: !993)
!993 = !DIDerivedType(tag: DW_TAG_pointer_type, baseType: !965, size: 64)
!994 = !DIImportedEntity(tag: DW_TAG_imported_declaration, scope: !142, entity: !995, file: !963, line: 108)
!995 = !DISubprogram(name: "fgets", scope: !966, file: !966, line: 564, type: !996, flags: DIFlagPrototyped, spFlags: 0)
!996 = !DISubroutineType(types: !997)
!997 = !{!256, !466, !6, !991}
!998 = !DIImportedEntity(tag: DW_TAG_imported_declaration, scope: !142, entity: !999, file: !963, line: 109)
!999 = !DISubprogram(name: "fopen", scope: !966, file: !966, line: 246, type: !1000, flags: DIFlagPrototyped, spFlags: 0)
!1000 = !DISubroutineType(types: !1001)
!1001 = !{!974, !423, !423}
!1002 = !DIImportedEntity(tag: DW_TAG_imported_declaration, scope: !142, entity: !1003, file: !963, line: 110)
!1003 = !DISubprogram(name: "fprintf", scope: !966, file: !966, line: 326, type: !1004, flags: DIFlagPrototyped, spFlags: 0)
!1004 = !DISubroutineType(types: !1005)
!1005 = !{!6, !991, !423, null}
!1006 = !DIImportedEntity(tag: DW_TAG_imported_declaration, scope: !142, entity: !1007, file: !963, line: 111)
!1007 = !DISubprogram(name: "fputc", scope: !966, file: !966, line: 521, type: !1008, flags: DIFlagPrototyped, spFlags: 0)
!1008 = !DISubroutineType(types: !1009)
!1009 = !{!6, !6, !974}
!1010 = !DIImportedEntity(tag: DW_TAG_imported_declaration, scope: !142, entity: !1011, file: !963, line: 112)
!1011 = !DISubprogram(name: "fputs", scope: !966, file: !966, line: 626, type: !1012, flags: DIFlagPrototyped, spFlags: 0)
!1012 = !DISubroutineType(types: !1013)
!1013 = !{!6, !423, !991}
!1014 = !DIImportedEntity(tag: DW_TAG_imported_declaration, scope: !142, entity: !1015, file: !963, line: 113)
!1015 = !DISubprogram(name: "fread", scope: !966, file: !966, line: 646, type: !1016, flags: DIFlagPrototyped, spFlags: 0)
!1016 = !DISubroutineType(types: !1017)
!1017 = !{!20, !1018, !20, !20, !991}
!1018 = !DIDerivedType(tag: DW_TAG_restrict_type, baseType: !275)
!1019 = !DIImportedEntity(tag: DW_TAG_imported_declaration, scope: !142, entity: !1020, file: !963, line: 114)
!1020 = !DISubprogram(name: "freopen", scope: !966, file: !966, line: 252, type: !1021, flags: DIFlagPrototyped, spFlags: 0)
!1021 = !DISubroutineType(types: !1022)
!1022 = !{!974, !423, !423, !991}
!1023 = !DIImportedEntity(tag: DW_TAG_imported_declaration, scope: !142, entity: !1024, file: !963, line: 115)
!1024 = !DISubprogram(name: "fscanf", linkageName: "__isoc99_fscanf", scope: !966, file: !966, line: 407, type: !1004, flags: DIFlagPrototyped, spFlags: 0)
!1025 = !DIImportedEntity(tag: DW_TAG_imported_declaration, scope: !142, entity: !1026, file: !963, line: 116)
!1026 = !DISubprogram(name: "fseek", scope: !966, file: !966, line: 684, type: !1027, flags: DIFlagPrototyped, spFlags: 0)
!1027 = !DISubroutineType(types: !1028)
!1028 = !{!6, !974, !344, !6}
!1029 = !DIImportedEntity(tag: DW_TAG_imported_declaration, scope: !142, entity: !1030, file: !963, line: 117)
!1030 = !DISubprogram(name: "fsetpos", scope: !966, file: !966, line: 736, type: !1031, flags: DIFlagPrototyped, spFlags: 0)
!1031 = !DISubroutineType(types: !1032)
!1032 = !{!6, !974, !1033}
!1033 = !DIDerivedType(tag: DW_TAG_pointer_type, baseType: !1034, size: 64)
!1034 = !DIDerivedType(tag: DW_TAG_const_type, baseType: !965)
!1035 = !DIImportedEntity(tag: DW_TAG_imported_declaration, scope: !142, entity: !1036, file: !963, line: 118)
!1036 = !DISubprogram(name: "ftell", scope: !966, file: !966, line: 689, type: !1037, flags: DIFlagPrototyped, spFlags: 0)
!1037 = !DISubroutineType(types: !1038)
!1038 = !{!344, !974}
!1039 = !DIImportedEntity(tag: DW_TAG_imported_declaration, scope: !142, entity: !1040, file: !963, line: 119)
!1040 = !DISubprogram(name: "fwrite", scope: !966, file: !966, line: 652, type: !1041, flags: DIFlagPrototyped, spFlags: 0)
!1041 = !DISubroutineType(types: !1042)
!1042 = !{!20, !1043, !20, !20, !991}
!1043 = !DIDerivedType(tag: DW_TAG_restrict_type, baseType: !374)
!1044 = !DIImportedEntity(tag: DW_TAG_imported_declaration, scope: !142, entity: !1045, file: !963, line: 120)
!1045 = !DISubprogram(name: "getc", scope: !966, file: !966, line: 486, type: !977, flags: DIFlagPrototyped, spFlags: 0)
!1046 = !DIImportedEntity(tag: DW_TAG_imported_declaration, scope: !142, entity: !1047, file: !963, line: 121)
!1047 = !DISubprogram(name: "getchar", scope: !966, file: !966, line: 492, type: !436, flags: DIFlagPrototyped, spFlags: 0)
!1048 = !DIImportedEntity(tag: DW_TAG_imported_declaration, scope: !142, entity: !1049, file: !963, line: 126)
!1049 = !DISubprogram(name: "perror", scope: !966, file: !966, line: 775, type: !1050, flags: DIFlagPrototyped, spFlags: 0)
!1050 = !DISubroutineType(types: !1051)
!1051 = !{null, !360}
!1052 = !DIImportedEntity(tag: DW_TAG_imported_declaration, scope: !142, entity: !1053, file: !963, line: 127)
!1053 = !DISubprogram(name: "printf", scope: !966, file: !966, line: 332, type: !1054, flags: DIFlagPrototyped, spFlags: 0)
!1054 = !DISubroutineType(types: !1055)
!1055 = !{!6, !423, null}
!1056 = !DIImportedEntity(tag: DW_TAG_imported_declaration, scope: !142, entity: !1057, file: !963, line: 128)
!1057 = !DISubprogram(name: "putc", scope: !966, file: !966, line: 522, type: !1008, flags: DIFlagPrototyped, spFlags: 0)
!1058 = !DIImportedEntity(tag: DW_TAG_imported_declaration, scope: !142, entity: !1059, file: !963, line: 129)
!1059 = !DISubprogram(name: "putchar", scope: !966, file: !966, line: 528, type: !332, flags: DIFlagPrototyped, spFlags: 0)
!1060 = !DIImportedEntity(tag: DW_TAG_imported_declaration, scope: !142, entity: !1061, file: !963, line: 130)
!1061 = !DISubprogram(name: "puts", scope: !966, file: !966, line: 632, type: !364, flags: DIFlagPrototyped, spFlags: 0)
!1062 = !DIImportedEntity(tag: DW_TAG_imported_declaration, scope: !142, entity: !1063, file: !963, line: 131)
!1063 = !DISubprogram(name: "remove", scope: !966, file: !966, line: 146, type: !364, flags: DIFlagPrototyped, spFlags: 0)
!1064 = !DIImportedEntity(tag: DW_TAG_imported_declaration, scope: !142, entity: !1065, file: !963, line: 132)
!1065 = !DISubprogram(name: "rename", scope: !966, file: !966, line: 148, type: !1066, flags: DIFlagPrototyped, spFlags: 0)
!1066 = !DISubroutineType(types: !1067)
!1067 = !{!6, !360, !360}
!1068 = !DIImportedEntity(tag: DW_TAG_imported_declaration, scope: !142, entity: !1069, file: !963, line: 133)
!1069 = !DISubprogram(name: "rewind", scope: !966, file: !966, line: 694, type: !972, flags: DIFlagPrototyped, spFlags: 0)
!1070 = !DIImportedEntity(tag: DW_TAG_imported_declaration, scope: !142, entity: !1071, file: !963, line: 134)
!1071 = !DISubprogram(name: "scanf", linkageName: "__isoc99_scanf", scope: !966, file: !966, line: 410, type: !1054, flags: DIFlagPrototyped, spFlags: 0)
!1072 = !DIImportedEntity(tag: DW_TAG_imported_declaration, scope: !142, entity: !1073, file: !963, line: 135)
!1073 = !DISubprogram(name: "setbuf", scope: !966, file: !966, line: 304, type: !1074, flags: DIFlagPrototyped, spFlags: 0)
!1074 = !DISubroutineType(types: !1075)
!1075 = !{null, !991, !466}
!1076 = !DIImportedEntity(tag: DW_TAG_imported_declaration, scope: !142, entity: !1077, file: !963, line: 136)
!1077 = !DISubprogram(name: "setvbuf", scope: !966, file: !966, line: 308, type: !1078, flags: DIFlagPrototyped, spFlags: 0)
!1078 = !DISubroutineType(types: !1079)
!1079 = !{!6, !991, !466, !6, !20}
!1080 = !DIImportedEntity(tag: DW_TAG_imported_declaration, scope: !142, entity: !1081, file: !963, line: 137)
!1081 = !DISubprogram(name: "sprintf", scope: !966, file: !966, line: 334, type: !1082, flags: DIFlagPrototyped, spFlags: 0)
!1082 = !DISubroutineType(types: !1083)
!1083 = !{!6, !466, !423, null}
!1084 = !DIImportedEntity(tag: DW_TAG_imported_declaration, scope: !142, entity: !1085, file: !963, line: 138)
!1085 = !DISubprogram(name: "sscanf", linkageName: "__isoc99_sscanf", scope: !966, file: !966, line: 412, type: !1086, flags: DIFlagPrototyped, spFlags: 0)
!1086 = !DISubroutineType(types: !1087)
!1087 = !{!6, !423, !423, null}
!1088 = !DIImportedEntity(tag: DW_TAG_imported_declaration, scope: !142, entity: !1089, file: !963, line: 139)
!1089 = !DISubprogram(name: "tmpfile", scope: !966, file: !966, line: 173, type: !1090, flags: DIFlagPrototyped, spFlags: 0)
!1090 = !DISubroutineType(types: !1091)
!1091 = !{!974}
!1092 = !DIImportedEntity(tag: DW_TAG_imported_declaration, scope: !142, entity: !1093, file: !963, line: 141)
!1093 = !DISubprogram(name: "tmpnam", scope: !966, file: !966, line: 187, type: !1094, flags: DIFlagPrototyped, spFlags: 0)
!1094 = !DISubroutineType(types: !1095)
!1095 = !{!256, !256}
!1096 = !DIImportedEntity(tag: DW_TAG_imported_declaration, scope: !142, entity: !1097, file: !963, line: 143)
!1097 = !DISubprogram(name: "ungetc", scope: !966, file: !966, line: 639, type: !1008, flags: DIFlagPrototyped, spFlags: 0)
!1098 = !DIImportedEntity(tag: DW_TAG_imported_declaration, scope: !142, entity: !1099, file: !963, line: 144)
!1099 = !DISubprogram(name: "vfprintf", scope: !966, file: !966, line: 341, type: !1100, flags: DIFlagPrototyped, spFlags: 0)
!1100 = !DISubroutineType(types: !1101)
!1101 = !{!6, !991, !423, !676}
!1102 = !DIImportedEntity(tag: DW_TAG_imported_declaration, scope: !142, entity: !1103, file: !963, line: 145)
!1103 = !DISubprogram(name: "vprintf", scope: !966, file: !966, line: 347, type: !1104, flags: DIFlagPrototyped, spFlags: 0)
!1104 = !DISubroutineType(types: !1105)
!1105 = !{!6, !423, !676}
!1106 = !DIImportedEntity(tag: DW_TAG_imported_declaration, scope: !142, entity: !1107, file: !963, line: 146)
!1107 = !DISubprogram(name: "vsprintf", scope: !966, file: !966, line: 349, type: !1108, flags: DIFlagPrototyped, spFlags: 0)
!1108 = !DISubroutineType(types: !1109)
!1109 = !{!6, !466, !423, !676}
!1110 = !DIImportedEntity(tag: DW_TAG_imported_declaration, scope: !475, entity: !1111, file: !963, line: 175)
!1111 = !DISubprogram(name: "snprintf", scope: !966, file: !966, line: 354, type: !1112, flags: DIFlagPrototyped, spFlags: 0)
!1112 = !DISubroutineType(types: !1113)
!1113 = !{!6, !466, !20, !423, null}
!1114 = !DIImportedEntity(tag: DW_TAG_imported_declaration, scope: !475, entity: !1115, file: !963, line: 176)
!1115 = !DISubprogram(name: "vfscanf", linkageName: "__isoc99_vfscanf", scope: !966, file: !966, line: 451, type: !1100, flags: DIFlagPrototyped, spFlags: 0)
!1116 = !DIImportedEntity(tag: DW_TAG_imported_declaration, scope: !475, entity: !1117, file: !963, line: 177)
!1117 = !DISubprogram(name: "vscanf", linkageName: "__isoc99_vscanf", scope: !966, file: !966, line: 456, type: !1104, flags: DIFlagPrototyped, spFlags: 0)
!1118 = !DIImportedEntity(tag: DW_TAG_imported_declaration, scope: !475, entity: !1119, file: !963, line: 178)
!1119 = !DISubprogram(name: "vsnprintf", scope: !966, file: !966, line: 358, type: !1120, flags: DIFlagPrototyped, spFlags: 0)
!1120 = !DISubroutineType(types: !1121)
!1121 = !{!6, !466, !20, !423, !676}
!1122 = !DIImportedEntity(tag: DW_TAG_imported_declaration, scope: !475, entity: !1123, file: !963, line: 179)
!1123 = !DISubprogram(name: "vsscanf", linkageName: "__isoc99_vsscanf", scope: !966, file: !966, line: 459, type: !1124, flags: DIFlagPrototyped, spFlags: 0)
!1124 = !DISubroutineType(types: !1125)
!1125 = !{!6, !423, !423, !676}
!1126 = !DIImportedEntity(tag: DW_TAG_imported_declaration, scope: !142, entity: !1111, file: !963, line: 185)
!1127 = !DIImportedEntity(tag: DW_TAG_imported_declaration, scope: !142, entity: !1115, file: !963, line: 186)
!1128 = !DIImportedEntity(tag: DW_TAG_imported_declaration, scope: !142, entity: !1117, file: !963, line: 187)
!1129 = !DIImportedEntity(tag: DW_TAG_imported_declaration, scope: !142, entity: !1119, file: !963, line: 188)
!1130 = !DIImportedEntity(tag: DW_TAG_imported_declaration, scope: !142, entity: !1123, file: !963, line: 189)
!1131 = !DIImportedEntity(tag: DW_TAG_imported_declaration, scope: !2, entity: !30, file: !26, line: 56)
!1132 = !{i32 7, !"Dwarf Version", i32 4}
!1133 = !{i32 2, !"Debug Info Version", i32 3}
!1134 = !{i32 1, !"wchar_size", i32 4}
!1135 = !{!"clang version 10.0.1 (https://github.com/svkeerthy/IR2Vec-LoopOptimizationFramework.git 561ac470e63b728263a0ac06ef987886ac648486)"}
!1136 = distinct !DISubprogram(name: "XalanBitmap", linkageName: "_ZN11xalanc_1_1011XalanBitmapC2ERN11xercesc_2_713MemoryManagerEm", scope: !11, file: !3, line: 35, type: !225, scopeLine: 38, flags: DIFlagPrototyped, spFlags: DISPFlagDefinition, unit: !249, declaration: !224, retainedNodes: !221)
!1137 = !DILocalVariable(name: "this", arg: 1, scope: !1136, type: !1138, flags: DIFlagArtificial | DIFlagObjectPointer)
!1138 = !DIDerivedType(tag: DW_TAG_pointer_type, baseType: !11, size: 64)
!1139 = !DILocation(line: 0, scope: !1136)
!1140 = !DILocalVariable(name: "theManager", arg: 2, scope: !1136, file: !3, line: 35, type: !228)
!1141 = !DILocation(line: 35, column: 45, scope: !1136)
!1142 = !DILocalVariable(name: "theSize", arg: 3, scope: !1136, file: !3, line: 35, type: !19)
!1143 = !DILocation(line: 35, column: 67, scope: !1136)
!1144 = !DILocation(line: 36, column: 2, scope: !1136)
!1145 = !DILocation(line: 36, column: 9, scope: !1136)
!1146 = !DILocation(line: 37, column: 2, scope: !1136)
!1147 = !DILocation(line: 37, column: 22, scope: !1136)
!1148 = !DILocation(line: 37, column: 30, scope: !1136)
!1149 = !DILocation(line: 37, column: 46, scope: !1136)
!1150 = !DILocation(line: 37, column: 63, scope: !1136)
!1151 = !DILocation(line: 37, column: 96, scope: !1136)
!1152 = !DILocation(line: 39, column: 1, scope: !1136)
!1153 = distinct !DISubprogram(name: "XalanVector", linkageName: "_ZN11xalanc_1_1011XalanVectorIcNS_31MemoryManagedConstructionTraitsIcEEEC2EmRKcRN11xercesc_2_713MemoryManagerE", scope: !25, file: !26, line: 215, type: !65, scopeLine: 223, flags: DIFlagPrototyped, spFlags: DISPFlagDefinition, unit: !249, declaration: !64, retainedNodes: !221)
!1154 = !DILocalVariable(name: "this", arg: 1, scope: !1153, type: !48, flags: DIFlagArtificial | DIFlagObjectPointer)
!1155 = !DILocation(line: 0, scope: !1153)
!1156 = !DILocalVariable(name: "theInsertSize", arg: 2, scope: !1153, file: !26, line: 216, type: !34)
!1157 = !DILocation(line: 216, column: 33, scope: !1153)
!1158 = !DILocalVariable(name: "theData", arg: 3, scope: !1153, file: !26, line: 217, type: !67)
!1159 = !DILocation(line: 217, column: 33, scope: !1153)
!1160 = !DILocalVariable(name: "theManager", arg: 4, scope: !1153, file: !26, line: 218, type: !44)
!1161 = !DILocation(line: 218, column: 33, scope: !1153)
!1162 = !DILocation(line: 219, column: 9, scope: !1153)
!1163 = !DILocation(line: 219, column: 26, scope: !1153)
!1164 = !DILocation(line: 220, column: 9, scope: !1153)
!1165 = !DILocation(line: 221, column: 9, scope: !1153)
!1166 = !DILocation(line: 222, column: 9, scope: !1153)
!1167 = !DILocalVariable(name: "theTemp", scope: !1168, file: !26, line: 224, type: !54)
!1168 = distinct !DILexicalBlock(scope: !1153, file: !26, line: 223, column: 5)
!1169 = !DILocation(line: 224, column: 21, scope: !1168)
!1170 = !DILocation(line: 224, column: 29, scope: !1168)
!1171 = !DILocation(line: 226, column: 32, scope: !1168)
!1172 = !DILocation(line: 226, column: 41, scope: !1168)
!1173 = !DILocation(line: 226, column: 56, scope: !1168)
!1174 = !DILocation(line: 226, column: 17, scope: !1168)
!1175 = !DILocation(line: 228, column: 9, scope: !1168)
!1176 = !DILocation(line: 230, column: 9, scope: !1168)
!1177 = !DILocation(line: 231, column: 5, scope: !1153)
!1178 = !DILocation(line: 231, column: 5, scope: !1168)
!1179 = distinct !DISubprogram(name: "~XalanBitmap", linkageName: "_ZN11xalanc_1_1011XalanBitmapD2Ev", scope: !11, file: !3, line: 43, type: !231, scopeLine: 44, flags: DIFlagPrototyped, spFlags: DISPFlagDefinition, unit: !249, declaration: !230, retainedNodes: !221)
!1180 = !DILocalVariable(name: "this", arg: 1, scope: !1179, type: !1138, flags: DIFlagArtificial | DIFlagObjectPointer)
!1181 = !DILocation(line: 0, scope: !1179)
!1182 = !DILocation(line: 45, column: 1, scope: !1183)
!1183 = distinct !DILexicalBlock(scope: !1179, file: !3, line: 44, column: 1)
!1184 = !DILocation(line: 45, column: 1, scope: !1179)
!1185 = distinct !DISubprogram(name: "~XalanVector", linkageName: "_ZN11xalanc_1_1011XalanVectorIcNS_31MemoryManagedConstructionTraitsIcEEED2Ev", scope: !25, file: !26, line: 233, type: !69, scopeLine: 234, flags: DIFlagPrototyped, spFlags: DISPFlagDefinition, unit: !249, declaration: !68, retainedNodes: !221)
!1186 = !DILocalVariable(name: "this", arg: 1, scope: !1185, type: !48, flags: DIFlagArtificial | DIFlagObjectPointer)
!1187 = !DILocation(line: 0, scope: !1185)
!1188 = !DILocation(line: 235, column: 9, scope: !1189)
!1189 = distinct !DILexicalBlock(scope: !1185, file: !26, line: 234, column: 5)
!1190 = !DILocation(line: 237, column: 13, scope: !1191)
!1191 = distinct !DILexicalBlock(scope: !1189, file: !26, line: 237, column: 13)
!1192 = !DILocation(line: 237, column: 26, scope: !1191)
!1193 = !DILocation(line: 237, column: 13, scope: !1189)
!1194 = !DILocation(line: 239, column: 21, scope: !1195)
!1195 = distinct !DILexicalBlock(scope: !1191, file: !26, line: 238, column: 9)
!1196 = !DILocation(line: 239, column: 30, scope: !1195)
!1197 = !DILocation(line: 239, column: 13, scope: !1195)
!1198 = !DILocation(line: 241, column: 24, scope: !1195)
!1199 = !DILocation(line: 241, column: 13, scope: !1195)
!1200 = !DILocation(line: 242, column: 9, scope: !1195)
!1201 = !DILocation(line: 243, column: 5, scope: !1185)
!1202 = distinct !DISubprogram(name: "clearAll", linkageName: "_ZN11xalanc_1_1011XalanBitmap8clearAllEv", scope: !11, file: !3, line: 50, type: !231, scopeLine: 51, flags: DIFlagPrototyped, spFlags: DISPFlagDefinition, unit: !249, declaration: !243, retainedNodes: !221)
!1203 = !DILocalVariable(name: "this", arg: 1, scope: !1202, type: !1138, flags: DIFlagArtificial | DIFlagObjectPointer)
!1204 = !DILocation(line: 0, scope: !1202)
!1205 = !DILocation(line: 52, column: 27, scope: !1202)
!1206 = !DILocation(line: 52, column: 36, scope: !1202)
!1207 = !DILocation(line: 52, column: 45, scope: !1202)
!1208 = !DILocation(line: 52, column: 54, scope: !1202)
!1209 = !DILocation(line: 52, column: 61, scope: !1202)
!1210 = !DILocation(line: 52, column: 2, scope: !1202)
!1211 = !DILocation(line: 53, column: 1, scope: !1202)
!1212 = distinct !DISubprogram(name: "fill<char *, char>", linkageName: "_ZSt4fillIPccEvT_S1_RKT0_", scope: !142, file: !1213, line: 937, type: !1214, scopeLine: 938, flags: DIFlagPrototyped, spFlags: DISPFlagDefinition, unit: !249, templateParams: !1217, retainedNodes: !221)
!1213 = !DIFile(filename: "/usr/lib/gcc/x86_64-linux-gnu/10/../../../../include/c++/10/bits/stl_algobase.h", directory: "")
!1214 = !DISubroutineType(types: !1215)
!1215 = !{null, !256, !256, !1216}
!1216 = !DIDerivedType(tag: DW_TAG_reference_type, baseType: !361, size: 64)
!1217 = !{!1218, !1219}
!1218 = !DITemplateTypeParameter(name: "_FIter", type: !256)
!1219 = !DITemplateTypeParameter(name: "_Tp", type: !39)
!1220 = !DILocalVariable(name: "__first", arg: 1, scope: !1212, file: !1221, line: 270, type: !256)
!1221 = !DIFile(filename: "/usr/lib/gcc/x86_64-linux-gnu/10/../../../../include/c++/10/bits/algorithmfwd.h", directory: "")
!1222 = !DILocation(line: 270, column: 16, scope: !1212)
!1223 = !DILocalVariable(name: "__last", arg: 2, scope: !1212, file: !1221, line: 270, type: !256)
!1224 = !DILocation(line: 270, column: 24, scope: !1212)
!1225 = !DILocalVariable(name: "__value", arg: 3, scope: !1212, file: !1221, line: 270, type: !1216)
!1226 = !DILocation(line: 270, column: 36, scope: !1212)
!1227 = !DILocation(line: 944, column: 21, scope: !1212)
!1228 = !DILocation(line: 944, column: 30, scope: !1212)
!1229 = !DILocation(line: 944, column: 38, scope: !1212)
!1230 = !DILocation(line: 944, column: 7, scope: !1212)
!1231 = !DILocation(line: 945, column: 5, scope: !1212)
