; ModuleID = 'XalanDOMStringPool.cpp'
source_filename = "XalanDOMStringPool.cpp"
target datalayout = "e-m:e-p270:32:32-p271:32:32-p272:64:64-i64:64-f80:128-n8:16:32:64-S128"
target triple = "x86_64-unknown-linux-gnu"

%"class.xalanc_1_10::XalanDOMString" = type <{ %"class.xalanc_1_10::XalanVector", i32, [4 x i8] }>
%"class.xalanc_1_10::XalanVector" = type { %"class.xercesc_2_7::MemoryManager"*, i64, i64, i16* }
%"class.xercesc_2_7::MemoryManager" = type { i32 (...)** }
%"class.xalanc_1_10::XalanDOMStringPool" = type { i32 (...)**, %"class.xalanc_1_10::XalanDOMStringAllocator", i64, %"class.xalanc_1_10::XalanDOMStringHashTable" }
%"class.xalanc_1_10::XalanDOMStringAllocator" = type { %"class.xalanc_1_10::ArenaAllocator" }
%"class.xalanc_1_10::ArenaAllocator" = type { i32 (...)**, i64, %"class.xalanc_1_10::XalanList" }
%"class.xalanc_1_10::XalanList" = type { %"class.xercesc_2_7::MemoryManager"*, %"struct.xalanc_1_10::XalanList<xalanc_1_10::ArenaBlock<xalanc_1_10::XalanDOMString, unsigned long> *>::Node"*, %"struct.xalanc_1_10::XalanList<xalanc_1_10::ArenaBlock<xalanc_1_10::XalanDOMString, unsigned long> *>::Node"* }
%"struct.xalanc_1_10::XalanList<xalanc_1_10::ArenaBlock<xalanc_1_10::XalanDOMString, unsigned long> *>::Node" = type { %"class.xalanc_1_10::ArenaBlock"*, %"struct.xalanc_1_10::XalanList<xalanc_1_10::ArenaBlock<xalanc_1_10::XalanDOMString, unsigned long> *>::Node"*, %"struct.xalanc_1_10::XalanList<xalanc_1_10::ArenaBlock<xalanc_1_10::XalanDOMString, unsigned long> *>::Node"* }
%"class.xalanc_1_10::ArenaBlock" = type { %"class.xalanc_1_10::ArenaBlockBase" }
%"class.xalanc_1_10::ArenaBlockBase" = type { %"class.xalanc_1_10::XalanAllocator", i64, i64, %"class.xalanc_1_10::XalanDOMString"* }
%"class.xalanc_1_10::XalanAllocator" = type { %"class.xercesc_2_7::MemoryManager"* }
%"class.xalanc_1_10::XalanDOMStringHashTable" = type <{ i64, i64, %"class.xalanc_1_10::XalanMemMgrAutoPtrArray", i64, i32, [4 x i8] }>
%"class.xalanc_1_10::XalanMemMgrAutoPtrArray" = type { %"class.xalanc_1_10::XalanMemMgrAutoPtrArray<xalanc_1_10::XalanVector<const xalanc_1_10::XalanDOMString *, xalanc_1_10::MemoryManagedConstructionTraits<const xalanc_1_10::XalanDOMString *> > >::MemMgrAutoPtrArrayData" }
%"class.xalanc_1_10::XalanMemMgrAutoPtrArray<xalanc_1_10::XalanVector<const xalanc_1_10::XalanDOMString *, xalanc_1_10::MemoryManagedConstructionTraits<const xalanc_1_10::XalanDOMString *> > >::MemMgrAutoPtrArrayData" = type { %"class.xercesc_2_7::MemoryManager"*, %"class.xalanc_1_10::XalanVector.0"*, i64 }
%"class.xalanc_1_10::XalanVector.0" = type { %"class.xercesc_2_7::MemoryManager"*, i64, i64, %"class.xalanc_1_10::XalanDOMString"** }
%"class.xalanc_1_10::XalanMemMgrAutoPtr" = type { %"class.xalanc_1_10::XalanMemMgrAutoPtr<xalanc_1_10::XalanDOMStringPool, false>::MemMgrAutoPtrData" }
%"class.xalanc_1_10::XalanMemMgrAutoPtr<xalanc_1_10::XalanDOMStringPool, false>::MemMgrAutoPtrData" = type { %"struct.std::pair" }
%"struct.std::pair" = type { %"class.xercesc_2_7::MemoryManager"*, %"class.xalanc_1_10::XalanDOMStringPool"* }
%"struct.xalanc_1_10::XalanListIteratorBase" = type { %"struct.xalanc_1_10::XalanList<xalanc_1_10::ArenaBlock<xalanc_1_10::XalanDOMString, unsigned long> *>::Node"* }
%"struct.xalanc_1_10::DeleteFunctor" = type { %"class.xercesc_2_7::MemoryManager"* }
%"struct.std::unary_function" = type { i8 }
%"struct.xalanc_1_10::XalanDestroyFunctor" = type { i8 }
%"class.std::__pair_base" = type { i8 }

$_ZN11xalanc_1_1014XalanDOMStringD2Ev = comdat any

$_ZN11xalanc_1_1018XalanMemMgrAutoPtrINS_18XalanDOMStringPoolELb0EEC2ERN11xercesc_2_713MemoryManagerEPS1_ = comdat any

$_ZNK11xalanc_1_1018XalanMemMgrAutoPtrINS_18XalanDOMStringPoolELb0EE3getEv = comdat any

$_ZN11xalanc_1_1018XalanMemMgrAutoPtrINS_18XalanDOMStringPoolELb0EE7releaseEv = comdat any

$_ZN11xalanc_1_1018XalanMemMgrAutoPtrINS_18XalanDOMStringPoolELb0EED2Ev = comdat any

$_ZN11xalanc_1_1023XalanDOMStringHashTableD2Ev = comdat any

$_ZN11xalanc_1_1023XalanDOMStringAllocator5resetEv = comdat any

$_ZN11xalanc_1_1011toCharArrayERKNS_14XalanDOMStringE = comdat any

$_ZN11xalanc_1_106lengthERKNS_14XalanDOMStringE = comdat any

$_ZN11xalanc_1_106lengthEPKt = comdat any

$_ZN11xalanc_1_1011XalanVectorItNS_31MemoryManagedConstructionTraitsItEEED2Ev = comdat any

$_ZNK11xalanc_1_1011XalanVectorItNS_31MemoryManagedConstructionTraitsItEEE10invariantsEv = comdat any

$__clang_call_terminate = comdat any

$_ZN11xalanc_1_1011XalanVectorItNS_31MemoryManagedConstructionTraitsItEEE7destroyEPtS4_ = comdat any

$_ZN11xalanc_1_1011XalanVectorItNS_31MemoryManagedConstructionTraitsItEEE5beginEv = comdat any

$_ZN11xalanc_1_1011XalanVectorItNS_31MemoryManagedConstructionTraitsItEEE3endEv = comdat any

$_ZN11xalanc_1_1011XalanVectorItNS_31MemoryManagedConstructionTraitsItEEE10deallocateEPt = comdat any

$_ZN11xalanc_1_1011XalanVectorItNS_31MemoryManagedConstructionTraitsItEEE7destroyERt = comdat any

$_ZN11xalanc_1_1011XalanVectorItNS_31MemoryManagedConstructionTraitsItEEE10endPointerEv = comdat any

$_ZN11xalanc_1_1023XalanMemMgrAutoPtrArrayINS_11XalanVectorIPKNS_14XalanDOMStringENS_31MemoryManagedConstructionTraitsIS4_EEEEED2Ev = comdat any

$_ZN11xalanc_1_1023XalanMemMgrAutoPtrArrayINS_11XalanVectorIPKNS_14XalanDOMStringENS_31MemoryManagedConstructionTraitsIS4_EEEEE22MemMgrAutoPtrArrayData10deallocateEv = comdat any

$_ZNK11xalanc_1_1023XalanMemMgrAutoPtrArrayINS_11XalanVectorIPKNS_14XalanDOMStringENS_31MemoryManagedConstructionTraitsIS4_EEEEE22MemMgrAutoPtrArrayData10invariantsEv = comdat any

$_ZNK11xalanc_1_1023XalanMemMgrAutoPtrArrayINS_11XalanVectorIPKNS_14XalanDOMStringENS_31MemoryManagedConstructionTraitsIS4_EEEEE22MemMgrAutoPtrArrayData12isInitilizedEv = comdat any

$_ZN11xalanc_1_1011XalanVectorIPKNS_14XalanDOMStringENS_31MemoryManagedConstructionTraitsIS3_EEED2Ev = comdat any

$_ZNK11xalanc_1_1011XalanVectorIPKNS_14XalanDOMStringENS_31MemoryManagedConstructionTraitsIS3_EEE10invariantsEv = comdat any

$_ZN11xalanc_1_1011XalanVectorIPKNS_14XalanDOMStringENS_31MemoryManagedConstructionTraitsIS3_EEE7destroyEPS3_S7_ = comdat any

$_ZN11xalanc_1_1011XalanVectorIPKNS_14XalanDOMStringENS_31MemoryManagedConstructionTraitsIS3_EEE5beginEv = comdat any

$_ZN11xalanc_1_1011XalanVectorIPKNS_14XalanDOMStringENS_31MemoryManagedConstructionTraitsIS3_EEE3endEv = comdat any

$_ZN11xalanc_1_1011XalanVectorIPKNS_14XalanDOMStringENS_31MemoryManagedConstructionTraitsIS3_EEE10deallocateEPS3_ = comdat any

$_ZN11xalanc_1_1011XalanVectorIPKNS_14XalanDOMStringENS_31MemoryManagedConstructionTraitsIS3_EEE7destroyERS3_ = comdat any

$_ZN11xalanc_1_1011XalanVectorIPKNS_14XalanDOMStringENS_31MemoryManagedConstructionTraitsIS3_EEE10endPointerEv = comdat any

$_ZN11xalanc_1_1014ArenaAllocatorINS_14XalanDOMStringENS_10ArenaBlockIS1_mEEE5resetEv = comdat any

$_ZSt8for_eachIN11xalanc_1_1021XalanListIteratorBaseINS0_23XalanListIteratorTraitsIPNS0_10ArenaBlockINS0_14XalanDOMStringEmEEEENS0_9XalanListIS6_E4NodeEEENS0_13DeleteFunctorIS5_EEET0_T_SF_SE_ = comdat any

$_ZN11xalanc_1_109XalanListIPNS_10ArenaBlockINS_14XalanDOMStringEmEEE5beginEv = comdat any

$_ZN11xalanc_1_109XalanListIPNS_10ArenaBlockINS_14XalanDOMStringEmEEE3endEv = comdat any

$_ZN11xalanc_1_109XalanListIPNS_10ArenaBlockINS_14XalanDOMStringEmEEE16getMemoryManagerEv = comdat any

$_ZN11xalanc_1_1013DeleteFunctorINS_10ArenaBlockINS_14XalanDOMStringEmEEEC2ERN11xercesc_2_713MemoryManagerE = comdat any

$_ZN11xalanc_1_109XalanListIPNS_10ArenaBlockINS_14XalanDOMStringEmEEE5clearEv = comdat any

$_ZNK11xalanc_1_1021XalanListIteratorBaseINS_23XalanListIteratorTraitsIPNS_10ArenaBlockINS_14XalanDOMStringEmEEEENS_9XalanListIS5_E4NodeEEneERKSA_ = comdat any

$_ZNK11xalanc_1_1013DeleteFunctorINS_10ArenaBlockINS_14XalanDOMStringEmEEEclEPKS3_ = comdat any

$_ZNK11xalanc_1_1021XalanListIteratorBaseINS_23XalanListIteratorTraitsIPNS_10ArenaBlockINS_14XalanDOMStringEmEEEENS_9XalanListIS5_E4NodeEEdeEv = comdat any

$_ZN11xalanc_1_1021XalanListIteratorBaseINS_23XalanListIteratorTraitsIPNS_10ArenaBlockINS_14XalanDOMStringEmEEEENS_9XalanListIS5_E4NodeEEppEv = comdat any

$_ZNK11xalanc_1_1021XalanListIteratorBaseINS_23XalanListIteratorTraitsIPNS_10ArenaBlockINS_14XalanDOMStringEmEEEENS_9XalanListIS5_E4NodeEEeqERKSA_ = comdat any

$_ZN11xalanc_1_1023makeXalanDestroyFunctorINS_10ArenaBlockINS_14XalanDOMStringEmEEEENS_19XalanDestroyFunctorIT_EEPKS5_ = comdat any

$_ZN11xalanc_1_1019XalanDestroyFunctorINS_10ArenaBlockINS_14XalanDOMStringEmEEEclEPKS3_RN11xercesc_2_713MemoryManagerE = comdat any

$_ZN11xalanc_1_1019XalanDestroyFunctorINS_10ArenaBlockINS_14XalanDOMStringEmEEEclEPS3_RN11xercesc_2_713MemoryManagerE = comdat any

$_ZN11xalanc_1_1019XalanDestroyFunctorINS_10ArenaBlockINS_14XalanDOMStringEmEEEclERS3_ = comdat any

$_ZN11xalanc_1_1010ArenaBlockINS_14XalanDOMStringEmED2Ev = comdat any

$_ZN11xalanc_1_1012XalanDestroyINS_14XalanDOMStringEEEvRT_ = comdat any

$_ZN11xalanc_1_1014ArenaBlockBaseINS_14XalanDOMStringEmED2Ev = comdat any

$_ZN11xalanc_1_1014XalanAllocatorINS_14XalanDOMStringEE10deallocateEPS1_m = comdat any

$_ZN11xalanc_1_1014XalanAllocatorINS_14XalanDOMStringEED2Ev = comdat any

$_ZN11xalanc_1_1021XalanListIteratorBaseINS_23XalanListIteratorTraitsIPNS_10ArenaBlockINS_14XalanDOMStringEmEEEENS_9XalanListIS5_E4NodeEEC2ERKSA_ = comdat any

$_ZN11xalanc_1_109XalanListIPNS_10ArenaBlockINS_14XalanDOMStringEmEEE11getListHeadEv = comdat any

$_ZN11xalanc_1_1021XalanListIteratorBaseINS_23XalanListIteratorTraitsIPNS_10ArenaBlockINS_14XalanDOMStringEmEEEENS_9XalanListIS5_E4NodeEEC2ERS9_ = comdat any

$_ZN11xalanc_1_109XalanListIPNS_10ArenaBlockINS_14XalanDOMStringEmEEE8allocateEm = comdat any

$_ZN11xalanc_1_109XalanListIPNS_10ArenaBlockINS_14XalanDOMStringEmEEE8freeNodeERNS5_4NodeE = comdat any

$_ZN11xalanc_1_1021XalanListIteratorBaseINS_23XalanListIteratorTraitsIPNS_10ArenaBlockINS_14XalanDOMStringEmEEEENS_9XalanListIS5_E4NodeEEppEi = comdat any

$_ZN11xalanc_1_1021XalanListIteratorBaseINS_23XalanListIteratorTraitsIPNS_10ArenaBlockINS_14XalanDOMStringEmEEEENS_9XalanListIS5_E4NodeEE4nodeEv = comdat any

$_ZNK11xalanc_1_1014XalanDOMString5c_strEv = comdat any

$_ZNK11xalanc_1_1014XalanDOMString10invariantsEv = comdat any

$_ZNK11xalanc_1_1011XalanVectorItNS_31MemoryManagedConstructionTraitsItEEE5emptyEv = comdat any

$_ZNK11xalanc_1_1011XalanVectorItNS_31MemoryManagedConstructionTraitsItEEEixEm = comdat any

$_ZNK11xalanc_1_1014XalanDOMString6lengthEv = comdat any

$_ZNK11xalanc_1_1014XalanDOMString4sizeEv = comdat any

$_ZN11xalanc_1_1018XalanMemMgrAutoPtrINS_18XalanDOMStringPoolELb0EE17MemMgrAutoPtrDataC2EPN11xercesc_2_713MemoryManagerEPS1_ = comdat any

$_ZNSt4pairIPN11xercesc_2_713MemoryManagerEPN11xalanc_1_1018XalanDOMStringPoolEEC2IRS2_RS5_Lb1EEEOT_OT0_ = comdat any

$_ZNK11xalanc_1_1018XalanMemMgrAutoPtrINS_18XalanDOMStringPoolELb0EE17MemMgrAutoPtrData10invariantsEv = comdat any

$_ZSt7forwardIRPN11xercesc_2_713MemoryManagerEEOT_RNSt16remove_referenceIS4_E4typeE = comdat any

$_ZSt7forwardIRPN11xalanc_1_1018XalanDOMStringPoolEEOT_RNSt16remove_referenceIS4_E4typeE = comdat any

$_ZN11xalanc_1_1018XalanMemMgrAutoPtrINS_18XalanDOMStringPoolELb0EE17MemMgrAutoPtrData10deallocateEv = comdat any

$_ZNK11xalanc_1_1018XalanMemMgrAutoPtrINS_18XalanDOMStringPoolELb0EE17MemMgrAutoPtrData12isInitilizedEv = comdat any

$_ZN11xalanc_1_1018XalanMemMgrAutoPtrINS_18XalanDOMStringPoolELb0EE17MemMgrAutoPtrData5resetEPN11xercesc_2_713MemoryManagerEPS1_ = comdat any

@_ZN11xalanc_1_1018XalanDOMStringPool13s_emptyStringE = dso_local global %"class.xalanc_1_10::XalanDOMString" zeroinitializer, align 8, !dbg !0
@__dso_handle = external hidden global i8
@_ZTVN11xalanc_1_1018XalanDOMStringPoolE = dso_local unnamed_addr constant { [8 x i8*] } { [8 x i8*] [i8* null, i8* bitcast ({ i8*, i8* }* @_ZTIN11xalanc_1_1018XalanDOMStringPoolE to i8*), i8* bitcast (void (%"class.xalanc_1_10::XalanDOMStringPool"*)* @_ZN11xalanc_1_1018XalanDOMStringPoolD1Ev to i8*), i8* bitcast (void (%"class.xalanc_1_10::XalanDOMStringPool"*)* @_ZN11xalanc_1_1018XalanDOMStringPoolD0Ev to i8*), i8* bitcast (void (%"class.xalanc_1_10::XalanDOMStringPool"*)* @_ZN11xalanc_1_1018XalanDOMStringPool5clearEv to i8*), i8* bitcast (i64 (%"class.xalanc_1_10::XalanDOMStringPool"*)* @_ZNK11xalanc_1_1018XalanDOMStringPool4sizeEv to i8*), i8* bitcast (%"class.xalanc_1_10::XalanDOMString"* (%"class.xalanc_1_10::XalanDOMStringPool"*, %"class.xalanc_1_10::XalanDOMString"*)* @_ZN11xalanc_1_1018XalanDOMStringPool3getERKNS_14XalanDOMStringE to i8*), i8* bitcast (%"class.xalanc_1_10::XalanDOMString"* (%"class.xalanc_1_10::XalanDOMStringPool"*, i16*, i32)* @_ZN11xalanc_1_1018XalanDOMStringPool3getEPKtj to i8*)] }, align 8
@_ZTVN10__cxxabiv117__class_type_infoE = external dso_local global i8*
@_ZTSN11xalanc_1_1018XalanDOMStringPoolE = dso_local constant [36 x i8] c"N11xalanc_1_1018XalanDOMStringPoolE\00", align 1
@_ZTIN11xalanc_1_1018XalanDOMStringPoolE = dso_local constant { i8*, i8* } { i8* bitcast (i8** getelementptr inbounds (i8*, i8** @_ZTVN10__cxxabiv117__class_type_infoE, i64 2) to i8*), i8* getelementptr inbounds ([36 x i8], [36 x i8]* @_ZTSN11xalanc_1_1018XalanDOMStringPoolE, i32 0, i32 0) }, align 8
@_ZN11xalanc_1_1014XalanDOMString7s_emptyE = external dso_local constant i16, align 2
@llvm.global_ctors = appending global [1 x { i32, void ()*, i8* }] [{ i32, void ()*, i8* } { i32 65535, void ()* @_GLOBAL__sub_I_XalanDOMStringPool.cpp, i8* null }]

@_ZN11xalanc_1_1018XalanDOMStringPoolC1ERN11xercesc_2_713MemoryManagerEmmm = dso_local unnamed_addr alias void (%"class.xalanc_1_10::XalanDOMStringPool"*, %"class.xercesc_2_7::MemoryManager"*, i64, i64, i64), void (%"class.xalanc_1_10::XalanDOMStringPool"*, %"class.xercesc_2_7::MemoryManager"*, i64, i64, i64)* @_ZN11xalanc_1_1018XalanDOMStringPoolC2ERN11xercesc_2_713MemoryManagerEmmm
@_ZN11xalanc_1_1018XalanDOMStringPoolD1Ev = dso_local unnamed_addr alias void (%"class.xalanc_1_10::XalanDOMStringPool"*), void (%"class.xalanc_1_10::XalanDOMStringPool"*)* @_ZN11xalanc_1_1018XalanDOMStringPoolD2Ev

; Function Attrs: noinline uwtable
define internal void @__cxx_global_var_init() #0 section ".text.startup" !dbg !2717 {
entry:
  %call = call dereferenceable(8) %"class.xercesc_2_7::MemoryManager"* @_ZN11xalanc_1_1012XalanMemMgrs14getDummyMemMgrEv(), !dbg !2718
  call void @_ZN11xalanc_1_1014XalanDOMStringC1ERN11xercesc_2_713MemoryManagerE(%"class.xalanc_1_10::XalanDOMString"* @_ZN11xalanc_1_1018XalanDOMStringPool13s_emptyStringE, %"class.xercesc_2_7::MemoryManager"* dereferenceable(8) %call), !dbg !2719
  %0 = call i32 @__cxa_atexit(void (i8*)* bitcast (void (%"class.xalanc_1_10::XalanDOMString"*)* @_ZN11xalanc_1_1014XalanDOMStringD2Ev to void (i8*)*), i8* bitcast (%"class.xalanc_1_10::XalanDOMString"* @_ZN11xalanc_1_1018XalanDOMStringPool13s_emptyStringE to i8*), i8* @__dso_handle) #3, !dbg !2719
  ret void, !dbg !2718
}

declare dso_local dereferenceable(8) %"class.xercesc_2_7::MemoryManager"* @_ZN11xalanc_1_1012XalanMemMgrs14getDummyMemMgrEv() #1

declare dso_local void @_ZN11xalanc_1_1014XalanDOMStringC1ERN11xercesc_2_713MemoryManagerE(%"class.xalanc_1_10::XalanDOMString"*, %"class.xercesc_2_7::MemoryManager"* dereferenceable(8)) unnamed_addr #1

; Function Attrs: noinline nounwind uwtable
define linkonce_odr dso_local void @_ZN11xalanc_1_1014XalanDOMStringD2Ev(%"class.xalanc_1_10::XalanDOMString"* %this) unnamed_addr #2 comdat align 2 !dbg !2720 {
entry:
  %this.addr = alloca %"class.xalanc_1_10::XalanDOMString"*, align 8
  store %"class.xalanc_1_10::XalanDOMString"* %this, %"class.xalanc_1_10::XalanDOMString"** %this.addr, align 8
  call void @llvm.dbg.declare(metadata %"class.xalanc_1_10::XalanDOMString"** %this.addr, metadata !2721, metadata !DIExpression()), !dbg !2722
  %this1 = load %"class.xalanc_1_10::XalanDOMString"*, %"class.xalanc_1_10::XalanDOMString"** %this.addr, align 8
  %m_data = getelementptr inbounds %"class.xalanc_1_10::XalanDOMString", %"class.xalanc_1_10::XalanDOMString"* %this1, i32 0, i32 0, !dbg !2723
  call void @_ZN11xalanc_1_1011XalanVectorItNS_31MemoryManagedConstructionTraitsItEEED2Ev(%"class.xalanc_1_10::XalanVector"* %m_data) #3, !dbg !2723
  ret void, !dbg !2725
}

; Function Attrs: nounwind
declare dso_local i32 @__cxa_atexit(void (i8*)*, i8*, i8*) #3

; Function Attrs: noinline uwtable
define dso_local void @_ZN11xalanc_1_1018XalanDOMStringPoolC2ERN11xercesc_2_713MemoryManagerEmmm(%"class.xalanc_1_10::XalanDOMStringPool"* %this, %"class.xercesc_2_7::MemoryManager"* dereferenceable(8) %theManager, i64 %theBlockSize, i64 %theBucketCount, i64 %theBucketSize) unnamed_addr #0 align 2 personality i8* bitcast (i32 (...)* @__gxx_personality_v0 to i8*) !dbg !2726 {
entry:
  %this.addr = alloca %"class.xalanc_1_10::XalanDOMStringPool"*, align 8
  %theManager.addr = alloca %"class.xercesc_2_7::MemoryManager"*, align 8
  %theBlockSize.addr = alloca i64, align 8
  %theBucketCount.addr = alloca i64, align 8
  %theBucketSize.addr = alloca i64, align 8
  %exn.slot = alloca i8*
  %ehselector.slot = alloca i32
  store %"class.xalanc_1_10::XalanDOMStringPool"* %this, %"class.xalanc_1_10::XalanDOMStringPool"** %this.addr, align 8
  call void @llvm.dbg.declare(metadata %"class.xalanc_1_10::XalanDOMStringPool"** %this.addr, metadata !2727, metadata !DIExpression()), !dbg !2728
  store %"class.xercesc_2_7::MemoryManager"* %theManager, %"class.xercesc_2_7::MemoryManager"** %theManager.addr, align 8
  call void @llvm.dbg.declare(metadata %"class.xercesc_2_7::MemoryManager"** %theManager.addr, metadata !2729, metadata !DIExpression()), !dbg !2730
  store i64 %theBlockSize, i64* %theBlockSize.addr, align 8
  call void @llvm.dbg.declare(metadata i64* %theBlockSize.addr, metadata !2731, metadata !DIExpression()), !dbg !2732
  store i64 %theBucketCount, i64* %theBucketCount.addr, align 8
  call void @llvm.dbg.declare(metadata i64* %theBucketCount.addr, metadata !2733, metadata !DIExpression()), !dbg !2734
  store i64 %theBucketSize, i64* %theBucketSize.addr, align 8
  call void @llvm.dbg.declare(metadata i64* %theBucketSize.addr, metadata !2735, metadata !DIExpression()), !dbg !2736
  %this1 = load %"class.xalanc_1_10::XalanDOMStringPool"*, %"class.xalanc_1_10::XalanDOMStringPool"** %this.addr, align 8
  %0 = bitcast %"class.xalanc_1_10::XalanDOMStringPool"* %this1 to i32 (...)***, !dbg !2737
  store i32 (...)** bitcast (i8** getelementptr inbounds ({ [8 x i8*] }, { [8 x i8*] }* @_ZTVN11xalanc_1_1018XalanDOMStringPoolE, i32 0, inrange i32 0, i32 2) to i32 (...)**), i32 (...)*** %0, align 8, !dbg !2737
  %m_stringAllocator = getelementptr inbounds %"class.xalanc_1_10::XalanDOMStringPool", %"class.xalanc_1_10::XalanDOMStringPool"* %this1, i32 0, i32 1, !dbg !2738
  %1 = load %"class.xercesc_2_7::MemoryManager"*, %"class.xercesc_2_7::MemoryManager"** %theManager.addr, align 8, !dbg !2739
  %2 = load i64, i64* %theBlockSize.addr, align 8, !dbg !2740
  call void @_ZN11xalanc_1_1023XalanDOMStringAllocatorC1ERN11xercesc_2_713MemoryManagerEm(%"class.xalanc_1_10::XalanDOMStringAllocator"* %m_stringAllocator, %"class.xercesc_2_7::MemoryManager"* dereferenceable(8) %1, i64 %2), !dbg !2738
  %m_stringCount = getelementptr inbounds %"class.xalanc_1_10::XalanDOMStringPool", %"class.xalanc_1_10::XalanDOMStringPool"* %this1, i32 0, i32 2, !dbg !2741
  store i64 0, i64* %m_stringCount, align 8, !dbg !2741
  %m_hashTable = getelementptr inbounds %"class.xalanc_1_10::XalanDOMStringPool", %"class.xalanc_1_10::XalanDOMStringPool"* %this1, i32 0, i32 3, !dbg !2742
  %3 = load %"class.xercesc_2_7::MemoryManager"*, %"class.xercesc_2_7::MemoryManager"** %theManager.addr, align 8, !dbg !2743
  %4 = load i64, i64* %theBucketCount.addr, align 8, !dbg !2744
  %5 = load i64, i64* %theBucketSize.addr, align 8, !dbg !2745
  invoke void @_ZN11xalanc_1_1023XalanDOMStringHashTableC1ERN11xercesc_2_713MemoryManagerEmm(%"class.xalanc_1_10::XalanDOMStringHashTable"* %m_hashTable, %"class.xercesc_2_7::MemoryManager"* dereferenceable(8) %3, i64 %4, i64 %5)
          to label %invoke.cont unwind label %lpad, !dbg !2742

invoke.cont:                                      ; preds = %entry
  ret void, !dbg !2746

lpad:                                             ; preds = %entry
  %6 = landingpad { i8*, i32 }
          cleanup, !dbg !2746
  %7 = extractvalue { i8*, i32 } %6, 0, !dbg !2746
  store i8* %7, i8** %exn.slot, align 8, !dbg !2746
  %8 = extractvalue { i8*, i32 } %6, 1, !dbg !2746
  store i32 %8, i32* %ehselector.slot, align 4, !dbg !2746
  call void @_ZN11xalanc_1_1023XalanDOMStringAllocatorD1Ev(%"class.xalanc_1_10::XalanDOMStringAllocator"* %m_stringAllocator) #3, !dbg !2747
  br label %eh.resume, !dbg !2747

eh.resume:                                        ; preds = %lpad
  %exn = load i8*, i8** %exn.slot, align 8, !dbg !2747
  %sel = load i32, i32* %ehselector.slot, align 4, !dbg !2747
  %lpad.val = insertvalue { i8*, i32 } undef, i8* %exn, 0, !dbg !2747
  %lpad.val2 = insertvalue { i8*, i32 } %lpad.val, i32 %sel, 1, !dbg !2747
  resume { i8*, i32 } %lpad.val2, !dbg !2747
}

; Function Attrs: nounwind readnone speculatable willreturn
declare void @llvm.dbg.declare(metadata, metadata, metadata) #4

declare dso_local void @_ZN11xalanc_1_1023XalanDOMStringAllocatorC1ERN11xercesc_2_713MemoryManagerEm(%"class.xalanc_1_10::XalanDOMStringAllocator"*, %"class.xercesc_2_7::MemoryManager"* dereferenceable(8), i64) unnamed_addr #1

declare dso_local void @_ZN11xalanc_1_1023XalanDOMStringHashTableC1ERN11xercesc_2_713MemoryManagerEmm(%"class.xalanc_1_10::XalanDOMStringHashTable"*, %"class.xercesc_2_7::MemoryManager"* dereferenceable(8), i64, i64) unnamed_addr #1

declare dso_local i32 @__gxx_personality_v0(...)

; Function Attrs: nounwind
declare dso_local void @_ZN11xalanc_1_1023XalanDOMStringAllocatorD1Ev(%"class.xalanc_1_10::XalanDOMStringAllocator"*) unnamed_addr #5

; Function Attrs: noinline uwtable
define dso_local %"class.xalanc_1_10::XalanDOMStringPool"* @_ZN11xalanc_1_1018XalanDOMStringPool6createERN11xercesc_2_713MemoryManagerEmmm(%"class.xercesc_2_7::MemoryManager"* dereferenceable(8) %theManager, i64 %theBlockSize, i64 %theBucketCount, i64 %theBucketSize) #0 align 2 personality i8* bitcast (i32 (...)* @__gxx_personality_v0 to i8*) !dbg !1377 {
entry:
  %theManager.addr = alloca %"class.xercesc_2_7::MemoryManager"*, align 8
  %theBlockSize.addr = alloca i64, align 8
  %theBucketCount.addr = alloca i64, align 8
  %theBucketSize.addr = alloca i64, align 8
  %theGuard = alloca %"class.xalanc_1_10::XalanMemMgrAutoPtr", align 8
  %theResult = alloca %"class.xalanc_1_10::XalanDOMStringPool"*, align 8
  %exn.slot = alloca i8*
  %ehselector.slot = alloca i32
  %coerce = alloca %"class.xalanc_1_10::XalanMemMgrAutoPtr<xalanc_1_10::XalanDOMStringPool, false>::MemMgrAutoPtrData", align 8
  store %"class.xercesc_2_7::MemoryManager"* %theManager, %"class.xercesc_2_7::MemoryManager"** %theManager.addr, align 8
  call void @llvm.dbg.declare(metadata %"class.xercesc_2_7::MemoryManager"** %theManager.addr, metadata !2749, metadata !DIExpression()), !dbg !2750
  store i64 %theBlockSize, i64* %theBlockSize.addr, align 8
  call void @llvm.dbg.declare(metadata i64* %theBlockSize.addr, metadata !2751, metadata !DIExpression()), !dbg !2752
  store i64 %theBucketCount, i64* %theBucketCount.addr, align 8
  call void @llvm.dbg.declare(metadata i64* %theBucketCount.addr, metadata !2753, metadata !DIExpression()), !dbg !2754
  store i64 %theBucketSize, i64* %theBucketSize.addr, align 8
  call void @llvm.dbg.declare(metadata i64* %theBucketSize.addr, metadata !2755, metadata !DIExpression()), !dbg !2756
  call void @llvm.dbg.declare(metadata %"class.xalanc_1_10::XalanMemMgrAutoPtr"* %theGuard, metadata !2757, metadata !DIExpression()), !dbg !2758
  %0 = load %"class.xercesc_2_7::MemoryManager"*, %"class.xercesc_2_7::MemoryManager"** %theManager.addr, align 8, !dbg !2759
  %1 = load %"class.xercesc_2_7::MemoryManager"*, %"class.xercesc_2_7::MemoryManager"** %theManager.addr, align 8, !dbg !2760
  %2 = bitcast %"class.xercesc_2_7::MemoryManager"* %1 to i8* (%"class.xercesc_2_7::MemoryManager"*, i64)***, !dbg !2761
  %vtable = load i8* (%"class.xercesc_2_7::MemoryManager"*, i64)**, i8* (%"class.xercesc_2_7::MemoryManager"*, i64)*** %2, align 8, !dbg !2761
  %vfn = getelementptr inbounds i8* (%"class.xercesc_2_7::MemoryManager"*, i64)*, i8* (%"class.xercesc_2_7::MemoryManager"*, i64)** %vtable, i64 2, !dbg !2761
  %3 = load i8* (%"class.xercesc_2_7::MemoryManager"*, i64)*, i8* (%"class.xercesc_2_7::MemoryManager"*, i64)** %vfn, align 8, !dbg !2761
  %call = call i8* %3(%"class.xercesc_2_7::MemoryManager"* %1, i64 112), !dbg !2761
  %4 = bitcast i8* %call to %"class.xalanc_1_10::XalanDOMStringPool"*, !dbg !2762
  call void @_ZN11xalanc_1_1018XalanMemMgrAutoPtrINS_18XalanDOMStringPoolELb0EEC2ERN11xercesc_2_713MemoryManagerEPS1_(%"class.xalanc_1_10::XalanMemMgrAutoPtr"* %theGuard, %"class.xercesc_2_7::MemoryManager"* dereferenceable(8) %0, %"class.xalanc_1_10::XalanDOMStringPool"* %4), !dbg !2758
  call void @llvm.dbg.declare(metadata %"class.xalanc_1_10::XalanDOMStringPool"** %theResult, metadata !2763, metadata !DIExpression()), !dbg !2764
  %call1 = invoke %"class.xalanc_1_10::XalanDOMStringPool"* @_ZNK11xalanc_1_1018XalanMemMgrAutoPtrINS_18XalanDOMStringPoolELb0EE3getEv(%"class.xalanc_1_10::XalanMemMgrAutoPtr"* %theGuard)
          to label %invoke.cont unwind label %lpad, !dbg !2765

invoke.cont:                                      ; preds = %entry
  store %"class.xalanc_1_10::XalanDOMStringPool"* %call1, %"class.xalanc_1_10::XalanDOMStringPool"** %theResult, align 8, !dbg !2764
  %5 = load %"class.xalanc_1_10::XalanDOMStringPool"*, %"class.xalanc_1_10::XalanDOMStringPool"** %theResult, align 8, !dbg !2766
  %6 = bitcast %"class.xalanc_1_10::XalanDOMStringPool"* %5 to i8*, !dbg !2767
  %7 = bitcast i8* %6 to %"class.xalanc_1_10::XalanDOMStringPool"*, !dbg !2767
  %8 = load %"class.xercesc_2_7::MemoryManager"*, %"class.xercesc_2_7::MemoryManager"** %theManager.addr, align 8, !dbg !2768
  %9 = load i64, i64* %theBlockSize.addr, align 8, !dbg !2769
  %10 = load i64, i64* %theBucketCount.addr, align 8, !dbg !2770
  %11 = load i64, i64* %theBucketSize.addr, align 8, !dbg !2771
  invoke void @_ZN11xalanc_1_1018XalanDOMStringPoolC1ERN11xercesc_2_713MemoryManagerEmmm(%"class.xalanc_1_10::XalanDOMStringPool"* %7, %"class.xercesc_2_7::MemoryManager"* dereferenceable(8) %8, i64 %9, i64 %10, i64 %11)
          to label %invoke.cont2 unwind label %lpad, !dbg !2772

invoke.cont2:                                     ; preds = %invoke.cont
  %call4 = invoke { %"class.xercesc_2_7::MemoryManager"*, %"class.xalanc_1_10::XalanDOMStringPool"* } @_ZN11xalanc_1_1018XalanMemMgrAutoPtrINS_18XalanDOMStringPoolELb0EE7releaseEv(%"class.xalanc_1_10::XalanMemMgrAutoPtr"* %theGuard)
          to label %invoke.cont3 unwind label %lpad, !dbg !2773

invoke.cont3:                                     ; preds = %invoke.cont2
  %coerce.dive = getelementptr inbounds %"class.xalanc_1_10::XalanMemMgrAutoPtr<xalanc_1_10::XalanDOMStringPool, false>::MemMgrAutoPtrData", %"class.xalanc_1_10::XalanMemMgrAutoPtr<xalanc_1_10::XalanDOMStringPool, false>::MemMgrAutoPtrData"* %coerce, i32 0, i32 0, !dbg !2773
  %12 = bitcast %"struct.std::pair"* %coerce.dive to { %"class.xercesc_2_7::MemoryManager"*, %"class.xalanc_1_10::XalanDOMStringPool"* }*, !dbg !2773
  %13 = getelementptr inbounds { %"class.xercesc_2_7::MemoryManager"*, %"class.xalanc_1_10::XalanDOMStringPool"* }, { %"class.xercesc_2_7::MemoryManager"*, %"class.xalanc_1_10::XalanDOMStringPool"* }* %12, i32 0, i32 0, !dbg !2773
  %14 = extractvalue { %"class.xercesc_2_7::MemoryManager"*, %"class.xalanc_1_10::XalanDOMStringPool"* } %call4, 0, !dbg !2773
  store %"class.xercesc_2_7::MemoryManager"* %14, %"class.xercesc_2_7::MemoryManager"** %13, align 8, !dbg !2773
  %15 = getelementptr inbounds { %"class.xercesc_2_7::MemoryManager"*, %"class.xalanc_1_10::XalanDOMStringPool"* }, { %"class.xercesc_2_7::MemoryManager"*, %"class.xalanc_1_10::XalanDOMStringPool"* }* %12, i32 0, i32 1, !dbg !2773
  %16 = extractvalue { %"class.xercesc_2_7::MemoryManager"*, %"class.xalanc_1_10::XalanDOMStringPool"* } %call4, 1, !dbg !2773
  store %"class.xalanc_1_10::XalanDOMStringPool"* %16, %"class.xalanc_1_10::XalanDOMStringPool"** %15, align 8, !dbg !2773
  %17 = load %"class.xalanc_1_10::XalanDOMStringPool"*, %"class.xalanc_1_10::XalanDOMStringPool"** %theResult, align 8, !dbg !2774
  call void @_ZN11xalanc_1_1018XalanMemMgrAutoPtrINS_18XalanDOMStringPoolELb0EED2Ev(%"class.xalanc_1_10::XalanMemMgrAutoPtr"* %theGuard) #3, !dbg !2775
  ret %"class.xalanc_1_10::XalanDOMStringPool"* %17, !dbg !2775

lpad:                                             ; preds = %invoke.cont2, %invoke.cont, %entry
  %18 = landingpad { i8*, i32 }
          cleanup, !dbg !2775
  %19 = extractvalue { i8*, i32 } %18, 0, !dbg !2775
  store i8* %19, i8** %exn.slot, align 8, !dbg !2775
  %20 = extractvalue { i8*, i32 } %18, 1, !dbg !2775
  store i32 %20, i32* %ehselector.slot, align 4, !dbg !2775
  call void @_ZN11xalanc_1_1018XalanMemMgrAutoPtrINS_18XalanDOMStringPoolELb0EED2Ev(%"class.xalanc_1_10::XalanMemMgrAutoPtr"* %theGuard) #3, !dbg !2775
  br label %eh.resume, !dbg !2775

eh.resume:                                        ; preds = %lpad
  %exn = load i8*, i8** %exn.slot, align 8, !dbg !2775
  %sel = load i32, i32* %ehselector.slot, align 4, !dbg !2775
  %lpad.val = insertvalue { i8*, i32 } undef, i8* %exn, 0, !dbg !2775
  %lpad.val5 = insertvalue { i8*, i32 } %lpad.val, i32 %sel, 1, !dbg !2775
  resume { i8*, i32 } %lpad.val5, !dbg !2775
}

; Function Attrs: noinline uwtable
define linkonce_odr dso_local void @_ZN11xalanc_1_1018XalanMemMgrAutoPtrINS_18XalanDOMStringPoolELb0EEC2ERN11xercesc_2_713MemoryManagerEPS1_(%"class.xalanc_1_10::XalanMemMgrAutoPtr"* %this, %"class.xercesc_2_7::MemoryManager"* dereferenceable(8) %theManager, %"class.xalanc_1_10::XalanDOMStringPool"* %ptr) unnamed_addr #0 comdat align 2 !dbg !2776 {
entry:
  %this.addr = alloca %"class.xalanc_1_10::XalanMemMgrAutoPtr"*, align 8
  %theManager.addr = alloca %"class.xercesc_2_7::MemoryManager"*, align 8
  %ptr.addr = alloca %"class.xalanc_1_10::XalanDOMStringPool"*, align 8
  store %"class.xalanc_1_10::XalanMemMgrAutoPtr"* %this, %"class.xalanc_1_10::XalanMemMgrAutoPtr"** %this.addr, align 8
  call void @llvm.dbg.declare(metadata %"class.xalanc_1_10::XalanMemMgrAutoPtr"** %this.addr, metadata !2777, metadata !DIExpression()), !dbg !2779
  store %"class.xercesc_2_7::MemoryManager"* %theManager, %"class.xercesc_2_7::MemoryManager"** %theManager.addr, align 8
  call void @llvm.dbg.declare(metadata %"class.xercesc_2_7::MemoryManager"** %theManager.addr, metadata !2780, metadata !DIExpression()), !dbg !2781
  store %"class.xalanc_1_10::XalanDOMStringPool"* %ptr, %"class.xalanc_1_10::XalanDOMStringPool"** %ptr.addr, align 8
  call void @llvm.dbg.declare(metadata %"class.xalanc_1_10::XalanDOMStringPool"** %ptr.addr, metadata !2782, metadata !DIExpression()), !dbg !2783
  %this1 = load %"class.xalanc_1_10::XalanMemMgrAutoPtr"*, %"class.xalanc_1_10::XalanMemMgrAutoPtr"** %this.addr, align 8
  %m_pointerInfo = getelementptr inbounds %"class.xalanc_1_10::XalanMemMgrAutoPtr", %"class.xalanc_1_10::XalanMemMgrAutoPtr"* %this1, i32 0, i32 0, !dbg !2784
  %0 = load %"class.xercesc_2_7::MemoryManager"*, %"class.xercesc_2_7::MemoryManager"** %theManager.addr, align 8, !dbg !2785
  %1 = load %"class.xalanc_1_10::XalanDOMStringPool"*, %"class.xalanc_1_10::XalanDOMStringPool"** %ptr.addr, align 8, !dbg !2786
  call void @_ZN11xalanc_1_1018XalanMemMgrAutoPtrINS_18XalanDOMStringPoolELb0EE17MemMgrAutoPtrDataC2EPN11xercesc_2_713MemoryManagerEPS1_(%"class.xalanc_1_10::XalanMemMgrAutoPtr<xalanc_1_10::XalanDOMStringPool, false>::MemMgrAutoPtrData"* %m_pointerInfo, %"class.xercesc_2_7::MemoryManager"* %0, %"class.xalanc_1_10::XalanDOMStringPool"* %1), !dbg !2784
  ret void, !dbg !2787
}

; Function Attrs: noinline nounwind uwtable
define linkonce_odr dso_local %"class.xalanc_1_10::XalanDOMStringPool"* @_ZNK11xalanc_1_1018XalanMemMgrAutoPtrINS_18XalanDOMStringPoolELb0EE3getEv(%"class.xalanc_1_10::XalanMemMgrAutoPtr"* %this) #2 comdat align 2 !dbg !2788 {
entry:
  %this.addr = alloca %"class.xalanc_1_10::XalanMemMgrAutoPtr"*, align 8
  store %"class.xalanc_1_10::XalanMemMgrAutoPtr"* %this, %"class.xalanc_1_10::XalanMemMgrAutoPtr"** %this.addr, align 8
  call void @llvm.dbg.declare(metadata %"class.xalanc_1_10::XalanMemMgrAutoPtr"** %this.addr, metadata !2789, metadata !DIExpression()), !dbg !2791
  %this1 = load %"class.xalanc_1_10::XalanMemMgrAutoPtr"*, %"class.xalanc_1_10::XalanMemMgrAutoPtr"** %this.addr, align 8
  %m_pointerInfo = getelementptr inbounds %"class.xalanc_1_10::XalanMemMgrAutoPtr", %"class.xalanc_1_10::XalanMemMgrAutoPtr"* %this1, i32 0, i32 0, !dbg !2792
  %0 = bitcast %"class.xalanc_1_10::XalanMemMgrAutoPtr<xalanc_1_10::XalanDOMStringPool, false>::MemMgrAutoPtrData"* %m_pointerInfo to %"struct.std::pair"*, !dbg !2792
  %second = getelementptr inbounds %"struct.std::pair", %"struct.std::pair"* %0, i32 0, i32 1, !dbg !2793
  %1 = load %"class.xalanc_1_10::XalanDOMStringPool"*, %"class.xalanc_1_10::XalanDOMStringPool"** %second, align 8, !dbg !2793
  ret %"class.xalanc_1_10::XalanDOMStringPool"* %1, !dbg !2794
}

; Function Attrs: noinline uwtable
define linkonce_odr dso_local { %"class.xercesc_2_7::MemoryManager"*, %"class.xalanc_1_10::XalanDOMStringPool"* } @_ZN11xalanc_1_1018XalanMemMgrAutoPtrINS_18XalanDOMStringPoolELb0EE7releaseEv(%"class.xalanc_1_10::XalanMemMgrAutoPtr"* %this) #0 comdat align 2 !dbg !2795 {
entry:
  %retval = alloca %"class.xalanc_1_10::XalanMemMgrAutoPtr<xalanc_1_10::XalanDOMStringPool, false>::MemMgrAutoPtrData", align 8
  %this.addr = alloca %"class.xalanc_1_10::XalanMemMgrAutoPtr"*, align 8
  %tmp = alloca %"class.xalanc_1_10::XalanMemMgrAutoPtr<xalanc_1_10::XalanDOMStringPool, false>::MemMgrAutoPtrData", align 8
  store %"class.xalanc_1_10::XalanMemMgrAutoPtr"* %this, %"class.xalanc_1_10::XalanMemMgrAutoPtr"** %this.addr, align 8
  call void @llvm.dbg.declare(metadata %"class.xalanc_1_10::XalanMemMgrAutoPtr"** %this.addr, metadata !2796, metadata !DIExpression()), !dbg !2797
  %this1 = load %"class.xalanc_1_10::XalanMemMgrAutoPtr"*, %"class.xalanc_1_10::XalanMemMgrAutoPtr"** %this.addr, align 8
  call void @llvm.dbg.declare(metadata %"class.xalanc_1_10::XalanMemMgrAutoPtr<xalanc_1_10::XalanDOMStringPool, false>::MemMgrAutoPtrData"* %tmp, metadata !2798, metadata !DIExpression()), !dbg !2799
  %m_pointerInfo = getelementptr inbounds %"class.xalanc_1_10::XalanMemMgrAutoPtr", %"class.xalanc_1_10::XalanMemMgrAutoPtr"* %this1, i32 0, i32 0, !dbg !2800
  %0 = bitcast %"class.xalanc_1_10::XalanMemMgrAutoPtr<xalanc_1_10::XalanDOMStringPool, false>::MemMgrAutoPtrData"* %tmp to i8*, !dbg !2800
  %1 = bitcast %"class.xalanc_1_10::XalanMemMgrAutoPtr<xalanc_1_10::XalanDOMStringPool, false>::MemMgrAutoPtrData"* %m_pointerInfo to i8*, !dbg !2800
  call void @llvm.memcpy.p0i8.p0i8.i64(i8* align 8 %0, i8* align 8 %1, i64 16, i1 false), !dbg !2800
  %m_pointerInfo2 = getelementptr inbounds %"class.xalanc_1_10::XalanMemMgrAutoPtr", %"class.xalanc_1_10::XalanMemMgrAutoPtr"* %this1, i32 0, i32 0, !dbg !2801
  call void @_ZN11xalanc_1_1018XalanMemMgrAutoPtrINS_18XalanDOMStringPoolELb0EE17MemMgrAutoPtrData5resetEPN11xercesc_2_713MemoryManagerEPS1_(%"class.xalanc_1_10::XalanMemMgrAutoPtr<xalanc_1_10::XalanDOMStringPool, false>::MemMgrAutoPtrData"* %m_pointerInfo2, %"class.xercesc_2_7::MemoryManager"* null, %"class.xalanc_1_10::XalanDOMStringPool"* null), !dbg !2802
  %2 = bitcast %"class.xalanc_1_10::XalanMemMgrAutoPtr<xalanc_1_10::XalanDOMStringPool, false>::MemMgrAutoPtrData"* %retval to i8*, !dbg !2803
  %3 = bitcast %"class.xalanc_1_10::XalanMemMgrAutoPtr<xalanc_1_10::XalanDOMStringPool, false>::MemMgrAutoPtrData"* %tmp to i8*, !dbg !2803
  call void @llvm.memcpy.p0i8.p0i8.i64(i8* align 8 %2, i8* align 8 %3, i64 16, i1 false), !dbg !2803
  %coerce.dive = getelementptr inbounds %"class.xalanc_1_10::XalanMemMgrAutoPtr<xalanc_1_10::XalanDOMStringPool, false>::MemMgrAutoPtrData", %"class.xalanc_1_10::XalanMemMgrAutoPtr<xalanc_1_10::XalanDOMStringPool, false>::MemMgrAutoPtrData"* %retval, i32 0, i32 0, !dbg !2804
  %4 = bitcast %"struct.std::pair"* %coerce.dive to { %"class.xercesc_2_7::MemoryManager"*, %"class.xalanc_1_10::XalanDOMStringPool"* }*, !dbg !2804
  %5 = load { %"class.xercesc_2_7::MemoryManager"*, %"class.xalanc_1_10::XalanDOMStringPool"* }, { %"class.xercesc_2_7::MemoryManager"*, %"class.xalanc_1_10::XalanDOMStringPool"* }* %4, align 8, !dbg !2804
  ret { %"class.xercesc_2_7::MemoryManager"*, %"class.xalanc_1_10::XalanDOMStringPool"* } %5, !dbg !2804
}

; Function Attrs: noinline nounwind uwtable
define linkonce_odr dso_local void @_ZN11xalanc_1_1018XalanMemMgrAutoPtrINS_18XalanDOMStringPoolELb0EED2Ev(%"class.xalanc_1_10::XalanMemMgrAutoPtr"* %this) unnamed_addr #2 comdat align 2 personality i8* bitcast (i32 (...)* @__gxx_personality_v0 to i8*) !dbg !2805 {
entry:
  %this.addr = alloca %"class.xalanc_1_10::XalanMemMgrAutoPtr"*, align 8
  store %"class.xalanc_1_10::XalanMemMgrAutoPtr"* %this, %"class.xalanc_1_10::XalanMemMgrAutoPtr"** %this.addr, align 8
  call void @llvm.dbg.declare(metadata %"class.xalanc_1_10::XalanMemMgrAutoPtr"** %this.addr, metadata !2806, metadata !DIExpression()), !dbg !2807
  %this1 = load %"class.xalanc_1_10::XalanMemMgrAutoPtr"*, %"class.xalanc_1_10::XalanMemMgrAutoPtr"** %this.addr, align 8
  %m_pointerInfo = getelementptr inbounds %"class.xalanc_1_10::XalanMemMgrAutoPtr", %"class.xalanc_1_10::XalanMemMgrAutoPtr"* %this1, i32 0, i32 0, !dbg !2808
  invoke void @_ZN11xalanc_1_1018XalanMemMgrAutoPtrINS_18XalanDOMStringPoolELb0EE17MemMgrAutoPtrData10deallocateEv(%"class.xalanc_1_10::XalanMemMgrAutoPtr<xalanc_1_10::XalanDOMStringPool, false>::MemMgrAutoPtrData"* %m_pointerInfo)
          to label %invoke.cont unwind label %terminate.lpad, !dbg !2810

invoke.cont:                                      ; preds = %entry
  ret void, !dbg !2811

terminate.lpad:                                   ; preds = %entry
  %0 = landingpad { i8*, i32 }
          catch i8* null, !dbg !2810
  %1 = extractvalue { i8*, i32 } %0, 0, !dbg !2810
  call void @__clang_call_terminate(i8* %1) #9, !dbg !2810
  unreachable, !dbg !2810
}

; Function Attrs: noinline nounwind uwtable
define dso_local void @_ZN11xalanc_1_1018XalanDOMStringPoolD2Ev(%"class.xalanc_1_10::XalanDOMStringPool"* %this) unnamed_addr #2 align 2 !dbg !2812 {
entry:
  %this.addr = alloca %"class.xalanc_1_10::XalanDOMStringPool"*, align 8
  store %"class.xalanc_1_10::XalanDOMStringPool"* %this, %"class.xalanc_1_10::XalanDOMStringPool"** %this.addr, align 8
  call void @llvm.dbg.declare(metadata %"class.xalanc_1_10::XalanDOMStringPool"** %this.addr, metadata !2813, metadata !DIExpression()), !dbg !2814
  %this1 = load %"class.xalanc_1_10::XalanDOMStringPool"*, %"class.xalanc_1_10::XalanDOMStringPool"** %this.addr, align 8
  %0 = bitcast %"class.xalanc_1_10::XalanDOMStringPool"* %this1 to i32 (...)***, !dbg !2815
  store i32 (...)** bitcast (i8** getelementptr inbounds ({ [8 x i8*] }, { [8 x i8*] }* @_ZTVN11xalanc_1_1018XalanDOMStringPoolE, i32 0, inrange i32 0, i32 2) to i32 (...)**), i32 (...)*** %0, align 8, !dbg !2815
  %m_hashTable = getelementptr inbounds %"class.xalanc_1_10::XalanDOMStringPool", %"class.xalanc_1_10::XalanDOMStringPool"* %this1, i32 0, i32 3, !dbg !2816
  call void @_ZN11xalanc_1_1023XalanDOMStringHashTableD2Ev(%"class.xalanc_1_10::XalanDOMStringHashTable"* %m_hashTable) #3, !dbg !2816
  %m_stringAllocator = getelementptr inbounds %"class.xalanc_1_10::XalanDOMStringPool", %"class.xalanc_1_10::XalanDOMStringPool"* %this1, i32 0, i32 1, !dbg !2816
  call void @_ZN11xalanc_1_1023XalanDOMStringAllocatorD1Ev(%"class.xalanc_1_10::XalanDOMStringAllocator"* %m_stringAllocator) #3, !dbg !2816
  ret void, !dbg !2818
}

; Function Attrs: noinline nounwind uwtable
define linkonce_odr dso_local void @_ZN11xalanc_1_1023XalanDOMStringHashTableD2Ev(%"class.xalanc_1_10::XalanDOMStringHashTable"* %this) unnamed_addr #2 comdat align 2 !dbg !2819 {
entry:
  %this.addr = alloca %"class.xalanc_1_10::XalanDOMStringHashTable"*, align 8
  store %"class.xalanc_1_10::XalanDOMStringHashTable"* %this, %"class.xalanc_1_10::XalanDOMStringHashTable"** %this.addr, align 8
  call void @llvm.dbg.declare(metadata %"class.xalanc_1_10::XalanDOMStringHashTable"** %this.addr, metadata !2820, metadata !DIExpression()), !dbg !2822
  %this1 = load %"class.xalanc_1_10::XalanDOMStringHashTable"*, %"class.xalanc_1_10::XalanDOMStringHashTable"** %this.addr, align 8
  %m_buckets = getelementptr inbounds %"class.xalanc_1_10::XalanDOMStringHashTable", %"class.xalanc_1_10::XalanDOMStringHashTable"* %this1, i32 0, i32 2, !dbg !2823
  call void @_ZN11xalanc_1_1023XalanMemMgrAutoPtrArrayINS_11XalanVectorIPKNS_14XalanDOMStringENS_31MemoryManagedConstructionTraitsIS4_EEEEED2Ev(%"class.xalanc_1_10::XalanMemMgrAutoPtrArray"* %m_buckets) #3, !dbg !2823
  ret void, !dbg !2825
}

; Function Attrs: noinline nounwind uwtable
define dso_local void @_ZN11xalanc_1_1018XalanDOMStringPoolD0Ev(%"class.xalanc_1_10::XalanDOMStringPool"* %this) unnamed_addr #2 align 2 !dbg !2826 {
entry:
  %this.addr = alloca %"class.xalanc_1_10::XalanDOMStringPool"*, align 8
  store %"class.xalanc_1_10::XalanDOMStringPool"* %this, %"class.xalanc_1_10::XalanDOMStringPool"** %this.addr, align 8
  call void @llvm.dbg.declare(metadata %"class.xalanc_1_10::XalanDOMStringPool"** %this.addr, metadata !2827, metadata !DIExpression()), !dbg !2828
  %this1 = load %"class.xalanc_1_10::XalanDOMStringPool"*, %"class.xalanc_1_10::XalanDOMStringPool"** %this.addr, align 8
  call void @_ZN11xalanc_1_1018XalanDOMStringPoolD1Ev(%"class.xalanc_1_10::XalanDOMStringPool"* %this1) #3, !dbg !2829
  %0 = bitcast %"class.xalanc_1_10::XalanDOMStringPool"* %this1 to i8*, !dbg !2829
  call void @_ZdlPv(i8* %0) #10, !dbg !2829
  ret void, !dbg !2830
}

; Function Attrs: nobuiltin nounwind
declare dso_local void @_ZdlPv(i8*) #6

; Function Attrs: noinline uwtable
define dso_local void @_ZN11xalanc_1_1018XalanDOMStringPool5clearEv(%"class.xalanc_1_10::XalanDOMStringPool"* %this) unnamed_addr #0 align 2 !dbg !2831 {
entry:
  %this.addr = alloca %"class.xalanc_1_10::XalanDOMStringPool"*, align 8
  store %"class.xalanc_1_10::XalanDOMStringPool"* %this, %"class.xalanc_1_10::XalanDOMStringPool"** %this.addr, align 8
  call void @llvm.dbg.declare(metadata %"class.xalanc_1_10::XalanDOMStringPool"** %this.addr, metadata !2832, metadata !DIExpression()), !dbg !2833
  %this1 = load %"class.xalanc_1_10::XalanDOMStringPool"*, %"class.xalanc_1_10::XalanDOMStringPool"** %this.addr, align 8
  %m_stringAllocator = getelementptr inbounds %"class.xalanc_1_10::XalanDOMStringPool", %"class.xalanc_1_10::XalanDOMStringPool"* %this1, i32 0, i32 1, !dbg !2834
  call void @_ZN11xalanc_1_1023XalanDOMStringAllocator5resetEv(%"class.xalanc_1_10::XalanDOMStringAllocator"* %m_stringAllocator), !dbg !2835
  %m_hashTable = getelementptr inbounds %"class.xalanc_1_10::XalanDOMStringPool", %"class.xalanc_1_10::XalanDOMStringPool"* %this1, i32 0, i32 3, !dbg !2836
  call void @_ZN11xalanc_1_1023XalanDOMStringHashTable5clearEv(%"class.xalanc_1_10::XalanDOMStringHashTable"* %m_hashTable), !dbg !2837
  %m_stringCount = getelementptr inbounds %"class.xalanc_1_10::XalanDOMStringPool", %"class.xalanc_1_10::XalanDOMStringPool"* %this1, i32 0, i32 2, !dbg !2838
  store i64 0, i64* %m_stringCount, align 8, !dbg !2839
  ret void, !dbg !2840
}

; Function Attrs: noinline uwtable
define linkonce_odr dso_local void @_ZN11xalanc_1_1023XalanDOMStringAllocator5resetEv(%"class.xalanc_1_10::XalanDOMStringAllocator"* %this) #0 comdat align 2 !dbg !2841 {
entry:
  %this.addr = alloca %"class.xalanc_1_10::XalanDOMStringAllocator"*, align 8
  store %"class.xalanc_1_10::XalanDOMStringAllocator"* %this, %"class.xalanc_1_10::XalanDOMStringAllocator"** %this.addr, align 8
  call void @llvm.dbg.declare(metadata %"class.xalanc_1_10::XalanDOMStringAllocator"** %this.addr, metadata !2842, metadata !DIExpression()), !dbg !2844
  %this1 = load %"class.xalanc_1_10::XalanDOMStringAllocator"*, %"class.xalanc_1_10::XalanDOMStringAllocator"** %this.addr, align 8
  %m_allocator = getelementptr inbounds %"class.xalanc_1_10::XalanDOMStringAllocator", %"class.xalanc_1_10::XalanDOMStringAllocator"* %this1, i32 0, i32 0, !dbg !2845
  call void @_ZN11xalanc_1_1014ArenaAllocatorINS_14XalanDOMStringENS_10ArenaBlockIS1_mEEE5resetEv(%"class.xalanc_1_10::ArenaAllocator"* %m_allocator), !dbg !2846
  ret void, !dbg !2847
}

declare dso_local void @_ZN11xalanc_1_1023XalanDOMStringHashTable5clearEv(%"class.xalanc_1_10::XalanDOMStringHashTable"*) #1

; Function Attrs: noinline nounwind uwtable
define dso_local i64 @_ZNK11xalanc_1_1018XalanDOMStringPool4sizeEv(%"class.xalanc_1_10::XalanDOMStringPool"* %this) unnamed_addr #2 align 2 !dbg !2848 {
entry:
  %this.addr = alloca %"class.xalanc_1_10::XalanDOMStringPool"*, align 8
  store %"class.xalanc_1_10::XalanDOMStringPool"* %this, %"class.xalanc_1_10::XalanDOMStringPool"** %this.addr, align 8
  call void @llvm.dbg.declare(metadata %"class.xalanc_1_10::XalanDOMStringPool"** %this.addr, metadata !2849, metadata !DIExpression()), !dbg !2851
  %this1 = load %"class.xalanc_1_10::XalanDOMStringPool"*, %"class.xalanc_1_10::XalanDOMStringPool"** %this.addr, align 8
  %m_stringCount = getelementptr inbounds %"class.xalanc_1_10::XalanDOMStringPool", %"class.xalanc_1_10::XalanDOMStringPool"* %this1, i32 0, i32 2, !dbg !2852
  %0 = load i64, i64* %m_stringCount, align 8, !dbg !2852
  ret i64 %0, !dbg !2853
}

; Function Attrs: noinline uwtable
define dso_local dereferenceable(40) %"class.xalanc_1_10::XalanDOMString"* @_ZN11xalanc_1_1018XalanDOMStringPool3getERKNS_14XalanDOMStringE(%"class.xalanc_1_10::XalanDOMStringPool"* %this, %"class.xalanc_1_10::XalanDOMString"* dereferenceable(40) %theString) unnamed_addr #0 align 2 !dbg !2854 {
entry:
  %this.addr = alloca %"class.xalanc_1_10::XalanDOMStringPool"*, align 8
  %theString.addr = alloca %"class.xalanc_1_10::XalanDOMString"*, align 8
  store %"class.xalanc_1_10::XalanDOMStringPool"* %this, %"class.xalanc_1_10::XalanDOMStringPool"** %this.addr, align 8
  call void @llvm.dbg.declare(metadata %"class.xalanc_1_10::XalanDOMStringPool"** %this.addr, metadata !2855, metadata !DIExpression()), !dbg !2856
  store %"class.xalanc_1_10::XalanDOMString"* %theString, %"class.xalanc_1_10::XalanDOMString"** %theString.addr, align 8
  call void @llvm.dbg.declare(metadata %"class.xalanc_1_10::XalanDOMString"** %theString.addr, metadata !2857, metadata !DIExpression()), !dbg !2858
  %this1 = load %"class.xalanc_1_10::XalanDOMStringPool"*, %"class.xalanc_1_10::XalanDOMStringPool"** %this.addr, align 8
  %0 = load %"class.xalanc_1_10::XalanDOMString"*, %"class.xalanc_1_10::XalanDOMString"** %theString.addr, align 8, !dbg !2859
  %call = call i16* @_ZN11xalanc_1_1011toCharArrayERKNS_14XalanDOMStringE(%"class.xalanc_1_10::XalanDOMString"* dereferenceable(40) %0), !dbg !2860
  %1 = load %"class.xalanc_1_10::XalanDOMString"*, %"class.xalanc_1_10::XalanDOMString"** %theString.addr, align 8, !dbg !2861
  %call2 = call i32 @_ZN11xalanc_1_106lengthERKNS_14XalanDOMStringE(%"class.xalanc_1_10::XalanDOMString"* dereferenceable(40) %1), !dbg !2862
  %2 = bitcast %"class.xalanc_1_10::XalanDOMStringPool"* %this1 to %"class.xalanc_1_10::XalanDOMString"* (%"class.xalanc_1_10::XalanDOMStringPool"*, i16*, i32)***, !dbg !2863
  %vtable = load %"class.xalanc_1_10::XalanDOMString"* (%"class.xalanc_1_10::XalanDOMStringPool"*, i16*, i32)**, %"class.xalanc_1_10::XalanDOMString"* (%"class.xalanc_1_10::XalanDOMStringPool"*, i16*, i32)*** %2, align 8, !dbg !2863
  %vfn = getelementptr inbounds %"class.xalanc_1_10::XalanDOMString"* (%"class.xalanc_1_10::XalanDOMStringPool"*, i16*, i32)*, %"class.xalanc_1_10::XalanDOMString"* (%"class.xalanc_1_10::XalanDOMStringPool"*, i16*, i32)** %vtable, i64 5, !dbg !2863
  %3 = load %"class.xalanc_1_10::XalanDOMString"* (%"class.xalanc_1_10::XalanDOMStringPool"*, i16*, i32)*, %"class.xalanc_1_10::XalanDOMString"* (%"class.xalanc_1_10::XalanDOMStringPool"*, i16*, i32)** %vfn, align 8, !dbg !2863
  %call3 = call dereferenceable(40) %"class.xalanc_1_10::XalanDOMString"* %3(%"class.xalanc_1_10::XalanDOMStringPool"* %this1, i16* %call, i32 %call2), !dbg !2863
  ret %"class.xalanc_1_10::XalanDOMString"* %call3, !dbg !2864
}

; Function Attrs: noinline uwtable
define linkonce_odr dso_local i16* @_ZN11xalanc_1_1011toCharArrayERKNS_14XalanDOMStringE(%"class.xalanc_1_10::XalanDOMString"* dereferenceable(40) %theString) #0 comdat !dbg !2865 {
entry:
  %theString.addr = alloca %"class.xalanc_1_10::XalanDOMString"*, align 8
  store %"class.xalanc_1_10::XalanDOMString"* %theString, %"class.xalanc_1_10::XalanDOMString"** %theString.addr, align 8
  call void @llvm.dbg.declare(metadata %"class.xalanc_1_10::XalanDOMString"** %theString.addr, metadata !2868, metadata !DIExpression()), !dbg !2869
  %0 = load %"class.xalanc_1_10::XalanDOMString"*, %"class.xalanc_1_10::XalanDOMString"** %theString.addr, align 8, !dbg !2870
  %call = call i16* @_ZNK11xalanc_1_1014XalanDOMString5c_strEv(%"class.xalanc_1_10::XalanDOMString"* %0), !dbg !2871
  ret i16* %call, !dbg !2872
}

; Function Attrs: noinline uwtable
define linkonce_odr dso_local i32 @_ZN11xalanc_1_106lengthERKNS_14XalanDOMStringE(%"class.xalanc_1_10::XalanDOMString"* dereferenceable(40) %theString) #0 comdat !dbg !2873 {
entry:
  %theString.addr = alloca %"class.xalanc_1_10::XalanDOMString"*, align 8
  store %"class.xalanc_1_10::XalanDOMString"* %theString, %"class.xalanc_1_10::XalanDOMString"** %theString.addr, align 8
  call void @llvm.dbg.declare(metadata %"class.xalanc_1_10::XalanDOMString"** %theString.addr, metadata !2876, metadata !DIExpression()), !dbg !2877
  %0 = load %"class.xalanc_1_10::XalanDOMString"*, %"class.xalanc_1_10::XalanDOMString"** %theString.addr, align 8, !dbg !2878
  %call = call i32 @_ZNK11xalanc_1_1014XalanDOMString6lengthEv(%"class.xalanc_1_10::XalanDOMString"* %0), !dbg !2879
  ret i32 %call, !dbg !2880
}

; Function Attrs: noinline uwtable
define dso_local dereferenceable(40) %"class.xalanc_1_10::XalanDOMString"* @_ZN11xalanc_1_1018XalanDOMStringPool3getEPKtj(%"class.xalanc_1_10::XalanDOMStringPool"* %this, i16* %theString, i32 %theLength) unnamed_addr #0 align 2 !dbg !2881 {
entry:
  %retval = alloca %"class.xalanc_1_10::XalanDOMString"*, align 8
  %this.addr = alloca %"class.xalanc_1_10::XalanDOMStringPool"*, align 8
  %theString.addr = alloca i16*, align 8
  %theLength.addr = alloca i32, align 4
  %theActualLength = alloca i32, align 4
  %theBucketIndex = alloca i64, align 8
  %theTableString = alloca %"class.xalanc_1_10::XalanDOMString"*, align 8
  %theNewString = alloca %"class.xalanc_1_10::XalanDOMString"*, align 8
  store %"class.xalanc_1_10::XalanDOMStringPool"* %this, %"class.xalanc_1_10::XalanDOMStringPool"** %this.addr, align 8
  call void @llvm.dbg.declare(metadata %"class.xalanc_1_10::XalanDOMStringPool"** %this.addr, metadata !2882, metadata !DIExpression()), !dbg !2883
  store i16* %theString, i16** %theString.addr, align 8
  call void @llvm.dbg.declare(metadata i16** %theString.addr, metadata !2884, metadata !DIExpression()), !dbg !2885
  store i32 %theLength, i32* %theLength.addr, align 4
  call void @llvm.dbg.declare(metadata i32* %theLength.addr, metadata !2886, metadata !DIExpression()), !dbg !2887
  %this1 = load %"class.xalanc_1_10::XalanDOMStringPool"*, %"class.xalanc_1_10::XalanDOMStringPool"** %this.addr, align 8
  %0 = load i16*, i16** %theString.addr, align 8, !dbg !2888
  %cmp = icmp eq i16* %0, null, !dbg !2890
  br i1 %cmp, label %if.then, label %lor.lhs.false, !dbg !2891

lor.lhs.false:                                    ; preds = %entry
  %1 = load i16*, i16** %theString.addr, align 8, !dbg !2892
  %2 = load i16, i16* %1, align 2, !dbg !2893
  %conv = zext i16 %2 to i32, !dbg !2893
  %cmp2 = icmp eq i32 %conv, 0, !dbg !2894
  br i1 %cmp2, label %if.then, label %if.else, !dbg !2895

if.then:                                          ; preds = %lor.lhs.false, %entry
  store %"class.xalanc_1_10::XalanDOMString"* @_ZN11xalanc_1_1018XalanDOMStringPool13s_emptyStringE, %"class.xalanc_1_10::XalanDOMString"** %retval, align 8, !dbg !2896
  br label %return, !dbg !2896

if.else:                                          ; preds = %lor.lhs.false
  call void @llvm.dbg.declare(metadata i32* %theActualLength, metadata !2898, metadata !DIExpression()), !dbg !2900
  %3 = load i32, i32* %theLength.addr, align 4, !dbg !2901
  %cmp3 = icmp eq i32 %3, -1, !dbg !2902
  br i1 %cmp3, label %cond.true, label %cond.false, !dbg !2901

cond.true:                                        ; preds = %if.else
  %4 = load i16*, i16** %theString.addr, align 8, !dbg !2903
  %call = call i32 @_ZN11xalanc_1_106lengthEPKt(i16* %4), !dbg !2904
  br label %cond.end, !dbg !2901

cond.false:                                       ; preds = %if.else
  %5 = load i32, i32* %theLength.addr, align 4, !dbg !2905
  br label %cond.end, !dbg !2901

cond.end:                                         ; preds = %cond.false, %cond.true
  %cond = phi i32 [ %call, %cond.true ], [ %5, %cond.false ], !dbg !2901
  store i32 %cond, i32* %theActualLength, align 4, !dbg !2900
  call void @llvm.dbg.declare(metadata i64* %theBucketIndex, metadata !2906, metadata !DIExpression()), !dbg !2907
  call void @llvm.dbg.declare(metadata %"class.xalanc_1_10::XalanDOMString"** %theTableString, metadata !2908, metadata !DIExpression()), !dbg !2909
  %m_hashTable = getelementptr inbounds %"class.xalanc_1_10::XalanDOMStringPool", %"class.xalanc_1_10::XalanDOMStringPool"* %this1, i32 0, i32 3, !dbg !2910
  %6 = load i16*, i16** %theString.addr, align 8, !dbg !2911
  %7 = load i32, i32* %theActualLength, align 4, !dbg !2912
  %call4 = call %"class.xalanc_1_10::XalanDOMString"* @_ZNK11xalanc_1_1023XalanDOMStringHashTable4findEPKtjPm(%"class.xalanc_1_10::XalanDOMStringHashTable"* %m_hashTable, i16* %6, i32 %7, i64* %theBucketIndex), !dbg !2913
  store %"class.xalanc_1_10::XalanDOMString"* %call4, %"class.xalanc_1_10::XalanDOMString"** %theTableString, align 8, !dbg !2909
  %8 = load %"class.xalanc_1_10::XalanDOMString"*, %"class.xalanc_1_10::XalanDOMString"** %theTableString, align 8, !dbg !2914
  %cmp5 = icmp ne %"class.xalanc_1_10::XalanDOMString"* %8, null, !dbg !2916
  br i1 %cmp5, label %if.then6, label %if.else7, !dbg !2917

if.then6:                                         ; preds = %cond.end
  %9 = load %"class.xalanc_1_10::XalanDOMString"*, %"class.xalanc_1_10::XalanDOMString"** %theTableString, align 8, !dbg !2918
  store %"class.xalanc_1_10::XalanDOMString"* %9, %"class.xalanc_1_10::XalanDOMString"** %retval, align 8, !dbg !2920
  br label %return, !dbg !2920

if.else7:                                         ; preds = %cond.end
  call void @llvm.dbg.declare(metadata %"class.xalanc_1_10::XalanDOMString"** %theNewString, metadata !2921, metadata !DIExpression()), !dbg !2924
  %m_stringAllocator = getelementptr inbounds %"class.xalanc_1_10::XalanDOMStringPool", %"class.xalanc_1_10::XalanDOMStringPool"* %this1, i32 0, i32 1, !dbg !2925
  %10 = load i16*, i16** %theString.addr, align 8, !dbg !2926
  %11 = load i32, i32* %theActualLength, align 4, !dbg !2927
  %call8 = call %"class.xalanc_1_10::XalanDOMString"* @_ZN11xalanc_1_1023XalanDOMStringAllocator6createEPKtj(%"class.xalanc_1_10::XalanDOMStringAllocator"* %m_stringAllocator, i16* %10, i32 %11), !dbg !2928
  store %"class.xalanc_1_10::XalanDOMString"* %call8, %"class.xalanc_1_10::XalanDOMString"** %theNewString, align 8, !dbg !2924
  %m_stringCount = getelementptr inbounds %"class.xalanc_1_10::XalanDOMStringPool", %"class.xalanc_1_10::XalanDOMStringPool"* %this1, i32 0, i32 2, !dbg !2929
  %12 = load i64, i64* %m_stringCount, align 8, !dbg !2930
  %inc = add i64 %12, 1, !dbg !2930
  store i64 %inc, i64* %m_stringCount, align 8, !dbg !2930
  %m_hashTable9 = getelementptr inbounds %"class.xalanc_1_10::XalanDOMStringPool", %"class.xalanc_1_10::XalanDOMStringPool"* %this1, i32 0, i32 3, !dbg !2931
  %13 = load %"class.xalanc_1_10::XalanDOMString"*, %"class.xalanc_1_10::XalanDOMString"** %theNewString, align 8, !dbg !2932
  %14 = load i64, i64* %theBucketIndex, align 8, !dbg !2933
  call void @_ZN11xalanc_1_1023XalanDOMStringHashTable6insertERKNS_14XalanDOMStringEm(%"class.xalanc_1_10::XalanDOMStringHashTable"* %m_hashTable9, %"class.xalanc_1_10::XalanDOMString"* dereferenceable(40) %13, i64 %14), !dbg !2934
  %15 = load %"class.xalanc_1_10::XalanDOMString"*, %"class.xalanc_1_10::XalanDOMString"** %theNewString, align 8, !dbg !2935
  store %"class.xalanc_1_10::XalanDOMString"* %15, %"class.xalanc_1_10::XalanDOMString"** %retval, align 8, !dbg !2936
  br label %return, !dbg !2936

return:                                           ; preds = %if.else7, %if.then6, %if.then
  %16 = load %"class.xalanc_1_10::XalanDOMString"*, %"class.xalanc_1_10::XalanDOMString"** %retval, align 8, !dbg !2937
  ret %"class.xalanc_1_10::XalanDOMString"* %16, !dbg !2937
}

; Function Attrs: noinline nounwind uwtable
define linkonce_odr dso_local i32 @_ZN11xalanc_1_106lengthEPKt(i16* %theString) #2 comdat !dbg !2938 {
entry:
  %theString.addr = alloca i16*, align 8
  %theBufferPointer = alloca i16*, align 8
  store i16* %theString, i16** %theString.addr, align 8
  call void @llvm.dbg.declare(metadata i16** %theString.addr, metadata !2939, metadata !DIExpression()), !dbg !2940
  call void @llvm.dbg.declare(metadata i16** %theBufferPointer, metadata !2941, metadata !DIExpression()), !dbg !2942
  %0 = load i16*, i16** %theString.addr, align 8, !dbg !2943
  store i16* %0, i16** %theBufferPointer, align 8, !dbg !2942
  br label %while.cond, !dbg !2944

while.cond:                                       ; preds = %while.body, %entry
  %1 = load i16*, i16** %theBufferPointer, align 8, !dbg !2945
  %2 = load i16, i16* %1, align 2, !dbg !2946
  %conv = zext i16 %2 to i32, !dbg !2946
  %cmp = icmp ne i32 %conv, 0, !dbg !2947
  br i1 %cmp, label %while.body, label %while.end, !dbg !2944

while.body:                                       ; preds = %while.cond
  %3 = load i16*, i16** %theBufferPointer, align 8, !dbg !2948
  %incdec.ptr = getelementptr inbounds i16, i16* %3, i32 1, !dbg !2948
  store i16* %incdec.ptr, i16** %theBufferPointer, align 8, !dbg !2948
  br label %while.cond, !dbg !2944, !llvm.loop !2950

while.end:                                        ; preds = %while.cond
  %4 = load i16*, i16** %theBufferPointer, align 8, !dbg !2952
  %5 = load i16*, i16** %theString.addr, align 8, !dbg !2953
  %sub.ptr.lhs.cast = ptrtoint i16* %4 to i64, !dbg !2954
  %sub.ptr.rhs.cast = ptrtoint i16* %5 to i64, !dbg !2954
  %sub.ptr.sub = sub i64 %sub.ptr.lhs.cast, %sub.ptr.rhs.cast, !dbg !2954
  %sub.ptr.div = sdiv exact i64 %sub.ptr.sub, 2, !dbg !2954
  %conv1 = trunc i64 %sub.ptr.div to i32, !dbg !2952
  ret i32 %conv1, !dbg !2955
}

declare dso_local %"class.xalanc_1_10::XalanDOMString"* @_ZNK11xalanc_1_1023XalanDOMStringHashTable4findEPKtjPm(%"class.xalanc_1_10::XalanDOMStringHashTable"*, i16*, i32, i64*) #1

declare dso_local %"class.xalanc_1_10::XalanDOMString"* @_ZN11xalanc_1_1023XalanDOMStringAllocator6createEPKtj(%"class.xalanc_1_10::XalanDOMStringAllocator"*, i16*, i32) #1

declare dso_local void @_ZN11xalanc_1_1023XalanDOMStringHashTable6insertERKNS_14XalanDOMStringEm(%"class.xalanc_1_10::XalanDOMStringHashTable"*, %"class.xalanc_1_10::XalanDOMString"* dereferenceable(40), i64) #1

; Function Attrs: noinline nounwind uwtable
define linkonce_odr dso_local void @_ZN11xalanc_1_1011XalanVectorItNS_31MemoryManagedConstructionTraitsItEEED2Ev(%"class.xalanc_1_10::XalanVector"* %this) unnamed_addr #2 comdat align 2 personality i8* bitcast (i32 (...)* @__gxx_personality_v0 to i8*) !dbg !2956 {
entry:
  %this.addr = alloca %"class.xalanc_1_10::XalanVector"*, align 8
  store %"class.xalanc_1_10::XalanVector"* %this, %"class.xalanc_1_10::XalanVector"** %this.addr, align 8
  call void @llvm.dbg.declare(metadata %"class.xalanc_1_10::XalanVector"** %this.addr, metadata !2957, metadata !DIExpression()), !dbg !2958
  %this1 = load %"class.xalanc_1_10::XalanVector"*, %"class.xalanc_1_10::XalanVector"** %this.addr, align 8
  invoke void @_ZNK11xalanc_1_1011XalanVectorItNS_31MemoryManagedConstructionTraitsItEEE10invariantsEv(%"class.xalanc_1_10::XalanVector"* %this1)
          to label %invoke.cont unwind label %terminate.lpad, !dbg !2959

invoke.cont:                                      ; preds = %entry
  %m_allocation = getelementptr inbounds %"class.xalanc_1_10::XalanVector", %"class.xalanc_1_10::XalanVector"* %this1, i32 0, i32 2, !dbg !2961
  %0 = load i64, i64* %m_allocation, align 8, !dbg !2961
  %cmp = icmp ne i64 %0, 0, !dbg !2963
  br i1 %cmp, label %if.then, label %if.end, !dbg !2964

if.then:                                          ; preds = %invoke.cont
  %call = invoke i16* @_ZN11xalanc_1_1011XalanVectorItNS_31MemoryManagedConstructionTraitsItEEE5beginEv(%"class.xalanc_1_10::XalanVector"* %this1)
          to label %invoke.cont2 unwind label %terminate.lpad, !dbg !2965

invoke.cont2:                                     ; preds = %if.then
  %call4 = invoke i16* @_ZN11xalanc_1_1011XalanVectorItNS_31MemoryManagedConstructionTraitsItEEE3endEv(%"class.xalanc_1_10::XalanVector"* %this1)
          to label %invoke.cont3 unwind label %terminate.lpad, !dbg !2967

invoke.cont3:                                     ; preds = %invoke.cont2
  invoke void @_ZN11xalanc_1_1011XalanVectorItNS_31MemoryManagedConstructionTraitsItEEE7destroyEPtS4_(i16* %call, i16* %call4)
          to label %invoke.cont5 unwind label %terminate.lpad, !dbg !2968

invoke.cont5:                                     ; preds = %invoke.cont3
  %m_data = getelementptr inbounds %"class.xalanc_1_10::XalanVector", %"class.xalanc_1_10::XalanVector"* %this1, i32 0, i32 3, !dbg !2969
  %1 = load i16*, i16** %m_data, align 8, !dbg !2969
  invoke void @_ZN11xalanc_1_1011XalanVectorItNS_31MemoryManagedConstructionTraitsItEEE10deallocateEPt(%"class.xalanc_1_10::XalanVector"* %this1, i16* %1)
          to label %invoke.cont6 unwind label %terminate.lpad, !dbg !2970

invoke.cont6:                                     ; preds = %invoke.cont5
  br label %if.end, !dbg !2971

if.end:                                           ; preds = %invoke.cont6, %invoke.cont
  ret void, !dbg !2972

terminate.lpad:                                   ; preds = %invoke.cont5, %invoke.cont3, %invoke.cont2, %if.then, %entry
  %2 = landingpad { i8*, i32 }
          catch i8* null, !dbg !2959
  %3 = extractvalue { i8*, i32 } %2, 0, !dbg !2959
  call void @__clang_call_terminate(i8* %3) #9, !dbg !2959
  unreachable, !dbg !2959
}

; Function Attrs: noinline nounwind uwtable
define linkonce_odr dso_local void @_ZNK11xalanc_1_1011XalanVectorItNS_31MemoryManagedConstructionTraitsItEEE10invariantsEv(%"class.xalanc_1_10::XalanVector"* %this) #2 comdat align 2 !dbg !2973 {
entry:
  %this.addr = alloca %"class.xalanc_1_10::XalanVector"*, align 8
  store %"class.xalanc_1_10::XalanVector"* %this, %"class.xalanc_1_10::XalanVector"** %this.addr, align 8
  call void @llvm.dbg.declare(metadata %"class.xalanc_1_10::XalanVector"** %this.addr, metadata !2974, metadata !DIExpression()), !dbg !2976
  %this1 = load %"class.xalanc_1_10::XalanVector"*, %"class.xalanc_1_10::XalanVector"** %this.addr, align 8
  ret void, !dbg !2977
}

; Function Attrs: noinline noreturn nounwind
define linkonce_odr hidden void @__clang_call_terminate(i8* %0) #7 comdat {
  %2 = call i8* @__cxa_begin_catch(i8* %0) #3
  call void @_ZSt9terminatev() #9
  unreachable
}

declare dso_local i8* @__cxa_begin_catch(i8*)

declare dso_local void @_ZSt9terminatev()

; Function Attrs: noinline uwtable
define linkonce_odr dso_local void @_ZN11xalanc_1_1011XalanVectorItNS_31MemoryManagedConstructionTraitsItEEE7destroyEPtS4_(i16* %theFirst, i16* %theLast) #0 comdat align 2 !dbg !2978 {
entry:
  %theFirst.addr = alloca i16*, align 8
  %theLast.addr = alloca i16*, align 8
  store i16* %theFirst, i16** %theFirst.addr, align 8
  call void @llvm.dbg.declare(metadata i16** %theFirst.addr, metadata !2979, metadata !DIExpression()), !dbg !2980
  store i16* %theLast, i16** %theLast.addr, align 8
  call void @llvm.dbg.declare(metadata i16** %theLast.addr, metadata !2981, metadata !DIExpression()), !dbg !2982
  br label %for.cond, !dbg !2983

for.cond:                                         ; preds = %for.inc, %entry
  %0 = load i16*, i16** %theFirst.addr, align 8, !dbg !2984
  %1 = load i16*, i16** %theLast.addr, align 8, !dbg !2987
  %cmp = icmp ne i16* %0, %1, !dbg !2988
  br i1 %cmp, label %for.body, label %for.end, !dbg !2989

for.body:                                         ; preds = %for.cond
  %2 = load i16*, i16** %theFirst.addr, align 8, !dbg !2990
  call void @_ZN11xalanc_1_1011XalanVectorItNS_31MemoryManagedConstructionTraitsItEEE7destroyERt(i16* dereferenceable(2) %2), !dbg !2992
  br label %for.inc, !dbg !2993

for.inc:                                          ; preds = %for.body
  %3 = load i16*, i16** %theFirst.addr, align 8, !dbg !2994
  %incdec.ptr = getelementptr inbounds i16, i16* %3, i32 1, !dbg !2994
  store i16* %incdec.ptr, i16** %theFirst.addr, align 8, !dbg !2994
  br label %for.cond, !dbg !2995, !llvm.loop !2996

for.end:                                          ; preds = %for.cond
  ret void, !dbg !2998
}

; Function Attrs: noinline nounwind uwtable
define linkonce_odr dso_local i16* @_ZN11xalanc_1_1011XalanVectorItNS_31MemoryManagedConstructionTraitsItEEE5beginEv(%"class.xalanc_1_10::XalanVector"* %this) #2 comdat align 2 !dbg !2999 {
entry:
  %this.addr = alloca %"class.xalanc_1_10::XalanVector"*, align 8
  store %"class.xalanc_1_10::XalanVector"* %this, %"class.xalanc_1_10::XalanVector"** %this.addr, align 8
  call void @llvm.dbg.declare(metadata %"class.xalanc_1_10::XalanVector"** %this.addr, metadata !3000, metadata !DIExpression()), !dbg !3001
  %this1 = load %"class.xalanc_1_10::XalanVector"*, %"class.xalanc_1_10::XalanVector"** %this.addr, align 8
  call void @_ZNK11xalanc_1_1011XalanVectorItNS_31MemoryManagedConstructionTraitsItEEE10invariantsEv(%"class.xalanc_1_10::XalanVector"* %this1), !dbg !3002
  %m_data = getelementptr inbounds %"class.xalanc_1_10::XalanVector", %"class.xalanc_1_10::XalanVector"* %this1, i32 0, i32 3, !dbg !3003
  %0 = load i16*, i16** %m_data, align 8, !dbg !3003
  ret i16* %0, !dbg !3004
}

; Function Attrs: noinline uwtable
define linkonce_odr dso_local i16* @_ZN11xalanc_1_1011XalanVectorItNS_31MemoryManagedConstructionTraitsItEEE3endEv(%"class.xalanc_1_10::XalanVector"* %this) #0 comdat align 2 !dbg !3005 {
entry:
  %this.addr = alloca %"class.xalanc_1_10::XalanVector"*, align 8
  store %"class.xalanc_1_10::XalanVector"* %this, %"class.xalanc_1_10::XalanVector"** %this.addr, align 8
  call void @llvm.dbg.declare(metadata %"class.xalanc_1_10::XalanVector"** %this.addr, metadata !3006, metadata !DIExpression()), !dbg !3007
  %this1 = load %"class.xalanc_1_10::XalanVector"*, %"class.xalanc_1_10::XalanVector"** %this.addr, align 8
  call void @_ZNK11xalanc_1_1011XalanVectorItNS_31MemoryManagedConstructionTraitsItEEE10invariantsEv(%"class.xalanc_1_10::XalanVector"* %this1), !dbg !3008
  %call = call i16* @_ZN11xalanc_1_1011XalanVectorItNS_31MemoryManagedConstructionTraitsItEEE10endPointerEv(%"class.xalanc_1_10::XalanVector"* %this1), !dbg !3009
  ret i16* %call, !dbg !3010
}

; Function Attrs: noinline uwtable
define linkonce_odr dso_local void @_ZN11xalanc_1_1011XalanVectorItNS_31MemoryManagedConstructionTraitsItEEE10deallocateEPt(%"class.xalanc_1_10::XalanVector"* %this, i16* %pointer) #0 comdat align 2 !dbg !3011 {
entry:
  %this.addr = alloca %"class.xalanc_1_10::XalanVector"*, align 8
  %pointer.addr = alloca i16*, align 8
  store %"class.xalanc_1_10::XalanVector"* %this, %"class.xalanc_1_10::XalanVector"** %this.addr, align 8
  call void @llvm.dbg.declare(metadata %"class.xalanc_1_10::XalanVector"** %this.addr, metadata !3012, metadata !DIExpression()), !dbg !3013
  store i16* %pointer, i16** %pointer.addr, align 8
  call void @llvm.dbg.declare(metadata i16** %pointer.addr, metadata !3014, metadata !DIExpression()), !dbg !3015
  %this1 = load %"class.xalanc_1_10::XalanVector"*, %"class.xalanc_1_10::XalanVector"** %this.addr, align 8
  %m_memoryManager = getelementptr inbounds %"class.xalanc_1_10::XalanVector", %"class.xalanc_1_10::XalanVector"* %this1, i32 0, i32 0, !dbg !3016
  %0 = load %"class.xercesc_2_7::MemoryManager"*, %"class.xercesc_2_7::MemoryManager"** %m_memoryManager, align 8, !dbg !3016
  %1 = load i16*, i16** %pointer.addr, align 8, !dbg !3017
  %2 = bitcast i16* %1 to i8*, !dbg !3017
  %3 = bitcast %"class.xercesc_2_7::MemoryManager"* %0 to void (%"class.xercesc_2_7::MemoryManager"*, i8*)***, !dbg !3018
  %vtable = load void (%"class.xercesc_2_7::MemoryManager"*, i8*)**, void (%"class.xercesc_2_7::MemoryManager"*, i8*)*** %3, align 8, !dbg !3018
  %vfn = getelementptr inbounds void (%"class.xercesc_2_7::MemoryManager"*, i8*)*, void (%"class.xercesc_2_7::MemoryManager"*, i8*)** %vtable, i64 3, !dbg !3018
  %4 = load void (%"class.xercesc_2_7::MemoryManager"*, i8*)*, void (%"class.xercesc_2_7::MemoryManager"*, i8*)** %vfn, align 8, !dbg !3018
  call void %4(%"class.xercesc_2_7::MemoryManager"* %0, i8* %2), !dbg !3018
  ret void, !dbg !3019
}

; Function Attrs: noinline nounwind uwtable
define linkonce_odr dso_local void @_ZN11xalanc_1_1011XalanVectorItNS_31MemoryManagedConstructionTraitsItEEE7destroyERt(i16* dereferenceable(2) %theValue) #2 comdat align 2 !dbg !3020 {
entry:
  %theValue.addr = alloca i16*, align 8
  store i16* %theValue, i16** %theValue.addr, align 8
  call void @llvm.dbg.declare(metadata i16** %theValue.addr, metadata !3021, metadata !DIExpression()), !dbg !3022
  %0 = load i16*, i16** %theValue.addr, align 8, !dbg !3023
  ret void, !dbg !3024
}

; Function Attrs: noinline nounwind uwtable
define linkonce_odr dso_local i16* @_ZN11xalanc_1_1011XalanVectorItNS_31MemoryManagedConstructionTraitsItEEE10endPointerEv(%"class.xalanc_1_10::XalanVector"* %this) #2 comdat align 2 !dbg !3025 {
entry:
  %this.addr = alloca %"class.xalanc_1_10::XalanVector"*, align 8
  store %"class.xalanc_1_10::XalanVector"* %this, %"class.xalanc_1_10::XalanVector"** %this.addr, align 8
  call void @llvm.dbg.declare(metadata %"class.xalanc_1_10::XalanVector"** %this.addr, metadata !3026, metadata !DIExpression()), !dbg !3027
  %this1 = load %"class.xalanc_1_10::XalanVector"*, %"class.xalanc_1_10::XalanVector"** %this.addr, align 8
  %m_data = getelementptr inbounds %"class.xalanc_1_10::XalanVector", %"class.xalanc_1_10::XalanVector"* %this1, i32 0, i32 3, !dbg !3028
  %0 = load i16*, i16** %m_data, align 8, !dbg !3028
  %m_size = getelementptr inbounds %"class.xalanc_1_10::XalanVector", %"class.xalanc_1_10::XalanVector"* %this1, i32 0, i32 1, !dbg !3029
  %1 = load i64, i64* %m_size, align 8, !dbg !3029
  %add.ptr = getelementptr inbounds i16, i16* %0, i64 %1, !dbg !3030
  ret i16* %add.ptr, !dbg !3031
}

; Function Attrs: noinline nounwind uwtable
define linkonce_odr dso_local void @_ZN11xalanc_1_1023XalanMemMgrAutoPtrArrayINS_11XalanVectorIPKNS_14XalanDOMStringENS_31MemoryManagedConstructionTraitsIS4_EEEEED2Ev(%"class.xalanc_1_10::XalanMemMgrAutoPtrArray"* %this) unnamed_addr #2 comdat align 2 personality i8* bitcast (i32 (...)* @__gxx_personality_v0 to i8*) !dbg !3032 {
entry:
  %this.addr = alloca %"class.xalanc_1_10::XalanMemMgrAutoPtrArray"*, align 8
  store %"class.xalanc_1_10::XalanMemMgrAutoPtrArray"* %this, %"class.xalanc_1_10::XalanMemMgrAutoPtrArray"** %this.addr, align 8
  call void @llvm.dbg.declare(metadata %"class.xalanc_1_10::XalanMemMgrAutoPtrArray"** %this.addr, metadata !3033, metadata !DIExpression()), !dbg !3035
  %this1 = load %"class.xalanc_1_10::XalanMemMgrAutoPtrArray"*, %"class.xalanc_1_10::XalanMemMgrAutoPtrArray"** %this.addr, align 8
  %m_pointerInfo = getelementptr inbounds %"class.xalanc_1_10::XalanMemMgrAutoPtrArray", %"class.xalanc_1_10::XalanMemMgrAutoPtrArray"* %this1, i32 0, i32 0, !dbg !3036
  invoke void @_ZN11xalanc_1_1023XalanMemMgrAutoPtrArrayINS_11XalanVectorIPKNS_14XalanDOMStringENS_31MemoryManagedConstructionTraitsIS4_EEEEE22MemMgrAutoPtrArrayData10deallocateEv(%"class.xalanc_1_10::XalanMemMgrAutoPtrArray<xalanc_1_10::XalanVector<const xalanc_1_10::XalanDOMString *, xalanc_1_10::MemoryManagedConstructionTraits<const xalanc_1_10::XalanDOMString *> > >::MemMgrAutoPtrArrayData"* %m_pointerInfo)
          to label %invoke.cont unwind label %terminate.lpad, !dbg !3038

invoke.cont:                                      ; preds = %entry
  ret void, !dbg !3039

terminate.lpad:                                   ; preds = %entry
  %0 = landingpad { i8*, i32 }
          catch i8* null, !dbg !3038
  %1 = extractvalue { i8*, i32 } %0, 0, !dbg !3038
  call void @__clang_call_terminate(i8* %1) #9, !dbg !3038
  unreachable, !dbg !3038
}

; Function Attrs: noinline uwtable
define linkonce_odr dso_local void @_ZN11xalanc_1_1023XalanMemMgrAutoPtrArrayINS_11XalanVectorIPKNS_14XalanDOMStringENS_31MemoryManagedConstructionTraitsIS4_EEEEE22MemMgrAutoPtrArrayData10deallocateEv(%"class.xalanc_1_10::XalanMemMgrAutoPtrArray<xalanc_1_10::XalanVector<const xalanc_1_10::XalanDOMString *, xalanc_1_10::MemoryManagedConstructionTraits<const xalanc_1_10::XalanDOMString *> > >::MemMgrAutoPtrArrayData"* %this) #0 comdat align 2 !dbg !3040 {
entry:
  %this.addr = alloca %"class.xalanc_1_10::XalanMemMgrAutoPtrArray<xalanc_1_10::XalanVector<const xalanc_1_10::XalanDOMString *, xalanc_1_10::MemoryManagedConstructionTraits<const xalanc_1_10::XalanDOMString *> > >::MemMgrAutoPtrArrayData"*, align 8
  %i = alloca i64, align 8
  store %"class.xalanc_1_10::XalanMemMgrAutoPtrArray<xalanc_1_10::XalanVector<const xalanc_1_10::XalanDOMString *, xalanc_1_10::MemoryManagedConstructionTraits<const xalanc_1_10::XalanDOMString *> > >::MemMgrAutoPtrArrayData"* %this, %"class.xalanc_1_10::XalanMemMgrAutoPtrArray<xalanc_1_10::XalanVector<const xalanc_1_10::XalanDOMString *, xalanc_1_10::MemoryManagedConstructionTraits<const xalanc_1_10::XalanDOMString *> > >::MemMgrAutoPtrArrayData"** %this.addr, align 8
  call void @llvm.dbg.declare(metadata %"class.xalanc_1_10::XalanMemMgrAutoPtrArray<xalanc_1_10::XalanVector<const xalanc_1_10::XalanDOMString *, xalanc_1_10::MemoryManagedConstructionTraits<const xalanc_1_10::XalanDOMString *> > >::MemMgrAutoPtrArrayData"** %this.addr, metadata !3041, metadata !DIExpression()), !dbg !3043
  %this1 = load %"class.xalanc_1_10::XalanMemMgrAutoPtrArray<xalanc_1_10::XalanVector<const xalanc_1_10::XalanDOMString *, xalanc_1_10::MemoryManagedConstructionTraits<const xalanc_1_10::XalanDOMString *> > >::MemMgrAutoPtrArrayData"*, %"class.xalanc_1_10::XalanMemMgrAutoPtrArray<xalanc_1_10::XalanVector<const xalanc_1_10::XalanDOMString *, xalanc_1_10::MemoryManagedConstructionTraits<const xalanc_1_10::XalanDOMString *> > >::MemMgrAutoPtrArrayData"** %this.addr, align 8
  call void @_ZNK11xalanc_1_1023XalanMemMgrAutoPtrArrayINS_11XalanVectorIPKNS_14XalanDOMStringENS_31MemoryManagedConstructionTraitsIS4_EEEEE22MemMgrAutoPtrArrayData10invariantsEv(%"class.xalanc_1_10::XalanMemMgrAutoPtrArray<xalanc_1_10::XalanVector<const xalanc_1_10::XalanDOMString *, xalanc_1_10::MemoryManagedConstructionTraits<const xalanc_1_10::XalanDOMString *> > >::MemMgrAutoPtrArrayData"* %this1), !dbg !3044
  %call = call zeroext i1 @_ZNK11xalanc_1_1023XalanMemMgrAutoPtrArrayINS_11XalanVectorIPKNS_14XalanDOMStringENS_31MemoryManagedConstructionTraitsIS4_EEEEE22MemMgrAutoPtrArrayData12isInitilizedEv(%"class.xalanc_1_10::XalanMemMgrAutoPtrArray<xalanc_1_10::XalanVector<const xalanc_1_10::XalanDOMString *, xalanc_1_10::MemoryManagedConstructionTraits<const xalanc_1_10::XalanDOMString *> > >::MemMgrAutoPtrArrayData"* %this1), !dbg !3045
  br i1 %call, label %if.then, label %if.end, !dbg !3047

if.then:                                          ; preds = %entry
  call void @llvm.dbg.declare(metadata i64* %i, metadata !3048, metadata !DIExpression()), !dbg !3051
  store i64 0, i64* %i, align 8, !dbg !3051
  br label %for.cond, !dbg !3052

for.cond:                                         ; preds = %for.inc, %if.then
  %0 = load i64, i64* %i, align 8, !dbg !3053
  %m_size = getelementptr inbounds %"class.xalanc_1_10::XalanMemMgrAutoPtrArray<xalanc_1_10::XalanVector<const xalanc_1_10::XalanDOMString *, xalanc_1_10::MemoryManagedConstructionTraits<const xalanc_1_10::XalanDOMString *> > >::MemMgrAutoPtrArrayData", %"class.xalanc_1_10::XalanMemMgrAutoPtrArray<xalanc_1_10::XalanVector<const xalanc_1_10::XalanDOMString *, xalanc_1_10::MemoryManagedConstructionTraits<const xalanc_1_10::XalanDOMString *> > >::MemMgrAutoPtrArrayData"* %this1, i32 0, i32 2, !dbg !3055
  %1 = load i64, i64* %m_size, align 8, !dbg !3055
  %cmp = icmp ult i64 %0, %1, !dbg !3056
  br i1 %cmp, label %for.body, label %for.end, !dbg !3057

for.body:                                         ; preds = %for.cond
  %m_dataArray = getelementptr inbounds %"class.xalanc_1_10::XalanMemMgrAutoPtrArray<xalanc_1_10::XalanVector<const xalanc_1_10::XalanDOMString *, xalanc_1_10::MemoryManagedConstructionTraits<const xalanc_1_10::XalanDOMString *> > >::MemMgrAutoPtrArrayData", %"class.xalanc_1_10::XalanMemMgrAutoPtrArray<xalanc_1_10::XalanVector<const xalanc_1_10::XalanDOMString *, xalanc_1_10::MemoryManagedConstructionTraits<const xalanc_1_10::XalanDOMString *> > >::MemMgrAutoPtrArrayData"* %this1, i32 0, i32 1, !dbg !3058
  %2 = load %"class.xalanc_1_10::XalanVector.0"*, %"class.xalanc_1_10::XalanVector.0"** %m_dataArray, align 8, !dbg !3058
  %3 = load i64, i64* %i, align 8, !dbg !3060
  %arrayidx = getelementptr inbounds %"class.xalanc_1_10::XalanVector.0", %"class.xalanc_1_10::XalanVector.0"* %2, i64 %3, !dbg !3058
  call void @_ZN11xalanc_1_1011XalanVectorIPKNS_14XalanDOMStringENS_31MemoryManagedConstructionTraitsIS3_EEED2Ev(%"class.xalanc_1_10::XalanVector.0"* %arrayidx) #3, !dbg !3061
  br label %for.inc, !dbg !3062

for.inc:                                          ; preds = %for.body
  %4 = load i64, i64* %i, align 8, !dbg !3063
  %inc = add i64 %4, 1, !dbg !3063
  store i64 %inc, i64* %i, align 8, !dbg !3063
  br label %for.cond, !dbg !3064, !llvm.loop !3065

for.end:                                          ; preds = %for.cond
  %m_memoryManager = getelementptr inbounds %"class.xalanc_1_10::XalanMemMgrAutoPtrArray<xalanc_1_10::XalanVector<const xalanc_1_10::XalanDOMString *, xalanc_1_10::MemoryManagedConstructionTraits<const xalanc_1_10::XalanDOMString *> > >::MemMgrAutoPtrArrayData", %"class.xalanc_1_10::XalanMemMgrAutoPtrArray<xalanc_1_10::XalanVector<const xalanc_1_10::XalanDOMString *, xalanc_1_10::MemoryManagedConstructionTraits<const xalanc_1_10::XalanDOMString *> > >::MemMgrAutoPtrArrayData"* %this1, i32 0, i32 0, !dbg !3067
  %5 = load %"class.xercesc_2_7::MemoryManager"*, %"class.xercesc_2_7::MemoryManager"** %m_memoryManager, align 8, !dbg !3067
  %m_dataArray2 = getelementptr inbounds %"class.xalanc_1_10::XalanMemMgrAutoPtrArray<xalanc_1_10::XalanVector<const xalanc_1_10::XalanDOMString *, xalanc_1_10::MemoryManagedConstructionTraits<const xalanc_1_10::XalanDOMString *> > >::MemMgrAutoPtrArrayData", %"class.xalanc_1_10::XalanMemMgrAutoPtrArray<xalanc_1_10::XalanVector<const xalanc_1_10::XalanDOMString *, xalanc_1_10::MemoryManagedConstructionTraits<const xalanc_1_10::XalanDOMString *> > >::MemMgrAutoPtrArrayData"* %this1, i32 0, i32 1, !dbg !3068
  %6 = load %"class.xalanc_1_10::XalanVector.0"*, %"class.xalanc_1_10::XalanVector.0"** %m_dataArray2, align 8, !dbg !3068
  %7 = bitcast %"class.xalanc_1_10::XalanVector.0"* %6 to i8*, !dbg !3068
  %8 = bitcast %"class.xercesc_2_7::MemoryManager"* %5 to void (%"class.xercesc_2_7::MemoryManager"*, i8*)***, !dbg !3069
  %vtable = load void (%"class.xercesc_2_7::MemoryManager"*, i8*)**, void (%"class.xercesc_2_7::MemoryManager"*, i8*)*** %8, align 8, !dbg !3069
  %vfn = getelementptr inbounds void (%"class.xercesc_2_7::MemoryManager"*, i8*)*, void (%"class.xercesc_2_7::MemoryManager"*, i8*)** %vtable, i64 3, !dbg !3069
  %9 = load void (%"class.xercesc_2_7::MemoryManager"*, i8*)*, void (%"class.xercesc_2_7::MemoryManager"*, i8*)** %vfn, align 8, !dbg !3069
  call void %9(%"class.xercesc_2_7::MemoryManager"* %5, i8* %7), !dbg !3069
  br label %if.end, !dbg !3070

if.end:                                           ; preds = %for.end, %entry
  ret void, !dbg !3071
}

; Function Attrs: noinline nounwind uwtable
define linkonce_odr dso_local void @_ZNK11xalanc_1_1023XalanMemMgrAutoPtrArrayINS_11XalanVectorIPKNS_14XalanDOMStringENS_31MemoryManagedConstructionTraitsIS4_EEEEE22MemMgrAutoPtrArrayData10invariantsEv(%"class.xalanc_1_10::XalanMemMgrAutoPtrArray<xalanc_1_10::XalanVector<const xalanc_1_10::XalanDOMString *, xalanc_1_10::MemoryManagedConstructionTraits<const xalanc_1_10::XalanDOMString *> > >::MemMgrAutoPtrArrayData"* %this) #2 comdat align 2 !dbg !3072 {
entry:
  %this.addr = alloca %"class.xalanc_1_10::XalanMemMgrAutoPtrArray<xalanc_1_10::XalanVector<const xalanc_1_10::XalanDOMString *, xalanc_1_10::MemoryManagedConstructionTraits<const xalanc_1_10::XalanDOMString *> > >::MemMgrAutoPtrArrayData"*, align 8
  store %"class.xalanc_1_10::XalanMemMgrAutoPtrArray<xalanc_1_10::XalanVector<const xalanc_1_10::XalanDOMString *, xalanc_1_10::MemoryManagedConstructionTraits<const xalanc_1_10::XalanDOMString *> > >::MemMgrAutoPtrArrayData"* %this, %"class.xalanc_1_10::XalanMemMgrAutoPtrArray<xalanc_1_10::XalanVector<const xalanc_1_10::XalanDOMString *, xalanc_1_10::MemoryManagedConstructionTraits<const xalanc_1_10::XalanDOMString *> > >::MemMgrAutoPtrArrayData"** %this.addr, align 8
  call void @llvm.dbg.declare(metadata %"class.xalanc_1_10::XalanMemMgrAutoPtrArray<xalanc_1_10::XalanVector<const xalanc_1_10::XalanDOMString *, xalanc_1_10::MemoryManagedConstructionTraits<const xalanc_1_10::XalanDOMString *> > >::MemMgrAutoPtrArrayData"** %this.addr, metadata !3073, metadata !DIExpression()), !dbg !3075
  %this1 = load %"class.xalanc_1_10::XalanMemMgrAutoPtrArray<xalanc_1_10::XalanVector<const xalanc_1_10::XalanDOMString *, xalanc_1_10::MemoryManagedConstructionTraits<const xalanc_1_10::XalanDOMString *> > >::MemMgrAutoPtrArrayData"*, %"class.xalanc_1_10::XalanMemMgrAutoPtrArray<xalanc_1_10::XalanVector<const xalanc_1_10::XalanDOMString *, xalanc_1_10::MemoryManagedConstructionTraits<const xalanc_1_10::XalanDOMString *> > >::MemMgrAutoPtrArrayData"** %this.addr, align 8
  ret void, !dbg !3076
}

; Function Attrs: noinline nounwind uwtable
define linkonce_odr dso_local zeroext i1 @_ZNK11xalanc_1_1023XalanMemMgrAutoPtrArrayINS_11XalanVectorIPKNS_14XalanDOMStringENS_31MemoryManagedConstructionTraitsIS4_EEEEE22MemMgrAutoPtrArrayData12isInitilizedEv(%"class.xalanc_1_10::XalanMemMgrAutoPtrArray<xalanc_1_10::XalanVector<const xalanc_1_10::XalanDOMString *, xalanc_1_10::MemoryManagedConstructionTraits<const xalanc_1_10::XalanDOMString *> > >::MemMgrAutoPtrArrayData"* %this) #2 comdat align 2 !dbg !3077 {
entry:
  %this.addr = alloca %"class.xalanc_1_10::XalanMemMgrAutoPtrArray<xalanc_1_10::XalanVector<const xalanc_1_10::XalanDOMString *, xalanc_1_10::MemoryManagedConstructionTraits<const xalanc_1_10::XalanDOMString *> > >::MemMgrAutoPtrArrayData"*, align 8
  store %"class.xalanc_1_10::XalanMemMgrAutoPtrArray<xalanc_1_10::XalanVector<const xalanc_1_10::XalanDOMString *, xalanc_1_10::MemoryManagedConstructionTraits<const xalanc_1_10::XalanDOMString *> > >::MemMgrAutoPtrArrayData"* %this, %"class.xalanc_1_10::XalanMemMgrAutoPtrArray<xalanc_1_10::XalanVector<const xalanc_1_10::XalanDOMString *, xalanc_1_10::MemoryManagedConstructionTraits<const xalanc_1_10::XalanDOMString *> > >::MemMgrAutoPtrArrayData"** %this.addr, align 8
  call void @llvm.dbg.declare(metadata %"class.xalanc_1_10::XalanMemMgrAutoPtrArray<xalanc_1_10::XalanVector<const xalanc_1_10::XalanDOMString *, xalanc_1_10::MemoryManagedConstructionTraits<const xalanc_1_10::XalanDOMString *> > >::MemMgrAutoPtrArrayData"** %this.addr, metadata !3078, metadata !DIExpression()), !dbg !3079
  %this1 = load %"class.xalanc_1_10::XalanMemMgrAutoPtrArray<xalanc_1_10::XalanVector<const xalanc_1_10::XalanDOMString *, xalanc_1_10::MemoryManagedConstructionTraits<const xalanc_1_10::XalanDOMString *> > >::MemMgrAutoPtrArrayData"*, %"class.xalanc_1_10::XalanMemMgrAutoPtrArray<xalanc_1_10::XalanVector<const xalanc_1_10::XalanDOMString *, xalanc_1_10::MemoryManagedConstructionTraits<const xalanc_1_10::XalanDOMString *> > >::MemMgrAutoPtrArrayData"** %this.addr, align 8
  %m_memoryManager = getelementptr inbounds %"class.xalanc_1_10::XalanMemMgrAutoPtrArray<xalanc_1_10::XalanVector<const xalanc_1_10::XalanDOMString *, xalanc_1_10::MemoryManagedConstructionTraits<const xalanc_1_10::XalanDOMString *> > >::MemMgrAutoPtrArrayData", %"class.xalanc_1_10::XalanMemMgrAutoPtrArray<xalanc_1_10::XalanVector<const xalanc_1_10::XalanDOMString *, xalanc_1_10::MemoryManagedConstructionTraits<const xalanc_1_10::XalanDOMString *> > >::MemMgrAutoPtrArrayData"* %this1, i32 0, i32 0, !dbg !3080
  %0 = load %"class.xercesc_2_7::MemoryManager"*, %"class.xercesc_2_7::MemoryManager"** %m_memoryManager, align 8, !dbg !3080
  %cmp = icmp ne %"class.xercesc_2_7::MemoryManager"* %0, null, !dbg !3081
  br i1 %cmp, label %land.lhs.true, label %land.end, !dbg !3082

land.lhs.true:                                    ; preds = %entry
  %m_dataArray = getelementptr inbounds %"class.xalanc_1_10::XalanMemMgrAutoPtrArray<xalanc_1_10::XalanVector<const xalanc_1_10::XalanDOMString *, xalanc_1_10::MemoryManagedConstructionTraits<const xalanc_1_10::XalanDOMString *> > >::MemMgrAutoPtrArrayData", %"class.xalanc_1_10::XalanMemMgrAutoPtrArray<xalanc_1_10::XalanVector<const xalanc_1_10::XalanDOMString *, xalanc_1_10::MemoryManagedConstructionTraits<const xalanc_1_10::XalanDOMString *> > >::MemMgrAutoPtrArrayData"* %this1, i32 0, i32 1, !dbg !3083
  %1 = load %"class.xalanc_1_10::XalanVector.0"*, %"class.xalanc_1_10::XalanVector.0"** %m_dataArray, align 8, !dbg !3083
  %cmp2 = icmp ne %"class.xalanc_1_10::XalanVector.0"* %1, null, !dbg !3084
  br i1 %cmp2, label %land.rhs, label %land.end, !dbg !3085

land.rhs:                                         ; preds = %land.lhs.true
  %m_size = getelementptr inbounds %"class.xalanc_1_10::XalanMemMgrAutoPtrArray<xalanc_1_10::XalanVector<const xalanc_1_10::XalanDOMString *, xalanc_1_10::MemoryManagedConstructionTraits<const xalanc_1_10::XalanDOMString *> > >::MemMgrAutoPtrArrayData", %"class.xalanc_1_10::XalanMemMgrAutoPtrArray<xalanc_1_10::XalanVector<const xalanc_1_10::XalanDOMString *, xalanc_1_10::MemoryManagedConstructionTraits<const xalanc_1_10::XalanDOMString *> > >::MemMgrAutoPtrArrayData"* %this1, i32 0, i32 2, !dbg !3086
  %2 = load i64, i64* %m_size, align 8, !dbg !3086
  %cmp3 = icmp ne i64 %2, 0, !dbg !3087
  br label %land.end

land.end:                                         ; preds = %land.rhs, %land.lhs.true, %entry
  %3 = phi i1 [ false, %land.lhs.true ], [ false, %entry ], [ %cmp3, %land.rhs ], !dbg !3079
  ret i1 %3, !dbg !3088
}

; Function Attrs: noinline nounwind uwtable
define linkonce_odr dso_local void @_ZN11xalanc_1_1011XalanVectorIPKNS_14XalanDOMStringENS_31MemoryManagedConstructionTraitsIS3_EEED2Ev(%"class.xalanc_1_10::XalanVector.0"* %this) unnamed_addr #2 comdat align 2 personality i8* bitcast (i32 (...)* @__gxx_personality_v0 to i8*) !dbg !3089 {
entry:
  %this.addr = alloca %"class.xalanc_1_10::XalanVector.0"*, align 8
  store %"class.xalanc_1_10::XalanVector.0"* %this, %"class.xalanc_1_10::XalanVector.0"** %this.addr, align 8
  call void @llvm.dbg.declare(metadata %"class.xalanc_1_10::XalanVector.0"** %this.addr, metadata !3090, metadata !DIExpression()), !dbg !3091
  %this1 = load %"class.xalanc_1_10::XalanVector.0"*, %"class.xalanc_1_10::XalanVector.0"** %this.addr, align 8
  invoke void @_ZNK11xalanc_1_1011XalanVectorIPKNS_14XalanDOMStringENS_31MemoryManagedConstructionTraitsIS3_EEE10invariantsEv(%"class.xalanc_1_10::XalanVector.0"* %this1)
          to label %invoke.cont unwind label %terminate.lpad, !dbg !3092

invoke.cont:                                      ; preds = %entry
  %m_allocation = getelementptr inbounds %"class.xalanc_1_10::XalanVector.0", %"class.xalanc_1_10::XalanVector.0"* %this1, i32 0, i32 2, !dbg !3094
  %0 = load i64, i64* %m_allocation, align 8, !dbg !3094
  %cmp = icmp ne i64 %0, 0, !dbg !3096
  br i1 %cmp, label %if.then, label %if.end, !dbg !3097

if.then:                                          ; preds = %invoke.cont
  %call = invoke %"class.xalanc_1_10::XalanDOMString"** @_ZN11xalanc_1_1011XalanVectorIPKNS_14XalanDOMStringENS_31MemoryManagedConstructionTraitsIS3_EEE5beginEv(%"class.xalanc_1_10::XalanVector.0"* %this1)
          to label %invoke.cont2 unwind label %terminate.lpad, !dbg !3098

invoke.cont2:                                     ; preds = %if.then
  %call4 = invoke %"class.xalanc_1_10::XalanDOMString"** @_ZN11xalanc_1_1011XalanVectorIPKNS_14XalanDOMStringENS_31MemoryManagedConstructionTraitsIS3_EEE3endEv(%"class.xalanc_1_10::XalanVector.0"* %this1)
          to label %invoke.cont3 unwind label %terminate.lpad, !dbg !3100

invoke.cont3:                                     ; preds = %invoke.cont2
  invoke void @_ZN11xalanc_1_1011XalanVectorIPKNS_14XalanDOMStringENS_31MemoryManagedConstructionTraitsIS3_EEE7destroyEPS3_S7_(%"class.xalanc_1_10::XalanDOMString"** %call, %"class.xalanc_1_10::XalanDOMString"** %call4)
          to label %invoke.cont5 unwind label %terminate.lpad, !dbg !3101

invoke.cont5:                                     ; preds = %invoke.cont3
  %m_data = getelementptr inbounds %"class.xalanc_1_10::XalanVector.0", %"class.xalanc_1_10::XalanVector.0"* %this1, i32 0, i32 3, !dbg !3102
  %1 = load %"class.xalanc_1_10::XalanDOMString"**, %"class.xalanc_1_10::XalanDOMString"*** %m_data, align 8, !dbg !3102
  invoke void @_ZN11xalanc_1_1011XalanVectorIPKNS_14XalanDOMStringENS_31MemoryManagedConstructionTraitsIS3_EEE10deallocateEPS3_(%"class.xalanc_1_10::XalanVector.0"* %this1, %"class.xalanc_1_10::XalanDOMString"** %1)
          to label %invoke.cont6 unwind label %terminate.lpad, !dbg !3103

invoke.cont6:                                     ; preds = %invoke.cont5
  br label %if.end, !dbg !3104

if.end:                                           ; preds = %invoke.cont6, %invoke.cont
  ret void, !dbg !3105

terminate.lpad:                                   ; preds = %invoke.cont5, %invoke.cont3, %invoke.cont2, %if.then, %entry
  %2 = landingpad { i8*, i32 }
          catch i8* null, !dbg !3092
  %3 = extractvalue { i8*, i32 } %2, 0, !dbg !3092
  call void @__clang_call_terminate(i8* %3) #9, !dbg !3092
  unreachable, !dbg !3092
}

; Function Attrs: noinline nounwind uwtable
define linkonce_odr dso_local void @_ZNK11xalanc_1_1011XalanVectorIPKNS_14XalanDOMStringENS_31MemoryManagedConstructionTraitsIS3_EEE10invariantsEv(%"class.xalanc_1_10::XalanVector.0"* %this) #2 comdat align 2 !dbg !3106 {
entry:
  %this.addr = alloca %"class.xalanc_1_10::XalanVector.0"*, align 8
  store %"class.xalanc_1_10::XalanVector.0"* %this, %"class.xalanc_1_10::XalanVector.0"** %this.addr, align 8
  call void @llvm.dbg.declare(metadata %"class.xalanc_1_10::XalanVector.0"** %this.addr, metadata !3107, metadata !DIExpression()), !dbg !3109
  %this1 = load %"class.xalanc_1_10::XalanVector.0"*, %"class.xalanc_1_10::XalanVector.0"** %this.addr, align 8
  ret void, !dbg !3110
}

; Function Attrs: noinline uwtable
define linkonce_odr dso_local void @_ZN11xalanc_1_1011XalanVectorIPKNS_14XalanDOMStringENS_31MemoryManagedConstructionTraitsIS3_EEE7destroyEPS3_S7_(%"class.xalanc_1_10::XalanDOMString"** %theFirst, %"class.xalanc_1_10::XalanDOMString"** %theLast) #0 comdat align 2 !dbg !3111 {
entry:
  %theFirst.addr = alloca %"class.xalanc_1_10::XalanDOMString"**, align 8
  %theLast.addr = alloca %"class.xalanc_1_10::XalanDOMString"**, align 8
  store %"class.xalanc_1_10::XalanDOMString"** %theFirst, %"class.xalanc_1_10::XalanDOMString"*** %theFirst.addr, align 8
  call void @llvm.dbg.declare(metadata %"class.xalanc_1_10::XalanDOMString"*** %theFirst.addr, metadata !3112, metadata !DIExpression()), !dbg !3113
  store %"class.xalanc_1_10::XalanDOMString"** %theLast, %"class.xalanc_1_10::XalanDOMString"*** %theLast.addr, align 8
  call void @llvm.dbg.declare(metadata %"class.xalanc_1_10::XalanDOMString"*** %theLast.addr, metadata !3114, metadata !DIExpression()), !dbg !3115
  br label %for.cond, !dbg !3116

for.cond:                                         ; preds = %for.inc, %entry
  %0 = load %"class.xalanc_1_10::XalanDOMString"**, %"class.xalanc_1_10::XalanDOMString"*** %theFirst.addr, align 8, !dbg !3117
  %1 = load %"class.xalanc_1_10::XalanDOMString"**, %"class.xalanc_1_10::XalanDOMString"*** %theLast.addr, align 8, !dbg !3120
  %cmp = icmp ne %"class.xalanc_1_10::XalanDOMString"** %0, %1, !dbg !3121
  br i1 %cmp, label %for.body, label %for.end, !dbg !3122

for.body:                                         ; preds = %for.cond
  %2 = load %"class.xalanc_1_10::XalanDOMString"**, %"class.xalanc_1_10::XalanDOMString"*** %theFirst.addr, align 8, !dbg !3123
  call void @_ZN11xalanc_1_1011XalanVectorIPKNS_14XalanDOMStringENS_31MemoryManagedConstructionTraitsIS3_EEE7destroyERS3_(%"class.xalanc_1_10::XalanDOMString"** dereferenceable(8) %2), !dbg !3125
  br label %for.inc, !dbg !3126

for.inc:                                          ; preds = %for.body
  %3 = load %"class.xalanc_1_10::XalanDOMString"**, %"class.xalanc_1_10::XalanDOMString"*** %theFirst.addr, align 8, !dbg !3127
  %incdec.ptr = getelementptr inbounds %"class.xalanc_1_10::XalanDOMString"*, %"class.xalanc_1_10::XalanDOMString"** %3, i32 1, !dbg !3127
  store %"class.xalanc_1_10::XalanDOMString"** %incdec.ptr, %"class.xalanc_1_10::XalanDOMString"*** %theFirst.addr, align 8, !dbg !3127
  br label %for.cond, !dbg !3128, !llvm.loop !3129

for.end:                                          ; preds = %for.cond
  ret void, !dbg !3131
}

; Function Attrs: noinline nounwind uwtable
define linkonce_odr dso_local %"class.xalanc_1_10::XalanDOMString"** @_ZN11xalanc_1_1011XalanVectorIPKNS_14XalanDOMStringENS_31MemoryManagedConstructionTraitsIS3_EEE5beginEv(%"class.xalanc_1_10::XalanVector.0"* %this) #2 comdat align 2 !dbg !3132 {
entry:
  %this.addr = alloca %"class.xalanc_1_10::XalanVector.0"*, align 8
  store %"class.xalanc_1_10::XalanVector.0"* %this, %"class.xalanc_1_10::XalanVector.0"** %this.addr, align 8
  call void @llvm.dbg.declare(metadata %"class.xalanc_1_10::XalanVector.0"** %this.addr, metadata !3133, metadata !DIExpression()), !dbg !3134
  %this1 = load %"class.xalanc_1_10::XalanVector.0"*, %"class.xalanc_1_10::XalanVector.0"** %this.addr, align 8
  call void @_ZNK11xalanc_1_1011XalanVectorIPKNS_14XalanDOMStringENS_31MemoryManagedConstructionTraitsIS3_EEE10invariantsEv(%"class.xalanc_1_10::XalanVector.0"* %this1), !dbg !3135
  %m_data = getelementptr inbounds %"class.xalanc_1_10::XalanVector.0", %"class.xalanc_1_10::XalanVector.0"* %this1, i32 0, i32 3, !dbg !3136
  %0 = load %"class.xalanc_1_10::XalanDOMString"**, %"class.xalanc_1_10::XalanDOMString"*** %m_data, align 8, !dbg !3136
  ret %"class.xalanc_1_10::XalanDOMString"** %0, !dbg !3137
}

; Function Attrs: noinline uwtable
define linkonce_odr dso_local %"class.xalanc_1_10::XalanDOMString"** @_ZN11xalanc_1_1011XalanVectorIPKNS_14XalanDOMStringENS_31MemoryManagedConstructionTraitsIS3_EEE3endEv(%"class.xalanc_1_10::XalanVector.0"* %this) #0 comdat align 2 !dbg !3138 {
entry:
  %this.addr = alloca %"class.xalanc_1_10::XalanVector.0"*, align 8
  store %"class.xalanc_1_10::XalanVector.0"* %this, %"class.xalanc_1_10::XalanVector.0"** %this.addr, align 8
  call void @llvm.dbg.declare(metadata %"class.xalanc_1_10::XalanVector.0"** %this.addr, metadata !3139, metadata !DIExpression()), !dbg !3140
  %this1 = load %"class.xalanc_1_10::XalanVector.0"*, %"class.xalanc_1_10::XalanVector.0"** %this.addr, align 8
  call void @_ZNK11xalanc_1_1011XalanVectorIPKNS_14XalanDOMStringENS_31MemoryManagedConstructionTraitsIS3_EEE10invariantsEv(%"class.xalanc_1_10::XalanVector.0"* %this1), !dbg !3141
  %call = call %"class.xalanc_1_10::XalanDOMString"** @_ZN11xalanc_1_1011XalanVectorIPKNS_14XalanDOMStringENS_31MemoryManagedConstructionTraitsIS3_EEE10endPointerEv(%"class.xalanc_1_10::XalanVector.0"* %this1), !dbg !3142
  ret %"class.xalanc_1_10::XalanDOMString"** %call, !dbg !3143
}

; Function Attrs: noinline uwtable
define linkonce_odr dso_local void @_ZN11xalanc_1_1011XalanVectorIPKNS_14XalanDOMStringENS_31MemoryManagedConstructionTraitsIS3_EEE10deallocateEPS3_(%"class.xalanc_1_10::XalanVector.0"* %this, %"class.xalanc_1_10::XalanDOMString"** %pointer) #0 comdat align 2 !dbg !3144 {
entry:
  %this.addr = alloca %"class.xalanc_1_10::XalanVector.0"*, align 8
  %pointer.addr = alloca %"class.xalanc_1_10::XalanDOMString"**, align 8
  store %"class.xalanc_1_10::XalanVector.0"* %this, %"class.xalanc_1_10::XalanVector.0"** %this.addr, align 8
  call void @llvm.dbg.declare(metadata %"class.xalanc_1_10::XalanVector.0"** %this.addr, metadata !3145, metadata !DIExpression()), !dbg !3146
  store %"class.xalanc_1_10::XalanDOMString"** %pointer, %"class.xalanc_1_10::XalanDOMString"*** %pointer.addr, align 8
  call void @llvm.dbg.declare(metadata %"class.xalanc_1_10::XalanDOMString"*** %pointer.addr, metadata !3147, metadata !DIExpression()), !dbg !3148
  %this1 = load %"class.xalanc_1_10::XalanVector.0"*, %"class.xalanc_1_10::XalanVector.0"** %this.addr, align 8
  %m_memoryManager = getelementptr inbounds %"class.xalanc_1_10::XalanVector.0", %"class.xalanc_1_10::XalanVector.0"* %this1, i32 0, i32 0, !dbg !3149
  %0 = load %"class.xercesc_2_7::MemoryManager"*, %"class.xercesc_2_7::MemoryManager"** %m_memoryManager, align 8, !dbg !3149
  %1 = load %"class.xalanc_1_10::XalanDOMString"**, %"class.xalanc_1_10::XalanDOMString"*** %pointer.addr, align 8, !dbg !3150
  %2 = bitcast %"class.xalanc_1_10::XalanDOMString"** %1 to i8*, !dbg !3150
  %3 = bitcast %"class.xercesc_2_7::MemoryManager"* %0 to void (%"class.xercesc_2_7::MemoryManager"*, i8*)***, !dbg !3151
  %vtable = load void (%"class.xercesc_2_7::MemoryManager"*, i8*)**, void (%"class.xercesc_2_7::MemoryManager"*, i8*)*** %3, align 8, !dbg !3151
  %vfn = getelementptr inbounds void (%"class.xercesc_2_7::MemoryManager"*, i8*)*, void (%"class.xercesc_2_7::MemoryManager"*, i8*)** %vtable, i64 3, !dbg !3151
  %4 = load void (%"class.xercesc_2_7::MemoryManager"*, i8*)*, void (%"class.xercesc_2_7::MemoryManager"*, i8*)** %vfn, align 8, !dbg !3151
  call void %4(%"class.xercesc_2_7::MemoryManager"* %0, i8* %2), !dbg !3151
  ret void, !dbg !3152
}

; Function Attrs: noinline nounwind uwtable
define linkonce_odr dso_local void @_ZN11xalanc_1_1011XalanVectorIPKNS_14XalanDOMStringENS_31MemoryManagedConstructionTraitsIS3_EEE7destroyERS3_(%"class.xalanc_1_10::XalanDOMString"** dereferenceable(8) %theValue) #2 comdat align 2 !dbg !3153 {
entry:
  %theValue.addr = alloca %"class.xalanc_1_10::XalanDOMString"**, align 8
  store %"class.xalanc_1_10::XalanDOMString"** %theValue, %"class.xalanc_1_10::XalanDOMString"*** %theValue.addr, align 8
  call void @llvm.dbg.declare(metadata %"class.xalanc_1_10::XalanDOMString"*** %theValue.addr, metadata !3154, metadata !DIExpression()), !dbg !3155
  %0 = load %"class.xalanc_1_10::XalanDOMString"**, %"class.xalanc_1_10::XalanDOMString"*** %theValue.addr, align 8, !dbg !3156
  ret void, !dbg !3157
}

; Function Attrs: noinline nounwind uwtable
define linkonce_odr dso_local %"class.xalanc_1_10::XalanDOMString"** @_ZN11xalanc_1_1011XalanVectorIPKNS_14XalanDOMStringENS_31MemoryManagedConstructionTraitsIS3_EEE10endPointerEv(%"class.xalanc_1_10::XalanVector.0"* %this) #2 comdat align 2 !dbg !3158 {
entry:
  %this.addr = alloca %"class.xalanc_1_10::XalanVector.0"*, align 8
  store %"class.xalanc_1_10::XalanVector.0"* %this, %"class.xalanc_1_10::XalanVector.0"** %this.addr, align 8
  call void @llvm.dbg.declare(metadata %"class.xalanc_1_10::XalanVector.0"** %this.addr, metadata !3159, metadata !DIExpression()), !dbg !3160
  %this1 = load %"class.xalanc_1_10::XalanVector.0"*, %"class.xalanc_1_10::XalanVector.0"** %this.addr, align 8
  %m_data = getelementptr inbounds %"class.xalanc_1_10::XalanVector.0", %"class.xalanc_1_10::XalanVector.0"* %this1, i32 0, i32 3, !dbg !3161
  %0 = load %"class.xalanc_1_10::XalanDOMString"**, %"class.xalanc_1_10::XalanDOMString"*** %m_data, align 8, !dbg !3161
  %m_size = getelementptr inbounds %"class.xalanc_1_10::XalanVector.0", %"class.xalanc_1_10::XalanVector.0"* %this1, i32 0, i32 1, !dbg !3162
  %1 = load i64, i64* %m_size, align 8, !dbg !3162
  %add.ptr = getelementptr inbounds %"class.xalanc_1_10::XalanDOMString"*, %"class.xalanc_1_10::XalanDOMString"** %0, i64 %1, !dbg !3163
  ret %"class.xalanc_1_10::XalanDOMString"** %add.ptr, !dbg !3164
}

; Function Attrs: noinline uwtable
define linkonce_odr dso_local void @_ZN11xalanc_1_1014ArenaAllocatorINS_14XalanDOMStringENS_10ArenaBlockIS1_mEEE5resetEv(%"class.xalanc_1_10::ArenaAllocator"* %this) unnamed_addr #0 comdat align 2 !dbg !3165 {
entry:
  %this.addr = alloca %"class.xalanc_1_10::ArenaAllocator"*, align 8
  %agg.tmp = alloca %"struct.xalanc_1_10::XalanListIteratorBase", align 8
  %agg.tmp2 = alloca %"struct.xalanc_1_10::XalanListIteratorBase", align 8
  %agg.tmp4 = alloca %"struct.xalanc_1_10::DeleteFunctor", align 8
  %coerce = alloca %"struct.xalanc_1_10::DeleteFunctor", align 8
  store %"class.xalanc_1_10::ArenaAllocator"* %this, %"class.xalanc_1_10::ArenaAllocator"** %this.addr, align 8
  call void @llvm.dbg.declare(metadata %"class.xalanc_1_10::ArenaAllocator"** %this.addr, metadata !3170, metadata !DIExpression()), !dbg !3172
  %this1 = load %"class.xalanc_1_10::ArenaAllocator"*, %"class.xalanc_1_10::ArenaAllocator"** %this.addr, align 8
  %m_blocks = getelementptr inbounds %"class.xalanc_1_10::ArenaAllocator", %"class.xalanc_1_10::ArenaAllocator"* %this1, i32 0, i32 2, !dbg !3173
  call void @_ZN11xalanc_1_109XalanListIPNS_10ArenaBlockINS_14XalanDOMStringEmEEE5beginEv(%"struct.xalanc_1_10::XalanListIteratorBase"* sret %agg.tmp, %"class.xalanc_1_10::XalanList"* %m_blocks), !dbg !3174
  %m_blocks3 = getelementptr inbounds %"class.xalanc_1_10::ArenaAllocator", %"class.xalanc_1_10::ArenaAllocator"* %this1, i32 0, i32 2, !dbg !3175
  call void @_ZN11xalanc_1_109XalanListIPNS_10ArenaBlockINS_14XalanDOMStringEmEEE3endEv(%"struct.xalanc_1_10::XalanListIteratorBase"* sret %agg.tmp2, %"class.xalanc_1_10::XalanList"* %m_blocks3), !dbg !3176
  %m_blocks5 = getelementptr inbounds %"class.xalanc_1_10::ArenaAllocator", %"class.xalanc_1_10::ArenaAllocator"* %this1, i32 0, i32 2, !dbg !3177
  %call = call dereferenceable(8) %"class.xercesc_2_7::MemoryManager"* @_ZN11xalanc_1_109XalanListIPNS_10ArenaBlockINS_14XalanDOMStringEmEEE16getMemoryManagerEv(%"class.xalanc_1_10::XalanList"* %m_blocks5), !dbg !3178
  call void @_ZN11xalanc_1_1013DeleteFunctorINS_10ArenaBlockINS_14XalanDOMStringEmEEEC2ERN11xercesc_2_713MemoryManagerE(%"struct.xalanc_1_10::DeleteFunctor"* %agg.tmp4, %"class.xercesc_2_7::MemoryManager"* dereferenceable(8) %call), !dbg !3179
  %coerce.dive = getelementptr inbounds %"struct.xalanc_1_10::DeleteFunctor", %"struct.xalanc_1_10::DeleteFunctor"* %agg.tmp4, i32 0, i32 0, !dbg !3180
  %0 = load %"class.xercesc_2_7::MemoryManager"*, %"class.xercesc_2_7::MemoryManager"** %coerce.dive, align 8, !dbg !3180
  %call6 = call %"class.xercesc_2_7::MemoryManager"* @_ZSt8for_eachIN11xalanc_1_1021XalanListIteratorBaseINS0_23XalanListIteratorTraitsIPNS0_10ArenaBlockINS0_14XalanDOMStringEmEEEENS0_9XalanListIS6_E4NodeEEENS0_13DeleteFunctorIS5_EEET0_T_SF_SE_(%"struct.xalanc_1_10::XalanListIteratorBase"* %agg.tmp, %"struct.xalanc_1_10::XalanListIteratorBase"* %agg.tmp2, %"class.xercesc_2_7::MemoryManager"* %0), !dbg !3180
  %coerce.dive7 = getelementptr inbounds %"struct.xalanc_1_10::DeleteFunctor", %"struct.xalanc_1_10::DeleteFunctor"* %coerce, i32 0, i32 0, !dbg !3180
  store %"class.xercesc_2_7::MemoryManager"* %call6, %"class.xercesc_2_7::MemoryManager"** %coerce.dive7, align 8, !dbg !3180
  %m_blocks8 = getelementptr inbounds %"class.xalanc_1_10::ArenaAllocator", %"class.xalanc_1_10::ArenaAllocator"* %this1, i32 0, i32 2, !dbg !3181
  call void @_ZN11xalanc_1_109XalanListIPNS_10ArenaBlockINS_14XalanDOMStringEmEEE5clearEv(%"class.xalanc_1_10::XalanList"* %m_blocks8), !dbg !3182
  ret void, !dbg !3183
}

; Function Attrs: noinline uwtable
define linkonce_odr dso_local %"class.xercesc_2_7::MemoryManager"* @_ZSt8for_eachIN11xalanc_1_1021XalanListIteratorBaseINS0_23XalanListIteratorTraitsIPNS0_10ArenaBlockINS0_14XalanDOMStringEmEEEENS0_9XalanListIS6_E4NodeEEENS0_13DeleteFunctorIS5_EEET0_T_SF_SE_(%"struct.xalanc_1_10::XalanListIteratorBase"* %__first, %"struct.xalanc_1_10::XalanListIteratorBase"* %__last, %"class.xercesc_2_7::MemoryManager"* %__f.coerce) #0 comdat !dbg !3184 {
entry:
  %retval = alloca %"struct.xalanc_1_10::DeleteFunctor", align 8
  %__f = alloca %"struct.xalanc_1_10::DeleteFunctor", align 8
  %tmp = alloca %"struct.xalanc_1_10::XalanListIteratorBase", align 8
  %coerce.dive = getelementptr inbounds %"struct.xalanc_1_10::DeleteFunctor", %"struct.xalanc_1_10::DeleteFunctor"* %__f, i32 0, i32 0
  store %"class.xercesc_2_7::MemoryManager"* %__f.coerce, %"class.xercesc_2_7::MemoryManager"** %coerce.dive, align 8
  call void @llvm.dbg.declare(metadata %"struct.xalanc_1_10::XalanListIteratorBase"* %__first, metadata !3191, metadata !DIExpression()), !dbg !3192
  call void @llvm.dbg.declare(metadata %"struct.xalanc_1_10::XalanListIteratorBase"* %__last, metadata !3193, metadata !DIExpression()), !dbg !3194
  call void @llvm.dbg.declare(metadata %"struct.xalanc_1_10::DeleteFunctor"* %__f, metadata !3195, metadata !DIExpression()), !dbg !3196
  br label %for.cond, !dbg !3197

for.cond:                                         ; preds = %for.inc, %entry
  %call = call zeroext i1 @_ZNK11xalanc_1_1021XalanListIteratorBaseINS_23XalanListIteratorTraitsIPNS_10ArenaBlockINS_14XalanDOMStringEmEEEENS_9XalanListIS5_E4NodeEEneERKSA_(%"struct.xalanc_1_10::XalanListIteratorBase"* %__first, %"struct.xalanc_1_10::XalanListIteratorBase"* dereferenceable(8) %__last), !dbg !3198
  br i1 %call, label %for.body, label %for.end, !dbg !3201

for.body:                                         ; preds = %for.cond
  %call1 = call dereferenceable(8) %"class.xalanc_1_10::ArenaBlock"** @_ZNK11xalanc_1_1021XalanListIteratorBaseINS_23XalanListIteratorTraitsIPNS_10ArenaBlockINS_14XalanDOMStringEmEEEENS_9XalanListIS5_E4NodeEEdeEv(%"struct.xalanc_1_10::XalanListIteratorBase"* %__first), !dbg !3202
  %0 = load %"class.xalanc_1_10::ArenaBlock"*, %"class.xalanc_1_10::ArenaBlock"** %call1, align 8, !dbg !3202
  call void @_ZNK11xalanc_1_1013DeleteFunctorINS_10ArenaBlockINS_14XalanDOMStringEmEEEclEPKS3_(%"struct.xalanc_1_10::DeleteFunctor"* %__f, %"class.xalanc_1_10::ArenaBlock"* %0), !dbg !3203
  br label %for.inc, !dbg !3203

for.inc:                                          ; preds = %for.body
  call void @_ZN11xalanc_1_1021XalanListIteratorBaseINS_23XalanListIteratorTraitsIPNS_10ArenaBlockINS_14XalanDOMStringEmEEEENS_9XalanListIS5_E4NodeEEppEv(%"struct.xalanc_1_10::XalanListIteratorBase"* sret %tmp, %"struct.xalanc_1_10::XalanListIteratorBase"* %__first), !dbg !3204
  br label %for.cond, !dbg !3205, !llvm.loop !3206

for.end:                                          ; preds = %for.cond
  %1 = bitcast %"struct.xalanc_1_10::DeleteFunctor"* %retval to i8*, !dbg !3208
  %2 = bitcast %"struct.xalanc_1_10::DeleteFunctor"* %__f to i8*, !dbg !3208
  call void @llvm.memcpy.p0i8.p0i8.i64(i8* align 8 %1, i8* align 8 %2, i64 8, i1 false), !dbg !3208
  %coerce.dive2 = getelementptr inbounds %"struct.xalanc_1_10::DeleteFunctor", %"struct.xalanc_1_10::DeleteFunctor"* %retval, i32 0, i32 0, !dbg !3209
  %3 = load %"class.xercesc_2_7::MemoryManager"*, %"class.xercesc_2_7::MemoryManager"** %coerce.dive2, align 8, !dbg !3209
  ret %"class.xercesc_2_7::MemoryManager"* %3, !dbg !3209
}

; Function Attrs: noinline uwtable
define linkonce_odr dso_local void @_ZN11xalanc_1_109XalanListIPNS_10ArenaBlockINS_14XalanDOMStringEmEEE5beginEv(%"struct.xalanc_1_10::XalanListIteratorBase"* noalias sret %agg.result, %"class.xalanc_1_10::XalanList"* %this) #0 comdat align 2 !dbg !3210 {
entry:
  %result.ptr = alloca i8*, align 8
  %this.addr = alloca %"class.xalanc_1_10::XalanList"*, align 8
  %0 = bitcast %"struct.xalanc_1_10::XalanListIteratorBase"* %agg.result to i8*
  store i8* %0, i8** %result.ptr, align 8
  store %"class.xalanc_1_10::XalanList"* %this, %"class.xalanc_1_10::XalanList"** %this.addr, align 8
  call void @llvm.dbg.declare(metadata %"class.xalanc_1_10::XalanList"** %this.addr, metadata !3211, metadata !DIExpression()), !dbg !3213
  %this1 = load %"class.xalanc_1_10::XalanList"*, %"class.xalanc_1_10::XalanList"** %this.addr, align 8
  %call = call dereferenceable(24) %"struct.xalanc_1_10::XalanList<xalanc_1_10::ArenaBlock<xalanc_1_10::XalanDOMString, unsigned long> *>::Node"* @_ZN11xalanc_1_109XalanListIPNS_10ArenaBlockINS_14XalanDOMStringEmEEE11getListHeadEv(%"class.xalanc_1_10::XalanList"* %this1), !dbg !3214
  %next = getelementptr inbounds %"struct.xalanc_1_10::XalanList<xalanc_1_10::ArenaBlock<xalanc_1_10::XalanDOMString, unsigned long> *>::Node", %"struct.xalanc_1_10::XalanList<xalanc_1_10::ArenaBlock<xalanc_1_10::XalanDOMString, unsigned long> *>::Node"* %call, i32 0, i32 2, !dbg !3215
  %1 = load %"struct.xalanc_1_10::XalanList<xalanc_1_10::ArenaBlock<xalanc_1_10::XalanDOMString, unsigned long> *>::Node"*, %"struct.xalanc_1_10::XalanList<xalanc_1_10::ArenaBlock<xalanc_1_10::XalanDOMString, unsigned long> *>::Node"** %next, align 8, !dbg !3215
  call void @_ZN11xalanc_1_1021XalanListIteratorBaseINS_23XalanListIteratorTraitsIPNS_10ArenaBlockINS_14XalanDOMStringEmEEEENS_9XalanListIS5_E4NodeEEC2ERS9_(%"struct.xalanc_1_10::XalanListIteratorBase"* %agg.result, %"struct.xalanc_1_10::XalanList<xalanc_1_10::ArenaBlock<xalanc_1_10::XalanDOMString, unsigned long> *>::Node"* dereferenceable(24) %1), !dbg !3216
  ret void, !dbg !3217
}

; Function Attrs: noinline uwtable
define linkonce_odr dso_local void @_ZN11xalanc_1_109XalanListIPNS_10ArenaBlockINS_14XalanDOMStringEmEEE3endEv(%"struct.xalanc_1_10::XalanListIteratorBase"* noalias sret %agg.result, %"class.xalanc_1_10::XalanList"* %this) #0 comdat align 2 !dbg !3218 {
entry:
  %result.ptr = alloca i8*, align 8
  %this.addr = alloca %"class.xalanc_1_10::XalanList"*, align 8
  %0 = bitcast %"struct.xalanc_1_10::XalanListIteratorBase"* %agg.result to i8*
  store i8* %0, i8** %result.ptr, align 8
  store %"class.xalanc_1_10::XalanList"* %this, %"class.xalanc_1_10::XalanList"** %this.addr, align 8
  call void @llvm.dbg.declare(metadata %"class.xalanc_1_10::XalanList"** %this.addr, metadata !3219, metadata !DIExpression()), !dbg !3220
  %this1 = load %"class.xalanc_1_10::XalanList"*, %"class.xalanc_1_10::XalanList"** %this.addr, align 8
  %call = call dereferenceable(24) %"struct.xalanc_1_10::XalanList<xalanc_1_10::ArenaBlock<xalanc_1_10::XalanDOMString, unsigned long> *>::Node"* @_ZN11xalanc_1_109XalanListIPNS_10ArenaBlockINS_14XalanDOMStringEmEEE11getListHeadEv(%"class.xalanc_1_10::XalanList"* %this1), !dbg !3221
  call void @_ZN11xalanc_1_1021XalanListIteratorBaseINS_23XalanListIteratorTraitsIPNS_10ArenaBlockINS_14XalanDOMStringEmEEEENS_9XalanListIS5_E4NodeEEC2ERS9_(%"struct.xalanc_1_10::XalanListIteratorBase"* %agg.result, %"struct.xalanc_1_10::XalanList<xalanc_1_10::ArenaBlock<xalanc_1_10::XalanDOMString, unsigned long> *>::Node"* dereferenceable(24) %call), !dbg !3222
  ret void, !dbg !3223
}

; Function Attrs: noinline nounwind uwtable
define linkonce_odr dso_local dereferenceable(8) %"class.xercesc_2_7::MemoryManager"* @_ZN11xalanc_1_109XalanListIPNS_10ArenaBlockINS_14XalanDOMStringEmEEE16getMemoryManagerEv(%"class.xalanc_1_10::XalanList"* %this) #2 comdat align 2 !dbg !3224 {
entry:
  %this.addr = alloca %"class.xalanc_1_10::XalanList"*, align 8
  store %"class.xalanc_1_10::XalanList"* %this, %"class.xalanc_1_10::XalanList"** %this.addr, align 8
  call void @llvm.dbg.declare(metadata %"class.xalanc_1_10::XalanList"** %this.addr, metadata !3225, metadata !DIExpression()), !dbg !3226
  %this1 = load %"class.xalanc_1_10::XalanList"*, %"class.xalanc_1_10::XalanList"** %this.addr, align 8
  %m_memoryManager = getelementptr inbounds %"class.xalanc_1_10::XalanList", %"class.xalanc_1_10::XalanList"* %this1, i32 0, i32 0, !dbg !3227
  %0 = load %"class.xercesc_2_7::MemoryManager"*, %"class.xercesc_2_7::MemoryManager"** %m_memoryManager, align 8, !dbg !3227
  ret %"class.xercesc_2_7::MemoryManager"* %0, !dbg !3228
}

; Function Attrs: noinline nounwind uwtable
define linkonce_odr dso_local void @_ZN11xalanc_1_1013DeleteFunctorINS_10ArenaBlockINS_14XalanDOMStringEmEEEC2ERN11xercesc_2_713MemoryManagerE(%"struct.xalanc_1_10::DeleteFunctor"* %this, %"class.xercesc_2_7::MemoryManager"* dereferenceable(8) %theManager) unnamed_addr #2 comdat align 2 !dbg !3229 {
entry:
  %this.addr = alloca %"struct.xalanc_1_10::DeleteFunctor"*, align 8
  %theManager.addr = alloca %"class.xercesc_2_7::MemoryManager"*, align 8
  store %"struct.xalanc_1_10::DeleteFunctor"* %this, %"struct.xalanc_1_10::DeleteFunctor"** %this.addr, align 8
  call void @llvm.dbg.declare(metadata %"struct.xalanc_1_10::DeleteFunctor"** %this.addr, metadata !3230, metadata !DIExpression()), !dbg !3232
  store %"class.xercesc_2_7::MemoryManager"* %theManager, %"class.xercesc_2_7::MemoryManager"** %theManager.addr, align 8
  call void @llvm.dbg.declare(metadata %"class.xercesc_2_7::MemoryManager"** %theManager.addr, metadata !3233, metadata !DIExpression()), !dbg !3234
  %this1 = load %"struct.xalanc_1_10::DeleteFunctor"*, %"struct.xalanc_1_10::DeleteFunctor"** %this.addr, align 8
  %0 = bitcast %"struct.xalanc_1_10::DeleteFunctor"* %this1 to %"struct.std::unary_function"*, !dbg !3235
  %m_memoryManager = getelementptr inbounds %"struct.xalanc_1_10::DeleteFunctor", %"struct.xalanc_1_10::DeleteFunctor"* %this1, i32 0, i32 0, !dbg !3236
  %1 = load %"class.xercesc_2_7::MemoryManager"*, %"class.xercesc_2_7::MemoryManager"** %theManager.addr, align 8, !dbg !3237
  store %"class.xercesc_2_7::MemoryManager"* %1, %"class.xercesc_2_7::MemoryManager"** %m_memoryManager, align 8, !dbg !3236
  ret void, !dbg !3238
}

; Function Attrs: noinline uwtable
define linkonce_odr dso_local void @_ZN11xalanc_1_109XalanListIPNS_10ArenaBlockINS_14XalanDOMStringEmEEE5clearEv(%"class.xalanc_1_10::XalanList"* %this) #0 comdat align 2 !dbg !3239 {
entry:
  %this.addr = alloca %"class.xalanc_1_10::XalanList"*, align 8
  %pos = alloca %"struct.xalanc_1_10::XalanListIteratorBase", align 8
  %ref.tmp = alloca %"struct.xalanc_1_10::XalanListIteratorBase", align 8
  %ref.tmp2 = alloca %"struct.xalanc_1_10::XalanListIteratorBase", align 8
  store %"class.xalanc_1_10::XalanList"* %this, %"class.xalanc_1_10::XalanList"** %this.addr, align 8
  call void @llvm.dbg.declare(metadata %"class.xalanc_1_10::XalanList"** %this.addr, metadata !3240, metadata !DIExpression()), !dbg !3241
  %this1 = load %"class.xalanc_1_10::XalanList"*, %"class.xalanc_1_10::XalanList"** %this.addr, align 8
  call void @llvm.dbg.declare(metadata %"struct.xalanc_1_10::XalanListIteratorBase"* %pos, metadata !3242, metadata !DIExpression()), !dbg !3243
  call void @_ZN11xalanc_1_109XalanListIPNS_10ArenaBlockINS_14XalanDOMStringEmEEE5beginEv(%"struct.xalanc_1_10::XalanListIteratorBase"* sret %pos, %"class.xalanc_1_10::XalanList"* %this1), !dbg !3244
  br label %while.cond, !dbg !3245

while.cond:                                       ; preds = %while.body, %entry
  call void @_ZN11xalanc_1_109XalanListIPNS_10ArenaBlockINS_14XalanDOMStringEmEEE3endEv(%"struct.xalanc_1_10::XalanListIteratorBase"* sret %ref.tmp, %"class.xalanc_1_10::XalanList"* %this1), !dbg !3246
  %call = call zeroext i1 @_ZNK11xalanc_1_1021XalanListIteratorBaseINS_23XalanListIteratorTraitsIPNS_10ArenaBlockINS_14XalanDOMStringEmEEEENS_9XalanListIS5_E4NodeEEneERKSA_(%"struct.xalanc_1_10::XalanListIteratorBase"* %pos, %"struct.xalanc_1_10::XalanListIteratorBase"* dereferenceable(8) %ref.tmp), !dbg !3247
  br i1 %call, label %while.body, label %while.end, !dbg !3245

while.body:                                       ; preds = %while.cond
  call void @_ZN11xalanc_1_1021XalanListIteratorBaseINS_23XalanListIteratorTraitsIPNS_10ArenaBlockINS_14XalanDOMStringEmEEEENS_9XalanListIS5_E4NodeEEppEi(%"struct.xalanc_1_10::XalanListIteratorBase"* sret %ref.tmp2, %"struct.xalanc_1_10::XalanListIteratorBase"* %pos, i32 0), !dbg !3248
  %call3 = call dereferenceable(24) %"struct.xalanc_1_10::XalanList<xalanc_1_10::ArenaBlock<xalanc_1_10::XalanDOMString, unsigned long> *>::Node"* @_ZN11xalanc_1_1021XalanListIteratorBaseINS_23XalanListIteratorTraitsIPNS_10ArenaBlockINS_14XalanDOMStringEmEEEENS_9XalanListIS5_E4NodeEE4nodeEv(%"struct.xalanc_1_10::XalanListIteratorBase"* %ref.tmp2), !dbg !3250
  call void @_ZN11xalanc_1_109XalanListIPNS_10ArenaBlockINS_14XalanDOMStringEmEEE8freeNodeERNS5_4NodeE(%"class.xalanc_1_10::XalanList"* %this1, %"struct.xalanc_1_10::XalanList<xalanc_1_10::ArenaBlock<xalanc_1_10::XalanDOMString, unsigned long> *>::Node"* dereferenceable(24) %call3), !dbg !3251
  br label %while.cond, !dbg !3245, !llvm.loop !3252

while.end:                                        ; preds = %while.cond
  ret void, !dbg !3254
}

; Function Attrs: noinline uwtable
define linkonce_odr dso_local zeroext i1 @_ZNK11xalanc_1_1021XalanListIteratorBaseINS_23XalanListIteratorTraitsIPNS_10ArenaBlockINS_14XalanDOMStringEmEEEENS_9XalanListIS5_E4NodeEEneERKSA_(%"struct.xalanc_1_10::XalanListIteratorBase"* %this, %"struct.xalanc_1_10::XalanListIteratorBase"* dereferenceable(8) %theRhs) #0 comdat align 2 !dbg !3255 {
entry:
  %this.addr = alloca %"struct.xalanc_1_10::XalanListIteratorBase"*, align 8
  %theRhs.addr = alloca %"struct.xalanc_1_10::XalanListIteratorBase"*, align 8
  store %"struct.xalanc_1_10::XalanListIteratorBase"* %this, %"struct.xalanc_1_10::XalanListIteratorBase"** %this.addr, align 8
  call void @llvm.dbg.declare(metadata %"struct.xalanc_1_10::XalanListIteratorBase"** %this.addr, metadata !3256, metadata !DIExpression()), !dbg !3258
  store %"struct.xalanc_1_10::XalanListIteratorBase"* %theRhs, %"struct.xalanc_1_10::XalanListIteratorBase"** %theRhs.addr, align 8
  call void @llvm.dbg.declare(metadata %"struct.xalanc_1_10::XalanListIteratorBase"** %theRhs.addr, metadata !3259, metadata !DIExpression()), !dbg !3260
  %this1 = load %"struct.xalanc_1_10::XalanListIteratorBase"*, %"struct.xalanc_1_10::XalanListIteratorBase"** %this.addr, align 8
  %0 = load %"struct.xalanc_1_10::XalanListIteratorBase"*, %"struct.xalanc_1_10::XalanListIteratorBase"** %theRhs.addr, align 8, !dbg !3261
  %call = call zeroext i1 @_ZNK11xalanc_1_1021XalanListIteratorBaseINS_23XalanListIteratorTraitsIPNS_10ArenaBlockINS_14XalanDOMStringEmEEEENS_9XalanListIS5_E4NodeEEeqERKSA_(%"struct.xalanc_1_10::XalanListIteratorBase"* %this1, %"struct.xalanc_1_10::XalanListIteratorBase"* dereferenceable(8) %0), !dbg !3262
  %lnot = xor i1 %call, true, !dbg !3263
  ret i1 %lnot, !dbg !3264
}

; Function Attrs: noinline uwtable
define linkonce_odr dso_local void @_ZNK11xalanc_1_1013DeleteFunctorINS_10ArenaBlockINS_14XalanDOMStringEmEEEclEPKS3_(%"struct.xalanc_1_10::DeleteFunctor"* %this, %"class.xalanc_1_10::ArenaBlock"* %thePointer) #0 comdat align 2 !dbg !3265 {
entry:
  %this.addr = alloca %"struct.xalanc_1_10::DeleteFunctor"*, align 8
  %thePointer.addr = alloca %"class.xalanc_1_10::ArenaBlock"*, align 8
  %ref.tmp = alloca %"struct.xalanc_1_10::XalanDestroyFunctor", align 1
  %undef.agg.tmp = alloca %"struct.xalanc_1_10::XalanDestroyFunctor", align 1
  store %"struct.xalanc_1_10::DeleteFunctor"* %this, %"struct.xalanc_1_10::DeleteFunctor"** %this.addr, align 8
  call void @llvm.dbg.declare(metadata %"struct.xalanc_1_10::DeleteFunctor"** %this.addr, metadata !3266, metadata !DIExpression()), !dbg !3268
  store %"class.xalanc_1_10::ArenaBlock"* %thePointer, %"class.xalanc_1_10::ArenaBlock"** %thePointer.addr, align 8
  call void @llvm.dbg.declare(metadata %"class.xalanc_1_10::ArenaBlock"** %thePointer.addr, metadata !3269, metadata !DIExpression()), !dbg !3270
  %this1 = load %"struct.xalanc_1_10::DeleteFunctor"*, %"struct.xalanc_1_10::DeleteFunctor"** %this.addr, align 8
  %0 = load %"class.xalanc_1_10::ArenaBlock"*, %"class.xalanc_1_10::ArenaBlock"** %thePointer.addr, align 8, !dbg !3271
  call void @_ZN11xalanc_1_1023makeXalanDestroyFunctorINS_10ArenaBlockINS_14XalanDOMStringEmEEEENS_19XalanDestroyFunctorIT_EEPKS5_(%"class.xalanc_1_10::ArenaBlock"* %0), !dbg !3272
  %1 = load %"class.xalanc_1_10::ArenaBlock"*, %"class.xalanc_1_10::ArenaBlock"** %thePointer.addr, align 8, !dbg !3273
  %m_memoryManager = getelementptr inbounds %"struct.xalanc_1_10::DeleteFunctor", %"struct.xalanc_1_10::DeleteFunctor"* %this1, i32 0, i32 0, !dbg !3274
  %2 = load %"class.xercesc_2_7::MemoryManager"*, %"class.xercesc_2_7::MemoryManager"** %m_memoryManager, align 8, !dbg !3274
  call void @_ZN11xalanc_1_1019XalanDestroyFunctorINS_10ArenaBlockINS_14XalanDOMStringEmEEEclEPKS3_RN11xercesc_2_713MemoryManagerE(%"struct.xalanc_1_10::XalanDestroyFunctor"* %ref.tmp, %"class.xalanc_1_10::ArenaBlock"* %1, %"class.xercesc_2_7::MemoryManager"* dereferenceable(8) %2), !dbg !3272
  ret void, !dbg !3275
}

; Function Attrs: noinline nounwind uwtable
define linkonce_odr dso_local dereferenceable(8) %"class.xalanc_1_10::ArenaBlock"** @_ZNK11xalanc_1_1021XalanListIteratorBaseINS_23XalanListIteratorTraitsIPNS_10ArenaBlockINS_14XalanDOMStringEmEEEENS_9XalanListIS5_E4NodeEEdeEv(%"struct.xalanc_1_10::XalanListIteratorBase"* %this) #2 comdat align 2 !dbg !3276 {
entry:
  %this.addr = alloca %"struct.xalanc_1_10::XalanListIteratorBase"*, align 8
  store %"struct.xalanc_1_10::XalanListIteratorBase"* %this, %"struct.xalanc_1_10::XalanListIteratorBase"** %this.addr, align 8
  call void @llvm.dbg.declare(metadata %"struct.xalanc_1_10::XalanListIteratorBase"** %this.addr, metadata !3277, metadata !DIExpression()), !dbg !3278
  %this1 = load %"struct.xalanc_1_10::XalanListIteratorBase"*, %"struct.xalanc_1_10::XalanListIteratorBase"** %this.addr, align 8
  %currentNode = getelementptr inbounds %"struct.xalanc_1_10::XalanListIteratorBase", %"struct.xalanc_1_10::XalanListIteratorBase"* %this1, i32 0, i32 0, !dbg !3279
  %0 = load %"struct.xalanc_1_10::XalanList<xalanc_1_10::ArenaBlock<xalanc_1_10::XalanDOMString, unsigned long> *>::Node"*, %"struct.xalanc_1_10::XalanList<xalanc_1_10::ArenaBlock<xalanc_1_10::XalanDOMString, unsigned long> *>::Node"** %currentNode, align 8, !dbg !3279
  %value = getelementptr inbounds %"struct.xalanc_1_10::XalanList<xalanc_1_10::ArenaBlock<xalanc_1_10::XalanDOMString, unsigned long> *>::Node", %"struct.xalanc_1_10::XalanList<xalanc_1_10::ArenaBlock<xalanc_1_10::XalanDOMString, unsigned long> *>::Node"* %0, i32 0, i32 0, !dbg !3280
  ret %"class.xalanc_1_10::ArenaBlock"** %value, !dbg !3281
}

; Function Attrs: noinline uwtable
define linkonce_odr dso_local void @_ZN11xalanc_1_1021XalanListIteratorBaseINS_23XalanListIteratorTraitsIPNS_10ArenaBlockINS_14XalanDOMStringEmEEEENS_9XalanListIS5_E4NodeEEppEv(%"struct.xalanc_1_10::XalanListIteratorBase"* noalias sret %agg.result, %"struct.xalanc_1_10::XalanListIteratorBase"* %this) #0 comdat align 2 !dbg !3282 {
entry:
  %result.ptr = alloca i8*, align 8
  %this.addr = alloca %"struct.xalanc_1_10::XalanListIteratorBase"*, align 8
  %0 = bitcast %"struct.xalanc_1_10::XalanListIteratorBase"* %agg.result to i8*
  store i8* %0, i8** %result.ptr, align 8
  store %"struct.xalanc_1_10::XalanListIteratorBase"* %this, %"struct.xalanc_1_10::XalanListIteratorBase"** %this.addr, align 8
  call void @llvm.dbg.declare(metadata %"struct.xalanc_1_10::XalanListIteratorBase"** %this.addr, metadata !3283, metadata !DIExpression()), !dbg !3285
  %this1 = load %"struct.xalanc_1_10::XalanListIteratorBase"*, %"struct.xalanc_1_10::XalanListIteratorBase"** %this.addr, align 8
  %currentNode = getelementptr inbounds %"struct.xalanc_1_10::XalanListIteratorBase", %"struct.xalanc_1_10::XalanListIteratorBase"* %this1, i32 0, i32 0, !dbg !3286
  %1 = load %"struct.xalanc_1_10::XalanList<xalanc_1_10::ArenaBlock<xalanc_1_10::XalanDOMString, unsigned long> *>::Node"*, %"struct.xalanc_1_10::XalanList<xalanc_1_10::ArenaBlock<xalanc_1_10::XalanDOMString, unsigned long> *>::Node"** %currentNode, align 8, !dbg !3286
  %next = getelementptr inbounds %"struct.xalanc_1_10::XalanList<xalanc_1_10::ArenaBlock<xalanc_1_10::XalanDOMString, unsigned long> *>::Node", %"struct.xalanc_1_10::XalanList<xalanc_1_10::ArenaBlock<xalanc_1_10::XalanDOMString, unsigned long> *>::Node"* %1, i32 0, i32 2, !dbg !3287
  %2 = load %"struct.xalanc_1_10::XalanList<xalanc_1_10::ArenaBlock<xalanc_1_10::XalanDOMString, unsigned long> *>::Node"*, %"struct.xalanc_1_10::XalanList<xalanc_1_10::ArenaBlock<xalanc_1_10::XalanDOMString, unsigned long> *>::Node"** %next, align 8, !dbg !3287
  %currentNode2 = getelementptr inbounds %"struct.xalanc_1_10::XalanListIteratorBase", %"struct.xalanc_1_10::XalanListIteratorBase"* %this1, i32 0, i32 0, !dbg !3288
  store %"struct.xalanc_1_10::XalanList<xalanc_1_10::ArenaBlock<xalanc_1_10::XalanDOMString, unsigned long> *>::Node"* %2, %"struct.xalanc_1_10::XalanList<xalanc_1_10::ArenaBlock<xalanc_1_10::XalanDOMString, unsigned long> *>::Node"** %currentNode2, align 8, !dbg !3289
  call void @_ZN11xalanc_1_1021XalanListIteratorBaseINS_23XalanListIteratorTraitsIPNS_10ArenaBlockINS_14XalanDOMStringEmEEEENS_9XalanListIS5_E4NodeEEC2ERKSA_(%"struct.xalanc_1_10::XalanListIteratorBase"* %agg.result, %"struct.xalanc_1_10::XalanListIteratorBase"* dereferenceable(8) %this1), !dbg !3290
  ret void, !dbg !3291
}

; Function Attrs: argmemonly nounwind willreturn
declare void @llvm.memcpy.p0i8.p0i8.i64(i8* noalias nocapture writeonly, i8* noalias nocapture readonly, i64, i1 immarg) #8

; Function Attrs: noinline nounwind uwtable
define linkonce_odr dso_local zeroext i1 @_ZNK11xalanc_1_1021XalanListIteratorBaseINS_23XalanListIteratorTraitsIPNS_10ArenaBlockINS_14XalanDOMStringEmEEEENS_9XalanListIS5_E4NodeEEeqERKSA_(%"struct.xalanc_1_10::XalanListIteratorBase"* %this, %"struct.xalanc_1_10::XalanListIteratorBase"* dereferenceable(8) %theRhs) #2 comdat align 2 !dbg !3292 {
entry:
  %this.addr = alloca %"struct.xalanc_1_10::XalanListIteratorBase"*, align 8
  %theRhs.addr = alloca %"struct.xalanc_1_10::XalanListIteratorBase"*, align 8
  store %"struct.xalanc_1_10::XalanListIteratorBase"* %this, %"struct.xalanc_1_10::XalanListIteratorBase"** %this.addr, align 8
  call void @llvm.dbg.declare(metadata %"struct.xalanc_1_10::XalanListIteratorBase"** %this.addr, metadata !3293, metadata !DIExpression()), !dbg !3294
  store %"struct.xalanc_1_10::XalanListIteratorBase"* %theRhs, %"struct.xalanc_1_10::XalanListIteratorBase"** %theRhs.addr, align 8
  call void @llvm.dbg.declare(metadata %"struct.xalanc_1_10::XalanListIteratorBase"** %theRhs.addr, metadata !3295, metadata !DIExpression()), !dbg !3296
  %this1 = load %"struct.xalanc_1_10::XalanListIteratorBase"*, %"struct.xalanc_1_10::XalanListIteratorBase"** %this.addr, align 8
  %currentNode = getelementptr inbounds %"struct.xalanc_1_10::XalanListIteratorBase", %"struct.xalanc_1_10::XalanListIteratorBase"* %this1, i32 0, i32 0, !dbg !3297
  %0 = load %"struct.xalanc_1_10::XalanList<xalanc_1_10::ArenaBlock<xalanc_1_10::XalanDOMString, unsigned long> *>::Node"*, %"struct.xalanc_1_10::XalanList<xalanc_1_10::ArenaBlock<xalanc_1_10::XalanDOMString, unsigned long> *>::Node"** %currentNode, align 8, !dbg !3297
  %1 = load %"struct.xalanc_1_10::XalanListIteratorBase"*, %"struct.xalanc_1_10::XalanListIteratorBase"** %theRhs.addr, align 8, !dbg !3298
  %currentNode2 = getelementptr inbounds %"struct.xalanc_1_10::XalanListIteratorBase", %"struct.xalanc_1_10::XalanListIteratorBase"* %1, i32 0, i32 0, !dbg !3299
  %2 = load %"struct.xalanc_1_10::XalanList<xalanc_1_10::ArenaBlock<xalanc_1_10::XalanDOMString, unsigned long> *>::Node"*, %"struct.xalanc_1_10::XalanList<xalanc_1_10::ArenaBlock<xalanc_1_10::XalanDOMString, unsigned long> *>::Node"** %currentNode2, align 8, !dbg !3299
  %cmp = icmp eq %"struct.xalanc_1_10::XalanList<xalanc_1_10::ArenaBlock<xalanc_1_10::XalanDOMString, unsigned long> *>::Node"* %0, %2, !dbg !3300
  ret i1 %cmp, !dbg !3301
}

; Function Attrs: noinline nounwind uwtable
define linkonce_odr dso_local void @_ZN11xalanc_1_1023makeXalanDestroyFunctorINS_10ArenaBlockINS_14XalanDOMStringEmEEEENS_19XalanDestroyFunctorIT_EEPKS5_(%"class.xalanc_1_10::ArenaBlock"* %0) #2 comdat !dbg !3302 {
entry:
  %.addr = alloca %"class.xalanc_1_10::ArenaBlock"*, align 8
  store %"class.xalanc_1_10::ArenaBlock"* %0, %"class.xalanc_1_10::ArenaBlock"** %.addr, align 8
  call void @llvm.dbg.declare(metadata %"class.xalanc_1_10::ArenaBlock"** %.addr, metadata !3323, metadata !DIExpression()), !dbg !3324
  ret void, !dbg !3325
}

; Function Attrs: noinline uwtable
define linkonce_odr dso_local void @_ZN11xalanc_1_1019XalanDestroyFunctorINS_10ArenaBlockINS_14XalanDOMStringEmEEEclEPKS3_RN11xercesc_2_713MemoryManagerE(%"struct.xalanc_1_10::XalanDestroyFunctor"* %this, %"class.xalanc_1_10::ArenaBlock"* %theArg, %"class.xercesc_2_7::MemoryManager"* dereferenceable(8) %theMemoryManager) #0 comdat align 2 !dbg !3326 {
entry:
  %this.addr = alloca %"struct.xalanc_1_10::XalanDestroyFunctor"*, align 8
  %theArg.addr = alloca %"class.xalanc_1_10::ArenaBlock"*, align 8
  %theMemoryManager.addr = alloca %"class.xercesc_2_7::MemoryManager"*, align 8
  store %"struct.xalanc_1_10::XalanDestroyFunctor"* %this, %"struct.xalanc_1_10::XalanDestroyFunctor"** %this.addr, align 8
  call void @llvm.dbg.declare(metadata %"struct.xalanc_1_10::XalanDestroyFunctor"** %this.addr, metadata !3327, metadata !DIExpression()), !dbg !3329
  store %"class.xalanc_1_10::ArenaBlock"* %theArg, %"class.xalanc_1_10::ArenaBlock"** %theArg.addr, align 8
  call void @llvm.dbg.declare(metadata %"class.xalanc_1_10::ArenaBlock"** %theArg.addr, metadata !3330, metadata !DIExpression()), !dbg !3331
  store %"class.xercesc_2_7::MemoryManager"* %theMemoryManager, %"class.xercesc_2_7::MemoryManager"** %theMemoryManager.addr, align 8
  call void @llvm.dbg.declare(metadata %"class.xercesc_2_7::MemoryManager"** %theMemoryManager.addr, metadata !3332, metadata !DIExpression()), !dbg !3333
  %this1 = load %"struct.xalanc_1_10::XalanDestroyFunctor"*, %"struct.xalanc_1_10::XalanDestroyFunctor"** %this.addr, align 8
  %0 = load %"class.xalanc_1_10::ArenaBlock"*, %"class.xalanc_1_10::ArenaBlock"** %theArg.addr, align 8, !dbg !3334
  %1 = load %"class.xercesc_2_7::MemoryManager"*, %"class.xercesc_2_7::MemoryManager"** %theMemoryManager.addr, align 8, !dbg !3335
  call void @_ZN11xalanc_1_1019XalanDestroyFunctorINS_10ArenaBlockINS_14XalanDOMStringEmEEEclEPS3_RN11xercesc_2_713MemoryManagerE(%"struct.xalanc_1_10::XalanDestroyFunctor"* %this1, %"class.xalanc_1_10::ArenaBlock"* %0, %"class.xercesc_2_7::MemoryManager"* dereferenceable(8) %1), !dbg !3336
  ret void, !dbg !3337
}

; Function Attrs: noinline uwtable
define linkonce_odr dso_local void @_ZN11xalanc_1_1019XalanDestroyFunctorINS_10ArenaBlockINS_14XalanDOMStringEmEEEclEPS3_RN11xercesc_2_713MemoryManagerE(%"struct.xalanc_1_10::XalanDestroyFunctor"* %this, %"class.xalanc_1_10::ArenaBlock"* %theArg, %"class.xercesc_2_7::MemoryManager"* dereferenceable(8) %theMemoryManager) #0 comdat align 2 !dbg !3338 {
entry:
  %this.addr = alloca %"struct.xalanc_1_10::XalanDestroyFunctor"*, align 8
  %theArg.addr = alloca %"class.xalanc_1_10::ArenaBlock"*, align 8
  %theMemoryManager.addr = alloca %"class.xercesc_2_7::MemoryManager"*, align 8
  store %"struct.xalanc_1_10::XalanDestroyFunctor"* %this, %"struct.xalanc_1_10::XalanDestroyFunctor"** %this.addr, align 8
  call void @llvm.dbg.declare(metadata %"struct.xalanc_1_10::XalanDestroyFunctor"** %this.addr, metadata !3339, metadata !DIExpression()), !dbg !3340
  store %"class.xalanc_1_10::ArenaBlock"* %theArg, %"class.xalanc_1_10::ArenaBlock"** %theArg.addr, align 8
  call void @llvm.dbg.declare(metadata %"class.xalanc_1_10::ArenaBlock"** %theArg.addr, metadata !3341, metadata !DIExpression()), !dbg !3342
  store %"class.xercesc_2_7::MemoryManager"* %theMemoryManager, %"class.xercesc_2_7::MemoryManager"** %theMemoryManager.addr, align 8
  call void @llvm.dbg.declare(metadata %"class.xercesc_2_7::MemoryManager"** %theMemoryManager.addr, metadata !3343, metadata !DIExpression()), !dbg !3344
  %this1 = load %"struct.xalanc_1_10::XalanDestroyFunctor"*, %"struct.xalanc_1_10::XalanDestroyFunctor"** %this.addr, align 8
  %0 = load %"class.xalanc_1_10::ArenaBlock"*, %"class.xalanc_1_10::ArenaBlock"** %theArg.addr, align 8, !dbg !3345
  %cmp = icmp ne %"class.xalanc_1_10::ArenaBlock"* %0, null, !dbg !3347
  br i1 %cmp, label %if.then, label %if.end, !dbg !3348

if.then:                                          ; preds = %entry
  %1 = load %"class.xalanc_1_10::ArenaBlock"*, %"class.xalanc_1_10::ArenaBlock"** %theArg.addr, align 8, !dbg !3349
  call void @_ZN11xalanc_1_1019XalanDestroyFunctorINS_10ArenaBlockINS_14XalanDOMStringEmEEEclERS3_(%"struct.xalanc_1_10::XalanDestroyFunctor"* %this1, %"class.xalanc_1_10::ArenaBlock"* dereferenceable(32) %1), !dbg !3351
  %2 = load %"class.xercesc_2_7::MemoryManager"*, %"class.xercesc_2_7::MemoryManager"** %theMemoryManager.addr, align 8, !dbg !3352
  %3 = load %"class.xalanc_1_10::ArenaBlock"*, %"class.xalanc_1_10::ArenaBlock"** %theArg.addr, align 8, !dbg !3353
  %4 = bitcast %"class.xalanc_1_10::ArenaBlock"* %3 to i8*, !dbg !3353
  %5 = bitcast %"class.xercesc_2_7::MemoryManager"* %2 to void (%"class.xercesc_2_7::MemoryManager"*, i8*)***, !dbg !3354
  %vtable = load void (%"class.xercesc_2_7::MemoryManager"*, i8*)**, void (%"class.xercesc_2_7::MemoryManager"*, i8*)*** %5, align 8, !dbg !3354
  %vfn = getelementptr inbounds void (%"class.xercesc_2_7::MemoryManager"*, i8*)*, void (%"class.xercesc_2_7::MemoryManager"*, i8*)** %vtable, i64 3, !dbg !3354
  %6 = load void (%"class.xercesc_2_7::MemoryManager"*, i8*)*, void (%"class.xercesc_2_7::MemoryManager"*, i8*)** %vfn, align 8, !dbg !3354
  call void %6(%"class.xercesc_2_7::MemoryManager"* %2, i8* %4), !dbg !3354
  br label %if.end, !dbg !3355

if.end:                                           ; preds = %if.then, %entry
  ret void, !dbg !3356
}

; Function Attrs: noinline nounwind uwtable
define linkonce_odr dso_local void @_ZN11xalanc_1_1019XalanDestroyFunctorINS_10ArenaBlockINS_14XalanDOMStringEmEEEclERS3_(%"struct.xalanc_1_10::XalanDestroyFunctor"* %this, %"class.xalanc_1_10::ArenaBlock"* dereferenceable(32) %theArg) #2 comdat align 2 !dbg !3357 {
entry:
  %this.addr = alloca %"struct.xalanc_1_10::XalanDestroyFunctor"*, align 8
  %theArg.addr = alloca %"class.xalanc_1_10::ArenaBlock"*, align 8
  store %"struct.xalanc_1_10::XalanDestroyFunctor"* %this, %"struct.xalanc_1_10::XalanDestroyFunctor"** %this.addr, align 8
  call void @llvm.dbg.declare(metadata %"struct.xalanc_1_10::XalanDestroyFunctor"** %this.addr, metadata !3358, metadata !DIExpression()), !dbg !3359
  store %"class.xalanc_1_10::ArenaBlock"* %theArg, %"class.xalanc_1_10::ArenaBlock"** %theArg.addr, align 8
  call void @llvm.dbg.declare(metadata %"class.xalanc_1_10::ArenaBlock"** %theArg.addr, metadata !3360, metadata !DIExpression()), !dbg !3361
  %this1 = load %"struct.xalanc_1_10::XalanDestroyFunctor"*, %"struct.xalanc_1_10::XalanDestroyFunctor"** %this.addr, align 8
  %0 = load %"class.xalanc_1_10::ArenaBlock"*, %"class.xalanc_1_10::ArenaBlock"** %theArg.addr, align 8, !dbg !3362
  call void @_ZN11xalanc_1_1010ArenaBlockINS_14XalanDOMStringEmED2Ev(%"class.xalanc_1_10::ArenaBlock"* %0) #3, !dbg !3363
  ret void, !dbg !3364
}

; Function Attrs: noinline nounwind uwtable
define linkonce_odr dso_local void @_ZN11xalanc_1_1010ArenaBlockINS_14XalanDOMStringEmED2Ev(%"class.xalanc_1_10::ArenaBlock"* %this) unnamed_addr #2 comdat align 2 personality i8* bitcast (i32 (...)* @__gxx_personality_v0 to i8*) !dbg !3365 {
entry:
  %this.addr = alloca %"class.xalanc_1_10::ArenaBlock"*, align 8
  %i = alloca i64, align 8
  %exn.slot = alloca i8*
  %ehselector.slot = alloca i32
  store %"class.xalanc_1_10::ArenaBlock"* %this, %"class.xalanc_1_10::ArenaBlock"** %this.addr, align 8
  call void @llvm.dbg.declare(metadata %"class.xalanc_1_10::ArenaBlock"** %this.addr, metadata !3366, metadata !DIExpression()), !dbg !3367
  %this1 = load %"class.xalanc_1_10::ArenaBlock"*, %"class.xalanc_1_10::ArenaBlock"** %this.addr, align 8
  call void @llvm.dbg.declare(metadata i64* %i, metadata !3368, metadata !DIExpression()), !dbg !3371
  store i64 0, i64* %i, align 8, !dbg !3371
  br label %for.cond, !dbg !3372

for.cond:                                         ; preds = %for.inc, %entry
  %0 = load i64, i64* %i, align 8, !dbg !3373
  %1 = bitcast %"class.xalanc_1_10::ArenaBlock"* %this1 to %"class.xalanc_1_10::ArenaBlockBase"*, !dbg !3375
  %m_objectCount = getelementptr inbounds %"class.xalanc_1_10::ArenaBlockBase", %"class.xalanc_1_10::ArenaBlockBase"* %1, i32 0, i32 1, !dbg !3375
  %2 = load i64, i64* %m_objectCount, align 8, !dbg !3375
  %cmp = icmp ult i64 %0, %2, !dbg !3376
  br i1 %cmp, label %for.body, label %for.end, !dbg !3377

for.body:                                         ; preds = %for.cond
  %3 = bitcast %"class.xalanc_1_10::ArenaBlock"* %this1 to %"class.xalanc_1_10::ArenaBlockBase"*, !dbg !3378
  %m_objectBlock = getelementptr inbounds %"class.xalanc_1_10::ArenaBlockBase", %"class.xalanc_1_10::ArenaBlockBase"* %3, i32 0, i32 3, !dbg !3378
  %4 = load %"class.xalanc_1_10::XalanDOMString"*, %"class.xalanc_1_10::XalanDOMString"** %m_objectBlock, align 8, !dbg !3378
  %5 = load i64, i64* %i, align 8, !dbg !3380
  %arrayidx = getelementptr inbounds %"class.xalanc_1_10::XalanDOMString", %"class.xalanc_1_10::XalanDOMString"* %4, i64 %5, !dbg !3381
  invoke void @_ZN11xalanc_1_1012XalanDestroyINS_14XalanDOMStringEEEvRT_(%"class.xalanc_1_10::XalanDOMString"* dereferenceable(40) %arrayidx)
          to label %invoke.cont unwind label %lpad, !dbg !3382

invoke.cont:                                      ; preds = %for.body
  br label %for.inc, !dbg !3383

for.inc:                                          ; preds = %invoke.cont
  %6 = load i64, i64* %i, align 8, !dbg !3384
  %inc = add i64 %6, 1, !dbg !3384
  store i64 %inc, i64* %i, align 8, !dbg !3384
  br label %for.cond, !dbg !3385, !llvm.loop !3386

lpad:                                             ; preds = %for.body
  %7 = landingpad { i8*, i32 }
          catch i8* null, !dbg !3388
  %8 = extractvalue { i8*, i32 } %7, 0, !dbg !3388
  store i8* %8, i8** %exn.slot, align 8, !dbg !3388
  %9 = extractvalue { i8*, i32 } %7, 1, !dbg !3388
  store i32 %9, i32* %ehselector.slot, align 4, !dbg !3388
  %10 = bitcast %"class.xalanc_1_10::ArenaBlock"* %this1 to %"class.xalanc_1_10::ArenaBlockBase"*, !dbg !3389
  call void @_ZN11xalanc_1_1014ArenaBlockBaseINS_14XalanDOMStringEmED2Ev(%"class.xalanc_1_10::ArenaBlockBase"* %10) #3, !dbg !3389
  br label %terminate.handler, !dbg !3389

for.end:                                          ; preds = %for.cond
  %11 = bitcast %"class.xalanc_1_10::ArenaBlock"* %this1 to %"class.xalanc_1_10::ArenaBlockBase"*, !dbg !3389
  call void @_ZN11xalanc_1_1014ArenaBlockBaseINS_14XalanDOMStringEmED2Ev(%"class.xalanc_1_10::ArenaBlockBase"* %11) #3, !dbg !3389
  ret void, !dbg !3390

terminate.handler:                                ; preds = %lpad
  %exn = load i8*, i8** %exn.slot, align 8, !dbg !3389
  call void @__clang_call_terminate(i8* %exn) #9, !dbg !3389
  unreachable, !dbg !3389
}

; Function Attrs: noinline nounwind uwtable
define linkonce_odr dso_local void @_ZN11xalanc_1_1012XalanDestroyINS_14XalanDOMStringEEEvRT_(%"class.xalanc_1_10::XalanDOMString"* dereferenceable(40) %theArg) #2 comdat !dbg !3391 {
entry:
  %theArg.addr = alloca %"class.xalanc_1_10::XalanDOMString"*, align 8
  store %"class.xalanc_1_10::XalanDOMString"* %theArg, %"class.xalanc_1_10::XalanDOMString"** %theArg.addr, align 8
  call void @llvm.dbg.declare(metadata %"class.xalanc_1_10::XalanDOMString"** %theArg.addr, metadata !3394, metadata !DIExpression()), !dbg !3395
  %0 = load %"class.xalanc_1_10::XalanDOMString"*, %"class.xalanc_1_10::XalanDOMString"** %theArg.addr, align 8, !dbg !3396
  call void @_ZN11xalanc_1_1014XalanDOMStringD2Ev(%"class.xalanc_1_10::XalanDOMString"* %0) #3, !dbg !3397
  ret void, !dbg !3398
}

; Function Attrs: noinline nounwind uwtable
define linkonce_odr dso_local void @_ZN11xalanc_1_1014ArenaBlockBaseINS_14XalanDOMStringEmED2Ev(%"class.xalanc_1_10::ArenaBlockBase"* %this) unnamed_addr #2 comdat align 2 personality i8* bitcast (i32 (...)* @__gxx_personality_v0 to i8*) !dbg !3399 {
entry:
  %this.addr = alloca %"class.xalanc_1_10::ArenaBlockBase"*, align 8
  %exn.slot = alloca i8*
  %ehselector.slot = alloca i32
  store %"class.xalanc_1_10::ArenaBlockBase"* %this, %"class.xalanc_1_10::ArenaBlockBase"** %this.addr, align 8
  call void @llvm.dbg.declare(metadata %"class.xalanc_1_10::ArenaBlockBase"** %this.addr, metadata !3400, metadata !DIExpression()), !dbg !3402
  %this1 = load %"class.xalanc_1_10::ArenaBlockBase"*, %"class.xalanc_1_10::ArenaBlockBase"** %this.addr, align 8
  %m_allocator = getelementptr inbounds %"class.xalanc_1_10::ArenaBlockBase", %"class.xalanc_1_10::ArenaBlockBase"* %this1, i32 0, i32 0, !dbg !3403
  %m_objectBlock = getelementptr inbounds %"class.xalanc_1_10::ArenaBlockBase", %"class.xalanc_1_10::ArenaBlockBase"* %this1, i32 0, i32 3, !dbg !3405
  %0 = load %"class.xalanc_1_10::XalanDOMString"*, %"class.xalanc_1_10::XalanDOMString"** %m_objectBlock, align 8, !dbg !3405
  %m_blockSize = getelementptr inbounds %"class.xalanc_1_10::ArenaBlockBase", %"class.xalanc_1_10::ArenaBlockBase"* %this1, i32 0, i32 2, !dbg !3406
  %1 = load i64, i64* %m_blockSize, align 8, !dbg !3406
  invoke void @_ZN11xalanc_1_1014XalanAllocatorINS_14XalanDOMStringEE10deallocateEPS1_m(%"class.xalanc_1_10::XalanAllocator"* %m_allocator, %"class.xalanc_1_10::XalanDOMString"* %0, i64 %1)
          to label %invoke.cont unwind label %lpad, !dbg !3407

invoke.cont:                                      ; preds = %entry
  %m_allocator2 = getelementptr inbounds %"class.xalanc_1_10::ArenaBlockBase", %"class.xalanc_1_10::ArenaBlockBase"* %this1, i32 0, i32 0, !dbg !3408
  call void @_ZN11xalanc_1_1014XalanAllocatorINS_14XalanDOMStringEED2Ev(%"class.xalanc_1_10::XalanAllocator"* %m_allocator2) #3, !dbg !3408
  ret void, !dbg !3409

lpad:                                             ; preds = %entry
  %2 = landingpad { i8*, i32 }
          catch i8* null, !dbg !3408
  %3 = extractvalue { i8*, i32 } %2, 0, !dbg !3408
  store i8* %3, i8** %exn.slot, align 8, !dbg !3408
  %4 = extractvalue { i8*, i32 } %2, 1, !dbg !3408
  store i32 %4, i32* %ehselector.slot, align 4, !dbg !3408
  %m_allocator3 = getelementptr inbounds %"class.xalanc_1_10::ArenaBlockBase", %"class.xalanc_1_10::ArenaBlockBase"* %this1, i32 0, i32 0, !dbg !3408
  call void @_ZN11xalanc_1_1014XalanAllocatorINS_14XalanDOMStringEED2Ev(%"class.xalanc_1_10::XalanAllocator"* %m_allocator3) #3, !dbg !3408
  br label %terminate.handler, !dbg !3408

terminate.handler:                                ; preds = %lpad
  %exn = load i8*, i8** %exn.slot, align 8, !dbg !3408
  call void @__clang_call_terminate(i8* %exn) #9, !dbg !3408
  unreachable, !dbg !3408
}

; Function Attrs: noinline uwtable
define linkonce_odr dso_local void @_ZN11xalanc_1_1014XalanAllocatorINS_14XalanDOMStringEE10deallocateEPS1_m(%"class.xalanc_1_10::XalanAllocator"* %this, %"class.xalanc_1_10::XalanDOMString"* %p, i64 %0) #0 comdat align 2 !dbg !3410 {
entry:
  %this.addr = alloca %"class.xalanc_1_10::XalanAllocator"*, align 8
  %p.addr = alloca %"class.xalanc_1_10::XalanDOMString"*, align 8
  %.addr = alloca i64, align 8
  store %"class.xalanc_1_10::XalanAllocator"* %this, %"class.xalanc_1_10::XalanAllocator"** %this.addr, align 8
  call void @llvm.dbg.declare(metadata %"class.xalanc_1_10::XalanAllocator"** %this.addr, metadata !3411, metadata !DIExpression()), !dbg !3413
  store %"class.xalanc_1_10::XalanDOMString"* %p, %"class.xalanc_1_10::XalanDOMString"** %p.addr, align 8
  call void @llvm.dbg.declare(metadata %"class.xalanc_1_10::XalanDOMString"** %p.addr, metadata !3414, metadata !DIExpression()), !dbg !3415
  store i64 %0, i64* %.addr, align 8
  call void @llvm.dbg.declare(metadata i64* %.addr, metadata !3416, metadata !DIExpression()), !dbg !3417
  %this1 = load %"class.xalanc_1_10::XalanAllocator"*, %"class.xalanc_1_10::XalanAllocator"** %this.addr, align 8
  %1 = load %"class.xalanc_1_10::XalanDOMString"*, %"class.xalanc_1_10::XalanDOMString"** %p.addr, align 8, !dbg !3418
  %cmp = icmp eq %"class.xalanc_1_10::XalanDOMString"* %1, null, !dbg !3420
  br i1 %cmp, label %if.then, label %if.end, !dbg !3421

if.then:                                          ; preds = %entry
  br label %return, !dbg !3422

if.end:                                           ; preds = %entry
  %m_memoryManager = getelementptr inbounds %"class.xalanc_1_10::XalanAllocator", %"class.xalanc_1_10::XalanAllocator"* %this1, i32 0, i32 0, !dbg !3424
  %2 = load %"class.xercesc_2_7::MemoryManager"*, %"class.xercesc_2_7::MemoryManager"** %m_memoryManager, align 8, !dbg !3424
  %3 = load %"class.xalanc_1_10::XalanDOMString"*, %"class.xalanc_1_10::XalanDOMString"** %p.addr, align 8, !dbg !3425
  %4 = bitcast %"class.xalanc_1_10::XalanDOMString"* %3 to i8*, !dbg !3425
  %5 = bitcast %"class.xercesc_2_7::MemoryManager"* %2 to void (%"class.xercesc_2_7::MemoryManager"*, i8*)***, !dbg !3426
  %vtable = load void (%"class.xercesc_2_7::MemoryManager"*, i8*)**, void (%"class.xercesc_2_7::MemoryManager"*, i8*)*** %5, align 8, !dbg !3426
  %vfn = getelementptr inbounds void (%"class.xercesc_2_7::MemoryManager"*, i8*)*, void (%"class.xercesc_2_7::MemoryManager"*, i8*)** %vtable, i64 3, !dbg !3426
  %6 = load void (%"class.xercesc_2_7::MemoryManager"*, i8*)*, void (%"class.xercesc_2_7::MemoryManager"*, i8*)** %vfn, align 8, !dbg !3426
  call void %6(%"class.xercesc_2_7::MemoryManager"* %2, i8* %4), !dbg !3426
  br label %return, !dbg !3427

return:                                           ; preds = %if.end, %if.then
  ret void, !dbg !3427
}

; Function Attrs: noinline nounwind uwtable
define linkonce_odr dso_local void @_ZN11xalanc_1_1014XalanAllocatorINS_14XalanDOMStringEED2Ev(%"class.xalanc_1_10::XalanAllocator"* %this) unnamed_addr #2 comdat align 2 !dbg !3428 {
entry:
  %this.addr = alloca %"class.xalanc_1_10::XalanAllocator"*, align 8
  store %"class.xalanc_1_10::XalanAllocator"* %this, %"class.xalanc_1_10::XalanAllocator"** %this.addr, align 8
  call void @llvm.dbg.declare(metadata %"class.xalanc_1_10::XalanAllocator"** %this.addr, metadata !3429, metadata !DIExpression()), !dbg !3430
  %this1 = load %"class.xalanc_1_10::XalanAllocator"*, %"class.xalanc_1_10::XalanAllocator"** %this.addr, align 8
  ret void, !dbg !3431
}

; Function Attrs: noinline nounwind uwtable
define linkonce_odr dso_local void @_ZN11xalanc_1_1021XalanListIteratorBaseINS_23XalanListIteratorTraitsIPNS_10ArenaBlockINS_14XalanDOMStringEmEEEENS_9XalanListIS5_E4NodeEEC2ERKSA_(%"struct.xalanc_1_10::XalanListIteratorBase"* %this, %"struct.xalanc_1_10::XalanListIteratorBase"* dereferenceable(8) %theRhs) unnamed_addr #2 comdat align 2 !dbg !3432 {
entry:
  %this.addr = alloca %"struct.xalanc_1_10::XalanListIteratorBase"*, align 8
  %theRhs.addr = alloca %"struct.xalanc_1_10::XalanListIteratorBase"*, align 8
  store %"struct.xalanc_1_10::XalanListIteratorBase"* %this, %"struct.xalanc_1_10::XalanListIteratorBase"** %this.addr, align 8
  call void @llvm.dbg.declare(metadata %"struct.xalanc_1_10::XalanListIteratorBase"** %this.addr, metadata !3433, metadata !DIExpression()), !dbg !3434
  store %"struct.xalanc_1_10::XalanListIteratorBase"* %theRhs, %"struct.xalanc_1_10::XalanListIteratorBase"** %theRhs.addr, align 8
  call void @llvm.dbg.declare(metadata %"struct.xalanc_1_10::XalanListIteratorBase"** %theRhs.addr, metadata !3435, metadata !DIExpression()), !dbg !3436
  %this1 = load %"struct.xalanc_1_10::XalanListIteratorBase"*, %"struct.xalanc_1_10::XalanListIteratorBase"** %this.addr, align 8
  %currentNode = getelementptr inbounds %"struct.xalanc_1_10::XalanListIteratorBase", %"struct.xalanc_1_10::XalanListIteratorBase"* %this1, i32 0, i32 0, !dbg !3437
  %0 = load %"struct.xalanc_1_10::XalanListIteratorBase"*, %"struct.xalanc_1_10::XalanListIteratorBase"** %theRhs.addr, align 8, !dbg !3438
  %currentNode2 = getelementptr inbounds %"struct.xalanc_1_10::XalanListIteratorBase", %"struct.xalanc_1_10::XalanListIteratorBase"* %0, i32 0, i32 0, !dbg !3439
  %1 = load %"struct.xalanc_1_10::XalanList<xalanc_1_10::ArenaBlock<xalanc_1_10::XalanDOMString, unsigned long> *>::Node"*, %"struct.xalanc_1_10::XalanList<xalanc_1_10::ArenaBlock<xalanc_1_10::XalanDOMString, unsigned long> *>::Node"** %currentNode2, align 8, !dbg !3439
  store %"struct.xalanc_1_10::XalanList<xalanc_1_10::ArenaBlock<xalanc_1_10::XalanDOMString, unsigned long> *>::Node"* %1, %"struct.xalanc_1_10::XalanList<xalanc_1_10::ArenaBlock<xalanc_1_10::XalanDOMString, unsigned long> *>::Node"** %currentNode, align 8, !dbg !3437
  ret void, !dbg !3440
}

; Function Attrs: noinline uwtable
define linkonce_odr dso_local dereferenceable(24) %"struct.xalanc_1_10::XalanList<xalanc_1_10::ArenaBlock<xalanc_1_10::XalanDOMString, unsigned long> *>::Node"* @_ZN11xalanc_1_109XalanListIPNS_10ArenaBlockINS_14XalanDOMStringEmEEE11getListHeadEv(%"class.xalanc_1_10::XalanList"* %this) #0 comdat align 2 !dbg !3441 {
entry:
  %this.addr = alloca %"class.xalanc_1_10::XalanList"*, align 8
  store %"class.xalanc_1_10::XalanList"* %this, %"class.xalanc_1_10::XalanList"** %this.addr, align 8
  call void @llvm.dbg.declare(metadata %"class.xalanc_1_10::XalanList"** %this.addr, metadata !3442, metadata !DIExpression()), !dbg !3443
  %this1 = load %"class.xalanc_1_10::XalanList"*, %"class.xalanc_1_10::XalanList"** %this.addr, align 8
  %m_listHead = getelementptr inbounds %"class.xalanc_1_10::XalanList", %"class.xalanc_1_10::XalanList"* %this1, i32 0, i32 1, !dbg !3444
  %0 = load %"struct.xalanc_1_10::XalanList<xalanc_1_10::ArenaBlock<xalanc_1_10::XalanDOMString, unsigned long> *>::Node"*, %"struct.xalanc_1_10::XalanList<xalanc_1_10::ArenaBlock<xalanc_1_10::XalanDOMString, unsigned long> *>::Node"** %m_listHead, align 8, !dbg !3444
  %cmp = icmp eq %"struct.xalanc_1_10::XalanList<xalanc_1_10::ArenaBlock<xalanc_1_10::XalanDOMString, unsigned long> *>::Node"* null, %0, !dbg !3446
  br i1 %cmp, label %if.then, label %if.end, !dbg !3447

if.then:                                          ; preds = %entry
  %call = call %"struct.xalanc_1_10::XalanList<xalanc_1_10::ArenaBlock<xalanc_1_10::XalanDOMString, unsigned long> *>::Node"* @_ZN11xalanc_1_109XalanListIPNS_10ArenaBlockINS_14XalanDOMStringEmEEE8allocateEm(%"class.xalanc_1_10::XalanList"* %this1, i64 1), !dbg !3448
  %m_listHead2 = getelementptr inbounds %"class.xalanc_1_10::XalanList", %"class.xalanc_1_10::XalanList"* %this1, i32 0, i32 1, !dbg !3450
  store %"struct.xalanc_1_10::XalanList<xalanc_1_10::ArenaBlock<xalanc_1_10::XalanDOMString, unsigned long> *>::Node"* %call, %"struct.xalanc_1_10::XalanList<xalanc_1_10::ArenaBlock<xalanc_1_10::XalanDOMString, unsigned long> *>::Node"** %m_listHead2, align 8, !dbg !3451
  %m_listHead3 = getelementptr inbounds %"class.xalanc_1_10::XalanList", %"class.xalanc_1_10::XalanList"* %this1, i32 0, i32 1, !dbg !3452
  %1 = load %"struct.xalanc_1_10::XalanList<xalanc_1_10::ArenaBlock<xalanc_1_10::XalanDOMString, unsigned long> *>::Node"*, %"struct.xalanc_1_10::XalanList<xalanc_1_10::ArenaBlock<xalanc_1_10::XalanDOMString, unsigned long> *>::Node"** %m_listHead3, align 8, !dbg !3452
  %m_listHead4 = getelementptr inbounds %"class.xalanc_1_10::XalanList", %"class.xalanc_1_10::XalanList"* %this1, i32 0, i32 1, !dbg !3453
  %2 = load %"struct.xalanc_1_10::XalanList<xalanc_1_10::ArenaBlock<xalanc_1_10::XalanDOMString, unsigned long> *>::Node"*, %"struct.xalanc_1_10::XalanList<xalanc_1_10::ArenaBlock<xalanc_1_10::XalanDOMString, unsigned long> *>::Node"** %m_listHead4, align 8, !dbg !3453
  %next = getelementptr inbounds %"struct.xalanc_1_10::XalanList<xalanc_1_10::ArenaBlock<xalanc_1_10::XalanDOMString, unsigned long> *>::Node", %"struct.xalanc_1_10::XalanList<xalanc_1_10::ArenaBlock<xalanc_1_10::XalanDOMString, unsigned long> *>::Node"* %2, i32 0, i32 2, !dbg !3454
  store %"struct.xalanc_1_10::XalanList<xalanc_1_10::ArenaBlock<xalanc_1_10::XalanDOMString, unsigned long> *>::Node"* %1, %"struct.xalanc_1_10::XalanList<xalanc_1_10::ArenaBlock<xalanc_1_10::XalanDOMString, unsigned long> *>::Node"** %next, align 8, !dbg !3455
  %m_listHead5 = getelementptr inbounds %"class.xalanc_1_10::XalanList", %"class.xalanc_1_10::XalanList"* %this1, i32 0, i32 1, !dbg !3456
  %3 = load %"struct.xalanc_1_10::XalanList<xalanc_1_10::ArenaBlock<xalanc_1_10::XalanDOMString, unsigned long> *>::Node"*, %"struct.xalanc_1_10::XalanList<xalanc_1_10::ArenaBlock<xalanc_1_10::XalanDOMString, unsigned long> *>::Node"** %m_listHead5, align 8, !dbg !3456
  %m_listHead6 = getelementptr inbounds %"class.xalanc_1_10::XalanList", %"class.xalanc_1_10::XalanList"* %this1, i32 0, i32 1, !dbg !3457
  %4 = load %"struct.xalanc_1_10::XalanList<xalanc_1_10::ArenaBlock<xalanc_1_10::XalanDOMString, unsigned long> *>::Node"*, %"struct.xalanc_1_10::XalanList<xalanc_1_10::ArenaBlock<xalanc_1_10::XalanDOMString, unsigned long> *>::Node"** %m_listHead6, align 8, !dbg !3457
  %prev = getelementptr inbounds %"struct.xalanc_1_10::XalanList<xalanc_1_10::ArenaBlock<xalanc_1_10::XalanDOMString, unsigned long> *>::Node", %"struct.xalanc_1_10::XalanList<xalanc_1_10::ArenaBlock<xalanc_1_10::XalanDOMString, unsigned long> *>::Node"* %4, i32 0, i32 1, !dbg !3458
  store %"struct.xalanc_1_10::XalanList<xalanc_1_10::ArenaBlock<xalanc_1_10::XalanDOMString, unsigned long> *>::Node"* %3, %"struct.xalanc_1_10::XalanList<xalanc_1_10::ArenaBlock<xalanc_1_10::XalanDOMString, unsigned long> *>::Node"** %prev, align 8, !dbg !3459
  br label %if.end, !dbg !3460

if.end:                                           ; preds = %if.then, %entry
  %m_listHead7 = getelementptr inbounds %"class.xalanc_1_10::XalanList", %"class.xalanc_1_10::XalanList"* %this1, i32 0, i32 1, !dbg !3461
  %5 = load %"struct.xalanc_1_10::XalanList<xalanc_1_10::ArenaBlock<xalanc_1_10::XalanDOMString, unsigned long> *>::Node"*, %"struct.xalanc_1_10::XalanList<xalanc_1_10::ArenaBlock<xalanc_1_10::XalanDOMString, unsigned long> *>::Node"** %m_listHead7, align 8, !dbg !3461
  ret %"struct.xalanc_1_10::XalanList<xalanc_1_10::ArenaBlock<xalanc_1_10::XalanDOMString, unsigned long> *>::Node"* %5, !dbg !3462
}

; Function Attrs: noinline nounwind uwtable
define linkonce_odr dso_local void @_ZN11xalanc_1_1021XalanListIteratorBaseINS_23XalanListIteratorTraitsIPNS_10ArenaBlockINS_14XalanDOMStringEmEEEENS_9XalanListIS5_E4NodeEEC2ERS9_(%"struct.xalanc_1_10::XalanListIteratorBase"* %this, %"struct.xalanc_1_10::XalanList<xalanc_1_10::ArenaBlock<xalanc_1_10::XalanDOMString, unsigned long> *>::Node"* dereferenceable(24) %node) unnamed_addr #2 comdat align 2 !dbg !3463 {
entry:
  %this.addr = alloca %"struct.xalanc_1_10::XalanListIteratorBase"*, align 8
  %node.addr = alloca %"struct.xalanc_1_10::XalanList<xalanc_1_10::ArenaBlock<xalanc_1_10::XalanDOMString, unsigned long> *>::Node"*, align 8
  store %"struct.xalanc_1_10::XalanListIteratorBase"* %this, %"struct.xalanc_1_10::XalanListIteratorBase"** %this.addr, align 8
  call void @llvm.dbg.declare(metadata %"struct.xalanc_1_10::XalanListIteratorBase"** %this.addr, metadata !3464, metadata !DIExpression()), !dbg !3465
  store %"struct.xalanc_1_10::XalanList<xalanc_1_10::ArenaBlock<xalanc_1_10::XalanDOMString, unsigned long> *>::Node"* %node, %"struct.xalanc_1_10::XalanList<xalanc_1_10::ArenaBlock<xalanc_1_10::XalanDOMString, unsigned long> *>::Node"** %node.addr, align 8
  call void @llvm.dbg.declare(metadata %"struct.xalanc_1_10::XalanList<xalanc_1_10::ArenaBlock<xalanc_1_10::XalanDOMString, unsigned long> *>::Node"** %node.addr, metadata !3466, metadata !DIExpression()), !dbg !3467
  %this1 = load %"struct.xalanc_1_10::XalanListIteratorBase"*, %"struct.xalanc_1_10::XalanListIteratorBase"** %this.addr, align 8
  %currentNode = getelementptr inbounds %"struct.xalanc_1_10::XalanListIteratorBase", %"struct.xalanc_1_10::XalanListIteratorBase"* %this1, i32 0, i32 0, !dbg !3468
  %0 = load %"struct.xalanc_1_10::XalanList<xalanc_1_10::ArenaBlock<xalanc_1_10::XalanDOMString, unsigned long> *>::Node"*, %"struct.xalanc_1_10::XalanList<xalanc_1_10::ArenaBlock<xalanc_1_10::XalanDOMString, unsigned long> *>::Node"** %node.addr, align 8, !dbg !3469
  store %"struct.xalanc_1_10::XalanList<xalanc_1_10::ArenaBlock<xalanc_1_10::XalanDOMString, unsigned long> *>::Node"* %0, %"struct.xalanc_1_10::XalanList<xalanc_1_10::ArenaBlock<xalanc_1_10::XalanDOMString, unsigned long> *>::Node"** %currentNode, align 8, !dbg !3468
  ret void, !dbg !3470
}

; Function Attrs: noinline uwtable
define linkonce_odr dso_local %"struct.xalanc_1_10::XalanList<xalanc_1_10::ArenaBlock<xalanc_1_10::XalanDOMString, unsigned long> *>::Node"* @_ZN11xalanc_1_109XalanListIPNS_10ArenaBlockINS_14XalanDOMStringEmEEE8allocateEm(%"class.xalanc_1_10::XalanList"* %this, i64 %size) #0 comdat align 2 !dbg !3471 {
entry:
  %this.addr = alloca %"class.xalanc_1_10::XalanList"*, align 8
  %size.addr = alloca i64, align 8
  %theBytesNeeded = alloca i64, align 8
  %pointer = alloca i8*, align 8
  store %"class.xalanc_1_10::XalanList"* %this, %"class.xalanc_1_10::XalanList"** %this.addr, align 8
  call void @llvm.dbg.declare(metadata %"class.xalanc_1_10::XalanList"** %this.addr, metadata !3472, metadata !DIExpression()), !dbg !3473
  store i64 %size, i64* %size.addr, align 8
  call void @llvm.dbg.declare(metadata i64* %size.addr, metadata !3474, metadata !DIExpression()), !dbg !3475
  %this1 = load %"class.xalanc_1_10::XalanList"*, %"class.xalanc_1_10::XalanList"** %this.addr, align 8
  call void @llvm.dbg.declare(metadata i64* %theBytesNeeded, metadata !3476, metadata !DIExpression()), !dbg !3478
  %0 = load i64, i64* %size.addr, align 8, !dbg !3479
  %mul = mul i64 %0, 24, !dbg !3480
  store i64 %mul, i64* %theBytesNeeded, align 8, !dbg !3478
  call void @llvm.dbg.declare(metadata i8** %pointer, metadata !3481, metadata !DIExpression()), !dbg !3482
  %m_memoryManager = getelementptr inbounds %"class.xalanc_1_10::XalanList", %"class.xalanc_1_10::XalanList"* %this1, i32 0, i32 0, !dbg !3483
  %1 = load %"class.xercesc_2_7::MemoryManager"*, %"class.xercesc_2_7::MemoryManager"** %m_memoryManager, align 8, !dbg !3483
  %2 = load i64, i64* %theBytesNeeded, align 8, !dbg !3484
  %3 = bitcast %"class.xercesc_2_7::MemoryManager"* %1 to i8* (%"class.xercesc_2_7::MemoryManager"*, i64)***, !dbg !3485
  %vtable = load i8* (%"class.xercesc_2_7::MemoryManager"*, i64)**, i8* (%"class.xercesc_2_7::MemoryManager"*, i64)*** %3, align 8, !dbg !3485
  %vfn = getelementptr inbounds i8* (%"class.xercesc_2_7::MemoryManager"*, i64)*, i8* (%"class.xercesc_2_7::MemoryManager"*, i64)** %vtable, i64 2, !dbg !3485
  %4 = load i8* (%"class.xercesc_2_7::MemoryManager"*, i64)*, i8* (%"class.xercesc_2_7::MemoryManager"*, i64)** %vfn, align 8, !dbg !3485
  %call = call i8* %4(%"class.xercesc_2_7::MemoryManager"* %1, i64 %2), !dbg !3485
  store i8* %call, i8** %pointer, align 8, !dbg !3482
  %5 = load i8*, i8** %pointer, align 8, !dbg !3486
  %6 = bitcast i8* %5 to %"struct.xalanc_1_10::XalanList<xalanc_1_10::ArenaBlock<xalanc_1_10::XalanDOMString, unsigned long> *>::Node"*, !dbg !3487
  ret %"struct.xalanc_1_10::XalanList<xalanc_1_10::ArenaBlock<xalanc_1_10::XalanDOMString, unsigned long> *>::Node"* %6, !dbg !3488
}

; Function Attrs: noinline nounwind uwtable
define linkonce_odr dso_local void @_ZN11xalanc_1_109XalanListIPNS_10ArenaBlockINS_14XalanDOMStringEmEEE8freeNodeERNS5_4NodeE(%"class.xalanc_1_10::XalanList"* %this, %"struct.xalanc_1_10::XalanList<xalanc_1_10::ArenaBlock<xalanc_1_10::XalanDOMString, unsigned long> *>::Node"* dereferenceable(24) %node) #2 comdat align 2 !dbg !3489 {
entry:
  %this.addr = alloca %"class.xalanc_1_10::XalanList"*, align 8
  %node.addr = alloca %"struct.xalanc_1_10::XalanList<xalanc_1_10::ArenaBlock<xalanc_1_10::XalanDOMString, unsigned long> *>::Node"*, align 8
  store %"class.xalanc_1_10::XalanList"* %this, %"class.xalanc_1_10::XalanList"** %this.addr, align 8
  call void @llvm.dbg.declare(metadata %"class.xalanc_1_10::XalanList"** %this.addr, metadata !3490, metadata !DIExpression()), !dbg !3491
  store %"struct.xalanc_1_10::XalanList<xalanc_1_10::ArenaBlock<xalanc_1_10::XalanDOMString, unsigned long> *>::Node"* %node, %"struct.xalanc_1_10::XalanList<xalanc_1_10::ArenaBlock<xalanc_1_10::XalanDOMString, unsigned long> *>::Node"** %node.addr, align 8
  call void @llvm.dbg.declare(metadata %"struct.xalanc_1_10::XalanList<xalanc_1_10::ArenaBlock<xalanc_1_10::XalanDOMString, unsigned long> *>::Node"** %node.addr, metadata !3492, metadata !DIExpression()), !dbg !3493
  %this1 = load %"class.xalanc_1_10::XalanList"*, %"class.xalanc_1_10::XalanList"** %this.addr, align 8
  %0 = load %"struct.xalanc_1_10::XalanList<xalanc_1_10::ArenaBlock<xalanc_1_10::XalanDOMString, unsigned long> *>::Node"*, %"struct.xalanc_1_10::XalanList<xalanc_1_10::ArenaBlock<xalanc_1_10::XalanDOMString, unsigned long> *>::Node"** %node.addr, align 8, !dbg !3494
  %next = getelementptr inbounds %"struct.xalanc_1_10::XalanList<xalanc_1_10::ArenaBlock<xalanc_1_10::XalanDOMString, unsigned long> *>::Node", %"struct.xalanc_1_10::XalanList<xalanc_1_10::ArenaBlock<xalanc_1_10::XalanDOMString, unsigned long> *>::Node"* %0, i32 0, i32 2, !dbg !3495
  %1 = load %"struct.xalanc_1_10::XalanList<xalanc_1_10::ArenaBlock<xalanc_1_10::XalanDOMString, unsigned long> *>::Node"*, %"struct.xalanc_1_10::XalanList<xalanc_1_10::ArenaBlock<xalanc_1_10::XalanDOMString, unsigned long> *>::Node"** %next, align 8, !dbg !3495
  %2 = load %"struct.xalanc_1_10::XalanList<xalanc_1_10::ArenaBlock<xalanc_1_10::XalanDOMString, unsigned long> *>::Node"*, %"struct.xalanc_1_10::XalanList<xalanc_1_10::ArenaBlock<xalanc_1_10::XalanDOMString, unsigned long> *>::Node"** %node.addr, align 8, !dbg !3496
  %prev = getelementptr inbounds %"struct.xalanc_1_10::XalanList<xalanc_1_10::ArenaBlock<xalanc_1_10::XalanDOMString, unsigned long> *>::Node", %"struct.xalanc_1_10::XalanList<xalanc_1_10::ArenaBlock<xalanc_1_10::XalanDOMString, unsigned long> *>::Node"* %2, i32 0, i32 1, !dbg !3497
  %3 = load %"struct.xalanc_1_10::XalanList<xalanc_1_10::ArenaBlock<xalanc_1_10::XalanDOMString, unsigned long> *>::Node"*, %"struct.xalanc_1_10::XalanList<xalanc_1_10::ArenaBlock<xalanc_1_10::XalanDOMString, unsigned long> *>::Node"** %prev, align 8, !dbg !3497
  %next2 = getelementptr inbounds %"struct.xalanc_1_10::XalanList<xalanc_1_10::ArenaBlock<xalanc_1_10::XalanDOMString, unsigned long> *>::Node", %"struct.xalanc_1_10::XalanList<xalanc_1_10::ArenaBlock<xalanc_1_10::XalanDOMString, unsigned long> *>::Node"* %3, i32 0, i32 2, !dbg !3498
  store %"struct.xalanc_1_10::XalanList<xalanc_1_10::ArenaBlock<xalanc_1_10::XalanDOMString, unsigned long> *>::Node"* %1, %"struct.xalanc_1_10::XalanList<xalanc_1_10::ArenaBlock<xalanc_1_10::XalanDOMString, unsigned long> *>::Node"** %next2, align 8, !dbg !3499
  %4 = load %"struct.xalanc_1_10::XalanList<xalanc_1_10::ArenaBlock<xalanc_1_10::XalanDOMString, unsigned long> *>::Node"*, %"struct.xalanc_1_10::XalanList<xalanc_1_10::ArenaBlock<xalanc_1_10::XalanDOMString, unsigned long> *>::Node"** %node.addr, align 8, !dbg !3500
  %prev3 = getelementptr inbounds %"struct.xalanc_1_10::XalanList<xalanc_1_10::ArenaBlock<xalanc_1_10::XalanDOMString, unsigned long> *>::Node", %"struct.xalanc_1_10::XalanList<xalanc_1_10::ArenaBlock<xalanc_1_10::XalanDOMString, unsigned long> *>::Node"* %4, i32 0, i32 1, !dbg !3501
  %5 = load %"struct.xalanc_1_10::XalanList<xalanc_1_10::ArenaBlock<xalanc_1_10::XalanDOMString, unsigned long> *>::Node"*, %"struct.xalanc_1_10::XalanList<xalanc_1_10::ArenaBlock<xalanc_1_10::XalanDOMString, unsigned long> *>::Node"** %prev3, align 8, !dbg !3501
  %6 = load %"struct.xalanc_1_10::XalanList<xalanc_1_10::ArenaBlock<xalanc_1_10::XalanDOMString, unsigned long> *>::Node"*, %"struct.xalanc_1_10::XalanList<xalanc_1_10::ArenaBlock<xalanc_1_10::XalanDOMString, unsigned long> *>::Node"** %node.addr, align 8, !dbg !3502
  %next4 = getelementptr inbounds %"struct.xalanc_1_10::XalanList<xalanc_1_10::ArenaBlock<xalanc_1_10::XalanDOMString, unsigned long> *>::Node", %"struct.xalanc_1_10::XalanList<xalanc_1_10::ArenaBlock<xalanc_1_10::XalanDOMString, unsigned long> *>::Node"* %6, i32 0, i32 2, !dbg !3503
  %7 = load %"struct.xalanc_1_10::XalanList<xalanc_1_10::ArenaBlock<xalanc_1_10::XalanDOMString, unsigned long> *>::Node"*, %"struct.xalanc_1_10::XalanList<xalanc_1_10::ArenaBlock<xalanc_1_10::XalanDOMString, unsigned long> *>::Node"** %next4, align 8, !dbg !3503
  %prev5 = getelementptr inbounds %"struct.xalanc_1_10::XalanList<xalanc_1_10::ArenaBlock<xalanc_1_10::XalanDOMString, unsigned long> *>::Node", %"struct.xalanc_1_10::XalanList<xalanc_1_10::ArenaBlock<xalanc_1_10::XalanDOMString, unsigned long> *>::Node"* %7, i32 0, i32 1, !dbg !3504
  store %"struct.xalanc_1_10::XalanList<xalanc_1_10::ArenaBlock<xalanc_1_10::XalanDOMString, unsigned long> *>::Node"* %5, %"struct.xalanc_1_10::XalanList<xalanc_1_10::ArenaBlock<xalanc_1_10::XalanDOMString, unsigned long> *>::Node"** %prev5, align 8, !dbg !3505
  %8 = load %"struct.xalanc_1_10::XalanList<xalanc_1_10::ArenaBlock<xalanc_1_10::XalanDOMString, unsigned long> *>::Node"*, %"struct.xalanc_1_10::XalanList<xalanc_1_10::ArenaBlock<xalanc_1_10::XalanDOMString, unsigned long> *>::Node"** %node.addr, align 8, !dbg !3506
  %9 = load %"struct.xalanc_1_10::XalanList<xalanc_1_10::ArenaBlock<xalanc_1_10::XalanDOMString, unsigned long> *>::Node"*, %"struct.xalanc_1_10::XalanList<xalanc_1_10::ArenaBlock<xalanc_1_10::XalanDOMString, unsigned long> *>::Node"** %node.addr, align 8, !dbg !3507
  %prev6 = getelementptr inbounds %"struct.xalanc_1_10::XalanList<xalanc_1_10::ArenaBlock<xalanc_1_10::XalanDOMString, unsigned long> *>::Node", %"struct.xalanc_1_10::XalanList<xalanc_1_10::ArenaBlock<xalanc_1_10::XalanDOMString, unsigned long> *>::Node"* %9, i32 0, i32 1, !dbg !3508
  store %"struct.xalanc_1_10::XalanList<xalanc_1_10::ArenaBlock<xalanc_1_10::XalanDOMString, unsigned long> *>::Node"* null, %"struct.xalanc_1_10::XalanList<xalanc_1_10::ArenaBlock<xalanc_1_10::XalanDOMString, unsigned long> *>::Node"** %prev6, align 8, !dbg !3509
  %m_freeListHeadPtr = getelementptr inbounds %"class.xalanc_1_10::XalanList", %"class.xalanc_1_10::XalanList"* %this1, i32 0, i32 2, !dbg !3510
  %10 = load %"struct.xalanc_1_10::XalanList<xalanc_1_10::ArenaBlock<xalanc_1_10::XalanDOMString, unsigned long> *>::Node"*, %"struct.xalanc_1_10::XalanList<xalanc_1_10::ArenaBlock<xalanc_1_10::XalanDOMString, unsigned long> *>::Node"** %m_freeListHeadPtr, align 8, !dbg !3510
  %11 = load %"struct.xalanc_1_10::XalanList<xalanc_1_10::ArenaBlock<xalanc_1_10::XalanDOMString, unsigned long> *>::Node"*, %"struct.xalanc_1_10::XalanList<xalanc_1_10::ArenaBlock<xalanc_1_10::XalanDOMString, unsigned long> *>::Node"** %node.addr, align 8, !dbg !3511
  %next7 = getelementptr inbounds %"struct.xalanc_1_10::XalanList<xalanc_1_10::ArenaBlock<xalanc_1_10::XalanDOMString, unsigned long> *>::Node", %"struct.xalanc_1_10::XalanList<xalanc_1_10::ArenaBlock<xalanc_1_10::XalanDOMString, unsigned long> *>::Node"* %11, i32 0, i32 2, !dbg !3512
  store %"struct.xalanc_1_10::XalanList<xalanc_1_10::ArenaBlock<xalanc_1_10::XalanDOMString, unsigned long> *>::Node"* %10, %"struct.xalanc_1_10::XalanList<xalanc_1_10::ArenaBlock<xalanc_1_10::XalanDOMString, unsigned long> *>::Node"** %next7, align 8, !dbg !3513
  %12 = load %"struct.xalanc_1_10::XalanList<xalanc_1_10::ArenaBlock<xalanc_1_10::XalanDOMString, unsigned long> *>::Node"*, %"struct.xalanc_1_10::XalanList<xalanc_1_10::ArenaBlock<xalanc_1_10::XalanDOMString, unsigned long> *>::Node"** %node.addr, align 8, !dbg !3514
  %m_freeListHeadPtr8 = getelementptr inbounds %"class.xalanc_1_10::XalanList", %"class.xalanc_1_10::XalanList"* %this1, i32 0, i32 2, !dbg !3515
  store %"struct.xalanc_1_10::XalanList<xalanc_1_10::ArenaBlock<xalanc_1_10::XalanDOMString, unsigned long> *>::Node"* %12, %"struct.xalanc_1_10::XalanList<xalanc_1_10::ArenaBlock<xalanc_1_10::XalanDOMString, unsigned long> *>::Node"** %m_freeListHeadPtr8, align 8, !dbg !3516
  ret void, !dbg !3517
}

; Function Attrs: noinline uwtable
define linkonce_odr dso_local void @_ZN11xalanc_1_1021XalanListIteratorBaseINS_23XalanListIteratorTraitsIPNS_10ArenaBlockINS_14XalanDOMStringEmEEEENS_9XalanListIS5_E4NodeEEppEi(%"struct.xalanc_1_10::XalanListIteratorBase"* noalias sret %agg.result, %"struct.xalanc_1_10::XalanListIteratorBase"* %this, i32 %0) #0 comdat align 2 !dbg !3518 {
entry:
  %result.ptr = alloca i8*, align 8
  %this.addr = alloca %"struct.xalanc_1_10::XalanListIteratorBase"*, align 8
  %.addr = alloca i32, align 4
  %origNode = alloca %"struct.xalanc_1_10::XalanList<xalanc_1_10::ArenaBlock<xalanc_1_10::XalanDOMString, unsigned long> *>::Node"*, align 8
  %1 = bitcast %"struct.xalanc_1_10::XalanListIteratorBase"* %agg.result to i8*
  store i8* %1, i8** %result.ptr, align 8
  store %"struct.xalanc_1_10::XalanListIteratorBase"* %this, %"struct.xalanc_1_10::XalanListIteratorBase"** %this.addr, align 8
  call void @llvm.dbg.declare(metadata %"struct.xalanc_1_10::XalanListIteratorBase"** %this.addr, metadata !3519, metadata !DIExpression()), !dbg !3520
  store i32 %0, i32* %.addr, align 4
  call void @llvm.dbg.declare(metadata i32* %.addr, metadata !3521, metadata !DIExpression()), !dbg !3522
  %this1 = load %"struct.xalanc_1_10::XalanListIteratorBase"*, %"struct.xalanc_1_10::XalanListIteratorBase"** %this.addr, align 8
  call void @llvm.dbg.declare(metadata %"struct.xalanc_1_10::XalanList<xalanc_1_10::ArenaBlock<xalanc_1_10::XalanDOMString, unsigned long> *>::Node"** %origNode, metadata !3523, metadata !DIExpression()), !dbg !3524
  %currentNode = getelementptr inbounds %"struct.xalanc_1_10::XalanListIteratorBase", %"struct.xalanc_1_10::XalanListIteratorBase"* %this1, i32 0, i32 0, !dbg !3525
  %2 = load %"struct.xalanc_1_10::XalanList<xalanc_1_10::ArenaBlock<xalanc_1_10::XalanDOMString, unsigned long> *>::Node"*, %"struct.xalanc_1_10::XalanList<xalanc_1_10::ArenaBlock<xalanc_1_10::XalanDOMString, unsigned long> *>::Node"** %currentNode, align 8, !dbg !3525
  store %"struct.xalanc_1_10::XalanList<xalanc_1_10::ArenaBlock<xalanc_1_10::XalanDOMString, unsigned long> *>::Node"* %2, %"struct.xalanc_1_10::XalanList<xalanc_1_10::ArenaBlock<xalanc_1_10::XalanDOMString, unsigned long> *>::Node"** %origNode, align 8, !dbg !3524
  %currentNode2 = getelementptr inbounds %"struct.xalanc_1_10::XalanListIteratorBase", %"struct.xalanc_1_10::XalanListIteratorBase"* %this1, i32 0, i32 0, !dbg !3526
  %3 = load %"struct.xalanc_1_10::XalanList<xalanc_1_10::ArenaBlock<xalanc_1_10::XalanDOMString, unsigned long> *>::Node"*, %"struct.xalanc_1_10::XalanList<xalanc_1_10::ArenaBlock<xalanc_1_10::XalanDOMString, unsigned long> *>::Node"** %currentNode2, align 8, !dbg !3526
  %next = getelementptr inbounds %"struct.xalanc_1_10::XalanList<xalanc_1_10::ArenaBlock<xalanc_1_10::XalanDOMString, unsigned long> *>::Node", %"struct.xalanc_1_10::XalanList<xalanc_1_10::ArenaBlock<xalanc_1_10::XalanDOMString, unsigned long> *>::Node"* %3, i32 0, i32 2, !dbg !3527
  %4 = load %"struct.xalanc_1_10::XalanList<xalanc_1_10::ArenaBlock<xalanc_1_10::XalanDOMString, unsigned long> *>::Node"*, %"struct.xalanc_1_10::XalanList<xalanc_1_10::ArenaBlock<xalanc_1_10::XalanDOMString, unsigned long> *>::Node"** %next, align 8, !dbg !3527
  %currentNode3 = getelementptr inbounds %"struct.xalanc_1_10::XalanListIteratorBase", %"struct.xalanc_1_10::XalanListIteratorBase"* %this1, i32 0, i32 0, !dbg !3528
  store %"struct.xalanc_1_10::XalanList<xalanc_1_10::ArenaBlock<xalanc_1_10::XalanDOMString, unsigned long> *>::Node"* %4, %"struct.xalanc_1_10::XalanList<xalanc_1_10::ArenaBlock<xalanc_1_10::XalanDOMString, unsigned long> *>::Node"** %currentNode3, align 8, !dbg !3529
  %5 = load %"struct.xalanc_1_10::XalanList<xalanc_1_10::ArenaBlock<xalanc_1_10::XalanDOMString, unsigned long> *>::Node"*, %"struct.xalanc_1_10::XalanList<xalanc_1_10::ArenaBlock<xalanc_1_10::XalanDOMString, unsigned long> *>::Node"** %origNode, align 8, !dbg !3530
  call void @_ZN11xalanc_1_1021XalanListIteratorBaseINS_23XalanListIteratorTraitsIPNS_10ArenaBlockINS_14XalanDOMStringEmEEEENS_9XalanListIS5_E4NodeEEC2ERS9_(%"struct.xalanc_1_10::XalanListIteratorBase"* %agg.result, %"struct.xalanc_1_10::XalanList<xalanc_1_10::ArenaBlock<xalanc_1_10::XalanDOMString, unsigned long> *>::Node"* dereferenceable(24) %5), !dbg !3531
  ret void, !dbg !3532
}

; Function Attrs: noinline nounwind uwtable
define linkonce_odr dso_local dereferenceable(24) %"struct.xalanc_1_10::XalanList<xalanc_1_10::ArenaBlock<xalanc_1_10::XalanDOMString, unsigned long> *>::Node"* @_ZN11xalanc_1_1021XalanListIteratorBaseINS_23XalanListIteratorTraitsIPNS_10ArenaBlockINS_14XalanDOMStringEmEEEENS_9XalanListIS5_E4NodeEE4nodeEv(%"struct.xalanc_1_10::XalanListIteratorBase"* %this) #2 comdat align 2 !dbg !3533 {
entry:
  %this.addr = alloca %"struct.xalanc_1_10::XalanListIteratorBase"*, align 8
  store %"struct.xalanc_1_10::XalanListIteratorBase"* %this, %"struct.xalanc_1_10::XalanListIteratorBase"** %this.addr, align 8
  call void @llvm.dbg.declare(metadata %"struct.xalanc_1_10::XalanListIteratorBase"** %this.addr, metadata !3534, metadata !DIExpression()), !dbg !3535
  %this1 = load %"struct.xalanc_1_10::XalanListIteratorBase"*, %"struct.xalanc_1_10::XalanListIteratorBase"** %this.addr, align 8
  %currentNode = getelementptr inbounds %"struct.xalanc_1_10::XalanListIteratorBase", %"struct.xalanc_1_10::XalanListIteratorBase"* %this1, i32 0, i32 0, !dbg !3536
  %0 = load %"struct.xalanc_1_10::XalanList<xalanc_1_10::ArenaBlock<xalanc_1_10::XalanDOMString, unsigned long> *>::Node"*, %"struct.xalanc_1_10::XalanList<xalanc_1_10::ArenaBlock<xalanc_1_10::XalanDOMString, unsigned long> *>::Node"** %currentNode, align 8, !dbg !3536
  ret %"struct.xalanc_1_10::XalanList<xalanc_1_10::ArenaBlock<xalanc_1_10::XalanDOMString, unsigned long> *>::Node"* %0, !dbg !3537
}

; Function Attrs: noinline uwtable
define linkonce_odr dso_local i16* @_ZNK11xalanc_1_1014XalanDOMString5c_strEv(%"class.xalanc_1_10::XalanDOMString"* %this) #0 comdat align 2 !dbg !3538 {
entry:
  %this.addr = alloca %"class.xalanc_1_10::XalanDOMString"*, align 8
  store %"class.xalanc_1_10::XalanDOMString"* %this, %"class.xalanc_1_10::XalanDOMString"** %this.addr, align 8
  call void @llvm.dbg.declare(metadata %"class.xalanc_1_10::XalanDOMString"** %this.addr, metadata !3539, metadata !DIExpression()), !dbg !3540
  %this1 = load %"class.xalanc_1_10::XalanDOMString"*, %"class.xalanc_1_10::XalanDOMString"** %this.addr, align 8
  call void @_ZNK11xalanc_1_1014XalanDOMString10invariantsEv(%"class.xalanc_1_10::XalanDOMString"* %this1), !dbg !3541
  %m_data = getelementptr inbounds %"class.xalanc_1_10::XalanDOMString", %"class.xalanc_1_10::XalanDOMString"* %this1, i32 0, i32 0, !dbg !3542
  %call = call zeroext i1 @_ZNK11xalanc_1_1011XalanVectorItNS_31MemoryManagedConstructionTraitsItEEE5emptyEv(%"class.xalanc_1_10::XalanVector"* %m_data), !dbg !3543
  %conv = zext i1 %call to i32, !dbg !3542
  %cmp = icmp eq i32 %conv, 1, !dbg !3544
  br i1 %cmp, label %cond.true, label %cond.false, !dbg !3542

cond.true:                                        ; preds = %entry
  br label %cond.end, !dbg !3542

cond.false:                                       ; preds = %entry
  %m_data2 = getelementptr inbounds %"class.xalanc_1_10::XalanDOMString", %"class.xalanc_1_10::XalanDOMString"* %this1, i32 0, i32 0, !dbg !3545
  %call3 = call dereferenceable(2) i16* @_ZNK11xalanc_1_1011XalanVectorItNS_31MemoryManagedConstructionTraitsItEEEixEm(%"class.xalanc_1_10::XalanVector"* %m_data2, i64 0), !dbg !3545
  br label %cond.end, !dbg !3542

cond.end:                                         ; preds = %cond.false, %cond.true
  %cond = phi i16* [ @_ZN11xalanc_1_1014XalanDOMString7s_emptyE, %cond.true ], [ %call3, %cond.false ], !dbg !3542
  ret i16* %cond, !dbg !3546
}

; Function Attrs: noinline nounwind uwtable
define linkonce_odr dso_local void @_ZNK11xalanc_1_1014XalanDOMString10invariantsEv(%"class.xalanc_1_10::XalanDOMString"* %this) #2 comdat align 2 !dbg !3547 {
entry:
  %this.addr = alloca %"class.xalanc_1_10::XalanDOMString"*, align 8
  store %"class.xalanc_1_10::XalanDOMString"* %this, %"class.xalanc_1_10::XalanDOMString"** %this.addr, align 8
  call void @llvm.dbg.declare(metadata %"class.xalanc_1_10::XalanDOMString"** %this.addr, metadata !3548, metadata !DIExpression()), !dbg !3549
  %this1 = load %"class.xalanc_1_10::XalanDOMString"*, %"class.xalanc_1_10::XalanDOMString"** %this.addr, align 8
  ret void, !dbg !3550
}

; Function Attrs: noinline nounwind uwtable
define linkonce_odr dso_local zeroext i1 @_ZNK11xalanc_1_1011XalanVectorItNS_31MemoryManagedConstructionTraitsItEEE5emptyEv(%"class.xalanc_1_10::XalanVector"* %this) #2 comdat align 2 !dbg !3551 {
entry:
  %this.addr = alloca %"class.xalanc_1_10::XalanVector"*, align 8
  store %"class.xalanc_1_10::XalanVector"* %this, %"class.xalanc_1_10::XalanVector"** %this.addr, align 8
  call void @llvm.dbg.declare(metadata %"class.xalanc_1_10::XalanVector"** %this.addr, metadata !3552, metadata !DIExpression()), !dbg !3553
  %this1 = load %"class.xalanc_1_10::XalanVector"*, %"class.xalanc_1_10::XalanVector"** %this.addr, align 8
  call void @_ZNK11xalanc_1_1011XalanVectorItNS_31MemoryManagedConstructionTraitsItEEE10invariantsEv(%"class.xalanc_1_10::XalanVector"* %this1), !dbg !3554
  %m_size = getelementptr inbounds %"class.xalanc_1_10::XalanVector", %"class.xalanc_1_10::XalanVector"* %this1, i32 0, i32 1, !dbg !3555
  %0 = load i64, i64* %m_size, align 8, !dbg !3555
  %cmp = icmp eq i64 %0, 0, !dbg !3556
  %1 = zext i1 %cmp to i64, !dbg !3555
  %cond = select i1 %cmp, i1 true, i1 false, !dbg !3555
  ret i1 %cond, !dbg !3557
}

; Function Attrs: noinline nounwind uwtable
define linkonce_odr dso_local dereferenceable(2) i16* @_ZNK11xalanc_1_1011XalanVectorItNS_31MemoryManagedConstructionTraitsItEEEixEm(%"class.xalanc_1_10::XalanVector"* %this, i64 %theIndex) #2 comdat align 2 !dbg !3558 {
entry:
  %this.addr = alloca %"class.xalanc_1_10::XalanVector"*, align 8
  %theIndex.addr = alloca i64, align 8
  store %"class.xalanc_1_10::XalanVector"* %this, %"class.xalanc_1_10::XalanVector"** %this.addr, align 8
  call void @llvm.dbg.declare(metadata %"class.xalanc_1_10::XalanVector"** %this.addr, metadata !3559, metadata !DIExpression()), !dbg !3560
  store i64 %theIndex, i64* %theIndex.addr, align 8
  call void @llvm.dbg.declare(metadata i64* %theIndex.addr, metadata !3561, metadata !DIExpression()), !dbg !3562
  %this1 = load %"class.xalanc_1_10::XalanVector"*, %"class.xalanc_1_10::XalanVector"** %this.addr, align 8
  %m_data = getelementptr inbounds %"class.xalanc_1_10::XalanVector", %"class.xalanc_1_10::XalanVector"* %this1, i32 0, i32 3, !dbg !3563
  %0 = load i16*, i16** %m_data, align 8, !dbg !3563
  %1 = load i64, i64* %theIndex.addr, align 8, !dbg !3564
  %arrayidx = getelementptr inbounds i16, i16* %0, i64 %1, !dbg !3563
  ret i16* %arrayidx, !dbg !3565
}

; Function Attrs: noinline uwtable
define linkonce_odr dso_local i32 @_ZNK11xalanc_1_1014XalanDOMString6lengthEv(%"class.xalanc_1_10::XalanDOMString"* %this) #0 comdat align 2 !dbg !3566 {
entry:
  %this.addr = alloca %"class.xalanc_1_10::XalanDOMString"*, align 8
  store %"class.xalanc_1_10::XalanDOMString"* %this, %"class.xalanc_1_10::XalanDOMString"** %this.addr, align 8
  call void @llvm.dbg.declare(metadata %"class.xalanc_1_10::XalanDOMString"** %this.addr, metadata !3567, metadata !DIExpression()), !dbg !3568
  %this1 = load %"class.xalanc_1_10::XalanDOMString"*, %"class.xalanc_1_10::XalanDOMString"** %this.addr, align 8
  call void @_ZNK11xalanc_1_1014XalanDOMString10invariantsEv(%"class.xalanc_1_10::XalanDOMString"* %this1), !dbg !3569
  %call = call i32 @_ZNK11xalanc_1_1014XalanDOMString4sizeEv(%"class.xalanc_1_10::XalanDOMString"* %this1), !dbg !3570
  ret i32 %call, !dbg !3571
}

; Function Attrs: noinline nounwind uwtable
define linkonce_odr dso_local i32 @_ZNK11xalanc_1_1014XalanDOMString4sizeEv(%"class.xalanc_1_10::XalanDOMString"* %this) #2 comdat align 2 !dbg !3572 {
entry:
  %this.addr = alloca %"class.xalanc_1_10::XalanDOMString"*, align 8
  store %"class.xalanc_1_10::XalanDOMString"* %this, %"class.xalanc_1_10::XalanDOMString"** %this.addr, align 8
  call void @llvm.dbg.declare(metadata %"class.xalanc_1_10::XalanDOMString"** %this.addr, metadata !3573, metadata !DIExpression()), !dbg !3574
  %this1 = load %"class.xalanc_1_10::XalanDOMString"*, %"class.xalanc_1_10::XalanDOMString"** %this.addr, align 8
  call void @_ZNK11xalanc_1_1014XalanDOMString10invariantsEv(%"class.xalanc_1_10::XalanDOMString"* %this1), !dbg !3575
  %m_size = getelementptr inbounds %"class.xalanc_1_10::XalanDOMString", %"class.xalanc_1_10::XalanDOMString"* %this1, i32 0, i32 1, !dbg !3576
  %0 = load i32, i32* %m_size, align 8, !dbg !3576
  ret i32 %0, !dbg !3577
}

; Function Attrs: noinline uwtable
define linkonce_odr dso_local void @_ZN11xalanc_1_1018XalanMemMgrAutoPtrINS_18XalanDOMStringPoolELb0EE17MemMgrAutoPtrDataC2EPN11xercesc_2_713MemoryManagerEPS1_(%"class.xalanc_1_10::XalanMemMgrAutoPtr<xalanc_1_10::XalanDOMStringPool, false>::MemMgrAutoPtrData"* %this, %"class.xercesc_2_7::MemoryManager"* %memoryManager, %"class.xalanc_1_10::XalanDOMStringPool"* %dataPointer) unnamed_addr #0 comdat align 2 !dbg !3578 {
entry:
  %this.addr = alloca %"class.xalanc_1_10::XalanMemMgrAutoPtr<xalanc_1_10::XalanDOMStringPool, false>::MemMgrAutoPtrData"*, align 8
  %memoryManager.addr = alloca %"class.xercesc_2_7::MemoryManager"*, align 8
  %dataPointer.addr = alloca %"class.xalanc_1_10::XalanDOMStringPool"*, align 8
  store %"class.xalanc_1_10::XalanMemMgrAutoPtr<xalanc_1_10::XalanDOMStringPool, false>::MemMgrAutoPtrData"* %this, %"class.xalanc_1_10::XalanMemMgrAutoPtr<xalanc_1_10::XalanDOMStringPool, false>::MemMgrAutoPtrData"** %this.addr, align 8
  call void @llvm.dbg.declare(metadata %"class.xalanc_1_10::XalanMemMgrAutoPtr<xalanc_1_10::XalanDOMStringPool, false>::MemMgrAutoPtrData"** %this.addr, metadata !3579, metadata !DIExpression()), !dbg !3581
  store %"class.xercesc_2_7::MemoryManager"* %memoryManager, %"class.xercesc_2_7::MemoryManager"** %memoryManager.addr, align 8
  call void @llvm.dbg.declare(metadata %"class.xercesc_2_7::MemoryManager"** %memoryManager.addr, metadata !3582, metadata !DIExpression()), !dbg !3583
  store %"class.xalanc_1_10::XalanDOMStringPool"* %dataPointer, %"class.xalanc_1_10::XalanDOMStringPool"** %dataPointer.addr, align 8
  call void @llvm.dbg.declare(metadata %"class.xalanc_1_10::XalanDOMStringPool"** %dataPointer.addr, metadata !3584, metadata !DIExpression()), !dbg !3585
  %this1 = load %"class.xalanc_1_10::XalanMemMgrAutoPtr<xalanc_1_10::XalanDOMStringPool, false>::MemMgrAutoPtrData"*, %"class.xalanc_1_10::XalanMemMgrAutoPtr<xalanc_1_10::XalanDOMStringPool, false>::MemMgrAutoPtrData"** %this.addr, align 8
  %0 = bitcast %"class.xalanc_1_10::XalanMemMgrAutoPtr<xalanc_1_10::XalanDOMStringPool, false>::MemMgrAutoPtrData"* %this1 to %"struct.std::pair"*, !dbg !3586
  call void @_ZNSt4pairIPN11xercesc_2_713MemoryManagerEPN11xalanc_1_1018XalanDOMStringPoolEEC2IRS2_RS5_Lb1EEEOT_OT0_(%"struct.std::pair"* %0, %"class.xercesc_2_7::MemoryManager"** dereferenceable(8) %memoryManager.addr, %"class.xalanc_1_10::XalanDOMStringPool"** dereferenceable(8) %dataPointer.addr), !dbg !3587
  call void @_ZNK11xalanc_1_1018XalanMemMgrAutoPtrINS_18XalanDOMStringPoolELb0EE17MemMgrAutoPtrData10invariantsEv(%"class.xalanc_1_10::XalanMemMgrAutoPtr<xalanc_1_10::XalanDOMStringPool, false>::MemMgrAutoPtrData"* %this1), !dbg !3588
  ret void, !dbg !3590
}

; Function Attrs: noinline nounwind uwtable
define linkonce_odr dso_local void @_ZNSt4pairIPN11xercesc_2_713MemoryManagerEPN11xalanc_1_1018XalanDOMStringPoolEEC2IRS2_RS5_Lb1EEEOT_OT0_(%"struct.std::pair"* %this, %"class.xercesc_2_7::MemoryManager"** dereferenceable(8) %__x, %"class.xalanc_1_10::XalanDOMStringPool"** dereferenceable(8) %__y) unnamed_addr #2 comdat align 2 !dbg !3591 {
entry:
  %this.addr = alloca %"struct.std::pair"*, align 8
  %__x.addr = alloca %"class.xercesc_2_7::MemoryManager"**, align 8
  %__y.addr = alloca %"class.xalanc_1_10::XalanDOMStringPool"**, align 8
  store %"struct.std::pair"* %this, %"struct.std::pair"** %this.addr, align 8
  call void @llvm.dbg.declare(metadata %"struct.std::pair"** %this.addr, metadata !3601, metadata !DIExpression()), !dbg !3603
  store %"class.xercesc_2_7::MemoryManager"** %__x, %"class.xercesc_2_7::MemoryManager"*** %__x.addr, align 8
  call void @llvm.dbg.declare(metadata %"class.xercesc_2_7::MemoryManager"*** %__x.addr, metadata !3604, metadata !DIExpression()), !dbg !3605
  store %"class.xalanc_1_10::XalanDOMStringPool"** %__y, %"class.xalanc_1_10::XalanDOMStringPool"*** %__y.addr, align 8
  call void @llvm.dbg.declare(metadata %"class.xalanc_1_10::XalanDOMStringPool"*** %__y.addr, metadata !3606, metadata !DIExpression()), !dbg !3607
  %this1 = load %"struct.std::pair"*, %"struct.std::pair"** %this.addr, align 8
  %0 = bitcast %"struct.std::pair"* %this1 to %"class.std::__pair_base"*, !dbg !3608
  %first = getelementptr inbounds %"struct.std::pair", %"struct.std::pair"* %this1, i32 0, i32 0, !dbg !3609
  %1 = load %"class.xercesc_2_7::MemoryManager"**, %"class.xercesc_2_7::MemoryManager"*** %__x.addr, align 8, !dbg !3610
  %call = call dereferenceable(8) %"class.xercesc_2_7::MemoryManager"** @_ZSt7forwardIRPN11xercesc_2_713MemoryManagerEEOT_RNSt16remove_referenceIS4_E4typeE(%"class.xercesc_2_7::MemoryManager"** dereferenceable(8) %1) #3, !dbg !3611
  %2 = load %"class.xercesc_2_7::MemoryManager"*, %"class.xercesc_2_7::MemoryManager"** %call, align 8, !dbg !3611
  store %"class.xercesc_2_7::MemoryManager"* %2, %"class.xercesc_2_7::MemoryManager"** %first, align 8, !dbg !3609
  %second = getelementptr inbounds %"struct.std::pair", %"struct.std::pair"* %this1, i32 0, i32 1, !dbg !3612
  %3 = load %"class.xalanc_1_10::XalanDOMStringPool"**, %"class.xalanc_1_10::XalanDOMStringPool"*** %__y.addr, align 8, !dbg !3613
  %call2 = call dereferenceable(8) %"class.xalanc_1_10::XalanDOMStringPool"** @_ZSt7forwardIRPN11xalanc_1_1018XalanDOMStringPoolEEOT_RNSt16remove_referenceIS4_E4typeE(%"class.xalanc_1_10::XalanDOMStringPool"** dereferenceable(8) %3) #3, !dbg !3614
  %4 = load %"class.xalanc_1_10::XalanDOMStringPool"*, %"class.xalanc_1_10::XalanDOMStringPool"** %call2, align 8, !dbg !3614
  store %"class.xalanc_1_10::XalanDOMStringPool"* %4, %"class.xalanc_1_10::XalanDOMStringPool"** %second, align 8, !dbg !3612
  ret void, !dbg !3615
}

; Function Attrs: noinline nounwind uwtable
define linkonce_odr dso_local void @_ZNK11xalanc_1_1018XalanMemMgrAutoPtrINS_18XalanDOMStringPoolELb0EE17MemMgrAutoPtrData10invariantsEv(%"class.xalanc_1_10::XalanMemMgrAutoPtr<xalanc_1_10::XalanDOMStringPool, false>::MemMgrAutoPtrData"* %this) #2 comdat align 2 !dbg !3616 {
entry:
  %this.addr = alloca %"class.xalanc_1_10::XalanMemMgrAutoPtr<xalanc_1_10::XalanDOMStringPool, false>::MemMgrAutoPtrData"*, align 8
  store %"class.xalanc_1_10::XalanMemMgrAutoPtr<xalanc_1_10::XalanDOMStringPool, false>::MemMgrAutoPtrData"* %this, %"class.xalanc_1_10::XalanMemMgrAutoPtr<xalanc_1_10::XalanDOMStringPool, false>::MemMgrAutoPtrData"** %this.addr, align 8
  call void @llvm.dbg.declare(metadata %"class.xalanc_1_10::XalanMemMgrAutoPtr<xalanc_1_10::XalanDOMStringPool, false>::MemMgrAutoPtrData"** %this.addr, metadata !3617, metadata !DIExpression()), !dbg !3619
  %this1 = load %"class.xalanc_1_10::XalanMemMgrAutoPtr<xalanc_1_10::XalanDOMStringPool, false>::MemMgrAutoPtrData"*, %"class.xalanc_1_10::XalanMemMgrAutoPtr<xalanc_1_10::XalanDOMStringPool, false>::MemMgrAutoPtrData"** %this.addr, align 8
  ret void, !dbg !3620
}

; Function Attrs: noinline nounwind uwtable
define linkonce_odr dso_local dereferenceable(8) %"class.xercesc_2_7::MemoryManager"** @_ZSt7forwardIRPN11xercesc_2_713MemoryManagerEEOT_RNSt16remove_referenceIS4_E4typeE(%"class.xercesc_2_7::MemoryManager"** dereferenceable(8) %__t) #2 comdat !dbg !3621 {
entry:
  %__t.addr = alloca %"class.xercesc_2_7::MemoryManager"**, align 8
  store %"class.xercesc_2_7::MemoryManager"** %__t, %"class.xercesc_2_7::MemoryManager"*** %__t.addr, align 8
  call void @llvm.dbg.declare(metadata %"class.xercesc_2_7::MemoryManager"*** %__t.addr, metadata !3630, metadata !DIExpression()), !dbg !3631
  %0 = load %"class.xercesc_2_7::MemoryManager"**, %"class.xercesc_2_7::MemoryManager"*** %__t.addr, align 8, !dbg !3632
  ret %"class.xercesc_2_7::MemoryManager"** %0, !dbg !3633
}

; Function Attrs: noinline nounwind uwtable
define linkonce_odr dso_local dereferenceable(8) %"class.xalanc_1_10::XalanDOMStringPool"** @_ZSt7forwardIRPN11xalanc_1_1018XalanDOMStringPoolEEOT_RNSt16remove_referenceIS4_E4typeE(%"class.xalanc_1_10::XalanDOMStringPool"** dereferenceable(8) %__t) #2 comdat !dbg !3634 {
entry:
  %__t.addr = alloca %"class.xalanc_1_10::XalanDOMStringPool"**, align 8
  store %"class.xalanc_1_10::XalanDOMStringPool"** %__t, %"class.xalanc_1_10::XalanDOMStringPool"*** %__t.addr, align 8
  call void @llvm.dbg.declare(metadata %"class.xalanc_1_10::XalanDOMStringPool"*** %__t.addr, metadata !3642, metadata !DIExpression()), !dbg !3643
  %0 = load %"class.xalanc_1_10::XalanDOMStringPool"**, %"class.xalanc_1_10::XalanDOMStringPool"*** %__t.addr, align 8, !dbg !3644
  ret %"class.xalanc_1_10::XalanDOMStringPool"** %0, !dbg !3645
}

; Function Attrs: noinline uwtable
define linkonce_odr dso_local void @_ZN11xalanc_1_1018XalanMemMgrAutoPtrINS_18XalanDOMStringPoolELb0EE17MemMgrAutoPtrData10deallocateEv(%"class.xalanc_1_10::XalanMemMgrAutoPtr<xalanc_1_10::XalanDOMStringPool, false>::MemMgrAutoPtrData"* %this) #0 comdat align 2 !dbg !3646 {
entry:
  %this.addr = alloca %"class.xalanc_1_10::XalanMemMgrAutoPtr<xalanc_1_10::XalanDOMStringPool, false>::MemMgrAutoPtrData"*, align 8
  store %"class.xalanc_1_10::XalanMemMgrAutoPtr<xalanc_1_10::XalanDOMStringPool, false>::MemMgrAutoPtrData"* %this, %"class.xalanc_1_10::XalanMemMgrAutoPtr<xalanc_1_10::XalanDOMStringPool, false>::MemMgrAutoPtrData"** %this.addr, align 8
  call void @llvm.dbg.declare(metadata %"class.xalanc_1_10::XalanMemMgrAutoPtr<xalanc_1_10::XalanDOMStringPool, false>::MemMgrAutoPtrData"** %this.addr, metadata !3647, metadata !DIExpression()), !dbg !3648
  %this1 = load %"class.xalanc_1_10::XalanMemMgrAutoPtr<xalanc_1_10::XalanDOMStringPool, false>::MemMgrAutoPtrData"*, %"class.xalanc_1_10::XalanMemMgrAutoPtr<xalanc_1_10::XalanDOMStringPool, false>::MemMgrAutoPtrData"** %this.addr, align 8
  call void @_ZNK11xalanc_1_1018XalanMemMgrAutoPtrINS_18XalanDOMStringPoolELb0EE17MemMgrAutoPtrData10invariantsEv(%"class.xalanc_1_10::XalanMemMgrAutoPtr<xalanc_1_10::XalanDOMStringPool, false>::MemMgrAutoPtrData"* %this1), !dbg !3649
  %call = call zeroext i1 @_ZNK11xalanc_1_1018XalanMemMgrAutoPtrINS_18XalanDOMStringPoolELb0EE17MemMgrAutoPtrData12isInitilizedEv(%"class.xalanc_1_10::XalanMemMgrAutoPtr<xalanc_1_10::XalanDOMStringPool, false>::MemMgrAutoPtrData"* %this1), !dbg !3650
  br i1 %call, label %if.then, label %if.end, !dbg !3652

if.then:                                          ; preds = %entry
  %0 = bitcast %"class.xalanc_1_10::XalanMemMgrAutoPtr<xalanc_1_10::XalanDOMStringPool, false>::MemMgrAutoPtrData"* %this1 to %"struct.std::pair"*, !dbg !3653
  %first = getelementptr inbounds %"struct.std::pair", %"struct.std::pair"* %0, i32 0, i32 0, !dbg !3653
  %1 = load %"class.xercesc_2_7::MemoryManager"*, %"class.xercesc_2_7::MemoryManager"** %first, align 8, !dbg !3653
  %2 = bitcast %"class.xalanc_1_10::XalanMemMgrAutoPtr<xalanc_1_10::XalanDOMStringPool, false>::MemMgrAutoPtrData"* %this1 to %"struct.std::pair"*, !dbg !3655
  %second = getelementptr inbounds %"struct.std::pair", %"struct.std::pair"* %2, i32 0, i32 1, !dbg !3655
  %3 = load %"class.xalanc_1_10::XalanDOMStringPool"*, %"class.xalanc_1_10::XalanDOMStringPool"** %second, align 8, !dbg !3655
  %4 = bitcast %"class.xalanc_1_10::XalanDOMStringPool"* %3 to i8*, !dbg !3656
  %5 = bitcast %"class.xercesc_2_7::MemoryManager"* %1 to void (%"class.xercesc_2_7::MemoryManager"*, i8*)***, !dbg !3657
  %vtable = load void (%"class.xercesc_2_7::MemoryManager"*, i8*)**, void (%"class.xercesc_2_7::MemoryManager"*, i8*)*** %5, align 8, !dbg !3657
  %vfn = getelementptr inbounds void (%"class.xercesc_2_7::MemoryManager"*, i8*)*, void (%"class.xercesc_2_7::MemoryManager"*, i8*)** %vtable, i64 3, !dbg !3657
  %6 = load void (%"class.xercesc_2_7::MemoryManager"*, i8*)*, void (%"class.xercesc_2_7::MemoryManager"*, i8*)** %vfn, align 8, !dbg !3657
  call void %6(%"class.xercesc_2_7::MemoryManager"* %1, i8* %4), !dbg !3657
  br label %if.end, !dbg !3658

if.end:                                           ; preds = %if.then, %entry
  ret void, !dbg !3659
}

; Function Attrs: noinline nounwind uwtable
define linkonce_odr dso_local zeroext i1 @_ZNK11xalanc_1_1018XalanMemMgrAutoPtrINS_18XalanDOMStringPoolELb0EE17MemMgrAutoPtrData12isInitilizedEv(%"class.xalanc_1_10::XalanMemMgrAutoPtr<xalanc_1_10::XalanDOMStringPool, false>::MemMgrAutoPtrData"* %this) #2 comdat align 2 !dbg !3660 {
entry:
  %this.addr = alloca %"class.xalanc_1_10::XalanMemMgrAutoPtr<xalanc_1_10::XalanDOMStringPool, false>::MemMgrAutoPtrData"*, align 8
  store %"class.xalanc_1_10::XalanMemMgrAutoPtr<xalanc_1_10::XalanDOMStringPool, false>::MemMgrAutoPtrData"* %this, %"class.xalanc_1_10::XalanMemMgrAutoPtr<xalanc_1_10::XalanDOMStringPool, false>::MemMgrAutoPtrData"** %this.addr, align 8
  call void @llvm.dbg.declare(metadata %"class.xalanc_1_10::XalanMemMgrAutoPtr<xalanc_1_10::XalanDOMStringPool, false>::MemMgrAutoPtrData"** %this.addr, metadata !3661, metadata !DIExpression()), !dbg !3662
  %this1 = load %"class.xalanc_1_10::XalanMemMgrAutoPtr<xalanc_1_10::XalanDOMStringPool, false>::MemMgrAutoPtrData"*, %"class.xalanc_1_10::XalanMemMgrAutoPtr<xalanc_1_10::XalanDOMStringPool, false>::MemMgrAutoPtrData"** %this.addr, align 8
  %0 = bitcast %"class.xalanc_1_10::XalanMemMgrAutoPtr<xalanc_1_10::XalanDOMStringPool, false>::MemMgrAutoPtrData"* %this1 to %"struct.std::pair"*, !dbg !3663
  %first = getelementptr inbounds %"struct.std::pair", %"struct.std::pair"* %0, i32 0, i32 0, !dbg !3663
  %1 = load %"class.xercesc_2_7::MemoryManager"*, %"class.xercesc_2_7::MemoryManager"** %first, align 8, !dbg !3663
  %cmp = icmp ne %"class.xercesc_2_7::MemoryManager"* %1, null, !dbg !3664
  br i1 %cmp, label %land.rhs, label %land.end, !dbg !3665

land.rhs:                                         ; preds = %entry
  %2 = bitcast %"class.xalanc_1_10::XalanMemMgrAutoPtr<xalanc_1_10::XalanDOMStringPool, false>::MemMgrAutoPtrData"* %this1 to %"struct.std::pair"*, !dbg !3666
  %second = getelementptr inbounds %"struct.std::pair", %"struct.std::pair"* %2, i32 0, i32 1, !dbg !3666
  %3 = load %"class.xalanc_1_10::XalanDOMStringPool"*, %"class.xalanc_1_10::XalanDOMStringPool"** %second, align 8, !dbg !3666
  %cmp2 = icmp ne %"class.xalanc_1_10::XalanDOMStringPool"* %3, null, !dbg !3667
  br label %land.end

land.end:                                         ; preds = %land.rhs, %entry
  %4 = phi i1 [ false, %entry ], [ %cmp2, %land.rhs ], !dbg !3662
  ret i1 %4, !dbg !3668
}

; Function Attrs: noinline nounwind uwtable
define linkonce_odr dso_local void @_ZN11xalanc_1_1018XalanMemMgrAutoPtrINS_18XalanDOMStringPoolELb0EE17MemMgrAutoPtrData5resetEPN11xercesc_2_713MemoryManagerEPS1_(%"class.xalanc_1_10::XalanMemMgrAutoPtr<xalanc_1_10::XalanDOMStringPool, false>::MemMgrAutoPtrData"* %this, %"class.xercesc_2_7::MemoryManager"* %memoryManager, %"class.xalanc_1_10::XalanDOMStringPool"* %dataPointer) #2 comdat align 2 !dbg !3669 {
entry:
  %this.addr = alloca %"class.xalanc_1_10::XalanMemMgrAutoPtr<xalanc_1_10::XalanDOMStringPool, false>::MemMgrAutoPtrData"*, align 8
  %memoryManager.addr = alloca %"class.xercesc_2_7::MemoryManager"*, align 8
  %dataPointer.addr = alloca %"class.xalanc_1_10::XalanDOMStringPool"*, align 8
  store %"class.xalanc_1_10::XalanMemMgrAutoPtr<xalanc_1_10::XalanDOMStringPool, false>::MemMgrAutoPtrData"* %this, %"class.xalanc_1_10::XalanMemMgrAutoPtr<xalanc_1_10::XalanDOMStringPool, false>::MemMgrAutoPtrData"** %this.addr, align 8
  call void @llvm.dbg.declare(metadata %"class.xalanc_1_10::XalanMemMgrAutoPtr<xalanc_1_10::XalanDOMStringPool, false>::MemMgrAutoPtrData"** %this.addr, metadata !3670, metadata !DIExpression()), !dbg !3671
  store %"class.xercesc_2_7::MemoryManager"* %memoryManager, %"class.xercesc_2_7::MemoryManager"** %memoryManager.addr, align 8
  call void @llvm.dbg.declare(metadata %"class.xercesc_2_7::MemoryManager"** %memoryManager.addr, metadata !3672, metadata !DIExpression()), !dbg !3673
  store %"class.xalanc_1_10::XalanDOMStringPool"* %dataPointer, %"class.xalanc_1_10::XalanDOMStringPool"** %dataPointer.addr, align 8
  call void @llvm.dbg.declare(metadata %"class.xalanc_1_10::XalanDOMStringPool"** %dataPointer.addr, metadata !3674, metadata !DIExpression()), !dbg !3675
  %this1 = load %"class.xalanc_1_10::XalanMemMgrAutoPtr<xalanc_1_10::XalanDOMStringPool, false>::MemMgrAutoPtrData"*, %"class.xalanc_1_10::XalanMemMgrAutoPtr<xalanc_1_10::XalanDOMStringPool, false>::MemMgrAutoPtrData"** %this.addr, align 8
  call void @_ZNK11xalanc_1_1018XalanMemMgrAutoPtrINS_18XalanDOMStringPoolELb0EE17MemMgrAutoPtrData10invariantsEv(%"class.xalanc_1_10::XalanMemMgrAutoPtr<xalanc_1_10::XalanDOMStringPool, false>::MemMgrAutoPtrData"* %this1), !dbg !3676
  %0 = load %"class.xercesc_2_7::MemoryManager"*, %"class.xercesc_2_7::MemoryManager"** %memoryManager.addr, align 8, !dbg !3677
  %1 = bitcast %"class.xalanc_1_10::XalanMemMgrAutoPtr<xalanc_1_10::XalanDOMStringPool, false>::MemMgrAutoPtrData"* %this1 to %"struct.std::pair"*, !dbg !3678
  %first = getelementptr inbounds %"struct.std::pair", %"struct.std::pair"* %1, i32 0, i32 0, !dbg !3678
  store %"class.xercesc_2_7::MemoryManager"* %0, %"class.xercesc_2_7::MemoryManager"** %first, align 8, !dbg !3679
  %2 = load %"class.xalanc_1_10::XalanDOMStringPool"*, %"class.xalanc_1_10::XalanDOMStringPool"** %dataPointer.addr, align 8, !dbg !3680
  %3 = bitcast %"class.xalanc_1_10::XalanMemMgrAutoPtr<xalanc_1_10::XalanDOMStringPool, false>::MemMgrAutoPtrData"* %this1 to %"struct.std::pair"*, !dbg !3681
  %second = getelementptr inbounds %"struct.std::pair", %"struct.std::pair"* %3, i32 0, i32 1, !dbg !3681
  store %"class.xalanc_1_10::XalanDOMStringPool"* %2, %"class.xalanc_1_10::XalanDOMStringPool"** %second, align 8, !dbg !3682
  call void @_ZNK11xalanc_1_1018XalanMemMgrAutoPtrINS_18XalanDOMStringPoolELb0EE17MemMgrAutoPtrData10invariantsEv(%"class.xalanc_1_10::XalanMemMgrAutoPtr<xalanc_1_10::XalanDOMStringPool, false>::MemMgrAutoPtrData"* %this1), !dbg !3683
  ret void, !dbg !3684
}

; Function Attrs: noinline uwtable
define internal void @_GLOBAL__sub_I_XalanDOMStringPool.cpp() #0 section ".text.startup" !dbg !3685 {
entry:
  call void @__cxx_global_var_init(), !dbg !3687
  ret void
}

attributes #0 = { noinline uwtable "correctly-rounded-divide-sqrt-fp-math"="false" "disable-tail-calls"="false" "frame-pointer"="all" "less-precise-fpmad"="false" "min-legal-vector-width"="0" "no-infs-fp-math"="false" "no-jump-tables"="false" "no-nans-fp-math"="false" "no-signed-zeros-fp-math"="false" "no-trapping-math"="false" "stack-protector-buffer-size"="8" "target-cpu"="x86-64" "target-features"="+cx8,+fxsr,+mmx,+sse,+sse2,+x87" "unsafe-fp-math"="false" "use-soft-float"="false" }
attributes #1 = { "correctly-rounded-divide-sqrt-fp-math"="false" "disable-tail-calls"="false" "frame-pointer"="all" "less-precise-fpmad"="false" "no-infs-fp-math"="false" "no-nans-fp-math"="false" "no-signed-zeros-fp-math"="false" "no-trapping-math"="false" "stack-protector-buffer-size"="8" "target-cpu"="x86-64" "target-features"="+cx8,+fxsr,+mmx,+sse,+sse2,+x87" "unsafe-fp-math"="false" "use-soft-float"="false" }
attributes #2 = { noinline nounwind uwtable "correctly-rounded-divide-sqrt-fp-math"="false" "disable-tail-calls"="false" "frame-pointer"="all" "less-precise-fpmad"="false" "min-legal-vector-width"="0" "no-infs-fp-math"="false" "no-jump-tables"="false" "no-nans-fp-math"="false" "no-signed-zeros-fp-math"="false" "no-trapping-math"="false" "stack-protector-buffer-size"="8" "target-cpu"="x86-64" "target-features"="+cx8,+fxsr,+mmx,+sse,+sse2,+x87" "unsafe-fp-math"="false" "use-soft-float"="false" }
attributes #3 = { nounwind }
attributes #4 = { nounwind readnone speculatable willreturn }
attributes #5 = { nounwind "correctly-rounded-divide-sqrt-fp-math"="false" "disable-tail-calls"="false" "frame-pointer"="all" "less-precise-fpmad"="false" "no-infs-fp-math"="false" "no-nans-fp-math"="false" "no-signed-zeros-fp-math"="false" "no-trapping-math"="false" "stack-protector-buffer-size"="8" "target-cpu"="x86-64" "target-features"="+cx8,+fxsr,+mmx,+sse,+sse2,+x87" "unsafe-fp-math"="false" "use-soft-float"="false" }
attributes #6 = { nobuiltin nounwind "correctly-rounded-divide-sqrt-fp-math"="false" "disable-tail-calls"="false" "frame-pointer"="all" "less-precise-fpmad"="false" "no-infs-fp-math"="false" "no-nans-fp-math"="false" "no-signed-zeros-fp-math"="false" "no-trapping-math"="false" "stack-protector-buffer-size"="8" "target-cpu"="x86-64" "target-features"="+cx8,+fxsr,+mmx,+sse,+sse2,+x87" "unsafe-fp-math"="false" "use-soft-float"="false" }
attributes #7 = { noinline noreturn nounwind }
attributes #8 = { argmemonly nounwind willreturn }
attributes #9 = { noreturn nounwind }
attributes #10 = { builtin nounwind }

!llvm.dbg.cu = !{!1373}
!llvm.module.flags = !{!2713, !2714, !2715}
!llvm.ident = !{!2716}

!0 = !DIGlobalVariableExpression(var: !1, expr: !DIExpression())
!1 = distinct !DIGlobalVariable(name: "s_emptyString", linkageName: "_ZN11xalanc_1_1018XalanDOMStringPool13s_emptyStringE", scope: !2, file: !3, line: 26, type: !4, isLocal: false, isDefinition: true, declaration: !776)
!2 = !DINamespace(name: "xalanc_1_10", scope: null)
!3 = !DIFile(filename: "XalanDOMStringPool.cpp", directory: "/home/venkat/IF-DV/spec_build_release/CPU_2017/benchspec/CPU/523.xalancbmk_r/build/build_base_ld-loop-ext-m64.0000")
!4 = !DIDerivedType(tag: DW_TAG_const_type, baseType: !5)
!5 = distinct !DICompositeType(tag: DW_TAG_class_type, name: "XalanDOMString", scope: !2, file: !6, line: 42, size: 320, flags: DIFlagTypePassByReference | DIFlagNonTrivial, elements: !7, identifier: "_ZTSN11xalanc_1_1014XalanDOMStringE")
!6 = !DIFile(filename: "./xalanc/XalanDOM/XalanDOMString.hpp", directory: "/home/venkat/IF-DV/spec_build_release/CPU_2017/benchspec/CPU/523.xalancbmk_r/build/build_base_ld-loop-ext-m64.0000")
!7 = !{!8, !12, !363, !364, !368, !374, !380, !384, !388, !391, !395, !398, !402, !405, !408, !411, !415, !420, !421, !422, !426, !430, !431, !432, !435, !436, !437, !440, !443, !444, !445, !446, !449, !452, !457, !462, !463, !464, !467, !468, !471, !472, !473, !474, !475, !478, !479, !482, !485, !486, !489, !492, !493, !494, !495, !496, !497, !498, !499, !502, !505, !508, !511, !514, !517, !520, !523, !526, !529, !532, !535, !538, !541, !544, !547, !550, !737, !740, !741, !744, !747, !750, !753, !756, !759, !762, !765, !768, !769, !770, !773}
!8 = !DIDerivedType(tag: DW_TAG_member, name: "npos", scope: !5, file: !6, line: 61, baseType: !9, flags: DIFlagPublic | DIFlagStaticMember, extraData: i32 -1)
!9 = !DIDerivedType(tag: DW_TAG_const_type, baseType: !10)
!10 = !DIDerivedType(tag: DW_TAG_typedef, name: "size_type", scope: !5, file: !6, line: 53, baseType: !11)
!11 = !DIBasicType(name: "unsigned int", size: 32, encoding: DW_ATE_unsigned)
!12 = !DIDerivedType(tag: DW_TAG_member, name: "m_data", scope: !5, file: !6, line: 793, baseType: !13, size: 256)
!13 = !DIDerivedType(tag: DW_TAG_typedef, name: "XalanDOMCharVectorType", scope: !5, file: !6, line: 45, baseType: !14)
!14 = distinct !DICompositeType(tag: DW_TAG_class_type, name: "XalanVector<unsigned short, xalanc_1_10::MemoryManagedConstructionTraits<unsigned short> >", scope: !2, file: !15, line: 61, size: 256, flags: DIFlagTypePassByReference | DIFlagNonTrivial, elements: !16, templateParams: !356, identifier: "_ZTSN11xalanc_1_1011XalanVectorItNS_31MemoryManagedConstructionTraitsItEEEE")
!15 = !DIFile(filename: "./xalanc/Include/XalanVector.hpp", directory: "/home/venkat/IF-DV/spec_build_release/CPU_2017/benchspec/CPU/523.xalancbmk_r/build/build_base_ld-loop-ext-m64.0000")
!16 = !{!17, !22, !27, !28, !32, !37, !41, !47, !53, !56, !60, !63, !66, !67, !71, !74, !77, !80, !83, !86, !89, !92, !97, !98, !101, !102, !103, !107, !108, !113, !117, !118, !119, !122, !125, !126, !127, !218, !289, !290, !291, !294, !297, !298, !299, !300, !304, !307, !312, !315, !319, !322, !326, !329, !332, !335, !338, !339, !342, !343, !344, !348, !351, !352, !353}
!17 = !DIDerivedType(tag: DW_TAG_member, name: "m_memoryManager", scope: !14, file: !15, line: 1087, baseType: !18, size: 64)
!18 = !DIDerivedType(tag: DW_TAG_pointer_type, baseType: !19, size: 64)
!19 = !DICompositeType(tag: DW_TAG_class_type, name: "MemoryManager", scope: !21, file: !20, line: 38, flags: DIFlagFwdDecl, identifier: "_ZTSN11xercesc_2_713MemoryManagerE")
!20 = !DIFile(filename: "./xercesc/framework/MemoryManager.hpp", directory: "/home/venkat/IF-DV/spec_build_release/CPU_2017/benchspec/CPU/523.xalancbmk_r/build/build_base_ld-loop-ext-m64.0000")
!21 = !DINamespace(name: "xercesc_2_7", scope: null)
!22 = !DIDerivedType(tag: DW_TAG_member, name: "m_size", scope: !14, file: !15, line: 1089, baseType: !23, size: 64, offset: 64)
!23 = !DIDerivedType(tag: DW_TAG_typedef, name: "size_type", file: !15, line: 71, baseType: !24)
!24 = !DIDerivedType(tag: DW_TAG_typedef, name: "size_t", file: !25, line: 46, baseType: !26)
!25 = !DIFile(filename: "Rohit/IR2Vec-LoopOptimizationFramework/build_REL_AsrtON/lib/clang/10.0.1/include/stddef.h", directory: "/home/venkat/IF-DV")
!26 = !DIBasicType(name: "long unsigned int", size: 64, encoding: DW_ATE_unsigned)
!27 = !DIDerivedType(tag: DW_TAG_member, name: "m_allocation", scope: !14, file: !15, line: 1091, baseType: !23, size: 64, offset: 128)
!28 = !DIDerivedType(tag: DW_TAG_member, name: "m_data", scope: !14, file: !15, line: 1093, baseType: !29, size: 64, offset: 192)
!29 = !DIDerivedType(tag: DW_TAG_pointer_type, baseType: !30, size: 64)
!30 = !DIDerivedType(tag: DW_TAG_typedef, name: "value_type", scope: !14, file: !15, line: 66, baseType: !31)
!31 = !DIBasicType(name: "unsigned short", size: 16, encoding: DW_ATE_unsigned)
!32 = !DISubprogram(name: "XalanVector", scope: !14, file: !15, line: 120, type: !33, scopeLine: 120, flags: DIFlagPublic | DIFlagPrototyped, spFlags: 0)
!33 = !DISubroutineType(types: !34)
!34 = !{null, !35, !36, !23}
!35 = !DIDerivedType(tag: DW_TAG_pointer_type, baseType: !14, size: 64, flags: DIFlagArtificial | DIFlagObjectPointer)
!36 = !DIDerivedType(tag: DW_TAG_reference_type, baseType: !19, size: 64)
!37 = !DISubprogram(name: "create", linkageName: "_ZN11xalanc_1_1011XalanVectorItNS_31MemoryManagedConstructionTraitsItEEE6createERN11xercesc_2_713MemoryManagerEm", scope: !14, file: !15, line: 132, type: !38, scopeLine: 132, flags: DIFlagPublic | DIFlagPrototyped | DIFlagStaticMember, spFlags: 0)
!38 = !DISubroutineType(types: !39)
!39 = !{!40, !36, !23}
!40 = !DIDerivedType(tag: DW_TAG_pointer_type, baseType: !14, size: 64)
!41 = !DISubprogram(name: "XalanVector", scope: !14, file: !15, line: 149, type: !42, scopeLine: 149, flags: DIFlagPublic | DIFlagPrototyped, spFlags: 0)
!42 = !DISubroutineType(types: !43)
!43 = !{null, !35, !44, !36, !23}
!44 = !DIDerivedType(tag: DW_TAG_reference_type, baseType: !45, size: 64)
!45 = !DIDerivedType(tag: DW_TAG_const_type, baseType: !46)
!46 = !DIDerivedType(tag: DW_TAG_typedef, name: "ThisType", scope: !14, file: !15, line: 115, baseType: !14)
!47 = !DISubprogram(name: "XalanVector", scope: !14, file: !15, line: 177, type: !48, scopeLine: 177, flags: DIFlagPublic | DIFlagPrototyped, spFlags: 0)
!48 = !DISubroutineType(types: !49)
!49 = !{null, !35, !50, !50, !36}
!50 = !DIDerivedType(tag: DW_TAG_typedef, name: "const_iterator", scope: !14, file: !15, line: 92, baseType: !51)
!51 = !DIDerivedType(tag: DW_TAG_pointer_type, baseType: !52, size: 64)
!52 = !DIDerivedType(tag: DW_TAG_const_type, baseType: !30)
!53 = !DISubprogram(name: "create", linkageName: "_ZN11xalanc_1_1011XalanVectorItNS_31MemoryManagedConstructionTraitsItEEE6createEPKtS5_RN11xercesc_2_713MemoryManagerE", scope: !14, file: !15, line: 197, type: !54, scopeLine: 197, flags: DIFlagPublic | DIFlagPrototyped | DIFlagStaticMember, spFlags: 0)
!54 = !DISubroutineType(types: !55)
!55 = !{!40, !50, !50, !36}
!56 = !DISubprogram(name: "XalanVector", scope: !14, file: !15, line: 215, type: !57, scopeLine: 215, flags: DIFlagPublic | DIFlagPrototyped, spFlags: 0)
!57 = !DISubroutineType(types: !58)
!58 = !{null, !35, !23, !59, !36}
!59 = !DIDerivedType(tag: DW_TAG_reference_type, baseType: !52, size: 64)
!60 = !DISubprogram(name: "~XalanVector", scope: !14, file: !15, line: 233, type: !61, scopeLine: 233, flags: DIFlagPublic | DIFlagPrototyped, spFlags: 0)
!61 = !DISubroutineType(types: !62)
!62 = !{null, !35}
!63 = !DISubprogram(name: "push_back", linkageName: "_ZN11xalanc_1_1011XalanVectorItNS_31MemoryManagedConstructionTraitsItEEE9push_backERKt", scope: !14, file: !15, line: 246, type: !64, scopeLine: 246, flags: DIFlagPublic | DIFlagPrototyped, spFlags: 0)
!64 = !DISubroutineType(types: !65)
!65 = !{null, !35, !59}
!66 = !DISubprogram(name: "pop_back", linkageName: "_ZN11xalanc_1_1011XalanVectorItNS_31MemoryManagedConstructionTraitsItEEE8pop_backEv", scope: !14, file: !15, line: 256, type: !61, scopeLine: 256, flags: DIFlagPublic | DIFlagPrototyped, spFlags: 0)
!67 = !DISubprogram(name: "erase", linkageName: "_ZN11xalanc_1_1011XalanVectorItNS_31MemoryManagedConstructionTraitsItEEE5eraseEPtS4_", scope: !14, file: !15, line: 268, type: !68, scopeLine: 268, flags: DIFlagPublic | DIFlagPrototyped, spFlags: 0)
!68 = !DISubroutineType(types: !69)
!69 = !{!70, !35, !70, !70}
!70 = !DIDerivedType(tag: DW_TAG_typedef, name: "iterator", scope: !14, file: !15, line: 91, baseType: !29)
!71 = !DISubprogram(name: "erase", linkageName: "_ZN11xalanc_1_1011XalanVectorItNS_31MemoryManagedConstructionTraitsItEEE5eraseEPt", scope: !14, file: !15, line: 290, type: !72, scopeLine: 290, flags: DIFlagPublic | DIFlagPrototyped, spFlags: 0)
!72 = !DISubroutineType(types: !73)
!73 = !{!70, !35, !70}
!74 = !DISubprogram(name: "insert", linkageName: "_ZN11xalanc_1_1011XalanVectorItNS_31MemoryManagedConstructionTraitsItEEE6insertEPtPKtS6_", scope: !14, file: !15, line: 296, type: !75, scopeLine: 296, flags: DIFlagPublic | DIFlagPrototyped, spFlags: 0)
!75 = !DISubroutineType(types: !76)
!76 = !{null, !35, !70, !50, !50}
!77 = !DISubprogram(name: "insert", linkageName: "_ZN11xalanc_1_1011XalanVectorItNS_31MemoryManagedConstructionTraitsItEEE6insertEPtmRKt", scope: !14, file: !15, line: 415, type: !78, scopeLine: 415, flags: DIFlagPublic | DIFlagPrototyped, spFlags: 0)
!78 = !DISubroutineType(types: !79)
!79 = !{null, !35, !70, !23, !59}
!80 = !DISubprogram(name: "insert", linkageName: "_ZN11xalanc_1_1011XalanVectorItNS_31MemoryManagedConstructionTraitsItEEE6insertEPtRKt", scope: !14, file: !15, line: 516, type: !81, scopeLine: 516, flags: DIFlagPublic | DIFlagPrototyped, spFlags: 0)
!81 = !DISubroutineType(types: !82)
!82 = !{!70, !35, !70, !59}
!83 = !DISubprogram(name: "assign", linkageName: "_ZN11xalanc_1_1011XalanVectorItNS_31MemoryManagedConstructionTraitsItEEE6assignEPKtS5_", scope: !14, file: !15, line: 538, type: !84, scopeLine: 538, flags: DIFlagPublic | DIFlagPrototyped, spFlags: 0)
!84 = !DISubroutineType(types: !85)
!85 = !{null, !35, !50, !50}
!86 = !DISubprogram(name: "assign", linkageName: "_ZN11xalanc_1_1011XalanVectorItNS_31MemoryManagedConstructionTraitsItEEE6assignEPtS4_", scope: !14, file: !15, line: 551, type: !87, scopeLine: 551, flags: DIFlagPublic | DIFlagPrototyped, spFlags: 0)
!87 = !DISubroutineType(types: !88)
!88 = !{null, !35, !70, !70}
!89 = !DISubprogram(name: "assign", linkageName: "_ZN11xalanc_1_1011XalanVectorItNS_31MemoryManagedConstructionTraitsItEEE6assignEmRKt", scope: !14, file: !15, line: 561, type: !90, scopeLine: 561, flags: DIFlagPublic | DIFlagPrototyped, spFlags: 0)
!90 = !DISubroutineType(types: !91)
!91 = !{null, !35, !23, !59}
!92 = !DISubprogram(name: "size", linkageName: "_ZNK11xalanc_1_1011XalanVectorItNS_31MemoryManagedConstructionTraitsItEEE4sizeEv", scope: !14, file: !15, line: 571, type: !93, scopeLine: 571, flags: DIFlagPublic | DIFlagPrototyped, spFlags: 0)
!93 = !DISubroutineType(types: !94)
!94 = !{!23, !95}
!95 = !DIDerivedType(tag: DW_TAG_pointer_type, baseType: !96, size: 64, flags: DIFlagArtificial | DIFlagObjectPointer)
!96 = !DIDerivedType(tag: DW_TAG_const_type, baseType: !14)
!97 = !DISubprogram(name: "max_size", linkageName: "_ZNK11xalanc_1_1011XalanVectorItNS_31MemoryManagedConstructionTraitsItEEE8max_sizeEv", scope: !14, file: !15, line: 579, type: !93, scopeLine: 579, flags: DIFlagPublic | DIFlagPrototyped, spFlags: 0)
!98 = !DISubprogram(name: "resize", linkageName: "_ZN11xalanc_1_1011XalanVectorItNS_31MemoryManagedConstructionTraitsItEEE6resizeEm", scope: !14, file: !15, line: 587, type: !99, scopeLine: 587, flags: DIFlagPublic | DIFlagPrototyped, spFlags: 0)
!99 = !DISubroutineType(types: !100)
!100 = !{null, !35, !23}
!101 = !DISubprogram(name: "resize", linkageName: "_ZN11xalanc_1_1011XalanVectorItNS_31MemoryManagedConstructionTraitsItEEE6resizeEmRKt", scope: !14, file: !15, line: 595, type: !90, scopeLine: 595, flags: DIFlagPublic | DIFlagPrototyped, spFlags: 0)
!102 = !DISubprogram(name: "capacity", linkageName: "_ZNK11xalanc_1_1011XalanVectorItNS_31MemoryManagedConstructionTraitsItEEE8capacityEv", scope: !14, file: !15, line: 628, type: !93, scopeLine: 628, flags: DIFlagPublic | DIFlagPrototyped, spFlags: 0)
!103 = !DISubprogram(name: "empty", linkageName: "_ZNK11xalanc_1_1011XalanVectorItNS_31MemoryManagedConstructionTraitsItEEE5emptyEv", scope: !14, file: !15, line: 636, type: !104, scopeLine: 636, flags: DIFlagPublic | DIFlagPrototyped, spFlags: 0)
!104 = !DISubroutineType(types: !105)
!105 = !{!106, !95}
!106 = !DIBasicType(name: "bool", size: 8, encoding: DW_ATE_boolean)
!107 = !DISubprogram(name: "reserve", linkageName: "_ZN11xalanc_1_1011XalanVectorItNS_31MemoryManagedConstructionTraitsItEEE7reserveEm", scope: !14, file: !15, line: 644, type: !99, scopeLine: 644, flags: DIFlagPublic | DIFlagPrototyped, spFlags: 0)
!108 = !DISubprogram(name: "front", linkageName: "_ZN11xalanc_1_1011XalanVectorItNS_31MemoryManagedConstructionTraitsItEEE5frontEv", scope: !14, file: !15, line: 657, type: !109, scopeLine: 657, flags: DIFlagPublic | DIFlagPrototyped, spFlags: 0)
!109 = !DISubroutineType(types: !110)
!110 = !{!111, !35}
!111 = !DIDerivedType(tag: DW_TAG_typedef, name: "reference", scope: !14, file: !15, line: 69, baseType: !112)
!112 = !DIDerivedType(tag: DW_TAG_reference_type, baseType: !30, size: 64)
!113 = !DISubprogram(name: "front", linkageName: "_ZNK11xalanc_1_1011XalanVectorItNS_31MemoryManagedConstructionTraitsItEEE5frontEv", scope: !14, file: !15, line: 665, type: !114, scopeLine: 665, flags: DIFlagPublic | DIFlagPrototyped, spFlags: 0)
!114 = !DISubroutineType(types: !115)
!115 = !{!116, !95}
!116 = !DIDerivedType(tag: DW_TAG_typedef, name: "const_reference", scope: !14, file: !15, line: 70, baseType: !59)
!117 = !DISubprogram(name: "back", linkageName: "_ZN11xalanc_1_1011XalanVectorItNS_31MemoryManagedConstructionTraitsItEEE4backEv", scope: !14, file: !15, line: 673, type: !109, scopeLine: 673, flags: DIFlagPublic | DIFlagPrototyped, spFlags: 0)
!118 = !DISubprogram(name: "back", linkageName: "_ZNK11xalanc_1_1011XalanVectorItNS_31MemoryManagedConstructionTraitsItEEE4backEv", scope: !14, file: !15, line: 679, type: !114, scopeLine: 679, flags: DIFlagPublic | DIFlagPrototyped, spFlags: 0)
!119 = !DISubprogram(name: "begin", linkageName: "_ZN11xalanc_1_1011XalanVectorItNS_31MemoryManagedConstructionTraitsItEEE5beginEv", scope: !14, file: !15, line: 685, type: !120, scopeLine: 685, flags: DIFlagPublic | DIFlagPrototyped, spFlags: 0)
!120 = !DISubroutineType(types: !121)
!121 = !{!70, !35}
!122 = !DISubprogram(name: "begin", linkageName: "_ZNK11xalanc_1_1011XalanVectorItNS_31MemoryManagedConstructionTraitsItEEE5beginEv", scope: !14, file: !15, line: 693, type: !123, scopeLine: 693, flags: DIFlagPublic | DIFlagPrototyped, spFlags: 0)
!123 = !DISubroutineType(types: !124)
!124 = !{!50, !95}
!125 = !DISubprogram(name: "end", linkageName: "_ZN11xalanc_1_1011XalanVectorItNS_31MemoryManagedConstructionTraitsItEEE3endEv", scope: !14, file: !15, line: 701, type: !120, scopeLine: 701, flags: DIFlagPublic | DIFlagPrototyped, spFlags: 0)
!126 = !DISubprogram(name: "end", linkageName: "_ZNK11xalanc_1_1011XalanVectorItNS_31MemoryManagedConstructionTraitsItEEE3endEv", scope: !14, file: !15, line: 709, type: !123, scopeLine: 709, flags: DIFlagPublic | DIFlagPrototyped, spFlags: 0)
!127 = !DISubprogram(name: "rbegin", linkageName: "_ZN11xalanc_1_1011XalanVectorItNS_31MemoryManagedConstructionTraitsItEEE6rbeginEv", scope: !14, file: !15, line: 717, type: !128, scopeLine: 717, flags: DIFlagPublic | DIFlagPrototyped, spFlags: 0)
!128 = !DISubroutineType(types: !129)
!129 = !{!130, !35}
!130 = !DIDerivedType(tag: DW_TAG_typedef, name: "reverse_iterator", scope: !14, file: !15, line: 112, baseType: !131)
!131 = !DIDerivedType(tag: DW_TAG_typedef, name: "reverse_iterator_", scope: !14, file: !15, line: 96, baseType: !132)
!132 = distinct !DICompositeType(tag: DW_TAG_class_type, name: "reverse_iterator<unsigned short *>", scope: !134, file: !133, line: 125, size: 64, flags: DIFlagTypePassByReference | DIFlagNonTrivial, elements: !135, templateParams: !187, identifier: "_ZTSSt16reverse_iteratorIPtE")
!133 = !DIFile(filename: "/usr/lib/gcc/x86_64-linux-gnu/10/../../../../include/c++/10/bits/stl_iterator.h", directory: "")
!134 = !DINamespace(name: "std", scope: null)
!135 = !{!136, !159, !160, !164, !168, !173, !177, !181, !189, !194, !197, !201, !202, !203, !210, !213, !214, !215}
!136 = !DIDerivedType(tag: DW_TAG_inheritance, scope: !132, baseType: !137, flags: DIFlagPublic, extraData: i32 0)
!137 = distinct !DICompositeType(tag: DW_TAG_structure_type, name: "iterator<std::random_access_iterator_tag, unsigned short, long, unsigned short *, unsigned short &>", scope: !134, file: !138, line: 127, size: 8, flags: DIFlagTypePassByValue, elements: !139, templateParams: !140, identifier: "_ZTSSt8iteratorISt26random_access_iterator_tagtlPtRtE")
!138 = !DIFile(filename: "/usr/lib/gcc/x86_64-linux-gnu/10/../../../../include/c++/10/bits/stl_iterator_base_types.h", directory: "")
!139 = !{}
!140 = !{!141, !152, !153, !155, !157}
!141 = !DITemplateTypeParameter(name: "_Category", type: !142)
!142 = distinct !DICompositeType(tag: DW_TAG_structure_type, name: "random_access_iterator_tag", scope: !134, file: !138, line: 107, size: 8, flags: DIFlagTypePassByValue, elements: !143, identifier: "_ZTSSt26random_access_iterator_tag")
!143 = !{!144}
!144 = !DIDerivedType(tag: DW_TAG_inheritance, scope: !142, baseType: !145, extraData: i32 0)
!145 = distinct !DICompositeType(tag: DW_TAG_structure_type, name: "bidirectional_iterator_tag", scope: !134, file: !138, line: 103, size: 8, flags: DIFlagTypePassByValue, elements: !146, identifier: "_ZTSSt26bidirectional_iterator_tag")
!146 = !{!147}
!147 = !DIDerivedType(tag: DW_TAG_inheritance, scope: !145, baseType: !148, extraData: i32 0)
!148 = distinct !DICompositeType(tag: DW_TAG_structure_type, name: "forward_iterator_tag", scope: !134, file: !138, line: 99, size: 8, flags: DIFlagTypePassByValue, elements: !149, identifier: "_ZTSSt20forward_iterator_tag")
!149 = !{!150}
!150 = !DIDerivedType(tag: DW_TAG_inheritance, scope: !148, baseType: !151, extraData: i32 0)
!151 = distinct !DICompositeType(tag: DW_TAG_structure_type, name: "input_iterator_tag", scope: !134, file: !138, line: 93, size: 8, flags: DIFlagTypePassByValue, elements: !139, identifier: "_ZTSSt18input_iterator_tag")
!152 = !DITemplateTypeParameter(name: "_Tp", type: !31)
!153 = !DITemplateTypeParameter(name: "_Distance", type: !154)
!154 = !DIBasicType(name: "long int", size: 64, encoding: DW_ATE_signed)
!155 = !DITemplateTypeParameter(name: "_Pointer", type: !156)
!156 = !DIDerivedType(tag: DW_TAG_pointer_type, baseType: !31, size: 64)
!157 = !DITemplateTypeParameter(name: "_Reference", type: !158)
!158 = !DIDerivedType(tag: DW_TAG_reference_type, baseType: !31, size: 64)
!159 = !DIDerivedType(tag: DW_TAG_member, name: "current", scope: !132, file: !133, line: 133, baseType: !156, size: 64, flags: DIFlagProtected)
!160 = !DISubprogram(name: "reverse_iterator", scope: !132, file: !133, line: 161, type: !161, scopeLine: 161, flags: DIFlagPublic | DIFlagPrototyped, spFlags: 0)
!161 = !DISubroutineType(types: !162)
!162 = !{null, !163}
!163 = !DIDerivedType(tag: DW_TAG_pointer_type, baseType: !132, size: 64, flags: DIFlagArtificial | DIFlagObjectPointer)
!164 = !DISubprogram(name: "reverse_iterator", scope: !132, file: !133, line: 167, type: !165, scopeLine: 167, flags: DIFlagPublic | DIFlagExplicit | DIFlagPrototyped, spFlags: 0)
!165 = !DISubroutineType(types: !166)
!166 = !{null, !163, !167}
!167 = !DIDerivedType(tag: DW_TAG_typedef, name: "iterator_type", scope: !132, file: !133, line: 138, baseType: !156)
!168 = !DISubprogram(name: "reverse_iterator", scope: !132, file: !133, line: 173, type: !169, scopeLine: 173, flags: DIFlagPublic | DIFlagPrototyped, spFlags: 0)
!169 = !DISubroutineType(types: !170)
!170 = !{null, !163, !171}
!171 = !DIDerivedType(tag: DW_TAG_reference_type, baseType: !172, size: 64)
!172 = !DIDerivedType(tag: DW_TAG_const_type, baseType: !132)
!173 = !DISubprogram(name: "operator=", linkageName: "_ZNSt16reverse_iteratorIPtEaSERKS1_", scope: !132, file: !133, line: 177, type: !174, scopeLine: 177, flags: DIFlagPublic | DIFlagPrototyped, spFlags: 0)
!174 = !DISubroutineType(types: !175)
!175 = !{!176, !163, !171}
!176 = !DIDerivedType(tag: DW_TAG_reference_type, baseType: !132, size: 64)
!177 = !DISubprogram(name: "base", linkageName: "_ZNKSt16reverse_iteratorIPtE4baseEv", scope: !132, file: !133, line: 193, type: !178, scopeLine: 193, flags: DIFlagPublic | DIFlagPrototyped, spFlags: 0)
!178 = !DISubroutineType(types: !179)
!179 = !{!167, !180}
!180 = !DIDerivedType(tag: DW_TAG_pointer_type, baseType: !172, size: 64, flags: DIFlagArtificial | DIFlagObjectPointer)
!181 = !DISubprogram(name: "operator*", linkageName: "_ZNKSt16reverse_iteratorIPtEdeEv", scope: !132, file: !133, line: 207, type: !182, scopeLine: 207, flags: DIFlagPublic | DIFlagPrototyped, spFlags: 0)
!182 = !DISubroutineType(types: !183)
!183 = !{!184, !180}
!184 = !DIDerivedType(tag: DW_TAG_typedef, name: "reference", scope: !132, file: !133, line: 141, baseType: !185)
!185 = !DIDerivedType(tag: DW_TAG_typedef, name: "reference", scope: !186, file: !138, line: 216, baseType: !158)
!186 = distinct !DICompositeType(tag: DW_TAG_structure_type, name: "iterator_traits<unsigned short *>", scope: !134, file: !138, line: 210, size: 8, flags: DIFlagTypePassByValue, elements: !139, templateParams: !187, identifier: "_ZTSSt15iterator_traitsIPtE")
!187 = !{!188}
!188 = !DITemplateTypeParameter(name: "_Iterator", type: !156)
!189 = !DISubprogram(name: "operator->", linkageName: "_ZNKSt16reverse_iteratorIPtEptEv", scope: !132, file: !133, line: 219, type: !190, scopeLine: 219, flags: DIFlagPublic | DIFlagPrototyped, spFlags: 0)
!190 = !DISubroutineType(types: !191)
!191 = !{!192, !180}
!192 = !DIDerivedType(tag: DW_TAG_typedef, name: "pointer", scope: !132, file: !133, line: 140, baseType: !193)
!193 = !DIDerivedType(tag: DW_TAG_typedef, name: "pointer", scope: !186, file: !138, line: 215, baseType: !156)
!194 = !DISubprogram(name: "operator++", linkageName: "_ZNSt16reverse_iteratorIPtEppEv", scope: !132, file: !133, line: 238, type: !195, scopeLine: 238, flags: DIFlagPublic | DIFlagPrototyped, spFlags: 0)
!195 = !DISubroutineType(types: !196)
!196 = !{!176, !163}
!197 = !DISubprogram(name: "operator++", linkageName: "_ZNSt16reverse_iteratorIPtEppEi", scope: !132, file: !133, line: 250, type: !198, scopeLine: 250, flags: DIFlagPublic | DIFlagPrototyped, spFlags: 0)
!198 = !DISubroutineType(types: !199)
!199 = !{!132, !163, !200}
!200 = !DIBasicType(name: "int", size: 32, encoding: DW_ATE_signed)
!201 = !DISubprogram(name: "operator--", linkageName: "_ZNSt16reverse_iteratorIPtEmmEv", scope: !132, file: !133, line: 263, type: !195, scopeLine: 263, flags: DIFlagPublic | DIFlagPrototyped, spFlags: 0)
!202 = !DISubprogram(name: "operator--", linkageName: "_ZNSt16reverse_iteratorIPtEmmEi", scope: !132, file: !133, line: 275, type: !198, scopeLine: 275, flags: DIFlagPublic | DIFlagPrototyped, spFlags: 0)
!203 = !DISubprogram(name: "operator+", linkageName: "_ZNKSt16reverse_iteratorIPtEplEl", scope: !132, file: !133, line: 288, type: !204, scopeLine: 288, flags: DIFlagPublic | DIFlagPrototyped, spFlags: 0)
!204 = !DISubroutineType(types: !205)
!205 = !{!132, !180, !206}
!206 = !DIDerivedType(tag: DW_TAG_typedef, name: "difference_type", scope: !132, file: !133, line: 139, baseType: !207)
!207 = !DIDerivedType(tag: DW_TAG_typedef, name: "difference_type", scope: !186, file: !138, line: 214, baseType: !208)
!208 = !DIDerivedType(tag: DW_TAG_typedef, name: "ptrdiff_t", scope: !134, file: !209, line: 261, baseType: !154)
!209 = !DIFile(filename: "/usr/lib/gcc/x86_64-linux-gnu/10/../../../../include/x86_64-linux-gnu/c++/10/bits/c++config.h", directory: "")
!210 = !DISubprogram(name: "operator+=", linkageName: "_ZNSt16reverse_iteratorIPtEpLEl", scope: !132, file: !133, line: 298, type: !211, scopeLine: 298, flags: DIFlagPublic | DIFlagPrototyped, spFlags: 0)
!211 = !DISubroutineType(types: !212)
!212 = !{!176, !163, !206}
!213 = !DISubprogram(name: "operator-", linkageName: "_ZNKSt16reverse_iteratorIPtEmiEl", scope: !132, file: !133, line: 310, type: !204, scopeLine: 310, flags: DIFlagPublic | DIFlagPrototyped, spFlags: 0)
!214 = !DISubprogram(name: "operator-=", linkageName: "_ZNSt16reverse_iteratorIPtEmIEl", scope: !132, file: !133, line: 320, type: !211, scopeLine: 320, flags: DIFlagPublic | DIFlagPrototyped, spFlags: 0)
!215 = !DISubprogram(name: "operator[]", linkageName: "_ZNKSt16reverse_iteratorIPtEixEl", scope: !132, file: !133, line: 332, type: !216, scopeLine: 332, flags: DIFlagPublic | DIFlagPrototyped, spFlags: 0)
!216 = !DISubroutineType(types: !217)
!217 = !{!184, !180, !206}
!218 = !DISubprogram(name: "rbegin", linkageName: "_ZNK11xalanc_1_1011XalanVectorItNS_31MemoryManagedConstructionTraitsItEEE6rbeginEv", scope: !14, file: !15, line: 725, type: !219, scopeLine: 725, flags: DIFlagPublic | DIFlagPrototyped, spFlags: 0)
!219 = !DISubroutineType(types: !220)
!220 = !{!221, !95}
!221 = !DIDerivedType(tag: DW_TAG_typedef, name: "const_reverse_iterator", scope: !14, file: !15, line: 113, baseType: !222)
!222 = !DIDerivedType(tag: DW_TAG_typedef, name: "const_reverse_iterator_", scope: !14, file: !15, line: 97, baseType: !223)
!223 = distinct !DICompositeType(tag: DW_TAG_class_type, name: "reverse_iterator<const unsigned short *>", scope: !134, file: !133, line: 125, size: 64, flags: DIFlagTypePassByReference | DIFlagNonTrivial, elements: !224, templateParams: !261, identifier: "_ZTSSt16reverse_iteratorIPKtE")
!224 = !{!225, !233, !234, !238, !242, !247, !251, !255, !263, !268, !271, !274, !275, !276, !281, !284, !285, !286}
!225 = !DIDerivedType(tag: DW_TAG_inheritance, scope: !223, baseType: !226, flags: DIFlagPublic, extraData: i32 0)
!226 = distinct !DICompositeType(tag: DW_TAG_structure_type, name: "iterator<std::random_access_iterator_tag, unsigned short, long, const unsigned short *, const unsigned short &>", scope: !134, file: !138, line: 127, size: 8, flags: DIFlagTypePassByValue, elements: !139, templateParams: !227, identifier: "_ZTSSt8iteratorISt26random_access_iterator_tagtlPKtRS1_E")
!227 = !{!141, !152, !153, !228, !231}
!228 = !DITemplateTypeParameter(name: "_Pointer", type: !229)
!229 = !DIDerivedType(tag: DW_TAG_pointer_type, baseType: !230, size: 64)
!230 = !DIDerivedType(tag: DW_TAG_const_type, baseType: !31)
!231 = !DITemplateTypeParameter(name: "_Reference", type: !232)
!232 = !DIDerivedType(tag: DW_TAG_reference_type, baseType: !230, size: 64)
!233 = !DIDerivedType(tag: DW_TAG_member, name: "current", scope: !223, file: !133, line: 133, baseType: !229, size: 64, flags: DIFlagProtected)
!234 = !DISubprogram(name: "reverse_iterator", scope: !223, file: !133, line: 161, type: !235, scopeLine: 161, flags: DIFlagPublic | DIFlagPrototyped, spFlags: 0)
!235 = !DISubroutineType(types: !236)
!236 = !{null, !237}
!237 = !DIDerivedType(tag: DW_TAG_pointer_type, baseType: !223, size: 64, flags: DIFlagArtificial | DIFlagObjectPointer)
!238 = !DISubprogram(name: "reverse_iterator", scope: !223, file: !133, line: 167, type: !239, scopeLine: 167, flags: DIFlagPublic | DIFlagExplicit | DIFlagPrototyped, spFlags: 0)
!239 = !DISubroutineType(types: !240)
!240 = !{null, !237, !241}
!241 = !DIDerivedType(tag: DW_TAG_typedef, name: "iterator_type", scope: !223, file: !133, line: 138, baseType: !229)
!242 = !DISubprogram(name: "reverse_iterator", scope: !223, file: !133, line: 173, type: !243, scopeLine: 173, flags: DIFlagPublic | DIFlagPrototyped, spFlags: 0)
!243 = !DISubroutineType(types: !244)
!244 = !{null, !237, !245}
!245 = !DIDerivedType(tag: DW_TAG_reference_type, baseType: !246, size: 64)
!246 = !DIDerivedType(tag: DW_TAG_const_type, baseType: !223)
!247 = !DISubprogram(name: "operator=", linkageName: "_ZNSt16reverse_iteratorIPKtEaSERKS2_", scope: !223, file: !133, line: 177, type: !248, scopeLine: 177, flags: DIFlagPublic | DIFlagPrototyped, spFlags: 0)
!248 = !DISubroutineType(types: !249)
!249 = !{!250, !237, !245}
!250 = !DIDerivedType(tag: DW_TAG_reference_type, baseType: !223, size: 64)
!251 = !DISubprogram(name: "base", linkageName: "_ZNKSt16reverse_iteratorIPKtE4baseEv", scope: !223, file: !133, line: 193, type: !252, scopeLine: 193, flags: DIFlagPublic | DIFlagPrototyped, spFlags: 0)
!252 = !DISubroutineType(types: !253)
!253 = !{!241, !254}
!254 = !DIDerivedType(tag: DW_TAG_pointer_type, baseType: !246, size: 64, flags: DIFlagArtificial | DIFlagObjectPointer)
!255 = !DISubprogram(name: "operator*", linkageName: "_ZNKSt16reverse_iteratorIPKtEdeEv", scope: !223, file: !133, line: 207, type: !256, scopeLine: 207, flags: DIFlagPublic | DIFlagPrototyped, spFlags: 0)
!256 = !DISubroutineType(types: !257)
!257 = !{!258, !254}
!258 = !DIDerivedType(tag: DW_TAG_typedef, name: "reference", scope: !223, file: !133, line: 141, baseType: !259)
!259 = !DIDerivedType(tag: DW_TAG_typedef, name: "reference", scope: !260, file: !138, line: 227, baseType: !232)
!260 = distinct !DICompositeType(tag: DW_TAG_structure_type, name: "iterator_traits<const unsigned short *>", scope: !134, file: !138, line: 221, size: 8, flags: DIFlagTypePassByValue, elements: !139, templateParams: !261, identifier: "_ZTSSt15iterator_traitsIPKtE")
!261 = !{!262}
!262 = !DITemplateTypeParameter(name: "_Iterator", type: !229)
!263 = !DISubprogram(name: "operator->", linkageName: "_ZNKSt16reverse_iteratorIPKtEptEv", scope: !223, file: !133, line: 219, type: !264, scopeLine: 219, flags: DIFlagPublic | DIFlagPrototyped, spFlags: 0)
!264 = !DISubroutineType(types: !265)
!265 = !{!266, !254}
!266 = !DIDerivedType(tag: DW_TAG_typedef, name: "pointer", scope: !223, file: !133, line: 140, baseType: !267)
!267 = !DIDerivedType(tag: DW_TAG_typedef, name: "pointer", scope: !260, file: !138, line: 226, baseType: !229)
!268 = !DISubprogram(name: "operator++", linkageName: "_ZNSt16reverse_iteratorIPKtEppEv", scope: !223, file: !133, line: 238, type: !269, scopeLine: 238, flags: DIFlagPublic | DIFlagPrototyped, spFlags: 0)
!269 = !DISubroutineType(types: !270)
!270 = !{!250, !237}
!271 = !DISubprogram(name: "operator++", linkageName: "_ZNSt16reverse_iteratorIPKtEppEi", scope: !223, file: !133, line: 250, type: !272, scopeLine: 250, flags: DIFlagPublic | DIFlagPrototyped, spFlags: 0)
!272 = !DISubroutineType(types: !273)
!273 = !{!223, !237, !200}
!274 = !DISubprogram(name: "operator--", linkageName: "_ZNSt16reverse_iteratorIPKtEmmEv", scope: !223, file: !133, line: 263, type: !269, scopeLine: 263, flags: DIFlagPublic | DIFlagPrototyped, spFlags: 0)
!275 = !DISubprogram(name: "operator--", linkageName: "_ZNSt16reverse_iteratorIPKtEmmEi", scope: !223, file: !133, line: 275, type: !272, scopeLine: 275, flags: DIFlagPublic | DIFlagPrototyped, spFlags: 0)
!276 = !DISubprogram(name: "operator+", linkageName: "_ZNKSt16reverse_iteratorIPKtEplEl", scope: !223, file: !133, line: 288, type: !277, scopeLine: 288, flags: DIFlagPublic | DIFlagPrototyped, spFlags: 0)
!277 = !DISubroutineType(types: !278)
!278 = !{!223, !254, !279}
!279 = !DIDerivedType(tag: DW_TAG_typedef, name: "difference_type", scope: !223, file: !133, line: 139, baseType: !280)
!280 = !DIDerivedType(tag: DW_TAG_typedef, name: "difference_type", scope: !260, file: !138, line: 225, baseType: !208)
!281 = !DISubprogram(name: "operator+=", linkageName: "_ZNSt16reverse_iteratorIPKtEpLEl", scope: !223, file: !133, line: 298, type: !282, scopeLine: 298, flags: DIFlagPublic | DIFlagPrototyped, spFlags: 0)
!282 = !DISubroutineType(types: !283)
!283 = !{!250, !237, !279}
!284 = !DISubprogram(name: "operator-", linkageName: "_ZNKSt16reverse_iteratorIPKtEmiEl", scope: !223, file: !133, line: 310, type: !277, scopeLine: 310, flags: DIFlagPublic | DIFlagPrototyped, spFlags: 0)
!285 = !DISubprogram(name: "operator-=", linkageName: "_ZNSt16reverse_iteratorIPKtEmIEl", scope: !223, file: !133, line: 320, type: !282, scopeLine: 320, flags: DIFlagPublic | DIFlagPrototyped, spFlags: 0)
!286 = !DISubprogram(name: "operator[]", linkageName: "_ZNKSt16reverse_iteratorIPKtEixEl", scope: !223, file: !133, line: 332, type: !287, scopeLine: 332, flags: DIFlagPublic | DIFlagPrototyped, spFlags: 0)
!287 = !DISubroutineType(types: !288)
!288 = !{!258, !254, !279}
!289 = !DISubprogram(name: "rend", linkageName: "_ZN11xalanc_1_1011XalanVectorItNS_31MemoryManagedConstructionTraitsItEEE4rendEv", scope: !14, file: !15, line: 733, type: !128, scopeLine: 733, flags: DIFlagPublic | DIFlagPrototyped, spFlags: 0)
!290 = !DISubprogram(name: "rend", linkageName: "_ZNK11xalanc_1_1011XalanVectorItNS_31MemoryManagedConstructionTraitsItEEE4rendEv", scope: !14, file: !15, line: 741, type: !219, scopeLine: 741, flags: DIFlagPublic | DIFlagPrototyped, spFlags: 0)
!291 = !DISubprogram(name: "at", linkageName: "_ZN11xalanc_1_1011XalanVectorItNS_31MemoryManagedConstructionTraitsItEEE2atEm", scope: !14, file: !15, line: 750, type: !292, scopeLine: 750, flags: DIFlagPublic | DIFlagPrototyped, spFlags: 0)
!292 = !DISubroutineType(types: !293)
!293 = !{!111, !35, !23}
!294 = !DISubprogram(name: "at", linkageName: "_ZNK11xalanc_1_1011XalanVectorItNS_31MemoryManagedConstructionTraitsItEEE2atEm", scope: !14, file: !15, line: 761, type: !295, scopeLine: 761, flags: DIFlagPublic | DIFlagPrototyped, spFlags: 0)
!295 = !DISubroutineType(types: !296)
!296 = !{!116, !95, !23}
!297 = !DISubprogram(name: "operator[]", linkageName: "_ZN11xalanc_1_1011XalanVectorItNS_31MemoryManagedConstructionTraitsItEEEixEm", scope: !14, file: !15, line: 772, type: !292, scopeLine: 772, flags: DIFlagPublic | DIFlagPrototyped, spFlags: 0)
!298 = !DISubprogram(name: "operator[]", linkageName: "_ZNK11xalanc_1_1011XalanVectorItNS_31MemoryManagedConstructionTraitsItEEEixEm", scope: !14, file: !15, line: 780, type: !295, scopeLine: 780, flags: DIFlagPublic | DIFlagPrototyped, spFlags: 0)
!299 = !DISubprogram(name: "clear", linkageName: "_ZN11xalanc_1_1011XalanVectorItNS_31MemoryManagedConstructionTraitsItEEE5clearEv", scope: !14, file: !15, line: 788, type: !61, scopeLine: 788, flags: DIFlagPublic | DIFlagPrototyped, spFlags: 0)
!300 = !DISubprogram(name: "operator=", linkageName: "_ZN11xalanc_1_1011XalanVectorItNS_31MemoryManagedConstructionTraitsItEEEaSERKS3_", scope: !14, file: !15, line: 802, type: !301, scopeLine: 802, flags: DIFlagPublic | DIFlagPrototyped, spFlags: 0)
!301 = !DISubroutineType(types: !302)
!302 = !{!303, !35, !44}
!303 = !DIDerivedType(tag: DW_TAG_reference_type, baseType: !46, size: 64)
!304 = !DISubprogram(name: "swap", linkageName: "_ZN11xalanc_1_1011XalanVectorItNS_31MemoryManagedConstructionTraitsItEEE4swapERS3_", scope: !14, file: !15, line: 848, type: !305, scopeLine: 848, flags: DIFlagPublic | DIFlagPrototyped, spFlags: 0)
!305 = !DISubroutineType(types: !306)
!306 = !{null, !35, !303}
!307 = !DISubprogram(name: "getMemoryManager", linkageName: "_ZNK11xalanc_1_1011XalanVectorItNS_31MemoryManagedConstructionTraitsItEEE16getMemoryManagerEv", scope: !14, file: !15, line: 871, type: !308, scopeLine: 871, flags: DIFlagPublic | DIFlagPrototyped, spFlags: 0)
!308 = !DISubroutineType(types: !309)
!309 = !{!310, !95}
!310 = !DIDerivedType(tag: DW_TAG_pointer_type, baseType: !311, size: 64)
!311 = !DIDerivedType(tag: DW_TAG_const_type, baseType: !19)
!312 = !DISubprogram(name: "getMemoryManager", linkageName: "_ZN11xalanc_1_1011XalanVectorItNS_31MemoryManagedConstructionTraitsItEEE16getMemoryManagerEv", scope: !14, file: !15, line: 877, type: !313, scopeLine: 877, flags: DIFlagPublic | DIFlagPrototyped, spFlags: 0)
!313 = !DISubroutineType(types: !314)
!314 = !{!36, !35}
!315 = !DISubprogram(name: "detach", linkageName: "_ZN11xalanc_1_1011XalanVectorItNS_31MemoryManagedConstructionTraitsItEEE6detachEv", scope: !14, file: !15, line: 889, type: !316, scopeLine: 889, flags: DIFlagPublic | DIFlagPrototyped, spFlags: 0)
!316 = !DISubroutineType(types: !317)
!317 = !{!318, !35}
!318 = !DIDerivedType(tag: DW_TAG_typedef, name: "pointer", scope: !14, file: !15, line: 67, baseType: !29)
!319 = !DISubprogram(name: "invariants", linkageName: "_ZNK11xalanc_1_1011XalanVectorItNS_31MemoryManagedConstructionTraitsItEEE10invariantsEv", scope: !14, file: !15, line: 905, type: !320, scopeLine: 905, flags: DIFlagPrototyped, spFlags: 0)
!320 = !DISubroutineType(types: !321)
!321 = !{null, !95}
!322 = !DISubprogram(name: "local_distance", linkageName: "_ZN11xalanc_1_1011XalanVectorItNS_31MemoryManagedConstructionTraitsItEEE14local_distanceEPKtS5_", scope: !14, file: !15, line: 918, type: !323, scopeLine: 918, flags: DIFlagPrototyped, spFlags: 0)
!323 = !DISubroutineType(types: !324)
!324 = !{!325, !35, !50, !50}
!325 = !DIDerivedType(tag: DW_TAG_typedef, name: "size_type", scope: !14, file: !15, line: 71, baseType: !24)
!326 = !DISubprogram(name: "allocate", linkageName: "_ZN11xalanc_1_1011XalanVectorItNS_31MemoryManagedConstructionTraitsItEEE8allocateEm", scope: !14, file: !15, line: 938, type: !327, scopeLine: 938, flags: DIFlagPrototyped, spFlags: 0)
!327 = !DISubroutineType(types: !328)
!328 = !{!29, !35, !23}
!329 = !DISubprogram(name: "deallocate", linkageName: "_ZN11xalanc_1_1011XalanVectorItNS_31MemoryManagedConstructionTraitsItEEE10deallocateEPt", scope: !14, file: !15, line: 952, type: !330, scopeLine: 952, flags: DIFlagPrototyped, spFlags: 0)
!330 = !DISubroutineType(types: !331)
!331 = !{null, !35, !29}
!332 = !DISubprogram(name: "destroy", linkageName: "_ZN11xalanc_1_1011XalanVectorItNS_31MemoryManagedConstructionTraitsItEEE7destroyERt", scope: !14, file: !15, line: 961, type: !333, scopeLine: 961, flags: DIFlagPrototyped | DIFlagStaticMember, spFlags: 0)
!333 = !DISubroutineType(types: !334)
!334 = !{null, !112}
!335 = !DISubprogram(name: "destroy", linkageName: "_ZN11xalanc_1_1011XalanVectorItNS_31MemoryManagedConstructionTraitsItEEE7destroyEPtS4_", scope: !14, file: !15, line: 967, type: !336, scopeLine: 967, flags: DIFlagPrototyped | DIFlagStaticMember, spFlags: 0)
!336 = !DISubroutineType(types: !337)
!337 = !{null, !70, !70}
!338 = !DISubprogram(name: "doPushBack", linkageName: "_ZN11xalanc_1_1011XalanVectorItNS_31MemoryManagedConstructionTraitsItEEE10doPushBackERKt", scope: !14, file: !15, line: 978, type: !64, scopeLine: 978, flags: DIFlagPrototyped, spFlags: 0)
!339 = !DISubprogram(name: "ensureCapacity", linkageName: "_ZN11xalanc_1_1011XalanVectorItNS_31MemoryManagedConstructionTraitsItEEE14ensureCapacityEm", scope: !14, file: !15, line: 1006, type: !340, scopeLine: 1006, flags: DIFlagPrototyped, spFlags: 0)
!340 = !DISubroutineType(types: !341)
!341 = !{!318, !35, !23}
!342 = !DISubprogram(name: "doReserve", linkageName: "_ZN11xalanc_1_1011XalanVectorItNS_31MemoryManagedConstructionTraitsItEEE9doReserveEm", scope: !14, file: !15, line: 1017, type: !99, scopeLine: 1017, flags: DIFlagPrototyped, spFlags: 0)
!343 = !DISubprogram(name: "endPointer", linkageName: "_ZN11xalanc_1_1011XalanVectorItNS_31MemoryManagedConstructionTraitsItEEE10endPointerEv", scope: !14, file: !15, line: 1031, type: !316, scopeLine: 1031, flags: DIFlagPrototyped, spFlags: 0)
!344 = !DISubprogram(name: "endPointer", linkageName: "_ZNK11xalanc_1_1011XalanVectorItNS_31MemoryManagedConstructionTraitsItEEE10endPointerEv", scope: !14, file: !15, line: 1037, type: !345, scopeLine: 1037, flags: DIFlagPrototyped, spFlags: 0)
!345 = !DISubroutineType(types: !346)
!346 = !{!347, !95}
!347 = !DIDerivedType(tag: DW_TAG_typedef, name: "const_pointer", scope: !14, file: !15, line: 68, baseType: !51)
!348 = !DISubprogram(name: "outOfRange", linkageName: "_ZN11xalanc_1_1011XalanVectorItNS_31MemoryManagedConstructionTraitsItEEE10outOfRangeEv", scope: !14, file: !15, line: 1043, type: !349, scopeLine: 1043, flags: DIFlagPrototyped | DIFlagStaticMember, spFlags: 0)
!349 = !DISubroutineType(types: !350)
!350 = !{null}
!351 = !DISubprogram(name: "shrinkToSize", linkageName: "_ZN11xalanc_1_1011XalanVectorItNS_31MemoryManagedConstructionTraitsItEEE12shrinkToSizeEm", scope: !14, file: !15, line: 1049, type: !99, scopeLine: 1049, flags: DIFlagPrototyped, spFlags: 0)
!352 = !DISubprogram(name: "shrinkCount", linkageName: "_ZN11xalanc_1_1011XalanVectorItNS_31MemoryManagedConstructionTraitsItEEE11shrinkCountEm", scope: !14, file: !15, line: 1060, type: !99, scopeLine: 1060, flags: DIFlagPrototyped, spFlags: 0)
!353 = !DISubprogram(name: "local_max", linkageName: "_ZN11xalanc_1_1011XalanVectorItNS_31MemoryManagedConstructionTraitsItEEE9local_maxEmm", scope: !14, file: !15, line: 1073, type: !354, scopeLine: 1073, flags: DIFlagPrototyped, spFlags: 0)
!354 = !DISubroutineType(types: !355)
!355 = !{!325, !35, !23, !23}
!356 = !{!357, !358}
!357 = !DITemplateTypeParameter(name: "Type", type: !31)
!358 = !DITemplateTypeParameter(name: "ConstructionTraits", type: !359)
!359 = distinct !DICompositeType(tag: DW_TAG_structure_type, name: "MemoryManagedConstructionTraits<unsigned short>", scope: !2, file: !360, line: 462, size: 8, flags: DIFlagTypePassByValue, elements: !139, templateParams: !361, identifier: "_ZTSN11xalanc_1_1031MemoryManagedConstructionTraitsItEE")
!360 = !DIFile(filename: "./xalanc/Include/XalanMemoryManagement.hpp", directory: "/home/venkat/IF-DV/spec_build_release/CPU_2017/benchspec/CPU/523.xalancbmk_r/build/build_base_ld-loop-ext-m64.0000")
!361 = !{!362}
!362 = !DITemplateTypeParameter(name: "C", type: !31)
!363 = !DIDerivedType(tag: DW_TAG_member, name: "m_size", scope: !5, file: !6, line: 795, baseType: !10, size: 32, offset: 256)
!364 = !DIDerivedType(tag: DW_TAG_member, name: "s_empty", scope: !5, file: !6, line: 797, baseType: !365, flags: DIFlagStaticMember)
!365 = !DIDerivedType(tag: DW_TAG_const_type, baseType: !366)
!366 = !DIDerivedType(tag: DW_TAG_typedef, name: "XalanDOMChar", scope: !2, file: !367, line: 127, baseType: !31)
!367 = !DIFile(filename: "./xalanc/Include/PlatformDefinitions.hpp", directory: "/home/venkat/IF-DV/spec_build_release/CPU_2017/benchspec/CPU/523.xalancbmk_r/build/build_base_ld-loop-ext-m64.0000")
!368 = !DISubprogram(name: "XalanDOMString", scope: !5, file: !6, line: 66, type: !369, scopeLine: 66, flags: DIFlagPublic | DIFlagPrototyped, spFlags: 0)
!369 = !DISubroutineType(types: !370)
!370 = !{null, !371, !372}
!371 = !DIDerivedType(tag: DW_TAG_pointer_type, baseType: !5, size: 64, flags: DIFlagArtificial | DIFlagObjectPointer)
!372 = !DIDerivedType(tag: DW_TAG_reference_type, baseType: !373, size: 64)
!373 = !DIDerivedType(tag: DW_TAG_typedef, name: "MemoryManagerType", scope: !2, file: !360, line: 39, baseType: !19)
!374 = !DISubprogram(name: "XalanDOMString", scope: !5, file: !6, line: 69, type: !375, scopeLine: 69, flags: DIFlagPublic | DIFlagExplicit | DIFlagPrototyped, spFlags: 0)
!375 = !DISubroutineType(types: !376)
!376 = !{null, !371, !377, !372, !10}
!377 = !DIDerivedType(tag: DW_TAG_pointer_type, baseType: !378, size: 64)
!378 = !DIDerivedType(tag: DW_TAG_const_type, baseType: !379)
!379 = !DIBasicType(name: "char", size: 8, encoding: DW_ATE_signed_char)
!380 = !DISubprogram(name: "XalanDOMString", scope: !5, file: !6, line: 74, type: !381, scopeLine: 74, flags: DIFlagPublic | DIFlagPrototyped, spFlags: 0)
!381 = !DISubroutineType(types: !382)
!382 = !{null, !371, !383, !372, !10, !10}
!383 = !DIDerivedType(tag: DW_TAG_reference_type, baseType: !4, size: 64)
!384 = !DISubprogram(name: "XalanDOMString", scope: !5, file: !6, line: 81, type: !385, scopeLine: 81, flags: DIFlagPublic | DIFlagExplicit | DIFlagPrototyped, spFlags: 0)
!385 = !DISubroutineType(types: !386)
!386 = !{null, !371, !387, !372, !10}
!387 = !DIDerivedType(tag: DW_TAG_pointer_type, baseType: !365, size: 64)
!388 = !DISubprogram(name: "XalanDOMString", scope: !5, file: !6, line: 86, type: !389, scopeLine: 86, flags: DIFlagPublic | DIFlagPrototyped, spFlags: 0)
!389 = !DISubroutineType(types: !390)
!390 = !{null, !371, !10, !366, !372}
!391 = !DISubprogram(name: "clone", linkageName: "_ZN11xalanc_1_1014XalanDOMString5cloneERN11xercesc_2_713MemoryManagerE", scope: !5, file: !6, line: 92, type: !392, scopeLine: 92, flags: DIFlagPublic | DIFlagPrototyped, spFlags: 0)
!392 = !DISubroutineType(types: !393)
!393 = !{!394, !371, !372}
!394 = !DIDerivedType(tag: DW_TAG_pointer_type, baseType: !5, size: 64)
!395 = !DISubprogram(name: "~XalanDOMString", scope: !5, file: !6, line: 94, type: !396, scopeLine: 94, flags: DIFlagPublic | DIFlagPrototyped, spFlags: 0)
!396 = !DISubroutineType(types: !397)
!397 = !{null, !371}
!398 = !DISubprogram(name: "operator=", linkageName: "_ZN11xalanc_1_1014XalanDOMStringaSERKS0_", scope: !5, file: !6, line: 99, type: !399, scopeLine: 99, flags: DIFlagPublic | DIFlagPrototyped, spFlags: 0)
!399 = !DISubroutineType(types: !400)
!400 = !{!401, !371, !383}
!401 = !DIDerivedType(tag: DW_TAG_reference_type, baseType: !5, size: 64)
!402 = !DISubprogram(name: "operator=", linkageName: "_ZN11xalanc_1_1014XalanDOMStringaSEPKt", scope: !5, file: !6, line: 105, type: !403, scopeLine: 105, flags: DIFlagPublic | DIFlagPrototyped, spFlags: 0)
!403 = !DISubroutineType(types: !404)
!404 = !{!401, !371, !387}
!405 = !DISubprogram(name: "operator=", linkageName: "_ZN11xalanc_1_1014XalanDOMStringaSEPKc", scope: !5, file: !6, line: 111, type: !406, scopeLine: 111, flags: DIFlagPublic | DIFlagPrototyped, spFlags: 0)
!406 = !DISubroutineType(types: !407)
!407 = !{!401, !371, !377}
!408 = !DISubprogram(name: "operator=", linkageName: "_ZN11xalanc_1_1014XalanDOMStringaSEt", scope: !5, file: !6, line: 117, type: !409, scopeLine: 117, flags: DIFlagPublic | DIFlagPrototyped, spFlags: 0)
!409 = !DISubroutineType(types: !410)
!410 = !{!401, !371, !366}
!411 = !DISubprogram(name: "begin", linkageName: "_ZN11xalanc_1_1014XalanDOMString5beginEv", scope: !5, file: !6, line: 123, type: !412, scopeLine: 123, flags: DIFlagPublic | DIFlagPrototyped, spFlags: 0)
!412 = !DISubroutineType(types: !413)
!413 = !{!414, !371}
!414 = !DIDerivedType(tag: DW_TAG_typedef, name: "iterator", scope: !5, file: !6, line: 55, baseType: !70)
!415 = !DISubprogram(name: "begin", linkageName: "_ZNK11xalanc_1_1014XalanDOMString5beginEv", scope: !5, file: !6, line: 131, type: !416, scopeLine: 131, flags: DIFlagPublic | DIFlagPrototyped, spFlags: 0)
!416 = !DISubroutineType(types: !417)
!417 = !{!418, !419}
!418 = !DIDerivedType(tag: DW_TAG_typedef, name: "const_iterator", scope: !5, file: !6, line: 56, baseType: !50)
!419 = !DIDerivedType(tag: DW_TAG_pointer_type, baseType: !4, size: 64, flags: DIFlagArtificial | DIFlagObjectPointer)
!420 = !DISubprogram(name: "end", linkageName: "_ZN11xalanc_1_1014XalanDOMString3endEv", scope: !5, file: !6, line: 139, type: !412, scopeLine: 139, flags: DIFlagPublic | DIFlagPrototyped, spFlags: 0)
!421 = !DISubprogram(name: "end", linkageName: "_ZNK11xalanc_1_1014XalanDOMString3endEv", scope: !5, file: !6, line: 147, type: !416, scopeLine: 147, flags: DIFlagPublic | DIFlagPrototyped, spFlags: 0)
!422 = !DISubprogram(name: "rbegin", linkageName: "_ZN11xalanc_1_1014XalanDOMString6rbeginEv", scope: !5, file: !6, line: 155, type: !423, scopeLine: 155, flags: DIFlagPublic | DIFlagPrototyped, spFlags: 0)
!423 = !DISubroutineType(types: !424)
!424 = !{!425, !371}
!425 = !DIDerivedType(tag: DW_TAG_typedef, name: "reverse_iterator", scope: !5, file: !6, line: 57, baseType: !130)
!426 = !DISubprogram(name: "rbegin", linkageName: "_ZNK11xalanc_1_1014XalanDOMString6rbeginEv", scope: !5, file: !6, line: 170, type: !427, scopeLine: 170, flags: DIFlagPublic | DIFlagPrototyped, spFlags: 0)
!427 = !DISubroutineType(types: !428)
!428 = !{!429, !419}
!429 = !DIDerivedType(tag: DW_TAG_typedef, name: "const_reverse_iterator", scope: !5, file: !6, line: 58, baseType: !221)
