; ModuleID = 'SGXMLScanner.cpp'
source_filename = "SGXMLScanner.cpp"
target datalayout = "e-m:e-p270:32:32-p271:32:32-p272:64:64-i64:64-f80:128-n8:16:32:64-S128"
target triple = "x86_64-unknown-linux-gnu"

%"class.xercesc_2_7::MemoryManager" = type { i32 (...)** }
%"class.xercesc_2_7::RefHashTableOf.14" = type { %"class.xercesc_2_7::MemoryManager"*, i8, %"struct.xercesc_2_7::RefHashTableBucketElem.15"**, i32, i32, i32, %"class.xercesc_2_7::HashBase"* }
%"struct.xercesc_2_7::RefHashTableBucketElem.15" = type { %"class.xercesc_2_7::DatatypeValidator"*, %"struct.xercesc_2_7::RefHashTableBucketElem.15"*, i8* }
%"class.xercesc_2_7::DatatypeValidator" = type { %"class.xercesc_2_7::XSerializable", i8, i8, i8, i8, i16, i32, i32, i32, i32, i32, %"class.xercesc_2_7::DatatypeValidator"*, %"class.xercesc_2_7::RefHashTableOf.3"*, i16*, %"class.xercesc_2_7::RegularExpression"*, i16*, i16*, i16*, %"class.xercesc_2_7::MemoryManager"* }
%"class.xercesc_2_7::XSerializable" = type { i32 (...)** }
%"class.xercesc_2_7::RefHashTableOf.3" = type opaque
%"class.xercesc_2_7::RegularExpression" = type { i8, i8, i32, i32, i32, i32, %"class.xercesc_2_7::BMPattern"*, i16*, i16*, %"class.xercesc_2_7::Op"*, %"class.xercesc_2_7::Token"*, %"class.xercesc_2_7::RangeToken"*, %"class.xercesc_2_7::OpFactory", %"class.xercesc_2_7::TokenFactory"*, %"class.xercesc_2_7::MemoryManager"* }
%"class.xercesc_2_7::BMPattern" = type { i8, i32, i32*, i16*, i16*, %"class.xercesc_2_7::MemoryManager"* }
%"class.xercesc_2_7::Op" = type { i32 (...)**, %"class.xercesc_2_7::MemoryManager"*, i16, %"class.xercesc_2_7::Op"* }
%"class.xercesc_2_7::Token" = type { i32 (...)**, i16, %"class.xercesc_2_7::MemoryManager"* }
%"class.xercesc_2_7::RangeToken" = type opaque
%"class.xercesc_2_7::OpFactory" = type { %"class.xercesc_2_7::RefVectorOf.4"*, %"class.xercesc_2_7::MemoryManager"* }
%"class.xercesc_2_7::RefVectorOf.4" = type { %"class.xercesc_2_7::BaseRefVectorOf.5" }
%"class.xercesc_2_7::BaseRefVectorOf.5" = type { i32 (...)**, i8, i32, i32, %"class.xercesc_2_7::Op"**, %"class.xercesc_2_7::MemoryManager"* }
%"class.xercesc_2_7::TokenFactory" = type { %"class.xercesc_2_7::RefVectorOf.6"*, %"class.xercesc_2_7::Token"*, %"class.xercesc_2_7::Token"*, %"class.xercesc_2_7::Token"*, %"class.xercesc_2_7::Token"*, %"class.xercesc_2_7::Token"*, %"class.xercesc_2_7::Token"*, %"class.xercesc_2_7::Token"*, %"class.xercesc_2_7::Token"*, %"class.xercesc_2_7::Token"*, %"class.xercesc_2_7::Token"*, %"class.xercesc_2_7::Token"*, %"class.xercesc_2_7::Token"*, %"class.xercesc_2_7::Token"*, %"class.xercesc_2_7::Token"*, %"class.xercesc_2_7::MemoryManager"* }
%"class.xercesc_2_7::RefVectorOf.6" = type opaque
%"class.xercesc_2_7::HashBase" = type { i32 (...)** }
%"class.xercesc_2_7::SGXMLScanner" = type { %"class.xercesc_2_7::XMLScanner", i8, i32, i32, i32*, %"class.xercesc_2_7::XMLBuffer", %"class.xercesc_2_7::ValueHashTableOf"*, %"class.xercesc_2_7::RefVectorOf.17"*, i32, i32*, %"class.xercesc_2_7::SchemaGrammar"*, %"class.xercesc_2_7::SchemaValidator"*, %"class.xercesc_2_7::IdentityConstraintHandler"*, %"class.xercesc_2_7::RefHash3KeysIdPool"*, i32, %"class.xercesc_2_7::RefHashTableOf.50"*, %"class.xercesc_2_7::RefHash2KeysTableOf.52"*, %"class.xercesc_2_7::PSVIAttributeList"*, %"class.xercesc_2_7::XSModel"*, %"class.xercesc_2_7::PSVIElement"*, %"class.xercesc_2_7::ValueStackOf.56"*, %"struct.xercesc_2_7::PSVIElemContext" }
%"class.xercesc_2_7::XMLScanner" = type { %"class.xercesc_2_7::XMLBufferFullHandler", i64, i8, i8, i8, i8, i8, i8, i8, i8, i8, i8, i8, i8, i8, i8, i8, i8, i8, i8, i8, i8, i8, i8, i8, i32, i32, i32, i32, i32, i32, i32, i32, i32**, i32, i32, i32, i32, i32, %"class.xercesc_2_7::RefVectorOf.10"*, %"class.xercesc_2_7::RefHash2KeysTableOf"*, %"class.xercesc_2_7::XMLDocumentHandler"*, %"class.xercesc_2_7::DocTypeHandler"*, %"class.xercesc_2_7::XMLEntityHandler"*, %"class.xercesc_2_7::XMLErrorReporter"*, %"class.xercesc_2_7::ErrorHandler"*, %"class.xercesc_2_7::PSVIHandler"*, %"class.xercesc_2_7::ValidationContext"*, i8, %"class.xercesc_2_7::ReaderMgr", %"class.xercesc_2_7::XMLValidator"*, i32, %"class.xercesc_2_7::GrammarResolver"*, %"class.xercesc_2_7::MemoryManager"*, %"class.xercesc_2_7::Grammar"*, %"class.xercesc_2_7::Grammar"*, %"class.xercesc_2_7::XMLStringPool"*, i16*, i16*, i16*, %"class.xercesc_2_7::SecurityManager"*, i32, %"class.xercesc_2_7::MemoryManager"*, %"class.xercesc_2_7::XMLBufferMgr", %"class.xercesc_2_7::XMLBuffer", %"class.xercesc_2_7::XMLBuffer", %"class.xercesc_2_7::XMLBuffer", %"class.xercesc_2_7::XMLBuffer", %"class.xercesc_2_7::XMLBuffer", %"class.xercesc_2_7::XMLBuffer", %"class.xercesc_2_7::XMLBuffer", %"class.xercesc_2_7::ElemStack" }
%"class.xercesc_2_7::XMLBufferFullHandler" = type { i32 (...)** }
%"class.xercesc_2_7::RefVectorOf.10" = type { %"class.xercesc_2_7::BaseRefVectorOf.11" }
%"class.xercesc_2_7::BaseRefVectorOf.11" = type { i32 (...)**, i8, i32, i32, %"class.xercesc_2_7::XMLAttr"**, %"class.xercesc_2_7::MemoryManager"* }
%"class.xercesc_2_7::XMLAttr" = type <{ i8, [3 x i8], i32, i32, [4 x i8], i16*, %"class.xercesc_2_7::QName"*, %"class.xercesc_2_7::MemoryManager"*, %"class.xercesc_2_7::DatatypeValidator"*, i8, [7 x i8] }>
%"class.xercesc_2_7::QName" = type { %"class.xercesc_2_7::XSerializable", i32, i32, i32, i32, i16*, i16*, i16*, %"class.xercesc_2_7::MemoryManager"* }
%"class.xercesc_2_7::RefHash2KeysTableOf" = type { %"class.xercesc_2_7::MemoryManager"*, i8, %"struct.xercesc_2_7::RefHash2KeysTableBucketElem"**, i32, i32, %"class.xercesc_2_7::HashBase"* }
%"struct.xercesc_2_7::RefHash2KeysTableBucketElem" = type <{ %"class.xercesc_2_7::XMLAttr"*, %"struct.xercesc_2_7::RefHash2KeysTableBucketElem"*, i8*, i32, [4 x i8] }>
%"class.xercesc_2_7::XMLDocumentHandler" = type { i32 (...)** }
%"class.xercesc_2_7::DocTypeHandler" = type { i32 (...)** }
%"class.xercesc_2_7::XMLEntityHandler" = type { i32 (...)** }
%"class.xercesc_2_7::XMLErrorReporter" = type { i32 (...)** }
%"class.xercesc_2_7::ErrorHandler" = type opaque
%"class.xercesc_2_7::PSVIHandler" = type { i32 (...)** }
%"class.xercesc_2_7::ValidationContext" = type { i32 (...)**, %"class.xercesc_2_7::MemoryManager"* }
%"class.xercesc_2_7::ReaderMgr" = type { %"class.xercesc_2_7::Locator", %"class.xercesc_2_7::XMLEntityDecl"*, %"class.xercesc_2_7::XMLReader"*, %"class.xercesc_2_7::XMLEntityHandler"*, %"class.xercesc_2_7::RefStackOf"*, i32, %"class.xercesc_2_7::RefStackOf.12"*, i8, i32, i8, %"class.xercesc_2_7::MemoryManager"* }
%"class.xercesc_2_7::Locator" = type { i32 (...)** }
%"class.xercesc_2_7::XMLEntityDecl" = type { %"class.xercesc_2_7::XSerializable", i32, i32, i16*, i16*, i16*, i16*, i16*, i16*, %"class.xercesc_2_7::MemoryManager"* }
%"class.xercesc_2_7::XMLReader" = type { i32, [16384 x i16], i32, [16384 x i8], [16384 x i32], i64, i64, i32, i16*, i8, i8, i16*, i32, [49152 x i8], i32, i32, i32, i8, i32, i32, i8, i8, i16*, %"class.xercesc_2_7::BinInputStream"*, i8, i8, %"class.xercesc_2_7::XMLTranscoder"*, i32, i8*, i8, i32, %"class.xercesc_2_7::MemoryManager"* }
%"class.xercesc_2_7::BinInputStream" = type opaque
%"class.xercesc_2_7::XMLTranscoder" = type opaque
%"class.xercesc_2_7::RefStackOf" = type opaque
%"class.xercesc_2_7::RefStackOf.12" = type opaque
%"class.xercesc_2_7::Grammar" = type { %"class.xercesc_2_7::XSerializable" }
%"class.xercesc_2_7::XMLStringPool" = type { %"class.xercesc_2_7::XSerializable", %"class.xercesc_2_7::MemoryManager"*, %"struct.xercesc_2_7::XMLStringPool::PoolElem"**, %"class.xercesc_2_7::RefHashTableOf"*, i32, i32 }
%"struct.xercesc_2_7::XMLStringPool::PoolElem" = type { i32, i16* }
%"class.xercesc_2_7::RefHashTableOf" = type { %"class.xercesc_2_7::MemoryManager"*, i8, %"struct.xercesc_2_7::RefHashTableBucketElem"**, i32, i32, i32, %"class.xercesc_2_7::HashBase"* }
%"struct.xercesc_2_7::RefHashTableBucketElem" = type { %"struct.xercesc_2_7::XMLStringPool::PoolElem"*, %"struct.xercesc_2_7::RefHashTableBucketElem"*, i8* }
%"class.xercesc_2_7::SecurityManager" = type <{ i32 (...)**, i32, [4 x i8] }>
%"class.xercesc_2_7::XMLBufferMgr" = type { i32, %"class.xercesc_2_7::MemoryManager"*, %"class.xercesc_2_7::XMLBuffer"** }
%"class.xercesc_2_7::ElemStack" = type { i32, i32, %"class.xercesc_2_7::XMLStringPool", %"struct.xercesc_2_7::ElemStack::StackElem"**, i32, i32, i32, i32, i32, i32, i32, %"class.xercesc_2_7::ValueVectorOf.16"*, %"class.xercesc_2_7::MemoryManager"* }
%"struct.xercesc_2_7::ElemStack::StackElem" = type { %"class.xercesc_2_7::XMLElementDecl"*, i32, i32, i32, %"class.xercesc_2_7::QName"**, %"struct.xercesc_2_7::PrefMapElem"*, i32, i32, i8, i8, i8, i32, %"class.xercesc_2_7::Grammar"*, i32, i16*, i32, i32 }
%"class.xercesc_2_7::XMLElementDecl" = type <{ %"class.xercesc_2_7::XSerializable", %"class.xercesc_2_7::MemoryManager"*, %"class.xercesc_2_7::QName"*, i32, i32, i8, [7 x i8] }>
%"struct.xercesc_2_7::PrefMapElem" = type { i32, i32 }
%"class.xercesc_2_7::ValueVectorOf.16" = type opaque
%"class.xercesc_2_7::XMLBuffer" = type { i32, i32, i32, i8, %"class.xercesc_2_7::MemoryManager"*, %"class.xercesc_2_7::XMLBufferFullHandler"*, i16* }
%"class.xercesc_2_7::ValueHashTableOf" = type { %"class.xercesc_2_7::MemoryManager"*, %"struct.xercesc_2_7::ValueHashTableBucketElem"**, i32, %"class.xercesc_2_7::HashBase"* }
%"struct.xercesc_2_7::ValueHashTableBucketElem" = type { i16, %"struct.xercesc_2_7::ValueHashTableBucketElem"*, i8* }
%"class.xercesc_2_7::RefVectorOf.17" = type { %"class.xercesc_2_7::BaseRefVectorOf.18" }
%"class.xercesc_2_7::BaseRefVectorOf.18" = type { i32 (...)**, i8, i32, i32, %"class.xercesc_2_7::KVStringPair"**, %"class.xercesc_2_7::MemoryManager"* }
%"class.xercesc_2_7::KVStringPair" = type { %"class.xercesc_2_7::XSerializable", i64, i64, i16*, i16*, %"class.xercesc_2_7::MemoryManager"* }
%"class.xercesc_2_7::SchemaGrammar" = type { %"class.xercesc_2_7::Grammar", i16*, %"class.xercesc_2_7::RefHash3KeysIdPool"*, %"class.xercesc_2_7::RefHash3KeysIdPool"*, %"class.xercesc_2_7::RefHash3KeysIdPool"*, %"class.xercesc_2_7::NameIdPool"*, %"class.xercesc_2_7::RefHashTableOf.28"*, %"class.xercesc_2_7::RefHashTableOf.30"*, %"class.xercesc_2_7::RefHashTableOf.31"*, %"class.xercesc_2_7::RefHashTableOf.32"*, %"class.xercesc_2_7::NamespaceScope"*, %"class.xercesc_2_7::RefHash2KeysTableOf.33"*, %"class.xercesc_2_7::ValidationContext"*, %"class.xercesc_2_7::MemoryManager"*, %"class.xercesc_2_7::XMLSchemaDescription"*, %"class.xercesc_2_7::RefHashTableOf.34"*, i8, %"class.xercesc_2_7::DatatypeValidatorFactory" }
%"class.xercesc_2_7::NameIdPool" = type <{ %"class.xercesc_2_7::MemoryManager"*, %"struct.xercesc_2_7::NameIdPoolBucketElem"**, %"class.xercesc_2_7::XMLNotationDecl"**, i32, i32, i32, [4 x i8] }>
%"struct.xercesc_2_7::NameIdPoolBucketElem" = type { %"class.xercesc_2_7::XMLNotationDecl"*, %"struct.xercesc_2_7::NameIdPoolBucketElem"* }
%"class.xercesc_2_7::XMLNotationDecl" = type { %"class.xercesc_2_7::XSerializable", i32, i32, i16*, i16*, i16*, i16*, %"class.xercesc_2_7::MemoryManager"* }
%"class.xercesc_2_7::RefHashTableOf.28" = type { %"class.xercesc_2_7::MemoryManager"*, i8, %"struct.xercesc_2_7::RefHashTableBucketElem.29"**, i32, i32, i32, %"class.xercesc_2_7::HashBase"* }
%"struct.xercesc_2_7::RefHashTableBucketElem.29" = type { %"class.xercesc_2_7::XMLAttDef"*, %"struct.xercesc_2_7::RefHashTableBucketElem.29"*, i8* }
%"class.xercesc_2_7::XMLAttDef" = type { %"class.xercesc_2_7::XSerializable", i32, i32, i32, i8, i8, i32, i16*, i16*, %"class.xercesc_2_7::MemoryManager"* }
%"class.xercesc_2_7::RefHashTableOf.30" = type opaque
%"class.xercesc_2_7::RefHashTableOf.31" = type opaque
%"class.xercesc_2_7::RefHashTableOf.32" = type opaque
%"class.xercesc_2_7::NamespaceScope" = type opaque
%"class.xercesc_2_7::RefHash2KeysTableOf.33" = type opaque
%"class.xercesc_2_7::XMLSchemaDescription" = type { %"class.xercesc_2_7::XMLGrammarDescription" }
%"class.xercesc_2_7::XMLGrammarDescription" = type { %"class.xercesc_2_7::XSerializable", %"class.xercesc_2_7::MemoryManager"* }
%"class.xercesc_2_7::RefHashTableOf.34" = type { %"class.xercesc_2_7::MemoryManager"*, i8, %"struct.xercesc_2_7::RefHashTableBucketElem.35"**, i32, i32, i32, %"class.xercesc_2_7::HashBase"* }
%"struct.xercesc_2_7::RefHashTableBucketElem.35" = type { %"class.xercesc_2_7::XSAnnotation"*, %"struct.xercesc_2_7::RefHashTableBucketElem.35"*, i8* }
%"class.xercesc_2_7::XSAnnotation" = type opaque
%"class.xercesc_2_7::DatatypeValidatorFactory" = type { %"class.xercesc_2_7::XSerializable", %"class.xercesc_2_7::RefHashTableOf.14"*, %"class.xercesc_2_7::MemoryManager"* }
%"class.xercesc_2_7::SchemaValidator" = type <{ %"class.xercesc_2_7::XMLValidator", %"class.xercesc_2_7::MemoryManager"*, %"class.xercesc_2_7::SchemaGrammar"*, %"class.xercesc_2_7::GrammarResolver"*, %"class.xercesc_2_7::QName"*, i8, [7 x i8], %"class.xercesc_2_7::DatatypeValidator"*, %"class.xercesc_2_7::XMLBuffer"*, %"class.xercesc_2_7::XMLBuffer", i8, i8, [6 x i8], %"class.xercesc_2_7::XSDErrorReporter", %"class.xercesc_2_7::ValueStackOf"*, %"class.xercesc_2_7::DatatypeValidator"*, i8, i8, [6 x i8] }>
%"class.xercesc_2_7::XMLValidator" = type { i32 (...)**, %"class.xercesc_2_7::XMLBufferMgr"*, %"class.xercesc_2_7::XMLErrorReporter"*, %"class.xercesc_2_7::ReaderMgr"*, %"class.xercesc_2_7::XMLScanner"* }
%"class.xercesc_2_7::XSDErrorReporter" = type { i32 (...)**, i8, %"class.xercesc_2_7::XMLErrorReporter"* }
%"class.xercesc_2_7::ValueStackOf" = type { [8 x i8], %"class.xercesc_2_7::ValueVectorOf.36" }
%"class.xercesc_2_7::ValueVectorOf.36" = type { i8, i32, i32, %"class.xercesc_2_7::ComplexTypeInfo"**, %"class.xercesc_2_7::MemoryManager"* }
%"class.xercesc_2_7::ComplexTypeInfo" = type { %"class.xercesc_2_7::XSerializable", i8, i8, i8, i8, i8, i32, i32, i32, i32, i32, i32, i32, i32, i16*, i16*, i16*, %"class.xercesc_2_7::DatatypeValidator"*, %"class.xercesc_2_7::DatatypeValidator"*, %"class.xercesc_2_7::ComplexTypeInfo"*, %"class.xercesc_2_7::ContentSpecNode"*, %"class.xercesc_2_7::SchemaAttDef"*, %"class.xercesc_2_7::SchemaAttDefList"*, %"class.xercesc_2_7::RefVectorOf.20"*, %"class.xercesc_2_7::RefHash2KeysTableOf.22"*, %"class.xercesc_2_7::XMLContentModel"*, i16*, i32*, %"class.xercesc_2_7::XSDLocator"*, %"class.xercesc_2_7::MemoryManager"* }
%"class.xercesc_2_7::ContentSpecNode" = type { %"class.xercesc_2_7::XSerializable", %"class.xercesc_2_7::MemoryManager"*, %"class.xercesc_2_7::QName"*, %"class.xercesc_2_7::XMLElementDecl"*, %"class.xercesc_2_7::ContentSpecNode"*, %"class.xercesc_2_7::ContentSpecNode"*, i32, i8, i8, i32, i32 }
%"class.xercesc_2_7::SchemaAttDef" = type { %"class.xercesc_2_7::XMLAttDef", i32, i32, i32, i32, %"class.xercesc_2_7::QName"*, %"class.xercesc_2_7::DatatypeValidator"*, %"class.xercesc_2_7::DatatypeValidator"*, %"class.xercesc_2_7::DatatypeValidator"*, %"class.xercesc_2_7::ValueVectorOf.19"*, %"class.xercesc_2_7::SchemaAttDef"* }
%"class.xercesc_2_7::ValueVectorOf.19" = type { i8, i32, i32, i32*, %"class.xercesc_2_7::MemoryManager"* }
%"class.xercesc_2_7::SchemaAttDefList" = type opaque
%"class.xercesc_2_7::RefVectorOf.20" = type { %"class.xercesc_2_7::BaseRefVectorOf.21" }
%"class.xercesc_2_7::BaseRefVectorOf.21" = type { i32 (...)**, i8, i32, i32, %"class.xercesc_2_7::SchemaElementDecl"**, %"class.xercesc_2_7::MemoryManager"* }
%"class.xercesc_2_7::SchemaElementDecl" = type <{ %"class.xercesc_2_7::XMLElementDecl.base", [3 x i8], i32, i32, i32, i32, i32, i32, i32, i32, [4 x i8], i16*, %"class.xercesc_2_7::ComplexTypeInfo"*, %"class.xercesc_2_7::RefHash2KeysTableOf.22"*, %"class.xercesc_2_7::ComplexTypeInfo"*, %"class.xercesc_2_7::DatatypeValidator"*, %"class.xercesc_2_7::RefVectorOf.24"*, %"class.xercesc_2_7::SchemaAttDef"*, %"class.xercesc_2_7::SchemaElementDecl"*, %"class.xercesc_2_7::DatatypeValidator"*, i8, i8, i8, [5 x i8] }>
%"class.xercesc_2_7::XMLElementDecl.base" = type <{ %"class.xercesc_2_7::XSerializable", %"class.xercesc_2_7::MemoryManager"*, %"class.xercesc_2_7::QName"*, i32, i32, i8 }>
%"class.xercesc_2_7::RefVectorOf.24" = type { %"class.xercesc_2_7::BaseRefVectorOf.25" }
%"class.xercesc_2_7::BaseRefVectorOf.25" = type { i32 (...)**, i8, i32, i32, %"class.xercesc_2_7::IdentityConstraint"**, %"class.xercesc_2_7::MemoryManager"* }
%"class.xercesc_2_7::IdentityConstraint" = type <{ %"class.xercesc_2_7::XSerializable", i16*, i16*, %"class.xercesc_2_7::IC_Selector"*, %"class.xercesc_2_7::RefVectorOf.26"*, %"class.xercesc_2_7::MemoryManager"*, i32, [4 x i8] }>
%"class.xercesc_2_7::IC_Selector" = type { %"class.xercesc_2_7::XSerializable", %"class.xercesc_2_7::XercesXPath"*, %"class.xercesc_2_7::IdentityConstraint"* }
%"class.xercesc_2_7::XercesXPath" = type opaque
%"class.xercesc_2_7::RefVectorOf.26" = type { %"class.xercesc_2_7::BaseRefVectorOf.27" }
%"class.xercesc_2_7::BaseRefVectorOf.27" = type { i32 (...)**, i8, i32, i32, %"class.xercesc_2_7::IC_Field"**, %"class.xercesc_2_7::MemoryManager"* }
%"class.xercesc_2_7::IC_Field" = type { %"class.xercesc_2_7::XSerializable", %"class.xercesc_2_7::XercesXPath"*, %"class.xercesc_2_7::IdentityConstraint"* }
%"class.xercesc_2_7::RefHash2KeysTableOf.22" = type { %"class.xercesc_2_7::MemoryManager"*, i8, %"struct.xercesc_2_7::RefHash2KeysTableBucketElem.23"**, i32, i32, %"class.xercesc_2_7::HashBase"* }
%"struct.xercesc_2_7::RefHash2KeysTableBucketElem.23" = type <{ %"class.xercesc_2_7::SchemaAttDef"*, %"struct.xercesc_2_7::RefHash2KeysTableBucketElem.23"*, i8*, i32, [4 x i8] }>
%"class.xercesc_2_7::XMLContentModel" = type { i32 (...)** }
%"class.xercesc_2_7::XSDLocator" = type { %"class.xercesc_2_7::Locator", i64, i64, i16*, i16* }
%"class.xercesc_2_7::IdentityConstraintHandler" = type { i32 (...)**, %"class.xercesc_2_7::XMLScanner"*, %"class.xercesc_2_7::MemoryManager"*, %"class.xercesc_2_7::XPathMatcherStack"*, %"class.xercesc_2_7::ValueStoreCache"*, %"class.xercesc_2_7::FieldActivator"* }
%"class.xercesc_2_7::XPathMatcherStack" = type { i32, %"class.xercesc_2_7::ValueStackOf.37"*, %"class.xercesc_2_7::RefVectorOf.39"* }
%"class.xercesc_2_7::ValueStackOf.37" = type { [8 x i8], %"class.xercesc_2_7::ValueVectorOf.38" }
%"class.xercesc_2_7::ValueVectorOf.38" = type { i8, i32, i32, i32*, %"class.xercesc_2_7::MemoryManager"* }
%"class.xercesc_2_7::RefVectorOf.39" = type { %"class.xercesc_2_7::BaseRefVectorOf.40" }
%"class.xercesc_2_7::BaseRefVectorOf.40" = type { i32 (...)**, i8, i32, i32, %"class.xercesc_2_7::XPathMatcher"**, %"class.xercesc_2_7::MemoryManager"* }
%"class.xercesc_2_7::XPathMatcher" = type { i32 (...)**, i32, i32*, i32*, i32*, %"class.xercesc_2_7::RefVectorOf.41"*, %"class.xercesc_2_7::RefVectorOf.43"*, %"class.xercesc_2_7::IdentityConstraint"*, %"class.xercesc_2_7::MemoryManager"* }
%"class.xercesc_2_7::RefVectorOf.41" = type { %"class.xercesc_2_7::BaseRefVectorOf.42" }
%"class.xercesc_2_7::BaseRefVectorOf.42" = type { i32 (...)**, i8, i32, i32, %"class.xercesc_2_7::ValueStackOf.37"**, %"class.xercesc_2_7::MemoryManager"* }
%"class.xercesc_2_7::RefVectorOf.43" = type opaque
%"class.xercesc_2_7::ValueStoreCache" = type { %"class.xercesc_2_7::RefVectorOf.44"*, %"class.xercesc_2_7::RefHashTableOf.45"*, %"class.xercesc_2_7::RefHash2KeysTableOf.47"*, %"class.xercesc_2_7::RefStackOf.49"*, %"class.xercesc_2_7::XMLScanner"*, %"class.xercesc_2_7::MemoryManager"* }
%"class.xercesc_2_7::RefVectorOf.44" = type opaque
%"class.xercesc_2_7::RefHashTableOf.45" = type { %"class.xercesc_2_7::MemoryManager"*, i8, %"struct.xercesc_2_7::RefHashTableBucketElem.46"**, i32, i32, i32, %"class.xercesc_2_7::HashBase"* }
%"struct.xercesc_2_7::RefHashTableBucketElem.46" = type { %"class.xercesc_2_7::ValueStore"*, %"struct.xercesc_2_7::RefHashTableBucketElem.46"*, i8* }
%"class.xercesc_2_7::ValueStore" = type opaque
%"class.xercesc_2_7::RefHash2KeysTableOf.47" = type { %"class.xercesc_2_7::MemoryManager"*, i8, %"struct.xercesc_2_7::RefHash2KeysTableBucketElem.48"**, i32, i32, %"class.xercesc_2_7::HashBase"* }
%"struct.xercesc_2_7::RefHash2KeysTableBucketElem.48" = type <{ %"class.xercesc_2_7::ValueStore"*, %"struct.xercesc_2_7::RefHash2KeysTableBucketElem.48"*, i8*, i32, [4 x i8] }>
%"class.xercesc_2_7::RefStackOf.49" = type opaque
%"class.xercesc_2_7::FieldActivator" = type opaque
%"class.xercesc_2_7::RefHash3KeysIdPool" = type { %"class.xercesc_2_7::MemoryManager"*, i8, %"struct.xercesc_2_7::RefHash3KeysTableBucketElem"**, i32, %"class.xercesc_2_7::HashBase"*, %"class.xercesc_2_7::SchemaElementDecl"**, i32, i32 }
%"struct.xercesc_2_7::RefHash3KeysTableBucketElem" = type { %"class.xercesc_2_7::SchemaElementDecl"*, %"struct.xercesc_2_7::RefHash3KeysTableBucketElem"*, i8*, i32, i32 }
%"class.xercesc_2_7::RefHashTableOf.50" = type { %"class.xercesc_2_7::MemoryManager"*, i8, %"struct.xercesc_2_7::RefHashTableBucketElem.51"**, i32, i32, i32, %"class.xercesc_2_7::HashBase"* }
%"struct.xercesc_2_7::RefHashTableBucketElem.51" = type { i32*, %"struct.xercesc_2_7::RefHashTableBucketElem.51"*, i8* }
%"class.xercesc_2_7::RefHash2KeysTableOf.52" = type { %"class.xercesc_2_7::MemoryManager"*, i8, %"struct.xercesc_2_7::RefHash2KeysTableBucketElem.53"**, i32, i32, %"class.xercesc_2_7::HashBase"* }
%"struct.xercesc_2_7::RefHash2KeysTableBucketElem.53" = type <{ i32*, %"struct.xercesc_2_7::RefHash2KeysTableBucketElem.53"*, i8*, i32, [4 x i8] }>
%"class.xercesc_2_7::PSVIAttributeList" = type <{ %"class.xercesc_2_7::MemoryManager"*, %"class.xercesc_2_7::RefVectorOf.54"*, %"class.xercesc_2_7::RefArrayVectorOf"*, %"class.xercesc_2_7::RefArrayVectorOf"*, i32, [4 x i8] }>
%"class.xercesc_2_7::RefVectorOf.54" = type { %"class.xercesc_2_7::BaseRefVectorOf.55" }
%"class.xercesc_2_7::BaseRefVectorOf.55" = type { i32 (...)**, i8, i32, i32, %"class.xercesc_2_7::PSVIAttribute"**, %"class.xercesc_2_7::MemoryManager"* }
%"class.xercesc_2_7::PSVIAttribute" = type { %"class.xercesc_2_7::PSVIItem", %"class.xercesc_2_7::XSAttributeDeclaration"*, %"class.xercesc_2_7::DatatypeValidator"* }
%"class.xercesc_2_7::PSVIItem" = type { i32 (...)**, %"class.xercesc_2_7::MemoryManager"*, i16*, i16*, i16*, i16*, i32, i32, i8, %"class.xercesc_2_7::XSTypeDefinition"*, %"class.xercesc_2_7::XSSimpleTypeDefinition"* }
%"class.xercesc_2_7::XSTypeDefinition" = type { %"class.xercesc_2_7::XSObject.base", i32, i16, %"class.xercesc_2_7::XSTypeDefinition"* }
%"class.xercesc_2_7::XSObject.base" = type <{ i32 (...)**, i32, [4 x i8], %"class.xercesc_2_7::XSModel"*, %"class.xercesc_2_7::MemoryManager"*, i32 }>
%"class.xercesc_2_7::XSSimpleTypeDefinition" = type { %"class.xercesc_2_7::XSTypeDefinition", i32, i32, i32, %"class.xercesc_2_7::DatatypeValidator"*, %"class.xercesc_2_7::RefVectorOf.7"*, %"class.xercesc_2_7::RefVectorOf.8"*, %"class.xercesc_2_7::RefArrayVectorOf"*, %"class.xercesc_2_7::XSSimpleTypeDefinition"*, %"class.xercesc_2_7::RefVectorOf.9"*, %"class.xercesc_2_7::RefVectorOf.1"* }
%"class.xercesc_2_7::RefVectorOf.7" = type opaque
%"class.xercesc_2_7::RefVectorOf.8" = type opaque
%"class.xercesc_2_7::RefVectorOf.9" = type opaque
%"class.xercesc_2_7::RefVectorOf.1" = type opaque
%"class.xercesc_2_7::XSAttributeDeclaration" = type opaque
%"class.xercesc_2_7::RefArrayVectorOf" = type { %"class.xercesc_2_7::BaseRefVectorOf" }
%"class.xercesc_2_7::BaseRefVectorOf" = type { i32 (...)**, i8, i32, i32, i16**, %"class.xercesc_2_7::MemoryManager"* }
%"class.xercesc_2_7::XSModel" = type <{ %"class.xercesc_2_7::MemoryManager"*, %"class.xercesc_2_7::RefArrayVectorOf"*, %"class.xercesc_2_7::RefVectorOf"*, [14 x %"class.xercesc_2_7::RefVectorOf.0"*], [14 x %"class.xercesc_2_7::XSNamedMap"*], %"class.xercesc_2_7::XMLStringPool"*, %"class.xercesc_2_7::RefVectorOf.1"*, %"class.xercesc_2_7::RefHashTableOf.2"*, %"class.xercesc_2_7::XSObjectFactory"*, %"class.xercesc_2_7::RefVectorOf"*, %"class.xercesc_2_7::XSModel"*, i8, i8, [6 x i8] }>
%"class.xercesc_2_7::RefVectorOf.0" = type opaque
%"class.xercesc_2_7::XSNamedMap" = type opaque
%"class.xercesc_2_7::RefHashTableOf.2" = type opaque
%"class.xercesc_2_7::XSObjectFactory" = type opaque
%"class.xercesc_2_7::RefVectorOf" = type opaque
%"class.xercesc_2_7::PSVIElement" = type { %"class.xercesc_2_7::PSVIItem", %"class.xercesc_2_7::XSElementDeclaration"*, %"class.xercesc_2_7::XSNotationDeclaration"*, %"class.xercesc_2_7::XSModel"* }
%"class.xercesc_2_7::XSElementDeclaration" = type opaque
%"class.xercesc_2_7::XSNotationDeclaration" = type opaque
%"class.xercesc_2_7::ValueStackOf.56" = type { [8 x i8], %"class.xercesc_2_7::ValueVectorOf.57" }
%"class.xercesc_2_7::ValueVectorOf.57" = type { i8, i32, i32, i8*, %"class.xercesc_2_7::MemoryManager"* }
%"struct.xercesc_2_7::PSVIElemContext" = type { i8, i8, i32, i32, i32, %"class.xercesc_2_7::DatatypeValidator"*, %"class.xercesc_2_7::ComplexTypeInfo"*, i16* }
%"class.xercesc_2_7::GrammarResolver" = type { i8, i8, i8, %"class.xercesc_2_7::XMLStringPool"*, %"class.xercesc_2_7::RefHashTableOf.13"*, %"class.xercesc_2_7::RefHashTableOf.13"*, %"class.xercesc_2_7::DatatypeValidatorFactory"*, %"class.xercesc_2_7::MemoryManager"*, %"class.xercesc_2_7::XMLGrammarPool"*, %"class.xercesc_2_7::XSModel"*, %"class.xercesc_2_7::XSModel"*, %"class.xercesc_2_7::ValueVectorOf"* }
%"class.xercesc_2_7::RefHashTableOf.13" = type opaque
%"class.xercesc_2_7::XMLGrammarPool" = type <{ i32 (...)**, %"class.xercesc_2_7::MemoryManager"*, i8, [7 x i8] }>
%"class.xercesc_2_7::ValueVectorOf" = type opaque
%"class.xercesc_2_7::XMLDeleter" = type { i32 (...)** }
%"class.xercesc_2_7::XMLRefInfo" = type { %"class.xercesc_2_7::XSerializable", i8, i8, i16*, %"class.xercesc_2_7::MemoryManager"* }
%"class.xercesc_2_7::DTDEntityDecl" = type <{ %"class.xercesc_2_7::XMLEntityDecl", i8, i8, i8, [5 x i8] }>
%"class.xercesc_2_7::XMLAttDefList" = type { %"class.xercesc_2_7::XSerializable", %"class.xercesc_2_7::MemoryManager"* }
%"class.xercesc_2_7::JanitorMemFunCall" = type { %"class.xercesc_2_7::SGXMLScanner"*, { i64, i64 } }
%"class.xercesc_2_7::OutOfMemoryException" = type { i8 }
%"class.xercesc_2_7::XMemory" = type { i8 }
%"class.xercesc_2_7::HashPtr" = type { %"class.xercesc_2_7::HashBase" }
%"class.xercesc_2_7::HashXMLCh" = type { %"class.xercesc_2_7::HashBase" }
%"class.xercesc_2_7::RuntimeException" = type { %"class.xercesc_2_7::XMLException" }
%"class.xercesc_2_7::XMLException" = type { i32 (...)**, i32, i8*, i32, i16*, %"class.xercesc_2_7::MemoryManager"* }
%"class.xercesc_2_7::NameIdPool.58" = type opaque
%"class.xercesc_2_7::InputSource" = type <{ i32 (...)**, %"class.xercesc_2_7::MemoryManager"*, i16*, i16*, i16*, i8, [7 x i8] }>
%"class.xercesc_2_7::JanitorMemFunCall.59" = type { %"class.xercesc_2_7::ReaderMgr"*, { i64, i64 } }
%"class.xercesc_2_7::EndOfEntityException" = type <{ %"class.xercesc_2_7::XMLEntityDecl"*, i32, [4 x i8] }>
%"class.xercesc_2_7::XMLPScanToken" = type { i32, i32 }
%"class.xercesc_2_7::UnexpectedEOFException" = type { %"class.xercesc_2_7::XMLException" }
%"class.xercesc_2_7::ArrayIndexOutOfBoundsException" = type { %"class.xercesc_2_7::XMLException" }
%"class.xercesc_2_7::EmptyStackException" = type { %"class.xercesc_2_7::XMLException" }
%"class.xercesc_2_7::XSObject" = type <{ i32 (...)**, i32, [4 x i8], %"class.xercesc_2_7::XSModel"*, %"class.xercesc_2_7::MemoryManager"*, i32, [4 x i8] }>
%"class.xercesc_2_7::ContentLeafNameTypeVector" = type <{ %"class.xercesc_2_7::MemoryManager"*, %"class.xercesc_2_7::QName"**, i32*, i32, [4 x i8] }>
%"class.xercesc_2_7::Janitor" = type { %"class.xercesc_2_7::BaseRefVectorOf"* }
%"class.xercesc_2_7::XMLSchemaDescriptionImpl" = type { %"class.xercesc_2_7::XMLSchemaDescription", i32, i16*, %"class.xercesc_2_7::RefArrayVectorOf"*, %"class.xercesc_2_7::QName"*, %"class.xercesc_2_7::QName"*, %"class.xercesc_2_7::XMLAttDef"* }
%"class.xercesc_2_7::XSDDOMParser" = type { %"class.xercesc_2_7::XercesDOMParser", i8, i32, i32, i32, %"class.xercesc_2_7::XMLErrorReporter"*, %"class.xercesc_2_7::XMLEntityHandler"*, %"class.xercesc_2_7::ValueVectorOf.19"*, %"class.xercesc_2_7::XMLBuffer", %"class.xercesc_2_7::XSDErrorReporter", %"class.xercesc_2_7::XSDLocator" }
%"class.xercesc_2_7::XercesDOMParser" = type { %"class.xercesc_2_7::AbstractDOMParser", %"class.xercesc_2_7::EntityResolver"*, %"class.xercesc_2_7::XMLEntityResolver"*, %"class.xercesc_2_7::ErrorHandler"* }
%"class.xercesc_2_7::AbstractDOMParser" = type { %"class.xercesc_2_7::XMLDocumentHandler", %"class.xercesc_2_7::XMLErrorReporter", %"class.xercesc_2_7::XMLEntityHandler", %"class.xercesc_2_7::DocTypeHandler", %"class.xercesc_2_7::PSVIHandler", i8, i8, i8, i8, i8, i8, i8, %"class.xercesc_2_7::XMLScanner"*, i16*, %"class.xercesc_2_7::DOMNode"*, %"class.xercesc_2_7::DOMNode"*, %"class.xercesc_2_7::DOMEntity"*, %"class.xercesc_2_7::DOMDocumentImpl"*, %"class.xercesc_2_7::ValueStackOf.60"*, %"class.xercesc_2_7::DOMDocumentTypeImpl"*, %"class.xercesc_2_7::RefVectorOf.61"*, %"class.xercesc_2_7::GrammarResolver"*, %"class.xercesc_2_7::XMLStringPool"*, %"class.xercesc_2_7::XMLValidator"*, %"class.xercesc_2_7::MemoryManager"*, %"class.xercesc_2_7::XMLGrammarPool"*, %"class.xercesc_2_7::XMLBufferMgr", %"class.xercesc_2_7::XMLBuffer"*, %"class.xercesc_2_7::PSVIHandler"* }
%"class.xercesc_2_7::DOMNode" = type { i32 (...)** }
%"class.xercesc_2_7::DOMEntity" = type opaque
%"class.xercesc_2_7::DOMDocumentImpl" = type opaque
%"class.xercesc_2_7::ValueStackOf.60" = type opaque
%"class.xercesc_2_7::DOMDocumentTypeImpl" = type opaque
%"class.xercesc_2_7::RefVectorOf.61" = type opaque
%"class.xercesc_2_7::EntityResolver" = type opaque
%"class.xercesc_2_7::XMLEntityResolver" = type opaque
%"class.xercesc_2_7::XMLBufBid" = type { %"class.xercesc_2_7::XMLBuffer"*, %"class.xercesc_2_7::XMLBufferMgr"* }
%"struct.xercesc_2_7::ReaderMgr::LastExtEntityInfo" = type { i16*, i16*, i64, i64 }
%"class.xercesc_2_7::XMLResourceIdentifier" = type { i32, i16*, i16*, i16*, i16*, %"class.xercesc_2_7::Locator"* }
%"class.xercesc_2_7::XMLURL" = type <{ i32 (...)**, %"class.xercesc_2_7::MemoryManager"*, i16*, i16*, i16*, i16*, i32, i32, i16*, i16*, i16*, i8, [7 x i8] }>
%"class.xercesc_2_7::Janitor.62" = type { %"class.xercesc_2_7::InputSource"* }
%"class.xercesc_2_7::DOMDocument" = type { %"class.xercesc_2_7::DOMDocumentRange", %"class.xercesc_2_7::DOMXPathEvaluator", %"class.xercesc_2_7::DOMDocumentTraversal", %"class.xercesc_2_7::DOMNode" }
%"class.xercesc_2_7::DOMDocumentRange" = type { i32 (...)** }
%"class.xercesc_2_7::DOMXPathEvaluator" = type { i32 (...)** }
%"class.xercesc_2_7::DOMDocumentTraversal" = type { i32 (...)** }
%"class.xercesc_2_7::DOMElement" = type { %"class.xercesc_2_7::DOMNode" }
%"class.xercesc_2_7::TraverseSchema" = type { i8, i32, i32, i32, i32, i32, i32, i16*, %"class.xercesc_2_7::DatatypeValidatorFactory"*, %"class.xercesc_2_7::GrammarResolver"*, %"class.xercesc_2_7::SchemaGrammar"*, %"class.xercesc_2_7::XMLEntityHandler"*, %"class.xercesc_2_7::XMLErrorReporter"*, %"class.xercesc_2_7::XMLStringPool"*, %"class.xercesc_2_7::XMLStringPool"*, %"class.xercesc_2_7::XMLBuffer", %"class.xercesc_2_7::XMLScanner"*, %"class.xercesc_2_7::NamespaceScope"*, %"class.xercesc_2_7::RefHashTableOf.28"*, %"class.xercesc_2_7::RefHashTableOf.30"*, %"class.xercesc_2_7::RefHashTableOf.31"*, %"class.xercesc_2_7::RefHashTableOf.32"*, %"class.xercesc_2_7::RefHashTableOf.63"*, %"class.xercesc_2_7::RefHashTableOf.64"*, %"class.xercesc_2_7::SchemaInfo"*, %"class.xercesc_2_7::XercesGroupInfo"*, %"class.xercesc_2_7::XercesAttGroupInfo"*, %"class.xercesc_2_7::ComplexTypeInfo"*, %"class.xercesc_2_7::ValueVectorOf.19"*, %"class.xercesc_2_7::ValueVectorOf.19"*, %"class.xercesc_2_7::ValueVectorOf.19"*, %"class.xercesc_2_7::ValueVectorOf.71"*, %"class.xercesc_2_7::ValueVectorOf.67"*, %"class.xercesc_2_7::ValueVectorOf.19"**, %"class.xercesc_2_7::ValueVectorOf.70"*, %"class.xercesc_2_7::RefHashTableOf.72"*, %"class.xercesc_2_7::RefHashTableOf.73"*, %"class.xercesc_2_7::RefHash2KeysTableOf.74"*, %"class.xercesc_2_7::RefHash2KeysTableOf.74"*, %"class.xercesc_2_7::RefHash2KeysTableOf.75"*, %"class.xercesc_2_7::RefHash2KeysTableOf.33"*, %"class.xercesc_2_7::RefHash2KeysTableOf.76"*, %"class.xercesc_2_7::XSDDOMParser"*, %"class.xercesc_2_7::XSDErrorReporter", %"class.xercesc_2_7::XSDLocator"*, %"class.xercesc_2_7::MemoryManager"*, %"class.xercesc_2_7::MemoryManager"*, %"class.xercesc_2_7::XSAnnotation"*, %"class.xercesc_2_7::GeneralAttributeCheck" }
%"class.xercesc_2_7::RefHashTableOf.63" = type opaque
%"class.xercesc_2_7::RefHashTableOf.64" = type opaque
%"class.xercesc_2_7::SchemaInfo" = type { i8, i8, i16, i32, i32, i32, i32, i32, i16*, i16*, %"class.xercesc_2_7::DOMElement"*, %"class.xercesc_2_7::RefVectorOf.65"*, %"class.xercesc_2_7::RefVectorOf.65"*, %"class.xercesc_2_7::RefVectorOf.65"*, %"class.xercesc_2_7::ValueVectorOf.67"*, %"class.xercesc_2_7::ValueVectorOf.38"*, %"class.xercesc_2_7::ValueVectorOf.67"*, %"class.xercesc_2_7::ValueVectorOf.68"*, [7 x %"class.xercesc_2_7::ValueVectorOf.69"*], %"class.xercesc_2_7::ValueVectorOf.70"*, %"class.xercesc_2_7::ValidationContext"*, %"class.xercesc_2_7::MemoryManager"* }
%"class.xercesc_2_7::RefVectorOf.65" = type { %"class.xercesc_2_7::BaseRefVectorOf.66" }
%"class.xercesc_2_7::BaseRefVectorOf.66" = type { i32 (...)**, i8, i32, i32, %"class.xercesc_2_7::SchemaInfo"**, %"class.xercesc_2_7::MemoryManager"* }
%"class.xercesc_2_7::ValueVectorOf.68" = type { i8, i32, i32, i16**, %"class.xercesc_2_7::MemoryManager"* }
%"class.xercesc_2_7::ValueVectorOf.69" = type { i8, i32, i32, %"class.xercesc_2_7::DOMElement"**, %"class.xercesc_2_7::MemoryManager"* }
%"class.xercesc_2_7::XercesGroupInfo" = type opaque
%"class.xercesc_2_7::XercesAttGroupInfo" = type opaque
%"class.xercesc_2_7::ValueVectorOf.71" = type opaque
%"class.xercesc_2_7::ValueVectorOf.67" = type { i8, i32, i32, %"class.xercesc_2_7::DOMElement"**, %"class.xercesc_2_7::MemoryManager"* }
%"class.xercesc_2_7::ValueVectorOf.70" = type opaque
%"class.xercesc_2_7::RefHashTableOf.72" = type opaque
%"class.xercesc_2_7::RefHashTableOf.73" = type opaque
%"class.xercesc_2_7::RefHash2KeysTableOf.74" = type opaque
%"class.xercesc_2_7::RefHash2KeysTableOf.75" = type opaque
%"class.xercesc_2_7::RefHash2KeysTableOf.76" = type opaque
%"class.xercesc_2_7::GeneralAttributeCheck" = type { %"class.xercesc_2_7::MemoryManager"*, %"class.xercesc_2_7::ValidationContext"*, %"class.xercesc_2_7::IDDatatypeValidator" }
%"class.xercesc_2_7::IDDatatypeValidator" = type { %"class.xercesc_2_7::StringDatatypeValidator" }
%"class.xercesc_2_7::StringDatatypeValidator" = type { %"class.xercesc_2_7::AbstractStringValidator" }
%"class.xercesc_2_7::AbstractStringValidator" = type { %"class.xercesc_2_7::DatatypeValidator", i32, i32, i32, i8, %"class.xercesc_2_7::RefArrayVectorOf"* }
%"class.xercesc_2_7::LocalFileInputSource" = type { %"class.xercesc_2_7::InputSource.base", [7 x i8] }
%"class.xercesc_2_7::InputSource.base" = type <{ i32 (...)**, %"class.xercesc_2_7::MemoryManager"*, i16*, i16*, i16*, i8 }>
%"class.xercesc_2_7::MalformedURLException" = type { %"class.xercesc_2_7::XMLException" }
%"class.xercesc_2_7::URLInputSource" = type { %"class.xercesc_2_7::InputSource.base", [7 x i8], %"class.xercesc_2_7::XMLURL" }
%"class.xercesc_2_7::SubstitutionGroupComparator" = type { %"class.xercesc_2_7::GrammarResolver"*, %"class.xercesc_2_7::XMLStringPool"* }
%"class.xercesc_2_7::ArrayJanitor" = type { i16*, %"class.xercesc_2_7::MemoryManager"* }
%"class.xercesc_2_7::ThrowEOEJanitor" = type { i8, %"class.xercesc_2_7::ReaderMgr"* }
%"class.xercesc_2_7::NoSuchElementException" = type { %"class.xercesc_2_7::XMLException" }
%"class.xercesc_2_7::XSerializeEngine" = type <{ i16, i16, [4 x i8], %"class.xercesc_2_7::XMLGrammarPool"*, %"class.xercesc_2_7::BinInputStream"*, %"class.xercesc_2_7::BinOutputStream"*, i64, i64, i8*, i8*, i8*, i8*, %"class.xercesc_2_7::RefHashTableOf.77"*, %"class.xercesc_2_7::ValueVectorOf.78"*, i32, [4 x i8] }>
%"class.xercesc_2_7::BinOutputStream" = type opaque
%"class.xercesc_2_7::RefHashTableOf.77" = type opaque
%"class.xercesc_2_7::ValueVectorOf.78" = type opaque
%"class.xercesc_2_7::XProtoType" = type { i8*, %"class.xercesc_2_7::XSerializable"* (%"class.xercesc_2_7::MemoryManager"*)* }
%"class.xercesc_2_7::XSValue" = type opaque
%"class.xercesc_2_7::IllegalArgumentException" = type { %"class.xercesc_2_7::XMLException" }
%"class.xercesc_2_7::ArrayJanitor.82" = type { %"struct.xercesc_2_7::RefHashTableBucketElem.51"**, %"class.xercesc_2_7::MemoryManager"* }
%"class.xercesc_2_7::ArrayJanitor.83" = type { %"struct.xercesc_2_7::RefHash2KeysTableBucketElem.53"**, %"class.xercesc_2_7::MemoryManager"* }

$_ZN11xercesc_2_710XMLDeleterD0Ev = comdat any

$_ZN11xercesc_2_710XMLDeleterD2Ev = comdat any

$_ZN11xercesc_2_713XSerializableD2Ev = comdat any

$__clang_call_terminate = comdat any

$_ZN11xercesc_2_710XMLRefInfoD0Ev = comdat any

$_ZN11xercesc_2_710XMLRefInfoD2Ev = comdat any

$_ZN11xercesc_2_713DTDEntityDeclD0Ev = comdat any

$_ZN11xercesc_2_713DTDEntityDeclD2Ev = comdat any

$_ZN11xercesc_2_713XMLAttDefListD0Ev = comdat any

$_ZN11xercesc_2_78PSVIItemD0Ev = comdat any

$_ZN11xercesc_2_713PSVIAttributeD0Ev = comdat any

$_ZN11xercesc_2_713PSVIAttributeD2Ev = comdat any

$_ZN11xercesc_2_711PSVIHandler24handlePartialElementPSVIEPKtS2_PNS_11PSVIElementE = comdat any

$_ZN11xercesc_2_715ContentSpecNodeD0Ev = comdat any

$_ZN11xercesc_2_715ContentSpecNodeD2Ev = comdat any

$_ZNK11xercesc_2_710XSDLocator11getPublicIdEv = comdat any

$_ZN11xercesc_2_79XMLBufferC2EjPNS_13MemoryManagerE = comdat any

$_ZN11xercesc_2_717JanitorMemFunCallINS_12SGXMLScannerEEC2EPS1_MS1_FvvE = comdat any

$_ZN11xercesc_2_717JanitorMemFunCallINS_12SGXMLScannerEE7releaseEv = comdat any

$_ZN11xercesc_2_717JanitorMemFunCallINS_12SGXMLScannerEED2Ev = comdat any

$_ZN11xercesc_2_79XMLBufferD2Ev = comdat any

$_ZN11xercesc_2_717JanitorMemFunCallINS_9ReaderMgrEEC2EPS1_MS1_FvvE = comdat any

$_ZN11xercesc_2_717JanitorMemFunCallINS_9ReaderMgrEE7releaseEv = comdat any

$_ZNK11xercesc_2_712XMLException12getErrorTypeEv = comdat any

$_ZNK11xercesc_2_712XMLException10getMessageEv = comdat any

$_ZN11xercesc_2_717JanitorMemFunCallINS_9ReaderMgrEED2Ev = comdat any

$_ZN11xercesc_2_716RuntimeExceptionC2EPKcjNS_10XMLExcepts5CodesEPNS_13MemoryManagerE = comdat any

$_ZN11xercesc_2_716RuntimeExceptionD2Ev = comdat any

$_ZNK11xercesc_2_720EndOfEntityException9getEntityEv = comdat any

$_ZNK11xercesc_2_79ElemStack7isEmptyEv = comdat any

$_ZNK11xercesc_2_714XMLElementDecl11getFullNameEv = comdat any

$_ZN11xercesc_2_79ReaderMgr10skipToCharEt = comdat any

$_ZNK11xercesc_2_79ReaderMgr19getCurrentReaderNumEv = comdat any

$_ZNK11xercesc_2_712SGXMLScanner25toCheckIdentityConstraintEv = comdat any

$_ZN11xercesc_2_725IdentityConstraintHandler11endDocumentEv = comdat any

$_ZNK11xercesc_2_715BaseRefVectorOfINS_12KVStringPairEE4sizeEv = comdat any

$_ZN11xercesc_2_79ReaderMgr16getCurrentReaderEv = comdat any

$_ZNK11xercesc_2_79XMLReader12isWhitespaceEt = comdat any

$_ZNK11xercesc_2_79XMLReader21isSpecialStartTagCharEt = comdat any

$_ZN11xercesc_2_79ReaderMgr8getQNameERNS_9XMLBufferEPi = comdat any

$_ZNK11xercesc_2_79XMLBuffer7isEmptyEv = comdat any

$_ZN11xercesc_2_79XMLBuffer12getRawBufferEv = comdat any

$_ZN11xercesc_2_79ReaderMgr12skipPastCharEt = comdat any

$_ZNK11xercesc_2_79XMLBuffer6getLenEv = comdat any

$_ZN11xercesc_2_715BaseRefVectorOfINS_12KVStringPairEE10addElementEPS1_ = comdat any

$_ZN11xercesc_2_715BaseRefVectorOfINS_12KVStringPairEE9elementAtEj = comdat any

$_ZN11xercesc_2_712KVStringPair3setEPKtjS2_j = comdat any

$_ZN11xercesc_2_722UnexpectedEOFExceptionC2EPKcjNS_10XMLExcepts5CodesEPNS_13MemoryManagerE = comdat any

$_ZN11xercesc_2_722UnexpectedEOFExceptionD2Ev = comdat any

$_ZN11xercesc_2_79ElemStack13getCurrentURIEv = comdat any

$_ZN11xercesc_2_79ElemStack24getCurrentSchemaElemNameEv = comdat any

$_ZN11xercesc_2_79ReaderMgr13skippedStringEPKt = comdat any

$_ZN11xercesc_2_712ValueStackOfIbE3popEv = comdat any

$_ZNK11xercesc_2_714XMLElementDecl10isDeclaredEv = comdat any

$_ZNK11xercesc_2_715SchemaValidator18getCurrentTypeInfoEv = comdat any

$_ZNK11xercesc_2_715SchemaValidator27getCurrentDatatypeValidatorEv = comdat any

$_ZNK11xercesc_2_715SchemaValidator18getNormalizedValueEv = comdat any

$_ZN11xercesc_2_79XMLString6equalsEPKtS2_ = comdat any

$_ZNK11xercesc_2_715SchemaValidator16getErrorOccurredEv = comdat any

$_ZNK11xercesc_2_717DatatypeValidator7getTypeEv = comdat any

$_ZNK11xercesc_2_715SchemaValidator18getIsElemSpecifiedEv = comdat any

$_ZNK11xercesc_2_717SchemaElementDecl15getDefaultValueEv = comdat any

$_ZN11xercesc_2_715SchemaValidator19clearDatatypeBufferEv = comdat any

$_ZN11xercesc_2_79XMLBuffer3setEPKtj = comdat any

$_ZN11xercesc_2_79XMLBuffer5resetEv = comdat any

$_ZN11xercesc_2_79XMLBuffer3setEPKt = comdat any

$_ZN11xercesc_2_714XMLElementDecl14getElementNameEv = comdat any

$_ZN11xercesc_2_75QName9getPrefixEv = comdat any

$_ZN11xercesc_2_712ValueStackOfIbE4pushERKb = comdat any

$_ZN11xercesc_2_712ValueStackOfIbE4sizeEv = comdat any

$_ZN11xercesc_2_79ElemStack17getCurrentGrammarEv = comdat any

$_ZN11xercesc_2_79ElemStack17getValidationFlagEv = comdat any

$_ZNK11xercesc_2_717SchemaElementDecl12getModelTypeEv = comdat any

$_ZNK11xercesc_2_715ComplexTypeInfo14getContentTypeEv = comdat any

$_ZNK11xercesc_2_717SchemaElementDecl18getComplexTypeInfoEv = comdat any

$_ZN11xercesc_2_715ComplexTypeInfo15getContentModelEb = comdat any

$_ZN11xercesc_2_79ElemStack15getCurrentScopeEv = comdat any

$_ZN11xercesc_2_79ElemStack17setValidationFlagEb = comdat any

$_ZN11xercesc_2_79ElemStack17setPrefixColonPosEi = comdat any

$_ZN11xercesc_2_718RefHash3KeysIdPoolINS_17SchemaElementDeclEE8getByKeyEPKvii = comdat any

$_ZNK11xercesc_2_714XMLElementDecl15getCreateReasonEv = comdat any

$_ZN11xercesc_2_714XMLElementDecl5setIdEj = comdat any

$_ZN11xercesc_2_718RefHash3KeysIdPoolINS_17SchemaElementDeclEE3putEPviiPS1_ = comdat any

$_ZN11xercesc_2_714XMLElementDecl11getBaseNameEv = comdat any

$_ZN11xercesc_2_714XMLElementDecl15setCreateReasonENS0_13CreateReasonsE = comdat any

$_ZN11xercesc_2_79ElemStack13setCurrentURIEj = comdat any

$_ZN11xercesc_2_79XMLString9replicateEPKtPNS_13MemoryManagerE = comdat any

$_ZN11xercesc_2_79ElemStack24setCurrentSchemaElemNameEPKt = comdat any

$_ZNK11xercesc_2_715ComplexTypeInfo15getScopeDefinedEv = comdat any

$_ZNK11xercesc_2_715ComplexTypeInfo11getTypeNameEv = comdat any

$_ZN11xercesc_2_79XMLString10startsWithEPKtS2_ = comdat any

$_ZN11xercesc_2_79XMLBuffer6appendEPKtj = comdat any

$_ZN11xercesc_2_79ElemStack15setCurrentScopeEi = comdat any

$_ZN11xercesc_2_79ElemStack17setCurrentGrammarEPNS_7GrammarE = comdat any

$_ZN11xercesc_2_712XMLValidator16checkRootElementEj = comdat any

$_ZNK11xercesc_2_714XMLElementDecl5getIdEv = comdat any

$_ZN11xercesc_2_710XMLScanner14getPSVIHandlerEv = comdat any

$_ZN11xercesc_2_717PSVIAttributeList5resetEv = comdat any

$_ZN11xercesc_2_719RefHash2KeysTableOfIjE9removeAllEv = comdat any

$_ZN11xercesc_2_75QName12getLocalPartEv = comdat any

$_ZNK11xercesc_2_75QName6getURIEv = comdat any

$_ZNK11xercesc_2_714XMLElementDecl6getURIEv = comdat any

$_ZN11xercesc_2_715GrammarResolver23useCachedGrammarInParseEb = comdat any

$_ZN11xercesc_2_711RefVectorOfINS_12KVStringPairEEC2EjbPNS_13MemoryManagerE = comdat any

$_ZN11xercesc_2_716ValueHashTableOfItEC2EjPNS_13MemoryManagerE = comdat any

$_ZN11xercesc_2_716ValueHashTableOfItE3putEPvRKt = comdat any

$_ZN11xercesc_2_718RefHash3KeysIdPoolINS_17SchemaElementDeclEEC2EjbjPNS_13MemoryManagerE = comdat any

$_ZN11xercesc_2_714RefHashTableOfIjEC2EjbPNS_8HashBaseEPNS_13MemoryManagerE = comdat any

$_ZN11xercesc_2_719RefHash2KeysTableOfIjEC2EjbPNS_8HashBaseEPNS_13MemoryManagerE = comdat any

$_ZN11xercesc_2_716ValueHashTableOfItED2Ev = comdat any

$_ZN11xercesc_2_718RefHash3KeysIdPoolINS_17SchemaElementDeclEED2Ev = comdat any

$_ZN11xercesc_2_714RefHashTableOfIjED2Ev = comdat any

$_ZN11xercesc_2_719RefHash2KeysTableOfIjED2Ev = comdat any

$_ZN11xercesc_2_717PSVIAttributeListD2Ev = comdat any

$_ZN11xercesc_2_712ValueStackOfIbED2Ev = comdat any

$_ZNK11xercesc_2_715ComplexTypeInfo10hasAttDefsEv = comdat any

$_ZNK11xercesc_2_715BaseRefVectorOfINS_7XMLAttrEE4sizeEv = comdat any

$_ZN11xercesc_2_79XMLBufBidC2EPNS_12XMLBufferMgrE = comdat any

$_ZN11xercesc_2_79XMLBufBid9getBufferEv = comdat any

$_ZNK11xercesc_2_715BaseRefVectorOfINS_12KVStringPairEE9elementAtEj = comdat any

$_ZNK11xercesc_2_712KVStringPair6getKeyEv = comdat any

$_ZN11xercesc_2_712ArrayJanitorItEC2EPt = comdat any

$_ZN11xercesc_2_79XMLString9stringLenEPKt = comdat any

$_ZN11xercesc_2_712ArrayJanitorItE5resetEPtPNS_13MemoryManagerE = comdat any

$_ZNK11xercesc_2_712ArrayJanitorItEixEi = comdat any

$_ZNK11xercesc_2_712ArrayJanitorItE3getEv = comdat any

$_ZN11xercesc_2_715ComplexTypeInfo9getAttDefEPKti = comdat any

$_ZN11xercesc_2_715ComplexTypeInfo14getAttWildCardEv = comdat any

$_ZN11xercesc_2_717SchemaElementDecl14getAttWildCardEv = comdat any

$_ZNK11xercesc_2_79XMLAttDef15getCreateReasonEv = comdat any

$_ZNK11xercesc_2_713SchemaGrammar24getAttributeDeclRegistryEv = comdat any

$_ZN11xercesc_2_714RefHashTableOfINS_9XMLAttDefEE3getEPKv = comdat any

$_ZN11xercesc_2_714RefHashTableOfIjE3getEPKv = comdat any

$_ZN11xercesc_2_714RefHashTableOfIjE3putEPvPj = comdat any

$_ZNK11xercesc_2_719RefHash2KeysTableOfIjE11containsKeyEPKvi = comdat any

$_ZN11xercesc_2_719RefHash2KeysTableOfIjE3putEPviPj = comdat any

$_ZN11xercesc_2_79XMLBuffer6appendEt = comdat any

$_ZN11xercesc_2_79XMLBuffer6appendEPKt = comdat any

$_ZN11xercesc_2_79XMLBufBidD2Ev = comdat any

$_ZNK11xercesc_2_712KVStringPair8getValueEv = comdat any

$_ZNK11xercesc_2_712SchemaAttDef20getDatatypeValidatorEv = comdat any

$_ZNK11xercesc_2_717DatatypeValidator10getWSFacetEv = comdat any

$_ZNK11xercesc_2_715SchemaValidator26getMostRecentAttrValidatorEv = comdat any

$_ZN11xercesc_2_724DatatypeValidatorFactory18getBuiltInRegistryEv = comdat any

$_ZN11xercesc_2_714RefHashTableOfINS_17DatatypeValidatorEE3getEPKv = comdat any

$_ZNK11xercesc_2_79XMLAttDef7getTypeEv = comdat any

$_ZN11xercesc_2_717PSVIAttributeList22getPSVIAttributeToFillEPKtS2_ = comdat any

$_ZNK11xercesc_2_79XMLAttDef8getValueEv = comdat any

$_ZNK11xercesc_2_722XSSimpleTypeDefinition10getVarietyEv = comdat any

$_ZN11xercesc_2_715BaseRefVectorOfINS_7XMLAttrEE10addElementEPS1_ = comdat any

$_ZN11xercesc_2_715BaseRefVectorOfINS_7XMLAttrEE9elementAtEj = comdat any

$_ZN11xercesc_2_77XMLAttr3setEjPKtS2_S2_NS_9XMLAttDef8AttTypesEPNS_17DatatypeValidatorEb = comdat any

$_ZN11xercesc_2_77XMLAttr12setSpecifiedEb = comdat any

$_ZNK11xercesc_2_77XMLAttr8getValueEv = comdat any

$_ZN11xercesc_2_712ArrayJanitorItED2Ev = comdat any

$_ZN11xercesc_2_713getAttDefListEPNS_15ComplexTypeInfoEPNS_14XMLElementDeclE = comdat any

$_ZNK11xercesc_2_79XMLAttDef14getDefaultTypeEv = comdat any

$_ZNK11xercesc_2_79XMLAttDef10isExternalEv = comdat any

$_ZNK11xercesc_2_712SchemaAttDef10getAttNameEv = comdat any

$_ZN11xercesc_2_713PSVIAttribute14updateValidityENS_8PSVIItem14VALIDITY_STATEE = comdat any

$_ZN11xercesc_2_715SchemaValidator16setErrorReporterEPNS_16XMLErrorReporterE = comdat any

$_ZN11xercesc_2_715SchemaValidator18setGrammarResolverEPNS_15GrammarResolverE = comdat any

$_ZN11xercesc_2_715SchemaValidator19setExitOnFirstFatalEb = comdat any

$_ZN11xercesc_2_710XMLScanner22resetValidationContextEv = comdat any

$_ZN11xercesc_2_712ValueStackOfIbEC2EjPNS_13MemoryManagerEb = comdat any

$_ZN11xercesc_2_712ValueStackOfIbE17removeAllElementsEv = comdat any

$_ZN11xercesc_2_716RuntimeExceptionC2EPKcjNS_10XMLExcepts5CodesEPKtS6_S6_S6_PNS_13MemoryManagerE = comdat any

$_ZN11xercesc_2_714RefHashTableOfIjE9removeAllEv = comdat any

$_ZN11xercesc_2_715SchemaValidator17setDatatypeBufferEPKt = comdat any

$_ZNK11xercesc_2_725IdentityConstraintHandler15getMatcherCountEv = comdat any

$_ZN11xercesc_2_715SchemaValidator11setNillableEb = comdat any

$_ZN11xercesc_2_715SchemaValidator10setXsiTypeEPKtS2_j = comdat any

$_ZN11xercesc_2_77JanitorINS_15BaseRefVectorOfItEEEC2EPS2_ = comdat any

$_ZNK11xercesc_2_715BaseRefVectorOfItE4sizeEv = comdat any

$_ZN11xercesc_2_715BaseRefVectorOfItE9elementAtEj = comdat any

$_ZN11xercesc_2_77JanitorINS_15BaseRefVectorOfItEEED2Ev = comdat any

$_ZN11xercesc_2_79ReaderMgr17LastExtEntityInfoC2Ev = comdat any

$_ZN11xercesc_2_721XMLResourceIdentifierC2ENS0_22ResourceIdentifierTypeEPKtS3_S3_S3_PKNS_7LocatorE = comdat any

$_ZN11xercesc_2_721XMLResourceIdentifierD2Ev = comdat any

$_ZN11xercesc_2_721MalformedURLExceptionC2EPKcjNS_10XMLExcepts5CodesEPNS_13MemoryManagerE = comdat any

$_ZN11xercesc_2_721MalformedURLExceptionD2Ev = comdat any

$_ZN11xercesc_2_77JanitorINS_11InputSourceEEC2EPS1_ = comdat any

$_ZNK11xercesc_2_712XSDDOMParser11getSawFatalEv = comdat any

$_ZN11xercesc_2_77JanitorINS_11InputSourceEED2Ev = comdat any

$_ZNK11xercesc_2_79XMLReader9isXMLCharEt = comdat any

$_ZNK11xercesc_2_714XMLElementDecl10isExternalEv = comdat any

$_ZNK11xercesc_2_79XMLBufBid6getLenEv = comdat any

$_ZN11xercesc_2_79XMLBufBid12getRawBufferEv = comdat any

$_ZN11xercesc_2_79XMLBufBid6appendEt = comdat any

$_ZN11xercesc_2_715ThrowEOEJanitorC2EPNS_9ReaderMgrEb = comdat any

$_ZN11xercesc_2_79ReaderMgr21movePlainContentCharsERNS_9XMLBufferE = comdat any

$_ZN11xercesc_2_79ReaderMgr16getNextCharIfNotEtRt = comdat any

$_ZN11xercesc_2_715ThrowEOEJanitorD2Ev = comdat any

$_ZNK11xercesc_2_79XMLBufBid7isEmptyEv = comdat any

$_ZNK11xercesc_2_716ValueHashTableOfItE11containsKeyEPKv = comdat any

$_ZN11xercesc_2_716ValueHashTableOfItE3getEPKvPNS_13MemoryManagerE = comdat any

$_ZN11xercesc_2_727SubstitutionGroupComparatorC2EPNS_15GrammarResolverEPNS_13XMLStringPoolE = comdat any

$_ZN11xercesc_2_727SubstitutionGroupComparatorD2Ev = comdat any

$_ZNK11xercesc_2_712SchemaAttDef16getNamespaceListEv = comdat any

$_ZNK11xercesc_2_713ValueVectorOfIjE4sizeEv = comdat any

$_ZN11xercesc_2_713ValueVectorOfIjE9elementAtEj = comdat any

$_ZNK11xercesc_2_713DTDEntityDecl22getDeclaredInIntSubsetEv = comdat any

$_ZNK11xercesc_2_713DTDEntityDecl14getIsParameterEv = comdat any

$_ZNK11xercesc_2_713DTDEntityDecl16getIsSpecialCharEv = comdat any

$_ZN11xercesc_2_713XMLAttDefListD2Ev = comdat any

$_ZN11xercesc_2_78PSVIItemD2Ev = comdat any

$_ZN11xercesc_2_713PSVIAttribute17getTypeDefinitionEv = comdat any

$_ZN11xercesc_2_713PSVIAttribute23getMemberTypeDefinitionEv = comdat any

$_ZN11xercesc_2_711PSVIHandlerD2Ev = comdat any

$_ZN11xercesc_2_711PSVIHandlerD0Ev = comdat any

$_ZN11xercesc_2_710XSDLocatorD2Ev = comdat any

$_ZN11xercesc_2_710XSDLocatorD0Ev = comdat any

$_ZNK11xercesc_2_710XSDLocator11getSystemIdEv = comdat any

$_ZNK11xercesc_2_710XSDLocator13getLineNumberEv = comdat any

$_ZNK11xercesc_2_710XSDLocator15getColumnNumberEv = comdat any

$_ZN11xercesc_2_710XMLScanner10bufferFullERNS_9XMLBufferE = comdat any

$_ZNK11xercesc_2_712SGXMLScanner21getCurrentGrammarTypeEv = comdat any

$_ZNK11xercesc_2_712SGXMLScanner7getNameEv = comdat any

$_ZN11xercesc_2_77XMemoryC2Ev = comdat any

$_ZN11xercesc_2_716RuntimeExceptionD0Ev = comdat any

$_ZNK11xercesc_2_716RuntimeException7getTypeEv = comdat any

$_ZNK11xercesc_2_716RuntimeException9duplicateEv = comdat any

$_ZN11xercesc_2_716RuntimeExceptionC2ERKS0_ = comdat any

$_ZNK11xercesc_2_79XMLReader12getReaderNumEv = comdat any

$_ZN11xercesc_2_715ValueStoreCache11endDocumentEv = comdat any

$_ZN11xercesc_2_712KVStringPair6setKeyEPKtj = comdat any

$_ZN11xercesc_2_712KVStringPair8setValueEPKtj = comdat any

$_ZN11xercesc_2_722UnexpectedEOFExceptionD0Ev = comdat any

$_ZNK11xercesc_2_722UnexpectedEOFException7getTypeEv = comdat any

$_ZNK11xercesc_2_722UnexpectedEOFException9duplicateEv = comdat any

$_ZN11xercesc_2_722UnexpectedEOFExceptionC2ERKS0_ = comdat any

$_ZN11xercesc_2_712ValueStackOfIPNS_15ComplexTypeInfoEE5emptyEv = comdat any

$_ZNK11xercesc_2_712ValueStackOfIPNS_15ComplexTypeInfoEE4peekEv = comdat any

$_ZNK11xercesc_2_713ValueVectorOfIPNS_15ComplexTypeInfoEE4sizeEv = comdat any

$_ZNK11xercesc_2_713ValueVectorOfIPNS_15ComplexTypeInfoEE16getMemoryManagerEv = comdat any

$_ZN11xercesc_2_719EmptyStackExceptionC2EPKcjNS_10XMLExcepts5CodesEPNS_13MemoryManagerE = comdat any

$_ZN11xercesc_2_719EmptyStackExceptionD2Ev = comdat any

$_ZNK11xercesc_2_713ValueVectorOfIPNS_15ComplexTypeInfoEE9elementAtEj = comdat any

$_ZN11xercesc_2_719EmptyStackExceptionD0Ev = comdat any

$_ZNK11xercesc_2_719EmptyStackException7getTypeEv = comdat any

$_ZNK11xercesc_2_719EmptyStackException9duplicateEv = comdat any

$_ZN11xercesc_2_719EmptyStackExceptionC2ERKS0_ = comdat any

$_ZN11xercesc_2_730ArrayIndexOutOfBoundsExceptionC2EPKcjNS_10XMLExcepts5CodesEPNS_13MemoryManagerE = comdat any

$_ZN11xercesc_2_730ArrayIndexOutOfBoundsExceptionD2Ev = comdat any

$_ZN11xercesc_2_730ArrayIndexOutOfBoundsExceptionD0Ev = comdat any

$_ZNK11xercesc_2_730ArrayIndexOutOfBoundsException7getTypeEv = comdat any

$_ZNK11xercesc_2_730ArrayIndexOutOfBoundsException9duplicateEv = comdat any

$_ZN11xercesc_2_730ArrayIndexOutOfBoundsExceptionC2ERKS0_ = comdat any

$_ZNK11xercesc_2_79XMLBuffer12getRawBufferEv = comdat any

$_ZNK11xercesc_2_719RefHash2KeysTableOfINS_12SchemaAttDefEE7isEmptyEv = comdat any

$_ZN11xercesc_2_719RefHash2KeysTableOfINS_12SchemaAttDefEE3getEPKvi = comdat any

$_ZN11xercesc_2_719RefHash2KeysTableOfINS_12SchemaAttDefEE14findBucketElemEPKviRj = comdat any

$_ZNK11xercesc_2_715BaseRefVectorOfINS_13PSVIAttributeEE4sizeEv = comdat any

$_ZN11xercesc_2_715BaseRefVectorOfINS_13PSVIAttributeEE10addElementEPS1_ = comdat any

$_ZN11xercesc_2_715BaseRefVectorOfItE10addElementEPt = comdat any

$_ZN11xercesc_2_715BaseRefVectorOfINS_13PSVIAttributeEE9elementAtEj = comdat any

$_ZN11xercesc_2_715BaseRefVectorOfINS_13PSVIAttributeEE19ensureExtraCapacityEj = comdat any

$_ZN11xercesc_2_715BaseRefVectorOfItE19ensureExtraCapacityEj = comdat any

$_ZN11xercesc_2_712XMLValidator16setErrorReporterEPNS_16XMLErrorReporterE = comdat any

$_ZN11xercesc_2_716XSDErrorReporter16setErrorReporterEPNS_16XMLErrorReporterE = comdat any

$_ZN11xercesc_2_716XSDErrorReporter19setExitOnFirstFatalEb = comdat any

$_ZNK11xercesc_2_717XPathMatcherStack15getMatcherCountEv = comdat any

$_ZN11xercesc_2_721MalformedURLExceptionD0Ev = comdat any

$_ZNK11xercesc_2_721MalformedURLException7getTypeEv = comdat any

$_ZNK11xercesc_2_721MalformedURLException9duplicateEv = comdat any

$_ZN11xercesc_2_721MalformedURLExceptionC2ERKS0_ = comdat any

$_ZNK11xercesc_2_79ReaderMgr11getThrowEOEEv = comdat any

$_ZN11xercesc_2_79ReaderMgr11setThrowEOEEb = comdat any

$_ZN11xercesc_2_79XMLReader21movePlainContentCharsERNS_9XMLBufferE = comdat any

$_ZNK11xercesc_2_79XMLReader18isPlainContentCharEt = comdat any

$_ZN11xercesc_2_79XMLReader16getNextCharIfNotEtRt = comdat any

$_ZN11xercesc_2_77LocatorD2Ev = comdat any

$_ZN11xercesc_2_714RefHashTableOfINS_17DatatypeValidatorEE14findBucketElemEPKvRj = comdat any

$_ZN11xercesc_2_718RefHash3KeysIdPoolINS_17SchemaElementDeclEE14findBucketElemEPKviiRj = comdat any

$_ZN11xercesc_2_718RefHash3KeysIdPoolINS_17SchemaElementDeclEE10initializeEj = comdat any

$_ZN11xercesc_2_724IllegalArgumentExceptionC2EPKcjNS_10XMLExcepts5CodesEPNS_13MemoryManagerE = comdat any

$_ZN11xercesc_2_724IllegalArgumentExceptionD2Ev = comdat any

$_ZN11xercesc_2_724IllegalArgumentExceptionD0Ev = comdat any

$_ZNK11xercesc_2_724IllegalArgumentException7getTypeEv = comdat any

$_ZNK11xercesc_2_724IllegalArgumentException9duplicateEv = comdat any

$_ZN11xercesc_2_724IllegalArgumentExceptionC2ERKS0_ = comdat any

$_ZN11xercesc_2_727RefHash3KeysTableBucketElemINS_17SchemaElementDeclEEC2EPviiPS1_PS2_ = comdat any

$_ZN11xercesc_2_716ValueHashTableOfItE14findBucketElemEPKvRj = comdat any

$_ZN11xercesc_2_722NoSuchElementExceptionC2EPKcjNS_10XMLExcepts5CodesEPNS_13MemoryManagerE = comdat any

$_ZN11xercesc_2_722NoSuchElementExceptionD2Ev = comdat any

$_ZN11xercesc_2_722NoSuchElementExceptionD0Ev = comdat any

$_ZNK11xercesc_2_722NoSuchElementException7getTypeEv = comdat any

$_ZNK11xercesc_2_722NoSuchElementException9duplicateEv = comdat any

$_ZN11xercesc_2_722NoSuchElementExceptionC2ERKS0_ = comdat any

$_ZN11xercesc_2_715BaseRefVectorOfINS_12KVStringPairEE19ensureExtraCapacityEj = comdat any

$_ZNK11xercesc_2_713ValueVectorOfIbE4sizeEv = comdat any

$_ZNK11xercesc_2_713ValueVectorOfIbE16getMemoryManagerEv = comdat any

$_ZN11xercesc_2_713ValueVectorOfIbE9elementAtEj = comdat any

$_ZN11xercesc_2_713ValueVectorOfIbE15removeElementAtEj = comdat any

$_ZN11xercesc_2_713ValueVectorOfIbE10addElementERKb = comdat any

$_ZN11xercesc_2_713ValueVectorOfIbE19ensureExtraCapacityEj = comdat any

$_ZNK11xercesc_2_719RefHash2KeysTableOfIjE7isEmptyEv = comdat any

$_ZN11xercesc_2_715BaseRefVectorOfINS_12KVStringPairEEC2EjbPNS_13MemoryManagerE = comdat any

$_ZN11xercesc_2_711RefVectorOfINS_12KVStringPairEED2Ev = comdat any

$_ZN11xercesc_2_711RefVectorOfINS_12KVStringPairEED0Ev = comdat any

$_ZN11xercesc_2_715BaseRefVectorOfINS_12KVStringPairEE12setElementAtEPS1_j = comdat any

$_ZN11xercesc_2_715BaseRefVectorOfINS_12KVStringPairEE17removeAllElementsEv = comdat any

$_ZN11xercesc_2_715BaseRefVectorOfINS_12KVStringPairEE15removeElementAtEj = comdat any

$_ZN11xercesc_2_715BaseRefVectorOfINS_12KVStringPairEE17removeLastElementEv = comdat any

$_ZN11xercesc_2_715BaseRefVectorOfINS_12KVStringPairEE7cleanupEv = comdat any

$_ZN11xercesc_2_715BaseRefVectorOfINS_12KVStringPairEED2Ev = comdat any

$_ZN11xercesc_2_715BaseRefVectorOfINS_12KVStringPairEED0Ev = comdat any

$_ZN11xercesc_2_716ValueHashTableOfItE10initializeEj = comdat any

$_ZN11xercesc_2_724ValueHashTableBucketElemItEC2EPvRKtPS1_ = comdat any

$_ZN11xercesc_2_714RefHashTableOfIjE10initializeEj = comdat any

$_ZN11xercesc_2_719RefHash2KeysTableOfIjE10initializeEj = comdat any

$_ZN11xercesc_2_716ValueHashTableOfItE9removeAllEv = comdat any

$_ZN11xercesc_2_718RefHash3KeysIdPoolINS_17SchemaElementDeclEE9removeAllEv = comdat any

$_ZN11xercesc_2_714RefHashTableOfIjE7cleanupEv = comdat any

$_ZN11xercesc_2_713ValueVectorOfIbED2Ev = comdat any

$_ZN11xercesc_2_712ArrayJanitorItE5resetEPt = comdat any

$_ZN11xercesc_2_714RefHashTableOfINS_9XMLAttDefEE14findBucketElemEPKvRj = comdat any

$_ZN11xercesc_2_714RefHashTableOfIjE14findBucketElemEPKvRj = comdat any

$_ZN11xercesc_2_714RefHashTableOfIjE6rehashEv = comdat any

$_ZN11xercesc_2_722RefHashTableBucketElemIjEC2EPvPjPS1_ = comdat any

$_ZN11xercesc_2_712ArrayJanitorIPNS_22RefHashTableBucketElemIjEEEC2EPS3_PNS_13MemoryManagerE = comdat any

$_ZN11xercesc_2_712ArrayJanitorIPNS_22RefHashTableBucketElemIjEEE7releaseEv = comdat any

$_ZN11xercesc_2_712ArrayJanitorIPNS_22RefHashTableBucketElemIjEEED2Ev = comdat any

$_ZN11xercesc_2_712ArrayJanitorIPNS_22RefHashTableBucketElemIjEEE5resetEPS3_ = comdat any

$_ZNK11xercesc_2_719RefHash2KeysTableOfIjE14findBucketElemEPKviRj = comdat any

$_ZN11xercesc_2_719RefHash2KeysTableOfIjE6rehashEv = comdat any

$_ZN11xercesc_2_719RefHash2KeysTableOfIjE14findBucketElemEPKviRj = comdat any

$_ZN11xercesc_2_727RefHash2KeysTableBucketElemIjEC2EPviPjPS1_ = comdat any

$_ZN11xercesc_2_712ArrayJanitorIPNS_27RefHash2KeysTableBucketElemIjEEEC2EPS3_PNS_13MemoryManagerE = comdat any

$_ZN11xercesc_2_712ArrayJanitorIPNS_27RefHash2KeysTableBucketElemIjEEE7releaseEv = comdat any

$_ZN11xercesc_2_712ArrayJanitorIPNS_27RefHash2KeysTableBucketElemIjEEED2Ev = comdat any

$_ZN11xercesc_2_712ArrayJanitorIPNS_27RefHash2KeysTableBucketElemIjEEE5resetEPS3_ = comdat any

$_ZN11xercesc_2_715BaseRefVectorOfINS_7XMLAttrEE19ensureExtraCapacityEj = comdat any

$_ZN11xercesc_2_713ValueVectorOfIbEC2EjPNS_13MemoryManagerEb = comdat any

$_ZN11xercesc_2_713ValueVectorOfIbE17removeAllElementsEv = comdat any

$_ZNK11xercesc_2_714RefHashTableOfIjE7isEmptyEv = comdat any

$_ZN11xercesc_2_77JanitorINS_15BaseRefVectorOfItEEE5resetEPS2_ = comdat any

$_ZN11xercesc_2_77JanitorINS_11InputSourceEE5resetEPS1_ = comdat any

$_ZNK11xercesc_2_716ValueHashTableOfItE14findBucketElemEPKvRj = comdat any

$_ZTVN11xercesc_2_710XMLRefInfoE = comdat any

$_ZTVN11xercesc_2_713PSVIAttributeE = comdat any

$_ZTVN11xercesc_2_715ContentSpecNodeE = comdat any

$_ZTSN11xercesc_2_720OutOfMemoryExceptionE = comdat any

$_ZTSN11xercesc_2_77XMemoryE = comdat any

$_ZTIN11xercesc_2_77XMemoryE = comdat any

$_ZTIN11xercesc_2_720OutOfMemoryExceptionE = comdat any

$_ZTSN11xercesc_2_77XMLErrs5CodesE = comdat any

$_ZTIN11xercesc_2_77XMLErrs5CodesE = comdat any

$_ZTSN11xercesc_2_78XMLValid5CodesE = comdat any

$_ZTIN11xercesc_2_78XMLValid5CodesE = comdat any

$_ZTSN11xercesc_2_716RuntimeExceptionE = comdat any

$_ZTIN11xercesc_2_716RuntimeExceptionE = comdat any

$_ZTSN11xercesc_2_720EndOfEntityExceptionE = comdat any

$_ZTIN11xercesc_2_720EndOfEntityExceptionE = comdat any

$_ZTSN11xercesc_2_722UnexpectedEOFExceptionE = comdat any

$_ZTIN11xercesc_2_722UnexpectedEOFExceptionE = comdat any

$_ZTSN11xercesc_2_721MalformedURLExceptionE = comdat any

$_ZTIN11xercesc_2_721MalformedURLExceptionE = comdat any

$_ZTVN11xercesc_2_710XMLDeleterE = comdat any

$_ZTSN11xercesc_2_710XMLDeleterE = comdat any

$_ZTIN11xercesc_2_710XMLDeleterE = comdat any

$_ZTSN11xercesc_2_710XMLRefInfoE = comdat any

$_ZTSN11xercesc_2_713XSerializableE = comdat any

$_ZTIN11xercesc_2_713XSerializableE = comdat any

$_ZTIN11xercesc_2_710XMLRefInfoE = comdat any

$_ZTVN11xercesc_2_713DTDEntityDeclE = comdat any

$_ZTSN11xercesc_2_713DTDEntityDeclE = comdat any

$_ZTIN11xercesc_2_713DTDEntityDeclE = comdat any

$_ZTVN11xercesc_2_713XMLAttDefListE = comdat any

$_ZTSN11xercesc_2_713XMLAttDefListE = comdat any

$_ZTIN11xercesc_2_713XMLAttDefListE = comdat any

$_ZTVN11xercesc_2_78PSVIItemE = comdat any

$_ZTSN11xercesc_2_78PSVIItemE = comdat any

$_ZTIN11xercesc_2_78PSVIItemE = comdat any

$_ZTSN11xercesc_2_713PSVIAttributeE = comdat any

$_ZTIN11xercesc_2_713PSVIAttributeE = comdat any

$_ZTVN11xercesc_2_711PSVIHandlerE = comdat any

$_ZTSN11xercesc_2_711PSVIHandlerE = comdat any

$_ZTIN11xercesc_2_711PSVIHandlerE = comdat any

$_ZTSN11xercesc_2_715ContentSpecNodeE = comdat any

$_ZTIN11xercesc_2_715ContentSpecNodeE = comdat any

$_ZTVN11xercesc_2_710XSDLocatorE = comdat any

$_ZTSN11xercesc_2_710XSDLocatorE = comdat any

$_ZTSN11xercesc_2_77LocatorE = comdat any

$_ZTIN11xercesc_2_77LocatorE = comdat any

$_ZTIN11xercesc_2_710XSDLocatorE = comdat any

$_ZTVN11xercesc_2_716RuntimeExceptionE = comdat any

$_ZTVN11xercesc_2_722UnexpectedEOFExceptionE = comdat any

$_ZTSN11xercesc_2_719EmptyStackExceptionE = comdat any

$_ZTIN11xercesc_2_719EmptyStackExceptionE = comdat any

$_ZTVN11xercesc_2_719EmptyStackExceptionE = comdat any

$_ZTSN11xercesc_2_730ArrayIndexOutOfBoundsExceptionE = comdat any

$_ZTIN11xercesc_2_730ArrayIndexOutOfBoundsExceptionE = comdat any

$_ZTVN11xercesc_2_730ArrayIndexOutOfBoundsExceptionE = comdat any

$_ZTVN11xercesc_2_721MalformedURLExceptionE = comdat any

$_ZTSN11xercesc_2_724IllegalArgumentExceptionE = comdat any

$_ZTIN11xercesc_2_724IllegalArgumentExceptionE = comdat any

$_ZTVN11xercesc_2_724IllegalArgumentExceptionE = comdat any

$_ZTSN11xercesc_2_722NoSuchElementExceptionE = comdat any

$_ZTIN11xercesc_2_722NoSuchElementExceptionE = comdat any

$_ZTVN11xercesc_2_722NoSuchElementExceptionE = comdat any

$_ZTVN11xercesc_2_711RefVectorOfINS_12KVStringPairEEE = comdat any

$_ZTSN11xercesc_2_711RefVectorOfINS_12KVStringPairEEE = comdat any

$_ZTSN11xercesc_2_715BaseRefVectorOfINS_12KVStringPairEEE = comdat any

$_ZTIN11xercesc_2_715BaseRefVectorOfINS_12KVStringPairEEE = comdat any

$_ZTIN11xercesc_2_711RefVectorOfINS_12KVStringPairEEE = comdat any

$_ZTVN11xercesc_2_715BaseRefVectorOfINS_12KVStringPairEEE = comdat any

@_ZTVN11xercesc_2_710XMLRefInfoE = linkonce_odr dso_local unnamed_addr constant { [7 x i8*] } { [7 x i8*] [i8* null, i8* bitcast ({ i8*, i8*, i32, i32, i8*, i64, i8*, i64 }* @_ZTIN11xercesc_2_710XMLRefInfoE to i8*), i8* bitcast (void (%"class.xercesc_2_7::XMLRefInfo"*)* @_ZN11xercesc_2_710XMLRefInfoD2Ev to i8*), i8* bitcast (void (%"class.xercesc_2_7::XMLRefInfo"*)* @_ZN11xercesc_2_710XMLRefInfoD0Ev to i8*), i8* bitcast (i1 (%"class.xercesc_2_7::XMLRefInfo"*)* @_ZNK11xercesc_2_710XMLRefInfo14isSerializableEv to i8*), i8* bitcast (void (%"class.xercesc_2_7::XMLRefInfo"*, %"class.xercesc_2_7::XSerializeEngine"*)* @_ZN11xercesc_2_710XMLRefInfo9serializeERNS_16XSerializeEngineE to i8*), i8* bitcast (%"class.xercesc_2_7::XProtoType"* (%"class.xercesc_2_7::XMLRefInfo"*)* @_ZNK11xercesc_2_710XMLRefInfo12getProtoTypeEv to i8*)] }, comdat, align 8
@_ZTVN11xercesc_2_713PSVIAttributeE = linkonce_odr dso_local unnamed_addr constant { [7 x i8*] } { [7 x i8*] [i8* null, i8* bitcast ({ i8*, i8*, i8* }* @_ZTIN11xercesc_2_713PSVIAttributeE to i8*), i8* bitcast (void (%"class.xercesc_2_7::PSVIAttribute"*)* @_ZN11xercesc_2_713PSVIAttributeD2Ev to i8*), i8* bitcast (void (%"class.xercesc_2_7::PSVIAttribute"*)* @_ZN11xercesc_2_713PSVIAttributeD0Ev to i8*), i8* bitcast (%"class.xercesc_2_7::XSTypeDefinition"* (%"class.xercesc_2_7::PSVIAttribute"*)* @_ZN11xercesc_2_713PSVIAttribute17getTypeDefinitionEv to i8*), i8* bitcast (%"class.xercesc_2_7::XSSimpleTypeDefinition"* (%"class.xercesc_2_7::PSVIAttribute"*)* @_ZN11xercesc_2_713PSVIAttribute23getMemberTypeDefinitionEv to i8*), i8* bitcast (%"class.xercesc_2_7::XSValue"* (%"class.xercesc_2_7::PSVIItem"*)* @_ZNK11xercesc_2_78PSVIItem14getActualValueEv to i8*)] }, comdat, align 8
@_ZTVN11xercesc_2_715ContentSpecNodeE = linkonce_odr dso_local unnamed_addr constant { [7 x i8*] } { [7 x i8*] [i8* null, i8* bitcast ({ i8*, i8*, i32, i32, i8*, i64, i8*, i64 }* @_ZTIN11xercesc_2_715ContentSpecNodeE to i8*), i8* bitcast (void (%"class.xercesc_2_7::ContentSpecNode"*)* @_ZN11xercesc_2_715ContentSpecNodeD2Ev to i8*), i8* bitcast (void (%"class.xercesc_2_7::ContentSpecNode"*)* @_ZN11xercesc_2_715ContentSpecNodeD0Ev to i8*), i8* bitcast (i1 (%"class.xercesc_2_7::ContentSpecNode"*)* @_ZNK11xercesc_2_715ContentSpecNode14isSerializableEv to i8*), i8* bitcast (void (%"class.xercesc_2_7::ContentSpecNode"*, %"class.xercesc_2_7::XSerializeEngine"*)* @_ZN11xercesc_2_715ContentSpecNode9serializeERNS_16XSerializeEngineE to i8*), i8* bitcast (%"class.xercesc_2_7::XProtoType"* (%"class.xercesc_2_7::ContentSpecNode"*)* @_ZNK11xercesc_2_715ContentSpecNode12getProtoTypeEv to i8*)] }, comdat, align 8
@_ZTVN11xercesc_2_712SGXMLScannerE = dso_local unnamed_addr constant { [22 x i8*] } { [22 x i8*] [i8* null, i8* bitcast ({ i8*, i8*, i8* }* @_ZTIN11xercesc_2_712SGXMLScannerE to i8*), i8* bitcast (void (%"class.xercesc_2_7::SGXMLScanner"*)* @_ZN11xercesc_2_712SGXMLScannerD1Ev to i8*), i8* bitcast (void (%"class.xercesc_2_7::SGXMLScanner"*)* @_ZN11xercesc_2_712SGXMLScannerD0Ev to i8*), i8* bitcast (i1 (%"class.xercesc_2_7::XMLScanner"*, %"class.xercesc_2_7::XMLBuffer"*)* @_ZN11xercesc_2_710XMLScanner10bufferFullERNS_9XMLBufferE to i8*), i8* bitcast (i32 (%"class.xercesc_2_7::SGXMLScanner"*)* @_ZNK11xercesc_2_712SGXMLScanner21getCurrentGrammarTypeEv to i8*), i8* bitcast (i16* (%"class.xercesc_2_7::SGXMLScanner"*)* @_ZNK11xercesc_2_712SGXMLScanner7getNameEv to i8*), i8* bitcast (%"class.xercesc_2_7::NameIdPool.58"* (%"class.xercesc_2_7::SGXMLScanner"*)* @_ZN11xercesc_2_712SGXMLScanner17getEntityDeclPoolEv to i8*), i8* bitcast (%"class.xercesc_2_7::NameIdPool.58"* (%"class.xercesc_2_7::SGXMLScanner"*)* @_ZNK11xercesc_2_712SGXMLScanner17getEntityDeclPoolEv to i8*), i8* bitcast (i32 (%"class.xercesc_2_7::SGXMLScanner"*, i16*, %"class.xercesc_2_7::XMLBuffer"*, i16, i32*)* @_ZN11xercesc_2_712SGXMLScanner12resolveQNameEPKtRNS_9XMLBufferEsRi to i8*), i8* bitcast (void (%"class.xercesc_2_7::SGXMLScanner"*, %"class.xercesc_2_7::InputSource"*)* @_ZN11xercesc_2_712SGXMLScanner12scanDocumentERKNS_11InputSourceE to i8*), i8* bitcast (i1 (%"class.xercesc_2_7::SGXMLScanner"*, %"class.xercesc_2_7::XMLPScanToken"*)* @_ZN11xercesc_2_712SGXMLScanner8scanNextERNS_13XMLPScanTokenE to i8*), i8* bitcast (%"class.xercesc_2_7::Grammar"* (%"class.xercesc_2_7::SGXMLScanner"*, %"class.xercesc_2_7::InputSource"*, i16, i1)* @_ZN11xercesc_2_712SGXMLScanner11loadGrammarERKNS_11InputSourceEsb to i8*), i8* bitcast (void (%"class.xercesc_2_7::SGXMLScanner"*)* @_ZN11xercesc_2_712SGXMLScanner13scanCDSectionEv to i8*), i8* bitcast (void (%"class.xercesc_2_7::SGXMLScanner"*, %"class.xercesc_2_7::XMLBuffer"*)* @_ZN11xercesc_2_712SGXMLScanner12scanCharDataERNS_9XMLBufferE to i8*), i8* bitcast (i32 (%"class.xercesc_2_7::SGXMLScanner"*, i1, i16*, i16*, i8*)* @_ZN11xercesc_2_712SGXMLScanner13scanEntityRefEbRtS1_Rb to i8*), i8* bitcast (void (%"class.xercesc_2_7::SGXMLScanner"*)* @_ZN11xercesc_2_712SGXMLScanner15scanDocTypeDeclEv to i8*), i8* bitcast (void (%"class.xercesc_2_7::SGXMLScanner"*, %"class.xercesc_2_7::InputSource"*)* @_ZN11xercesc_2_712SGXMLScanner9scanResetERKNS_11InputSourceE to i8*), i8* bitcast (void (%"class.xercesc_2_7::SGXMLScanner"*, %"class.xercesc_2_7::XMLBuffer"*)* @_ZN11xercesc_2_712SGXMLScanner12sendCharDataERNS_9XMLBufferE to i8*), i8* bitcast (%"class.xercesc_2_7::InputSource"* (%"class.xercesc_2_7::SGXMLScanner"*, i16*, i16*)* @_ZN11xercesc_2_712SGXMLScanner15resolveSystemIdEPKtS2_ to i8*), i8* bitcast (i1 (%"class.xercesc_2_7::SGXMLScanner"*, i8*)* @_ZN11xercesc_2_712SGXMLScanner12scanStartTagERb to i8*), i8* bitcast (void (%"class.xercesc_2_7::SGXMLScanner"*, i8*)* @_ZN11xercesc_2_712SGXMLScanner10scanEndTagERb to i8*)] }, align 8
@_ZTVN10__cxxabiv120__si_class_type_infoE = external dso_local global i8*
@_ZTSN11xercesc_2_720OutOfMemoryExceptionE = linkonce_odr dso_local constant [38 x i8] c"N11xercesc_2_720OutOfMemoryExceptionE\00", comdat, align 1
@_ZTVN10__cxxabiv117__class_type_infoE = external dso_local global i8*
@_ZTSN11xercesc_2_77XMemoryE = linkonce_odr dso_local constant [24 x i8] c"N11xercesc_2_77XMemoryE\00", comdat, align 1
@_ZTIN11xercesc_2_77XMemoryE = linkonce_odr dso_local constant { i8*, i8* } { i8* bitcast (i8** getelementptr inbounds (i8*, i8** @_ZTVN10__cxxabiv117__class_type_infoE, i64 2) to i8*), i8* getelementptr inbounds ([24 x i8], [24 x i8]* @_ZTSN11xercesc_2_77XMemoryE, i32 0, i32 0) }, comdat, align 8
@_ZTIN11xercesc_2_720OutOfMemoryExceptionE = linkonce_odr dso_local constant { i8*, i8*, i8* } { i8* bitcast (i8** getelementptr inbounds (i8*, i8** @_ZTVN10__cxxabiv120__si_class_type_infoE, i64 2) to i8*), i8* getelementptr inbounds ([38 x i8], [38 x i8]* @_ZTSN11xercesc_2_720OutOfMemoryExceptionE, i32 0, i32 0), i8* bitcast ({ i8*, i8* }* @_ZTIN11xercesc_2_77XMemoryE to i8*) }, comdat, align 8
@_ZTVN10__cxxabiv116__enum_type_infoE = external dso_local global i8*
@_ZTSN11xercesc_2_77XMLErrs5CodesE = linkonce_odr dso_local constant [30 x i8] c"N11xercesc_2_77XMLErrs5CodesE\00", comdat, align 1
@_ZTIN11xercesc_2_77XMLErrs5CodesE = linkonce_odr dso_local constant { i8*, i8* } { i8* bitcast (i8** getelementptr inbounds (i8*, i8** @_ZTVN10__cxxabiv116__enum_type_infoE, i64 2) to i8*), i8* getelementptr inbounds ([30 x i8], [30 x i8]* @_ZTSN11xercesc_2_77XMLErrs5CodesE, i32 0, i32 0) }, comdat, align 8
@_ZTSN11xercesc_2_78XMLValid5CodesE = linkonce_odr dso_local constant [31 x i8] c"N11xercesc_2_78XMLValid5CodesE\00", comdat, align 1
@_ZTIN11xercesc_2_78XMLValid5CodesE = linkonce_odr dso_local constant { i8*, i8* } { i8* bitcast (i8** getelementptr inbounds (i8*, i8** @_ZTVN10__cxxabiv116__enum_type_infoE, i64 2) to i8*), i8* getelementptr inbounds ([31 x i8], [31 x i8]* @_ZTSN11xercesc_2_78XMLValid5CodesE, i32 0, i32 0) }, comdat, align 8
@_ZTIN11xercesc_2_712XMLExceptionE = external dso_local constant i8*
@.str = private unnamed_addr constant [17 x i8] c"SGXMLScanner.cpp\00", align 1
@_ZTSN11xercesc_2_716RuntimeExceptionE = linkonce_odr dso_local constant [34 x i8] c"N11xercesc_2_716RuntimeExceptionE\00", comdat, align 1
@_ZTIN11xercesc_2_716RuntimeExceptionE = linkonce_odr dso_local constant { i8*, i8*, i8* } { i8* bitcast (i8** getelementptr inbounds (i8*, i8** @_ZTVN10__cxxabiv120__si_class_type_infoE, i64 2) to i8*), i8* getelementptr inbounds ([34 x i8], [34 x i8]* @_ZTSN11xercesc_2_716RuntimeExceptionE, i32 0, i32 0), i8* bitcast (i8** @_ZTIN11xercesc_2_712XMLExceptionE to i8*) }, comdat, align 8
@_ZTSN11xercesc_2_720EndOfEntityExceptionE = linkonce_odr dso_local constant [38 x i8] c"N11xercesc_2_720EndOfEntityExceptionE\00", comdat, align 1
@_ZTIN11xercesc_2_720EndOfEntityExceptionE = linkonce_odr dso_local constant { i8*, i8* } { i8* bitcast (i8** getelementptr inbounds (i8*, i8** @_ZTVN10__cxxabiv117__class_type_infoE, i64 2) to i8*), i8* getelementptr inbounds ([38 x i8], [38 x i8]* @_ZTSN11xercesc_2_720EndOfEntityExceptionE, i32 0, i32 0) }, comdat, align 8
@_ZZN11xercesc_2_712SGXMLScanner11rawAttrScanEPKtRNS_11RefVectorOfINS_12KVStringPairEEERbE7tmpList = internal constant [6 x i16] [i16 39, i16 34, i16 62, i16 60, i16 47, i16 0], align 2, !dbg !0
@_ZZN11xercesc_2_712SGXMLScanner11rawAttrScanEPKtRNS_11RefVectorOfINS_12KVStringPairEEERbE7tmpList_0 = internal constant [4 x i16] [i16 62, i16 60, i16 47, i16 0], align 2, !dbg !4039
@_ZTSN11xercesc_2_722UnexpectedEOFExceptionE = linkonce_odr dso_local constant [40 x i8] c"N11xercesc_2_722UnexpectedEOFExceptionE\00", comdat, align 1
@_ZTIN11xercesc_2_722UnexpectedEOFExceptionE = linkonce_odr dso_local constant { i8*, i8*, i8* } { i8* bitcast (i8** getelementptr inbounds (i8*, i8** @_ZTVN10__cxxabiv120__si_class_type_infoE, i64 2) to i8*), i8* getelementptr inbounds ([40 x i8], [40 x i8]* @_ZTSN11xercesc_2_722UnexpectedEOFExceptionE, i32 0, i32 0), i8* bitcast (i8** @_ZTIN11xercesc_2_712XMLExceptionE to i8*) }, comdat, align 8
@_ZN11xercesc_2_76XMLUni15fgZeroLenStringE = external dso_local constant [0 x i16], align 2
@_ZZN11xercesc_2_712SGXMLScanner15scanDocTypeDeclEvE9doctypeIE = internal constant [3 x i16] [i16 91, i16 62, i16 0], align 2, !dbg !4044
@__const._ZN11xercesc_2_712SGXMLScanner12scanStartTagERb.poundStr = private unnamed_addr constant [2 x i16] [i16 35, i16 0], align 2
@_ZN11xercesc_2_76XMLUni13fgXMLNSStringE = external dso_local constant [0 x i16], align 2
@_ZN11xercesc_2_76XMLUni11fgXMLStringE = external dso_local constant [0 x i16], align 2
@_ZN11xercesc_2_76XMLUni5fgAmpE = external dso_local constant [0 x i16], align 2
@_ZN11xercesc_2_7L11chAmpersandE = internal constant i16 38, align 2, !dbg !4066
@_ZN11xercesc_2_76XMLUni4fgLTE = external dso_local constant [0 x i16], align 2
@_ZN11xercesc_2_7L11chOpenAngleE = internal constant i16 60, align 2, !dbg !4028
@_ZN11xercesc_2_76XMLUni4fgGTE = external dso_local constant [0 x i16], align 2
@_ZN11xercesc_2_7L12chCloseAngleE = internal constant i16 62, align 2, !dbg !4033
@_ZN11xercesc_2_76XMLUni6fgQuotE = external dso_local constant [0 x i16], align 2
@_ZN11xercesc_2_7L13chDoubleQuoteE = internal constant i16 34, align 2, !dbg !4037
@_ZN11xercesc_2_76XMLUni6fgAposE = external dso_local constant [0 x i16], align 2
@_ZN11xercesc_2_7L13chSingleQuoteE = internal constant i16 39, align 2, !dbg !4035
@_ZN11xercesc_2_713SchemaSymbols9fgURI_XSIE = external dso_local constant [0 x i16], align 2
@_ZN11xercesc_2_713SchemaSymbols18fgDT_ANYSIMPLETYPEE = external dso_local constant [0 x i16], align 2
@_ZN11xercesc_2_713SchemaSymbols11fgDT_ANYURIE = external dso_local constant [0 x i16], align 2
@_ZN11xercesc_2_76XMLUni12fgXMLURINameE = external dso_local constant [0 x i16], align 2
@_ZN11xercesc_2_76XMLUni14fgXMLNSURINameE = external dso_local constant [0 x i16], align 2
@_ZN11xercesc_2_76XMLUni18fgXMLNSColonStringE = external dso_local constant [0 x i16], align 2
@_ZN11xercesc_2_713SchemaSymbols21fgXSI_SCHEMALOCACTIONE = external dso_local constant [0 x i16], align 2
@_ZN11xercesc_2_713SchemaSymbols32fgXSI_NONAMESPACESCHEMALOCACTIONE = external dso_local constant [0 x i16], align 2
@_ZN11xercesc_2_713SchemaSymbols10fgXSI_TYPEE = external dso_local constant [0 x i16], align 2
@_ZN11xercesc_2_713SchemaSymbols10fgATT_NILLE = external dso_local constant [0 x i16], align 2
@_ZN11xercesc_2_713SchemaSymbols13fgATTVAL_TRUEE = external dso_local constant [0 x i16], align 2
@_ZTSN11xercesc_2_721MalformedURLExceptionE = linkonce_odr dso_local constant [39 x i8] c"N11xercesc_2_721MalformedURLExceptionE\00", comdat, align 1
@_ZTIN11xercesc_2_721MalformedURLExceptionE = linkonce_odr dso_local constant { i8*, i8*, i8* } { i8* bitcast (i8** getelementptr inbounds (i8*, i8** @_ZTVN10__cxxabiv120__si_class_type_infoE, i64 2) to i8*), i8* getelementptr inbounds ([39 x i8], [39 x i8]* @_ZTSN11xercesc_2_721MalformedURLExceptionE, i32 0, i32 0), i8* bitcast (i8** @_ZTIN11xercesc_2_712XMLExceptionE to i8*) }, comdat, align 8
@_ZN11xercesc_2_713SchemaSymbols21fgATT_TARGETNAMESPACEE = external dso_local constant [0 x i16], align 2
@_ZZN11xercesc_2_712SGXMLScanner13scanCDSectionEvE10CDataClose = internal constant [3 x i16] [i16 93, i16 62, i16 0], align 2, !dbg !4068
@_ZN11xercesc_2_716XMLPlatformUtils15fgMemoryManagerE = external dso_local global %"class.xercesc_2_7::MemoryManager"*, align 8
@_ZN11xercesc_2_715XMLContentModel13gInvalidTransE = external dso_local constant i32, align 4
@_ZTVN11xercesc_2_710XMLDeleterE = linkonce_odr dso_local unnamed_addr constant { [4 x i8*] } { [4 x i8*] [i8* null, i8* bitcast ({ i8*, i8* }* @_ZTIN11xercesc_2_710XMLDeleterE to i8*), i8* bitcast (void (%"class.xercesc_2_7::XMLDeleter"*)* @_ZN11xercesc_2_710XMLDeleterD2Ev to i8*), i8* bitcast (void (%"class.xercesc_2_7::XMLDeleter"*)* @_ZN11xercesc_2_710XMLDeleterD0Ev to i8*)] }, comdat, align 8
@_ZTSN11xercesc_2_710XMLDeleterE = linkonce_odr dso_local constant [28 x i8] c"N11xercesc_2_710XMLDeleterE\00", comdat, align 1
@_ZTIN11xercesc_2_710XMLDeleterE = linkonce_odr dso_local constant { i8*, i8* } { i8* bitcast (i8** getelementptr inbounds (i8*, i8** @_ZTVN10__cxxabiv117__class_type_infoE, i64 2) to i8*), i8* getelementptr inbounds ([28 x i8], [28 x i8]* @_ZTSN11xercesc_2_710XMLDeleterE, i32 0, i32 0) }, comdat, align 8
@_ZTVN10__cxxabiv121__vmi_class_type_infoE = external dso_local global i8*
@_ZTSN11xercesc_2_710XMLRefInfoE = linkonce_odr dso_local constant [28 x i8] c"N11xercesc_2_710XMLRefInfoE\00", comdat, align 1
@_ZTSN11xercesc_2_713XSerializableE = linkonce_odr dso_local constant [31 x i8] c"N11xercesc_2_713XSerializableE\00", comdat, align 1
@_ZTIN11xercesc_2_713XSerializableE = linkonce_odr dso_local constant { i8*, i8* } { i8* bitcast (i8** getelementptr inbounds (i8*, i8** @_ZTVN10__cxxabiv117__class_type_infoE, i64 2) to i8*), i8* getelementptr inbounds ([31 x i8], [31 x i8]* @_ZTSN11xercesc_2_713XSerializableE, i32 0, i32 0) }, comdat, align 8
@_ZTIN11xercesc_2_710XMLRefInfoE = linkonce_odr dso_local constant { i8*, i8*, i32, i32, i8*, i64, i8*, i64 } { i8* bitcast (i8** getelementptr inbounds (i8*, i8** @_ZTVN10__cxxabiv121__vmi_class_type_infoE, i64 2) to i8*), i8* getelementptr inbounds ([28 x i8], [28 x i8]* @_ZTSN11xercesc_2_710XMLRefInfoE, i32 0, i32 0), i32 0, i32 2, i8* bitcast ({ i8*, i8* }* @_ZTIN11xercesc_2_713XSerializableE to i8*), i64 2, i8* bitcast ({ i8*, i8* }* @_ZTIN11xercesc_2_77XMemoryE to i8*), i64 2 }, comdat, align 8
@_ZTVN11xercesc_2_713DTDEntityDeclE = linkonce_odr dso_local unnamed_addr constant { [10 x i8*] } { [10 x i8*] [i8* null, i8* bitcast ({ i8*, i8*, i8* }* @_ZTIN11xercesc_2_713DTDEntityDeclE to i8*), i8* bitcast (void (%"class.xercesc_2_7::DTDEntityDecl"*)* @_ZN11xercesc_2_713DTDEntityDeclD2Ev to i8*), i8* bitcast (void (%"class.xercesc_2_7::DTDEntityDecl"*)* @_ZN11xercesc_2_713DTDEntityDeclD0Ev to i8*), i8* bitcast (i1 (%"class.xercesc_2_7::DTDEntityDecl"*)* @_ZNK11xercesc_2_713DTDEntityDecl14isSerializableEv to i8*), i8* bitcast (void (%"class.xercesc_2_7::DTDEntityDecl"*, %"class.xercesc_2_7::XSerializeEngine"*)* @_ZN11xercesc_2_713DTDEntityDecl9serializeERNS_16XSerializeEngineE to i8*), i8* bitcast (%"class.xercesc_2_7::XProtoType"* (%"class.xercesc_2_7::DTDEntityDecl"*)* @_ZNK11xercesc_2_713DTDEntityDecl12getProtoTypeEv to i8*), i8* bitcast (i1 (%"class.xercesc_2_7::DTDEntityDecl"*)* @_ZNK11xercesc_2_713DTDEntityDecl22getDeclaredInIntSubsetEv to i8*), i8* bitcast (i1 (%"class.xercesc_2_7::DTDEntityDecl"*)* @_ZNK11xercesc_2_713DTDEntityDecl14getIsParameterEv to i8*), i8* bitcast (i1 (%"class.xercesc_2_7::DTDEntityDecl"*)* @_ZNK11xercesc_2_713DTDEntityDecl16getIsSpecialCharEv to i8*)] }, comdat, align 8
@_ZTSN11xercesc_2_713DTDEntityDeclE = linkonce_odr dso_local constant [31 x i8] c"N11xercesc_2_713DTDEntityDeclE\00", comdat, align 1
@_ZTIN11xercesc_2_713XMLEntityDeclE = external dso_local constant i8*
@_ZTIN11xercesc_2_713DTDEntityDeclE = linkonce_odr dso_local constant { i8*, i8*, i8* } { i8* bitcast (i8** getelementptr inbounds (i8*, i8** @_ZTVN10__cxxabiv120__si_class_type_infoE, i64 2) to i8*), i8* getelementptr inbounds ([31 x i8], [31 x i8]* @_ZTSN11xercesc_2_713DTDEntityDeclE, i32 0, i32 0), i8* bitcast (i8** @_ZTIN11xercesc_2_713XMLEntityDeclE to i8*) }, comdat, align 8
@_ZTVN11xercesc_2_713XMLAttDefListE = linkonce_odr dso_local unnamed_addr constant { [18 x i8*] } { [18 x i8*] [i8* null, i8* bitcast ({ i8*, i8*, i32, i32, i8*, i64, i8*, i64 }* @_ZTIN11xercesc_2_713XMLAttDefListE to i8*), i8* bitcast (void (%"class.xercesc_2_7::XMLAttDefList"*)* @_ZN11xercesc_2_713XMLAttDefListD2Ev to i8*), i8* bitcast (void (%"class.xercesc_2_7::XMLAttDefList"*)* @_ZN11xercesc_2_713XMLAttDefListD0Ev to i8*), i8* bitcast (i1 (%"class.xercesc_2_7::XMLAttDefList"*)* @_ZNK11xercesc_2_713XMLAttDefList14isSerializableEv to i8*), i8* bitcast (void (%"class.xercesc_2_7::XMLAttDefList"*, %"class.xercesc_2_7::XSerializeEngine"*)* @_ZN11xercesc_2_713XMLAttDefList9serializeERNS_16XSerializeEngineE to i8*), i8* bitcast (%"class.xercesc_2_7::XProtoType"* (%"class.xercesc_2_7::XMLAttDefList"*)* @_ZNK11xercesc_2_713XMLAttDefList12getProtoTypeEv to i8*), i8* bitcast (void ()* @__cxa_pure_virtual to i8*), i8* bitcast (void ()* @__cxa_pure_virtual to i8*), i8* bitcast (void ()* @__cxa_pure_virtual to i8*), i8* bitcast (void ()* @__cxa_pure_virtual to i8*), i8* bitcast (void ()* @__cxa_pure_virtual to i8*), i8* bitcast (void ()* @__cxa_pure_virtual to i8*), i8* bitcast (void ()* @__cxa_pure_virtual to i8*), i8* bitcast (void ()* @__cxa_pure_virtual to i8*), i8* bitcast (void ()* @__cxa_pure_virtual to i8*), i8* bitcast (void ()* @__cxa_pure_virtual to i8*), i8* bitcast (void ()* @__cxa_pure_virtual to i8*)] }, comdat, align 8
@_ZTSN11xercesc_2_713XMLAttDefListE = linkonce_odr dso_local constant [31 x i8] c"N11xercesc_2_713XMLAttDefListE\00", comdat, align 1
@_ZTIN11xercesc_2_713XMLAttDefListE = linkonce_odr dso_local constant { i8*, i8*, i32, i32, i8*, i64, i8*, i64 } { i8* bitcast (i8** getelementptr inbounds (i8*, i8** @_ZTVN10__cxxabiv121__vmi_class_type_infoE, i64 2) to i8*), i8* getelementptr inbounds ([31 x i8], [31 x i8]* @_ZTSN11xercesc_2_713XMLAttDefListE, i32 0, i32 0), i32 0, i32 2, i8* bitcast ({ i8*, i8* }* @_ZTIN11xercesc_2_713XSerializableE to i8*), i64 2, i8* bitcast ({ i8*, i8* }* @_ZTIN11xercesc_2_77XMemoryE to i8*), i64 2 }, comdat, align 8
@_ZTVN11xercesc_2_78PSVIItemE = linkonce_odr dso_local unnamed_addr constant { [7 x i8*] } { [7 x i8*] [i8* null, i8* bitcast ({ i8*, i8*, i8* }* @_ZTIN11xercesc_2_78PSVIItemE to i8*), i8* bitcast (void (%"class.xercesc_2_7::PSVIItem"*)* @_ZN11xercesc_2_78PSVIItemD2Ev to i8*), i8* bitcast (void (%"class.xercesc_2_7::PSVIItem"*)* @_ZN11xercesc_2_78PSVIItemD0Ev to i8*), i8* bitcast (void ()* @__cxa_pure_virtual to i8*), i8* bitcast (void ()* @__cxa_pure_virtual to i8*), i8* bitcast (%"class.xercesc_2_7::XSValue"* (%"class.xercesc_2_7::PSVIItem"*)* @_ZNK11xercesc_2_78PSVIItem14getActualValueEv to i8*)] }, comdat, align 8
@_ZTSN11xercesc_2_78PSVIItemE = linkonce_odr dso_local constant [25 x i8] c"N11xercesc_2_78PSVIItemE\00", comdat, align 1
@_ZTIN11xercesc_2_78PSVIItemE = linkonce_odr dso_local constant { i8*, i8*, i8* } { i8* bitcast (i8** getelementptr inbounds (i8*, i8** @_ZTVN10__cxxabiv120__si_class_type_infoE, i64 2) to i8*), i8* getelementptr inbounds ([25 x i8], [25 x i8]* @_ZTSN11xercesc_2_78PSVIItemE, i32 0, i32 0), i8* bitcast ({ i8*, i8* }* @_ZTIN11xercesc_2_77XMemoryE to i8*) }, comdat, align 8
@_ZTSN11xercesc_2_713PSVIAttributeE = linkonce_odr dso_local constant [31 x i8] c"N11xercesc_2_713PSVIAttributeE\00", comdat, align 1
@_ZTIN11xercesc_2_713PSVIAttributeE = linkonce_odr dso_local constant { i8*, i8*, i8* } { i8* bitcast (i8** getelementptr inbounds (i8*, i8** @_ZTVN10__cxxabiv120__si_class_type_infoE, i64 2) to i8*), i8* getelementptr inbounds ([31 x i8], [31 x i8]* @_ZTSN11xercesc_2_713PSVIAttributeE, i32 0, i32 0), i8* bitcast ({ i8*, i8*, i8* }* @_ZTIN11xercesc_2_78PSVIItemE to i8*) }, comdat, align 8
@_ZTVN11xercesc_2_711PSVIHandlerE = linkonce_odr dso_local unnamed_addr constant { [7 x i8*] } { [7 x i8*] [i8* null, i8* bitcast ({ i8*, i8* }* @_ZTIN11xercesc_2_711PSVIHandlerE to i8*), i8* bitcast (void (%"class.xercesc_2_7::PSVIHandler"*)* @_ZN11xercesc_2_711PSVIHandlerD2Ev to i8*), i8* bitcast (void (%"class.xercesc_2_7::PSVIHandler"*)* @_ZN11xercesc_2_711PSVIHandlerD0Ev to i8*), i8* bitcast (void ()* @__cxa_pure_virtual to i8*), i8* bitcast (void (%"class.xercesc_2_7::PSVIHandler"*, i16*, i16*, %"class.xercesc_2_7::PSVIElement"*)* @_ZN11xercesc_2_711PSVIHandler24handlePartialElementPSVIEPKtS2_PNS_11PSVIElementE to i8*), i8* bitcast (void ()* @__cxa_pure_virtual to i8*)] }, comdat, align 8
@_ZTSN11xercesc_2_711PSVIHandlerE = linkonce_odr dso_local constant [29 x i8] c"N11xercesc_2_711PSVIHandlerE\00", comdat, align 1
@_ZTIN11xercesc_2_711PSVIHandlerE = linkonce_odr dso_local constant { i8*, i8* } { i8* bitcast (i8** getelementptr inbounds (i8*, i8** @_ZTVN10__cxxabiv117__class_type_infoE, i64 2) to i8*), i8* getelementptr inbounds ([29 x i8], [29 x i8]* @_ZTSN11xercesc_2_711PSVIHandlerE, i32 0, i32 0) }, comdat, align 8
@_ZTSN11xercesc_2_715ContentSpecNodeE = linkonce_odr dso_local constant [33 x i8] c"N11xercesc_2_715ContentSpecNodeE\00", comdat, align 1
@_ZTIN11xercesc_2_715ContentSpecNodeE = linkonce_odr dso_local constant { i8*, i8*, i32, i32, i8*, i64, i8*, i64 } { i8* bitcast (i8** getelementptr inbounds (i8*, i8** @_ZTVN10__cxxabiv121__vmi_class_type_infoE, i64 2) to i8*), i8* getelementptr inbounds ([33 x i8], [33 x i8]* @_ZTSN11xercesc_2_715ContentSpecNodeE, i32 0, i32 0), i32 0, i32 2, i8* bitcast ({ i8*, i8* }* @_ZTIN11xercesc_2_713XSerializableE to i8*), i64 2, i8* bitcast ({ i8*, i8* }* @_ZTIN11xercesc_2_77XMemoryE to i8*), i64 2 }, comdat, align 8
@_ZTVN11xercesc_2_710XSDLocatorE = linkonce_odr dso_local unnamed_addr constant { [8 x i8*] } { [8 x i8*] [i8* null, i8* bitcast ({ i8*, i8*, i32, i32, i8*, i64, i8*, i64 }* @_ZTIN11xercesc_2_710XSDLocatorE to i8*), i8* bitcast (void (%"class.xercesc_2_7::XSDLocator"*)* @_ZN11xercesc_2_710XSDLocatorD2Ev to i8*), i8* bitcast (void (%"class.xercesc_2_7::XSDLocator"*)* @_ZN11xercesc_2_710XSDLocatorD0Ev to i8*), i8* bitcast (i16* (%"class.xercesc_2_7::XSDLocator"*)* @_ZNK11xercesc_2_710XSDLocator11getPublicIdEv to i8*), i8* bitcast (i16* (%"class.xercesc_2_7::XSDLocator"*)* @_ZNK11xercesc_2_710XSDLocator11getSystemIdEv to i8*), i8* bitcast (i64 (%"class.xercesc_2_7::XSDLocator"*)* @_ZNK11xercesc_2_710XSDLocator13getLineNumberEv to i8*), i8* bitcast (i64 (%"class.xercesc_2_7::XSDLocator"*)* @_ZNK11xercesc_2_710XSDLocator15getColumnNumberEv to i8*)] }, comdat, align 8
@_ZTSN11xercesc_2_710XSDLocatorE = linkonce_odr dso_local constant [28 x i8] c"N11xercesc_2_710XSDLocatorE\00", comdat, align 1
@_ZTSN11xercesc_2_77LocatorE = linkonce_odr dso_local constant [24 x i8] c"N11xercesc_2_77LocatorE\00", comdat, align 1
@_ZTIN11xercesc_2_77LocatorE = linkonce_odr dso_local constant { i8*, i8* } { i8* bitcast (i8** getelementptr inbounds (i8*, i8** @_ZTVN10__cxxabiv117__class_type_infoE, i64 2) to i8*), i8* getelementptr inbounds ([24 x i8], [24 x i8]* @_ZTSN11xercesc_2_77LocatorE, i32 0, i32 0) }, comdat, align 8
@_ZTIN11xercesc_2_710XSDLocatorE = linkonce_odr dso_local constant { i8*, i8*, i32, i32, i8*, i64, i8*, i64 } { i8* bitcast (i8** getelementptr inbounds (i8*, i8** @_ZTVN10__cxxabiv121__vmi_class_type_infoE, i64 2) to i8*), i8* getelementptr inbounds ([28 x i8], [28 x i8]* @_ZTSN11xercesc_2_710XSDLocatorE, i32 0, i32 0), i32 0, i32 2, i8* bitcast ({ i8*, i8* }* @_ZTIN11xercesc_2_77XMemoryE to i8*), i64 2, i8* bitcast ({ i8*, i8* }* @_ZTIN11xercesc_2_77LocatorE to i8*), i64 2 }, comdat, align 8
@_ZTSN11xercesc_2_712SGXMLScannerE = dso_local constant [30 x i8] c"N11xercesc_2_712SGXMLScannerE\00", align 1
@_ZTIN11xercesc_2_710XMLScannerE = external dso_local constant i8*
@_ZTIN11xercesc_2_712SGXMLScannerE = dso_local constant { i8*, i8*, i8* } { i8* bitcast (i8** getelementptr inbounds (i8*, i8** @_ZTVN10__cxxabiv120__si_class_type_infoE, i64 2) to i8*), i8* getelementptr inbounds ([30 x i8], [30 x i8]* @_ZTSN11xercesc_2_712SGXMLScannerE, i32 0, i32 0), i8* bitcast (i8** @_ZTIN11xercesc_2_710XMLScannerE to i8*) }, align 8
@_ZTVN11xercesc_2_716RuntimeExceptionE = linkonce_odr dso_local unnamed_addr constant { [6 x i8*] } { [6 x i8*] [i8* null, i8* bitcast ({ i8*, i8*, i8* }* @_ZTIN11xercesc_2_716RuntimeExceptionE to i8*), i8* bitcast (void (%"class.xercesc_2_7::RuntimeException"*)* @_ZN11xercesc_2_716RuntimeExceptionD2Ev to i8*), i8* bitcast (void (%"class.xercesc_2_7::RuntimeException"*)* @_ZN11xercesc_2_716RuntimeExceptionD0Ev to i8*), i8* bitcast (i16* (%"class.xercesc_2_7::RuntimeException"*)* @_ZNK11xercesc_2_716RuntimeException7getTypeEv to i8*), i8* bitcast (%"class.xercesc_2_7::XMLException"* (%"class.xercesc_2_7::RuntimeException"*)* @_ZNK11xercesc_2_716RuntimeException9duplicateEv to i8*)] }, comdat, align 8
@_ZN11xercesc_2_76XMLUni23fgRuntimeException_NameE = external dso_local constant [0 x i16], align 2
@_ZTVN11xercesc_2_722UnexpectedEOFExceptionE = linkonce_odr dso_local unnamed_addr constant { [6 x i8*] } { [6 x i8*] [i8* null, i8* bitcast ({ i8*, i8*, i8* }* @_ZTIN11xercesc_2_722UnexpectedEOFExceptionE to i8*), i8* bitcast (void (%"class.xercesc_2_7::UnexpectedEOFException"*)* @_ZN11xercesc_2_722UnexpectedEOFExceptionD2Ev to i8*), i8* bitcast (void (%"class.xercesc_2_7::UnexpectedEOFException"*)* @_ZN11xercesc_2_722UnexpectedEOFExceptionD0Ev to i8*), i8* bitcast (i16* (%"class.xercesc_2_7::UnexpectedEOFException"*)* @_ZNK11xercesc_2_722UnexpectedEOFException7getTypeEv to i8*), i8* bitcast (%"class.xercesc_2_7::XMLException"* (%"class.xercesc_2_7::UnexpectedEOFException"*)* @_ZNK11xercesc_2_722UnexpectedEOFException9duplicateEv to i8*)] }, comdat, align 8
@_ZN11xercesc_2_76XMLUni29fgUnexpectedEOFException_NameE = external dso_local constant [0 x i16], align 2
@.str.1 = private unnamed_addr constant [30 x i8] c"./xercesc/util/ValueStackOf.c\00", align 1
@_ZTSN11xercesc_2_719EmptyStackExceptionE = linkonce_odr dso_local constant [37 x i8] c"N11xercesc_2_719EmptyStackExceptionE\00", comdat, align 1
@_ZTIN11xercesc_2_719EmptyStackExceptionE = linkonce_odr dso_local constant { i8*, i8*, i8* } { i8* bitcast (i8** getelementptr inbounds (i8*, i8** @_ZTVN10__cxxabiv120__si_class_type_infoE, i64 2) to i8*), i8* getelementptr inbounds ([37 x i8], [37 x i8]* @_ZTSN11xercesc_2_719EmptyStackExceptionE, i32 0, i32 0), i8* bitcast (i8** @_ZTIN11xercesc_2_712XMLExceptionE to i8*) }, comdat, align 8
@_ZTVN11xercesc_2_719EmptyStackExceptionE = linkonce_odr dso_local unnamed_addr constant { [6 x i8*] } { [6 x i8*] [i8* null, i8* bitcast ({ i8*, i8*, i8* }* @_ZTIN11xercesc_2_719EmptyStackExceptionE to i8*), i8* bitcast (void (%"class.xercesc_2_7::EmptyStackException"*)* @_ZN11xercesc_2_719EmptyStackExceptionD2Ev to i8*), i8* bitcast (void (%"class.xercesc_2_7::EmptyStackException"*)* @_ZN11xercesc_2_719EmptyStackExceptionD0Ev to i8*), i8* bitcast (i16* (%"class.xercesc_2_7::EmptyStackException"*)* @_ZNK11xercesc_2_719EmptyStackException7getTypeEv to i8*), i8* bitcast (%"class.xercesc_2_7::XMLException"* (%"class.xercesc_2_7::EmptyStackException"*)* @_ZNK11xercesc_2_719EmptyStackException9duplicateEv to i8*)] }, comdat, align 8
@_ZN11xercesc_2_76XMLUni26fgEmptyStackException_NameE = external dso_local constant [0 x i16], align 2
@.str.2 = private unnamed_addr constant [31 x i8] c"./xercesc/util/ValueVectorOf.c\00", align 1
@_ZTSN11xercesc_2_730ArrayIndexOutOfBoundsExceptionE = linkonce_odr dso_local constant [48 x i8] c"N11xercesc_2_730ArrayIndexOutOfBoundsExceptionE\00", comdat, align 1
@_ZTIN11xercesc_2_730ArrayIndexOutOfBoundsExceptionE = linkonce_odr dso_local constant { i8*, i8*, i8* } { i8* bitcast (i8** getelementptr inbounds (i8*, i8** @_ZTVN10__cxxabiv120__si_class_type_infoE, i64 2) to i8*), i8* getelementptr inbounds ([48 x i8], [48 x i8]* @_ZTSN11xercesc_2_730ArrayIndexOutOfBoundsExceptionE, i32 0, i32 0), i8* bitcast (i8** @_ZTIN11xercesc_2_712XMLExceptionE to i8*) }, comdat, align 8
@_ZTVN11xercesc_2_730ArrayIndexOutOfBoundsExceptionE = linkonce_odr dso_local unnamed_addr constant { [6 x i8*] } { [6 x i8*] [i8* null, i8* bitcast ({ i8*, i8*, i8* }* @_ZTIN11xercesc_2_730ArrayIndexOutOfBoundsExceptionE to i8*), i8* bitcast (void (%"class.xercesc_2_7::ArrayIndexOutOfBoundsException"*)* @_ZN11xercesc_2_730ArrayIndexOutOfBoundsExceptionD2Ev to i8*), i8* bitcast (void (%"class.xercesc_2_7::ArrayIndexOutOfBoundsException"*)* @_ZN11xercesc_2_730ArrayIndexOutOfBoundsExceptionD0Ev to i8*), i8* bitcast (i16* (%"class.xercesc_2_7::ArrayIndexOutOfBoundsException"*)* @_ZNK11xercesc_2_730ArrayIndexOutOfBoundsException7getTypeEv to i8*), i8* bitcast (%"class.xercesc_2_7::XMLException"* (%"class.xercesc_2_7::ArrayIndexOutOfBoundsException"*)* @_ZNK11xercesc_2_730ArrayIndexOutOfBoundsException9duplicateEv to i8*)] }, comdat, align 8
@_ZN11xercesc_2_76XMLUni37fgArrayIndexOutOfBoundsException_NameE = external dso_local constant [0 x i16], align 2
@_ZN11xercesc_2_724DatatypeValidatorFactory16fBuiltInRegistryE = external dso_local global %"class.xercesc_2_7::RefHashTableOf.14"*, align 8
@.str.3 = private unnamed_addr constant [33 x i8] c"./xercesc/util/BaseRefVectorOf.c\00", align 1
@_ZTVN11xercesc_2_721MalformedURLExceptionE = linkonce_odr dso_local unnamed_addr constant { [6 x i8*] } { [6 x i8*] [i8* null, i8* bitcast ({ i8*, i8*, i8* }* @_ZTIN11xercesc_2_721MalformedURLExceptionE to i8*), i8* bitcast (void (%"class.xercesc_2_7::MalformedURLException"*)* @_ZN11xercesc_2_721MalformedURLExceptionD2Ev to i8*), i8* bitcast (void (%"class.xercesc_2_7::MalformedURLException"*)* @_ZN11xercesc_2_721MalformedURLExceptionD0Ev to i8*), i8* bitcast (i16* (%"class.xercesc_2_7::MalformedURLException"*)* @_ZNK11xercesc_2_721MalformedURLException7getTypeEv to i8*), i8* bitcast (%"class.xercesc_2_7::XMLException"* (%"class.xercesc_2_7::MalformedURLException"*)* @_ZNK11xercesc_2_721MalformedURLException9duplicateEv to i8*)] }, comdat, align 8
@_ZN11xercesc_2_76XMLUni28fgMalformedURLException_NameE = external dso_local constant [0 x i16], align 2
@_ZN11xercesc_2_76XMLUni14fgSGXMLScannerE = external dso_local constant [0 x i16], align 2
@.str.4 = private unnamed_addr constant [36 x i8] c"./xercesc/util/RefHash3KeysIdPool.c\00", align 1
@_ZTSN11xercesc_2_724IllegalArgumentExceptionE = linkonce_odr dso_local constant [42 x i8] c"N11xercesc_2_724IllegalArgumentExceptionE\00", comdat, align 1
@_ZTIN11xercesc_2_724IllegalArgumentExceptionE = linkonce_odr dso_local constant { i8*, i8*, i8* } { i8* bitcast (i8** getelementptr inbounds (i8*, i8** @_ZTVN10__cxxabiv120__si_class_type_infoE, i64 2) to i8*), i8* getelementptr inbounds ([42 x i8], [42 x i8]* @_ZTSN11xercesc_2_724IllegalArgumentExceptionE, i32 0, i32 0), i8* bitcast (i8** @_ZTIN11xercesc_2_712XMLExceptionE to i8*) }, comdat, align 8
@_ZTVN11xercesc_2_724IllegalArgumentExceptionE = linkonce_odr dso_local unnamed_addr constant { [6 x i8*] } { [6 x i8*] [i8* null, i8* bitcast ({ i8*, i8*, i8* }* @_ZTIN11xercesc_2_724IllegalArgumentExceptionE to i8*), i8* bitcast (void (%"class.xercesc_2_7::IllegalArgumentException"*)* @_ZN11xercesc_2_724IllegalArgumentExceptionD2Ev to i8*), i8* bitcast (void (%"class.xercesc_2_7::IllegalArgumentException"*)* @_ZN11xercesc_2_724IllegalArgumentExceptionD0Ev to i8*), i8* bitcast (i16* (%"class.xercesc_2_7::IllegalArgumentException"*)* @_ZNK11xercesc_2_724IllegalArgumentException7getTypeEv to i8*), i8* bitcast (%"class.xercesc_2_7::XMLException"* (%"class.xercesc_2_7::IllegalArgumentException"*)* @_ZNK11xercesc_2_724IllegalArgumentException9duplicateEv to i8*)] }, comdat, align 8
@_ZN11xercesc_2_76XMLUni31fgIllegalArgumentException_NameE = external dso_local constant [0 x i16], align 2
@.str.5 = private unnamed_addr constant [34 x i8] c"./xercesc/util/ValueHashTableOf.c\00", align 1
@_ZTSN11xercesc_2_722NoSuchElementExceptionE = linkonce_odr dso_local constant [40 x i8] c"N11xercesc_2_722NoSuchElementExceptionE\00", comdat, align 1
@_ZTIN11xercesc_2_722NoSuchElementExceptionE = linkonce_odr dso_local constant { i8*, i8*, i8* } { i8* bitcast (i8** getelementptr inbounds (i8*, i8** @_ZTVN10__cxxabiv120__si_class_type_infoE, i64 2) to i8*), i8* getelementptr inbounds ([40 x i8], [40 x i8]* @_ZTSN11xercesc_2_722NoSuchElementExceptionE, i32 0, i32 0), i8* bitcast (i8** @_ZTIN11xercesc_2_712XMLExceptionE to i8*) }, comdat, align 8
@_ZTVN11xercesc_2_722NoSuchElementExceptionE = linkonce_odr dso_local unnamed_addr constant { [6 x i8*] } { [6 x i8*] [i8* null, i8* bitcast ({ i8*, i8*, i8* }* @_ZTIN11xercesc_2_722NoSuchElementExceptionE to i8*), i8* bitcast (void (%"class.xercesc_2_7::NoSuchElementException"*)* @_ZN11xercesc_2_722NoSuchElementExceptionD2Ev to i8*), i8* bitcast (void (%"class.xercesc_2_7::NoSuchElementException"*)* @_ZN11xercesc_2_722NoSuchElementExceptionD0Ev to i8*), i8* bitcast (i16* (%"class.xercesc_2_7::NoSuchElementException"*)* @_ZNK11xercesc_2_722NoSuchElementException7getTypeEv to i8*), i8* bitcast (%"class.xercesc_2_7::XMLException"* (%"class.xercesc_2_7::NoSuchElementException"*)* @_ZNK11xercesc_2_722NoSuchElementException9duplicateEv to i8*)] }, comdat, align 8
@_ZN11xercesc_2_76XMLUni29fgNoSuchElementException_NameE = external dso_local constant [0 x i16], align 2
@_ZTVN11xercesc_2_711RefVectorOfINS_12KVStringPairEEE = linkonce_odr dso_local unnamed_addr constant { [9 x i8*] } { [9 x i8*] [i8* null, i8* bitcast ({ i8*, i8*, i8* }* @_ZTIN11xercesc_2_711RefVectorOfINS_12KVStringPairEEE to i8*), i8* bitcast (void (%"class.xercesc_2_7::RefVectorOf.17"*)* @_ZN11xercesc_2_711RefVectorOfINS_12KVStringPairEED2Ev to i8*), i8* bitcast (void (%"class.xercesc_2_7::RefVectorOf.17"*)* @_ZN11xercesc_2_711RefVectorOfINS_12KVStringPairEED0Ev to i8*), i8* bitcast (void (%"class.xercesc_2_7::BaseRefVectorOf.18"*, %"class.xercesc_2_7::KVStringPair"*, i32)* @_ZN11xercesc_2_715BaseRefVectorOfINS_12KVStringPairEE12setElementAtEPS1_j to i8*), i8* bitcast (void (%"class.xercesc_2_7::BaseRefVectorOf.18"*)* @_ZN11xercesc_2_715BaseRefVectorOfINS_12KVStringPairEE17removeAllElementsEv to i8*), i8* bitcast (void (%"class.xercesc_2_7::BaseRefVectorOf.18"*, i32)* @_ZN11xercesc_2_715BaseRefVectorOfINS_12KVStringPairEE15removeElementAtEj to i8*), i8* bitcast (void (%"class.xercesc_2_7::BaseRefVectorOf.18"*)* @_ZN11xercesc_2_715BaseRefVectorOfINS_12KVStringPairEE17removeLastElementEv to i8*), i8* bitcast (void (%"class.xercesc_2_7::BaseRefVectorOf.18"*)* @_ZN11xercesc_2_715BaseRefVectorOfINS_12KVStringPairEE7cleanupEv to i8*)] }, comdat, align 8
@_ZTSN11xercesc_2_711RefVectorOfINS_12KVStringPairEEE = linkonce_odr dso_local constant [49 x i8] c"N11xercesc_2_711RefVectorOfINS_12KVStringPairEEE\00", comdat, align 1
@_ZTSN11xercesc_2_715BaseRefVectorOfINS_12KVStringPairEEE = linkonce_odr dso_local constant [53 x i8] c"N11xercesc_2_715BaseRefVectorOfINS_12KVStringPairEEE\00", comdat, align 1
@_ZTIN11xercesc_2_715BaseRefVectorOfINS_12KVStringPairEEE = linkonce_odr dso_local constant { i8*, i8*, i8* } { i8* bitcast (i8** getelementptr inbounds (i8*, i8** @_ZTVN10__cxxabiv120__si_class_type_infoE, i64 2) to i8*), i8* getelementptr inbounds ([53 x i8], [53 x i8]* @_ZTSN11xercesc_2_715BaseRefVectorOfINS_12KVStringPairEEE, i32 0, i32 0), i8* bitcast ({ i8*, i8* }* @_ZTIN11xercesc_2_77XMemoryE to i8*) }, comdat, align 8
@_ZTIN11xercesc_2_711RefVectorOfINS_12KVStringPairEEE = linkonce_odr dso_local constant { i8*, i8*, i8* } { i8* bitcast (i8** getelementptr inbounds (i8*, i8** @_ZTVN10__cxxabiv120__si_class_type_infoE, i64 2) to i8*), i8* getelementptr inbounds ([49 x i8], [49 x i8]* @_ZTSN11xercesc_2_711RefVectorOfINS_12KVStringPairEEE, i32 0, i32 0), i8* bitcast ({ i8*, i8*, i8* }* @_ZTIN11xercesc_2_715BaseRefVectorOfINS_12KVStringPairEEE to i8*) }, comdat, align 8
@_ZTVN11xercesc_2_715BaseRefVectorOfINS_12KVStringPairEEE = linkonce_odr dso_local unnamed_addr constant { [9 x i8*] } { [9 x i8*] [i8* null, i8* bitcast ({ i8*, i8*, i8* }* @_ZTIN11xercesc_2_715BaseRefVectorOfINS_12KVStringPairEEE to i8*), i8* bitcast (void (%"class.xercesc_2_7::BaseRefVectorOf.18"*)* @_ZN11xercesc_2_715BaseRefVectorOfINS_12KVStringPairEED2Ev to i8*), i8* bitcast (void (%"class.xercesc_2_7::BaseRefVectorOf.18"*)* @_ZN11xercesc_2_715BaseRefVectorOfINS_12KVStringPairEED0Ev to i8*), i8* bitcast (void (%"class.xercesc_2_7::BaseRefVectorOf.18"*, %"class.xercesc_2_7::KVStringPair"*, i32)* @_ZN11xercesc_2_715BaseRefVectorOfINS_12KVStringPairEE12setElementAtEPS1_j to i8*), i8* bitcast (void (%"class.xercesc_2_7::BaseRefVectorOf.18"*)* @_ZN11xercesc_2_715BaseRefVectorOfINS_12KVStringPairEE17removeAllElementsEv to i8*), i8* bitcast (void (%"class.xercesc_2_7::BaseRefVectorOf.18"*, i32)* @_ZN11xercesc_2_715BaseRefVectorOfINS_12KVStringPairEE15removeElementAtEj to i8*), i8* bitcast (void (%"class.xercesc_2_7::BaseRefVectorOf.18"*)* @_ZN11xercesc_2_715BaseRefVectorOfINS_12KVStringPairEE17removeLastElementEv to i8*), i8* bitcast (void (%"class.xercesc_2_7::BaseRefVectorOf.18"*)* @_ZN11xercesc_2_715BaseRefVectorOfINS_12KVStringPairEE7cleanupEv to i8*)] }, comdat, align 8
@.str.6 = private unnamed_addr constant [32 x i8] c"./xercesc/util/RefHashTableOf.c\00", align 1
@.str.7 = private unnamed_addr constant [37 x i8] c"./xercesc/util/RefHash2KeysTableOf.c\00", align 1

@_ZN11xercesc_2_712SGXMLScannerC1EPNS_12XMLValidatorEPNS_15GrammarResolverEPNS_13MemoryManagerE = dso_local unnamed_addr alias void (%"class.xercesc_2_7::SGXMLScanner"*, %"class.xercesc_2_7::XMLValidator"*, %"class.xercesc_2_7::GrammarResolver"*, %"class.xercesc_2_7::MemoryManager"*), void (%"class.xercesc_2_7::SGXMLScanner"*, %"class.xercesc_2_7::XMLValidator"*, %"class.xercesc_2_7::GrammarResolver"*, %"class.xercesc_2_7::MemoryManager"*)* @_ZN11xercesc_2_712SGXMLScannerC2EPNS_12XMLValidatorEPNS_15GrammarResolverEPNS_13MemoryManagerE
@_ZN11xercesc_2_712SGXMLScannerC1EPNS_18XMLDocumentHandlerEPNS_14DocTypeHandlerEPNS_16XMLEntityHandlerEPNS_16XMLErrorReporterEPNS_12XMLValidatorEPNS_15GrammarResolverEPNS_13MemoryManagerE = dso_local unnamed_addr alias void (%"class.xercesc_2_7::SGXMLScanner"*, %"class.xercesc_2_7::XMLDocumentHandler"*, %"class.xercesc_2_7::DocTypeHandler"*, %"class.xercesc_2_7::XMLEntityHandler"*, %"class.xercesc_2_7::XMLErrorReporter"*, %"class.xercesc_2_7::XMLValidator"*, %"class.xercesc_2_7::GrammarResolver"*, %"class.xercesc_2_7::MemoryManager"*), void (%"class.xercesc_2_7::SGXMLScanner"*, %"class.xercesc_2_7::XMLDocumentHandler"*, %"class.xercesc_2_7::DocTypeHandler"*, %"class.xercesc_2_7::XMLEntityHandler"*, %"class.xercesc_2_7::XMLErrorReporter"*, %"class.xercesc_2_7::XMLValidator"*, %"class.xercesc_2_7::GrammarResolver"*, %"class.xercesc_2_7::MemoryManager"*)* @_ZN11xercesc_2_712SGXMLScannerC2EPNS_18XMLDocumentHandlerEPNS_14DocTypeHandlerEPNS_16XMLEntityHandlerEPNS_16XMLErrorReporterEPNS_12XMLValidatorEPNS_15GrammarResolverEPNS_13MemoryManagerE
@_ZN11xercesc_2_712SGXMLScannerD1Ev = dso_local unnamed_addr alias void (%"class.xercesc_2_7::SGXMLScanner"*), void (%"class.xercesc_2_7::SGXMLScanner"*)* @_ZN11xercesc_2_712SGXMLScannerD2Ev

; Function Attrs: nounwind readnone speculatable willreturn
declare void @llvm.dbg.declare(metadata, metadata, metadata) #0

; Function Attrs: noinline nounwind uwtable
define linkonce_odr dso_local void @_ZN11xercesc_2_710XMLDeleterD0Ev(%"class.xercesc_2_7::XMLDeleter"* %this) unnamed_addr #1 comdat align 2 !dbg !4466 {
entry:
  %this.addr = alloca %"class.xercesc_2_7::XMLDeleter"*, align 8
  store %"class.xercesc_2_7::XMLDeleter"* %this, %"class.xercesc_2_7::XMLDeleter"** %this.addr, align 8
  call void @llvm.dbg.declare(metadata %"class.xercesc_2_7::XMLDeleter"** %this.addr, metadata !4485, metadata !DIExpression()), !dbg !4487
  %this1 = load %"class.xercesc_2_7::XMLDeleter"*, %"class.xercesc_2_7::XMLDeleter"** %this.addr, align 8
  call void @_ZN11xercesc_2_710XMLDeleterD2Ev(%"class.xercesc_2_7::XMLDeleter"* %this1) #10, !dbg !4488
  %0 = bitcast %"class.xercesc_2_7::XMLDeleter"* %this1 to i8*, !dbg !4488
  call void @_ZdlPv(i8* %0) #11, !dbg !4488
  ret void, !dbg !4489
}

; Function Attrs: noinline nounwind uwtable
define linkonce_odr dso_local void @_ZN11xercesc_2_710XMLDeleterD2Ev(%"class.xercesc_2_7::XMLDeleter"* %this) unnamed_addr #1 comdat align 2 !dbg !4490 {
entry:
  %this.addr = alloca %"class.xercesc_2_7::XMLDeleter"*, align 8
  store %"class.xercesc_2_7::XMLDeleter"* %this, %"class.xercesc_2_7::XMLDeleter"** %this.addr, align 8
  call void @llvm.dbg.declare(metadata %"class.xercesc_2_7::XMLDeleter"** %this.addr, metadata !4491, metadata !DIExpression()), !dbg !4492
  %this1 = load %"class.xercesc_2_7::XMLDeleter"*, %"class.xercesc_2_7::XMLDeleter"** %this.addr, align 8
  ret void, !dbg !4493
}

; Function Attrs: nobuiltin nounwind
declare dso_local void @_ZdlPv(i8*) #2

declare dso_local i32 @__gxx_personality_v0(...)

; Function Attrs: noinline nounwind uwtable
define linkonce_odr dso_local void @_ZN11xercesc_2_713XSerializableD2Ev(%"class.xercesc_2_7::XSerializable"* %this) unnamed_addr #1 comdat align 2 !dbg !4494 {
entry:
  %this.addr = alloca %"class.xercesc_2_7::XSerializable"*, align 8
  store %"class.xercesc_2_7::XSerializable"* %this, %"class.xercesc_2_7::XSerializable"** %this.addr, align 8
  call void @llvm.dbg.declare(metadata %"class.xercesc_2_7::XSerializable"** %this.addr, metadata !4499, metadata !DIExpression()), !dbg !4500
  %this1 = load %"class.xercesc_2_7::XSerializable"*, %"class.xercesc_2_7::XSerializable"** %this.addr, align 8
  ret void, !dbg !4501
}

; Function Attrs: noinline noreturn nounwind
define linkonce_odr hidden void @__clang_call_terminate(i8* %0) #3 comdat {
  %2 = call i8* @__cxa_begin_catch(i8* %0) #10
  call void @_ZSt9terminatev() #12
  unreachable
}

declare dso_local i8* @__cxa_begin_catch(i8*)

declare dso_local void @_ZSt9terminatev()

; Function Attrs: noinline nounwind uwtable
define linkonce_odr dso_local void @_ZN11xercesc_2_710XMLRefInfoD0Ev(%"class.xercesc_2_7::XMLRefInfo"* %this) unnamed_addr #1 comdat align 2 !dbg !4502 {
entry:
  %this.addr = alloca %"class.xercesc_2_7::XMLRefInfo"*, align 8
  store %"class.xercesc_2_7::XMLRefInfo"* %this, %"class.xercesc_2_7::XMLRefInfo"** %this.addr, align 8
  call void @llvm.dbg.declare(metadata %"class.xercesc_2_7::XMLRefInfo"** %this.addr, metadata !4552, metadata !DIExpression()), !dbg !4554
  %this1 = load %"class.xercesc_2_7::XMLRefInfo"*, %"class.xercesc_2_7::XMLRefInfo"** %this.addr, align 8
  call void @_ZN11xercesc_2_710XMLRefInfoD2Ev(%"class.xercesc_2_7::XMLRefInfo"* %this1) #10, !dbg !4555
  %0 = bitcast %"class.xercesc_2_7::XMLRefInfo"* %this1 to i8*, !dbg !4555
  call void @_ZN11xercesc_2_77XMemorydlEPv(i8* %0) #10, !dbg !4555
  ret void, !dbg !4556
}

; Function Attrs: noinline nounwind uwtable
define linkonce_odr dso_local void @_ZN11xercesc_2_710XMLRefInfoD2Ev(%"class.xercesc_2_7::XMLRefInfo"* %this) unnamed_addr #1 comdat align 2 personality i8* bitcast (i32 (...)* @__gxx_personality_v0 to i8*) !dbg !4557 {
entry:
  %this.addr = alloca %"class.xercesc_2_7::XMLRefInfo"*, align 8
  %exn.slot = alloca i8*
  %ehselector.slot = alloca i32
  store %"class.xercesc_2_7::XMLRefInfo"* %this, %"class.xercesc_2_7::XMLRefInfo"** %this.addr, align 8
  call void @llvm.dbg.declare(metadata %"class.xercesc_2_7::XMLRefInfo"** %this.addr, metadata !4558, metadata !DIExpression()), !dbg !4559
  %this1 = load %"class.xercesc_2_7::XMLRefInfo"*, %"class.xercesc_2_7::XMLRefInfo"** %this.addr, align 8
  %0 = bitcast %"class.xercesc_2_7::XMLRefInfo"* %this1 to i32 (...)***, !dbg !4560
  store i32 (...)** bitcast (i8** getelementptr inbounds ({ [7 x i8*] }, { [7 x i8*] }* @_ZTVN11xercesc_2_710XMLRefInfoE, i32 0, inrange i32 0, i32 2) to i32 (...)**), i32 (...)*** %0, align 8, !dbg !4560
  %fMemoryManager = getelementptr inbounds %"class.xercesc_2_7::XMLRefInfo", %"class.xercesc_2_7::XMLRefInfo"* %this1, i32 0, i32 4, !dbg !4561
  %1 = load %"class.xercesc_2_7::MemoryManager"*, %"class.xercesc_2_7::MemoryManager"** %fMemoryManager, align 8, !dbg !4561
  %fRefName = getelementptr inbounds %"class.xercesc_2_7::XMLRefInfo", %"class.xercesc_2_7::XMLRefInfo"* %this1, i32 0, i32 3, !dbg !4563
  %2 = load i16*, i16** %fRefName, align 8, !dbg !4563
  %3 = bitcast i16* %2 to i8*, !dbg !4563
  %4 = bitcast %"class.xercesc_2_7::MemoryManager"* %1 to void (%"class.xercesc_2_7::MemoryManager"*, i8*)***, !dbg !4564
  %vtable = load void (%"class.xercesc_2_7::MemoryManager"*, i8*)**, void (%"class.xercesc_2_7::MemoryManager"*, i8*)*** %4, align 8, !dbg !4564
  %vfn = getelementptr inbounds void (%"class.xercesc_2_7::MemoryManager"*, i8*)*, void (%"class.xercesc_2_7::MemoryManager"*, i8*)** %vtable, i64 3, !dbg !4564
  %5 = load void (%"class.xercesc_2_7::MemoryManager"*, i8*)*, void (%"class.xercesc_2_7::MemoryManager"*, i8*)** %vfn, align 8, !dbg !4564
  invoke void %5(%"class.xercesc_2_7::MemoryManager"* %1, i8* %3)
          to label %invoke.cont unwind label %lpad, !dbg !4564

invoke.cont:                                      ; preds = %entry
  %6 = bitcast %"class.xercesc_2_7::XMLRefInfo"* %this1 to %"class.xercesc_2_7::XSerializable"*, !dbg !4565
  call void @_ZN11xercesc_2_713XSerializableD2Ev(%"class.xercesc_2_7::XSerializable"* %6) #10, !dbg !4565
  ret void, !dbg !4566

lpad:                                             ; preds = %entry
  %7 = landingpad { i8*, i32 }
          catch i8* null, !dbg !4565
  %8 = extractvalue { i8*, i32 } %7, 0, !dbg !4565
  store i8* %8, i8** %exn.slot, align 8, !dbg !4565
  %9 = extractvalue { i8*, i32 } %7, 1, !dbg !4565
  store i32 %9, i32* %ehselector.slot, align 4, !dbg !4565
  %10 = bitcast %"class.xercesc_2_7::XMLRefInfo"* %this1 to %"class.xercesc_2_7::XSerializable"*, !dbg !4565
  call void @_ZN11xercesc_2_713XSerializableD2Ev(%"class.xercesc_2_7::XSerializable"* %10) #10, !dbg !4565
  br label %terminate.handler, !dbg !4565

terminate.handler:                                ; preds = %lpad
  %exn = load i8*, i8** %exn.slot, align 8, !dbg !4565
  call void @__clang_call_terminate(i8* %exn) #12, !dbg !4565
  unreachable, !dbg !4565
}

; Function Attrs: nounwind
declare dso_local void @_ZN11xercesc_2_77XMemorydlEPv(i8*) #4

; Function Attrs: nounwind
declare dso_local void @_ZN11xercesc_2_713XMLEntityDeclD2Ev(%"class.xercesc_2_7::XMLEntityDecl"*) unnamed_addr #4

; Function Attrs: noinline nounwind uwtable
define linkonce_odr dso_local void @_ZN11xercesc_2_713DTDEntityDeclD0Ev(%"class.xercesc_2_7::DTDEntityDecl"* %this) unnamed_addr #1 comdat align 2 !dbg !4567 {
entry:
  %this.addr = alloca %"class.xercesc_2_7::DTDEntityDecl"*, align 8
  store %"class.xercesc_2_7::DTDEntityDecl"* %this, %"class.xercesc_2_7::DTDEntityDecl"** %this.addr, align 8
  call void @llvm.dbg.declare(metadata %"class.xercesc_2_7::DTDEntityDecl"** %this.addr, metadata !4622, metadata !DIExpression()), !dbg !4624
  %this1 = load %"class.xercesc_2_7::DTDEntityDecl"*, %"class.xercesc_2_7::DTDEntityDecl"** %this.addr, align 8
  call void @_ZN11xercesc_2_713DTDEntityDeclD2Ev(%"class.xercesc_2_7::DTDEntityDecl"* %this1) #10, !dbg !4625
  %0 = bitcast %"class.xercesc_2_7::DTDEntityDecl"* %this1 to i8*, !dbg !4625
  call void @_ZN11xercesc_2_77XMemorydlEPv(i8* %0) #10, !dbg !4625
  ret void, !dbg !4626
}

; Function Attrs: noinline nounwind uwtable
define linkonce_odr dso_local void @_ZN11xercesc_2_713DTDEntityDeclD2Ev(%"class.xercesc_2_7::DTDEntityDecl"* %this) unnamed_addr #1 comdat align 2 !dbg !4627 {
entry:
  %this.addr = alloca %"class.xercesc_2_7::DTDEntityDecl"*, align 8
  store %"class.xercesc_2_7::DTDEntityDecl"* %this, %"class.xercesc_2_7::DTDEntityDecl"** %this.addr, align 8
  call void @llvm.dbg.declare(metadata %"class.xercesc_2_7::DTDEntityDecl"** %this.addr, metadata !4628, metadata !DIExpression()), !dbg !4629
  %this1 = load %"class.xercesc_2_7::DTDEntityDecl"*, %"class.xercesc_2_7::DTDEntityDecl"** %this.addr, align 8
  %0 = bitcast %"class.xercesc_2_7::DTDEntityDecl"* %this1 to %"class.xercesc_2_7::XMLEntityDecl"*, !dbg !4630
  call void @_ZN11xercesc_2_713XMLEntityDeclD2Ev(%"class.xercesc_2_7::XMLEntityDecl"* %0) #10, !dbg !4630
  ret void, !dbg !4632
}

; Function Attrs: noinline nounwind uwtable
define linkonce_odr dso_local void @_ZN11xercesc_2_713XMLAttDefListD0Ev(%"class.xercesc_2_7::XMLAttDefList"* %this) unnamed_addr #1 comdat align 2 !dbg !4633 {
entry:
  %this.addr = alloca %"class.xercesc_2_7::XMLAttDefList"*, align 8
  store %"class.xercesc_2_7::XMLAttDefList"* %this, %"class.xercesc_2_7::XMLAttDefList"** %this.addr, align 8
  call void @llvm.dbg.declare(metadata %"class.xercesc_2_7::XMLAttDefList"** %this.addr, metadata !4701, metadata !DIExpression()), !dbg !4703
  %this1 = load %"class.xercesc_2_7::XMLAttDefList"*, %"class.xercesc_2_7::XMLAttDefList"** %this.addr, align 8
  call void @llvm.trap() #12, !dbg !4704
  unreachable, !dbg !4704
}

; Function Attrs: cold noreturn nounwind
declare void @llvm.trap() #5

; Function Attrs: noinline nounwind uwtable
define linkonce_odr dso_local void @_ZN11xercesc_2_78PSVIItemD0Ev(%"class.xercesc_2_7::PSVIItem"* %this) unnamed_addr #1 comdat align 2 !dbg !4705 {
entry:
  %this.addr = alloca %"class.xercesc_2_7::PSVIItem"*, align 8
  store %"class.xercesc_2_7::PSVIItem"* %this, %"class.xercesc_2_7::PSVIItem"** %this.addr, align 8
  call void @llvm.dbg.declare(metadata %"class.xercesc_2_7::PSVIItem"** %this.addr, metadata !4706, metadata !DIExpression()), !dbg !4708
  %this1 = load %"class.xercesc_2_7::PSVIItem"*, %"class.xercesc_2_7::PSVIItem"** %this.addr, align 8
  call void @llvm.trap() #12, !dbg !4709
  unreachable, !dbg !4709
}

; Function Attrs: noinline nounwind uwtable
define linkonce_odr dso_local void @_ZN11xercesc_2_713PSVIAttributeD0Ev(%"class.xercesc_2_7::PSVIAttribute"* %this) unnamed_addr #1 comdat align 2 !dbg !4710 {
entry:
  %this.addr = alloca %"class.xercesc_2_7::PSVIAttribute"*, align 8
  store %"class.xercesc_2_7::PSVIAttribute"* %this, %"class.xercesc_2_7::PSVIAttribute"** %this.addr, align 8
  call void @llvm.dbg.declare(metadata %"class.xercesc_2_7::PSVIAttribute"** %this.addr, metadata !4711, metadata !DIExpression()), !dbg !4712
  %this1 = load %"class.xercesc_2_7::PSVIAttribute"*, %"class.xercesc_2_7::PSVIAttribute"** %this.addr, align 8
  call void @_ZN11xercesc_2_713PSVIAttributeD2Ev(%"class.xercesc_2_7::PSVIAttribute"* %this1) #10, !dbg !4713
  %0 = bitcast %"class.xercesc_2_7::PSVIAttribute"* %this1 to i8*, !dbg !4713
  call void @_ZN11xercesc_2_77XMemorydlEPv(i8* %0) #10, !dbg !4713
  ret void, !dbg !4714
}

; Function Attrs: noinline nounwind uwtable
define linkonce_odr dso_local void @_ZN11xercesc_2_713PSVIAttributeD2Ev(%"class.xercesc_2_7::PSVIAttribute"* %this) unnamed_addr #1 comdat align 2 personality i8* bitcast (i32 (...)* @__gxx_personality_v0 to i8*) !dbg !4715 {
entry:
  %this.addr = alloca %"class.xercesc_2_7::PSVIAttribute"*, align 8
  %exn.slot = alloca i8*
  %ehselector.slot = alloca i32
  store %"class.xercesc_2_7::PSVIAttribute"* %this, %"class.xercesc_2_7::PSVIAttribute"** %this.addr, align 8
  call void @llvm.dbg.declare(metadata %"class.xercesc_2_7::PSVIAttribute"** %this.addr, metadata !4716, metadata !DIExpression()), !dbg !4717
  %this1 = load %"class.xercesc_2_7::PSVIAttribute"*, %"class.xercesc_2_7::PSVIAttribute"** %this.addr, align 8
  %0 = bitcast %"class.xercesc_2_7::PSVIAttribute"* %this1 to i32 (...)***, !dbg !4718
  store i32 (...)** bitcast (i8** getelementptr inbounds ({ [7 x i8*] }, { [7 x i8*] }* @_ZTVN11xercesc_2_713PSVIAttributeE, i32 0, inrange i32 0, i32 2) to i32 (...)**), i32 (...)*** %0, align 8, !dbg !4718
  %1 = bitcast %"class.xercesc_2_7::PSVIAttribute"* %this1 to %"class.xercesc_2_7::PSVIItem"*, !dbg !4719
  %fMemoryManager = getelementptr inbounds %"class.xercesc_2_7::PSVIItem", %"class.xercesc_2_7::PSVIItem"* %1, i32 0, i32 1, !dbg !4719
  %2 = load %"class.xercesc_2_7::MemoryManager"*, %"class.xercesc_2_7::MemoryManager"** %fMemoryManager, align 8, !dbg !4719
  %3 = bitcast %"class.xercesc_2_7::PSVIAttribute"* %this1 to %"class.xercesc_2_7::PSVIItem"*, !dbg !4721
  %fCanonicalValue = getelementptr inbounds %"class.xercesc_2_7::PSVIItem", %"class.xercesc_2_7::PSVIItem"* %3, i32 0, i32 5, !dbg !4721
  %4 = load i16*, i16** %fCanonicalValue, align 8, !dbg !4721
  %5 = bitcast i16* %4 to i8*, !dbg !4721
  %6 = bitcast %"class.xercesc_2_7::MemoryManager"* %2 to void (%"class.xercesc_2_7::MemoryManager"*, i8*)***, !dbg !4722
  %vtable = load void (%"class.xercesc_2_7::MemoryManager"*, i8*)**, void (%"class.xercesc_2_7::MemoryManager"*, i8*)*** %6, align 8, !dbg !4722
  %vfn = getelementptr inbounds void (%"class.xercesc_2_7::MemoryManager"*, i8*)*, void (%"class.xercesc_2_7::MemoryManager"*, i8*)** %vtable, i64 3, !dbg !4722
  %7 = load void (%"class.xercesc_2_7::MemoryManager"*, i8*)*, void (%"class.xercesc_2_7::MemoryManager"*, i8*)** %vfn, align 8, !dbg !4722
  invoke void %7(%"class.xercesc_2_7::MemoryManager"* %2, i8* %5)
          to label %invoke.cont unwind label %lpad, !dbg !4722

invoke.cont:                                      ; preds = %entry
  %8 = bitcast %"class.xercesc_2_7::PSVIAttribute"* %this1 to %"class.xercesc_2_7::PSVIItem"*, !dbg !4723
  call void @_ZN11xercesc_2_78PSVIItemD2Ev(%"class.xercesc_2_7::PSVIItem"* %8) #10, !dbg !4723
  ret void, !dbg !4724

lpad:                                             ; preds = %entry
  %9 = landingpad { i8*, i32 }
          catch i8* null, !dbg !4723
  %10 = extractvalue { i8*, i32 } %9, 0, !dbg !4723
  store i8* %10, i8** %exn.slot, align 8, !dbg !4723
  %11 = extractvalue { i8*, i32 } %9, 1, !dbg !4723
  store i32 %11, i32* %ehselector.slot, align 4, !dbg !4723
  %12 = bitcast %"class.xercesc_2_7::PSVIAttribute"* %this1 to %"class.xercesc_2_7::PSVIItem"*, !dbg !4723
  call void @_ZN11xercesc_2_78PSVIItemD2Ev(%"class.xercesc_2_7::PSVIItem"* %12) #10, !dbg !4723
  br label %terminate.handler, !dbg !4723

terminate.handler:                                ; preds = %lpad
  %exn = load i8*, i8** %exn.slot, align 8, !dbg !4723
  call void @__clang_call_terminate(i8* %exn) #12, !dbg !4723
  unreachable, !dbg !4723
}

; Function Attrs: noinline nounwind uwtable
define linkonce_odr dso_local void @_ZN11xercesc_2_711PSVIHandler24handlePartialElementPSVIEPKtS2_PNS_11PSVIElementE(%"class.xercesc_2_7::PSVIHandler"* %this, i16* %0, i16* %1, %"class.xercesc_2_7::PSVIElement"* %2) unnamed_addr #1 comdat align 2 !dbg !4725 {
entry:
  %this.addr = alloca %"class.xercesc_2_7::PSVIHandler"*, align 8
  %.addr = alloca i16*, align 8
  %.addr1 = alloca i16*, align 8
  %.addr2 = alloca %"class.xercesc_2_7::PSVIElement"*, align 8
  store %"class.xercesc_2_7::PSVIHandler"* %this, %"class.xercesc_2_7::PSVIHandler"** %this.addr, align 8
  call void @llvm.dbg.declare(metadata %"class.xercesc_2_7::PSVIHandler"** %this.addr, metadata !4751, metadata !DIExpression()), !dbg !4753
  store i16* %0, i16** %.addr, align 8
  call void @llvm.dbg.declare(metadata i16** %.addr, metadata !4754, metadata !DIExpression()), !dbg !4755
  store i16* %1, i16** %.addr1, align 8
  call void @llvm.dbg.declare(metadata i16** %.addr1, metadata !4756, metadata !DIExpression()), !dbg !4757
  store %"class.xercesc_2_7::PSVIElement"* %2, %"class.xercesc_2_7::PSVIElement"** %.addr2, align 8
  call void @llvm.dbg.declare(metadata %"class.xercesc_2_7::PSVIElement"** %.addr2, metadata !4758, metadata !DIExpression()), !dbg !4759
  %this3 = load %"class.xercesc_2_7::PSVIHandler"*, %"class.xercesc_2_7::PSVIHandler"** %this.addr, align 8
  ret void, !dbg !4760
}

; Function Attrs: noinline nounwind uwtable
define linkonce_odr dso_local void @_ZN11xercesc_2_715ContentSpecNodeD0Ev(%"class.xercesc_2_7::ContentSpecNode"* %this) unnamed_addr #1 comdat align 2 !dbg !4761 {
entry:
  %this.addr = alloca %"class.xercesc_2_7::ContentSpecNode"*, align 8
  store %"class.xercesc_2_7::ContentSpecNode"* %this, %"class.xercesc_2_7::ContentSpecNode"** %this.addr, align 8
  call void @llvm.dbg.declare(metadata %"class.xercesc_2_7::ContentSpecNode"** %this.addr, metadata !4762, metadata !DIExpression()), !dbg !4763
  %this1 = load %"class.xercesc_2_7::ContentSpecNode"*, %"class.xercesc_2_7::ContentSpecNode"** %this.addr, align 8
  call void @_ZN11xercesc_2_715ContentSpecNodeD2Ev(%"class.xercesc_2_7::ContentSpecNode"* %this1) #10, !dbg !4764
  %0 = bitcast %"class.xercesc_2_7::ContentSpecNode"* %this1 to i8*, !dbg !4764
  call void @_ZN11xercesc_2_77XMemorydlEPv(i8* %0) #10, !dbg !4764
  ret void, !dbg !4765
}

; Function Attrs: noinline nounwind uwtable
define linkonce_odr dso_local void @_ZN11xercesc_2_715ContentSpecNodeD2Ev(%"class.xercesc_2_7::ContentSpecNode"* %this) unnamed_addr #1 comdat align 2 !dbg !4766 {
entry:
  %this.addr = alloca %"class.xercesc_2_7::ContentSpecNode"*, align 8
  store %"class.xercesc_2_7::ContentSpecNode"* %this, %"class.xercesc_2_7::ContentSpecNode"** %this.addr, align 8
  call void @llvm.dbg.declare(metadata %"class.xercesc_2_7::ContentSpecNode"** %this.addr, metadata !4767, metadata !DIExpression()), !dbg !4768
  %this1 = load %"class.xercesc_2_7::ContentSpecNode"*, %"class.xercesc_2_7::ContentSpecNode"** %this.addr, align 8
  %0 = bitcast %"class.xercesc_2_7::ContentSpecNode"* %this1 to i32 (...)***, !dbg !4769
  store i32 (...)** bitcast (i8** getelementptr inbounds ({ [7 x i8*] }, { [7 x i8*] }* @_ZTVN11xercesc_2_715ContentSpecNodeE, i32 0, inrange i32 0, i32 2) to i32 (...)**), i32 (...)*** %0, align 8, !dbg !4769
  %fAdoptFirst = getelementptr inbounds %"class.xercesc_2_7::ContentSpecNode", %"class.xercesc_2_7::ContentSpecNode"* %this1, i32 0, i32 7, !dbg !4770
  %1 = load i8, i8* %fAdoptFirst, align 4, !dbg !4770
  %tobool = trunc i8 %1 to i1, !dbg !4770
  br i1 %tobool, label %if.then, label %if.end, !dbg !4773

if.then:                                          ; preds = %entry
  %fFirst = getelementptr inbounds %"class.xercesc_2_7::ContentSpecNode", %"class.xercesc_2_7::ContentSpecNode"* %this1, i32 0, i32 4, !dbg !4774
  %2 = load %"class.xercesc_2_7::ContentSpecNode"*, %"class.xercesc_2_7::ContentSpecNode"** %fFirst, align 8, !dbg !4774
  %isnull = icmp eq %"class.xercesc_2_7::ContentSpecNode"* %2, null, !dbg !4776
  br i1 %isnull, label %delete.end, label %delete.notnull, !dbg !4776

delete.notnull:                                   ; preds = %if.then
  %3 = bitcast %"class.xercesc_2_7::ContentSpecNode"* %2 to void (%"class.xercesc_2_7::ContentSpecNode"*)***, !dbg !4776
  %vtable = load void (%"class.xercesc_2_7::ContentSpecNode"*)**, void (%"class.xercesc_2_7::ContentSpecNode"*)*** %3, align 8, !dbg !4776
  %vfn = getelementptr inbounds void (%"class.xercesc_2_7::ContentSpecNode"*)*, void (%"class.xercesc_2_7::ContentSpecNode"*)** %vtable, i64 1, !dbg !4776
  %4 = load void (%"class.xercesc_2_7::ContentSpecNode"*)*, void (%"class.xercesc_2_7::ContentSpecNode"*)** %vfn, align 8, !dbg !4776
  call void %4(%"class.xercesc_2_7::ContentSpecNode"* %2) #10, !dbg !4776
  br label %delete.end, !dbg !4776

delete.end:                                       ; preds = %delete.notnull, %if.then
  br label %if.end, !dbg !4777

if.end:                                           ; preds = %delete.end, %entry
  %fAdoptSecond = getelementptr inbounds %"class.xercesc_2_7::ContentSpecNode", %"class.xercesc_2_7::ContentSpecNode"* %this1, i32 0, i32 8, !dbg !4778
  %5 = load i8, i8* %fAdoptSecond, align 1, !dbg !4778
  %tobool2 = trunc i8 %5 to i1, !dbg !4778
  br i1 %tobool2, label %if.then3, label %if.end9, !dbg !4780

if.then3:                                         ; preds = %if.end
  %fSecond = getelementptr inbounds %"class.xercesc_2_7::ContentSpecNode", %"class.xercesc_2_7::ContentSpecNode"* %this1, i32 0, i32 5, !dbg !4781
  %6 = load %"class.xercesc_2_7::ContentSpecNode"*, %"class.xercesc_2_7::ContentSpecNode"** %fSecond, align 8, !dbg !4781
  %isnull4 = icmp eq %"class.xercesc_2_7::ContentSpecNode"* %6, null, !dbg !4783
  br i1 %isnull4, label %delete.end8, label %delete.notnull5, !dbg !4783

delete.notnull5:                                  ; preds = %if.then3
  %7 = bitcast %"class.xercesc_2_7::ContentSpecNode"* %6 to void (%"class.xercesc_2_7::ContentSpecNode"*)***, !dbg !4783
  %vtable6 = load void (%"class.xercesc_2_7::ContentSpecNode"*)**, void (%"class.xercesc_2_7::ContentSpecNode"*)*** %7, align 8, !dbg !4783
  %vfn7 = getelementptr inbounds void (%"class.xercesc_2_7::ContentSpecNode"*)*, void (%"class.xercesc_2_7::ContentSpecNode"*)** %vtable6, i64 1, !dbg !4783
  %8 = load void (%"class.xercesc_2_7::ContentSpecNode"*)*, void (%"class.xercesc_2_7::ContentSpecNode"*)** %vfn7, align 8, !dbg !4783
  call void %8(%"class.xercesc_2_7::ContentSpecNode"* %6) #10, !dbg !4783
  br label %delete.end8, !dbg !4783

delete.end8:                                      ; preds = %delete.notnull5, %if.then3
  br label %if.end9, !dbg !4784

if.end9:                                          ; preds = %delete.end8, %if.end
  %fElement = getelementptr inbounds %"class.xercesc_2_7::ContentSpecNode", %"class.xercesc_2_7::ContentSpecNode"* %this1, i32 0, i32 2, !dbg !4785
  %9 = load %"class.xercesc_2_7::QName"*, %"class.xercesc_2_7::QName"** %fElement, align 8, !dbg !4785
  %isnull10 = icmp eq %"class.xercesc_2_7::QName"* %9, null, !dbg !4786
  br i1 %isnull10, label %delete.end14, label %delete.notnull11, !dbg !4786

delete.notnull11:                                 ; preds = %if.end9
  %10 = bitcast %"class.xercesc_2_7::QName"* %9 to void (%"class.xercesc_2_7::QName"*)***, !dbg !4786
  %vtable12 = load void (%"class.xercesc_2_7::QName"*)**, void (%"class.xercesc_2_7::QName"*)*** %10, align 8, !dbg !4786
  %vfn13 = getelementptr inbounds void (%"class.xercesc_2_7::QName"*)*, void (%"class.xercesc_2_7::QName"*)** %vtable12, i64 1, !dbg !4786
  %11 = load void (%"class.xercesc_2_7::QName"*)*, void (%"class.xercesc_2_7::QName"*)** %vfn13, align 8, !dbg !4786
  call void %11(%"class.xercesc_2_7::QName"* %9) #10, !dbg !4786
  br label %delete.end14, !dbg !4786

delete.end14:                                     ; preds = %delete.notnull11, %if.end9
  %12 = bitcast %"class.xercesc_2_7::ContentSpecNode"* %this1 to %"class.xercesc_2_7::XSerializable"*, !dbg !4787
  call void @_ZN11xercesc_2_713XSerializableD2Ev(%"class.xercesc_2_7::XSerializable"* %12) #10, !dbg !4787
  ret void, !dbg !4788
}

; Function Attrs: noinline nounwind uwtable
define linkonce_odr dso_local i16* @_ZNK11xercesc_2_710XSDLocator11getPublicIdEv(%"class.xercesc_2_7::XSDLocator"* %this) unnamed_addr #1 comdat align 2 !dbg !4789 {
entry:
  %this.addr = alloca %"class.xercesc_2_7::XSDLocator"*, align 8
  store %"class.xercesc_2_7::XSDLocator"* %this, %"class.xercesc_2_7::XSDLocator"** %this.addr, align 8
  call void @llvm.dbg.declare(metadata %"class.xercesc_2_7::XSDLocator"** %this.addr, metadata !4826, metadata !DIExpression()), !dbg !4828
  %this1 = load %"class.xercesc_2_7::XSDLocator"*, %"class.xercesc_2_7::XSDLocator"** %this.addr, align 8
  %fPublicId = getelementptr inbounds %"class.xercesc_2_7::XSDLocator", %"class.xercesc_2_7::XSDLocator"* %this1, i32 0, i32 4, !dbg !4829
  %0 = load i16*, i16** %fPublicId, align 8, !dbg !4829
  ret i16* %0, !dbg !4830
}

; Function Attrs: noinline uwtable
define dso_local void @_ZN11xercesc_2_712SGXMLScannerC2EPNS_12XMLValidatorEPNS_15GrammarResolverEPNS_13MemoryManagerE(%"class.xercesc_2_7::SGXMLScanner"* %this, %"class.xercesc_2_7::XMLValidator"* %valToAdopt, %"class.xercesc_2_7::GrammarResolver"* %grammarResolver, %"class.xercesc_2_7::MemoryManager"* %manager) unnamed_addr #6 align 2 personality i8* bitcast (i32 (...)* @__gxx_personality_v0 to i8*) !dbg !4831 {
entry:
  %this.addr = alloca %"class.xercesc_2_7::SGXMLScanner"*, align 8
  %valToAdopt.addr = alloca %"class.xercesc_2_7::XMLValidator"*, align 8
  %grammarResolver.addr = alloca %"class.xercesc_2_7::GrammarResolver"*, align 8
  %manager.addr = alloca %"class.xercesc_2_7::MemoryManager"*, align 8
  %exn.slot = alloca i8*
  %ehselector.slot = alloca i32
  %cleanup = alloca %"class.xercesc_2_7::JanitorMemFunCall", align 8
  %coerce = alloca { i64, i64 }, align 8
  %0 = alloca %"class.xercesc_2_7::OutOfMemoryException"*, align 8
  store %"class.xercesc_2_7::SGXMLScanner"* %this, %"class.xercesc_2_7::SGXMLScanner"** %this.addr, align 8
  call void @llvm.dbg.declare(metadata %"class.xercesc_2_7::SGXMLScanner"** %this.addr, metadata !4832, metadata !DIExpression()), !dbg !4834
  store %"class.xercesc_2_7::XMLValidator"* %valToAdopt, %"class.xercesc_2_7::XMLValidator"** %valToAdopt.addr, align 8
  call void @llvm.dbg.declare(metadata %"class.xercesc_2_7::XMLValidator"** %valToAdopt.addr, metadata !4835, metadata !DIExpression()), !dbg !4836
  store %"class.xercesc_2_7::GrammarResolver"* %grammarResolver, %"class.xercesc_2_7::GrammarResolver"** %grammarResolver.addr, align 8
  call void @llvm.dbg.declare(metadata %"class.xercesc_2_7::GrammarResolver"** %grammarResolver.addr, metadata !4837, metadata !DIExpression()), !dbg !4838
  store %"class.xercesc_2_7::MemoryManager"* %manager, %"class.xercesc_2_7::MemoryManager"** %manager.addr, align 8
  call void @llvm.dbg.declare(metadata %"class.xercesc_2_7::MemoryManager"** %manager.addr, metadata !4839, metadata !DIExpression()), !dbg !4840
  %this1 = load %"class.xercesc_2_7::SGXMLScanner"*, %"class.xercesc_2_7::SGXMLScanner"** %this.addr, align 8
  %1 = bitcast %"class.xercesc_2_7::SGXMLScanner"* %this1 to %"class.xercesc_2_7::XMLScanner"*, !dbg !4841
  %2 = load %"class.xercesc_2_7::XMLValidator"*, %"class.xercesc_2_7::XMLValidator"** %valToAdopt.addr, align 8, !dbg !4842
  %3 = load %"class.xercesc_2_7::GrammarResolver"*, %"class.xercesc_2_7::GrammarResolver"** %grammarResolver.addr, align 8, !dbg !4843
  %4 = load %"class.xercesc_2_7::MemoryManager"*, %"class.xercesc_2_7::MemoryManager"** %manager.addr, align 8, !dbg !4844
  call void @_ZN11xercesc_2_710XMLScannerC2EPNS_12XMLValidatorEPNS_15GrammarResolverEPNS_13MemoryManagerE(%"class.xercesc_2_7::XMLScanner"* %1, %"class.xercesc_2_7::XMLValidator"* %2, %"class.xercesc_2_7::GrammarResolver"* %3, %"class.xercesc_2_7::MemoryManager"* %4), !dbg !4845
  %5 = bitcast %"class.xercesc_2_7::SGXMLScanner"* %this1 to i32 (...)***, !dbg !4841
  store i32 (...)** bitcast (i8** getelementptr inbounds ({ [22 x i8*] }, { [22 x i8*] }* @_ZTVN11xercesc_2_712SGXMLScannerE, i32 0, inrange i32 0, i32 2) to i32 (...)**), i32 (...)*** %5, align 8, !dbg !4841
  %fSeeXsi = getelementptr inbounds %"class.xercesc_2_7::SGXMLScanner", %"class.xercesc_2_7::SGXMLScanner"* %this1, i32 0, i32 1, !dbg !4846
  store i8 0, i8* %fSeeXsi, align 8, !dbg !4846
  %fGrammarType = getelementptr inbounds %"class.xercesc_2_7::SGXMLScanner", %"class.xercesc_2_7::SGXMLScanner"* %this1, i32 0, i32 2, !dbg !4847
  store i32 2, i32* %fGrammarType, align 4, !dbg !4847
  %fElemStateSize = getelementptr inbounds %"class.xercesc_2_7::SGXMLScanner", %"class.xercesc_2_7::SGXMLScanner"* %this1, i32 0, i32 3, !dbg !4848
  store i32 16, i32* %fElemStateSize, align 8, !dbg !4848
  %fElemState = getelementptr inbounds %"class.xercesc_2_7::SGXMLScanner", %"class.xercesc_2_7::SGXMLScanner"* %this1, i32 0, i32 4, !dbg !4849
  store i32* null, i32** %fElemState, align 8, !dbg !4849
  %fContent = getelementptr inbounds %"class.xercesc_2_7::SGXMLScanner", %"class.xercesc_2_7::SGXMLScanner"* %this1, i32 0, i32 5, !dbg !4850
  %6 = load %"class.xercesc_2_7::MemoryManager"*, %"class.xercesc_2_7::MemoryManager"** %manager.addr, align 8, !dbg !4851
  invoke void @_ZN11xercesc_2_79XMLBufferC2EjPNS_13MemoryManagerE(%"class.xercesc_2_7::XMLBuffer"* %fContent, i32 1023, %"class.xercesc_2_7::MemoryManager"* %6)
          to label %invoke.cont unwind label %lpad, !dbg !4850

invoke.cont:                                      ; preds = %entry
  %fEntityTable = getelementptr inbounds %"class.xercesc_2_7::SGXMLScanner", %"class.xercesc_2_7::SGXMLScanner"* %this1, i32 0, i32 6, !dbg !4852
  store %"class.xercesc_2_7::ValueHashTableOf"* null, %"class.xercesc_2_7::ValueHashTableOf"** %fEntityTable, align 8, !dbg !4852
  %fRawAttrList = getelementptr inbounds %"class.xercesc_2_7::SGXMLScanner", %"class.xercesc_2_7::SGXMLScanner"* %this1, i32 0, i32 7, !dbg !4853
  store %"class.xercesc_2_7::RefVectorOf.17"* null, %"class.xercesc_2_7::RefVectorOf.17"** %fRawAttrList, align 8, !dbg !4853
  %fRawAttrColonListSize = getelementptr inbounds %"class.xercesc_2_7::SGXMLScanner", %"class.xercesc_2_7::SGXMLScanner"* %this1, i32 0, i32 8, !dbg !4854
  store i32 32, i32* %fRawAttrColonListSize, align 8, !dbg !4854
  %fRawAttrColonList = getelementptr inbounds %"class.xercesc_2_7::SGXMLScanner", %"class.xercesc_2_7::SGXMLScanner"* %this1, i32 0, i32 9, !dbg !4855
  store i32* null, i32** %fRawAttrColonList, align 8, !dbg !4855
  %fSchemaGrammar = getelementptr inbounds %"class.xercesc_2_7::SGXMLScanner", %"class.xercesc_2_7::SGXMLScanner"* %this1, i32 0, i32 10, !dbg !4856
  store %"class.xercesc_2_7::SchemaGrammar"* null, %"class.xercesc_2_7::SchemaGrammar"** %fSchemaGrammar, align 8, !dbg !4856
  %fSchemaValidator = getelementptr inbounds %"class.xercesc_2_7::SGXMLScanner", %"class.xercesc_2_7::SGXMLScanner"* %this1, i32 0, i32 11, !dbg !4857
  store %"class.xercesc_2_7::SchemaValidator"* null, %"class.xercesc_2_7::SchemaValidator"** %fSchemaValidator, align 8, !dbg !4857
  %fICHandler = getelementptr inbounds %"class.xercesc_2_7::SGXMLScanner", %"class.xercesc_2_7::SGXMLScanner"* %this1, i32 0, i32 12, !dbg !4858
  store %"class.xercesc_2_7::IdentityConstraintHandler"* null, %"class.xercesc_2_7::IdentityConstraintHandler"** %fICHandler, align 8, !dbg !4858
  %fElemNonDeclPool = getelementptr inbounds %"class.xercesc_2_7::SGXMLScanner", %"class.xercesc_2_7::SGXMLScanner"* %this1, i32 0, i32 13, !dbg !4859
  store %"class.xercesc_2_7::RefHash3KeysIdPool"* null, %"class.xercesc_2_7::RefHash3KeysIdPool"** %fElemNonDeclPool, align 8, !dbg !4859
  %fElemCount = getelementptr inbounds %"class.xercesc_2_7::SGXMLScanner", %"class.xercesc_2_7::SGXMLScanner"* %this1, i32 0, i32 14, !dbg !4860
  store i32 0, i32* %fElemCount, align 8, !dbg !4860
  %fAttDefRegistry = getelementptr inbounds %"class.xercesc_2_7::SGXMLScanner", %"class.xercesc_2_7::SGXMLScanner"* %this1, i32 0, i32 15, !dbg !4861
  store %"class.xercesc_2_7::RefHashTableOf.50"* null, %"class.xercesc_2_7::RefHashTableOf.50"** %fAttDefRegistry, align 8, !dbg !4861
  %fUndeclaredAttrRegistryNS = getelementptr inbounds %"class.xercesc_2_7::SGXMLScanner", %"class.xercesc_2_7::SGXMLScanner"* %this1, i32 0, i32 16, !dbg !4862
  store %"class.xercesc_2_7::RefHash2KeysTableOf.52"* null, %"class.xercesc_2_7::RefHash2KeysTableOf.52"** %fUndeclaredAttrRegistryNS, align 8, !dbg !4862
  %fPSVIAttrList = getelementptr inbounds %"class.xercesc_2_7::SGXMLScanner", %"class.xercesc_2_7::SGXMLScanner"* %this1, i32 0, i32 17, !dbg !4863
  store %"class.xercesc_2_7::PSVIAttributeList"* null, %"class.xercesc_2_7::PSVIAttributeList"** %fPSVIAttrList, align 8, !dbg !4863
  %fModel = getelementptr inbounds %"class.xercesc_2_7::SGXMLScanner", %"class.xercesc_2_7::SGXMLScanner"* %this1, i32 0, i32 18, !dbg !4864
  store %"class.xercesc_2_7::XSModel"* null, %"class.xercesc_2_7::XSModel"** %fModel, align 8, !dbg !4864
  %fPSVIElement = getelementptr inbounds %"class.xercesc_2_7::SGXMLScanner", %"class.xercesc_2_7::SGXMLScanner"* %this1, i32 0, i32 19, !dbg !4865
  store %"class.xercesc_2_7::PSVIElement"* null, %"class.xercesc_2_7::PSVIElement"** %fPSVIElement, align 8, !dbg !4865
  %fErrorStack = getelementptr inbounds %"class.xercesc_2_7::SGXMLScanner", %"class.xercesc_2_7::SGXMLScanner"* %this1, i32 0, i32 20, !dbg !4866
  store %"class.xercesc_2_7::ValueStackOf.56"* null, %"class.xercesc_2_7::ValueStackOf.56"** %fErrorStack, align 8, !dbg !4866
  %fPSVIElemContext = getelementptr inbounds %"class.xercesc_2_7::SGXMLScanner", %"class.xercesc_2_7::SGXMLScanner"* %this1, i32 0, i32 21, !dbg !4867
  call void @llvm.dbg.declare(metadata %"class.xercesc_2_7::JanitorMemFunCall"* %cleanup, metadata !4868, metadata !DIExpression()), !dbg !4898
  store { i64, i64 } { i64 ptrtoint (void (%"class.xercesc_2_7::SGXMLScanner"*)* @_ZN11xercesc_2_712SGXMLScanner7cleanUpEv to i64), i64 0 }, { i64, i64 }* %coerce, align 8, !dbg !4898
  %7 = getelementptr inbounds { i64, i64 }, { i64, i64 }* %coerce, i32 0, i32 0, !dbg !4898
  %8 = load i64, i64* %7, align 8, !dbg !4898
  %9 = getelementptr inbounds { i64, i64 }, { i64, i64 }* %coerce, i32 0, i32 1, !dbg !4898
  %10 = load i64, i64* %9, align 8, !dbg !4898
  invoke void @_ZN11xercesc_2_717JanitorMemFunCallINS_12SGXMLScannerEEC2EPS1_MS1_FvvE(%"class.xercesc_2_7::JanitorMemFunCall"* %cleanup, %"class.xercesc_2_7::SGXMLScanner"* %this1, i64 %8, i64 %10)
          to label %invoke.cont3 unwind label %lpad2, !dbg !4898

invoke.cont3:                                     ; preds = %invoke.cont
  invoke void @_ZN11xercesc_2_712SGXMLScanner10commonInitEv(%"class.xercesc_2_7::SGXMLScanner"* %this1)
          to label %invoke.cont5 unwind label %lpad4, !dbg !4899

invoke.cont5:                                     ; preds = %invoke.cont3
  br label %try.cont, !dbg !4901

lpad:                                             ; preds = %entry
  %11 = landingpad { i8*, i32 }
          cleanup, !dbg !4902
  %12 = extractvalue { i8*, i32 } %11, 0, !dbg !4902
  store i8* %12, i8** %exn.slot, align 8, !dbg !4902
  %13 = extractvalue { i8*, i32 } %11, 1, !dbg !4902
  store i32 %13, i32* %ehselector.slot, align 4, !dbg !4902
  br label %ehcleanup12, !dbg !4902

lpad2:                                            ; preds = %invoke.cont
  %14 = landingpad { i8*, i32 }
          cleanup, !dbg !4903
  %15 = extractvalue { i8*, i32 } %14, 0, !dbg !4903
  store i8* %15, i8** %exn.slot, align 8, !dbg !4903
  %16 = extractvalue { i8*, i32 } %14, 1, !dbg !4903
  store i32 %16, i32* %ehselector.slot, align 4, !dbg !4903
  br label %ehcleanup11, !dbg !4903

lpad4:                                            ; preds = %invoke.cont3
  %17 = landingpad { i8*, i32 }
          cleanup
          catch i8* bitcast ({ i8*, i8*, i8* }* @_ZTIN11xercesc_2_720OutOfMemoryExceptionE to i8*), !dbg !4904
  %18 = extractvalue { i8*, i32 } %17, 0, !dbg !4904
  store i8* %18, i8** %exn.slot, align 8, !dbg !4904
  %19 = extractvalue { i8*, i32 } %17, 1, !dbg !4904
  store i32 %19, i32* %ehselector.slot, align 4, !dbg !4904
  br label %catch.dispatch, !dbg !4904

catch.dispatch:                                   ; preds = %lpad4
  %sel = load i32, i32* %ehselector.slot, align 4, !dbg !4901
  %20 = call i32 @llvm.eh.typeid.for(i8* bitcast ({ i8*, i8*, i8* }* @_ZTIN11xercesc_2_720OutOfMemoryExceptionE to i8*)) #10, !dbg !4901
  %matches = icmp eq i32 %sel, %20, !dbg !4901
  br i1 %matches, label %catch, label %ehcleanup, !dbg !4901

catch:                                            ; preds = %catch.dispatch
  call void @llvm.dbg.declare(metadata %"class.xercesc_2_7::OutOfMemoryException"** %0, metadata !4905, metadata !DIExpression()), !dbg !4938
  %exn = load i8*, i8** %exn.slot, align 8, !dbg !4901
  %21 = call i8* @__cxa_begin_catch(i8* %exn) #10, !dbg !4901
  %exn.byref = bitcast i8* %21 to %"class.xercesc_2_7::OutOfMemoryException"*, !dbg !4901
  store %"class.xercesc_2_7::OutOfMemoryException"* %exn.byref, %"class.xercesc_2_7::OutOfMemoryException"** %0, align 8, !dbg !4901
  invoke void @_ZN11xercesc_2_717JanitorMemFunCallINS_12SGXMLScannerEE7releaseEv(%"class.xercesc_2_7::JanitorMemFunCall"* %cleanup)
          to label %invoke.cont7 unwind label %lpad6, !dbg !4939

invoke.cont7:                                     ; preds = %catch
  invoke void @__cxa_rethrow() #13
          to label %unreachable unwind label %lpad6, !dbg !4941

lpad6:                                            ; preds = %invoke.cont7, %catch
  %22 = landingpad { i8*, i32 }
          cleanup, !dbg !4942
  %23 = extractvalue { i8*, i32 } %22, 0, !dbg !4942
  store i8* %23, i8** %exn.slot, align 8, !dbg !4942
  %24 = extractvalue { i8*, i32 } %22, 1, !dbg !4942
  store i32 %24, i32* %ehselector.slot, align 4, !dbg !4942
  invoke void @__cxa_end_catch()
          to label %invoke.cont8 unwind label %terminate.lpad, !dbg !4943

invoke.cont8:                                     ; preds = %lpad6
  br label %ehcleanup, !dbg !4943

try.cont:                                         ; preds = %invoke.cont5
  invoke void @_ZN11xercesc_2_717JanitorMemFunCallINS_12SGXMLScannerEE7releaseEv(%"class.xercesc_2_7::JanitorMemFunCall"* %cleanup)
          to label %invoke.cont10 unwind label %lpad9, !dbg !4944

invoke.cont10:                                    ; preds = %try.cont
  call void @_ZN11xercesc_2_717JanitorMemFunCallINS_12SGXMLScannerEED2Ev(%"class.xercesc_2_7::JanitorMemFunCall"* %cleanup) #10, !dbg !4902
  ret void, !dbg !4902

lpad9:                                            ; preds = %try.cont
  %25 = landingpad { i8*, i32 }
          cleanup, !dbg !4903
  %26 = extractvalue { i8*, i32 } %25, 0, !dbg !4903
  store i8* %26, i8** %exn.slot, align 8, !dbg !4903
  %27 = extractvalue { i8*, i32 } %25, 1, !dbg !4903
  store i32 %27, i32* %ehselector.slot, align 4, !dbg !4903
  br label %ehcleanup, !dbg !4903

ehcleanup:                                        ; preds = %lpad9, %invoke.cont8, %catch.dispatch
  call void @_ZN11xercesc_2_717JanitorMemFunCallINS_12SGXMLScannerEED2Ev(%"class.xercesc_2_7::JanitorMemFunCall"* %cleanup) #10, !dbg !4902
  br label %ehcleanup11, !dbg !4902

ehcleanup11:                                      ; preds = %ehcleanup, %lpad2
  call void @_ZN11xercesc_2_79XMLBufferD2Ev(%"class.xercesc_2_7::XMLBuffer"* %fContent) #10, !dbg !4903
  br label %ehcleanup12, !dbg !4903

ehcleanup12:                                      ; preds = %ehcleanup11, %lpad
  %28 = bitcast %"class.xercesc_2_7::SGXMLScanner"* %this1 to %"class.xercesc_2_7::XMLScanner"*, !dbg !4903
  call void @_ZN11xercesc_2_710XMLScannerD2Ev(%"class.xercesc_2_7::XMLScanner"* %28) #10, !dbg !4903
  br label %eh.resume, !dbg !4903

eh.resume:                                        ; preds = %ehcleanup12
  %exn13 = load i8*, i8** %exn.slot, align 8, !dbg !4903
  %sel14 = load i32, i32* %ehselector.slot, align 4, !dbg !4903
  %lpad.val = insertvalue { i8*, i32 } undef, i8* %exn13, 0, !dbg !4903
  %lpad.val15 = insertvalue { i8*, i32 } %lpad.val, i32 %sel14, 1, !dbg !4903
  resume { i8*, i32 } %lpad.val15, !dbg !4903

terminate.lpad:                                   ; preds = %lpad6
  %29 = landingpad { i8*, i32 }
          catch i8* null, !dbg !4943
  %30 = extractvalue { i8*, i32 } %29, 0, !dbg !4943
  call void @__clang_call_terminate(i8* %30) #12, !dbg !4943
  unreachable, !dbg !4943

unreachable:                                      ; preds = %invoke.cont7
  unreachable
}

declare dso_local void @_ZN11xercesc_2_710XMLScannerC2EPNS_12XMLValidatorEPNS_15GrammarResolverEPNS_13MemoryManagerE(%"class.xercesc_2_7::XMLScanner"*, %"class.xercesc_2_7::XMLValidator"*, %"class.xercesc_2_7::GrammarResolver"*, %"class.xercesc_2_7::MemoryManager"*) unnamed_addr #7

; Function Attrs: noinline uwtable
define linkonce_odr dso_local void @_ZN11xercesc_2_79XMLBufferC2EjPNS_13MemoryManagerE(%"class.xercesc_2_7::XMLBuffer"* %this, i32 %capacity, %"class.xercesc_2_7::MemoryManager"* %manager) unnamed_addr #6 comdat align 2 !dbg !4945 {
entry:
  %this.addr = alloca %"class.xercesc_2_7::XMLBuffer"*, align 8
  %capacity.addr = alloca i32, align 4
  %manager.addr = alloca %"class.xercesc_2_7::MemoryManager"*, align 8
  store %"class.xercesc_2_7::XMLBuffer"* %this, %"class.xercesc_2_7::XMLBuffer"** %this.addr, align 8
  call void @llvm.dbg.declare(metadata %"class.xercesc_2_7::XMLBuffer"** %this.addr, metadata !4946, metadata !DIExpression()), !dbg !4948
  store i32 %capacity, i32* %capacity.addr, align 4
  call void @llvm.dbg.declare(metadata i32* %capacity.addr, metadata !4949, metadata !DIExpression()), !dbg !4950
  store %"class.xercesc_2_7::MemoryManager"* %manager, %"class.xercesc_2_7::MemoryManager"** %manager.addr, align 8
  call void @llvm.dbg.declare(metadata %"class.xercesc_2_7::MemoryManager"** %manager.addr, metadata !4951, metadata !DIExpression()), !dbg !4952
  %this1 = load %"class.xercesc_2_7::XMLBuffer"*, %"class.xercesc_2_7::XMLBuffer"** %this.addr, align 8
  %0 = bitcast %"class.xercesc_2_7::XMLBuffer"* %this1 to %"class.xercesc_2_7::XMemory"*, !dbg !4953
  call void @_ZN11xercesc_2_77XMemoryC2Ev(%"class.xercesc_2_7::XMemory"* %0), !dbg !4954
  %fIndex = getelementptr inbounds %"class.xercesc_2_7::XMLBuffer", %"class.xercesc_2_7::XMLBuffer"* %this1, i32 0, i32 0, !dbg !4955
  store i32 0, i32* %fIndex, align 8, !dbg !4955
  %fCapacity = getelementptr inbounds %"class.xercesc_2_7::XMLBuffer", %"class.xercesc_2_7::XMLBuffer"* %this1, i32 0, i32 1, !dbg !4956
  %1 = load i32, i32* %capacity.addr, align 4, !dbg !4957
  store i32 %1, i32* %fCapacity, align 4, !dbg !4956
  %fFullSize = getelementptr inbounds %"class.xercesc_2_7::XMLBuffer", %"class.xercesc_2_7::XMLBuffer"* %this1, i32 0, i32 2, !dbg !4958
  store i32 0, i32* %fFullSize, align 8, !dbg !4958
  %fUsed = getelementptr inbounds %"class.xercesc_2_7::XMLBuffer", %"class.xercesc_2_7::XMLBuffer"* %this1, i32 0, i32 3, !dbg !4959
  store i8 0, i8* %fUsed, align 4, !dbg !4959
  %fMemoryManager = getelementptr inbounds %"class.xercesc_2_7::XMLBuffer", %"class.xercesc_2_7::XMLBuffer"* %this1, i32 0, i32 4, !dbg !4960
  %2 = load %"class.xercesc_2_7::MemoryManager"*, %"class.xercesc_2_7::MemoryManager"** %manager.addr, align 8, !dbg !4961
  store %"class.xercesc_2_7::MemoryManager"* %2, %"class.xercesc_2_7::MemoryManager"** %fMemoryManager, align 8, !dbg !4960
  %fFullHandler = getelementptr inbounds %"class.xercesc_2_7::XMLBuffer", %"class.xercesc_2_7::XMLBuffer"* %this1, i32 0, i32 5, !dbg !4962
  store %"class.xercesc_2_7::XMLBufferFullHandler"* null, %"class.xercesc_2_7::XMLBufferFullHandler"** %fFullHandler, align 8, !dbg !4962
  %fBuffer = getelementptr inbounds %"class.xercesc_2_7::XMLBuffer", %"class.xercesc_2_7::XMLBuffer"* %this1, i32 0, i32 6, !dbg !4963
  store i16* null, i16** %fBuffer, align 8, !dbg !4963
  %3 = load %"class.xercesc_2_7::MemoryManager"*, %"class.xercesc_2_7::MemoryManager"** %manager.addr, align 8, !dbg !4964
  %4 = load i32, i32* %capacity.addr, align 4, !dbg !4966
  %add = add i32 %4, 1, !dbg !4967
  %conv = zext i32 %add to i64, !dbg !4968
  %mul = mul i64 %conv, 2, !dbg !4969
  %5 = bitcast %"class.xercesc_2_7::MemoryManager"* %3 to i8* (%"class.xercesc_2_7::MemoryManager"*, i64)***, !dbg !4970
  %vtable = load i8* (%"class.xercesc_2_7::MemoryManager"*, i64)**, i8* (%"class.xercesc_2_7::MemoryManager"*, i64)*** %5, align 8, !dbg !4970
  %vfn = getelementptr inbounds i8* (%"class.xercesc_2_7::MemoryManager"*, i64)*, i8* (%"class.xercesc_2_7::MemoryManager"*, i64)** %vtable, i64 2, !dbg !4970
  %6 = load i8* (%"class.xercesc_2_7::MemoryManager"*, i64)*, i8* (%"class.xercesc_2_7::MemoryManager"*, i64)** %vfn, align 8, !dbg !4970
  %call = call i8* %6(%"class.xercesc_2_7::MemoryManager"* %3, i64 %mul), !dbg !4970
  %7 = bitcast i8* %call to i16*, !dbg !4971
  %fBuffer2 = getelementptr inbounds %"class.xercesc_2_7::XMLBuffer", %"class.xercesc_2_7::XMLBuffer"* %this1, i32 0, i32 6, !dbg !4972
  store i16* %7, i16** %fBuffer2, align 8, !dbg !4973
  %fBuffer3 = getelementptr inbounds %"class.xercesc_2_7::XMLBuffer", %"class.xercesc_2_7::XMLBuffer"* %this1, i32 0, i32 6, !dbg !4974
  %8 = load i16*, i16** %fBuffer3, align 8, !dbg !4974
  %arrayidx = getelementptr inbounds i16, i16* %8, i64 0, !dbg !4974
  store i16 0, i16* %arrayidx, align 2, !dbg !4975
  ret void, !dbg !4976
}

; Function Attrs: noinline uwtable
define dso_local void @_ZN11xercesc_2_712SGXMLScanner7cleanUpEv(%"class.xercesc_2_7::SGXMLScanner"* %this) #6 align 2 !dbg !4977 {
entry:
  %this.addr = alloca %"class.xercesc_2_7::SGXMLScanner"*, align 8
  store %"class.xercesc_2_7::SGXMLScanner"* %this, %"class.xercesc_2_7::SGXMLScanner"** %this.addr, align 8
  call void @llvm.dbg.declare(metadata %"class.xercesc_2_7::SGXMLScanner"** %this.addr, metadata !4978, metadata !DIExpression()), !dbg !4979
  %this1 = load %"class.xercesc_2_7::SGXMLScanner"*, %"class.xercesc_2_7::SGXMLScanner"** %this.addr, align 8
  %0 = bitcast %"class.xercesc_2_7::SGXMLScanner"* %this1 to %"class.xercesc_2_7::XMLScanner"*, !dbg !4980
  %fMemoryManager = getelementptr inbounds %"class.xercesc_2_7::XMLScanner", %"class.xercesc_2_7::XMLScanner"* %0, i32 0, i32 62, !dbg !4980
  %1 = load %"class.xercesc_2_7::MemoryManager"*, %"class.xercesc_2_7::MemoryManager"** %fMemoryManager, align 8, !dbg !4980
  %fElemState = getelementptr inbounds %"class.xercesc_2_7::SGXMLScanner", %"class.xercesc_2_7::SGXMLScanner"* %this1, i32 0, i32 4, !dbg !4981
  %2 = load i32*, i32** %fElemState, align 8, !dbg !4981
  %3 = bitcast i32* %2 to i8*, !dbg !4981
  %4 = bitcast %"class.xercesc_2_7::MemoryManager"* %1 to void (%"class.xercesc_2_7::MemoryManager"*, i8*)***, !dbg !4982
  %vtable = load void (%"class.xercesc_2_7::MemoryManager"*, i8*)**, void (%"class.xercesc_2_7::MemoryManager"*, i8*)*** %4, align 8, !dbg !4982
  %vfn = getelementptr inbounds void (%"class.xercesc_2_7::MemoryManager"*, i8*)*, void (%"class.xercesc_2_7::MemoryManager"*, i8*)** %vtable, i64 3, !dbg !4982
  %5 = load void (%"class.xercesc_2_7::MemoryManager"*, i8*)*, void (%"class.xercesc_2_7::MemoryManager"*, i8*)** %vfn, align 8, !dbg !4982
  call void %5(%"class.xercesc_2_7::MemoryManager"* %1, i8* %3), !dbg !4982
  %fSchemaGrammar = getelementptr inbounds %"class.xercesc_2_7::SGXMLScanner", %"class.xercesc_2_7::SGXMLScanner"* %this1, i32 0, i32 10, !dbg !4983
  %6 = load %"class.xercesc_2_7::SchemaGrammar"*, %"class.xercesc_2_7::SchemaGrammar"** %fSchemaGrammar, align 8, !dbg !4983
  %isnull = icmp eq %"class.xercesc_2_7::SchemaGrammar"* %6, null, !dbg !4984
  br i1 %isnull, label %delete.end, label %delete.notnull, !dbg !4984

delete.notnull:                                   ; preds = %entry
  %7 = bitcast %"class.xercesc_2_7::SchemaGrammar"* %6 to void (%"class.xercesc_2_7::SchemaGrammar"*)***, !dbg !4984
  %vtable2 = load void (%"class.xercesc_2_7::SchemaGrammar"*)**, void (%"class.xercesc_2_7::SchemaGrammar"*)*** %7, align 8, !dbg !4984
  %vfn3 = getelementptr inbounds void (%"class.xercesc_2_7::SchemaGrammar"*)*, void (%"class.xercesc_2_7::SchemaGrammar"*)** %vtable2, i64 1, !dbg !4984
  %8 = load void (%"class.xercesc_2_7::SchemaGrammar"*)*, void (%"class.xercesc_2_7::SchemaGrammar"*)** %vfn3, align 8, !dbg !4984
  call void %8(%"class.xercesc_2_7::SchemaGrammar"* %6) #10, !dbg !4984
  br label %delete.end, !dbg !4984

delete.end:                                       ; preds = %delete.notnull, %entry
  %fEntityTable = getelementptr inbounds %"class.xercesc_2_7::SGXMLScanner", %"class.xercesc_2_7::SGXMLScanner"* %this1, i32 0, i32 6, !dbg !4985
  %9 = load %"class.xercesc_2_7::ValueHashTableOf"*, %"class.xercesc_2_7::ValueHashTableOf"** %fEntityTable, align 8, !dbg !4985
  %isnull4 = icmp eq %"class.xercesc_2_7::ValueHashTableOf"* %9, null, !dbg !4986
  br i1 %isnull4, label %delete.end6, label %delete.notnull5, !dbg !4986

delete.notnull5:                                  ; preds = %delete.end
  call void @_ZN11xercesc_2_716ValueHashTableOfItED2Ev(%"class.xercesc_2_7::ValueHashTableOf"* %9) #10, !dbg !4986
  %10 = bitcast %"class.xercesc_2_7::ValueHashTableOf"* %9 to i8*, !dbg !4986
  call void @_ZN11xercesc_2_77XMemorydlEPv(i8* %10) #10, !dbg !4986
  br label %delete.end6, !dbg !4986

delete.end6:                                      ; preds = %delete.notnull5, %delete.end
  %fRawAttrList = getelementptr inbounds %"class.xercesc_2_7::SGXMLScanner", %"class.xercesc_2_7::SGXMLScanner"* %this1, i32 0, i32 7, !dbg !4987
  %11 = load %"class.xercesc_2_7::RefVectorOf.17"*, %"class.xercesc_2_7::RefVectorOf.17"** %fRawAttrList, align 8, !dbg !4987
  %isnull7 = icmp eq %"class.xercesc_2_7::RefVectorOf.17"* %11, null, !dbg !4988
  br i1 %isnull7, label %delete.end11, label %delete.notnull8, !dbg !4988

delete.notnull8:                                  ; preds = %delete.end6
  %12 = bitcast %"class.xercesc_2_7::RefVectorOf.17"* %11 to void (%"class.xercesc_2_7::RefVectorOf.17"*)***, !dbg !4988
  %vtable9 = load void (%"class.xercesc_2_7::RefVectorOf.17"*)**, void (%"class.xercesc_2_7::RefVectorOf.17"*)*** %12, align 8, !dbg !4988
  %vfn10 = getelementptr inbounds void (%"class.xercesc_2_7::RefVectorOf.17"*)*, void (%"class.xercesc_2_7::RefVectorOf.17"*)** %vtable9, i64 1, !dbg !4988
  %13 = load void (%"class.xercesc_2_7::RefVectorOf.17"*)*, void (%"class.xercesc_2_7::RefVectorOf.17"*)** %vfn10, align 8, !dbg !4988
  call void %13(%"class.xercesc_2_7::RefVectorOf.17"* %11) #10, !dbg !4988
  br label %delete.end11, !dbg !4988

delete.end11:                                     ; preds = %delete.notnull8, %delete.end6
  %14 = bitcast %"class.xercesc_2_7::SGXMLScanner"* %this1 to %"class.xercesc_2_7::XMLScanner"*, !dbg !4989
  %fMemoryManager12 = getelementptr inbounds %"class.xercesc_2_7::XMLScanner", %"class.xercesc_2_7::XMLScanner"* %14, i32 0, i32 62, !dbg !4989
  %15 = load %"class.xercesc_2_7::MemoryManager"*, %"class.xercesc_2_7::MemoryManager"** %fMemoryManager12, align 8, !dbg !4989
  %fRawAttrColonList = getelementptr inbounds %"class.xercesc_2_7::SGXMLScanner", %"class.xercesc_2_7::SGXMLScanner"* %this1, i32 0, i32 9, !dbg !4990
  %16 = load i32*, i32** %fRawAttrColonList, align 8, !dbg !4990
  %17 = bitcast i32* %16 to i8*, !dbg !4990
  %18 = bitcast %"class.xercesc_2_7::MemoryManager"* %15 to void (%"class.xercesc_2_7::MemoryManager"*, i8*)***, !dbg !4991
  %vtable13 = load void (%"class.xercesc_2_7::MemoryManager"*, i8*)**, void (%"class.xercesc_2_7::MemoryManager"*, i8*)*** %18, align 8, !dbg !4991
  %vfn14 = getelementptr inbounds void (%"class.xercesc_2_7::MemoryManager"*, i8*)*, void (%"class.xercesc_2_7::MemoryManager"*, i8*)** %vtable13, i64 3, !dbg !4991
  %19 = load void (%"class.xercesc_2_7::MemoryManager"*, i8*)*, void (%"class.xercesc_2_7::MemoryManager"*, i8*)** %vfn14, align 8, !dbg !4991
  call void %19(%"class.xercesc_2_7::MemoryManager"* %15, i8* %17), !dbg !4991
  %fSchemaValidator = getelementptr inbounds %"class.xercesc_2_7::SGXMLScanner", %"class.xercesc_2_7::SGXMLScanner"* %this1, i32 0, i32 11, !dbg !4992
  %20 = load %"class.xercesc_2_7::SchemaValidator"*, %"class.xercesc_2_7::SchemaValidator"** %fSchemaValidator, align 8, !dbg !4992
  %isnull15 = icmp eq %"class.xercesc_2_7::SchemaValidator"* %20, null, !dbg !4993
  br i1 %isnull15, label %delete.end19, label %delete.notnull16, !dbg !4993

delete.notnull16:                                 ; preds = %delete.end11
  %21 = bitcast %"class.xercesc_2_7::SchemaValidator"* %20 to void (%"class.xercesc_2_7::SchemaValidator"*)***, !dbg !4993
  %vtable17 = load void (%"class.xercesc_2_7::SchemaValidator"*)**, void (%"class.xercesc_2_7::SchemaValidator"*)*** %21, align 8, !dbg !4993
  %vfn18 = getelementptr inbounds void (%"class.xercesc_2_7::SchemaValidator"*)*, void (%"class.xercesc_2_7::SchemaValidator"*)** %vtable17, i64 1, !dbg !4993
  %22 = load void (%"class.xercesc_2_7::SchemaValidator"*)*, void (%"class.xercesc_2_7::SchemaValidator"*)** %vfn18, align 8, !dbg !4993
  call void %22(%"class.xercesc_2_7::SchemaValidator"* %20) #10, !dbg !4993
  br label %delete.end19, !dbg !4993

delete.end19:                                     ; preds = %delete.notnull16, %delete.end11
  %fICHandler = getelementptr inbounds %"class.xercesc_2_7::SGXMLScanner", %"class.xercesc_2_7::SGXMLScanner"* %this1, i32 0, i32 12, !dbg !4994
  %23 = load %"class.xercesc_2_7::IdentityConstraintHandler"*, %"class.xercesc_2_7::IdentityConstraintHandler"** %fICHandler, align 8, !dbg !4994
  %isnull20 = icmp eq %"class.xercesc_2_7::IdentityConstraintHandler"* %23, null, !dbg !4995
  br i1 %isnull20, label %delete.end24, label %delete.notnull21, !dbg !4995

delete.notnull21:                                 ; preds = %delete.end19
  %24 = bitcast %"class.xercesc_2_7::IdentityConstraintHandler"* %23 to void (%"class.xercesc_2_7::IdentityConstraintHandler"*)***, !dbg !4995
  %vtable22 = load void (%"class.xercesc_2_7::IdentityConstraintHandler"*)**, void (%"class.xercesc_2_7::IdentityConstraintHandler"*)*** %24, align 8, !dbg !4995
  %vfn23 = getelementptr inbounds void (%"class.xercesc_2_7::IdentityConstraintHandler"*)*, void (%"class.xercesc_2_7::IdentityConstraintHandler"*)** %vtable22, i64 1, !dbg !4995
  %25 = load void (%"class.xercesc_2_7::IdentityConstraintHandler"*)*, void (%"class.xercesc_2_7::IdentityConstraintHandler"*)** %vfn23, align 8, !dbg !4995
  call void %25(%"class.xercesc_2_7::IdentityConstraintHandler"* %23) #10, !dbg !4995
  br label %delete.end24, !dbg !4995

delete.end24:                                     ; preds = %delete.notnull21, %delete.end19
  %fElemNonDeclPool = getelementptr inbounds %"class.xercesc_2_7::SGXMLScanner", %"class.xercesc_2_7::SGXMLScanner"* %this1, i32 0, i32 13, !dbg !4996
  %26 = load %"class.xercesc_2_7::RefHash3KeysIdPool"*, %"class.xercesc_2_7::RefHash3KeysIdPool"** %fElemNonDeclPool, align 8, !dbg !4996
  %isnull25 = icmp eq %"class.xercesc_2_7::RefHash3KeysIdPool"* %26, null, !dbg !4997
  br i1 %isnull25, label %delete.end27, label %delete.notnull26, !dbg !4997

delete.notnull26:                                 ; preds = %delete.end24
  call void @_ZN11xercesc_2_718RefHash3KeysIdPoolINS_17SchemaElementDeclEED2Ev(%"class.xercesc_2_7::RefHash3KeysIdPool"* %26) #10, !dbg !4997
  %27 = bitcast %"class.xercesc_2_7::RefHash3KeysIdPool"* %26 to i8*, !dbg !4997
  call void @_ZN11xercesc_2_77XMemorydlEPv(i8* %27) #10, !dbg !4997
  br label %delete.end27, !dbg !4997

delete.end27:                                     ; preds = %delete.notnull26, %delete.end24
  %fAttDefRegistry = getelementptr inbounds %"class.xercesc_2_7::SGXMLScanner", %"class.xercesc_2_7::SGXMLScanner"* %this1, i32 0, i32 15, !dbg !4998
  %28 = load %"class.xercesc_2_7::RefHashTableOf.50"*, %"class.xercesc_2_7::RefHashTableOf.50"** %fAttDefRegistry, align 8, !dbg !4998
  %isnull28 = icmp eq %"class.xercesc_2_7::RefHashTableOf.50"* %28, null, !dbg !4999
  br i1 %isnull28, label %delete.end30, label %delete.notnull29, !dbg !4999

delete.notnull29:                                 ; preds = %delete.end27
  call void @_ZN11xercesc_2_714RefHashTableOfIjED2Ev(%"class.xercesc_2_7::RefHashTableOf.50"* %28) #10, !dbg !4999
  %29 = bitcast %"class.xercesc_2_7::RefHashTableOf.50"* %28 to i8*, !dbg !4999
  call void @_ZN11xercesc_2_77XMemorydlEPv(i8* %29) #10, !dbg !4999
  br label %delete.end30, !dbg !4999

delete.end30:                                     ; preds = %delete.notnull29, %delete.end27
  %fUndeclaredAttrRegistryNS = getelementptr inbounds %"class.xercesc_2_7::SGXMLScanner", %"class.xercesc_2_7::SGXMLScanner"* %this1, i32 0, i32 16, !dbg !5000
  %30 = load %"class.xercesc_2_7::RefHash2KeysTableOf.52"*, %"class.xercesc_2_7::RefHash2KeysTableOf.52"** %fUndeclaredAttrRegistryNS, align 8, !dbg !5000
  %isnull31 = icmp eq %"class.xercesc_2_7::RefHash2KeysTableOf.52"* %30, null, !dbg !5001
  br i1 %isnull31, label %delete.end33, label %delete.notnull32, !dbg !5001

delete.notnull32:                                 ; preds = %delete.end30
  call void @_ZN11xercesc_2_719RefHash2KeysTableOfIjED2Ev(%"class.xercesc_2_7::RefHash2KeysTableOf.52"* %30) #10, !dbg !5001
  %31 = bitcast %"class.xercesc_2_7::RefHash2KeysTableOf.52"* %30 to i8*, !dbg !5001
  call void @_ZN11xercesc_2_77XMemorydlEPv(i8* %31) #10, !dbg !5001
  br label %delete.end33, !dbg !5001

delete.end33:                                     ; preds = %delete.notnull32, %delete.end30
  %fPSVIAttrList = getelementptr inbounds %"class.xercesc_2_7::SGXMLScanner", %"class.xercesc_2_7::SGXMLScanner"* %this1, i32 0, i32 17, !dbg !5002
  %32 = load %"class.xercesc_2_7::PSVIAttributeList"*, %"class.xercesc_2_7::PSVIAttributeList"** %fPSVIAttrList, align 8, !dbg !5002
  %isnull34 = icmp eq %"class.xercesc_2_7::PSVIAttributeList"* %32, null, !dbg !5003
  br i1 %isnull34, label %delete.end36, label %delete.notnull35, !dbg !5003

delete.notnull35:                                 ; preds = %delete.end33
  call void @_ZN11xercesc_2_717PSVIAttributeListD2Ev(%"class.xercesc_2_7::PSVIAttributeList"* %32) #10, !dbg !5003
  %33 = bitcast %"class.xercesc_2_7::PSVIAttributeList"* %32 to i8*, !dbg !5003
  call void @_ZN11xercesc_2_77XMemorydlEPv(i8* %33) #10, !dbg !5003
  br label %delete.end36, !dbg !5003

delete.end36:                                     ; preds = %delete.notnull35, %delete.end33
  %fPSVIElement = getelementptr inbounds %"class.xercesc_2_7::SGXMLScanner", %"class.xercesc_2_7::SGXMLScanner"* %this1, i32 0, i32 19, !dbg !5004
  %34 = load %"class.xercesc_2_7::PSVIElement"*, %"class.xercesc_2_7::PSVIElement"** %fPSVIElement, align 8, !dbg !5004
  %tobool = icmp ne %"class.xercesc_2_7::PSVIElement"* %34, null, !dbg !5004
  br i1 %tobool, label %if.then, label %if.end, !dbg !5006

if.then:                                          ; preds = %delete.end36
  %fPSVIElement37 = getelementptr inbounds %"class.xercesc_2_7::SGXMLScanner", %"class.xercesc_2_7::SGXMLScanner"* %this1, i32 0, i32 19, !dbg !5007
  %35 = load %"class.xercesc_2_7::PSVIElement"*, %"class.xercesc_2_7::PSVIElement"** %fPSVIElement37, align 8, !dbg !5007
  %isnull38 = icmp eq %"class.xercesc_2_7::PSVIElement"* %35, null, !dbg !5008
  br i1 %isnull38, label %delete.end42, label %delete.notnull39, !dbg !5008

delete.notnull39:                                 ; preds = %if.then
  %36 = bitcast %"class.xercesc_2_7::PSVIElement"* %35 to void (%"class.xercesc_2_7::PSVIElement"*)***, !dbg !5008
  %vtable40 = load void (%"class.xercesc_2_7::PSVIElement"*)**, void (%"class.xercesc_2_7::PSVIElement"*)*** %36, align 8, !dbg !5008
  %vfn41 = getelementptr inbounds void (%"class.xercesc_2_7::PSVIElement"*)*, void (%"class.xercesc_2_7::PSVIElement"*)** %vtable40, i64 1, !dbg !5008
  %37 = load void (%"class.xercesc_2_7::PSVIElement"*)*, void (%"class.xercesc_2_7::PSVIElement"*)** %vfn41, align 8, !dbg !5008
  call void %37(%"class.xercesc_2_7::PSVIElement"* %35) #10, !dbg !5008
  br label %delete.end42, !dbg !5008

delete.end42:                                     ; preds = %delete.notnull39, %if.then
  br label %if.end, !dbg !5008

if.end:                                           ; preds = %delete.end42, %delete.end36
  %fErrorStack = getelementptr inbounds %"class.xercesc_2_7::SGXMLScanner", %"class.xercesc_2_7::SGXMLScanner"* %this1, i32 0, i32 20, !dbg !5009
  %38 = load %"class.xercesc_2_7::ValueStackOf.56"*, %"class.xercesc_2_7::ValueStackOf.56"** %fErrorStack, align 8, !dbg !5009
  %tobool43 = icmp ne %"class.xercesc_2_7::ValueStackOf.56"* %38, null, !dbg !5009
  br i1 %tobool43, label %if.then44, label %if.end49, !dbg !5011

if.then44:                                        ; preds = %if.end
  %fErrorStack45 = getelementptr inbounds %"class.xercesc_2_7::SGXMLScanner", %"class.xercesc_2_7::SGXMLScanner"* %this1, i32 0, i32 20, !dbg !5012
  %39 = load %"class.xercesc_2_7::ValueStackOf.56"*, %"class.xercesc_2_7::ValueStackOf.56"** %fErrorStack45, align 8, !dbg !5012
  %isnull46 = icmp eq %"class.xercesc_2_7::ValueStackOf.56"* %39, null, !dbg !5013
  br i1 %isnull46, label %delete.end48, label %delete.notnull47, !dbg !5013

delete.notnull47:                                 ; preds = %if.then44
  call void @_ZN11xercesc_2_712ValueStackOfIbED2Ev(%"class.xercesc_2_7::ValueStackOf.56"* %39) #10, !dbg !5013
  %40 = bitcast %"class.xercesc_2_7::ValueStackOf.56"* %39 to i8*, !dbg !5013
  call void @_ZN11xercesc_2_77XMemorydlEPv(i8* %40) #10, !dbg !5013
  br label %delete.end48, !dbg !5013

delete.end48:                                     ; preds = %delete.notnull47, %if.then44
  br label %if.end49, !dbg !5013

if.end49:                                         ; preds = %delete.end48, %if.end
  ret void, !dbg !5014
}

; Function Attrs: noinline nounwind uwtable
define linkonce_odr dso_local void @_ZN11xercesc_2_717JanitorMemFunCallINS_12SGXMLScannerEEC2EPS1_MS1_FvvE(%"class.xercesc_2_7::JanitorMemFunCall"* %this, %"class.xercesc_2_7::SGXMLScanner"* %object, i64 %toCall.coerce0, i64 %toCall.coerce1) unnamed_addr #1 comdat align 2 !dbg !5015 {
entry:
  %toCall = alloca { i64, i64 }, align 8
  %this.addr = alloca %"class.xercesc_2_7::JanitorMemFunCall"*, align 8
  %object.addr = alloca %"class.xercesc_2_7::SGXMLScanner"*, align 8
  %toCall.addr = alloca { i64, i64 }, align 8
  %0 = getelementptr inbounds { i64, i64 }, { i64, i64 }* %toCall, i32 0, i32 0
  store i64 %toCall.coerce0, i64* %0, align 8
  %1 = getelementptr inbounds { i64, i64 }, { i64, i64 }* %toCall, i32 0, i32 1
  store i64 %toCall.coerce1, i64* %1, align 8
  %toCall1 = load { i64, i64 }, { i64, i64 }* %toCall, align 8
  store %"class.xercesc_2_7::JanitorMemFunCall"* %this, %"class.xercesc_2_7::JanitorMemFunCall"** %this.addr, align 8
  call void @llvm.dbg.declare(metadata %"class.xercesc_2_7::JanitorMemFunCall"** %this.addr, metadata !5017, metadata !DIExpression()), !dbg !5019
  store %"class.xercesc_2_7::SGXMLScanner"* %object, %"class.xercesc_2_7::SGXMLScanner"** %object.addr, align 8
  call void @llvm.dbg.declare(metadata %"class.xercesc_2_7::SGXMLScanner"** %object.addr, metadata !5020, metadata !DIExpression()), !dbg !5021
  store { i64, i64 } %toCall1, { i64, i64 }* %toCall.addr, align 8
  call void @llvm.dbg.declare(metadata { i64, i64 }* %toCall.addr, metadata !5022, metadata !DIExpression()), !dbg !5023
  %this2 = load %"class.xercesc_2_7::JanitorMemFunCall"*, %"class.xercesc_2_7::JanitorMemFunCall"** %this.addr, align 8
  %fObject = getelementptr inbounds %"class.xercesc_2_7::JanitorMemFunCall", %"class.xercesc_2_7::JanitorMemFunCall"* %this2, i32 0, i32 0, !dbg !5024
  %2 = load %"class.xercesc_2_7::SGXMLScanner"*, %"class.xercesc_2_7::SGXMLScanner"** %object.addr, align 8, !dbg !5025
  store %"class.xercesc_2_7::SGXMLScanner"* %2, %"class.xercesc_2_7::SGXMLScanner"** %fObject, align 8, !dbg !5024
  %fToCall = getelementptr inbounds %"class.xercesc_2_7::JanitorMemFunCall", %"class.xercesc_2_7::JanitorMemFunCall"* %this2, i32 0, i32 1, !dbg !5026
  %3 = load { i64, i64 }, { i64, i64 }* %toCall.addr, align 8, !dbg !5027
  store { i64, i64 } %3, { i64, i64 }* %fToCall, align 8, !dbg !5026
  ret void, !dbg !5028
}

; Function Attrs: noinline uwtable
define dso_local void @_ZN11xercesc_2_712SGXMLScanner10commonInitEv(%"class.xercesc_2_7::SGXMLScanner"* %this) #6 align 2 personality i8* bitcast (i32 (...)* @__gxx_personality_v0 to i8*) !dbg !5029 {
entry:
  %this.addr = alloca %"class.xercesc_2_7::SGXMLScanner"*, align 8
  %exn.slot = alloca i8*
  %ehselector.slot = alloca i32
  store %"class.xercesc_2_7::SGXMLScanner"* %this, %"class.xercesc_2_7::SGXMLScanner"** %this.addr, align 8
  call void @llvm.dbg.declare(metadata %"class.xercesc_2_7::SGXMLScanner"** %this.addr, metadata !5030, metadata !DIExpression()), !dbg !5031
  %this1 = load %"class.xercesc_2_7::SGXMLScanner"*, %"class.xercesc_2_7::SGXMLScanner"** %this.addr, align 8
  %0 = bitcast %"class.xercesc_2_7::SGXMLScanner"* %this1 to %"class.xercesc_2_7::XMLScanner"*, !dbg !5032
  %fMemoryManager = getelementptr inbounds %"class.xercesc_2_7::XMLScanner", %"class.xercesc_2_7::XMLScanner"* %0, i32 0, i32 62, !dbg !5032
  %1 = load %"class.xercesc_2_7::MemoryManager"*, %"class.xercesc_2_7::MemoryManager"** %fMemoryManager, align 8, !dbg !5032
  %fElemStateSize = getelementptr inbounds %"class.xercesc_2_7::SGXMLScanner", %"class.xercesc_2_7::SGXMLScanner"* %this1, i32 0, i32 3, !dbg !5033
  %2 = load i32, i32* %fElemStateSize, align 8, !dbg !5033
  %conv = zext i32 %2 to i64, !dbg !5033
  %mul = mul i64 %conv, 4, !dbg !5034
  %3 = bitcast %"class.xercesc_2_7::MemoryManager"* %1 to i8* (%"class.xercesc_2_7::MemoryManager"*, i64)***, !dbg !5035
  %vtable = load i8* (%"class.xercesc_2_7::MemoryManager"*, i64)**, i8* (%"class.xercesc_2_7::MemoryManager"*, i64)*** %3, align 8, !dbg !5035
  %vfn = getelementptr inbounds i8* (%"class.xercesc_2_7::MemoryManager"*, i64)*, i8* (%"class.xercesc_2_7::MemoryManager"*, i64)** %vtable, i64 2, !dbg !5035
  %4 = load i8* (%"class.xercesc_2_7::MemoryManager"*, i64)*, i8* (%"class.xercesc_2_7::MemoryManager"*, i64)** %vfn, align 8, !dbg !5035
  %call = call i8* %4(%"class.xercesc_2_7::MemoryManager"* %1, i64 %mul), !dbg !5035
  %5 = bitcast i8* %call to i32*, !dbg !5036
  %fElemState = getelementptr inbounds %"class.xercesc_2_7::SGXMLScanner", %"class.xercesc_2_7::SGXMLScanner"* %this1, i32 0, i32 4, !dbg !5037
  store i32* %5, i32** %fElemState, align 8, !dbg !5038
  %6 = bitcast %"class.xercesc_2_7::SGXMLScanner"* %this1 to %"class.xercesc_2_7::XMLScanner"*, !dbg !5039
  %fMemoryManager2 = getelementptr inbounds %"class.xercesc_2_7::XMLScanner", %"class.xercesc_2_7::XMLScanner"* %6, i32 0, i32 62, !dbg !5039
  %7 = load %"class.xercesc_2_7::MemoryManager"*, %"class.xercesc_2_7::MemoryManager"** %fMemoryManager2, align 8, !dbg !5039
  %call3 = call i8* @_ZN11xercesc_2_77XMemorynwEmPNS_13MemoryManagerE(i64 40, %"class.xercesc_2_7::MemoryManager"* %7), !dbg !5040
  %8 = bitcast i8* %call3 to %"class.xercesc_2_7::RefVectorOf.17"*, !dbg !5040
  %9 = bitcast %"class.xercesc_2_7::SGXMLScanner"* %this1 to %"class.xercesc_2_7::XMLScanner"*, !dbg !5041
  %fMemoryManager4 = getelementptr inbounds %"class.xercesc_2_7::XMLScanner", %"class.xercesc_2_7::XMLScanner"* %9, i32 0, i32 62, !dbg !5041
  %10 = load %"class.xercesc_2_7::MemoryManager"*, %"class.xercesc_2_7::MemoryManager"** %fMemoryManager4, align 8, !dbg !5041
  invoke void @_ZN11xercesc_2_711RefVectorOfINS_12KVStringPairEEC2EjbPNS_13MemoryManagerE(%"class.xercesc_2_7::RefVectorOf.17"* %8, i32 32, i1 zeroext true, %"class.xercesc_2_7::MemoryManager"* %10)
          to label %invoke.cont unwind label %lpad, !dbg !5042

invoke.cont:                                      ; preds = %entry
  %fRawAttrList = getelementptr inbounds %"class.xercesc_2_7::SGXMLScanner", %"class.xercesc_2_7::SGXMLScanner"* %this1, i32 0, i32 7, !dbg !5043
  store %"class.xercesc_2_7::RefVectorOf.17"* %8, %"class.xercesc_2_7::RefVectorOf.17"** %fRawAttrList, align 8, !dbg !5044
  %11 = bitcast %"class.xercesc_2_7::SGXMLScanner"* %this1 to %"class.xercesc_2_7::XMLScanner"*, !dbg !5045
  %fMemoryManager5 = getelementptr inbounds %"class.xercesc_2_7::XMLScanner", %"class.xercesc_2_7::XMLScanner"* %11, i32 0, i32 62, !dbg !5045
  %12 = load %"class.xercesc_2_7::MemoryManager"*, %"class.xercesc_2_7::MemoryManager"** %fMemoryManager5, align 8, !dbg !5045
  %fRawAttrColonListSize = getelementptr inbounds %"class.xercesc_2_7::SGXMLScanner", %"class.xercesc_2_7::SGXMLScanner"* %this1, i32 0, i32 8, !dbg !5046
  %13 = load i32, i32* %fRawAttrColonListSize, align 8, !dbg !5046
  %conv6 = zext i32 %13 to i64, !dbg !5046
  %mul7 = mul i64 %conv6, 4, !dbg !5047
  %14 = bitcast %"class.xercesc_2_7::MemoryManager"* %12 to i8* (%"class.xercesc_2_7::MemoryManager"*, i64)***, !dbg !5048
  %vtable8 = load i8* (%"class.xercesc_2_7::MemoryManager"*, i64)**, i8* (%"class.xercesc_2_7::MemoryManager"*, i64)*** %14, align 8, !dbg !5048
  %vfn9 = getelementptr inbounds i8* (%"class.xercesc_2_7::MemoryManager"*, i64)*, i8* (%"class.xercesc_2_7::MemoryManager"*, i64)** %vtable8, i64 2, !dbg !5048
  %15 = load i8* (%"class.xercesc_2_7::MemoryManager"*, i64)*, i8* (%"class.xercesc_2_7::MemoryManager"*, i64)** %vfn9, align 8, !dbg !5048
  %call10 = call i8* %15(%"class.xercesc_2_7::MemoryManager"* %12, i64 %mul7), !dbg !5048
  %16 = bitcast i8* %call10 to i32*, !dbg !5049
  %fRawAttrColonList = getelementptr inbounds %"class.xercesc_2_7::SGXMLScanner", %"class.xercesc_2_7::SGXMLScanner"* %this1, i32 0, i32 9, !dbg !5050
  store i32* %16, i32** %fRawAttrColonList, align 8, !dbg !5051
  %17 = bitcast %"class.xercesc_2_7::SGXMLScanner"* %this1 to %"class.xercesc_2_7::XMLScanner"*, !dbg !5052
  %fMemoryManager11 = getelementptr inbounds %"class.xercesc_2_7::XMLScanner", %"class.xercesc_2_7::XMLScanner"* %17, i32 0, i32 62, !dbg !5052
  %18 = load %"class.xercesc_2_7::MemoryManager"*, %"class.xercesc_2_7::MemoryManager"** %fMemoryManager11, align 8, !dbg !5052
  %call12 = call i8* @_ZN11xercesc_2_77XMemorynwEmPNS_13MemoryManagerE(i64 192, %"class.xercesc_2_7::MemoryManager"* %18), !dbg !5053
  %19 = bitcast i8* %call12 to %"class.xercesc_2_7::SchemaValidator"*, !dbg !5053
  %20 = bitcast %"class.xercesc_2_7::SGXMLScanner"* %this1 to %"class.xercesc_2_7::XMLScanner"*, !dbg !5054
  %fMemoryManager13 = getelementptr inbounds %"class.xercesc_2_7::XMLScanner", %"class.xercesc_2_7::XMLScanner"* %20, i32 0, i32 62, !dbg !5054
  %21 = load %"class.xercesc_2_7::MemoryManager"*, %"class.xercesc_2_7::MemoryManager"** %fMemoryManager13, align 8, !dbg !5054
  invoke void @_ZN11xercesc_2_715SchemaValidatorC1EPNS_16XMLErrorReporterEPNS_13MemoryManagerE(%"class.xercesc_2_7::SchemaValidator"* %19, %"class.xercesc_2_7::XMLErrorReporter"* null, %"class.xercesc_2_7::MemoryManager"* %21)
          to label %invoke.cont15 unwind label %lpad14, !dbg !5055

invoke.cont15:                                    ; preds = %invoke.cont
  %fSchemaValidator = getelementptr inbounds %"class.xercesc_2_7::SGXMLScanner", %"class.xercesc_2_7::SGXMLScanner"* %this1, i32 0, i32 11, !dbg !5056
  store %"class.xercesc_2_7::SchemaValidator"* %19, %"class.xercesc_2_7::SchemaValidator"** %fSchemaValidator, align 8, !dbg !5057
  %22 = bitcast %"class.xercesc_2_7::SGXMLScanner"* %this1 to %"class.xercesc_2_7::XMLScanner"*, !dbg !5058
  %fSchemaValidator16 = getelementptr inbounds %"class.xercesc_2_7::SGXMLScanner", %"class.xercesc_2_7::SGXMLScanner"* %this1, i32 0, i32 11, !dbg !5059
  %23 = load %"class.xercesc_2_7::SchemaValidator"*, %"class.xercesc_2_7::SchemaValidator"** %fSchemaValidator16, align 8, !dbg !5059
  %24 = bitcast %"class.xercesc_2_7::SchemaValidator"* %23 to %"class.xercesc_2_7::XMLValidator"*, !dbg !5059
  call void @_ZN11xercesc_2_710XMLScanner13initValidatorEPNS_12XMLValidatorE(%"class.xercesc_2_7::XMLScanner"* %22, %"class.xercesc_2_7::XMLValidator"* %24), !dbg !5058
  %25 = bitcast %"class.xercesc_2_7::SGXMLScanner"* %this1 to %"class.xercesc_2_7::XMLScanner"*, !dbg !5060
  %fMemoryManager17 = getelementptr inbounds %"class.xercesc_2_7::XMLScanner", %"class.xercesc_2_7::XMLScanner"* %25, i32 0, i32 62, !dbg !5060
  %26 = load %"class.xercesc_2_7::MemoryManager"*, %"class.xercesc_2_7::MemoryManager"** %fMemoryManager17, align 8, !dbg !5060
  %call18 = call i8* @_ZN11xercesc_2_77XMemorynwEmPNS_13MemoryManagerE(i64 48, %"class.xercesc_2_7::MemoryManager"* %26), !dbg !5061
  %27 = bitcast i8* %call18 to %"class.xercesc_2_7::IdentityConstraintHandler"*, !dbg !5061
  %28 = bitcast %"class.xercesc_2_7::SGXMLScanner"* %this1 to %"class.xercesc_2_7::XMLScanner"*, !dbg !5062
  %29 = bitcast %"class.xercesc_2_7::SGXMLScanner"* %this1 to %"class.xercesc_2_7::XMLScanner"*, !dbg !5063
  %fMemoryManager19 = getelementptr inbounds %"class.xercesc_2_7::XMLScanner", %"class.xercesc_2_7::XMLScanner"* %29, i32 0, i32 62, !dbg !5063
  %30 = load %"class.xercesc_2_7::MemoryManager"*, %"class.xercesc_2_7::MemoryManager"** %fMemoryManager19, align 8, !dbg !5063
  invoke void @_ZN11xercesc_2_725IdentityConstraintHandlerC1EPNS_10XMLScannerEPNS_13MemoryManagerE(%"class.xercesc_2_7::IdentityConstraintHandler"* %27, %"class.xercesc_2_7::XMLScanner"* %28, %"class.xercesc_2_7::MemoryManager"* %30)
          to label %invoke.cont21 unwind label %lpad20, !dbg !5064

invoke.cont21:                                    ; preds = %invoke.cont15
  %fICHandler = getelementptr inbounds %"class.xercesc_2_7::SGXMLScanner", %"class.xercesc_2_7::SGXMLScanner"* %this1, i32 0, i32 12, !dbg !5065
  store %"class.xercesc_2_7::IdentityConstraintHandler"* %27, %"class.xercesc_2_7::IdentityConstraintHandler"** %fICHandler, align 8, !dbg !5066
  %31 = bitcast %"class.xercesc_2_7::SGXMLScanner"* %this1 to %"class.xercesc_2_7::XMLScanner"*, !dbg !5067
  %fMemoryManager22 = getelementptr inbounds %"class.xercesc_2_7::XMLScanner", %"class.xercesc_2_7::XMLScanner"* %31, i32 0, i32 62, !dbg !5067
  %32 = load %"class.xercesc_2_7::MemoryManager"*, %"class.xercesc_2_7::MemoryManager"** %fMemoryManager22, align 8, !dbg !5067
  %call23 = call i8* @_ZN11xercesc_2_77XMemorynwEmPNS_13MemoryManagerE(i64 32, %"class.xercesc_2_7::MemoryManager"* %32), !dbg !5068
  %33 = bitcast i8* %call23 to %"class.xercesc_2_7::ValueHashTableOf"*, !dbg !5068
  %34 = bitcast %"class.xercesc_2_7::SGXMLScanner"* %this1 to %"class.xercesc_2_7::XMLScanner"*, !dbg !5069
  %fMemoryManager24 = getelementptr inbounds %"class.xercesc_2_7::XMLScanner", %"class.xercesc_2_7::XMLScanner"* %34, i32 0, i32 62, !dbg !5069
  %35 = load %"class.xercesc_2_7::MemoryManager"*, %"class.xercesc_2_7::MemoryManager"** %fMemoryManager24, align 8, !dbg !5069
  invoke void @_ZN11xercesc_2_716ValueHashTableOfItEC2EjPNS_13MemoryManagerE(%"class.xercesc_2_7::ValueHashTableOf"* %33, i32 11, %"class.xercesc_2_7::MemoryManager"* %35)
          to label %invoke.cont26 unwind label %lpad25, !dbg !5070

invoke.cont26:                                    ; preds = %invoke.cont21
  %fEntityTable = getelementptr inbounds %"class.xercesc_2_7::SGXMLScanner", %"class.xercesc_2_7::SGXMLScanner"* %this1, i32 0, i32 6, !dbg !5071
  store %"class.xercesc_2_7::ValueHashTableOf"* %33, %"class.xercesc_2_7::ValueHashTableOf"** %fEntityTable, align 8, !dbg !5072
  %fEntityTable27 = getelementptr inbounds %"class.xercesc_2_7::SGXMLScanner", %"class.xercesc_2_7::SGXMLScanner"* %this1, i32 0, i32 6, !dbg !5073
  %36 = load %"class.xercesc_2_7::ValueHashTableOf"*, %"class.xercesc_2_7::ValueHashTableOf"** %fEntityTable27, align 8, !dbg !5073
  call void @_ZN11xercesc_2_716ValueHashTableOfItE3putEPvRKt(%"class.xercesc_2_7::ValueHashTableOf"* %36, i8* bitcast ([0 x i16]* @_ZN11xercesc_2_76XMLUni5fgAmpE to i8*), i16* dereferenceable(2) @_ZN11xercesc_2_7L11chAmpersandE), !dbg !5074
  %fEntityTable28 = getelementptr inbounds %"class.xercesc_2_7::SGXMLScanner", %"class.xercesc_2_7::SGXMLScanner"* %this1, i32 0, i32 6, !dbg !5075
  %37 = load %"class.xercesc_2_7::ValueHashTableOf"*, %"class.xercesc_2_7::ValueHashTableOf"** %fEntityTable28, align 8, !dbg !5075
  call void @_ZN11xercesc_2_716ValueHashTableOfItE3putEPvRKt(%"class.xercesc_2_7::ValueHashTableOf"* %37, i8* bitcast ([0 x i16]* @_ZN11xercesc_2_76XMLUni4fgLTE to i8*), i16* dereferenceable(2) @_ZN11xercesc_2_7L11chOpenAngleE), !dbg !5076
  %fEntityTable29 = getelementptr inbounds %"class.xercesc_2_7::SGXMLScanner", %"class.xercesc_2_7::SGXMLScanner"* %this1, i32 0, i32 6, !dbg !5077
  %38 = load %"class.xercesc_2_7::ValueHashTableOf"*, %"class.xercesc_2_7::ValueHashTableOf"** %fEntityTable29, align 8, !dbg !5077
  call void @_ZN11xercesc_2_716ValueHashTableOfItE3putEPvRKt(%"class.xercesc_2_7::ValueHashTableOf"* %38, i8* bitcast ([0 x i16]* @_ZN11xercesc_2_76XMLUni4fgGTE to i8*), i16* dereferenceable(2) @_ZN11xercesc_2_7L12chCloseAngleE), !dbg !5078
  %fEntityTable30 = getelementptr inbounds %"class.xercesc_2_7::SGXMLScanner", %"class.xercesc_2_7::SGXMLScanner"* %this1, i32 0, i32 6, !dbg !5079
  %39 = load %"class.xercesc_2_7::ValueHashTableOf"*, %"class.xercesc_2_7::ValueHashTableOf"** %fEntityTable30, align 8, !dbg !5079
  call void @_ZN11xercesc_2_716ValueHashTableOfItE3putEPvRKt(%"class.xercesc_2_7::ValueHashTableOf"* %39, i8* bitcast ([0 x i16]* @_ZN11xercesc_2_76XMLUni6fgQuotE to i8*), i16* dereferenceable(2) @_ZN11xercesc_2_7L13chDoubleQuoteE), !dbg !5080
  %fEntityTable31 = getelementptr inbounds %"class.xercesc_2_7::SGXMLScanner", %"class.xercesc_2_7::SGXMLScanner"* %this1, i32 0, i32 6, !dbg !5081
  %40 = load %"class.xercesc_2_7::ValueHashTableOf"*, %"class.xercesc_2_7::ValueHashTableOf"** %fEntityTable31, align 8, !dbg !5081
  call void @_ZN11xercesc_2_716ValueHashTableOfItE3putEPvRKt(%"class.xercesc_2_7::ValueHashTableOf"* %40, i8* bitcast ([0 x i16]* @_ZN11xercesc_2_76XMLUni6fgAposE to i8*), i16* dereferenceable(2) @_ZN11xercesc_2_7L13chSingleQuoteE), !dbg !5082
  %41 = bitcast %"class.xercesc_2_7::SGXMLScanner"* %this1 to %"class.xercesc_2_7::XMLScanner"*, !dbg !5083
  %fMemoryManager32 = getelementptr inbounds %"class.xercesc_2_7::XMLScanner", %"class.xercesc_2_7::XMLScanner"* %41, i32 0, i32 62, !dbg !5083
  %42 = load %"class.xercesc_2_7::MemoryManager"*, %"class.xercesc_2_7::MemoryManager"** %fMemoryManager32, align 8, !dbg !5083
  %call33 = call i8* @_ZN11xercesc_2_77XMemorynwEmPNS_13MemoryManagerE(i64 56, %"class.xercesc_2_7::MemoryManager"* %42), !dbg !5084
  %43 = bitcast i8* %call33 to %"class.xercesc_2_7::RefHash3KeysIdPool"*, !dbg !5084
  %44 = bitcast %"class.xercesc_2_7::SGXMLScanner"* %this1 to %"class.xercesc_2_7::XMLScanner"*, !dbg !5085
  %fMemoryManager34 = getelementptr inbounds %"class.xercesc_2_7::XMLScanner", %"class.xercesc_2_7::XMLScanner"* %44, i32 0, i32 62, !dbg !5085
  %45 = load %"class.xercesc_2_7::MemoryManager"*, %"class.xercesc_2_7::MemoryManager"** %fMemoryManager34, align 8, !dbg !5085
  invoke void @_ZN11xercesc_2_718RefHash3KeysIdPoolINS_17SchemaElementDeclEEC2EjbjPNS_13MemoryManagerE(%"class.xercesc_2_7::RefHash3KeysIdPool"* %43, i32 29, i1 zeroext true, i32 128, %"class.xercesc_2_7::MemoryManager"* %45)
          to label %invoke.cont36 unwind label %lpad35, !dbg !5086

invoke.cont36:                                    ; preds = %invoke.cont26
  %fElemNonDeclPool = getelementptr inbounds %"class.xercesc_2_7::SGXMLScanner", %"class.xercesc_2_7::SGXMLScanner"* %this1, i32 0, i32 13, !dbg !5087
  store %"class.xercesc_2_7::RefHash3KeysIdPool"* %43, %"class.xercesc_2_7::RefHash3KeysIdPool"** %fElemNonDeclPool, align 8, !dbg !5088
  %46 = bitcast %"class.xercesc_2_7::SGXMLScanner"* %this1 to %"class.xercesc_2_7::XMLScanner"*, !dbg !5089
  %fMemoryManager37 = getelementptr inbounds %"class.xercesc_2_7::XMLScanner", %"class.xercesc_2_7::XMLScanner"* %46, i32 0, i32 62, !dbg !5089
  %47 = load %"class.xercesc_2_7::MemoryManager"*, %"class.xercesc_2_7::MemoryManager"** %fMemoryManager37, align 8, !dbg !5089
  %call38 = call i8* @_ZN11xercesc_2_77XMemorynwEmPNS_13MemoryManagerE(i64 48, %"class.xercesc_2_7::MemoryManager"* %47), !dbg !5090
  %48 = bitcast i8* %call38 to %"class.xercesc_2_7::RefHashTableOf.50"*, !dbg !5090
  %49 = bitcast %"class.xercesc_2_7::SGXMLScanner"* %this1 to %"class.xercesc_2_7::XMLScanner"*, !dbg !5091
  %fMemoryManager39 = getelementptr inbounds %"class.xercesc_2_7::XMLScanner", %"class.xercesc_2_7::XMLScanner"* %49, i32 0, i32 62, !dbg !5091
  %50 = load %"class.xercesc_2_7::MemoryManager"*, %"class.xercesc_2_7::MemoryManager"** %fMemoryManager39, align 8, !dbg !5091
  %call42 = invoke i8* @_ZN11xercesc_2_77XMemorynwEmPNS_13MemoryManagerE(i64 8, %"class.xercesc_2_7::MemoryManager"* %50)
          to label %invoke.cont41 unwind label %lpad40, !dbg !5092

invoke.cont41:                                    ; preds = %invoke.cont36
  %51 = bitcast i8* %call42 to %"class.xercesc_2_7::HashPtr"*, !dbg !5092
  invoke void @_ZN11xercesc_2_77HashPtrC1Ev(%"class.xercesc_2_7::HashPtr"* %51)
          to label %invoke.cont44 unwind label %lpad43, !dbg !5093

invoke.cont44:                                    ; preds = %invoke.cont41
  %52 = bitcast %"class.xercesc_2_7::HashPtr"* %51 to %"class.xercesc_2_7::HashBase"*, !dbg !5092
  %53 = bitcast %"class.xercesc_2_7::SGXMLScanner"* %this1 to %"class.xercesc_2_7::XMLScanner"*, !dbg !5094
  %fMemoryManager45 = getelementptr inbounds %"class.xercesc_2_7::XMLScanner", %"class.xercesc_2_7::XMLScanner"* %53, i32 0, i32 62, !dbg !5094
  %54 = load %"class.xercesc_2_7::MemoryManager"*, %"class.xercesc_2_7::MemoryManager"** %fMemoryManager45, align 8, !dbg !5094
  invoke void @_ZN11xercesc_2_714RefHashTableOfIjEC2EjbPNS_8HashBaseEPNS_13MemoryManagerE(%"class.xercesc_2_7::RefHashTableOf.50"* %48, i32 131, i1 zeroext false, %"class.xercesc_2_7::HashBase"* %52, %"class.xercesc_2_7::MemoryManager"* %54)
          to label %invoke.cont46 unwind label %lpad40, !dbg !5095

invoke.cont46:                                    ; preds = %invoke.cont44
  %fAttDefRegistry = getelementptr inbounds %"class.xercesc_2_7::SGXMLScanner", %"class.xercesc_2_7::SGXMLScanner"* %this1, i32 0, i32 15, !dbg !5096
  store %"class.xercesc_2_7::RefHashTableOf.50"* %48, %"class.xercesc_2_7::RefHashTableOf.50"** %fAttDefRegistry, align 8, !dbg !5097
  %55 = bitcast %"class.xercesc_2_7::SGXMLScanner"* %this1 to %"class.xercesc_2_7::XMLScanner"*, !dbg !5098
  %fMemoryManager47 = getelementptr inbounds %"class.xercesc_2_7::XMLScanner", %"class.xercesc_2_7::XMLScanner"* %55, i32 0, i32 62, !dbg !5098
  %56 = load %"class.xercesc_2_7::MemoryManager"*, %"class.xercesc_2_7::MemoryManager"** %fMemoryManager47, align 8, !dbg !5098
  %call48 = call i8* @_ZN11xercesc_2_77XMemorynwEmPNS_13MemoryManagerE(i64 40, %"class.xercesc_2_7::MemoryManager"* %56), !dbg !5099
  %57 = bitcast i8* %call48 to %"class.xercesc_2_7::RefHash2KeysTableOf.52"*, !dbg !5099
  %58 = bitcast %"class.xercesc_2_7::SGXMLScanner"* %this1 to %"class.xercesc_2_7::XMLScanner"*, !dbg !5100
  %fMemoryManager49 = getelementptr inbounds %"class.xercesc_2_7::XMLScanner", %"class.xercesc_2_7::XMLScanner"* %58, i32 0, i32 62, !dbg !5100
  %59 = load %"class.xercesc_2_7::MemoryManager"*, %"class.xercesc_2_7::MemoryManager"** %fMemoryManager49, align 8, !dbg !5100
  %call52 = invoke i8* @_ZN11xercesc_2_77XMemorynwEmPNS_13MemoryManagerE(i64 8, %"class.xercesc_2_7::MemoryManager"* %59)
          to label %invoke.cont51 unwind label %lpad50, !dbg !5101

invoke.cont51:                                    ; preds = %invoke.cont46
  %60 = bitcast i8* %call52 to %"class.xercesc_2_7::HashXMLCh"*, !dbg !5101
  invoke void @_ZN11xercesc_2_79HashXMLChC1Ev(%"class.xercesc_2_7::HashXMLCh"* %60)
          to label %invoke.cont54 unwind label %lpad53, !dbg !5102

invoke.cont54:                                    ; preds = %invoke.cont51
  %61 = bitcast %"class.xercesc_2_7::HashXMLCh"* %60 to %"class.xercesc_2_7::HashBase"*, !dbg !5101
  %62 = bitcast %"class.xercesc_2_7::SGXMLScanner"* %this1 to %"class.xercesc_2_7::XMLScanner"*, !dbg !5103
  %fMemoryManager56 = getelementptr inbounds %"class.xercesc_2_7::XMLScanner", %"class.xercesc_2_7::XMLScanner"* %62, i32 0, i32 62, !dbg !5103
  %63 = load %"class.xercesc_2_7::MemoryManager"*, %"class.xercesc_2_7::MemoryManager"** %fMemoryManager56, align 8, !dbg !5103
  invoke void @_ZN11xercesc_2_719RefHash2KeysTableOfIjEC2EjbPNS_8HashBaseEPNS_13MemoryManagerE(%"class.xercesc_2_7::RefHash2KeysTableOf.52"* %57, i32 7, i1 zeroext false, %"class.xercesc_2_7::HashBase"* %61, %"class.xercesc_2_7::MemoryManager"* %63)
          to label %invoke.cont57 unwind label %lpad50, !dbg !5104

invoke.cont57:                                    ; preds = %invoke.cont54
  %fUndeclaredAttrRegistryNS = getelementptr inbounds %"class.xercesc_2_7::SGXMLScanner", %"class.xercesc_2_7::SGXMLScanner"* %this1, i32 0, i32 16, !dbg !5105
  store %"class.xercesc_2_7::RefHash2KeysTableOf.52"* %57, %"class.xercesc_2_7::RefHash2KeysTableOf.52"** %fUndeclaredAttrRegistryNS, align 8, !dbg !5106
  %64 = bitcast %"class.xercesc_2_7::SGXMLScanner"* %this1 to %"class.xercesc_2_7::XMLScanner"*, !dbg !5107
  %fMemoryManager59 = getelementptr inbounds %"class.xercesc_2_7::XMLScanner", %"class.xercesc_2_7::XMLScanner"* %64, i32 0, i32 62, !dbg !5107
  %65 = load %"class.xercesc_2_7::MemoryManager"*, %"class.xercesc_2_7::MemoryManager"** %fMemoryManager59, align 8, !dbg !5107
  %call60 = call i8* @_ZN11xercesc_2_77XMemorynwEmPNS_13MemoryManagerE(i64 40, %"class.xercesc_2_7::MemoryManager"* %65), !dbg !5108
  %66 = bitcast i8* %call60 to %"class.xercesc_2_7::PSVIAttributeList"*, !dbg !5108
  %67 = bitcast %"class.xercesc_2_7::SGXMLScanner"* %this1 to %"class.xercesc_2_7::XMLScanner"*, !dbg !5109
  %fMemoryManager61 = getelementptr inbounds %"class.xercesc_2_7::XMLScanner", %"class.xercesc_2_7::XMLScanner"* %67, i32 0, i32 62, !dbg !5109
  %68 = load %"class.xercesc_2_7::MemoryManager"*, %"class.xercesc_2_7::MemoryManager"** %fMemoryManager61, align 8, !dbg !5109
  invoke void @_ZN11xercesc_2_717PSVIAttributeListC1EPNS_13MemoryManagerE(%"class.xercesc_2_7::PSVIAttributeList"* %66, %"class.xercesc_2_7::MemoryManager"* %68)
          to label %invoke.cont63 unwind label %lpad62, !dbg !5110

invoke.cont63:                                    ; preds = %invoke.cont57
  %fPSVIAttrList = getelementptr inbounds %"class.xercesc_2_7::SGXMLScanner", %"class.xercesc_2_7::SGXMLScanner"* %this1, i32 0, i32 17, !dbg !5111
  store %"class.xercesc_2_7::PSVIAttributeList"* %66, %"class.xercesc_2_7::PSVIAttributeList"** %fPSVIAttrList, align 8, !dbg !5112
  %69 = bitcast %"class.xercesc_2_7::SGXMLScanner"* %this1 to %"class.xercesc_2_7::XMLScanner"*, !dbg !5113
  %fValidator = getelementptr inbounds %"class.xercesc_2_7::XMLScanner", %"class.xercesc_2_7::XMLScanner"* %69, i32 0, i32 50, !dbg !5113
  %70 = load %"class.xercesc_2_7::XMLValidator"*, %"class.xercesc_2_7::XMLValidator"** %fValidator, align 8, !dbg !5113
  %tobool = icmp ne %"class.xercesc_2_7::XMLValidator"* %70, null, !dbg !5113
  br i1 %tobool, label %if.then, label %if.else, !dbg !5115

if.then:                                          ; preds = %invoke.cont63
  %71 = bitcast %"class.xercesc_2_7::SGXMLScanner"* %this1 to %"class.xercesc_2_7::XMLScanner"*, !dbg !5116
  %fValidator65 = getelementptr inbounds %"class.xercesc_2_7::XMLScanner", %"class.xercesc_2_7::XMLScanner"* %71, i32 0, i32 50, !dbg !5116
  %72 = load %"class.xercesc_2_7::XMLValidator"*, %"class.xercesc_2_7::XMLValidator"** %fValidator65, align 8, !dbg !5116
  %73 = bitcast %"class.xercesc_2_7::XMLValidator"* %72 to i1 (%"class.xercesc_2_7::XMLValidator"*)***, !dbg !5119
  %vtable66 = load i1 (%"class.xercesc_2_7::XMLValidator"*)**, i1 (%"class.xercesc_2_7::XMLValidator"*)*** %73, align 8, !dbg !5119
  %vfn67 = getelementptr inbounds i1 (%"class.xercesc_2_7::XMLValidator"*)*, i1 (%"class.xercesc_2_7::XMLValidator"*)** %vtable66, i64 13, !dbg !5119
  %74 = load i1 (%"class.xercesc_2_7::XMLValidator"*)*, i1 (%"class.xercesc_2_7::XMLValidator"*)** %vfn67, align 8, !dbg !5119
  %call68 = call zeroext i1 %74(%"class.xercesc_2_7::XMLValidator"* %72), !dbg !5119
  br i1 %call68, label %if.end, label %if.then69, !dbg !5120

if.then69:                                        ; preds = %if.then
  %exception = call i8* @__cxa_allocate_exception(i64 48) #10, !dbg !5121
  %75 = bitcast i8* %exception to %"class.xercesc_2_7::RuntimeException"*, !dbg !5121
  %76 = bitcast %"class.xercesc_2_7::SGXMLScanner"* %this1 to %"class.xercesc_2_7::XMLScanner"*, !dbg !5121
  %fMemoryManager70 = getelementptr inbounds %"class.xercesc_2_7::XMLScanner", %"class.xercesc_2_7::XMLScanner"* %76, i32 0, i32 62, !dbg !5121
  %77 = load %"class.xercesc_2_7::MemoryManager"*, %"class.xercesc_2_7::MemoryManager"** %fMemoryManager70, align 8, !dbg !5121
  invoke void @_ZN11xercesc_2_716RuntimeExceptionC2EPKcjNS_10XMLExcepts5CodesEPNS_13MemoryManagerE(%"class.xercesc_2_7::RuntimeException"* %75, i8* getelementptr inbounds ([17 x i8], [17 x i8]* @.str, i64 0, i64 0), i32 2017, i32 158, %"class.xercesc_2_7::MemoryManager"* %77)
          to label %invoke.cont72 unwind label %lpad71, !dbg !5121

invoke.cont72:                                    ; preds = %if.then69
  call void @__cxa_throw(i8* %exception, i8* bitcast ({ i8*, i8*, i8* }* @_ZTIN11xercesc_2_716RuntimeExceptionE to i8*), i8* bitcast (void (%"class.xercesc_2_7::RuntimeException"*)* @_ZN11xercesc_2_716RuntimeExceptionD2Ev to i8*)) #13, !dbg !5121
  unreachable, !dbg !5121

lpad:                                             ; preds = %entry
  %78 = landingpad { i8*, i32 }
          cleanup, !dbg !5122
  %79 = extractvalue { i8*, i32 } %78, 0, !dbg !5122
  store i8* %79, i8** %exn.slot, align 8, !dbg !5122
  %80 = extractvalue { i8*, i32 } %78, 1, !dbg !5122
  store i32 %80, i32* %ehselector.slot, align 4, !dbg !5122
  call void @_ZN11xercesc_2_77XMemorydlEPvPNS_13MemoryManagerE(i8* %call3, %"class.xercesc_2_7::MemoryManager"* %7) #10, !dbg !5040
  br label %eh.resume, !dbg !5040

lpad14:                                           ; preds = %invoke.cont
  %81 = landingpad { i8*, i32 }
          cleanup, !dbg !5122
  %82 = extractvalue { i8*, i32 } %81, 0, !dbg !5122
  store i8* %82, i8** %exn.slot, align 8, !dbg !5122
  %83 = extractvalue { i8*, i32 } %81, 1, !dbg !5122
  store i32 %83, i32* %ehselector.slot, align 4, !dbg !5122
  call void @_ZN11xercesc_2_77XMemorydlEPvPNS_13MemoryManagerE(i8* %call12, %"class.xercesc_2_7::MemoryManager"* %18) #10, !dbg !5053
  br label %eh.resume, !dbg !5053

lpad20:                                           ; preds = %invoke.cont15
  %84 = landingpad { i8*, i32 }
          cleanup, !dbg !5122
  %85 = extractvalue { i8*, i32 } %84, 0, !dbg !5122
  store i8* %85, i8** %exn.slot, align 8, !dbg !5122
  %86 = extractvalue { i8*, i32 } %84, 1, !dbg !5122
  store i32 %86, i32* %ehselector.slot, align 4, !dbg !5122
  call void @_ZN11xercesc_2_77XMemorydlEPvPNS_13MemoryManagerE(i8* %call18, %"class.xercesc_2_7::MemoryManager"* %26) #10, !dbg !5061
  br label %eh.resume, !dbg !5061

lpad25:                                           ; preds = %invoke.cont21
  %87 = landingpad { i8*, i32 }
          cleanup, !dbg !5122
  %88 = extractvalue { i8*, i32 } %87, 0, !dbg !5122
  store i8* %88, i8** %exn.slot, align 8, !dbg !5122
  %89 = extractvalue { i8*, i32 } %87, 1, !dbg !5122
  store i32 %89, i32* %ehselector.slot, align 4, !dbg !5122
  call void @_ZN11xercesc_2_77XMemorydlEPvPNS_13MemoryManagerE(i8* %call23, %"class.xercesc_2_7::MemoryManager"* %32) #10, !dbg !5068
  br label %eh.resume, !dbg !5068

lpad35:                                           ; preds = %invoke.cont26
  %90 = landingpad { i8*, i32 }
          cleanup, !dbg !5122
  %91 = extractvalue { i8*, i32 } %90, 0, !dbg !5122
  store i8* %91, i8** %exn.slot, align 8, !dbg !5122
  %92 = extractvalue { i8*, i32 } %90, 1, !dbg !5122
  store i32 %92, i32* %ehselector.slot, align 4, !dbg !5122
  call void @_ZN11xercesc_2_77XMemorydlEPvPNS_13MemoryManagerE(i8* %call33, %"class.xercesc_2_7::MemoryManager"* %42) #10, !dbg !5084
  br label %eh.resume, !dbg !5084

lpad40:                                           ; preds = %invoke.cont44, %invoke.cont36
  %93 = landingpad { i8*, i32 }
          cleanup, !dbg !5122
  %94 = extractvalue { i8*, i32 } %93, 0, !dbg !5122
  store i8* %94, i8** %exn.slot, align 8, !dbg !5122
  %95 = extractvalue { i8*, i32 } %93, 1, !dbg !5122
  store i32 %95, i32* %ehselector.slot, align 4, !dbg !5122
  br label %ehcleanup, !dbg !5122

lpad43:                                           ; preds = %invoke.cont41
  %96 = landingpad { i8*, i32 }
          cleanup, !dbg !5122
  %97 = extractvalue { i8*, i32 } %96, 0, !dbg !5122
  store i8* %97, i8** %exn.slot, align 8, !dbg !5122
  %98 = extractvalue { i8*, i32 } %96, 1, !dbg !5122
  store i32 %98, i32* %ehselector.slot, align 4, !dbg !5122
  call void @_ZN11xercesc_2_77XMemorydlEPvPNS_13MemoryManagerE(i8* %call42, %"class.xercesc_2_7::MemoryManager"* %50) #10, !dbg !5092
  br label %ehcleanup, !dbg !5092

ehcleanup:                                        ; preds = %lpad43, %lpad40
  call void @_ZN11xercesc_2_77XMemorydlEPvPNS_13MemoryManagerE(i8* %call38, %"class.xercesc_2_7::MemoryManager"* %47) #10, !dbg !5090
  br label %eh.resume, !dbg !5090

lpad50:                                           ; preds = %invoke.cont54, %invoke.cont46
  %99 = landingpad { i8*, i32 }
          cleanup, !dbg !5122
  %100 = extractvalue { i8*, i32 } %99, 0, !dbg !5122
  store i8* %100, i8** %exn.slot, align 8, !dbg !5122
  %101 = extractvalue { i8*, i32 } %99, 1, !dbg !5122
  store i32 %101, i32* %ehselector.slot, align 4, !dbg !5122
  br label %ehcleanup58, !dbg !5122

lpad53:                                           ; preds = %invoke.cont51
  %102 = landingpad { i8*, i32 }
          cleanup, !dbg !5122
  %103 = extractvalue { i8*, i32 } %102, 0, !dbg !5122
  store i8* %103, i8** %exn.slot, align 8, !dbg !5122
  %104 = extractvalue { i8*, i32 } %102, 1, !dbg !5122
  store i32 %104, i32* %ehselector.slot, align 4, !dbg !5122
  call void @_ZN11xercesc_2_77XMemorydlEPvPNS_13MemoryManagerE(i8* %call52, %"class.xercesc_2_7::MemoryManager"* %59) #10, !dbg !5101
  br label %ehcleanup58, !dbg !5101

ehcleanup58:                                      ; preds = %lpad53, %lpad50
  call void @_ZN11xercesc_2_77XMemorydlEPvPNS_13MemoryManagerE(i8* %call48, %"class.xercesc_2_7::MemoryManager"* %56) #10, !dbg !5099
  br label %eh.resume, !dbg !5099

lpad62:                                           ; preds = %invoke.cont57
  %105 = landingpad { i8*, i32 }
          cleanup, !dbg !5122
  %106 = extractvalue { i8*, i32 } %105, 0, !dbg !5122
  store i8* %106, i8** %exn.slot, align 8, !dbg !5122
  %107 = extractvalue { i8*, i32 } %105, 1, !dbg !5122
  store i32 %107, i32* %ehselector.slot, align 4, !dbg !5122
  call void @_ZN11xercesc_2_77XMemorydlEPvPNS_13MemoryManagerE(i8* %call60, %"class.xercesc_2_7::MemoryManager"* %65) #10, !dbg !5108
  br label %eh.resume, !dbg !5108

lpad71:                                           ; preds = %if.then69
  %108 = landingpad { i8*, i32 }
          cleanup, !dbg !5123
  %109 = extractvalue { i8*, i32 } %108, 0, !dbg !5123
  store i8* %109, i8** %exn.slot, align 8, !dbg !5123
  %110 = extractvalue { i8*, i32 } %108, 1, !dbg !5123
  store i32 %110, i32* %ehselector.slot, align 4, !dbg !5123
  call void @__cxa_free_exception(i8* %exception) #10, !dbg !5121
  br label %eh.resume, !dbg !5121

if.end:                                           ; preds = %if.then
  br label %if.end76, !dbg !5124

if.else:                                          ; preds = %invoke.cont63
  %fSchemaValidator74 = getelementptr inbounds %"class.xercesc_2_7::SGXMLScanner", %"class.xercesc_2_7::SGXMLScanner"* %this1, i32 0, i32 11, !dbg !5125
  %111 = load %"class.xercesc_2_7::SchemaValidator"*, %"class.xercesc_2_7::SchemaValidator"** %fSchemaValidator74, align 8, !dbg !5125
  %112 = bitcast %"class.xercesc_2_7::SchemaValidator"* %111 to %"class.xercesc_2_7::XMLValidator"*, !dbg !5125
  %113 = bitcast %"class.xercesc_2_7::SGXMLScanner"* %this1 to %"class.xercesc_2_7::XMLScanner"*, !dbg !5127
  %fValidator75 = getelementptr inbounds %"class.xercesc_2_7::XMLScanner", %"class.xercesc_2_7::XMLScanner"* %113, i32 0, i32 50, !dbg !5127
  store %"class.xercesc_2_7::XMLValidator"* %112, %"class.xercesc_2_7::XMLValidator"** %fValidator75, align 8, !dbg !5128
  br label %if.end76

if.end76:                                         ; preds = %if.else, %if.end
  ret void, !dbg !5122

eh.resume:                                        ; preds = %lpad71, %lpad62, %ehcleanup58, %ehcleanup, %lpad35, %lpad25, %lpad20, %lpad14, %lpad
  %exn = load i8*, i8** %exn.slot, align 8, !dbg !5040
  %sel = load i32, i32* %ehselector.slot, align 4, !dbg !5040
  %lpad.val = insertvalue { i8*, i32 } undef, i8* %exn, 0, !dbg !5040
  %lpad.val77 = insertvalue { i8*, i32 } %lpad.val, i32 %sel, 1, !dbg !5040
  resume { i8*, i32 } %lpad.val77, !dbg !5040
}

; Function Attrs: nounwind readnone
declare i32 @llvm.eh.typeid.for(i8*) #8

; Function Attrs: noinline nounwind uwtable
define linkonce_odr dso_local void @_ZN11xercesc_2_717JanitorMemFunCallINS_12SGXMLScannerEE7releaseEv(%"class.xercesc_2_7::JanitorMemFunCall"* %this) #1 comdat align 2 !dbg !5129 {
entry:
  %this.addr = alloca %"class.xercesc_2_7::JanitorMemFunCall"*, align 8
  store %"class.xercesc_2_7::JanitorMemFunCall"* %this, %"class.xercesc_2_7::JanitorMemFunCall"** %this.addr, align 8
  call void @llvm.dbg.declare(metadata %"class.xercesc_2_7::JanitorMemFunCall"** %this.addr, metadata !5130, metadata !DIExpression()), !dbg !5131
  %this1 = load %"class.xercesc_2_7::JanitorMemFunCall"*, %"class.xercesc_2_7::JanitorMemFunCall"** %this.addr, align 8
  %fObject = getelementptr inbounds %"class.xercesc_2_7::JanitorMemFunCall", %"class.xercesc_2_7::JanitorMemFunCall"* %this1, i32 0, i32 0, !dbg !5132
  store %"class.xercesc_2_7::SGXMLScanner"* null, %"class.xercesc_2_7::SGXMLScanner"** %fObject, align 8, !dbg !5133
  %fToCall = getelementptr inbounds %"class.xercesc_2_7::JanitorMemFunCall", %"class.xercesc_2_7::JanitorMemFunCall"* %this1, i32 0, i32 1, !dbg !5134
  store { i64, i64 } zeroinitializer, { i64, i64 }* %fToCall, align 8, !dbg !5135
  ret void, !dbg !5136
}

declare dso_local void @__cxa_rethrow()

declare dso_local void @__cxa_end_catch()

; Function Attrs: noinline nounwind uwtable
define linkonce_odr dso_local void @_ZN11xercesc_2_717JanitorMemFunCallINS_12SGXMLScannerEED2Ev(%"class.xercesc_2_7::JanitorMemFunCall"* %this) unnamed_addr #1 comdat align 2 personality i8* bitcast (i32 (...)* @__gxx_personality_v0 to i8*) !dbg !5137 {
entry:
  %this.addr = alloca %"class.xercesc_2_7::JanitorMemFunCall"*, align 8
  store %"class.xercesc_2_7::JanitorMemFunCall"* %this, %"class.xercesc_2_7::JanitorMemFunCall"** %this.addr, align 8
  call void @llvm.dbg.declare(metadata %"class.xercesc_2_7::JanitorMemFunCall"** %this.addr, metadata !5138, metadata !DIExpression()), !dbg !5139
  %this1 = load %"class.xercesc_2_7::JanitorMemFunCall"*, %"class.xercesc_2_7::JanitorMemFunCall"** %this.addr, align 8
  %fObject = getelementptr inbounds %"class.xercesc_2_7::JanitorMemFunCall", %"class.xercesc_2_7::JanitorMemFunCall"* %this1, i32 0, i32 0, !dbg !5140
  %0 = load %"class.xercesc_2_7::SGXMLScanner"*, %"class.xercesc_2_7::SGXMLScanner"** %fObject, align 8, !dbg !5140
  %cmp = icmp ne %"class.xercesc_2_7::SGXMLScanner"* %0, null, !dbg !5143
  br i1 %cmp, label %land.lhs.true, label %if.end, !dbg !5144

land.lhs.true:                                    ; preds = %entry
  %fToCall = getelementptr inbounds %"class.xercesc_2_7::JanitorMemFunCall", %"class.xercesc_2_7::JanitorMemFunCall"* %this1, i32 0, i32 1, !dbg !5145
  %1 = load { i64, i64 }, { i64, i64 }* %fToCall, align 8, !dbg !5145
  %lhs.memptr.ptr = extractvalue { i64, i64 } %1, 0, !dbg !5146
  %cmp.ptr = icmp ne i64 %lhs.memptr.ptr, 0, !dbg !5146
  %cmp.ptr.null = icmp ne i64 %lhs.memptr.ptr, 0, !dbg !5146
  %lhs.memptr.adj = extractvalue { i64, i64 } %1, 1, !dbg !5146
  %cmp.adj = icmp ne i64 %lhs.memptr.adj, 0, !dbg !5146
  %2 = and i1 %cmp.ptr.null, %cmp.adj, !dbg !5146
  %memptr.ne = or i1 %cmp.ptr, %2, !dbg !5146
  br i1 %memptr.ne, label %if.then, label %if.end, !dbg !5147

if.then:                                          ; preds = %land.lhs.true
  %fObject2 = getelementptr inbounds %"class.xercesc_2_7::JanitorMemFunCall", %"class.xercesc_2_7::JanitorMemFunCall"* %this1, i32 0, i32 0, !dbg !5148
  %3 = load %"class.xercesc_2_7::SGXMLScanner"*, %"class.xercesc_2_7::SGXMLScanner"** %fObject2, align 8, !dbg !5148
  %fToCall3 = getelementptr inbounds %"class.xercesc_2_7::JanitorMemFunCall", %"class.xercesc_2_7::JanitorMemFunCall"* %this1, i32 0, i32 1, !dbg !5150
  %4 = load { i64, i64 }, { i64, i64 }* %fToCall3, align 8, !dbg !5150
  %memptr.adj = extractvalue { i64, i64 } %4, 1, !dbg !5151
  %5 = bitcast %"class.xercesc_2_7::SGXMLScanner"* %3 to i8*, !dbg !5151
  %6 = getelementptr inbounds i8, i8* %5, i64 %memptr.adj, !dbg !5151
  %this.adjusted = bitcast i8* %6 to %"class.xercesc_2_7::SGXMLScanner"*, !dbg !5151
  %memptr.ptr = extractvalue { i64, i64 } %4, 0, !dbg !5151
  %7 = and i64 %memptr.ptr, 1, !dbg !5151
  %memptr.isvirtual = icmp ne i64 %7, 0, !dbg !5151
  br i1 %memptr.isvirtual, label %memptr.virtual, label %memptr.nonvirtual, !dbg !5151

memptr.virtual:                                   ; preds = %if.then
  %8 = bitcast %"class.xercesc_2_7::SGXMLScanner"* %this.adjusted to i8**, !dbg !5151
  %vtable = load i8*, i8** %8, align 8, !dbg !5151
  %9 = sub i64 %memptr.ptr, 1, !dbg !5151
  %10 = getelementptr i8, i8* %vtable, i64 %9, !dbg !5151, !nosanitize !3185
  %11 = bitcast i8* %10 to void (%"class.xercesc_2_7::SGXMLScanner"*)**, !dbg !5151, !nosanitize !3185
  %memptr.virtualfn = load void (%"class.xercesc_2_7::SGXMLScanner"*)*, void (%"class.xercesc_2_7::SGXMLScanner"*)** %11, align 8, !dbg !5151, !nosanitize !3185
  br label %memptr.end, !dbg !5151

memptr.nonvirtual:                                ; preds = %if.then
  %memptr.nonvirtualfn = inttoptr i64 %memptr.ptr to void (%"class.xercesc_2_7::SGXMLScanner"*)*, !dbg !5151
  br label %memptr.end, !dbg !5151

memptr.end:                                       ; preds = %memptr.nonvirtual, %memptr.virtual
  %12 = phi void (%"class.xercesc_2_7::SGXMLScanner"*)* [ %memptr.virtualfn, %memptr.virtual ], [ %memptr.nonvirtualfn, %memptr.nonvirtual ], !dbg !5151
  invoke void %12(%"class.xercesc_2_7::SGXMLScanner"* %this.adjusted)
          to label %invoke.cont unwind label %terminate.lpad, !dbg !5151

invoke.cont:                                      ; preds = %memptr.end
  br label %if.end, !dbg !5152

if.end:                                           ; preds = %invoke.cont, %land.lhs.true, %entry
  ret void, !dbg !5153

terminate.lpad:                                   ; preds = %memptr.end
  %13 = landingpad { i8*, i32 }
          catch i8* null, !dbg !5151
  %14 = extractvalue { i8*, i32 } %13, 0, !dbg !5151
  call void @__clang_call_terminate(i8* %14) #12, !dbg !5151
  unreachable, !dbg !5151
}

; Function Attrs: noinline nounwind uwtable
define linkonce_odr dso_local void @_ZN11xercesc_2_79XMLBufferD2Ev(%"class.xercesc_2_7::XMLBuffer"* %this) unnamed_addr #1 comdat align 2 personality i8* bitcast (i32 (...)* @__gxx_personality_v0 to i8*) !dbg !5154 {
entry:
  %this.addr = alloca %"class.xercesc_2_7::XMLBuffer"*, align 8
  store %"class.xercesc_2_7::XMLBuffer"* %this, %"class.xercesc_2_7::XMLBuffer"** %this.addr, align 8
  call void @llvm.dbg.declare(metadata %"class.xercesc_2_7::XMLBuffer"** %this.addr, metadata !5155, metadata !DIExpression()), !dbg !5156
  %this1 = load %"class.xercesc_2_7::XMLBuffer"*, %"class.xercesc_2_7::XMLBuffer"** %this.addr, align 8
  %fMemoryManager = getelementptr inbounds %"class.xercesc_2_7::XMLBuffer", %"class.xercesc_2_7::XMLBuffer"* %this1, i32 0, i32 4, !dbg !5157
  %0 = load %"class.xercesc_2_7::MemoryManager"*, %"class.xercesc_2_7::MemoryManager"** %fMemoryManager, align 8, !dbg !5157
  %fBuffer = getelementptr inbounds %"class.xercesc_2_7::XMLBuffer", %"class.xercesc_2_7::XMLBuffer"* %this1, i32 0, i32 6, !dbg !5159
  %1 = load i16*, i16** %fBuffer, align 8, !dbg !5159
  %2 = bitcast i16* %1 to i8*, !dbg !5159
  %3 = bitcast %"class.xercesc_2_7::MemoryManager"* %0 to void (%"class.xercesc_2_7::MemoryManager"*, i8*)***, !dbg !5160
  %vtable = load void (%"class.xercesc_2_7::MemoryManager"*, i8*)**, void (%"class.xercesc_2_7::MemoryManager"*, i8*)*** %3, align 8, !dbg !5160
  %vfn = getelementptr inbounds void (%"class.xercesc_2_7::MemoryManager"*, i8*)*, void (%"class.xercesc_2_7::MemoryManager"*, i8*)** %vtable, i64 3, !dbg !5160
  %4 = load void (%"class.xercesc_2_7::MemoryManager"*, i8*)*, void (%"class.xercesc_2_7::MemoryManager"*, i8*)** %vfn, align 8, !dbg !5160
  invoke void %4(%"class.xercesc_2_7::MemoryManager"* %0, i8* %2)
          to label %invoke.cont unwind label %terminate.lpad, !dbg !5160

invoke.cont:                                      ; preds = %entry
  ret void, !dbg !5161

terminate.lpad:                                   ; preds = %entry
  %5 = landingpad { i8*, i32 }
          catch i8* null, !dbg !5160
  %6 = extractvalue { i8*, i32 } %5, 0, !dbg !5160
  call void @__clang_call_terminate(i8* %6) #12, !dbg !5160
  unreachable, !dbg !5160
}

; Function Attrs: nounwind
declare dso_local void @_ZN11xercesc_2_710XMLScannerD2Ev(%"class.xercesc_2_7::XMLScanner"*) unnamed_addr #4

; Function Attrs: noinline uwtable
define dso_local void @_ZN11xercesc_2_712SGXMLScannerC2EPNS_18XMLDocumentHandlerEPNS_14DocTypeHandlerEPNS_16XMLEntityHandlerEPNS_16XMLErrorReporterEPNS_12XMLValidatorEPNS_15GrammarResolverEPNS_13MemoryManagerE(%"class.xercesc_2_7::SGXMLScanner"* %this, %"class.xercesc_2_7::XMLDocumentHandler"* %docHandler, %"class.xercesc_2_7::DocTypeHandler"* %docTypeHandler, %"class.xercesc_2_7::XMLEntityHandler"* %entityHandler, %"class.xercesc_2_7::XMLErrorReporter"* %errHandler, %"class.xercesc_2_7::XMLValidator"* %valToAdopt, %"class.xercesc_2_7::GrammarResolver"* %grammarResolver, %"class.xercesc_2_7::MemoryManager"* %manager) unnamed_addr #6 align 2 personality i8* bitcast (i32 (...)* @__gxx_personality_v0 to i8*) !dbg !5162 {
entry:
  %this.addr = alloca %"class.xercesc_2_7::SGXMLScanner"*, align 8
  %docHandler.addr = alloca %"class.xercesc_2_7::XMLDocumentHandler"*, align 8
  %docTypeHandler.addr = alloca %"class.xercesc_2_7::DocTypeHandler"*, align 8
  %entityHandler.addr = alloca %"class.xercesc_2_7::XMLEntityHandler"*, align 8
  %errHandler.addr = alloca %"class.xercesc_2_7::XMLErrorReporter"*, align 8
  %valToAdopt.addr = alloca %"class.xercesc_2_7::XMLValidator"*, align 8
  %grammarResolver.addr = alloca %"class.xercesc_2_7::GrammarResolver"*, align 8
  %manager.addr = alloca %"class.xercesc_2_7::MemoryManager"*, align 8
  %exn.slot = alloca i8*
  %ehselector.slot = alloca i32
  %cleanup = alloca %"class.xercesc_2_7::JanitorMemFunCall", align 8
  %coerce = alloca { i64, i64 }, align 8
  %0 = alloca %"class.xercesc_2_7::OutOfMemoryException"*, align 8
  store %"class.xercesc_2_7::SGXMLScanner"* %this, %"class.xercesc_2_7::SGXMLScanner"** %this.addr, align 8
  call void @llvm.dbg.declare(metadata %"class.xercesc_2_7::SGXMLScanner"** %this.addr, metadata !5163, metadata !DIExpression()), !dbg !5164
  store %"class.xercesc_2_7::XMLDocumentHandler"* %docHandler, %"class.xercesc_2_7::XMLDocumentHandler"** %docHandler.addr, align 8
  call void @llvm.dbg.declare(metadata %"class.xercesc_2_7::XMLDocumentHandler"** %docHandler.addr, metadata !5165, metadata !DIExpression()), !dbg !5166
  store %"class.xercesc_2_7::DocTypeHandler"* %docTypeHandler, %"class.xercesc_2_7::DocTypeHandler"** %docTypeHandler.addr, align 8
  call void @llvm.dbg.declare(metadata %"class.xercesc_2_7::DocTypeHandler"** %docTypeHandler.addr, metadata !5167, metadata !DIExpression()), !dbg !5168
  store %"class.xercesc_2_7::XMLEntityHandler"* %entityHandler, %"class.xercesc_2_7::XMLEntityHandler"** %entityHandler.addr, align 8
  call void @llvm.dbg.declare(metadata %"class.xercesc_2_7::XMLEntityHandler"** %entityHandler.addr, metadata !5169, metadata !DIExpression()), !dbg !5170
  store %"class.xercesc_2_7::XMLErrorReporter"* %errHandler, %"class.xercesc_2_7::XMLErrorReporter"** %errHandler.addr, align 8
  call void @llvm.dbg.declare(metadata %"class.xercesc_2_7::XMLErrorReporter"** %errHandler.addr, metadata !5171, metadata !DIExpression()), !dbg !5172
  store %"class.xercesc_2_7::XMLValidator"* %valToAdopt, %"class.xercesc_2_7::XMLValidator"** %valToAdopt.addr, align 8
  call void @llvm.dbg.declare(metadata %"class.xercesc_2_7::XMLValidator"** %valToAdopt.addr, metadata !5173, metadata !DIExpression()), !dbg !5174
  store %"class.xercesc_2_7::GrammarResolver"* %grammarResolver, %"class.xercesc_2_7::GrammarResolver"** %grammarResolver.addr, align 8
  call void @llvm.dbg.declare(metadata %"class.xercesc_2_7::GrammarResolver"** %grammarResolver.addr, metadata !5175, metadata !DIExpression()), !dbg !5176
  store %"class.xercesc_2_7::MemoryManager"* %manager, %"class.xercesc_2_7::MemoryManager"** %manager.addr, align 8
  call void @llvm.dbg.declare(metadata %"class.xercesc_2_7::MemoryManager"** %manager.addr, metadata !5177, metadata !DIExpression()), !dbg !5178
  %this1 = load %"class.xercesc_2_7::SGXMLScanner"*, %"class.xercesc_2_7::SGXMLScanner"** %this.addr, align 8
  %1 = bitcast %"class.xercesc_2_7::SGXMLScanner"* %this1 to %"class.xercesc_2_7::XMLScanner"*, !dbg !5179
  %2 = load %"class.xercesc_2_7::XMLDocumentHandler"*, %"class.xercesc_2_7::XMLDocumentHandler"** %docHandler.addr, align 8, !dbg !5180
  %3 = load %"class.xercesc_2_7::DocTypeHandler"*, %"class.xercesc_2_7::DocTypeHandler"** %docTypeHandler.addr, align 8, !dbg !5181
  %4 = load %"class.xercesc_2_7::XMLEntityHandler"*, %"class.xercesc_2_7::XMLEntityHandler"** %entityHandler.addr, align 8, !dbg !5182
  %5 = load %"class.xercesc_2_7::XMLErrorReporter"*, %"class.xercesc_2_7::XMLErrorReporter"** %errHandler.addr, align 8, !dbg !5183
  %6 = load %"class.xercesc_2_7::XMLValidator"*, %"class.xercesc_2_7::XMLValidator"** %valToAdopt.addr, align 8, !dbg !5184
  %7 = load %"class.xercesc_2_7::GrammarResolver"*, %"class.xercesc_2_7::GrammarResolver"** %grammarResolver.addr, align 8, !dbg !5185
  %8 = load %"class.xercesc_2_7::MemoryManager"*, %"class.xercesc_2_7::MemoryManager"** %manager.addr, align 8, !dbg !5186
  call void @_ZN11xercesc_2_710XMLScannerC2EPNS_18XMLDocumentHandlerEPNS_14DocTypeHandlerEPNS_16XMLEntityHandlerEPNS_16XMLErrorReporterEPNS_12XMLValidatorEPNS_15GrammarResolverEPNS_13MemoryManagerE(%"class.xercesc_2_7::XMLScanner"* %1, %"class.xercesc_2_7::XMLDocumentHandler"* %2, %"class.xercesc_2_7::DocTypeHandler"* %3, %"class.xercesc_2_7::XMLEntityHandler"* %4, %"class.xercesc_2_7::XMLErrorReporter"* %5, %"class.xercesc_2_7::XMLValidator"* %6, %"class.xercesc_2_7::GrammarResolver"* %7, %"class.xercesc_2_7::MemoryManager"* %8), !dbg !5187
  %9 = bitcast %"class.xercesc_2_7::SGXMLScanner"* %this1 to i32 (...)***, !dbg !5179
  store i32 (...)** bitcast (i8** getelementptr inbounds ({ [22 x i8*] }, { [22 x i8*] }* @_ZTVN11xercesc_2_712SGXMLScannerE, i32 0, inrange i32 0, i32 2) to i32 (...)**), i32 (...)*** %9, align 8, !dbg !5179
  %fSeeXsi = getelementptr inbounds %"class.xercesc_2_7::SGXMLScanner", %"class.xercesc_2_7::SGXMLScanner"* %this1, i32 0, i32 1, !dbg !5188
  store i8 0, i8* %fSeeXsi, align 8, !dbg !5188
  %fGrammarType = getelementptr inbounds %"class.xercesc_2_7::SGXMLScanner", %"class.xercesc_2_7::SGXMLScanner"* %this1, i32 0, i32 2, !dbg !5189
  store i32 2, i32* %fGrammarType, align 4, !dbg !5189
  %fElemStateSize = getelementptr inbounds %"class.xercesc_2_7::SGXMLScanner", %"class.xercesc_2_7::SGXMLScanner"* %this1, i32 0, i32 3, !dbg !5190
  store i32 16, i32* %fElemStateSize, align 8, !dbg !5190
  %fElemState = getelementptr inbounds %"class.xercesc_2_7::SGXMLScanner", %"class.xercesc_2_7::SGXMLScanner"* %this1, i32 0, i32 4, !dbg !5191
  store i32* null, i32** %fElemState, align 8, !dbg !5191
  %fContent = getelementptr inbounds %"class.xercesc_2_7::SGXMLScanner", %"class.xercesc_2_7::SGXMLScanner"* %this1, i32 0, i32 5, !dbg !5192
  %10 = load %"class.xercesc_2_7::MemoryManager"*, %"class.xercesc_2_7::MemoryManager"** %manager.addr, align 8, !dbg !5193
  invoke void @_ZN11xercesc_2_79XMLBufferC2EjPNS_13MemoryManagerE(%"class.xercesc_2_7::XMLBuffer"* %fContent, i32 1023, %"class.xercesc_2_7::MemoryManager"* %10)
          to label %invoke.cont unwind label %lpad, !dbg !5192

invoke.cont:                                      ; preds = %entry
  %fEntityTable = getelementptr inbounds %"class.xercesc_2_7::SGXMLScanner", %"class.xercesc_2_7::SGXMLScanner"* %this1, i32 0, i32 6, !dbg !5194
  store %"class.xercesc_2_7::ValueHashTableOf"* null, %"class.xercesc_2_7::ValueHashTableOf"** %fEntityTable, align 8, !dbg !5194
  %fRawAttrList = getelementptr inbounds %"class.xercesc_2_7::SGXMLScanner", %"class.xercesc_2_7::SGXMLScanner"* %this1, i32 0, i32 7, !dbg !5195
  store %"class.xercesc_2_7::RefVectorOf.17"* null, %"class.xercesc_2_7::RefVectorOf.17"** %fRawAttrList, align 8, !dbg !5195
  %fRawAttrColonListSize = getelementptr inbounds %"class.xercesc_2_7::SGXMLScanner", %"class.xercesc_2_7::SGXMLScanner"* %this1, i32 0, i32 8, !dbg !5196
  store i32 32, i32* %fRawAttrColonListSize, align 8, !dbg !5196
  %fRawAttrColonList = getelementptr inbounds %"class.xercesc_2_7::SGXMLScanner", %"class.xercesc_2_7::SGXMLScanner"* %this1, i32 0, i32 9, !dbg !5197
  store i32* null, i32** %fRawAttrColonList, align 8, !dbg !5197
  %fSchemaGrammar = getelementptr inbounds %"class.xercesc_2_7::SGXMLScanner", %"class.xercesc_2_7::SGXMLScanner"* %this1, i32 0, i32 10, !dbg !5198
  store %"class.xercesc_2_7::SchemaGrammar"* null, %"class.xercesc_2_7::SchemaGrammar"** %fSchemaGrammar, align 8, !dbg !5198
  %fSchemaValidator = getelementptr inbounds %"class.xercesc_2_7::SGXMLScanner", %"class.xercesc_2_7::SGXMLScanner"* %this1, i32 0, i32 11, !dbg !5199
  store %"class.xercesc_2_7::SchemaValidator"* null, %"class.xercesc_2_7::SchemaValidator"** %fSchemaValidator, align 8, !dbg !5199
  %fICHandler = getelementptr inbounds %"class.xercesc_2_7::SGXMLScanner", %"class.xercesc_2_7::SGXMLScanner"* %this1, i32 0, i32 12, !dbg !5200
  store %"class.xercesc_2_7::IdentityConstraintHandler"* null, %"class.xercesc_2_7::IdentityConstraintHandler"** %fICHandler, align 8, !dbg !5200
  %fElemNonDeclPool = getelementptr inbounds %"class.xercesc_2_7::SGXMLScanner", %"class.xercesc_2_7::SGXMLScanner"* %this1, i32 0, i32 13, !dbg !5201
  store %"class.xercesc_2_7::RefHash3KeysIdPool"* null, %"class.xercesc_2_7::RefHash3KeysIdPool"** %fElemNonDeclPool, align 8, !dbg !5201
  %fElemCount = getelementptr inbounds %"class.xercesc_2_7::SGXMLScanner", %"class.xercesc_2_7::SGXMLScanner"* %this1, i32 0, i32 14, !dbg !5202
  store i32 0, i32* %fElemCount, align 8, !dbg !5202
  %fAttDefRegistry = getelementptr inbounds %"class.xercesc_2_7::SGXMLScanner", %"class.xercesc_2_7::SGXMLScanner"* %this1, i32 0, i32 15, !dbg !5203
  store %"class.xercesc_2_7::RefHashTableOf.50"* null, %"class.xercesc_2_7::RefHashTableOf.50"** %fAttDefRegistry, align 8, !dbg !5203
  %fUndeclaredAttrRegistryNS = getelementptr inbounds %"class.xercesc_2_7::SGXMLScanner", %"class.xercesc_2_7::SGXMLScanner"* %this1, i32 0, i32 16, !dbg !5204
  store %"class.xercesc_2_7::RefHash2KeysTableOf.52"* null, %"class.xercesc_2_7::RefHash2KeysTableOf.52"** %fUndeclaredAttrRegistryNS, align 8, !dbg !5204
  %fPSVIAttrList = getelementptr inbounds %"class.xercesc_2_7::SGXMLScanner", %"class.xercesc_2_7::SGXMLScanner"* %this1, i32 0, i32 17, !dbg !5205
  store %"class.xercesc_2_7::PSVIAttributeList"* null, %"class.xercesc_2_7::PSVIAttributeList"** %fPSVIAttrList, align 8, !dbg !5205
  %fModel = getelementptr inbounds %"class.xercesc_2_7::SGXMLScanner", %"class.xercesc_2_7::SGXMLScanner"* %this1, i32 0, i32 18, !dbg !5206
  store %"class.xercesc_2_7::XSModel"* null, %"class.xercesc_2_7::XSModel"** %fModel, align 8, !dbg !5206
  %fPSVIElement = getelementptr inbounds %"class.xercesc_2_7::SGXMLScanner", %"class.xercesc_2_7::SGXMLScanner"* %this1, i32 0, i32 19, !dbg !5207
  store %"class.xercesc_2_7::PSVIElement"* null, %"class.xercesc_2_7::PSVIElement"** %fPSVIElement, align 8, !dbg !5207
  %fErrorStack = getelementptr inbounds %"class.xercesc_2_7::SGXMLScanner", %"class.xercesc_2_7::SGXMLScanner"* %this1, i32 0, i32 20, !dbg !5208
  store %"class.xercesc_2_7::ValueStackOf.56"* null, %"class.xercesc_2_7::ValueStackOf.56"** %fErrorStack, align 8, !dbg !5208
  %fPSVIElemContext = getelementptr inbounds %"class.xercesc_2_7::SGXMLScanner", %"class.xercesc_2_7::SGXMLScanner"* %this1, i32 0, i32 21, !dbg !5209
  call void @llvm.dbg.declare(metadata %"class.xercesc_2_7::JanitorMemFunCall"* %cleanup, metadata !5210, metadata !DIExpression()), !dbg !5212
  store { i64, i64 } { i64 ptrtoint (void (%"class.xercesc_2_7::SGXMLScanner"*)* @_ZN11xercesc_2_712SGXMLScanner7cleanUpEv to i64), i64 0 }, { i64, i64 }* %coerce, align 8, !dbg !5212
  %11 = getelementptr inbounds { i64, i64 }, { i64, i64 }* %coerce, i32 0, i32 0, !dbg !5212
  %12 = load i64, i64* %11, align 8, !dbg !5212
  %13 = getelementptr inbounds { i64, i64 }, { i64, i64 }* %coerce, i32 0, i32 1, !dbg !5212
  %14 = load i64, i64* %13, align 8, !dbg !5212
  invoke void @_ZN11xercesc_2_717JanitorMemFunCallINS_12SGXMLScannerEEC2EPS1_MS1_FvvE(%"class.xercesc_2_7::JanitorMemFunCall"* %cleanup, %"class.xercesc_2_7::SGXMLScanner"* %this1, i64 %12, i64 %14)
          to label %invoke.cont3 unwind label %lpad2, !dbg !5212

invoke.cont3:                                     ; preds = %invoke.cont
  invoke void @_ZN11xercesc_2_712SGXMLScanner10commonInitEv(%"class.xercesc_2_7::SGXMLScanner"* %this1)
          to label %invoke.cont5 unwind label %lpad4, !dbg !5213

invoke.cont5:                                     ; preds = %invoke.cont3
  br label %try.cont, !dbg !5215

lpad:                                             ; preds = %entry
  %15 = landingpad { i8*, i32 }
          cleanup, !dbg !5216
  %16 = extractvalue { i8*, i32 } %15, 0, !dbg !5216
  store i8* %16, i8** %exn.slot, align 8, !dbg !5216
  %17 = extractvalue { i8*, i32 } %15, 1, !dbg !5216
  store i32 %17, i32* %ehselector.slot, align 4, !dbg !5216
  br label %ehcleanup12, !dbg !5216

lpad2:                                            ; preds = %invoke.cont
  %18 = landingpad { i8*, i32 }
          cleanup, !dbg !5217
  %19 = extractvalue { i8*, i32 } %18, 0, !dbg !5217
  store i8* %19, i8** %exn.slot, align 8, !dbg !5217
  %20 = extractvalue { i8*, i32 } %18, 1, !dbg !5217
  store i32 %20, i32* %ehselector.slot, align 4, !dbg !5217
  br label %ehcleanup11, !dbg !5217

lpad4:                                            ; preds = %invoke.cont3
  %21 = landingpad { i8*, i32 }
          cleanup
          catch i8* bitcast ({ i8*, i8*, i8* }* @_ZTIN11xercesc_2_720OutOfMemoryExceptionE to i8*), !dbg !5218
  %22 = extractvalue { i8*, i32 } %21, 0, !dbg !5218
  store i8* %22, i8** %exn.slot, align 8, !dbg !5218
  %23 = extractvalue { i8*, i32 } %21, 1, !dbg !5218
  store i32 %23, i32* %ehselector.slot, align 4, !dbg !5218
  br label %catch.dispatch, !dbg !5218

catch.dispatch:                                   ; preds = %lpad4
  %sel = load i32, i32* %ehselector.slot, align 4, !dbg !5215
  %24 = call i32 @llvm.eh.typeid.for(i8* bitcast ({ i8*, i8*, i8* }* @_ZTIN11xercesc_2_720OutOfMemoryExceptionE to i8*)) #10, !dbg !5215
  %matches = icmp eq i32 %sel, %24, !dbg !5215
  br i1 %matches, label %catch, label %ehcleanup, !dbg !5215

catch:                                            ; preds = %catch.dispatch
  call void @llvm.dbg.declare(metadata %"class.xercesc_2_7::OutOfMemoryException"** %0, metadata !5219, metadata !DIExpression()), !dbg !5220
  %exn = load i8*, i8** %exn.slot, align 8, !dbg !5215
  %25 = call i8* @__cxa_begin_catch(i8* %exn) #10, !dbg !5215
  %exn.byref = bitcast i8* %25 to %"class.xercesc_2_7::OutOfMemoryException"*, !dbg !5215
  store %"class.xercesc_2_7::OutOfMemoryException"* %exn.byref, %"class.xercesc_2_7::OutOfMemoryException"** %0, align 8, !dbg !5215
  invoke void @_ZN11xercesc_2_717JanitorMemFunCallINS_12SGXMLScannerEE7releaseEv(%"class.xercesc_2_7::JanitorMemFunCall"* %cleanup)
          to label %invoke.cont7 unwind label %lpad6, !dbg !5221

invoke.cont7:                                     ; preds = %catch
  invoke void @__cxa_rethrow() #13
          to label %unreachable unwind label %lpad6, !dbg !5223

lpad6:                                            ; preds = %invoke.cont7, %catch
  %26 = landingpad { i8*, i32 }
          cleanup, !dbg !5224
  %27 = extractvalue { i8*, i32 } %26, 0, !dbg !5224
  store i8* %27, i8** %exn.slot, align 8, !dbg !5224
  %28 = extractvalue { i8*, i32 } %26, 1, !dbg !5224
  store i32 %28, i32* %ehselector.slot, align 4, !dbg !5224
  invoke void @__cxa_end_catch()
          to label %invoke.cont8 unwind label %terminate.lpad, !dbg !5225

invoke.cont8:                                     ; preds = %lpad6
  br label %ehcleanup, !dbg !5225

try.cont:                                         ; preds = %invoke.cont5
  invoke void @_ZN11xercesc_2_717JanitorMemFunCallINS_12SGXMLScannerEE7releaseEv(%"class.xercesc_2_7::JanitorMemFunCall"* %cleanup)
          to label %invoke.cont10 unwind label %lpad9, !dbg !5226

invoke.cont10:                                    ; preds = %try.cont
  call void @_ZN11xercesc_2_717JanitorMemFunCallINS_12SGXMLScannerEED2Ev(%"class.xercesc_2_7::JanitorMemFunCall"* %cleanup) #10, !dbg !5216
  ret void, !dbg !5216

lpad9:                                            ; preds = %try.cont
  %29 = landingpad { i8*, i32 }
          cleanup, !dbg !5217
  %30 = extractvalue { i8*, i32 } %29, 0, !dbg !5217
  store i8* %30, i8** %exn.slot, align 8, !dbg !5217
  %31 = extractvalue { i8*, i32 } %29, 1, !dbg !5217
  store i32 %31, i32* %ehselector.slot, align 4, !dbg !5217
  br label %ehcleanup, !dbg !5217

ehcleanup:                                        ; preds = %lpad9, %invoke.cont8, %catch.dispatch
  call void @_ZN11xercesc_2_717JanitorMemFunCallINS_12SGXMLScannerEED2Ev(%"class.xercesc_2_7::JanitorMemFunCall"* %cleanup) #10, !dbg !5216
  br label %ehcleanup11, !dbg !5216

ehcleanup11:                                      ; preds = %ehcleanup, %lpad2
  call void @_ZN11xercesc_2_79XMLBufferD2Ev(%"class.xercesc_2_7::XMLBuffer"* %fContent) #10, !dbg !5217
  br label %ehcleanup12, !dbg !5217

ehcleanup12:                                      ; preds = %ehcleanup11, %lpad
  %32 = bitcast %"class.xercesc_2_7::SGXMLScanner"* %this1 to %"class.xercesc_2_7::XMLScanner"*, !dbg !5217
  call void @_ZN11xercesc_2_710XMLScannerD2Ev(%"class.xercesc_2_7::XMLScanner"* %32) #10, !dbg !5217
  br label %eh.resume, !dbg !5217

eh.resume:                                        ; preds = %ehcleanup12
  %exn13 = load i8*, i8** %exn.slot, align 8, !dbg !5217
  %sel14 = load i32, i32* %ehselector.slot, align 4, !dbg !5217
  %lpad.val = insertvalue { i8*, i32 } undef, i8* %exn13, 0, !dbg !5217
  %lpad.val15 = insertvalue { i8*, i32 } %lpad.val, i32 %sel14, 1, !dbg !5217
  resume { i8*, i32 } %lpad.val15, !dbg !5217

terminate.lpad:                                   ; preds = %lpad6
  %33 = landingpad { i8*, i32 }
          catch i8* null, !dbg !5225
  %34 = extractvalue { i8*, i32 } %33, 0, !dbg !5225
  call void @__clang_call_terminate(i8* %34) #12, !dbg !5225
  unreachable, !dbg !5225

unreachable:                                      ; preds = %invoke.cont7
  unreachable
}

declare dso_local void @_ZN11xercesc_2_710XMLScannerC2EPNS_18XMLDocumentHandlerEPNS_14DocTypeHandlerEPNS_16XMLEntityHandlerEPNS_16XMLErrorReporterEPNS_12XMLValidatorEPNS_15GrammarResolverEPNS_13MemoryManagerE(%"class.xercesc_2_7::XMLScanner"*, %"class.xercesc_2_7::XMLDocumentHandler"*, %"class.xercesc_2_7::DocTypeHandler"*, %"class.xercesc_2_7::XMLEntityHandler"*, %"class.xercesc_2_7::XMLErrorReporter"*, %"class.xercesc_2_7::XMLValidator"*, %"class.xercesc_2_7::GrammarResolver"*, %"class.xercesc_2_7::MemoryManager"*) unnamed_addr #7

; Function Attrs: noinline nounwind uwtable
define dso_local void @_ZN11xercesc_2_712SGXMLScannerD2Ev(%"class.xercesc_2_7::SGXMLScanner"* %this) unnamed_addr #1 align 2 personality i8* bitcast (i32 (...)* @__gxx_personality_v0 to i8*) !dbg !5227 {
entry:
  %this.addr = alloca %"class.xercesc_2_7::SGXMLScanner"*, align 8
  %exn.slot = alloca i8*
  %ehselector.slot = alloca i32
  store %"class.xercesc_2_7::SGXMLScanner"* %this, %"class.xercesc_2_7::SGXMLScanner"** %this.addr, align 8
  call void @llvm.dbg.declare(metadata %"class.xercesc_2_7::SGXMLScanner"** %this.addr, metadata !5228, metadata !DIExpression()), !dbg !5229
  %this1 = load %"class.xercesc_2_7::SGXMLScanner"*, %"class.xercesc_2_7::SGXMLScanner"** %this.addr, align 8
  %0 = bitcast %"class.xercesc_2_7::SGXMLScanner"* %this1 to i32 (...)***, !dbg !5230
  store i32 (...)** bitcast (i8** getelementptr inbounds ({ [22 x i8*] }, { [22 x i8*] }* @_ZTVN11xercesc_2_712SGXMLScannerE, i32 0, inrange i32 0, i32 2) to i32 (...)**), i32 (...)*** %0, align 8, !dbg !5230
  invoke void @_ZN11xercesc_2_712SGXMLScanner7cleanUpEv(%"class.xercesc_2_7::SGXMLScanner"* %this1)
          to label %invoke.cont unwind label %lpad, !dbg !5231

invoke.cont:                                      ; preds = %entry
  %fContent = getelementptr inbounds %"class.xercesc_2_7::SGXMLScanner", %"class.xercesc_2_7::SGXMLScanner"* %this1, i32 0, i32 5, !dbg !5233
  call void @_ZN11xercesc_2_79XMLBufferD2Ev(%"class.xercesc_2_7::XMLBuffer"* %fContent) #10, !dbg !5233
  %1 = bitcast %"class.xercesc_2_7::SGXMLScanner"* %this1 to %"class.xercesc_2_7::XMLScanner"*, !dbg !5233
  call void @_ZN11xercesc_2_710XMLScannerD2Ev(%"class.xercesc_2_7::XMLScanner"* %1) #10, !dbg !5233
  ret void, !dbg !5234

lpad:                                             ; preds = %entry
  %2 = landingpad { i8*, i32 }
          catch i8* null, !dbg !5233
  %3 = extractvalue { i8*, i32 } %2, 0, !dbg !5233
  store i8* %3, i8** %exn.slot, align 8, !dbg !5233
  %4 = extractvalue { i8*, i32 } %2, 1, !dbg !5233
  store i32 %4, i32* %ehselector.slot, align 4, !dbg !5233
  %fContent2 = getelementptr inbounds %"class.xercesc_2_7::SGXMLScanner", %"class.xercesc_2_7::SGXMLScanner"* %this1, i32 0, i32 5, !dbg !5233
  call void @_ZN11xercesc_2_79XMLBufferD2Ev(%"class.xercesc_2_7::XMLBuffer"* %fContent2) #10, !dbg !5233
  %5 = bitcast %"class.xercesc_2_7::SGXMLScanner"* %this1 to %"class.xercesc_2_7::XMLScanner"*, !dbg !5233
  call void @_ZN11xercesc_2_710XMLScannerD2Ev(%"class.xercesc_2_7::XMLScanner"* %5) #10, !dbg !5233
  br label %terminate.handler, !dbg !5233

terminate.handler:                                ; preds = %lpad
  %exn = load i8*, i8** %exn.slot, align 8, !dbg !5233
  call void @__clang_call_terminate(i8* %exn) #12, !dbg !5233
  unreachable, !dbg !5233
}

; Function Attrs: noinline nounwind uwtable
define dso_local void @_ZN11xercesc_2_712SGXMLScannerD0Ev(%"class.xercesc_2_7::SGXMLScanner"* %this) unnamed_addr #1 align 2 !dbg !5235 {
entry:
  %this.addr = alloca %"class.xercesc_2_7::SGXMLScanner"*, align 8
  store %"class.xercesc_2_7::SGXMLScanner"* %this, %"class.xercesc_2_7::SGXMLScanner"** %this.addr, align 8
  call void @llvm.dbg.declare(metadata %"class.xercesc_2_7::SGXMLScanner"** %this.addr, metadata !5236, metadata !DIExpression()), !dbg !5237
  %this1 = load %"class.xercesc_2_7::SGXMLScanner"*, %"class.xercesc_2_7::SGXMLScanner"** %this.addr, align 8
  call void @_ZN11xercesc_2_712SGXMLScannerD1Ev(%"class.xercesc_2_7::SGXMLScanner"* %this1) #10, !dbg !5238
  %0 = bitcast %"class.xercesc_2_7::SGXMLScanner"* %this1 to i8*, !dbg !5238
  call void @_ZN11xercesc_2_77XMemorydlEPv(i8* %0) #10, !dbg !5238
  ret void, !dbg !5239
}

; Function Attrs: noinline nounwind uwtable
define dso_local %"class.xercesc_2_7::NameIdPool.58"* @_ZN11xercesc_2_712SGXMLScanner17getEntityDeclPoolEv(%"class.xercesc_2_7::SGXMLScanner"* %this) unnamed_addr #1 align 2 !dbg !5240 {
entry:
  %this.addr = alloca %"class.xercesc_2_7::SGXMLScanner"*, align 8
  store %"class.xercesc_2_7::SGXMLScanner"* %this, %"class.xercesc_2_7::SGXMLScanner"** %this.addr, align 8
  call void @llvm.dbg.declare(metadata %"class.xercesc_2_7::SGXMLScanner"** %this.addr, metadata !5241, metadata !DIExpression()), !dbg !5242
  %this1 = load %"class.xercesc_2_7::SGXMLScanner"*, %"class.xercesc_2_7::SGXMLScanner"** %this.addr, align 8
  ret %"class.xercesc_2_7::NameIdPool.58"* null, !dbg !5243
}

; Function Attrs: noinline nounwind uwtable
define dso_local %"class.xercesc_2_7::NameIdPool.58"* @_ZNK11xercesc_2_712SGXMLScanner17getEntityDeclPoolEv(%"class.xercesc_2_7::SGXMLScanner"* %this) unnamed_addr #1 align 2 !dbg !5244 {
entry:
  %this.addr = alloca %"class.xercesc_2_7::SGXMLScanner"*, align 8
  store %"class.xercesc_2_7::SGXMLScanner"* %this, %"class.xercesc_2_7::SGXMLScanner"** %this.addr, align 8
  call void @llvm.dbg.declare(metadata %"class.xercesc_2_7::SGXMLScanner"** %this.addr, metadata !5245, metadata !DIExpression()), !dbg !5247
  %this1 = load %"class.xercesc_2_7::SGXMLScanner"*, %"class.xercesc_2_7::SGXMLScanner"** %this.addr, align 8
  ret %"class.xercesc_2_7::NameIdPool.58"* null, !dbg !5248
}

; Function Attrs: noinline uwtable
define dso_local void @_ZN11xercesc_2_712SGXMLScanner12scanDocumentERKNS_11InputSourceE(%"class.xercesc_2_7::SGXMLScanner"* %this, %"class.xercesc_2_7::InputSource"* dereferenceable(48) %src) unnamed_addr #6 align 2 personality i8* bitcast (i32 (...)* @__gxx_personality_v0 to i8*) !dbg !5249 {
entry:
  %this.addr = alloca %"class.xercesc_2_7::SGXMLScanner"*, align 8
  %src.addr = alloca %"class.xercesc_2_7::InputSource"*, align 8
  %resetReaderMgr = alloca %"class.xercesc_2_7::JanitorMemFunCall.59", align 8
  %coerce = alloca { i64, i64 }, align 8
  %exn.slot = alloca i8*
  %ehselector.slot = alloca i32
  %0 = alloca %"class.xercesc_2_7::OutOfMemoryException"*, align 8
  %excToCatch = alloca %"class.xercesc_2_7::XMLException"*, align 8
  %1 = alloca %"class.xercesc_2_7::OutOfMemoryException"*, align 8
  %2 = alloca i32, align 4
  %3 = alloca i32, align 4
  store %"class.xercesc_2_7::SGXMLScanner"* %this, %"class.xercesc_2_7::SGXMLScanner"** %this.addr, align 8
  call void @llvm.dbg.declare(metadata %"class.xercesc_2_7::SGXMLScanner"** %this.addr, metadata !5250, metadata !DIExpression()), !dbg !5251
  store %"class.xercesc_2_7::InputSource"* %src, %"class.xercesc_2_7::InputSource"** %src.addr, align 8
  call void @llvm.dbg.declare(metadata %"class.xercesc_2_7::InputSource"** %src.addr, metadata !5252, metadata !DIExpression()), !dbg !5253
  %this1 = load %"class.xercesc_2_7::SGXMLScanner"*, %"class.xercesc_2_7::SGXMLScanner"** %this.addr, align 8
  %4 = bitcast %"class.xercesc_2_7::SGXMLScanner"* %this1 to %"class.xercesc_2_7::XMLScanner"*, !dbg !5254
  %fSequenceId = getelementptr inbounds %"class.xercesc_2_7::XMLScanner", %"class.xercesc_2_7::XMLScanner"* %4, i32 0, i32 38, !dbg !5254
  %5 = load i32, i32* %fSequenceId, align 8, !dbg !5255
  %inc = add i32 %5, 1, !dbg !5255
  store i32 %inc, i32* %fSequenceId, align 8, !dbg !5255
  call void @llvm.dbg.declare(metadata %"class.xercesc_2_7::JanitorMemFunCall.59"* %resetReaderMgr, metadata !5256, metadata !DIExpression()), !dbg !5290
  %6 = bitcast %"class.xercesc_2_7::SGXMLScanner"* %this1 to %"class.xercesc_2_7::XMLScanner"*, !dbg !5291
  %fReaderMgr = getelementptr inbounds %"class.xercesc_2_7::XMLScanner", %"class.xercesc_2_7::XMLScanner"* %6, i32 0, i32 49, !dbg !5291
  store { i64, i64 } { i64 ptrtoint (void (%"class.xercesc_2_7::ReaderMgr"*)* @_ZN11xercesc_2_79ReaderMgr5resetEv to i64), i64 0 }, { i64, i64 }* %coerce, align 8, !dbg !5290
  %7 = getelementptr inbounds { i64, i64 }, { i64, i64 }* %coerce, i32 0, i32 0, !dbg !5290
  %8 = load i64, i64* %7, align 8, !dbg !5290
  %9 = getelementptr inbounds { i64, i64 }, { i64, i64 }* %coerce, i32 0, i32 1, !dbg !5290
  %10 = load i64, i64* %9, align 8, !dbg !5290
  call void @_ZN11xercesc_2_717JanitorMemFunCallINS_9ReaderMgrEEC2EPS1_MS1_FvvE(%"class.xercesc_2_7::JanitorMemFunCall.59"* %resetReaderMgr, %"class.xercesc_2_7::ReaderMgr"* %fReaderMgr, i64 %8, i64 %10), !dbg !5290
  %11 = load %"class.xercesc_2_7::InputSource"*, %"class.xercesc_2_7::InputSource"** %src.addr, align 8, !dbg !5292
  %12 = bitcast %"class.xercesc_2_7::SGXMLScanner"* %this1 to void (%"class.xercesc_2_7::SGXMLScanner"*, %"class.xercesc_2_7::InputSource"*)***, !dbg !5294
  %vtable = load void (%"class.xercesc_2_7::SGXMLScanner"*, %"class.xercesc_2_7::InputSource"*)**, void (%"class.xercesc_2_7::SGXMLScanner"*, %"class.xercesc_2_7::InputSource"*)*** %12, align 8, !dbg !5294
  %vfn = getelementptr inbounds void (%"class.xercesc_2_7::SGXMLScanner"*, %"class.xercesc_2_7::InputSource"*)*, void (%"class.xercesc_2_7::SGXMLScanner"*, %"class.xercesc_2_7::InputSource"*)** %vtable, i64 15, !dbg !5294
  %13 = load void (%"class.xercesc_2_7::SGXMLScanner"*, %"class.xercesc_2_7::InputSource"*)*, void (%"class.xercesc_2_7::SGXMLScanner"*, %"class.xercesc_2_7::InputSource"*)** %vfn, align 8, !dbg !5294
  invoke void %13(%"class.xercesc_2_7::SGXMLScanner"* %this1, %"class.xercesc_2_7::InputSource"* dereferenceable(48) %11)
          to label %invoke.cont unwind label %lpad, !dbg !5294

invoke.cont:                                      ; preds = %entry
  %14 = bitcast %"class.xercesc_2_7::SGXMLScanner"* %this1 to %"class.xercesc_2_7::XMLScanner"*, !dbg !5295
  %fDocHandler = getelementptr inbounds %"class.xercesc_2_7::XMLScanner", %"class.xercesc_2_7::XMLScanner"* %14, i32 0, i32 41, !dbg !5295
  %15 = load %"class.xercesc_2_7::XMLDocumentHandler"*, %"class.xercesc_2_7::XMLDocumentHandler"** %fDocHandler, align 8, !dbg !5295
  %tobool = icmp ne %"class.xercesc_2_7::XMLDocumentHandler"* %15, null, !dbg !5295
  br i1 %tobool, label %if.then, label %if.end, !dbg !5297

if.then:                                          ; preds = %invoke.cont
  %16 = bitcast %"class.xercesc_2_7::SGXMLScanner"* %this1 to %"class.xercesc_2_7::XMLScanner"*, !dbg !5298
  %fDocHandler2 = getelementptr inbounds %"class.xercesc_2_7::XMLScanner", %"class.xercesc_2_7::XMLScanner"* %16, i32 0, i32 41, !dbg !5298
  %17 = load %"class.xercesc_2_7::XMLDocumentHandler"*, %"class.xercesc_2_7::XMLDocumentHandler"** %fDocHandler2, align 8, !dbg !5298
  %18 = bitcast %"class.xercesc_2_7::XMLDocumentHandler"* %17 to void (%"class.xercesc_2_7::XMLDocumentHandler"*)***, !dbg !5299
  %vtable3 = load void (%"class.xercesc_2_7::XMLDocumentHandler"*)**, void (%"class.xercesc_2_7::XMLDocumentHandler"*)*** %18, align 8, !dbg !5299
  %vfn4 = getelementptr inbounds void (%"class.xercesc_2_7::XMLDocumentHandler"*)*, void (%"class.xercesc_2_7::XMLDocumentHandler"*)** %vtable3, i64 10, !dbg !5299
  %19 = load void (%"class.xercesc_2_7::XMLDocumentHandler"*)*, void (%"class.xercesc_2_7::XMLDocumentHandler"*)** %vfn4, align 8, !dbg !5299
  invoke void %19(%"class.xercesc_2_7::XMLDocumentHandler"* %17)
          to label %invoke.cont5 unwind label %lpad, !dbg !5299

invoke.cont5:                                     ; preds = %if.then
  br label %if.end, !dbg !5298

lpad:                                             ; preds = %if.then28, %if.then21, %if.end17, %if.then15, %if.else, %if.then9, %invoke.cont6, %if.end, %if.then, %entry
  %20 = landingpad { i8*, i32 }
          cleanup
          catch i8* bitcast ({ i8*, i8* }* @_ZTIN11xercesc_2_77XMLErrs5CodesE to i8*)
          catch i8* bitcast ({ i8*, i8* }* @_ZTIN11xercesc_2_78XMLValid5CodesE to i8*)
          catch i8* bitcast (i8** @_ZTIN11xercesc_2_712XMLExceptionE to i8*)
          catch i8* bitcast ({ i8*, i8*, i8* }* @_ZTIN11xercesc_2_720OutOfMemoryExceptionE to i8*), !dbg !5300
  %21 = extractvalue { i8*, i32 } %20, 0, !dbg !5300
  store i8* %21, i8** %exn.slot, align 8, !dbg !5300
  %22 = extractvalue { i8*, i32 } %20, 1, !dbg !5300
  store i32 %22, i32* %ehselector.slot, align 4, !dbg !5300
  br label %catch.dispatch, !dbg !5300

catch.dispatch:                                   ; preds = %lpad
  %sel = load i32, i32* %ehselector.slot, align 4, !dbg !5301
  %23 = call i32 @llvm.eh.typeid.for(i8* bitcast ({ i8*, i8* }* @_ZTIN11xercesc_2_77XMLErrs5CodesE to i8*)) #10, !dbg !5301
  %matches = icmp eq i32 %sel, %23, !dbg !5301
  br i1 %matches, label %catch92, label %catch.fallthrough, !dbg !5301

catch92:                                          ; preds = %catch.dispatch
  call void @llvm.dbg.declare(metadata i32* %3, metadata !5302, metadata !DIExpression()), !dbg !5303
  %exn93 = load i8*, i8** %exn.slot, align 8, !dbg !5304
  %24 = call i8* @__cxa_begin_catch(i8* %exn93) #10, !dbg !5304
  %25 = bitcast i8* %24 to i32*, !dbg !5304
  %26 = load i32, i32* %25, align 4, !dbg !5304
  store i32 %26, i32* %3, align 4, !dbg !5304
  call void @__cxa_end_catch() #10, !dbg !5306
  br label %try.cont94, !dbg !5306

try.cont94:                                       ; preds = %catch92, %catch90, %invoke.cont88, %if.end33
  call void @_ZN11xercesc_2_717JanitorMemFunCallINS_9ReaderMgrEED2Ev(%"class.xercesc_2_7::JanitorMemFunCall.59"* %resetReaderMgr) #10, !dbg !5308
  ret void, !dbg !5308

catch.fallthrough:                                ; preds = %catch.dispatch
  %27 = call i32 @llvm.eh.typeid.for(i8* bitcast ({ i8*, i8* }* @_ZTIN11xercesc_2_78XMLValid5CodesE to i8*)) #10, !dbg !5301
  %matches34 = icmp eq i32 %sel, %27, !dbg !5301
  br i1 %matches34, label %catch90, label %catch.fallthrough35, !dbg !5301

catch90:                                          ; preds = %catch.fallthrough
  call void @llvm.dbg.declare(metadata i32* %2, metadata !5309, metadata !DIExpression()), !dbg !5310
  %exn91 = load i8*, i8** %exn.slot, align 8, !dbg !5311
  %28 = call i8* @__cxa_begin_catch(i8* %exn91) #10, !dbg !5311
  %29 = bitcast i8* %28 to i32*, !dbg !5311
  %30 = load i32, i32* %29, align 4, !dbg !5311
  store i32 %30, i32* %2, align 4, !dbg !5311
  call void @__cxa_end_catch() #10, !dbg !5304
  br label %try.cont94, !dbg !5304

catch.fallthrough35:                              ; preds = %catch.fallthrough
  %31 = call i32 @llvm.eh.typeid.for(i8* bitcast (i8** @_ZTIN11xercesc_2_712XMLExceptionE to i8*)) #10, !dbg !5301
  %matches36 = icmp eq i32 %sel, %31, !dbg !5301
  br i1 %matches36, label %catch42, label %catch.fallthrough37, !dbg !5301

catch42:                                          ; preds = %catch.fallthrough35
  call void @llvm.dbg.declare(metadata %"class.xercesc_2_7::XMLException"** %excToCatch, metadata !5313, metadata !DIExpression()), !dbg !5318
  %exn43 = load i8*, i8** %exn.slot, align 8, !dbg !5319
  %32 = call i8* @__cxa_begin_catch(i8* %exn43) #10, !dbg !5319
  %exn.byref44 = bitcast i8* %32 to %"class.xercesc_2_7::XMLException"*, !dbg !5319
  store %"class.xercesc_2_7::XMLException"* %exn.byref44, %"class.xercesc_2_7::XMLException"** %excToCatch, align 8, !dbg !5319
  %33 = bitcast %"class.xercesc_2_7::SGXMLScanner"* %this1 to %"class.xercesc_2_7::XMLScanner"*, !dbg !5321
  %fInException = getelementptr inbounds %"class.xercesc_2_7::XMLScanner", %"class.xercesc_2_7::XMLScanner"* %33, i32 0, i32 7, !dbg !5321
  store i8 1, i8* %fInException, align 1, !dbg !5322
  %34 = load %"class.xercesc_2_7::XMLException"*, %"class.xercesc_2_7::XMLException"** %excToCatch, align 8, !dbg !5323
  %call47 = invoke i32 @_ZNK11xercesc_2_712XMLException12getErrorTypeEv(%"class.xercesc_2_7::XMLException"* %34)
          to label %invoke.cont46 unwind label %lpad45, !dbg !5326

invoke.cont46:                                    ; preds = %catch42
  %cmp = icmp eq i32 %call47, 0, !dbg !5327
  br i1 %cmp, label %if.then48, label %if.else56, !dbg !5328

if.then48:                                        ; preds = %invoke.cont46
  %35 = bitcast %"class.xercesc_2_7::SGXMLScanner"* %this1 to %"class.xercesc_2_7::XMLScanner"*, !dbg !5329
  %36 = load %"class.xercesc_2_7::XMLException"*, %"class.xercesc_2_7::XMLException"** %excToCatch, align 8, !dbg !5330
  %37 = bitcast %"class.xercesc_2_7::XMLException"* %36 to i16* (%"class.xercesc_2_7::XMLException"*)***, !dbg !5331
  %vtable49 = load i16* (%"class.xercesc_2_7::XMLException"*)**, i16* (%"class.xercesc_2_7::XMLException"*)*** %37, align 8, !dbg !5331
  %vfn50 = getelementptr inbounds i16* (%"class.xercesc_2_7::XMLException"*)*, i16* (%"class.xercesc_2_7::XMLException"*)** %vtable49, i64 2, !dbg !5331
  %38 = load i16* (%"class.xercesc_2_7::XMLException"*)*, i16* (%"class.xercesc_2_7::XMLException"*)** %vfn50, align 8, !dbg !5331
  %call52 = invoke i16* %38(%"class.xercesc_2_7::XMLException"* %36)
          to label %invoke.cont51 unwind label %lpad45, !dbg !5331

invoke.cont51:                                    ; preds = %if.then48
  %39 = load %"class.xercesc_2_7::XMLException"*, %"class.xercesc_2_7::XMLException"** %excToCatch, align 8, !dbg !5332
  %call54 = invoke i16* @_ZNK11xercesc_2_712XMLException10getMessageEv(%"class.xercesc_2_7::XMLException"* %39)
          to label %invoke.cont53 unwind label %lpad45, !dbg !5333

invoke.cont53:                                    ; preds = %invoke.cont51
  invoke void @_ZN11xercesc_2_710XMLScanner9emitErrorENS_7XMLErrs5CodesEPKtS4_S4_S4_(%"class.xercesc_2_7::XMLScanner"* %35, i32 7, i16* %call52, i16* %call54, i16* null, i16* null)
          to label %invoke.cont55 unwind label %lpad45, !dbg !5329

invoke.cont55:                                    ; preds = %invoke.cont53
  br label %if.end77, !dbg !5329

catch.fallthrough37:                              ; preds = %catch.fallthrough35
  %40 = call i32 @llvm.eh.typeid.for(i8* bitcast ({ i8*, i8*, i8* }* @_ZTIN11xercesc_2_720OutOfMemoryExceptionE to i8*)) #10, !dbg !5301
  %matches38 = icmp eq i32 %sel, %40, !dbg !5301
  br i1 %matches38, label %catch, label %ehcleanup95, !dbg !5301

catch:                                            ; preds = %catch.fallthrough37
  call void @llvm.dbg.declare(metadata %"class.xercesc_2_7::OutOfMemoryException"** %0, metadata !5334, metadata !DIExpression()), !dbg !5335
  %exn = load i8*, i8** %exn.slot, align 8, !dbg !5301
  %41 = call i8* @__cxa_begin_catch(i8* %exn) #10, !dbg !5301
  %exn.byref = bitcast i8* %41 to %"class.xercesc_2_7::OutOfMemoryException"*, !dbg !5301
  store %"class.xercesc_2_7::OutOfMemoryException"* %exn.byref, %"class.xercesc_2_7::OutOfMemoryException"** %0, align 8, !dbg !5301
  invoke void @_ZN11xercesc_2_717JanitorMemFunCallINS_9ReaderMgrEE7releaseEv(%"class.xercesc_2_7::JanitorMemFunCall.59"* %resetReaderMgr)
          to label %invoke.cont40 unwind label %lpad39, !dbg !5336

invoke.cont40:                                    ; preds = %catch
  invoke void @__cxa_rethrow() #13
          to label %unreachable unwind label %lpad39, !dbg !5337

if.end:                                           ; preds = %invoke.cont5, %invoke.cont
  %42 = bitcast %"class.xercesc_2_7::SGXMLScanner"* %this1 to %"class.xercesc_2_7::XMLScanner"*, !dbg !5338
  invoke void @_ZN11xercesc_2_710XMLScanner10scanPrologEv(%"class.xercesc_2_7::XMLScanner"* %42)
          to label %invoke.cont6 unwind label %lpad, !dbg !5338

invoke.cont6:                                     ; preds = %if.end
  %43 = bitcast %"class.xercesc_2_7::SGXMLScanner"* %this1 to %"class.xercesc_2_7::XMLScanner"*, !dbg !5339
  %fReaderMgr7 = getelementptr inbounds %"class.xercesc_2_7::XMLScanner", %"class.xercesc_2_7::XMLScanner"* %43, i32 0, i32 49, !dbg !5339
  %call = invoke zeroext i1 @_ZNK11xercesc_2_79ReaderMgr5atEOFEv(%"class.xercesc_2_7::ReaderMgr"* %fReaderMgr7)
          to label %invoke.cont8 unwind label %lpad, !dbg !5341

invoke.cont8:                                     ; preds = %invoke.cont6
  br i1 %call, label %if.then9, label %if.else, !dbg !5342

if.then9:                                         ; preds = %invoke.cont8
  %44 = bitcast %"class.xercesc_2_7::SGXMLScanner"* %this1 to %"class.xercesc_2_7::XMLScanner"*, !dbg !5343
  invoke void @_ZN11xercesc_2_710XMLScanner9emitErrorENS_7XMLErrs5CodesE(%"class.xercesc_2_7::XMLScanner"* %44, i32 279)
          to label %invoke.cont10 unwind label %lpad, !dbg !5343

invoke.cont10:                                    ; preds = %if.then9
  br label %if.end25, !dbg !5345

if.else:                                          ; preds = %invoke.cont8
  %call12 = invoke zeroext i1 @_ZN11xercesc_2_712SGXMLScanner11scanContentEv(%"class.xercesc_2_7::SGXMLScanner"* %this1)
          to label %invoke.cont11 unwind label %lpad, !dbg !5346

invoke.cont11:                                    ; preds = %if.else
  br i1 %call12, label %if.then13, label %if.end24, !dbg !5349

if.then13:                                        ; preds = %invoke.cont11
  %45 = bitcast %"class.xercesc_2_7::SGXMLScanner"* %this1 to %"class.xercesc_2_7::XMLScanner"*, !dbg !5350
  %fValidate = getelementptr inbounds %"class.xercesc_2_7::XMLScanner", %"class.xercesc_2_7::XMLScanner"* %45, i32 0, i32 10, !dbg !5350
  %46 = load i8, i8* %fValidate, align 8, !dbg !5350
  %tobool14 = trunc i8 %46 to i1, !dbg !5350
  br i1 %tobool14, label %if.then15, label %if.end17, !dbg !5353

if.then15:                                        ; preds = %if.then13
  %47 = bitcast %"class.xercesc_2_7::SGXMLScanner"* %this1 to %"class.xercesc_2_7::XMLScanner"*, !dbg !5354
  invoke void @_ZN11xercesc_2_710XMLScanner11checkIDRefsEv(%"class.xercesc_2_7::XMLScanner"* %47)
          to label %invoke.cont16 unwind label %lpad, !dbg !5354

invoke.cont16:                                    ; preds = %if.then15
  br label %if.end17, !dbg !5356

if.end17:                                         ; preds = %invoke.cont16, %if.then13
  %48 = bitcast %"class.xercesc_2_7::SGXMLScanner"* %this1 to %"class.xercesc_2_7::XMLScanner"*, !dbg !5357
  %fReaderMgr18 = getelementptr inbounds %"class.xercesc_2_7::XMLScanner", %"class.xercesc_2_7::XMLScanner"* %48, i32 0, i32 49, !dbg !5357
  %call20 = invoke zeroext i1 @_ZNK11xercesc_2_79ReaderMgr5atEOFEv(%"class.xercesc_2_7::ReaderMgr"* %fReaderMgr18)
          to label %invoke.cont19 unwind label %lpad, !dbg !5359

invoke.cont19:                                    ; preds = %if.end17
  br i1 %call20, label %if.end23, label %if.then21, !dbg !5360

if.then21:                                        ; preds = %invoke.cont19
  %49 = bitcast %"class.xercesc_2_7::SGXMLScanner"* %this1 to %"class.xercesc_2_7::XMLScanner"*, !dbg !5361
  invoke void @_ZN11xercesc_2_710XMLScanner17scanMiscellaneousEv(%"class.xercesc_2_7::XMLScanner"* %49)
          to label %invoke.cont22 unwind label %lpad, !dbg !5361

invoke.cont22:                                    ; preds = %if.then21
  br label %if.end23, !dbg !5361

if.end23:                                         ; preds = %invoke.cont22, %invoke.cont19
  br label %if.end24, !dbg !5362

if.end24:                                         ; preds = %if.end23, %invoke.cont11
  br label %if.end25

if.end25:                                         ; preds = %if.end24, %invoke.cont10
  %50 = bitcast %"class.xercesc_2_7::SGXMLScanner"* %this1 to %"class.xercesc_2_7::XMLScanner"*, !dbg !5363
  %fDocHandler26 = getelementptr inbounds %"class.xercesc_2_7::XMLScanner", %"class.xercesc_2_7::XMLScanner"* %50, i32 0, i32 41, !dbg !5363
  %51 = load %"class.xercesc_2_7::XMLDocumentHandler"*, %"class.xercesc_2_7::XMLDocumentHandler"** %fDocHandler26, align 8, !dbg !5363
  %tobool27 = icmp ne %"class.xercesc_2_7::XMLDocumentHandler"* %51, null, !dbg !5363
  br i1 %tobool27, label %if.then28, label %if.end33, !dbg !5365

if.then28:                                        ; preds = %if.end25
  %52 = bitcast %"class.xercesc_2_7::SGXMLScanner"* %this1 to %"class.xercesc_2_7::XMLScanner"*, !dbg !5366
  %fDocHandler29 = getelementptr inbounds %"class.xercesc_2_7::XMLScanner", %"class.xercesc_2_7::XMLScanner"* %52, i32 0, i32 41, !dbg !5366
  %53 = load %"class.xercesc_2_7::XMLDocumentHandler"*, %"class.xercesc_2_7::XMLDocumentHandler"** %fDocHandler29, align 8, !dbg !5366
  %54 = bitcast %"class.xercesc_2_7::XMLDocumentHandler"* %53 to void (%"class.xercesc_2_7::XMLDocumentHandler"*)***, !dbg !5367
  %vtable30 = load void (%"class.xercesc_2_7::XMLDocumentHandler"*)**, void (%"class.xercesc_2_7::XMLDocumentHandler"*)*** %54, align 8, !dbg !5367
  %vfn31 = getelementptr inbounds void (%"class.xercesc_2_7::XMLDocumentHandler"*)*, void (%"class.xercesc_2_7::XMLDocumentHandler"*)** %vtable30, i64 5, !dbg !5367
  %55 = load void (%"class.xercesc_2_7::XMLDocumentHandler"*)*, void (%"class.xercesc_2_7::XMLDocumentHandler"*)** %vfn31, align 8, !dbg !5367
  invoke void %55(%"class.xercesc_2_7::XMLDocumentHandler"* %53)
          to label %invoke.cont32 unwind label %lpad, !dbg !5367

invoke.cont32:                                    ; preds = %if.then28
  br label %if.end33, !dbg !5366

if.end33:                                         ; preds = %invoke.cont32, %if.end25
  br label %try.cont94, !dbg !5301

lpad39:                                           ; preds = %invoke.cont40, %catch
  %56 = landingpad { i8*, i32 }
          cleanup, !dbg !5368
  %57 = extractvalue { i8*, i32 } %56, 0, !dbg !5368
  store i8* %57, i8** %exn.slot, align 8, !dbg !5368
  %58 = extractvalue { i8*, i32 } %56, 1, !dbg !5368
  store i32 %58, i32* %ehselector.slot, align 4, !dbg !5368
  invoke void @__cxa_end_catch()
          to label %invoke.cont41 unwind label %terminate.lpad, !dbg !5319

invoke.cont41:                                    ; preds = %lpad39
  br label %ehcleanup95, !dbg !5319

lpad45:                                           ; preds = %invoke.cont73, %invoke.cont71, %if.else68, %invoke.cont65, %invoke.cont63, %if.then60, %if.else56, %invoke.cont53, %invoke.cont51, %if.then48, %catch42
  %59 = landingpad { i8*, i32 }
          cleanup
          catch i8* bitcast ({ i8*, i8*, i8* }* @_ZTIN11xercesc_2_720OutOfMemoryExceptionE to i8*), !dbg !5369
  %60 = extractvalue { i8*, i32 } %59, 0, !dbg !5369
  store i8* %60, i8** %exn.slot, align 8, !dbg !5369
  %61 = extractvalue { i8*, i32 } %59, 1, !dbg !5369
  store i32 %61, i32* %ehselector.slot, align 4, !dbg !5369
  br label %catch.dispatch78, !dbg !5369

catch.dispatch78:                                 ; preds = %lpad45
  %sel79 = load i32, i32* %ehselector.slot, align 4, !dbg !5370
  %62 = call i32 @llvm.eh.typeid.for(i8* bitcast ({ i8*, i8*, i8* }* @_ZTIN11xercesc_2_720OutOfMemoryExceptionE to i8*)) #10, !dbg !5370
  %matches80 = icmp eq i32 %sel79, %62, !dbg !5370
  br i1 %matches80, label %catch81, label %ehcleanup, !dbg !5370

catch81:                                          ; preds = %catch.dispatch78
  call void @llvm.dbg.declare(metadata %"class.xercesc_2_7::OutOfMemoryException"** %1, metadata !5371, metadata !DIExpression()), !dbg !5372
  %exn82 = load i8*, i8** %exn.slot, align 8, !dbg !5370
  %63 = call i8* @__cxa_begin_catch(i8* %exn82) #10, !dbg !5370
  %exn.byref83 = bitcast i8* %63 to %"class.xercesc_2_7::OutOfMemoryException"*, !dbg !5370
  store %"class.xercesc_2_7::OutOfMemoryException"* %exn.byref83, %"class.xercesc_2_7::OutOfMemoryException"** %1, align 8, !dbg !5370
  invoke void @_ZN11xercesc_2_717JanitorMemFunCallINS_9ReaderMgrEE7releaseEv(%"class.xercesc_2_7::JanitorMemFunCall.59"* %resetReaderMgr)
          to label %invoke.cont85 unwind label %lpad84, !dbg !5373

invoke.cont85:                                    ; preds = %catch81
  invoke void @__cxa_rethrow() #13
          to label %unreachable unwind label %lpad84, !dbg !5375

if.else56:                                        ; preds = %invoke.cont46
  %64 = load %"class.xercesc_2_7::XMLException"*, %"class.xercesc_2_7::XMLException"** %excToCatch, align 8, !dbg !5376
  %call58 = invoke i32 @_ZNK11xercesc_2_712XMLException12getErrorTypeEv(%"class.xercesc_2_7::XMLException"* %64)
          to label %invoke.cont57 unwind label %lpad45, !dbg !5378

invoke.cont57:                                    ; preds = %if.else56
  %cmp59 = icmp sge i32 %call58, 2, !dbg !5379
  br i1 %cmp59, label %if.then60, label %if.else68, !dbg !5380

if.then60:                                        ; preds = %invoke.cont57
  %65 = bitcast %"class.xercesc_2_7::SGXMLScanner"* %this1 to %"class.xercesc_2_7::XMLScanner"*, !dbg !5381
  %66 = load %"class.xercesc_2_7::XMLException"*, %"class.xercesc_2_7::XMLException"** %excToCatch, align 8, !dbg !5382
  %67 = bitcast %"class.xercesc_2_7::XMLException"* %66 to i16* (%"class.xercesc_2_7::XMLException"*)***, !dbg !5383
  %vtable61 = load i16* (%"class.xercesc_2_7::XMLException"*)**, i16* (%"class.xercesc_2_7::XMLException"*)*** %67, align 8, !dbg !5383
  %vfn62 = getelementptr inbounds i16* (%"class.xercesc_2_7::XMLException"*)*, i16* (%"class.xercesc_2_7::XMLException"*)** %vtable61, i64 2, !dbg !5383
  %68 = load i16* (%"class.xercesc_2_7::XMLException"*)*, i16* (%"class.xercesc_2_7::XMLException"*)** %vfn62, align 8, !dbg !5383
  %call64 = invoke i16* %68(%"class.xercesc_2_7::XMLException"* %66)
          to label %invoke.cont63 unwind label %lpad45, !dbg !5383

invoke.cont63:                                    ; preds = %if.then60
  %69 = load %"class.xercesc_2_7::XMLException"*, %"class.xercesc_2_7::XMLException"** %excToCatch, align 8, !dbg !5384
  %call66 = invoke i16* @_ZNK11xercesc_2_712XMLException10getMessageEv(%"class.xercesc_2_7::XMLException"* %69)
          to label %invoke.cont65 unwind label %lpad45, !dbg !5385

invoke.cont65:                                    ; preds = %invoke.cont63
  invoke void @_ZN11xercesc_2_710XMLScanner9emitErrorENS_7XMLErrs5CodesEPKtS4_S4_S4_(%"class.xercesc_2_7::XMLScanner"* %65, i32 292, i16* %call64, i16* %call66, i16* null, i16* null)
          to label %invoke.cont67 unwind label %lpad45, !dbg !5381

invoke.cont67:                                    ; preds = %invoke.cont65
  br label %if.end76, !dbg !5381

if.else68:                                        ; preds = %invoke.cont57
  %70 = bitcast %"class.xercesc_2_7::SGXMLScanner"* %this1 to %"class.xercesc_2_7::XMLScanner"*, !dbg !5386
  %71 = load %"class.xercesc_2_7::XMLException"*, %"class.xercesc_2_7::XMLException"** %excToCatch, align 8, !dbg !5387
  %72 = bitcast %"class.xercesc_2_7::XMLException"* %71 to i16* (%"class.xercesc_2_7::XMLException"*)***, !dbg !5388
  %vtable69 = load i16* (%"class.xercesc_2_7::XMLException"*)**, i16* (%"class.xercesc_2_7::XMLException"*)*** %72, align 8, !dbg !5388
  %vfn70 = getelementptr inbounds i16* (%"class.xercesc_2_7::XMLException"*)*, i16* (%"class.xercesc_2_7::XMLException"*)** %vtable69, i64 2, !dbg !5388
  %73 = load i16* (%"class.xercesc_2_7::XMLException"*)*, i16* (%"class.xercesc_2_7::XMLException"*)** %vfn70, align 8, !dbg !5388
  %call72 = invoke i16* %73(%"class.xercesc_2_7::XMLException"* %71)
          to label %invoke.cont71 unwind label %lpad45, !dbg !5388

invoke.cont71:                                    ; preds = %if.else68
  %74 = load %"class.xercesc_2_7::XMLException"*, %"class.xercesc_2_7::XMLException"** %excToCatch, align 8, !dbg !5389
  %call74 = invoke i16* @_ZNK11xercesc_2_712XMLException10getMessageEv(%"class.xercesc_2_7::XMLException"* %74)
          to label %invoke.cont73 unwind label %lpad45, !dbg !5390

invoke.cont73:                                    ; preds = %invoke.cont71
  invoke void @_ZN11xercesc_2_710XMLScanner9emitErrorENS_7XMLErrs5CodesEPKtS4_S4_S4_(%"class.xercesc_2_7::XMLScanner"* %70, i32 157, i16* %call72, i16* %call74, i16* null, i16* null)
          to label %invoke.cont75 unwind label %lpad45, !dbg !5386

invoke.cont75:                                    ; preds = %invoke.cont73
  br label %if.end76

if.end76:                                         ; preds = %invoke.cont75, %invoke.cont67
  br label %if.end77

if.end77:                                         ; preds = %if.end76, %invoke.cont55
  br label %try.cont, !dbg !5370

lpad84:                                           ; preds = %invoke.cont85, %catch81
  %75 = landingpad { i8*, i32 }
          cleanup, !dbg !5391
  %76 = extractvalue { i8*, i32 } %75, 0, !dbg !5391
  store i8* %76, i8** %exn.slot, align 8, !dbg !5391
  %77 = extractvalue { i8*, i32 } %75, 1, !dbg !5391
  store i32 %77, i32* %ehselector.slot, align 4, !dbg !5391
  invoke void @__cxa_end_catch()
          to label %invoke.cont86 unwind label %terminate.lpad, !dbg !5392

invoke.cont86:                                    ; preds = %lpad84
  br label %ehcleanup, !dbg !5392

try.cont:                                         ; preds = %if.end77
  invoke void @__cxa_end_catch()
          to label %invoke.cont88 unwind label %lpad87, !dbg !5311

invoke.cont88:                                    ; preds = %try.cont
  br label %try.cont94, !dbg !5311

lpad87:                                           ; preds = %try.cont
  %78 = landingpad { i8*, i32 }
          cleanup, !dbg !5308
  %79 = extractvalue { i8*, i32 } %78, 0, !dbg !5308
  store i8* %79, i8** %exn.slot, align 8, !dbg !5308
  %80 = extractvalue { i8*, i32 } %78, 1, !dbg !5308
  store i32 %80, i32* %ehselector.slot, align 4, !dbg !5308
  br label %ehcleanup95, !dbg !5308

ehcleanup:                                        ; preds = %invoke.cont86, %catch.dispatch78
  invoke void @__cxa_end_catch()
          to label %invoke.cont89 unwind label %terminate.lpad, !dbg !5311

invoke.cont89:                                    ; preds = %ehcleanup
  br label %ehcleanup95, !dbg !5311

ehcleanup95:                                      ; preds = %invoke.cont89, %lpad87, %invoke.cont41, %catch.fallthrough37
  call void @_ZN11xercesc_2_717JanitorMemFunCallINS_9ReaderMgrEED2Ev(%"class.xercesc_2_7::JanitorMemFunCall.59"* %resetReaderMgr) #10, !dbg !5308
  br label %eh.resume, !dbg !5308

eh.resume:                                        ; preds = %ehcleanup95
  %exn96 = load i8*, i8** %exn.slot, align 8, !dbg !5308
  %sel97 = load i32, i32* %ehselector.slot, align 4, !dbg !5308
  %lpad.val = insertvalue { i8*, i32 } undef, i8* %exn96, 0, !dbg !5308
  %lpad.val98 = insertvalue { i8*, i32 } %lpad.val, i32 %sel97, 1, !dbg !5308
  resume { i8*, i32 } %lpad.val98, !dbg !5308

terminate.lpad:                                   ; preds = %ehcleanup, %lpad84, %lpad39
  %81 = landingpad { i8*, i32 }
          catch i8* null, !dbg !5319
  %82 = extractvalue { i8*, i32 } %81, 0, !dbg !5319
  call void @__clang_call_terminate(i8* %82) #12, !dbg !5319
  unreachable, !dbg !5319

unreachable:                                      ; preds = %invoke.cont85, %invoke.cont40
  unreachable
}

declare dso_local void @_ZN11xercesc_2_79ReaderMgr5resetEv(%"class.xercesc_2_7::ReaderMgr"*) #7

; Function Attrs: noinline nounwind uwtable
define linkonce_odr dso_local void @_ZN11xercesc_2_717JanitorMemFunCallINS_9ReaderMgrEEC2EPS1_MS1_FvvE(%"class.xercesc_2_7::JanitorMemFunCall.59"* %this, %"class.xercesc_2_7::ReaderMgr"* %object, i64 %toCall.coerce0, i64 %toCall.coerce1) unnamed_addr #1 comdat align 2 !dbg !5393 {
entry:
  %toCall = alloca { i64, i64 }, align 8
  %this.addr = alloca %"class.xercesc_2_7::JanitorMemFunCall.59"*, align 8
  %object.addr = alloca %"class.xercesc_2_7::ReaderMgr"*, align 8
  %toCall.addr = alloca { i64, i64 }, align 8
  %0 = getelementptr inbounds { i64, i64 }, { i64, i64 }* %toCall, i32 0, i32 0
  store i64 %toCall.coerce0, i64* %0, align 8
  %1 = getelementptr inbounds { i64, i64 }, { i64, i64 }* %toCall, i32 0, i32 1
  store i64 %toCall.coerce1, i64* %1, align 8
  %toCall1 = load { i64, i64 }, { i64, i64 }* %toCall, align 8
  store %"class.xercesc_2_7::JanitorMemFunCall.59"* %this, %"class.xercesc_2_7::JanitorMemFunCall.59"** %this.addr, align 8
  call void @llvm.dbg.declare(metadata %"class.xercesc_2_7::JanitorMemFunCall.59"** %this.addr, metadata !5394, metadata !DIExpression()), !dbg !5396
  store %"class.xercesc_2_7::ReaderMgr"* %object, %"class.xercesc_2_7::ReaderMgr"** %object.addr, align 8
  call void @llvm.dbg.declare(metadata %"class.xercesc_2_7::ReaderMgr"** %object.addr, metadata !5397, metadata !DIExpression()), !dbg !5398
  store { i64, i64 } %toCall1, { i64, i64 }* %toCall.addr, align 8
  call void @llvm.dbg.declare(metadata { i64, i64 }* %toCall.addr, metadata !5399, metadata !DIExpression()), !dbg !5400
  %this2 = load %"class.xercesc_2_7::JanitorMemFunCall.59"*, %"class.xercesc_2_7::JanitorMemFunCall.59"** %this.addr, align 8
  %fObject = getelementptr inbounds %"class.xercesc_2_7::JanitorMemFunCall.59", %"class.xercesc_2_7::JanitorMemFunCall.59"* %this2, i32 0, i32 0, !dbg !5401
  %2 = load %"class.xercesc_2_7::ReaderMgr"*, %"class.xercesc_2_7::ReaderMgr"** %object.addr, align 8, !dbg !5402
  store %"class.xercesc_2_7::ReaderMgr"* %2, %"class.xercesc_2_7::ReaderMgr"** %fObject, align 8, !dbg !5401
  %fToCall = getelementptr inbounds %"class.xercesc_2_7::JanitorMemFunCall.59", %"class.xercesc_2_7::JanitorMemFunCall.59"* %this2, i32 0, i32 1, !dbg !5403
  %3 = load { i64, i64 }, { i64, i64 }* %toCall.addr, align 8, !dbg !5404
  store { i64, i64 } %3, { i64, i64 }* %fToCall, align 8, !dbg !5403
  ret void, !dbg !5405
}

declare dso_local void @_ZN11xercesc_2_710XMLScanner10scanPrologEv(%"class.xercesc_2_7::XMLScanner"*) #7

declare dso_local zeroext i1 @_ZNK11xercesc_2_79ReaderMgr5atEOFEv(%"class.xercesc_2_7::ReaderMgr"*) #7

declare dso_local void @_ZN11xercesc_2_710XMLScanner9emitErrorENS_7XMLErrs5CodesE(%"class.xercesc_2_7::XMLScanner"*, i32) #7

; Function Attrs: noinline uwtable
define dso_local zeroext i1 @_ZN11xercesc_2_712SGXMLScanner11scanContentEv(%"class.xercesc_2_7::SGXMLScanner"* %this) #6 align 2 personality i8* bitcast (i32 (...)* @__gxx_personality_v0 to i8*) !dbg !5406 {
entry:
  %this.addr = alloca %"class.xercesc_2_7::SGXMLScanner"*, align 8
  %gotData = alloca i8, align 1
  %inMarkup = alloca i8, align 1
  %orgReader = alloca i32, align 4
  %curToken = alloca i32, align 4
  %exn.slot = alloca i8*
  %ehselector.slot = alloca i32
  %topElem = alloca %"struct.xercesc_2_7::ElemStack::StackElem"*, align 8
  %toCatch = alloca %"class.xercesc_2_7::EndOfEntityException"*, align 8
  store %"class.xercesc_2_7::SGXMLScanner"* %this, %"class.xercesc_2_7::SGXMLScanner"** %this.addr, align 8
  call void @llvm.dbg.declare(metadata %"class.xercesc_2_7::SGXMLScanner"** %this.addr, metadata !5407, metadata !DIExpression()), !dbg !5408
  %this1 = load %"class.xercesc_2_7::SGXMLScanner"*, %"class.xercesc_2_7::SGXMLScanner"** %this.addr, align 8
  call void @llvm.dbg.declare(metadata i8* %gotData, metadata !5409, metadata !DIExpression()), !dbg !5410
  store i8 1, i8* %gotData, align 1, !dbg !5410
  call void @llvm.dbg.declare(metadata i8* %inMarkup, metadata !5411, metadata !DIExpression()), !dbg !5412
  store i8 0, i8* %inMarkup, align 1, !dbg !5412
  br label %while.cond, !dbg !5413

while.cond:                                       ; preds = %try.cont, %entry
  %0 = load i8, i8* %gotData, align 1, !dbg !5414
  %tobool = trunc i8 %0 to i1, !dbg !5414
  br i1 %tobool, label %while.body, label %while.end64, !dbg !5413

while.body:                                       ; preds = %while.cond
  br label %while.cond2, !dbg !5415

while.cond2:                                      ; preds = %if.end48, %if.end, %invoke.cont5, %while.body
  %1 = load i8, i8* %gotData, align 1, !dbg !5418
  %tobool3 = trunc i8 %1 to i1, !dbg !5418
  br i1 %tobool3, label %while.body4, label %while.end, !dbg !5415

while.body4:                                      ; preds = %while.cond2
  call void @llvm.dbg.declare(metadata i32* %orgReader, metadata !5419, metadata !DIExpression()), !dbg !5421
  call void @llvm.dbg.declare(metadata i32* %curToken, metadata !5422, metadata !DIExpression()), !dbg !5424
  %2 = bitcast %"class.xercesc_2_7::SGXMLScanner"* %this1 to %"class.xercesc_2_7::XMLScanner"*, !dbg !5425
  %call = invoke i32 @_ZN11xercesc_2_710XMLScanner14senseNextTokenERj(%"class.xercesc_2_7::XMLScanner"* %2, i32* dereferenceable(4) %orgReader)
          to label %invoke.cont unwind label %lpad, !dbg !5425

invoke.cont:                                      ; preds = %while.body4
  store i32 %call, i32* %curToken, align 4, !dbg !5424
  %3 = load i32, i32* %curToken, align 4, !dbg !5426
  %cmp = icmp eq i32 %3, 1, !dbg !5428
  br i1 %cmp, label %if.then, label %if.else, !dbg !5429

if.then:                                          ; preds = %invoke.cont
  %4 = bitcast %"class.xercesc_2_7::SGXMLScanner"* %this1 to %"class.xercesc_2_7::XMLScanner"*, !dbg !5430
  %fCDataBuf = getelementptr inbounds %"class.xercesc_2_7::XMLScanner", %"class.xercesc_2_7::XMLScanner"* %4, i32 0, i32 66, !dbg !5430
  %5 = bitcast %"class.xercesc_2_7::SGXMLScanner"* %this1 to void (%"class.xercesc_2_7::SGXMLScanner"*, %"class.xercesc_2_7::XMLBuffer"*)***, !dbg !5432
  %vtable = load void (%"class.xercesc_2_7::SGXMLScanner"*, %"class.xercesc_2_7::XMLBuffer"*)**, void (%"class.xercesc_2_7::SGXMLScanner"*, %"class.xercesc_2_7::XMLBuffer"*)*** %5, align 8, !dbg !5432
  %vfn = getelementptr inbounds void (%"class.xercesc_2_7::SGXMLScanner"*, %"class.xercesc_2_7::XMLBuffer"*)*, void (%"class.xercesc_2_7::SGXMLScanner"*, %"class.xercesc_2_7::XMLBuffer"*)** %vtable, i64 12, !dbg !5432
  %6 = load void (%"class.xercesc_2_7::SGXMLScanner"*, %"class.xercesc_2_7::XMLBuffer"*)*, void (%"class.xercesc_2_7::SGXMLScanner"*, %"class.xercesc_2_7::XMLBuffer"*)** %vfn, align 8, !dbg !5432
  invoke void %6(%"class.xercesc_2_7::SGXMLScanner"* %this1, %"class.xercesc_2_7::XMLBuffer"* dereferenceable(40) %fCDataBuf)
          to label %invoke.cont5 unwind label %lpad, !dbg !5432

invoke.cont5:                                     ; preds = %if.then
  br label %while.cond2, !dbg !5433, !llvm.loop !5434

lpad:                                             ; preds = %if.then46, %sw.epilog, %sw.default, %sw.bb36, %sw.bb34, %sw.bb30, %sw.bb28, %if.end24, %if.then22, %sw.bb, %invoke.cont14, %invoke.cont12, %if.then10, %if.then7, %if.then, %while.body4
  %7 = landingpad { i8*, i32 }
          catch i8* bitcast ({ i8*, i8* }* @_ZTIN11xercesc_2_720EndOfEntityExceptionE to i8*), !dbg !5436
  %8 = extractvalue { i8*, i32 } %7, 0, !dbg !5436
  store i8* %8, i8** %exn.slot, align 8, !dbg !5436
  %9 = extractvalue { i8*, i32 } %7, 1, !dbg !5436
  store i32 %9, i32* %ehselector.slot, align 4, !dbg !5436
  br label %catch.dispatch, !dbg !5436

catch.dispatch:                                   ; preds = %lpad
  %sel = load i32, i32* %ehselector.slot, align 4, !dbg !5437
  %10 = call i32 @llvm.eh.typeid.for(i8* bitcast ({ i8*, i8* }* @_ZTIN11xercesc_2_720EndOfEntityExceptionE to i8*)) #10, !dbg !5437
  %matches = icmp eq i32 %sel, %10, !dbg !5437
  br i1 %matches, label %catch, label %eh.resume, !dbg !5437

catch:                                            ; preds = %catch.dispatch
  call void @llvm.dbg.declare(metadata %"class.xercesc_2_7::EndOfEntityException"** %toCatch, metadata !5438, metadata !DIExpression()), !dbg !5474
  %exn = load i8*, i8** %exn.slot, align 8, !dbg !5437
  %11 = call i8* @__cxa_begin_catch(i8* %exn) #10, !dbg !5437
  %exn.byref = bitcast i8* %11 to %"class.xercesc_2_7::EndOfEntityException"*, !dbg !5437
  store %"class.xercesc_2_7::EndOfEntityException"* %exn.byref, %"class.xercesc_2_7::EndOfEntityException"** %toCatch, align 8, !dbg !5437
  %12 = load i8, i8* %inMarkup, align 1, !dbg !5475
  %tobool49 = trunc i8 %12 to i1, !dbg !5475
  br i1 %tobool49, label %if.then50, label %if.end53, !dbg !5478

if.then50:                                        ; preds = %catch
  %13 = bitcast %"class.xercesc_2_7::SGXMLScanner"* %this1 to %"class.xercesc_2_7::XMLScanner"*, !dbg !5479
  invoke void @_ZN11xercesc_2_710XMLScanner9emitErrorENS_7XMLErrs5CodesE(%"class.xercesc_2_7::XMLScanner"* %13, i32 231)
          to label %invoke.cont52 unwind label %lpad51, !dbg !5479

invoke.cont52:                                    ; preds = %if.then50
  br label %if.end53, !dbg !5479

if.else:                                          ; preds = %invoke.cont
  %14 = load i32, i32* %curToken, align 4, !dbg !5480
  %cmp6 = icmp eq i32 %14, 4, !dbg !5482
  br i1 %cmp6, label %if.then7, label %if.end17, !dbg !5483

if.then7:                                         ; preds = %if.else
  %15 = bitcast %"class.xercesc_2_7::SGXMLScanner"* %this1 to %"class.xercesc_2_7::XMLScanner"*, !dbg !5484
  %fElemStack = getelementptr inbounds %"class.xercesc_2_7::XMLScanner", %"class.xercesc_2_7::XMLScanner"* %15, i32 0, i32 71, !dbg !5484
  %call9 = invoke zeroext i1 @_ZNK11xercesc_2_79ElemStack7isEmptyEv(%"class.xercesc_2_7::ElemStack"* %fElemStack)
          to label %invoke.cont8 unwind label %lpad, !dbg !5487

invoke.cont8:                                     ; preds = %if.then7
  br i1 %call9, label %if.end, label %if.then10, !dbg !5488

if.then10:                                        ; preds = %invoke.cont8
  call void @llvm.dbg.declare(metadata %"struct.xercesc_2_7::ElemStack::StackElem"** %topElem, metadata !5489, metadata !DIExpression()), !dbg !5491
  %16 = bitcast %"class.xercesc_2_7::SGXMLScanner"* %this1 to %"class.xercesc_2_7::XMLScanner"*, !dbg !5492
  %fElemStack11 = getelementptr inbounds %"class.xercesc_2_7::XMLScanner", %"class.xercesc_2_7::XMLScanner"* %16, i32 0, i32 71, !dbg !5492
  %call13 = invoke %"struct.xercesc_2_7::ElemStack::StackElem"* @_ZN11xercesc_2_79ElemStack6popTopEv(%"class.xercesc_2_7::ElemStack"* %fElemStack11)
          to label %invoke.cont12 unwind label %lpad, !dbg !5493

invoke.cont12:                                    ; preds = %if.then10
  store %"struct.xercesc_2_7::ElemStack::StackElem"* %call13, %"struct.xercesc_2_7::ElemStack::StackElem"** %topElem, align 8, !dbg !5491
  %17 = bitcast %"class.xercesc_2_7::SGXMLScanner"* %this1 to %"class.xercesc_2_7::XMLScanner"*, !dbg !5494
  %18 = load %"struct.xercesc_2_7::ElemStack::StackElem"*, %"struct.xercesc_2_7::ElemStack::StackElem"** %topElem, align 8, !dbg !5495
  %fThisElement = getelementptr inbounds %"struct.xercesc_2_7::ElemStack::StackElem", %"struct.xercesc_2_7::ElemStack::StackElem"* %18, i32 0, i32 0, !dbg !5496
  %19 = load %"class.xercesc_2_7::XMLElementDecl"*, %"class.xercesc_2_7::XMLElementDecl"** %fThisElement, align 8, !dbg !5496
  %call15 = invoke i16* @_ZNK11xercesc_2_714XMLElementDecl11getFullNameEv(%"class.xercesc_2_7::XMLElementDecl"* %19)
          to label %invoke.cont14 unwind label %lpad, !dbg !5497

invoke.cont14:                                    ; preds = %invoke.cont12
  invoke void @_ZN11xercesc_2_710XMLScanner9emitErrorENS_7XMLErrs5CodesEPKtS4_S4_S4_(%"class.xercesc_2_7::XMLScanner"* %17, i32 274, i16* %call15, i16* null, i16* null, i16* null)
          to label %invoke.cont16 unwind label %lpad, !dbg !5494

invoke.cont16:                                    ; preds = %invoke.cont14
  br label %if.end, !dbg !5498

if.end:                                           ; preds = %invoke.cont16, %invoke.cont8
  store i8 0, i8* %gotData, align 1, !dbg !5499
  br label %while.cond2, !dbg !5500, !llvm.loop !5434

if.end17:                                         ; preds = %if.else
  br label %if.end18

if.end18:                                         ; preds = %if.end17
  store i8 1, i8* %inMarkup, align 1, !dbg !5501
  %20 = load i32, i32* %curToken, align 4, !dbg !5502
  switch i32 %20, label %sw.default [
    i32 0, label %sw.bb
    i32 2, label %sw.bb28
    i32 3, label %sw.bb30
    i32 5, label %sw.bb34
    i32 6, label %sw.bb36
  ], !dbg !5503

sw.bb:                                            ; preds = %if.end18
  %21 = bitcast %"class.xercesc_2_7::SGXMLScanner"* %this1 to %"class.xercesc_2_7::XMLScanner"*, !dbg !5504
  %fElemStack19 = getelementptr inbounds %"class.xercesc_2_7::XMLScanner", %"class.xercesc_2_7::XMLScanner"* %21, i32 0, i32 71, !dbg !5504
  %call21 = invoke zeroext i1 @_ZNK11xercesc_2_79ElemStack7isEmptyEv(%"class.xercesc_2_7::ElemStack"* %fElemStack19)
          to label %invoke.cont20 unwind label %lpad, !dbg !5507

invoke.cont20:                                    ; preds = %sw.bb
  br i1 %call21, label %if.then22, label %if.end24, !dbg !5508

if.then22:                                        ; preds = %invoke.cont20
  %22 = bitcast %"class.xercesc_2_7::SGXMLScanner"* %this1 to %"class.xercesc_2_7::XMLScanner"*, !dbg !5509
  invoke void @_ZN11xercesc_2_710XMLScanner9emitErrorENS_7XMLErrs5CodesE(%"class.xercesc_2_7::XMLScanner"* %22, i32 280)
          to label %invoke.cont23 unwind label %lpad, !dbg !5509

invoke.cont23:                                    ; preds = %if.then22
  br label %if.end24, !dbg !5509

if.end24:                                         ; preds = %invoke.cont23, %invoke.cont20
  %23 = bitcast %"class.xercesc_2_7::SGXMLScanner"* %this1 to void (%"class.xercesc_2_7::SGXMLScanner"*)***, !dbg !5510
  %vtable25 = load void (%"class.xercesc_2_7::SGXMLScanner"*)**, void (%"class.xercesc_2_7::SGXMLScanner"*)*** %23, align 8, !dbg !5510
  %vfn26 = getelementptr inbounds void (%"class.xercesc_2_7::SGXMLScanner"*)*, void (%"class.xercesc_2_7::SGXMLScanner"*)** %vtable25, i64 11, !dbg !5510
  %24 = load void (%"class.xercesc_2_7::SGXMLScanner"*)*, void (%"class.xercesc_2_7::SGXMLScanner"*)** %vfn26, align 8, !dbg !5510
  invoke void %24(%"class.xercesc_2_7::SGXMLScanner"* %this1)
          to label %invoke.cont27 unwind label %lpad, !dbg !5510

invoke.cont27:                                    ; preds = %if.end24
  br label %sw.epilog, !dbg !5511

sw.bb28:                                          ; preds = %if.end18
  %25 = bitcast %"class.xercesc_2_7::SGXMLScanner"* %this1 to %"class.xercesc_2_7::XMLScanner"*, !dbg !5512
  invoke void @_ZN11xercesc_2_710XMLScanner11scanCommentEv(%"class.xercesc_2_7::XMLScanner"* %25)
          to label %invoke.cont29 unwind label %lpad, !dbg !5512

invoke.cont29:                                    ; preds = %sw.bb28
  br label %sw.epilog, !dbg !5513

sw.bb30:                                          ; preds = %if.end18
  %26 = bitcast %"class.xercesc_2_7::SGXMLScanner"* %this1 to void (%"class.xercesc_2_7::SGXMLScanner"*, i8*)***, !dbg !5514
  %vtable31 = load void (%"class.xercesc_2_7::SGXMLScanner"*, i8*)**, void (%"class.xercesc_2_7::SGXMLScanner"*, i8*)*** %26, align 8, !dbg !5514
  %vfn32 = getelementptr inbounds void (%"class.xercesc_2_7::SGXMLScanner"*, i8*)*, void (%"class.xercesc_2_7::SGXMLScanner"*, i8*)** %vtable31, i64 19, !dbg !5514
  %27 = load void (%"class.xercesc_2_7::SGXMLScanner"*, i8*)*, void (%"class.xercesc_2_7::SGXMLScanner"*, i8*)** %vfn32, align 8, !dbg !5514
  invoke void %27(%"class.xercesc_2_7::SGXMLScanner"* %this1, i8* dereferenceable(1) %gotData)
          to label %invoke.cont33 unwind label %lpad, !dbg !5514

invoke.cont33:                                    ; preds = %sw.bb30
  br label %sw.epilog, !dbg !5515

sw.bb34:                                          ; preds = %if.end18
  %28 = bitcast %"class.xercesc_2_7::SGXMLScanner"* %this1 to %"class.xercesc_2_7::XMLScanner"*, !dbg !5516
  invoke void @_ZN11xercesc_2_710XMLScanner6scanPIEv(%"class.xercesc_2_7::XMLScanner"* %28)
          to label %invoke.cont35 unwind label %lpad, !dbg !5516

invoke.cont35:                                    ; preds = %sw.bb34
  br label %sw.epilog, !dbg !5517

sw.bb36:                                          ; preds = %if.end18
  %29 = bitcast %"class.xercesc_2_7::SGXMLScanner"* %this1 to i1 (%"class.xercesc_2_7::SGXMLScanner"*, i8*)***, !dbg !5518
  %vtable37 = load i1 (%"class.xercesc_2_7::SGXMLScanner"*, i8*)**, i1 (%"class.xercesc_2_7::SGXMLScanner"*, i8*)*** %29, align 8, !dbg !5518
  %vfn38 = getelementptr inbounds i1 (%"class.xercesc_2_7::SGXMLScanner"*, i8*)*, i1 (%"class.xercesc_2_7::SGXMLScanner"*, i8*)** %vtable37, i64 18, !dbg !5518
  %30 = load i1 (%"class.xercesc_2_7::SGXMLScanner"*, i8*)*, i1 (%"class.xercesc_2_7::SGXMLScanner"*, i8*)** %vfn38, align 8, !dbg !5518
  %call40 = invoke zeroext i1 %30(%"class.xercesc_2_7::SGXMLScanner"* %this1, i8* dereferenceable(1) %gotData)
          to label %invoke.cont39 unwind label %lpad, !dbg !5518

invoke.cont39:                                    ; preds = %sw.bb36
  br label %sw.epilog, !dbg !5519

sw.default:                                       ; preds = %if.end18
  %31 = bitcast %"class.xercesc_2_7::SGXMLScanner"* %this1 to %"class.xercesc_2_7::XMLScanner"*, !dbg !5520
  %fReaderMgr = getelementptr inbounds %"class.xercesc_2_7::XMLScanner", %"class.xercesc_2_7::XMLScanner"* %31, i32 0, i32 49, !dbg !5520
  invoke void @_ZN11xercesc_2_79ReaderMgr10skipToCharEt(%"class.xercesc_2_7::ReaderMgr"* %fReaderMgr, i16 zeroext 60)
          to label %invoke.cont41 unwind label %lpad, !dbg !5521

invoke.cont41:                                    ; preds = %sw.default
  br label %sw.epilog, !dbg !5522

sw.epilog:                                        ; preds = %invoke.cont41, %invoke.cont39, %invoke.cont35, %invoke.cont33, %invoke.cont29, %invoke.cont27
  %32 = load i32, i32* %orgReader, align 4, !dbg !5523
  %33 = bitcast %"class.xercesc_2_7::SGXMLScanner"* %this1 to %"class.xercesc_2_7::XMLScanner"*, !dbg !5525
  %fReaderMgr42 = getelementptr inbounds %"class.xercesc_2_7::XMLScanner", %"class.xercesc_2_7::XMLScanner"* %33, i32 0, i32 49, !dbg !5525
  %call44 = invoke i32 @_ZNK11xercesc_2_79ReaderMgr19getCurrentReaderNumEv(%"class.xercesc_2_7::ReaderMgr"* %fReaderMgr42)
          to label %invoke.cont43 unwind label %lpad, !dbg !5526

invoke.cont43:                                    ; preds = %sw.epilog
  %cmp45 = icmp ne i32 %32, %call44, !dbg !5527
  br i1 %cmp45, label %if.then46, label %if.end48, !dbg !5528

if.then46:                                        ; preds = %invoke.cont43
  %34 = bitcast %"class.xercesc_2_7::SGXMLScanner"* %this1 to %"class.xercesc_2_7::XMLScanner"*, !dbg !5529
  invoke void @_ZN11xercesc_2_710XMLScanner9emitErrorENS_7XMLErrs5CodesE(%"class.xercesc_2_7::XMLScanner"* %34, i32 231)
          to label %invoke.cont47 unwind label %lpad, !dbg !5529

invoke.cont47:                                    ; preds = %if.then46
  br label %if.end48, !dbg !5529

if.end48:                                         ; preds = %invoke.cont47, %invoke.cont43
  store i8 0, i8* %inMarkup, align 1, !dbg !5530
  br label %while.cond2, !dbg !5415, !llvm.loop !5434

while.end:                                        ; preds = %while.cond2
  br label %try.cont, !dbg !5437

lpad51:                                           ; preds = %invoke.cont57, %if.then55, %if.then50
  %35 = landingpad { i8*, i32 }
          cleanup, !dbg !5531
  %36 = extractvalue { i8*, i32 } %35, 0, !dbg !5531
  store i8* %36, i8** %exn.slot, align 8, !dbg !5531
  %37 = extractvalue { i8*, i32 } %35, 1, !dbg !5531
  store i32 %37, i32* %ehselector.slot, align 4, !dbg !5531
  invoke void @__cxa_end_catch()
          to label %invoke.cont63 unwind label %terminate.lpad, !dbg !5532

if.end53:                                         ; preds = %invoke.cont52, %catch
  %38 = bitcast %"class.xercesc_2_7::SGXMLScanner"* %this1 to %"class.xercesc_2_7::XMLScanner"*, !dbg !5533
  %fDocHandler = getelementptr inbounds %"class.xercesc_2_7::XMLScanner", %"class.xercesc_2_7::XMLScanner"* %38, i32 0, i32 41, !dbg !5533
  %39 = load %"class.xercesc_2_7::XMLDocumentHandler"*, %"class.xercesc_2_7::XMLDocumentHandler"** %fDocHandler, align 8, !dbg !5533
  %tobool54 = icmp ne %"class.xercesc_2_7::XMLDocumentHandler"* %39, null, !dbg !5533
  br i1 %tobool54, label %if.then55, label %if.end62, !dbg !5535

if.then55:                                        ; preds = %if.end53
  %40 = bitcast %"class.xercesc_2_7::SGXMLScanner"* %this1 to %"class.xercesc_2_7::XMLScanner"*, !dbg !5536
  %fDocHandler56 = getelementptr inbounds %"class.xercesc_2_7::XMLScanner", %"class.xercesc_2_7::XMLScanner"* %40, i32 0, i32 41, !dbg !5536
  %41 = load %"class.xercesc_2_7::XMLDocumentHandler"*, %"class.xercesc_2_7::XMLDocumentHandler"** %fDocHandler56, align 8, !dbg !5536
  %42 = load %"class.xercesc_2_7::EndOfEntityException"*, %"class.xercesc_2_7::EndOfEntityException"** %toCatch, align 8, !dbg !5537
  %call58 = invoke dereferenceable(72) %"class.xercesc_2_7::XMLEntityDecl"* @_ZNK11xercesc_2_720EndOfEntityException9getEntityEv(%"class.xercesc_2_7::EndOfEntityException"* %42)
          to label %invoke.cont57 unwind label %lpad51, !dbg !5538

invoke.cont57:                                    ; preds = %if.then55
  %43 = bitcast %"class.xercesc_2_7::XMLDocumentHandler"* %41 to void (%"class.xercesc_2_7::XMLDocumentHandler"*, %"class.xercesc_2_7::XMLEntityDecl"*)***, !dbg !5539
  %vtable59 = load void (%"class.xercesc_2_7::XMLDocumentHandler"*, %"class.xercesc_2_7::XMLEntityDecl"*)**, void (%"class.xercesc_2_7::XMLDocumentHandler"*, %"class.xercesc_2_7::XMLEntityDecl"*)*** %43, align 8, !dbg !5539
  %vfn60 = getelementptr inbounds void (%"class.xercesc_2_7::XMLDocumentHandler"*, %"class.xercesc_2_7::XMLEntityDecl"*)*, void (%"class.xercesc_2_7::XMLDocumentHandler"*, %"class.xercesc_2_7::XMLEntityDecl"*)** %vtable59, i64 7, !dbg !5539
  %44 = load void (%"class.xercesc_2_7::XMLDocumentHandler"*, %"class.xercesc_2_7::XMLEntityDecl"*)*, void (%"class.xercesc_2_7::XMLDocumentHandler"*, %"class.xercesc_2_7::XMLEntityDecl"*)** %vfn60, align 8, !dbg !5539
  invoke void %44(%"class.xercesc_2_7::XMLDocumentHandler"* %41, %"class.xercesc_2_7::XMLEntityDecl"* dereferenceable(72) %call58)
          to label %invoke.cont61 unwind label %lpad51, !dbg !5539

invoke.cont61:                                    ; preds = %invoke.cont57
  br label %if.end62, !dbg !5536

if.end62:                                         ; preds = %invoke.cont61, %if.end53
  store i8 0, i8* %inMarkup, align 1, !dbg !5540
  call void @__cxa_end_catch(), !dbg !5532
  br label %try.cont, !dbg !5532

try.cont:                                         ; preds = %if.end62, %while.end
  br label %while.cond, !dbg !5413, !llvm.loop !5541

invoke.cont63:                                    ; preds = %lpad51
  br label %eh.resume, !dbg !5532

while.end64:                                      ; preds = %while.cond
  ret i1 true, !dbg !5543

eh.resume:                                        ; preds = %invoke.cont63, %catch.dispatch
  %exn65 = load i8*, i8** %exn.slot, align 8, !dbg !5437
  %sel66 = load i32, i32* %ehselector.slot, align 4, !dbg !5437
  %lpad.val = insertvalue { i8*, i32 } undef, i8* %exn65, 0, !dbg !5437
  %lpad.val67 = insertvalue { i8*, i32 } %lpad.val, i32 %sel66, 1, !dbg !5437
  resume { i8*, i32 } %lpad.val67, !dbg !5437

terminate.lpad:                                   ; preds = %lpad51
  %45 = landingpad { i8*, i32 }
          catch i8* null, !dbg !5532
  %46 = extractvalue { i8*, i32 } %45, 0, !dbg !5532
  call void @__clang_call_terminate(i8* %46) #12, !dbg !5532
  unreachable, !dbg !5532
}

declare dso_local void @_ZN11xercesc_2_710XMLScanner11checkIDRefsEv(%"class.xercesc_2_7::XMLScanner"*) #7

declare dso_local void @_ZN11xercesc_2_710XMLScanner17scanMiscellaneousEv(%"class.xercesc_2_7::XMLScanner"*) #7

; Function Attrs: noinline nounwind uwtable
define linkonce_odr dso_local void @_ZN11xercesc_2_717JanitorMemFunCallINS_9ReaderMgrEE7releaseEv(%"class.xercesc_2_7::JanitorMemFunCall.59"* %this) #1 comdat align 2 !dbg !5544 {
entry:
  %this.addr = alloca %"class.xercesc_2_7::JanitorMemFunCall.59"*, align 8
  store %"class.xercesc_2_7::JanitorMemFunCall.59"* %this, %"class.xercesc_2_7::JanitorMemFunCall.59"** %this.addr, align 8
  call void @llvm.dbg.declare(metadata %"class.xercesc_2_7::JanitorMemFunCall.59"** %this.addr, metadata !5545, metadata !DIExpression()), !dbg !5546
  %this1 = load %"class.xercesc_2_7::JanitorMemFunCall.59"*, %"class.xercesc_2_7::JanitorMemFunCall.59"** %this.addr, align 8
  %fObject = getelementptr inbounds %"class.xercesc_2_7::JanitorMemFunCall.59", %"class.xercesc_2_7::JanitorMemFunCall.59"* %this1, i32 0, i32 0, !dbg !5547
  store %"class.xercesc_2_7::ReaderMgr"* null, %"class.xercesc_2_7::ReaderMgr"** %fObject, align 8, !dbg !5548
  %fToCall = getelementptr inbounds %"class.xercesc_2_7::JanitorMemFunCall.59", %"class.xercesc_2_7::JanitorMemFunCall.59"* %this1, i32 0, i32 1, !dbg !5549
  store { i64, i64 } zeroinitializer, { i64, i64 }* %fToCall, align 8, !dbg !5550
  ret void, !dbg !5551
}

; Function Attrs: noinline nounwind uwtable
define linkonce_odr dso_local i32 @_ZNK11xercesc_2_712XMLException12getErrorTypeEv(%"class.xercesc_2_7::XMLException"* %this) #1 comdat align 2 !dbg !5552 {
entry:
  %retval = alloca i32, align 4
  %this.addr = alloca %"class.xercesc_2_7::XMLException"*, align 8
  store %"class.xercesc_2_7::XMLException"* %this, %"class.xercesc_2_7::XMLException"** %this.addr, align 8
  call void @llvm.dbg.declare(metadata %"class.xercesc_2_7::XMLException"** %this.addr, metadata !5557, metadata !DIExpression()), !dbg !5559
  %this1 = load %"class.xercesc_2_7::XMLException"*, %"class.xercesc_2_7::XMLException"** %this.addr, align 8
  %fCode = getelementptr inbounds %"class.xercesc_2_7::XMLException", %"class.xercesc_2_7::XMLException"* %this1, i32 0, i32 1, !dbg !5560
  %0 = load i32, i32* %fCode, align 8, !dbg !5560
  %cmp = icmp sge i32 %0, 1, !dbg !5562
  br i1 %cmp, label %land.lhs.true, label %if.else, !dbg !5563

land.lhs.true:                                    ; preds = %entry
  %fCode2 = getelementptr inbounds %"class.xercesc_2_7::XMLException", %"class.xercesc_2_7::XMLException"* %this1, i32 0, i32 1, !dbg !5564
  %1 = load i32, i32* %fCode2, align 8, !dbg !5564
  %cmp3 = icmp sle i32 %1, 4, !dbg !5565
  br i1 %cmp3, label %if.then, label %if.else, !dbg !5566

if.then:                                          ; preds = %land.lhs.true
  store i32 0, i32* %retval, align 4, !dbg !5567
  br label %return, !dbg !5567

if.else:                                          ; preds = %land.lhs.true, %entry
  %fCode4 = getelementptr inbounds %"class.xercesc_2_7::XMLException", %"class.xercesc_2_7::XMLException"* %this1, i32 0, i32 1, !dbg !5568
  %2 = load i32, i32* %fCode4, align 8, !dbg !5568
  %cmp5 = icmp sge i32 %2, 5, !dbg !5570
  br i1 %cmp5, label %land.lhs.true6, label %if.else10, !dbg !5571

land.lhs.true6:                                   ; preds = %if.else
  %fCode7 = getelementptr inbounds %"class.xercesc_2_7::XMLException", %"class.xercesc_2_7::XMLException"* %this1, i32 0, i32 1, !dbg !5572
  %3 = load i32, i32* %fCode7, align 8, !dbg !5572
  %cmp8 = icmp sle i32 %3, 401, !dbg !5573
  br i1 %cmp8, label %if.then9, label %if.else10, !dbg !5574

if.then9:                                         ; preds = %land.lhs.true6
  store i32 2, i32* %retval, align 4, !dbg !5575
  br label %return, !dbg !5575

if.else10:                                        ; preds = %land.lhs.true6, %if.else
  %fCode11 = getelementptr inbounds %"class.xercesc_2_7::XMLException", %"class.xercesc_2_7::XMLException"* %this1, i32 0, i32 1, !dbg !5576
  %4 = load i32, i32* %fCode11, align 8, !dbg !5576
  %cmp12 = icmp sge i32 %4, 402, !dbg !5578
  br i1 %cmp12, label %land.lhs.true13, label %if.end, !dbg !5579

land.lhs.true13:                                  ; preds = %if.else10
  %fCode14 = getelementptr inbounds %"class.xercesc_2_7::XMLException", %"class.xercesc_2_7::XMLException"* %this1, i32 0, i32 1, !dbg !5580
  %5 = load i32, i32* %fCode14, align 8, !dbg !5580
  %cmp15 = icmp sle i32 %5, 403, !dbg !5581
  br i1 %cmp15, label %if.then16, label %if.end, !dbg !5582

if.then16:                                        ; preds = %land.lhs.true13
  store i32 1, i32* %retval, align 4, !dbg !5583
  br label %return, !dbg !5583

if.end:                                           ; preds = %land.lhs.true13, %if.else10
  br label %if.end17

if.end17:                                         ; preds = %if.end
  br label %if.end18

if.end18:                                         ; preds = %if.end17
  store i32 3, i32* %retval, align 4, !dbg !5584
  br label %return, !dbg !5584

return:                                           ; preds = %if.end18, %if.then16, %if.then9, %if.then
  %6 = load i32, i32* %retval, align 4, !dbg !5585
  ret i32 %6, !dbg !5585
}

declare dso_local void @_ZN11xercesc_2_710XMLScanner9emitErrorENS_7XMLErrs5CodesEPKtS4_S4_S4_(%"class.xercesc_2_7::XMLScanner"*, i32, i16*, i16*, i16*, i16*) #7

; Function Attrs: noinline nounwind uwtable
define linkonce_odr dso_local i16* @_ZNK11xercesc_2_712XMLException10getMessageEv(%"class.xercesc_2_7::XMLException"* %this) #1 comdat align 2 !dbg !5586 {
entry:
  %this.addr = alloca %"class.xercesc_2_7::XMLException"*, align 8
  store %"class.xercesc_2_7::XMLException"* %this, %"class.xercesc_2_7::XMLException"** %this.addr, align 8
  call void @llvm.dbg.declare(metadata %"class.xercesc_2_7::XMLException"** %this.addr, metadata !5590, metadata !DIExpression()), !dbg !5591
  %this1 = load %"class.xercesc_2_7::XMLException"*, %"class.xercesc_2_7::XMLException"** %this.addr, align 8
  %fMsg = getelementptr inbounds %"class.xercesc_2_7::XMLException", %"class.xercesc_2_7::XMLException"* %this1, i32 0, i32 4, !dbg !5592
  %0 = load i16*, i16** %fMsg, align 8, !dbg !5592
  ret i16* %0, !dbg !5593
}

; Function Attrs: noinline nounwind uwtable
define linkonce_odr dso_local void @_ZN11xercesc_2_717JanitorMemFunCallINS_9ReaderMgrEED2Ev(%"class.xercesc_2_7::JanitorMemFunCall.59"* %this) unnamed_addr #1 comdat align 2 personality i8* bitcast (i32 (...)* @__gxx_personality_v0 to i8*) !dbg !5594 {
entry:
  %this.addr = alloca %"class.xercesc_2_7::JanitorMemFunCall.59"*, align 8
  store %"class.xercesc_2_7::JanitorMemFunCall.59"* %this, %"class.xercesc_2_7::JanitorMemFunCall.59"** %this.addr, align 8
  call void @llvm.dbg.declare(metadata %"class.xercesc_2_7::JanitorMemFunCall.59"** %this.addr, metadata !5595, metadata !DIExpression()), !dbg !5596
  %this1 = load %"class.xercesc_2_7::JanitorMemFunCall.59"*, %"class.xercesc_2_7::JanitorMemFunCall.59"** %this.addr, align 8
  %fObject = getelementptr inbounds %"class.xercesc_2_7::JanitorMemFunCall.59", %"class.xercesc_2_7::JanitorMemFunCall.59"* %this1, i32 0, i32 0, !dbg !5597
  %0 = load %"class.xercesc_2_7::ReaderMgr"*, %"class.xercesc_2_7::ReaderMgr"** %fObject, align 8, !dbg !5597
  %cmp = icmp ne %"class.xercesc_2_7::ReaderMgr"* %0, null, !dbg !5600
  br i1 %cmp, label %land.lhs.true, label %if.end, !dbg !5601

land.lhs.true:                                    ; preds = %entry
  %fToCall = getelementptr inbounds %"class.xercesc_2_7::JanitorMemFunCall.59", %"class.xercesc_2_7::JanitorMemFunCall.59"* %this1, i32 0, i32 1, !dbg !5602
  %1 = load { i64, i64 }, { i64, i64 }* %fToCall, align 8, !dbg !5602
  %lhs.memptr.ptr = extractvalue { i64, i64 } %1, 0, !dbg !5603
  %cmp.ptr = icmp ne i64 %lhs.memptr.ptr, 0, !dbg !5603
  %cmp.ptr.null = icmp ne i64 %lhs.memptr.ptr, 0, !dbg !5603
  %lhs.memptr.adj = extractvalue { i64, i64 } %1, 1, !dbg !5603
  %cmp.adj = icmp ne i64 %lhs.memptr.adj, 0, !dbg !5603
  %2 = and i1 %cmp.ptr.null, %cmp.adj, !dbg !5603
  %memptr.ne = or i1 %cmp.ptr, %2, !dbg !5603
  br i1 %memptr.ne, label %if.then, label %if.end, !dbg !5604

if.then:                                          ; preds = %land.lhs.true
  %fObject2 = getelementptr inbounds %"class.xercesc_2_7::JanitorMemFunCall.59", %"class.xercesc_2_7::JanitorMemFunCall.59"* %this1, i32 0, i32 0, !dbg !5605
  %3 = load %"class.xercesc_2_7::ReaderMgr"*, %"class.xercesc_2_7::ReaderMgr"** %fObject2, align 8, !dbg !5605
  %fToCall3 = getelementptr inbounds %"class.xercesc_2_7::JanitorMemFunCall.59", %"class.xercesc_2_7::JanitorMemFunCall.59"* %this1, i32 0, i32 1, !dbg !5607
  %4 = load { i64, i64 }, { i64, i64 }* %fToCall3, align 8, !dbg !5607
  %memptr.adj = extractvalue { i64, i64 } %4, 1, !dbg !5608
  %5 = bitcast %"class.xercesc_2_7::ReaderMgr"* %3 to i8*, !dbg !5608
  %6 = getelementptr inbounds i8, i8* %5, i64 %memptr.adj, !dbg !5608
  %this.adjusted = bitcast i8* %6 to %"class.xercesc_2_7::ReaderMgr"*, !dbg !5608
  %memptr.ptr = extractvalue { i64, i64 } %4, 0, !dbg !5608
  %7 = and i64 %memptr.ptr, 1, !dbg !5608
  %memptr.isvirtual = icmp ne i64 %7, 0, !dbg !5608
  br i1 %memptr.isvirtual, label %memptr.virtual, label %memptr.nonvirtual, !dbg !5608

memptr.virtual:                                   ; preds = %if.then
  %8 = bitcast %"class.xercesc_2_7::ReaderMgr"* %this.adjusted to i8**, !dbg !5608
  %vtable = load i8*, i8** %8, align 8, !dbg !5608
  %9 = sub i64 %memptr.ptr, 1, !dbg !5608
  %10 = getelementptr i8, i8* %vtable, i64 %9, !dbg !5608, !nosanitize !3185
  %11 = bitcast i8* %10 to void (%"class.xercesc_2_7::ReaderMgr"*)**, !dbg !5608, !nosanitize !3185
  %memptr.virtualfn = load void (%"class.xercesc_2_7::ReaderMgr"*)*, void (%"class.xercesc_2_7::ReaderMgr"*)** %11, align 8, !dbg !5608, !nosanitize !3185
  br label %memptr.end, !dbg !5608

memptr.nonvirtual:                                ; preds = %if.then
  %memptr.nonvirtualfn = inttoptr i64 %memptr.ptr to void (%"class.xercesc_2_7::ReaderMgr"*)*, !dbg !5608
  br label %memptr.end, !dbg !5608

memptr.end:                                       ; preds = %memptr.nonvirtual, %memptr.virtual
  %12 = phi void (%"class.xercesc_2_7::ReaderMgr"*)* [ %memptr.virtualfn, %memptr.virtual ], [ %memptr.nonvirtualfn, %memptr.nonvirtual ], !dbg !5608
  invoke void %12(%"class.xercesc_2_7::ReaderMgr"* %this.adjusted)
          to label %invoke.cont unwind label %terminate.lpad, !dbg !5608

invoke.cont:                                      ; preds = %memptr.end
  br label %if.end, !dbg !5609

if.end:                                           ; preds = %invoke.cont, %land.lhs.true, %entry
  ret void, !dbg !5610

terminate.lpad:                                   ; preds = %memptr.end
  %13 = landingpad { i8*, i32 }
          catch i8* null, !dbg !5608
  %14 = extractvalue { i8*, i32 } %13, 0, !dbg !5608
  call void @__clang_call_terminate(i8* %14) #12, !dbg !5608
  unreachable, !dbg !5608
}

; Function Attrs: noinline uwtable
define dso_local zeroext i1 @_ZN11xercesc_2_712SGXMLScanner8scanNextERNS_13XMLPScanTokenE(%"class.xercesc_2_7::SGXMLScanner"* %this, %"class.xercesc_2_7::XMLPScanToken"* dereferenceable(8) %token) unnamed_addr #6 align 2 personality i8* bitcast (i32 (...)* @__gxx_personality_v0 to i8*) !dbg !5611 {
entry:
  %this.addr = alloca %"class.xercesc_2_7::SGXMLScanner"*, align 8
  %token.addr = alloca %"class.xercesc_2_7::XMLPScanToken"*, align 8
  %exn.slot = alloca i8*
  %ehselector.slot = alloca i32
  %orgReader = alloca i32, align 4
  %curToken = alloca i32, align 4
  %resetReaderMgr = alloca %"class.xercesc_2_7::JanitorMemFunCall.59", align 8
  %coerce = alloca { i64, i64 }, align 8
  %retVal = alloca i8, align 1
  %toCatch = alloca %"class.xercesc_2_7::EndOfEntityException"*, align 8
  %topElem = alloca %"struct.xercesc_2_7::ElemStack::StackElem"*, align 8
  %gotData = alloca i8, align 1
  %0 = alloca %"class.xercesc_2_7::OutOfMemoryException"*, align 8
  %excToCatch = alloca %"class.xercesc_2_7::XMLException"*, align 8
  %1 = alloca %"class.xercesc_2_7::OutOfMemoryException"*, align 8
  %2 = alloca i32, align 4
  %3 = alloca i32, align 4
  store %"class.xercesc_2_7::SGXMLScanner"* %this, %"class.xercesc_2_7::SGXMLScanner"** %this.addr, align 8
  call void @llvm.dbg.declare(metadata %"class.xercesc_2_7::SGXMLScanner"** %this.addr, metadata !5612, metadata !DIExpression()), !dbg !5613
  store %"class.xercesc_2_7::XMLPScanToken"* %token, %"class.xercesc_2_7::XMLPScanToken"** %token.addr, align 8
  call void @llvm.dbg.declare(metadata %"class.xercesc_2_7::XMLPScanToken"** %token.addr, metadata !5614, metadata !DIExpression()), !dbg !5615
  %this1 = load %"class.xercesc_2_7::SGXMLScanner"*, %"class.xercesc_2_7::SGXMLScanner"** %this.addr, align 8
  %4 = bitcast %"class.xercesc_2_7::SGXMLScanner"* %this1 to %"class.xercesc_2_7::XMLScanner"*, !dbg !5616
  %5 = load %"class.xercesc_2_7::XMLPScanToken"*, %"class.xercesc_2_7::XMLPScanToken"** %token.addr, align 8, !dbg !5618
  %call = call zeroext i1 @_ZN11xercesc_2_710XMLScanner12isLegalTokenERKNS_13XMLPScanTokenE(%"class.xercesc_2_7::XMLScanner"* %4, %"class.xercesc_2_7::XMLPScanToken"* dereferenceable(8) %5), !dbg !5616
  br i1 %call, label %if.end, label %if.then, !dbg !5619

if.then:                                          ; preds = %entry
  %exception = call i8* @__cxa_allocate_exception(i64 48) #10, !dbg !5620
  %6 = bitcast i8* %exception to %"class.xercesc_2_7::RuntimeException"*, !dbg !5620
  %7 = bitcast %"class.xercesc_2_7::SGXMLScanner"* %this1 to %"class.xercesc_2_7::XMLScanner"*, !dbg !5620
  %fMemoryManager = getelementptr inbounds %"class.xercesc_2_7::XMLScanner", %"class.xercesc_2_7::XMLScanner"* %7, i32 0, i32 62, !dbg !5620
  %8 = load %"class.xercesc_2_7::MemoryManager"*, %"class.xercesc_2_7::MemoryManager"** %fMemoryManager, align 8, !dbg !5620
  invoke void @_ZN11xercesc_2_716RuntimeExceptionC2EPKcjNS_10XMLExcepts5CodesEPNS_13MemoryManagerE(%"class.xercesc_2_7::RuntimeException"* %6, i8* getelementptr inbounds ([17 x i8], [17 x i8]* @.str, i64 0, i64 0), i32 298, i32 78, %"class.xercesc_2_7::MemoryManager"* %8)
          to label %invoke.cont unwind label %lpad, !dbg !5620

invoke.cont:                                      ; preds = %if.then
  call void @__cxa_throw(i8* %exception, i8* bitcast ({ i8*, i8*, i8* }* @_ZTIN11xercesc_2_716RuntimeExceptionE to i8*), i8* bitcast (void (%"class.xercesc_2_7::RuntimeException"*)* @_ZN11xercesc_2_716RuntimeExceptionD2Ev to i8*)) #13, !dbg !5620
  unreachable, !dbg !5620

lpad:                                             ; preds = %if.then
  %9 = landingpad { i8*, i32 }
          cleanup, !dbg !5621
  %10 = extractvalue { i8*, i32 } %9, 0, !dbg !5621
  store i8* %10, i8** %exn.slot, align 8, !dbg !5621
  %11 = extractvalue { i8*, i32 } %9, 1, !dbg !5621
  store i32 %11, i32* %ehselector.slot, align 4, !dbg !5621
  call void @__cxa_free_exception(i8* %exception) #10, !dbg !5620
  br label %eh.resume, !dbg !5620

if.end:                                           ; preds = %entry
  call void @llvm.dbg.declare(metadata i32* %orgReader, metadata !5622, metadata !DIExpression()), !dbg !5623
  call void @llvm.dbg.declare(metadata i32* %curToken, metadata !5624, metadata !DIExpression()), !dbg !5625
  call void @llvm.dbg.declare(metadata %"class.xercesc_2_7::JanitorMemFunCall.59"* %resetReaderMgr, metadata !5626, metadata !DIExpression()), !dbg !5627
  %12 = bitcast %"class.xercesc_2_7::SGXMLScanner"* %this1 to %"class.xercesc_2_7::XMLScanner"*, !dbg !5628
  %fReaderMgr = getelementptr inbounds %"class.xercesc_2_7::XMLScanner", %"class.xercesc_2_7::XMLScanner"* %12, i32 0, i32 49, !dbg !5628
  store { i64, i64 } { i64 ptrtoint (void (%"class.xercesc_2_7::ReaderMgr"*)* @_ZN11xercesc_2_79ReaderMgr5resetEv to i64), i64 0 }, { i64, i64 }* %coerce, align 8, !dbg !5627
  %13 = getelementptr inbounds { i64, i64 }, { i64, i64 }* %coerce, i32 0, i32 0, !dbg !5627
  %14 = load i64, i64* %13, align 8, !dbg !5627
  %15 = getelementptr inbounds { i64, i64 }, { i64, i64 }* %coerce, i32 0, i32 1, !dbg !5627
  %16 = load i64, i64* %15, align 8, !dbg !5627
  call void @_ZN11xercesc_2_717JanitorMemFunCallINS_9ReaderMgrEEC2EPS1_MS1_FvvE(%"class.xercesc_2_7::JanitorMemFunCall.59"* %resetReaderMgr, %"class.xercesc_2_7::ReaderMgr"* %fReaderMgr, i64 %14, i64 %16), !dbg !5627
  call void @llvm.dbg.declare(metadata i8* %retVal, metadata !5629, metadata !DIExpression()), !dbg !5630
  store i8 1, i8* %retVal, align 1, !dbg !5630
  br label %while.cond, !dbg !5631

while.cond:                                       ; preds = %try.cont, %if.end
  br label %while.body, !dbg !5631

while.body:                                       ; preds = %while.cond
  %17 = bitcast %"class.xercesc_2_7::SGXMLScanner"* %this1 to %"class.xercesc_2_7::XMLScanner"*, !dbg !5633
  %call4 = invoke i32 @_ZN11xercesc_2_710XMLScanner14senseNextTokenERj(%"class.xercesc_2_7::XMLScanner"* %17, i32* dereferenceable(4) %orgReader)
          to label %invoke.cont3 unwind label %lpad2, !dbg !5633

invoke.cont3:                                     ; preds = %while.body
  store i32 %call4, i32* %curToken, align 4, !dbg !5636
  br label %while.end, !dbg !5637

lpad2:                                            ; preds = %while.body
  %18 = landingpad { i8*, i32 }
          cleanup
          catch i8* bitcast ({ i8*, i8* }* @_ZTIN11xercesc_2_720EndOfEntityExceptionE to i8*)
          catch i8* bitcast ({ i8*, i8* }* @_ZTIN11xercesc_2_77XMLErrs5CodesE to i8*)
          catch i8* bitcast ({ i8*, i8* }* @_ZTIN11xercesc_2_78XMLValid5CodesE to i8*)
          catch i8* bitcast (i8** @_ZTIN11xercesc_2_712XMLExceptionE to i8*)
          catch i8* bitcast ({ i8*, i8*, i8* }* @_ZTIN11xercesc_2_720OutOfMemoryExceptionE to i8*), !dbg !5638
  %19 = extractvalue { i8*, i32 } %18, 0, !dbg !5638
  store i8* %19, i8** %exn.slot, align 8, !dbg !5638
  %20 = extractvalue { i8*, i32 } %18, 1, !dbg !5638
  store i32 %20, i32* %ehselector.slot, align 4, !dbg !5638
  br label %catch.dispatch, !dbg !5638

catch.dispatch:                                   ; preds = %lpad2
  %sel = load i32, i32* %ehselector.slot, align 4, !dbg !5639
  %21 = call i32 @llvm.eh.typeid.for(i8* bitcast ({ i8*, i8* }* @_ZTIN11xercesc_2_720EndOfEntityExceptionE to i8*)) #10, !dbg !5639
  %matches = icmp eq i32 %sel, %21, !dbg !5639
  br i1 %matches, label %catch, label %catch.dispatch86, !dbg !5639

catch:                                            ; preds = %catch.dispatch
  call void @llvm.dbg.declare(metadata %"class.xercesc_2_7::EndOfEntityException"** %toCatch, metadata !5640, metadata !DIExpression()), !dbg !5641
  %exn = load i8*, i8** %exn.slot, align 8, !dbg !5639
  %22 = call i8* @__cxa_begin_catch(i8* %exn) #10, !dbg !5639
  %exn.byref = bitcast i8* %22 to %"class.xercesc_2_7::EndOfEntityException"*, !dbg !5639
  store %"class.xercesc_2_7::EndOfEntityException"* %exn.byref, %"class.xercesc_2_7::EndOfEntityException"** %toCatch, align 8, !dbg !5639
  %23 = bitcast %"class.xercesc_2_7::SGXMLScanner"* %this1 to %"class.xercesc_2_7::XMLScanner"*, !dbg !5642
  %fDocHandler = getelementptr inbounds %"class.xercesc_2_7::XMLScanner", %"class.xercesc_2_7::XMLScanner"* %23, i32 0, i32 41, !dbg !5642
  %24 = load %"class.xercesc_2_7::XMLDocumentHandler"*, %"class.xercesc_2_7::XMLDocumentHandler"** %fDocHandler, align 8, !dbg !5642
  %tobool = icmp ne %"class.xercesc_2_7::XMLDocumentHandler"* %24, null, !dbg !5642
  br i1 %tobool, label %if.then5, label %if.end11, !dbg !5645

if.then5:                                         ; preds = %catch
  %25 = bitcast %"class.xercesc_2_7::SGXMLScanner"* %this1 to %"class.xercesc_2_7::XMLScanner"*, !dbg !5646
  %fDocHandler6 = getelementptr inbounds %"class.xercesc_2_7::XMLScanner", %"class.xercesc_2_7::XMLScanner"* %25, i32 0, i32 41, !dbg !5646
  %26 = load %"class.xercesc_2_7::XMLDocumentHandler"*, %"class.xercesc_2_7::XMLDocumentHandler"** %fDocHandler6, align 8, !dbg !5646
  %27 = load %"class.xercesc_2_7::EndOfEntityException"*, %"class.xercesc_2_7::EndOfEntityException"** %toCatch, align 8, !dbg !5647
  %call9 = invoke dereferenceable(72) %"class.xercesc_2_7::XMLEntityDecl"* @_ZNK11xercesc_2_720EndOfEntityException9getEntityEv(%"class.xercesc_2_7::EndOfEntityException"* %27)
          to label %invoke.cont8 unwind label %lpad7, !dbg !5648

invoke.cont8:                                     ; preds = %if.then5
  %28 = bitcast %"class.xercesc_2_7::XMLDocumentHandler"* %26 to void (%"class.xercesc_2_7::XMLDocumentHandler"*, %"class.xercesc_2_7::XMLEntityDecl"*)***, !dbg !5649
  %vtable = load void (%"class.xercesc_2_7::XMLDocumentHandler"*, %"class.xercesc_2_7::XMLEntityDecl"*)**, void (%"class.xercesc_2_7::XMLDocumentHandler"*, %"class.xercesc_2_7::XMLEntityDecl"*)*** %28, align 8, !dbg !5649
  %vfn = getelementptr inbounds void (%"class.xercesc_2_7::XMLDocumentHandler"*, %"class.xercesc_2_7::XMLEntityDecl"*)*, void (%"class.xercesc_2_7::XMLDocumentHandler"*, %"class.xercesc_2_7::XMLEntityDecl"*)** %vtable, i64 7, !dbg !5649
  %29 = load void (%"class.xercesc_2_7::XMLDocumentHandler"*, %"class.xercesc_2_7::XMLEntityDecl"*)*, void (%"class.xercesc_2_7::XMLDocumentHandler"*, %"class.xercesc_2_7::XMLEntityDecl"*)** %vfn, align 8, !dbg !5649
  invoke void %29(%"class.xercesc_2_7::XMLDocumentHandler"* %26, %"class.xercesc_2_7::XMLEntityDecl"* dereferenceable(72) %call9)
          to label %invoke.cont10 unwind label %lpad7, !dbg !5649

invoke.cont10:                                    ; preds = %invoke.cont8
  br label %if.end11, !dbg !5646

lpad7:                                            ; preds = %invoke.cont8, %if.then5
  %30 = landingpad { i8*, i32 }
          cleanup
          catch i8* bitcast ({ i8*, i8* }* @_ZTIN11xercesc_2_77XMLErrs5CodesE to i8*)
          catch i8* bitcast ({ i8*, i8* }* @_ZTIN11xercesc_2_78XMLValid5CodesE to i8*)
          catch i8* bitcast (i8** @_ZTIN11xercesc_2_712XMLExceptionE to i8*)
          catch i8* bitcast ({ i8*, i8*, i8* }* @_ZTIN11xercesc_2_720OutOfMemoryExceptionE to i8*), !dbg !5650
  %31 = extractvalue { i8*, i32 } %30, 0, !dbg !5650
  store i8* %31, i8** %exn.slot, align 8, !dbg !5650
  %32 = extractvalue { i8*, i32 } %30, 1, !dbg !5650
  store i32 %32, i32* %ehselector.slot, align 4, !dbg !5650
  invoke void @__cxa_end_catch()
          to label %invoke.cont14 unwind label %terminate.lpad, !dbg !5651

if.end11:                                         ; preds = %invoke.cont10, %catch
  invoke void @__cxa_end_catch()
          to label %invoke.cont13 unwind label %lpad12, !dbg !5651

invoke.cont13:                                    ; preds = %if.end11
  br label %try.cont, !dbg !5651

try.cont:                                         ; preds = %invoke.cont13
  br label %while.cond, !dbg !5631, !llvm.loop !5652

lpad12:                                           ; preds = %if.then77, %if.then72, %invoke.cont69, %if.end68, %if.then66, %if.then60, %sw.epilog, %sw.default, %sw.bb49, %sw.bb47, %sw.bb43, %sw.bb41, %if.end37, %if.then35, %sw.bb, %invoke.cont27, %invoke.cont25, %if.then23, %if.then20, %if.then15, %if.end11
  %33 = landingpad { i8*, i32 }
          cleanup
          catch i8* bitcast ({ i8*, i8* }* @_ZTIN11xercesc_2_77XMLErrs5CodesE to i8*)
          catch i8* bitcast ({ i8*, i8* }* @_ZTIN11xercesc_2_78XMLValid5CodesE to i8*)
          catch i8* bitcast (i8** @_ZTIN11xercesc_2_712XMLExceptionE to i8*)
          catch i8* bitcast ({ i8*, i8*, i8* }* @_ZTIN11xercesc_2_720OutOfMemoryExceptionE to i8*), !dbg !5654
  %34 = extractvalue { i8*, i32 } %33, 0, !dbg !5654
  store i8* %34, i8** %exn.slot, align 8, !dbg !5654
  %35 = extractvalue { i8*, i32 } %33, 1, !dbg !5654
  store i32 %35, i32* %ehselector.slot, align 4, !dbg !5654
  br label %catch.dispatch86, !dbg !5654

invoke.cont14:                                    ; preds = %lpad7
  br label %catch.dispatch86, !dbg !5651

catch.dispatch86:                                 ; preds = %invoke.cont14, %lpad12, %catch.dispatch
  %sel87 = load i32, i32* %ehselector.slot, align 4, !dbg !5655
  %36 = call i32 @llvm.eh.typeid.for(i8* bitcast ({ i8*, i8* }* @_ZTIN11xercesc_2_77XMLErrs5CodesE to i8*)) #10, !dbg !5655
  %matches88 = icmp eq i32 %sel87, %36, !dbg !5655
  br i1 %matches88, label %catch152, label %catch.fallthrough, !dbg !5655

catch152:                                         ; preds = %catch.dispatch86
  call void @llvm.dbg.declare(metadata i32* %3, metadata !5656, metadata !DIExpression()), !dbg !5657
  %exn153 = load i8*, i8** %exn.slot, align 8, !dbg !5658
  %37 = call i8* @__cxa_begin_catch(i8* %exn153) #10, !dbg !5658
  %38 = bitcast i8* %37 to i32*, !dbg !5658
  %39 = load i32, i32* %38, align 4, !dbg !5658
  store i32 %39, i32* %3, align 4, !dbg !5658
  store i8 0, i8* %retVal, align 1, !dbg !5660
  call void @__cxa_end_catch() #10, !dbg !5662
  br label %try.cont154, !dbg !5662

try.cont154:                                      ; preds = %catch152, %catch150, %invoke.cont148, %if.end85
  %40 = load i8, i8* %retVal, align 1, !dbg !5663
  %tobool155 = trunc i8 %40 to i1, !dbg !5663
  br i1 %tobool155, label %if.then156, label %if.end158, !dbg !5665

if.then156:                                       ; preds = %try.cont154
  invoke void @_ZN11xercesc_2_717JanitorMemFunCallINS_9ReaderMgrEE7releaseEv(%"class.xercesc_2_7::JanitorMemFunCall.59"* %resetReaderMgr)
          to label %invoke.cont157 unwind label %lpad147, !dbg !5666

invoke.cont157:                                   ; preds = %if.then156
  br label %if.end158, !dbg !5667

catch.fallthrough:                                ; preds = %catch.dispatch86
  %41 = call i32 @llvm.eh.typeid.for(i8* bitcast ({ i8*, i8* }* @_ZTIN11xercesc_2_78XMLValid5CodesE to i8*)) #10, !dbg !5655
  %matches89 = icmp eq i32 %sel87, %41, !dbg !5655
  br i1 %matches89, label %catch150, label %catch.fallthrough90, !dbg !5655

catch150:                                         ; preds = %catch.fallthrough
  call void @llvm.dbg.declare(metadata i32* %2, metadata !5668, metadata !DIExpression()), !dbg !5669
  %exn151 = load i8*, i8** %exn.slot, align 8, !dbg !5670
  %42 = call i8* @__cxa_begin_catch(i8* %exn151) #10, !dbg !5670
  %43 = bitcast i8* %42 to i32*, !dbg !5670
  %44 = load i32, i32* %43, align 4, !dbg !5670
  store i32 %44, i32* %2, align 4, !dbg !5670
  store i8 0, i8* %retVal, align 1, !dbg !5672
  call void @__cxa_end_catch() #10, !dbg !5658
  br label %try.cont154, !dbg !5658

catch.fallthrough90:                              ; preds = %catch.fallthrough
  %45 = call i32 @llvm.eh.typeid.for(i8* bitcast (i8** @_ZTIN11xercesc_2_712XMLExceptionE to i8*)) #10, !dbg !5655
  %matches91 = icmp eq i32 %sel87, %45, !dbg !5655
  br i1 %matches91, label %catch100, label %catch.fallthrough92, !dbg !5655

catch100:                                         ; preds = %catch.fallthrough90
  call void @llvm.dbg.declare(metadata %"class.xercesc_2_7::XMLException"** %excToCatch, metadata !5673, metadata !DIExpression()), !dbg !5674
  %exn101 = load i8*, i8** %exn.slot, align 8, !dbg !5675
  %46 = call i8* @__cxa_begin_catch(i8* %exn101) #10, !dbg !5675
  %exn.byref102 = bitcast i8* %46 to %"class.xercesc_2_7::XMLException"*, !dbg !5675
  store %"class.xercesc_2_7::XMLException"* %exn.byref102, %"class.xercesc_2_7::XMLException"** %excToCatch, align 8, !dbg !5675
  %47 = bitcast %"class.xercesc_2_7::SGXMLScanner"* %this1 to %"class.xercesc_2_7::XMLScanner"*, !dbg !5677
  %fInException = getelementptr inbounds %"class.xercesc_2_7::XMLScanner", %"class.xercesc_2_7::XMLScanner"* %47, i32 0, i32 7, !dbg !5677
  store i8 1, i8* %fInException, align 1, !dbg !5678
  %48 = load %"class.xercesc_2_7::XMLException"*, %"class.xercesc_2_7::XMLException"** %excToCatch, align 8, !dbg !5679
  %call105 = invoke i32 @_ZNK11xercesc_2_712XMLException12getErrorTypeEv(%"class.xercesc_2_7::XMLException"* %48)
          to label %invoke.cont104 unwind label %lpad103, !dbg !5682

invoke.cont104:                                   ; preds = %catch100
  %cmp106 = icmp eq i32 %call105, 0, !dbg !5683
  br i1 %cmp106, label %if.then107, label %if.else115, !dbg !5684

if.then107:                                       ; preds = %invoke.cont104
  %49 = bitcast %"class.xercesc_2_7::SGXMLScanner"* %this1 to %"class.xercesc_2_7::XMLScanner"*, !dbg !5685
  %50 = load %"class.xercesc_2_7::XMLException"*, %"class.xercesc_2_7::XMLException"** %excToCatch, align 8, !dbg !5686
  %51 = bitcast %"class.xercesc_2_7::XMLException"* %50 to i16* (%"class.xercesc_2_7::XMLException"*)***, !dbg !5687
  %vtable108 = load i16* (%"class.xercesc_2_7::XMLException"*)**, i16* (%"class.xercesc_2_7::XMLException"*)*** %51, align 8, !dbg !5687
  %vfn109 = getelementptr inbounds i16* (%"class.xercesc_2_7::XMLException"*)*, i16* (%"class.xercesc_2_7::XMLException"*)** %vtable108, i64 2, !dbg !5687
  %52 = load i16* (%"class.xercesc_2_7::XMLException"*)*, i16* (%"class.xercesc_2_7::XMLException"*)** %vfn109, align 8, !dbg !5687
  %call111 = invoke i16* %52(%"class.xercesc_2_7::XMLException"* %50)
          to label %invoke.cont110 unwind label %lpad103, !dbg !5687

invoke.cont110:                                   ; preds = %if.then107
  %53 = load %"class.xercesc_2_7::XMLException"*, %"class.xercesc_2_7::XMLException"** %excToCatch, align 8, !dbg !5688
  %call113 = invoke i16* @_ZNK11xercesc_2_712XMLException10getMessageEv(%"class.xercesc_2_7::XMLException"* %53)
          to label %invoke.cont112 unwind label %lpad103, !dbg !5689

invoke.cont112:                                   ; preds = %invoke.cont110
  invoke void @_ZN11xercesc_2_710XMLScanner9emitErrorENS_7XMLErrs5CodesEPKtS4_S4_S4_(%"class.xercesc_2_7::XMLScanner"* %49, i32 7, i16* %call111, i16* %call113, i16* null, i16* null)
          to label %invoke.cont114 unwind label %lpad103, !dbg !5685

invoke.cont114:                                   ; preds = %invoke.cont112
  br label %if.end136, !dbg !5685

catch.fallthrough92:                              ; preds = %catch.fallthrough90
  %54 = call i32 @llvm.eh.typeid.for(i8* bitcast ({ i8*, i8*, i8* }* @_ZTIN11xercesc_2_720OutOfMemoryExceptionE to i8*)) #10, !dbg !5655
  %matches93 = icmp eq i32 %sel87, %54, !dbg !5655
  br i1 %matches93, label %catch94, label %ehcleanup160, !dbg !5655

catch94:                                          ; preds = %catch.fallthrough92
  call void @llvm.dbg.declare(metadata %"class.xercesc_2_7::OutOfMemoryException"** %0, metadata !5690, metadata !DIExpression()), !dbg !5691
  %exn95 = load i8*, i8** %exn.slot, align 8, !dbg !5655
  %55 = call i8* @__cxa_begin_catch(i8* %exn95) #10, !dbg !5655
  %exn.byref96 = bitcast i8* %55 to %"class.xercesc_2_7::OutOfMemoryException"*, !dbg !5655
  store %"class.xercesc_2_7::OutOfMemoryException"* %exn.byref96, %"class.xercesc_2_7::OutOfMemoryException"** %0, align 8, !dbg !5655
  invoke void @_ZN11xercesc_2_717JanitorMemFunCallINS_9ReaderMgrEE7releaseEv(%"class.xercesc_2_7::JanitorMemFunCall.59"* %resetReaderMgr)
          to label %invoke.cont98 unwind label %lpad97, !dbg !5692

invoke.cont98:                                    ; preds = %catch94
  invoke void @__cxa_rethrow() #13
          to label %unreachable unwind label %lpad97, !dbg !5693

while.end:                                        ; preds = %invoke.cont3
  %56 = load i32, i32* %curToken, align 4, !dbg !5694
  %cmp = icmp eq i32 %56, 1, !dbg !5696
  br i1 %cmp, label %if.then15, label %if.else, !dbg !5697

if.then15:                                        ; preds = %while.end
  %57 = bitcast %"class.xercesc_2_7::SGXMLScanner"* %this1 to %"class.xercesc_2_7::XMLScanner"*, !dbg !5698
  %fCDataBuf = getelementptr inbounds %"class.xercesc_2_7::XMLScanner", %"class.xercesc_2_7::XMLScanner"* %57, i32 0, i32 66, !dbg !5698
  %58 = bitcast %"class.xercesc_2_7::SGXMLScanner"* %this1 to void (%"class.xercesc_2_7::SGXMLScanner"*, %"class.xercesc_2_7::XMLBuffer"*)***, !dbg !5700
  %vtable16 = load void (%"class.xercesc_2_7::SGXMLScanner"*, %"class.xercesc_2_7::XMLBuffer"*)**, void (%"class.xercesc_2_7::SGXMLScanner"*, %"class.xercesc_2_7::XMLBuffer"*)*** %58, align 8, !dbg !5700
  %vfn17 = getelementptr inbounds void (%"class.xercesc_2_7::SGXMLScanner"*, %"class.xercesc_2_7::XMLBuffer"*)*, void (%"class.xercesc_2_7::SGXMLScanner"*, %"class.xercesc_2_7::XMLBuffer"*)** %vtable16, i64 12, !dbg !5700
  %59 = load void (%"class.xercesc_2_7::SGXMLScanner"*, %"class.xercesc_2_7::XMLBuffer"*)*, void (%"class.xercesc_2_7::SGXMLScanner"*, %"class.xercesc_2_7::XMLBuffer"*)** %vfn17, align 8, !dbg !5700
  invoke void %59(%"class.xercesc_2_7::SGXMLScanner"* %this1, %"class.xercesc_2_7::XMLBuffer"* dereferenceable(40) %fCDataBuf)
          to label %invoke.cont18 unwind label %lpad12, !dbg !5700

invoke.cont18:                                    ; preds = %if.then15
  br label %if.end85, !dbg !5701

if.else:                                          ; preds = %while.end
  %60 = load i32, i32* %curToken, align 4, !dbg !5702
  %cmp19 = icmp eq i32 %60, 4, !dbg !5704
  br i1 %cmp19, label %if.then20, label %if.else31, !dbg !5705

if.then20:                                        ; preds = %if.else
  %61 = bitcast %"class.xercesc_2_7::SGXMLScanner"* %this1 to %"class.xercesc_2_7::XMLScanner"*, !dbg !5706
  %fElemStack = getelementptr inbounds %"class.xercesc_2_7::XMLScanner", %"class.xercesc_2_7::XMLScanner"* %61, i32 0, i32 71, !dbg !5706
  %call22 = invoke zeroext i1 @_ZNK11xercesc_2_79ElemStack7isEmptyEv(%"class.xercesc_2_7::ElemStack"* %fElemStack)
          to label %invoke.cont21 unwind label %lpad12, !dbg !5709

invoke.cont21:                                    ; preds = %if.then20
  br i1 %call22, label %if.end30, label %if.then23, !dbg !5710

if.then23:                                        ; preds = %invoke.cont21
  call void @llvm.dbg.declare(metadata %"struct.xercesc_2_7::ElemStack::StackElem"** %topElem, metadata !5711, metadata !DIExpression()), !dbg !5713
  %62 = bitcast %"class.xercesc_2_7::SGXMLScanner"* %this1 to %"class.xercesc_2_7::XMLScanner"*, !dbg !5714
  %fElemStack24 = getelementptr inbounds %"class.xercesc_2_7::XMLScanner", %"class.xercesc_2_7::XMLScanner"* %62, i32 0, i32 71, !dbg !5714
  %call26 = invoke %"struct.xercesc_2_7::ElemStack::StackElem"* @_ZN11xercesc_2_79ElemStack6popTopEv(%"class.xercesc_2_7::ElemStack"* %fElemStack24)
          to label %invoke.cont25 unwind label %lpad12, !dbg !5715

invoke.cont25:                                    ; preds = %if.then23
  store %"struct.xercesc_2_7::ElemStack::StackElem"* %call26, %"struct.xercesc_2_7::ElemStack::StackElem"** %topElem, align 8, !dbg !5713
  %63 = bitcast %"class.xercesc_2_7::SGXMLScanner"* %this1 to %"class.xercesc_2_7::XMLScanner"*, !dbg !5716
  %64 = load %"struct.xercesc_2_7::ElemStack::StackElem"*, %"struct.xercesc_2_7::ElemStack::StackElem"** %topElem, align 8, !dbg !5717
  %fThisElement = getelementptr inbounds %"struct.xercesc_2_7::ElemStack::StackElem", %"struct.xercesc_2_7::ElemStack::StackElem"* %64, i32 0, i32 0, !dbg !5718
  %65 = load %"class.xercesc_2_7::XMLElementDecl"*, %"class.xercesc_2_7::XMLElementDecl"** %fThisElement, align 8, !dbg !5718
  %call28 = invoke i16* @_ZNK11xercesc_2_714XMLElementDecl11getFullNameEv(%"class.xercesc_2_7::XMLElementDecl"* %65)
          to label %invoke.cont27 unwind label %lpad12, !dbg !5719

invoke.cont27:                                    ; preds = %invoke.cont25
  invoke void @_ZN11xercesc_2_710XMLScanner9emitErrorENS_7XMLErrs5CodesEPKtS4_S4_S4_(%"class.xercesc_2_7::XMLScanner"* %63, i32 274, i16* %call28, i16* null, i16* null, i16* null)
          to label %invoke.cont29 unwind label %lpad12, !dbg !5716

invoke.cont29:                                    ; preds = %invoke.cont27
  br label %if.end30, !dbg !5720

if.end30:                                         ; preds = %invoke.cont29, %invoke.cont21
  store i8 0, i8* %retVal, align 1, !dbg !5721
  br label %if.end84, !dbg !5722

if.else31:                                        ; preds = %if.else
  call void @llvm.dbg.declare(metadata i8* %gotData, metadata !5723, metadata !DIExpression()), !dbg !5725
  store i8 1, i8* %gotData, align 1, !dbg !5725
  %66 = load i32, i32* %curToken, align 4, !dbg !5726
  switch i32 %66, label %sw.default [
    i32 0, label %sw.bb
    i32 2, label %sw.bb41
    i32 3, label %sw.bb43
    i32 5, label %sw.bb47
    i32 6, label %sw.bb49
  ], !dbg !5727

sw.bb:                                            ; preds = %if.else31
  %67 = bitcast %"class.xercesc_2_7::SGXMLScanner"* %this1 to %"class.xercesc_2_7::XMLScanner"*, !dbg !5728
  %fElemStack32 = getelementptr inbounds %"class.xercesc_2_7::XMLScanner", %"class.xercesc_2_7::XMLScanner"* %67, i32 0, i32 71, !dbg !5728
  %call34 = invoke zeroext i1 @_ZNK11xercesc_2_79ElemStack7isEmptyEv(%"class.xercesc_2_7::ElemStack"* %fElemStack32)
          to label %invoke.cont33 unwind label %lpad12, !dbg !5731

invoke.cont33:                                    ; preds = %sw.bb
  br i1 %call34, label %if.then35, label %if.end37, !dbg !5732

if.then35:                                        ; preds = %invoke.cont33
  %68 = bitcast %"class.xercesc_2_7::SGXMLScanner"* %this1 to %"class.xercesc_2_7::XMLScanner"*, !dbg !5733
  invoke void @_ZN11xercesc_2_710XMLScanner9emitErrorENS_7XMLErrs5CodesE(%"class.xercesc_2_7::XMLScanner"* %68, i32 280)
          to label %invoke.cont36 unwind label %lpad12, !dbg !5733

invoke.cont36:                                    ; preds = %if.then35
  br label %if.end37, !dbg !5733

if.end37:                                         ; preds = %invoke.cont36, %invoke.cont33
  %69 = bitcast %"class.xercesc_2_7::SGXMLScanner"* %this1 to void (%"class.xercesc_2_7::SGXMLScanner"*)***, !dbg !5734
  %vtable38 = load void (%"class.xercesc_2_7::SGXMLScanner"*)**, void (%"class.xercesc_2_7::SGXMLScanner"*)*** %69, align 8, !dbg !5734
  %vfn39 = getelementptr inbounds void (%"class.xercesc_2_7::SGXMLScanner"*)*, void (%"class.xercesc_2_7::SGXMLScanner"*)** %vtable38, i64 11, !dbg !5734
  %70 = load void (%"class.xercesc_2_7::SGXMLScanner"*)*, void (%"class.xercesc_2_7::SGXMLScanner"*)** %vfn39, align 8, !dbg !5734
  invoke void %70(%"class.xercesc_2_7::SGXMLScanner"* %this1)
          to label %invoke.cont40 unwind label %lpad12, !dbg !5734

invoke.cont40:                                    ; preds = %if.end37
  br label %sw.epilog, !dbg !5735

sw.bb41:                                          ; preds = %if.else31
  %71 = bitcast %"class.xercesc_2_7::SGXMLScanner"* %this1 to %"class.xercesc_2_7::XMLScanner"*, !dbg !5736
  invoke void @_ZN11xercesc_2_710XMLScanner11scanCommentEv(%"class.xercesc_2_7::XMLScanner"* %71)
          to label %invoke.cont42 unwind label %lpad12, !dbg !5736

invoke.cont42:                                    ; preds = %sw.bb41
  br label %sw.epilog, !dbg !5737

sw.bb43:                                          ; preds = %if.else31
  %72 = bitcast %"class.xercesc_2_7::SGXMLScanner"* %this1 to void (%"class.xercesc_2_7::SGXMLScanner"*, i8*)***, !dbg !5738
  %vtable44 = load void (%"class.xercesc_2_7::SGXMLScanner"*, i8*)**, void (%"class.xercesc_2_7::SGXMLScanner"*, i8*)*** %72, align 8, !dbg !5738
  %vfn45 = getelementptr inbounds void (%"class.xercesc_2_7::SGXMLScanner"*, i8*)*, void (%"class.xercesc_2_7::SGXMLScanner"*, i8*)** %vtable44, i64 19, !dbg !5738
  %73 = load void (%"class.xercesc_2_7::SGXMLScanner"*, i8*)*, void (%"class.xercesc_2_7::SGXMLScanner"*, i8*)** %vfn45, align 8, !dbg !5738
  invoke void %73(%"class.xercesc_2_7::SGXMLScanner"* %this1, i8* dereferenceable(1) %gotData)
          to label %invoke.cont46 unwind label %lpad12, !dbg !5738

invoke.cont46:                                    ; preds = %sw.bb43
  br label %sw.epilog, !dbg !5739

sw.bb47:                                          ; preds = %if.else31
  %74 = bitcast %"class.xercesc_2_7::SGXMLScanner"* %this1 to %"class.xercesc_2_7::XMLScanner"*, !dbg !5740
  invoke void @_ZN11xercesc_2_710XMLScanner6scanPIEv(%"class.xercesc_2_7::XMLScanner"* %74)
          to label %invoke.cont48 unwind label %lpad12, !dbg !5740

invoke.cont48:                                    ; preds = %sw.bb47
  br label %sw.epilog, !dbg !5741

sw.bb49:                                          ; preds = %if.else31
  %75 = bitcast %"class.xercesc_2_7::SGXMLScanner"* %this1 to i1 (%"class.xercesc_2_7::SGXMLScanner"*, i8*)***, !dbg !5742
  %vtable50 = load i1 (%"class.xercesc_2_7::SGXMLScanner"*, i8*)**, i1 (%"class.xercesc_2_7::SGXMLScanner"*, i8*)*** %75, align 8, !dbg !5742
  %vfn51 = getelementptr inbounds i1 (%"class.xercesc_2_7::SGXMLScanner"*, i8*)*, i1 (%"class.xercesc_2_7::SGXMLScanner"*, i8*)** %vtable50, i64 18, !dbg !5742
  %76 = load i1 (%"class.xercesc_2_7::SGXMLScanner"*, i8*)*, i1 (%"class.xercesc_2_7::SGXMLScanner"*, i8*)** %vfn51, align 8, !dbg !5742
  %call53 = invoke zeroext i1 %76(%"class.xercesc_2_7::SGXMLScanner"* %this1, i8* dereferenceable(1) %gotData)
          to label %invoke.cont52 unwind label %lpad12, !dbg !5742

invoke.cont52:                                    ; preds = %sw.bb49
  br label %sw.epilog, !dbg !5743

sw.default:                                       ; preds = %if.else31
  %77 = bitcast %"class.xercesc_2_7::SGXMLScanner"* %this1 to %"class.xercesc_2_7::XMLScanner"*, !dbg !5744
  %fReaderMgr54 = getelementptr inbounds %"class.xercesc_2_7::XMLScanner", %"class.xercesc_2_7::XMLScanner"* %77, i32 0, i32 49, !dbg !5744
  invoke void @_ZN11xercesc_2_79ReaderMgr10skipToCharEt(%"class.xercesc_2_7::ReaderMgr"* %fReaderMgr54, i16 zeroext 60)
          to label %invoke.cont55 unwind label %lpad12, !dbg !5745

invoke.cont55:                                    ; preds = %sw.default
  br label %sw.epilog, !dbg !5746

sw.epilog:                                        ; preds = %invoke.cont55, %invoke.cont52, %invoke.cont48, %invoke.cont46, %invoke.cont42, %invoke.cont40
  %78 = load i32, i32* %orgReader, align 4, !dbg !5747
  %79 = bitcast %"class.xercesc_2_7::SGXMLScanner"* %this1 to %"class.xercesc_2_7::XMLScanner"*, !dbg !5749
  %fReaderMgr56 = getelementptr inbounds %"class.xercesc_2_7::XMLScanner", %"class.xercesc_2_7::XMLScanner"* %79, i32 0, i32 49, !dbg !5749
  %call58 = invoke i32 @_ZNK11xercesc_2_79ReaderMgr19getCurrentReaderNumEv(%"class.xercesc_2_7::ReaderMgr"* %fReaderMgr56)
          to label %invoke.cont57 unwind label %lpad12, !dbg !5750

invoke.cont57:                                    ; preds = %sw.epilog
  %cmp59 = icmp ne i32 %78, %call58, !dbg !5751
  br i1 %cmp59, label %if.then60, label %if.end62, !dbg !5752

if.then60:                                        ; preds = %invoke.cont57
  %80 = bitcast %"class.xercesc_2_7::SGXMLScanner"* %this1 to %"class.xercesc_2_7::XMLScanner"*, !dbg !5753
  invoke void @_ZN11xercesc_2_710XMLScanner9emitErrorENS_7XMLErrs5CodesE(%"class.xercesc_2_7::XMLScanner"* %80, i32 231)
          to label %invoke.cont61 unwind label %lpad12, !dbg !5753

invoke.cont61:                                    ; preds = %if.then60
  br label %if.end62, !dbg !5753

if.end62:                                         ; preds = %invoke.cont61, %invoke.cont57
  %81 = load i8, i8* %gotData, align 1, !dbg !5754
  %tobool63 = trunc i8 %81 to i1, !dbg !5754
  br i1 %tobool63, label %if.end83, label %if.then64, !dbg !5756

if.then64:                                        ; preds = %if.end62
  %82 = bitcast %"class.xercesc_2_7::SGXMLScanner"* %this1 to %"class.xercesc_2_7::XMLScanner"*, !dbg !5757
  %fValidate = getelementptr inbounds %"class.xercesc_2_7::XMLScanner", %"class.xercesc_2_7::XMLScanner"* %82, i32 0, i32 10, !dbg !5757
  %83 = load i8, i8* %fValidate, align 8, !dbg !5757
  %tobool65 = trunc i8 %83 to i1, !dbg !5757
  br i1 %tobool65, label %if.then66, label %if.end68, !dbg !5760

if.then66:                                        ; preds = %if.then64
  %84 = bitcast %"class.xercesc_2_7::SGXMLScanner"* %this1 to %"class.xercesc_2_7::XMLScanner"*, !dbg !5761
  invoke void @_ZN11xercesc_2_710XMLScanner11checkIDRefsEv(%"class.xercesc_2_7::XMLScanner"* %84)
          to label %invoke.cont67 unwind label %lpad12, !dbg !5761

invoke.cont67:                                    ; preds = %if.then66
  br label %if.end68, !dbg !5763

if.end68:                                         ; preds = %invoke.cont67, %if.then64
  %85 = bitcast %"class.xercesc_2_7::SGXMLScanner"* %this1 to %"class.xercesc_2_7::XMLScanner"*, !dbg !5764
  invoke void @_ZN11xercesc_2_710XMLScanner17scanMiscellaneousEv(%"class.xercesc_2_7::XMLScanner"* %85)
          to label %invoke.cont69 unwind label %lpad12, !dbg !5764

invoke.cont69:                                    ; preds = %if.end68
  %call71 = invoke zeroext i1 @_ZNK11xercesc_2_712SGXMLScanner25toCheckIdentityConstraintEv(%"class.xercesc_2_7::SGXMLScanner"* %this1)
          to label %invoke.cont70 unwind label %lpad12, !dbg !5765

invoke.cont70:                                    ; preds = %invoke.cont69
  br i1 %call71, label %if.then72, label %if.end74, !dbg !5767

if.then72:                                        ; preds = %invoke.cont70
  %fICHandler = getelementptr inbounds %"class.xercesc_2_7::SGXMLScanner", %"class.xercesc_2_7::SGXMLScanner"* %this1, i32 0, i32 12, !dbg !5768
  %86 = load %"class.xercesc_2_7::IdentityConstraintHandler"*, %"class.xercesc_2_7::IdentityConstraintHandler"** %fICHandler, align 8, !dbg !5768
  invoke void @_ZN11xercesc_2_725IdentityConstraintHandler11endDocumentEv(%"class.xercesc_2_7::IdentityConstraintHandler"* %86)
          to label %invoke.cont73 unwind label %lpad12, !dbg !5769

invoke.cont73:                                    ; preds = %if.then72
  br label %if.end74, !dbg !5768

if.end74:                                         ; preds = %invoke.cont73, %invoke.cont70
  %87 = bitcast %"class.xercesc_2_7::SGXMLScanner"* %this1 to %"class.xercesc_2_7::XMLScanner"*, !dbg !5770
  %fDocHandler75 = getelementptr inbounds %"class.xercesc_2_7::XMLScanner", %"class.xercesc_2_7::XMLScanner"* %87, i32 0, i32 41, !dbg !5770
  %88 = load %"class.xercesc_2_7::XMLDocumentHandler"*, %"class.xercesc_2_7::XMLDocumentHandler"** %fDocHandler75, align 8, !dbg !5770
  %tobool76 = icmp ne %"class.xercesc_2_7::XMLDocumentHandler"* %88, null, !dbg !5770
  br i1 %tobool76, label %if.then77, label %if.end82, !dbg !5772

if.then77:                                        ; preds = %if.end74
  %89 = bitcast %"class.xercesc_2_7::SGXMLScanner"* %this1 to %"class.xercesc_2_7::XMLScanner"*, !dbg !5773
  %fDocHandler78 = getelementptr inbounds %"class.xercesc_2_7::XMLScanner", %"class.xercesc_2_7::XMLScanner"* %89, i32 0, i32 41, !dbg !5773
  %90 = load %"class.xercesc_2_7::XMLDocumentHandler"*, %"class.xercesc_2_7::XMLDocumentHandler"** %fDocHandler78, align 8, !dbg !5773
  %91 = bitcast %"class.xercesc_2_7::XMLDocumentHandler"* %90 to void (%"class.xercesc_2_7::XMLDocumentHandler"*)***, !dbg !5774
  %vtable79 = load void (%"class.xercesc_2_7::XMLDocumentHandler"*)**, void (%"class.xercesc_2_7::XMLDocumentHandler"*)*** %91, align 8, !dbg !5774
  %vfn80 = getelementptr inbounds void (%"class.xercesc_2_7::XMLDocumentHandler"*)*, void (%"class.xercesc_2_7::XMLDocumentHandler"*)** %vtable79, i64 5, !dbg !5774
  %92 = load void (%"class.xercesc_2_7::XMLDocumentHandler"*)*, void (%"class.xercesc_2_7::XMLDocumentHandler"*)** %vfn80, align 8, !dbg !5774
  invoke void %92(%"class.xercesc_2_7::XMLDocumentHandler"* %90)
          to label %invoke.cont81 unwind label %lpad12, !dbg !5774

invoke.cont81:                                    ; preds = %if.then77
  br label %if.end82, !dbg !5773

if.end82:                                         ; preds = %invoke.cont81, %if.end74
  br label %if.end83, !dbg !5775

if.end83:                                         ; preds = %if.end82, %if.end62
  br label %if.end84

if.end84:                                         ; preds = %if.end83, %if.end30
  br label %if.end85

if.end85:                                         ; preds = %if.end84, %invoke.cont18
  br label %try.cont154, !dbg !5655

lpad97:                                           ; preds = %invoke.cont98, %catch94
  %93 = landingpad { i8*, i32 }
          cleanup, !dbg !5776
  %94 = extractvalue { i8*, i32 } %93, 0, !dbg !5776
  store i8* %94, i8** %exn.slot, align 8, !dbg !5776
  %95 = extractvalue { i8*, i32 } %93, 1, !dbg !5776
  store i32 %95, i32* %ehselector.slot, align 4, !dbg !5776
  invoke void @__cxa_end_catch()
          to label %invoke.cont99 unwind label %terminate.lpad, !dbg !5675

invoke.cont99:                                    ; preds = %lpad97
  br label %ehcleanup160, !dbg !5675

lpad103:                                          ; preds = %invoke.cont132, %invoke.cont130, %if.else127, %invoke.cont124, %invoke.cont122, %if.then119, %if.else115, %invoke.cont112, %invoke.cont110, %if.then107, %catch100
  %96 = landingpad { i8*, i32 }
          cleanup
          catch i8* bitcast ({ i8*, i8*, i8* }* @_ZTIN11xercesc_2_720OutOfMemoryExceptionE to i8*), !dbg !5777
  %97 = extractvalue { i8*, i32 } %96, 0, !dbg !5777
  store i8* %97, i8** %exn.slot, align 8, !dbg !5777
  %98 = extractvalue { i8*, i32 } %96, 1, !dbg !5777
  store i32 %98, i32* %ehselector.slot, align 4, !dbg !5777
  br label %catch.dispatch137, !dbg !5777

catch.dispatch137:                                ; preds = %lpad103
  %sel138 = load i32, i32* %ehselector.slot, align 4, !dbg !5778
  %99 = call i32 @llvm.eh.typeid.for(i8* bitcast ({ i8*, i8*, i8* }* @_ZTIN11xercesc_2_720OutOfMemoryExceptionE to i8*)) #10, !dbg !5778
  %matches139 = icmp eq i32 %sel138, %99, !dbg !5778
  br i1 %matches139, label %catch140, label %ehcleanup, !dbg !5778

catch140:                                         ; preds = %catch.dispatch137
  call void @llvm.dbg.declare(metadata %"class.xercesc_2_7::OutOfMemoryException"** %1, metadata !5779, metadata !DIExpression()), !dbg !5780
  %exn141 = load i8*, i8** %exn.slot, align 8, !dbg !5778
  %100 = call i8* @__cxa_begin_catch(i8* %exn141) #10, !dbg !5778
  %exn.byref142 = bitcast i8* %100 to %"class.xercesc_2_7::OutOfMemoryException"*, !dbg !5778
  store %"class.xercesc_2_7::OutOfMemoryException"* %exn.byref142, %"class.xercesc_2_7::OutOfMemoryException"** %1, align 8, !dbg !5778
  invoke void @_ZN11xercesc_2_717JanitorMemFunCallINS_9ReaderMgrEE7releaseEv(%"class.xercesc_2_7::JanitorMemFunCall.59"* %resetReaderMgr)
          to label %invoke.cont144 unwind label %lpad143, !dbg !5781

invoke.cont144:                                   ; preds = %catch140
  invoke void @__cxa_rethrow() #13
          to label %unreachable unwind label %lpad143, !dbg !5783

if.else115:                                       ; preds = %invoke.cont104
  %101 = load %"class.xercesc_2_7::XMLException"*, %"class.xercesc_2_7::XMLException"** %excToCatch, align 8, !dbg !5784
  %call117 = invoke i32 @_ZNK11xercesc_2_712XMLException12getErrorTypeEv(%"class.xercesc_2_7::XMLException"* %101)
          to label %invoke.cont116 unwind label %lpad103, !dbg !5786

invoke.cont116:                                   ; preds = %if.else115
  %cmp118 = icmp sge i32 %call117, 2, !dbg !5787
  br i1 %cmp118, label %if.then119, label %if.else127, !dbg !5788

if.then119:                                       ; preds = %invoke.cont116
  %102 = bitcast %"class.xercesc_2_7::SGXMLScanner"* %this1 to %"class.xercesc_2_7::XMLScanner"*, !dbg !5789
  %103 = load %"class.xercesc_2_7::XMLException"*, %"class.xercesc_2_7::XMLException"** %excToCatch, align 8, !dbg !5790
  %104 = bitcast %"class.xercesc_2_7::XMLException"* %103 to i16* (%"class.xercesc_2_7::XMLException"*)***, !dbg !5791
  %vtable120 = load i16* (%"class.xercesc_2_7::XMLException"*)**, i16* (%"class.xercesc_2_7::XMLException"*)*** %104, align 8, !dbg !5791
  %vfn121 = getelementptr inbounds i16* (%"class.xercesc_2_7::XMLException"*)*, i16* (%"class.xercesc_2_7::XMLException"*)** %vtable120, i64 2, !dbg !5791
  %105 = load i16* (%"class.xercesc_2_7::XMLException"*)*, i16* (%"class.xercesc_2_7::XMLException"*)** %vfn121, align 8, !dbg !5791
  %call123 = invoke i16* %105(%"class.xercesc_2_7::XMLException"* %103)
          to label %invoke.cont122 unwind label %lpad103, !dbg !5791

invoke.cont122:                                   ; preds = %if.then119
  %106 = load %"class.xercesc_2_7::XMLException"*, %"class.xercesc_2_7::XMLException"** %excToCatch, align 8, !dbg !5792
  %call125 = invoke i16* @_ZNK11xercesc_2_712XMLException10getMessageEv(%"class.xercesc_2_7::XMLException"* %106)
          to label %invoke.cont124 unwind label %lpad103, !dbg !5793

invoke.cont124:                                   ; preds = %invoke.cont122
  invoke void @_ZN11xercesc_2_710XMLScanner9emitErrorENS_7XMLErrs5CodesEPKtS4_S4_S4_(%"class.xercesc_2_7::XMLScanner"* %102, i32 292, i16* %call123, i16* %call125, i16* null, i16* null)
          to label %invoke.cont126 unwind label %lpad103, !dbg !5789

invoke.cont126:                                   ; preds = %invoke.cont124
  br label %if.end135, !dbg !5789

if.else127:                                       ; preds = %invoke.cont116
  %107 = bitcast %"class.xercesc_2_7::SGXMLScanner"* %this1 to %"class.xercesc_2_7::XMLScanner"*, !dbg !5794
  %108 = load %"class.xercesc_2_7::XMLException"*, %"class.xercesc_2_7::XMLException"** %excToCatch, align 8, !dbg !5795
  %109 = bitcast %"class.xercesc_2_7::XMLException"* %108 to i16* (%"class.xercesc_2_7::XMLException"*)***, !dbg !5796
  %vtable128 = load i16* (%"class.xercesc_2_7::XMLException"*)**, i16* (%"class.xercesc_2_7::XMLException"*)*** %109, align 8, !dbg !5796
  %vfn129 = getelementptr inbounds i16* (%"class.xercesc_2_7::XMLException"*)*, i16* (%"class.xercesc_2_7::XMLException"*)** %vtable128, i64 2, !dbg !5796
  %110 = load i16* (%"class.xercesc_2_7::XMLException"*)*, i16* (%"class.xercesc_2_7::XMLException"*)** %vfn129, align 8, !dbg !5796
  %call131 = invoke i16* %110(%"class.xercesc_2_7::XMLException"* %108)
          to label %invoke.cont130 unwind label %lpad103, !dbg !5796

invoke.cont130:                                   ; preds = %if.else127
  %111 = load %"class.xercesc_2_7::XMLException"*, %"class.xercesc_2_7::XMLException"** %excToCatch, align 8, !dbg !5797
  %call133 = invoke i16* @_ZNK11xercesc_2_712XMLException10getMessageEv(%"class.xercesc_2_7::XMLException"* %111)
          to label %invoke.cont132 unwind label %lpad103, !dbg !5798

invoke.cont132:                                   ; preds = %invoke.cont130
  invoke void @_ZN11xercesc_2_710XMLScanner9emitErrorENS_7XMLErrs5CodesEPKtS4_S4_S4_(%"class.xercesc_2_7::XMLScanner"* %107, i32 157, i16* %call131, i16* %call133, i16* null, i16* null)
          to label %invoke.cont134 unwind label %lpad103, !dbg !5794

invoke.cont134:                                   ; preds = %invoke.cont132
  br label %if.end135

if.end135:                                        ; preds = %invoke.cont134, %invoke.cont126
  br label %if.end136

if.end136:                                        ; preds = %if.end135, %invoke.cont114
  br label %try.cont146, !dbg !5778

lpad143:                                          ; preds = %invoke.cont144, %catch140
  %112 = landingpad { i8*, i32 }
          cleanup, !dbg !5799
  %113 = extractvalue { i8*, i32 } %112, 0, !dbg !5799
  store i8* %113, i8** %exn.slot, align 8, !dbg !5799
  %114 = extractvalue { i8*, i32 } %112, 1, !dbg !5799
  store i32 %114, i32* %ehselector.slot, align 4, !dbg !5799
  invoke void @__cxa_end_catch()
          to label %invoke.cont145 unwind label %terminate.lpad, !dbg !5800

invoke.cont145:                                   ; preds = %lpad143
  br label %ehcleanup, !dbg !5800

try.cont146:                                      ; preds = %if.end136
  store i8 0, i8* %retVal, align 1, !dbg !5801
  invoke void @__cxa_end_catch()
          to label %invoke.cont148 unwind label %lpad147, !dbg !5670

invoke.cont148:                                   ; preds = %try.cont146
  br label %try.cont154, !dbg !5670

lpad147:                                          ; preds = %if.then156, %try.cont146
  %115 = landingpad { i8*, i32 }
          cleanup, !dbg !5802
  %116 = extractvalue { i8*, i32 } %115, 0, !dbg !5802
  store i8* %116, i8** %exn.slot, align 8, !dbg !5802
  %117 = extractvalue { i8*, i32 } %115, 1, !dbg !5802
  store i32 %117, i32* %ehselector.slot, align 4, !dbg !5802
  br label %ehcleanup160, !dbg !5802

ehcleanup:                                        ; preds = %invoke.cont145, %catch.dispatch137
  invoke void @__cxa_end_catch()
          to label %invoke.cont149 unwind label %terminate.lpad, !dbg !5670

invoke.cont149:                                   ; preds = %ehcleanup
  br label %ehcleanup160, !dbg !5670

if.end158:                                        ; preds = %invoke.cont157, %try.cont154
  %118 = load i8, i8* %retVal, align 1, !dbg !5803
  %tobool159 = trunc i8 %118 to i1, !dbg !5803
  call void @_ZN11xercesc_2_717JanitorMemFunCallINS_9ReaderMgrEED2Ev(%"class.xercesc_2_7::JanitorMemFunCall.59"* %resetReaderMgr) #10, !dbg !5802
  ret i1 %tobool159, !dbg !5802

ehcleanup160:                                     ; preds = %invoke.cont149, %lpad147, %invoke.cont99, %catch.fallthrough92
  call void @_ZN11xercesc_2_717JanitorMemFunCallINS_9ReaderMgrEED2Ev(%"class.xercesc_2_7::JanitorMemFunCall.59"* %resetReaderMgr) #10, !dbg !5802
  br label %eh.resume, !dbg !5802

eh.resume:                                        ; preds = %ehcleanup160, %lpad
  %exn161 = load i8*, i8** %exn.slot, align 8, !dbg !5620
  %sel162 = load i32, i32* %ehselector.slot, align 4, !dbg !5620
  %lpad.val = insertvalue { i8*, i32 } undef, i8* %exn161, 0, !dbg !5620
  %lpad.val163 = insertvalue { i8*, i32 } %lpad.val, i32 %sel162, 1, !dbg !5620
  resume { i8*, i32 } %lpad.val163, !dbg !5620

terminate.lpad:                                   ; preds = %ehcleanup, %lpad143, %lpad97, %lpad7
  %119 = landingpad { i8*, i32 }
          catch i8* null, !dbg !5651
  %120 = extractvalue { i8*, i32 } %119, 0, !dbg !5651
  call void @__clang_call_terminate(i8* %120) #12, !dbg !5651
  unreachable, !dbg !5651

unreachable:                                      ; preds = %invoke.cont144, %invoke.cont98
  unreachable
}

declare dso_local zeroext i1 @_ZN11xercesc_2_710XMLScanner12isLegalTokenERKNS_13XMLPScanTokenE(%"class.xercesc_2_7::XMLScanner"*, %"class.xercesc_2_7::XMLPScanToken"* dereferenceable(8)) #7

declare dso_local i8* @__cxa_allocate_exception(i64)

; Function Attrs: noinline uwtable
define linkonce_odr dso_local void @_ZN11xercesc_2_716RuntimeExceptionC2EPKcjNS_10XMLExcepts5CodesEPNS_13MemoryManagerE(%"class.xercesc_2_7::RuntimeException"* %this, i8* %srcFile, i32 %srcLine, i32 %toThrow, %"class.xercesc_2_7::MemoryManager"* %memoryManager) unnamed_addr #6 comdat align 2 personality i8* bitcast (i32 (...)* @__gxx_personality_v0 to i8*) !dbg !5804 {
entry:
  %this.addr = alloca %"class.xercesc_2_7::RuntimeException"*, align 8
  %srcFile.addr = alloca i8*, align 8
  %srcLine.addr = alloca i32, align 4
  %toThrow.addr = alloca i32, align 4
  %memoryManager.addr = alloca %"class.xercesc_2_7::MemoryManager"*, align 8
  %exn.slot = alloca i8*
  %ehselector.slot = alloca i32
  store %"class.xercesc_2_7::RuntimeException"* %this, %"class.xercesc_2_7::RuntimeException"** %this.addr, align 8
  call void @llvm.dbg.declare(metadata %"class.xercesc_2_7::RuntimeException"** %this.addr, metadata !5841, metadata !DIExpression()), !dbg !5843
  store i8* %srcFile, i8** %srcFile.addr, align 8
  call void @llvm.dbg.declare(metadata i8** %srcFile.addr, metadata !5844, metadata !DIExpression()), !dbg !5845
  store i32 %srcLine, i32* %srcLine.addr, align 4
  call void @llvm.dbg.declare(metadata i32* %srcLine.addr, metadata !5846, metadata !DIExpression()), !dbg !5845
  store i32 %toThrow, i32* %toThrow.addr, align 4
  call void @llvm.dbg.declare(metadata i32* %toThrow.addr, metadata !5847, metadata !DIExpression()), !dbg !5845
  store %"class.xercesc_2_7::MemoryManager"* %memoryManager, %"class.xercesc_2_7::MemoryManager"** %memoryManager.addr, align 8
  call void @llvm.dbg.declare(metadata %"class.xercesc_2_7::MemoryManager"** %memoryManager.addr, metadata !5848, metadata !DIExpression()), !dbg !5845
  %this1 = load %"class.xercesc_2_7::RuntimeException"*, %"class.xercesc_2_7::RuntimeException"** %this.addr, align 8
  %0 = bitcast %"class.xercesc_2_7::RuntimeException"* %this1 to %"class.xercesc_2_7::XMLException"*, !dbg !5845
  %1 = load i8*, i8** %srcFile.addr, align 8, !dbg !5845
  %2 = load i32, i32* %srcLine.addr, align 4, !dbg !5845
  %3 = load %"class.xercesc_2_7::MemoryManager"*, %"class.xercesc_2_7::MemoryManager"** %memoryManager.addr, align 8, !dbg !5845
  call void @_ZN11xercesc_2_712XMLExceptionC2EPKcjPNS_13MemoryManagerE(%"class.xercesc_2_7::XMLException"* %0, i8* %1, i32 %2, %"class.xercesc_2_7::MemoryManager"* %3), !dbg !5845
  %4 = bitcast %"class.xercesc_2_7::RuntimeException"* %this1 to i32 (...)***, !dbg !5845
  store i32 (...)** bitcast (i8** getelementptr inbounds ({ [6 x i8*] }, { [6 x i8*] }* @_ZTVN11xercesc_2_716RuntimeExceptionE, i32 0, inrange i32 0, i32 2) to i32 (...)**), i32 (...)*** %4, align 8, !dbg !5845
  %5 = bitcast %"class.xercesc_2_7::RuntimeException"* %this1 to %"class.xercesc_2_7::XMLException"*, !dbg !5849
  %6 = load i32, i32* %toThrow.addr, align 4, !dbg !5849
  invoke void @_ZN11xercesc_2_712XMLException14loadExceptTextENS_10XMLExcepts5CodesE(%"class.xercesc_2_7::XMLException"* %5, i32 %6)
          to label %invoke.cont unwind label %lpad, !dbg !5849

invoke.cont:                                      ; preds = %entry
  ret void, !dbg !5845

lpad:                                             ; preds = %entry
  %7 = landingpad { i8*, i32 }
          cleanup, !dbg !5849
  %8 = extractvalue { i8*, i32 } %7, 0, !dbg !5849
  store i8* %8, i8** %exn.slot, align 8, !dbg !5849
  %9 = extractvalue { i8*, i32 } %7, 1, !dbg !5849
  store i32 %9, i32* %ehselector.slot, align 4, !dbg !5849
  %10 = bitcast %"class.xercesc_2_7::RuntimeException"* %this1 to %"class.xercesc_2_7::XMLException"*, !dbg !5849
  call void @_ZN11xercesc_2_712XMLExceptionD2Ev(%"class.xercesc_2_7::XMLException"* %10) #10, !dbg !5849
  br label %eh.resume, !dbg !5849

eh.resume:                                        ; preds = %lpad
  %exn = load i8*, i8** %exn.slot, align 8, !dbg !5849
  %sel = load i32, i32* %ehselector.slot, align 4, !dbg !5849
  %lpad.val = insertvalue { i8*, i32 } undef, i8* %exn, 0, !dbg !5849
  %lpad.val2 = insertvalue { i8*, i32 } %lpad.val, i32 %sel, 1, !dbg !5849
  resume { i8*, i32 } %lpad.val2, !dbg !5849
}

declare dso_local void @__cxa_free_exception(i8*)

; Function Attrs: noinline nounwind uwtable
define linkonce_odr dso_local void @_ZN11xercesc_2_716RuntimeExceptionD2Ev(%"class.xercesc_2_7::RuntimeException"* %this) unnamed_addr #1 comdat align 2 !dbg !5851 {
entry:
  %this.addr = alloca %"class.xercesc_2_7::RuntimeException"*, align 8
  store %"class.xercesc_2_7::RuntimeException"* %this, %"class.xercesc_2_7::RuntimeException"** %this.addr, align 8
  call void @llvm.dbg.declare(metadata %"class.xercesc_2_7::RuntimeException"** %this.addr, metadata !5852, metadata !DIExpression()), !dbg !5853
  %this1 = load %"class.xercesc_2_7::RuntimeException"*, %"class.xercesc_2_7::RuntimeException"** %this.addr, align 8
  %0 = bitcast %"class.xercesc_2_7::RuntimeException"* %this1 to %"class.xercesc_2_7::XMLException"*, !dbg !5854
  call void @_ZN11xercesc_2_712XMLExceptionD2Ev(%"class.xercesc_2_7::XMLException"* %0) #10, !dbg !5854
  ret void, !dbg !5856
}

declare dso_local void @__cxa_throw(i8*, i8*, i8*)

declare dso_local i32 @_ZN11xercesc_2_710XMLScanner14senseNextTokenERj(%"class.xercesc_2_7::XMLScanner"*, i32* dereferenceable(4)) #7

; Function Attrs: noinline nounwind uwtable
define linkonce_odr dso_local dereferenceable(72) %"class.xercesc_2_7::XMLEntityDecl"* @_ZNK11xercesc_2_720EndOfEntityException9getEntityEv(%"class.xercesc_2_7::EndOfEntityException"* %this) #1 comdat align 2 !dbg !5857 {
entry:
  %this.addr = alloca %"class.xercesc_2_7::EndOfEntityException"*, align 8
  store %"class.xercesc_2_7::EndOfEntityException"* %this, %"class.xercesc_2_7::EndOfEntityException"** %this.addr, align 8
  call void @llvm.dbg.declare(metadata %"class.xercesc_2_7::EndOfEntityException"** %this.addr, metadata !5858, metadata !DIExpression()), !dbg !5860
  %this1 = load %"class.xercesc_2_7::EndOfEntityException"*, %"class.xercesc_2_7::EndOfEntityException"** %this.addr, align 8
  %fEntity = getelementptr inbounds %"class.xercesc_2_7::EndOfEntityException", %"class.xercesc_2_7::EndOfEntityException"* %this1, i32 0, i32 0, !dbg !5861
  %0 = load %"class.xercesc_2_7::XMLEntityDecl"*, %"class.xercesc_2_7::XMLEntityDecl"** %fEntity, align 8, !dbg !5861
  ret %"class.xercesc_2_7::XMLEntityDecl"* %0, !dbg !5862
}

; Function Attrs: noinline nounwind uwtable
define linkonce_odr dso_local zeroext i1 @_ZNK11xercesc_2_79ElemStack7isEmptyEv(%"class.xercesc_2_7::ElemStack"* %this) #1 comdat align 2 !dbg !5863 {
entry:
  %this.addr = alloca %"class.xercesc_2_7::ElemStack"*, align 8
  store %"class.xercesc_2_7::ElemStack"* %this, %"class.xercesc_2_7::ElemStack"** %this.addr, align 8
  call void @llvm.dbg.declare(metadata %"class.xercesc_2_7::ElemStack"** %this.addr, metadata !5864, metadata !DIExpression()), !dbg !5866
  %this1 = load %"class.xercesc_2_7::ElemStack"*, %"class.xercesc_2_7::ElemStack"** %this.addr, align 8
  %fStackTop = getelementptr inbounds %"class.xercesc_2_7::ElemStack", %"class.xercesc_2_7::ElemStack"* %this1, i32 0, i32 5, !dbg !5867
  %0 = load i32, i32* %fStackTop, align 4, !dbg !5867
  %cmp = icmp eq i32 %0, 0, !dbg !5868
  ret i1 %cmp, !dbg !5869
}

declare dso_local %"struct.xercesc_2_7::ElemStack::StackElem"* @_ZN11xercesc_2_79ElemStack6popTopEv(%"class.xercesc_2_7::ElemStack"*) #7

; Function Attrs: noinline uwtable
define linkonce_odr dso_local i16* @_ZNK11xercesc_2_714XMLElementDecl11getFullNameEv(%"class.xercesc_2_7::XMLElementDecl"* %this) #6 comdat align 2 !dbg !5870 {
entry:
  %this.addr = alloca %"class.xercesc_2_7::XMLElementDecl"*, align 8
  store %"class.xercesc_2_7::XMLElementDecl"* %this, %"class.xercesc_2_7::XMLElementDecl"** %this.addr, align 8
  call void @llvm.dbg.declare(metadata %"class.xercesc_2_7::XMLElementDecl"** %this.addr, metadata !5875, metadata !DIExpression()), !dbg !5876
  %this1 = load %"class.xercesc_2_7::XMLElementDecl"*, %"class.xercesc_2_7::XMLElementDecl"** %this.addr, align 8
  %fElementName = getelementptr inbounds %"class.xercesc_2_7::XMLElementDecl", %"class.xercesc_2_7::XMLElementDecl"* %this1, i32 0, i32 2, !dbg !5877
  %0 = load %"class.xercesc_2_7::QName"*, %"class.xercesc_2_7::QName"** %fElementName, align 8, !dbg !5877
  %call = call i16* @_ZN11xercesc_2_75QName10getRawNameEv(%"class.xercesc_2_7::QName"* %0), !dbg !5878
  ret i16* %call, !dbg !5879
}

declare dso_local void @_ZN11xercesc_2_710XMLScanner11scanCommentEv(%"class.xercesc_2_7::XMLScanner"*) #7

declare dso_local void @_ZN11xercesc_2_710XMLScanner6scanPIEv(%"class.xercesc_2_7::XMLScanner"*) #7

; Function Attrs: noinline uwtable
define linkonce_odr dso_local void @_ZN11xercesc_2_79ReaderMgr10skipToCharEt(%"class.xercesc_2_7::ReaderMgr"* %this, i16 zeroext %toSkipTo) #6 comdat align 2 !dbg !5880 {
entry:
  %this.addr = alloca %"class.xercesc_2_7::ReaderMgr"*, align 8
  %toSkipTo.addr = alloca i16, align 2
  %nextCh = alloca i16, align 2
  store %"class.xercesc_2_7::ReaderMgr"* %this, %"class.xercesc_2_7::ReaderMgr"** %this.addr, align 8
  call void @llvm.dbg.declare(metadata %"class.xercesc_2_7::ReaderMgr"** %this.addr, metadata !5884, metadata !DIExpression()), !dbg !5885
  store i16 %toSkipTo, i16* %toSkipTo.addr, align 2
  call void @llvm.dbg.declare(metadata i16* %toSkipTo.addr, metadata !5886, metadata !DIExpression()), !dbg !5887
  %this1 = load %"class.xercesc_2_7::ReaderMgr"*, %"class.xercesc_2_7::ReaderMgr"** %this.addr, align 8
  call void @llvm.dbg.declare(metadata i16* %nextCh, metadata !5888, metadata !DIExpression()), !dbg !5889
  store i16 0, i16* %nextCh, align 2, !dbg !5889
  br label %do.body, !dbg !5890

do.body:                                          ; preds = %land.end, %entry
  %call = call zeroext i16 @_ZN11xercesc_2_79ReaderMgr11getNextCharEv(%"class.xercesc_2_7::ReaderMgr"* %this1), !dbg !5891
  store i16 %call, i16* %nextCh, align 2, !dbg !5893
  br label %do.cond, !dbg !5894

do.cond:                                          ; preds = %do.body
  %0 = load i16, i16* %nextCh, align 2, !dbg !5895
  %conv = zext i16 %0 to i32, !dbg !5895
  %1 = load i16, i16* %toSkipTo.addr, align 2, !dbg !5896
  %conv2 = zext i16 %1 to i32, !dbg !5896
  %cmp = icmp ne i32 %conv, %conv2, !dbg !5897
  br i1 %cmp, label %land.rhs, label %land.end, !dbg !5898

land.rhs:                                         ; preds = %do.cond
  %2 = load i16, i16* %nextCh, align 2, !dbg !5899
  %conv3 = zext i16 %2 to i32, !dbg !5899
  %cmp4 = icmp ne i32 %conv3, 0, !dbg !5900
  br label %land.end

land.end:                                         ; preds = %land.rhs, %do.cond
  %3 = phi i1 [ false, %do.cond ], [ %cmp4, %land.rhs ], !dbg !5885
  br i1 %3, label %do.body, label %do.end, !dbg !5894, !llvm.loop !5901

do.end:                                           ; preds = %land.end
  ret void, !dbg !5903
}

; Function Attrs: noinline uwtable
define linkonce_odr dso_local i32 @_ZNK11xercesc_2_79ReaderMgr19getCurrentReaderNumEv(%"class.xercesc_2_7::ReaderMgr"* %this) #6 comdat align 2 !dbg !5904 {
entry:
  %this.addr = alloca %"class.xercesc_2_7::ReaderMgr"*, align 8
  store %"class.xercesc_2_7::ReaderMgr"* %this, %"class.xercesc_2_7::ReaderMgr"** %this.addr, align 8
  call void @llvm.dbg.declare(metadata %"class.xercesc_2_7::ReaderMgr"** %this.addr, metadata !5910, metadata !DIExpression()), !dbg !5912
  %this1 = load %"class.xercesc_2_7::ReaderMgr"*, %"class.xercesc_2_7::ReaderMgr"** %this.addr, align 8
  %fCurReader = getelementptr inbounds %"class.xercesc_2_7::ReaderMgr", %"class.xercesc_2_7::ReaderMgr"* %this1, i32 0, i32 2, !dbg !5913
  %0 = load %"class.xercesc_2_7::XMLReader"*, %"class.xercesc_2_7::XMLReader"** %fCurReader, align 8, !dbg !5913
  %call = call i32 @_ZNK11xercesc_2_79XMLReader12getReaderNumEv(%"class.xercesc_2_7::XMLReader"* %0), !dbg !5914
  ret i32 %call, !dbg !5915
}

; Function Attrs: noinline nounwind uwtable
define linkonce_odr dso_local zeroext i1 @_ZNK11xercesc_2_712SGXMLScanner25toCheckIdentityConstraintEv(%"class.xercesc_2_7::SGXMLScanner"* %this) #1 comdat align 2 !dbg !5916 {
entry:
  %this.addr = alloca %"class.xercesc_2_7::SGXMLScanner"*, align 8
  store %"class.xercesc_2_7::SGXMLScanner"* %this, %"class.xercesc_2_7::SGXMLScanner"** %this.addr, align 8
  call void @llvm.dbg.declare(metadata %"class.xercesc_2_7::SGXMLScanner"** %this.addr, metadata !5917, metadata !DIExpression()), !dbg !5918
  %this1 = load %"class.xercesc_2_7::SGXMLScanner"*, %"class.xercesc_2_7::SGXMLScanner"** %this.addr, align 8
  %0 = bitcast %"class.xercesc_2_7::SGXMLScanner"* %this1 to %"class.xercesc_2_7::XMLScanner"*, !dbg !5919
  %fValidate = getelementptr inbounds %"class.xercesc_2_7::XMLScanner", %"class.xercesc_2_7::XMLScanner"* %0, i32 0, i32 10, !dbg !5919
  %1 = load i8, i8* %fValidate, align 8, !dbg !5919
  %tobool = trunc i8 %1 to i1, !dbg !5919
  br i1 %tobool, label %land.lhs.true, label %land.end, !dbg !5920

land.lhs.true:                                    ; preds = %entry
  %2 = bitcast %"class.xercesc_2_7::SGXMLScanner"* %this1 to %"class.xercesc_2_7::XMLScanner"*, !dbg !5921
  %fIdentityConstraintChecking = getelementptr inbounds %"class.xercesc_2_7::XMLScanner", %"class.xercesc_2_7::XMLScanner"* %2, i32 0, i32 14, !dbg !5921
  %3 = load i8, i8* %fIdentityConstraintChecking, align 4, !dbg !5921
  %tobool2 = trunc i8 %3 to i1, !dbg !5921
  br i1 %tobool2, label %land.rhs, label %land.end, !dbg !5922

land.rhs:                                         ; preds = %land.lhs.true
  %fICHandler = getelementptr inbounds %"class.xercesc_2_7::SGXMLScanner", %"class.xercesc_2_7::SGXMLScanner"* %this1, i32 0, i32 12, !dbg !5923
  %4 = load %"class.xercesc_2_7::IdentityConstraintHandler"*, %"class.xercesc_2_7::IdentityConstraintHandler"** %fICHandler, align 8, !dbg !5923
  %tobool3 = icmp ne %"class.xercesc_2_7::IdentityConstraintHandler"* %4, null, !dbg !5923
  br label %land.end

land.end:                                         ; preds = %land.rhs, %land.lhs.true, %entry
  %5 = phi i1 [ false, %land.lhs.true ], [ false, %entry ], [ %tobool3, %land.rhs ], !dbg !5918
  ret i1 %5, !dbg !5924
}

; Function Attrs: noinline uwtable
define linkonce_odr dso_local void @_ZN11xercesc_2_725IdentityConstraintHandler11endDocumentEv(%"class.xercesc_2_7::IdentityConstraintHandler"* %this) #6 comdat align 2 !dbg !5925 {
entry:
  %this.addr = alloca %"class.xercesc_2_7::IdentityConstraintHandler"*, align 8
  store %"class.xercesc_2_7::IdentityConstraintHandler"* %this, %"class.xercesc_2_7::IdentityConstraintHandler"** %this.addr, align 8
  call void @llvm.dbg.declare(metadata %"class.xercesc_2_7::IdentityConstraintHandler"** %this.addr, metadata !5930, metadata !DIExpression()), !dbg !5931
  %this1 = load %"class.xercesc_2_7::IdentityConstraintHandler"*, %"class.xercesc_2_7::IdentityConstraintHandler"** %this.addr, align 8
  %fValueStoreCache = getelementptr inbounds %"class.xercesc_2_7::IdentityConstraintHandler", %"class.xercesc_2_7::IdentityConstraintHandler"* %this1, i32 0, i32 4, !dbg !5932
  %0 = load %"class.xercesc_2_7::ValueStoreCache"*, %"class.xercesc_2_7::ValueStoreCache"** %fValueStoreCache, align 8, !dbg !5932
  call void @_ZN11xercesc_2_715ValueStoreCache11endDocumentEv(%"class.xercesc_2_7::ValueStoreCache"* %0), !dbg !5933
  ret void, !dbg !5934
}

; Function Attrs: noinline uwtable
define dso_local i32 @_ZN11xercesc_2_712SGXMLScanner11rawAttrScanEPKtRNS_11RefVectorOfINS_12KVStringPairEEERb(%"class.xercesc_2_7::SGXMLScanner"* %this, i16* %elemName, %"class.xercesc_2_7::RefVectorOf.17"* dereferenceable(40) %toFill, i8* dereferenceable(1) %isEmpty) #6 align 2 personality i8* bitcast (i32 (...)* @__gxx_personality_v0 to i8*) !dbg !2 {
entry:
  %retval = alloca i32, align 4
  %this.addr = alloca %"class.xercesc_2_7::SGXMLScanner"*, align 8
  %elemName.addr = alloca i16*, align 8
  %toFill.addr = alloca %"class.xercesc_2_7::RefVectorOf.17"*, align 8
  %isEmpty.addr = alloca i8*, align 8
  %attCount = alloca i32, align 4
  %curVecSize = alloca i32, align 4
  %nextCh = alloca i16, align 2
  %colonPosition = alloca i32, align 4
  %curAttNameBuf = alloca i16*, align 8
  %chFound = alloca i16, align 2
  %chFound66 = alloca i16, align 2
  %curPair = alloca %"class.xercesc_2_7::KVStringPair"*, align 8
  %exn.slot = alloca i8*
  %ehselector.slot = alloca i32
  store %"class.xercesc_2_7::SGXMLScanner"* %this, %"class.xercesc_2_7::SGXMLScanner"** %this.addr, align 8
  call void @llvm.dbg.declare(metadata %"class.xercesc_2_7::SGXMLScanner"** %this.addr, metadata !5935, metadata !DIExpression()), !dbg !5936
  store i16* %elemName, i16** %elemName.addr, align 8
  call void @llvm.dbg.declare(metadata i16** %elemName.addr, metadata !5937, metadata !DIExpression()), !dbg !5938
  store %"class.xercesc_2_7::RefVectorOf.17"* %toFill, %"class.xercesc_2_7::RefVectorOf.17"** %toFill.addr, align 8
  call void @llvm.dbg.declare(metadata %"class.xercesc_2_7::RefVectorOf.17"** %toFill.addr, metadata !5939, metadata !DIExpression()), !dbg !5940
  store i8* %isEmpty, i8** %isEmpty.addr, align 8
  call void @llvm.dbg.declare(metadata i8** %isEmpty.addr, metadata !5941, metadata !DIExpression()), !dbg !5942
  %this1 = load %"class.xercesc_2_7::SGXMLScanner"*, %"class.xercesc_2_7::SGXMLScanner"** %this.addr, align 8
  call void @llvm.dbg.declare(metadata i32* %attCount, metadata !5943, metadata !DIExpression()), !dbg !5944
  store i32 0, i32* %attCount, align 4, !dbg !5944
  call void @llvm.dbg.declare(metadata i32* %curVecSize, metadata !5945, metadata !DIExpression()), !dbg !5946
  %0 = load %"class.xercesc_2_7::RefVectorOf.17"*, %"class.xercesc_2_7::RefVectorOf.17"** %toFill.addr, align 8, !dbg !5947
  %1 = bitcast %"class.xercesc_2_7::RefVectorOf.17"* %0 to %"class.xercesc_2_7::BaseRefVectorOf.18"*, !dbg !5947
  %call = call i32 @_ZNK11xercesc_2_715BaseRefVectorOfINS_12KVStringPairEE4sizeEv(%"class.xercesc_2_7::BaseRefVectorOf.18"* %1), !dbg !5948
  store i32 %call, i32* %curVecSize, align 4, !dbg !5946
  %2 = load i8*, i8** %isEmpty.addr, align 8, !dbg !5949
  store i8 0, i8* %2, align 1, !dbg !5950
  br label %while.body, !dbg !5951

while.body:                                       ; preds = %entry, %if.then44, %if.end110, %if.then143, %if.end152
  call void @llvm.dbg.declare(metadata i16* %nextCh, metadata !5952, metadata !DIExpression()), !dbg !5954
  %3 = bitcast %"class.xercesc_2_7::SGXMLScanner"* %this1 to %"class.xercesc_2_7::XMLScanner"*, !dbg !5955
  %fReaderMgr = getelementptr inbounds %"class.xercesc_2_7::XMLScanner", %"class.xercesc_2_7::XMLScanner"* %3, i32 0, i32 49, !dbg !5955
  %call2 = call zeroext i16 @_ZN11xercesc_2_79ReaderMgr12peekNextCharEv(%"class.xercesc_2_7::ReaderMgr"* %fReaderMgr), !dbg !5956
  store i16 %call2, i16* %nextCh, align 2, !dbg !5954
  %4 = load i32, i32* %attCount, align 4, !dbg !5957
  %tobool = icmp ne i32 %4, 0, !dbg !5957
  br i1 %tobool, label %if.then, label %if.end17, !dbg !5959

if.then:                                          ; preds = %while.body
  %5 = load i16, i16* %nextCh, align 2, !dbg !5960
  %conv = zext i16 %5 to i32, !dbg !5960
  %cmp = icmp ne i32 %conv, 47, !dbg !5963
  br i1 %cmp, label %land.lhs.true, label %if.end16, !dbg !5964

land.lhs.true:                                    ; preds = %if.then
  %6 = load i16, i16* %nextCh, align 2, !dbg !5965
  %conv3 = zext i16 %6 to i32, !dbg !5965
  %cmp4 = icmp ne i32 %conv3, 62, !dbg !5966
  br i1 %cmp4, label %if.then5, label %if.end16, !dbg !5967

if.then5:                                         ; preds = %land.lhs.true
  %7 = bitcast %"class.xercesc_2_7::SGXMLScanner"* %this1 to %"class.xercesc_2_7::XMLScanner"*, !dbg !5968
  %fReaderMgr6 = getelementptr inbounds %"class.xercesc_2_7::XMLScanner", %"class.xercesc_2_7::XMLScanner"* %7, i32 0, i32 49, !dbg !5968
  %call7 = call %"class.xercesc_2_7::XMLReader"* @_ZN11xercesc_2_79ReaderMgr16getCurrentReaderEv(%"class.xercesc_2_7::ReaderMgr"* %fReaderMgr6), !dbg !5971
  %8 = load i16, i16* %nextCh, align 2, !dbg !5972
  %call8 = call zeroext i1 @_ZNK11xercesc_2_79XMLReader12isWhitespaceEt(%"class.xercesc_2_7::XMLReader"* %call7, i16 zeroext %8), !dbg !5973
  br i1 %call8, label %if.then9, label %if.else, !dbg !5974

if.then9:                                         ; preds = %if.then5
  %9 = bitcast %"class.xercesc_2_7::SGXMLScanner"* %this1 to %"class.xercesc_2_7::XMLScanner"*, !dbg !5975
  %fReaderMgr10 = getelementptr inbounds %"class.xercesc_2_7::XMLScanner", %"class.xercesc_2_7::XMLScanner"* %9, i32 0, i32 49, !dbg !5975
  %call11 = call zeroext i16 @_ZN11xercesc_2_79ReaderMgr11getNextCharEv(%"class.xercesc_2_7::ReaderMgr"* %fReaderMgr10), !dbg !5977
  %10 = bitcast %"class.xercesc_2_7::SGXMLScanner"* %this1 to %"class.xercesc_2_7::XMLScanner"*, !dbg !5978
  %fReaderMgr12 = getelementptr inbounds %"class.xercesc_2_7::XMLScanner", %"class.xercesc_2_7::XMLScanner"* %10, i32 0, i32 49, !dbg !5978
  %call13 = call zeroext i1 @_ZN11xercesc_2_79ReaderMgr14skipPastSpacesEb(%"class.xercesc_2_7::ReaderMgr"* %fReaderMgr12, i1 zeroext false), !dbg !5979
  %11 = bitcast %"class.xercesc_2_7::SGXMLScanner"* %this1 to %"class.xercesc_2_7::XMLScanner"*, !dbg !5980
  %fReaderMgr14 = getelementptr inbounds %"class.xercesc_2_7::XMLScanner", %"class.xercesc_2_7::XMLScanner"* %11, i32 0, i32 49, !dbg !5980
  %call15 = call zeroext i16 @_ZN11xercesc_2_79ReaderMgr12peekNextCharEv(%"class.xercesc_2_7::ReaderMgr"* %fReaderMgr14), !dbg !5981
  store i16 %call15, i16* %nextCh, align 2, !dbg !5982
  br label %if.end, !dbg !5983

if.else:                                          ; preds = %if.then5
  %12 = bitcast %"class.xercesc_2_7::SGXMLScanner"* %this1 to %"class.xercesc_2_7::XMLScanner"*, !dbg !5984
  call void @_ZN11xercesc_2_710XMLScanner9emitErrorENS_7XMLErrs5CodesE(%"class.xercesc_2_7::XMLScanner"* %12, i32 207), !dbg !5984
  br label %if.end

if.end:                                           ; preds = %if.else, %if.then9
  br label %if.end16, !dbg !5986

if.end16:                                         ; preds = %if.end, %land.lhs.true, %if.then
  br label %if.end17, !dbg !5987

if.end17:                                         ; preds = %if.end16, %while.body
  %13 = bitcast %"class.xercesc_2_7::SGXMLScanner"* %this1 to %"class.xercesc_2_7::XMLScanner"*, !dbg !5988
  %fReaderMgr18 = getelementptr inbounds %"class.xercesc_2_7::XMLScanner", %"class.xercesc_2_7::XMLScanner"* %13, i32 0, i32 49, !dbg !5988
  %call19 = call %"class.xercesc_2_7::XMLReader"* @_ZN11xercesc_2_79ReaderMgr16getCurrentReaderEv(%"class.xercesc_2_7::ReaderMgr"* %fReaderMgr18), !dbg !5990
  %14 = load i16, i16* %nextCh, align 2, !dbg !5991
  %call20 = call zeroext i1 @_ZNK11xercesc_2_79XMLReader21isSpecialStartTagCharEt(%"class.xercesc_2_7::XMLReader"* %call19, i16 zeroext %14), !dbg !5992
  br i1 %call20, label %if.end111, label %if.then21, !dbg !5993

if.then21:                                        ; preds = %if.end17
  call void @llvm.dbg.declare(metadata i32* %colonPosition, metadata !5994, metadata !DIExpression()), !dbg !5996
  %15 = bitcast %"class.xercesc_2_7::SGXMLScanner"* %this1 to %"class.xercesc_2_7::XMLScanner"*, !dbg !5997
  %fReaderMgr22 = getelementptr inbounds %"class.xercesc_2_7::XMLScanner", %"class.xercesc_2_7::XMLScanner"* %15, i32 0, i32 49, !dbg !5997
  %16 = bitcast %"class.xercesc_2_7::SGXMLScanner"* %this1 to %"class.xercesc_2_7::XMLScanner"*, !dbg !5999
  %fAttNameBuf = getelementptr inbounds %"class.xercesc_2_7::XMLScanner", %"class.xercesc_2_7::XMLScanner"* %16, i32 0, i32 64, !dbg !5999
  %call23 = call zeroext i1 @_ZN11xercesc_2_79ReaderMgr8getQNameERNS_9XMLBufferEPi(%"class.xercesc_2_7::ReaderMgr"* %fReaderMgr22, %"class.xercesc_2_7::XMLBuffer"* dereferenceable(40) %fAttNameBuf, i32* %colonPosition), !dbg !6000
  br i1 %call23, label %if.end33, label %if.then24, !dbg !6001

if.then24:                                        ; preds = %if.then21
  %17 = bitcast %"class.xercesc_2_7::SGXMLScanner"* %this1 to %"class.xercesc_2_7::XMLScanner"*, !dbg !6002
  %fAttNameBuf25 = getelementptr inbounds %"class.xercesc_2_7::XMLScanner", %"class.xercesc_2_7::XMLScanner"* %17, i32 0, i32 64, !dbg !6002
  %call26 = call zeroext i1 @_ZNK11xercesc_2_79XMLBuffer7isEmptyEv(%"class.xercesc_2_7::XMLBuffer"* %fAttNameBuf25), !dbg !6005
  br i1 %call26, label %if.then27, label %if.else28, !dbg !6006

if.then27:                                        ; preds = %if.then24
  %18 = bitcast %"class.xercesc_2_7::SGXMLScanner"* %this1 to %"class.xercesc_2_7::XMLScanner"*, !dbg !6007
  call void @_ZN11xercesc_2_710XMLScanner9emitErrorENS_7XMLErrs5CodesE(%"class.xercesc_2_7::XMLScanner"* %18, i32 174), !dbg !6007
  br label %if.end31, !dbg !6007

if.else28:                                        ; preds = %if.then24
  %19 = bitcast %"class.xercesc_2_7::SGXMLScanner"* %this1 to %"class.xercesc_2_7::XMLScanner"*, !dbg !6008
  %20 = bitcast %"class.xercesc_2_7::SGXMLScanner"* %this1 to %"class.xercesc_2_7::XMLScanner"*, !dbg !6009
  %fAttNameBuf29 = getelementptr inbounds %"class.xercesc_2_7::XMLScanner", %"class.xercesc_2_7::XMLScanner"* %20, i32 0, i32 64, !dbg !6009
  %call30 = call i16* @_ZN11xercesc_2_79XMLBuffer12getRawBufferEv(%"class.xercesc_2_7::XMLBuffer"* %fAttNameBuf29), !dbg !6010
  call void @_ZN11xercesc_2_710XMLScanner9emitErrorENS_7XMLErrs5CodesEPKtS4_S4_S4_(%"class.xercesc_2_7::XMLScanner"* %19, i32 309, i16* %call30, i16* null, i16* null, i16* null), !dbg !6008
  br label %if.end31

if.end31:                                         ; preds = %if.else28, %if.then27
  %21 = bitcast %"class.xercesc_2_7::SGXMLScanner"* %this1 to %"class.xercesc_2_7::XMLScanner"*, !dbg !6011
  %fReaderMgr32 = getelementptr inbounds %"class.xercesc_2_7::XMLScanner", %"class.xercesc_2_7::XMLScanner"* %21, i32 0, i32 49, !dbg !6011
  call void @_ZN11xercesc_2_79ReaderMgr12skipPastCharEt(%"class.xercesc_2_7::ReaderMgr"* %fReaderMgr32, i16 zeroext 62), !dbg !6012
  %22 = load i32, i32* %attCount, align 4, !dbg !6013
  store i32 %22, i32* %retval, align 4, !dbg !6014
  br label %return, !dbg !6014

if.end33:                                         ; preds = %if.then21
  call void @llvm.dbg.declare(metadata i16** %curAttNameBuf, metadata !6015, metadata !DIExpression()), !dbg !6016
  %23 = bitcast %"class.xercesc_2_7::SGXMLScanner"* %this1 to %"class.xercesc_2_7::XMLScanner"*, !dbg !6017
  %fAttNameBuf34 = getelementptr inbounds %"class.xercesc_2_7::XMLScanner", %"class.xercesc_2_7::XMLScanner"* %23, i32 0, i32 64, !dbg !6017
  %call35 = call i16* @_ZN11xercesc_2_79XMLBuffer12getRawBufferEv(%"class.xercesc_2_7::XMLBuffer"* %fAttNameBuf34), !dbg !6018
  store i16* %call35, i16** %curAttNameBuf, align 8, !dbg !6016
  %24 = bitcast %"class.xercesc_2_7::SGXMLScanner"* %this1 to %"class.xercesc_2_7::XMLScanner"*, !dbg !6019
  %call36 = call zeroext i1 @_ZN11xercesc_2_710XMLScanner6scanEqEb(%"class.xercesc_2_7::XMLScanner"* %24, i1 zeroext false), !dbg !6019
  br i1 %call36, label %if.end63, label %if.then37, !dbg !6021

if.then37:                                        ; preds = %if.end33
  %25 = bitcast %"class.xercesc_2_7::SGXMLScanner"* %this1 to %"class.xercesc_2_7::XMLScanner"*, !dbg !6022
  call void @_ZN11xercesc_2_710XMLScanner9emitErrorENS_7XMLErrs5CodesE(%"class.xercesc_2_7::XMLScanner"* %25, i32 180), !dbg !6022
  call void @llvm.dbg.declare(metadata i16* %chFound, metadata !6024, metadata !DIExpression()), !dbg !6025
  %26 = bitcast %"class.xercesc_2_7::SGXMLScanner"* %this1 to %"class.xercesc_2_7::XMLScanner"*, !dbg !6026
  %fReaderMgr38 = getelementptr inbounds %"class.xercesc_2_7::XMLScanner", %"class.xercesc_2_7::XMLScanner"* %26, i32 0, i32 49, !dbg !6026
  %call39 = call zeroext i16 @_ZN11xercesc_2_79ReaderMgr15skipUntilInOrWSEPKt(%"class.xercesc_2_7::ReaderMgr"* %fReaderMgr38, i16* getelementptr inbounds ([6 x i16], [6 x i16]* @_ZZN11xercesc_2_712SGXMLScanner11rawAttrScanEPKtRNS_11RefVectorOfINS_12KVStringPairEEERbE7tmpList, i64 0, i64 0)), !dbg !6027
  store i16 %call39, i16* %chFound, align 2, !dbg !6025
  %27 = load i16, i16* %chFound, align 2, !dbg !6028
  %conv40 = zext i16 %27 to i32, !dbg !6028
  %cmp41 = icmp eq i32 %conv40, 62, !dbg !6030
  br i1 %cmp41, label %if.then44, label %lor.lhs.false, !dbg !6031

lor.lhs.false:                                    ; preds = %if.then37
  %28 = load i16, i16* %chFound, align 2, !dbg !6032
  %conv42 = zext i16 %28 to i32, !dbg !6032
  %cmp43 = icmp eq i32 %conv42, 47, !dbg !6033
  br i1 %cmp43, label %if.then44, label %if.else45, !dbg !6034

if.then44:                                        ; preds = %lor.lhs.false, %if.then37
  br label %while.body, !dbg !6035, !llvm.loop !6037

if.else45:                                        ; preds = %lor.lhs.false
  %29 = load i16, i16* %chFound, align 2, !dbg !6039
  %conv46 = zext i16 %29 to i32, !dbg !6039
  %cmp47 = icmp eq i32 %conv46, 39, !dbg !6041
  br i1 %cmp47, label %if.then55, label %lor.lhs.false48, !dbg !6042

lor.lhs.false48:                                  ; preds = %if.else45
  %30 = load i16, i16* %chFound, align 2, !dbg !6043
  %conv49 = zext i16 %30 to i32, !dbg !6043
  %cmp50 = icmp eq i32 %conv49, 34, !dbg !6044
  br i1 %cmp50, label %if.then55, label %lor.lhs.false51, !dbg !6045

lor.lhs.false51:                                  ; preds = %lor.lhs.false48
  %31 = bitcast %"class.xercesc_2_7::SGXMLScanner"* %this1 to %"class.xercesc_2_7::XMLScanner"*, !dbg !6046
  %fReaderMgr52 = getelementptr inbounds %"class.xercesc_2_7::XMLScanner", %"class.xercesc_2_7::XMLScanner"* %31, i32 0, i32 49, !dbg !6046
  %call53 = call %"class.xercesc_2_7::XMLReader"* @_ZN11xercesc_2_79ReaderMgr16getCurrentReaderEv(%"class.xercesc_2_7::ReaderMgr"* %fReaderMgr52), !dbg !6047
  %32 = load i16, i16* %chFound, align 2, !dbg !6048
  %call54 = call zeroext i1 @_ZNK11xercesc_2_79XMLReader12isWhitespaceEt(%"class.xercesc_2_7::XMLReader"* %call53, i16 zeroext %32), !dbg !6049
  br i1 %call54, label %if.then55, label %if.else56, !dbg !6050

if.then55:                                        ; preds = %lor.lhs.false51, %lor.lhs.false48, %if.else45
  br label %if.end61, !dbg !6051

if.else56:                                        ; preds = %lor.lhs.false51
  %33 = load i16, i16* %chFound, align 2, !dbg !6053
  %conv57 = zext i16 %33 to i32, !dbg !6053
  %cmp58 = icmp eq i32 %conv57, 60, !dbg !6055
  br i1 %cmp58, label %if.then59, label %if.else60, !dbg !6056

if.then59:                                        ; preds = %if.else56
  %34 = bitcast %"class.xercesc_2_7::SGXMLScanner"* %this1 to %"class.xercesc_2_7::XMLScanner"*, !dbg !6057
  %35 = load i16*, i16** %elemName.addr, align 8, !dbg !6059
  call void @_ZN11xercesc_2_710XMLScanner9emitErrorENS_7XMLErrs5CodesEPKtS4_S4_S4_(%"class.xercesc_2_7::XMLScanner"* %34, i32 198, i16* %35, i16* null, i16* null, i16* null), !dbg !6057
  %36 = load i32, i32* %attCount, align 4, !dbg !6060
  store i32 %36, i32* %retval, align 4, !dbg !6061
  br label %return, !dbg !6061

if.else60:                                        ; preds = %if.else56
  %37 = load i32, i32* %attCount, align 4, !dbg !6062
  store i32 %37, i32* %retval, align 4, !dbg !6064
  br label %return, !dbg !6064

if.end61:                                         ; preds = %if.then55
  br label %if.end62

if.end62:                                         ; preds = %if.end61
  br label %if.end63, !dbg !6065

if.end63:                                         ; preds = %if.end62, %if.end33
  %38 = load i16*, i16** %curAttNameBuf, align 8, !dbg !6066
  %39 = bitcast %"class.xercesc_2_7::SGXMLScanner"* %this1 to %"class.xercesc_2_7::XMLScanner"*, !dbg !6068
  %fAttValueBuf = getelementptr inbounds %"class.xercesc_2_7::XMLScanner", %"class.xercesc_2_7::XMLScanner"* %39, i32 0, i32 65, !dbg !6068
  %call64 = call zeroext i1 @_ZN11xercesc_2_712SGXMLScanner18basicAttrValueScanEPKtRNS_9XMLBufferE(%"class.xercesc_2_7::SGXMLScanner"* %this1, i16* %38, %"class.xercesc_2_7::XMLBuffer"* dereferenceable(40) %fAttValueBuf), !dbg !6069
  br i1 %call64, label %if.end85, label %if.then65, !dbg !6070

if.then65:                                        ; preds = %if.end63
  %40 = bitcast %"class.xercesc_2_7::SGXMLScanner"* %this1 to %"class.xercesc_2_7::XMLScanner"*, !dbg !6071
  call void @_ZN11xercesc_2_710XMLScanner9emitErrorENS_7XMLErrs5CodesE(%"class.xercesc_2_7::XMLScanner"* %40, i32 199), !dbg !6071
  call void @llvm.dbg.declare(metadata i16* %chFound66, metadata !6073, metadata !DIExpression()), !dbg !6074
  %41 = bitcast %"class.xercesc_2_7::SGXMLScanner"* %this1 to %"class.xercesc_2_7::XMLScanner"*, !dbg !6075
  %fReaderMgr67 = getelementptr inbounds %"class.xercesc_2_7::XMLScanner", %"class.xercesc_2_7::XMLScanner"* %41, i32 0, i32 49, !dbg !6075
  %call68 = call zeroext i16 @_ZN11xercesc_2_79ReaderMgr15skipUntilInOrWSEPKt(%"class.xercesc_2_7::ReaderMgr"* %fReaderMgr67, i16* getelementptr inbounds ([4 x i16], [4 x i16]* @_ZZN11xercesc_2_712SGXMLScanner11rawAttrScanEPKtRNS_11RefVectorOfINS_12KVStringPairEEERbE7tmpList_0, i64 0, i64 0)), !dbg !6076
  store i16 %call68, i16* %chFound66, align 2, !dbg !6074
  %42 = load i16, i16* %chFound66, align 2, !dbg !6077
  %conv69 = zext i16 %42 to i32, !dbg !6077
  %cmp70 = icmp eq i32 %conv69, 62, !dbg !6079
  br i1 %cmp70, label %if.then78, label %lor.lhs.false71, !dbg !6080

lor.lhs.false71:                                  ; preds = %if.then65
  %43 = load i16, i16* %chFound66, align 2, !dbg !6081
  %conv72 = zext i16 %43 to i32, !dbg !6081
  %cmp73 = icmp eq i32 %conv72, 47, !dbg !6082
  br i1 %cmp73, label %if.then78, label %lor.lhs.false74, !dbg !6083

lor.lhs.false74:                                  ; preds = %lor.lhs.false71
  %44 = bitcast %"class.xercesc_2_7::SGXMLScanner"* %this1 to %"class.xercesc_2_7::XMLScanner"*, !dbg !6084
  %fReaderMgr75 = getelementptr inbounds %"class.xercesc_2_7::XMLScanner", %"class.xercesc_2_7::XMLScanner"* %44, i32 0, i32 49, !dbg !6084
  %call76 = call %"class.xercesc_2_7::XMLReader"* @_ZN11xercesc_2_79ReaderMgr16getCurrentReaderEv(%"class.xercesc_2_7::ReaderMgr"* %fReaderMgr75), !dbg !6085
  %45 = load i16, i16* %chFound66, align 2, !dbg !6086
  %call77 = call zeroext i1 @_ZNK11xercesc_2_79XMLReader12isWhitespaceEt(%"class.xercesc_2_7::XMLReader"* %call76, i16 zeroext %45), !dbg !6087
  br i1 %call77, label %if.then78, label %if.else79, !dbg !6088

if.then78:                                        ; preds = %lor.lhs.false74, %lor.lhs.false71, %if.then65
  br label %if.end84, !dbg !6089

if.else79:                                        ; preds = %lor.lhs.false74
  %46 = load i16, i16* %chFound66, align 2, !dbg !6091
  %conv80 = zext i16 %46 to i32, !dbg !6091
  %cmp81 = icmp eq i32 %conv80, 60, !dbg !6093
  br i1 %cmp81, label %if.then82, label %if.else83, !dbg !6094

if.then82:                                        ; preds = %if.else79
  %47 = bitcast %"class.xercesc_2_7::SGXMLScanner"* %this1 to %"class.xercesc_2_7::XMLScanner"*, !dbg !6095
  %48 = load i16*, i16** %elemName.addr, align 8, !dbg !6097
  call void @_ZN11xercesc_2_710XMLScanner9emitErrorENS_7XMLErrs5CodesEPKtS4_S4_S4_(%"class.xercesc_2_7::XMLScanner"* %47, i32 198, i16* %48, i16* null, i16* null, i16* null), !dbg !6095
  %49 = load i32, i32* %attCount, align 4, !dbg !6098
  store i32 %49, i32* %retval, align 4, !dbg !6099
  br label %return, !dbg !6099

if.else83:                                        ; preds = %if.else79
  %50 = load i32, i32* %attCount, align 4, !dbg !6100
  store i32 %50, i32* %retval, align 4, !dbg !6102
  br label %return, !dbg !6102

if.end84:                                         ; preds = %if.then78
  br label %if.end85, !dbg !6103

if.end85:                                         ; preds = %if.end84, %if.end63
  call void @llvm.dbg.declare(metadata %"class.xercesc_2_7::KVStringPair"** %curPair, metadata !6104, metadata !DIExpression()), !dbg !6105
  store %"class.xercesc_2_7::KVStringPair"* null, %"class.xercesc_2_7::KVStringPair"** %curPair, align 8, !dbg !6105
  %51 = load i32, i32* %attCount, align 4, !dbg !6106
  %52 = load i32, i32* %curVecSize, align 4, !dbg !6108
  %cmp86 = icmp uge i32 %51, %52, !dbg !6109
  br i1 %cmp86, label %if.then87, label %if.else99, !dbg !6110

if.then87:                                        ; preds = %if.end85
  %53 = bitcast %"class.xercesc_2_7::SGXMLScanner"* %this1 to %"class.xercesc_2_7::XMLScanner"*, !dbg !6111
  %fMemoryManager = getelementptr inbounds %"class.xercesc_2_7::XMLScanner", %"class.xercesc_2_7::XMLScanner"* %53, i32 0, i32 62, !dbg !6111
  %54 = load %"class.xercesc_2_7::MemoryManager"*, %"class.xercesc_2_7::MemoryManager"** %fMemoryManager, align 8, !dbg !6111
  %call88 = call i8* @_ZN11xercesc_2_77XMemorynwEmPNS_13MemoryManagerE(i64 48, %"class.xercesc_2_7::MemoryManager"* %54), !dbg !6113
  %55 = bitcast i8* %call88 to %"class.xercesc_2_7::KVStringPair"*, !dbg !6113
  %56 = load i16*, i16** %curAttNameBuf, align 8, !dbg !6114
  %57 = bitcast %"class.xercesc_2_7::SGXMLScanner"* %this1 to %"class.xercesc_2_7::XMLScanner"*, !dbg !6115
  %fAttNameBuf89 = getelementptr inbounds %"class.xercesc_2_7::XMLScanner", %"class.xercesc_2_7::XMLScanner"* %57, i32 0, i32 64, !dbg !6115
  %call90 = invoke i32 @_ZNK11xercesc_2_79XMLBuffer6getLenEv(%"class.xercesc_2_7::XMLBuffer"* %fAttNameBuf89)
          to label %invoke.cont unwind label %lpad, !dbg !6116

invoke.cont:                                      ; preds = %if.then87
  %58 = bitcast %"class.xercesc_2_7::SGXMLScanner"* %this1 to %"class.xercesc_2_7::XMLScanner"*, !dbg !6117
  %fAttValueBuf91 = getelementptr inbounds %"class.xercesc_2_7::XMLScanner", %"class.xercesc_2_7::XMLScanner"* %58, i32 0, i32 65, !dbg !6117
  %call93 = invoke i16* @_ZN11xercesc_2_79XMLBuffer12getRawBufferEv(%"class.xercesc_2_7::XMLBuffer"* %fAttValueBuf91)
          to label %invoke.cont92 unwind label %lpad, !dbg !6118

invoke.cont92:                                    ; preds = %invoke.cont
  %59 = bitcast %"class.xercesc_2_7::SGXMLScanner"* %this1 to %"class.xercesc_2_7::XMLScanner"*, !dbg !6119
  %fAttValueBuf94 = getelementptr inbounds %"class.xercesc_2_7::XMLScanner", %"class.xercesc_2_7::XMLScanner"* %59, i32 0, i32 65, !dbg !6119
  %call96 = invoke i32 @_ZNK11xercesc_2_79XMLBuffer6getLenEv(%"class.xercesc_2_7::XMLBuffer"* %fAttValueBuf94)
          to label %invoke.cont95 unwind label %lpad, !dbg !6120

invoke.cont95:                                    ; preds = %invoke.cont92
  %60 = bitcast %"class.xercesc_2_7::SGXMLScanner"* %this1 to %"class.xercesc_2_7::XMLScanner"*, !dbg !6121
  %fMemoryManager97 = getelementptr inbounds %"class.xercesc_2_7::XMLScanner", %"class.xercesc_2_7::XMLScanner"* %60, i32 0, i32 62, !dbg !6121
  %61 = load %"class.xercesc_2_7::MemoryManager"*, %"class.xercesc_2_7::MemoryManager"** %fMemoryManager97, align 8, !dbg !6121
  invoke void @_ZN11xercesc_2_712KVStringPairC1EPKtjS2_jPNS_13MemoryManagerE(%"class.xercesc_2_7::KVStringPair"* %55, i16* %56, i32 %call90, i16* %call93, i32 %call96, %"class.xercesc_2_7::MemoryManager"* %61)
          to label %invoke.cont98 unwind label %lpad, !dbg !6122

invoke.cont98:                                    ; preds = %invoke.cont95
  store %"class.xercesc_2_7::KVStringPair"* %55, %"class.xercesc_2_7::KVStringPair"** %curPair, align 8, !dbg !6123
  %62 = load %"class.xercesc_2_7::RefVectorOf.17"*, %"class.xercesc_2_7::RefVectorOf.17"** %toFill.addr, align 8, !dbg !6124
  %63 = bitcast %"class.xercesc_2_7::RefVectorOf.17"* %62 to %"class.xercesc_2_7::BaseRefVectorOf.18"*, !dbg !6124
  %64 = load %"class.xercesc_2_7::KVStringPair"*, %"class.xercesc_2_7::KVStringPair"** %curPair, align 8, !dbg !6125
  call void @_ZN11xercesc_2_715BaseRefVectorOfINS_12KVStringPairEE10addElementEPS1_(%"class.xercesc_2_7::BaseRefVectorOf.18"* %63, %"class.xercesc_2_7::KVStringPair"* %64), !dbg !6126
  br label %if.end107, !dbg !6127

lpad:                                             ; preds = %invoke.cont95, %invoke.cont92, %invoke.cont, %if.then87
  %65 = landingpad { i8*, i32 }
          cleanup, !dbg !6128
  %66 = extractvalue { i8*, i32 } %65, 0, !dbg !6128
  store i8* %66, i8** %exn.slot, align 8, !dbg !6128
  %67 = extractvalue { i8*, i32 } %65, 1, !dbg !6128
  store i32 %67, i32* %ehselector.slot, align 4, !dbg !6128
  call void @_ZN11xercesc_2_77XMemorydlEPvPNS_13MemoryManagerE(i8* %call88, %"class.xercesc_2_7::MemoryManager"* %54) #10, !dbg !6113
  br label %eh.resume, !dbg !6113

if.else99:                                        ; preds = %if.end85
  %68 = load %"class.xercesc_2_7::RefVectorOf.17"*, %"class.xercesc_2_7::RefVectorOf.17"** %toFill.addr, align 8, !dbg !6129
  %69 = bitcast %"class.xercesc_2_7::RefVectorOf.17"* %68 to %"class.xercesc_2_7::BaseRefVectorOf.18"*, !dbg !6129
  %70 = load i32, i32* %attCount, align 4, !dbg !6131
  %call100 = call %"class.xercesc_2_7::KVStringPair"* @_ZN11xercesc_2_715BaseRefVectorOfINS_12KVStringPairEE9elementAtEj(%"class.xercesc_2_7::BaseRefVectorOf.18"* %69, i32 %70), !dbg !6132
  store %"class.xercesc_2_7::KVStringPair"* %call100, %"class.xercesc_2_7::KVStringPair"** %curPair, align 8, !dbg !6133
  %71 = load %"class.xercesc_2_7::KVStringPair"*, %"class.xercesc_2_7::KVStringPair"** %curPair, align 8, !dbg !6134
  %72 = load i16*, i16** %curAttNameBuf, align 8, !dbg !6135
  %73 = bitcast %"class.xercesc_2_7::SGXMLScanner"* %this1 to %"class.xercesc_2_7::XMLScanner"*, !dbg !6136
  %fAttNameBuf101 = getelementptr inbounds %"class.xercesc_2_7::XMLScanner", %"class.xercesc_2_7::XMLScanner"* %73, i32 0, i32 64, !dbg !6136
  %call102 = call i32 @_ZNK11xercesc_2_79XMLBuffer6getLenEv(%"class.xercesc_2_7::XMLBuffer"* %fAttNameBuf101), !dbg !6137
  %74 = bitcast %"class.xercesc_2_7::SGXMLScanner"* %this1 to %"class.xercesc_2_7::XMLScanner"*, !dbg !6138
  %fAttValueBuf103 = getelementptr inbounds %"class.xercesc_2_7::XMLScanner", %"class.xercesc_2_7::XMLScanner"* %74, i32 0, i32 65, !dbg !6138
  %call104 = call i16* @_ZN11xercesc_2_79XMLBuffer12getRawBufferEv(%"class.xercesc_2_7::XMLBuffer"* %fAttValueBuf103), !dbg !6139
  %75 = bitcast %"class.xercesc_2_7::SGXMLScanner"* %this1 to %"class.xercesc_2_7::XMLScanner"*, !dbg !6140
  %fAttValueBuf105 = getelementptr inbounds %"class.xercesc_2_7::XMLScanner", %"class.xercesc_2_7::XMLScanner"* %75, i32 0, i32 65, !dbg !6140
  %call106 = call i32 @_ZNK11xercesc_2_79XMLBuffer6getLenEv(%"class.xercesc_2_7::XMLBuffer"* %fAttValueBuf105), !dbg !6141
  call void @_ZN11xercesc_2_712KVStringPair3setEPKtjS2_j(%"class.xercesc_2_7::KVStringPair"* %71, i16* %72, i32 %call102, i16* %call104, i32 %call106), !dbg !6142
  br label %if.end107

if.end107:                                        ; preds = %if.else99, %invoke.cont98
  %76 = load i32, i32* %attCount, align 4, !dbg !6143
  %fRawAttrColonListSize = getelementptr inbounds %"class.xercesc_2_7::SGXMLScanner", %"class.xercesc_2_7::SGXMLScanner"* %this1, i32 0, i32 8, !dbg !6145
  %77 = load i32, i32* %fRawAttrColonListSize, align 8, !dbg !6145
  %cmp108 = icmp uge i32 %76, %77, !dbg !6146
  br i1 %cmp108, label %if.then109, label %if.end110, !dbg !6147

if.then109:                                       ; preds = %if.end107
  call void @_ZN11xercesc_2_712SGXMLScanner22resizeRawAttrColonListEv(%"class.xercesc_2_7::SGXMLScanner"* %this1), !dbg !6148
  br label %if.end110, !dbg !6150

if.end110:                                        ; preds = %if.then109, %if.end107
  %78 = load i32, i32* %colonPosition, align 4, !dbg !6151
  %fRawAttrColonList = getelementptr inbounds %"class.xercesc_2_7::SGXMLScanner", %"class.xercesc_2_7::SGXMLScanner"* %this1, i32 0, i32 9, !dbg !6152
  %79 = load i32*, i32** %fRawAttrColonList, align 8, !dbg !6152
  %80 = load i32, i32* %attCount, align 4, !dbg !6153
  %idxprom = zext i32 %80 to i64, !dbg !6152
  %arrayidx = getelementptr inbounds i32, i32* %79, i64 %idxprom, !dbg !6152
  store i32 %78, i32* %arrayidx, align 4, !dbg !6154
  %81 = load i32, i32* %attCount, align 4, !dbg !6155
  %inc = add i32 %81, 1, !dbg !6155
  store i32 %inc, i32* %attCount, align 4, !dbg !6155
  br label %while.body, !dbg !6156, !llvm.loop !6037

if.end111:                                        ; preds = %if.end17
  %82 = load i16, i16* %nextCh, align 2, !dbg !6157
  %tobool112 = icmp ne i16 %82, 0, !dbg !6157
  br i1 %tobool112, label %if.end117, label %if.then113, !dbg !6159

if.then113:                                       ; preds = %if.end111
  %exception = call i8* @__cxa_allocate_exception(i64 48) #10, !dbg !6160
  %83 = bitcast i8* %exception to %"class.xercesc_2_7::UnexpectedEOFException"*, !dbg !6160
  %84 = bitcast %"class.xercesc_2_7::SGXMLScanner"* %this1 to %"class.xercesc_2_7::XMLScanner"*, !dbg !6160
  %fMemoryManager114 = getelementptr inbounds %"class.xercesc_2_7::XMLScanner", %"class.xercesc_2_7::XMLScanner"* %84, i32 0, i32 62, !dbg !6160
  %85 = load %"class.xercesc_2_7::MemoryManager"*, %"class.xercesc_2_7::MemoryManager"** %fMemoryManager114, align 8, !dbg !6160
  invoke void @_ZN11xercesc_2_722UnexpectedEOFExceptionC2EPKcjNS_10XMLExcepts5CodesEPNS_13MemoryManagerE(%"class.xercesc_2_7::UnexpectedEOFException"* %83, i8* getelementptr inbounds ([17 x i8], [17 x i8]* @.str, i64 0, i64 0), i32 674, i32 47, %"class.xercesc_2_7::MemoryManager"* %85)
          to label %invoke.cont116 unwind label %lpad115, !dbg !6160

invoke.cont116:                                   ; preds = %if.then113
  call void @__cxa_throw(i8* %exception, i8* bitcast ({ i8*, i8*, i8* }* @_ZTIN11xercesc_2_722UnexpectedEOFExceptionE to i8*), i8* bitcast (void (%"class.xercesc_2_7::UnexpectedEOFException"*)* @_ZN11xercesc_2_722UnexpectedEOFExceptionD2Ev to i8*)) #13, !dbg !6160
  unreachable, !dbg !6160

lpad115:                                          ; preds = %if.then113
  %86 = landingpad { i8*, i32 }
          cleanup, !dbg !6161
  %87 = extractvalue { i8*, i32 } %86, 0, !dbg !6161
  store i8* %87, i8** %exn.slot, align 8, !dbg !6161
  %88 = extractvalue { i8*, i32 } %86, 1, !dbg !6161
  store i32 %88, i32* %ehselector.slot, align 4, !dbg !6161
  call void @__cxa_free_exception(i8* %exception) #10, !dbg !6160
  br label %eh.resume, !dbg !6160

if.end117:                                        ; preds = %if.end111
  %89 = load i16, i16* %nextCh, align 2, !dbg !6162
  %conv118 = zext i16 %89 to i32, !dbg !6162
  %cmp119 = icmp eq i32 %conv118, 47, !dbg !6164
  br i1 %cmp119, label %if.then120, label %if.else127, !dbg !6165

if.then120:                                       ; preds = %if.end117
  %90 = bitcast %"class.xercesc_2_7::SGXMLScanner"* %this1 to %"class.xercesc_2_7::XMLScanner"*, !dbg !6166
  %fReaderMgr121 = getelementptr inbounds %"class.xercesc_2_7::XMLScanner", %"class.xercesc_2_7::XMLScanner"* %90, i32 0, i32 49, !dbg !6166
  %call122 = call zeroext i16 @_ZN11xercesc_2_79ReaderMgr11getNextCharEv(%"class.xercesc_2_7::ReaderMgr"* %fReaderMgr121), !dbg !6168
  %91 = load i8*, i8** %isEmpty.addr, align 8, !dbg !6169
  store i8 1, i8* %91, align 1, !dbg !6170
  %92 = bitcast %"class.xercesc_2_7::SGXMLScanner"* %this1 to %"class.xercesc_2_7::XMLScanner"*, !dbg !6171
  %fReaderMgr123 = getelementptr inbounds %"class.xercesc_2_7::XMLScanner", %"class.xercesc_2_7::XMLScanner"* %92, i32 0, i32 49, !dbg !6171
  %call124 = call zeroext i1 @_ZN11xercesc_2_79ReaderMgr11skippedCharEt(%"class.xercesc_2_7::ReaderMgr"* %fReaderMgr123, i16 zeroext 62), !dbg !6173
  br i1 %call124, label %if.end126, label %if.then125, !dbg !6174

if.then125:                                       ; preds = %if.then120
  %93 = bitcast %"class.xercesc_2_7::SGXMLScanner"* %this1 to %"class.xercesc_2_7::XMLScanner"*, !dbg !6175
  %94 = load i16*, i16** %elemName.addr, align 8, !dbg !6176
  call void @_ZN11xercesc_2_710XMLScanner9emitErrorENS_7XMLErrs5CodesEPKtS4_S4_S4_(%"class.xercesc_2_7::XMLScanner"* %93, i32 198, i16* %94, i16* null, i16* null, i16* null), !dbg !6175
  br label %if.end126, !dbg !6175

if.end126:                                        ; preds = %if.then125, %if.then120
  br label %while.end, !dbg !6177

if.else127:                                       ; preds = %if.end117
  %95 = load i16, i16* %nextCh, align 2, !dbg !6178
  %conv128 = zext i16 %95 to i32, !dbg !6178
  %cmp129 = icmp eq i32 %conv128, 62, !dbg !6180
  br i1 %cmp129, label %if.then130, label %if.else133, !dbg !6181

if.then130:                                       ; preds = %if.else127
  %96 = bitcast %"class.xercesc_2_7::SGXMLScanner"* %this1 to %"class.xercesc_2_7::XMLScanner"*, !dbg !6182
  %fReaderMgr131 = getelementptr inbounds %"class.xercesc_2_7::XMLScanner", %"class.xercesc_2_7::XMLScanner"* %96, i32 0, i32 49, !dbg !6182
  %call132 = call zeroext i16 @_ZN11xercesc_2_79ReaderMgr11getNextCharEv(%"class.xercesc_2_7::ReaderMgr"* %fReaderMgr131), !dbg !6184
  br label %while.end, !dbg !6185

if.else133:                                       ; preds = %if.else127
  %97 = load i16, i16* %nextCh, align 2, !dbg !6186
  %conv134 = zext i16 %97 to i32, !dbg !6186
  %cmp135 = icmp eq i32 %conv134, 60, !dbg !6188
  br i1 %cmp135, label %if.then136, label %if.else137, !dbg !6189

if.then136:                                       ; preds = %if.else133
  %98 = bitcast %"class.xercesc_2_7::SGXMLScanner"* %this1 to %"class.xercesc_2_7::XMLScanner"*, !dbg !6190
  %99 = load i16*, i16** %elemName.addr, align 8, !dbg !6192
  call void @_ZN11xercesc_2_710XMLScanner9emitErrorENS_7XMLErrs5CodesEPKtS4_S4_S4_(%"class.xercesc_2_7::XMLScanner"* %98, i32 198, i16* %99, i16* null, i16* null, i16* null), !dbg !6190
  br label %while.end, !dbg !6193

if.else137:                                       ; preds = %if.else133
  %100 = load i16, i16* %nextCh, align 2, !dbg !6194
  %conv138 = zext i16 %100 to i32, !dbg !6194
  %cmp139 = icmp eq i32 %conv138, 39, !dbg !6196
  br i1 %cmp139, label %if.then143, label %lor.lhs.false140, !dbg !6197

lor.lhs.false140:                                 ; preds = %if.else137
  %101 = load i16, i16* %nextCh, align 2, !dbg !6198
  %conv141 = zext i16 %101 to i32, !dbg !6198
  %cmp142 = icmp eq i32 %conv141, 34, !dbg !6199
  br i1 %cmp142, label %if.then143, label %if.end149, !dbg !6200

if.then143:                                       ; preds = %lor.lhs.false140, %if.else137
  %102 = bitcast %"class.xercesc_2_7::SGXMLScanner"* %this1 to %"class.xercesc_2_7::XMLScanner"*, !dbg !6201
  call void @_ZN11xercesc_2_710XMLScanner9emitErrorENS_7XMLErrs5CodesE(%"class.xercesc_2_7::XMLScanner"* %102, i32 174), !dbg !6201
  %103 = bitcast %"class.xercesc_2_7::SGXMLScanner"* %this1 to %"class.xercesc_2_7::XMLScanner"*, !dbg !6203
  %fReaderMgr144 = getelementptr inbounds %"class.xercesc_2_7::XMLScanner", %"class.xercesc_2_7::XMLScanner"* %103, i32 0, i32 49, !dbg !6203
  %call145 = call zeroext i16 @_ZN11xercesc_2_79ReaderMgr11getNextCharEv(%"class.xercesc_2_7::ReaderMgr"* %fReaderMgr144), !dbg !6204
  %104 = bitcast %"class.xercesc_2_7::SGXMLScanner"* %this1 to %"class.xercesc_2_7::XMLScanner"*, !dbg !6205
  %fReaderMgr146 = getelementptr inbounds %"class.xercesc_2_7::XMLScanner", %"class.xercesc_2_7::XMLScanner"* %104, i32 0, i32 49, !dbg !6205
  %105 = load i16, i16* %nextCh, align 2, !dbg !6206
  call void @_ZN11xercesc_2_79ReaderMgr16skipQuotedStringEt(%"class.xercesc_2_7::ReaderMgr"* %fReaderMgr146, i16 zeroext %105), !dbg !6207
  %106 = bitcast %"class.xercesc_2_7::SGXMLScanner"* %this1 to %"class.xercesc_2_7::XMLScanner"*, !dbg !6208
  %fReaderMgr147 = getelementptr inbounds %"class.xercesc_2_7::XMLScanner", %"class.xercesc_2_7::XMLScanner"* %106, i32 0, i32 49, !dbg !6208
  %call148 = call zeroext i1 @_ZN11xercesc_2_79ReaderMgr14skipPastSpacesEb(%"class.xercesc_2_7::ReaderMgr"* %fReaderMgr147, i1 zeroext false), !dbg !6209
  br label %while.body, !dbg !6210, !llvm.loop !6037

if.end149:                                        ; preds = %lor.lhs.false140
  br label %if.end150

if.end150:                                        ; preds = %if.end149
  br label %if.end151

if.end151:                                        ; preds = %if.end150
  br label %if.end152

if.end152:                                        ; preds = %if.end151
  br label %while.body, !dbg !5951, !llvm.loop !6037

while.end:                                        ; preds = %if.then136, %if.then130, %if.end126
  %107 = load i32, i32* %attCount, align 4, !dbg !6211
  store i32 %107, i32* %retval, align 4, !dbg !6212
  br label %return, !dbg !6212

return:                                           ; preds = %while.end, %if.else83, %if.then82, %if.else60, %if.then59, %if.end31
  %108 = load i32, i32* %retval, align 4, !dbg !6213
  ret i32 %108, !dbg !6213

eh.resume:                                        ; preds = %lpad115, %lpad
  %exn = load i8*, i8** %exn.slot, align 8, !dbg !6113
  %sel = load i32, i32* %ehselector.slot, align 4, !dbg !6113
  %lpad.val = insertvalue { i8*, i32 } undef, i8* %exn, 0, !dbg !6113
  %lpad.val153 = insertvalue { i8*, i32 } %lpad.val, i32 %sel, 1, !dbg !6113
  resume { i8*, i32 } %lpad.val153, !dbg !6113
}

; Function Attrs: noinline nounwind uwtable
define linkonce_odr dso_local i32 @_ZNK11xercesc_2_715BaseRefVectorOfINS_12KVStringPairEE4sizeEv(%"class.xercesc_2_7::BaseRefVectorOf.18"* %this) #1 comdat align 2 !dbg !6214 {
entry:
  %this.addr = alloca %"class.xercesc_2_7::BaseRefVectorOf.18"*, align 8
  store %"class.xercesc_2_7::BaseRefVectorOf.18"* %this, %"class.xercesc_2_7::BaseRefVectorOf.18"** %this.addr, align 8
  call void @llvm.dbg.declare(metadata %"class.xercesc_2_7::BaseRefVectorOf.18"** %this.addr, metadata !6216, metadata !DIExpression()), !dbg !6218
  %this1 = load %"class.xercesc_2_7::BaseRefVectorOf.18"*, %"class.xercesc_2_7::BaseRefVectorOf.18"** %this.addr, align 8
  %fCurCount = getelementptr inbounds %"class.xercesc_2_7::BaseRefVectorOf.18", %"class.xercesc_2_7::BaseRefVectorOf.18"* %this1, i32 0, i32 2, !dbg !6219
  %0 = load i32, i32* %fCurCount, align 4, !dbg !6219
  ret i32 %0, !dbg !6220
}

declare dso_local zeroext i16 @_ZN11xercesc_2_79ReaderMgr12peekNextCharEv(%"class.xercesc_2_7::ReaderMgr"*) #7

; Function Attrs: noinline nounwind uwtable
define linkonce_odr dso_local %"class.xercesc_2_7::XMLReader"* @_ZN11xercesc_2_79ReaderMgr16getCurrentReaderEv(%"class.xercesc_2_7::ReaderMgr"* %this) #1 comdat align 2 !dbg !6221 {
entry:
  %this.addr = alloca %"class.xercesc_2_7::ReaderMgr"*, align 8
  store %"class.xercesc_2_7::ReaderMgr"* %this, %"class.xercesc_2_7::ReaderMgr"** %this.addr, align 8
  call void @llvm.dbg.declare(metadata %"class.xercesc_2_7::ReaderMgr"** %this.addr, metadata !6226, metadata !DIExpression()), !dbg !6227
  %this1 = load %"class.xercesc_2_7::ReaderMgr"*, %"class.xercesc_2_7::ReaderMgr"** %this.addr, align 8
  %fCurReader = getelementptr inbounds %"class.xercesc_2_7::ReaderMgr", %"class.xercesc_2_7::ReaderMgr"* %this1, i32 0, i32 2, !dbg !6228
  %0 = load %"class.xercesc_2_7::XMLReader"*, %"class.xercesc_2_7::XMLReader"** %fCurReader, align 8, !dbg !6228
  ret %"class.xercesc_2_7::XMLReader"* %0, !dbg !6229
}

; Function Attrs: noinline nounwind uwtable
define linkonce_odr dso_local zeroext i1 @_ZNK11xercesc_2_79XMLReader12isWhitespaceEt(%"class.xercesc_2_7::XMLReader"* %this, i16 zeroext %toCheck) #1 comdat align 2 !dbg !6230 {
entry:
  %this.addr = alloca %"class.xercesc_2_7::XMLReader"*, align 8
  %toCheck.addr = alloca i16, align 2
  store %"class.xercesc_2_7::XMLReader"* %this, %"class.xercesc_2_7::XMLReader"** %this.addr, align 8
  call void @llvm.dbg.declare(metadata %"class.xercesc_2_7::XMLReader"** %this.addr, metadata !6231, metadata !DIExpression()), !dbg !6233
  store i16 %toCheck, i16* %toCheck.addr, align 2
  call void @llvm.dbg.declare(metadata i16* %toCheck.addr, metadata !6234, metadata !DIExpression()), !dbg !6235
  %this1 = load %"class.xercesc_2_7::XMLReader"*, %"class.xercesc_2_7::XMLReader"** %this.addr, align 8
  %fgCharCharsTable = getelementptr inbounds %"class.xercesc_2_7::XMLReader", %"class.xercesc_2_7::XMLReader"* %this1, i32 0, i32 28, !dbg !6236
  %0 = load i8*, i8** %fgCharCharsTable, align 8, !dbg !6236
  %1 = load i16, i16* %toCheck.addr, align 2, !dbg !6237
  %idxprom = zext i16 %1 to i64, !dbg !6236
  %arrayidx = getelementptr inbounds i8, i8* %0, i64 %idxprom, !dbg !6236
  %2 = load i8, i8* %arrayidx, align 1, !dbg !6236
  %conv = zext i8 %2 to i32, !dbg !6236
  %and = and i32 %conv, 128, !dbg !6238
  %cmp = icmp ne i32 %and, 0, !dbg !6239
  ret i1 %cmp, !dbg !6240
}

declare dso_local zeroext i16 @_ZN11xercesc_2_79ReaderMgr11getNextCharEv(%"class.xercesc_2_7::ReaderMgr"*) #7

declare dso_local zeroext i1 @_ZN11xercesc_2_79ReaderMgr14skipPastSpacesEb(%"class.xercesc_2_7::ReaderMgr"*, i1 zeroext) #7

; Function Attrs: noinline nounwind uwtable
define linkonce_odr dso_local zeroext i1 @_ZNK11xercesc_2_79XMLReader21isSpecialStartTagCharEt(%"class.xercesc_2_7::XMLReader"* %this, i16 zeroext %toCheck) #1 comdat align 2 !dbg !6241 {
entry:
  %this.addr = alloca %"class.xercesc_2_7::XMLReader"*, align 8
  %toCheck.addr = alloca i16, align 2
  store %"class.xercesc_2_7::XMLReader"* %this, %"class.xercesc_2_7::XMLReader"** %this.addr, align 8
  call void @llvm.dbg.declare(metadata %"class.xercesc_2_7::XMLReader"** %this.addr, metadata !6242, metadata !DIExpression()), !dbg !6243
  store i16 %toCheck, i16* %toCheck.addr, align 2
  call void @llvm.dbg.declare(metadata i16* %toCheck.addr, metadata !6244, metadata !DIExpression()), !dbg !6245
  %this1 = load %"class.xercesc_2_7::XMLReader"*, %"class.xercesc_2_7::XMLReader"** %this.addr, align 8
  %fgCharCharsTable = getelementptr inbounds %"class.xercesc_2_7::XMLReader", %"class.xercesc_2_7::XMLReader"* %this1, i32 0, i32 28, !dbg !6246
  %0 = load i8*, i8** %fgCharCharsTable, align 8, !dbg !6246
  %1 = load i16, i16* %toCheck.addr, align 2, !dbg !6247
  %idxprom = zext i16 %1 to i64, !dbg !6246
  %arrayidx = getelementptr inbounds i8, i8* %0, i64 %idxprom, !dbg !6246
  %2 = load i8, i8* %arrayidx, align 1, !dbg !6246
  %conv = zext i8 %2 to i32, !dbg !6246
  %and = and i32 %conv, 16, !dbg !6248
  %cmp = icmp ne i32 %and, 0, !dbg !6249
  ret i1 %cmp, !dbg !6250
}

; Function Attrs: noinline uwtable
define linkonce_odr dso_local zeroext i1 @_ZN11xercesc_2_79ReaderMgr8getQNameERNS_9XMLBufferEPi(%"class.xercesc_2_7::ReaderMgr"* %this, %"class.xercesc_2_7::XMLBuffer"* dereferenceable(40) %toFill, i32* %colonPosition) #6 comdat align 2 !dbg !6251 {
entry:
  %this.addr = alloca %"class.xercesc_2_7::ReaderMgr"*, align 8
  %toFill.addr = alloca %"class.xercesc_2_7::XMLBuffer"*, align 8
  %colonPosition.addr = alloca i32*, align 8
  store %"class.xercesc_2_7::ReaderMgr"* %this, %"class.xercesc_2_7::ReaderMgr"** %this.addr, align 8
  call void @llvm.dbg.declare(metadata %"class.xercesc_2_7::ReaderMgr"** %this.addr, metadata !6255, metadata !DIExpression()), !dbg !6256
  store %"class.xercesc_2_7::XMLBuffer"* %toFill, %"class.xercesc_2_7::XMLBuffer"** %toFill.addr, align 8
  call void @llvm.dbg.declare(metadata %"class.xercesc_2_7::XMLBuffer"** %toFill.addr, metadata !6257, metadata !DIExpression()), !dbg !6258
  store i32* %colonPosition, i32** %colonPosition.addr, align 8
  call void @llvm.dbg.declare(metadata i32** %colonPosition.addr, metadata !6259, metadata !DIExpression()), !dbg !6260
  %this1 = load %"class.xercesc_2_7::ReaderMgr"*, %"class.xercesc_2_7::ReaderMgr"** %this.addr, align 8
  %0 = load %"class.xercesc_2_7::XMLBuffer"*, %"class.xercesc_2_7::XMLBuffer"** %toFill.addr, align 8, !dbg !6261
  call void @_ZN11xercesc_2_79XMLBuffer5resetEv(%"class.xercesc_2_7::XMLBuffer"* %0), !dbg !6262
  %fCurReader = getelementptr inbounds %"class.xercesc_2_7::ReaderMgr", %"class.xercesc_2_7::ReaderMgr"* %this1, i32 0, i32 2, !dbg !6263
  %1 = load %"class.xercesc_2_7::XMLReader"*, %"class.xercesc_2_7::XMLReader"** %fCurReader, align 8, !dbg !6263
  %2 = load %"class.xercesc_2_7::XMLBuffer"*, %"class.xercesc_2_7::XMLBuffer"** %toFill.addr, align 8, !dbg !6264
  %3 = load i32*, i32** %colonPosition.addr, align 8, !dbg !6265
  %call = call zeroext i1 @_ZN11xercesc_2_79XMLReader8getQNameERNS_9XMLBufferEPi(%"class.xercesc_2_7::XMLReader"* %1, %"class.xercesc_2_7::XMLBuffer"* dereferenceable(40) %2, i32* %3), !dbg !6266
  ret i1 %call, !dbg !6267
}

; Function Attrs: noinline nounwind uwtable
define linkonce_odr dso_local zeroext i1 @_ZNK11xercesc_2_79XMLBuffer7isEmptyEv(%"class.xercesc_2_7::XMLBuffer"* %this) #1 comdat align 2 !dbg !6268 {
entry:
  %this.addr = alloca %"class.xercesc_2_7::XMLBuffer"*, align 8
  store %"class.xercesc_2_7::XMLBuffer"* %this, %"class.xercesc_2_7::XMLBuffer"** %this.addr, align 8
  call void @llvm.dbg.declare(metadata %"class.xercesc_2_7::XMLBuffer"** %this.addr, metadata !6269, metadata !DIExpression()), !dbg !6271
  %this1 = load %"class.xercesc_2_7::XMLBuffer"*, %"class.xercesc_2_7::XMLBuffer"** %this.addr, align 8
  %fIndex = getelementptr inbounds %"class.xercesc_2_7::XMLBuffer", %"class.xercesc_2_7::XMLBuffer"* %this1, i32 0, i32 0, !dbg !6272
  %0 = load i32, i32* %fIndex, align 8, !dbg !6272
  %cmp = icmp eq i32 %0, 0, !dbg !6273
  ret i1 %cmp, !dbg !6274
}

; Function Attrs: noinline nounwind uwtable
define linkonce_odr dso_local i16* @_ZN11xercesc_2_79XMLBuffer12getRawBufferEv(%"class.xercesc_2_7::XMLBuffer"* %this) #1 comdat align 2 !dbg !6275 {
entry:
  %this.addr = alloca %"class.xercesc_2_7::XMLBuffer"*, align 8
  store %"class.xercesc_2_7::XMLBuffer"* %this, %"class.xercesc_2_7::XMLBuffer"** %this.addr, align 8
  call void @llvm.dbg.declare(metadata %"class.xercesc_2_7::XMLBuffer"** %this.addr, metadata !6276, metadata !DIExpression()), !dbg !6277
  %this1 = load %"class.xercesc_2_7::XMLBuffer"*, %"class.xercesc_2_7::XMLBuffer"** %this.addr, align 8
  %fBuffer = getelementptr inbounds %"class.xercesc_2_7::XMLBuffer", %"class.xercesc_2_7::XMLBuffer"* %this1, i32 0, i32 6, !dbg !6278
  %0 = load i16*, i16** %fBuffer, align 8, !dbg !6278
  %fIndex = getelementptr inbounds %"class.xercesc_2_7::XMLBuffer", %"class.xercesc_2_7::XMLBuffer"* %this1, i32 0, i32 0, !dbg !6279
  %1 = load i32, i32* %fIndex, align 8, !dbg !6279
  %idxprom = zext i32 %1 to i64, !dbg !6278
  %arrayidx = getelementptr inbounds i16, i16* %0, i64 %idxprom, !dbg !6278
  store i16 0, i16* %arrayidx, align 2, !dbg !6280
  %fBuffer2 = getelementptr inbounds %"class.xercesc_2_7::XMLBuffer", %"class.xercesc_2_7::XMLBuffer"* %this1, i32 0, i32 6, !dbg !6281
  %2 = load i16*, i16** %fBuffer2, align 8, !dbg !6281
  ret i16* %2, !dbg !6282
}

; Function Attrs: noinline uwtable
define linkonce_odr dso_local void @_ZN11xercesc_2_79ReaderMgr12skipPastCharEt(%"class.xercesc_2_7::ReaderMgr"* %this, i16 zeroext %toSkipPast) #6 comdat align 2 !dbg !6283 {
entry:
  %this.addr = alloca %"class.xercesc_2_7::ReaderMgr"*, align 8
  %toSkipPast.addr = alloca i16, align 2
  %nextCh = alloca i16, align 2
  store %"class.xercesc_2_7::ReaderMgr"* %this, %"class.xercesc_2_7::ReaderMgr"** %this.addr, align 8
  call void @llvm.dbg.declare(metadata %"class.xercesc_2_7::ReaderMgr"** %this.addr, metadata !6285, metadata !DIExpression()), !dbg !6286
  store i16 %toSkipPast, i16* %toSkipPast.addr, align 2
  call void @llvm.dbg.declare(metadata i16* %toSkipPast.addr, metadata !6287, metadata !DIExpression()), !dbg !6288
  %this1 = load %"class.xercesc_2_7::ReaderMgr"*, %"class.xercesc_2_7::ReaderMgr"** %this.addr, align 8
  call void @llvm.dbg.declare(metadata i16* %nextCh, metadata !6289, metadata !DIExpression()), !dbg !6290
  store i16 0, i16* %nextCh, align 2, !dbg !6290
  br label %do.body, !dbg !6291

do.body:                                          ; preds = %land.end, %entry
  %call = call zeroext i16 @_ZN11xercesc_2_79ReaderMgr11getNextCharEv(%"class.xercesc_2_7::ReaderMgr"* %this1), !dbg !6292
  store i16 %call, i16* %nextCh, align 2, !dbg !6294
  br label %do.cond, !dbg !6295

do.cond:                                          ; preds = %do.body
  %0 = load i16, i16* %nextCh, align 2, !dbg !6296
  %conv = zext i16 %0 to i32, !dbg !6296
  %1 = load i16, i16* %toSkipPast.addr, align 2, !dbg !6297
  %conv2 = zext i16 %1 to i32, !dbg !6297
  %cmp = icmp ne i32 %conv, %conv2, !dbg !6298
  br i1 %cmp, label %land.rhs, label %land.end, !dbg !6299

land.rhs:                                         ; preds = %do.cond
  %2 = load i16, i16* %nextCh, align 2, !dbg !6300
  %conv3 = zext i16 %2 to i32, !dbg !6300
  %cmp4 = icmp ne i32 %conv3, 0, !dbg !6301
  br label %land.end

land.end:                                         ; preds = %land.rhs, %do.cond
  %3 = phi i1 [ false, %do.cond ], [ %cmp4, %land.rhs ], !dbg !6286
  br i1 %3, label %do.body, label %do.end, !dbg !6295, !llvm.loop !6302

do.end:                                           ; preds = %land.end
  ret void, !dbg !6304
}

declare dso_local zeroext i1 @_ZN11xercesc_2_710XMLScanner6scanEqEb(%"class.xercesc_2_7::XMLScanner"*, i1 zeroext) #7

declare dso_local zeroext i16 @_ZN11xercesc_2_79ReaderMgr15skipUntilInOrWSEPKt(%"class.xercesc_2_7::ReaderMgr"*, i16*) #7

; Function Attrs: noinline uwtable
define dso_local zeroext i1 @_ZN11xercesc_2_712SGXMLScanner18basicAttrValueScanEPKtRNS_9XMLBufferE(%"class.xercesc_2_7::SGXMLScanner"* %this, i16* %attrName, %"class.xercesc_2_7::XMLBuffer"* dereferenceable(40) %toFill) #6 align 2 personality i8* bitcast (i32 (...)* @__gxx_personality_v0 to i8*) !dbg !6305 {
entry:
  %retval = alloca i1, align 1
  %this.addr = alloca %"class.xercesc_2_7::SGXMLScanner"*, align 8
  %attrName.addr = alloca i16*, align 8
  %toFill.addr = alloca %"class.xercesc_2_7::XMLBuffer"*, align 8
  %quoteCh = alloca i16, align 2
  %curReader = alloca i32, align 4
  %nextCh = alloca i16, align 2
  %exn.slot = alloca i8*
  %ehselector.slot = alloca i32
  %tmpBuf = alloca [9 x i16], align 16
  %escaped = alloca i8, align 1
  %firstCh = alloca i16, align 2
  %secondCh = alloca i16, align 2
  %0 = alloca %"class.xercesc_2_7::EndOfEntityException"*, align 8
  store %"class.xercesc_2_7::SGXMLScanner"* %this, %"class.xercesc_2_7::SGXMLScanner"** %this.addr, align 8
  call void @llvm.dbg.declare(metadata %"class.xercesc_2_7::SGXMLScanner"** %this.addr, metadata !6306, metadata !DIExpression()), !dbg !6307
  store i16* %attrName, i16** %attrName.addr, align 8
  call void @llvm.dbg.declare(metadata i16** %attrName.addr, metadata !6308, metadata !DIExpression()), !dbg !6309
  store %"class.xercesc_2_7::XMLBuffer"* %toFill, %"class.xercesc_2_7::XMLBuffer"** %toFill.addr, align 8
  call void @llvm.dbg.declare(metadata %"class.xercesc_2_7::XMLBuffer"** %toFill.addr, metadata !6310, metadata !DIExpression()), !dbg !6311
  %this1 = load %"class.xercesc_2_7::SGXMLScanner"*, %"class.xercesc_2_7::SGXMLScanner"** %this.addr, align 8
  %1 = load %"class.xercesc_2_7::XMLBuffer"*, %"class.xercesc_2_7::XMLBuffer"** %toFill.addr, align 8, !dbg !6312
  call void @_ZN11xercesc_2_79XMLBuffer5resetEv(%"class.xercesc_2_7::XMLBuffer"* %1), !dbg !6313
  call void @llvm.dbg.declare(metadata i16* %quoteCh, metadata !6314, metadata !DIExpression()), !dbg !6315
  %2 = bitcast %"class.xercesc_2_7::SGXMLScanner"* %this1 to %"class.xercesc_2_7::XMLScanner"*, !dbg !6316
  %fReaderMgr = getelementptr inbounds %"class.xercesc_2_7::XMLScanner", %"class.xercesc_2_7::XMLScanner"* %2, i32 0, i32 49, !dbg !6316
  %call = call zeroext i1 @_ZN11xercesc_2_79ReaderMgr11skipIfQuoteERt(%"class.xercesc_2_7::ReaderMgr"* %fReaderMgr, i16* dereferenceable(2) %quoteCh), !dbg !6318
  br i1 %call, label %if.end, label %if.then, !dbg !6319

if.then:                                          ; preds = %entry
  store i1 false, i1* %retval, align 1, !dbg !6320
  br label %return, !dbg !6320

if.end:                                           ; preds = %entry
  call void @llvm.dbg.declare(metadata i32* %curReader, metadata !6321, metadata !DIExpression()), !dbg !6322
  %3 = bitcast %"class.xercesc_2_7::SGXMLScanner"* %this1 to %"class.xercesc_2_7::XMLScanner"*, !dbg !6323
  %fReaderMgr2 = getelementptr inbounds %"class.xercesc_2_7::XMLScanner", %"class.xercesc_2_7::XMLScanner"* %3, i32 0, i32 49, !dbg !6323
  %call3 = call i32 @_ZNK11xercesc_2_79ReaderMgr19getCurrentReaderNumEv(%"class.xercesc_2_7::ReaderMgr"* %fReaderMgr2), !dbg !6324
  store i32 %call3, i32* %curReader, align 4, !dbg !6322
  br label %while.body, !dbg !6325

while.body:                                       ; preds = %if.end, %try.cont
  br label %while.cond4, !dbg !6326

while.cond4:                                      ; preds = %invoke.cont85, %if.end68, %while.body
  br label %while.body5, !dbg !6326

while.body5:                                      ; preds = %while.cond4
  call void @llvm.dbg.declare(metadata i16* %nextCh, metadata !6329, metadata !DIExpression()), !dbg !6331
  %4 = bitcast %"class.xercesc_2_7::SGXMLScanner"* %this1 to %"class.xercesc_2_7::XMLScanner"*, !dbg !6332
  %fReaderMgr6 = getelementptr inbounds %"class.xercesc_2_7::XMLScanner", %"class.xercesc_2_7::XMLScanner"* %4, i32 0, i32 49, !dbg !6332
  %call7 = invoke zeroext i16 @_ZN11xercesc_2_79ReaderMgr11getNextCharEv(%"class.xercesc_2_7::ReaderMgr"* %fReaderMgr6)
          to label %invoke.cont unwind label %lpad, !dbg !6333

invoke.cont:                                      ; preds = %while.body5
  store i16 %call7, i16* %nextCh, align 2, !dbg !6331
  %5 = load i16, i16* %nextCh, align 2, !dbg !6334
  %conv = zext i16 %5 to i32, !dbg !6334
  %6 = load i16, i16* %quoteCh, align 2, !dbg !6336
  %conv8 = zext i16 %6 to i32, !dbg !6336
  %cmp = icmp ne i32 %conv, %conv8, !dbg !6337
  br i1 %cmp, label %if.then9, label %if.else70, !dbg !6338

if.then9:                                         ; preds = %invoke.cont
  %7 = load i16, i16* %nextCh, align 2, !dbg !6339
  %conv10 = zext i16 %7 to i32, !dbg !6339
  %cmp11 = icmp ne i32 %conv10, 38, !dbg !6342
  br i1 %cmp11, label %if.then12, label %if.else55, !dbg !6343

if.then12:                                        ; preds = %if.then9
  %8 = load i16, i16* %nextCh, align 2, !dbg !6344
  %conv13 = zext i16 %8 to i32, !dbg !6344
  %cmp14 = icmp slt i32 %conv13, 55296, !dbg !6347
  br i1 %cmp14, label %if.then17, label %lor.lhs.false, !dbg !6348

lor.lhs.false:                                    ; preds = %if.then12
  %9 = load i16, i16* %nextCh, align 2, !dbg !6349
  %conv15 = zext i16 %9 to i32, !dbg !6349
  %cmp16 = icmp sgt i32 %conv15, 57343, !dbg !6350
  br i1 %cmp16, label %if.then17, label %if.else, !dbg !6351

if.then17:                                        ; preds = %lor.lhs.false, %if.then12
  %10 = bitcast %"class.xercesc_2_7::SGXMLScanner"* %this1 to %"class.xercesc_2_7::XMLScanner"*, !dbg !6352
  %fReaderMgr18 = getelementptr inbounds %"class.xercesc_2_7::XMLScanner", %"class.xercesc_2_7::XMLScanner"* %10, i32 0, i32 49, !dbg !6352
  %call20 = invoke %"class.xercesc_2_7::XMLReader"* @_ZN11xercesc_2_79ReaderMgr16getCurrentReaderEv(%"class.xercesc_2_7::ReaderMgr"* %fReaderMgr18)
          to label %invoke.cont19 unwind label %lpad, !dbg !6355

invoke.cont19:                                    ; preds = %if.then17
  %11 = load i16, i16* %nextCh, align 2, !dbg !6356
  %call22 = invoke zeroext i1 @_ZNK11xercesc_2_79XMLReader9isXMLCharEt(%"class.xercesc_2_7::XMLReader"* %call20, i16 zeroext %11)
          to label %invoke.cont21 unwind label %lpad, !dbg !6357

invoke.cont21:                                    ; preds = %invoke.cont19
  br i1 %call22, label %if.end35, label %if.then23, !dbg !6358

if.then23:                                        ; preds = %invoke.cont21
  %12 = load i16, i16* %nextCh, align 2, !dbg !6359
  %conv24 = zext i16 %12 to i32, !dbg !6359
  %cmp25 = icmp eq i32 %conv24, 0, !dbg !6362
  br i1 %cmp25, label %if.then26, label %if.end29, !dbg !6363

if.then26:                                        ; preds = %if.then23
  %exception = call i8* @__cxa_allocate_exception(i64 48) #10, !dbg !6364
  %13 = bitcast i8* %exception to %"class.xercesc_2_7::UnexpectedEOFException"*, !dbg !6364
  %14 = bitcast %"class.xercesc_2_7::SGXMLScanner"* %this1 to %"class.xercesc_2_7::XMLScanner"*, !dbg !6364
  %fMemoryManager = getelementptr inbounds %"class.xercesc_2_7::XMLScanner", %"class.xercesc_2_7::XMLScanner"* %14, i32 0, i32 62, !dbg !6364
  %15 = load %"class.xercesc_2_7::MemoryManager"*, %"class.xercesc_2_7::MemoryManager"** %fMemoryManager, align 8, !dbg !6364
  invoke void @_ZN11xercesc_2_722UnexpectedEOFExceptionC2EPKcjNS_10XMLExcepts5CodesEPNS_13MemoryManagerE(%"class.xercesc_2_7::UnexpectedEOFException"* %13, i8* getelementptr inbounds ([17 x i8], [17 x i8]* @.str, i64 0, i64 0), i32 3892, i32 47, %"class.xercesc_2_7::MemoryManager"* %15)
          to label %invoke.cont28 unwind label %lpad27, !dbg !6364

invoke.cont28:                                    ; preds = %if.then26
  invoke void @__cxa_throw(i8* %exception, i8* bitcast ({ i8*, i8*, i8* }* @_ZTIN11xercesc_2_722UnexpectedEOFExceptionE to i8*), i8* bitcast (void (%"class.xercesc_2_7::UnexpectedEOFException"*)* @_ZN11xercesc_2_722UnexpectedEOFExceptionD2Ev to i8*)) #13
          to label %unreachable unwind label %lpad, !dbg !6364

lpad:                                             ; preds = %if.end84, %if.then81, %if.end76, %if.else70, %if.then65, %if.end62, %if.then60, %if.else55, %if.else51, %if.then48, %invoke.cont39, %if.then38, %invoke.cont32, %if.end29, %invoke.cont28, %invoke.cont19, %if.then17, %while.body5
  %16 = landingpad { i8*, i32 }
          catch i8* bitcast ({ i8*, i8* }* @_ZTIN11xercesc_2_720EndOfEntityExceptionE to i8*), !dbg !6365
  %17 = extractvalue { i8*, i32 } %16, 0, !dbg !6365
  store i8* %17, i8** %exn.slot, align 8, !dbg !6365
  %18 = extractvalue { i8*, i32 } %16, 1, !dbg !6365
  store i32 %18, i32* %ehselector.slot, align 4, !dbg !6365
  br label %catch.dispatch, !dbg !6365

lpad27:                                           ; preds = %if.then26
  %19 = landingpad { i8*, i32 }
          cleanup
          catch i8* bitcast ({ i8*, i8* }* @_ZTIN11xercesc_2_720EndOfEntityExceptionE to i8*), !dbg !6366
  %20 = extractvalue { i8*, i32 } %19, 0, !dbg !6366
  store i8* %20, i8** %exn.slot, align 8, !dbg !6366
  %21 = extractvalue { i8*, i32 } %19, 1, !dbg !6366
  store i32 %21, i32* %ehselector.slot, align 4, !dbg !6366
  call void @__cxa_free_exception(i8* %exception) #10, !dbg !6364
  br label %catch.dispatch, !dbg !6364

catch.dispatch:                                   ; preds = %lpad27, %lpad
  %sel = load i32, i32* %ehselector.slot, align 4, !dbg !6367
  %22 = call i32 @llvm.eh.typeid.for(i8* bitcast ({ i8*, i8* }* @_ZTIN11xercesc_2_720EndOfEntityExceptionE to i8*)) #10, !dbg !6367
  %matches = icmp eq i32 %sel, %22, !dbg !6367
  br i1 %matches, label %catch, label %eh.resume, !dbg !6367

catch:                                            ; preds = %catch.dispatch
  call void @llvm.dbg.declare(metadata %"class.xercesc_2_7::EndOfEntityException"** %0, metadata !6368, metadata !DIExpression()), !dbg !6369
  %exn = load i8*, i8** %exn.slot, align 8, !dbg !6367
  %23 = call i8* @__cxa_begin_catch(i8* %exn) #10, !dbg !6367
  %exn.byref = bitcast i8* %23 to %"class.xercesc_2_7::EndOfEntityException"*, !dbg !6367
  store %"class.xercesc_2_7::EndOfEntityException"* %exn.byref, %"class.xercesc_2_7::EndOfEntityException"** %0, align 8, !dbg !6367
  call void @__cxa_end_catch(), !dbg !6370
  br label %try.cont, !dbg !6370

try.cont:                                         ; preds = %catch
  br label %while.body, !dbg !6325, !llvm.loop !6372

if.end29:                                         ; preds = %if.then23
  call void @llvm.dbg.declare(metadata [9 x i16]* %tmpBuf, metadata !6374, metadata !DIExpression()), !dbg !6378
  %24 = load i16, i16* %nextCh, align 2, !dbg !6379
  %conv30 = zext i16 %24 to i32, !dbg !6379
  %arraydecay = getelementptr inbounds [9 x i16], [9 x i16]* %tmpBuf, i64 0, i64 0, !dbg !6380
  %25 = bitcast %"class.xercesc_2_7::SGXMLScanner"* %this1 to %"class.xercesc_2_7::XMLScanner"*, !dbg !6381
  %fMemoryManager31 = getelementptr inbounds %"class.xercesc_2_7::XMLScanner", %"class.xercesc_2_7::XMLScanner"* %25, i32 0, i32 62, !dbg !6381
  %26 = load %"class.xercesc_2_7::MemoryManager"*, %"class.xercesc_2_7::MemoryManager"** %fMemoryManager31, align 8, !dbg !6381
  invoke void @_ZN11xercesc_2_79XMLString9binToTextEiPtjjPNS_13MemoryManagerE(i32 %conv30, i16* %arraydecay, i32 8, i32 16, %"class.xercesc_2_7::MemoryManager"* %26)
          to label %invoke.cont32 unwind label %lpad, !dbg !6382

invoke.cont32:                                    ; preds = %if.end29
  %27 = bitcast %"class.xercesc_2_7::SGXMLScanner"* %this1 to %"class.xercesc_2_7::XMLScanner"*, !dbg !6383
  %28 = load i16*, i16** %attrName.addr, align 8, !dbg !6384
  %arraydecay33 = getelementptr inbounds [9 x i16], [9 x i16]* %tmpBuf, i64 0, i64 0, !dbg !6385
  invoke void @_ZN11xercesc_2_710XMLScanner9emitErrorENS_7XMLErrs5CodesEPKtS4_S4_S4_(%"class.xercesc_2_7::XMLScanner"* %27, i32 218, i16* %28, i16* %arraydecay33, i16* null, i16* null)
          to label %invoke.cont34 unwind label %lpad, !dbg !6383

invoke.cont34:                                    ; preds = %invoke.cont32
  br label %if.end35, !dbg !6386

if.end35:                                         ; preds = %invoke.cont34, %invoke.cont21
  br label %if.end54, !dbg !6387

if.else:                                          ; preds = %lor.lhs.false
  %29 = load i16, i16* %nextCh, align 2, !dbg !6388
  %conv36 = zext i16 %29 to i32, !dbg !6388
  %cmp37 = icmp sle i32 %conv36, 56319, !dbg !6391
  br i1 %cmp37, label %if.then38, label %if.else51, !dbg !6392

if.then38:                                        ; preds = %if.else
  %30 = load %"class.xercesc_2_7::XMLBuffer"*, %"class.xercesc_2_7::XMLBuffer"** %toFill.addr, align 8, !dbg !6393
  %31 = load i16, i16* %nextCh, align 2, !dbg !6395
  invoke void @_ZN11xercesc_2_79XMLBuffer6appendEt(%"class.xercesc_2_7::XMLBuffer"* %30, i16 zeroext %31)
          to label %invoke.cont39 unwind label %lpad, !dbg !6396

invoke.cont39:                                    ; preds = %if.then38
  %32 = bitcast %"class.xercesc_2_7::SGXMLScanner"* %this1 to %"class.xercesc_2_7::XMLScanner"*, !dbg !6397
  %fReaderMgr40 = getelementptr inbounds %"class.xercesc_2_7::XMLScanner", %"class.xercesc_2_7::XMLScanner"* %32, i32 0, i32 49, !dbg !6397
  %call42 = invoke zeroext i16 @_ZN11xercesc_2_79ReaderMgr11getNextCharEv(%"class.xercesc_2_7::ReaderMgr"* %fReaderMgr40)
          to label %invoke.cont41 unwind label %lpad, !dbg !6398

invoke.cont41:                                    ; preds = %invoke.cont39
  store i16 %call42, i16* %nextCh, align 2, !dbg !6399
  %33 = load i16, i16* %nextCh, align 2, !dbg !6400
  %conv43 = zext i16 %33 to i32, !dbg !6400
  %cmp44 = icmp slt i32 %conv43, 56320, !dbg !6402
  br i1 %cmp44, label %if.then48, label %lor.lhs.false45, !dbg !6403

lor.lhs.false45:                                  ; preds = %invoke.cont41
  %34 = load i16, i16* %nextCh, align 2, !dbg !6404
  %conv46 = zext i16 %34 to i32, !dbg !6404
  %cmp47 = icmp sgt i32 %conv46, 57343, !dbg !6405
  br i1 %cmp47, label %if.then48, label %if.end50, !dbg !6406

if.then48:                                        ; preds = %lor.lhs.false45, %invoke.cont41
  %35 = bitcast %"class.xercesc_2_7::SGXMLScanner"* %this1 to %"class.xercesc_2_7::XMLScanner"*, !dbg !6407
  invoke void @_ZN11xercesc_2_710XMLScanner9emitErrorENS_7XMLErrs5CodesE(%"class.xercesc_2_7::XMLScanner"* %35, i32 249)
          to label %invoke.cont49 unwind label %lpad, !dbg !6407

invoke.cont49:                                    ; preds = %if.then48
  br label %if.end50, !dbg !6409

if.end50:                                         ; preds = %invoke.cont49, %lor.lhs.false45
  br label %if.end53, !dbg !6410

if.else51:                                        ; preds = %if.else
  %36 = bitcast %"class.xercesc_2_7::SGXMLScanner"* %this1 to %"class.xercesc_2_7::XMLScanner"*, !dbg !6411
  invoke void @_ZN11xercesc_2_710XMLScanner9emitErrorENS_7XMLErrs5CodesE(%"class.xercesc_2_7::XMLScanner"* %36, i32 282)
          to label %invoke.cont52 unwind label %lpad, !dbg !6411

invoke.cont52:                                    ; preds = %if.else51
  br label %if.end53

if.end53:                                         ; preds = %invoke.cont52, %if.end50
  br label %if.end54

if.end54:                                         ; preds = %if.end53, %if.end35
  br label %if.end69, !dbg !6413

if.else55:                                        ; preds = %if.then9
  call void @llvm.dbg.declare(metadata i8* %escaped, metadata !6414, metadata !DIExpression()), !dbg !6416
  call void @llvm.dbg.declare(metadata i16* %firstCh, metadata !6417, metadata !DIExpression()), !dbg !6418
  call void @llvm.dbg.declare(metadata i16* %secondCh, metadata !6419, metadata !DIExpression()), !dbg !6420
  %37 = bitcast %"class.xercesc_2_7::SGXMLScanner"* %this1 to i32 (%"class.xercesc_2_7::SGXMLScanner"*, i1, i16*, i16*, i8*)***, !dbg !6421
  %vtable = load i32 (%"class.xercesc_2_7::SGXMLScanner"*, i1, i16*, i16*, i8*)**, i32 (%"class.xercesc_2_7::SGXMLScanner"*, i1, i16*, i16*, i8*)*** %37, align 8, !dbg !6421
  %vfn = getelementptr inbounds i32 (%"class.xercesc_2_7::SGXMLScanner"*, i1, i16*, i16*, i8*)*, i32 (%"class.xercesc_2_7::SGXMLScanner"*, i1, i16*, i16*, i8*)** %vtable, i64 13, !dbg !6421
  %38 = load i32 (%"class.xercesc_2_7::SGXMLScanner"*, i1, i16*, i16*, i8*)*, i32 (%"class.xercesc_2_7::SGXMLScanner"*, i1, i16*, i16*, i8*)** %vfn, align 8, !dbg !6421
  %call57 = invoke i32 %38(%"class.xercesc_2_7::SGXMLScanner"* %this1, i1 zeroext true, i16* dereferenceable(2) %firstCh, i16* dereferenceable(2) %secondCh, i8* dereferenceable(1) %escaped)
          to label %invoke.cont56 unwind label %lpad, !dbg !6421

invoke.cont56:                                    ; preds = %if.else55
  %cmp58 = icmp eq i32 %call57, 1, !dbg !6423
  br i1 %cmp58, label %if.then59, label %if.end68, !dbg !6424

if.then59:                                        ; preds = %invoke.cont56
  %39 = load i8, i8* %escaped, align 1, !dbg !6425
  %tobool = trunc i8 %39 to i1, !dbg !6425
  br i1 %tobool, label %if.then60, label %if.end62, !dbg !6428

if.then60:                                        ; preds = %if.then59
  %40 = load %"class.xercesc_2_7::XMLBuffer"*, %"class.xercesc_2_7::XMLBuffer"** %toFill.addr, align 8, !dbg !6429
  invoke void @_ZN11xercesc_2_79XMLBuffer6appendEt(%"class.xercesc_2_7::XMLBuffer"* %40, i16 zeroext -1)
          to label %invoke.cont61 unwind label %lpad, !dbg !6430

invoke.cont61:                                    ; preds = %if.then60
  br label %if.end62, !dbg !6429

if.end62:                                         ; preds = %invoke.cont61, %if.then59
  %41 = load %"class.xercesc_2_7::XMLBuffer"*, %"class.xercesc_2_7::XMLBuffer"** %toFill.addr, align 8, !dbg !6431
  %42 = load i16, i16* %firstCh, align 2, !dbg !6432
  invoke void @_ZN11xercesc_2_79XMLBuffer6appendEt(%"class.xercesc_2_7::XMLBuffer"* %41, i16 zeroext %42)
          to label %invoke.cont63 unwind label %lpad, !dbg !6433

invoke.cont63:                                    ; preds = %if.end62
  %43 = load i16, i16* %secondCh, align 2, !dbg !6434
  %tobool64 = icmp ne i16 %43, 0, !dbg !6434
  br i1 %tobool64, label %if.then65, label %if.end67, !dbg !6436

if.then65:                                        ; preds = %invoke.cont63
  %44 = load %"class.xercesc_2_7::XMLBuffer"*, %"class.xercesc_2_7::XMLBuffer"** %toFill.addr, align 8, !dbg !6437
  %45 = load i16, i16* %secondCh, align 2, !dbg !6438
  invoke void @_ZN11xercesc_2_79XMLBuffer6appendEt(%"class.xercesc_2_7::XMLBuffer"* %44, i16 zeroext %45)
          to label %invoke.cont66 unwind label %lpad, !dbg !6439

invoke.cont66:                                    ; preds = %if.then65
  br label %if.end67, !dbg !6437

if.end67:                                         ; preds = %invoke.cont66, %invoke.cont63
  br label %if.end68, !dbg !6440

if.end68:                                         ; preds = %if.end67, %invoke.cont56
  br label %while.cond4, !dbg !6441, !llvm.loop !6442

if.end69:                                         ; preds = %if.end54
  br label %if.end84, !dbg !6444

if.else70:                                        ; preds = %invoke.cont
  %46 = load i32, i32* %curReader, align 4, !dbg !6445
  %47 = bitcast %"class.xercesc_2_7::SGXMLScanner"* %this1 to %"class.xercesc_2_7::XMLScanner"*, !dbg !6448
  %fReaderMgr71 = getelementptr inbounds %"class.xercesc_2_7::XMLScanner", %"class.xercesc_2_7::XMLScanner"* %47, i32 0, i32 49, !dbg !6448
  %call73 = invoke i32 @_ZNK11xercesc_2_79ReaderMgr19getCurrentReaderNumEv(%"class.xercesc_2_7::ReaderMgr"* %fReaderMgr71)
          to label %invoke.cont72 unwind label %lpad, !dbg !6449

invoke.cont72:                                    ; preds = %if.else70
  %cmp74 = icmp eq i32 %46, %call73, !dbg !6450
  br i1 %cmp74, label %if.then75, label %if.end76, !dbg !6451

if.then75:                                        ; preds = %invoke.cont72
  store i1 true, i1* %retval, align 1, !dbg !6452
  br label %return, !dbg !6452

if.end76:                                         ; preds = %invoke.cont72
  %48 = load i32, i32* %curReader, align 4, !dbg !6454
  %49 = bitcast %"class.xercesc_2_7::SGXMLScanner"* %this1 to %"class.xercesc_2_7::XMLScanner"*, !dbg !6456
  %fReaderMgr77 = getelementptr inbounds %"class.xercesc_2_7::XMLScanner", %"class.xercesc_2_7::XMLScanner"* %49, i32 0, i32 49, !dbg !6456
  %call79 = invoke i32 @_ZNK11xercesc_2_79ReaderMgr19getCurrentReaderNumEv(%"class.xercesc_2_7::ReaderMgr"* %fReaderMgr77)
          to label %invoke.cont78 unwind label %lpad, !dbg !6457

invoke.cont78:                                    ; preds = %if.end76
  %cmp80 = icmp ugt i32 %48, %call79, !dbg !6458
  br i1 %cmp80, label %if.then81, label %if.end83, !dbg !6459

if.then81:                                        ; preds = %invoke.cont78
  %50 = bitcast %"class.xercesc_2_7::SGXMLScanner"* %this1 to %"class.xercesc_2_7::XMLScanner"*, !dbg !6460
  invoke void @_ZN11xercesc_2_710XMLScanner9emitErrorENS_7XMLErrs5CodesE(%"class.xercesc_2_7::XMLScanner"* %50, i32 231)
          to label %invoke.cont82 unwind label %lpad, !dbg !6460

invoke.cont82:                                    ; preds = %if.then81
  store i1 false, i1* %retval, align 1, !dbg !6462
  br label %return, !dbg !6462

if.end83:                                         ; preds = %invoke.cont78
  br label %if.end84

if.end84:                                         ; preds = %if.end83, %if.end69
  %51 = load %"class.xercesc_2_7::XMLBuffer"*, %"class.xercesc_2_7::XMLBuffer"** %toFill.addr, align 8, !dbg !6463
  %52 = load i16, i16* %nextCh, align 2, !dbg !6464
  invoke void @_ZN11xercesc_2_79XMLBuffer6appendEt(%"class.xercesc_2_7::XMLBuffer"* %51, i16 zeroext %52)
          to label %invoke.cont85 unwind label %lpad, !dbg !6465

invoke.cont85:                                    ; preds = %if.end84
  br label %while.cond4, !dbg !6326, !llvm.loop !6442

return:                                           ; preds = %invoke.cont82, %if.then75, %if.then
  %53 = load i1, i1* %retval, align 1, !dbg !6466
  ret i1 %53, !dbg !6466

eh.resume:                                        ; preds = %catch.dispatch
  %exn86 = load i8*, i8** %exn.slot, align 8, !dbg !6367
  %sel87 = load i32, i32* %ehselector.slot, align 4, !dbg !6367
  %lpad.val = insertvalue { i8*, i32 } undef, i8* %exn86, 0, !dbg !6367
  %lpad.val88 = insertvalue { i8*, i32 } %lpad.val, i32 %sel87, 1, !dbg !6367
  resume { i8*, i32 } %lpad.val88, !dbg !6367

unreachable:                                      ; preds = %invoke.cont28
  unreachable
}

declare dso_local i8* @_ZN11xercesc_2_77XMemorynwEmPNS_13MemoryManagerE(i64, %"class.xercesc_2_7::MemoryManager"*) #7

; Function Attrs: noinline nounwind uwtable
define linkonce_odr dso_local i32 @_ZNK11xercesc_2_79XMLBuffer6getLenEv(%"class.xercesc_2_7::XMLBuffer"* %this) #1 comdat align 2 !dbg !6467 {
entry:
  %this.addr = alloca %"class.xercesc_2_7::XMLBuffer"*, align 8
  store %"class.xercesc_2_7::XMLBuffer"* %this, %"class.xercesc_2_7::XMLBuffer"** %this.addr, align 8
  call void @llvm.dbg.declare(metadata %"class.xercesc_2_7::XMLBuffer"** %this.addr, metadata !6468, metadata !DIExpression()), !dbg !6469
  %this1 = load %"class.xercesc_2_7::XMLBuffer"*, %"class.xercesc_2_7::XMLBuffer"** %this.addr, align 8
  %fIndex = getelementptr inbounds %"class.xercesc_2_7::XMLBuffer", %"class.xercesc_2_7::XMLBuffer"* %this1, i32 0, i32 0, !dbg !6470
  %0 = load i32, i32* %fIndex, align 8, !dbg !6470
  ret i32 %0, !dbg !6471
}

declare dso_local void @_ZN11xercesc_2_712KVStringPairC1EPKtjS2_jPNS_13MemoryManagerE(%"class.xercesc_2_7::KVStringPair"*, i16*, i32, i16*, i32, %"class.xercesc_2_7::MemoryManager"*) unnamed_addr #7

; Function Attrs: nounwind
declare dso_local void @_ZN11xercesc_2_77XMemorydlEPvPNS_13MemoryManagerE(i8*, %"class.xercesc_2_7::MemoryManager"*) #4

; Function Attrs: noinline uwtable
define linkonce_odr dso_local void @_ZN11xercesc_2_715BaseRefVectorOfINS_12KVStringPairEE10addElementEPS1_(%"class.xercesc_2_7::BaseRefVectorOf.18"* %this, %"class.xercesc_2_7::KVStringPair"* %toAdd) #6 comdat align 2 !dbg !6472 {
entry:
  %this.addr = alloca %"class.xercesc_2_7::BaseRefVectorOf.18"*, align 8
  %toAdd.addr = alloca %"class.xercesc_2_7::KVStringPair"*, align 8
  store %"class.xercesc_2_7::BaseRefVectorOf.18"* %this, %"class.xercesc_2_7::BaseRefVectorOf.18"** %this.addr, align 8
  call void @llvm.dbg.declare(metadata %"class.xercesc_2_7::BaseRefVectorOf.18"** %this.addr, metadata !6473, metadata !DIExpression()), !dbg !6475
  store %"class.xercesc_2_7::KVStringPair"* %toAdd, %"class.xercesc_2_7::KVStringPair"** %toAdd.addr, align 8
  call void @llvm.dbg.declare(metadata %"class.xercesc_2_7::KVStringPair"** %toAdd.addr, metadata !6476, metadata !DIExpression()), !dbg !6477
  %this1 = load %"class.xercesc_2_7::BaseRefVectorOf.18"*, %"class.xercesc_2_7::BaseRefVectorOf.18"** %this.addr, align 8
  call void @_ZN11xercesc_2_715BaseRefVectorOfINS_12KVStringPairEE19ensureExtraCapacityEj(%"class.xercesc_2_7::BaseRefVectorOf.18"* %this1, i32 1), !dbg !6478
  %0 = load %"class.xercesc_2_7::KVStringPair"*, %"class.xercesc_2_7::KVStringPair"** %toAdd.addr, align 8, !dbg !6479
  %fElemList = getelementptr inbounds %"class.xercesc_2_7::BaseRefVectorOf.18", %"class.xercesc_2_7::BaseRefVectorOf.18"* %this1, i32 0, i32 4, !dbg !6480
  %1 = load %"class.xercesc_2_7::KVStringPair"**, %"class.xercesc_2_7::KVStringPair"*** %fElemList, align 8, !dbg !6480
  %fCurCount = getelementptr inbounds %"class.xercesc_2_7::BaseRefVectorOf.18", %"class.xercesc_2_7::BaseRefVectorOf.18"* %this1, i32 0, i32 2, !dbg !6481
  %2 = load i32, i32* %fCurCount, align 4, !dbg !6481
  %idxprom = zext i32 %2 to i64, !dbg !6480
  %arrayidx = getelementptr inbounds %"class.xercesc_2_7::KVStringPair"*, %"class.xercesc_2_7::KVStringPair"** %1, i64 %idxprom, !dbg !6480
  store %"class.xercesc_2_7::KVStringPair"* %0, %"class.xercesc_2_7::KVStringPair"** %arrayidx, align 8, !dbg !6482
  %fCurCount2 = getelementptr inbounds %"class.xercesc_2_7::BaseRefVectorOf.18", %"class.xercesc_2_7::BaseRefVectorOf.18"* %this1, i32 0, i32 2, !dbg !6483
  %3 = load i32, i32* %fCurCount2, align 4, !dbg !6484
  %inc = add i32 %3, 1, !dbg !6484
  store i32 %inc, i32* %fCurCount2, align 4, !dbg !6484
  ret void, !dbg !6485
}

; Function Attrs: noinline uwtable
define linkonce_odr dso_local %"class.xercesc_2_7::KVStringPair"* @_ZN11xercesc_2_715BaseRefVectorOfINS_12KVStringPairEE9elementAtEj(%"class.xercesc_2_7::BaseRefVectorOf.18"* %this, i32 %getAt) #6 comdat align 2 personality i8* bitcast (i32 (...)* @__gxx_personality_v0 to i8*) !dbg !6486 {
entry:
  %this.addr = alloca %"class.xercesc_2_7::BaseRefVectorOf.18"*, align 8
  %getAt.addr = alloca i32, align 4
  %exn.slot = alloca i8*
  %ehselector.slot = alloca i32
  store %"class.xercesc_2_7::BaseRefVectorOf.18"* %this, %"class.xercesc_2_7::BaseRefVectorOf.18"** %this.addr, align 8
  call void @llvm.dbg.declare(metadata %"class.xercesc_2_7::BaseRefVectorOf.18"** %this.addr, metadata !6487, metadata !DIExpression()), !dbg !6488
  store i32 %getAt, i32* %getAt.addr, align 4
  call void @llvm.dbg.declare(metadata i32* %getAt.addr, metadata !6489, metadata !DIExpression()), !dbg !6490
  %this1 = load %"class.xercesc_2_7::BaseRefVectorOf.18"*, %"class.xercesc_2_7::BaseRefVectorOf.18"** %this.addr, align 8
  %0 = load i32, i32* %getAt.addr, align 4, !dbg !6491
  %fCurCount = getelementptr inbounds %"class.xercesc_2_7::BaseRefVectorOf.18", %"class.xercesc_2_7::BaseRefVectorOf.18"* %this1, i32 0, i32 2, !dbg !6493
  %1 = load i32, i32* %fCurCount, align 4, !dbg !6493
  %cmp = icmp uge i32 %0, %1, !dbg !6494
  br i1 %cmp, label %if.then, label %if.end, !dbg !6495

if.then:                                          ; preds = %entry
  %exception = call i8* @__cxa_allocate_exception(i64 48) #10, !dbg !6496
  %2 = bitcast i8* %exception to %"class.xercesc_2_7::ArrayIndexOutOfBoundsException"*, !dbg !6496
  %fMemoryManager = getelementptr inbounds %"class.xercesc_2_7::BaseRefVectorOf.18", %"class.xercesc_2_7::BaseRefVectorOf.18"* %this1, i32 0, i32 5, !dbg !6496
  %3 = load %"class.xercesc_2_7::MemoryManager"*, %"class.xercesc_2_7::MemoryManager"** %fMemoryManager, align 8, !dbg !6496
  invoke void @_ZN11xercesc_2_730ArrayIndexOutOfBoundsExceptionC2EPKcjNS_10XMLExcepts5CodesEPNS_13MemoryManagerE(%"class.xercesc_2_7::ArrayIndexOutOfBoundsException"* %2, i8* getelementptr inbounds ([33 x i8], [33 x i8]* @.str.3, i64 0, i64 0), i32 249, i32 116, %"class.xercesc_2_7::MemoryManager"* %3)
          to label %invoke.cont unwind label %lpad, !dbg !6496

invoke.cont:                                      ; preds = %if.then
  call void @__cxa_throw(i8* %exception, i8* bitcast ({ i8*, i8*, i8* }* @_ZTIN11xercesc_2_730ArrayIndexOutOfBoundsExceptionE to i8*), i8* bitcast (void (%"class.xercesc_2_7::ArrayIndexOutOfBoundsException"*)* @_ZN11xercesc_2_730ArrayIndexOutOfBoundsExceptionD2Ev to i8*)) #13, !dbg !6496
  unreachable, !dbg !6496

lpad:                                             ; preds = %if.then
  %4 = landingpad { i8*, i32 }
          cleanup, !dbg !6497
  %5 = extractvalue { i8*, i32 } %4, 0, !dbg !6497
  store i8* %5, i8** %exn.slot, align 8, !dbg !6497
  %6 = extractvalue { i8*, i32 } %4, 1, !dbg !6497
  store i32 %6, i32* %ehselector.slot, align 4, !dbg !6497
  call void @__cxa_free_exception(i8* %exception) #10, !dbg !6496
  br label %eh.resume, !dbg !6496

if.end:                                           ; preds = %entry
  %fElemList = getelementptr inbounds %"class.xercesc_2_7::BaseRefVectorOf.18", %"class.xercesc_2_7::BaseRefVectorOf.18"* %this1, i32 0, i32 4, !dbg !6498
  %7 = load %"class.xercesc_2_7::KVStringPair"**, %"class.xercesc_2_7::KVStringPair"*** %fElemList, align 8, !dbg !6498
  %8 = load i32, i32* %getAt.addr, align 4, !dbg !6499
  %idxprom = zext i32 %8 to i64, !dbg !6498
  %arrayidx = getelementptr inbounds %"class.xercesc_2_7::KVStringPair"*, %"class.xercesc_2_7::KVStringPair"** %7, i64 %idxprom, !dbg !6498
  %9 = load %"class.xercesc_2_7::KVStringPair"*, %"class.xercesc_2_7::KVStringPair"** %arrayidx, align 8, !dbg !6498
  ret %"class.xercesc_2_7::KVStringPair"* %9, !dbg !6500

eh.resume:                                        ; preds = %lpad
  %exn = load i8*, i8** %exn.slot, align 8, !dbg !6496
  %sel = load i32, i32* %ehselector.slot, align 4, !dbg !6496
  %lpad.val = insertvalue { i8*, i32 } undef, i8* %exn, 0, !dbg !6496
  %lpad.val2 = insertvalue { i8*, i32 } %lpad.val, i32 %sel, 1, !dbg !6496
  resume { i8*, i32 } %lpad.val2, !dbg !6496
}

; Function Attrs: noinline uwtable
define linkonce_odr dso_local void @_ZN11xercesc_2_712KVStringPair3setEPKtjS2_j(%"class.xercesc_2_7::KVStringPair"* %this, i16* %newKey, i32 %newKeyLength, i16* %newValue, i32 %newValueLength) #6 comdat align 2 !dbg !6501 {
entry:
  %this.addr = alloca %"class.xercesc_2_7::KVStringPair"*, align 8
  %newKey.addr = alloca i16*, align 8
  %newKeyLength.addr = alloca i32, align 4
  %newValue.addr = alloca i16*, align 8
  %newValueLength.addr = alloca i32, align 4
  store %"class.xercesc_2_7::KVStringPair"* %this, %"class.xercesc_2_7::KVStringPair"** %this.addr, align 8
  call void @llvm.dbg.declare(metadata %"class.xercesc_2_7::KVStringPair"** %this.addr, metadata !6506, metadata !DIExpression()), !dbg !6507
  store i16* %newKey, i16** %newKey.addr, align 8
  call void @llvm.dbg.declare(metadata i16** %newKey.addr, metadata !6508, metadata !DIExpression()), !dbg !6509
  store i32 %newKeyLength, i32* %newKeyLength.addr, align 4
  call void @llvm.dbg.declare(metadata i32* %newKeyLength.addr, metadata !6510, metadata !DIExpression()), !dbg !6511
  store i16* %newValue, i16** %newValue.addr, align 8
  call void @llvm.dbg.declare(metadata i16** %newValue.addr, metadata !6512, metadata !DIExpression()), !dbg !6513
  store i32 %newValueLength, i32* %newValueLength.addr, align 4
  call void @llvm.dbg.declare(metadata i32* %newValueLength.addr, metadata !6514, metadata !DIExpression()), !dbg !6515
  %this1 = load %"class.xercesc_2_7::KVStringPair"*, %"class.xercesc_2_7::KVStringPair"** %this.addr, align 8
  %0 = load i16*, i16** %newKey.addr, align 8, !dbg !6516
  %1 = load i32, i32* %newKeyLength.addr, align 4, !dbg !6517
  call void @_ZN11xercesc_2_712KVStringPair6setKeyEPKtj(%"class.xercesc_2_7::KVStringPair"* %this1, i16* %0, i32 %1), !dbg !6518
  %2 = load i16*, i16** %newValue.addr, align 8, !dbg !6519
  %3 = load i32, i32* %newValueLength.addr, align 4, !dbg !6520
  call void @_ZN11xercesc_2_712KVStringPair8setValueEPKtj(%"class.xercesc_2_7::KVStringPair"* %this1, i16* %2, i32 %3), !dbg !6521
  ret void, !dbg !6522
}

; Function Attrs: noinline uwtable
define dso_local void @_ZN11xercesc_2_712SGXMLScanner22resizeRawAttrColonListEv(%"class.xercesc_2_7::SGXMLScanner"* %this) #6 align 2 !dbg !6523 {
entry:
  %this.addr = alloca %"class.xercesc_2_7::SGXMLScanner"*, align 8
  %newSize = alloca i32, align 4
  %newRawAttrColonList = alloca i32*, align 8
  %index = alloca i32, align 4
  store %"class.xercesc_2_7::SGXMLScanner"* %this, %"class.xercesc_2_7::SGXMLScanner"** %this.addr, align 8
  call void @llvm.dbg.declare(metadata %"class.xercesc_2_7::SGXMLScanner"** %this.addr, metadata !6524, metadata !DIExpression()), !dbg !6525
  %this1 = load %"class.xercesc_2_7::SGXMLScanner"*, %"class.xercesc_2_7::SGXMLScanner"** %this.addr, align 8
  call void @llvm.dbg.declare(metadata i32* %newSize, metadata !6526, metadata !DIExpression()), !dbg !6527
  %fRawAttrColonListSize = getelementptr inbounds %"class.xercesc_2_7::SGXMLScanner", %"class.xercesc_2_7::SGXMLScanner"* %this1, i32 0, i32 8, !dbg !6528
  %0 = load i32, i32* %fRawAttrColonListSize, align 8, !dbg !6528
  %mul = mul i32 %0, 2, !dbg !6529
  store i32 %mul, i32* %newSize, align 4, !dbg !6527
  call void @llvm.dbg.declare(metadata i32** %newRawAttrColonList, metadata !6530, metadata !DIExpression()), !dbg !6531
  %1 = bitcast %"class.xercesc_2_7::SGXMLScanner"* %this1 to %"class.xercesc_2_7::XMLScanner"*, !dbg !6532
  %fMemoryManager = getelementptr inbounds %"class.xercesc_2_7::XMLScanner", %"class.xercesc_2_7::XMLScanner"* %1, i32 0, i32 62, !dbg !6532
  %2 = load %"class.xercesc_2_7::MemoryManager"*, %"class.xercesc_2_7::MemoryManager"** %fMemoryManager, align 8, !dbg !6532
  %3 = load i32, i32* %newSize, align 4, !dbg !6533
  %conv = zext i32 %3 to i64, !dbg !6533
  %mul2 = mul i64 %conv, 4, !dbg !6534
  %4 = bitcast %"class.xercesc_2_7::MemoryManager"* %2 to i8* (%"class.xercesc_2_7::MemoryManager"*, i64)***, !dbg !6535
  %vtable = load i8* (%"class.xercesc_2_7::MemoryManager"*, i64)**, i8* (%"class.xercesc_2_7::MemoryManager"*, i64)*** %4, align 8, !dbg !6535
  %vfn = getelementptr inbounds i8* (%"class.xercesc_2_7::MemoryManager"*, i64)*, i8* (%"class.xercesc_2_7::MemoryManager"*, i64)** %vtable, i64 2, !dbg !6535
  %5 = load i8* (%"class.xercesc_2_7::MemoryManager"*, i64)*, i8* (%"class.xercesc_2_7::MemoryManager"*, i64)** %vfn, align 8, !dbg !6535
  %call = call i8* %5(%"class.xercesc_2_7::MemoryManager"* %2, i64 %mul2), !dbg !6535
  %6 = bitcast i8* %call to i32*, !dbg !6536
  store i32* %6, i32** %newRawAttrColonList, align 8, !dbg !6531
  call void @llvm.dbg.declare(metadata i32* %index, metadata !6537, metadata !DIExpression()), !dbg !6538
  store i32 0, i32* %index, align 4, !dbg !6538
  br label %for.cond, !dbg !6539

for.cond:                                         ; preds = %for.inc, %entry
  %7 = load i32, i32* %index, align 4, !dbg !6540
  %fRawAttrColonListSize3 = getelementptr inbounds %"class.xercesc_2_7::SGXMLScanner", %"class.xercesc_2_7::SGXMLScanner"* %this1, i32 0, i32 8, !dbg !6543
  %8 = load i32, i32* %fRawAttrColonListSize3, align 8, !dbg !6543
  %cmp = icmp ult i32 %7, %8, !dbg !6544
  br i1 %cmp, label %for.body, label %for.end, !dbg !6545

for.body:                                         ; preds = %for.cond
  %fRawAttrColonList = getelementptr inbounds %"class.xercesc_2_7::SGXMLScanner", %"class.xercesc_2_7::SGXMLScanner"* %this1, i32 0, i32 9, !dbg !6546
  %9 = load i32*, i32** %fRawAttrColonList, align 8, !dbg !6546
  %10 = load i32, i32* %index, align 4, !dbg !6547
  %idxprom = zext i32 %10 to i64, !dbg !6546
  %arrayidx = getelementptr inbounds i32, i32* %9, i64 %idxprom, !dbg !6546
  %11 = load i32, i32* %arrayidx, align 4, !dbg !6546
  %12 = load i32*, i32** %newRawAttrColonList, align 8, !dbg !6548
  %13 = load i32, i32* %index, align 4, !dbg !6549
  %idxprom4 = zext i32 %13 to i64, !dbg !6548
  %arrayidx5 = getelementptr inbounds i32, i32* %12, i64 %idxprom4, !dbg !6548
  store i32 %11, i32* %arrayidx5, align 4, !dbg !6550
  br label %for.inc, !dbg !6548

for.inc:                                          ; preds = %for.body
  %14 = load i32, i32* %index, align 4, !dbg !6551
  %inc = add i32 %14, 1, !dbg !6551
  store i32 %inc, i32* %index, align 4, !dbg !6551
  br label %for.cond, !dbg !6552, !llvm.loop !6553

for.end:                                          ; preds = %for.cond
  %15 = bitcast %"class.xercesc_2_7::SGXMLScanner"* %this1 to %"class.xercesc_2_7::XMLScanner"*, !dbg !6555
  %fMemoryManager6 = getelementptr inbounds %"class.xercesc_2_7::XMLScanner", %"class.xercesc_2_7::XMLScanner"* %15, i32 0, i32 62, !dbg !6555
  %16 = load %"class.xercesc_2_7::MemoryManager"*, %"class.xercesc_2_7::MemoryManager"** %fMemoryManager6, align 8, !dbg !6555
  %fRawAttrColonList7 = getelementptr inbounds %"class.xercesc_2_7::SGXMLScanner", %"class.xercesc_2_7::SGXMLScanner"* %this1, i32 0, i32 9, !dbg !6556
  %17 = load i32*, i32** %fRawAttrColonList7, align 8, !dbg !6556
  %18 = bitcast i32* %17 to i8*, !dbg !6556
  %19 = bitcast %"class.xercesc_2_7::MemoryManager"* %16 to void (%"class.xercesc_2_7::MemoryManager"*, i8*)***, !dbg !6557
  %vtable8 = load void (%"class.xercesc_2_7::MemoryManager"*, i8*)**, void (%"class.xercesc_2_7::MemoryManager"*, i8*)*** %19, align 8, !dbg !6557
  %vfn9 = getelementptr inbounds void (%"class.xercesc_2_7::MemoryManager"*, i8*)*, void (%"class.xercesc_2_7::MemoryManager"*, i8*)** %vtable8, i64 3, !dbg !6557
  %20 = load void (%"class.xercesc_2_7::MemoryManager"*, i8*)*, void (%"class.xercesc_2_7::MemoryManager"*, i8*)** %vfn9, align 8, !dbg !6557
  call void %20(%"class.xercesc_2_7::MemoryManager"* %16, i8* %18), !dbg !6557
  %21 = load i32*, i32** %newRawAttrColonList, align 8, !dbg !6558
  %fRawAttrColonList10 = getelementptr inbounds %"class.xercesc_2_7::SGXMLScanner", %"class.xercesc_2_7::SGXMLScanner"* %this1, i32 0, i32 9, !dbg !6559
  store i32* %21, i32** %fRawAttrColonList10, align 8, !dbg !6560
  %22 = load i32, i32* %newSize, align 4, !dbg !6561
  %fRawAttrColonListSize11 = getelementptr inbounds %"class.xercesc_2_7::SGXMLScanner", %"class.xercesc_2_7::SGXMLScanner"* %this1, i32 0, i32 8, !dbg !6562
  store i32 %22, i32* %fRawAttrColonListSize11, align 8, !dbg !6563
  ret void, !dbg !6564
}

; Function Attrs: noinline uwtable
define linkonce_odr dso_local void @_ZN11xercesc_2_722UnexpectedEOFExceptionC2EPKcjNS_10XMLExcepts5CodesEPNS_13MemoryManagerE(%"class.xercesc_2_7::UnexpectedEOFException"* %this, i8* %srcFile, i32 %srcLine, i32 %toThrow, %"class.xercesc_2_7::MemoryManager"* %memoryManager) unnamed_addr #6 comdat align 2 personality i8* bitcast (i32 (...)* @__gxx_personality_v0 to i8*) !dbg !6565 {
entry:
  %this.addr = alloca %"class.xercesc_2_7::UnexpectedEOFException"*, align 8
  %srcFile.addr = alloca i8*, align 8
  %srcLine.addr = alloca i32, align 4
  %toThrow.addr = alloca i32, align 4
  %memoryManager.addr = alloca %"class.xercesc_2_7::MemoryManager"*, align 8
  %exn.slot = alloca i8*
  %ehselector.slot = alloca i32
  store %"class.xercesc_2_7::UnexpectedEOFException"* %this, %"class.xercesc_2_7::UnexpectedEOFException"** %this.addr, align 8
  call void @llvm.dbg.declare(metadata %"class.xercesc_2_7::UnexpectedEOFException"** %this.addr, metadata !6600, metadata !DIExpression()), !dbg !6602
  store i8* %srcFile, i8** %srcFile.addr, align 8
  call void @llvm.dbg.declare(metadata i8** %srcFile.addr, metadata !6603, metadata !DIExpression()), !dbg !6604
  store i32 %srcLine, i32* %srcLine.addr, align 4
  call void @llvm.dbg.declare(metadata i32* %srcLine.addr, metadata !6605, metadata !DIExpression()), !dbg !6604
  store i32 %toThrow, i32* %toThrow.addr, align 4
  call void @llvm.dbg.declare(metadata i32* %toThrow.addr, metadata !6606, metadata !DIExpression()), !dbg !6604
  store %"class.xercesc_2_7::MemoryManager"* %memoryManager, %"class.xercesc_2_7::MemoryManager"** %memoryManager.addr, align 8
  call void @llvm.dbg.declare(metadata %"class.xercesc_2_7::MemoryManager"** %memoryManager.addr, metadata !6607, metadata !DIExpression()), !dbg !6604
  %this1 = load %"class.xercesc_2_7::UnexpectedEOFException"*, %"class.xercesc_2_7::UnexpectedEOFException"** %this.addr, align 8
  %0 = bitcast %"class.xercesc_2_7::UnexpectedEOFException"* %this1 to %"class.xercesc_2_7::XMLException"*, !dbg !6604
  %1 = load i8*, i8** %srcFile.addr, align 8, !dbg !6604
  %2 = load i32, i32* %srcLine.addr, align 4, !dbg !6604
  %3 = load %"class.xercesc_2_7::MemoryManager"*, %"class.xercesc_2_7::MemoryManager"** %memoryManager.addr, align 8, !dbg !6604
  call void @_ZN11xercesc_2_712XMLExceptionC2EPKcjPNS_13MemoryManagerE(%"class.xercesc_2_7::XMLException"* %0, i8* %1, i32 %2, %"class.xercesc_2_7::MemoryManager"* %3), !dbg !6604
  %4 = bitcast %"class.xercesc_2_7::UnexpectedEOFException"* %this1 to i32 (...)***, !dbg !6604
  store i32 (...)** bitcast (i8** getelementptr inbounds ({ [6 x i8*] }, { [6 x i8*] }* @_ZTVN11xercesc_2_722UnexpectedEOFExceptionE, i32 0, inrange i32 0, i32 2) to i32 (...)**), i32 (...)*** %4, align 8, !dbg !6604
  %5 = bitcast %"class.xercesc_2_7::UnexpectedEOFException"* %this1 to %"class.xercesc_2_7::XMLException"*, !dbg !6608
  %6 = load i32, i32* %toThrow.addr, align 4, !dbg !6608
  invoke void @_ZN11xercesc_2_712XMLException14loadExceptTextENS_10XMLExcepts5CodesE(%"class.xercesc_2_7::XMLException"* %5, i32 %6)
          to label %invoke.cont unwind label %lpad, !dbg !6608

invoke.cont:                                      ; preds = %entry
  ret void, !dbg !6604

lpad:                                             ; preds = %entry
  %7 = landingpad { i8*, i32 }
          cleanup, !dbg !6608
  %8 = extractvalue { i8*, i32 } %7, 0, !dbg !6608
  store i8* %8, i8** %exn.slot, align 8, !dbg !6608
  %9 = extractvalue { i8*, i32 } %7, 1, !dbg !6608
  store i32 %9, i32* %ehselector.slot, align 4, !dbg !6608
  %10 = bitcast %"class.xercesc_2_7::UnexpectedEOFException"* %this1 to %"class.xercesc_2_7::XMLException"*, !dbg !6608
  call void @_ZN11xercesc_2_712XMLExceptionD2Ev(%"class.xercesc_2_7::XMLException"* %10) #10, !dbg !6608
  br label %eh.resume, !dbg !6608

eh.resume:                                        ; preds = %lpad
  %exn = load i8*, i8** %exn.slot, align 8, !dbg !6608
  %sel = load i32, i32* %ehselector.slot, align 4, !dbg !6608
  %lpad.val = insertvalue { i8*, i32 } undef, i8* %exn, 0, !dbg !6608
  %lpad.val2 = insertvalue { i8*, i32 } %lpad.val, i32 %sel, 1, !dbg !6608
  resume { i8*, i32 } %lpad.val2, !dbg !6608
}

; Function Attrs: noinline nounwind uwtable
define linkonce_odr dso_local void @_ZN11xercesc_2_722UnexpectedEOFExceptionD2Ev(%"class.xercesc_2_7::UnexpectedEOFException"* %this) unnamed_addr #1 comdat align 2 !dbg !6610 {
entry:
  %this.addr = alloca %"class.xercesc_2_7::UnexpectedEOFException"*, align 8
  store %"class.xercesc_2_7::UnexpectedEOFException"* %this, %"class.xercesc_2_7::UnexpectedEOFException"** %this.addr, align 8
  call void @llvm.dbg.declare(metadata %"class.xercesc_2_7::UnexpectedEOFException"** %this.addr, metadata !6611, metadata !DIExpression()), !dbg !6612
  %this1 = load %"class.xercesc_2_7::UnexpectedEOFException"*, %"class.xercesc_2_7::UnexpectedEOFException"** %this.addr, align 8
  %0 = bitcast %"class.xercesc_2_7::UnexpectedEOFException"* %this1 to %"class.xercesc_2_7::XMLException"*, !dbg !6613
  call void @_ZN11xercesc_2_712XMLExceptionD2Ev(%"class.xercesc_2_7::XMLException"* %0) #10, !dbg !6613
  ret void, !dbg !6615
}

declare dso_local zeroext i1 @_ZN11xercesc_2_79ReaderMgr11skippedCharEt(%"class.xercesc_2_7::ReaderMgr"*, i16 zeroext) #7

declare dso_local void @_ZN11xercesc_2_79ReaderMgr16skipQuotedStringEt(%"class.xercesc_2_7::ReaderMgr"*, i16 zeroext) #7

; Function Attrs: noinline uwtable
define dso_local void @_ZN11xercesc_2_712SGXMLScanner10scanEndTagERb(%"class.xercesc_2_7::SGXMLScanner"* %this, i8* dereferenceable(1) %gotData) unnamed_addr #6 align 2 personality i8* bitcast (i32 (...)* @__gxx_personality_v0 to i8*) !dbg !6616 {
entry:
  %this.addr = alloca %"class.xercesc_2_7::SGXMLScanner"*, align 8
  %gotData.addr = alloca i8*, align 8
  %exn.slot = alloca i8*
  %ehselector.slot = alloca i32
  %uriId = alloca i32, align 4
  %elemName = alloca i16*, align 8
  %topElem = alloca %"struct.xercesc_2_7::ElemStack::StackElem"*, align 8
  %isRoot = alloca i8, align 1
  %psviMemberType = alloca %"class.xercesc_2_7::DatatypeValidator"*, align 8
  %res = alloca i32, align 4
  %ref.tmp = alloca i8, align 1
  store %"class.xercesc_2_7::SGXMLScanner"* %this, %"class.xercesc_2_7::SGXMLScanner"** %this.addr, align 8
  call void @llvm.dbg.declare(metadata %"class.xercesc_2_7::SGXMLScanner"** %this.addr, metadata !6617, metadata !DIExpression()), !dbg !6618
  store i8* %gotData, i8** %gotData.addr, align 8
  call void @llvm.dbg.declare(metadata i8** %gotData.addr, metadata !6619, metadata !DIExpression()), !dbg !6620
  %this1 = load %"class.xercesc_2_7::SGXMLScanner"*, %"class.xercesc_2_7::SGXMLScanner"** %this.addr, align 8
  %0 = load i8*, i8** %gotData.addr, align 8, !dbg !6621
  store i8 1, i8* %0, align 1, !dbg !6622
  %1 = bitcast %"class.xercesc_2_7::SGXMLScanner"* %this1 to %"class.xercesc_2_7::XMLScanner"*, !dbg !6623
  %fElemStack = getelementptr inbounds %"class.xercesc_2_7::XMLScanner", %"class.xercesc_2_7::XMLScanner"* %1, i32 0, i32 71, !dbg !6623
  %call = call zeroext i1 @_ZNK11xercesc_2_79ElemStack7isEmptyEv(%"class.xercesc_2_7::ElemStack"* %fElemStack), !dbg !6625
  br i1 %call, label %if.then, label %if.end, !dbg !6626

if.then:                                          ; preds = %entry
  %2 = bitcast %"class.xercesc_2_7::SGXMLScanner"* %this1 to %"class.xercesc_2_7::XMLScanner"*, !dbg !6627
  call void @_ZN11xercesc_2_710XMLScanner9emitErrorENS_7XMLErrs5CodesE(%"class.xercesc_2_7::XMLScanner"* %2, i32 245), !dbg !6627
  %3 = bitcast %"class.xercesc_2_7::SGXMLScanner"* %this1 to %"class.xercesc_2_7::XMLScanner"*, !dbg !6629
  %fReaderMgr = getelementptr inbounds %"class.xercesc_2_7::XMLScanner", %"class.xercesc_2_7::XMLScanner"* %3, i32 0, i32 49, !dbg !6629
  call void @_ZN11xercesc_2_79ReaderMgr12skipPastCharEt(%"class.xercesc_2_7::ReaderMgr"* %fReaderMgr, i16 zeroext 62), !dbg !6630
  %exception = call i8* @__cxa_allocate_exception(i64 48) #10, !dbg !6631
  %4 = bitcast i8* %exception to %"class.xercesc_2_7::RuntimeException"*, !dbg !6631
  %5 = bitcast %"class.xercesc_2_7::SGXMLScanner"* %this1 to %"class.xercesc_2_7::XMLScanner"*, !dbg !6631
  %fMemoryManager = getelementptr inbounds %"class.xercesc_2_7::XMLScanner", %"class.xercesc_2_7::XMLScanner"* %5, i32 0, i32 62, !dbg !6631
  %6 = load %"class.xercesc_2_7::MemoryManager"*, %"class.xercesc_2_7::MemoryManager"** %fMemoryManager, align 8, !dbg !6631
  invoke void @_ZN11xercesc_2_716RuntimeExceptionC2EPKcjNS_10XMLExcepts5CodesEPNS_13MemoryManagerE(%"class.xercesc_2_7::RuntimeException"* %4, i8* getelementptr inbounds ([17 x i8], [17 x i8]* @.str, i64 0, i64 0), i32 845, i32 77, %"class.xercesc_2_7::MemoryManager"* %6)
          to label %invoke.cont unwind label %lpad, !dbg !6631

invoke.cont:                                      ; preds = %if.then
  call void @__cxa_throw(i8* %exception, i8* bitcast ({ i8*, i8*, i8* }* @_ZTIN11xercesc_2_716RuntimeExceptionE to i8*), i8* bitcast (void (%"class.xercesc_2_7::RuntimeException"*)* @_ZN11xercesc_2_716RuntimeExceptionD2Ev to i8*)) #13, !dbg !6631
  unreachable, !dbg !6631

lpad:                                             ; preds = %if.then
  %7 = landingpad { i8*, i32 }
          cleanup, !dbg !6632
  %8 = extractvalue { i8*, i32 } %7, 0, !dbg !6632
  store i8* %8, i8** %exn.slot, align 8, !dbg !6632
  %9 = extractvalue { i8*, i32 } %7, 1, !dbg !6632
  store i32 %9, i32* %ehselector.slot, align 4, !dbg !6632
  call void @__cxa_free_exception(i8* %exception) #10, !dbg !6631
  br label %eh.resume, !dbg !6631

if.end:                                           ; preds = %entry
  call void @llvm.dbg.declare(metadata i32* %uriId, metadata !6633, metadata !DIExpression()), !dbg !6634
  %10 = bitcast %"class.xercesc_2_7::SGXMLScanner"* %this1 to %"class.xercesc_2_7::XMLScanner"*, !dbg !6635
  %fDoNamespaces = getelementptr inbounds %"class.xercesc_2_7::XMLScanner", %"class.xercesc_2_7::XMLScanner"* %10, i32 0, i32 4, !dbg !6635
  %11 = load i8, i8* %fDoNamespaces, align 2, !dbg !6635
  %tobool = trunc i8 %11 to i1, !dbg !6635
  br i1 %tobool, label %cond.true, label %cond.false, !dbg !6636

cond.true:                                        ; preds = %if.end
  %12 = bitcast %"class.xercesc_2_7::SGXMLScanner"* %this1 to %"class.xercesc_2_7::XMLScanner"*, !dbg !6637
  %fElemStack2 = getelementptr inbounds %"class.xercesc_2_7::XMLScanner", %"class.xercesc_2_7::XMLScanner"* %12, i32 0, i32 71, !dbg !6637
  %call3 = call i32 @_ZN11xercesc_2_79ElemStack13getCurrentURIEv(%"class.xercesc_2_7::ElemStack"* %fElemStack2), !dbg !6638
  br label %cond.end, !dbg !6636

cond.false:                                       ; preds = %if.end
  %13 = bitcast %"class.xercesc_2_7::SGXMLScanner"* %this1 to %"class.xercesc_2_7::XMLScanner"*, !dbg !6639
  %fEmptyNamespaceId = getelementptr inbounds %"class.xercesc_2_7::XMLScanner", %"class.xercesc_2_7::XMLScanner"* %13, i32 0, i32 28, !dbg !6639
  %14 = load i32, i32* %fEmptyNamespaceId, align 4, !dbg !6639
  br label %cond.end, !dbg !6636

cond.end:                                         ; preds = %cond.false, %cond.true
  %cond = phi i32 [ %call3, %cond.true ], [ %14, %cond.false ], !dbg !6636
  store i32 %cond, i32* %uriId, align 4, !dbg !6634
  call void @llvm.dbg.declare(metadata i16** %elemName, metadata !6640, metadata !DIExpression()), !dbg !6641
  %15 = bitcast %"class.xercesc_2_7::SGXMLScanner"* %this1 to %"class.xercesc_2_7::XMLScanner"*, !dbg !6642
  %fElemStack4 = getelementptr inbounds %"class.xercesc_2_7::XMLScanner", %"class.xercesc_2_7::XMLScanner"* %15, i32 0, i32 71, !dbg !6642
  %call5 = call i16* @_ZN11xercesc_2_79ElemStack24getCurrentSchemaElemNameEv(%"class.xercesc_2_7::ElemStack"* %fElemStack4), !dbg !6643
  store i16* %call5, i16** %elemName, align 8, !dbg !6641
  call void @llvm.dbg.declare(metadata %"struct.xercesc_2_7::ElemStack::StackElem"** %topElem, metadata !6644, metadata !DIExpression()), !dbg !6645
  %16 = bitcast %"class.xercesc_2_7::SGXMLScanner"* %this1 to %"class.xercesc_2_7::XMLScanner"*, !dbg !6646
  %fElemStack6 = getelementptr inbounds %"class.xercesc_2_7::XMLScanner", %"class.xercesc_2_7::XMLScanner"* %16, i32 0, i32 71, !dbg !6646
  %call7 = call %"struct.xercesc_2_7::ElemStack::StackElem"* @_ZN11xercesc_2_79ElemStack6popTopEv(%"class.xercesc_2_7::ElemStack"* %fElemStack6), !dbg !6647
  store %"struct.xercesc_2_7::ElemStack::StackElem"* %call7, %"struct.xercesc_2_7::ElemStack::StackElem"** %topElem, align 8, !dbg !6645
  %17 = bitcast %"class.xercesc_2_7::SGXMLScanner"* %this1 to %"class.xercesc_2_7::XMLScanner"*, !dbg !6648
  %fReaderMgr8 = getelementptr inbounds %"class.xercesc_2_7::XMLScanner", %"class.xercesc_2_7::XMLScanner"* %17, i32 0, i32 49, !dbg !6648
  %18 = load i16*, i16** %elemName, align 8, !dbg !6650
  %call9 = call zeroext i1 @_ZN11xercesc_2_79ReaderMgr13skippedStringEPKt(%"class.xercesc_2_7::ReaderMgr"* %fReaderMgr8, i16* %18), !dbg !6651
  br i1 %call9, label %if.end12, label %if.then10, !dbg !6652

if.then10:                                        ; preds = %cond.end
  %19 = bitcast %"class.xercesc_2_7::SGXMLScanner"* %this1 to %"class.xercesc_2_7::XMLScanner"*, !dbg !6653
  %20 = load i16*, i16** %elemName, align 8, !dbg !6655
  call void @_ZN11xercesc_2_710XMLScanner9emitErrorENS_7XMLErrs5CodesEPKtS4_S4_S4_(%"class.xercesc_2_7::XMLScanner"* %19, i32 202, i16* %20, i16* null, i16* null, i16* null), !dbg !6653
  %21 = bitcast %"class.xercesc_2_7::SGXMLScanner"* %this1 to %"class.xercesc_2_7::XMLScanner"*, !dbg !6656
  %fReaderMgr11 = getelementptr inbounds %"class.xercesc_2_7::XMLScanner", %"class.xercesc_2_7::XMLScanner"* %21, i32 0, i32 49, !dbg !6656
  call void @_ZN11xercesc_2_79ReaderMgr12skipPastCharEt(%"class.xercesc_2_7::ReaderMgr"* %fReaderMgr11, i16 zeroext 62), !dbg !6657
  br label %if.end207, !dbg !6658

if.end12:                                         ; preds = %cond.end
  call void @llvm.dbg.declare(metadata i8* %isRoot, metadata !6659, metadata !DIExpression()), !dbg !6660
  %22 = bitcast %"class.xercesc_2_7::SGXMLScanner"* %this1 to %"class.xercesc_2_7::XMLScanner"*, !dbg !6661
  %fElemStack13 = getelementptr inbounds %"class.xercesc_2_7::XMLScanner", %"class.xercesc_2_7::XMLScanner"* %22, i32 0, i32 71, !dbg !6661
  %call14 = call zeroext i1 @_ZNK11xercesc_2_79ElemStack7isEmptyEv(%"class.xercesc_2_7::ElemStack"* %fElemStack13), !dbg !6662
  %frombool = zext i1 %call14 to i8, !dbg !6660
  store i8 %frombool, i8* %isRoot, align 1, !dbg !6660
  %fErrorStack = getelementptr inbounds %"class.xercesc_2_7::SGXMLScanner", %"class.xercesc_2_7::SGXMLScanner"* %this1, i32 0, i32 20, !dbg !6663
  %23 = load %"class.xercesc_2_7::ValueStackOf.56"*, %"class.xercesc_2_7::ValueStackOf.56"** %fErrorStack, align 8, !dbg !6663
  %call15 = call zeroext i1 @_ZN11xercesc_2_712ValueStackOfIbE3popEv(%"class.xercesc_2_7::ValueStackOf.56"* %23), !dbg !6664
  %fPSVIElemContext = getelementptr inbounds %"class.xercesc_2_7::SGXMLScanner", %"class.xercesc_2_7::SGXMLScanner"* %this1, i32 0, i32 21, !dbg !6665
  %fErrorOccurred = getelementptr inbounds %"struct.xercesc_2_7::PSVIElemContext", %"struct.xercesc_2_7::PSVIElemContext"* %fPSVIElemContext, i32 0, i32 1, !dbg !6666
  %frombool16 = zext i1 %call15 to i8, !dbg !6667
  store i8 %frombool16, i8* %fErrorOccurred, align 1, !dbg !6667
  %24 = load %"struct.xercesc_2_7::ElemStack::StackElem"*, %"struct.xercesc_2_7::ElemStack::StackElem"** %topElem, align 8, !dbg !6668
  %fReaderNum = getelementptr inbounds %"struct.xercesc_2_7::ElemStack::StackElem", %"struct.xercesc_2_7::ElemStack::StackElem"* %24, i32 0, i32 1, !dbg !6670
  %25 = load i32, i32* %fReaderNum, align 8, !dbg !6670
  %26 = bitcast %"class.xercesc_2_7::SGXMLScanner"* %this1 to %"class.xercesc_2_7::XMLScanner"*, !dbg !6671
  %fReaderMgr17 = getelementptr inbounds %"class.xercesc_2_7::XMLScanner", %"class.xercesc_2_7::XMLScanner"* %26, i32 0, i32 49, !dbg !6671
  %call18 = call i32 @_ZNK11xercesc_2_79ReaderMgr19getCurrentReaderNumEv(%"class.xercesc_2_7::ReaderMgr"* %fReaderMgr17), !dbg !6672
  %cmp = icmp ne i32 %25, %call18, !dbg !6673
  br i1 %cmp, label %if.then19, label %if.end20, !dbg !6674

if.then19:                                        ; preds = %if.end12
  %27 = bitcast %"class.xercesc_2_7::SGXMLScanner"* %this1 to %"class.xercesc_2_7::XMLScanner"*, !dbg !6675
  call void @_ZN11xercesc_2_710XMLScanner9emitErrorENS_7XMLErrs5CodesE(%"class.xercesc_2_7::XMLScanner"* %27, i32 278), !dbg !6675
  br label %if.end20, !dbg !6675

if.end20:                                         ; preds = %if.then19, %if.end12
  %28 = bitcast %"class.xercesc_2_7::SGXMLScanner"* %this1 to %"class.xercesc_2_7::XMLScanner"*, !dbg !6676
  %fReaderMgr21 = getelementptr inbounds %"class.xercesc_2_7::XMLScanner", %"class.xercesc_2_7::XMLScanner"* %28, i32 0, i32 49, !dbg !6676
  %call22 = call zeroext i1 @_ZN11xercesc_2_79ReaderMgr14skipPastSpacesEb(%"class.xercesc_2_7::ReaderMgr"* %fReaderMgr21, i1 zeroext false), !dbg !6677
  %29 = bitcast %"class.xercesc_2_7::SGXMLScanner"* %this1 to %"class.xercesc_2_7::XMLScanner"*, !dbg !6678
  %fReaderMgr23 = getelementptr inbounds %"class.xercesc_2_7::XMLScanner", %"class.xercesc_2_7::XMLScanner"* %29, i32 0, i32 49, !dbg !6678
  %call24 = call zeroext i1 @_ZN11xercesc_2_79ReaderMgr11skippedCharEt(%"class.xercesc_2_7::ReaderMgr"* %fReaderMgr23, i16 zeroext 62), !dbg !6680
  br i1 %call24, label %if.end27, label %if.then25, !dbg !6681

if.then25:                                        ; preds = %if.end20
  %30 = bitcast %"class.xercesc_2_7::SGXMLScanner"* %this1 to %"class.xercesc_2_7::XMLScanner"*, !dbg !6682
  %31 = load %"struct.xercesc_2_7::ElemStack::StackElem"*, %"struct.xercesc_2_7::ElemStack::StackElem"** %topElem, align 8, !dbg !6684
  %fThisElement = getelementptr inbounds %"struct.xercesc_2_7::ElemStack::StackElem", %"struct.xercesc_2_7::ElemStack::StackElem"* %31, i32 0, i32 0, !dbg !6685
  %32 = load %"class.xercesc_2_7::XMLElementDecl"*, %"class.xercesc_2_7::XMLElementDecl"** %fThisElement, align 8, !dbg !6685
  %call26 = call i16* @_ZNK11xercesc_2_714XMLElementDecl11getFullNameEv(%"class.xercesc_2_7::XMLElementDecl"* %32), !dbg !6686
  call void @_ZN11xercesc_2_710XMLScanner9emitErrorENS_7XMLErrs5CodesEPKtS4_S4_S4_(%"class.xercesc_2_7::XMLScanner"* %30, i32 200, i16* %call26, i16* null, i16* null, i16* null), !dbg !6682
  br label %if.end27, !dbg !6687

if.end27:                                         ; preds = %if.then25, %if.end20
  %33 = bitcast %"class.xercesc_2_7::SGXMLScanner"* %this1 to %"class.xercesc_2_7::XMLScanner"*, !dbg !6688
  %fValidate = getelementptr inbounds %"class.xercesc_2_7::XMLScanner", %"class.xercesc_2_7::XMLScanner"* %33, i32 0, i32 10, !dbg !6688
  %34 = load i8, i8* %fValidate, align 8, !dbg !6688
  %tobool28 = trunc i8 %34 to i1, !dbg !6688
  br i1 %tobool28, label %land.lhs.true, label %if.else57, !dbg !6690

land.lhs.true:                                    ; preds = %if.end27
  %35 = load %"struct.xercesc_2_7::ElemStack::StackElem"*, %"struct.xercesc_2_7::ElemStack::StackElem"** %topElem, align 8, !dbg !6691
  %fThisElement29 = getelementptr inbounds %"struct.xercesc_2_7::ElemStack::StackElem", %"struct.xercesc_2_7::ElemStack::StackElem"* %35, i32 0, i32 0, !dbg !6692
  %36 = load %"class.xercesc_2_7::XMLElementDecl"*, %"class.xercesc_2_7::XMLElementDecl"** %fThisElement29, align 8, !dbg !6692
  %call30 = call zeroext i1 @_ZNK11xercesc_2_714XMLElementDecl10isDeclaredEv(%"class.xercesc_2_7::XMLElementDecl"* %36), !dbg !6693
  br i1 %call30, label %if.then31, label %if.else57, !dbg !6694

if.then31:                                        ; preds = %land.lhs.true
  %37 = bitcast %"class.xercesc_2_7::SGXMLScanner"* %this1 to %"class.xercesc_2_7::XMLScanner"*, !dbg !6695
  %fValidator = getelementptr inbounds %"class.xercesc_2_7::XMLScanner", %"class.xercesc_2_7::XMLScanner"* %37, i32 0, i32 50, !dbg !6695
  %38 = load %"class.xercesc_2_7::XMLValidator"*, %"class.xercesc_2_7::XMLValidator"** %fValidator, align 8, !dbg !6695
  %39 = bitcast %"class.xercesc_2_7::XMLValidator"* %38 to %"class.xercesc_2_7::SchemaValidator"*, !dbg !6697
  %call32 = call %"class.xercesc_2_7::ComplexTypeInfo"* @_ZNK11xercesc_2_715SchemaValidator18getCurrentTypeInfoEv(%"class.xercesc_2_7::SchemaValidator"* %39), !dbg !6698
  %fPSVIElemContext33 = getelementptr inbounds %"class.xercesc_2_7::SGXMLScanner", %"class.xercesc_2_7::SGXMLScanner"* %this1, i32 0, i32 21, !dbg !6699
  %fCurrentTypeInfo = getelementptr inbounds %"struct.xercesc_2_7::PSVIElemContext", %"struct.xercesc_2_7::PSVIElemContext"* %fPSVIElemContext33, i32 0, i32 6, !dbg !6700
  store %"class.xercesc_2_7::ComplexTypeInfo"* %call32, %"class.xercesc_2_7::ComplexTypeInfo"** %fCurrentTypeInfo, align 8, !dbg !6701
  %fPSVIElemContext34 = getelementptr inbounds %"class.xercesc_2_7::SGXMLScanner", %"class.xercesc_2_7::SGXMLScanner"* %this1, i32 0, i32 21, !dbg !6702
  %fCurrentTypeInfo35 = getelementptr inbounds %"struct.xercesc_2_7::PSVIElemContext", %"struct.xercesc_2_7::PSVIElemContext"* %fPSVIElemContext34, i32 0, i32 6, !dbg !6704
  %40 = load %"class.xercesc_2_7::ComplexTypeInfo"*, %"class.xercesc_2_7::ComplexTypeInfo"** %fCurrentTypeInfo35, align 8, !dbg !6704
  %tobool36 = icmp ne %"class.xercesc_2_7::ComplexTypeInfo"* %40, null, !dbg !6702
  br i1 %tobool36, label %if.else, label %if.then37, !dbg !6705

if.then37:                                        ; preds = %if.then31
  %41 = bitcast %"class.xercesc_2_7::SGXMLScanner"* %this1 to %"class.xercesc_2_7::XMLScanner"*, !dbg !6706
  %fValidator38 = getelementptr inbounds %"class.xercesc_2_7::XMLScanner", %"class.xercesc_2_7::XMLScanner"* %41, i32 0, i32 50, !dbg !6706
  %42 = load %"class.xercesc_2_7::XMLValidator"*, %"class.xercesc_2_7::XMLValidator"** %fValidator38, align 8, !dbg !6706
  %43 = bitcast %"class.xercesc_2_7::XMLValidator"* %42 to %"class.xercesc_2_7::SchemaValidator"*, !dbg !6707
  %call39 = call %"class.xercesc_2_7::DatatypeValidator"* @_ZNK11xercesc_2_715SchemaValidator27getCurrentDatatypeValidatorEv(%"class.xercesc_2_7::SchemaValidator"* %43), !dbg !6708
  %fPSVIElemContext40 = getelementptr inbounds %"class.xercesc_2_7::SGXMLScanner", %"class.xercesc_2_7::SGXMLScanner"* %this1, i32 0, i32 21, !dbg !6709
  %fCurrentDV = getelementptr inbounds %"struct.xercesc_2_7::PSVIElemContext", %"struct.xercesc_2_7::PSVIElemContext"* %fPSVIElemContext40, i32 0, i32 5, !dbg !6710
  store %"class.xercesc_2_7::DatatypeValidator"* %call39, %"class.xercesc_2_7::DatatypeValidator"** %fCurrentDV, align 8, !dbg !6711
  br label %if.end43, !dbg !6709

if.else:                                          ; preds = %if.then31
  %fPSVIElemContext41 = getelementptr inbounds %"class.xercesc_2_7::SGXMLScanner", %"class.xercesc_2_7::SGXMLScanner"* %this1, i32 0, i32 21, !dbg !6712
  %fCurrentDV42 = getelementptr inbounds %"struct.xercesc_2_7::PSVIElemContext", %"struct.xercesc_2_7::PSVIElemContext"* %fPSVIElemContext41, i32 0, i32 5, !dbg !6713
  store %"class.xercesc_2_7::DatatypeValidator"* null, %"class.xercesc_2_7::DatatypeValidator"** %fCurrentDV42, align 8, !dbg !6714
  br label %if.end43

if.end43:                                         ; preds = %if.else, %if.then37
  %44 = bitcast %"class.xercesc_2_7::SGXMLScanner"* %this1 to %"class.xercesc_2_7::XMLScanner"*, !dbg !6715
  %fPSVIHandler = getelementptr inbounds %"class.xercesc_2_7::XMLScanner", %"class.xercesc_2_7::XMLScanner"* %44, i32 0, i32 46, !dbg !6715
  %45 = load %"class.xercesc_2_7::PSVIHandler"*, %"class.xercesc_2_7::PSVIHandler"** %fPSVIHandler, align 8, !dbg !6715
  %tobool44 = icmp ne %"class.xercesc_2_7::PSVIHandler"* %45, null, !dbg !6715
  br i1 %tobool44, label %if.then45, label %if.end56, !dbg !6717

if.then45:                                        ; preds = %if.end43
  %46 = bitcast %"class.xercesc_2_7::SGXMLScanner"* %this1 to %"class.xercesc_2_7::XMLScanner"*, !dbg !6718
  %fValidator46 = getelementptr inbounds %"class.xercesc_2_7::XMLScanner", %"class.xercesc_2_7::XMLScanner"* %46, i32 0, i32 50, !dbg !6718
  %47 = load %"class.xercesc_2_7::XMLValidator"*, %"class.xercesc_2_7::XMLValidator"** %fValidator46, align 8, !dbg !6718
  %48 = bitcast %"class.xercesc_2_7::XMLValidator"* %47 to %"class.xercesc_2_7::SchemaValidator"*, !dbg !6720
  %call47 = call i16* @_ZNK11xercesc_2_715SchemaValidator18getNormalizedValueEv(%"class.xercesc_2_7::SchemaValidator"* %48), !dbg !6721
  %fPSVIElemContext48 = getelementptr inbounds %"class.xercesc_2_7::SGXMLScanner", %"class.xercesc_2_7::SGXMLScanner"* %this1, i32 0, i32 21, !dbg !6722
  %fNormalizedValue = getelementptr inbounds %"struct.xercesc_2_7::PSVIElemContext", %"struct.xercesc_2_7::PSVIElemContext"* %fPSVIElemContext48, i32 0, i32 7, !dbg !6723
  store i16* %call47, i16** %fNormalizedValue, align 8, !dbg !6724
  %fPSVIElemContext49 = getelementptr inbounds %"class.xercesc_2_7::SGXMLScanner", %"class.xercesc_2_7::SGXMLScanner"* %this1, i32 0, i32 21, !dbg !6725
  %fNormalizedValue50 = getelementptr inbounds %"struct.xercesc_2_7::PSVIElemContext", %"struct.xercesc_2_7::PSVIElemContext"* %fPSVIElemContext49, i32 0, i32 7, !dbg !6727
  %49 = load i16*, i16** %fNormalizedValue50, align 8, !dbg !6727
  %call51 = call zeroext i1 @_ZN11xercesc_2_79XMLString6equalsEPKtS2_(i16* %49, i16* getelementptr inbounds ([0 x i16], [0 x i16]* @_ZN11xercesc_2_76XMLUni15fgZeroLenStringE, i64 0, i64 0)), !dbg !6728
  br i1 %call51, label %if.then52, label %if.end55, !dbg !6729

if.then52:                                        ; preds = %if.then45
  %fPSVIElemContext53 = getelementptr inbounds %"class.xercesc_2_7::SGXMLScanner", %"class.xercesc_2_7::SGXMLScanner"* %this1, i32 0, i32 21, !dbg !6730
  %fNormalizedValue54 = getelementptr inbounds %"struct.xercesc_2_7::PSVIElemContext", %"struct.xercesc_2_7::PSVIElemContext"* %fPSVIElemContext53, i32 0, i32 7, !dbg !6731
  store i16* null, i16** %fNormalizedValue54, align 8, !dbg !6732
  br label %if.end55, !dbg !6730

if.end55:                                         ; preds = %if.then52, %if.then45
  br label %if.end56, !dbg !6733

if.end56:                                         ; preds = %if.end55, %if.end43
  br label %if.end64, !dbg !6734

if.else57:                                        ; preds = %land.lhs.true, %if.end27
  %fPSVIElemContext58 = getelementptr inbounds %"class.xercesc_2_7::SGXMLScanner", %"class.xercesc_2_7::SGXMLScanner"* %this1, i32 0, i32 21, !dbg !6735
  %fCurrentDV59 = getelementptr inbounds %"struct.xercesc_2_7::PSVIElemContext", %"struct.xercesc_2_7::PSVIElemContext"* %fPSVIElemContext58, i32 0, i32 5, !dbg !6737
  store %"class.xercesc_2_7::DatatypeValidator"* null, %"class.xercesc_2_7::DatatypeValidator"** %fCurrentDV59, align 8, !dbg !6738
  %fPSVIElemContext60 = getelementptr inbounds %"class.xercesc_2_7::SGXMLScanner", %"class.xercesc_2_7::SGXMLScanner"* %this1, i32 0, i32 21, !dbg !6739
  %fCurrentTypeInfo61 = getelementptr inbounds %"struct.xercesc_2_7::PSVIElemContext", %"struct.xercesc_2_7::PSVIElemContext"* %fPSVIElemContext60, i32 0, i32 6, !dbg !6740
  store %"class.xercesc_2_7::ComplexTypeInfo"* null, %"class.xercesc_2_7::ComplexTypeInfo"** %fCurrentTypeInfo61, align 8, !dbg !6741
  %fPSVIElemContext62 = getelementptr inbounds %"class.xercesc_2_7::SGXMLScanner", %"class.xercesc_2_7::SGXMLScanner"* %this1, i32 0, i32 21, !dbg !6742
  %fNormalizedValue63 = getelementptr inbounds %"struct.xercesc_2_7::PSVIElemContext", %"struct.xercesc_2_7::PSVIElemContext"* %fPSVIElemContext62, i32 0, i32 7, !dbg !6743
  store i16* null, i16** %fNormalizedValue63, align 8, !dbg !6744
  br label %if.end64

if.end64:                                         ; preds = %if.else57, %if.end56
  call void @llvm.dbg.declare(metadata %"class.xercesc_2_7::DatatypeValidator"** %psviMemberType, metadata !6745, metadata !DIExpression()), !dbg !6746
  store %"class.xercesc_2_7::DatatypeValidator"* null, %"class.xercesc_2_7::DatatypeValidator"** %psviMemberType, align 8, !dbg !6746
  %50 = bitcast %"class.xercesc_2_7::SGXMLScanner"* %this1 to %"class.xercesc_2_7::XMLScanner"*, !dbg !6747
  %fValidate65 = getelementptr inbounds %"class.xercesc_2_7::XMLScanner", %"class.xercesc_2_7::XMLScanner"* %50, i32 0, i32 10, !dbg !6747
  %51 = load i8, i8* %fValidate65, align 8, !dbg !6747
  %tobool66 = trunc i8 %51 to i1, !dbg !6747
  br i1 %tobool66, label %if.then67, label %if.end143, !dbg !6749

if.then67:                                        ; preds = %if.end64
  call void @llvm.dbg.declare(metadata i32* %res, metadata !6750, metadata !DIExpression()), !dbg !6752
  %52 = bitcast %"class.xercesc_2_7::SGXMLScanner"* %this1 to %"class.xercesc_2_7::XMLScanner"*, !dbg !6753
  %fValidator68 = getelementptr inbounds %"class.xercesc_2_7::XMLScanner", %"class.xercesc_2_7::XMLScanner"* %52, i32 0, i32 50, !dbg !6753
  %53 = load %"class.xercesc_2_7::XMLValidator"*, %"class.xercesc_2_7::XMLValidator"** %fValidator68, align 8, !dbg !6753
  %54 = load %"struct.xercesc_2_7::ElemStack::StackElem"*, %"struct.xercesc_2_7::ElemStack::StackElem"** %topElem, align 8, !dbg !6754
  %fThisElement69 = getelementptr inbounds %"struct.xercesc_2_7::ElemStack::StackElem", %"struct.xercesc_2_7::ElemStack::StackElem"* %54, i32 0, i32 0, !dbg !6755
  %55 = load %"class.xercesc_2_7::XMLElementDecl"*, %"class.xercesc_2_7::XMLElementDecl"** %fThisElement69, align 8, !dbg !6755
  %56 = load %"struct.xercesc_2_7::ElemStack::StackElem"*, %"struct.xercesc_2_7::ElemStack::StackElem"** %topElem, align 8, !dbg !6756
  %fChildren = getelementptr inbounds %"struct.xercesc_2_7::ElemStack::StackElem", %"struct.xercesc_2_7::ElemStack::StackElem"* %56, i32 0, i32 4, !dbg !6757
  %57 = load %"class.xercesc_2_7::QName"**, %"class.xercesc_2_7::QName"*** %fChildren, align 8, !dbg !6757
  %58 = load %"struct.xercesc_2_7::ElemStack::StackElem"*, %"struct.xercesc_2_7::ElemStack::StackElem"** %topElem, align 8, !dbg !6758
  %fChildCount = getelementptr inbounds %"struct.xercesc_2_7::ElemStack::StackElem", %"struct.xercesc_2_7::ElemStack::StackElem"* %58, i32 0, i32 3, !dbg !6759
  %59 = load i32, i32* %fChildCount, align 8, !dbg !6759
  %60 = bitcast %"class.xercesc_2_7::XMLValidator"* %53 to i32 (%"class.xercesc_2_7::XMLValidator"*, %"class.xercesc_2_7::XMLElementDecl"*, %"class.xercesc_2_7::QName"**, i32)***, !dbg !6760
  %vtable = load i32 (%"class.xercesc_2_7::XMLValidator"*, %"class.xercesc_2_7::XMLElementDecl"*, %"class.xercesc_2_7::QName"**, i32)**, i32 (%"class.xercesc_2_7::XMLValidator"*, %"class.xercesc_2_7::XMLElementDecl"*, %"class.xercesc_2_7::QName"**, i32)*** %60, align 8, !dbg !6760
  %vfn = getelementptr inbounds i32 (%"class.xercesc_2_7::XMLValidator"*, %"class.xercesc_2_7::XMLElementDecl"*, %"class.xercesc_2_7::QName"**, i32)*, i32 (%"class.xercesc_2_7::XMLValidator"*, %"class.xercesc_2_7::XMLElementDecl"*, %"class.xercesc_2_7::QName"**, i32)** %vtable, i64 2, !dbg !6760
  %61 = load i32 (%"class.xercesc_2_7::XMLValidator"*, %"class.xercesc_2_7::XMLElementDecl"*, %"class.xercesc_2_7::QName"**, i32)*, i32 (%"class.xercesc_2_7::XMLValidator"*, %"class.xercesc_2_7::XMLElementDecl"*, %"class.xercesc_2_7::QName"**, i32)** %vfn, align 8, !dbg !6760
  %call70 = call i32 %61(%"class.xercesc_2_7::XMLValidator"* %53, %"class.xercesc_2_7::XMLElementDecl"* %55, %"class.xercesc_2_7::QName"** %57, i32 %59), !dbg !6760
  store i32 %call70, i32* %res, align 4, !dbg !6752
  %62 = load i32, i32* %res, align 4, !dbg !6761
  %cmp71 = icmp sge i32 %62, 0, !dbg !6763
  br i1 %cmp71, label %if.then72, label %if.end100, !dbg !6764

if.then72:                                        ; preds = %if.then67
  %63 = load %"struct.xercesc_2_7::ElemStack::StackElem"*, %"struct.xercesc_2_7::ElemStack::StackElem"** %topElem, align 8, !dbg !6765
  %fChildCount73 = getelementptr inbounds %"struct.xercesc_2_7::ElemStack::StackElem", %"struct.xercesc_2_7::ElemStack::StackElem"* %63, i32 0, i32 3, !dbg !6768
  %64 = load i32, i32* %fChildCount73, align 8, !dbg !6768
  %tobool74 = icmp ne i32 %64, 0, !dbg !6765
  br i1 %tobool74, label %if.else81, label %if.then75, !dbg !6769

if.then75:                                        ; preds = %if.then72
  %65 = bitcast %"class.xercesc_2_7::SGXMLScanner"* %this1 to %"class.xercesc_2_7::XMLScanner"*, !dbg !6770
  %fValidator76 = getelementptr inbounds %"class.xercesc_2_7::XMLScanner", %"class.xercesc_2_7::XMLScanner"* %65, i32 0, i32 50, !dbg !6770
  %66 = load %"class.xercesc_2_7::XMLValidator"*, %"class.xercesc_2_7::XMLValidator"** %fValidator76, align 8, !dbg !6770
  %67 = load %"struct.xercesc_2_7::ElemStack::StackElem"*, %"struct.xercesc_2_7::ElemStack::StackElem"** %topElem, align 8, !dbg !6772
  %fThisElement77 = getelementptr inbounds %"struct.xercesc_2_7::ElemStack::StackElem", %"struct.xercesc_2_7::ElemStack::StackElem"* %67, i32 0, i32 0, !dbg !6773
  %68 = load %"class.xercesc_2_7::XMLElementDecl"*, %"class.xercesc_2_7::XMLElementDecl"** %fThisElement77, align 8, !dbg !6773
  %69 = bitcast %"class.xercesc_2_7::XMLElementDecl"* %68 to i16* (%"class.xercesc_2_7::XMLElementDecl"*)***, !dbg !6774
  %vtable78 = load i16* (%"class.xercesc_2_7::XMLElementDecl"*)**, i16* (%"class.xercesc_2_7::XMLElementDecl"*)*** %69, align 8, !dbg !6774
  %vfn79 = getelementptr inbounds i16* (%"class.xercesc_2_7::XMLElementDecl"*)*, i16* (%"class.xercesc_2_7::XMLElementDecl"*)** %vtable78, i64 15, !dbg !6774
  %70 = load i16* (%"class.xercesc_2_7::XMLElementDecl"*)*, i16* (%"class.xercesc_2_7::XMLElementDecl"*)** %vfn79, align 8, !dbg !6774
  %call80 = call i16* %70(%"class.xercesc_2_7::XMLElementDecl"* %68), !dbg !6774
  call void @_ZN11xercesc_2_712XMLValidator9emitErrorENS_8XMLValid5CodesEPKtS4_S4_S4_(%"class.xercesc_2_7::XMLValidator"* %66, i32 16, i16* %call80, i16* null, i16* null, i16* null), !dbg !6775
  br label %if.end99, !dbg !6776

if.else81:                                        ; preds = %if.then72
  %71 = load i32, i32* %res, align 4, !dbg !6777
  %72 = load %"struct.xercesc_2_7::ElemStack::StackElem"*, %"struct.xercesc_2_7::ElemStack::StackElem"** %topElem, align 8, !dbg !6779
  %fChildCount82 = getelementptr inbounds %"struct.xercesc_2_7::ElemStack::StackElem", %"struct.xercesc_2_7::ElemStack::StackElem"* %72, i32 0, i32 3, !dbg !6780
  %73 = load i32, i32* %fChildCount82, align 8, !dbg !6780
  %cmp83 = icmp uge i32 %71, %73, !dbg !6781
  br i1 %cmp83, label %if.then84, label %if.else90, !dbg !6782

if.then84:                                        ; preds = %if.else81
  %74 = bitcast %"class.xercesc_2_7::SGXMLScanner"* %this1 to %"class.xercesc_2_7::XMLScanner"*, !dbg !6783
  %fValidator85 = getelementptr inbounds %"class.xercesc_2_7::XMLScanner", %"class.xercesc_2_7::XMLScanner"* %74, i32 0, i32 50, !dbg !6783
  %75 = load %"class.xercesc_2_7::XMLValidator"*, %"class.xercesc_2_7::XMLValidator"** %fValidator85, align 8, !dbg !6783
  %76 = load %"struct.xercesc_2_7::ElemStack::StackElem"*, %"struct.xercesc_2_7::ElemStack::StackElem"** %topElem, align 8, !dbg !6785
  %fThisElement86 = getelementptr inbounds %"struct.xercesc_2_7::ElemStack::StackElem", %"struct.xercesc_2_7::ElemStack::StackElem"* %76, i32 0, i32 0, !dbg !6786
  %77 = load %"class.xercesc_2_7::XMLElementDecl"*, %"class.xercesc_2_7::XMLElementDecl"** %fThisElement86, align 8, !dbg !6786
  %78 = bitcast %"class.xercesc_2_7::XMLElementDecl"* %77 to i16* (%"class.xercesc_2_7::XMLElementDecl"*)***, !dbg !6787
  %vtable87 = load i16* (%"class.xercesc_2_7::XMLElementDecl"*)**, i16* (%"class.xercesc_2_7::XMLElementDecl"*)*** %78, align 8, !dbg !6787
  %vfn88 = getelementptr inbounds i16* (%"class.xercesc_2_7::XMLElementDecl"*)*, i16* (%"class.xercesc_2_7::XMLElementDecl"*)** %vtable87, i64 15, !dbg !6787
  %79 = load i16* (%"class.xercesc_2_7::XMLElementDecl"*)*, i16* (%"class.xercesc_2_7::XMLElementDecl"*)** %vfn88, align 8, !dbg !6787
  %call89 = call i16* %79(%"class.xercesc_2_7::XMLElementDecl"* %77), !dbg !6787
  call void @_ZN11xercesc_2_712XMLValidator9emitErrorENS_8XMLValid5CodesEPKtS4_S4_S4_(%"class.xercesc_2_7::XMLValidator"* %75, i32 21, i16* %call89, i16* null, i16* null, i16* null), !dbg !6788
  br label %if.end98, !dbg !6789

if.else90:                                        ; preds = %if.else81
  %80 = bitcast %"class.xercesc_2_7::SGXMLScanner"* %this1 to %"class.xercesc_2_7::XMLScanner"*, !dbg !6790
  %fValidator91 = getelementptr inbounds %"class.xercesc_2_7::XMLScanner", %"class.xercesc_2_7::XMLScanner"* %80, i32 0, i32 50, !dbg !6790
  %81 = load %"class.xercesc_2_7::XMLValidator"*, %"class.xercesc_2_7::XMLValidator"** %fValidator91, align 8, !dbg !6790
  %82 = load %"struct.xercesc_2_7::ElemStack::StackElem"*, %"struct.xercesc_2_7::ElemStack::StackElem"** %topElem, align 8, !dbg !6792
  %fChildren92 = getelementptr inbounds %"struct.xercesc_2_7::ElemStack::StackElem", %"struct.xercesc_2_7::ElemStack::StackElem"* %82, i32 0, i32 4, !dbg !6793
  %83 = load %"class.xercesc_2_7::QName"**, %"class.xercesc_2_7::QName"*** %fChildren92, align 8, !dbg !6793
  %84 = load i32, i32* %res, align 4, !dbg !6794
  %idxprom = sext i32 %84 to i64, !dbg !6792
  %arrayidx = getelementptr inbounds %"class.xercesc_2_7::QName"*, %"class.xercesc_2_7::QName"** %83, i64 %idxprom, !dbg !6792
  %85 = load %"class.xercesc_2_7::QName"*, %"class.xercesc_2_7::QName"** %arrayidx, align 8, !dbg !6792
  %call93 = call i16* @_ZN11xercesc_2_75QName10getRawNameEv(%"class.xercesc_2_7::QName"* %85), !dbg !6795
  %86 = load %"struct.xercesc_2_7::ElemStack::StackElem"*, %"struct.xercesc_2_7::ElemStack::StackElem"** %topElem, align 8, !dbg !6796
  %fThisElement94 = getelementptr inbounds %"struct.xercesc_2_7::ElemStack::StackElem", %"struct.xercesc_2_7::ElemStack::StackElem"* %86, i32 0, i32 0, !dbg !6797
  %87 = load %"class.xercesc_2_7::XMLElementDecl"*, %"class.xercesc_2_7::XMLElementDecl"** %fThisElement94, align 8, !dbg !6797
  %88 = bitcast %"class.xercesc_2_7::XMLElementDecl"* %87 to i16* (%"class.xercesc_2_7::XMLElementDecl"*)***, !dbg !6798
  %vtable95 = load i16* (%"class.xercesc_2_7::XMLElementDecl"*)**, i16* (%"class.xercesc_2_7::XMLElementDecl"*)*** %88, align 8, !dbg !6798
  %vfn96 = getelementptr inbounds i16* (%"class.xercesc_2_7::XMLElementDecl"*)*, i16* (%"class.xercesc_2_7::XMLElementDecl"*)** %vtable95, i64 15, !dbg !6798
  %89 = load i16* (%"class.xercesc_2_7::XMLElementDecl"*)*, i16* (%"class.xercesc_2_7::XMLElementDecl"*)** %vfn96, align 8, !dbg !6798
  %call97 = call i16* %89(%"class.xercesc_2_7::XMLElementDecl"* %87), !dbg !6798
  call void @_ZN11xercesc_2_712XMLValidator9emitErrorENS_8XMLValid5CodesEPKtS4_S4_S4_(%"class.xercesc_2_7::XMLValidator"* %81, i32 7, i16* %call93, i16* %call97, i16* null, i16* null), !dbg !6799
  br label %if.end98

if.end98:                                         ; preds = %if.else90, %if.then84
  br label %if.end99

if.end99:                                         ; preds = %if.end98, %if.then75
  br label %if.end100, !dbg !6800

if.end100:                                        ; preds = %if.end99, %if.then67
  %90 = bitcast %"class.xercesc_2_7::SGXMLScanner"* %this1 to %"class.xercesc_2_7::XMLScanner"*, !dbg !6801
  %fValidator101 = getelementptr inbounds %"class.xercesc_2_7::XMLScanner", %"class.xercesc_2_7::XMLScanner"* %90, i32 0, i32 50, !dbg !6801
  %91 = load %"class.xercesc_2_7::XMLValidator"*, %"class.xercesc_2_7::XMLValidator"** %fValidator101, align 8, !dbg !6801
  %92 = bitcast %"class.xercesc_2_7::XMLValidator"* %91 to %"class.xercesc_2_7::SchemaValidator"*, !dbg !6803
  %call102 = call zeroext i1 @_ZNK11xercesc_2_715SchemaValidator16getErrorOccurredEv(%"class.xercesc_2_7::SchemaValidator"* %92), !dbg !6804
  br i1 %call102, label %if.then103, label %if.else106, !dbg !6805

if.then103:                                       ; preds = %if.end100
  %fPSVIElemContext104 = getelementptr inbounds %"class.xercesc_2_7::SGXMLScanner", %"class.xercesc_2_7::SGXMLScanner"* %this1, i32 0, i32 21, !dbg !6806
  %fErrorOccurred105 = getelementptr inbounds %"struct.xercesc_2_7::PSVIElemContext", %"struct.xercesc_2_7::PSVIElemContext"* %fPSVIElemContext104, i32 0, i32 1, !dbg !6807
  store i8 1, i8* %fErrorOccurred105, align 1, !dbg !6808
  br label %if.end120, !dbg !6806

if.else106:                                       ; preds = %if.end100
  %fPSVIElemContext107 = getelementptr inbounds %"class.xercesc_2_7::SGXMLScanner", %"class.xercesc_2_7::SGXMLScanner"* %this1, i32 0, i32 21, !dbg !6809
  %fCurrentDV108 = getelementptr inbounds %"struct.xercesc_2_7::PSVIElemContext", %"struct.xercesc_2_7::PSVIElemContext"* %fPSVIElemContext107, i32 0, i32 5, !dbg !6811
  %93 = load %"class.xercesc_2_7::DatatypeValidator"*, %"class.xercesc_2_7::DatatypeValidator"** %fCurrentDV108, align 8, !dbg !6811
  %tobool109 = icmp ne %"class.xercesc_2_7::DatatypeValidator"* %93, null, !dbg !6809
  br i1 %tobool109, label %land.lhs.true110, label %if.end119, !dbg !6812

land.lhs.true110:                                 ; preds = %if.else106
  %fPSVIElemContext111 = getelementptr inbounds %"class.xercesc_2_7::SGXMLScanner", %"class.xercesc_2_7::SGXMLScanner"* %this1, i32 0, i32 21, !dbg !6813
  %fCurrentDV112 = getelementptr inbounds %"struct.xercesc_2_7::PSVIElemContext", %"struct.xercesc_2_7::PSVIElemContext"* %fPSVIElemContext111, i32 0, i32 5, !dbg !6814
  %94 = load %"class.xercesc_2_7::DatatypeValidator"*, %"class.xercesc_2_7::DatatypeValidator"** %fCurrentDV112, align 8, !dbg !6814
  %call113 = call i32 @_ZNK11xercesc_2_717DatatypeValidator7getTypeEv(%"class.xercesc_2_7::DatatypeValidator"* %94), !dbg !6815
  %cmp114 = icmp eq i32 %call113, 25, !dbg !6816
  br i1 %cmp114, label %if.then115, label %if.end119, !dbg !6817

if.then115:                                       ; preds = %land.lhs.true110
  %95 = bitcast %"class.xercesc_2_7::SGXMLScanner"* %this1 to %"class.xercesc_2_7::XMLScanner"*, !dbg !6818
  %fValidationContext = getelementptr inbounds %"class.xercesc_2_7::XMLScanner", %"class.xercesc_2_7::XMLScanner"* %95, i32 0, i32 47, !dbg !6818
  %96 = load %"class.xercesc_2_7::ValidationContext"*, %"class.xercesc_2_7::ValidationContext"** %fValidationContext, align 8, !dbg !6818
  %97 = bitcast %"class.xercesc_2_7::ValidationContext"* %96 to %"class.xercesc_2_7::DatatypeValidator"* (%"class.xercesc_2_7::ValidationContext"*)***, !dbg !6819
  %vtable116 = load %"class.xercesc_2_7::DatatypeValidator"* (%"class.xercesc_2_7::ValidationContext"*)**, %"class.xercesc_2_7::DatatypeValidator"* (%"class.xercesc_2_7::ValidationContext"*)*** %97, align 8, !dbg !6819
  %vfn117 = getelementptr inbounds %"class.xercesc_2_7::DatatypeValidator"* (%"class.xercesc_2_7::ValidationContext"*)*, %"class.xercesc_2_7::DatatypeValidator"* (%"class.xercesc_2_7::ValidationContext"*)** %vtable116, i64 11, !dbg !6819
  %98 = load %"class.xercesc_2_7::DatatypeValidator"* (%"class.xercesc_2_7::ValidationContext"*)*, %"class.xercesc_2_7::DatatypeValidator"* (%"class.xercesc_2_7::ValidationContext"*)** %vfn117, align 8, !dbg !6819
  %call118 = call %"class.xercesc_2_7::DatatypeValidator"* %98(%"class.xercesc_2_7::ValidationContext"* %96), !dbg !6819
  store %"class.xercesc_2_7::DatatypeValidator"* %call118, %"class.xercesc_2_7::DatatypeValidator"** %psviMemberType, align 8, !dbg !6820
  br label %if.end119, !dbg !6821

if.end119:                                        ; preds = %if.then115, %land.lhs.true110, %if.else106
  br label %if.end120

if.end120:                                        ; preds = %if.end119, %if.then103
  %99 = bitcast %"class.xercesc_2_7::SGXMLScanner"* %this1 to %"class.xercesc_2_7::XMLScanner"*, !dbg !6822
  %fPSVIHandler121 = getelementptr inbounds %"class.xercesc_2_7::XMLScanner", %"class.xercesc_2_7::XMLScanner"* %99, i32 0, i32 46, !dbg !6822
  %100 = load %"class.xercesc_2_7::PSVIHandler"*, %"class.xercesc_2_7::PSVIHandler"** %fPSVIHandler121, align 8, !dbg !6822
  %tobool122 = icmp ne %"class.xercesc_2_7::PSVIHandler"* %100, null, !dbg !6822
  br i1 %tobool122, label %if.then123, label %if.end137, !dbg !6824

if.then123:                                       ; preds = %if.end120
  %101 = bitcast %"class.xercesc_2_7::SGXMLScanner"* %this1 to %"class.xercesc_2_7::XMLScanner"*, !dbg !6825
  %fValidator124 = getelementptr inbounds %"class.xercesc_2_7::XMLScanner", %"class.xercesc_2_7::XMLScanner"* %101, i32 0, i32 50, !dbg !6825
  %102 = load %"class.xercesc_2_7::XMLValidator"*, %"class.xercesc_2_7::XMLValidator"** %fValidator124, align 8, !dbg !6825
  %103 = bitcast %"class.xercesc_2_7::XMLValidator"* %102 to %"class.xercesc_2_7::SchemaValidator"*, !dbg !6827
  %call125 = call zeroext i1 @_ZNK11xercesc_2_715SchemaValidator18getIsElemSpecifiedEv(%"class.xercesc_2_7::SchemaValidator"* %103), !dbg !6828
  %fPSVIElemContext126 = getelementptr inbounds %"class.xercesc_2_7::SGXMLScanner", %"class.xercesc_2_7::SGXMLScanner"* %this1, i32 0, i32 21, !dbg !6829
  %fIsSpecified = getelementptr inbounds %"struct.xercesc_2_7::PSVIElemContext", %"struct.xercesc_2_7::PSVIElemContext"* %fPSVIElemContext126, i32 0, i32 0, !dbg !6830
  %frombool127 = zext i1 %call125 to i8, !dbg !6831
  store i8 %frombool127, i8* %fIsSpecified, align 8, !dbg !6831
  %fPSVIElemContext128 = getelementptr inbounds %"class.xercesc_2_7::SGXMLScanner", %"class.xercesc_2_7::SGXMLScanner"* %this1, i32 0, i32 21, !dbg !6832
  %fIsSpecified129 = getelementptr inbounds %"struct.xercesc_2_7::PSVIElemContext", %"struct.xercesc_2_7::PSVIElemContext"* %fPSVIElemContext128, i32 0, i32 0, !dbg !6834
  %104 = load i8, i8* %fIsSpecified129, align 8, !dbg !6834
  %tobool130 = trunc i8 %104 to i1, !dbg !6834
  br i1 %tobool130, label %if.then131, label %if.end136, !dbg !6835

if.then131:                                       ; preds = %if.then123
  %105 = load %"struct.xercesc_2_7::ElemStack::StackElem"*, %"struct.xercesc_2_7::ElemStack::StackElem"** %topElem, align 8, !dbg !6836
  %fThisElement132 = getelementptr inbounds %"struct.xercesc_2_7::ElemStack::StackElem", %"struct.xercesc_2_7::ElemStack::StackElem"* %105, i32 0, i32 0, !dbg !6837
  %106 = load %"class.xercesc_2_7::XMLElementDecl"*, %"class.xercesc_2_7::XMLElementDecl"** %fThisElement132, align 8, !dbg !6837
  %107 = bitcast %"class.xercesc_2_7::XMLElementDecl"* %106 to %"class.xercesc_2_7::SchemaElementDecl"*, !dbg !6838
  %call133 = call i16* @_ZNK11xercesc_2_717SchemaElementDecl15getDefaultValueEv(%"class.xercesc_2_7::SchemaElementDecl"* %107), !dbg !6839
  %fPSVIElemContext134 = getelementptr inbounds %"class.xercesc_2_7::SGXMLScanner", %"class.xercesc_2_7::SGXMLScanner"* %this1, i32 0, i32 21, !dbg !6840
  %fNormalizedValue135 = getelementptr inbounds %"struct.xercesc_2_7::PSVIElemContext", %"struct.xercesc_2_7::PSVIElemContext"* %fPSVIElemContext134, i32 0, i32 7, !dbg !6841
  store i16* %call133, i16** %fNormalizedValue135, align 8, !dbg !6842
  br label %if.end136, !dbg !6840

if.end136:                                        ; preds = %if.then131, %if.then123
  br label %if.end137, !dbg !6843

if.end137:                                        ; preds = %if.end136, %if.end120
  %call138 = call zeroext i1 @_ZNK11xercesc_2_712SGXMLScanner25toCheckIdentityConstraintEv(%"class.xercesc_2_7::SGXMLScanner"* %this1), !dbg !6844
  br i1 %call138, label %if.then139, label %if.end142, !dbg !6846

if.then139:                                       ; preds = %if.end137
  %fICHandler = getelementptr inbounds %"class.xercesc_2_7::SGXMLScanner", %"class.xercesc_2_7::SGXMLScanner"* %this1, i32 0, i32 12, !dbg !6847
  %108 = load %"class.xercesc_2_7::IdentityConstraintHandler"*, %"class.xercesc_2_7::IdentityConstraintHandler"** %fICHandler, align 8, !dbg !6847
  %109 = load %"struct.xercesc_2_7::ElemStack::StackElem"*, %"struct.xercesc_2_7::ElemStack::StackElem"** %topElem, align 8, !dbg !6849
  %fThisElement140 = getelementptr inbounds %"struct.xercesc_2_7::ElemStack::StackElem", %"struct.xercesc_2_7::ElemStack::StackElem"* %109, i32 0, i32 0, !dbg !6850
  %110 = load %"class.xercesc_2_7::XMLElementDecl"*, %"class.xercesc_2_7::XMLElementDecl"** %fThisElement140, align 8, !dbg !6850
  %111 = bitcast %"class.xercesc_2_7::XMLElementDecl"* %110 to %"class.xercesc_2_7::SchemaElementDecl"*, !dbg !6851
  %fContent = getelementptr inbounds %"class.xercesc_2_7::SGXMLScanner", %"class.xercesc_2_7::SGXMLScanner"* %this1, i32 0, i32 5, !dbg !6852
  %call141 = call i16* @_ZN11xercesc_2_79XMLBuffer12getRawBufferEv(%"class.xercesc_2_7::XMLBuffer"* %fContent), !dbg !6853
  call void @_ZN11xercesc_2_725IdentityConstraintHandler17deactivateContextEPNS_17SchemaElementDeclEPKt(%"class.xercesc_2_7::IdentityConstraintHandler"* %108, %"class.xercesc_2_7::SchemaElementDecl"* %111, i16* %call141), !dbg !6854
  br label %if.end142, !dbg !6855

if.end142:                                        ; preds = %if.then139, %if.end137
  br label %if.end143, !dbg !6856

if.end143:                                        ; preds = %if.end142, %if.end64
  %112 = bitcast %"class.xercesc_2_7::SGXMLScanner"* %this1 to %"class.xercesc_2_7::XMLScanner"*, !dbg !6857
  %fPSVIHandler144 = getelementptr inbounds %"class.xercesc_2_7::XMLScanner", %"class.xercesc_2_7::XMLScanner"* %112, i32 0, i32 46, !dbg !6857
  %113 = load %"class.xercesc_2_7::PSVIHandler"*, %"class.xercesc_2_7::PSVIHandler"** %fPSVIHandler144, align 8, !dbg !6857
  %tobool145 = icmp ne %"class.xercesc_2_7::PSVIHandler"* %113, null, !dbg !6857
  br i1 %tobool145, label %if.then146, label %if.end148, !dbg !6859

if.then146:                                       ; preds = %if.end143
  %114 = load %"struct.xercesc_2_7::ElemStack::StackElem"*, %"struct.xercesc_2_7::ElemStack::StackElem"** %topElem, align 8, !dbg !6860
  %fThisElement147 = getelementptr inbounds %"struct.xercesc_2_7::ElemStack::StackElem", %"struct.xercesc_2_7::ElemStack::StackElem"* %114, i32 0, i32 0, !dbg !6862
  %115 = load %"class.xercesc_2_7::XMLElementDecl"*, %"class.xercesc_2_7::XMLElementDecl"** %fThisElement147, align 8, !dbg !6862
  %116 = bitcast %"class.xercesc_2_7::XMLElementDecl"* %115 to %"class.xercesc_2_7::SchemaElementDecl"*, !dbg !6863
  %117 = load %"class.xercesc_2_7::DatatypeValidator"*, %"class.xercesc_2_7::DatatypeValidator"** %psviMemberType, align 8, !dbg !6864
  call void @_ZN11xercesc_2_712SGXMLScanner14endElementPSVIEPNS_17SchemaElementDeclEPNS_17DatatypeValidatorE(%"class.xercesc_2_7::SGXMLScanner"* %this1, %"class.xercesc_2_7::SchemaElementDecl"* %116, %"class.xercesc_2_7::DatatypeValidator"* %117), !dbg !6865
  br label %if.end148, !dbg !6866

if.end148:                                        ; preds = %if.then146, %if.end143
  %118 = bitcast %"class.xercesc_2_7::SGXMLScanner"* %this1 to %"class.xercesc_2_7::XMLScanner"*, !dbg !6867
  %fValidator149 = getelementptr inbounds %"class.xercesc_2_7::XMLScanner", %"class.xercesc_2_7::XMLScanner"* %118, i32 0, i32 50, !dbg !6867
  %119 = load %"class.xercesc_2_7::XMLValidator"*, %"class.xercesc_2_7::XMLValidator"** %fValidator149, align 8, !dbg !6867
  %120 = bitcast %"class.xercesc_2_7::XMLValidator"* %119 to %"class.xercesc_2_7::SchemaValidator"*, !dbg !6868
  call void @_ZN11xercesc_2_715SchemaValidator19clearDatatypeBufferEv(%"class.xercesc_2_7::SchemaValidator"* %120), !dbg !6869
  %121 = bitcast %"class.xercesc_2_7::SGXMLScanner"* %this1 to %"class.xercesc_2_7::XMLScanner"*, !dbg !6870
  %fDocHandler = getelementptr inbounds %"class.xercesc_2_7::XMLScanner", %"class.xercesc_2_7::XMLScanner"* %121, i32 0, i32 41, !dbg !6870
  %122 = load %"class.xercesc_2_7::XMLDocumentHandler"*, %"class.xercesc_2_7::XMLDocumentHandler"** %fDocHandler, align 8, !dbg !6870
  %tobool150 = icmp ne %"class.xercesc_2_7::XMLDocumentHandler"* %122, null, !dbg !6870
  br i1 %tobool150, label %if.then151, label %if.end173, !dbg !6872

if.then151:                                       ; preds = %if.end148
  %fGrammarType = getelementptr inbounds %"class.xercesc_2_7::SGXMLScanner", %"class.xercesc_2_7::SGXMLScanner"* %this1, i32 0, i32 2, !dbg !6873
  %123 = load i32, i32* %fGrammarType, align 4, !dbg !6873
  %cmp152 = icmp eq i32 %123, 1, !dbg !6876
  br i1 %cmp152, label %if.then153, label %if.else160, !dbg !6877

if.then153:                                       ; preds = %if.then151
  %124 = load %"struct.xercesc_2_7::ElemStack::StackElem"*, %"struct.xercesc_2_7::ElemStack::StackElem"** %topElem, align 8, !dbg !6878
  %fPrefixColonPos = getelementptr inbounds %"struct.xercesc_2_7::ElemStack::StackElem", %"struct.xercesc_2_7::ElemStack::StackElem"* %124, i32 0, i32 16, !dbg !6881
  %125 = load i32, i32* %fPrefixColonPos, align 4, !dbg !6881
  %cmp154 = icmp ne i32 %125, -1, !dbg !6882
  br i1 %cmp154, label %if.then155, label %if.else157, !dbg !6883

if.then155:                                       ; preds = %if.then153
  %126 = bitcast %"class.xercesc_2_7::SGXMLScanner"* %this1 to %"class.xercesc_2_7::XMLScanner"*, !dbg !6884
