; ModuleID = 'IGXMLScanner2.cpp'
source_filename = "IGXMLScanner2.cpp"
target datalayout = "e-m:e-p270:32:32-p271:32:32-p272:64:64-i64:64-f80:128-n8:16:32:64-S128"
target triple = "x86_64-unknown-linux-gnu"

%"class.xercesc_2_7::RefHashTableOf.14" = type { %"class.xercesc_2_7::MemoryManager"*, i8, %"struct.xercesc_2_7::RefHashTableBucketElem.15"**, i32, i32, i32, %"class.xercesc_2_7::HashBase"* }
%"class.xercesc_2_7::MemoryManager" = type { i32 (...)** }
%"struct.xercesc_2_7::RefHashTableBucketElem.15" = type { %"class.xercesc_2_7::DatatypeValidator"*, %"struct.xercesc_2_7::RefHashTableBucketElem.15"*, i8* }
%"class.xercesc_2_7::DatatypeValidator" = type { %"class.xercesc_2_7::XSerializable", i8, i8, i8, i8, i16, i32, i32, i32, i32, i32, %"class.xercesc_2_7::DatatypeValidator"*, %"class.xercesc_2_7::RefHashTableOf.3"*, i16*, %"class.xercesc_2_7::RegularExpression"*, i16*, i16*, i16*, %"class.xercesc_2_7::MemoryManager"* }
%"class.xercesc_2_7::XSerializable" = type { i32 (...)** }
%"class.xercesc_2_7::RefHashTableOf.3" = type opaque
%"class.xercesc_2_7::RegularExpression" = type { i8, i8, i32, i32, i32, i32, %"class.xercesc_2_7::BMPattern"*, i16*, i16*, %"class.xercesc_2_7::Op"*, %"class.xercesc_2_7::Token"*, %"class.xercesc_2_7::RangeToken"*, %"class.xercesc_2_7::OpFactory", %"class.xercesc_2_7::TokenFactory"*, %"class.xercesc_2_7::MemoryManager"* }
%"class.xercesc_2_7::BMPattern" = type { i8, i32, i32*, i16*, i16*, %"class.xercesc_2_7::MemoryManager"* }
%"class.xercesc_2_7::Op" = type { i32 (...)**, %"class.xercesc_2_7::MemoryManager"*, i16, %"class.xercesc_2_7::Op"* }
%"class.xercesc_2_7::Token" = type { i32 (...)**, i16, %"class.xercesc_2_7::MemoryManager"* }
%"class.xercesc_2_7::RangeToken" = type opaque
%"class.xercesc_2_7::OpFactory" = type { %"class.xercesc_2_7::RefVectorOf.4"*, %"class.xercesc_2_7::MemoryManager"* }
%"class.xercesc_2_7::RefVectorOf.4" = type { %"class.xercesc_2_7::BaseRefVectorOf.5" }
%"class.xercesc_2_7::BaseRefVectorOf.5" = type { i32 (...)**, i8, i32, i32, %"class.xercesc_2_7::Op"**, %"class.xercesc_2_7::MemoryManager"* }
%"class.xercesc_2_7::TokenFactory" = type { %"class.xercesc_2_7::RefVectorOf.6"*, %"class.xercesc_2_7::Token"*, %"class.xercesc_2_7::Token"*, %"class.xercesc_2_7::Token"*, %"class.xercesc_2_7::Token"*, %"class.xercesc_2_7::Token"*, %"class.xercesc_2_7::Token"*, %"class.xercesc_2_7::Token"*, %"class.xercesc_2_7::Token"*, %"class.xercesc_2_7::Token"*, %"class.xercesc_2_7::Token"*, %"class.xercesc_2_7::Token"*, %"class.xercesc_2_7::Token"*, %"class.xercesc_2_7::Token"*, %"class.xercesc_2_7::Token"*, %"class.xercesc_2_7::MemoryManager"* }
%"class.xercesc_2_7::RefVectorOf.6" = type opaque
%"class.xercesc_2_7::HashBase" = type { i32 (...)** }
%"class.xercesc_2_7::NameIdPool.20" = type <{ %"class.xercesc_2_7::MemoryManager"*, %"struct.xercesc_2_7::NameIdPoolBucketElem.21"**, %"class.xercesc_2_7::DTDEntityDecl"**, i32, i32, i32, [4 x i8] }>
%"struct.xercesc_2_7::NameIdPoolBucketElem.21" = type { %"class.xercesc_2_7::DTDEntityDecl"*, %"struct.xercesc_2_7::NameIdPoolBucketElem.21"* }
%"class.xercesc_2_7::DTDEntityDecl" = type <{ %"class.xercesc_2_7::XMLEntityDecl", i8, i8, i8, [5 x i8] }>
%"class.xercesc_2_7::XMLEntityDecl" = type { %"class.xercesc_2_7::XSerializable", i32, i32, i16*, i16*, i16*, i16*, i16*, i16*, %"class.xercesc_2_7::MemoryManager"* }
%"class.xercesc_2_7::XMLDeleter" = type { i32 (...)** }
%"class.xercesc_2_7::XMLRefInfo" = type { %"class.xercesc_2_7::XSerializable", i8, i8, i16*, %"class.xercesc_2_7::MemoryManager"* }
%"class.xercesc_2_7::XMLAttDefList" = type { %"class.xercesc_2_7::XSerializable", %"class.xercesc_2_7::MemoryManager"* }
%"class.xercesc_2_7::PSVIItem" = type { i32 (...)**, %"class.xercesc_2_7::MemoryManager"*, i16*, i16*, i16*, i16*, i32, i32, i8, %"class.xercesc_2_7::XSTypeDefinition"*, %"class.xercesc_2_7::XSSimpleTypeDefinition"* }
%"class.xercesc_2_7::XSTypeDefinition" = type { %"class.xercesc_2_7::XSObject.base", i32, i16, %"class.xercesc_2_7::XSTypeDefinition"* }
%"class.xercesc_2_7::XSObject.base" = type <{ i32 (...)**, i32, [4 x i8], %"class.xercesc_2_7::XSModel"*, %"class.xercesc_2_7::MemoryManager"*, i32 }>
%"class.xercesc_2_7::XSModel" = type <{ %"class.xercesc_2_7::MemoryManager"*, %"class.xercesc_2_7::RefArrayVectorOf"*, %"class.xercesc_2_7::RefVectorOf"*, [14 x %"class.xercesc_2_7::RefVectorOf.0"*], [14 x %"class.xercesc_2_7::XSNamedMap"*], %"class.xercesc_2_7::XMLStringPool"*, %"class.xercesc_2_7::RefVectorOf.1"*, %"class.xercesc_2_7::RefHashTableOf.2"*, %"class.xercesc_2_7::XSObjectFactory"*, %"class.xercesc_2_7::RefVectorOf"*, %"class.xercesc_2_7::XSModel"*, i8, i8, [6 x i8] }>
%"class.xercesc_2_7::RefArrayVectorOf" = type { %"class.xercesc_2_7::BaseRefVectorOf" }
%"class.xercesc_2_7::BaseRefVectorOf" = type { i32 (...)**, i8, i32, i32, i16**, %"class.xercesc_2_7::MemoryManager"* }
%"class.xercesc_2_7::RefVectorOf.0" = type opaque
%"class.xercesc_2_7::XSNamedMap" = type opaque
%"class.xercesc_2_7::XMLStringPool" = type { %"class.xercesc_2_7::XSerializable", %"class.xercesc_2_7::MemoryManager"*, %"struct.xercesc_2_7::XMLStringPool::PoolElem"**, %"class.xercesc_2_7::RefHashTableOf"*, i32, i32 }
%"struct.xercesc_2_7::XMLStringPool::PoolElem" = type { i32, i16* }
%"class.xercesc_2_7::RefHashTableOf" = type { %"class.xercesc_2_7::MemoryManager"*, i8, %"struct.xercesc_2_7::RefHashTableBucketElem"**, i32, i32, i32, %"class.xercesc_2_7::HashBase"* }
%"struct.xercesc_2_7::RefHashTableBucketElem" = type { %"struct.xercesc_2_7::XMLStringPool::PoolElem"*, %"struct.xercesc_2_7::RefHashTableBucketElem"*, i8* }
%"class.xercesc_2_7::RefVectorOf.1" = type opaque
%"class.xercesc_2_7::RefHashTableOf.2" = type opaque
%"class.xercesc_2_7::XSObjectFactory" = type opaque
%"class.xercesc_2_7::RefVectorOf" = type opaque
%"class.xercesc_2_7::XSSimpleTypeDefinition" = type { %"class.xercesc_2_7::XSTypeDefinition", i32, i32, i32, %"class.xercesc_2_7::DatatypeValidator"*, %"class.xercesc_2_7::RefVectorOf.7"*, %"class.xercesc_2_7::RefVectorOf.8"*, %"class.xercesc_2_7::RefArrayVectorOf"*, %"class.xercesc_2_7::XSSimpleTypeDefinition"*, %"class.xercesc_2_7::RefVectorOf.9"*, %"class.xercesc_2_7::RefVectorOf.1"* }
%"class.xercesc_2_7::RefVectorOf.7" = type opaque
%"class.xercesc_2_7::RefVectorOf.8" = type opaque
%"class.xercesc_2_7::RefVectorOf.9" = type opaque
%"class.xercesc_2_7::PSVIAttribute" = type { %"class.xercesc_2_7::PSVIItem", %"class.xercesc_2_7::XSAttributeDeclaration"*, %"class.xercesc_2_7::DatatypeValidator"* }
%"class.xercesc_2_7::XSAttributeDeclaration" = type opaque
%"class.xercesc_2_7::ContentSpecNode" = type { %"class.xercesc_2_7::XSerializable", %"class.xercesc_2_7::MemoryManager"*, %"class.xercesc_2_7::QName"*, %"class.xercesc_2_7::XMLElementDecl"*, %"class.xercesc_2_7::ContentSpecNode"*, %"class.xercesc_2_7::ContentSpecNode"*, i32, i8, i8, i32, i32 }
%"class.xercesc_2_7::QName" = type { %"class.xercesc_2_7::XSerializable", i32, i32, i32, i32, i16*, i16*, i16*, %"class.xercesc_2_7::MemoryManager"* }
%"class.xercesc_2_7::XMLElementDecl" = type <{ %"class.xercesc_2_7::XSerializable", %"class.xercesc_2_7::MemoryManager"*, %"class.xercesc_2_7::QName"*, i32, i32, i8, [7 x i8] }>
%"class.xercesc_2_7::PSVIHandler" = type { i32 (...)** }
%"class.xercesc_2_7::PSVIElement" = type { %"class.xercesc_2_7::PSVIItem", %"class.xercesc_2_7::XSElementDeclaration"*, %"class.xercesc_2_7::XSNotationDeclaration"*, %"class.xercesc_2_7::XSModel"* }
%"class.xercesc_2_7::XSElementDeclaration" = type opaque
%"class.xercesc_2_7::XSNotationDeclaration" = type opaque
%"class.xercesc_2_7::XSDLocator" = type { %"class.xercesc_2_7::Locator", i64, i64, i16*, i16* }
%"class.xercesc_2_7::Locator" = type { i32 (...)** }
%"class.xercesc_2_7::IGXMLScanner" = type { %"class.xercesc_2_7::XMLScanner", i8, i32, i32, i32*, %"class.xercesc_2_7::XMLBuffer", %"class.xercesc_2_7::RefVectorOf.17"*, i32, i32*, %"class.xercesc_2_7::DTDValidator"*, %"class.xercesc_2_7::SchemaValidator"*, %"class.xercesc_2_7::DTDGrammar"*, %"class.xercesc_2_7::IdentityConstraintHandler"*, %"class.xercesc_2_7::ValueVectorOf.57"*, %"class.xercesc_2_7::NameIdPool"*, %"class.xercesc_2_7::RefHash3KeysIdPool"*, i32, %"class.xercesc_2_7::RefHashTableOf.58"*, %"class.xercesc_2_7::RefHashTableOf.58"*, %"class.xercesc_2_7::RefHash2KeysTableOf.60"*, %"class.xercesc_2_7::PSVIAttributeList"*, %"class.xercesc_2_7::XSModel"*, %"class.xercesc_2_7::PSVIElement"*, %"class.xercesc_2_7::ValueStackOf.64"*, %"struct.xercesc_2_7::PSVIElemContext" }
%"class.xercesc_2_7::XMLScanner" = type { %"class.xercesc_2_7::XMLBufferFullHandler", i64, i8, i8, i8, i8, i8, i8, i8, i8, i8, i8, i8, i8, i8, i8, i8, i8, i8, i8, i8, i8, i8, i8, i8, i32, i32, i32, i32, i32, i32, i32, i32, i32**, i32, i32, i32, i32, i32, %"class.xercesc_2_7::RefVectorOf.10"*, %"class.xercesc_2_7::RefHash2KeysTableOf"*, %"class.xercesc_2_7::XMLDocumentHandler"*, %"class.xercesc_2_7::DocTypeHandler"*, %"class.xercesc_2_7::XMLEntityHandler"*, %"class.xercesc_2_7::XMLErrorReporter"*, %"class.xercesc_2_7::ErrorHandler"*, %"class.xercesc_2_7::PSVIHandler"*, %"class.xercesc_2_7::ValidationContext"*, i8, %"class.xercesc_2_7::ReaderMgr", %"class.xercesc_2_7::XMLValidator"*, i32, %"class.xercesc_2_7::GrammarResolver"*, %"class.xercesc_2_7::MemoryManager"*, %"class.xercesc_2_7::Grammar"*, %"class.xercesc_2_7::Grammar"*, %"class.xercesc_2_7::XMLStringPool"*, i16*, i16*, i16*, %"class.xercesc_2_7::SecurityManager"*, i32, %"class.xercesc_2_7::MemoryManager"*, %"class.xercesc_2_7::XMLBufferMgr", %"class.xercesc_2_7::XMLBuffer", %"class.xercesc_2_7::XMLBuffer", %"class.xercesc_2_7::XMLBuffer", %"class.xercesc_2_7::XMLBuffer", %"class.xercesc_2_7::XMLBuffer", %"class.xercesc_2_7::XMLBuffer", %"class.xercesc_2_7::XMLBuffer", %"class.xercesc_2_7::ElemStack" }
%"class.xercesc_2_7::XMLBufferFullHandler" = type { i32 (...)** }
%"class.xercesc_2_7::RefHash2KeysTableOf" = type { %"class.xercesc_2_7::MemoryManager"*, i8, %"struct.xercesc_2_7::RefHash2KeysTableBucketElem"**, i32, i32, %"class.xercesc_2_7::HashBase"* }
%"struct.xercesc_2_7::RefHash2KeysTableBucketElem" = type <{ %"class.xercesc_2_7::XMLAttr"*, %"struct.xercesc_2_7::RefHash2KeysTableBucketElem"*, i8*, i32, [4 x i8] }>
%"class.xercesc_2_7::XMLAttr" = type <{ i8, [3 x i8], i32, i32, [4 x i8], i16*, %"class.xercesc_2_7::QName"*, %"class.xercesc_2_7::MemoryManager"*, %"class.xercesc_2_7::DatatypeValidator"*, i8, [7 x i8] }>
%"class.xercesc_2_7::XMLDocumentHandler" = type { i32 (...)** }
%"class.xercesc_2_7::DocTypeHandler" = type { i32 (...)** }
%"class.xercesc_2_7::XMLEntityHandler" = type { i32 (...)** }
%"class.xercesc_2_7::XMLErrorReporter" = type { i32 (...)** }
%"class.xercesc_2_7::ErrorHandler" = type opaque
%"class.xercesc_2_7::ValidationContext" = type { i32 (...)**, %"class.xercesc_2_7::MemoryManager"* }
%"class.xercesc_2_7::ReaderMgr" = type { %"class.xercesc_2_7::Locator", %"class.xercesc_2_7::XMLEntityDecl"*, %"class.xercesc_2_7::XMLReader"*, %"class.xercesc_2_7::XMLEntityHandler"*, %"class.xercesc_2_7::RefStackOf"*, i32, %"class.xercesc_2_7::RefStackOf.12"*, i8, i32, i8, %"class.xercesc_2_7::MemoryManager"* }
%"class.xercesc_2_7::XMLReader" = type { i32, [16384 x i16], i32, [16384 x i8], [16384 x i32], i64, i64, i32, i16*, i8, i8, i16*, i32, [49152 x i8], i32, i32, i32, i8, i32, i32, i8, i8, i16*, %"class.xercesc_2_7::BinInputStream"*, i8, i8, %"class.xercesc_2_7::XMLTranscoder"*, i32, i8*, i8, i32, %"class.xercesc_2_7::MemoryManager"* }
%"class.xercesc_2_7::BinInputStream" = type opaque
%"class.xercesc_2_7::XMLTranscoder" = type opaque
%"class.xercesc_2_7::RefStackOf" = type opaque
%"class.xercesc_2_7::RefStackOf.12" = type opaque
%"class.xercesc_2_7::XMLValidator" = type { i32 (...)**, %"class.xercesc_2_7::XMLBufferMgr"*, %"class.xercesc_2_7::XMLErrorReporter"*, %"class.xercesc_2_7::ReaderMgr"*, %"class.xercesc_2_7::XMLScanner"* }
%"class.xercesc_2_7::GrammarResolver" = type { i8, i8, i8, %"class.xercesc_2_7::XMLStringPool"*, %"class.xercesc_2_7::RefHashTableOf.13"*, %"class.xercesc_2_7::RefHashTableOf.13"*, %"class.xercesc_2_7::DatatypeValidatorFactory"*, %"class.xercesc_2_7::MemoryManager"*, %"class.xercesc_2_7::XMLGrammarPool"*, %"class.xercesc_2_7::XSModel"*, %"class.xercesc_2_7::XSModel"*, %"class.xercesc_2_7::ValueVectorOf"* }
%"class.xercesc_2_7::RefHashTableOf.13" = type opaque
%"class.xercesc_2_7::DatatypeValidatorFactory" = type { %"class.xercesc_2_7::XSerializable", %"class.xercesc_2_7::RefHashTableOf.14"*, %"class.xercesc_2_7::MemoryManager"* }
%"class.xercesc_2_7::XMLGrammarPool" = type <{ i32 (...)**, %"class.xercesc_2_7::MemoryManager"*, i8, [7 x i8] }>
%"class.xercesc_2_7::ValueVectorOf" = type opaque
%"class.xercesc_2_7::Grammar" = type { %"class.xercesc_2_7::XSerializable" }
%"class.xercesc_2_7::SecurityManager" = type <{ i32 (...)**, i32, [4 x i8] }>
%"class.xercesc_2_7::XMLBufferMgr" = type { i32, %"class.xercesc_2_7::MemoryManager"*, %"class.xercesc_2_7::XMLBuffer"** }
%"class.xercesc_2_7::ElemStack" = type { i32, i32, %"class.xercesc_2_7::XMLStringPool", %"struct.xercesc_2_7::ElemStack::StackElem"**, i32, i32, i32, i32, i32, i32, i32, %"class.xercesc_2_7::ValueVectorOf.16"*, %"class.xercesc_2_7::MemoryManager"* }
%"struct.xercesc_2_7::ElemStack::StackElem" = type { %"class.xercesc_2_7::XMLElementDecl"*, i32, i32, i32, %"class.xercesc_2_7::QName"**, %"struct.xercesc_2_7::PrefMapElem"*, i32, i32, i8, i8, i8, i32, %"class.xercesc_2_7::Grammar"*, i32, i16*, i32, i32 }
%"struct.xercesc_2_7::PrefMapElem" = type { i32, i32 }
%"class.xercesc_2_7::ValueVectorOf.16" = type opaque
%"class.xercesc_2_7::XMLBuffer" = type { i32, i32, i32, i8, %"class.xercesc_2_7::MemoryManager"*, %"class.xercesc_2_7::XMLBufferFullHandler"*, i16* }
%"class.xercesc_2_7::DTDValidator" = type { %"class.xercesc_2_7::XMLValidator", %"class.xercesc_2_7::DTDGrammar"* }
%"class.xercesc_2_7::SchemaValidator" = type <{ %"class.xercesc_2_7::XMLValidator", %"class.xercesc_2_7::MemoryManager"*, %"class.xercesc_2_7::SchemaGrammar"*, %"class.xercesc_2_7::GrammarResolver"*, %"class.xercesc_2_7::QName"*, i8, [7 x i8], %"class.xercesc_2_7::DatatypeValidator"*, %"class.xercesc_2_7::XMLBuffer"*, %"class.xercesc_2_7::XMLBuffer", i8, i8, [6 x i8], %"class.xercesc_2_7::XSDErrorReporter", %"class.xercesc_2_7::ValueStackOf"*, %"class.xercesc_2_7::DatatypeValidator"*, i8, i8, [6 x i8] }>
%"class.xercesc_2_7::SchemaGrammar" = type { %"class.xercesc_2_7::Grammar", i16*, %"class.xercesc_2_7::RefHash3KeysIdPool"*, %"class.xercesc_2_7::RefHash3KeysIdPool"*, %"class.xercesc_2_7::RefHash3KeysIdPool"*, %"class.xercesc_2_7::NameIdPool.23"*, %"class.xercesc_2_7::RefHashTableOf.35"*, %"class.xercesc_2_7::RefHashTableOf.37"*, %"class.xercesc_2_7::RefHashTableOf.38"*, %"class.xercesc_2_7::RefHashTableOf.39"*, %"class.xercesc_2_7::NamespaceScope"*, %"class.xercesc_2_7::RefHash2KeysTableOf.40"*, %"class.xercesc_2_7::ValidationContext"*, %"class.xercesc_2_7::MemoryManager"*, %"class.xercesc_2_7::XMLSchemaDescription"*, %"class.xercesc_2_7::RefHashTableOf.41"*, i8, %"class.xercesc_2_7::DatatypeValidatorFactory" }
%"class.xercesc_2_7::NameIdPool.23" = type <{ %"class.xercesc_2_7::MemoryManager"*, %"struct.xercesc_2_7::NameIdPoolBucketElem.24"**, %"class.xercesc_2_7::XMLNotationDecl"**, i32, i32, i32, [4 x i8] }>
%"struct.xercesc_2_7::NameIdPoolBucketElem.24" = type { %"class.xercesc_2_7::XMLNotationDecl"*, %"struct.xercesc_2_7::NameIdPoolBucketElem.24"* }
%"class.xercesc_2_7::XMLNotationDecl" = type { %"class.xercesc_2_7::XSerializable", i32, i32, i16*, i16*, i16*, i16*, %"class.xercesc_2_7::MemoryManager"* }
%"class.xercesc_2_7::RefHashTableOf.35" = type { %"class.xercesc_2_7::MemoryManager"*, i8, %"struct.xercesc_2_7::RefHashTableBucketElem.36"**, i32, i32, i32, %"class.xercesc_2_7::HashBase"* }
%"struct.xercesc_2_7::RefHashTableBucketElem.36" = type { %"class.xercesc_2_7::XMLAttDef"*, %"struct.xercesc_2_7::RefHashTableBucketElem.36"*, i8* }
%"class.xercesc_2_7::XMLAttDef" = type { %"class.xercesc_2_7::XSerializable", i32, i32, i32, i8, i8, i32, i16*, i16*, %"class.xercesc_2_7::MemoryManager"* }
%"class.xercesc_2_7::RefHashTableOf.37" = type opaque
%"class.xercesc_2_7::RefHashTableOf.38" = type opaque
%"class.xercesc_2_7::RefHashTableOf.39" = type opaque
%"class.xercesc_2_7::NamespaceScope" = type opaque
%"class.xercesc_2_7::RefHash2KeysTableOf.40" = type opaque
%"class.xercesc_2_7::XMLSchemaDescription" = type { %"class.xercesc_2_7::XMLGrammarDescription" }
%"class.xercesc_2_7::XMLGrammarDescription" = type { %"class.xercesc_2_7::XSerializable", %"class.xercesc_2_7::MemoryManager"* }
%"class.xercesc_2_7::RefHashTableOf.41" = type { %"class.xercesc_2_7::MemoryManager"*, i8, %"struct.xercesc_2_7::RefHashTableBucketElem.42"**, i32, i32, i32, %"class.xercesc_2_7::HashBase"* }
%"struct.xercesc_2_7::RefHashTableBucketElem.42" = type { %"class.xercesc_2_7::XSAnnotation"*, %"struct.xercesc_2_7::RefHashTableBucketElem.42"*, i8* }
%"class.xercesc_2_7::XSAnnotation" = type opaque
%"class.xercesc_2_7::XSDErrorReporter" = type { i32 (...)**, i8, %"class.xercesc_2_7::XMLErrorReporter"* }
%"class.xercesc_2_7::ValueStackOf" = type { [8 x i8], %"class.xercesc_2_7::ValueVectorOf.43" }
%"class.xercesc_2_7::ValueVectorOf.43" = type { i8, i32, i32, %"class.xercesc_2_7::ComplexTypeInfo"**, %"class.xercesc_2_7::MemoryManager"* }
%"class.xercesc_2_7::ComplexTypeInfo" = type { %"class.xercesc_2_7::XSerializable", i8, i8, i8, i8, i8, i32, i32, i32, i32, i32, i32, i32, i32, i16*, i16*, i16*, %"class.xercesc_2_7::DatatypeValidator"*, %"class.xercesc_2_7::DatatypeValidator"*, %"class.xercesc_2_7::ComplexTypeInfo"*, %"class.xercesc_2_7::ContentSpecNode"*, %"class.xercesc_2_7::SchemaAttDef"*, %"class.xercesc_2_7::SchemaAttDefList"*, %"class.xercesc_2_7::RefVectorOf.27"*, %"class.xercesc_2_7::RefHash2KeysTableOf.29"*, %"class.xercesc_2_7::XMLContentModel"*, i16*, i32*, %"class.xercesc_2_7::XSDLocator"*, %"class.xercesc_2_7::MemoryManager"* }
%"class.xercesc_2_7::SchemaAttDef" = type { %"class.xercesc_2_7::XMLAttDef", i32, i32, i32, i32, %"class.xercesc_2_7::QName"*, %"class.xercesc_2_7::DatatypeValidator"*, %"class.xercesc_2_7::DatatypeValidator"*, %"class.xercesc_2_7::DatatypeValidator"*, %"class.xercesc_2_7::ValueVectorOf.26"*, %"class.xercesc_2_7::SchemaAttDef"* }
%"class.xercesc_2_7::ValueVectorOf.26" = type { i8, i32, i32, i32*, %"class.xercesc_2_7::MemoryManager"* }
%"class.xercesc_2_7::SchemaAttDefList" = type opaque
%"class.xercesc_2_7::RefVectorOf.27" = type { %"class.xercesc_2_7::BaseRefVectorOf.28" }
%"class.xercesc_2_7::BaseRefVectorOf.28" = type { i32 (...)**, i8, i32, i32, %"class.xercesc_2_7::SchemaElementDecl"**, %"class.xercesc_2_7::MemoryManager"* }
%"class.xercesc_2_7::SchemaElementDecl" = type <{ %"class.xercesc_2_7::XMLElementDecl.base", [3 x i8], i32, i32, i32, i32, i32, i32, i32, i32, [4 x i8], i16*, %"class.xercesc_2_7::ComplexTypeInfo"*, %"class.xercesc_2_7::RefHash2KeysTableOf.29"*, %"class.xercesc_2_7::ComplexTypeInfo"*, %"class.xercesc_2_7::DatatypeValidator"*, %"class.xercesc_2_7::RefVectorOf.31"*, %"class.xercesc_2_7::SchemaAttDef"*, %"class.xercesc_2_7::SchemaElementDecl"*, %"class.xercesc_2_7::DatatypeValidator"*, i8, i8, i8, [5 x i8] }>
%"class.xercesc_2_7::XMLElementDecl.base" = type <{ %"class.xercesc_2_7::XSerializable", %"class.xercesc_2_7::MemoryManager"*, %"class.xercesc_2_7::QName"*, i32, i32, i8 }>
%"class.xercesc_2_7::RefVectorOf.31" = type { %"class.xercesc_2_7::BaseRefVectorOf.32" }
%"class.xercesc_2_7::BaseRefVectorOf.32" = type { i32 (...)**, i8, i32, i32, %"class.xercesc_2_7::IdentityConstraint"**, %"class.xercesc_2_7::MemoryManager"* }
%"class.xercesc_2_7::IdentityConstraint" = type <{ %"class.xercesc_2_7::XSerializable", i16*, i16*, %"class.xercesc_2_7::IC_Selector"*, %"class.xercesc_2_7::RefVectorOf.33"*, %"class.xercesc_2_7::MemoryManager"*, i32, [4 x i8] }>
%"class.xercesc_2_7::IC_Selector" = type opaque
%"class.xercesc_2_7::RefVectorOf.33" = type { %"class.xercesc_2_7::BaseRefVectorOf.34" }
%"class.xercesc_2_7::BaseRefVectorOf.34" = type { i32 (...)**, i8, i32, i32, %"class.xercesc_2_7::IC_Field"**, %"class.xercesc_2_7::MemoryManager"* }
%"class.xercesc_2_7::IC_Field" = type { %"class.xercesc_2_7::XSerializable", %"class.xercesc_2_7::XercesXPath"*, %"class.xercesc_2_7::IdentityConstraint"* }
%"class.xercesc_2_7::XercesXPath" = type opaque
%"class.xercesc_2_7::RefHash2KeysTableOf.29" = type { %"class.xercesc_2_7::MemoryManager"*, i8, %"struct.xercesc_2_7::RefHash2KeysTableBucketElem.30"**, i32, i32, %"class.xercesc_2_7::HashBase"* }
%"struct.xercesc_2_7::RefHash2KeysTableBucketElem.30" = type <{ %"class.xercesc_2_7::SchemaAttDef"*, %"struct.xercesc_2_7::RefHash2KeysTableBucketElem.30"*, i8*, i32, [4 x i8] }>
%"class.xercesc_2_7::XMLContentModel" = type { i32 (...)** }
%"class.xercesc_2_7::DTDGrammar" = type <{ %"class.xercesc_2_7::Grammar", %"class.xercesc_2_7::MemoryManager"*, %"class.xercesc_2_7::NameIdPool"*, %"class.xercesc_2_7::NameIdPool"*, %"class.xercesc_2_7::NameIdPool.20"*, %"class.xercesc_2_7::NameIdPool.23"*, %"class.xercesc_2_7::XMLDTDDescription"*, i32, i8, [3 x i8] }>
%"class.xercesc_2_7::XMLDTDDescription" = type { %"class.xercesc_2_7::XMLGrammarDescription" }
%"class.xercesc_2_7::IdentityConstraintHandler" = type { i32 (...)**, %"class.xercesc_2_7::XMLScanner"*, %"class.xercesc_2_7::MemoryManager"*, %"class.xercesc_2_7::XPathMatcherStack"*, %"class.xercesc_2_7::ValueStoreCache"*, %"class.xercesc_2_7::FieldActivator"* }
%"class.xercesc_2_7::XPathMatcherStack" = type { i32, %"class.xercesc_2_7::ValueStackOf.44"*, %"class.xercesc_2_7::RefVectorOf.46"* }
%"class.xercesc_2_7::ValueStackOf.44" = type { [8 x i8], %"class.xercesc_2_7::ValueVectorOf.45" }
%"class.xercesc_2_7::ValueVectorOf.45" = type { i8, i32, i32, i32*, %"class.xercesc_2_7::MemoryManager"* }
%"class.xercesc_2_7::RefVectorOf.46" = type { %"class.xercesc_2_7::BaseRefVectorOf.47" }
%"class.xercesc_2_7::BaseRefVectorOf.47" = type { i32 (...)**, i8, i32, i32, %"class.xercesc_2_7::XPathMatcher"**, %"class.xercesc_2_7::MemoryManager"* }
%"class.xercesc_2_7::XPathMatcher" = type { i32 (...)**, i32, i32*, i32*, i32*, %"class.xercesc_2_7::RefVectorOf.48"*, %"class.xercesc_2_7::RefVectorOf.50"*, %"class.xercesc_2_7::IdentityConstraint"*, %"class.xercesc_2_7::MemoryManager"* }
%"class.xercesc_2_7::RefVectorOf.48" = type { %"class.xercesc_2_7::BaseRefVectorOf.49" }
%"class.xercesc_2_7::BaseRefVectorOf.49" = type { i32 (...)**, i8, i32, i32, %"class.xercesc_2_7::ValueStackOf.44"**, %"class.xercesc_2_7::MemoryManager"* }
%"class.xercesc_2_7::RefVectorOf.50" = type opaque
%"class.xercesc_2_7::ValueStoreCache" = type { %"class.xercesc_2_7::RefVectorOf.51"*, %"class.xercesc_2_7::RefHashTableOf.52"*, %"class.xercesc_2_7::RefHash2KeysTableOf.54"*, %"class.xercesc_2_7::RefStackOf.56"*, %"class.xercesc_2_7::XMLScanner"*, %"class.xercesc_2_7::MemoryManager"* }
%"class.xercesc_2_7::RefVectorOf.51" = type opaque
%"class.xercesc_2_7::RefHashTableOf.52" = type { %"class.xercesc_2_7::MemoryManager"*, i8, %"struct.xercesc_2_7::RefHashTableBucketElem.53"**, i32, i32, i32, %"class.xercesc_2_7::HashBase"* }
%"struct.xercesc_2_7::RefHashTableBucketElem.53" = type { %"class.xercesc_2_7::ValueStore"*, %"struct.xercesc_2_7::RefHashTableBucketElem.53"*, i8* }
%"class.xercesc_2_7::ValueStore" = type opaque
%"class.xercesc_2_7::RefHash2KeysTableOf.54" = type { %"class.xercesc_2_7::MemoryManager"*, i8, %"struct.xercesc_2_7::RefHash2KeysTableBucketElem.55"**, i32, i32, %"class.xercesc_2_7::HashBase"* }
%"struct.xercesc_2_7::RefHash2KeysTableBucketElem.55" = type <{ %"class.xercesc_2_7::ValueStore"*, %"struct.xercesc_2_7::RefHash2KeysTableBucketElem.55"*, i8*, i32, [4 x i8] }>
%"class.xercesc_2_7::RefStackOf.56" = type opaque
%"class.xercesc_2_7::FieldActivator" = type opaque
%"class.xercesc_2_7::ValueVectorOf.57" = type { i8, i32, i32, i16**, %"class.xercesc_2_7::MemoryManager"* }
%"class.xercesc_2_7::NameIdPool" = type <{ %"class.xercesc_2_7::MemoryManager"*, %"struct.xercesc_2_7::NameIdPoolBucketElem"**, %"class.xercesc_2_7::DTDElementDecl"**, i32, i32, i32, [4 x i8] }>
%"struct.xercesc_2_7::NameIdPoolBucketElem" = type { %"class.xercesc_2_7::DTDElementDecl"*, %"struct.xercesc_2_7::NameIdPoolBucketElem"* }
%"class.xercesc_2_7::DTDElementDecl" = type { %"class.xercesc_2_7::XMLElementDecl.base", i32, %"class.xercesc_2_7::RefHashTableOf.19"*, %"class.xercesc_2_7::DTDAttDefList"*, %"class.xercesc_2_7::ContentSpecNode"*, %"class.xercesc_2_7::XMLContentModel"*, i16* }
%"class.xercesc_2_7::RefHashTableOf.19" = type opaque
%"class.xercesc_2_7::DTDAttDefList" = type opaque
%"class.xercesc_2_7::RefHash3KeysIdPool" = type { %"class.xercesc_2_7::MemoryManager"*, i8, %"struct.xercesc_2_7::RefHash3KeysTableBucketElem"**, i32, %"class.xercesc_2_7::HashBase"*, %"class.xercesc_2_7::SchemaElementDecl"**, i32, i32 }
%"struct.xercesc_2_7::RefHash3KeysTableBucketElem" = type { %"class.xercesc_2_7::SchemaElementDecl"*, %"struct.xercesc_2_7::RefHash3KeysTableBucketElem"*, i8*, i32, i32 }
%"class.xercesc_2_7::RefHashTableOf.58" = type { %"class.xercesc_2_7::MemoryManager"*, i8, %"struct.xercesc_2_7::RefHashTableBucketElem.59"**, i32, i32, i32, %"class.xercesc_2_7::HashBase"* }
%"struct.xercesc_2_7::RefHashTableBucketElem.59" = type { i32*, %"struct.xercesc_2_7::RefHashTableBucketElem.59"*, i8* }
%"class.xercesc_2_7::RefHash2KeysTableOf.60" = type { %"class.xercesc_2_7::MemoryManager"*, i8, %"struct.xercesc_2_7::RefHash2KeysTableBucketElem.61"**, i32, i32, %"class.xercesc_2_7::HashBase"* }
%"struct.xercesc_2_7::RefHash2KeysTableBucketElem.61" = type <{ i32*, %"struct.xercesc_2_7::RefHash2KeysTableBucketElem.61"*, i8*, i32, [4 x i8] }>
%"class.xercesc_2_7::PSVIAttributeList" = type <{ %"class.xercesc_2_7::MemoryManager"*, %"class.xercesc_2_7::RefVectorOf.62"*, %"class.xercesc_2_7::RefArrayVectorOf"*, %"class.xercesc_2_7::RefArrayVectorOf"*, i32, [4 x i8] }>
%"class.xercesc_2_7::RefVectorOf.62" = type { %"class.xercesc_2_7::BaseRefVectorOf.63" }
%"class.xercesc_2_7::BaseRefVectorOf.63" = type { i32 (...)**, i8, i32, i32, %"class.xercesc_2_7::PSVIAttribute"**, %"class.xercesc_2_7::MemoryManager"* }
%"class.xercesc_2_7::ValueStackOf.64" = type { [8 x i8], %"class.xercesc_2_7::ValueVectorOf.65" }
%"class.xercesc_2_7::ValueVectorOf.65" = type { i8, i32, i32, i8*, %"class.xercesc_2_7::MemoryManager"* }
%"struct.xercesc_2_7::PSVIElemContext" = type { i8, i8, i32, i32, i32, %"class.xercesc_2_7::DatatypeValidator"*, %"class.xercesc_2_7::ComplexTypeInfo"*, i16* }
%"class.xercesc_2_7::RefVectorOf.17" = type { %"class.xercesc_2_7::BaseRefVectorOf.18" }
%"class.xercesc_2_7::BaseRefVectorOf.18" = type { i32 (...)**, i8, i32, i32, %"class.xercesc_2_7::KVStringPair"**, %"class.xercesc_2_7::MemoryManager"* }
%"class.xercesc_2_7::KVStringPair" = type { %"class.xercesc_2_7::XSerializable", i64, i64, i16*, i16*, %"class.xercesc_2_7::MemoryManager"* }
%"class.xercesc_2_7::RefVectorOf.10" = type { %"class.xercesc_2_7::BaseRefVectorOf.11" }
%"class.xercesc_2_7::BaseRefVectorOf.11" = type { i32 (...)**, i8, i32, i32, %"class.xercesc_2_7::XMLAttr"**, %"class.xercesc_2_7::MemoryManager"* }
%"class.xercesc_2_7::XMLBufBid" = type { %"class.xercesc_2_7::XMLBuffer"*, %"class.xercesc_2_7::XMLBufferMgr"* }
%"class.xercesc_2_7::ArrayJanitor" = type { i16*, %"class.xercesc_2_7::MemoryManager"* }
%"class.xercesc_2_7::DTDAttDef" = type { %"class.xercesc_2_7::XMLAttDef", i32, i16* }
%"class.xercesc_2_7::XSObject" = type <{ i32 (...)**, i32, [4 x i8], %"class.xercesc_2_7::XSModel"*, %"class.xercesc_2_7::MemoryManager"*, i32, [4 x i8] }>
%"class.xercesc_2_7::XMemory" = type { i8 }
%"class.xercesc_2_7::HashXMLCh" = type { %"class.xercesc_2_7::HashBase" }
%"class.xercesc_2_7::ArrayIndexOutOfBoundsException" = type { %"class.xercesc_2_7::XMLException" }
%"class.xercesc_2_7::XMLException" = type { i32 (...)**, i32, i8*, i32, i16*, %"class.xercesc_2_7::MemoryManager"* }
%"class.xercesc_2_7::InputSource" = type <{ i32 (...)**, %"class.xercesc_2_7::MemoryManager"*, i16*, i16*, i16*, i8, [7 x i8] }>
%"class.xercesc_2_7::XMLDTDDescriptionImpl" = type { %"class.xercesc_2_7::XMLDTDDescription", i16*, i16* }
%"class.xercesc_2_7::RuntimeException" = type { %"class.xercesc_2_7::XMLException" }
%"class.xercesc_2_7::XMLSchemaDescriptionImpl" = type { %"class.xercesc_2_7::XMLSchemaDescription", i32, i16*, %"class.xercesc_2_7::RefArrayVectorOf"*, %"class.xercesc_2_7::QName"*, %"class.xercesc_2_7::QName"*, %"class.xercesc_2_7::XMLAttDef"* }
%"class.xercesc_2_7::XSDDOMParser" = type { %"class.xercesc_2_7::XercesDOMParser", i8, i32, i32, i32, %"class.xercesc_2_7::XMLErrorReporter"*, %"class.xercesc_2_7::XMLEntityHandler"*, %"class.xercesc_2_7::ValueVectorOf.26"*, %"class.xercesc_2_7::XMLBuffer", %"class.xercesc_2_7::XSDErrorReporter", %"class.xercesc_2_7::XSDLocator" }
%"class.xercesc_2_7::XercesDOMParser" = type { %"class.xercesc_2_7::AbstractDOMParser", %"class.xercesc_2_7::EntityResolver"*, %"class.xercesc_2_7::XMLEntityResolver"*, %"class.xercesc_2_7::ErrorHandler"* }
%"class.xercesc_2_7::AbstractDOMParser" = type { %"class.xercesc_2_7::XMLDocumentHandler", %"class.xercesc_2_7::XMLErrorReporter", %"class.xercesc_2_7::XMLEntityHandler", %"class.xercesc_2_7::DocTypeHandler", %"class.xercesc_2_7::PSVIHandler", i8, i8, i8, i8, i8, i8, i8, %"class.xercesc_2_7::XMLScanner"*, i16*, %"class.xercesc_2_7::DOMNode"*, %"class.xercesc_2_7::DOMNode"*, %"class.xercesc_2_7::DOMEntity"*, %"class.xercesc_2_7::DOMDocumentImpl"*, %"class.xercesc_2_7::ValueStackOf.66"*, %"class.xercesc_2_7::DOMDocumentTypeImpl"*, %"class.xercesc_2_7::RefVectorOf.67"*, %"class.xercesc_2_7::GrammarResolver"*, %"class.xercesc_2_7::XMLStringPool"*, %"class.xercesc_2_7::XMLValidator"*, %"class.xercesc_2_7::MemoryManager"*, %"class.xercesc_2_7::XMLGrammarPool"*, %"class.xercesc_2_7::XMLBufferMgr", %"class.xercesc_2_7::XMLBuffer"*, %"class.xercesc_2_7::PSVIHandler"* }
%"class.xercesc_2_7::DOMNode" = type { i32 (...)** }
%"class.xercesc_2_7::DOMEntity" = type opaque
%"class.xercesc_2_7::DOMDocumentImpl" = type opaque
%"class.xercesc_2_7::ValueStackOf.66" = type opaque
%"class.xercesc_2_7::DOMDocumentTypeImpl" = type opaque
%"class.xercesc_2_7::RefVectorOf.67" = type opaque
%"class.xercesc_2_7::EntityResolver" = type opaque
%"class.xercesc_2_7::XMLEntityResolver" = type opaque
%"struct.xercesc_2_7::ReaderMgr::LastExtEntityInfo" = type { i16*, i16*, i64, i64 }
%"class.xercesc_2_7::XMLResourceIdentifier" = type { i32, i16*, i16*, i16*, i16*, %"class.xercesc_2_7::Locator"* }
%"class.xercesc_2_7::XMLURL" = type <{ i32 (...)**, %"class.xercesc_2_7::MemoryManager"*, i16*, i16*, i16*, i16*, i32, i32, i16*, i16*, i16*, i8, [7 x i8] }>
%"class.xercesc_2_7::Janitor" = type { %"class.xercesc_2_7::InputSource"* }
%"class.xercesc_2_7::DOMDocument" = type { %"class.xercesc_2_7::DOMDocumentRange", %"class.xercesc_2_7::DOMXPathEvaluator", %"class.xercesc_2_7::DOMDocumentTraversal", %"class.xercesc_2_7::DOMNode" }
%"class.xercesc_2_7::DOMDocumentRange" = type { i32 (...)** }
%"class.xercesc_2_7::DOMXPathEvaluator" = type { i32 (...)** }
%"class.xercesc_2_7::DOMDocumentTraversal" = type { i32 (...)** }
%"class.xercesc_2_7::DOMElement" = type { %"class.xercesc_2_7::DOMNode" }
%"class.xercesc_2_7::TraverseSchema" = type { i8, i32, i32, i32, i32, i32, i32, i16*, %"class.xercesc_2_7::DatatypeValidatorFactory"*, %"class.xercesc_2_7::GrammarResolver"*, %"class.xercesc_2_7::SchemaGrammar"*, %"class.xercesc_2_7::XMLEntityHandler"*, %"class.xercesc_2_7::XMLErrorReporter"*, %"class.xercesc_2_7::XMLStringPool"*, %"class.xercesc_2_7::XMLStringPool"*, %"class.xercesc_2_7::XMLBuffer", %"class.xercesc_2_7::XMLScanner"*, %"class.xercesc_2_7::NamespaceScope"*, %"class.xercesc_2_7::RefHashTableOf.35"*, %"class.xercesc_2_7::RefHashTableOf.37"*, %"class.xercesc_2_7::RefHashTableOf.38"*, %"class.xercesc_2_7::RefHashTableOf.39"*, %"class.xercesc_2_7::RefHashTableOf.68"*, %"class.xercesc_2_7::RefHashTableOf.69"*, %"class.xercesc_2_7::SchemaInfo"*, %"class.xercesc_2_7::XercesGroupInfo"*, %"class.xercesc_2_7::XercesAttGroupInfo"*, %"class.xercesc_2_7::ComplexTypeInfo"*, %"class.xercesc_2_7::ValueVectorOf.26"*, %"class.xercesc_2_7::ValueVectorOf.26"*, %"class.xercesc_2_7::ValueVectorOf.26"*, %"class.xercesc_2_7::ValueVectorOf.76"*, %"class.xercesc_2_7::ValueVectorOf.72"*, %"class.xercesc_2_7::ValueVectorOf.26"**, %"class.xercesc_2_7::ValueVectorOf.75"*, %"class.xercesc_2_7::RefHashTableOf.77"*, %"class.xercesc_2_7::RefHashTableOf.78"*, %"class.xercesc_2_7::RefHash2KeysTableOf.79"*, %"class.xercesc_2_7::RefHash2KeysTableOf.79"*, %"class.xercesc_2_7::RefHash2KeysTableOf.80"*, %"class.xercesc_2_7::RefHash2KeysTableOf.40"*, %"class.xercesc_2_7::RefHash2KeysTableOf.81"*, %"class.xercesc_2_7::XSDDOMParser"*, %"class.xercesc_2_7::XSDErrorReporter", %"class.xercesc_2_7::XSDLocator"*, %"class.xercesc_2_7::MemoryManager"*, %"class.xercesc_2_7::MemoryManager"*, %"class.xercesc_2_7::XSAnnotation"*, %"class.xercesc_2_7::GeneralAttributeCheck" }
%"class.xercesc_2_7::RefHashTableOf.68" = type opaque
%"class.xercesc_2_7::RefHashTableOf.69" = type opaque
%"class.xercesc_2_7::SchemaInfo" = type { i8, i8, i16, i32, i32, i32, i32, i32, i16*, i16*, %"class.xercesc_2_7::DOMElement"*, %"class.xercesc_2_7::RefVectorOf.70"*, %"class.xercesc_2_7::RefVectorOf.70"*, %"class.xercesc_2_7::RefVectorOf.70"*, %"class.xercesc_2_7::ValueVectorOf.72"*, %"class.xercesc_2_7::ValueVectorOf.45"*, %"class.xercesc_2_7::ValueVectorOf.72"*, %"class.xercesc_2_7::ValueVectorOf.73"*, [7 x %"class.xercesc_2_7::ValueVectorOf.74"*], %"class.xercesc_2_7::ValueVectorOf.75"*, %"class.xercesc_2_7::ValidationContext"*, %"class.xercesc_2_7::MemoryManager"* }
%"class.xercesc_2_7::RefVectorOf.70" = type { %"class.xercesc_2_7::BaseRefVectorOf.71" }
%"class.xercesc_2_7::BaseRefVectorOf.71" = type { i32 (...)**, i8, i32, i32, %"class.xercesc_2_7::SchemaInfo"**, %"class.xercesc_2_7::MemoryManager"* }
%"class.xercesc_2_7::ValueVectorOf.73" = type { i8, i32, i32, i16**, %"class.xercesc_2_7::MemoryManager"* }
%"class.xercesc_2_7::ValueVectorOf.74" = type { i8, i32, i32, %"class.xercesc_2_7::DOMElement"**, %"class.xercesc_2_7::MemoryManager"* }
%"class.xercesc_2_7::XercesGroupInfo" = type opaque
%"class.xercesc_2_7::XercesAttGroupInfo" = type opaque
%"class.xercesc_2_7::ValueVectorOf.76" = type opaque
%"class.xercesc_2_7::ValueVectorOf.72" = type { i8, i32, i32, %"class.xercesc_2_7::DOMElement"**, %"class.xercesc_2_7::MemoryManager"* }
%"class.xercesc_2_7::ValueVectorOf.75" = type opaque
%"class.xercesc_2_7::RefHashTableOf.77" = type opaque
%"class.xercesc_2_7::RefHashTableOf.78" = type opaque
%"class.xercesc_2_7::RefHash2KeysTableOf.79" = type opaque
%"class.xercesc_2_7::RefHash2KeysTableOf.80" = type opaque
%"class.xercesc_2_7::RefHash2KeysTableOf.81" = type opaque
%"class.xercesc_2_7::GeneralAttributeCheck" = type { %"class.xercesc_2_7::MemoryManager"*, %"class.xercesc_2_7::ValidationContext"*, %"class.xercesc_2_7::IDDatatypeValidator" }
%"class.xercesc_2_7::IDDatatypeValidator" = type { %"class.xercesc_2_7::StringDatatypeValidator" }
%"class.xercesc_2_7::StringDatatypeValidator" = type { %"class.xercesc_2_7::AbstractStringValidator" }
%"class.xercesc_2_7::AbstractStringValidator" = type { %"class.xercesc_2_7::DatatypeValidator", i32, i32, i32, i8, %"class.xercesc_2_7::RefArrayVectorOf"* }
%"class.xercesc_2_7::LocalFileInputSource" = type { %"class.xercesc_2_7::InputSource.base", [7 x i8] }
%"class.xercesc_2_7::InputSource.base" = type <{ i32 (...)**, %"class.xercesc_2_7::MemoryManager"*, i16*, i16*, i16*, i8 }>
%"class.xercesc_2_7::MalformedURLException" = type { %"class.xercesc_2_7::XMLException" }
%"class.xercesc_2_7::URLInputSource" = type { %"class.xercesc_2_7::InputSource.base", [7 x i8], %"class.xercesc_2_7::XMLURL" }
%"class.xercesc_2_7::EndOfEntityException" = type <{ %"class.xercesc_2_7::XMLEntityDecl"*, i32, [4 x i8] }>
%"class.xercesc_2_7::UnexpectedEOFException" = type { %"class.xercesc_2_7::XMLException" }
%"class.xercesc_2_7::ThrowEOEJanitor" = type { i8, %"class.xercesc_2_7::ReaderMgr"* }
%"class.xercesc_2_7::ContentLeafNameTypeVector" = type <{ %"class.xercesc_2_7::MemoryManager"*, %"class.xercesc_2_7::QName"**, i32*, i32, [4 x i8] }>
%"class.xercesc_2_7::SubstitutionGroupComparator" = type { %"class.xercesc_2_7::GrammarResolver"*, %"class.xercesc_2_7::XMLStringPool"* }
%"class.xercesc_2_7::XSerializeEngine" = type <{ i16, i16, [4 x i8], %"class.xercesc_2_7::XMLGrammarPool"*, %"class.xercesc_2_7::BinInputStream"*, %"class.xercesc_2_7::BinOutputStream"*, i64, i64, i8*, i8*, i8*, i8*, %"class.xercesc_2_7::RefHashTableOf.82"*, %"class.xercesc_2_7::ValueVectorOf.83"*, i32, [4 x i8] }>
%"class.xercesc_2_7::BinOutputStream" = type opaque
%"class.xercesc_2_7::RefHashTableOf.82" = type opaque
%"class.xercesc_2_7::ValueVectorOf.83" = type opaque
%"class.xercesc_2_7::XProtoType" = type { i8*, %"class.xercesc_2_7::XSerializable"* (%"class.xercesc_2_7::MemoryManager"*)* }
%"class.xercesc_2_7::XSValue" = type opaque
%"class.xercesc_2_7::EmptyStackException" = type { %"class.xercesc_2_7::XMLException" }
%"class.xercesc_2_7::IllegalArgumentException" = type { %"class.xercesc_2_7::XMLException" }
%"class.xercesc_2_7::ArrayJanitor.87" = type { %"struct.xercesc_2_7::RefHashTableBucketElem.59"**, %"class.xercesc_2_7::MemoryManager"* }
%"class.xercesc_2_7::ArrayJanitor.88" = type { %"struct.xercesc_2_7::RefHash2KeysTableBucketElem.61"**, %"class.xercesc_2_7::MemoryManager"* }
%"class.xercesc_2_7::ArrayJanitor.89" = type { %"struct.xercesc_2_7::RefHash2KeysTableBucketElem"**, %"class.xercesc_2_7::MemoryManager"* }

$_ZN11xercesc_2_710XMLDeleterD0Ev = comdat any

$_ZN11xercesc_2_710XMLDeleterD2Ev = comdat any

$_ZN11xercesc_2_713XSerializableD2Ev = comdat any

$__clang_call_terminate = comdat any

$_ZN11xercesc_2_710XMLRefInfoD0Ev = comdat any

$_ZN11xercesc_2_710XMLRefInfoD2Ev = comdat any

$_ZN11xercesc_2_713DTDEntityDeclD0Ev = comdat any

$_ZN11xercesc_2_713DTDEntityDeclD2Ev = comdat any

$_ZN11xercesc_2_713XMLAttDefListD0Ev = comdat any

$_ZN11xercesc_2_78PSVIItemD0Ev = comdat any

$_ZN11xercesc_2_713PSVIAttributeD0Ev = comdat any

$_ZN11xercesc_2_713PSVIAttributeD2Ev = comdat any

$_ZN11xercesc_2_715ContentSpecNodeD0Ev = comdat any

$_ZN11xercesc_2_715ContentSpecNodeD2Ev = comdat any

$_ZN11xercesc_2_711PSVIHandler24handlePartialElementPSVIEPKtS2_PNS_11PSVIElementE = comdat any

$_ZNK11xercesc_2_710XSDLocator11getPublicIdEv = comdat any

$_ZNK11xercesc_2_715SchemaValidator18getCurrentTypeInfoEv = comdat any

$_ZNK11xercesc_2_715SchemaValidator27getCurrentDatatypeValidatorEv = comdat any

$_ZNK11xercesc_2_715ComplexTypeInfo10hasAttDefsEv = comdat any

$_ZNK11xercesc_2_715BaseRefVectorOfINS_7XMLAttrEE4sizeEv = comdat any

$_ZN11xercesc_2_79XMLBufBidC2EPNS_12XMLBufferMgrE = comdat any

$_ZN11xercesc_2_79XMLBufBid9getBufferEv = comdat any

$_ZN11xercesc_2_710XMLScanner21setAttrDupChkRegistryERKjRb = comdat any

$_ZNK11xercesc_2_715BaseRefVectorOfINS_12KVStringPairEE9elementAtEj = comdat any

$_ZNK11xercesc_2_712KVStringPair6getKeyEv = comdat any

$_ZN11xercesc_2_712ArrayJanitorItEC2EPt = comdat any

$_ZN11xercesc_2_79XMLString9stringLenEPKt = comdat any

$_ZN11xercesc_2_712ArrayJanitorItE5resetEPtPNS_13MemoryManagerE = comdat any

$_ZN11xercesc_2_79XMLString9replicateEPKtPNS_13MemoryManagerE = comdat any

$_ZNK11xercesc_2_712ArrayJanitorItEixEi = comdat any

$_ZNK11xercesc_2_712ArrayJanitorItE3getEv = comdat any

$_ZN11xercesc_2_79XMLString6equalsEPKtS2_ = comdat any

$_ZN11xercesc_2_715ComplexTypeInfo9getAttDefEPKti = comdat any

$_ZN11xercesc_2_715ComplexTypeInfo14getAttWildCardEv = comdat any

$_ZN11xercesc_2_717SchemaElementDecl14getAttWildCardEv = comdat any

$_ZNK11xercesc_2_79XMLAttDef15getCreateReasonEv = comdat any

$_ZNK11xercesc_2_713SchemaGrammar24getAttributeDeclRegistryEv = comdat any

$_ZN11xercesc_2_714RefHashTableOfINS_9XMLAttDefEE3getEPKv = comdat any

$_ZN11xercesc_2_710XMLScanner14getPSVIHandlerEv = comdat any

$_ZN11xercesc_2_714RefHashTableOfIjE3getEPKv = comdat any

$_ZN11xercesc_2_714RefHashTableOfIjE3putEPvPj = comdat any

$_ZNK11xercesc_2_714XMLElementDecl11getFullNameEv = comdat any

$_ZNK11xercesc_2_714RefHashTableOfIjE11containsKeyEPKv = comdat any

$_ZNK11xercesc_2_719RefHash2KeysTableOfIjE11containsKeyEPKvi = comdat any

$_ZN11xercesc_2_719RefHash2KeysTableOfIjE3putEPviPj = comdat any

$_ZN11xercesc_2_79XMLBuffer6appendEt = comdat any

$_ZN11xercesc_2_79XMLBuffer6appendEPKt = comdat any

$_ZN11xercesc_2_79XMLBuffer12getRawBufferEv = comdat any

$_ZN11xercesc_2_79XMLBufBidD2Ev = comdat any

$_ZNK11xercesc_2_712KVStringPair8getValueEv = comdat any

$_ZNK11xercesc_2_712SchemaAttDef20getDatatypeValidatorEv = comdat any

$_ZNK11xercesc_2_717DatatypeValidator10getWSFacetEv = comdat any

$_ZN11xercesc_2_79XMLBuffer3setEPKt = comdat any

$_ZNK11xercesc_2_715SchemaValidator26getMostRecentAttrValidatorEv = comdat any

$_ZNK11xercesc_2_715SchemaValidator16getErrorOccurredEv = comdat any

$_ZN11xercesc_2_724DatatypeValidatorFactory18getBuiltInRegistryEv = comdat any

$_ZN11xercesc_2_714RefHashTableOfINS_17DatatypeValidatorEE3getEPKv = comdat any

$_ZNK11xercesc_2_79XMLAttDef7getTypeEv = comdat any

$_ZN11xercesc_2_717PSVIAttributeList22getPSVIAttributeToFillEPKtS2_ = comdat any

$_ZNK11xercesc_2_79XMLAttDef8getValueEv = comdat any

$_ZNK11xercesc_2_722XSSimpleTypeDefinition10getVarietyEv = comdat any

$_ZN11xercesc_2_715BaseRefVectorOfINS_7XMLAttrEE9elementAtEj = comdat any

$_ZNK11xercesc_2_77XMLAttr8getURIIdEv = comdat any

$_ZNK11xercesc_2_77XMLAttr7getNameEv = comdat any

$_ZNK11xercesc_2_719RefHash2KeysTableOfINS_7XMLAttrEE11containsKeyEPKvi = comdat any

$_ZN11xercesc_2_715BaseRefVectorOfINS_7XMLAttrEE10addElementEPS1_ = comdat any

$_ZN11xercesc_2_77XMLAttr3setEjPKtS2_S2_NS_9XMLAttDef8AttTypesEPNS_17DatatypeValidatorEb = comdat any

$_ZN11xercesc_2_77XMLAttr12setSpecifiedEb = comdat any

$_ZN11xercesc_2_719RefHash2KeysTableOfINS_7XMLAttrEE3putEPviPS1_ = comdat any

$_ZNK11xercesc_2_77XMLAttr8getValueEv = comdat any

$_ZN11xercesc_2_712ArrayJanitorItED2Ev = comdat any

$_ZN11xercesc_2_713getAttDefListEbPNS_15ComplexTypeInfoEPNS_14XMLElementDeclE = comdat any

$_ZNK11xercesc_2_79XMLAttDef14getDefaultTypeEv = comdat any

$_ZNK11xercesc_2_79XMLAttDef10isExternalEv = comdat any

$_ZNK11xercesc_2_77XMLAttr9getPrefixEv = comdat any

$_ZNK11xercesc_2_712SchemaAttDef10getAttNameEv = comdat any

$_ZN11xercesc_2_75QName12getLocalPartEv = comdat any

$_ZNK11xercesc_2_75QName6getURIEv = comdat any

$_ZN11xercesc_2_713PSVIAttribute14updateValidityENS_8PSVIItem14VALIDITY_STATEE = comdat any

$_ZN11xercesc_2_79XMLBuffer5resetEv = comdat any

$_ZN11xercesc_2_79ReaderMgr16getCurrentReaderEv = comdat any

$_ZNK11xercesc_2_79XMLReader12isWhitespaceEt = comdat any

$_ZN11xercesc_2_715GrammarResolver23useCachedGrammarInParseEb = comdat any

$_ZN11xercesc_2_715SchemaValidator16setErrorReporterEPNS_16XMLErrorReporterE = comdat any

$_ZN11xercesc_2_715SchemaValidator18setGrammarResolverEPNS_15GrammarResolverE = comdat any

$_ZN11xercesc_2_715SchemaValidator19setExitOnFirstFatalEb = comdat any

$_ZN11xercesc_2_710XMLScanner22resetValidationContextEv = comdat any

$_ZN11xercesc_2_712ValueStackOfIbEC2EjPNS_13MemoryManagerEb = comdat any

$_ZN11xercesc_2_712ValueStackOfIbE17removeAllElementsEv = comdat any

$_ZN11xercesc_2_712XMLValidator16setErrorReporterEPNS_16XMLErrorReporterE = comdat any

$_ZN11xercesc_2_716RuntimeExceptionC2EPKcjNS_10XMLExcepts5CodesEPKtS6_S6_S6_PNS_13MemoryManagerE = comdat any

$_ZN11xercesc_2_716RuntimeExceptionD2Ev = comdat any

$_ZN11xercesc_2_714RefHashTableOfIjE9removeAllEv = comdat any

$_ZN11xercesc_2_719RefHash2KeysTableOfIjE9removeAllEv = comdat any

$_ZN11xercesc_2_710NameIdPoolINS_14DTDElementDeclEE9removeAllEv = comdat any

$_ZNK11xercesc_2_79XMLBuffer7isEmptyEv = comdat any

$_ZNK11xercesc_2_79XMLBuffer6getLenEv = comdat any

$_ZNK11xercesc_2_715ComplexTypeInfo14getContentTypeEv = comdat any

$_ZN11xercesc_2_715SchemaValidator17setDatatypeBufferEPKt = comdat any

$_ZNK11xercesc_2_712IGXMLScanner25toCheckIdentityConstraintEv = comdat any

$_ZNK11xercesc_2_725IdentityConstraintHandler15getMatcherCountEv = comdat any

$_ZN11xercesc_2_79XMLBuffer6appendEPKtj = comdat any

$_ZN11xercesc_2_715BaseRefVectorOfINS_12KVStringPairEE9elementAtEj = comdat any

$_ZN11xercesc_2_79XMLBuffer3setEPKtj = comdat any

$_ZN11xercesc_2_715SchemaValidator11setNillableEb = comdat any

$_ZN11xercesc_2_715SchemaValidator10setXsiTypeEPKtS2_j = comdat any

$_ZN11xercesc_2_712ArrayJanitorItEC2EPtPNS_13MemoryManagerE = comdat any

$_ZNK11xercesc_2_713ValueVectorOfIPtE4sizeEv = comdat any

$_ZN11xercesc_2_713ValueVectorOfIPtE9elementAtEj = comdat any

$_ZN11xercesc_2_79ReaderMgr17LastExtEntityInfoC2Ev = comdat any

$_ZN11xercesc_2_721XMLResourceIdentifierC2ENS0_22ResourceIdentifierTypeEPKtS3_S3_S3_PKNS_7LocatorE = comdat any

$_ZN11xercesc_2_721XMLResourceIdentifierD2Ev = comdat any

$_ZN11xercesc_2_721MalformedURLExceptionC2EPKcjNS_10XMLExcepts5CodesEPNS_13MemoryManagerE = comdat any

$_ZN11xercesc_2_721MalformedURLExceptionD2Ev = comdat any

$_ZN11xercesc_2_77JanitorINS_11InputSourceEEC2EPS1_ = comdat any

$_ZNK11xercesc_2_712XSDDOMParser11getSawFatalEv = comdat any

$_ZN11xercesc_2_79ElemStack17setValidationFlagEb = comdat any

$_ZN11xercesc_2_716RuntimeExceptionC2EPKcjNS_10XMLExcepts5CodesEPNS_13MemoryManagerE = comdat any

$_ZN11xercesc_2_77JanitorINS_11InputSourceEED2Ev = comdat any

$_ZNK11xercesc_2_79ReaderMgr19getCurrentReaderNumEv = comdat any

$_ZNK11xercesc_2_79XMLReader9isXMLCharEt = comdat any

$_ZN11xercesc_2_722UnexpectedEOFExceptionC2EPKcjNS_10XMLExcepts5CodesEPNS_13MemoryManagerE = comdat any

$_ZN11xercesc_2_722UnexpectedEOFExceptionD2Ev = comdat any

$_ZN11xercesc_2_79ReaderMgr14lookingAtSpaceEv = comdat any

$_ZNK11xercesc_2_714XMLElementDecl10isExternalEv = comdat any

$_ZN11xercesc_2_79ReaderMgr13skippedStringEPKt = comdat any

$_ZNK11xercesc_2_79XMLBufBid6getLenEv = comdat any

$_ZN11xercesc_2_79XMLBufBid12getRawBufferEv = comdat any

$_ZN11xercesc_2_79XMLBufBid3setEPKtj = comdat any

$_ZN11xercesc_2_79XMLBufBid6appendEt = comdat any

$_ZN11xercesc_2_715ThrowEOEJanitorC2EPNS_9ReaderMgrEb = comdat any

$_ZN11xercesc_2_79ReaderMgr21movePlainContentCharsERNS_9XMLBufferE = comdat any

$_ZN11xercesc_2_79ReaderMgr16getNextCharIfNotEtRt = comdat any

$_ZNK11xercesc_2_79ElemStack7isEmptyEv = comdat any

$_ZN11xercesc_2_79ElemStack19setReferenceEscapedEv = comdat any

$_ZN11xercesc_2_715ThrowEOEJanitorD2Ev = comdat any

$_ZNK11xercesc_2_720EndOfEntityException9getEntityEv = comdat any

$_ZN11xercesc_2_79ReaderMgr8getQNameERNS_9XMLBufferEPi = comdat any

$_ZN11xercesc_2_79ReaderMgr7getNameERNS_9XMLBufferE = comdat any

$_ZNK11xercesc_2_79XMLBufBid7isEmptyEv = comdat any

$_ZN11xercesc_2_710DTDGrammar13getEntityDeclEPKt = comdat any

$_ZNK11xercesc_2_713XMLEntityDecl10isExternalEv = comdat any

$_ZNK11xercesc_2_713XMLEntityDecl10isUnparsedEv = comdat any

$_ZNK11xercesc_2_713XMLEntityDecl10getBaseURIEv = comdat any

$_ZNK11xercesc_2_713XMLEntityDecl11getSystemIdEv = comdat any

$_ZNK11xercesc_2_713XMLEntityDecl11getPublicIdEv = comdat any

$_ZNK11xercesc_2_713XMLEntityDecl7getNameEv = comdat any

$_ZNK11xercesc_2_713XMLEntityDecl8getValueEv = comdat any

$_ZNK11xercesc_2_713XMLEntityDecl11getValueLenEv = comdat any

$_ZN11xercesc_2_79ReaderMgr12skipPastCharEt = comdat any

$_ZN11xercesc_2_727SubstitutionGroupComparatorC2EPNS_15GrammarResolverEPNS_13XMLStringPoolE = comdat any

$_ZN11xercesc_2_727SubstitutionGroupComparatorD2Ev = comdat any

$_ZNK11xercesc_2_712SchemaAttDef16getNamespaceListEv = comdat any

$_ZNK11xercesc_2_713ValueVectorOfIjE4sizeEv = comdat any

$_ZN11xercesc_2_713ValueVectorOfIjE9elementAtEj = comdat any

$_ZNK11xercesc_2_713DTDEntityDecl22getDeclaredInIntSubsetEv = comdat any

$_ZNK11xercesc_2_713DTDEntityDecl14getIsParameterEv = comdat any

$_ZNK11xercesc_2_713DTDEntityDecl16getIsSpecialCharEv = comdat any

$_ZN11xercesc_2_713XMLAttDefListD2Ev = comdat any

$_ZN11xercesc_2_78PSVIItemD2Ev = comdat any

$_ZN11xercesc_2_713PSVIAttribute17getTypeDefinitionEv = comdat any

$_ZN11xercesc_2_713PSVIAttribute23getMemberTypeDefinitionEv = comdat any

$_ZN11xercesc_2_711PSVIHandlerD2Ev = comdat any

$_ZN11xercesc_2_711PSVIHandlerD0Ev = comdat any

$_ZN11xercesc_2_710XSDLocatorD2Ev = comdat any

$_ZN11xercesc_2_710XSDLocatorD0Ev = comdat any

$_ZNK11xercesc_2_710XSDLocator11getSystemIdEv = comdat any

$_ZNK11xercesc_2_710XSDLocator13getLineNumberEv = comdat any

$_ZNK11xercesc_2_710XSDLocator15getColumnNumberEv = comdat any

$_ZN11xercesc_2_712ValueStackOfIPNS_15ComplexTypeInfoEE5emptyEv = comdat any

$_ZNK11xercesc_2_712ValueStackOfIPNS_15ComplexTypeInfoEE4peekEv = comdat any

$_ZNK11xercesc_2_713ValueVectorOfIPNS_15ComplexTypeInfoEE4sizeEv = comdat any

$_ZNK11xercesc_2_713ValueVectorOfIPNS_15ComplexTypeInfoEE16getMemoryManagerEv = comdat any

$_ZN11xercesc_2_719EmptyStackExceptionC2EPKcjNS_10XMLExcepts5CodesEPNS_13MemoryManagerE = comdat any

$_ZN11xercesc_2_719EmptyStackExceptionD2Ev = comdat any

$_ZNK11xercesc_2_713ValueVectorOfIPNS_15ComplexTypeInfoEE9elementAtEj = comdat any

$_ZN11xercesc_2_719EmptyStackExceptionD0Ev = comdat any

$_ZNK11xercesc_2_719EmptyStackException7getTypeEv = comdat any

$_ZNK11xercesc_2_719EmptyStackException9duplicateEv = comdat any

$_ZN11xercesc_2_719EmptyStackExceptionC2ERKS0_ = comdat any

$_ZN11xercesc_2_730ArrayIndexOutOfBoundsExceptionC2EPKcjNS_10XMLExcepts5CodesEPNS_13MemoryManagerE = comdat any

$_ZN11xercesc_2_730ArrayIndexOutOfBoundsExceptionD2Ev = comdat any

$_ZN11xercesc_2_730ArrayIndexOutOfBoundsExceptionD0Ev = comdat any

$_ZNK11xercesc_2_730ArrayIndexOutOfBoundsException7getTypeEv = comdat any

$_ZNK11xercesc_2_730ArrayIndexOutOfBoundsException9duplicateEv = comdat any

$_ZN11xercesc_2_730ArrayIndexOutOfBoundsExceptionC2ERKS0_ = comdat any

$_ZNK11xercesc_2_719RefHash2KeysTableOfINS_12SchemaAttDefEE7isEmptyEv = comdat any

$_ZN11xercesc_2_77XMemoryC2Ev = comdat any

$_ZN11xercesc_2_719RefHash2KeysTableOfINS_7XMLAttrEEC2EjbPNS_8HashBaseEPNS_13MemoryManagerE = comdat any

$_ZN11xercesc_2_719RefHash2KeysTableOfINS_7XMLAttrEE9removeAllEv = comdat any

$_ZN11xercesc_2_719RefHash2KeysTableOfINS_7XMLAttrEE10initializeEj = comdat any

$_ZN11xercesc_2_724IllegalArgumentExceptionC2EPKcjNS_10XMLExcepts5CodesEPNS_13MemoryManagerE = comdat any

$_ZN11xercesc_2_724IllegalArgumentExceptionD2Ev = comdat any

$_ZN11xercesc_2_724IllegalArgumentExceptionD0Ev = comdat any

$_ZNK11xercesc_2_724IllegalArgumentException7getTypeEv = comdat any

$_ZNK11xercesc_2_724IllegalArgumentException9duplicateEv = comdat any

$_ZN11xercesc_2_724IllegalArgumentExceptionC2ERKS0_ = comdat any

$_ZNK11xercesc_2_719RefHash2KeysTableOfINS_7XMLAttrEE7isEmptyEv = comdat any

$_ZN11xercesc_2_77XMLAttrD2Ev = comdat any

$_ZN11xercesc_2_719RefHash2KeysTableOfINS_12SchemaAttDefEE3getEPKvi = comdat any

$_ZN11xercesc_2_719RefHash2KeysTableOfINS_12SchemaAttDefEE14findBucketElemEPKviRj = comdat any

$_ZNK11xercesc_2_715BaseRefVectorOfINS_13PSVIAttributeEE4sizeEv = comdat any

$_ZN11xercesc_2_715BaseRefVectorOfINS_13PSVIAttributeEE10addElementEPS1_ = comdat any

$_ZN11xercesc_2_715BaseRefVectorOfItE10addElementEPt = comdat any

$_ZN11xercesc_2_715BaseRefVectorOfINS_13PSVIAttributeEE9elementAtEj = comdat any

$_ZN11xercesc_2_715BaseRefVectorOfINS_13PSVIAttributeEE19ensureExtraCapacityEj = comdat any

$_ZN11xercesc_2_715BaseRefVectorOfItE19ensureExtraCapacityEj = comdat any

$_ZN11xercesc_2_75QName9getPrefixEv = comdat any

$_ZN11xercesc_2_716XSDErrorReporter16setErrorReporterEPNS_16XMLErrorReporterE = comdat any

$_ZN11xercesc_2_716XSDErrorReporter19setExitOnFirstFatalEb = comdat any

$_ZN11xercesc_2_716RuntimeExceptionD0Ev = comdat any

$_ZNK11xercesc_2_716RuntimeException7getTypeEv = comdat any

$_ZNK11xercesc_2_716RuntimeException9duplicateEv = comdat any

$_ZN11xercesc_2_716RuntimeExceptionC2ERKS0_ = comdat any

$_ZNK11xercesc_2_717XPathMatcherStack15getMatcherCountEv = comdat any

$_ZN11xercesc_2_721MalformedURLExceptionD0Ev = comdat any

$_ZNK11xercesc_2_721MalformedURLException7getTypeEv = comdat any

$_ZNK11xercesc_2_721MalformedURLException9duplicateEv = comdat any

$_ZN11xercesc_2_721MalformedURLExceptionC2ERKS0_ = comdat any

$_ZNK11xercesc_2_79XMLReader12getReaderNumEv = comdat any

$_ZN11xercesc_2_722UnexpectedEOFExceptionD0Ev = comdat any

$_ZNK11xercesc_2_722UnexpectedEOFException7getTypeEv = comdat any

$_ZNK11xercesc_2_722UnexpectedEOFException9duplicateEv = comdat any

$_ZN11xercesc_2_722UnexpectedEOFExceptionC2ERKS0_ = comdat any

$_ZNK11xercesc_2_79ReaderMgr11getThrowEOEEv = comdat any

$_ZN11xercesc_2_79ReaderMgr11setThrowEOEEb = comdat any

$_ZN11xercesc_2_79XMLReader21movePlainContentCharsERNS_9XMLBufferE = comdat any

$_ZNK11xercesc_2_79XMLReader18isPlainContentCharEt = comdat any

$_ZN11xercesc_2_79XMLReader16getNextCharIfNotEtRt = comdat any

$_ZN11xercesc_2_710NameIdPoolINS_13DTDEntityDeclEE8getByKeyEPKt = comdat any

$_ZN11xercesc_2_710NameIdPoolINS_13DTDEntityDeclEE14findBucketElemEPKtRj = comdat any

$_ZN11xercesc_2_79XMLString4hashEPKtjPNS_13MemoryManagerE = comdat any

$_ZNK11xercesc_2_713XMLEntityDecl6getKeyEv = comdat any

$_ZN11xercesc_2_77LocatorD2Ev = comdat any

$_ZN11xercesc_2_714RefHashTableOfINS_17DatatypeValidatorEE14findBucketElemEPKvRj = comdat any

$_ZN11xercesc_2_712ArrayJanitorItE5resetEPt = comdat any

$_ZN11xercesc_2_714RefHashTableOfINS_9XMLAttDefEE14findBucketElemEPKvRj = comdat any

$_ZN11xercesc_2_714RefHashTableOfIjE14findBucketElemEPKvRj = comdat any

$_ZN11xercesc_2_714RefHashTableOfIjE6rehashEv = comdat any

$_ZN11xercesc_2_722RefHashTableBucketElemIjEC2EPvPjPS1_ = comdat any

$_ZN11xercesc_2_712ArrayJanitorIPNS_22RefHashTableBucketElemIjEEEC2EPS3_PNS_13MemoryManagerE = comdat any

$_ZN11xercesc_2_712ArrayJanitorIPNS_22RefHashTableBucketElemIjEEE7releaseEv = comdat any

$_ZN11xercesc_2_712ArrayJanitorIPNS_22RefHashTableBucketElemIjEEED2Ev = comdat any

$_ZN11xercesc_2_712ArrayJanitorIPNS_22RefHashTableBucketElemIjEEE5resetEPS3_ = comdat any

$_ZNK11xercesc_2_714RefHashTableOfIjE14findBucketElemEPKvRj = comdat any

$_ZNK11xercesc_2_719RefHash2KeysTableOfIjE14findBucketElemEPKviRj = comdat any

$_ZN11xercesc_2_719RefHash2KeysTableOfIjE6rehashEv = comdat any

$_ZN11xercesc_2_719RefHash2KeysTableOfIjE14findBucketElemEPKviRj = comdat any

$_ZN11xercesc_2_727RefHash2KeysTableBucketElemIjEC2EPviPjPS1_ = comdat any

$_ZN11xercesc_2_712ArrayJanitorIPNS_27RefHash2KeysTableBucketElemIjEEEC2EPS3_PNS_13MemoryManagerE = comdat any

$_ZN11xercesc_2_712ArrayJanitorIPNS_27RefHash2KeysTableBucketElemIjEEE7releaseEv = comdat any

$_ZN11xercesc_2_712ArrayJanitorIPNS_27RefHash2KeysTableBucketElemIjEEED2Ev = comdat any

$_ZN11xercesc_2_712ArrayJanitorIPNS_27RefHash2KeysTableBucketElemIjEEE5resetEPS3_ = comdat any

$_ZNK11xercesc_2_719RefHash2KeysTableOfINS_7XMLAttrEE14findBucketElemEPKviRj = comdat any

$_ZN11xercesc_2_715BaseRefVectorOfINS_7XMLAttrEE19ensureExtraCapacityEj = comdat any

$_ZN11xercesc_2_719RefHash2KeysTableOfINS_7XMLAttrEE6rehashEv = comdat any

$_ZN11xercesc_2_719RefHash2KeysTableOfINS_7XMLAttrEE14findBucketElemEPKviRj = comdat any

$_ZN11xercesc_2_727RefHash2KeysTableBucketElemINS_7XMLAttrEEC2EPviPS1_PS2_ = comdat any

$_ZN11xercesc_2_712ArrayJanitorIPNS_27RefHash2KeysTableBucketElemINS_7XMLAttrEEEEC2EPS4_PNS_13MemoryManagerE = comdat any

$_ZN11xercesc_2_712ArrayJanitorIPNS_27RefHash2KeysTableBucketElemINS_7XMLAttrEEEE7releaseEv = comdat any

$_ZN11xercesc_2_712ArrayJanitorIPNS_27RefHash2KeysTableBucketElemINS_7XMLAttrEEEED2Ev = comdat any

$_ZN11xercesc_2_712ArrayJanitorIPNS_27RefHash2KeysTableBucketElemINS_7XMLAttrEEEE5resetEPS4_ = comdat any

$_ZN11xercesc_2_713ValueVectorOfIbEC2EjPNS_13MemoryManagerEb = comdat any

$_ZN11xercesc_2_713ValueVectorOfIbE17removeAllElementsEv = comdat any

$_ZNK11xercesc_2_714RefHashTableOfIjE7isEmptyEv = comdat any

$_ZNK11xercesc_2_719RefHash2KeysTableOfIjE7isEmptyEv = comdat any

$_ZN11xercesc_2_77JanitorINS_11InputSourceEE5resetEPS1_ = comdat any

$_ZTVN11xercesc_2_710XMLRefInfoE = comdat any

$_ZTVN11xercesc_2_713PSVIAttributeE = comdat any

$_ZTVN11xercesc_2_715ContentSpecNodeE = comdat any

$_ZTSN11xercesc_2_716RuntimeExceptionE = comdat any

$_ZTIN11xercesc_2_716RuntimeExceptionE = comdat any

$_ZTSN11xercesc_2_721MalformedURLExceptionE = comdat any

$_ZTIN11xercesc_2_721MalformedURLExceptionE = comdat any

$_ZTSN11xercesc_2_720EndOfEntityExceptionE = comdat any

$_ZTIN11xercesc_2_720EndOfEntityExceptionE = comdat any

$_ZTSN11xercesc_2_722UnexpectedEOFExceptionE = comdat any

$_ZTIN11xercesc_2_722UnexpectedEOFExceptionE = comdat any

$_ZTVN11xercesc_2_710XMLDeleterE = comdat any

$_ZTSN11xercesc_2_710XMLDeleterE = comdat any

$_ZTIN11xercesc_2_710XMLDeleterE = comdat any

$_ZTSN11xercesc_2_710XMLRefInfoE = comdat any

$_ZTSN11xercesc_2_713XSerializableE = comdat any

$_ZTIN11xercesc_2_713XSerializableE = comdat any

$_ZTSN11xercesc_2_77XMemoryE = comdat any

$_ZTIN11xercesc_2_77XMemoryE = comdat any

$_ZTIN11xercesc_2_710XMLRefInfoE = comdat any

$_ZTVN11xercesc_2_713DTDEntityDeclE = comdat any

$_ZTSN11xercesc_2_713DTDEntityDeclE = comdat any

$_ZTIN11xercesc_2_713DTDEntityDeclE = comdat any

$_ZTVN11xercesc_2_713XMLAttDefListE = comdat any

$_ZTSN11xercesc_2_713XMLAttDefListE = comdat any

$_ZTIN11xercesc_2_713XMLAttDefListE = comdat any

$_ZTVN11xercesc_2_78PSVIItemE = comdat any

$_ZTSN11xercesc_2_78PSVIItemE = comdat any

$_ZTIN11xercesc_2_78PSVIItemE = comdat any

$_ZTSN11xercesc_2_713PSVIAttributeE = comdat any

$_ZTIN11xercesc_2_713PSVIAttributeE = comdat any

$_ZTSN11xercesc_2_715ContentSpecNodeE = comdat any

$_ZTIN11xercesc_2_715ContentSpecNodeE = comdat any

$_ZTVN11xercesc_2_711PSVIHandlerE = comdat any

$_ZTSN11xercesc_2_711PSVIHandlerE = comdat any

$_ZTIN11xercesc_2_711PSVIHandlerE = comdat any

$_ZTVN11xercesc_2_710XSDLocatorE = comdat any

$_ZTSN11xercesc_2_710XSDLocatorE = comdat any

$_ZTSN11xercesc_2_77LocatorE = comdat any

$_ZTIN11xercesc_2_77LocatorE = comdat any

$_ZTIN11xercesc_2_710XSDLocatorE = comdat any

$_ZTSN11xercesc_2_719EmptyStackExceptionE = comdat any

$_ZTIN11xercesc_2_719EmptyStackExceptionE = comdat any

$_ZTVN11xercesc_2_719EmptyStackExceptionE = comdat any

$_ZTSN11xercesc_2_730ArrayIndexOutOfBoundsExceptionE = comdat any

$_ZTIN11xercesc_2_730ArrayIndexOutOfBoundsExceptionE = comdat any

$_ZTVN11xercesc_2_730ArrayIndexOutOfBoundsExceptionE = comdat any

$_ZTSN11xercesc_2_724IllegalArgumentExceptionE = comdat any

$_ZTIN11xercesc_2_724IllegalArgumentExceptionE = comdat any

$_ZTVN11xercesc_2_724IllegalArgumentExceptionE = comdat any

$_ZTVN11xercesc_2_716RuntimeExceptionE = comdat any

$_ZTVN11xercesc_2_721MalformedURLExceptionE = comdat any

$_ZTVN11xercesc_2_722UnexpectedEOFExceptionE = comdat any

@_ZTVN11xercesc_2_710XMLRefInfoE = linkonce_odr dso_local unnamed_addr constant { [7 x i8*] } { [7 x i8*] [i8* null, i8* bitcast ({ i8*, i8*, i32, i32, i8*, i64, i8*, i64 }* @_ZTIN11xercesc_2_710XMLRefInfoE to i8*), i8* bitcast (void (%"class.xercesc_2_7::XMLRefInfo"*)* @_ZN11xercesc_2_710XMLRefInfoD2Ev to i8*), i8* bitcast (void (%"class.xercesc_2_7::XMLRefInfo"*)* @_ZN11xercesc_2_710XMLRefInfoD0Ev to i8*), i8* bitcast (i1 (%"class.xercesc_2_7::XMLRefInfo"*)* @_ZNK11xercesc_2_710XMLRefInfo14isSerializableEv to i8*), i8* bitcast (void (%"class.xercesc_2_7::XMLRefInfo"*, %"class.xercesc_2_7::XSerializeEngine"*)* @_ZN11xercesc_2_710XMLRefInfo9serializeERNS_16XSerializeEngineE to i8*), i8* bitcast (%"class.xercesc_2_7::XProtoType"* (%"class.xercesc_2_7::XMLRefInfo"*)* @_ZNK11xercesc_2_710XMLRefInfo12getProtoTypeEv to i8*)] }, comdat, align 8
@_ZTVN11xercesc_2_713PSVIAttributeE = linkonce_odr dso_local unnamed_addr constant { [7 x i8*] } { [7 x i8*] [i8* null, i8* bitcast ({ i8*, i8*, i8* }* @_ZTIN11xercesc_2_713PSVIAttributeE to i8*), i8* bitcast (void (%"class.xercesc_2_7::PSVIAttribute"*)* @_ZN11xercesc_2_713PSVIAttributeD2Ev to i8*), i8* bitcast (void (%"class.xercesc_2_7::PSVIAttribute"*)* @_ZN11xercesc_2_713PSVIAttributeD0Ev to i8*), i8* bitcast (%"class.xercesc_2_7::XSTypeDefinition"* (%"class.xercesc_2_7::PSVIAttribute"*)* @_ZN11xercesc_2_713PSVIAttribute17getTypeDefinitionEv to i8*), i8* bitcast (%"class.xercesc_2_7::XSSimpleTypeDefinition"* (%"class.xercesc_2_7::PSVIAttribute"*)* @_ZN11xercesc_2_713PSVIAttribute23getMemberTypeDefinitionEv to i8*), i8* bitcast (%"class.xercesc_2_7::XSValue"* (%"class.xercesc_2_7::PSVIItem"*)* @_ZNK11xercesc_2_78PSVIItem14getActualValueEv to i8*)] }, comdat, align 8
@_ZTVN11xercesc_2_715ContentSpecNodeE = linkonce_odr dso_local unnamed_addr constant { [7 x i8*] } { [7 x i8*] [i8* null, i8* bitcast ({ i8*, i8*, i32, i32, i8*, i64, i8*, i64 }* @_ZTIN11xercesc_2_715ContentSpecNodeE to i8*), i8* bitcast (void (%"class.xercesc_2_7::ContentSpecNode"*)* @_ZN11xercesc_2_715ContentSpecNodeD2Ev to i8*), i8* bitcast (void (%"class.xercesc_2_7::ContentSpecNode"*)* @_ZN11xercesc_2_715ContentSpecNodeD0Ev to i8*), i8* bitcast (i1 (%"class.xercesc_2_7::ContentSpecNode"*)* @_ZNK11xercesc_2_715ContentSpecNode14isSerializableEv to i8*), i8* bitcast (void (%"class.xercesc_2_7::ContentSpecNode"*, %"class.xercesc_2_7::XSerializeEngine"*)* @_ZN11xercesc_2_715ContentSpecNode9serializeERNS_16XSerializeEngineE to i8*), i8* bitcast (%"class.xercesc_2_7::XProtoType"* (%"class.xercesc_2_7::ContentSpecNode"*)* @_ZNK11xercesc_2_715ContentSpecNode12getProtoTypeEv to i8*)] }, comdat, align 8
@_ZN11xercesc_2_76XMLUni15fgZeroLenStringE = external dso_local constant [0 x i16], align 2
@_ZN11xercesc_2_76XMLUni13fgXMLNSStringE = external dso_local constant [0 x i16], align 2
@_ZN11xercesc_2_713SchemaSymbols9fgURI_XSIE = external dso_local constant [0 x i16], align 2
@_ZN11xercesc_2_713SchemaSymbols18fgDT_ANYSIMPLETYPEE = external dso_local constant [0 x i16], align 2
@_ZN11xercesc_2_713SchemaSymbols11fgDT_ANYURIE = external dso_local constant [0 x i16], align 2
@_ZN11xercesc_2_76XMLUni11fgXMLStringE = external dso_local constant [0 x i16], align 2
@_ZN11xercesc_2_76XMLUni17fgDTDEntityStringE = external dso_local constant [0 x i16], align 2
@.str = private unnamed_addr constant [18 x i8] c"IGXMLScanner2.cpp\00", align 1
@_ZTVN10__cxxabiv120__si_class_type_infoE = external dso_local global i8*
@_ZTSN11xercesc_2_716RuntimeExceptionE = linkonce_odr dso_local constant [34 x i8] c"N11xercesc_2_716RuntimeExceptionE\00", comdat, align 1
@_ZTIN11xercesc_2_712XMLExceptionE = external dso_local constant i8*
@_ZTIN11xercesc_2_716RuntimeExceptionE = linkonce_odr dso_local constant { i8*, i8*, i8* } { i8* bitcast (i8** getelementptr inbounds (i8*, i8** @_ZTVN10__cxxabiv120__si_class_type_infoE, i64 2) to i8*), i8* getelementptr inbounds ([34 x i8], [34 x i8]* @_ZTSN11xercesc_2_716RuntimeExceptionE, i32 0, i32 0), i8* bitcast (i8** @_ZTIN11xercesc_2_712XMLExceptionE to i8*) }, comdat, align 8
@_ZN11xercesc_2_76XMLUni12fgXMLURINameE = external dso_local constant [0 x i16], align 2
@_ZN11xercesc_2_76XMLUni14fgXMLNSURINameE = external dso_local constant [0 x i16], align 2
@_ZN11xercesc_2_76XMLUni18fgXMLNSColonStringE = external dso_local constant [0 x i16], align 2
@_ZN11xercesc_2_713SchemaSymbols21fgXSI_SCHEMALOCACTIONE = external dso_local constant [0 x i16], align 2
@_ZN11xercesc_2_713SchemaSymbols32fgXSI_NONAMESPACESCHEMALOCACTIONE = external dso_local constant [0 x i16], align 2
@_ZN11xercesc_2_713SchemaSymbols10fgXSI_TYPEE = external dso_local constant [0 x i16], align 2
@_ZN11xercesc_2_713SchemaSymbols10fgATT_NILLE = external dso_local constant [0 x i16], align 2
@_ZN11xercesc_2_713SchemaSymbols13fgATTVAL_TRUEE = external dso_local constant [0 x i16], align 2
@_ZTSN11xercesc_2_721MalformedURLExceptionE = linkonce_odr dso_local constant [39 x i8] c"N11xercesc_2_721MalformedURLExceptionE\00", comdat, align 1
@_ZTIN11xercesc_2_721MalformedURLExceptionE = linkonce_odr dso_local constant { i8*, i8*, i8* } { i8* bitcast (i8** getelementptr inbounds (i8*, i8** @_ZTVN10__cxxabiv120__si_class_type_infoE, i64 2) to i8*), i8* getelementptr inbounds ([39 x i8], [39 x i8]* @_ZTSN11xercesc_2_721MalformedURLExceptionE, i32 0, i32 0), i8* bitcast (i8** @_ZTIN11xercesc_2_712XMLExceptionE to i8*) }, comdat, align 8
@_ZN11xercesc_2_713SchemaSymbols21fgATT_TARGETNAMESPACEE = external dso_local constant [0 x i16], align 2
@_ZTVN10__cxxabiv117__class_type_infoE = external dso_local global i8*
@_ZTSN11xercesc_2_720EndOfEntityExceptionE = linkonce_odr dso_local constant [38 x i8] c"N11xercesc_2_720EndOfEntityExceptionE\00", comdat, align 1
@_ZTIN11xercesc_2_720EndOfEntityExceptionE = linkonce_odr dso_local constant { i8*, i8* } { i8* bitcast (i8** getelementptr inbounds (i8*, i8** @_ZTVN10__cxxabiv117__class_type_infoE, i64 2) to i8*), i8* getelementptr inbounds ([38 x i8], [38 x i8]* @_ZTSN11xercesc_2_720EndOfEntityExceptionE, i32 0, i32 0) }, comdat, align 8
@_ZTSN11xercesc_2_722UnexpectedEOFExceptionE = linkonce_odr dso_local constant [40 x i8] c"N11xercesc_2_722UnexpectedEOFExceptionE\00", comdat, align 1
@_ZTIN11xercesc_2_722UnexpectedEOFExceptionE = linkonce_odr dso_local constant { i8*, i8*, i8* } { i8* bitcast (i8** getelementptr inbounds (i8*, i8** @_ZTVN10__cxxabiv120__si_class_type_infoE, i64 2) to i8*), i8* getelementptr inbounds ([40 x i8], [40 x i8]* @_ZTSN11xercesc_2_722UnexpectedEOFExceptionE, i32 0, i32 0), i8* bitcast (i8** @_ZTIN11xercesc_2_712XMLExceptionE to i8*) }, comdat, align 8
@_ZZN11xercesc_2_712IGXMLScanner13scanCDSectionEvE10CDataClose = internal constant [3 x i16] [i16 93, i16 62, i16 0], align 2, !dbg !0
@_ZN11xercesc_2_715XMLContentModel13gInvalidTransE = external dso_local constant i32, align 4
@_ZTVN11xercesc_2_710XMLDeleterE = linkonce_odr dso_local unnamed_addr constant { [4 x i8*] } { [4 x i8*] [i8* null, i8* bitcast ({ i8*, i8* }* @_ZTIN11xercesc_2_710XMLDeleterE to i8*), i8* bitcast (void (%"class.xercesc_2_7::XMLDeleter"*)* @_ZN11xercesc_2_710XMLDeleterD2Ev to i8*), i8* bitcast (void (%"class.xercesc_2_7::XMLDeleter"*)* @_ZN11xercesc_2_710XMLDeleterD0Ev to i8*)] }, comdat, align 8
@_ZTSN11xercesc_2_710XMLDeleterE = linkonce_odr dso_local constant [28 x i8] c"N11xercesc_2_710XMLDeleterE\00", comdat, align 1
@_ZTIN11xercesc_2_710XMLDeleterE = linkonce_odr dso_local constant { i8*, i8* } { i8* bitcast (i8** getelementptr inbounds (i8*, i8** @_ZTVN10__cxxabiv117__class_type_infoE, i64 2) to i8*), i8* getelementptr inbounds ([28 x i8], [28 x i8]* @_ZTSN11xercesc_2_710XMLDeleterE, i32 0, i32 0) }, comdat, align 8
@_ZTVN10__cxxabiv121__vmi_class_type_infoE = external dso_local global i8*
@_ZTSN11xercesc_2_710XMLRefInfoE = linkonce_odr dso_local constant [28 x i8] c"N11xercesc_2_710XMLRefInfoE\00", comdat, align 1
@_ZTSN11xercesc_2_713XSerializableE = linkonce_odr dso_local constant [31 x i8] c"N11xercesc_2_713XSerializableE\00", comdat, align 1
@_ZTIN11xercesc_2_713XSerializableE = linkonce_odr dso_local constant { i8*, i8* } { i8* bitcast (i8** getelementptr inbounds (i8*, i8** @_ZTVN10__cxxabiv117__class_type_infoE, i64 2) to i8*), i8* getelementptr inbounds ([31 x i8], [31 x i8]* @_ZTSN11xercesc_2_713XSerializableE, i32 0, i32 0) }, comdat, align 8
@_ZTSN11xercesc_2_77XMemoryE = linkonce_odr dso_local constant [24 x i8] c"N11xercesc_2_77XMemoryE\00", comdat, align 1
@_ZTIN11xercesc_2_77XMemoryE = linkonce_odr dso_local constant { i8*, i8* } { i8* bitcast (i8** getelementptr inbounds (i8*, i8** @_ZTVN10__cxxabiv117__class_type_infoE, i64 2) to i8*), i8* getelementptr inbounds ([24 x i8], [24 x i8]* @_ZTSN11xercesc_2_77XMemoryE, i32 0, i32 0) }, comdat, align 8
@_ZTIN11xercesc_2_710XMLRefInfoE = linkonce_odr dso_local constant { i8*, i8*, i32, i32, i8*, i64, i8*, i64 } { i8* bitcast (i8** getelementptr inbounds (i8*, i8** @_ZTVN10__cxxabiv121__vmi_class_type_infoE, i64 2) to i8*), i8* getelementptr inbounds ([28 x i8], [28 x i8]* @_ZTSN11xercesc_2_710XMLRefInfoE, i32 0, i32 0), i32 0, i32 2, i8* bitcast ({ i8*, i8* }* @_ZTIN11xercesc_2_713XSerializableE to i8*), i64 2, i8* bitcast ({ i8*, i8* }* @_ZTIN11xercesc_2_77XMemoryE to i8*), i64 2 }, comdat, align 8
@_ZTVN11xercesc_2_713DTDEntityDeclE = linkonce_odr dso_local unnamed_addr constant { [10 x i8*] } { [10 x i8*] [i8* null, i8* bitcast ({ i8*, i8*, i8* }* @_ZTIN11xercesc_2_713DTDEntityDeclE to i8*), i8* bitcast (void (%"class.xercesc_2_7::DTDEntityDecl"*)* @_ZN11xercesc_2_713DTDEntityDeclD2Ev to i8*), i8* bitcast (void (%"class.xercesc_2_7::DTDEntityDecl"*)* @_ZN11xercesc_2_713DTDEntityDeclD0Ev to i8*), i8* bitcast (i1 (%"class.xercesc_2_7::DTDEntityDecl"*)* @_ZNK11xercesc_2_713DTDEntityDecl14isSerializableEv to i8*), i8* bitcast (void (%"class.xercesc_2_7::DTDEntityDecl"*, %"class.xercesc_2_7::XSerializeEngine"*)* @_ZN11xercesc_2_713DTDEntityDecl9serializeERNS_16XSerializeEngineE to i8*), i8* bitcast (%"class.xercesc_2_7::XProtoType"* (%"class.xercesc_2_7::DTDEntityDecl"*)* @_ZNK11xercesc_2_713DTDEntityDecl12getProtoTypeEv to i8*), i8* bitcast (i1 (%"class.xercesc_2_7::DTDEntityDecl"*)* @_ZNK11xercesc_2_713DTDEntityDecl22getDeclaredInIntSubsetEv to i8*), i8* bitcast (i1 (%"class.xercesc_2_7::DTDEntityDecl"*)* @_ZNK11xercesc_2_713DTDEntityDecl14getIsParameterEv to i8*), i8* bitcast (i1 (%"class.xercesc_2_7::DTDEntityDecl"*)* @_ZNK11xercesc_2_713DTDEntityDecl16getIsSpecialCharEv to i8*)] }, comdat, align 8
@_ZTSN11xercesc_2_713DTDEntityDeclE = linkonce_odr dso_local constant [31 x i8] c"N11xercesc_2_713DTDEntityDeclE\00", comdat, align 1
@_ZTIN11xercesc_2_713XMLEntityDeclE = external dso_local constant i8*
@_ZTIN11xercesc_2_713DTDEntityDeclE = linkonce_odr dso_local constant { i8*, i8*, i8* } { i8* bitcast (i8** getelementptr inbounds (i8*, i8** @_ZTVN10__cxxabiv120__si_class_type_infoE, i64 2) to i8*), i8* getelementptr inbounds ([31 x i8], [31 x i8]* @_ZTSN11xercesc_2_713DTDEntityDeclE, i32 0, i32 0), i8* bitcast (i8** @_ZTIN11xercesc_2_713XMLEntityDeclE to i8*) }, comdat, align 8
@_ZTVN11xercesc_2_713XMLAttDefListE = linkonce_odr dso_local unnamed_addr constant { [18 x i8*] } { [18 x i8*] [i8* null, i8* bitcast ({ i8*, i8*, i32, i32, i8*, i64, i8*, i64 }* @_ZTIN11xercesc_2_713XMLAttDefListE to i8*), i8* bitcast (void (%"class.xercesc_2_7::XMLAttDefList"*)* @_ZN11xercesc_2_713XMLAttDefListD2Ev to i8*), i8* bitcast (void (%"class.xercesc_2_7::XMLAttDefList"*)* @_ZN11xercesc_2_713XMLAttDefListD0Ev to i8*), i8* bitcast (i1 (%"class.xercesc_2_7::XMLAttDefList"*)* @_ZNK11xercesc_2_713XMLAttDefList14isSerializableEv to i8*), i8* bitcast (void (%"class.xercesc_2_7::XMLAttDefList"*, %"class.xercesc_2_7::XSerializeEngine"*)* @_ZN11xercesc_2_713XMLAttDefList9serializeERNS_16XSerializeEngineE to i8*), i8* bitcast (%"class.xercesc_2_7::XProtoType"* (%"class.xercesc_2_7::XMLAttDefList"*)* @_ZNK11xercesc_2_713XMLAttDefList12getProtoTypeEv to i8*), i8* bitcast (void ()* @__cxa_pure_virtual to i8*), i8* bitcast (void ()* @__cxa_pure_virtual to i8*), i8* bitcast (void ()* @__cxa_pure_virtual to i8*), i8* bitcast (void ()* @__cxa_pure_virtual to i8*), i8* bitcast (void ()* @__cxa_pure_virtual to i8*), i8* bitcast (void ()* @__cxa_pure_virtual to i8*), i8* bitcast (void ()* @__cxa_pure_virtual to i8*), i8* bitcast (void ()* @__cxa_pure_virtual to i8*), i8* bitcast (void ()* @__cxa_pure_virtual to i8*), i8* bitcast (void ()* @__cxa_pure_virtual to i8*), i8* bitcast (void ()* @__cxa_pure_virtual to i8*)] }, comdat, align 8
@_ZTSN11xercesc_2_713XMLAttDefListE = linkonce_odr dso_local constant [31 x i8] c"N11xercesc_2_713XMLAttDefListE\00", comdat, align 1
@_ZTIN11xercesc_2_713XMLAttDefListE = linkonce_odr dso_local constant { i8*, i8*, i32, i32, i8*, i64, i8*, i64 } { i8* bitcast (i8** getelementptr inbounds (i8*, i8** @_ZTVN10__cxxabiv121__vmi_class_type_infoE, i64 2) to i8*), i8* getelementptr inbounds ([31 x i8], [31 x i8]* @_ZTSN11xercesc_2_713XMLAttDefListE, i32 0, i32 0), i32 0, i32 2, i8* bitcast ({ i8*, i8* }* @_ZTIN11xercesc_2_713XSerializableE to i8*), i64 2, i8* bitcast ({ i8*, i8* }* @_ZTIN11xercesc_2_77XMemoryE to i8*), i64 2 }, comdat, align 8
@_ZTVN11xercesc_2_78PSVIItemE = linkonce_odr dso_local unnamed_addr constant { [7 x i8*] } { [7 x i8*] [i8* null, i8* bitcast ({ i8*, i8*, i8* }* @_ZTIN11xercesc_2_78PSVIItemE to i8*), i8* bitcast (void (%"class.xercesc_2_7::PSVIItem"*)* @_ZN11xercesc_2_78PSVIItemD2Ev to i8*), i8* bitcast (void (%"class.xercesc_2_7::PSVIItem"*)* @_ZN11xercesc_2_78PSVIItemD0Ev to i8*), i8* bitcast (void ()* @__cxa_pure_virtual to i8*), i8* bitcast (void ()* @__cxa_pure_virtual to i8*), i8* bitcast (%"class.xercesc_2_7::XSValue"* (%"class.xercesc_2_7::PSVIItem"*)* @_ZNK11xercesc_2_78PSVIItem14getActualValueEv to i8*)] }, comdat, align 8
@_ZTSN11xercesc_2_78PSVIItemE = linkonce_odr dso_local constant [25 x i8] c"N11xercesc_2_78PSVIItemE\00", comdat, align 1
@_ZTIN11xercesc_2_78PSVIItemE = linkonce_odr dso_local constant { i8*, i8*, i8* } { i8* bitcast (i8** getelementptr inbounds (i8*, i8** @_ZTVN10__cxxabiv120__si_class_type_infoE, i64 2) to i8*), i8* getelementptr inbounds ([25 x i8], [25 x i8]* @_ZTSN11xercesc_2_78PSVIItemE, i32 0, i32 0), i8* bitcast ({ i8*, i8* }* @_ZTIN11xercesc_2_77XMemoryE to i8*) }, comdat, align 8
@_ZTSN11xercesc_2_713PSVIAttributeE = linkonce_odr dso_local constant [31 x i8] c"N11xercesc_2_713PSVIAttributeE\00", comdat, align 1
@_ZTIN11xercesc_2_713PSVIAttributeE = linkonce_odr dso_local constant { i8*, i8*, i8* } { i8* bitcast (i8** getelementptr inbounds (i8*, i8** @_ZTVN10__cxxabiv120__si_class_type_infoE, i64 2) to i8*), i8* getelementptr inbounds ([31 x i8], [31 x i8]* @_ZTSN11xercesc_2_713PSVIAttributeE, i32 0, i32 0), i8* bitcast ({ i8*, i8*, i8* }* @_ZTIN11xercesc_2_78PSVIItemE to i8*) }, comdat, align 8
@_ZTSN11xercesc_2_715ContentSpecNodeE = linkonce_odr dso_local constant [33 x i8] c"N11xercesc_2_715ContentSpecNodeE\00", comdat, align 1
@_ZTIN11xercesc_2_715ContentSpecNodeE = linkonce_odr dso_local constant { i8*, i8*, i32, i32, i8*, i64, i8*, i64 } { i8* bitcast (i8** getelementptr inbounds (i8*, i8** @_ZTVN10__cxxabiv121__vmi_class_type_infoE, i64 2) to i8*), i8* getelementptr inbounds ([33 x i8], [33 x i8]* @_ZTSN11xercesc_2_715ContentSpecNodeE, i32 0, i32 0), i32 0, i32 2, i8* bitcast ({ i8*, i8* }* @_ZTIN11xercesc_2_713XSerializableE to i8*), i64 2, i8* bitcast ({ i8*, i8* }* @_ZTIN11xercesc_2_77XMemoryE to i8*), i64 2 }, comdat, align 8
@_ZTVN11xercesc_2_711PSVIHandlerE = linkonce_odr dso_local unnamed_addr constant { [7 x i8*] } { [7 x i8*] [i8* null, i8* bitcast ({ i8*, i8* }* @_ZTIN11xercesc_2_711PSVIHandlerE to i8*), i8* bitcast (void (%"class.xercesc_2_7::PSVIHandler"*)* @_ZN11xercesc_2_711PSVIHandlerD2Ev to i8*), i8* bitcast (void (%"class.xercesc_2_7::PSVIHandler"*)* @_ZN11xercesc_2_711PSVIHandlerD0Ev to i8*), i8* bitcast (void ()* @__cxa_pure_virtual to i8*), i8* bitcast (void (%"class.xercesc_2_7::PSVIHandler"*, i16*, i16*, %"class.xercesc_2_7::PSVIElement"*)* @_ZN11xercesc_2_711PSVIHandler24handlePartialElementPSVIEPKtS2_PNS_11PSVIElementE to i8*), i8* bitcast (void ()* @__cxa_pure_virtual to i8*)] }, comdat, align 8
@_ZTSN11xercesc_2_711PSVIHandlerE = linkonce_odr dso_local constant [29 x i8] c"N11xercesc_2_711PSVIHandlerE\00", comdat, align 1
@_ZTIN11xercesc_2_711PSVIHandlerE = linkonce_odr dso_local constant { i8*, i8* } { i8* bitcast (i8** getelementptr inbounds (i8*, i8** @_ZTVN10__cxxabiv117__class_type_infoE, i64 2) to i8*), i8* getelementptr inbounds ([29 x i8], [29 x i8]* @_ZTSN11xercesc_2_711PSVIHandlerE, i32 0, i32 0) }, comdat, align 8
@_ZTVN11xercesc_2_710XSDLocatorE = linkonce_odr dso_local unnamed_addr constant { [8 x i8*] } { [8 x i8*] [i8* null, i8* bitcast ({ i8*, i8*, i32, i32, i8*, i64, i8*, i64 }* @_ZTIN11xercesc_2_710XSDLocatorE to i8*), i8* bitcast (void (%"class.xercesc_2_7::XSDLocator"*)* @_ZN11xercesc_2_710XSDLocatorD2Ev to i8*), i8* bitcast (void (%"class.xercesc_2_7::XSDLocator"*)* @_ZN11xercesc_2_710XSDLocatorD0Ev to i8*), i8* bitcast (i16* (%"class.xercesc_2_7::XSDLocator"*)* @_ZNK11xercesc_2_710XSDLocator11getPublicIdEv to i8*), i8* bitcast (i16* (%"class.xercesc_2_7::XSDLocator"*)* @_ZNK11xercesc_2_710XSDLocator11getSystemIdEv to i8*), i8* bitcast (i64 (%"class.xercesc_2_7::XSDLocator"*)* @_ZNK11xercesc_2_710XSDLocator13getLineNumberEv to i8*), i8* bitcast (i64 (%"class.xercesc_2_7::XSDLocator"*)* @_ZNK11xercesc_2_710XSDLocator15getColumnNumberEv to i8*)] }, comdat, align 8
@_ZTSN11xercesc_2_710XSDLocatorE = linkonce_odr dso_local constant [28 x i8] c"N11xercesc_2_710XSDLocatorE\00", comdat, align 1
@_ZTSN11xercesc_2_77LocatorE = linkonce_odr dso_local constant [24 x i8] c"N11xercesc_2_77LocatorE\00", comdat, align 1
@_ZTIN11xercesc_2_77LocatorE = linkonce_odr dso_local constant { i8*, i8* } { i8* bitcast (i8** getelementptr inbounds (i8*, i8** @_ZTVN10__cxxabiv117__class_type_infoE, i64 2) to i8*), i8* getelementptr inbounds ([24 x i8], [24 x i8]* @_ZTSN11xercesc_2_77LocatorE, i32 0, i32 0) }, comdat, align 8
@_ZTIN11xercesc_2_710XSDLocatorE = linkonce_odr dso_local constant { i8*, i8*, i32, i32, i8*, i64, i8*, i64 } { i8* bitcast (i8** getelementptr inbounds (i8*, i8** @_ZTVN10__cxxabiv121__vmi_class_type_infoE, i64 2) to i8*), i8* getelementptr inbounds ([28 x i8], [28 x i8]* @_ZTSN11xercesc_2_710XSDLocatorE, i32 0, i32 0), i32 0, i32 2, i8* bitcast ({ i8*, i8* }* @_ZTIN11xercesc_2_77XMemoryE to i8*), i64 2, i8* bitcast ({ i8*, i8* }* @_ZTIN11xercesc_2_77LocatorE to i8*), i64 2 }, comdat, align 8
@.str.1 = private unnamed_addr constant [30 x i8] c"./xercesc/util/ValueStackOf.c\00", align 1
@_ZTSN11xercesc_2_719EmptyStackExceptionE = linkonce_odr dso_local constant [37 x i8] c"N11xercesc_2_719EmptyStackExceptionE\00", comdat, align 1
@_ZTIN11xercesc_2_719EmptyStackExceptionE = linkonce_odr dso_local constant { i8*, i8*, i8* } { i8* bitcast (i8** getelementptr inbounds (i8*, i8** @_ZTVN10__cxxabiv120__si_class_type_infoE, i64 2) to i8*), i8* getelementptr inbounds ([37 x i8], [37 x i8]* @_ZTSN11xercesc_2_719EmptyStackExceptionE, i32 0, i32 0), i8* bitcast (i8** @_ZTIN11xercesc_2_712XMLExceptionE to i8*) }, comdat, align 8
@_ZTVN11xercesc_2_719EmptyStackExceptionE = linkonce_odr dso_local unnamed_addr constant { [6 x i8*] } { [6 x i8*] [i8* null, i8* bitcast ({ i8*, i8*, i8* }* @_ZTIN11xercesc_2_719EmptyStackExceptionE to i8*), i8* bitcast (void (%"class.xercesc_2_7::EmptyStackException"*)* @_ZN11xercesc_2_719EmptyStackExceptionD2Ev to i8*), i8* bitcast (void (%"class.xercesc_2_7::EmptyStackException"*)* @_ZN11xercesc_2_719EmptyStackExceptionD0Ev to i8*), i8* bitcast (i16* (%"class.xercesc_2_7::EmptyStackException"*)* @_ZNK11xercesc_2_719EmptyStackException7getTypeEv to i8*), i8* bitcast (%"class.xercesc_2_7::XMLException"* (%"class.xercesc_2_7::EmptyStackException"*)* @_ZNK11xercesc_2_719EmptyStackException9duplicateEv to i8*)] }, comdat, align 8
@_ZN11xercesc_2_76XMLUni26fgEmptyStackException_NameE = external dso_local constant [0 x i16], align 2
@.str.2 = private unnamed_addr constant [31 x i8] c"./xercesc/util/ValueVectorOf.c\00", align 1
@_ZTSN11xercesc_2_730ArrayIndexOutOfBoundsExceptionE = linkonce_odr dso_local constant [48 x i8] c"N11xercesc_2_730ArrayIndexOutOfBoundsExceptionE\00", comdat, align 1
@_ZTIN11xercesc_2_730ArrayIndexOutOfBoundsExceptionE = linkonce_odr dso_local constant { i8*, i8*, i8* } { i8* bitcast (i8** getelementptr inbounds (i8*, i8** @_ZTVN10__cxxabiv120__si_class_type_infoE, i64 2) to i8*), i8* getelementptr inbounds ([48 x i8], [48 x i8]* @_ZTSN11xercesc_2_730ArrayIndexOutOfBoundsExceptionE, i32 0, i32 0), i8* bitcast (i8** @_ZTIN11xercesc_2_712XMLExceptionE to i8*) }, comdat, align 8
@_ZTVN11xercesc_2_730ArrayIndexOutOfBoundsExceptionE = linkonce_odr dso_local unnamed_addr constant { [6 x i8*] } { [6 x i8*] [i8* null, i8* bitcast ({ i8*, i8*, i8* }* @_ZTIN11xercesc_2_730ArrayIndexOutOfBoundsExceptionE to i8*), i8* bitcast (void (%"class.xercesc_2_7::ArrayIndexOutOfBoundsException"*)* @_ZN11xercesc_2_730ArrayIndexOutOfBoundsExceptionD2Ev to i8*), i8* bitcast (void (%"class.xercesc_2_7::ArrayIndexOutOfBoundsException"*)* @_ZN11xercesc_2_730ArrayIndexOutOfBoundsExceptionD0Ev to i8*), i8* bitcast (i16* (%"class.xercesc_2_7::ArrayIndexOutOfBoundsException"*)* @_ZNK11xercesc_2_730ArrayIndexOutOfBoundsException7getTypeEv to i8*), i8* bitcast (%"class.xercesc_2_7::XMLException"* (%"class.xercesc_2_7::ArrayIndexOutOfBoundsException"*)* @_ZNK11xercesc_2_730ArrayIndexOutOfBoundsException9duplicateEv to i8*)] }, comdat, align 8
@_ZN11xercesc_2_76XMLUni37fgArrayIndexOutOfBoundsException_NameE = external dso_local constant [0 x i16], align 2
@.str.3 = private unnamed_addr constant [37 x i8] c"./xercesc/util/RefHash2KeysTableOf.c\00", align 1
@_ZTSN11xercesc_2_724IllegalArgumentExceptionE = linkonce_odr dso_local constant [42 x i8] c"N11xercesc_2_724IllegalArgumentExceptionE\00", comdat, align 1
@_ZTIN11xercesc_2_724IllegalArgumentExceptionE = linkonce_odr dso_local constant { i8*, i8*, i8* } { i8* bitcast (i8** getelementptr inbounds (i8*, i8** @_ZTVN10__cxxabiv120__si_class_type_infoE, i64 2) to i8*), i8* getelementptr inbounds ([42 x i8], [42 x i8]* @_ZTSN11xercesc_2_724IllegalArgumentExceptionE, i32 0, i32 0), i8* bitcast (i8** @_ZTIN11xercesc_2_712XMLExceptionE to i8*) }, comdat, align 8
@_ZTVN11xercesc_2_724IllegalArgumentExceptionE = linkonce_odr dso_local unnamed_addr constant { [6 x i8*] } { [6 x i8*] [i8* null, i8* bitcast ({ i8*, i8*, i8* }* @_ZTIN11xercesc_2_724IllegalArgumentExceptionE to i8*), i8* bitcast (void (%"class.xercesc_2_7::IllegalArgumentException"*)* @_ZN11xercesc_2_724IllegalArgumentExceptionD2Ev to i8*), i8* bitcast (void (%"class.xercesc_2_7::IllegalArgumentException"*)* @_ZN11xercesc_2_724IllegalArgumentExceptionD0Ev to i8*), i8* bitcast (i16* (%"class.xercesc_2_7::IllegalArgumentException"*)* @_ZNK11xercesc_2_724IllegalArgumentException7getTypeEv to i8*), i8* bitcast (%"class.xercesc_2_7::XMLException"* (%"class.xercesc_2_7::IllegalArgumentException"*)* @_ZNK11xercesc_2_724IllegalArgumentException9duplicateEv to i8*)] }, comdat, align 8
@_ZN11xercesc_2_76XMLUni31fgIllegalArgumentException_NameE = external dso_local constant [0 x i16], align 2
@_ZN11xercesc_2_724DatatypeValidatorFactory16fBuiltInRegistryE = external dso_local global %"class.xercesc_2_7::RefHashTableOf.14"*, align 8
@.str.4 = private unnamed_addr constant [33 x i8] c"./xercesc/util/BaseRefVectorOf.c\00", align 1
@_ZTVN11xercesc_2_716RuntimeExceptionE = linkonce_odr dso_local unnamed_addr constant { [6 x i8*] } { [6 x i8*] [i8* null, i8* bitcast ({ i8*, i8*, i8* }* @_ZTIN11xercesc_2_716RuntimeExceptionE to i8*), i8* bitcast (void (%"class.xercesc_2_7::RuntimeException"*)* @_ZN11xercesc_2_716RuntimeExceptionD2Ev to i8*), i8* bitcast (void (%"class.xercesc_2_7::RuntimeException"*)* @_ZN11xercesc_2_716RuntimeExceptionD0Ev to i8*), i8* bitcast (i16* (%"class.xercesc_2_7::RuntimeException"*)* @_ZNK11xercesc_2_716RuntimeException7getTypeEv to i8*), i8* bitcast (%"class.xercesc_2_7::XMLException"* (%"class.xercesc_2_7::RuntimeException"*)* @_ZNK11xercesc_2_716RuntimeException9duplicateEv to i8*)] }, comdat, align 8
@_ZN11xercesc_2_76XMLUni23fgRuntimeException_NameE = external dso_local constant [0 x i16], align 2
@_ZTVN11xercesc_2_721MalformedURLExceptionE = linkonce_odr dso_local unnamed_addr constant { [6 x i8*] } { [6 x i8*] [i8* null, i8* bitcast ({ i8*, i8*, i8* }* @_ZTIN11xercesc_2_721MalformedURLExceptionE to i8*), i8* bitcast (void (%"class.xercesc_2_7::MalformedURLException"*)* @_ZN11xercesc_2_721MalformedURLExceptionD2Ev to i8*), i8* bitcast (void (%"class.xercesc_2_7::MalformedURLException"*)* @_ZN11xercesc_2_721MalformedURLExceptionD0Ev to i8*), i8* bitcast (i16* (%"class.xercesc_2_7::MalformedURLException"*)* @_ZNK11xercesc_2_721MalformedURLException7getTypeEv to i8*), i8* bitcast (%"class.xercesc_2_7::XMLException"* (%"class.xercesc_2_7::MalformedURLException"*)* @_ZNK11xercesc_2_721MalformedURLException9duplicateEv to i8*)] }, comdat, align 8
@_ZN11xercesc_2_76XMLUni28fgMalformedURLException_NameE = external dso_local constant [0 x i16], align 2
@_ZTVN11xercesc_2_722UnexpectedEOFExceptionE = linkonce_odr dso_local unnamed_addr constant { [6 x i8*] } { [6 x i8*] [i8* null, i8* bitcast ({ i8*, i8*, i8* }* @_ZTIN11xercesc_2_722UnexpectedEOFExceptionE to i8*), i8* bitcast (void (%"class.xercesc_2_7::UnexpectedEOFException"*)* @_ZN11xercesc_2_722UnexpectedEOFExceptionD2Ev to i8*), i8* bitcast (void (%"class.xercesc_2_7::UnexpectedEOFException"*)* @_ZN11xercesc_2_722UnexpectedEOFExceptionD0Ev to i8*), i8* bitcast (i16* (%"class.xercesc_2_7::UnexpectedEOFException"*)* @_ZNK11xercesc_2_722UnexpectedEOFException7getTypeEv to i8*), i8* bitcast (%"class.xercesc_2_7::XMLException"* (%"class.xercesc_2_7::UnexpectedEOFException"*)* @_ZNK11xercesc_2_722UnexpectedEOFException9duplicateEv to i8*)] }, comdat, align 8
@_ZN11xercesc_2_76XMLUni29fgUnexpectedEOFException_NameE = external dso_local constant [0 x i16], align 2
@_ZN11xercesc_2_710DTDGrammar16fDefaultEntitiesE = external dso_local global %"class.xercesc_2_7::NameIdPool.20"*, align 8

; Function Attrs: nounwind readnone speculatable willreturn
declare void @llvm.dbg.declare(metadata, metadata, metadata) #0

; Function Attrs: noinline nounwind uwtable
define linkonce_odr dso_local void @_ZN11xercesc_2_710XMLDeleterD0Ev(%"class.xercesc_2_7::XMLDeleter"* %this) unnamed_addr #1 comdat align 2 !dbg !3240 {
entry:
  %this.addr = alloca %"class.xercesc_2_7::XMLDeleter"*, align 8
  store %"class.xercesc_2_7::XMLDeleter"* %this, %"class.xercesc_2_7::XMLDeleter"** %this.addr, align 8
  call void @llvm.dbg.declare(metadata %"class.xercesc_2_7::XMLDeleter"** %this.addr, metadata !3259, metadata !DIExpression()), !dbg !3261
  %this1 = load %"class.xercesc_2_7::XMLDeleter"*, %"class.xercesc_2_7::XMLDeleter"** %this.addr, align 8
  call void @_ZN11xercesc_2_710XMLDeleterD2Ev(%"class.xercesc_2_7::XMLDeleter"* %this1) #10, !dbg !3262
  %0 = bitcast %"class.xercesc_2_7::XMLDeleter"* %this1 to i8*, !dbg !3262
  call void @_ZdlPv(i8* %0) #11, !dbg !3262
  ret void, !dbg !3263
}

; Function Attrs: noinline nounwind uwtable
define linkonce_odr dso_local void @_ZN11xercesc_2_710XMLDeleterD2Ev(%"class.xercesc_2_7::XMLDeleter"* %this) unnamed_addr #1 comdat align 2 !dbg !3264 {
entry:
  %this.addr = alloca %"class.xercesc_2_7::XMLDeleter"*, align 8
  store %"class.xercesc_2_7::XMLDeleter"* %this, %"class.xercesc_2_7::XMLDeleter"** %this.addr, align 8
  call void @llvm.dbg.declare(metadata %"class.xercesc_2_7::XMLDeleter"** %this.addr, metadata !3265, metadata !DIExpression()), !dbg !3266
  %this1 = load %"class.xercesc_2_7::XMLDeleter"*, %"class.xercesc_2_7::XMLDeleter"** %this.addr, align 8
  ret void, !dbg !3267
}

; Function Attrs: nobuiltin nounwind
declare dso_local void @_ZdlPv(i8*) #2

declare dso_local i32 @__gxx_personality_v0(...)

; Function Attrs: noinline nounwind uwtable
define linkonce_odr dso_local void @_ZN11xercesc_2_713XSerializableD2Ev(%"class.xercesc_2_7::XSerializable"* %this) unnamed_addr #1 comdat align 2 !dbg !3268 {
entry:
  %this.addr = alloca %"class.xercesc_2_7::XSerializable"*, align 8
  store %"class.xercesc_2_7::XSerializable"* %this, %"class.xercesc_2_7::XSerializable"** %this.addr, align 8
  call void @llvm.dbg.declare(metadata %"class.xercesc_2_7::XSerializable"** %this.addr, metadata !3273, metadata !DIExpression()), !dbg !3274
  %this1 = load %"class.xercesc_2_7::XSerializable"*, %"class.xercesc_2_7::XSerializable"** %this.addr, align 8
  ret void, !dbg !3275
}

; Function Attrs: noinline noreturn nounwind
define linkonce_odr hidden void @__clang_call_terminate(i8* %0) #3 comdat {
  %2 = call i8* @__cxa_begin_catch(i8* %0) #10
  call void @_ZSt9terminatev() #12
  unreachable
}

declare dso_local i8* @__cxa_begin_catch(i8*)

declare dso_local void @_ZSt9terminatev()

; Function Attrs: noinline nounwind uwtable
define linkonce_odr dso_local void @_ZN11xercesc_2_710XMLRefInfoD0Ev(%"class.xercesc_2_7::XMLRefInfo"* %this) unnamed_addr #1 comdat align 2 !dbg !3276 {
entry:
  %this.addr = alloca %"class.xercesc_2_7::XMLRefInfo"*, align 8
  store %"class.xercesc_2_7::XMLRefInfo"* %this, %"class.xercesc_2_7::XMLRefInfo"** %this.addr, align 8
  call void @llvm.dbg.declare(metadata %"class.xercesc_2_7::XMLRefInfo"** %this.addr, metadata !3326, metadata !DIExpression()), !dbg !3328
  %this1 = load %"class.xercesc_2_7::XMLRefInfo"*, %"class.xercesc_2_7::XMLRefInfo"** %this.addr, align 8
  call void @_ZN11xercesc_2_710XMLRefInfoD2Ev(%"class.xercesc_2_7::XMLRefInfo"* %this1) #10, !dbg !3329
  %0 = bitcast %"class.xercesc_2_7::XMLRefInfo"* %this1 to i8*, !dbg !3329
  call void @_ZN11xercesc_2_77XMemorydlEPv(i8* %0) #10, !dbg !3329
  ret void, !dbg !3330
}

; Function Attrs: noinline nounwind uwtable
define linkonce_odr dso_local void @_ZN11xercesc_2_710XMLRefInfoD2Ev(%"class.xercesc_2_7::XMLRefInfo"* %this) unnamed_addr #1 comdat align 2 personality i8* bitcast (i32 (...)* @__gxx_personality_v0 to i8*) !dbg !3331 {
entry:
  %this.addr = alloca %"class.xercesc_2_7::XMLRefInfo"*, align 8
  %exn.slot = alloca i8*
  %ehselector.slot = alloca i32
  store %"class.xercesc_2_7::XMLRefInfo"* %this, %"class.xercesc_2_7::XMLRefInfo"** %this.addr, align 8
  call void @llvm.dbg.declare(metadata %"class.xercesc_2_7::XMLRefInfo"** %this.addr, metadata !3332, metadata !DIExpression()), !dbg !3333
  %this1 = load %"class.xercesc_2_7::XMLRefInfo"*, %"class.xercesc_2_7::XMLRefInfo"** %this.addr, align 8
  %0 = bitcast %"class.xercesc_2_7::XMLRefInfo"* %this1 to i32 (...)***, !dbg !3334
  store i32 (...)** bitcast (i8** getelementptr inbounds ({ [7 x i8*] }, { [7 x i8*] }* @_ZTVN11xercesc_2_710XMLRefInfoE, i32 0, inrange i32 0, i32 2) to i32 (...)**), i32 (...)*** %0, align 8, !dbg !3334
  %fMemoryManager = getelementptr inbounds %"class.xercesc_2_7::XMLRefInfo", %"class.xercesc_2_7::XMLRefInfo"* %this1, i32 0, i32 4, !dbg !3335
  %1 = load %"class.xercesc_2_7::MemoryManager"*, %"class.xercesc_2_7::MemoryManager"** %fMemoryManager, align 8, !dbg !3335
  %fRefName = getelementptr inbounds %"class.xercesc_2_7::XMLRefInfo", %"class.xercesc_2_7::XMLRefInfo"* %this1, i32 0, i32 3, !dbg !3337
  %2 = load i16*, i16** %fRefName, align 8, !dbg !3337
  %3 = bitcast i16* %2 to i8*, !dbg !3337
  %4 = bitcast %"class.xercesc_2_7::MemoryManager"* %1 to void (%"class.xercesc_2_7::MemoryManager"*, i8*)***, !dbg !3338
  %vtable = load void (%"class.xercesc_2_7::MemoryManager"*, i8*)**, void (%"class.xercesc_2_7::MemoryManager"*, i8*)*** %4, align 8, !dbg !3338
  %vfn = getelementptr inbounds void (%"class.xercesc_2_7::MemoryManager"*, i8*)*, void (%"class.xercesc_2_7::MemoryManager"*, i8*)** %vtable, i64 3, !dbg !3338
  %5 = load void (%"class.xercesc_2_7::MemoryManager"*, i8*)*, void (%"class.xercesc_2_7::MemoryManager"*, i8*)** %vfn, align 8, !dbg !3338
  invoke void %5(%"class.xercesc_2_7::MemoryManager"* %1, i8* %3)
          to label %invoke.cont unwind label %lpad, !dbg !3338

invoke.cont:                                      ; preds = %entry
  %6 = bitcast %"class.xercesc_2_7::XMLRefInfo"* %this1 to %"class.xercesc_2_7::XSerializable"*, !dbg !3339
  call void @_ZN11xercesc_2_713XSerializableD2Ev(%"class.xercesc_2_7::XSerializable"* %6) #10, !dbg !3339
  ret void, !dbg !3340

lpad:                                             ; preds = %entry
  %7 = landingpad { i8*, i32 }
          catch i8* null, !dbg !3339
  %8 = extractvalue { i8*, i32 } %7, 0, !dbg !3339
  store i8* %8, i8** %exn.slot, align 8, !dbg !3339
  %9 = extractvalue { i8*, i32 } %7, 1, !dbg !3339
  store i32 %9, i32* %ehselector.slot, align 4, !dbg !3339
  %10 = bitcast %"class.xercesc_2_7::XMLRefInfo"* %this1 to %"class.xercesc_2_7::XSerializable"*, !dbg !3339
  call void @_ZN11xercesc_2_713XSerializableD2Ev(%"class.xercesc_2_7::XSerializable"* %10) #10, !dbg !3339
  br label %terminate.handler, !dbg !3339

terminate.handler:                                ; preds = %lpad
  %exn = load i8*, i8** %exn.slot, align 8, !dbg !3339
  call void @__clang_call_terminate(i8* %exn) #12, !dbg !3339
  unreachable, !dbg !3339
}

; Function Attrs: nounwind
declare dso_local void @_ZN11xercesc_2_77XMemorydlEPv(i8*) #4

; Function Attrs: nounwind
declare dso_local void @_ZN11xercesc_2_713XMLEntityDeclD2Ev(%"class.xercesc_2_7::XMLEntityDecl"*) unnamed_addr #4

; Function Attrs: noinline nounwind uwtable
define linkonce_odr dso_local void @_ZN11xercesc_2_713DTDEntityDeclD0Ev(%"class.xercesc_2_7::DTDEntityDecl"* %this) unnamed_addr #1 comdat align 2 !dbg !3341 {
entry:
  %this.addr = alloca %"class.xercesc_2_7::DTDEntityDecl"*, align 8
  store %"class.xercesc_2_7::DTDEntityDecl"* %this, %"class.xercesc_2_7::DTDEntityDecl"** %this.addr, align 8
  call void @llvm.dbg.declare(metadata %"class.xercesc_2_7::DTDEntityDecl"** %this.addr, metadata !3396, metadata !DIExpression()), !dbg !3398
  %this1 = load %"class.xercesc_2_7::DTDEntityDecl"*, %"class.xercesc_2_7::DTDEntityDecl"** %this.addr, align 8
  call void @_ZN11xercesc_2_713DTDEntityDeclD2Ev(%"class.xercesc_2_7::DTDEntityDecl"* %this1) #10, !dbg !3399
  %0 = bitcast %"class.xercesc_2_7::DTDEntityDecl"* %this1 to i8*, !dbg !3399
  call void @_ZN11xercesc_2_77XMemorydlEPv(i8* %0) #10, !dbg !3399
  ret void, !dbg !3400
}

; Function Attrs: noinline nounwind uwtable
define linkonce_odr dso_local void @_ZN11xercesc_2_713DTDEntityDeclD2Ev(%"class.xercesc_2_7::DTDEntityDecl"* %this) unnamed_addr #1 comdat align 2 !dbg !3401 {
entry:
  %this.addr = alloca %"class.xercesc_2_7::DTDEntityDecl"*, align 8
  store %"class.xercesc_2_7::DTDEntityDecl"* %this, %"class.xercesc_2_7::DTDEntityDecl"** %this.addr, align 8
  call void @llvm.dbg.declare(metadata %"class.xercesc_2_7::DTDEntityDecl"** %this.addr, metadata !3402, metadata !DIExpression()), !dbg !3403
  %this1 = load %"class.xercesc_2_7::DTDEntityDecl"*, %"class.xercesc_2_7::DTDEntityDecl"** %this.addr, align 8
  %0 = bitcast %"class.xercesc_2_7::DTDEntityDecl"* %this1 to %"class.xercesc_2_7::XMLEntityDecl"*, !dbg !3404
  call void @_ZN11xercesc_2_713XMLEntityDeclD2Ev(%"class.xercesc_2_7::XMLEntityDecl"* %0) #10, !dbg !3404
  ret void, !dbg !3406
}

; Function Attrs: noinline nounwind uwtable
define linkonce_odr dso_local void @_ZN11xercesc_2_713XMLAttDefListD0Ev(%"class.xercesc_2_7::XMLAttDefList"* %this) unnamed_addr #1 comdat align 2 !dbg !3407 {
entry:
  %this.addr = alloca %"class.xercesc_2_7::XMLAttDefList"*, align 8
  store %"class.xercesc_2_7::XMLAttDefList"* %this, %"class.xercesc_2_7::XMLAttDefList"** %this.addr, align 8
  call void @llvm.dbg.declare(metadata %"class.xercesc_2_7::XMLAttDefList"** %this.addr, metadata !3475, metadata !DIExpression()), !dbg !3477
  %this1 = load %"class.xercesc_2_7::XMLAttDefList"*, %"class.xercesc_2_7::XMLAttDefList"** %this.addr, align 8
  call void @llvm.trap() #12, !dbg !3478
  unreachable, !dbg !3478
}

; Function Attrs: cold noreturn nounwind
declare void @llvm.trap() #5

; Function Attrs: noinline nounwind uwtable
define linkonce_odr dso_local void @_ZN11xercesc_2_78PSVIItemD0Ev(%"class.xercesc_2_7::PSVIItem"* %this) unnamed_addr #1 comdat align 2 !dbg !3479 {
entry:
  %this.addr = alloca %"class.xercesc_2_7::PSVIItem"*, align 8
  store %"class.xercesc_2_7::PSVIItem"* %this, %"class.xercesc_2_7::PSVIItem"** %this.addr, align 8
  call void @llvm.dbg.declare(metadata %"class.xercesc_2_7::PSVIItem"** %this.addr, metadata !3480, metadata !DIExpression()), !dbg !3482
  %this1 = load %"class.xercesc_2_7::PSVIItem"*, %"class.xercesc_2_7::PSVIItem"** %this.addr, align 8
  call void @llvm.trap() #12, !dbg !3483
  unreachable, !dbg !3483
}

; Function Attrs: noinline nounwind uwtable
define linkonce_odr dso_local void @_ZN11xercesc_2_713PSVIAttributeD0Ev(%"class.xercesc_2_7::PSVIAttribute"* %this) unnamed_addr #1 comdat align 2 !dbg !3484 {
entry:
  %this.addr = alloca %"class.xercesc_2_7::PSVIAttribute"*, align 8
  store %"class.xercesc_2_7::PSVIAttribute"* %this, %"class.xercesc_2_7::PSVIAttribute"** %this.addr, align 8
  call void @llvm.dbg.declare(metadata %"class.xercesc_2_7::PSVIAttribute"** %this.addr, metadata !3485, metadata !DIExpression()), !dbg !3486
  %this1 = load %"class.xercesc_2_7::PSVIAttribute"*, %"class.xercesc_2_7::PSVIAttribute"** %this.addr, align 8
  call void @_ZN11xercesc_2_713PSVIAttributeD2Ev(%"class.xercesc_2_7::PSVIAttribute"* %this1) #10, !dbg !3487
  %0 = bitcast %"class.xercesc_2_7::PSVIAttribute"* %this1 to i8*, !dbg !3487
  call void @_ZN11xercesc_2_77XMemorydlEPv(i8* %0) #10, !dbg !3487
  ret void, !dbg !3488
}

; Function Attrs: noinline nounwind uwtable
define linkonce_odr dso_local void @_ZN11xercesc_2_713PSVIAttributeD2Ev(%"class.xercesc_2_7::PSVIAttribute"* %this) unnamed_addr #1 comdat align 2 personality i8* bitcast (i32 (...)* @__gxx_personality_v0 to i8*) !dbg !3489 {
entry:
  %this.addr = alloca %"class.xercesc_2_7::PSVIAttribute"*, align 8
  %exn.slot = alloca i8*
  %ehselector.slot = alloca i32
  store %"class.xercesc_2_7::PSVIAttribute"* %this, %"class.xercesc_2_7::PSVIAttribute"** %this.addr, align 8
  call void @llvm.dbg.declare(metadata %"class.xercesc_2_7::PSVIAttribute"** %this.addr, metadata !3490, metadata !DIExpression()), !dbg !3491
  %this1 = load %"class.xercesc_2_7::PSVIAttribute"*, %"class.xercesc_2_7::PSVIAttribute"** %this.addr, align 8
  %0 = bitcast %"class.xercesc_2_7::PSVIAttribute"* %this1 to i32 (...)***, !dbg !3492
  store i32 (...)** bitcast (i8** getelementptr inbounds ({ [7 x i8*] }, { [7 x i8*] }* @_ZTVN11xercesc_2_713PSVIAttributeE, i32 0, inrange i32 0, i32 2) to i32 (...)**), i32 (...)*** %0, align 8, !dbg !3492
  %1 = bitcast %"class.xercesc_2_7::PSVIAttribute"* %this1 to %"class.xercesc_2_7::PSVIItem"*, !dbg !3493
  %fMemoryManager = getelementptr inbounds %"class.xercesc_2_7::PSVIItem", %"class.xercesc_2_7::PSVIItem"* %1, i32 0, i32 1, !dbg !3493
  %2 = load %"class.xercesc_2_7::MemoryManager"*, %"class.xercesc_2_7::MemoryManager"** %fMemoryManager, align 8, !dbg !3493
  %3 = bitcast %"class.xercesc_2_7::PSVIAttribute"* %this1 to %"class.xercesc_2_7::PSVIItem"*, !dbg !3495
  %fCanonicalValue = getelementptr inbounds %"class.xercesc_2_7::PSVIItem", %"class.xercesc_2_7::PSVIItem"* %3, i32 0, i32 5, !dbg !3495
  %4 = load i16*, i16** %fCanonicalValue, align 8, !dbg !3495
  %5 = bitcast i16* %4 to i8*, !dbg !3495
  %6 = bitcast %"class.xercesc_2_7::MemoryManager"* %2 to void (%"class.xercesc_2_7::MemoryManager"*, i8*)***, !dbg !3496
  %vtable = load void (%"class.xercesc_2_7::MemoryManager"*, i8*)**, void (%"class.xercesc_2_7::MemoryManager"*, i8*)*** %6, align 8, !dbg !3496
  %vfn = getelementptr inbounds void (%"class.xercesc_2_7::MemoryManager"*, i8*)*, void (%"class.xercesc_2_7::MemoryManager"*, i8*)** %vtable, i64 3, !dbg !3496
  %7 = load void (%"class.xercesc_2_7::MemoryManager"*, i8*)*, void (%"class.xercesc_2_7::MemoryManager"*, i8*)** %vfn, align 8, !dbg !3496
  invoke void %7(%"class.xercesc_2_7::MemoryManager"* %2, i8* %5)
          to label %invoke.cont unwind label %lpad, !dbg !3496

invoke.cont:                                      ; preds = %entry
  %8 = bitcast %"class.xercesc_2_7::PSVIAttribute"* %this1 to %"class.xercesc_2_7::PSVIItem"*, !dbg !3497
  call void @_ZN11xercesc_2_78PSVIItemD2Ev(%"class.xercesc_2_7::PSVIItem"* %8) #10, !dbg !3497
  ret void, !dbg !3498

lpad:                                             ; preds = %entry
  %9 = landingpad { i8*, i32 }
          catch i8* null, !dbg !3497
  %10 = extractvalue { i8*, i32 } %9, 0, !dbg !3497
  store i8* %10, i8** %exn.slot, align 8, !dbg !3497
  %11 = extractvalue { i8*, i32 } %9, 1, !dbg !3497
  store i32 %11, i32* %ehselector.slot, align 4, !dbg !3497
  %12 = bitcast %"class.xercesc_2_7::PSVIAttribute"* %this1 to %"class.xercesc_2_7::PSVIItem"*, !dbg !3497
  call void @_ZN11xercesc_2_78PSVIItemD2Ev(%"class.xercesc_2_7::PSVIItem"* %12) #10, !dbg !3497
  br label %terminate.handler, !dbg !3497

terminate.handler:                                ; preds = %lpad
  %exn = load i8*, i8** %exn.slot, align 8, !dbg !3497
  call void @__clang_call_terminate(i8* %exn) #12, !dbg !3497
  unreachable, !dbg !3497
}

; Function Attrs: noinline nounwind uwtable
define linkonce_odr dso_local void @_ZN11xercesc_2_715ContentSpecNodeD0Ev(%"class.xercesc_2_7::ContentSpecNode"* %this) unnamed_addr #1 comdat align 2 !dbg !3499 {
entry:
  %this.addr = alloca %"class.xercesc_2_7::ContentSpecNode"*, align 8
  store %"class.xercesc_2_7::ContentSpecNode"* %this, %"class.xercesc_2_7::ContentSpecNode"** %this.addr, align 8
  call void @llvm.dbg.declare(metadata %"class.xercesc_2_7::ContentSpecNode"** %this.addr, metadata !3500, metadata !DIExpression()), !dbg !3501
  %this1 = load %"class.xercesc_2_7::ContentSpecNode"*, %"class.xercesc_2_7::ContentSpecNode"** %this.addr, align 8
  call void @_ZN11xercesc_2_715ContentSpecNodeD2Ev(%"class.xercesc_2_7::ContentSpecNode"* %this1) #10, !dbg !3502
  %0 = bitcast %"class.xercesc_2_7::ContentSpecNode"* %this1 to i8*, !dbg !3502
  call void @_ZN11xercesc_2_77XMemorydlEPv(i8* %0) #10, !dbg !3502
  ret void, !dbg !3503
}

; Function Attrs: noinline nounwind uwtable
define linkonce_odr dso_local void @_ZN11xercesc_2_715ContentSpecNodeD2Ev(%"class.xercesc_2_7::ContentSpecNode"* %this) unnamed_addr #1 comdat align 2 !dbg !3504 {
entry:
  %this.addr = alloca %"class.xercesc_2_7::ContentSpecNode"*, align 8
  store %"class.xercesc_2_7::ContentSpecNode"* %this, %"class.xercesc_2_7::ContentSpecNode"** %this.addr, align 8
  call void @llvm.dbg.declare(metadata %"class.xercesc_2_7::ContentSpecNode"** %this.addr, metadata !3505, metadata !DIExpression()), !dbg !3506
  %this1 = load %"class.xercesc_2_7::ContentSpecNode"*, %"class.xercesc_2_7::ContentSpecNode"** %this.addr, align 8
  %0 = bitcast %"class.xercesc_2_7::ContentSpecNode"* %this1 to i32 (...)***, !dbg !3507
  store i32 (...)** bitcast (i8** getelementptr inbounds ({ [7 x i8*] }, { [7 x i8*] }* @_ZTVN11xercesc_2_715ContentSpecNodeE, i32 0, inrange i32 0, i32 2) to i32 (...)**), i32 (...)*** %0, align 8, !dbg !3507
  %fAdoptFirst = getelementptr inbounds %"class.xercesc_2_7::ContentSpecNode", %"class.xercesc_2_7::ContentSpecNode"* %this1, i32 0, i32 7, !dbg !3508
  %1 = load i8, i8* %fAdoptFirst, align 4, !dbg !3508
  %tobool = trunc i8 %1 to i1, !dbg !3508
  br i1 %tobool, label %if.then, label %if.end, !dbg !3511

if.then:                                          ; preds = %entry
  %fFirst = getelementptr inbounds %"class.xercesc_2_7::ContentSpecNode", %"class.xercesc_2_7::ContentSpecNode"* %this1, i32 0, i32 4, !dbg !3512
  %2 = load %"class.xercesc_2_7::ContentSpecNode"*, %"class.xercesc_2_7::ContentSpecNode"** %fFirst, align 8, !dbg !3512
  %isnull = icmp eq %"class.xercesc_2_7::ContentSpecNode"* %2, null, !dbg !3514
  br i1 %isnull, label %delete.end, label %delete.notnull, !dbg !3514

delete.notnull:                                   ; preds = %if.then
  %3 = bitcast %"class.xercesc_2_7::ContentSpecNode"* %2 to void (%"class.xercesc_2_7::ContentSpecNode"*)***, !dbg !3514
  %vtable = load void (%"class.xercesc_2_7::ContentSpecNode"*)**, void (%"class.xercesc_2_7::ContentSpecNode"*)*** %3, align 8, !dbg !3514
  %vfn = getelementptr inbounds void (%"class.xercesc_2_7::ContentSpecNode"*)*, void (%"class.xercesc_2_7::ContentSpecNode"*)** %vtable, i64 1, !dbg !3514
  %4 = load void (%"class.xercesc_2_7::ContentSpecNode"*)*, void (%"class.xercesc_2_7::ContentSpecNode"*)** %vfn, align 8, !dbg !3514
  call void %4(%"class.xercesc_2_7::ContentSpecNode"* %2) #10, !dbg !3514
  br label %delete.end, !dbg !3514

delete.end:                                       ; preds = %delete.notnull, %if.then
  br label %if.end, !dbg !3515

if.end:                                           ; preds = %delete.end, %entry
  %fAdoptSecond = getelementptr inbounds %"class.xercesc_2_7::ContentSpecNode", %"class.xercesc_2_7::ContentSpecNode"* %this1, i32 0, i32 8, !dbg !3516
  %5 = load i8, i8* %fAdoptSecond, align 1, !dbg !3516
  %tobool2 = trunc i8 %5 to i1, !dbg !3516
  br i1 %tobool2, label %if.then3, label %if.end9, !dbg !3518

if.then3:                                         ; preds = %if.end
  %fSecond = getelementptr inbounds %"class.xercesc_2_7::ContentSpecNode", %"class.xercesc_2_7::ContentSpecNode"* %this1, i32 0, i32 5, !dbg !3519
  %6 = load %"class.xercesc_2_7::ContentSpecNode"*, %"class.xercesc_2_7::ContentSpecNode"** %fSecond, align 8, !dbg !3519
  %isnull4 = icmp eq %"class.xercesc_2_7::ContentSpecNode"* %6, null, !dbg !3521
  br i1 %isnull4, label %delete.end8, label %delete.notnull5, !dbg !3521

delete.notnull5:                                  ; preds = %if.then3
  %7 = bitcast %"class.xercesc_2_7::ContentSpecNode"* %6 to void (%"class.xercesc_2_7::ContentSpecNode"*)***, !dbg !3521
  %vtable6 = load void (%"class.xercesc_2_7::ContentSpecNode"*)**, void (%"class.xercesc_2_7::ContentSpecNode"*)*** %7, align 8, !dbg !3521
  %vfn7 = getelementptr inbounds void (%"class.xercesc_2_7::ContentSpecNode"*)*, void (%"class.xercesc_2_7::ContentSpecNode"*)** %vtable6, i64 1, !dbg !3521
  %8 = load void (%"class.xercesc_2_7::ContentSpecNode"*)*, void (%"class.xercesc_2_7::ContentSpecNode"*)** %vfn7, align 8, !dbg !3521
  call void %8(%"class.xercesc_2_7::ContentSpecNode"* %6) #10, !dbg !3521
  br label %delete.end8, !dbg !3521

delete.end8:                                      ; preds = %delete.notnull5, %if.then3
  br label %if.end9, !dbg !3522

if.end9:                                          ; preds = %delete.end8, %if.end
  %fElement = getelementptr inbounds %"class.xercesc_2_7::ContentSpecNode", %"class.xercesc_2_7::ContentSpecNode"* %this1, i32 0, i32 2, !dbg !3523
  %9 = load %"class.xercesc_2_7::QName"*, %"class.xercesc_2_7::QName"** %fElement, align 8, !dbg !3523
  %isnull10 = icmp eq %"class.xercesc_2_7::QName"* %9, null, !dbg !3524
  br i1 %isnull10, label %delete.end14, label %delete.notnull11, !dbg !3524

delete.notnull11:                                 ; preds = %if.end9
  %10 = bitcast %"class.xercesc_2_7::QName"* %9 to void (%"class.xercesc_2_7::QName"*)***, !dbg !3524
  %vtable12 = load void (%"class.xercesc_2_7::QName"*)**, void (%"class.xercesc_2_7::QName"*)*** %10, align 8, !dbg !3524
  %vfn13 = getelementptr inbounds void (%"class.xercesc_2_7::QName"*)*, void (%"class.xercesc_2_7::QName"*)** %vtable12, i64 1, !dbg !3524
  %11 = load void (%"class.xercesc_2_7::QName"*)*, void (%"class.xercesc_2_7::QName"*)** %vfn13, align 8, !dbg !3524
  call void %11(%"class.xercesc_2_7::QName"* %9) #10, !dbg !3524
  br label %delete.end14, !dbg !3524

delete.end14:                                     ; preds = %delete.notnull11, %if.end9
  %12 = bitcast %"class.xercesc_2_7::ContentSpecNode"* %this1 to %"class.xercesc_2_7::XSerializable"*, !dbg !3525
  call void @_ZN11xercesc_2_713XSerializableD2Ev(%"class.xercesc_2_7::XSerializable"* %12) #10, !dbg !3525
  ret void, !dbg !3526
}

; Function Attrs: noinline nounwind uwtable
define linkonce_odr dso_local void @_ZN11xercesc_2_711PSVIHandler24handlePartialElementPSVIEPKtS2_PNS_11PSVIElementE(%"class.xercesc_2_7::PSVIHandler"* %this, i16* %0, i16* %1, %"class.xercesc_2_7::PSVIElement"* %2) unnamed_addr #1 comdat align 2 !dbg !3527 {
entry:
  %this.addr = alloca %"class.xercesc_2_7::PSVIHandler"*, align 8
  %.addr = alloca i16*, align 8
  %.addr1 = alloca i16*, align 8
  %.addr2 = alloca %"class.xercesc_2_7::PSVIElement"*, align 8
  store %"class.xercesc_2_7::PSVIHandler"* %this, %"class.xercesc_2_7::PSVIHandler"** %this.addr, align 8
  call void @llvm.dbg.declare(metadata %"class.xercesc_2_7::PSVIHandler"** %this.addr, metadata !3603, metadata !DIExpression()), !dbg !3605
  store i16* %0, i16** %.addr, align 8
  call void @llvm.dbg.declare(metadata i16** %.addr, metadata !3606, metadata !DIExpression()), !dbg !3607
  store i16* %1, i16** %.addr1, align 8
  call void @llvm.dbg.declare(metadata i16** %.addr1, metadata !3608, metadata !DIExpression()), !dbg !3609
  store %"class.xercesc_2_7::PSVIElement"* %2, %"class.xercesc_2_7::PSVIElement"** %.addr2, align 8
  call void @llvm.dbg.declare(metadata %"class.xercesc_2_7::PSVIElement"** %.addr2, metadata !3610, metadata !DIExpression()), !dbg !3611
  %this3 = load %"class.xercesc_2_7::PSVIHandler"*, %"class.xercesc_2_7::PSVIHandler"** %this.addr, align 8
  ret void, !dbg !3612
}

; Function Attrs: noinline nounwind uwtable
define linkonce_odr dso_local i16* @_ZNK11xercesc_2_710XSDLocator11getPublicIdEv(%"class.xercesc_2_7::XSDLocator"* %this) unnamed_addr #1 comdat align 2 !dbg !3613 {
entry:
  %this.addr = alloca %"class.xercesc_2_7::XSDLocator"*, align 8
  store %"class.xercesc_2_7::XSDLocator"* %this, %"class.xercesc_2_7::XSDLocator"** %this.addr, align 8
  call void @llvm.dbg.declare(metadata %"class.xercesc_2_7::XSDLocator"** %this.addr, metadata !3650, metadata !DIExpression()), !dbg !3652
  %this1 = load %"class.xercesc_2_7::XSDLocator"*, %"class.xercesc_2_7::XSDLocator"** %this.addr, align 8
  %fPublicId = getelementptr inbounds %"class.xercesc_2_7::XSDLocator", %"class.xercesc_2_7::XSDLocator"* %this1, i32 0, i32 4, !dbg !3653
  %0 = load i16*, i16** %fPublicId, align 8, !dbg !3653
  ret i16* %0, !dbg !3654
}

; Function Attrs: noinline uwtable
define dso_local i32 @_ZN11xercesc_2_712IGXMLScanner12buildAttListERKNS_11RefVectorOfINS_12KVStringPairEEEjPNS_14XMLElementDeclERNS1_INS_7XMLAttrEEE(%"class.xercesc_2_7::IGXMLScanner"* %this, %"class.xercesc_2_7::RefVectorOf.17"* dereferenceable(40) %providedAttrs, i32 %attCount, %"class.xercesc_2_7::XMLElementDecl"* %elemDecl, %"class.xercesc_2_7::RefVectorOf.10"* dereferenceable(40) %toFill) #6 align 2 personality i8* bitcast (i32 (...)* @__gxx_personality_v0 to i8*) !dbg !3655 {
entry:
  %retval = alloca i32, align 4
  %this.addr = alloca %"class.xercesc_2_7::IGXMLScanner"*, align 8
  %providedAttrs.addr = alloca %"class.xercesc_2_7::RefVectorOf.17"*, align 8
  %attCount.addr = alloca i32, align 4
  %elemDecl.addr = alloca %"class.xercesc_2_7::XMLElementDecl"*, align 8
  %toFill.addr = alloca %"class.xercesc_2_7::RefVectorOf.10"*, align 8
  %currType = alloca %"class.xercesc_2_7::ComplexTypeInfo"*, align 8
  %currDV = alloca %"class.xercesc_2_7::DatatypeValidator"*, align 8
  %hasDefs = alloca i8, align 1
  %retCount = alloca i32, align 4
  %curAttListSize = alloca i32, align 4
  %bbNormal = alloca %"class.xercesc_2_7::XMLBufBid", align 8
  %normBuf = alloca %"class.xercesc_2_7::XMLBuffer"*, align 8
  %exn.slot = alloca i8*
  %ehselector.slot = alloca i32
  %toUseHashTable = alloca i8, align 1
  %index = alloca i32, align 4
  %attrValid = alloca i32, align 4
  %attrAssessed = alloca i32, align 4
  %curPair = alloca %"class.xercesc_2_7::KVStringPair"*, align 8
  %namePtr = alloca i16*, align 8
  %janName = alloca %"class.xercesc_2_7::ArrayJanitor", align 8
  %tempBuffer = alloca [100 x i16], align 16
  %colonInd = alloca i32, align 4
  %prefPtr = alloca i16*, align 8
  %suffPtr = alloca i16*, align 8
  %uriId = alloca i32, align 4
  %isNSAttr = alloca i8, align 1
  %attType = alloca i32, align 4
  %attrValidator = alloca %"class.xercesc_2_7::DatatypeValidator"*, align 8
  %psviAttr = alloca %"class.xercesc_2_7::PSVIAttribute"*, align 8
  %laxThisOne = alloca i8, align 1
  %skipThisOne = alloca i8, align 1
  %attDefForWildCard = alloca %"class.xercesc_2_7::XMLAttDef"*, align 8
  %attDef = alloca %"class.xercesc_2_7::XMLAttDef"*, align 8
  %attWildCard = alloca %"class.xercesc_2_7::SchemaAttDef"*, align 8
  %sGrammar = alloca %"class.xercesc_2_7::SchemaGrammar"*, align 8
  %attRegistry = alloca %"class.xercesc_2_7::RefHashTableOf.35"*, align 8
  %curCountPtr = alloca i32*, align 8
  %errorCondition = alloca i8, align 1
  %bbMsg = alloca %"class.xercesc_2_7::XMLBufBid", align 8
  %bufMsg = alloca %"class.xercesc_2_7::XMLBuffer"*, align 8
  %bbURI = alloca %"class.xercesc_2_7::XMLBufBid", align 8
  %bufURI = alloca %"class.xercesc_2_7::XMLBuffer"*, align 8
  %xsNormalized = alloca i16*, align 8
  %tempDV = alloca %"class.xercesc_2_7::DatatypeValidator"*, align 8
  %xsNormalized402 = alloca i16*, align 8
  %tempDV408 = alloca %"class.xercesc_2_7::DatatypeValidator"*, align 8
  %actualAttDef = alloca %"class.xercesc_2_7::SchemaAttDef"*, align 8
  %attrDecl = alloca %"class.xercesc_2_7::XSAttributeDeclaration"*, align 8
  %attrDataType = alloca %"class.xercesc_2_7::DatatypeValidator"*, align 8
  %validatingType = alloca %"class.xercesc_2_7::XSSimpleTypeDefinition"*, align 8
  %memberType = alloca %"class.xercesc_2_7::XSSimpleTypeDefinition"*, align 8
  %validatingType584 = alloca %"class.xercesc_2_7::XSSimpleTypeDefinition"*, align 8
  %curAttr = alloca %"class.xercesc_2_7::XMLAttr"*, align 8
  %attrIndex = alloca i32, align 4
  %attDefList = alloca %"class.xercesc_2_7::XMLAttDefList"*, align 8
  %i = alloca i32, align 4
  %curDef = alloca %"class.xercesc_2_7::XMLAttDef"*, align 8
  %defType = alloca i32, align 4
  %attCountPtr = alloca i32*, align 8
  %curAtt = alloca %"class.xercesc_2_7::XMLAttr"*, align 8
  %attName = alloca %"class.xercesc_2_7::QName"*, align 8
  %defAttrToFill = alloca %"class.xercesc_2_7::PSVIAttribute"*, align 8
  %defAttrDecl = alloca %"class.xercesc_2_7::XSAttributeDeclaration"*, align 8
  %attrDataType815 = alloca %"class.xercesc_2_7::DatatypeValidator"*, align 8
  %defAttrType = alloca %"class.xercesc_2_7::XSSimpleTypeDefinition"*, align 8
  %defAttrMemberType = alloca %"class.xercesc_2_7::XSSimpleTypeDefinition"*, align 8
  %attQName = alloca %"class.xercesc_2_7::QName"*, align 8
  %prohibitedAttr = alloca %"class.xercesc_2_7::PSVIAttribute"*, align 8
  store %"class.xercesc_2_7::IGXMLScanner"* %this, %"class.xercesc_2_7::IGXMLScanner"** %this.addr, align 8
  call void @llvm.dbg.declare(metadata %"class.xercesc_2_7::IGXMLScanner"** %this.addr, metadata !3664, metadata !DIExpression()), !dbg !3666
  store %"class.xercesc_2_7::RefVectorOf.17"* %providedAttrs, %"class.xercesc_2_7::RefVectorOf.17"** %providedAttrs.addr, align 8
  call void @llvm.dbg.declare(metadata %"class.xercesc_2_7::RefVectorOf.17"** %providedAttrs.addr, metadata !3667, metadata !DIExpression()), !dbg !3668
  store i32 %attCount, i32* %attCount.addr, align 4
  call void @llvm.dbg.declare(metadata i32* %attCount.addr, metadata !3669, metadata !DIExpression()), !dbg !3670
  store %"class.xercesc_2_7::XMLElementDecl"* %elemDecl, %"class.xercesc_2_7::XMLElementDecl"** %elemDecl.addr, align 8
  call void @llvm.dbg.declare(metadata %"class.xercesc_2_7::XMLElementDecl"** %elemDecl.addr, metadata !3671, metadata !DIExpression()), !dbg !3672
  store %"class.xercesc_2_7::RefVectorOf.10"* %toFill, %"class.xercesc_2_7::RefVectorOf.10"** %toFill.addr, align 8
  call void @llvm.dbg.declare(metadata %"class.xercesc_2_7::RefVectorOf.10"** %toFill.addr, metadata !3673, metadata !DIExpression()), !dbg !3674
  %this1 = load %"class.xercesc_2_7::IGXMLScanner"*, %"class.xercesc_2_7::IGXMLScanner"** %this.addr, align 8
  call void @llvm.dbg.declare(metadata %"class.xercesc_2_7::ComplexTypeInfo"** %currType, metadata !3675, metadata !DIExpression()), !dbg !3679
  store %"class.xercesc_2_7::ComplexTypeInfo"* null, %"class.xercesc_2_7::ComplexTypeInfo"** %currType, align 8, !dbg !3679
  call void @llvm.dbg.declare(metadata %"class.xercesc_2_7::DatatypeValidator"** %currDV, metadata !3680, metadata !DIExpression()), !dbg !3681
  store %"class.xercesc_2_7::DatatypeValidator"* null, %"class.xercesc_2_7::DatatypeValidator"** %currDV, align 8, !dbg !3681
  %0 = bitcast %"class.xercesc_2_7::IGXMLScanner"* %this1 to %"class.xercesc_2_7::XMLScanner"*, !dbg !3682
  %fGrammar = getelementptr inbounds %"class.xercesc_2_7::XMLScanner", %"class.xercesc_2_7::XMLScanner"* %0, i32 0, i32 54, !dbg !3682
  %1 = load %"class.xercesc_2_7::Grammar"*, %"class.xercesc_2_7::Grammar"** %fGrammar, align 8, !dbg !3682
  %2 = bitcast %"class.xercesc_2_7::Grammar"* %1 to i32 (%"class.xercesc_2_7::Grammar"*)***, !dbg !3684
  %vtable = load i32 (%"class.xercesc_2_7::Grammar"*)**, i32 (%"class.xercesc_2_7::Grammar"*)*** %2, align 8, !dbg !3684
  %vfn = getelementptr inbounds i32 (%"class.xercesc_2_7::Grammar"*)*, i32 (%"class.xercesc_2_7::Grammar"*)** %vtable, i64 5, !dbg !3684
  %3 = load i32 (%"class.xercesc_2_7::Grammar"*)*, i32 (%"class.xercesc_2_7::Grammar"*)** %vfn, align 8, !dbg !3684
  %call = call i32 %3(%"class.xercesc_2_7::Grammar"* %1), !dbg !3684
  %cmp = icmp eq i32 %call, 1, !dbg !3685
  br i1 %cmp, label %land.lhs.true, label %if.end7, !dbg !3686

land.lhs.true:                                    ; preds = %entry
  %4 = bitcast %"class.xercesc_2_7::IGXMLScanner"* %this1 to %"class.xercesc_2_7::XMLScanner"*, !dbg !3687
  %fValidate = getelementptr inbounds %"class.xercesc_2_7::XMLScanner", %"class.xercesc_2_7::XMLScanner"* %4, i32 0, i32 10, !dbg !3687
  %5 = load i8, i8* %fValidate, align 8, !dbg !3687
  %tobool = trunc i8 %5 to i1, !dbg !3687
  br i1 %tobool, label %if.then, label %if.end7, !dbg !3688

if.then:                                          ; preds = %land.lhs.true
  %6 = bitcast %"class.xercesc_2_7::IGXMLScanner"* %this1 to %"class.xercesc_2_7::XMLScanner"*, !dbg !3689
  %fValidator = getelementptr inbounds %"class.xercesc_2_7::XMLScanner", %"class.xercesc_2_7::XMLScanner"* %6, i32 0, i32 50, !dbg !3689
  %7 = load %"class.xercesc_2_7::XMLValidator"*, %"class.xercesc_2_7::XMLValidator"** %fValidator, align 8, !dbg !3689
  %8 = bitcast %"class.xercesc_2_7::XMLValidator"* %7 to %"class.xercesc_2_7::SchemaValidator"*, !dbg !3691
  %call2 = call %"class.xercesc_2_7::ComplexTypeInfo"* @_ZNK11xercesc_2_715SchemaValidator18getCurrentTypeInfoEv(%"class.xercesc_2_7::SchemaValidator"* %8), !dbg !3692
  store %"class.xercesc_2_7::ComplexTypeInfo"* %call2, %"class.xercesc_2_7::ComplexTypeInfo"** %currType, align 8, !dbg !3693
  %9 = load %"class.xercesc_2_7::ComplexTypeInfo"*, %"class.xercesc_2_7::ComplexTypeInfo"** %currType, align 8, !dbg !3694
  %tobool3 = icmp ne %"class.xercesc_2_7::ComplexTypeInfo"* %9, null, !dbg !3694
  br i1 %tobool3, label %if.end, label %if.then4, !dbg !3696

if.then4:                                         ; preds = %if.then
  %10 = bitcast %"class.xercesc_2_7::IGXMLScanner"* %this1 to %"class.xercesc_2_7::XMLScanner"*, !dbg !3697
  %fValidator5 = getelementptr inbounds %"class.xercesc_2_7::XMLScanner", %"class.xercesc_2_7::XMLScanner"* %10, i32 0, i32 50, !dbg !3697
  %11 = load %"class.xercesc_2_7::XMLValidator"*, %"class.xercesc_2_7::XMLValidator"** %fValidator5, align 8, !dbg !3697
  %12 = bitcast %"class.xercesc_2_7::XMLValidator"* %11 to %"class.xercesc_2_7::SchemaValidator"*, !dbg !3699
  %call6 = call %"class.xercesc_2_7::DatatypeValidator"* @_ZNK11xercesc_2_715SchemaValidator27getCurrentDatatypeValidatorEv(%"class.xercesc_2_7::SchemaValidator"* %12), !dbg !3700
  store %"class.xercesc_2_7::DatatypeValidator"* %call6, %"class.xercesc_2_7::DatatypeValidator"** %currDV, align 8, !dbg !3701
  br label %if.end, !dbg !3702

if.end:                                           ; preds = %if.then4, %if.then
  br label %if.end7, !dbg !3703

if.end7:                                          ; preds = %if.end, %land.lhs.true, %entry
  call void @llvm.dbg.declare(metadata i8* %hasDefs, metadata !3704, metadata !DIExpression()), !dbg !3705
  %13 = load %"class.xercesc_2_7::ComplexTypeInfo"*, %"class.xercesc_2_7::ComplexTypeInfo"** %currType, align 8, !dbg !3706
  %tobool8 = icmp ne %"class.xercesc_2_7::ComplexTypeInfo"* %13, null, !dbg !3706
  br i1 %tobool8, label %land.lhs.true9, label %cond.false, !dbg !3707

land.lhs.true9:                                   ; preds = %if.end7
  %14 = bitcast %"class.xercesc_2_7::IGXMLScanner"* %this1 to %"class.xercesc_2_7::XMLScanner"*, !dbg !3708
  %fValidate10 = getelementptr inbounds %"class.xercesc_2_7::XMLScanner", %"class.xercesc_2_7::XMLScanner"* %14, i32 0, i32 10, !dbg !3708
  %15 = load i8, i8* %fValidate10, align 8, !dbg !3708
  %tobool11 = trunc i8 %15 to i1, !dbg !3708
  br i1 %tobool11, label %cond.true, label %cond.false, !dbg !3709

cond.true:                                        ; preds = %land.lhs.true9
  %16 = load %"class.xercesc_2_7::ComplexTypeInfo"*, %"class.xercesc_2_7::ComplexTypeInfo"** %currType, align 8, !dbg !3710
  %call12 = call zeroext i1 @_ZNK11xercesc_2_715ComplexTypeInfo10hasAttDefsEv(%"class.xercesc_2_7::ComplexTypeInfo"* %16), !dbg !3711
  br label %cond.end, !dbg !3709

cond.false:                                       ; preds = %land.lhs.true9, %if.end7
  %17 = load %"class.xercesc_2_7::XMLElementDecl"*, %"class.xercesc_2_7::XMLElementDecl"** %elemDecl.addr, align 8, !dbg !3712
  %18 = bitcast %"class.xercesc_2_7::XMLElementDecl"* %17 to i1 (%"class.xercesc_2_7::XMLElementDecl"*)***, !dbg !3713
  %vtable13 = load i1 (%"class.xercesc_2_7::XMLElementDecl"*)**, i1 (%"class.xercesc_2_7::XMLElementDecl"*)*** %18, align 8, !dbg !3713
  %vfn14 = getelementptr inbounds i1 (%"class.xercesc_2_7::XMLElementDecl"*)*, i1 (%"class.xercesc_2_7::XMLElementDecl"*)** %vtable13, i64 8, !dbg !3713
  %19 = load i1 (%"class.xercesc_2_7::XMLElementDecl"*)*, i1 (%"class.xercesc_2_7::XMLElementDecl"*)** %vfn14, align 8, !dbg !3713
  %call15 = call zeroext i1 %19(%"class.xercesc_2_7::XMLElementDecl"* %17), !dbg !3713
  br label %cond.end, !dbg !3709

cond.end:                                         ; preds = %cond.false, %cond.true
  %cond = phi i1 [ %call12, %cond.true ], [ %call15, %cond.false ], !dbg !3709
  %frombool = zext i1 %cond to i8, !dbg !3705
  store i8 %frombool, i8* %hasDefs, align 1, !dbg !3705
  %fElemCount = getelementptr inbounds %"class.xercesc_2_7::IGXMLScanner", %"class.xercesc_2_7::IGXMLScanner"* %this1, i32 0, i32 16, !dbg !3714
  %20 = load i32, i32* %fElemCount, align 8, !dbg !3715
  %inc = add i32 %20, 1, !dbg !3715
  store i32 %inc, i32* %fElemCount, align 8, !dbg !3715
  %21 = load i8, i8* %hasDefs, align 1, !dbg !3716
  %tobool16 = trunc i8 %21 to i1, !dbg !3716
  br i1 %tobool16, label %if.end20, label %land.lhs.true17, !dbg !3718

land.lhs.true17:                                  ; preds = %cond.end
  %22 = load i32, i32* %attCount.addr, align 4, !dbg !3719
  %tobool18 = icmp ne i32 %22, 0, !dbg !3719
  br i1 %tobool18, label %if.end20, label %if.then19, !dbg !3720

if.then19:                                        ; preds = %land.lhs.true17
  store i32 0, i32* %retval, align 4, !dbg !3721
  br label %return, !dbg !3721

if.end20:                                         ; preds = %land.lhs.true17, %cond.end
  call void @llvm.dbg.declare(metadata i32* %retCount, metadata !3722, metadata !DIExpression()), !dbg !3723
  store i32 0, i32* %retCount, align 4, !dbg !3723
  call void @llvm.dbg.declare(metadata i32* %curAttListSize, metadata !3724, metadata !DIExpression()), !dbg !3725
  %23 = load %"class.xercesc_2_7::RefVectorOf.10"*, %"class.xercesc_2_7::RefVectorOf.10"** %toFill.addr, align 8, !dbg !3726
  %24 = bitcast %"class.xercesc_2_7::RefVectorOf.10"* %23 to %"class.xercesc_2_7::BaseRefVectorOf.11"*, !dbg !3726
  %call21 = call i32 @_ZNK11xercesc_2_715BaseRefVectorOfINS_7XMLAttrEE4sizeEv(%"class.xercesc_2_7::BaseRefVectorOf.11"* %24), !dbg !3727
  store i32 %call21, i32* %curAttListSize, align 4, !dbg !3725
  call void @llvm.dbg.declare(metadata %"class.xercesc_2_7::XMLBufBid"* %bbNormal, metadata !3728, metadata !DIExpression()), !dbg !3810
  %25 = bitcast %"class.xercesc_2_7::IGXMLScanner"* %this1 to %"class.xercesc_2_7::XMLScanner"*, !dbg !3811
  %fBufMgr = getelementptr inbounds %"class.xercesc_2_7::XMLScanner", %"class.xercesc_2_7::XMLScanner"* %25, i32 0, i32 63, !dbg !3811
  call void @_ZN11xercesc_2_79XMLBufBidC2EPNS_12XMLBufferMgrE(%"class.xercesc_2_7::XMLBufBid"* %bbNormal, %"class.xercesc_2_7::XMLBufferMgr"* %fBufMgr), !dbg !3810
  call void @llvm.dbg.declare(metadata %"class.xercesc_2_7::XMLBuffer"** %normBuf, metadata !3812, metadata !DIExpression()), !dbg !3813
  %call22 = invoke dereferenceable(40) %"class.xercesc_2_7::XMLBuffer"* @_ZN11xercesc_2_79XMLBufBid9getBufferEv(%"class.xercesc_2_7::XMLBufBid"* %bbNormal)
          to label %invoke.cont unwind label %lpad, !dbg !3814

invoke.cont:                                      ; preds = %if.end20
  store %"class.xercesc_2_7::XMLBuffer"* %call22, %"class.xercesc_2_7::XMLBuffer"** %normBuf, align 8, !dbg !3813
  call void @llvm.dbg.declare(metadata i8* %toUseHashTable, metadata !3815, metadata !DIExpression()), !dbg !3816
  store i8 0, i8* %toUseHashTable, align 1, !dbg !3816
  %fGrammarType = getelementptr inbounds %"class.xercesc_2_7::IGXMLScanner", %"class.xercesc_2_7::IGXMLScanner"* %this1, i32 0, i32 2, !dbg !3817
  %26 = load i32, i32* %fGrammarType, align 4, !dbg !3817
  %cmp23 = icmp eq i32 %26, 0, !dbg !3819
  br i1 %cmp23, label %if.then24, label %if.end26, !dbg !3820

if.then24:                                        ; preds = %invoke.cont
  %27 = bitcast %"class.xercesc_2_7::IGXMLScanner"* %this1 to %"class.xercesc_2_7::XMLScanner"*, !dbg !3821
  invoke void @_ZN11xercesc_2_710XMLScanner21setAttrDupChkRegistryERKjRb(%"class.xercesc_2_7::XMLScanner"* %27, i32* dereferenceable(4) %attCount.addr, i8* dereferenceable(1) %toUseHashTable)
          to label %invoke.cont25 unwind label %lpad, !dbg !3821

invoke.cont25:                                    ; preds = %if.then24
  br label %if.end26, !dbg !3823

lpad:                                             ; preds = %invoke.cont894, %invoke.cont892, %invoke.cont888, %invoke.cont885, %invoke.cont882, %if.then881, %if.then875, %invoke.cont870, %if.then866, %invoke.cont854, %if.end853, %cond.end850, %cond.true845, %if.end840, %invoke.cont836, %if.then833, %if.else829, %invoke.cont826, %if.then824, %invoke.cont819, %invoke.cont816, %invoke.cont813, %invoke.cont810, %invoke.cont808, %invoke.cont804, %invoke.cont801, %invoke.cont798, %if.then797, %invoke.cont789, %if.end788, %invoke.cont785, %invoke.cont783, %if.then782, %invoke.cont773, %if.else771, %invoke.cont769, %invoke.cont764, %if.then758, %invoke.cont751, %if.then749, %invoke.cont730, %invoke.cont728, %if.then724, %land.lhs.true721, %invoke.cont706, %if.then702, %invoke.cont686, %invoke.cont684, %for.body681, %for.cond675, %if.then670, %invoke.cont30, %invoke.cont28, %for.body, %if.then24, %if.end20
  %28 = landingpad { i8*, i32 }
          cleanup, !dbg !3824
  %29 = extractvalue { i8*, i32 } %28, 0, !dbg !3824
  store i8* %29, i8** %exn.slot, align 8, !dbg !3824
  %30 = extractvalue { i8*, i32 } %28, 1, !dbg !3824
  store i32 %30, i32* %ehselector.slot, align 4, !dbg !3824
  br label %ehcleanup906, !dbg !3824

if.end26:                                         ; preds = %invoke.cont25, %invoke.cont
  call void @llvm.dbg.declare(metadata i32* %index, metadata !3825, metadata !DIExpression()), !dbg !3826
  store i32 0, i32* %index, align 4, !dbg !3827
  br label %for.cond, !dbg !3829

for.cond:                                         ; preds = %for.inc666, %if.end26
  %31 = load i32, i32* %index, align 4, !dbg !3830
  %32 = load i32, i32* %attCount.addr, align 4, !dbg !3832
  %cmp27 = icmp ult i32 %31, %32, !dbg !3833
  br i1 %cmp27, label %for.body, label %for.end668, !dbg !3834

for.body:                                         ; preds = %for.cond
  call void @llvm.dbg.declare(metadata i32* %attrValid, metadata !3835, metadata !DIExpression()), !dbg !3837
  store i32 2, i32* %attrValid, align 4, !dbg !3837
  call void @llvm.dbg.declare(metadata i32* %attrAssessed, metadata !3838, metadata !DIExpression()), !dbg !3839
  store i32 2, i32* %attrAssessed, align 4, !dbg !3839
  call void @llvm.dbg.declare(metadata %"class.xercesc_2_7::KVStringPair"** %curPair, metadata !3840, metadata !DIExpression()), !dbg !3845
  %33 = load %"class.xercesc_2_7::RefVectorOf.17"*, %"class.xercesc_2_7::RefVectorOf.17"** %providedAttrs.addr, align 8, !dbg !3846
  %34 = bitcast %"class.xercesc_2_7::RefVectorOf.17"* %33 to %"class.xercesc_2_7::BaseRefVectorOf.18"*, !dbg !3846
  %35 = load i32, i32* %index, align 4, !dbg !3847
  %call29 = invoke %"class.xercesc_2_7::KVStringPair"* @_ZNK11xercesc_2_715BaseRefVectorOfINS_12KVStringPairEE9elementAtEj(%"class.xercesc_2_7::BaseRefVectorOf.18"* %34, i32 %35)
          to label %invoke.cont28 unwind label %lpad, !dbg !3848

invoke.cont28:                                    ; preds = %for.body
  store %"class.xercesc_2_7::KVStringPair"* %call29, %"class.xercesc_2_7::KVStringPair"** %curPair, align 8, !dbg !3845
  call void @llvm.dbg.declare(metadata i16** %namePtr, metadata !3849, metadata !DIExpression()), !dbg !3850
  %36 = load %"class.xercesc_2_7::KVStringPair"*, %"class.xercesc_2_7::KVStringPair"** %curPair, align 8, !dbg !3851
  %call31 = invoke i16* @_ZNK11xercesc_2_712KVStringPair6getKeyEv(%"class.xercesc_2_7::KVStringPair"* %36)
          to label %invoke.cont30 unwind label %lpad, !dbg !3852

invoke.cont30:                                    ; preds = %invoke.cont28
  store i16* %call31, i16** %namePtr, align 8, !dbg !3850
  call void @llvm.dbg.declare(metadata %"class.xercesc_2_7::ArrayJanitor"* %janName, metadata !3853, metadata !DIExpression()), !dbg !3901
  invoke void @_ZN11xercesc_2_712ArrayJanitorItEC2EPt(%"class.xercesc_2_7::ArrayJanitor"* %janName, i16* null)
          to label %invoke.cont32 unwind label %lpad, !dbg !3901

invoke.cont32:                                    ; preds = %invoke.cont30
  call void @llvm.dbg.declare(metadata [100 x i16]* %tempBuffer, metadata !3902, metadata !DIExpression()), !dbg !3906
  call void @llvm.dbg.declare(metadata i32* %colonInd, metadata !3907, metadata !DIExpression()), !dbg !3908
  %fRawAttrColonList = getelementptr inbounds %"class.xercesc_2_7::IGXMLScanner", %"class.xercesc_2_7::IGXMLScanner"* %this1, i32 0, i32 8, !dbg !3909
  %37 = load i32*, i32** %fRawAttrColonList, align 8, !dbg !3909
  %38 = load i32, i32* %index, align 4, !dbg !3910
  %idxprom = zext i32 %38 to i64, !dbg !3909
  %arrayidx = getelementptr inbounds i32, i32* %37, i64 %idxprom, !dbg !3909
  %39 = load i32, i32* %arrayidx, align 4, !dbg !3909
  store i32 %39, i32* %colonInd, align 4, !dbg !3908
  call void @llvm.dbg.declare(metadata i16** %prefPtr, metadata !3911, metadata !DIExpression()), !dbg !3912
  store i16* getelementptr inbounds ([0 x i16], [0 x i16]* @_ZN11xercesc_2_76XMLUni15fgZeroLenStringE, i64 0, i64 0), i16** %prefPtr, align 8, !dbg !3912
  call void @llvm.dbg.declare(metadata i16** %suffPtr, metadata !3913, metadata !DIExpression()), !dbg !3914
  store i16* getelementptr inbounds ([0 x i16], [0 x i16]* @_ZN11xercesc_2_76XMLUni15fgZeroLenStringE, i64 0, i64 0), i16** %suffPtr, align 8, !dbg !3914
  %40 = load i32, i32* %colonInd, align 4, !dbg !3915
  %cmp33 = icmp ne i32 %40, -1, !dbg !3917
  br i1 %cmp33, label %if.then34, label %if.else54, !dbg !3918

if.then34:                                        ; preds = %invoke.cont32
  %41 = load i16*, i16** %namePtr, align 8, !dbg !3919
  %call37 = invoke i32 @_ZN11xercesc_2_79XMLString9stringLenEPKt(i16* %41)
          to label %invoke.cont36 unwind label %lpad35, !dbg !3922

invoke.cont36:                                    ; preds = %if.then34
  %conv = zext i32 %call37 to i64, !dbg !3922
  %cmp38 = icmp ult i64 %conv, 100, !dbg !3923
  br i1 %cmp38, label %if.then39, label %if.else, !dbg !3924

if.then39:                                        ; preds = %invoke.cont36
  %arraydecay = getelementptr inbounds [100 x i16], [100 x i16]* %tempBuffer, i64 0, i64 0, !dbg !3925
  %42 = load i16*, i16** %namePtr, align 8, !dbg !3927
  invoke void @_ZN11xercesc_2_79XMLString10copyStringEPtPKt(i16* %arraydecay, i16* %42)
          to label %invoke.cont40 unwind label %lpad35, !dbg !3928

invoke.cont40:                                    ; preds = %if.then39
  %43 = load i32, i32* %colonInd, align 4, !dbg !3929
  %idxprom41 = sext i32 %43 to i64, !dbg !3930
  %arrayidx42 = getelementptr inbounds [100 x i16], [100 x i16]* %tempBuffer, i64 0, i64 %idxprom41, !dbg !3930
  store i16 0, i16* %arrayidx42, align 2, !dbg !3931
  %arraydecay43 = getelementptr inbounds [100 x i16], [100 x i16]* %tempBuffer, i64 0, i64 0, !dbg !3932
  store i16* %arraydecay43, i16** %prefPtr, align 8, !dbg !3933
  br label %if.end52, !dbg !3934

lpad35:                                           ; preds = %invoke.cont660, %if.then659, %if.then654, %invoke.cont650, %invoke.cont648, %invoke.cont646, %if.else645, %invoke.cont642, %if.then634, %invoke.cont627, %if.then626, %if.else623, %invoke.cont618, %invoke.cont616, %if.then615, %invoke.cont611, %land.lhs.true610, %invoke.cont605, %for.body604, %cond.end591, %cond.true586, %invoke.cont580, %if.then575, %if.end568, %invoke.cont564, %if.then563, %invoke.cont559, %lor.lhs.false558, %invoke.cont552, %if.else551, %if.else546, %cond.end542, %if.end535, %if.then531, %if.else527, %invoke.cont524, %if.then523, %invoke.cont517, %invoke.cont515, %if.then514, %invoke.cont502, %if.then498, %if.end491, %cond.true485, %invoke.cont478, %if.then477, %invoke.cont468, %if.then467, %if.then454, %invoke.cont449, %if.then447, %if.then440, %if.then431, %invoke.cont420, %if.then417, %land.lhs.true412, %if.then407, %if.then401, %invoke.cont396, %if.else395, %if.end392, %invoke.cont388, %if.else387, %if.then378, %invoke.cont373, %invoke.cont371, %if.then367, %if.then361, %invoke.cont353, %if.then351, %land.lhs.true346, %invoke.cont341, %invoke.cont339, %invoke.cont337, %if.then336, %if.then305, %if.end276, %invoke.cont255, %if.else254, %if.then251, %if.else248, %invoke.cont244, %if.else243, %if.then240, %if.then237, %invoke.cont227, %invoke.cont225, %if.else222, %invoke.cont212, %if.then211, %if.then207, %if.then201, %if.then184, %invoke.cont179, %if.then175, %land.lhs.true171, %if.else163, %if.then155, %invoke.cont150, %if.then146, %land.lhs.true142, %invoke.cont134, %invoke.cont130, %if.then126, %if.then115, %if.then111, %land.lhs.true105, %invoke.cont100, %if.then99, %if.then94, %lor.lhs.false88, %if.then82, %invoke.cont76, %if.then75, %invoke.cont61, %lor.rhs, %lor.lhs.false, %if.end55, %invoke.cont48, %invoke.cont47, %invoke.cont44, %if.else, %if.then39, %if.then34
  %44 = landingpad { i8*, i32 }
          cleanup, !dbg !3935
  %45 = extractvalue { i8*, i32 } %44, 0, !dbg !3935
  store i8* %45, i8** %exn.slot, align 8, !dbg !3935
  %46 = extractvalue { i8*, i32 } %44, 1, !dbg !3935
  store i32 %46, i32* %ehselector.slot, align 4, !dbg !3935
  br label %ehcleanup665, !dbg !3935

if.else:                                          ; preds = %invoke.cont36
  %47 = load i16*, i16** %namePtr, align 8, !dbg !3936
  %48 = bitcast %"class.xercesc_2_7::IGXMLScanner"* %this1 to %"class.xercesc_2_7::XMLScanner"*, !dbg !3938
  %fMemoryManager = getelementptr inbounds %"class.xercesc_2_7::XMLScanner", %"class.xercesc_2_7::XMLScanner"* %48, i32 0, i32 62, !dbg !3938
  %49 = load %"class.xercesc_2_7::MemoryManager"*, %"class.xercesc_2_7::MemoryManager"** %fMemoryManager, align 8, !dbg !3938
  %call45 = invoke i16* @_ZN11xercesc_2_79XMLString9replicateEPKtPNS_13MemoryManagerE(i16* %47, %"class.xercesc_2_7::MemoryManager"* %49)
          to label %invoke.cont44 unwind label %lpad35, !dbg !3939

invoke.cont44:                                    ; preds = %if.else
  %50 = bitcast %"class.xercesc_2_7::IGXMLScanner"* %this1 to %"class.xercesc_2_7::XMLScanner"*, !dbg !3940
  %fMemoryManager46 = getelementptr inbounds %"class.xercesc_2_7::XMLScanner", %"class.xercesc_2_7::XMLScanner"* %50, i32 0, i32 62, !dbg !3940
  %51 = load %"class.xercesc_2_7::MemoryManager"*, %"class.xercesc_2_7::MemoryManager"** %fMemoryManager46, align 8, !dbg !3940
  invoke void @_ZN11xercesc_2_712ArrayJanitorItE5resetEPtPNS_13MemoryManagerE(%"class.xercesc_2_7::ArrayJanitor"* %janName, i16* %call45, %"class.xercesc_2_7::MemoryManager"* %51)
          to label %invoke.cont47 unwind label %lpad35, !dbg !3941

invoke.cont47:                                    ; preds = %invoke.cont44
  %52 = load i32, i32* %colonInd, align 4, !dbg !3942
  %call49 = invoke dereferenceable(2) i16* @_ZNK11xercesc_2_712ArrayJanitorItEixEi(%"class.xercesc_2_7::ArrayJanitor"* %janName, i32 %52)
          to label %invoke.cont48 unwind label %lpad35, !dbg !3943

invoke.cont48:                                    ; preds = %invoke.cont47
  store i16 0, i16* %call49, align 2, !dbg !3944
  %call51 = invoke i16* @_ZNK11xercesc_2_712ArrayJanitorItE3getEv(%"class.xercesc_2_7::ArrayJanitor"* %janName)
          to label %invoke.cont50 unwind label %lpad35, !dbg !3945

invoke.cont50:                                    ; preds = %invoke.cont48
  store i16* %call51, i16** %prefPtr, align 8, !dbg !3946
  br label %if.end52

if.end52:                                         ; preds = %invoke.cont50, %invoke.cont40
  %53 = load i16*, i16** %namePtr, align 8, !dbg !3947
  %54 = load i32, i32* %colonInd, align 4, !dbg !3948
  %idx.ext = sext i32 %54 to i64, !dbg !3949
  %add.ptr = getelementptr inbounds i16, i16* %53, i64 %idx.ext, !dbg !3949
  %add.ptr53 = getelementptr inbounds i16, i16* %add.ptr, i64 1, !dbg !3950
  store i16* %add.ptr53, i16** %suffPtr, align 8, !dbg !3951
  br label %if.end55, !dbg !3952

if.else54:                                        ; preds = %invoke.cont32
  %55 = load i16*, i16** %namePtr, align 8, !dbg !3953
  store i16* %55, i16** %suffPtr, align 8, !dbg !3955
  br label %if.end55

if.end55:                                         ; preds = %if.else54, %if.end52
  call void @llvm.dbg.declare(metadata i32* %uriId, metadata !3956, metadata !DIExpression()), !dbg !3957
  %56 = load i16*, i16** %prefPtr, align 8, !dbg !3958
  %call57 = invoke i32 @_ZN11xercesc_2_712IGXMLScanner13resolvePrefixEPKtNS_9ElemStack8MapModesE(%"class.xercesc_2_7::IGXMLScanner"* %this1, i16* %56, i32 0)
          to label %invoke.cont56 unwind label %lpad35, !dbg !3959

invoke.cont56:                                    ; preds = %if.end55
  store i32 %call57, i32* %uriId, align 4, !dbg !3957
  call void @llvm.dbg.declare(metadata i8* %isNSAttr, metadata !3960, metadata !DIExpression()), !dbg !3961
  %57 = load i32, i32* %uriId, align 4, !dbg !3962
  %58 = bitcast %"class.xercesc_2_7::IGXMLScanner"* %this1 to %"class.xercesc_2_7::XMLScanner"*, !dbg !3963
  %fXMLNSNamespaceId = getelementptr inbounds %"class.xercesc_2_7::XMLScanner", %"class.xercesc_2_7::XMLScanner"* %58, i32 0, i32 31, !dbg !3963
  %59 = load i32, i32* %fXMLNSNamespaceId, align 8, !dbg !3963
  %cmp58 = icmp eq i32 %57, %59, !dbg !3964
  br i1 %cmp58, label %lor.end, label %lor.lhs.false, !dbg !3965

lor.lhs.false:                                    ; preds = %invoke.cont56
  %60 = load i16*, i16** %suffPtr, align 8, !dbg !3966
  %call60 = invoke zeroext i1 @_ZN11xercesc_2_79XMLString6equalsEPKtS2_(i16* %60, i16* getelementptr inbounds ([0 x i16], [0 x i16]* @_ZN11xercesc_2_76XMLUni13fgXMLNSStringE, i64 0, i64 0))
          to label %invoke.cont59 unwind label %lpad35, !dbg !3967

invoke.cont59:                                    ; preds = %lor.lhs.false
  br i1 %call60, label %lor.end, label %lor.rhs, !dbg !3968

lor.rhs:                                          ; preds = %invoke.cont59
  %61 = bitcast %"class.xercesc_2_7::IGXMLScanner"* %this1 to %"class.xercesc_2_7::XMLScanner"*, !dbg !3969
  %62 = load i32, i32* %uriId, align 4, !dbg !3970
  %call62 = invoke i16* @_ZNK11xercesc_2_710XMLScanner10getURITextEj(%"class.xercesc_2_7::XMLScanner"* %61, i32 %62)
          to label %invoke.cont61 unwind label %lpad35, !dbg !3969

invoke.cont61:                                    ; preds = %lor.rhs
  %call64 = invoke zeroext i1 @_ZN11xercesc_2_79XMLString6equalsEPKtS2_(i16* %call62, i16* getelementptr inbounds ([0 x i16], [0 x i16]* @_ZN11xercesc_2_713SchemaSymbols9fgURI_XSIE, i64 0, i64 0))
          to label %invoke.cont63 unwind label %lpad35, !dbg !3971

invoke.cont63:                                    ; preds = %invoke.cont61
  br label %lor.end, !dbg !3968

lor.end:                                          ; preds = %invoke.cont63, %invoke.cont59, %invoke.cont56
  %63 = phi i1 [ true, %invoke.cont59 ], [ true, %invoke.cont56 ], [ %call64, %invoke.cont63 ]
  %frombool65 = zext i1 %63 to i8, !dbg !3961
  store i8 %frombool65, i8* %isNSAttr, align 1, !dbg !3961
  call void @llvm.dbg.declare(metadata i32* %attType, metadata !3972, metadata !DIExpression()), !dbg !3973
  call void @llvm.dbg.declare(metadata %"class.xercesc_2_7::DatatypeValidator"** %attrValidator, metadata !3974, metadata !DIExpression()), !dbg !3975
  store %"class.xercesc_2_7::DatatypeValidator"* null, %"class.xercesc_2_7::DatatypeValidator"** %attrValidator, align 8, !dbg !3975
  call void @llvm.dbg.declare(metadata %"class.xercesc_2_7::PSVIAttribute"** %psviAttr, metadata !3976, metadata !DIExpression()), !dbg !3977
  store %"class.xercesc_2_7::PSVIAttribute"* null, %"class.xercesc_2_7::PSVIAttribute"** %psviAttr, align 8, !dbg !3977
  %64 = load i8, i8* %isNSAttr, align 1, !dbg !3978
  %tobool66 = trunc i8 %64 to i1, !dbg !3978
  br i1 %tobool66, label %lor.lhs.false67, label %if.then70, !dbg !3980

lor.lhs.false67:                                  ; preds = %lor.end
  %fGrammarType68 = getelementptr inbounds %"class.xercesc_2_7::IGXMLScanner", %"class.xercesc_2_7::IGXMLScanner"* %this1, i32 0, i32 2, !dbg !3981
  %65 = load i32, i32* %fGrammarType68, align 4, !dbg !3981
  %cmp69 = icmp eq i32 %65, 0, !dbg !3982
  br i1 %cmp69, label %if.then70, label %if.else551, !dbg !3983

if.then70:                                        ; preds = %lor.lhs.false67, %lor.end
  call void @llvm.dbg.declare(metadata i8* %laxThisOne, metadata !3984, metadata !DIExpression()), !dbg !3986
  store i8 0, i8* %laxThisOne, align 1, !dbg !3986
  call void @llvm.dbg.declare(metadata i8* %skipThisOne, metadata !3987, metadata !DIExpression()), !dbg !3988
  store i8 0, i8* %skipThisOne, align 1, !dbg !3988
  call void @llvm.dbg.declare(metadata %"class.xercesc_2_7::XMLAttDef"** %attDefForWildCard, metadata !3989, metadata !DIExpression()), !dbg !3990
  store %"class.xercesc_2_7::XMLAttDef"* null, %"class.xercesc_2_7::XMLAttDef"** %attDefForWildCard, align 8, !dbg !3990
  call void @llvm.dbg.declare(metadata %"class.xercesc_2_7::XMLAttDef"** %attDef, metadata !3991, metadata !DIExpression()), !dbg !3992
  store %"class.xercesc_2_7::XMLAttDef"* null, %"class.xercesc_2_7::XMLAttDef"** %attDef, align 8, !dbg !3992
  %fGrammarType71 = getelementptr inbounds %"class.xercesc_2_7::IGXMLScanner", %"class.xercesc_2_7::IGXMLScanner"* %this1, i32 0, i32 2, !dbg !3993
  %66 = load i32, i32* %fGrammarType71, align 4, !dbg !3993
  %cmp72 = icmp eq i32 %66, 1, !dbg !3995
  br i1 %cmp72, label %if.then73, label %if.else198, !dbg !3996

if.then73:                                        ; preds = %if.then70
  call void @llvm.dbg.declare(metadata %"class.xercesc_2_7::SchemaAttDef"** %attWildCard, metadata !3997, metadata !DIExpression()), !dbg !3999
  store %"class.xercesc_2_7::SchemaAttDef"* null, %"class.xercesc_2_7::SchemaAttDef"** %attWildCard, align 8, !dbg !3999
  %67 = load %"class.xercesc_2_7::ComplexTypeInfo"*, %"class.xercesc_2_7::ComplexTypeInfo"** %currType, align 8, !dbg !4000
  %tobool74 = icmp ne %"class.xercesc_2_7::ComplexTypeInfo"* %67, null, !dbg !4000
  br i1 %tobool74, label %if.then75, label %if.else80, !dbg !4002

if.then75:                                        ; preds = %if.then73
  %68 = load %"class.xercesc_2_7::ComplexTypeInfo"*, %"class.xercesc_2_7::ComplexTypeInfo"** %currType, align 8, !dbg !4003
  %69 = load i16*, i16** %suffPtr, align 8, !dbg !4005
  %70 = load i32, i32* %uriId, align 4, !dbg !4006
  %call77 = invoke %"class.xercesc_2_7::SchemaAttDef"* @_ZN11xercesc_2_715ComplexTypeInfo9getAttDefEPKti(%"class.xercesc_2_7::ComplexTypeInfo"* %68, i16* %69, i32 %70)
          to label %invoke.cont76 unwind label %lpad35, !dbg !4007

invoke.cont76:                                    ; preds = %if.then75
  %71 = bitcast %"class.xercesc_2_7::SchemaAttDef"* %call77 to %"class.xercesc_2_7::XMLAttDef"*, !dbg !4003
  store %"class.xercesc_2_7::XMLAttDef"* %71, %"class.xercesc_2_7::XMLAttDef"** %attDef, align 8, !dbg !4008
  %72 = load %"class.xercesc_2_7::ComplexTypeInfo"*, %"class.xercesc_2_7::ComplexTypeInfo"** %currType, align 8, !dbg !4009
  %call79 = invoke %"class.xercesc_2_7::SchemaAttDef"* @_ZN11xercesc_2_715ComplexTypeInfo14getAttWildCardEv(%"class.xercesc_2_7::ComplexTypeInfo"* %72)
          to label %invoke.cont78 unwind label %lpad35, !dbg !4010

invoke.cont78:                                    ; preds = %invoke.cont76
  store %"class.xercesc_2_7::SchemaAttDef"* %call79, %"class.xercesc_2_7::SchemaAttDef"** %attWildCard, align 8, !dbg !4011
  br label %if.end86, !dbg !4012

if.else80:                                        ; preds = %if.then73
  %73 = load %"class.xercesc_2_7::DatatypeValidator"*, %"class.xercesc_2_7::DatatypeValidator"** %currDV, align 8, !dbg !4013
  %tobool81 = icmp ne %"class.xercesc_2_7::DatatypeValidator"* %73, null, !dbg !4013
  br i1 %tobool81, label %if.end85, label %if.then82, !dbg !4015

if.then82:                                        ; preds = %if.else80
  %74 = load %"class.xercesc_2_7::XMLElementDecl"*, %"class.xercesc_2_7::XMLElementDecl"** %elemDecl.addr, align 8, !dbg !4016
  %75 = bitcast %"class.xercesc_2_7::XMLElementDecl"* %74 to %"class.xercesc_2_7::SchemaElementDecl"*, !dbg !4018
  %call84 = invoke %"class.xercesc_2_7::SchemaAttDef"* @_ZN11xercesc_2_717SchemaElementDecl14getAttWildCardEv(%"class.xercesc_2_7::SchemaElementDecl"* %75)
          to label %invoke.cont83 unwind label %lpad35, !dbg !4019

invoke.cont83:                                    ; preds = %if.then82
  store %"class.xercesc_2_7::SchemaAttDef"* %call84, %"class.xercesc_2_7::SchemaAttDef"** %attWildCard, align 8, !dbg !4020
  br label %if.end85, !dbg !4021

if.end85:                                         ; preds = %invoke.cont83, %if.else80
  br label %if.end86

if.end86:                                         ; preds = %if.end85, %invoke.cont78
  %76 = load %"class.xercesc_2_7::XMLAttDef"*, %"class.xercesc_2_7::XMLAttDef"** %attDef, align 8, !dbg !4022
  %tobool87 = icmp ne %"class.xercesc_2_7::XMLAttDef"* %76, null, !dbg !4022
  br i1 %tobool87, label %lor.lhs.false88, label %if.then92, !dbg !4024

lor.lhs.false88:                                  ; preds = %if.end86
  %77 = load %"class.xercesc_2_7::XMLAttDef"*, %"class.xercesc_2_7::XMLAttDef"** %attDef, align 8, !dbg !4025
  %call90 = invoke i32 @_ZNK11xercesc_2_79XMLAttDef15getCreateReasonEv(%"class.xercesc_2_7::XMLAttDef"* %77)
          to label %invoke.cont89 unwind label %lpad35, !dbg !4026

invoke.cont89:                                    ; preds = %lor.lhs.false88
  %cmp91 = icmp eq i32 %call90, 1, !dbg !4027
  br i1 %cmp91, label %if.then92, label %if.end197, !dbg !4028

if.then92:                                        ; preds = %invoke.cont89, %if.end86
  %78 = load %"class.xercesc_2_7::SchemaAttDef"*, %"class.xercesc_2_7::SchemaAttDef"** %attWildCard, align 8, !dbg !4029
  %tobool93 = icmp ne %"class.xercesc_2_7::SchemaAttDef"* %78, null, !dbg !4029
  br i1 %tobool93, label %if.then94, label %if.else122, !dbg !4032

if.then94:                                        ; preds = %if.then92
  %79 = load %"class.xercesc_2_7::SchemaAttDef"*, %"class.xercesc_2_7::SchemaAttDef"** %attWildCard, align 8, !dbg !4033
  %80 = load i32, i32* %uriId, align 4, !dbg !4036
  %call96 = invoke zeroext i1 @_ZN11xercesc_2_712IGXMLScanner22anyAttributeValidationEPNS_12SchemaAttDefEjRbS3_(%"class.xercesc_2_7::IGXMLScanner"* %this1, %"class.xercesc_2_7::SchemaAttDef"* %79, i32 %80, i8* dereferenceable(1) %skipThisOne, i8* dereferenceable(1) %laxThisOne)
          to label %invoke.cont95 unwind label %lpad35, !dbg !4037

invoke.cont95:                                    ; preds = %if.then94
  br i1 %call96, label %if.then97, label %if.end121, !dbg !4038

if.then97:                                        ; preds = %invoke.cont95
  %81 = load i8, i8* %skipThisOne, align 1, !dbg !4039
  %tobool98 = trunc i8 %81 to i1, !dbg !4039
  br i1 %tobool98, label %if.end120, label %if.then99, !dbg !4042

if.then99:                                        ; preds = %if.then97
  call void @llvm.dbg.declare(metadata %"class.xercesc_2_7::SchemaGrammar"** %sGrammar, metadata !4043, metadata !DIExpression()), !dbg !4045
  %82 = bitcast %"class.xercesc_2_7::IGXMLScanner"* %this1 to %"class.xercesc_2_7::XMLScanner"*, !dbg !4046
  %fGrammarResolver = getelementptr inbounds %"class.xercesc_2_7::XMLScanner", %"class.xercesc_2_7::XMLScanner"* %82, i32 0, i32 52, !dbg !4046
  %83 = load %"class.xercesc_2_7::GrammarResolver"*, %"class.xercesc_2_7::GrammarResolver"** %fGrammarResolver, align 8, !dbg !4046
  %84 = bitcast %"class.xercesc_2_7::IGXMLScanner"* %this1 to %"class.xercesc_2_7::XMLScanner"*, !dbg !4047
  %85 = load i32, i32* %uriId, align 4, !dbg !4048
  %call101 = invoke i16* @_ZNK11xercesc_2_710XMLScanner10getURITextEj(%"class.xercesc_2_7::XMLScanner"* %84, i32 %85)
          to label %invoke.cont100 unwind label %lpad35, !dbg !4047

invoke.cont100:                                   ; preds = %if.then99
  %call103 = invoke %"class.xercesc_2_7::Grammar"* @_ZN11xercesc_2_715GrammarResolver10getGrammarEPKt(%"class.xercesc_2_7::GrammarResolver"* %83, i16* %call101)
          to label %invoke.cont102 unwind label %lpad35, !dbg !4049

invoke.cont102:                                   ; preds = %invoke.cont100
  %86 = bitcast %"class.xercesc_2_7::Grammar"* %call103 to %"class.xercesc_2_7::SchemaGrammar"*, !dbg !4050
  store %"class.xercesc_2_7::SchemaGrammar"* %86, %"class.xercesc_2_7::SchemaGrammar"** %sGrammar, align 8, !dbg !4045
  %87 = load %"class.xercesc_2_7::SchemaGrammar"*, %"class.xercesc_2_7::SchemaGrammar"** %sGrammar, align 8, !dbg !4051
  %tobool104 = icmp ne %"class.xercesc_2_7::SchemaGrammar"* %87, null, !dbg !4051
  br i1 %tobool104, label %land.lhs.true105, label %if.end119, !dbg !4053

land.lhs.true105:                                 ; preds = %invoke.cont102
  %88 = load %"class.xercesc_2_7::SchemaGrammar"*, %"class.xercesc_2_7::SchemaGrammar"** %sGrammar, align 8, !dbg !4054
  %89 = bitcast %"class.xercesc_2_7::SchemaGrammar"* %88 to i32 (%"class.xercesc_2_7::SchemaGrammar"*)***, !dbg !4055
  %vtable106 = load i32 (%"class.xercesc_2_7::SchemaGrammar"*)**, i32 (%"class.xercesc_2_7::SchemaGrammar"*)*** %89, align 8, !dbg !4055
  %vfn107 = getelementptr inbounds i32 (%"class.xercesc_2_7::SchemaGrammar"*)*, i32 (%"class.xercesc_2_7::SchemaGrammar"*)** %vtable106, i64 5, !dbg !4055
  %90 = load i32 (%"class.xercesc_2_7::SchemaGrammar"*)*, i32 (%"class.xercesc_2_7::SchemaGrammar"*)** %vfn107, align 8, !dbg !4055
  %call109 = invoke i32 %90(%"class.xercesc_2_7::SchemaGrammar"* %88)
          to label %invoke.cont108 unwind label %lpad35, !dbg !4055

invoke.cont108:                                   ; preds = %land.lhs.true105
  %cmp110 = icmp eq i32 %call109, 1, !dbg !4056
  br i1 %cmp110, label %if.then111, label %if.end119, !dbg !4057

if.then111:                                       ; preds = %invoke.cont108
  call void @llvm.dbg.declare(metadata %"class.xercesc_2_7::RefHashTableOf.35"** %attRegistry, metadata !4058, metadata !DIExpression()), !dbg !4173
  %91 = load %"class.xercesc_2_7::SchemaGrammar"*, %"class.xercesc_2_7::SchemaGrammar"** %sGrammar, align 8, !dbg !4174
  %call113 = invoke %"class.xercesc_2_7::RefHashTableOf.35"* @_ZNK11xercesc_2_713SchemaGrammar24getAttributeDeclRegistryEv(%"class.xercesc_2_7::SchemaGrammar"* %91)
          to label %invoke.cont112 unwind label %lpad35, !dbg !4175

invoke.cont112:                                   ; preds = %if.then111
  store %"class.xercesc_2_7::RefHashTableOf.35"* %call113, %"class.xercesc_2_7::RefHashTableOf.35"** %attRegistry, align 8, !dbg !4173
  %92 = load %"class.xercesc_2_7::RefHashTableOf.35"*, %"class.xercesc_2_7::RefHashTableOf.35"** %attRegistry, align 8, !dbg !4176
  %tobool114 = icmp ne %"class.xercesc_2_7::RefHashTableOf.35"* %92, null, !dbg !4176
  br i1 %tobool114, label %if.then115, label %if.end118, !dbg !4178

if.then115:                                       ; preds = %invoke.cont112
  %93 = load %"class.xercesc_2_7::RefHashTableOf.35"*, %"class.xercesc_2_7::RefHashTableOf.35"** %attRegistry, align 8, !dbg !4179
  %94 = load i16*, i16** %suffPtr, align 8, !dbg !4181
  %95 = bitcast i16* %94 to i8*, !dbg !4181
  %call117 = invoke %"class.xercesc_2_7::XMLAttDef"* @_ZN11xercesc_2_714RefHashTableOfINS_9XMLAttDefEE3getEPKv(%"class.xercesc_2_7::RefHashTableOf.35"* %93, i8* %95)
          to label %invoke.cont116 unwind label %lpad35, !dbg !4182

invoke.cont116:                                   ; preds = %if.then115
  store %"class.xercesc_2_7::XMLAttDef"* %call117, %"class.xercesc_2_7::XMLAttDef"** %attDefForWildCard, align 8, !dbg !4183
  br label %if.end118, !dbg !4184

if.end118:                                        ; preds = %invoke.cont116, %invoke.cont112
  br label %if.end119, !dbg !4185

if.end119:                                        ; preds = %if.end118, %invoke.cont108, %invoke.cont102
  br label %if.end120, !dbg !4186

if.end120:                                        ; preds = %if.end119, %if.then97
  br label %if.end121, !dbg !4187

if.end121:                                        ; preds = %if.end120, %invoke.cont95
  br label %if.end196, !dbg !4188

if.else122:                                       ; preds = %if.then92
  %96 = load %"class.xercesc_2_7::ComplexTypeInfo"*, %"class.xercesc_2_7::ComplexTypeInfo"** %currType, align 8, !dbg !4189
  %tobool123 = icmp ne %"class.xercesc_2_7::ComplexTypeInfo"* %96, null, !dbg !4189
  br i1 %tobool123, label %if.then124, label %if.end195, !dbg !4191

if.then124:                                       ; preds = %if.else122
  %97 = load i32, i32* %uriId, align 4, !dbg !4192
  %98 = bitcast %"class.xercesc_2_7::IGXMLScanner"* %this1 to %"class.xercesc_2_7::XMLScanner"*, !dbg !4195
  %fEmptyNamespaceId = getelementptr inbounds %"class.xercesc_2_7::XMLScanner", %"class.xercesc_2_7::XMLScanner"* %98, i32 0, i32 28, !dbg !4195
  %99 = load i32, i32* %fEmptyNamespaceId, align 4, !dbg !4195
  %cmp125 = icmp eq i32 %97, %99, !dbg !4196
  br i1 %cmp125, label %if.then126, label %if.else163, !dbg !4197

if.then126:                                       ; preds = %if.then124
  %100 = load %"class.xercesc_2_7::ComplexTypeInfo"*, %"class.xercesc_2_7::ComplexTypeInfo"** %currType, align 8, !dbg !4198
  %101 = load i16*, i16** %suffPtr, align 8, !dbg !4200
  %102 = bitcast %"class.xercesc_2_7::IGXMLScanner"* %this1 to %"class.xercesc_2_7::XMLScanner"*, !dbg !4201
  %fURIStringPool = getelementptr inbounds %"class.xercesc_2_7::XMLScanner", %"class.xercesc_2_7::XMLScanner"* %102, i32 0, i32 56, !dbg !4201
  %103 = load %"class.xercesc_2_7::XMLStringPool"*, %"class.xercesc_2_7::XMLStringPool"** %fURIStringPool, align 8, !dbg !4201
  %104 = bitcast %"class.xercesc_2_7::IGXMLScanner"* %this1 to %"class.xercesc_2_7::XMLScanner"*, !dbg !4202
  %fGrammar127 = getelementptr inbounds %"class.xercesc_2_7::XMLScanner", %"class.xercesc_2_7::XMLScanner"* %104, i32 0, i32 54, !dbg !4202
  %105 = load %"class.xercesc_2_7::Grammar"*, %"class.xercesc_2_7::Grammar"** %fGrammar127, align 8, !dbg !4202
  %106 = bitcast %"class.xercesc_2_7::Grammar"* %105 to i16* (%"class.xercesc_2_7::Grammar"*)***, !dbg !4203
  %vtable128 = load i16* (%"class.xercesc_2_7::Grammar"*)**, i16* (%"class.xercesc_2_7::Grammar"*)*** %106, align 8, !dbg !4203
  %vfn129 = getelementptr inbounds i16* (%"class.xercesc_2_7::Grammar"*)*, i16* (%"class.xercesc_2_7::Grammar"*)** %vtable128, i64 6, !dbg !4203
  %107 = load i16* (%"class.xercesc_2_7::Grammar"*)*, i16* (%"class.xercesc_2_7::Grammar"*)** %vfn129, align 8, !dbg !4203
  %call131 = invoke i16* %107(%"class.xercesc_2_7::Grammar"* %105)
          to label %invoke.cont130 unwind label %lpad35, !dbg !4203

invoke.cont130:                                   ; preds = %if.then126
  %108 = bitcast %"class.xercesc_2_7::XMLStringPool"* %103 to i32 (%"class.xercesc_2_7::XMLStringPool"*, i16*)***, !dbg !4204
  %vtable132 = load i32 (%"class.xercesc_2_7::XMLStringPool"*, i16*)**, i32 (%"class.xercesc_2_7::XMLStringPool"*, i16*)*** %108, align 8, !dbg !4204
  %vfn133 = getelementptr inbounds i32 (%"class.xercesc_2_7::XMLStringPool"*, i16*)*, i32 (%"class.xercesc_2_7::XMLStringPool"*, i16*)** %vtable132, i64 9, !dbg !4204
  %109 = load i32 (%"class.xercesc_2_7::XMLStringPool"*, i16*)*, i32 (%"class.xercesc_2_7::XMLStringPool"*, i16*)** %vfn133, align 8, !dbg !4204
  %call135 = invoke i32 %109(%"class.xercesc_2_7::XMLStringPool"* %103, i16* %call131)
          to label %invoke.cont134 unwind label %lpad35, !dbg !4204

invoke.cont134:                                   ; preds = %invoke.cont130
  %call137 = invoke %"class.xercesc_2_7::SchemaAttDef"* @_ZN11xercesc_2_715ComplexTypeInfo9getAttDefEPKti(%"class.xercesc_2_7::ComplexTypeInfo"* %100, i16* %101, i32 %call135)
          to label %invoke.cont136 unwind label %lpad35, !dbg !4205

invoke.cont136:                                   ; preds = %invoke.cont134
  %110 = bitcast %"class.xercesc_2_7::SchemaAttDef"* %call137 to %"class.xercesc_2_7::XMLAttDef"*, !dbg !4198
  store %"class.xercesc_2_7::XMLAttDef"* %110, %"class.xercesc_2_7::XMLAttDef"** %attDef, align 8, !dbg !4206
  %111 = bitcast %"class.xercesc_2_7::IGXMLScanner"* %this1 to %"class.xercesc_2_7::XMLScanner"*, !dbg !4207
  %fValidate138 = getelementptr inbounds %"class.xercesc_2_7::XMLScanner", %"class.xercesc_2_7::XMLScanner"* %111, i32 0, i32 10, !dbg !4207
  %112 = load i8, i8* %fValidate138, align 8, !dbg !4207
  %tobool139 = trunc i8 %112 to i1, !dbg !4207
  br i1 %tobool139, label %land.lhs.true140, label %if.end162, !dbg !4209

land.lhs.true140:                                 ; preds = %invoke.cont136
  %113 = load %"class.xercesc_2_7::XMLAttDef"*, %"class.xercesc_2_7::XMLAttDef"** %attDef, align 8, !dbg !4210
  %tobool141 = icmp ne %"class.xercesc_2_7::XMLAttDef"* %113, null, !dbg !4210
  br i1 %tobool141, label %land.lhs.true142, label %if.end162, !dbg !4211

land.lhs.true142:                                 ; preds = %land.lhs.true140
  %114 = load %"class.xercesc_2_7::XMLAttDef"*, %"class.xercesc_2_7::XMLAttDef"** %attDef, align 8, !dbg !4212
  %call144 = invoke i32 @_ZNK11xercesc_2_79XMLAttDef15getCreateReasonEv(%"class.xercesc_2_7::XMLAttDef"* %114)
          to label %invoke.cont143 unwind label %lpad35, !dbg !4213

invoke.cont143:                                   ; preds = %land.lhs.true142
  %cmp145 = icmp ne i32 %call144, 1, !dbg !4214
  br i1 %cmp145, label %if.then146, label %if.end162, !dbg !4215

if.then146:                                       ; preds = %invoke.cont143
  %115 = bitcast %"class.xercesc_2_7::IGXMLScanner"* %this1 to %"class.xercesc_2_7::XMLScanner"*, !dbg !4216
  %fValidator147 = getelementptr inbounds %"class.xercesc_2_7::XMLScanner", %"class.xercesc_2_7::XMLScanner"* %115, i32 0, i32 50, !dbg !4216
  %116 = load %"class.xercesc_2_7::XMLValidator"*, %"class.xercesc_2_7::XMLValidator"** %fValidator147, align 8, !dbg !4216
  %117 = load %"class.xercesc_2_7::XMLAttDef"*, %"class.xercesc_2_7::XMLAttDef"** %attDef, align 8, !dbg !4218
  %118 = bitcast %"class.xercesc_2_7::XMLAttDef"* %117 to i16* (%"class.xercesc_2_7::XMLAttDef"*)***, !dbg !4219
  %vtable148 = load i16* (%"class.xercesc_2_7::XMLAttDef"*)**, i16* (%"class.xercesc_2_7::XMLAttDef"*)*** %118, align 8, !dbg !4219
  %vfn149 = getelementptr inbounds i16* (%"class.xercesc_2_7::XMLAttDef"*)*, i16* (%"class.xercesc_2_7::XMLAttDef"*)** %vtable148, i64 5, !dbg !4219
  %119 = load i16* (%"class.xercesc_2_7::XMLAttDef"*)*, i16* (%"class.xercesc_2_7::XMLAttDef"*)** %vfn149, align 8, !dbg !4219
  %call151 = invoke i16* %119(%"class.xercesc_2_7::XMLAttDef"* %117)
          to label %invoke.cont150 unwind label %lpad35, !dbg !4219

invoke.cont150:                                   ; preds = %if.then146
  invoke void @_ZN11xercesc_2_712XMLValidator9emitErrorENS_8XMLValid5CodesEPKtS4_S4_S4_(%"class.xercesc_2_7::XMLValidator"* %116, i32 95, i16* %call151, i16* null, i16* null, i16* null)
          to label %invoke.cont152 unwind label %lpad35, !dbg !4220

invoke.cont152:                                   ; preds = %invoke.cont150
  %fGrammarType153 = getelementptr inbounds %"class.xercesc_2_7::IGXMLScanner", %"class.xercesc_2_7::IGXMLScanner"* %this1, i32 0, i32 2, !dbg !4221
  %120 = load i32, i32* %fGrammarType153, align 4, !dbg !4221
  %cmp154 = icmp eq i32 %120, 1, !dbg !4223
  br i1 %cmp154, label %if.then155, label %if.end161, !dbg !4224

if.then155:                                       ; preds = %invoke.cont152
  %fPSVIElemContext = getelementptr inbounds %"class.xercesc_2_7::IGXMLScanner", %"class.xercesc_2_7::IGXMLScanner"* %this1, i32 0, i32 24, !dbg !4225
  %fErrorOccurred = getelementptr inbounds %"struct.xercesc_2_7::PSVIElemContext", %"struct.xercesc_2_7::PSVIElemContext"* %fPSVIElemContext, i32 0, i32 1, !dbg !4227
  store i8 1, i8* %fErrorOccurred, align 1, !dbg !4228
  %121 = bitcast %"class.xercesc_2_7::IGXMLScanner"* %this1 to %"class.xercesc_2_7::XMLScanner"*, !dbg !4229
  %call157 = invoke %"class.xercesc_2_7::PSVIHandler"* @_ZN11xercesc_2_710XMLScanner14getPSVIHandlerEv(%"class.xercesc_2_7::XMLScanner"* %121)
          to label %invoke.cont156 unwind label %lpad35, !dbg !4229

invoke.cont156:                                   ; preds = %if.then155
  %tobool158 = icmp ne %"class.xercesc_2_7::PSVIHandler"* %call157, null, !dbg !4229
  br i1 %tobool158, label %if.then159, label %if.end160, !dbg !4231

if.then159:                                       ; preds = %invoke.cont156
  store i32 1, i32* %attrValid, align 4, !dbg !4232
  br label %if.end160, !dbg !4234

if.end160:                                        ; preds = %if.then159, %invoke.cont156
  br label %if.end161, !dbg !4235

if.end161:                                        ; preds = %if.end160, %invoke.cont152
  br label %if.end162, !dbg !4236

if.end162:                                        ; preds = %if.end161, %invoke.cont143, %land.lhs.true140, %invoke.cont136
  br label %if.end194, !dbg !4237

if.else163:                                       ; preds = %if.then124
  %122 = load %"class.xercesc_2_7::ComplexTypeInfo"*, %"class.xercesc_2_7::ComplexTypeInfo"** %currType, align 8, !dbg !4238
  %123 = load i16*, i16** %suffPtr, align 8, !dbg !4240
  %124 = bitcast %"class.xercesc_2_7::IGXMLScanner"* %this1 to %"class.xercesc_2_7::XMLScanner"*, !dbg !4241
  %fEmptyNamespaceId164 = getelementptr inbounds %"class.xercesc_2_7::XMLScanner", %"class.xercesc_2_7::XMLScanner"* %124, i32 0, i32 28, !dbg !4241
  %125 = load i32, i32* %fEmptyNamespaceId164, align 4, !dbg !4241
  %call166 = invoke %"class.xercesc_2_7::SchemaAttDef"* @_ZN11xercesc_2_715ComplexTypeInfo9getAttDefEPKti(%"class.xercesc_2_7::ComplexTypeInfo"* %122, i16* %123, i32 %125)
          to label %invoke.cont165 unwind label %lpad35, !dbg !4242

invoke.cont165:                                   ; preds = %if.else163
  %126 = bitcast %"class.xercesc_2_7::SchemaAttDef"* %call166 to %"class.xercesc_2_7::XMLAttDef"*, !dbg !4238
  store %"class.xercesc_2_7::XMLAttDef"* %126, %"class.xercesc_2_7::XMLAttDef"** %attDef, align 8, !dbg !4243
  %127 = bitcast %"class.xercesc_2_7::IGXMLScanner"* %this1 to %"class.xercesc_2_7::XMLScanner"*, !dbg !4244
  %fValidate167 = getelementptr inbounds %"class.xercesc_2_7::XMLScanner", %"class.xercesc_2_7::XMLScanner"* %127, i32 0, i32 10, !dbg !4244
  %128 = load i8, i8* %fValidate167, align 8, !dbg !4244
  %tobool168 = trunc i8 %128 to i1, !dbg !4244
  br i1 %tobool168, label %land.lhs.true169, label %if.end193, !dbg !4246

land.lhs.true169:                                 ; preds = %invoke.cont165
  %129 = load %"class.xercesc_2_7::XMLAttDef"*, %"class.xercesc_2_7::XMLAttDef"** %attDef, align 8, !dbg !4247
  %tobool170 = icmp ne %"class.xercesc_2_7::XMLAttDef"* %129, null, !dbg !4247
  br i1 %tobool170, label %land.lhs.true171, label %if.end193, !dbg !4248

land.lhs.true171:                                 ; preds = %land.lhs.true169
  %130 = load %"class.xercesc_2_7::XMLAttDef"*, %"class.xercesc_2_7::XMLAttDef"** %attDef, align 8, !dbg !4249
  %call173 = invoke i32 @_ZNK11xercesc_2_79XMLAttDef15getCreateReasonEv(%"class.xercesc_2_7::XMLAttDef"* %130)
          to label %invoke.cont172 unwind label %lpad35, !dbg !4250

invoke.cont172:                                   ; preds = %land.lhs.true171
  %cmp174 = icmp ne i32 %call173, 1, !dbg !4251
  br i1 %cmp174, label %if.then175, label %if.end193, !dbg !4252

if.then175:                                       ; preds = %invoke.cont172
  %131 = bitcast %"class.xercesc_2_7::IGXMLScanner"* %this1 to %"class.xercesc_2_7::XMLScanner"*, !dbg !4253
  %fValidator176 = getelementptr inbounds %"class.xercesc_2_7::XMLScanner", %"class.xercesc_2_7::XMLScanner"* %131, i32 0, i32 50, !dbg !4253
  %132 = load %"class.xercesc_2_7::XMLValidator"*, %"class.xercesc_2_7::XMLValidator"** %fValidator176, align 8, !dbg !4253
  %133 = load %"class.xercesc_2_7::XMLAttDef"*, %"class.xercesc_2_7::XMLAttDef"** %attDef, align 8, !dbg !4255
  %134 = bitcast %"class.xercesc_2_7::XMLAttDef"* %133 to i16* (%"class.xercesc_2_7::XMLAttDef"*)***, !dbg !4256
  %vtable177 = load i16* (%"class.xercesc_2_7::XMLAttDef"*)**, i16* (%"class.xercesc_2_7::XMLAttDef"*)*** %134, align 8, !dbg !4256
  %vfn178 = getelementptr inbounds i16* (%"class.xercesc_2_7::XMLAttDef"*)*, i16* (%"class.xercesc_2_7::XMLAttDef"*)** %vtable177, i64 5, !dbg !4256
  %135 = load i16* (%"class.xercesc_2_7::XMLAttDef"*)*, i16* (%"class.xercesc_2_7::XMLAttDef"*)** %vfn178, align 8, !dbg !4256
  %call180 = invoke i16* %135(%"class.xercesc_2_7::XMLAttDef"* %133)
          to label %invoke.cont179 unwind label %lpad35, !dbg !4256

invoke.cont179:                                   ; preds = %if.then175
  invoke void @_ZN11xercesc_2_712XMLValidator9emitErrorENS_8XMLValid5CodesEPKtS4_S4_S4_(%"class.xercesc_2_7::XMLValidator"* %132, i32 96, i16* %call180, i16* null, i16* null, i16* null)
          to label %invoke.cont181 unwind label %lpad35, !dbg !4257

invoke.cont181:                                   ; preds = %invoke.cont179
  %fGrammarType182 = getelementptr inbounds %"class.xercesc_2_7::IGXMLScanner", %"class.xercesc_2_7::IGXMLScanner"* %this1, i32 0, i32 2, !dbg !4258
  %136 = load i32, i32* %fGrammarType182, align 4, !dbg !4258
  %cmp183 = icmp eq i32 %136, 1, !dbg !4260
  br i1 %cmp183, label %if.then184, label %if.end192, !dbg !4261

if.then184:                                       ; preds = %invoke.cont181
  %fPSVIElemContext185 = getelementptr inbounds %"class.xercesc_2_7::IGXMLScanner", %"class.xercesc_2_7::IGXMLScanner"* %this1, i32 0, i32 24, !dbg !4262
  %fErrorOccurred186 = getelementptr inbounds %"struct.xercesc_2_7::PSVIElemContext", %"struct.xercesc_2_7::PSVIElemContext"* %fPSVIElemContext185, i32 0, i32 1, !dbg !4264
  store i8 1, i8* %fErrorOccurred186, align 1, !dbg !4265
  %137 = bitcast %"class.xercesc_2_7::IGXMLScanner"* %this1 to %"class.xercesc_2_7::XMLScanner"*, !dbg !4266
  %call188 = invoke %"class.xercesc_2_7::PSVIHandler"* @_ZN11xercesc_2_710XMLScanner14getPSVIHandlerEv(%"class.xercesc_2_7::XMLScanner"* %137)
          to label %invoke.cont187 unwind label %lpad35, !dbg !4266

invoke.cont187:                                   ; preds = %if.then184
  %tobool189 = icmp ne %"class.xercesc_2_7::PSVIHandler"* %call188, null, !dbg !4266
  br i1 %tobool189, label %if.then190, label %if.end191, !dbg !4268

if.then190:                                       ; preds = %invoke.cont187
  store i32 1, i32* %attrValid, align 4, !dbg !4269
  br label %if.end191, !dbg !4271

if.end191:                                        ; preds = %if.then190, %invoke.cont187
  br label %if.end192, !dbg !4272

if.end192:                                        ; preds = %if.end191, %invoke.cont181
  br label %if.end193, !dbg !4273

if.end193:                                        ; preds = %if.end192, %invoke.cont172, %land.lhs.true169, %invoke.cont165
  br label %if.end194

if.end194:                                        ; preds = %if.end193, %if.end162
  br label %if.end195, !dbg !4274

if.end195:                                        ; preds = %if.end194, %if.else122
  br label %if.end196

if.end196:                                        ; preds = %if.end195, %if.end121
  br label %if.end197, !dbg !4275

if.end197:                                        ; preds = %if.end196, %invoke.cont89
  br label %if.end205, !dbg !4276

if.else198:                                       ; preds = %if.then70
  %fGrammarType199 = getelementptr inbounds %"class.xercesc_2_7::IGXMLScanner", %"class.xercesc_2_7::IGXMLScanner"* %this1, i32 0, i32 2, !dbg !4277
  %138 = load i32, i32* %fGrammarType199, align 4, !dbg !4277
  %cmp200 = icmp eq i32 %138, 0, !dbg !4280
  br i1 %cmp200, label %if.then201, label %if.end204, !dbg !4281

if.then201:                                       ; preds = %if.else198
  %139 = load %"class.xercesc_2_7::XMLElementDecl"*, %"class.xercesc_2_7::XMLElementDecl"** %elemDecl.addr, align 8, !dbg !4282
  %140 = bitcast %"class.xercesc_2_7::XMLElementDecl"* %139 to %"class.xercesc_2_7::DTDElementDecl"*, !dbg !4283
  %141 = load i16*, i16** %namePtr, align 8, !dbg !4284
  %call203 = invoke %"class.xercesc_2_7::DTDAttDef"* @_ZN11xercesc_2_714DTDElementDecl9getAttDefEPKt(%"class.xercesc_2_7::DTDElementDecl"* %140, i16* %141)
          to label %invoke.cont202 unwind label %lpad35, !dbg !4285

invoke.cont202:                                   ; preds = %if.then201
  %142 = bitcast %"class.xercesc_2_7::DTDAttDef"* %call203 to %"class.xercesc_2_7::XMLAttDef"*, !dbg !4286
  store %"class.xercesc_2_7::XMLAttDef"* %142, %"class.xercesc_2_7::XMLAttDef"** %attDef, align 8, !dbg !4287
  br label %if.end204, !dbg !4288

if.end204:                                        ; preds = %invoke.cont202, %if.else198
  br label %if.end205

if.end205:                                        ; preds = %if.end204, %if.end197
  %143 = load %"class.xercesc_2_7::XMLAttDef"*, %"class.xercesc_2_7::XMLAttDef"** %attDef, align 8, !dbg !4289
  %tobool206 = icmp ne %"class.xercesc_2_7::XMLAttDef"* %143, null, !dbg !4289
  br i1 %tobool206, label %if.then207, label %if.else234, !dbg !4291

if.then207:                                       ; preds = %if.end205
  call void @llvm.dbg.declare(metadata i32** %curCountPtr, metadata !4292, metadata !DIExpression()), !dbg !4294
  %fAttDefRegistry = getelementptr inbounds %"class.xercesc_2_7::IGXMLScanner", %"class.xercesc_2_7::IGXMLScanner"* %this1, i32 0, i32 17, !dbg !4295
  %144 = load %"class.xercesc_2_7::RefHashTableOf.58"*, %"class.xercesc_2_7::RefHashTableOf.58"** %fAttDefRegistry, align 8, !dbg !4295
  %145 = load %"class.xercesc_2_7::XMLAttDef"*, %"class.xercesc_2_7::XMLAttDef"** %attDef, align 8, !dbg !4296
  %146 = bitcast %"class.xercesc_2_7::XMLAttDef"* %145 to i8*, !dbg !4296
  %call209 = invoke i32* @_ZN11xercesc_2_714RefHashTableOfIjE3getEPKv(%"class.xercesc_2_7::RefHashTableOf.58"* %144, i8* %146)
          to label %invoke.cont208 unwind label %lpad35, !dbg !4297

invoke.cont208:                                   ; preds = %if.then207
  store i32* %call209, i32** %curCountPtr, align 8, !dbg !4294
  %147 = load i32*, i32** %curCountPtr, align 8, !dbg !4298
  %tobool210 = icmp ne i32* %147, null, !dbg !4298
  br i1 %tobool210, label %if.else217, label %if.then211, !dbg !4300

if.then211:                                       ; preds = %invoke.cont208
  %148 = bitcast %"class.xercesc_2_7::IGXMLScanner"* %this1 to %"class.xercesc_2_7::XMLScanner"*, !dbg !4301
  %call213 = invoke i32* @_ZN11xercesc_2_710XMLScanner13getNewUIntPtrEv(%"class.xercesc_2_7::XMLScanner"* %148)
          to label %invoke.cont212 unwind label %lpad35, !dbg !4301

invoke.cont212:                                   ; preds = %if.then211
  store i32* %call213, i32** %curCountPtr, align 8, !dbg !4303
  %fElemCount214 = getelementptr inbounds %"class.xercesc_2_7::IGXMLScanner", %"class.xercesc_2_7::IGXMLScanner"* %this1, i32 0, i32 16, !dbg !4304
  %149 = load i32, i32* %fElemCount214, align 8, !dbg !4304
  %150 = load i32*, i32** %curCountPtr, align 8, !dbg !4305
  store i32 %149, i32* %150, align 4, !dbg !4306
  %fAttDefRegistry215 = getelementptr inbounds %"class.xercesc_2_7::IGXMLScanner", %"class.xercesc_2_7::IGXMLScanner"* %this1, i32 0, i32 17, !dbg !4307
  %151 = load %"class.xercesc_2_7::RefHashTableOf.58"*, %"class.xercesc_2_7::RefHashTableOf.58"** %fAttDefRegistry215, align 8, !dbg !4307
  %152 = load %"class.xercesc_2_7::XMLAttDef"*, %"class.xercesc_2_7::XMLAttDef"** %attDef, align 8, !dbg !4308
  %153 = bitcast %"class.xercesc_2_7::XMLAttDef"* %152 to i8*, !dbg !4308
  %154 = load i32*, i32** %curCountPtr, align 8, !dbg !4309
  invoke void @_ZN11xercesc_2_714RefHashTableOfIjE3putEPvPj(%"class.xercesc_2_7::RefHashTableOf.58"* %151, i8* %153, i32* %154)
          to label %invoke.cont216 unwind label %lpad35, !dbg !4310

invoke.cont216:                                   ; preds = %invoke.cont212
  br label %if.end233, !dbg !4311

if.else217:                                       ; preds = %invoke.cont208
  %155 = load i32*, i32** %curCountPtr, align 8, !dbg !4312
  %156 = load i32, i32* %155, align 4, !dbg !4314
  %fElemCount218 = getelementptr inbounds %"class.xercesc_2_7::IGXMLScanner", %"class.xercesc_2_7::IGXMLScanner"* %this1, i32 0, i32 16, !dbg !4315
  %157 = load i32, i32* %fElemCount218, align 8, !dbg !4315
  %cmp219 = icmp ult i32 %156, %157, !dbg !4316
  br i1 %cmp219, label %if.then220, label %if.else222, !dbg !4317

if.then220:                                       ; preds = %if.else217
  %fElemCount221 = getelementptr inbounds %"class.xercesc_2_7::IGXMLScanner", %"class.xercesc_2_7::IGXMLScanner"* %this1, i32 0, i32 16, !dbg !4318
  %158 = load i32, i32* %fElemCount221, align 8, !dbg !4318
  %159 = load i32*, i32** %curCountPtr, align 8, !dbg !4319
  store i32 %158, i32* %159, align 4, !dbg !4320
  br label %if.end232, !dbg !4321

if.else222:                                       ; preds = %if.else217
  %160 = bitcast %"class.xercesc_2_7::IGXMLScanner"* %this1 to %"class.xercesc_2_7::XMLScanner"*, !dbg !4322
  %161 = load %"class.xercesc_2_7::XMLAttDef"*, %"class.xercesc_2_7::XMLAttDef"** %attDef, align 8, !dbg !4324
  %162 = bitcast %"class.xercesc_2_7::XMLAttDef"* %161 to i16* (%"class.xercesc_2_7::XMLAttDef"*)***, !dbg !4325
  %vtable223 = load i16* (%"class.xercesc_2_7::XMLAttDef"*)**, i16* (%"class.xercesc_2_7::XMLAttDef"*)*** %162, align 8, !dbg !4325
  %vfn224 = getelementptr inbounds i16* (%"class.xercesc_2_7::XMLAttDef"*)*, i16* (%"class.xercesc_2_7::XMLAttDef"*)** %vtable223, i64 5, !dbg !4325
  %163 = load i16* (%"class.xercesc_2_7::XMLAttDef"*)*, i16* (%"class.xercesc_2_7::XMLAttDef"*)** %vfn224, align 8, !dbg !4325
  %call226 = invoke i16* %163(%"class.xercesc_2_7::XMLAttDef"* %161)
          to label %invoke.cont225 unwind label %lpad35, !dbg !4325

invoke.cont225:                                   ; preds = %if.else222
  %164 = load %"class.xercesc_2_7::XMLElementDecl"*, %"class.xercesc_2_7::XMLElementDecl"** %elemDecl.addr, align 8, !dbg !4326
  %call228 = invoke i16* @_ZNK11xercesc_2_714XMLElementDecl11getFullNameEv(%"class.xercesc_2_7::XMLElementDecl"* %164)
          to label %invoke.cont227 unwind label %lpad35, !dbg !4327

invoke.cont227:                                   ; preds = %invoke.cont225
  invoke void @_ZN11xercesc_2_710XMLScanner9emitErrorENS_7XMLErrs5CodesEPKtS4_S4_S4_(%"class.xercesc_2_7::XMLScanner"* %160, i32 247, i16* %call226, i16* %call228, i16* null, i16* null)
          to label %invoke.cont229 unwind label %lpad35, !dbg !4322

invoke.cont229:                                   ; preds = %invoke.cont227
  %fPSVIElemContext230 = getelementptr inbounds %"class.xercesc_2_7::IGXMLScanner", %"class.xercesc_2_7::IGXMLScanner"* %this1, i32 0, i32 24, !dbg !4328
  %fErrorOccurred231 = getelementptr inbounds %"struct.xercesc_2_7::PSVIElemContext", %"struct.xercesc_2_7::PSVIElemContext"* %fPSVIElemContext230, i32 0, i32 1, !dbg !4329
  store i8 1, i8* %fErrorOccurred231, align 1, !dbg !4330
  br label %if.end232

if.end232:                                        ; preds = %invoke.cont229, %if.then220
  br label %if.end233

if.end233:                                        ; preds = %if.end232, %invoke.cont216
  br label %if.end262, !dbg !4331

if.else234:                                       ; preds = %if.end205
  %fGrammarType235 = getelementptr inbounds %"class.xercesc_2_7::IGXMLScanner", %"class.xercesc_2_7::IGXMLScanner"* %this1, i32 0, i32 2, !dbg !4332
  %165 = load i32, i32* %fGrammarType235, align 4, !dbg !4332
  %cmp236 = icmp eq i32 %165, 0, !dbg !4335
  br i1 %cmp236, label %if.then237, label %if.else248, !dbg !4336

if.then237:                                       ; preds = %if.else234
  %fUndeclaredAttrRegistry = getelementptr inbounds %"class.xercesc_2_7::IGXMLScanner", %"class.xercesc_2_7::IGXMLScanner"* %this1, i32 0, i32 18, !dbg !4337
  %166 = load %"class.xercesc_2_7::RefHashTableOf.58"*, %"class.xercesc_2_7::RefHashTableOf.58"** %fUndeclaredAttrRegistry, align 8, !dbg !4337
  %167 = load i16*, i16** %namePtr, align 8, !dbg !4340
  %168 = bitcast i16* %167 to i8*, !dbg !4340
  %call239 = invoke zeroext i1 @_ZNK11xercesc_2_714RefHashTableOfIjE11containsKeyEPKv(%"class.xercesc_2_7::RefHashTableOf.58"* %166, i8* %168)
          to label %invoke.cont238 unwind label %lpad35, !dbg !4341

invoke.cont238:                                   ; preds = %if.then237
  br i1 %call239, label %if.else243, label %if.then240, !dbg !4342

if.then240:                                       ; preds = %invoke.cont238
  %fUndeclaredAttrRegistry241 = getelementptr inbounds %"class.xercesc_2_7::IGXMLScanner", %"class.xercesc_2_7::IGXMLScanner"* %this1, i32 0, i32 18, !dbg !4343
  %169 = load %"class.xercesc_2_7::RefHashTableOf.58"*, %"class.xercesc_2_7::RefHashTableOf.58"** %fUndeclaredAttrRegistry241, align 8, !dbg !4343
  %170 = load i16*, i16** %namePtr, align 8, !dbg !4344
  %171 = bitcast i16* %170 to i8*, !dbg !4344
  invoke void @_ZN11xercesc_2_714RefHashTableOfIjE3putEPvPj(%"class.xercesc_2_7::RefHashTableOf.58"* %169, i8* %171, i32* null)
          to label %invoke.cont242 unwind label %lpad35, !dbg !4345

invoke.cont242:                                   ; preds = %if.then240
  br label %if.end247, !dbg !4343

if.else243:                                       ; preds = %invoke.cont238
  %172 = bitcast %"class.xercesc_2_7::IGXMLScanner"* %this1 to %"class.xercesc_2_7::XMLScanner"*, !dbg !4346
  %173 = load i16*, i16** %namePtr, align 8, !dbg !4348
  %174 = load %"class.xercesc_2_7::XMLElementDecl"*, %"class.xercesc_2_7::XMLElementDecl"** %elemDecl.addr, align 8, !dbg !4349
  %call245 = invoke i16* @_ZNK11xercesc_2_714XMLElementDecl11getFullNameEv(%"class.xercesc_2_7::XMLElementDecl"* %174)
          to label %invoke.cont244 unwind label %lpad35, !dbg !4350

invoke.cont244:                                   ; preds = %if.else243
  invoke void @_ZN11xercesc_2_710XMLScanner9emitErrorENS_7XMLErrs5CodesEPKtS4_S4_S4_(%"class.xercesc_2_7::XMLScanner"* %172, i32 247, i16* %173, i16* %call245, i16* null, i16* null)
          to label %invoke.cont246 unwind label %lpad35, !dbg !4346

invoke.cont246:                                   ; preds = %invoke.cont244
  br label %if.end247

if.end247:                                        ; preds = %invoke.cont246, %invoke.cont242
  br label %if.end261, !dbg !4351

if.else248:                                       ; preds = %if.else234
  %fUndeclaredAttrRegistryNS = getelementptr inbounds %"class.xercesc_2_7::IGXMLScanner", %"class.xercesc_2_7::IGXMLScanner"* %this1, i32 0, i32 19, !dbg !4352
  %175 = load %"class.xercesc_2_7::RefHash2KeysTableOf.60"*, %"class.xercesc_2_7::RefHash2KeysTableOf.60"** %fUndeclaredAttrRegistryNS, align 8, !dbg !4352
  %176 = load i16*, i16** %suffPtr, align 8, !dbg !4355
  %177 = bitcast i16* %176 to i8*, !dbg !4355
  %178 = load i32, i32* %uriId, align 4, !dbg !4356
  %call250 = invoke zeroext i1 @_ZNK11xercesc_2_719RefHash2KeysTableOfIjE11containsKeyEPKvi(%"class.xercesc_2_7::RefHash2KeysTableOf.60"* %175, i8* %177, i32 %178)
          to label %invoke.cont249 unwind label %lpad35, !dbg !4357

invoke.cont249:                                   ; preds = %if.else248
  br i1 %call250, label %if.else254, label %if.then251, !dbg !4358

if.then251:                                       ; preds = %invoke.cont249
  %fUndeclaredAttrRegistryNS252 = getelementptr inbounds %"class.xercesc_2_7::IGXMLScanner", %"class.xercesc_2_7::IGXMLScanner"* %this1, i32 0, i32 19, !dbg !4359
  %179 = load %"class.xercesc_2_7::RefHash2KeysTableOf.60"*, %"class.xercesc_2_7::RefHash2KeysTableOf.60"** %fUndeclaredAttrRegistryNS252, align 8, !dbg !4359
  %180 = load i16*, i16** %suffPtr, align 8, !dbg !4360
  %181 = bitcast i16* %180 to i8*, !dbg !4360
  %182 = load i32, i32* %uriId, align 4, !dbg !4361
  invoke void @_ZN11xercesc_2_719RefHash2KeysTableOfIjE3putEPviPj(%"class.xercesc_2_7::RefHash2KeysTableOf.60"* %179, i8* %181, i32 %182, i32* null)
          to label %invoke.cont253 unwind label %lpad35, !dbg !4362

invoke.cont253:                                   ; preds = %if.then251
  br label %if.end260, !dbg !4359

if.else254:                                       ; preds = %invoke.cont249
  %183 = bitcast %"class.xercesc_2_7::IGXMLScanner"* %this1 to %"class.xercesc_2_7::XMLScanner"*, !dbg !4363
  %184 = load i16*, i16** %namePtr, align 8, !dbg !4365
  %185 = load %"class.xercesc_2_7::XMLElementDecl"*, %"class.xercesc_2_7::XMLElementDecl"** %elemDecl.addr, align 8, !dbg !4366
  %call256 = invoke i16* @_ZNK11xercesc_2_714XMLElementDecl11getFullNameEv(%"class.xercesc_2_7::XMLElementDecl"* %185)
          to label %invoke.cont255 unwind label %lpad35, !dbg !4367

invoke.cont255:                                   ; preds = %if.else254
  invoke void @_ZN11xercesc_2_710XMLScanner9emitErrorENS_7XMLErrs5CodesEPKtS4_S4_S4_(%"class.xercesc_2_7::XMLScanner"* %183, i32 247, i16* %184, i16* %call256, i16* null, i16* null)
          to label %invoke.cont257 unwind label %lpad35, !dbg !4363

invoke.cont257:                                   ; preds = %invoke.cont255
  %fPSVIElemContext258 = getelementptr inbounds %"class.xercesc_2_7::IGXMLScanner", %"class.xercesc_2_7::IGXMLScanner"* %this1, i32 0, i32 24, !dbg !4368
  %fErrorOccurred259 = getelementptr inbounds %"struct.xercesc_2_7::PSVIElemContext", %"struct.xercesc_2_7::PSVIElemContext"* %fPSVIElemContext258, i32 0, i32 1, !dbg !4369
  store i8 1, i8* %fErrorOccurred259, align 1, !dbg !4370
  br label %if.end260

if.end260:                                        ; preds = %invoke.cont257, %invoke.cont253
  br label %if.end261

if.end261:                                        ; preds = %if.end260, %if.end247
  br label %if.end262

if.end262:                                        ; preds = %if.end261, %if.end233
  %fGrammarType263 = getelementptr inbounds %"class.xercesc_2_7::IGXMLScanner", %"class.xercesc_2_7::IGXMLScanner"* %this1, i32 0, i32 2, !dbg !4371
  %186 = load i32, i32* %fGrammarType263, align 4, !dbg !4371
  %cmp264 = icmp eq i32 %186, 1, !dbg !4373
  br i1 %cmp264, label %if.then265, label %if.end293, !dbg !4374

if.then265:                                       ; preds = %if.end262
  %187 = load %"class.xercesc_2_7::XMLAttDef"*, %"class.xercesc_2_7::XMLAttDef"** %attDef, align 8, !dbg !4375
  %tobool266 = icmp ne %"class.xercesc_2_7::XMLAttDef"* %187, null, !dbg !4375
  br i1 %tobool266, label %if.end292, label %land.lhs.true267, !dbg !4378

land.lhs.true267:                                 ; preds = %if.then265
  %188 = load %"class.xercesc_2_7::XMLAttDef"*, %"class.xercesc_2_7::XMLAttDef"** %attDefForWildCard, align 8, !dbg !4379
  %tobool268 = icmp ne %"class.xercesc_2_7::XMLAttDef"* %188, null, !dbg !4379
  br i1 %tobool268, label %if.end292, label %if.then269, !dbg !4380

if.then269:                                       ; preds = %land.lhs.true267
  %189 = load i8, i8* %laxThisOne, align 1, !dbg !4381
  %tobool270 = trunc i8 %189 to i1, !dbg !4381
  br i1 %tobool270, label %if.end276, label %land.lhs.true271, !dbg !4384

land.lhs.true271:                                 ; preds = %if.then269
  %190 = load i8, i8* %skipThisOne, align 1, !dbg !4385
  %tobool272 = trunc i8 %190 to i1, !dbg !4385
  br i1 %tobool272, label %if.end276, label %if.then273, !dbg !4386

if.then273:                                       ; preds = %land.lhs.true271
  %fPSVIElemContext274 = getelementptr inbounds %"class.xercesc_2_7::IGXMLScanner", %"class.xercesc_2_7::IGXMLScanner"* %this1, i32 0, i32 24, !dbg !4387
  %fErrorOccurred275 = getelementptr inbounds %"struct.xercesc_2_7::PSVIElemContext", %"struct.xercesc_2_7::PSVIElemContext"* %fPSVIElemContext274, i32 0, i32 1, !dbg !4389
  store i8 1, i8* %fErrorOccurred275, align 1, !dbg !4390
  br label %if.end276, !dbg !4391

if.end276:                                        ; preds = %if.then273, %land.lhs.true271, %if.then269
  %191 = bitcast %"class.xercesc_2_7::IGXMLScanner"* %this1 to %"class.xercesc_2_7::XMLScanner"*, !dbg !4392
  %call278 = invoke %"class.xercesc_2_7::PSVIHandler"* @_ZN11xercesc_2_710XMLScanner14getPSVIHandlerEv(%"class.xercesc_2_7::XMLScanner"* %191)
          to label %invoke.cont277 unwind label %lpad35, !dbg !4392

invoke.cont277:                                   ; preds = %if.end276
  %tobool279 = icmp ne %"class.xercesc_2_7::PSVIHandler"* %call278, null, !dbg !4392
  br i1 %tobool279, label %if.then280, label %if.end291, !dbg !4394

if.then280:                                       ; preds = %invoke.cont277
  %192 = load i8, i8* %laxThisOne, align 1, !dbg !4395
  %tobool281 = trunc i8 %192 to i1, !dbg !4395
  br i1 %tobool281, label %if.else285, label %land.lhs.true282, !dbg !4398

land.lhs.true282:                                 ; preds = %if.then280
  %193 = load i8, i8* %skipThisOne, align 1, !dbg !4399
  %tobool283 = trunc i8 %193 to i1, !dbg !4399
  br i1 %tobool283, label %if.else285, label %if.then284, !dbg !4400

if.then284:                                       ; preds = %land.lhs.true282
  store i32 1, i32* %attrValid, align 4, !dbg !4401
  br label %if.end290, !dbg !4403

if.else285:                                       ; preds = %land.lhs.true282, %if.then280
  %194 = load i8, i8* %laxThisOne, align 1, !dbg !4404
  %tobool286 = trunc i8 %194 to i1, !dbg !4404
  br i1 %tobool286, label %if.then287, label %if.else288, !dbg !4406

if.then287:                                       ; preds = %if.else285
  store i32 0, i32* %attrValid, align 4, !dbg !4407
  store i32 1, i32* %attrAssessed, align 4, !dbg !4409
  br label %if.end289, !dbg !4410

if.else288:                                       ; preds = %if.else285
  store i32 0, i32* %attrValid, align 4, !dbg !4411
  store i32 0, i32* %attrAssessed, align 4, !dbg !4413
  br label %if.end289

if.end289:                                        ; preds = %if.else288, %if.then287
  br label %if.end290

if.end290:                                        ; preds = %if.end289, %if.then284
  br label %if.end291, !dbg !4414

if.end291:                                        ; preds = %if.end290, %invoke.cont277
  br label %if.end292, !dbg !4415

if.end292:                                        ; preds = %if.end291, %land.lhs.true267, %if.then265
  br label %if.end293, !dbg !4416

if.end293:                                        ; preds = %if.end292, %if.end262
  call void @llvm.dbg.declare(metadata i8* %errorCondition, metadata !4417, metadata !DIExpression()), !dbg !4418
  %195 = bitcast %"class.xercesc_2_7::IGXMLScanner"* %this1 to %"class.xercesc_2_7::XMLScanner"*, !dbg !4419
  %fValidate294 = getelementptr inbounds %"class.xercesc_2_7::XMLScanner", %"class.xercesc_2_7::XMLScanner"* %195, i32 0, i32 10, !dbg !4419
  %196 = load i8, i8* %fValidate294, align 8, !dbg !4419
  %tobool295 = trunc i8 %196 to i1, !dbg !4419
  br i1 %tobool295, label %land.lhs.true296, label %land.end, !dbg !4420

land.lhs.true296:                                 ; preds = %if.end293
  %197 = load %"class.xercesc_2_7::XMLAttDef"*, %"class.xercesc_2_7::XMLAttDef"** %attDefForWildCard, align 8, !dbg !4421
  %tobool297 = icmp ne %"class.xercesc_2_7::XMLAttDef"* %197, null, !dbg !4421
  br i1 %tobool297, label %land.end, label %land.rhs, !dbg !4422

land.rhs:                                         ; preds = %land.lhs.true296
  %198 = load %"class.xercesc_2_7::XMLAttDef"*, %"class.xercesc_2_7::XMLAttDef"** %attDef, align 8, !dbg !4423
  %tobool298 = icmp ne %"class.xercesc_2_7::XMLAttDef"* %198, null, !dbg !4423
  %lnot = xor i1 %tobool298, true, !dbg !4424
  br label %land.end

land.end:                                         ; preds = %land.rhs, %land.lhs.true296, %if.end293
  %199 = phi i1 [ false, %land.lhs.true296 ], [ false, %if.end293 ], [ %lnot, %land.rhs ], !dbg !4425
  %frombool299 = zext i1 %199 to i8, !dbg !4418
  store i8 %frombool299, i8* %errorCondition, align 1, !dbg !4418
  %200 = load i8, i8* %errorCondition, align 1, !dbg !4426
  %tobool300 = trunc i8 %200 to i1, !dbg !4426
  br i1 %tobool300, label %land.lhs.true301, label %if.end334, !dbg !4428

land.lhs.true301:                                 ; preds = %land.end
  %201 = load i8, i8* %skipThisOne, align 1, !dbg !4429
  %tobool302 = trunc i8 %201 to i1, !dbg !4429
  br i1 %tobool302, label %if.end334, label %land.lhs.true303, !dbg !4430

land.lhs.true303:                                 ; preds = %land.lhs.true301
  %202 = load i8, i8* %laxThisOne, align 1, !dbg !4431
  %tobool304 = trunc i8 %202 to i1, !dbg !4431
  br i1 %tobool304, label %if.end334, label %if.then305, !dbg !4432

if.then305:                                       ; preds = %land.lhs.true303
  call void @llvm.dbg.declare(metadata %"class.xercesc_2_7::XMLBufBid"* %bbMsg, metadata !4433, metadata !DIExpression()), !dbg !4435
  %203 = bitcast %"class.xercesc_2_7::IGXMLScanner"* %this1 to %"class.xercesc_2_7::XMLScanner"*, !dbg !4436
  %fBufMgr306 = getelementptr inbounds %"class.xercesc_2_7::XMLScanner", %"class.xercesc_2_7::XMLScanner"* %203, i32 0, i32 63, !dbg !4436
  invoke void @_ZN11xercesc_2_79XMLBufBidC2EPNS_12XMLBufferMgrE(%"class.xercesc_2_7::XMLBufBid"* %bbMsg, %"class.xercesc_2_7::XMLBufferMgr"* %fBufMgr306)
          to label %invoke.cont307 unwind label %lpad35, !dbg !4435

invoke.cont307:                                   ; preds = %if.then305
  call void @llvm.dbg.declare(metadata %"class.xercesc_2_7::XMLBuffer"** %bufMsg, metadata !4437, metadata !DIExpression()), !dbg !4438
  %call310 = invoke dereferenceable(40) %"class.xercesc_2_7::XMLBuffer"* @_ZN11xercesc_2_79XMLBufBid9getBufferEv(%"class.xercesc_2_7::XMLBufBid"* %bbMsg)
          to label %invoke.cont309 unwind label %lpad308, !dbg !4439

invoke.cont309:                                   ; preds = %invoke.cont307
  store %"class.xercesc_2_7::XMLBuffer"* %call310, %"class.xercesc_2_7::XMLBuffer"** %bufMsg, align 8, !dbg !4438
  %204 = load i32, i32* %uriId, align 4, !dbg !4440
  %205 = bitcast %"class.xercesc_2_7::IGXMLScanner"* %this1 to %"class.xercesc_2_7::XMLScanner"*, !dbg !4442
  %fEmptyNamespaceId311 = getelementptr inbounds %"class.xercesc_2_7::XMLScanner", %"class.xercesc_2_7::XMLScanner"* %205, i32 0, i32 28, !dbg !4442
  %206 = load i32, i32* %fEmptyNamespaceId311, align 4, !dbg !4442
  %cmp312 = icmp ne i32 %204, %206, !dbg !4443
  br i1 %cmp312, label %if.then313, label %if.end326, !dbg !4444

if.then313:                                       ; preds = %invoke.cont309
  call void @llvm.dbg.declare(metadata %"class.xercesc_2_7::XMLBufBid"* %bbURI, metadata !4445, metadata !DIExpression()), !dbg !4447
  %207 = bitcast %"class.xercesc_2_7::IGXMLScanner"* %this1 to %"class.xercesc_2_7::XMLScanner"*, !dbg !4448
  %fBufMgr314 = getelementptr inbounds %"class.xercesc_2_7::XMLScanner", %"class.xercesc_2_7::XMLScanner"* %207, i32 0, i32 63, !dbg !4448
  invoke void @_ZN11xercesc_2_79XMLBufBidC2EPNS_12XMLBufferMgrE(%"class.xercesc_2_7::XMLBufBid"* %bbURI, %"class.xercesc_2_7::XMLBufferMgr"* %fBufMgr314)
          to label %invoke.cont315 unwind label %lpad308, !dbg !4447

invoke.cont315:                                   ; preds = %if.then313
  call void @llvm.dbg.declare(metadata %"class.xercesc_2_7::XMLBuffer"** %bufURI, metadata !4449, metadata !DIExpression()), !dbg !4450
  %call318 = invoke dereferenceable(40) %"class.xercesc_2_7::XMLBuffer"* @_ZN11xercesc_2_79XMLBufBid9getBufferEv(%"class.xercesc_2_7::XMLBufBid"* %bbURI)
          to label %invoke.cont317 unwind label %lpad316, !dbg !4451

invoke.cont317:                                   ; preds = %invoke.cont315
  store %"class.xercesc_2_7::XMLBuffer"* %call318, %"class.xercesc_2_7::XMLBuffer"** %bufURI, align 8, !dbg !4450
  %208 = bitcast %"class.xercesc_2_7::IGXMLScanner"* %this1 to %"class.xercesc_2_7::XMLScanner"*, !dbg !4452
  %209 = load i32, i32* %uriId, align 4, !dbg !4453
  %210 = load %"class.xercesc_2_7::XMLBuffer"*, %"class.xercesc_2_7::XMLBuffer"** %bufURI, align 8, !dbg !4454
  %call320 = invoke zeroext i1 @_ZNK11xercesc_2_710XMLScanner10getURITextEjRNS_9XMLBufferE(%"class.xercesc_2_7::XMLScanner"* %208, i32 %209, %"class.xercesc_2_7::XMLBuffer"* dereferenceable(40) %210)
          to label %invoke.cont319 unwind label %lpad316, !dbg !4452

invoke.cont319:                                   ; preds = %invoke.cont317
  %211 = load %"class.xercesc_2_7::XMLBuffer"*, %"class.xercesc_2_7::XMLBuffer"** %bufMsg, align 8, !dbg !4455
  invoke void @_ZN11xercesc_2_79XMLBuffer6appendEt(%"class.xercesc_2_7::XMLBuffer"* %211, i16 zeroext 123)
          to label %invoke.cont321 unwind label %lpad316, !dbg !4456

invoke.cont321:                                   ; preds = %invoke.cont319
  %212 = load %"class.xercesc_2_7::XMLBuffer"*, %"class.xercesc_2_7::XMLBuffer"** %bufMsg, align 8, !dbg !4457
  %213 = load %"class.xercesc_2_7::XMLBuffer"*, %"class.xercesc_2_7::XMLBuffer"** %bufURI, align 8, !dbg !4458
  %call323 = invoke i16* @_ZN11xercesc_2_79XMLBuffer12getRawBufferEv(%"class.xercesc_2_7::XMLBuffer"* %213)
          to label %invoke.cont322 unwind label %lpad316, !dbg !4459

invoke.cont322:                                   ; preds = %invoke.cont321
  invoke void @_ZN11xercesc_2_79XMLBuffer6appendEPKt(%"class.xercesc_2_7::XMLBuffer"* %212, i16* %call323)
          to label %invoke.cont324 unwind label %lpad316, !dbg !4460

invoke.cont324:                                   ; preds = %invoke.cont322
  %214 = load %"class.xercesc_2_7::XMLBuffer"*, %"class.xercesc_2_7::XMLBuffer"** %bufMsg, align 8, !dbg !4461
  invoke void @_ZN11xercesc_2_79XMLBuffer6appendEt(%"class.xercesc_2_7::XMLBuffer"* %214, i16 zeroext 125)
          to label %invoke.cont325 unwind label %lpad316, !dbg !4462

invoke.cont325:                                   ; preds = %invoke.cont324
  call void @_ZN11xercesc_2_79XMLBufBidD2Ev(%"class.xercesc_2_7::XMLBufBid"* %bbURI) #10, !dbg !4463
  br label %if.end326, !dbg !4464

lpad308:                                          ; preds = %invoke.cont331, %invoke.cont329, %invoke.cont327, %if.end326, %if.then313, %invoke.cont307
  %215 = landingpad { i8*, i32 }
          cleanup, !dbg !4465
  %216 = extractvalue { i8*, i32 } %215, 0, !dbg !4465
  store i8* %216, i8** %exn.slot, align 8, !dbg !4465
  %217 = extractvalue { i8*, i32 } %215, 1, !dbg !4465
  store i32 %217, i32* %ehselector.slot, align 4, !dbg !4465
  br label %ehcleanup, !dbg !4465

lpad316:                                          ; preds = %invoke.cont324, %invoke.cont322, %invoke.cont321, %invoke.cont319, %invoke.cont317, %invoke.cont315
  %218 = landingpad { i8*, i32 }
          cleanup, !dbg !4466
  %219 = extractvalue { i8*, i32 } %218, 0, !dbg !4466
  store i8* %219, i8** %exn.slot, align 8, !dbg !4466
  %220 = extractvalue { i8*, i32 } %218, 1, !dbg !4466
  store i32 %220, i32* %ehselector.slot, align 4, !dbg !4466
  call void @_ZN11xercesc_2_79XMLBufBidD2Ev(%"class.xercesc_2_7::XMLBufBid"* %bbURI) #10, !dbg !4463
  br label %ehcleanup, !dbg !4463

if.end326:                                        ; preds = %invoke.cont325, %invoke.cont309
  %221 = load %"class.xercesc_2_7::XMLBuffer"*, %"class.xercesc_2_7::XMLBuffer"** %bufMsg, align 8, !dbg !4467
  %222 = load i16*, i16** %suffPtr, align 8, !dbg !4468
  invoke void @_ZN11xercesc_2_79XMLBuffer6appendEPKt(%"class.xercesc_2_7::XMLBuffer"* %221, i16* %222)
          to label %invoke.cont327 unwind label %lpad308, !dbg !4469

invoke.cont327:                                   ; preds = %if.end326
  %223 = bitcast %"class.xercesc_2_7::IGXMLScanner"* %this1 to %"class.xercesc_2_7::XMLScanner"*, !dbg !4470
  %fValidator328 = getelementptr inbounds %"class.xercesc_2_7::XMLScanner", %"class.xercesc_2_7::XMLScanner"* %223, i32 0, i32 50, !dbg !4470
  %224 = load %"class.xercesc_2_7::XMLValidator"*, %"class.xercesc_2_7::XMLValidator"** %fValidator328, align 8, !dbg !4470
  %225 = load %"class.xercesc_2_7::XMLBuffer"*, %"class.xercesc_2_7::XMLBuffer"** %bufMsg, align 8, !dbg !4471
  %call330 = invoke i16* @_ZN11xercesc_2_79XMLBuffer12getRawBufferEv(%"class.xercesc_2_7::XMLBuffer"* %225)
          to label %invoke.cont329 unwind label %lpad308, !dbg !4472

invoke.cont329:                                   ; preds = %invoke.cont327
  %226 = load %"class.xercesc_2_7::XMLElementDecl"*, %"class.xercesc_2_7::XMLElementDecl"** %elemDecl.addr, align 8, !dbg !4473
  %call332 = invoke i16* @_ZNK11xercesc_2_714XMLElementDecl11getFullNameEv(%"class.xercesc_2_7::XMLElementDecl"* %226)
          to label %invoke.cont331 unwind label %lpad308, !dbg !4474

invoke.cont331:                                   ; preds = %invoke.cont329
  invoke void @_ZN11xercesc_2_712XMLValidator9emitErrorENS_8XMLValid5CodesEPKtS4_S4_S4_(%"class.xercesc_2_7::XMLValidator"* %224, i32 17, i16* %call330, i16* %call332, i16* null, i16* null)
          to label %invoke.cont333 unwind label %lpad308, !dbg !4475

invoke.cont333:                                   ; preds = %invoke.cont331
  call void @_ZN11xercesc_2_79XMLBufBidD2Ev(%"class.xercesc_2_7::XMLBufBid"* %bbMsg) #10, !dbg !4476
  br label %if.end334, !dbg !4477

ehcleanup:                                        ; preds = %lpad316, %lpad308
  call void @_ZN11xercesc_2_79XMLBufBidD2Ev(%"class.xercesc_2_7::XMLBufBid"* %bbMsg) #10, !dbg !4476
  br label %ehcleanup665, !dbg !4476

if.end334:                                        ; preds = %invoke.cont333, %land.lhs.true303, %land.lhs.true301, %land.end
  %227 = load %"class.xercesc_2_7::XMLAttDef"*, %"class.xercesc_2_7::XMLAttDef"** %attDefForWildCard, align 8, !dbg !4478
  %tobool335 = icmp ne %"class.xercesc_2_7::XMLAttDef"* %227, null, !dbg !4478
  br i1 %tobool335, label %if.then336, label %if.else395, !dbg !4480

if.then336:                                       ; preds = %if.end334
  %228 = load %"class.xercesc_2_7::XMLAttDef"*, %"class.xercesc_2_7::XMLAttDef"** %attDefForWildCard, align 8, !dbg !4481
  %229 = load i16*, i16** %namePtr, align 8, !dbg !4483
  %230 = load %"class.xercesc_2_7::KVStringPair"*, %"class.xercesc_2_7::KVStringPair"** %curPair, align 8, !dbg !4484
  %call338 = invoke i16* @_ZNK11xercesc_2_712KVStringPair8getValueEv(%"class.xercesc_2_7::KVStringPair"* %230)
          to label %invoke.cont337 unwind label %lpad35, !dbg !4485

invoke.cont337:                                   ; preds = %if.then336
  %231 = load %"class.xercesc_2_7::XMLBuffer"*, %"class.xercesc_2_7::XMLBuffer"** %normBuf, align 8, !dbg !4486
  %call340 = invoke zeroext i1 @_ZN11xercesc_2_712IGXMLScanner17normalizeAttValueEPKNS_9XMLAttDefEPKtS5_RNS_9XMLBufferE(%"class.xercesc_2_7::IGXMLScanner"* %this1, %"class.xercesc_2_7::XMLAttDef"* %228, i16* %229, i16* %call338, %"class.xercesc_2_7::XMLBuffer"* dereferenceable(40) %231)
          to label %invoke.cont339 unwind label %lpad35, !dbg !4487

invoke.cont339:                                   ; preds = %invoke.cont337
  call void @llvm.dbg.declare(metadata i16** %xsNormalized, metadata !4488, metadata !DIExpression()), !dbg !4489
  %232 = load %"class.xercesc_2_7::XMLBuffer"*, %"class.xercesc_2_7::XMLBuffer"** %normBuf, align 8, !dbg !4490
  %call342 = invoke i16* @_ZN11xercesc_2_79XMLBuffer12getRawBufferEv(%"class.xercesc_2_7::XMLBuffer"* %232)
          to label %invoke.cont341 unwind label %lpad35, !dbg !4491

invoke.cont341:                                   ; preds = %invoke.cont339
  store i16* %call342, i16** %xsNormalized, align 8, !dbg !4489
  call void @llvm.dbg.declare(metadata %"class.xercesc_2_7::DatatypeValidator"** %tempDV, metadata !4492, metadata !DIExpression()), !dbg !4493
  %233 = load %"class.xercesc_2_7::XMLAttDef"*, %"class.xercesc_2_7::XMLAttDef"** %attDefForWildCard, align 8, !dbg !4494
  %234 = bitcast %"class.xercesc_2_7::XMLAttDef"* %233 to %"class.xercesc_2_7::SchemaAttDef"*, !dbg !4495
  %call344 = invoke %"class.xercesc_2_7::DatatypeValidator"* @_ZNK11xercesc_2_712SchemaAttDef20getDatatypeValidatorEv(%"class.xercesc_2_7::SchemaAttDef"* %234)
          to label %invoke.cont343 unwind label %lpad35, !dbg !4496

invoke.cont343:                                   ; preds = %invoke.cont341
  store %"class.xercesc_2_7::DatatypeValidator"* %call344, %"class.xercesc_2_7::DatatypeValidator"** %tempDV, align 8, !dbg !4493
  %235 = load %"class.xercesc_2_7::DatatypeValidator"*, %"class.xercesc_2_7::DatatypeValidator"** %tempDV, align 8, !dbg !4497
  %tobool345 = icmp ne %"class.xercesc_2_7::DatatypeValidator"* %235, null, !dbg !4497
  br i1 %tobool345, label %land.lhs.true346, label %if.end364, !dbg !4499

land.lhs.true346:                                 ; preds = %invoke.cont343
  %236 = load %"class.xercesc_2_7::DatatypeValidator"*, %"class.xercesc_2_7::DatatypeValidator"** %tempDV, align 8, !dbg !4500
  %call348 = invoke signext i16 @_ZNK11xercesc_2_717DatatypeValidator10getWSFacetEv(%"class.xercesc_2_7::DatatypeValidator"* %236)
          to label %invoke.cont347 unwind label %lpad35, !dbg !4501

invoke.cont347:                                   ; preds = %land.lhs.true346
  %conv349 = sext i16 %call348 to i32, !dbg !4500
  %cmp350 = icmp ne i32 %conv349, 0, !dbg !4502
  br i1 %cmp350, label %if.then351, label %if.end364, !dbg !4503

if.then351:                                       ; preds = %invoke.cont347
  %237 = bitcast %"class.xercesc_2_7::IGXMLScanner"* %this1 to %"class.xercesc_2_7::XMLScanner"*, !dbg !4504
  %fValidator352 = getelementptr inbounds %"class.xercesc_2_7::XMLScanner", %"class.xercesc_2_7::XMLScanner"* %237, i32 0, i32 50, !dbg !4504
  %238 = load %"class.xercesc_2_7::XMLValidator"*, %"class.xercesc_2_7::XMLValidator"** %fValidator352, align 8, !dbg !4504
  %239 = bitcast %"class.xercesc_2_7::XMLValidator"* %238 to %"class.xercesc_2_7::SchemaValidator"*, !dbg !4506
  %240 = load %"class.xercesc_2_7::DatatypeValidator"*, %"class.xercesc_2_7::DatatypeValidator"** %tempDV, align 8, !dbg !4507
  %241 = load i16*, i16** %xsNormalized, align 8, !dbg !4508
  %242 = bitcast %"class.xercesc_2_7::IGXMLScanner"* %this1 to %"class.xercesc_2_7::XMLScanner"*, !dbg !4509
  %fWSNormalizeBuf = getelementptr inbounds %"class.xercesc_2_7::XMLScanner", %"class.xercesc_2_7::XMLScanner"* %242, i32 0, i32 70, !dbg !4509
  invoke void @_ZN11xercesc_2_715SchemaValidator19normalizeWhiteSpaceEPNS_17DatatypeValidatorEPKtRNS_9XMLBufferE(%"class.xercesc_2_7::SchemaValidator"* %239, %"class.xercesc_2_7::DatatypeValidator"* %240, i16* %241, %"class.xercesc_2_7::XMLBuffer"* dereferenceable(40) %fWSNormalizeBuf)
          to label %invoke.cont353 unwind label %lpad35, !dbg !4510

invoke.cont353:                                   ; preds = %if.then351
  %243 = bitcast %"class.xercesc_2_7::IGXMLScanner"* %this1 to %"class.xercesc_2_7::XMLScanner"*, !dbg !4511
  %fWSNormalizeBuf354 = getelementptr inbounds %"class.xercesc_2_7::XMLScanner", %"class.xercesc_2_7::XMLScanner"* %243, i32 0, i32 70, !dbg !4511
  %call356 = invoke i16* @_ZN11xercesc_2_79XMLBuffer12getRawBufferEv(%"class.xercesc_2_7::XMLBuffer"* %fWSNormalizeBuf354)
          to label %invoke.cont355 unwind label %lpad35, !dbg !4512

invoke.cont355:                                   ; preds = %invoke.cont353
  store i16* %call356, i16** %xsNormalized, align 8, !dbg !4513
  %244 = bitcast %"class.xercesc_2_7::IGXMLScanner"* %this1 to %"class.xercesc_2_7::XMLScanner"*, !dbg !4514
  %fNormalizeData = getelementptr inbounds %"class.xercesc_2_7::XMLScanner", %"class.xercesc_2_7::XMLScanner"* %244, i32 0, i32 18, !dbg !4514
  %245 = load i8, i8* %fNormalizeData, align 8, !dbg !4514
  %tobool357 = trunc i8 %245 to i1, !dbg !4514
  br i1 %tobool357, label %land.lhs.true358, label %if.end363, !dbg !4516

land.lhs.true358:                                 ; preds = %invoke.cont355
  %246 = bitcast %"class.xercesc_2_7::IGXMLScanner"* %this1 to %"class.xercesc_2_7::XMLScanner"*, !dbg !4517
  %fValidate359 = getelementptr inbounds %"class.xercesc_2_7::XMLScanner", %"class.xercesc_2_7::XMLScanner"* %246, i32 0, i32 10, !dbg !4517
  %247 = load i8, i8* %fValidate359, align 8, !dbg !4517
  %tobool360 = trunc i8 %247 to i1, !dbg !4517
  br i1 %tobool360, label %if.then361, label %if.end363, !dbg !4518

if.then361:                                       ; preds = %land.lhs.true358
  %248 = load %"class.xercesc_2_7::XMLBuffer"*, %"class.xercesc_2_7::XMLBuffer"** %normBuf, align 8, !dbg !4519
  %249 = load i16*, i16** %xsNormalized, align 8, !dbg !4521
  invoke void @_ZN11xercesc_2_79XMLBuffer3setEPKt(%"class.xercesc_2_7::XMLBuffer"* %248, i16* %249)
          to label %invoke.cont362 unwind label %lpad35, !dbg !4522

invoke.cont362:                                   ; preds = %if.then361
  br label %if.end363, !dbg !4523

if.end363:                                        ; preds = %invoke.cont362, %land.lhs.true358, %invoke.cont355
  br label %if.end364, !dbg !4524

if.end364:                                        ; preds = %if.end363, %invoke.cont347, %invoke.cont343
  %250 = bitcast %"class.xercesc_2_7::IGXMLScanner"* %this1 to %"class.xercesc_2_7::XMLScanner"*, !dbg !4525
  %fValidate365 = getelementptr inbounds %"class.xercesc_2_7::XMLScanner", %"class.xercesc_2_7::XMLScanner"* %250, i32 0, i32 10, !dbg !4525
  %251 = load i8, i8* %fValidate365, align 8, !dbg !4525
  %tobool366 = trunc i8 %251 to i1, !dbg !4525
  br i1 %tobool366, label %if.then367, label %if.else387, !dbg !4527

if.then367:                                       ; preds = %if.end364
  %252 = bitcast %"class.xercesc_2_7::IGXMLScanner"* %this1 to %"class.xercesc_2_7::XMLScanner"*, !dbg !4528
  %fValidator368 = getelementptr inbounds %"class.xercesc_2_7::XMLScanner", %"class.xercesc_2_7::XMLScanner"* %252, i32 0, i32 50, !dbg !4528
  %253 = load %"class.xercesc_2_7::XMLValidator"*, %"class.xercesc_2_7::XMLValidator"** %fValidator368, align 8, !dbg !4528
  %254 = load %"class.xercesc_2_7::XMLAttDef"*, %"class.xercesc_2_7::XMLAttDef"** %attDefForWildCard, align 8, !dbg !4530
  %255 = load i16*, i16** %xsNormalized, align 8, !dbg !4531
  %256 = load %"class.xercesc_2_7::XMLElementDecl"*, %"class.xercesc_2_7::XMLElementDecl"** %elemDecl.addr, align 8, !dbg !4532
  %257 = bitcast %"class.xercesc_2_7::XMLValidator"* %253 to void (%"class.xercesc_2_7::XMLValidator"*, %"class.xercesc_2_7::XMLAttDef"*, i16*, i1, %"class.xercesc_2_7::XMLElementDecl"*)***, !dbg !4533
  %vtable369 = load void (%"class.xercesc_2_7::XMLValidator"*, %"class.xercesc_2_7::XMLAttDef"*, i16*, i1, %"class.xercesc_2_7::XMLElementDecl"*)**, void (%"class.xercesc_2_7::XMLValidator"*, %"class.xercesc_2_7::XMLAttDef"*, i16*, i1, %"class.xercesc_2_7::XMLElementDecl"*)*** %257, align 8, !dbg !4533
  %vfn370 = getelementptr inbounds void (%"class.xercesc_2_7::XMLValidator"*, %"class.xercesc_2_7::XMLAttDef"*, i16*, i1, %"class.xercesc_2_7::XMLElementDecl"*)*, void (%"class.xercesc_2_7::XMLValidator"*, %"class.xercesc_2_7::XMLAttDef"*, i16*, i1, %"class.xercesc_2_7::XMLElementDecl"*)** %vtable369, i64 8, !dbg !4533
  %258 = load void (%"class.xercesc_2_7::XMLValidator"*, %"class.xercesc_2_7::XMLAttDef"*, i16*, i1, %"class.xercesc_2_7::XMLElementDecl"*)*, void (%"class.xercesc_2_7::XMLValidator"*, %"class.xercesc_2_7::XMLAttDef"*, i16*, i1, %"class.xercesc_2_7::XMLElementDecl"*)** %vfn370, align 8, !dbg !4533
  invoke void %258(%"class.xercesc_2_7::XMLValidator"* %253, %"class.xercesc_2_7::XMLAttDef"* %254, i16* %255, i1 zeroext false, %"class.xercesc_2_7::XMLElementDecl"* %256)
          to label %invoke.cont371 unwind label %lpad35, !dbg !4533

invoke.cont371:                                   ; preds = %if.then367
  %259 = bitcast %"class.xercesc_2_7::IGXMLScanner"* %this1 to %"class.xercesc_2_7::XMLScanner"*, !dbg !4534
  %fValidator372 = getelementptr inbounds %"class.xercesc_2_7::XMLScanner", %"class.xercesc_2_7::XMLScanner"* %259, i32 0, i32 50, !dbg !4534
  %260 = load %"class.xercesc_2_7::XMLValidator"*, %"class.xercesc_2_7::XMLValidator"** %fValidator372, align 8, !dbg !4534
  %261 = bitcast %"class.xercesc_2_7::XMLValidator"* %260 to %"class.xercesc_2_7::SchemaValidator"*, !dbg !4535
  %call374 = invoke %"class.xercesc_2_7::DatatypeValidator"* @_ZNK11xercesc_2_715SchemaValidator26getMostRecentAttrValidatorEv(%"class.xercesc_2_7::SchemaValidator"* %261)
          to label %invoke.cont373 unwind label %lpad35, !dbg !4536

invoke.cont373:                                   ; preds = %invoke.cont371
  store %"class.xercesc_2_7::DatatypeValidator"* %call374, %"class.xercesc_2_7::DatatypeValidator"** %attrValidator, align 8, !dbg !4537
  %262 = bitcast %"class.xercesc_2_7::IGXMLScanner"* %this1 to %"class.xercesc_2_7::XMLScanner"*, !dbg !4538
  %fValidator375 = getelementptr inbounds %"class.xercesc_2_7::XMLScanner", %"class.xercesc_2_7::XMLScanner"* %262, i32 0, i32 50, !dbg !4538
  %263 = load %"class.xercesc_2_7::XMLValidator"*, %"class.xercesc_2_7::XMLValidator"** %fValidator375, align 8, !dbg !4538
  %264 = bitcast %"class.xercesc_2_7::XMLValidator"* %263 to %"class.xercesc_2_7::SchemaValidator"*, !dbg !4540
  %call377 = invoke zeroext i1 @_ZNK11xercesc_2_715SchemaValidator16getErrorOccurredEv(%"class.xercesc_2_7::SchemaValidator"* %264)
          to label %invoke.cont376 unwind label %lpad35, !dbg !4541

invoke.cont376:                                   ; preds = %invoke.cont373
  br i1 %call377, label %if.then378, label %if.end386, !dbg !4542

if.then378:                                       ; preds = %invoke.cont376
  %fPSVIElemContext379 = getelementptr inbounds %"class.xercesc_2_7::IGXMLScanner", %"class.xercesc_2_7::IGXMLScanner"* %this1, i32 0, i32 24, !dbg !4543
  %fErrorOccurred380 = getelementptr inbounds %"struct.xercesc_2_7::PSVIElemContext", %"struct.xercesc_2_7::PSVIElemContext"* %fPSVIElemContext379, i32 0, i32 1, !dbg !4545
  store i8 1, i8* %fErrorOccurred380, align 1, !dbg !4546
  %265 = bitcast %"class.xercesc_2_7::IGXMLScanner"* %this1 to %"class.xercesc_2_7::XMLScanner"*, !dbg !4547
  %call382 = invoke %"class.xercesc_2_7::PSVIHandler"* @_ZN11xercesc_2_710XMLScanner14getPSVIHandlerEv(%"class.xercesc_2_7::XMLScanner"* %265)
          to label %invoke.cont381 unwind label %lpad35, !dbg !4547

invoke.cont381:                                   ; preds = %if.then378
  %tobool383 = icmp ne %"class.xercesc_2_7::PSVIHandler"* %call382, null, !dbg !4547
  br i1 %tobool383, label %if.then384, label %if.end385, !dbg !4549

if.then384:                                       ; preds = %invoke.cont381
  store i32 1, i32* %attrValid, align 4, !dbg !4550
  br label %if.end385, !dbg !4551

if.end385:                                        ; preds = %if.then384, %invoke.cont381
  br label %if.end386, !dbg !4552

if.end386:                                        ; preds = %if.end385, %invoke.cont376
  br label %if.end392, !dbg !4553

if.else387:                                       ; preds = %if.end364
  %call389 = invoke %"class.xercesc_2_7::RefHashTableOf.14"* @_ZN11xercesc_2_724DatatypeValidatorFactory18getBuiltInRegistryEv()
          to label %invoke.cont388 unwind label %lpad35, !dbg !4554

invoke.cont388:                                   ; preds = %if.else387
  %call391 = invoke %"class.xercesc_2_7::DatatypeValidator"* @_ZN11xercesc_2_714RefHashTableOfINS_17DatatypeValidatorEE3getEPKv(%"class.xercesc_2_7::RefHashTableOf.14"* %call389, i8* bitcast ([0 x i16]* @_ZN11xercesc_2_713SchemaSymbols18fgDT_ANYSIMPLETYPEE to i8*))
          to label %invoke.cont390 unwind label %lpad35, !dbg !4556

invoke.cont390:                                   ; preds = %invoke.cont388
  store %"class.xercesc_2_7::DatatypeValidator"* %call391, %"class.xercesc_2_7::DatatypeValidator"** %attrValidator, align 8, !dbg !4557
  br label %if.end392

if.end392:                                        ; preds = %invoke.cont390, %if.end386
  %266 = load %"class.xercesc_2_7::XMLAttDef"*, %"class.xercesc_2_7::XMLAttDef"** %attDefForWildCard, align 8, !dbg !4558
  %call394 = invoke i32 @_ZNK11xercesc_2_79XMLAttDef7getTypeEv(%"class.xercesc_2_7::XMLAttDef"* %266)
          to label %invoke.cont393 unwind label %lpad35, !dbg !4559

invoke.cont393:                                   ; preds = %if.end392
  store i32 %call394, i32* %attType, align 4, !dbg !4560
  br label %if.end491, !dbg !4561

if.else395:                                       ; preds = %if.end334
  %267 = load %"class.xercesc_2_7::XMLAttDef"*, %"class.xercesc_2_7::XMLAttDef"** %attDef, align 8, !dbg !4562
  %268 = load i16*, i16** %namePtr, align 8, !dbg !4564
  %269 = load %"class.xercesc_2_7::KVStringPair"*, %"class.xercesc_2_7::KVStringPair"** %curPair, align 8, !dbg !4565
  %call397 = invoke i16* @_ZNK11xercesc_2_712KVStringPair8getValueEv(%"class.xercesc_2_7::KVStringPair"* %269)
          to label %invoke.cont396 unwind label %lpad35, !dbg !4566

invoke.cont396:                                   ; preds = %if.else395
  %270 = load %"class.xercesc_2_7::XMLBuffer"*, %"class.xercesc_2_7::XMLBuffer"** %normBuf, align 8, !dbg !4567
  %call399 = invoke zeroext i1 @_ZN11xercesc_2_712IGXMLScanner17normalizeAttValueEPKNS_9XMLAttDefEPKtS5_RNS_9XMLBufferE(%"class.xercesc_2_7::IGXMLScanner"* %this1, %"class.xercesc_2_7::XMLAttDef"* %267, i16* %268, i16* %call397, %"class.xercesc_2_7::XMLBuffer"* dereferenceable(40) %270)
          to label %invoke.cont398 unwind label %lpad35, !dbg !4568

invoke.cont398:                                   ; preds = %invoke.cont396
  %271 = load %"class.xercesc_2_7::XMLAttDef"*, %"class.xercesc_2_7::XMLAttDef"** %attDef, align 8, !dbg !4569
  %tobool400 = icmp ne %"class.xercesc_2_7::XMLAttDef"* %271, null, !dbg !4569
  br i1 %tobool400, label %if.then401, label %if.else474, !dbg !4571

if.then401:                                       ; preds = %invoke.cont398
  call void @llvm.dbg.declare(metadata i16** %xsNormalized402, metadata !4572, metadata !DIExpression()), !dbg !4574
  %272 = load %"class.xercesc_2_7::XMLBuffer"*, %"class.xercesc_2_7::XMLBuffer"** %normBuf, align 8, !dbg !4575
  %call404 = invoke i16* @_ZN11xercesc_2_79XMLBuffer12getRawBufferEv(%"class.xercesc_2_7::XMLBuffer"* %272)
          to label %invoke.cont403 unwind label %lpad35, !dbg !4576

invoke.cont403:                                   ; preds = %if.then401
  store i16* %call404, i16** %xsNormalized402, align 8, !dbg !4574
  %fGrammarType405 = getelementptr inbounds %"class.xercesc_2_7::IGXMLScanner", %"class.xercesc_2_7::IGXMLScanner"* %this1, i32 0, i32 2, !dbg !4577
  %273 = load i32, i32* %fGrammarType405, align 4, !dbg !4577
  %cmp406 = icmp eq i32 %273, 1, !dbg !4579
  br i1 %cmp406, label %if.then407, label %if.end435, !dbg !4580

if.then407:                                       ; preds = %invoke.cont403
  call void @llvm.dbg.declare(metadata %"class.xercesc_2_7::DatatypeValidator"** %tempDV408, metadata !4581, metadata !DIExpression()), !dbg !4583
  %274 = load %"class.xercesc_2_7::XMLAttDef"*, %"class.xercesc_2_7::XMLAttDef"** %attDef, align 8, !dbg !4584
  %275 = bitcast %"class.xercesc_2_7::XMLAttDef"* %274 to %"class.xercesc_2_7::SchemaAttDef"*, !dbg !4585
  %call410 = invoke %"class.xercesc_2_7::DatatypeValidator"* @_ZNK11xercesc_2_712SchemaAttDef20getDatatypeValidatorEv(%"class.xercesc_2_7::SchemaAttDef"* %275)
          to label %invoke.cont409 unwind label %lpad35, !dbg !4586

invoke.cont409:                                   ; preds = %if.then407
  store %"class.xercesc_2_7::DatatypeValidator"* %call410, %"class.xercesc_2_7::DatatypeValidator"** %tempDV408, align 8, !dbg !4583
  %276 = load %"class.xercesc_2_7::DatatypeValidator"*, %"class.xercesc_2_7::DatatypeValidator"** %tempDV408, align 8, !dbg !4587
  %tobool411 = icmp ne %"class.xercesc_2_7::DatatypeValidator"* %276, null, !dbg !4587
  br i1 %tobool411, label %land.lhs.true412, label %if.end434, !dbg !4589

land.lhs.true412:                                 ; preds = %invoke.cont409
  %277 = load %"class.xercesc_2_7::DatatypeValidator"*, %"class.xercesc_2_7::DatatypeValidator"** %tempDV408, align 8, !dbg !4590
  %call414 = invoke signext i16 @_ZNK11xercesc_2_717DatatypeValidator10getWSFacetEv(%"class.xercesc_2_7::DatatypeValidator"* %277)
          to label %invoke.cont413 unwind label %lpad35, !dbg !4591

invoke.cont413:                                   ; preds = %land.lhs.true412
  %conv415 = sext i16 %call414 to i32, !dbg !4590
  %cmp416 = icmp ne i32 %conv415, 0, !dbg !4592
  br i1 %cmp416, label %if.then417, label %if.end434, !dbg !4593

if.then417:                                       ; preds = %invoke.cont413
  %278 = bitcast %"class.xercesc_2_7::IGXMLScanner"* %this1 to %"class.xercesc_2_7::XMLScanner"*, !dbg !4594
  %fValidator418 = getelementptr inbounds %"class.xercesc_2_7::XMLScanner", %"class.xercesc_2_7::XMLScanner"* %278, i32 0, i32 50, !dbg !4594
  %279 = load %"class.xercesc_2_7::XMLValidator"*, %"class.xercesc_2_7::XMLValidator"** %fValidator418, align 8, !dbg !4594
  %280 = bitcast %"class.xercesc_2_7::XMLValidator"* %279 to %"class.xercesc_2_7::SchemaValidator"*, !dbg !4596
  %281 = load %"class.xercesc_2_7::DatatypeValidator"*, %"class.xercesc_2_7::DatatypeValidator"** %tempDV408, align 8, !dbg !4597
  %282 = load i16*, i16** %xsNormalized402, align 8, !dbg !4598
  %283 = bitcast %"class.xercesc_2_7::IGXMLScanner"* %this1 to %"class.xercesc_2_7::XMLScanner"*, !dbg !4599
  %fWSNormalizeBuf419 = getelementptr inbounds %"class.xercesc_2_7::XMLScanner", %"class.xercesc_2_7::XMLScanner"* %283, i32 0, i32 70, !dbg !4599
  invoke void @_ZN11xercesc_2_715SchemaValidator19normalizeWhiteSpaceEPNS_17DatatypeValidatorEPKtRNS_9XMLBufferE(%"class.xercesc_2_7::SchemaValidator"* %280, %"class.xercesc_2_7::DatatypeValidator"* %281, i16* %282, %"class.xercesc_2_7::XMLBuffer"* dereferenceable(40) %fWSNormalizeBuf419)
          to label %invoke.cont420 unwind label %lpad35, !dbg !4600

invoke.cont420:                                   ; preds = %if.then417
  %284 = bitcast %"class.xercesc_2_7::IGXMLScanner"* %this1 to %"class.xercesc_2_7::XMLScanner"*, !dbg !4601
  %fWSNormalizeBuf421 = getelementptr inbounds %"class.xercesc_2_7::XMLScanner", %"class.xercesc_2_7::XMLScanner"* %284, i32 0, i32 70, !dbg !4601
  %call423 = invoke i16* @_ZN11xercesc_2_79XMLBuffer12getRawBufferEv(%"class.xercesc_2_7::XMLBuffer"* %fWSNormalizeBuf421)
          to label %invoke.cont422 unwind label %lpad35, !dbg !4602

invoke.cont422:                                   ; preds = %invoke.cont420
  store i16* %call423, i16** %xsNormalized402, align 8, !dbg !4603
  %285 = bitcast %"class.xercesc_2_7::IGXMLScanner"* %this1 to %"class.xercesc_2_7::XMLScanner"*, !dbg !4604
  %fNormalizeData424 = getelementptr inbounds %"class.xercesc_2_7::XMLScanner", %"class.xercesc_2_7::XMLScanner"* %285, i32 0, i32 18, !dbg !4604
  %286 = load i8, i8* %fNormalizeData424, align 8, !dbg !4604
  %tobool425 = trunc i8 %286 to i1, !dbg !4604
  br i1 %tobool425, label %land.lhs.true426, label %if.end433, !dbg !4606

land.lhs.true426:                                 ; preds = %invoke.cont422
  %287 = bitcast %"class.xercesc_2_7::IGXMLScanner"* %this1 to %"class.xercesc_2_7::XMLScanner"*, !dbg !4607
  %fValidate427 = getelementptr inbounds %"class.xercesc_2_7::XMLScanner", %"class.xercesc_2_7::XMLScanner"* %287, i32 0, i32 10, !dbg !4607
  %288 = load i8, i8* %fValidate427, align 8, !dbg !4607
  %tobool428 = trunc i8 %288 to i1, !dbg !4607
  br i1 %tobool428, label %land.lhs.true429, label %if.end433, !dbg !4608

land.lhs.true429:                                 ; preds = %land.lhs.true426
  %289 = load i8, i8* %skipThisOne, align 1, !dbg !4609
  %tobool430 = trunc i8 %289 to i1, !dbg !4609
  br i1 %tobool430, label %if.end433, label %if.then431, !dbg !4610

if.then431:                                       ; preds = %land.lhs.true429
  %290 = load %"class.xercesc_2_7::XMLBuffer"*, %"class.xercesc_2_7::XMLBuffer"** %normBuf, align 8, !dbg !4611
  %291 = load i16*, i16** %xsNormalized402, align 8, !dbg !4613
  invoke void @_ZN11xercesc_2_79XMLBuffer3setEPKt(%"class.xercesc_2_7::XMLBuffer"* %290, i16* %291)
          to label %invoke.cont432 unwind label %lpad35, !dbg !4614

invoke.cont432:                                   ; preds = %if.then431
  br label %if.end433, !dbg !4615

if.end433:                                        ; preds = %invoke.cont432, %land.lhs.true429, %land.lhs.true426, %invoke.cont422
  br label %if.end434, !dbg !4616

if.end434:                                        ; preds = %if.end433, %invoke.cont413, %invoke.cont409
  br label %if.end435, !dbg !4617

if.end435:                                        ; preds = %if.end434, %invoke.cont403
  %292 = bitcast %"class.xercesc_2_7::IGXMLScanner"* %this1 to %"class.xercesc_2_7::XMLScanner"*, !dbg !4618
  %fValidate436 = getelementptr inbounds %"class.xercesc_2_7::XMLScanner", %"class.xercesc_2_7::XMLScanner"* %292, i32 0, i32 10, !dbg !4618
  %293 = load i8, i8* %fValidate436, align 8, !dbg !4618
  %tobool437 = trunc i8 %293 to i1, !dbg !4618
  br i1 %tobool437, label %land.lhs.true438, label %if.else464, !dbg !4620

land.lhs.true438:                                 ; preds = %if.end435
  %294 = load i8, i8* %skipThisOne, align 1, !dbg !4621
  %tobool439 = trunc i8 %294 to i1, !dbg !4621
  br i1 %tobool439, label %if.else464, label %if.then440, !dbg !4622

if.then440:                                       ; preds = %land.lhs.true438
  %295 = bitcast %"class.xercesc_2_7::IGXMLScanner"* %this1 to %"class.xercesc_2_7::XMLScanner"*, !dbg !4623
  %fValidator441 = getelementptr inbounds %"class.xercesc_2_7::XMLScanner", %"class.xercesc_2_7::XMLScanner"* %295, i32 0, i32 50, !dbg !4623
  %296 = load %"class.xercesc_2_7::XMLValidator"*, %"class.xercesc_2_7::XMLValidator"** %fValidator441, align 8, !dbg !4623
  %297 = load %"class.xercesc_2_7::XMLAttDef"*, %"class.xercesc_2_7::XMLAttDef"** %attDef, align 8, !dbg !4625
  %298 = load i16*, i16** %xsNormalized402, align 8, !dbg !4626
  %299 = load %"class.xercesc_2_7::XMLElementDecl"*, %"class.xercesc_2_7::XMLElementDecl"** %elemDecl.addr, align 8, !dbg !4627
  %300 = bitcast %"class.xercesc_2_7::XMLValidator"* %296 to void (%"class.xercesc_2_7::XMLValidator"*, %"class.xercesc_2_7::XMLAttDef"*, i16*, i1, %"class.xercesc_2_7::XMLElementDecl"*)***, !dbg !4628
  %vtable442 = load void (%"class.xercesc_2_7::XMLValidator"*, %"class.xercesc_2_7::XMLAttDef"*, i16*, i1, %"class.xercesc_2_7::XMLElementDecl"*)**, void (%"class.xercesc_2_7::XMLValidator"*, %"class.xercesc_2_7::XMLAttDef"*, i16*, i1, %"class.xercesc_2_7::XMLElementDecl"*)*** %300, align 8, !dbg !4628
  %vfn443 = getelementptr inbounds void (%"class.xercesc_2_7::XMLValidator"*, %"class.xercesc_2_7::XMLAttDef"*, i16*, i1, %"class.xercesc_2_7::XMLElementDecl"*)*, void (%"class.xercesc_2_7::XMLValidator"*, %"class.xercesc_2_7::XMLAttDef"*, i16*, i1, %"class.xercesc_2_7::XMLElementDecl"*)** %vtable442, i64 8, !dbg !4628
  %301 = load void (%"class.xercesc_2_7::XMLValidator"*, %"class.xercesc_2_7::XMLAttDef"*, i16*, i1, %"class.xercesc_2_7::XMLElementDecl"*)*, void (%"class.xercesc_2_7::XMLValidator"*, %"class.xercesc_2_7::XMLAttDef"*, i16*, i1, %"class.xercesc_2_7::XMLElementDecl"*)** %vfn443, align 8, !dbg !4628
  invoke void %301(%"class.xercesc_2_7::XMLValidator"* %296, %"class.xercesc_2_7::XMLAttDef"* %297, i16* %298, i1 zeroext false, %"class.xercesc_2_7::XMLElementDecl"* %299)
          to label %invoke.cont444 unwind label %lpad35, !dbg !4628

invoke.cont444:                                   ; preds = %if.then440
  %fGrammarType445 = getelementptr inbounds %"class.xercesc_2_7::IGXMLScanner", %"class.xercesc_2_7::IGXMLScanner"* %this1, i32 0, i32 2, !dbg !4629
  %302 = load i32, i32* %fGrammarType445, align 4, !dbg !4629
  %cmp446 = icmp eq i32 %302, 1, !dbg !4631
  br i1 %cmp446, label %if.then447, label %if.end463, !dbg !4632

if.then447:                                       ; preds = %invoke.cont444
  %303 = bitcast %"class.xercesc_2_7::IGXMLScanner"* %this1 to %"class.xercesc_2_7::XMLScanner"*, !dbg !4633
  %fValidator448 = getelementptr inbounds %"class.xercesc_2_7::XMLScanner", %"class.xercesc_2_7::XMLScanner"* %303, i32 0, i32 50, !dbg !4633
  %304 = load %"class.xercesc_2_7::XMLValidator"*, %"class.xercesc_2_7::XMLValidator"** %fValidator448, align 8, !dbg !4633
  %305 = bitcast %"class.xercesc_2_7::XMLValidator"* %304 to %"class.xercesc_2_7::SchemaValidator"*, !dbg !4635
  %call450 = invoke %"class.xercesc_2_7::DatatypeValidator"* @_ZNK11xercesc_2_715SchemaValidator26getMostRecentAttrValidatorEv(%"class.xercesc_2_7::SchemaValidator"* %305)
          to label %invoke.cont449 unwind label %lpad35, !dbg !4636

invoke.cont449:                                   ; preds = %if.then447
  store %"class.xercesc_2_7::DatatypeValidator"* %call450, %"class.xercesc_2_7::DatatypeValidator"** %attrValidator, align 8, !dbg !4637
  %306 = bitcast %"class.xercesc_2_7::IGXMLScanner"* %this1 to %"class.xercesc_2_7::XMLScanner"*, !dbg !4638
  %fValidator451 = getelementptr inbounds %"class.xercesc_2_7::XMLScanner", %"class.xercesc_2_7::XMLScanner"* %306, i32 0, i32 50, !dbg !4638
  %307 = load %"class.xercesc_2_7::XMLValidator"*, %"class.xercesc_2_7::XMLValidator"** %fValidator451, align 8, !dbg !4638
  %308 = bitcast %"class.xercesc_2_7::XMLValidator"* %307 to %"class.xercesc_2_7::SchemaValidator"*, !dbg !4640
  %call453 = invoke zeroext i1 @_ZNK11xercesc_2_715SchemaValidator16getErrorOccurredEv(%"class.xercesc_2_7::SchemaValidator"* %308)
          to label %invoke.cont452 unwind label %lpad35, !dbg !4641

invoke.cont452:                                   ; preds = %invoke.cont449
  br i1 %call453, label %if.then454, label %if.end462, !dbg !4642

if.then454:                                       ; preds = %invoke.cont452
  %fPSVIElemContext455 = getelementptr inbounds %"class.xercesc_2_7::IGXMLScanner", %"class.xercesc_2_7::IGXMLScanner"* %this1, i32 0, i32 24, !dbg !4643
  %fErrorOccurred456 = getelementptr inbounds %"struct.xercesc_2_7::PSVIElemContext", %"struct.xercesc_2_7::PSVIElemContext"* %fPSVIElemContext455, i32 0, i32 1, !dbg !4645
  store i8 1, i8* %fErrorOccurred456, align 1, !dbg !4646
  %309 = bitcast %"class.xercesc_2_7::IGXMLScanner"* %this1 to %"class.xercesc_2_7::XMLScanner"*, !dbg !4647
  %call458 = invoke %"class.xercesc_2_7::PSVIHandler"* @_ZN11xercesc_2_710XMLScanner14getPSVIHandlerEv(%"class.xercesc_2_7::XMLScanner"* %309)
          to label %invoke.cont457 unwind label %lpad35, !dbg !4647

invoke.cont457:                                   ; preds = %if.then454
  %tobool459 = icmp ne %"class.xercesc_2_7::PSVIHandler"* %call458, null, !dbg !4647
  br i1 %tobool459, label %if.then460, label %if.end461, !dbg !4649

if.then460:                                       ; preds = %invoke.cont457
  store i32 1, i32* %attrValid, align 4, !dbg !4650
  br label %if.end461, !dbg !4651

if.end461:                                        ; preds = %if.then460, %invoke.cont457
  br label %if.end462, !dbg !4652

if.end462:                                        ; preds = %if.end461, %invoke.cont452
  br label %if.end463, !dbg !4653

if.end463:                                        ; preds = %if.end462, %invoke.cont444
  br label %if.end473, !dbg !4654

if.else464:                                       ; preds = %land.lhs.true438, %if.end435
  %fGrammarType465 = getelementptr inbounds %"class.xercesc_2_7::IGXMLScanner", %"class.xercesc_2_7::IGXMLScanner"* %this1, i32 0, i32 2, !dbg !4655
  %310 = load i32, i32* %fGrammarType465, align 4, !dbg !4655
  %cmp466 = icmp eq i32 %310, 1, !dbg !4657
  br i1 %cmp466, label %if.then467, label %if.end472, !dbg !4658

if.then467:                                       ; preds = %if.else464
  %call469 = invoke %"class.xercesc_2_7::RefHashTableOf.14"* @_ZN11xercesc_2_724DatatypeValidatorFactory18getBuiltInRegistryEv()
          to label %invoke.cont468 unwind label %lpad35, !dbg !4659

invoke.cont468:                                   ; preds = %if.then467
  %call471 = invoke %"class.xercesc_2_7::DatatypeValidator"* @_ZN11xercesc_2_714RefHashTableOfINS_17DatatypeValidatorEE3getEPKv(%"class.xercesc_2_7::RefHashTableOf.14"* %call469, i8* bitcast ([0 x i16]* @_ZN11xercesc_2_713SchemaSymbols18fgDT_ANYSIMPLETYPEE to i8*))
          to label %invoke.cont470 unwind label %lpad35, !dbg !4661

invoke.cont470:                                   ; preds = %invoke.cont468
  store %"class.xercesc_2_7::DatatypeValidator"* %call471, %"class.xercesc_2_7::DatatypeValidator"** %attrValidator, align 8, !dbg !4662
  br label %if.end472, !dbg !4663

if.end472:                                        ; preds = %invoke.cont470, %if.else464
  br label %if.end473

if.end473:                                        ; preds = %if.end472, %if.end463
  br label %if.end483, !dbg !4664

if.else474:                                       ; preds = %invoke.cont398
  %fGrammarType475 = getelementptr inbounds %"class.xercesc_2_7::IGXMLScanner", %"class.xercesc_2_7::IGXMLScanner"* %this1, i32 0, i32 2, !dbg !4665
  %311 = load i32, i32* %fGrammarType475, align 4, !dbg !4665
  %cmp476 = icmp eq i32 %311, 1, !dbg !4668
  br i1 %cmp476, label %if.then477, label %if.end482, !dbg !4669

if.then477:                                       ; preds = %if.else474
  %call479 = invoke %"class.xercesc_2_7::RefHashTableOf.14"* @_ZN11xercesc_2_724DatatypeValidatorFactory18getBuiltInRegistryEv()
          to label %invoke.cont478 unwind label %lpad35, !dbg !4670

invoke.cont478:                                   ; preds = %if.then477
  %call481 = invoke %"class.xercesc_2_7::DatatypeValidator"* @_ZN11xercesc_2_714RefHashTableOfINS_17DatatypeValidatorEE3getEPKv(%"class.xercesc_2_7::RefHashTableOf.14"* %call479, i8* bitcast ([0 x i16]* @_ZN11xercesc_2_713SchemaSymbols18fgDT_ANYSIMPLETYPEE to i8*))
          to label %invoke.cont480 unwind label %lpad35, !dbg !4672

invoke.cont480:                                   ; preds = %invoke.cont478
  store %"class.xercesc_2_7::DatatypeValidator"* %call481, %"class.xercesc_2_7::DatatypeValidator"** %attrValidator, align 8, !dbg !4673
  br label %if.end482, !dbg !4674

if.end482:                                        ; preds = %invoke.cont480, %if.else474
  br label %if.end483

if.end483:                                        ; preds = %if.end482, %if.end473
  %312 = load %"class.xercesc_2_7::XMLAttDef"*, %"class.xercesc_2_7::XMLAttDef"** %attDef, align 8, !dbg !4675
  %tobool484 = icmp ne %"class.xercesc_2_7::XMLAttDef"* %312, null, !dbg !4676
  br i1 %tobool484, label %cond.true485, label %cond.false488, !dbg !4676

cond.true485:                                     ; preds = %if.end483
  %313 = load %"class.xercesc_2_7::XMLAttDef"*, %"class.xercesc_2_7::XMLAttDef"** %attDef, align 8, !dbg !4677
  %call487 = invoke i32 @_ZNK11xercesc_2_79XMLAttDef7getTypeEv(%"class.xercesc_2_7::XMLAttDef"* %313)
          to label %invoke.cont486 unwind label %lpad35, !dbg !4678

invoke.cont486:                                   ; preds = %cond.true485
  br label %cond.end489, !dbg !4676

cond.false488:                                    ; preds = %if.end483
  br label %cond.end489, !dbg !4676

cond.end489:                                      ; preds = %cond.false488, %invoke.cont486
  %cond490 = phi i32 [ %call487, %invoke.cont486 ], [ 0, %cond.false488 ], !dbg !4676
  store i32 %cond490, i32* %attType, align 4, !dbg !4679
  br label %if.end491

if.end491:                                        ; preds = %cond.end489, %invoke.cont393
  %314 = bitcast %"class.xercesc_2_7::IGXMLScanner"* %this1 to %"class.xercesc_2_7::XMLScanner"*, !dbg !4680
  %call493 = invoke %"class.xercesc_2_7::PSVIHandler"* @_ZN11xercesc_2_710XMLScanner14getPSVIHandlerEv(%"class.xercesc_2_7::XMLScanner"* %314)
          to label %invoke.cont492 unwind label %lpad35, !dbg !4680

invoke.cont492:                                   ; preds = %if.end491
  %tobool494 = icmp ne %"class.xercesc_2_7::PSVIHandler"* %call493, null, !dbg !4680
  br i1 %tobool494, label %land.lhs.true495, label %if.end550, !dbg !4682

land.lhs.true495:                                 ; preds = %invoke.cont492
  %fGrammarType496 = getelementptr inbounds %"class.xercesc_2_7::IGXMLScanner", %"class.xercesc_2_7::IGXMLScanner"* %this1, i32 0, i32 2, !dbg !4683
  %315 = load i32, i32* %fGrammarType496, align 4, !dbg !4683
  %cmp497 = icmp eq i32 %315, 1, !dbg !4684
  br i1 %cmp497, label %if.then498, label %if.end550, !dbg !4685

if.then498:                                       ; preds = %land.lhs.true495
  %fPSVIAttrList = getelementptr inbounds %"class.xercesc_2_7::IGXMLScanner", %"class.xercesc_2_7::IGXMLScanner"* %this1, i32 0, i32 20, !dbg !4686
  %316 = load %"class.xercesc_2_7::PSVIAttributeList"*, %"class.xercesc_2_7::PSVIAttributeList"** %fPSVIAttrList, align 8, !dbg !4686
  %317 = load i16*, i16** %suffPtr, align 8, !dbg !4688
  %318 = bitcast %"class.xercesc_2_7::IGXMLScanner"* %this1 to %"class.xercesc_2_7::XMLScanner"*, !dbg !4689
  %fURIStringPool499 = getelementptr inbounds %"class.xercesc_2_7::XMLScanner", %"class.xercesc_2_7::XMLScanner"* %318, i32 0, i32 56, !dbg !4689
  %319 = load %"class.xercesc_2_7::XMLStringPool"*, %"class.xercesc_2_7::XMLStringPool"** %fURIStringPool499, align 8, !dbg !4689
  %320 = load i32, i32* %uriId, align 4, !dbg !4690
  %321 = bitcast %"class.xercesc_2_7::XMLStringPool"* %319 to i16* (%"class.xercesc_2_7::XMLStringPool"*, i32)***, !dbg !4691
  %vtable500 = load i16* (%"class.xercesc_2_7::XMLStringPool"*, i32)**, i16* (%"class.xercesc_2_7::XMLStringPool"*, i32)*** %321, align 8, !dbg !4691
  %vfn501 = getelementptr inbounds i16* (%"class.xercesc_2_7::XMLStringPool"*, i32)*, i16* (%"class.xercesc_2_7::XMLStringPool"*, i32)** %vtable500, i64 10, !dbg !4691
  %322 = load i16* (%"class.xercesc_2_7::XMLStringPool"*, i32)*, i16* (%"class.xercesc_2_7::XMLStringPool"*, i32)** %vfn501, align 8, !dbg !4691
  %call503 = invoke i16* %322(%"class.xercesc_2_7::XMLStringPool"* %319, i32 %320)
          to label %invoke.cont502 unwind label %lpad35, !dbg !4691

invoke.cont502:                                   ; preds = %if.then498
  %call505 = invoke %"class.xercesc_2_7::PSVIAttribute"* @_ZN11xercesc_2_717PSVIAttributeList22getPSVIAttributeToFillEPKtS2_(%"class.xercesc_2_7::PSVIAttributeList"* %316, i16* %317, i16* %call503)
          to label %invoke.cont504 unwind label %lpad35, !dbg !4692

invoke.cont504:                                   ; preds = %invoke.cont502
  store %"class.xercesc_2_7::PSVIAttribute"* %call505, %"class.xercesc_2_7::PSVIAttribute"** %psviAttr, align 8, !dbg !4693
  call void @llvm.dbg.declare(metadata %"class.xercesc_2_7::SchemaAttDef"** %actualAttDef, metadata !4694, metadata !DIExpression()), !dbg !4695
  store %"class.xercesc_2_7::SchemaAttDef"* null, %"class.xercesc_2_7::SchemaAttDef"** %actualAttDef, align 8, !dbg !4695
  %323 = load %"class.xercesc_2_7::XMLAttDef"*, %"class.xercesc_2_7::XMLAttDef"** %attDef, align 8, !dbg !4696
  %tobool506 = icmp ne %"class.xercesc_2_7::XMLAttDef"* %323, null, !dbg !4696
  br i1 %tobool506, label %if.then507, label %if.else508, !dbg !4698

if.then507:                                       ; preds = %invoke.cont504
  %324 = load %"class.xercesc_2_7::XMLAttDef"*, %"class.xercesc_2_7::XMLAttDef"** %attDef, align 8, !dbg !4699
  %325 = bitcast %"class.xercesc_2_7::XMLAttDef"* %324 to %"class.xercesc_2_7::SchemaAttDef"*, !dbg !4700
  store %"class.xercesc_2_7::SchemaAttDef"* %325, %"class.xercesc_2_7::SchemaAttDef"** %actualAttDef, align 8, !dbg !4701
  br label %if.end512, !dbg !4702

if.else508:                                       ; preds = %invoke.cont504
  %326 = load %"class.xercesc_2_7::XMLAttDef"*, %"class.xercesc_2_7::XMLAttDef"** %attDefForWildCard, align 8, !dbg !4703
  %tobool509 = icmp ne %"class.xercesc_2_7::XMLAttDef"* %326, null, !dbg !4703
  br i1 %tobool509, label %if.then510, label %if.end511, !dbg !4705

if.then510:                                       ; preds = %if.else508
  %327 = load %"class.xercesc_2_7::XMLAttDef"*, %"class.xercesc_2_7::XMLAttDef"** %attDefForWildCard, align 8, !dbg !4706
  %328 = bitcast %"class.xercesc_2_7::XMLAttDef"* %327 to %"class.xercesc_2_7::SchemaAttDef"*, !dbg !4707
  store %"class.xercesc_2_7::SchemaAttDef"* %328, %"class.xercesc_2_7::SchemaAttDef"** %actualAttDef, align 8, !dbg !4708
  br label %if.end511, !dbg !4709

if.end511:                                        ; preds = %if.then510, %if.else508
  br label %if.end512

if.end512:                                        ; preds = %if.end511, %if.then507
  %329 = load %"class.xercesc_2_7::SchemaAttDef"*, %"class.xercesc_2_7::SchemaAttDef"** %actualAttDef, align 8, !dbg !4710
  %tobool513 = icmp ne %"class.xercesc_2_7::SchemaAttDef"* %329, null, !dbg !4710
  br i1 %tobool513, label %if.then514, label %if.else546, !dbg !4712

if.then514:                                       ; preds = %if.end512
  call void @llvm.dbg.declare(metadata %"class.xercesc_2_7::XSAttributeDeclaration"** %attrDecl, metadata !4713, metadata !DIExpression()), !dbg !4715
  %fModel = getelementptr inbounds %"class.xercesc_2_7::IGXMLScanner", %"class.xercesc_2_7::IGXMLScanner"* %this1, i32 0, i32 21, !dbg !4716
  %330 = load %"class.xercesc_2_7::XSModel"*, %"class.xercesc_2_7::XSModel"** %fModel, align 8, !dbg !4716
  %331 = load %"class.xercesc_2_7::SchemaAttDef"*, %"class.xercesc_2_7::SchemaAttDef"** %actualAttDef, align 8, !dbg !4717
  %332 = bitcast %"class.xercesc_2_7::SchemaAttDef"* %331 to i8*, !dbg !4717
  %call516 = invoke %"class.xercesc_2_7::XSObject"* @_ZN11xercesc_2_77XSModel11getXSObjectEPv(%"class.xercesc_2_7::XSModel"* %330, i8* %332)
          to label %invoke.cont515 unwind label %lpad35, !dbg !4718

invoke.cont515:                                   ; preds = %if.then514
  %333 = bitcast %"class.xercesc_2_7::XSObject"* %call516 to %"class.xercesc_2_7::XSAttributeDeclaration"*, !dbg !4719
  store %"class.xercesc_2_7::XSAttributeDeclaration"* %333, %"class.xercesc_2_7::XSAttributeDeclaration"** %attrDecl, align 8, !dbg !4715
  call void @llvm.dbg.declare(metadata %"class.xercesc_2_7::DatatypeValidator"** %attrDataType, metadata !4720, metadata !DIExpression()), !dbg !4721
  %334 = load %"class.xercesc_2_7::SchemaAttDef"*, %"class.xercesc_2_7::SchemaAttDef"** %actualAttDef, align 8, !dbg !4722
  %call518 = invoke %"class.xercesc_2_7::DatatypeValidator"* @_ZNK11xercesc_2_712SchemaAttDef20getDatatypeValidatorEv(%"class.xercesc_2_7::SchemaAttDef"* %334)
          to label %invoke.cont517 unwind label %lpad35, !dbg !4723

invoke.cont517:                                   ; preds = %invoke.cont515
  store %"class.xercesc_2_7::DatatypeValidator"* %call518, %"class.xercesc_2_7::DatatypeValidator"** %attrDataType, align 8, !dbg !4721
  call void @llvm.dbg.declare(metadata %"class.xercesc_2_7::XSSimpleTypeDefinition"** %validatingType, metadata !4724, metadata !DIExpression()), !dbg !4725
  %fModel519 = getelementptr inbounds %"class.xercesc_2_7::IGXMLScanner", %"class.xercesc_2_7::IGXMLScanner"* %this1, i32 0, i32 21, !dbg !4726
  %335 = load %"class.xercesc_2_7::XSModel"*, %"class.xercesc_2_7::XSModel"** %fModel519, align 8, !dbg !4726
  %336 = load %"class.xercesc_2_7::DatatypeValidator"*, %"class.xercesc_2_7::DatatypeValidator"** %attrDataType, align 8, !dbg !4727
  %337 = bitcast %"class.xercesc_2_7::DatatypeValidator"* %336 to i8*, !dbg !4727
  %call521 = invoke %"class.xercesc_2_7::XSObject"* @_ZN11xercesc_2_77XSModel11getXSObjectEPv(%"class.xercesc_2_7::XSModel"* %335, i8* %337)
          to label %invoke.cont520 unwind label %lpad35, !dbg !4728

invoke.cont520:                                   ; preds = %invoke.cont517
  %338 = bitcast %"class.xercesc_2_7::XSObject"* %call521 to %"class.xercesc_2_7::XSSimpleTypeDefinition"*, !dbg !4729
  store %"class.xercesc_2_7::XSSimpleTypeDefinition"* %338, %"class.xercesc_2_7::XSSimpleTypeDefinition"** %validatingType, align 8, !dbg !4725
  %339 = load i32, i32* %attrValid, align 4, !dbg !4730
  %cmp522 = icmp ne i32 %339, 2, !dbg !4732
  br i1 %cmp522, label %if.then523, label %if.else527, !dbg !4733

if.then523:                                       ; preds = %invoke.cont520
  %340 = load %"class.xercesc_2_7::PSVIAttribute"*, %"class.xercesc_2_7::PSVIAttribute"** %psviAttr, align 8, !dbg !4734
  %341 = bitcast %"class.xercesc_2_7::IGXMLScanner"* %this1 to %"class.xercesc_2_7::XMLScanner"*, !dbg !4736
  %fRootElemName = getelementptr inbounds %"class.xercesc_2_7::XMLScanner", %"class.xercesc_2_7::XMLScanner"* %341, i32 0, i32 57, !dbg !4736
  %342 = load i16*, i16** %fRootElemName, align 8, !dbg !4736
  %343 = load i32, i32* %attrValid, align 4, !dbg !4737
  %344 = load i32, i32* %attrAssessed, align 4, !dbg !4738
  %345 = load %"class.xercesc_2_7::XSSimpleTypeDefinition"*, %"class.xercesc_2_7::XSSimpleTypeDefinition"** %validatingType, align 8, !dbg !4739
  %346 = load %"class.xercesc_2_7::SchemaAttDef"*, %"class.xercesc_2_7::SchemaAttDef"** %actualAttDef, align 8, !dbg !4740
  %347 = bitcast %"class.xercesc_2_7::SchemaAttDef"* %346 to %"class.xercesc_2_7::XMLAttDef"*, !dbg !4741
  %call525 = invoke i16* @_ZNK11xercesc_2_79XMLAttDef8getValueEv(%"class.xercesc_2_7::XMLAttDef"* %347)
          to label %invoke.cont524 unwind label %lpad35, !dbg !4741

invoke.cont524:                                   ; preds = %if.then523
  %348 = load %"class.xercesc_2_7::XSAttributeDeclaration"*, %"class.xercesc_2_7::XSAttributeDeclaration"** %attrDecl, align 8, !dbg !4742
  invoke void @_ZN11xercesc_2_713PSVIAttribute5resetEPKtNS_8PSVIItem14VALIDITY_STATEENS3_15ASSESSMENT_TYPEEPNS_22XSSimpleTypeDefinitionES7_S2_bPNS_22XSAttributeDeclarationEPNS_17DatatypeValidatorE(%"class.xercesc_2_7::PSVIAttribute"* %340, i16* %342, i32 %343, i32 %344, %"class.xercesc_2_7::XSSimpleTypeDefinition"* %345, %"class.xercesc_2_7::XSSimpleTypeDefinition"* null, i16* %call525, i1 zeroext false, %"class.xercesc_2_7::XSAttributeDeclaration"* %348, %"class.xercesc_2_7::DatatypeValidator"* null)
          to label %invoke.cont526 unwind label %lpad35, !dbg !4743

invoke.cont526:                                   ; preds = %invoke.cont524
  br label %if.end545, !dbg !4744

if.else527:                                       ; preds = %invoke.cont520
  call void @llvm.dbg.declare(metadata %"class.xercesc_2_7::XSSimpleTypeDefinition"** %memberType, metadata !4745, metadata !DIExpression()), !dbg !4747
  store %"class.xercesc_2_7::XSSimpleTypeDefinition"* null, %"class.xercesc_2_7::XSSimpleTypeDefinition"** %memberType, align 8, !dbg !4747
  %349 = load %"class.xercesc_2_7::XSSimpleTypeDefinition"*, %"class.xercesc_2_7::XSSimpleTypeDefinition"** %validatingType, align 8, !dbg !4748
  %call529 = invoke i32 @_ZNK11xercesc_2_722XSSimpleTypeDefinition10getVarietyEv(%"class.xercesc_2_7::XSSimpleTypeDefinition"* %349)
          to label %invoke.cont528 unwind label %lpad35, !dbg !4750

invoke.cont528:                                   ; preds = %if.else527
  %cmp530 = icmp eq i32 %call529, 3, !dbg !4751
  br i1 %cmp530, label %if.then531, label %if.end535, !dbg !4752

if.then531:                                       ; preds = %invoke.cont528
  %fModel532 = getelementptr inbounds %"class.xercesc_2_7::IGXMLScanner", %"class.xercesc_2_7::IGXMLScanner"* %this1, i32 0, i32 21, !dbg !4753
  %350 = load %"class.xercesc_2_7::XSModel"*, %"class.xercesc_2_7::XSModel"** %fModel532, align 8, !dbg !4753
  %351 = load %"class.xercesc_2_7::DatatypeValidator"*, %"class.xercesc_2_7::DatatypeValidator"** %attrValidator, align 8, !dbg !4754
  %352 = bitcast %"class.xercesc_2_7::DatatypeValidator"* %351 to i8*, !dbg !4754
  %call534 = invoke %"class.xercesc_2_7::XSObject"* @_ZN11xercesc_2_77XSModel11getXSObjectEPv(%"class.xercesc_2_7::XSModel"* %350, i8* %352)
          to label %invoke.cont533 unwind label %lpad35, !dbg !4755

invoke.cont533:                                   ; preds = %if.then531
  %353 = bitcast %"class.xercesc_2_7::XSObject"* %call534 to %"class.xercesc_2_7::XSSimpleTypeDefinition"*, !dbg !4756
  store %"class.xercesc_2_7::XSSimpleTypeDefinition"* %353, %"class.xercesc_2_7::XSSimpleTypeDefinition"** %memberType, align 8, !dbg !4757
  br label %if.end535, !dbg !4758

if.end535:                                        ; preds = %invoke.cont533, %invoke.cont528
  %354 = load %"class.xercesc_2_7::PSVIAttribute"*, %"class.xercesc_2_7::PSVIAttribute"** %psviAttr, align 8, !dbg !4759
  %355 = bitcast %"class.xercesc_2_7::IGXMLScanner"* %this1 to %"class.xercesc_2_7::XMLScanner"*, !dbg !4760
  %fRootElemName536 = getelementptr inbounds %"class.xercesc_2_7::XMLScanner", %"class.xercesc_2_7::XMLScanner"* %355, i32 0, i32 57, !dbg !4760
  %356 = load i16*, i16** %fRootElemName536, align 8, !dbg !4760
  %357 = load i32, i32* %attrValid, align 4, !dbg !4761
  %358 = load i32, i32* %attrAssessed, align 4, !dbg !4762
  %359 = load %"class.xercesc_2_7::XSSimpleTypeDefinition"*, %"class.xercesc_2_7::XSSimpleTypeDefinition"** %validatingType, align 8, !dbg !4763
  %360 = load %"class.xercesc_2_7::XSSimpleTypeDefinition"*, %"class.xercesc_2_7::XSSimpleTypeDefinition"** %memberType, align 8, !dbg !4764
  %361 = load %"class.xercesc_2_7::SchemaAttDef"*, %"class.xercesc_2_7::SchemaAttDef"** %actualAttDef, align 8, !dbg !4765
  %362 = bitcast %"class.xercesc_2_7::SchemaAttDef"* %361 to %"class.xercesc_2_7::XMLAttDef"*, !dbg !4766
  %call538 = invoke i16* @_ZNK11xercesc_2_79XMLAttDef8getValueEv(%"class.xercesc_2_7::XMLAttDef"* %362)
          to label %invoke.cont537 unwind label %lpad35, !dbg !4766

invoke.cont537:                                   ; preds = %if.end535
  %363 = load %"class.xercesc_2_7::XSAttributeDeclaration"*, %"class.xercesc_2_7::XSAttributeDeclaration"** %attrDecl, align 8, !dbg !4767
  %364 = load %"class.xercesc_2_7::XSSimpleTypeDefinition"*, %"class.xercesc_2_7::XSSimpleTypeDefinition"** %memberType, align 8, !dbg !4768
  %tobool539 = icmp ne %"class.xercesc_2_7::XSSimpleTypeDefinition"* %364, null, !dbg !4769
  br i1 %tobool539, label %cond.true540, label %cond.false541, !dbg !4769

cond.true540:                                     ; preds = %invoke.cont537
  %365 = load %"class.xercesc_2_7::DatatypeValidator"*, %"class.xercesc_2_7::DatatypeValidator"** %attrValidator, align 8, !dbg !4770
  br label %cond.end542, !dbg !4769

cond.false541:                                    ; preds = %invoke.cont537
  %366 = load %"class.xercesc_2_7::DatatypeValidator"*, %"class.xercesc_2_7::DatatypeValidator"** %attrDataType, align 8, !dbg !4771
  br label %cond.end542, !dbg !4769

cond.end542:                                      ; preds = %cond.false541, %cond.true540
  %cond543 = phi %"class.xercesc_2_7::DatatypeValidator"* [ %365, %cond.true540 ], [ %366, %cond.false541 ], !dbg !4769
  invoke void @_ZN11xercesc_2_713PSVIAttribute5resetEPKtNS_8PSVIItem14VALIDITY_STATEENS3_15ASSESSMENT_TYPEEPNS_22XSSimpleTypeDefinitionES7_S2_bPNS_22XSAttributeDeclarationEPNS_17DatatypeValidatorE(%"class.xercesc_2_7::PSVIAttribute"* %354, i16* %356, i32 %357, i32 %358, %"class.xercesc_2_7::XSSimpleTypeDefinition"* %359, %"class.xercesc_2_7::XSSimpleTypeDefinition"* %360, i16* %call538, i1 zeroext false, %"class.xercesc_2_7::XSAttributeDeclaration"* %363, %"class.xercesc_2_7::DatatypeValidator"* %cond543)
          to label %invoke.cont544 unwind label %lpad35, !dbg !4772

invoke.cont544:                                   ; preds = %cond.end542
  br label %if.end545

if.end545:                                        ; preds = %invoke.cont544, %invoke.cont526
  br label %if.end549, !dbg !4773

if.else546:                                       ; preds = %if.end512
  %367 = load %"class.xercesc_2_7::PSVIAttribute"*, %"class.xercesc_2_7::PSVIAttribute"** %psviAttr, align 8, !dbg !4774
  %368 = bitcast %"class.xercesc_2_7::IGXMLScanner"* %this1 to %"class.xercesc_2_7::XMLScanner"*, !dbg !4776
  %fRootElemName547 = getelementptr inbounds %"class.xercesc_2_7::XMLScanner", %"class.xercesc_2_7::XMLScanner"* %368, i32 0, i32 57, !dbg !4776
  %369 = load i16*, i16** %fRootElemName547, align 8, !dbg !4776
  %370 = load i32, i32* %attrValid, align 4, !dbg !4777
  %371 = load i32, i32* %attrAssessed, align 4, !dbg !4778
  invoke void @_ZN11xercesc_2_713PSVIAttribute5resetEPKtNS_8PSVIItem14VALIDITY_STATEENS3_15ASSESSMENT_TYPEEPNS_22XSSimpleTypeDefinitionES7_S2_bPNS_22XSAttributeDeclarationEPNS_17DatatypeValidatorE(%"class.xercesc_2_7::PSVIAttribute"* %367, i16* %369, i32 %370, i32 %371, %"class.xercesc_2_7::XSSimpleTypeDefinition"* null, %"class.xercesc_2_7::XSSimpleTypeDefinition"* null, i16* null, i1 zeroext false, %"class.xercesc_2_7::XSAttributeDeclaration"* null, %"class.xercesc_2_7::DatatypeValidator"* null)
          to label %invoke.cont548 unwind label %lpad35, !dbg !4779

invoke.cont548:                                   ; preds = %if.else546
  br label %if.end549

if.end549:                                        ; preds = %invoke.cont548, %if.end545
  br label %if.end550, !dbg !4780

if.end550:                                        ; preds = %if.end549, %land.lhs.true495, %invoke.cont492
  br label %if.end596, !dbg !4781

if.else551:                                       ; preds = %lor.lhs.false67
  store i32 0, i32* %attType, align 4, !dbg !4782
  %372 = load i16*, i16** %namePtr, align 8, !dbg !4784
  %373 = load %"class.xercesc_2_7::KVStringPair"*, %"class.xercesc_2_7::KVStringPair"** %curPair, align 8, !dbg !4785
