; ModuleID = 'RegularExpression.cpp'
source_filename = "RegularExpression.cpp"
target datalayout = "e-m:e-p270:32:32-p271:32:32-p272:64:64-i64:64-f80:128-n8:16:32:64-S128"
target triple = "x86_64-unknown-linux-gnu"

%"class.xercesc_2_7::RangeToken" = type { %"class.xercesc_2_7::Token", i8, i8, i32, i32, i32, i32*, i32*, %"class.xercesc_2_7::RangeToken"*, %"class.xercesc_2_7::MemoryManager"* }
%"class.xercesc_2_7::Token" = type { i32 (...)**, i16, %"class.xercesc_2_7::MemoryManager"* }
%"class.xercesc_2_7::MemoryManager" = type { i32 (...)** }
%"class.xercesc_2_7::XMLRegisterCleanup" = type { void ()*, %"class.xercesc_2_7::XMLRegisterCleanup"*, %"class.xercesc_2_7::XMLRegisterCleanup"* }
%"class.xercesc_2_7::RegularExpression::Context" = type { i8, i32, i32, i32, i32, i32, i32*, %"class.xercesc_2_7::Match"*, i16*, %"class.xercesc_2_7::MemoryManager"* }
%"class.xercesc_2_7::Match" = type { i32 (...)**, i32, i32, i32*, i32*, %"class.xercesc_2_7::MemoryManager"* }
%"class.xercesc_2_7::RegularExpression" = type { i8, i8, i32, i32, i32, i32, %"class.xercesc_2_7::BMPattern"*, i16*, i16*, %"class.xercesc_2_7::Op"*, %"class.xercesc_2_7::Token"*, %"class.xercesc_2_7::RangeToken"*, %"class.xercesc_2_7::OpFactory", %"class.xercesc_2_7::TokenFactory"*, %"class.xercesc_2_7::MemoryManager"* }
%"class.xercesc_2_7::BMPattern" = type { i8, i32, i32*, i16*, i16*, %"class.xercesc_2_7::MemoryManager"* }
%"class.xercesc_2_7::Op" = type { i32 (...)**, %"class.xercesc_2_7::MemoryManager"*, i16, %"class.xercesc_2_7::Op"* }
%"class.xercesc_2_7::OpFactory" = type { %"class.xercesc_2_7::RefVectorOf"*, %"class.xercesc_2_7::MemoryManager"* }
%"class.xercesc_2_7::RefVectorOf" = type { %"class.xercesc_2_7::BaseRefVectorOf" }
%"class.xercesc_2_7::BaseRefVectorOf" = type { i32 (...)**, i8, i32, i32, %"class.xercesc_2_7::Op"**, %"class.xercesc_2_7::MemoryManager"* }
%"class.xercesc_2_7::TokenFactory" = type { %"class.xercesc_2_7::RefVectorOf.0"*, %"class.xercesc_2_7::Token"*, %"class.xercesc_2_7::Token"*, %"class.xercesc_2_7::Token"*, %"class.xercesc_2_7::Token"*, %"class.xercesc_2_7::Token"*, %"class.xercesc_2_7::Token"*, %"class.xercesc_2_7::Token"*, %"class.xercesc_2_7::Token"*, %"class.xercesc_2_7::Token"*, %"class.xercesc_2_7::Token"*, %"class.xercesc_2_7::Token"*, %"class.xercesc_2_7::Token"*, %"class.xercesc_2_7::Token"*, %"class.xercesc_2_7::Token"*, %"class.xercesc_2_7::MemoryManager"* }
%"class.xercesc_2_7::RefVectorOf.0" = type opaque
%"class.xercesc_2_7::XMLDeleter" = type { i32 (...)** }
%"class.xercesc_2_7::XMemory" = type { i8 }
%"class.xercesc_2_7::JanitorMemFunCall" = type { %"class.xercesc_2_7::RegularExpression"*, { i64, i64 } }
%"class.xercesc_2_7::ArrayJanitor" = type { i16*, %"class.xercesc_2_7::MemoryManager"* }
%"class.xercesc_2_7::OutOfMemoryException" = type { i8 }
%"class.xercesc_2_7::RegxParser" = type { i32 (...)**, %"class.xercesc_2_7::MemoryManager"*, i8, i32, i32, i32, i16, i32, i16, i32, i16*, %"class.xercesc_2_7::RefVectorOf.1"*, %"class.xercesc_2_7::TokenFactory"* }
%"class.xercesc_2_7::RefVectorOf.1" = type opaque
%"class.xercesc_2_7::Janitor" = type { %"class.xercesc_2_7::RegxParser"* }
%"class.xercesc_2_7::ParserForXMLSchema" = type { %"class.xercesc_2_7::RegxParser" }
%"class.xercesc_2_7::ParseException" = type { %"class.xercesc_2_7::XMLException" }
%"class.xercesc_2_7::XMLException" = type { i32 (...)**, i32, i8*, i32, i16*, %"class.xercesc_2_7::MemoryManager"* }
%"class.xercesc_2_7::RuntimeException" = type { %"class.xercesc_2_7::XMLException" }
%"class.xercesc_2_7::ArrayIndexOutOfBoundsException" = type { %"class.xercesc_2_7::XMLException" }
%"class.xercesc_2_7::RefArrayVectorOf" = type { %"class.xercesc_2_7::BaseRefVectorOf.2" }
%"class.xercesc_2_7::BaseRefVectorOf.2" = type { i32 (...)**, i8, i32, i32, i16**, %"class.xercesc_2_7::MemoryManager"* }
%"class.xercesc_2_7::RefVectorOf.3" = type { %"class.xercesc_2_7::BaseRefVectorOf.4" }
%"class.xercesc_2_7::BaseRefVectorOf.4" = type { i32 (...)**, i8, i32, i32, %"class.xercesc_2_7::Match"**, %"class.xercesc_2_7::MemoryManager"* }
%"class.xercesc_2_7::Janitor.5" = type { %"class.xercesc_2_7::RefVectorOf.3"* }
%"class.xercesc_2_7::Janitor.6" = type { %"class.xercesc_2_7::RefArrayVectorOf"* }
%"class.xercesc_2_7::XMLBuffer" = type { i32, i32, i32, i8, %"class.xercesc_2_7::MemoryManager"*, %"class.xercesc_2_7::XMLBufferFullHandler"*, i16* }
%"class.xercesc_2_7::XMLBufferFullHandler" = type { i32 (...)** }
%"class.xercesc_2_7::IllegalArgumentException" = type { %"class.xercesc_2_7::XMLException" }
%"class.xercesc_2_7::CharOp" = type <{ %"class.xercesc_2_7::Op", i32, [4 x i8] }>
%"class.xercesc_2_7::RangeOp" = type { %"class.xercesc_2_7::Op", %"class.xercesc_2_7::Token"* }
%"class.xercesc_2_7::StringOp" = type { %"class.xercesc_2_7::Op", i16* }
%"class.xercesc_2_7::UnionOp" = type { %"class.xercesc_2_7::Op", %"class.xercesc_2_7::RefVectorOf"* }
%"class.xercesc_2_7::ChildOp" = type { %"class.xercesc_2_7::Op", %"class.xercesc_2_7::Op"* }
%"class.xercesc_2_7::ModifierToken" = type { %"class.xercesc_2_7::Token", i32, i32, %"class.xercesc_2_7::Token"* }
%"class.xercesc_2_7::ModifierOp" = type { %"class.xercesc_2_7::ChildOp", i32, i32 }
%"class.xercesc_2_7::ConditionToken" = type { %"class.xercesc_2_7::Token", i32, %"class.xercesc_2_7::Token"*, %"class.xercesc_2_7::Token"*, %"class.xercesc_2_7::Token"* }
%"class.xercesc_2_7::ConditionOp" = type { %"class.xercesc_2_7::Op", i32, %"class.xercesc_2_7::Op"*, %"class.xercesc_2_7::Op"*, %"class.xercesc_2_7::Op"* }

$_ZN11xercesc_2_710XMLDeleterD0Ev = comdat any

$_ZN11xercesc_2_710XMLDeleterD2Ev = comdat any

$_ZN11xercesc_2_78RegxUtil21decomposeToSurrogatesEiRtS1_ = comdat any

$_ZN11xercesc_2_77XMemoryC2Ev = comdat any

$__clang_call_terminate = comdat any

$_ZN11xercesc_2_78RegxUtil15isHighSurrogateEt = comdat any

$_ZN11xercesc_2_78RegxUtil14isLowSurrogateEt = comdat any

$_ZN11xercesc_2_78RegxUtil20composeFromSurrogateEtt = comdat any

$_ZN11xercesc_2_717RegularExpression7cleanUpEv = comdat any

$_ZN11xercesc_2_717JanitorMemFunCallINS_17RegularExpressionEEC2EPS1_MS1_FvvE = comdat any

$_ZN11xercesc_2_712ArrayJanitorItEC2EPtPNS_13MemoryManagerE = comdat any

$_ZN11xercesc_2_712ArrayJanitorItED2Ev = comdat any

$_ZN11xercesc_2_717JanitorMemFunCallINS_17RegularExpressionEE7releaseEv = comdat any

$_ZN11xercesc_2_717JanitorMemFunCallINS_17RegularExpressionEED2Ev = comdat any

$_ZN11xercesc_2_79XMLString9replicateEPKtPNS_13MemoryManagerE = comdat any

$_ZN11xercesc_2_717RegularExpression5isSetEii = comdat any

$_ZN11xercesc_2_710RegxParser15setTokenFactoryEPNS_12TokenFactoryE = comdat any

$_ZN11xercesc_2_77JanitorINS_10RegxParserEEC2EPS1_ = comdat any

$_ZNK11xercesc_2_710RegxParser10getNoParenEv = comdat any

$_ZNK11xercesc_2_710RegxParser17hasBackReferencesEv = comdat any

$_ZN11xercesc_2_77JanitorINS_10RegxParserEED2Ev = comdat any

$_ZN11xercesc_2_79XMLString9stringLenEPKt = comdat any

$_ZN11xercesc_2_75Match11setStartPosEii = comdat any

$_ZN11xercesc_2_75Match9setEndPosEii = comdat any

$_ZNK11xercesc_2_72Op9getOpTypeEv = comdat any

$_ZN11xercesc_2_78RegxUtil9isEOLCharEt = comdat any

$_ZN11xercesc_2_716RefArrayVectorOfItEC2EjbPNS_13MemoryManagerE = comdat any

$_ZN11xercesc_2_715BaseRefVectorOfINS_5MatchEE10addElementEPS1_ = comdat any

$_ZN11xercesc_2_79XMLString6equalsEPKtS2_ = comdat any

$_ZN11xercesc_2_715BaseRefVectorOfItE10addElementEPt = comdat any

$_ZN11xercesc_2_716RuntimeExceptionC2EPKcjNS_10XMLExcepts5CodesEPNS_13MemoryManagerE = comdat any

$_ZN11xercesc_2_716RuntimeExceptionD2Ev = comdat any

$_ZN11xercesc_2_711RefVectorOfINS_5MatchEEC2EjbPNS_13MemoryManagerE = comdat any

$_ZN11xercesc_2_77JanitorINS_11RefVectorOfINS_5MatchEEEEC2EPS3_ = comdat any

$_ZN11xercesc_2_77JanitorINS_16RefArrayVectorOfItEEEC2EPS2_ = comdat any

$_ZN11xercesc_2_79XMLBufferC2EjPNS_13MemoryManagerE = comdat any

$_ZNK11xercesc_2_715BaseRefVectorOfINS_5MatchEE4sizeEv = comdat any

$_ZN11xercesc_2_715BaseRefVectorOfINS_5MatchEE9elementAtEj = comdat any

$_ZNK11xercesc_2_75Match11getNoGroupsEv = comdat any

$_ZNK11xercesc_2_715BaseRefVectorOfItE4sizeEv = comdat any

$_ZN11xercesc_2_79XMLBuffer6appendEPKt = comdat any

$_ZN11xercesc_2_715BaseRefVectorOfItE9elementAtEj = comdat any

$_ZN11xercesc_2_79XMLBuffer12getRawBufferEv = comdat any

$_ZN11xercesc_2_79XMLBufferD2Ev = comdat any

$_ZN11xercesc_2_77JanitorINS_16RefArrayVectorOfItEEED2Ev = comdat any

$_ZN11xercesc_2_77JanitorINS_11RefVectorOfINS_5MatchEEEED2Ev = comdat any

$_ZN11xercesc_2_716RuntimeExceptionC2EPKcjNS_10XMLExcepts5CodesEPKtS6_S6_S6_PNS_13MemoryManagerE = comdat any

$_ZNK11xercesc_2_72Op9getNextOpEv = comdat any

$_ZN11xercesc_2_717RegularExpression10matchUnionEPNS0_7ContextEPKNS_2OpEis = comdat any

$_ZN11xercesc_2_717RegularExpression13matchModifierEPNS0_7ContextEPKNS_2OpEis = comdat any

$_ZN11xercesc_2_717RegularExpression11getWordTypeEPKtiii = comdat any

$_ZN11xercesc_2_717RegularExpression19getPreviousWordTypeEPKtiii = comdat any

$_ZN11xercesc_2_724IllegalArgumentExceptionC2EPKcjNS_10XMLExcepts5CodesEPNS_13MemoryManagerE = comdat any

$_ZN11xercesc_2_724IllegalArgumentExceptionD2Ev = comdat any

$_ZNK11xercesc_2_75Match11getStartPosEi = comdat any

$_ZNK11xercesc_2_75Match9getEndPosEi = comdat any

$_ZN11xercesc_2_714ParseExceptionC2EPKcjNS_10XMLExcepts5CodesEPKtS6_S6_S6_PNS_13MemoryManagerE = comdat any

$_ZN11xercesc_2_714ParseExceptionD2Ev = comdat any

$_ZNK11xercesc_2_75Token12getTokenTypeEv = comdat any

$_ZN11xercesc_2_717RegularExpression13compileSingleEPKNS_5TokenEPNS_2OpEt = comdat any

$_ZN11xercesc_2_717RegularExpression13compileConcatEPKNS_5TokenEPNS_2OpEb = comdat any

$_ZN11xercesc_2_717RegularExpression12compileUnionEPKNS_5TokenEPNS_2OpEb = comdat any

$_ZN11xercesc_2_717RegularExpression14compileClosureEPKNS_5TokenEPNS_2OpEbt = comdat any

$_ZN11xercesc_2_717RegularExpression18compileParenthesisEPKNS_5TokenEPNS_2OpEb = comdat any

$_ZN11xercesc_2_717RegularExpression11compileLookEPKNS_5TokenEPKNS_2OpEbt = comdat any

$_ZN11xercesc_2_717RegularExpression16compileConditionEPKNS_5TokenEPNS_2OpEb = comdat any

$_ZN11xercesc_2_79XMLBuffer6appendEt = comdat any

$_ZN11xercesc_2_710RangeToken9createMapEv = comdat any

$_ZN11xercesc_2_712TokenFactory8getRangeEPKtb = comdat any

$_ZN11xercesc_2_78RegxUtil10isWordCharEt = comdat any

$_ZN11xercesc_2_730ArrayIndexOutOfBoundsExceptionC2EPKcjNS_10XMLExcepts5CodesEPNS_13MemoryManagerE = comdat any

$_ZN11xercesc_2_730ArrayIndexOutOfBoundsExceptionD2Ev = comdat any

$_ZN11xercesc_2_730ArrayIndexOutOfBoundsExceptionD0Ev = comdat any

$_ZNK11xercesc_2_730ArrayIndexOutOfBoundsException7getTypeEv = comdat any

$_ZNK11xercesc_2_730ArrayIndexOutOfBoundsException9duplicateEv = comdat any

$_ZN11xercesc_2_730ArrayIndexOutOfBoundsExceptionC2ERKS0_ = comdat any

$_ZN11xercesc_2_716RuntimeExceptionD0Ev = comdat any

$_ZNK11xercesc_2_716RuntimeException7getTypeEv = comdat any

$_ZNK11xercesc_2_716RuntimeException9duplicateEv = comdat any

$_ZN11xercesc_2_716RuntimeExceptionC2ERKS0_ = comdat any

$_ZN11xercesc_2_717RegularExpression13staticCleanupEv = comdat any

$_ZN11xercesc_2_724IllegalArgumentExceptionD0Ev = comdat any

$_ZNK11xercesc_2_724IllegalArgumentException7getTypeEv = comdat any

$_ZNK11xercesc_2_724IllegalArgumentException9duplicateEv = comdat any

$_ZN11xercesc_2_724IllegalArgumentExceptionC2ERKS0_ = comdat any

$_ZN11xercesc_2_714ParseExceptionD0Ev = comdat any

$_ZNK11xercesc_2_714ParseException7getTypeEv = comdat any

$_ZNK11xercesc_2_714ParseException9duplicateEv = comdat any

$_ZN11xercesc_2_714ParseExceptionC2ERKS0_ = comdat any

$_ZN11xercesc_2_72Op9setNextOpEPKS0_ = comdat any

$_ZNK11xercesc_2_713ModifierToken10getOptionsEv = comdat any

$_ZNK11xercesc_2_713ModifierToken14getOptionsMaskEv = comdat any

$_ZNK11xercesc_2_714ConditionToken17getConditionTokenEv = comdat any

$_ZN11xercesc_2_712ArrayJanitorItE5resetEPt = comdat any

$_ZN11xercesc_2_77JanitorINS_10RegxParserEE5resetEPS1_ = comdat any

$_ZN11xercesc_2_715BaseRefVectorOfItEC2EjbPNS_13MemoryManagerE = comdat any

$_ZN11xercesc_2_716RefArrayVectorOfItED2Ev = comdat any

$_ZN11xercesc_2_716RefArrayVectorOfItED0Ev = comdat any

$_ZN11xercesc_2_716RefArrayVectorOfItE12setElementAtEPtj = comdat any

$_ZN11xercesc_2_716RefArrayVectorOfItE17removeAllElementsEv = comdat any

$_ZN11xercesc_2_716RefArrayVectorOfItE15removeElementAtEj = comdat any

$_ZN11xercesc_2_716RefArrayVectorOfItE17removeLastElementEv = comdat any

$_ZN11xercesc_2_716RefArrayVectorOfItE7cleanupEv = comdat any

$_ZN11xercesc_2_715BaseRefVectorOfItED2Ev = comdat any

$_ZN11xercesc_2_715BaseRefVectorOfItED0Ev = comdat any

$_ZN11xercesc_2_715BaseRefVectorOfItE12setElementAtEPtj = comdat any

$_ZN11xercesc_2_715BaseRefVectorOfItE17removeAllElementsEv = comdat any

$_ZN11xercesc_2_715BaseRefVectorOfItE15removeElementAtEj = comdat any

$_ZN11xercesc_2_715BaseRefVectorOfItE17removeLastElementEv = comdat any

$_ZN11xercesc_2_715BaseRefVectorOfItE7cleanupEv = comdat any

$_ZN11xercesc_2_715BaseRefVectorOfINS_5MatchEE19ensureExtraCapacityEj = comdat any

$_ZN11xercesc_2_715BaseRefVectorOfItE19ensureExtraCapacityEj = comdat any

$_ZN11xercesc_2_715BaseRefVectorOfINS_5MatchEEC2EjbPNS_13MemoryManagerE = comdat any

$_ZN11xercesc_2_711RefVectorOfINS_5MatchEED2Ev = comdat any

$_ZN11xercesc_2_711RefVectorOfINS_5MatchEED0Ev = comdat any

$_ZN11xercesc_2_715BaseRefVectorOfINS_5MatchEE12setElementAtEPS1_j = comdat any

$_ZN11xercesc_2_715BaseRefVectorOfINS_5MatchEE17removeAllElementsEv = comdat any

$_ZN11xercesc_2_715BaseRefVectorOfINS_5MatchEE15removeElementAtEj = comdat any

$_ZN11xercesc_2_715BaseRefVectorOfINS_5MatchEE17removeLastElementEv = comdat any

$_ZN11xercesc_2_715BaseRefVectorOfINS_5MatchEE7cleanupEv = comdat any

$_ZN11xercesc_2_715BaseRefVectorOfINS_5MatchEED2Ev = comdat any

$_ZN11xercesc_2_715BaseRefVectorOfINS_5MatchEED0Ev = comdat any

$_ZN11xercesc_2_77JanitorINS_11RefVectorOfINS_5MatchEEEE5resetEPS3_ = comdat any

$_ZN11xercesc_2_77JanitorINS_16RefArrayVectorOfItEEE5resetEPS2_ = comdat any

$_ZTSN11xercesc_2_720OutOfMemoryExceptionE = comdat any

$_ZTSN11xercesc_2_77XMemoryE = comdat any

$_ZTIN11xercesc_2_77XMemoryE = comdat any

$_ZTIN11xercesc_2_720OutOfMemoryExceptionE = comdat any

$_ZTSN11xercesc_2_716RuntimeExceptionE = comdat any

$_ZTIN11xercesc_2_716RuntimeExceptionE = comdat any

$_ZTSN11xercesc_2_724IllegalArgumentExceptionE = comdat any

$_ZTIN11xercesc_2_724IllegalArgumentExceptionE = comdat any

$_ZTSN11xercesc_2_714ParseExceptionE = comdat any

$_ZTIN11xercesc_2_714ParseExceptionE = comdat any

$_ZTVN11xercesc_2_710XMLDeleterE = comdat any

$_ZTSN11xercesc_2_710XMLDeleterE = comdat any

$_ZTIN11xercesc_2_710XMLDeleterE = comdat any

$_ZTSN11xercesc_2_730ArrayIndexOutOfBoundsExceptionE = comdat any

$_ZTIN11xercesc_2_730ArrayIndexOutOfBoundsExceptionE = comdat any

$_ZTVN11xercesc_2_730ArrayIndexOutOfBoundsExceptionE = comdat any

$_ZTVN11xercesc_2_716RuntimeExceptionE = comdat any

$_ZTVN11xercesc_2_724IllegalArgumentExceptionE = comdat any

$_ZTVN11xercesc_2_714ParseExceptionE = comdat any

$_ZTVN11xercesc_2_716RefArrayVectorOfItEE = comdat any

$_ZTSN11xercesc_2_716RefArrayVectorOfItEE = comdat any

$_ZTSN11xercesc_2_715BaseRefVectorOfItEE = comdat any

$_ZTIN11xercesc_2_715BaseRefVectorOfItEE = comdat any

$_ZTIN11xercesc_2_716RefArrayVectorOfItEE = comdat any

$_ZTVN11xercesc_2_715BaseRefVectorOfItEE = comdat any

$_ZTVN11xercesc_2_711RefVectorOfINS_5MatchEEE = comdat any

$_ZTSN11xercesc_2_711RefVectorOfINS_5MatchEEE = comdat any

$_ZTSN11xercesc_2_715BaseRefVectorOfINS_5MatchEEE = comdat any

$_ZTIN11xercesc_2_715BaseRefVectorOfINS_5MatchEEE = comdat any

$_ZTIN11xercesc_2_711RefVectorOfINS_5MatchEEE = comdat any

$_ZTVN11xercesc_2_715BaseRefVectorOfINS_5MatchEEE = comdat any

@_ZN11xercesc_2_717RegularExpression11MARK_PARENSE = dso_local constant i32 1, align 4, !dbg !0
@_ZN11xercesc_2_717RegularExpression11IGNORE_CASEE = dso_local constant i32 2, align 4, !dbg !731
@_ZN11xercesc_2_717RegularExpression11SINGLE_LINEE = dso_local constant i32 4, align 4, !dbg !733
@_ZN11xercesc_2_717RegularExpression13MULTIPLE_LINEE = dso_local constant i32 8, align 4, !dbg !735
@_ZN11xercesc_2_717RegularExpression16EXTENDED_COMMENTE = dso_local constant i32 16, align 4, !dbg !737
@_ZN11xercesc_2_717RegularExpression20USE_UNICODE_CATEGORYE = dso_local constant i32 32, align 4, !dbg !739
@_ZN11xercesc_2_717RegularExpression21UNICODE_WORD_BOUNDARYE = dso_local constant i32 64, align 4, !dbg !741
@_ZN11xercesc_2_717RegularExpression36PROHIBIT_HEAD_CHARACTER_OPTIMIZATIONE = dso_local constant i32 128, align 4, !dbg !743
@_ZN11xercesc_2_717RegularExpression34PROHIBIT_FIXED_STRING_OPTIMIZATIONE = dso_local constant i32 256, align 4, !dbg !745
@_ZN11xercesc_2_717RegularExpression14XMLSCHEMA_MODEE = dso_local constant i32 512, align 4, !dbg !747
@_ZN11xercesc_2_717RegularExpression13SPECIAL_COMMAE = dso_local constant i32 1024, align 4, !dbg !749
@_ZN11xercesc_2_717RegularExpression9WT_IGNOREE = dso_local constant i16 0, align 2, !dbg !751
@_ZN11xercesc_2_717RegularExpression9WT_LETTERE = dso_local constant i16 1, align 2, !dbg !753
@_ZN11xercesc_2_717RegularExpression8WT_OTHERE = dso_local constant i16 2, align 2, !dbg !755
@_ZN11xercesc_2_717RegularExpression10fWordRangeE = dso_local global %"class.xercesc_2_7::RangeToken"* null, align 8, !dbg !757
@_ZN11xercesc_2_7L16WordRangeCleanupE = internal global %"class.xercesc_2_7::XMLRegisterCleanup" zeroinitializer, align 8, !dbg !759
@_ZTVN10__cxxabiv120__si_class_type_infoE = external dso_local global i8*
@_ZTSN11xercesc_2_720OutOfMemoryExceptionE = linkonce_odr dso_local constant [38 x i8] c"N11xercesc_2_720OutOfMemoryExceptionE\00", comdat, align 1
@_ZTVN10__cxxabiv117__class_type_infoE = external dso_local global i8*
@_ZTSN11xercesc_2_77XMemoryE = linkonce_odr dso_local constant [24 x i8] c"N11xercesc_2_77XMemoryE\00", comdat, align 1
@_ZTIN11xercesc_2_77XMemoryE = linkonce_odr dso_local constant { i8*, i8* } { i8* bitcast (i8** getelementptr inbounds (i8*, i8** @_ZTVN10__cxxabiv117__class_type_infoE, i64 2) to i8*), i8* getelementptr inbounds ([24 x i8], [24 x i8]* @_ZTSN11xercesc_2_77XMemoryE, i32 0, i32 0) }, comdat, align 8
@_ZTIN11xercesc_2_720OutOfMemoryExceptionE = linkonce_odr dso_local constant { i8*, i8*, i8* } { i8* bitcast (i8** getelementptr inbounds (i8*, i8** @_ZTVN10__cxxabiv120__si_class_type_infoE, i64 2) to i8*), i8* getelementptr inbounds ([38 x i8], [38 x i8]* @_ZTSN11xercesc_2_720OutOfMemoryExceptionE, i32 0, i32 0), i8* bitcast ({ i8*, i8* }* @_ZTIN11xercesc_2_77XMemoryE to i8*) }, comdat, align 8
@_ZN11xercesc_2_7L6chNullE = internal constant i16 0, align 2, !dbg !789
@_ZN11xercesc_2_76XMLUni15fgZeroLenStringE = external dso_local constant [0 x i16], align 2
@.str = private unnamed_addr constant [22 x i8] c"RegularExpression.cpp\00", align 1
@_ZTSN11xercesc_2_716RuntimeExceptionE = linkonce_odr dso_local constant [34 x i8] c"N11xercesc_2_716RuntimeExceptionE\00", comdat, align 1
@_ZTIN11xercesc_2_712XMLExceptionE = external dso_local constant i8*
@_ZTIN11xercesc_2_716RuntimeExceptionE = linkonce_odr dso_local constant { i8*, i8*, i8* } { i8* bitcast (i8** getelementptr inbounds (i8*, i8** @_ZTVN10__cxxabiv120__si_class_type_infoE, i64 2) to i8*), i8* getelementptr inbounds ([34 x i8], [34 x i8]* @_ZTSN11xercesc_2_716RuntimeExceptionE, i32 0, i32 0), i8* bitcast (i8** @_ZTIN11xercesc_2_712XMLExceptionE to i8*) }, comdat, align 8
@_ZN11xercesc_2_716XMLPlatformUtils15fgMemoryManagerE = external dso_local global %"class.xercesc_2_7::MemoryManager"*, align 8
@_ZN11xercesc_2_7L11fgUniIsWordE = internal constant [7 x i16] [i16 73, i16 115, i16 87, i16 111, i16 114, i16 100, i16 0], align 2, !dbg !792
@_ZTSN11xercesc_2_724IllegalArgumentExceptionE = linkonce_odr dso_local constant [42 x i8] c"N11xercesc_2_724IllegalArgumentExceptionE\00", comdat, align 1
@_ZTIN11xercesc_2_724IllegalArgumentExceptionE = linkonce_odr dso_local constant { i8*, i8*, i8* } { i8* bitcast (i8** getelementptr inbounds (i8*, i8** @_ZTVN10__cxxabiv120__si_class_type_infoE, i64 2) to i8*), i8* getelementptr inbounds ([42 x i8], [42 x i8]* @_ZTSN11xercesc_2_724IllegalArgumentExceptionE, i32 0, i32 0), i8* bitcast (i8** @_ZTIN11xercesc_2_712XMLExceptionE to i8*) }, comdat, align 8
@_ZTSN11xercesc_2_714ParseExceptionE = linkonce_odr dso_local constant [32 x i8] c"N11xercesc_2_714ParseExceptionE\00", comdat, align 1
@_ZTIN11xercesc_2_714ParseExceptionE = linkonce_odr dso_local constant { i8*, i8*, i8* } { i8* bitcast (i8** getelementptr inbounds (i8*, i8** @_ZTVN10__cxxabiv120__si_class_type_infoE, i64 2) to i8*), i8* getelementptr inbounds ([32 x i8], [32 x i8]* @_ZTSN11xercesc_2_714ParseExceptionE, i32 0, i32 0), i8* bitcast (i8** @_ZTIN11xercesc_2_712XMLExceptionE to i8*) }, comdat, align 8
@_ZN11xercesc_2_75Token11FC_TERMINALE = external dso_local constant i16, align 2
@_ZTVN11xercesc_2_710XMLDeleterE = linkonce_odr dso_local unnamed_addr constant { [4 x i8*] } { [4 x i8*] [i8* null, i8* bitcast ({ i8*, i8* }* @_ZTIN11xercesc_2_710XMLDeleterE to i8*), i8* bitcast (void (%"class.xercesc_2_7::XMLDeleter"*)* @_ZN11xercesc_2_710XMLDeleterD2Ev to i8*), i8* bitcast (void (%"class.xercesc_2_7::XMLDeleter"*)* @_ZN11xercesc_2_710XMLDeleterD0Ev to i8*)] }, comdat, align 8
@_ZTSN11xercesc_2_710XMLDeleterE = linkonce_odr dso_local constant [28 x i8] c"N11xercesc_2_710XMLDeleterE\00", comdat, align 1
@_ZTIN11xercesc_2_710XMLDeleterE = linkonce_odr dso_local constant { i8*, i8* } { i8* bitcast (i8** getelementptr inbounds (i8*, i8** @_ZTVN10__cxxabiv117__class_type_infoE, i64 2) to i8*), i8* getelementptr inbounds ([28 x i8], [28 x i8]* @_ZTSN11xercesc_2_710XMLDeleterE, i32 0, i32 0) }, comdat, align 8
@.str.1 = private unnamed_addr constant [30 x i8] c"./xercesc/util/regx/Match.hpp\00", align 1
@_ZTSN11xercesc_2_730ArrayIndexOutOfBoundsExceptionE = linkonce_odr dso_local constant [48 x i8] c"N11xercesc_2_730ArrayIndexOutOfBoundsExceptionE\00", comdat, align 1
@_ZTIN11xercesc_2_730ArrayIndexOutOfBoundsExceptionE = linkonce_odr dso_local constant { i8*, i8*, i8* } { i8* bitcast (i8** getelementptr inbounds (i8*, i8** @_ZTVN10__cxxabiv120__si_class_type_infoE, i64 2) to i8*), i8* getelementptr inbounds ([48 x i8], [48 x i8]* @_ZTSN11xercesc_2_730ArrayIndexOutOfBoundsExceptionE, i32 0, i32 0), i8* bitcast (i8** @_ZTIN11xercesc_2_712XMLExceptionE to i8*) }, comdat, align 8
@_ZTVN11xercesc_2_730ArrayIndexOutOfBoundsExceptionE = linkonce_odr dso_local unnamed_addr constant { [6 x i8*] } { [6 x i8*] [i8* null, i8* bitcast ({ i8*, i8*, i8* }* @_ZTIN11xercesc_2_730ArrayIndexOutOfBoundsExceptionE to i8*), i8* bitcast (void (%"class.xercesc_2_7::ArrayIndexOutOfBoundsException"*)* @_ZN11xercesc_2_730ArrayIndexOutOfBoundsExceptionD2Ev to i8*), i8* bitcast (void (%"class.xercesc_2_7::ArrayIndexOutOfBoundsException"*)* @_ZN11xercesc_2_730ArrayIndexOutOfBoundsExceptionD0Ev to i8*), i8* bitcast (i16* (%"class.xercesc_2_7::ArrayIndexOutOfBoundsException"*)* @_ZNK11xercesc_2_730ArrayIndexOutOfBoundsException7getTypeEv to i8*), i8* bitcast (%"class.xercesc_2_7::XMLException"* (%"class.xercesc_2_7::ArrayIndexOutOfBoundsException"*)* @_ZNK11xercesc_2_730ArrayIndexOutOfBoundsException9duplicateEv to i8*)] }, comdat, align 8
@_ZN11xercesc_2_76XMLUni37fgArrayIndexOutOfBoundsException_NameE = external dso_local constant [0 x i16], align 2
@_ZTVN11xercesc_2_716RuntimeExceptionE = linkonce_odr dso_local unnamed_addr constant { [6 x i8*] } { [6 x i8*] [i8* null, i8* bitcast ({ i8*, i8*, i8* }* @_ZTIN11xercesc_2_716RuntimeExceptionE to i8*), i8* bitcast (void (%"class.xercesc_2_7::RuntimeException"*)* @_ZN11xercesc_2_716RuntimeExceptionD2Ev to i8*), i8* bitcast (void (%"class.xercesc_2_7::RuntimeException"*)* @_ZN11xercesc_2_716RuntimeExceptionD0Ev to i8*), i8* bitcast (i16* (%"class.xercesc_2_7::RuntimeException"*)* @_ZNK11xercesc_2_716RuntimeException7getTypeEv to i8*), i8* bitcast (%"class.xercesc_2_7::XMLException"* (%"class.xercesc_2_7::RuntimeException"*)* @_ZNK11xercesc_2_716RuntimeException9duplicateEv to i8*)] }, comdat, align 8
@_ZN11xercesc_2_76XMLUni23fgRuntimeException_NameE = external dso_local constant [0 x i16], align 2
@_ZTVN11xercesc_2_724IllegalArgumentExceptionE = linkonce_odr dso_local unnamed_addr constant { [6 x i8*] } { [6 x i8*] [i8* null, i8* bitcast ({ i8*, i8*, i8* }* @_ZTIN11xercesc_2_724IllegalArgumentExceptionE to i8*), i8* bitcast (void (%"class.xercesc_2_7::IllegalArgumentException"*)* @_ZN11xercesc_2_724IllegalArgumentExceptionD2Ev to i8*), i8* bitcast (void (%"class.xercesc_2_7::IllegalArgumentException"*)* @_ZN11xercesc_2_724IllegalArgumentExceptionD0Ev to i8*), i8* bitcast (i16* (%"class.xercesc_2_7::IllegalArgumentException"*)* @_ZNK11xercesc_2_724IllegalArgumentException7getTypeEv to i8*), i8* bitcast (%"class.xercesc_2_7::XMLException"* (%"class.xercesc_2_7::IllegalArgumentException"*)* @_ZNK11xercesc_2_724IllegalArgumentException9duplicateEv to i8*)] }, comdat, align 8
@_ZN11xercesc_2_76XMLUni31fgIllegalArgumentException_NameE = external dso_local constant [0 x i16], align 2
@_ZTVN11xercesc_2_714ParseExceptionE = linkonce_odr dso_local unnamed_addr constant { [6 x i8*] } { [6 x i8*] [i8* null, i8* bitcast ({ i8*, i8*, i8* }* @_ZTIN11xercesc_2_714ParseExceptionE to i8*), i8* bitcast (void (%"class.xercesc_2_7::ParseException"*)* @_ZN11xercesc_2_714ParseExceptionD2Ev to i8*), i8* bitcast (void (%"class.xercesc_2_7::ParseException"*)* @_ZN11xercesc_2_714ParseExceptionD0Ev to i8*), i8* bitcast (i16* (%"class.xercesc_2_7::ParseException"*)* @_ZNK11xercesc_2_714ParseException7getTypeEv to i8*), i8* bitcast (%"class.xercesc_2_7::XMLException"* (%"class.xercesc_2_7::ParseException"*)* @_ZNK11xercesc_2_714ParseException9duplicateEv to i8*)] }, comdat, align 8
@_ZN11xercesc_2_76XMLUni21fgParseException_NameE = external dso_local constant [0 x i16], align 2
@_ZTVN11xercesc_2_716RefArrayVectorOfItEE = linkonce_odr dso_local unnamed_addr constant { [9 x i8*] } { [9 x i8*] [i8* null, i8* bitcast ({ i8*, i8*, i8* }* @_ZTIN11xercesc_2_716RefArrayVectorOfItEE to i8*), i8* bitcast (void (%"class.xercesc_2_7::RefArrayVectorOf"*)* @_ZN11xercesc_2_716RefArrayVectorOfItED2Ev to i8*), i8* bitcast (void (%"class.xercesc_2_7::RefArrayVectorOf"*)* @_ZN11xercesc_2_716RefArrayVectorOfItED0Ev to i8*), i8* bitcast (void (%"class.xercesc_2_7::RefArrayVectorOf"*, i16*, i32)* @_ZN11xercesc_2_716RefArrayVectorOfItE12setElementAtEPtj to i8*), i8* bitcast (void (%"class.xercesc_2_7::RefArrayVectorOf"*)* @_ZN11xercesc_2_716RefArrayVectorOfItE17removeAllElementsEv to i8*), i8* bitcast (void (%"class.xercesc_2_7::RefArrayVectorOf"*, i32)* @_ZN11xercesc_2_716RefArrayVectorOfItE15removeElementAtEj to i8*), i8* bitcast (void (%"class.xercesc_2_7::RefArrayVectorOf"*)* @_ZN11xercesc_2_716RefArrayVectorOfItE17removeLastElementEv to i8*), i8* bitcast (void (%"class.xercesc_2_7::RefArrayVectorOf"*)* @_ZN11xercesc_2_716RefArrayVectorOfItE7cleanupEv to i8*)] }, comdat, align 8
@_ZTSN11xercesc_2_716RefArrayVectorOfItEE = linkonce_odr dso_local constant [37 x i8] c"N11xercesc_2_716RefArrayVectorOfItEE\00", comdat, align 1
@_ZTSN11xercesc_2_715BaseRefVectorOfItEE = linkonce_odr dso_local constant [36 x i8] c"N11xercesc_2_715BaseRefVectorOfItEE\00", comdat, align 1
@_ZTIN11xercesc_2_715BaseRefVectorOfItEE = linkonce_odr dso_local constant { i8*, i8*, i8* } { i8* bitcast (i8** getelementptr inbounds (i8*, i8** @_ZTVN10__cxxabiv120__si_class_type_infoE, i64 2) to i8*), i8* getelementptr inbounds ([36 x i8], [36 x i8]* @_ZTSN11xercesc_2_715BaseRefVectorOfItEE, i32 0, i32 0), i8* bitcast ({ i8*, i8* }* @_ZTIN11xercesc_2_77XMemoryE to i8*) }, comdat, align 8
@_ZTIN11xercesc_2_716RefArrayVectorOfItEE = linkonce_odr dso_local constant { i8*, i8*, i8* } { i8* bitcast (i8** getelementptr inbounds (i8*, i8** @_ZTVN10__cxxabiv120__si_class_type_infoE, i64 2) to i8*), i8* getelementptr inbounds ([37 x i8], [37 x i8]* @_ZTSN11xercesc_2_716RefArrayVectorOfItEE, i32 0, i32 0), i8* bitcast ({ i8*, i8*, i8* }* @_ZTIN11xercesc_2_715BaseRefVectorOfItEE to i8*) }, comdat, align 8
@_ZTVN11xercesc_2_715BaseRefVectorOfItEE = linkonce_odr dso_local unnamed_addr constant { [9 x i8*] } { [9 x i8*] [i8* null, i8* bitcast ({ i8*, i8*, i8* }* @_ZTIN11xercesc_2_715BaseRefVectorOfItEE to i8*), i8* bitcast (void (%"class.xercesc_2_7::BaseRefVectorOf.2"*)* @_ZN11xercesc_2_715BaseRefVectorOfItED2Ev to i8*), i8* bitcast (void (%"class.xercesc_2_7::BaseRefVectorOf.2"*)* @_ZN11xercesc_2_715BaseRefVectorOfItED0Ev to i8*), i8* bitcast (void (%"class.xercesc_2_7::BaseRefVectorOf.2"*, i16*, i32)* @_ZN11xercesc_2_715BaseRefVectorOfItE12setElementAtEPtj to i8*), i8* bitcast (void (%"class.xercesc_2_7::BaseRefVectorOf.2"*)* @_ZN11xercesc_2_715BaseRefVectorOfItE17removeAllElementsEv to i8*), i8* bitcast (void (%"class.xercesc_2_7::BaseRefVectorOf.2"*, i32)* @_ZN11xercesc_2_715BaseRefVectorOfItE15removeElementAtEj to i8*), i8* bitcast (void (%"class.xercesc_2_7::BaseRefVectorOf.2"*)* @_ZN11xercesc_2_715BaseRefVectorOfItE17removeLastElementEv to i8*), i8* bitcast (void (%"class.xercesc_2_7::BaseRefVectorOf.2"*)* @_ZN11xercesc_2_715BaseRefVectorOfItE7cleanupEv to i8*)] }, comdat, align 8
@.str.2 = private unnamed_addr constant [33 x i8] c"./xercesc/util/BaseRefVectorOf.c\00", align 1
@.str.3 = private unnamed_addr constant [34 x i8] c"./xercesc/util/RefArrayVectorOf.c\00", align 1
@_ZTVN11xercesc_2_711RefVectorOfINS_5MatchEEE = linkonce_odr dso_local unnamed_addr constant { [9 x i8*] } { [9 x i8*] [i8* null, i8* bitcast ({ i8*, i8*, i8* }* @_ZTIN11xercesc_2_711RefVectorOfINS_5MatchEEE to i8*), i8* bitcast (void (%"class.xercesc_2_7::RefVectorOf.3"*)* @_ZN11xercesc_2_711RefVectorOfINS_5MatchEED2Ev to i8*), i8* bitcast (void (%"class.xercesc_2_7::RefVectorOf.3"*)* @_ZN11xercesc_2_711RefVectorOfINS_5MatchEED0Ev to i8*), i8* bitcast (void (%"class.xercesc_2_7::BaseRefVectorOf.4"*, %"class.xercesc_2_7::Match"*, i32)* @_ZN11xercesc_2_715BaseRefVectorOfINS_5MatchEE12setElementAtEPS1_j to i8*), i8* bitcast (void (%"class.xercesc_2_7::BaseRefVectorOf.4"*)* @_ZN11xercesc_2_715BaseRefVectorOfINS_5MatchEE17removeAllElementsEv to i8*), i8* bitcast (void (%"class.xercesc_2_7::BaseRefVectorOf.4"*, i32)* @_ZN11xercesc_2_715BaseRefVectorOfINS_5MatchEE15removeElementAtEj to i8*), i8* bitcast (void (%"class.xercesc_2_7::BaseRefVectorOf.4"*)* @_ZN11xercesc_2_715BaseRefVectorOfINS_5MatchEE17removeLastElementEv to i8*), i8* bitcast (void (%"class.xercesc_2_7::BaseRefVectorOf.4"*)* @_ZN11xercesc_2_715BaseRefVectorOfINS_5MatchEE7cleanupEv to i8*)] }, comdat, align 8
@_ZTSN11xercesc_2_711RefVectorOfINS_5MatchEEE = linkonce_odr dso_local constant [41 x i8] c"N11xercesc_2_711RefVectorOfINS_5MatchEEE\00", comdat, align 1
@_ZTSN11xercesc_2_715BaseRefVectorOfINS_5MatchEEE = linkonce_odr dso_local constant [45 x i8] c"N11xercesc_2_715BaseRefVectorOfINS_5MatchEEE\00", comdat, align 1
@_ZTIN11xercesc_2_715BaseRefVectorOfINS_5MatchEEE = linkonce_odr dso_local constant { i8*, i8*, i8* } { i8* bitcast (i8** getelementptr inbounds (i8*, i8** @_ZTVN10__cxxabiv120__si_class_type_infoE, i64 2) to i8*), i8* getelementptr inbounds ([45 x i8], [45 x i8]* @_ZTSN11xercesc_2_715BaseRefVectorOfINS_5MatchEEE, i32 0, i32 0), i8* bitcast ({ i8*, i8* }* @_ZTIN11xercesc_2_77XMemoryE to i8*) }, comdat, align 8
@_ZTIN11xercesc_2_711RefVectorOfINS_5MatchEEE = linkonce_odr dso_local constant { i8*, i8*, i8* } { i8* bitcast (i8** getelementptr inbounds (i8*, i8** @_ZTVN10__cxxabiv120__si_class_type_infoE, i64 2) to i8*), i8* getelementptr inbounds ([41 x i8], [41 x i8]* @_ZTSN11xercesc_2_711RefVectorOfINS_5MatchEEE, i32 0, i32 0), i8* bitcast ({ i8*, i8*, i8* }* @_ZTIN11xercesc_2_715BaseRefVectorOfINS_5MatchEEE to i8*) }, comdat, align 8
@_ZTVN11xercesc_2_715BaseRefVectorOfINS_5MatchEEE = linkonce_odr dso_local unnamed_addr constant { [9 x i8*] } { [9 x i8*] [i8* null, i8* bitcast ({ i8*, i8*, i8* }* @_ZTIN11xercesc_2_715BaseRefVectorOfINS_5MatchEEE to i8*), i8* bitcast (void (%"class.xercesc_2_7::BaseRefVectorOf.4"*)* @_ZN11xercesc_2_715BaseRefVectorOfINS_5MatchEED2Ev to i8*), i8* bitcast (void (%"class.xercesc_2_7::BaseRefVectorOf.4"*)* @_ZN11xercesc_2_715BaseRefVectorOfINS_5MatchEED0Ev to i8*), i8* bitcast (void (%"class.xercesc_2_7::BaseRefVectorOf.4"*, %"class.xercesc_2_7::Match"*, i32)* @_ZN11xercesc_2_715BaseRefVectorOfINS_5MatchEE12setElementAtEPS1_j to i8*), i8* bitcast (void (%"class.xercesc_2_7::BaseRefVectorOf.4"*)* @_ZN11xercesc_2_715BaseRefVectorOfINS_5MatchEE17removeAllElementsEv to i8*), i8* bitcast (void (%"class.xercesc_2_7::BaseRefVectorOf.4"*, i32)* @_ZN11xercesc_2_715BaseRefVectorOfINS_5MatchEE15removeElementAtEj to i8*), i8* bitcast (void (%"class.xercesc_2_7::BaseRefVectorOf.4"*)* @_ZN11xercesc_2_715BaseRefVectorOfINS_5MatchEE17removeLastElementEv to i8*), i8* bitcast (void (%"class.xercesc_2_7::BaseRefVectorOf.4"*)* @_ZN11xercesc_2_715BaseRefVectorOfINS_5MatchEE7cleanupEv to i8*)] }, comdat, align 8
@llvm.global_ctors = appending global [1 x { i32, void ()*, i8* }] [{ i32, void ()*, i8* } { i32 65535, void ()* @_GLOBAL__sub_I_RegularExpression.cpp, i8* null }]

@_ZN11xercesc_2_717RegularExpression7ContextC1EPNS_13MemoryManagerE = dso_local unnamed_addr alias void (%"class.xercesc_2_7::RegularExpression::Context"*, %"class.xercesc_2_7::MemoryManager"*), void (%"class.xercesc_2_7::RegularExpression::Context"*, %"class.xercesc_2_7::MemoryManager"*)* @_ZN11xercesc_2_717RegularExpression7ContextC2EPNS_13MemoryManagerE
@_ZN11xercesc_2_717RegularExpression7ContextD1Ev = dso_local unnamed_addr alias void (%"class.xercesc_2_7::RegularExpression::Context"*), void (%"class.xercesc_2_7::RegularExpression::Context"*)* @_ZN11xercesc_2_717RegularExpression7ContextD2Ev
@_ZN11xercesc_2_717RegularExpressionC1EPKcPNS_13MemoryManagerE = dso_local unnamed_addr alias void (%"class.xercesc_2_7::RegularExpression"*, i8*, %"class.xercesc_2_7::MemoryManager"*), void (%"class.xercesc_2_7::RegularExpression"*, i8*, %"class.xercesc_2_7::MemoryManager"*)* @_ZN11xercesc_2_717RegularExpressionC2EPKcPNS_13MemoryManagerE
@_ZN11xercesc_2_717RegularExpressionC1EPKcS2_PNS_13MemoryManagerE = dso_local unnamed_addr alias void (%"class.xercesc_2_7::RegularExpression"*, i8*, i8*, %"class.xercesc_2_7::MemoryManager"*), void (%"class.xercesc_2_7::RegularExpression"*, i8*, i8*, %"class.xercesc_2_7::MemoryManager"*)* @_ZN11xercesc_2_717RegularExpressionC2EPKcS2_PNS_13MemoryManagerE
@_ZN11xercesc_2_717RegularExpressionC1EPKtPNS_13MemoryManagerE = dso_local unnamed_addr alias void (%"class.xercesc_2_7::RegularExpression"*, i16*, %"class.xercesc_2_7::MemoryManager"*), void (%"class.xercesc_2_7::RegularExpression"*, i16*, %"class.xercesc_2_7::MemoryManager"*)* @_ZN11xercesc_2_717RegularExpressionC2EPKtPNS_13MemoryManagerE
@_ZN11xercesc_2_717RegularExpressionC1EPKtS2_PNS_13MemoryManagerE = dso_local unnamed_addr alias void (%"class.xercesc_2_7::RegularExpression"*, i16*, i16*, %"class.xercesc_2_7::MemoryManager"*), void (%"class.xercesc_2_7::RegularExpression"*, i16*, i16*, %"class.xercesc_2_7::MemoryManager"*)* @_ZN11xercesc_2_717RegularExpressionC2EPKtS2_PNS_13MemoryManagerE
@_ZN11xercesc_2_717RegularExpressionD1Ev = dso_local unnamed_addr alias void (%"class.xercesc_2_7::RegularExpression"*), void (%"class.xercesc_2_7::RegularExpression"*)* @_ZN11xercesc_2_717RegularExpressionD2Ev

; Function Attrs: nounwind readnone speculatable willreturn
declare void @llvm.dbg.declare(metadata, metadata, metadata) #0

; Function Attrs: noinline nounwind uwtable
define linkonce_odr dso_local void @_ZN11xercesc_2_710XMLDeleterD0Ev(%"class.xercesc_2_7::XMLDeleter"* %this) unnamed_addr #1 comdat align 2 !dbg !1609 {
entry:
  %this.addr = alloca %"class.xercesc_2_7::XMLDeleter"*, align 8
  store %"class.xercesc_2_7::XMLDeleter"* %this, %"class.xercesc_2_7::XMLDeleter"** %this.addr, align 8
  call void @llvm.dbg.declare(metadata %"class.xercesc_2_7::XMLDeleter"** %this.addr, metadata !1629, metadata !DIExpression()), !dbg !1631
  %this1 = load %"class.xercesc_2_7::XMLDeleter"*, %"class.xercesc_2_7::XMLDeleter"** %this.addr, align 8
  call void @_ZN11xercesc_2_710XMLDeleterD2Ev(%"class.xercesc_2_7::XMLDeleter"* %this1) #9, !dbg !1632
  %0 = bitcast %"class.xercesc_2_7::XMLDeleter"* %this1 to i8*, !dbg !1632
  call void @_ZdlPv(i8* %0) #10, !dbg !1632
  ret void, !dbg !1633
}

; Function Attrs: noinline nounwind uwtable
define linkonce_odr dso_local void @_ZN11xercesc_2_710XMLDeleterD2Ev(%"class.xercesc_2_7::XMLDeleter"* %this) unnamed_addr #1 comdat align 2 !dbg !1634 {
entry:
  %this.addr = alloca %"class.xercesc_2_7::XMLDeleter"*, align 8
  store %"class.xercesc_2_7::XMLDeleter"* %this, %"class.xercesc_2_7::XMLDeleter"** %this.addr, align 8
  call void @llvm.dbg.declare(metadata %"class.xercesc_2_7::XMLDeleter"** %this.addr, metadata !1635, metadata !DIExpression()), !dbg !1636
  %this1 = load %"class.xercesc_2_7::XMLDeleter"*, %"class.xercesc_2_7::XMLDeleter"** %this.addr, align 8
  ret void, !dbg !1637
}

; Function Attrs: nobuiltin nounwind
declare dso_local void @_ZdlPv(i8*) #2

; Function Attrs: noinline uwtable
define internal void @__cxx_global_var_init() #3 section ".text.startup" !dbg !1638 {
entry:
  call void @_ZN11xercesc_2_718XMLRegisterCleanupC1Ev(%"class.xercesc_2_7::XMLRegisterCleanup"* @_ZN11xercesc_2_7L16WordRangeCleanupE), !dbg !1639
  ret void, !dbg !1639
}

declare dso_local void @_ZN11xercesc_2_718XMLRegisterCleanupC1Ev(%"class.xercesc_2_7::XMLRegisterCleanup"*) unnamed_addr #4

; Function Attrs: noinline uwtable
define dso_local zeroext i1 @_ZN11xercesc_2_717RegularExpression15matchIgnoreCaseEii(%"class.xercesc_2_7::RegularExpression"* %this, i32 %ch1, i32 %ch2) #3 align 2 !dbg !1640 {
entry:
  %retval = alloca i1, align 1
  %this.addr = alloca %"class.xercesc_2_7::RegularExpression"*, align 8
  %ch1.addr = alloca i32, align 4
  %ch2.addr = alloca i32, align 4
  %string1 = alloca [2 x i16], align 2
  %string2 = alloca [2 x i16], align 2
  %string114 = alloca [2 x i16], align 2
  %string216 = alloca [2 x i16], align 2
  %char1 = alloca i16, align 2
  %char2 = alloca i16, align 2
  store %"class.xercesc_2_7::RegularExpression"* %this, %"class.xercesc_2_7::RegularExpression"** %this.addr, align 8
  call void @llvm.dbg.declare(metadata %"class.xercesc_2_7::RegularExpression"** %this.addr, metadata !1641, metadata !DIExpression()), !dbg !1643
  store i32 %ch1, i32* %ch1.addr, align 4
  call void @llvm.dbg.declare(metadata i32* %ch1.addr, metadata !1644, metadata !DIExpression()), !dbg !1645
  store i32 %ch2, i32* %ch2.addr, align 4
  call void @llvm.dbg.declare(metadata i32* %ch2.addr, metadata !1646, metadata !DIExpression()), !dbg !1647
  %this1 = load %"class.xercesc_2_7::RegularExpression"*, %"class.xercesc_2_7::RegularExpression"** %this.addr, align 8
  %0 = load i32, i32* %ch1.addr, align 4, !dbg !1648
  %cmp = icmp sge i32 %0, 65536, !dbg !1650
  br i1 %cmp, label %if.then, label %if.else11, !dbg !1651

if.then:                                          ; preds = %entry
  call void @llvm.dbg.declare(metadata [2 x i16]* %string1, metadata !1652, metadata !DIExpression()), !dbg !1657
  call void @llvm.dbg.declare(metadata [2 x i16]* %string2, metadata !1658, metadata !DIExpression()), !dbg !1659
  %1 = load i32, i32* %ch1.addr, align 4, !dbg !1660
  %arrayidx = getelementptr inbounds [2 x i16], [2 x i16]* %string1, i64 0, i64 0, !dbg !1661
  %arrayidx2 = getelementptr inbounds [2 x i16], [2 x i16]* %string1, i64 0, i64 1, !dbg !1662
  call void @_ZN11xercesc_2_78RegxUtil21decomposeToSurrogatesEiRtS1_(i32 %1, i16* dereferenceable(2) %arrayidx, i16* dereferenceable(2) %arrayidx2), !dbg !1663
  %2 = load i32, i32* %ch2.addr, align 4, !dbg !1664
  %cmp3 = icmp sge i32 %2, 65536, !dbg !1666
  br i1 %cmp3, label %if.then4, label %if.else, !dbg !1667

if.then4:                                         ; preds = %if.then
  %3 = load i32, i32* %ch2.addr, align 4, !dbg !1668
  %arrayidx5 = getelementptr inbounds [2 x i16], [2 x i16]* %string2, i64 0, i64 0, !dbg !1670
  %arrayidx6 = getelementptr inbounds [2 x i16], [2 x i16]* %string2, i64 0, i64 1, !dbg !1671
  call void @_ZN11xercesc_2_78RegxUtil21decomposeToSurrogatesEiRtS1_(i32 %3, i16* dereferenceable(2) %arrayidx5, i16* dereferenceable(2) %arrayidx6), !dbg !1672
  br label %if.end, !dbg !1673

if.else:                                          ; preds = %if.then
  %4 = load i32, i32* %ch2.addr, align 4, !dbg !1674
  %conv = trunc i32 %4 to i16, !dbg !1674
  %arrayidx7 = getelementptr inbounds [2 x i16], [2 x i16]* %string2, i64 0, i64 0, !dbg !1676
  store i16 %conv, i16* %arrayidx7, align 2, !dbg !1677
  %arrayidx8 = getelementptr inbounds [2 x i16], [2 x i16]* %string2, i64 0, i64 1, !dbg !1678
  store i16 32, i16* %arrayidx8, align 2, !dbg !1679
  br label %if.end

if.end:                                           ; preds = %if.else, %if.then4
  %arraydecay = getelementptr inbounds [2 x i16], [2 x i16]* %string1, i64 0, i64 0, !dbg !1680
  %arraydecay9 = getelementptr inbounds [2 x i16], [2 x i16]* %string2, i64 0, i64 0, !dbg !1681
  %call = call i32 @_ZN11xercesc_2_79XMLString15compareNIStringEPKtS2_j(i16* %arraydecay, i16* %arraydecay9, i32 2), !dbg !1682
  %cmp10 = icmp eq i32 0, %call, !dbg !1683
  store i1 %cmp10, i1* %retval, align 1, !dbg !1684
  br label %return, !dbg !1684

if.else11:                                        ; preds = %entry
  %5 = load i32, i32* %ch2.addr, align 4, !dbg !1685
  %cmp12 = icmp sge i32 %5, 65536, !dbg !1687
  br i1 %cmp12, label %if.then13, label %if.else23, !dbg !1688

if.then13:                                        ; preds = %if.else11
  call void @llvm.dbg.declare(metadata [2 x i16]* %string114, metadata !1689, metadata !DIExpression()), !dbg !1692
  %arrayinit.begin = getelementptr inbounds [2 x i16], [2 x i16]* %string114, i64 0, i64 0, !dbg !1693
  %6 = load i32, i32* %ch1.addr, align 4, !dbg !1694
  %conv15 = trunc i32 %6 to i16, !dbg !1694
  store i16 %conv15, i16* %arrayinit.begin, align 2, !dbg !1693
  %arrayinit.element = getelementptr inbounds i16, i16* %arrayinit.begin, i64 1, !dbg !1693
  store i16 32, i16* %arrayinit.element, align 2, !dbg !1693
  call void @llvm.dbg.declare(metadata [2 x i16]* %string216, metadata !1695, metadata !DIExpression()), !dbg !1696
  %7 = load i32, i32* %ch2.addr, align 4, !dbg !1697
  %arrayidx17 = getelementptr inbounds [2 x i16], [2 x i16]* %string216, i64 0, i64 0, !dbg !1698
  %arrayidx18 = getelementptr inbounds [2 x i16], [2 x i16]* %string216, i64 0, i64 1, !dbg !1699
  call void @_ZN11xercesc_2_78RegxUtil21decomposeToSurrogatesEiRtS1_(i32 %7, i16* dereferenceable(2) %arrayidx17, i16* dereferenceable(2) %arrayidx18), !dbg !1700
  %arraydecay19 = getelementptr inbounds [2 x i16], [2 x i16]* %string114, i64 0, i64 0, !dbg !1701
  %arraydecay20 = getelementptr inbounds [2 x i16], [2 x i16]* %string216, i64 0, i64 0, !dbg !1702
  %call21 = call i32 @_ZN11xercesc_2_79XMLString15compareNIStringEPKtS2_j(i16* %arraydecay19, i16* %arraydecay20, i32 2), !dbg !1703
  %cmp22 = icmp eq i32 0, %call21, !dbg !1704
  store i1 %cmp22, i1* %retval, align 1, !dbg !1705
  br label %return, !dbg !1705

if.else23:                                        ; preds = %if.else11
  call void @llvm.dbg.declare(metadata i16* %char1, metadata !1706, metadata !DIExpression()), !dbg !1708
  %8 = load i32, i32* %ch1.addr, align 4, !dbg !1709
  %conv24 = trunc i32 %8 to i16, !dbg !1709
  store i16 %conv24, i16* %char1, align 2, !dbg !1708
  call void @llvm.dbg.declare(metadata i16* %char2, metadata !1710, metadata !DIExpression()), !dbg !1711
  %9 = load i32, i32* %ch2.addr, align 4, !dbg !1712
  %conv25 = trunc i32 %9 to i16, !dbg !1712
  store i16 %conv25, i16* %char2, align 2, !dbg !1711
  %call26 = call i32 @_ZN11xercesc_2_79XMLString15compareNIStringEPKtS2_j(i16* %char1, i16* %char2, i32 1), !dbg !1713
  %cmp27 = icmp eq i32 0, %call26, !dbg !1714
  store i1 %cmp27, i1* %retval, align 1, !dbg !1715
  br label %return, !dbg !1715

return:                                           ; preds = %if.else23, %if.then13, %if.end
  %10 = load i1, i1* %retval, align 1, !dbg !1716
  ret i1 %10, !dbg !1716
}

; Function Attrs: noinline nounwind uwtable
define linkonce_odr dso_local void @_ZN11xercesc_2_78RegxUtil21decomposeToSurrogatesEiRtS1_(i32 %ch, i16* dereferenceable(2) %high, i16* dereferenceable(2) %low) #1 comdat align 2 !dbg !1717 {
entry:
  %ch.addr = alloca i32, align 4
  %high.addr = alloca i16*, align 8
  %low.addr = alloca i16*, align 8
  store i32 %ch, i32* %ch.addr, align 4
  call void @llvm.dbg.declare(metadata i32* %ch.addr, metadata !1745, metadata !DIExpression()), !dbg !1746
  store i16* %high, i16** %high.addr, align 8
  call void @llvm.dbg.declare(metadata i16** %high.addr, metadata !1747, metadata !DIExpression()), !dbg !1748
  store i16* %low, i16** %low.addr, align 8
  call void @llvm.dbg.declare(metadata i16** %low.addr, metadata !1749, metadata !DIExpression()), !dbg !1750
  %0 = load i32, i32* %ch.addr, align 4, !dbg !1751
  %sub = sub nsw i32 %0, 65536, !dbg !1751
  store i32 %sub, i32* %ch.addr, align 4, !dbg !1751
  %1 = load i32, i32* %ch.addr, align 4, !dbg !1752
  %shr = ashr i32 %1, 10, !dbg !1753
  %add = add nsw i32 %shr, 55296, !dbg !1754
  %conv = trunc i32 %add to i16, !dbg !1755
  %2 = load i16*, i16** %high.addr, align 8, !dbg !1756
  store i16 %conv, i16* %2, align 2, !dbg !1757
  %3 = load i32, i32* %ch.addr, align 4, !dbg !1758
  %and = and i32 %3, 1023, !dbg !1759
  %add1 = add nsw i32 %and, 56320, !dbg !1760
  %conv2 = trunc i32 %add1 to i16, !dbg !1761
  %4 = load i16*, i16** %low.addr, align 8, !dbg !1762
  store i16 %conv2, i16* %4, align 2, !dbg !1763
  ret void, !dbg !1764
}

declare dso_local i32 @_ZN11xercesc_2_79XMLString15compareNIStringEPKtS2_j(i16*, i16*, i32) #4

; Function Attrs: noinline uwtable
define dso_local void @_ZN11xercesc_2_717RegularExpression7ContextC2EPNS_13MemoryManagerE(%"class.xercesc_2_7::RegularExpression::Context"* %this, %"class.xercesc_2_7::MemoryManager"* %manager) unnamed_addr #3 align 2 !dbg !1765 {
entry:
  %this.addr = alloca %"class.xercesc_2_7::RegularExpression::Context"*, align 8
  %manager.addr = alloca %"class.xercesc_2_7::MemoryManager"*, align 8
  store %"class.xercesc_2_7::RegularExpression::Context"* %this, %"class.xercesc_2_7::RegularExpression::Context"** %this.addr, align 8
  call void @llvm.dbg.declare(metadata %"class.xercesc_2_7::RegularExpression::Context"** %this.addr, metadata !1766, metadata !DIExpression()), !dbg !1767
  store %"class.xercesc_2_7::MemoryManager"* %manager, %"class.xercesc_2_7::MemoryManager"** %manager.addr, align 8
  call void @llvm.dbg.declare(metadata %"class.xercesc_2_7::MemoryManager"** %manager.addr, metadata !1768, metadata !DIExpression()), !dbg !1769
  %this1 = load %"class.xercesc_2_7::RegularExpression::Context"*, %"class.xercesc_2_7::RegularExpression::Context"** %this.addr, align 8
  %0 = bitcast %"class.xercesc_2_7::RegularExpression::Context"* %this1 to %"class.xercesc_2_7::XMemory"*, !dbg !1770
  call void @_ZN11xercesc_2_77XMemoryC2Ev(%"class.xercesc_2_7::XMemory"* %0), !dbg !1771
  %fAdoptMatch = getelementptr inbounds %"class.xercesc_2_7::RegularExpression::Context", %"class.xercesc_2_7::RegularExpression::Context"* %this1, i32 0, i32 0, !dbg !1772
  store i8 0, i8* %fAdoptMatch, align 8, !dbg !1772
  %fStart = getelementptr inbounds %"class.xercesc_2_7::RegularExpression::Context", %"class.xercesc_2_7::RegularExpression::Context"* %this1, i32 0, i32 1, !dbg !1773
  store i32 0, i32* %fStart, align 4, !dbg !1773
  %fLimit = getelementptr inbounds %"class.xercesc_2_7::RegularExpression::Context", %"class.xercesc_2_7::RegularExpression::Context"* %this1, i32 0, i32 2, !dbg !1774
  store i32 0, i32* %fLimit, align 8, !dbg !1774
  %fLength = getelementptr inbounds %"class.xercesc_2_7::RegularExpression::Context", %"class.xercesc_2_7::RegularExpression::Context"* %this1, i32 0, i32 3, !dbg !1775
  store i32 0, i32* %fLength, align 4, !dbg !1775
  %fSize = getelementptr inbounds %"class.xercesc_2_7::RegularExpression::Context", %"class.xercesc_2_7::RegularExpression::Context"* %this1, i32 0, i32 4, !dbg !1776
  store i32 0, i32* %fSize, align 8, !dbg !1776
  %fStringMaxLen = getelementptr inbounds %"class.xercesc_2_7::RegularExpression::Context", %"class.xercesc_2_7::RegularExpression::Context"* %this1, i32 0, i32 5, !dbg !1777
  store i32 0, i32* %fStringMaxLen, align 4, !dbg !1777
  %fOffsets = getelementptr inbounds %"class.xercesc_2_7::RegularExpression::Context", %"class.xercesc_2_7::RegularExpression::Context"* %this1, i32 0, i32 6, !dbg !1778
  store i32* null, i32** %fOffsets, align 8, !dbg !1778
  %fMatch = getelementptr inbounds %"class.xercesc_2_7::RegularExpression::Context", %"class.xercesc_2_7::RegularExpression::Context"* %this1, i32 0, i32 7, !dbg !1779
  store %"class.xercesc_2_7::Match"* null, %"class.xercesc_2_7::Match"** %fMatch, align 8, !dbg !1779
  %fString = getelementptr inbounds %"class.xercesc_2_7::RegularExpression::Context", %"class.xercesc_2_7::RegularExpression::Context"* %this1, i32 0, i32 8, !dbg !1780
  store i16* null, i16** %fString, align 8, !dbg !1780
  %fMemoryManager = getelementptr inbounds %"class.xercesc_2_7::RegularExpression::Context", %"class.xercesc_2_7::RegularExpression::Context"* %this1, i32 0, i32 9, !dbg !1781
  %1 = load %"class.xercesc_2_7::MemoryManager"*, %"class.xercesc_2_7::MemoryManager"** %manager.addr, align 8, !dbg !1782
  store %"class.xercesc_2_7::MemoryManager"* %1, %"class.xercesc_2_7::MemoryManager"** %fMemoryManager, align 8, !dbg !1781
  ret void, !dbg !1783
}

; Function Attrs: noinline nounwind uwtable
define linkonce_odr dso_local void @_ZN11xercesc_2_77XMemoryC2Ev(%"class.xercesc_2_7::XMemory"* %this) unnamed_addr #1 comdat align 2 !dbg !1784 {
entry:
  %this.addr = alloca %"class.xercesc_2_7::XMemory"*, align 8
  store %"class.xercesc_2_7::XMemory"* %this, %"class.xercesc_2_7::XMemory"** %this.addr, align 8
  call void @llvm.dbg.declare(metadata %"class.xercesc_2_7::XMemory"** %this.addr, metadata !1785, metadata !DIExpression()), !dbg !1787
  %this1 = load %"class.xercesc_2_7::XMemory"*, %"class.xercesc_2_7::XMemory"** %this.addr, align 8
  ret void, !dbg !1788
}

; Function Attrs: noinline nounwind uwtable
define dso_local void @_ZN11xercesc_2_717RegularExpression7ContextD2Ev(%"class.xercesc_2_7::RegularExpression::Context"* %this) unnamed_addr #1 align 2 personality i8* bitcast (i32 (...)* @__gxx_personality_v0 to i8*) !dbg !1789 {
entry:
  %this.addr = alloca %"class.xercesc_2_7::RegularExpression::Context"*, align 8
  store %"class.xercesc_2_7::RegularExpression::Context"* %this, %"class.xercesc_2_7::RegularExpression::Context"** %this.addr, align 8
  call void @llvm.dbg.declare(metadata %"class.xercesc_2_7::RegularExpression::Context"** %this.addr, metadata !1790, metadata !DIExpression()), !dbg !1791
  %this1 = load %"class.xercesc_2_7::RegularExpression::Context"*, %"class.xercesc_2_7::RegularExpression::Context"** %this.addr, align 8
  %fOffsets = getelementptr inbounds %"class.xercesc_2_7::RegularExpression::Context", %"class.xercesc_2_7::RegularExpression::Context"* %this1, i32 0, i32 6, !dbg !1792
  %0 = load i32*, i32** %fOffsets, align 8, !dbg !1792
  %tobool = icmp ne i32* %0, null, !dbg !1792
  br i1 %tobool, label %if.then, label %if.end, !dbg !1795

if.then:                                          ; preds = %entry
  %fMemoryManager = getelementptr inbounds %"class.xercesc_2_7::RegularExpression::Context", %"class.xercesc_2_7::RegularExpression::Context"* %this1, i32 0, i32 9, !dbg !1796
  %1 = load %"class.xercesc_2_7::MemoryManager"*, %"class.xercesc_2_7::MemoryManager"** %fMemoryManager, align 8, !dbg !1796
  %fOffsets2 = getelementptr inbounds %"class.xercesc_2_7::RegularExpression::Context", %"class.xercesc_2_7::RegularExpression::Context"* %this1, i32 0, i32 6, !dbg !1797
  %2 = load i32*, i32** %fOffsets2, align 8, !dbg !1797
  %3 = bitcast i32* %2 to i8*, !dbg !1797
  %4 = bitcast %"class.xercesc_2_7::MemoryManager"* %1 to void (%"class.xercesc_2_7::MemoryManager"*, i8*)***, !dbg !1798
  %vtable = load void (%"class.xercesc_2_7::MemoryManager"*, i8*)**, void (%"class.xercesc_2_7::MemoryManager"*, i8*)*** %4, align 8, !dbg !1798
  %vfn = getelementptr inbounds void (%"class.xercesc_2_7::MemoryManager"*, i8*)*, void (%"class.xercesc_2_7::MemoryManager"*, i8*)** %vtable, i64 3, !dbg !1798
  %5 = load void (%"class.xercesc_2_7::MemoryManager"*, i8*)*, void (%"class.xercesc_2_7::MemoryManager"*, i8*)** %vfn, align 8, !dbg !1798
  invoke void %5(%"class.xercesc_2_7::MemoryManager"* %1, i8* %3)
          to label %invoke.cont unwind label %terminate.lpad, !dbg !1798

invoke.cont:                                      ; preds = %if.then
  br label %if.end, !dbg !1796

if.end:                                           ; preds = %invoke.cont, %entry
  %fAdoptMatch = getelementptr inbounds %"class.xercesc_2_7::RegularExpression::Context", %"class.xercesc_2_7::RegularExpression::Context"* %this1, i32 0, i32 0, !dbg !1799
  %6 = load i8, i8* %fAdoptMatch, align 8, !dbg !1799
  %tobool3 = trunc i8 %6 to i1, !dbg !1799
  br i1 %tobool3, label %if.then4, label %if.end7, !dbg !1801

if.then4:                                         ; preds = %if.end
  %fMatch = getelementptr inbounds %"class.xercesc_2_7::RegularExpression::Context", %"class.xercesc_2_7::RegularExpression::Context"* %this1, i32 0, i32 7, !dbg !1802
  %7 = load %"class.xercesc_2_7::Match"*, %"class.xercesc_2_7::Match"** %fMatch, align 8, !dbg !1802
  %isnull = icmp eq %"class.xercesc_2_7::Match"* %7, null, !dbg !1803
  br i1 %isnull, label %delete.end, label %delete.notnull, !dbg !1803

delete.notnull:                                   ; preds = %if.then4
  %8 = bitcast %"class.xercesc_2_7::Match"* %7 to void (%"class.xercesc_2_7::Match"*)***, !dbg !1803
  %vtable5 = load void (%"class.xercesc_2_7::Match"*)**, void (%"class.xercesc_2_7::Match"*)*** %8, align 8, !dbg !1803
  %vfn6 = getelementptr inbounds void (%"class.xercesc_2_7::Match"*)*, void (%"class.xercesc_2_7::Match"*)** %vtable5, i64 1, !dbg !1803
  %9 = load void (%"class.xercesc_2_7::Match"*)*, void (%"class.xercesc_2_7::Match"*)** %vfn6, align 8, !dbg !1803
  call void %9(%"class.xercesc_2_7::Match"* %7) #9, !dbg !1803
  br label %delete.end, !dbg !1803

delete.end:                                       ; preds = %delete.notnull, %if.then4
  br label %if.end7, !dbg !1803

if.end7:                                          ; preds = %delete.end, %if.end
  ret void, !dbg !1804

terminate.lpad:                                   ; preds = %if.then
  %10 = landingpad { i8*, i32 }
          catch i8* null, !dbg !1798
  %11 = extractvalue { i8*, i32 } %10, 0, !dbg !1798
  call void @__clang_call_terminate(i8* %11) #11, !dbg !1798
  unreachable, !dbg !1798
}

declare dso_local i32 @__gxx_personality_v0(...)

; Function Attrs: noinline noreturn nounwind
define linkonce_odr hidden void @__clang_call_terminate(i8* %0) #5 comdat {
  %2 = call i8* @__cxa_begin_catch(i8* %0) #9
  call void @_ZSt9terminatev() #11
  unreachable
}

declare dso_local i8* @__cxa_begin_catch(i8*)

declare dso_local void @_ZSt9terminatev()

; Function Attrs: noinline uwtable
define dso_local void @_ZN11xercesc_2_717RegularExpression7Context5resetEPKtiiii(%"class.xercesc_2_7::RegularExpression::Context"* %this, i16* %string, i32 %stringLen, i32 %start, i32 %limit, i32 %noClosures) #3 align 2 !dbg !1805 {
entry:
  %this.addr = alloca %"class.xercesc_2_7::RegularExpression::Context"*, align 8
  %string.addr = alloca i16*, align 8
  %stringLen.addr = alloca i32, align 4
  %start.addr = alloca i32, align 4
  %limit.addr = alloca i32, align 4
  %noClosures.addr = alloca i32, align 4
  %i = alloca i32, align 4
  store %"class.xercesc_2_7::RegularExpression::Context"* %this, %"class.xercesc_2_7::RegularExpression::Context"** %this.addr, align 8
  call void @llvm.dbg.declare(metadata %"class.xercesc_2_7::RegularExpression::Context"** %this.addr, metadata !1806, metadata !DIExpression()), !dbg !1807
  store i16* %string, i16** %string.addr, align 8
  call void @llvm.dbg.declare(metadata i16** %string.addr, metadata !1808, metadata !DIExpression()), !dbg !1809
  store i32 %stringLen, i32* %stringLen.addr, align 4
  call void @llvm.dbg.declare(metadata i32* %stringLen.addr, metadata !1810, metadata !DIExpression()), !dbg !1811
  store i32 %start, i32* %start.addr, align 4
  call void @llvm.dbg.declare(metadata i32* %start.addr, metadata !1812, metadata !DIExpression()), !dbg !1813
  store i32 %limit, i32* %limit.addr, align 4
  call void @llvm.dbg.declare(metadata i32* %limit.addr, metadata !1814, metadata !DIExpression()), !dbg !1815
  store i32 %noClosures, i32* %noClosures.addr, align 4
  call void @llvm.dbg.declare(metadata i32* %noClosures.addr, metadata !1816, metadata !DIExpression()), !dbg !1817
  %this1 = load %"class.xercesc_2_7::RegularExpression::Context"*, %"class.xercesc_2_7::RegularExpression::Context"** %this.addr, align 8
  %0 = load i16*, i16** %string.addr, align 8, !dbg !1818
  %fString = getelementptr inbounds %"class.xercesc_2_7::RegularExpression::Context", %"class.xercesc_2_7::RegularExpression::Context"* %this1, i32 0, i32 8, !dbg !1819
  store i16* %0, i16** %fString, align 8, !dbg !1820
  %1 = load i32, i32* %stringLen.addr, align 4, !dbg !1821
  %fStringMaxLen = getelementptr inbounds %"class.xercesc_2_7::RegularExpression::Context", %"class.xercesc_2_7::RegularExpression::Context"* %this1, i32 0, i32 5, !dbg !1822
  store i32 %1, i32* %fStringMaxLen, align 4, !dbg !1823
  %2 = load i32, i32* %start.addr, align 4, !dbg !1824
  %fStart = getelementptr inbounds %"class.xercesc_2_7::RegularExpression::Context", %"class.xercesc_2_7::RegularExpression::Context"* %this1, i32 0, i32 1, !dbg !1825
  store i32 %2, i32* %fStart, align 4, !dbg !1826
  %3 = load i32, i32* %limit.addr, align 4, !dbg !1827
  %fLimit = getelementptr inbounds %"class.xercesc_2_7::RegularExpression::Context", %"class.xercesc_2_7::RegularExpression::Context"* %this1, i32 0, i32 2, !dbg !1828
  store i32 %3, i32* %fLimit, align 8, !dbg !1829
  %fLimit2 = getelementptr inbounds %"class.xercesc_2_7::RegularExpression::Context", %"class.xercesc_2_7::RegularExpression::Context"* %this1, i32 0, i32 2, !dbg !1830
  %4 = load i32, i32* %fLimit2, align 8, !dbg !1830
  %fStart3 = getelementptr inbounds %"class.xercesc_2_7::RegularExpression::Context", %"class.xercesc_2_7::RegularExpression::Context"* %this1, i32 0, i32 1, !dbg !1831
  %5 = load i32, i32* %fStart3, align 4, !dbg !1831
  %sub = sub nsw i32 %4, %5, !dbg !1832
  %fLength = getelementptr inbounds %"class.xercesc_2_7::RegularExpression::Context", %"class.xercesc_2_7::RegularExpression::Context"* %this1, i32 0, i32 3, !dbg !1833
  store i32 %sub, i32* %fLength, align 4, !dbg !1834
  %fAdoptMatch = getelementptr inbounds %"class.xercesc_2_7::RegularExpression::Context", %"class.xercesc_2_7::RegularExpression::Context"* %this1, i32 0, i32 0, !dbg !1835
  %6 = load i8, i8* %fAdoptMatch, align 8, !dbg !1835
  %tobool = trunc i8 %6 to i1, !dbg !1835
  br i1 %tobool, label %if.then, label %if.end, !dbg !1837

if.then:                                          ; preds = %entry
  %fMatch = getelementptr inbounds %"class.xercesc_2_7::RegularExpression::Context", %"class.xercesc_2_7::RegularExpression::Context"* %this1, i32 0, i32 7, !dbg !1838
  %7 = load %"class.xercesc_2_7::Match"*, %"class.xercesc_2_7::Match"** %fMatch, align 8, !dbg !1838
  %isnull = icmp eq %"class.xercesc_2_7::Match"* %7, null, !dbg !1839
  br i1 %isnull, label %delete.end, label %delete.notnull, !dbg !1839

delete.notnull:                                   ; preds = %if.then
  %8 = bitcast %"class.xercesc_2_7::Match"* %7 to void (%"class.xercesc_2_7::Match"*)***, !dbg !1839
  %vtable = load void (%"class.xercesc_2_7::Match"*)**, void (%"class.xercesc_2_7::Match"*)*** %8, align 8, !dbg !1839
  %vfn = getelementptr inbounds void (%"class.xercesc_2_7::Match"*)*, void (%"class.xercesc_2_7::Match"*)** %vtable, i64 1, !dbg !1839
  %9 = load void (%"class.xercesc_2_7::Match"*)*, void (%"class.xercesc_2_7::Match"*)** %vfn, align 8, !dbg !1839
  call void %9(%"class.xercesc_2_7::Match"* %7) #9, !dbg !1839
  br label %delete.end, !dbg !1839

delete.end:                                       ; preds = %delete.notnull, %if.then
  br label %if.end, !dbg !1839

if.end:                                           ; preds = %delete.end, %entry
  %fMatch4 = getelementptr inbounds %"class.xercesc_2_7::RegularExpression::Context", %"class.xercesc_2_7::RegularExpression::Context"* %this1, i32 0, i32 7, !dbg !1840
  store %"class.xercesc_2_7::Match"* null, %"class.xercesc_2_7::Match"** %fMatch4, align 8, !dbg !1841
  %fSize = getelementptr inbounds %"class.xercesc_2_7::RegularExpression::Context", %"class.xercesc_2_7::RegularExpression::Context"* %this1, i32 0, i32 4, !dbg !1842
  %10 = load i32, i32* %fSize, align 8, !dbg !1842
  %11 = load i32, i32* %noClosures.addr, align 4, !dbg !1844
  %cmp = icmp ne i32 %10, %11, !dbg !1845
  br i1 %cmp, label %if.then5, label %if.end16, !dbg !1846

if.then5:                                         ; preds = %if.end
  %fOffsets = getelementptr inbounds %"class.xercesc_2_7::RegularExpression::Context", %"class.xercesc_2_7::RegularExpression::Context"* %this1, i32 0, i32 6, !dbg !1847
  %12 = load i32*, i32** %fOffsets, align 8, !dbg !1847
  %tobool6 = icmp ne i32* %12, null, !dbg !1847
  br i1 %tobool6, label %if.then7, label %if.end11, !dbg !1850

if.then7:                                         ; preds = %if.then5
  %fMemoryManager = getelementptr inbounds %"class.xercesc_2_7::RegularExpression::Context", %"class.xercesc_2_7::RegularExpression::Context"* %this1, i32 0, i32 9, !dbg !1851
  %13 = load %"class.xercesc_2_7::MemoryManager"*, %"class.xercesc_2_7::MemoryManager"** %fMemoryManager, align 8, !dbg !1851
  %fOffsets8 = getelementptr inbounds %"class.xercesc_2_7::RegularExpression::Context", %"class.xercesc_2_7::RegularExpression::Context"* %this1, i32 0, i32 6, !dbg !1852
  %14 = load i32*, i32** %fOffsets8, align 8, !dbg !1852
  %15 = bitcast i32* %14 to i8*, !dbg !1852
  %16 = bitcast %"class.xercesc_2_7::MemoryManager"* %13 to void (%"class.xercesc_2_7::MemoryManager"*, i8*)***, !dbg !1853
  %vtable9 = load void (%"class.xercesc_2_7::MemoryManager"*, i8*)**, void (%"class.xercesc_2_7::MemoryManager"*, i8*)*** %16, align 8, !dbg !1853
  %vfn10 = getelementptr inbounds void (%"class.xercesc_2_7::MemoryManager"*, i8*)*, void (%"class.xercesc_2_7::MemoryManager"*, i8*)** %vtable9, i64 3, !dbg !1853
  %17 = load void (%"class.xercesc_2_7::MemoryManager"*, i8*)*, void (%"class.xercesc_2_7::MemoryManager"*, i8*)** %vfn10, align 8, !dbg !1853
  call void %17(%"class.xercesc_2_7::MemoryManager"* %13, i8* %15), !dbg !1853
  br label %if.end11, !dbg !1851

if.end11:                                         ; preds = %if.then7, %if.then5
  %fMemoryManager12 = getelementptr inbounds %"class.xercesc_2_7::RegularExpression::Context", %"class.xercesc_2_7::RegularExpression::Context"* %this1, i32 0, i32 9, !dbg !1854
  %18 = load %"class.xercesc_2_7::MemoryManager"*, %"class.xercesc_2_7::MemoryManager"** %fMemoryManager12, align 8, !dbg !1854
  %19 = load i32, i32* %noClosures.addr, align 4, !dbg !1855
  %conv = sext i32 %19 to i64, !dbg !1855
  %mul = mul i64 %conv, 4, !dbg !1856
  %20 = bitcast %"class.xercesc_2_7::MemoryManager"* %18 to i8* (%"class.xercesc_2_7::MemoryManager"*, i64)***, !dbg !1857
  %vtable13 = load i8* (%"class.xercesc_2_7::MemoryManager"*, i64)**, i8* (%"class.xercesc_2_7::MemoryManager"*, i64)*** %20, align 8, !dbg !1857
  %vfn14 = getelementptr inbounds i8* (%"class.xercesc_2_7::MemoryManager"*, i64)*, i8* (%"class.xercesc_2_7::MemoryManager"*, i64)** %vtable13, i64 2, !dbg !1857
  %21 = load i8* (%"class.xercesc_2_7::MemoryManager"*, i64)*, i8* (%"class.xercesc_2_7::MemoryManager"*, i64)** %vfn14, align 8, !dbg !1857
  %call = call i8* %21(%"class.xercesc_2_7::MemoryManager"* %18, i64 %mul), !dbg !1857
  %22 = bitcast i8* %call to i32*, !dbg !1858
  %fOffsets15 = getelementptr inbounds %"class.xercesc_2_7::RegularExpression::Context", %"class.xercesc_2_7::RegularExpression::Context"* %this1, i32 0, i32 6, !dbg !1859
  store i32* %22, i32** %fOffsets15, align 8, !dbg !1860
  br label %if.end16, !dbg !1861

if.end16:                                         ; preds = %if.end11, %if.end
  %23 = load i32, i32* %noClosures.addr, align 4, !dbg !1862
  %fSize17 = getelementptr inbounds %"class.xercesc_2_7::RegularExpression::Context", %"class.xercesc_2_7::RegularExpression::Context"* %this1, i32 0, i32 4, !dbg !1863
  store i32 %23, i32* %fSize17, align 8, !dbg !1864
  call void @llvm.dbg.declare(metadata i32* %i, metadata !1865, metadata !DIExpression()), !dbg !1867
  store i32 0, i32* %i, align 4, !dbg !1867
  br label %for.cond, !dbg !1868

for.cond:                                         ; preds = %for.inc, %if.end16
  %24 = load i32, i32* %i, align 4, !dbg !1869
  %fSize18 = getelementptr inbounds %"class.xercesc_2_7::RegularExpression::Context", %"class.xercesc_2_7::RegularExpression::Context"* %this1, i32 0, i32 4, !dbg !1871
  %25 = load i32, i32* %fSize18, align 8, !dbg !1871
  %cmp19 = icmp slt i32 %24, %25, !dbg !1872
  br i1 %cmp19, label %for.body, label %for.end, !dbg !1873

for.body:                                         ; preds = %for.cond
  %fOffsets20 = getelementptr inbounds %"class.xercesc_2_7::RegularExpression::Context", %"class.xercesc_2_7::RegularExpression::Context"* %this1, i32 0, i32 6, !dbg !1874
  %26 = load i32*, i32** %fOffsets20, align 8, !dbg !1874
  %27 = load i32, i32* %i, align 4, !dbg !1875
  %idxprom = sext i32 %27 to i64, !dbg !1874
  %arrayidx = getelementptr inbounds i32, i32* %26, i64 %idxprom, !dbg !1874
  store i32 -1, i32* %arrayidx, align 4, !dbg !1876
  br label %for.inc, !dbg !1874

for.inc:                                          ; preds = %for.body
  %28 = load i32, i32* %i, align 4, !dbg !1877
  %inc = add nsw i32 %28, 1, !dbg !1877
  store i32 %inc, i32* %i, align 4, !dbg !1877
  br label %for.cond, !dbg !1878, !llvm.loop !1879

for.end:                                          ; preds = %for.cond
  ret void, !dbg !1881
}

; Function Attrs: noinline uwtable
define dso_local zeroext i1 @_ZN11xercesc_2_717RegularExpression7Context6nextChERiS2_s(%"class.xercesc_2_7::RegularExpression::Context"* %this, i32* dereferenceable(4) %ch, i32* dereferenceable(4) %offset, i16 signext %direction) #3 align 2 !dbg !1882 {
entry:
  %retval = alloca i1, align 1
  %this.addr = alloca %"class.xercesc_2_7::RegularExpression::Context"*, align 8
  %ch.addr = alloca i32*, align 8
  %offset.addr = alloca i32*, align 8
  %direction.addr = alloca i16, align 2
  store %"class.xercesc_2_7::RegularExpression::Context"* %this, %"class.xercesc_2_7::RegularExpression::Context"** %this.addr, align 8
  call void @llvm.dbg.declare(metadata %"class.xercesc_2_7::RegularExpression::Context"** %this.addr, metadata !1883, metadata !DIExpression()), !dbg !1884
  store i32* %ch, i32** %ch.addr, align 8
  call void @llvm.dbg.declare(metadata i32** %ch.addr, metadata !1885, metadata !DIExpression()), !dbg !1886
  store i32* %offset, i32** %offset.addr, align 8
  call void @llvm.dbg.declare(metadata i32** %offset.addr, metadata !1887, metadata !DIExpression()), !dbg !1888
  store i16 %direction, i16* %direction.addr, align 2
  call void @llvm.dbg.declare(metadata i16* %direction.addr, metadata !1889, metadata !DIExpression()), !dbg !1890
  %this1 = load %"class.xercesc_2_7::RegularExpression::Context"*, %"class.xercesc_2_7::RegularExpression::Context"** %this.addr, align 8
  %fString = getelementptr inbounds %"class.xercesc_2_7::RegularExpression::Context", %"class.xercesc_2_7::RegularExpression::Context"* %this1, i32 0, i32 8, !dbg !1891
  %0 = load i16*, i16** %fString, align 8, !dbg !1891
  %1 = load i32*, i32** %offset.addr, align 8, !dbg !1892
  %2 = load i32, i32* %1, align 4, !dbg !1892
  %idxprom = sext i32 %2 to i64, !dbg !1891
  %arrayidx = getelementptr inbounds i16, i16* %0, i64 %idxprom, !dbg !1891
  %3 = load i16, i16* %arrayidx, align 2, !dbg !1891
  %conv = zext i16 %3 to i32, !dbg !1891
  %4 = load i32*, i32** %ch.addr, align 8, !dbg !1893
  store i32 %conv, i32* %4, align 4, !dbg !1894
  %5 = load i32*, i32** %ch.addr, align 8, !dbg !1895
  %6 = load i32, i32* %5, align 4, !dbg !1895
  %conv2 = trunc i32 %6 to i16, !dbg !1895
  %call = call zeroext i1 @_ZN11xercesc_2_78RegxUtil15isHighSurrogateEt(i16 zeroext %conv2), !dbg !1897
  br i1 %call, label %if.then, label %if.else17, !dbg !1898

if.then:                                          ; preds = %entry
  %7 = load i32*, i32** %offset.addr, align 8, !dbg !1899
  %8 = load i32, i32* %7, align 4, !dbg !1899
  %add = add nsw i32 %8, 1, !dbg !1902
  %fLimit = getelementptr inbounds %"class.xercesc_2_7::RegularExpression::Context", %"class.xercesc_2_7::RegularExpression::Context"* %this1, i32 0, i32 2, !dbg !1903
  %9 = load i32, i32* %fLimit, align 8, !dbg !1903
  %cmp = icmp slt i32 %add, %9, !dbg !1904
  br i1 %cmp, label %land.lhs.true, label %if.else, !dbg !1905

land.lhs.true:                                    ; preds = %if.then
  %10 = load i16, i16* %direction.addr, align 2, !dbg !1906
  %conv3 = sext i16 %10 to i32, !dbg !1906
  %cmp4 = icmp sgt i32 %conv3, 0, !dbg !1907
  br i1 %cmp4, label %land.lhs.true5, label %if.else, !dbg !1908

land.lhs.true5:                                   ; preds = %land.lhs.true
  %fString6 = getelementptr inbounds %"class.xercesc_2_7::RegularExpression::Context", %"class.xercesc_2_7::RegularExpression::Context"* %this1, i32 0, i32 8, !dbg !1909
  %11 = load i16*, i16** %fString6, align 8, !dbg !1909
  %12 = load i32*, i32** %offset.addr, align 8, !dbg !1910
  %13 = load i32, i32* %12, align 4, !dbg !1910
  %add7 = add nsw i32 %13, 1, !dbg !1911
  %idxprom8 = sext i32 %add7 to i64, !dbg !1909
  %arrayidx9 = getelementptr inbounds i16, i16* %11, i64 %idxprom8, !dbg !1909
  %14 = load i16, i16* %arrayidx9, align 2, !dbg !1909
  %call10 = call zeroext i1 @_ZN11xercesc_2_78RegxUtil14isLowSurrogateEt(i16 zeroext %14), !dbg !1912
  br i1 %call10, label %if.then11, label %if.else, !dbg !1913

if.then11:                                        ; preds = %land.lhs.true5
  %15 = load i32*, i32** %ch.addr, align 8, !dbg !1914
  %16 = load i32, i32* %15, align 4, !dbg !1914
  %conv12 = trunc i32 %16 to i16, !dbg !1914
  %fString13 = getelementptr inbounds %"class.xercesc_2_7::RegularExpression::Context", %"class.xercesc_2_7::RegularExpression::Context"* %this1, i32 0, i32 8, !dbg !1916
  %17 = load i16*, i16** %fString13, align 8, !dbg !1916
  %18 = load i32*, i32** %offset.addr, align 8, !dbg !1917
  %19 = load i32, i32* %18, align 4, !dbg !1918
  %inc = add nsw i32 %19, 1, !dbg !1918
  store i32 %inc, i32* %18, align 4, !dbg !1918
  %idxprom14 = sext i32 %inc to i64, !dbg !1916
  %arrayidx15 = getelementptr inbounds i16, i16* %17, i64 %idxprom14, !dbg !1916
  %20 = load i16, i16* %arrayidx15, align 2, !dbg !1916
  %call16 = call i32 @_ZN11xercesc_2_78RegxUtil20composeFromSurrogateEtt(i16 zeroext %conv12, i16 zeroext %20), !dbg !1919
  %21 = load i32*, i32** %ch.addr, align 8, !dbg !1920
  store i32 %call16, i32* %21, align 4, !dbg !1921
  br label %if.end, !dbg !1922

if.else:                                          ; preds = %land.lhs.true5, %land.lhs.true, %if.then
  store i1 false, i1* %retval, align 1, !dbg !1923
  br label %return, !dbg !1923

if.end:                                           ; preds = %if.then11
  br label %if.end40, !dbg !1924

if.else17:                                        ; preds = %entry
  %22 = load i32*, i32** %ch.addr, align 8, !dbg !1925
  %23 = load i32, i32* %22, align 4, !dbg !1925
  %conv18 = trunc i32 %23 to i16, !dbg !1925
  %call19 = call zeroext i1 @_ZN11xercesc_2_78RegxUtil14isLowSurrogateEt(i16 zeroext %conv18), !dbg !1927
  br i1 %call19, label %if.then20, label %if.end39, !dbg !1928

if.then20:                                        ; preds = %if.else17
  %24 = load i32*, i32** %offset.addr, align 8, !dbg !1929
  %25 = load i32, i32* %24, align 4, !dbg !1929
  %sub = sub nsw i32 %25, 1, !dbg !1932
  %cmp21 = icmp sge i32 %sub, 0, !dbg !1933
  br i1 %cmp21, label %land.lhs.true22, label %if.else37, !dbg !1934

land.lhs.true22:                                  ; preds = %if.then20
  %26 = load i16, i16* %direction.addr, align 2, !dbg !1935
  %conv23 = sext i16 %26 to i32, !dbg !1935
  %cmp24 = icmp sle i32 %conv23, 0, !dbg !1936
  br i1 %cmp24, label %land.lhs.true25, label %if.else37, !dbg !1937

land.lhs.true25:                                  ; preds = %land.lhs.true22
  %fString26 = getelementptr inbounds %"class.xercesc_2_7::RegularExpression::Context", %"class.xercesc_2_7::RegularExpression::Context"* %this1, i32 0, i32 8, !dbg !1938
  %27 = load i16*, i16** %fString26, align 8, !dbg !1938
  %28 = load i32*, i32** %offset.addr, align 8, !dbg !1939
  %29 = load i32, i32* %28, align 4, !dbg !1939
  %sub27 = sub nsw i32 %29, 1, !dbg !1940
  %idxprom28 = sext i32 %sub27 to i64, !dbg !1938
  %arrayidx29 = getelementptr inbounds i16, i16* %27, i64 %idxprom28, !dbg !1938
  %30 = load i16, i16* %arrayidx29, align 2, !dbg !1938
  %call30 = call zeroext i1 @_ZN11xercesc_2_78RegxUtil15isHighSurrogateEt(i16 zeroext %30), !dbg !1941
  br i1 %call30, label %if.then31, label %if.else37, !dbg !1942

if.then31:                                        ; preds = %land.lhs.true25
  %fString32 = getelementptr inbounds %"class.xercesc_2_7::RegularExpression::Context", %"class.xercesc_2_7::RegularExpression::Context"* %this1, i32 0, i32 8, !dbg !1943
  %31 = load i16*, i16** %fString32, align 8, !dbg !1943
  %32 = load i32*, i32** %offset.addr, align 8, !dbg !1945
  %33 = load i32, i32* %32, align 4, !dbg !1946
  %dec = add nsw i32 %33, -1, !dbg !1946
  store i32 %dec, i32* %32, align 4, !dbg !1946
  %idxprom33 = sext i32 %dec to i64, !dbg !1943
  %arrayidx34 = getelementptr inbounds i16, i16* %31, i64 %idxprom33, !dbg !1943
  %34 = load i16, i16* %arrayidx34, align 2, !dbg !1943
  %35 = load i32*, i32** %ch.addr, align 8, !dbg !1947
  %36 = load i32, i32* %35, align 4, !dbg !1947
  %conv35 = trunc i32 %36 to i16, !dbg !1947
  %call36 = call i32 @_ZN11xercesc_2_78RegxUtil20composeFromSurrogateEtt(i16 zeroext %34, i16 zeroext %conv35), !dbg !1948
  %37 = load i32*, i32** %ch.addr, align 8, !dbg !1949
  store i32 %call36, i32* %37, align 4, !dbg !1950
  br label %if.end38, !dbg !1951

if.else37:                                        ; preds = %land.lhs.true25, %land.lhs.true22, %if.then20
  store i1 false, i1* %retval, align 1, !dbg !1952
  br label %return, !dbg !1952

if.end38:                                         ; preds = %if.then31
  br label %if.end39, !dbg !1953

if.end39:                                         ; preds = %if.end38, %if.else17
  br label %if.end40

if.end40:                                         ; preds = %if.end39, %if.end
  store i1 true, i1* %retval, align 1, !dbg !1954
  br label %return, !dbg !1954

return:                                           ; preds = %if.end40, %if.else37, %if.else
  %38 = load i1, i1* %retval, align 1, !dbg !1955
  ret i1 %38, !dbg !1955
}

; Function Attrs: noinline nounwind uwtable
define linkonce_odr dso_local zeroext i1 @_ZN11xercesc_2_78RegxUtil15isHighSurrogateEt(i16 zeroext %ch) #1 comdat align 2 !dbg !1956 {
entry:
  %ch.addr = alloca i16, align 2
  store i16 %ch, i16* %ch.addr, align 2
  call void @llvm.dbg.declare(metadata i16* %ch.addr, metadata !1957, metadata !DIExpression()), !dbg !1958
  %0 = load i16, i16* %ch.addr, align 2, !dbg !1959
  %conv = zext i16 %0 to i32, !dbg !1959
  %and = and i32 %conv, 64512, !dbg !1960
  %cmp = icmp eq i32 %and, 55296, !dbg !1961
  ret i1 %cmp, !dbg !1962
}

; Function Attrs: noinline nounwind uwtable
define linkonce_odr dso_local zeroext i1 @_ZN11xercesc_2_78RegxUtil14isLowSurrogateEt(i16 zeroext %ch) #1 comdat align 2 !dbg !1963 {
entry:
  %ch.addr = alloca i16, align 2
  store i16 %ch, i16* %ch.addr, align 2
  call void @llvm.dbg.declare(metadata i16* %ch.addr, metadata !1964, metadata !DIExpression()), !dbg !1965
  %0 = load i16, i16* %ch.addr, align 2, !dbg !1966
  %conv = zext i16 %0 to i32, !dbg !1966
  %and = and i32 %conv, 64512, !dbg !1967
  %cmp = icmp eq i32 %and, 56320, !dbg !1968
  ret i1 %cmp, !dbg !1969
}

; Function Attrs: noinline nounwind uwtable
define linkonce_odr dso_local i32 @_ZN11xercesc_2_78RegxUtil20composeFromSurrogateEtt(i16 zeroext %high, i16 zeroext %low) #1 comdat align 2 !dbg !1970 {
entry:
  %high.addr = alloca i16, align 2
  %low.addr = alloca i16, align 2
  store i16 %high, i16* %high.addr, align 2
  call void @llvm.dbg.declare(metadata i16* %high.addr, metadata !1971, metadata !DIExpression()), !dbg !1972
  store i16 %low, i16* %low.addr, align 2
  call void @llvm.dbg.declare(metadata i16* %low.addr, metadata !1973, metadata !DIExpression()), !dbg !1974
  %0 = load i16, i16* %high.addr, align 2, !dbg !1975
  %conv = zext i16 %0 to i32, !dbg !1975
  %sub = sub nsw i32 %conv, 55296, !dbg !1976
  %shl = shl i32 %sub, 10, !dbg !1977
  %add = add nsw i32 65536, %shl, !dbg !1978
  %1 = load i16, i16* %low.addr, align 2, !dbg !1979
  %conv1 = zext i16 %1 to i32, !dbg !1979
  %sub2 = sub nsw i32 %conv1, 56320, !dbg !1980
  %add3 = add nsw i32 %add, %sub2, !dbg !1981
  ret i32 %add3, !dbg !1982
}

; Function Attrs: noinline uwtable
define dso_local void @_ZN11xercesc_2_717RegularExpressionC2EPKcPNS_13MemoryManagerE(%"class.xercesc_2_7::RegularExpression"* %this, i8* %pattern, %"class.xercesc_2_7::MemoryManager"* %manager) unnamed_addr #3 align 2 personality i8* bitcast (i32 (...)* @__gxx_personality_v0 to i8*) !dbg !1983 {
entry:
  %this.addr = alloca %"class.xercesc_2_7::RegularExpression"*, align 8
  %pattern.addr = alloca i8*, align 8
  %manager.addr = alloca %"class.xercesc_2_7::MemoryManager"*, align 8
  %cleanup = alloca %"class.xercesc_2_7::JanitorMemFunCall", align 8
  %coerce = alloca { i64, i64 }, align 8
  %exn.slot = alloca i8*
  %ehselector.slot = alloca i32
  %tmpBuf = alloca i16*, align 8
  %janBuf = alloca %"class.xercesc_2_7::ArrayJanitor", align 8
  %0 = alloca %"class.xercesc_2_7::OutOfMemoryException"*, align 8
  store %"class.xercesc_2_7::RegularExpression"* %this, %"class.xercesc_2_7::RegularExpression"** %this.addr, align 8
  call void @llvm.dbg.declare(metadata %"class.xercesc_2_7::RegularExpression"** %this.addr, metadata !1984, metadata !DIExpression()), !dbg !1985
  store i8* %pattern, i8** %pattern.addr, align 8
  call void @llvm.dbg.declare(metadata i8** %pattern.addr, metadata !1986, metadata !DIExpression()), !dbg !1987
  store %"class.xercesc_2_7::MemoryManager"* %manager, %"class.xercesc_2_7::MemoryManager"** %manager.addr, align 8
  call void @llvm.dbg.declare(metadata %"class.xercesc_2_7::MemoryManager"** %manager.addr, metadata !1988, metadata !DIExpression()), !dbg !1989
  %this1 = load %"class.xercesc_2_7::RegularExpression"*, %"class.xercesc_2_7::RegularExpression"** %this.addr, align 8
  %1 = bitcast %"class.xercesc_2_7::RegularExpression"* %this1 to %"class.xercesc_2_7::XMemory"*, !dbg !1990
  call void @_ZN11xercesc_2_77XMemoryC2Ev(%"class.xercesc_2_7::XMemory"* %1), !dbg !1991
  %fHasBackReferences = getelementptr inbounds %"class.xercesc_2_7::RegularExpression", %"class.xercesc_2_7::RegularExpression"* %this1, i32 0, i32 0, !dbg !1992
  store i8 0, i8* %fHasBackReferences, align 8, !dbg !1992
  %fFixedStringOnly = getelementptr inbounds %"class.xercesc_2_7::RegularExpression", %"class.xercesc_2_7::RegularExpression"* %this1, i32 0, i32 1, !dbg !1993
  store i8 0, i8* %fFixedStringOnly, align 1, !dbg !1993
  %fNoGroups = getelementptr inbounds %"class.xercesc_2_7::RegularExpression", %"class.xercesc_2_7::RegularExpression"* %this1, i32 0, i32 2, !dbg !1994
  store i32 0, i32* %fNoGroups, align 4, !dbg !1994
  %fMinLength = getelementptr inbounds %"class.xercesc_2_7::RegularExpression", %"class.xercesc_2_7::RegularExpression"* %this1, i32 0, i32 3, !dbg !1995
  store i32 0, i32* %fMinLength, align 8, !dbg !1995
  %fNoClosures = getelementptr inbounds %"class.xercesc_2_7::RegularExpression", %"class.xercesc_2_7::RegularExpression"* %this1, i32 0, i32 4, !dbg !1996
  store i32 0, i32* %fNoClosures, align 4, !dbg !1996
  %fOptions = getelementptr inbounds %"class.xercesc_2_7::RegularExpression", %"class.xercesc_2_7::RegularExpression"* %this1, i32 0, i32 5, !dbg !1997
  store i32 0, i32* %fOptions, align 8, !dbg !1997
  %fBMPattern = getelementptr inbounds %"class.xercesc_2_7::RegularExpression", %"class.xercesc_2_7::RegularExpression"* %this1, i32 0, i32 6, !dbg !1998
  store %"class.xercesc_2_7::BMPattern"* null, %"class.xercesc_2_7::BMPattern"** %fBMPattern, align 8, !dbg !1998
  %fPattern = getelementptr inbounds %"class.xercesc_2_7::RegularExpression", %"class.xercesc_2_7::RegularExpression"* %this1, i32 0, i32 7, !dbg !1999
  store i16* null, i16** %fPattern, align 8, !dbg !1999
  %fFixedString = getelementptr inbounds %"class.xercesc_2_7::RegularExpression", %"class.xercesc_2_7::RegularExpression"* %this1, i32 0, i32 8, !dbg !2000
  store i16* null, i16** %fFixedString, align 8, !dbg !2000
  %fOperations = getelementptr inbounds %"class.xercesc_2_7::RegularExpression", %"class.xercesc_2_7::RegularExpression"* %this1, i32 0, i32 9, !dbg !2001
  store %"class.xercesc_2_7::Op"* null, %"class.xercesc_2_7::Op"** %fOperations, align 8, !dbg !2001
  %fTokenTree = getelementptr inbounds %"class.xercesc_2_7::RegularExpression", %"class.xercesc_2_7::RegularExpression"* %this1, i32 0, i32 10, !dbg !2002
  store %"class.xercesc_2_7::Token"* null, %"class.xercesc_2_7::Token"** %fTokenTree, align 8, !dbg !2002
  %fFirstChar = getelementptr inbounds %"class.xercesc_2_7::RegularExpression", %"class.xercesc_2_7::RegularExpression"* %this1, i32 0, i32 11, !dbg !2003
  store %"class.xercesc_2_7::RangeToken"* null, %"class.xercesc_2_7::RangeToken"** %fFirstChar, align 8, !dbg !2003
  %fOpFactory = getelementptr inbounds %"class.xercesc_2_7::RegularExpression", %"class.xercesc_2_7::RegularExpression"* %this1, i32 0, i32 12, !dbg !2004
  %2 = load %"class.xercesc_2_7::MemoryManager"*, %"class.xercesc_2_7::MemoryManager"** %manager.addr, align 8, !dbg !2005
  call void @_ZN11xercesc_2_79OpFactoryC1EPNS_13MemoryManagerE(%"class.xercesc_2_7::OpFactory"* %fOpFactory, %"class.xercesc_2_7::MemoryManager"* %2), !dbg !2004
  %fTokenFactory = getelementptr inbounds %"class.xercesc_2_7::RegularExpression", %"class.xercesc_2_7::RegularExpression"* %this1, i32 0, i32 13, !dbg !2006
  store %"class.xercesc_2_7::TokenFactory"* null, %"class.xercesc_2_7::TokenFactory"** %fTokenFactory, align 8, !dbg !2006
  %fMemoryManager = getelementptr inbounds %"class.xercesc_2_7::RegularExpression", %"class.xercesc_2_7::RegularExpression"* %this1, i32 0, i32 14, !dbg !2007
  %3 = load %"class.xercesc_2_7::MemoryManager"*, %"class.xercesc_2_7::MemoryManager"** %manager.addr, align 8, !dbg !2008
  store %"class.xercesc_2_7::MemoryManager"* %3, %"class.xercesc_2_7::MemoryManager"** %fMemoryManager, align 8, !dbg !2007
  call void @llvm.dbg.declare(metadata %"class.xercesc_2_7::JanitorMemFunCall"* %cleanup, metadata !2009, metadata !DIExpression()), !dbg !2039
  store { i64, i64 } { i64 ptrtoint (void (%"class.xercesc_2_7::RegularExpression"*)* @_ZN11xercesc_2_717RegularExpression7cleanUpEv to i64), i64 0 }, { i64, i64 }* %coerce, align 8, !dbg !2039
  %4 = getelementptr inbounds { i64, i64 }, { i64, i64 }* %coerce, i32 0, i32 0, !dbg !2039
  %5 = load i64, i64* %4, align 8, !dbg !2039
  %6 = getelementptr inbounds { i64, i64 }, { i64, i64 }* %coerce, i32 0, i32 1, !dbg !2039
  %7 = load i64, i64* %6, align 8, !dbg !2039
  invoke void @_ZN11xercesc_2_717JanitorMemFunCallINS_17RegularExpressionEEC2EPS1_MS1_FvvE(%"class.xercesc_2_7::JanitorMemFunCall"* %cleanup, %"class.xercesc_2_7::RegularExpression"* %this1, i64 %5, i64 %7)
          to label %invoke.cont unwind label %lpad, !dbg !2039

invoke.cont:                                      ; preds = %entry
  call void @llvm.dbg.declare(metadata i16** %tmpBuf, metadata !2040, metadata !DIExpression()), !dbg !2042
  %8 = load i8*, i8** %pattern.addr, align 8, !dbg !2043
  %fMemoryManager2 = getelementptr inbounds %"class.xercesc_2_7::RegularExpression", %"class.xercesc_2_7::RegularExpression"* %this1, i32 0, i32 14, !dbg !2044
  %9 = load %"class.xercesc_2_7::MemoryManager"*, %"class.xercesc_2_7::MemoryManager"** %fMemoryManager2, align 8, !dbg !2044
  %call = invoke i16* @_ZN11xercesc_2_79XMLString9transcodeEPKcPNS_13MemoryManagerE(i8* %8, %"class.xercesc_2_7::MemoryManager"* %9)
          to label %invoke.cont4 unwind label %lpad3, !dbg !2045

invoke.cont4:                                     ; preds = %invoke.cont
  store i16* %call, i16** %tmpBuf, align 8, !dbg !2042
  call void @llvm.dbg.declare(metadata %"class.xercesc_2_7::ArrayJanitor"* %janBuf, metadata !2046, metadata !DIExpression()), !dbg !2092
  %10 = load i16*, i16** %tmpBuf, align 8, !dbg !2093
  %fMemoryManager5 = getelementptr inbounds %"class.xercesc_2_7::RegularExpression", %"class.xercesc_2_7::RegularExpression"* %this1, i32 0, i32 14, !dbg !2094
  %11 = load %"class.xercesc_2_7::MemoryManager"*, %"class.xercesc_2_7::MemoryManager"** %fMemoryManager5, align 8, !dbg !2094
  invoke void @_ZN11xercesc_2_712ArrayJanitorItEC2EPtPNS_13MemoryManagerE(%"class.xercesc_2_7::ArrayJanitor"* %janBuf, i16* %10, %"class.xercesc_2_7::MemoryManager"* %11)
          to label %invoke.cont6 unwind label %lpad3, !dbg !2092

invoke.cont6:                                     ; preds = %invoke.cont4
  %12 = load i16*, i16** %tmpBuf, align 8, !dbg !2095
  invoke void @_ZN11xercesc_2_717RegularExpression10setPatternEPKtS2_(%"class.xercesc_2_7::RegularExpression"* %this1, i16* %12, i16* null)
          to label %invoke.cont8 unwind label %lpad7, !dbg !2096

invoke.cont8:                                     ; preds = %invoke.cont6
  call void @_ZN11xercesc_2_712ArrayJanitorItED2Ev(%"class.xercesc_2_7::ArrayJanitor"* %janBuf) #9, !dbg !2097
  br label %try.cont, !dbg !2098

lpad:                                             ; preds = %entry
  %13 = landingpad { i8*, i32 }
          cleanup, !dbg !2099
  %14 = extractvalue { i8*, i32 } %13, 0, !dbg !2099
  store i8* %14, i8** %exn.slot, align 8, !dbg !2099
  %15 = extractvalue { i8*, i32 } %13, 1, !dbg !2099
  store i32 %15, i32* %ehselector.slot, align 4, !dbg !2099
  br label %ehcleanup14, !dbg !2099

lpad3:                                            ; preds = %invoke.cont4, %invoke.cont
  %16 = landingpad { i8*, i32 }
          cleanup
          catch i8* bitcast ({ i8*, i8*, i8* }* @_ZTIN11xercesc_2_720OutOfMemoryExceptionE to i8*), !dbg !2100
  %17 = extractvalue { i8*, i32 } %16, 0, !dbg !2100
  store i8* %17, i8** %exn.slot, align 8, !dbg !2100
  %18 = extractvalue { i8*, i32 } %16, 1, !dbg !2100
  store i32 %18, i32* %ehselector.slot, align 4, !dbg !2100
  br label %catch.dispatch, !dbg !2100

lpad7:                                            ; preds = %invoke.cont6
  %19 = landingpad { i8*, i32 }
          cleanup
          catch i8* bitcast ({ i8*, i8*, i8* }* @_ZTIN11xercesc_2_720OutOfMemoryExceptionE to i8*), !dbg !2100
  %20 = extractvalue { i8*, i32 } %19, 0, !dbg !2100
  store i8* %20, i8** %exn.slot, align 8, !dbg !2100
  %21 = extractvalue { i8*, i32 } %19, 1, !dbg !2100
  store i32 %21, i32* %ehselector.slot, align 4, !dbg !2100
  call void @_ZN11xercesc_2_712ArrayJanitorItED2Ev(%"class.xercesc_2_7::ArrayJanitor"* %janBuf) #9, !dbg !2097
  br label %catch.dispatch, !dbg !2097

catch.dispatch:                                   ; preds = %lpad7, %lpad3
  %sel = load i32, i32* %ehselector.slot, align 4, !dbg !2098
  %22 = call i32 @llvm.eh.typeid.for(i8* bitcast ({ i8*, i8*, i8* }* @_ZTIN11xercesc_2_720OutOfMemoryExceptionE to i8*)) #9, !dbg !2098
  %matches = icmp eq i32 %sel, %22, !dbg !2098
  br i1 %matches, label %catch, label %ehcleanup, !dbg !2098

catch:                                            ; preds = %catch.dispatch
  call void @llvm.dbg.declare(metadata %"class.xercesc_2_7::OutOfMemoryException"** %0, metadata !2101, metadata !DIExpression()), !dbg !2134
  %exn = load i8*, i8** %exn.slot, align 8, !dbg !2098
  %23 = call i8* @__cxa_begin_catch(i8* %exn) #9, !dbg !2098
  %exn.byref = bitcast i8* %23 to %"class.xercesc_2_7::OutOfMemoryException"*, !dbg !2098
  store %"class.xercesc_2_7::OutOfMemoryException"* %exn.byref, %"class.xercesc_2_7::OutOfMemoryException"** %0, align 8, !dbg !2098
  invoke void @_ZN11xercesc_2_717JanitorMemFunCallINS_17RegularExpressionEE7releaseEv(%"class.xercesc_2_7::JanitorMemFunCall"* %cleanup)
          to label %invoke.cont10 unwind label %lpad9, !dbg !2135

invoke.cont10:                                    ; preds = %catch
  invoke void @__cxa_rethrow() #12
          to label %unreachable unwind label %lpad9, !dbg !2137

lpad9:                                            ; preds = %invoke.cont10, %catch
  %24 = landingpad { i8*, i32 }
          cleanup, !dbg !2138
  %25 = extractvalue { i8*, i32 } %24, 0, !dbg !2138
  store i8* %25, i8** %exn.slot, align 8, !dbg !2138
  %26 = extractvalue { i8*, i32 } %24, 1, !dbg !2138
  store i32 %26, i32* %ehselector.slot, align 4, !dbg !2138
  invoke void @__cxa_end_catch()
          to label %invoke.cont11 unwind label %terminate.lpad, !dbg !2139

invoke.cont11:                                    ; preds = %lpad9
  br label %ehcleanup, !dbg !2139

try.cont:                                         ; preds = %invoke.cont8
  invoke void @_ZN11xercesc_2_717JanitorMemFunCallINS_17RegularExpressionEE7releaseEv(%"class.xercesc_2_7::JanitorMemFunCall"* %cleanup)
          to label %invoke.cont13 unwind label %lpad12, !dbg !2140

invoke.cont13:                                    ; preds = %try.cont
  call void @_ZN11xercesc_2_717JanitorMemFunCallINS_17RegularExpressionEED2Ev(%"class.xercesc_2_7::JanitorMemFunCall"* %cleanup) #9, !dbg !2141
  ret void, !dbg !2141

lpad12:                                           ; preds = %try.cont
  %27 = landingpad { i8*, i32 }
          cleanup, !dbg !2099
  %28 = extractvalue { i8*, i32 } %27, 0, !dbg !2099
  store i8* %28, i8** %exn.slot, align 8, !dbg !2099
  %29 = extractvalue { i8*, i32 } %27, 1, !dbg !2099
  store i32 %29, i32* %ehselector.slot, align 4, !dbg !2099
  br label %ehcleanup, !dbg !2099

ehcleanup:                                        ; preds = %lpad12, %invoke.cont11, %catch.dispatch
  call void @_ZN11xercesc_2_717JanitorMemFunCallINS_17RegularExpressionEED2Ev(%"class.xercesc_2_7::JanitorMemFunCall"* %cleanup) #9, !dbg !2141
  br label %ehcleanup14, !dbg !2141

ehcleanup14:                                      ; preds = %ehcleanup, %lpad
  call void @_ZN11xercesc_2_79OpFactoryD1Ev(%"class.xercesc_2_7::OpFactory"* %fOpFactory) #9, !dbg !2099
  br label %eh.resume, !dbg !2099

eh.resume:                                        ; preds = %ehcleanup14
  %exn15 = load i8*, i8** %exn.slot, align 8, !dbg !2099
  %sel16 = load i32, i32* %ehselector.slot, align 4, !dbg !2099
  %lpad.val = insertvalue { i8*, i32 } undef, i8* %exn15, 0, !dbg !2099
  %lpad.val17 = insertvalue { i8*, i32 } %lpad.val, i32 %sel16, 1, !dbg !2099
  resume { i8*, i32 } %lpad.val17, !dbg !2099

terminate.lpad:                                   ; preds = %lpad9
  %30 = landingpad { i8*, i32 }
          catch i8* null, !dbg !2139
  %31 = extractvalue { i8*, i32 } %30, 0, !dbg !2139
  call void @__clang_call_terminate(i8* %31) #11, !dbg !2139
  unreachable, !dbg !2139

unreachable:                                      ; preds = %invoke.cont10
  unreachable
}

declare dso_local void @_ZN11xercesc_2_79OpFactoryC1EPNS_13MemoryManagerE(%"class.xercesc_2_7::OpFactory"*, %"class.xercesc_2_7::MemoryManager"*) unnamed_addr #4

; Function Attrs: noinline uwtable
define linkonce_odr dso_local void @_ZN11xercesc_2_717RegularExpression7cleanUpEv(%"class.xercesc_2_7::RegularExpression"* %this) #3 comdat align 2 !dbg !2142 {
entry:
  %this.addr = alloca %"class.xercesc_2_7::RegularExpression"*, align 8
  store %"class.xercesc_2_7::RegularExpression"* %this, %"class.xercesc_2_7::RegularExpression"** %this.addr, align 8
  call void @llvm.dbg.declare(metadata %"class.xercesc_2_7::RegularExpression"** %this.addr, metadata !2143, metadata !DIExpression()), !dbg !2144
  %this1 = load %"class.xercesc_2_7::RegularExpression"*, %"class.xercesc_2_7::RegularExpression"** %this.addr, align 8
  %fMemoryManager = getelementptr inbounds %"class.xercesc_2_7::RegularExpression", %"class.xercesc_2_7::RegularExpression"* %this1, i32 0, i32 14, !dbg !2145
  %0 = load %"class.xercesc_2_7::MemoryManager"*, %"class.xercesc_2_7::MemoryManager"** %fMemoryManager, align 8, !dbg !2145
  %fPattern = getelementptr inbounds %"class.xercesc_2_7::RegularExpression", %"class.xercesc_2_7::RegularExpression"* %this1, i32 0, i32 7, !dbg !2146
  %1 = load i16*, i16** %fPattern, align 8, !dbg !2146
  %2 = bitcast i16* %1 to i8*, !dbg !2146
  %3 = bitcast %"class.xercesc_2_7::MemoryManager"* %0 to void (%"class.xercesc_2_7::MemoryManager"*, i8*)***, !dbg !2147
  %vtable = load void (%"class.xercesc_2_7::MemoryManager"*, i8*)**, void (%"class.xercesc_2_7::MemoryManager"*, i8*)*** %3, align 8, !dbg !2147
  %vfn = getelementptr inbounds void (%"class.xercesc_2_7::MemoryManager"*, i8*)*, void (%"class.xercesc_2_7::MemoryManager"*, i8*)** %vtable, i64 3, !dbg !2147
  %4 = load void (%"class.xercesc_2_7::MemoryManager"*, i8*)*, void (%"class.xercesc_2_7::MemoryManager"*, i8*)** %vfn, align 8, !dbg !2147
  call void %4(%"class.xercesc_2_7::MemoryManager"* %0, i8* %2), !dbg !2147
  %fMemoryManager2 = getelementptr inbounds %"class.xercesc_2_7::RegularExpression", %"class.xercesc_2_7::RegularExpression"* %this1, i32 0, i32 14, !dbg !2148
  %5 = load %"class.xercesc_2_7::MemoryManager"*, %"class.xercesc_2_7::MemoryManager"** %fMemoryManager2, align 8, !dbg !2148
  %fFixedString = getelementptr inbounds %"class.xercesc_2_7::RegularExpression", %"class.xercesc_2_7::RegularExpression"* %this1, i32 0, i32 8, !dbg !2149
  %6 = load i16*, i16** %fFixedString, align 8, !dbg !2149
  %7 = bitcast i16* %6 to i8*, !dbg !2149
  %8 = bitcast %"class.xercesc_2_7::MemoryManager"* %5 to void (%"class.xercesc_2_7::MemoryManager"*, i8*)***, !dbg !2150
  %vtable3 = load void (%"class.xercesc_2_7::MemoryManager"*, i8*)**, void (%"class.xercesc_2_7::MemoryManager"*, i8*)*** %8, align 8, !dbg !2150
  %vfn4 = getelementptr inbounds void (%"class.xercesc_2_7::MemoryManager"*, i8*)*, void (%"class.xercesc_2_7::MemoryManager"*, i8*)** %vtable3, i64 3, !dbg !2150
  %9 = load void (%"class.xercesc_2_7::MemoryManager"*, i8*)*, void (%"class.xercesc_2_7::MemoryManager"*, i8*)** %vfn4, align 8, !dbg !2150
  call void %9(%"class.xercesc_2_7::MemoryManager"* %5, i8* %7), !dbg !2150
  %fBMPattern = getelementptr inbounds %"class.xercesc_2_7::RegularExpression", %"class.xercesc_2_7::RegularExpression"* %this1, i32 0, i32 6, !dbg !2151
  %10 = load %"class.xercesc_2_7::BMPattern"*, %"class.xercesc_2_7::BMPattern"** %fBMPattern, align 8, !dbg !2151
  %isnull = icmp eq %"class.xercesc_2_7::BMPattern"* %10, null, !dbg !2152
  br i1 %isnull, label %delete.end, label %delete.notnull, !dbg !2152

delete.notnull:                                   ; preds = %entry
  call void @_ZN11xercesc_2_79BMPatternD1Ev(%"class.xercesc_2_7::BMPattern"* %10) #9, !dbg !2152
  %11 = bitcast %"class.xercesc_2_7::BMPattern"* %10 to i8*, !dbg !2152
  call void @_ZN11xercesc_2_77XMemorydlEPv(i8* %11) #9, !dbg !2152
  br label %delete.end, !dbg !2152

delete.end:                                       ; preds = %delete.notnull, %entry
  %fTokenFactory = getelementptr inbounds %"class.xercesc_2_7::RegularExpression", %"class.xercesc_2_7::RegularExpression"* %this1, i32 0, i32 13, !dbg !2153
  %12 = load %"class.xercesc_2_7::TokenFactory"*, %"class.xercesc_2_7::TokenFactory"** %fTokenFactory, align 8, !dbg !2153
  %isnull5 = icmp eq %"class.xercesc_2_7::TokenFactory"* %12, null, !dbg !2154
  br i1 %isnull5, label %delete.end7, label %delete.notnull6, !dbg !2154

delete.notnull6:                                  ; preds = %delete.end
  call void @_ZN11xercesc_2_712TokenFactoryD1Ev(%"class.xercesc_2_7::TokenFactory"* %12) #9, !dbg !2154
  %13 = bitcast %"class.xercesc_2_7::TokenFactory"* %12 to i8*, !dbg !2154
  call void @_ZN11xercesc_2_77XMemorydlEPv(i8* %13) #9, !dbg !2154
  br label %delete.end7, !dbg !2154

delete.end7:                                      ; preds = %delete.notnull6, %delete.end
  ret void, !dbg !2155
}

; Function Attrs: noinline nounwind uwtable
define linkonce_odr dso_local void @_ZN11xercesc_2_717JanitorMemFunCallINS_17RegularExpressionEEC2EPS1_MS1_FvvE(%"class.xercesc_2_7::JanitorMemFunCall"* %this, %"class.xercesc_2_7::RegularExpression"* %object, i64 %toCall.coerce0, i64 %toCall.coerce1) unnamed_addr #1 comdat align 2 !dbg !2156 {
entry:
  %toCall = alloca { i64, i64 }, align 8
  %this.addr = alloca %"class.xercesc_2_7::JanitorMemFunCall"*, align 8
  %object.addr = alloca %"class.xercesc_2_7::RegularExpression"*, align 8
  %toCall.addr = alloca { i64, i64 }, align 8
  %0 = getelementptr inbounds { i64, i64 }, { i64, i64 }* %toCall, i32 0, i32 0
  store i64 %toCall.coerce0, i64* %0, align 8
  %1 = getelementptr inbounds { i64, i64 }, { i64, i64 }* %toCall, i32 0, i32 1
  store i64 %toCall.coerce1, i64* %1, align 8
  %toCall1 = load { i64, i64 }, { i64, i64 }* %toCall, align 8
  store %"class.xercesc_2_7::JanitorMemFunCall"* %this, %"class.xercesc_2_7::JanitorMemFunCall"** %this.addr, align 8
  call void @llvm.dbg.declare(metadata %"class.xercesc_2_7::JanitorMemFunCall"** %this.addr, metadata !2158, metadata !DIExpression()), !dbg !2160
  store %"class.xercesc_2_7::RegularExpression"* %object, %"class.xercesc_2_7::RegularExpression"** %object.addr, align 8
  call void @llvm.dbg.declare(metadata %"class.xercesc_2_7::RegularExpression"** %object.addr, metadata !2161, metadata !DIExpression()), !dbg !2162
  store { i64, i64 } %toCall1, { i64, i64 }* %toCall.addr, align 8
  call void @llvm.dbg.declare(metadata { i64, i64 }* %toCall.addr, metadata !2163, metadata !DIExpression()), !dbg !2164
  %this2 = load %"class.xercesc_2_7::JanitorMemFunCall"*, %"class.xercesc_2_7::JanitorMemFunCall"** %this.addr, align 8
  %fObject = getelementptr inbounds %"class.xercesc_2_7::JanitorMemFunCall", %"class.xercesc_2_7::JanitorMemFunCall"* %this2, i32 0, i32 0, !dbg !2165
  %2 = load %"class.xercesc_2_7::RegularExpression"*, %"class.xercesc_2_7::RegularExpression"** %object.addr, align 8, !dbg !2166
  store %"class.xercesc_2_7::RegularExpression"* %2, %"class.xercesc_2_7::RegularExpression"** %fObject, align 8, !dbg !2165
  %fToCall = getelementptr inbounds %"class.xercesc_2_7::JanitorMemFunCall", %"class.xercesc_2_7::JanitorMemFunCall"* %this2, i32 0, i32 1, !dbg !2167
  %3 = load { i64, i64 }, { i64, i64 }* %toCall.addr, align 8, !dbg !2168
  store { i64, i64 } %3, { i64, i64 }* %fToCall, align 8, !dbg !2167
  ret void, !dbg !2169
}

declare dso_local i16* @_ZN11xercesc_2_79XMLString9transcodeEPKcPNS_13MemoryManagerE(i8*, %"class.xercesc_2_7::MemoryManager"*) #4

; Function Attrs: noinline nounwind uwtable
define linkonce_odr dso_local void @_ZN11xercesc_2_712ArrayJanitorItEC2EPtPNS_13MemoryManagerE(%"class.xercesc_2_7::ArrayJanitor"* %this, i16* %toDelete, %"class.xercesc_2_7::MemoryManager"* %manager) unnamed_addr #1 comdat align 2 !dbg !2170 {
entry:
  %this.addr = alloca %"class.xercesc_2_7::ArrayJanitor"*, align 8
  %toDelete.addr = alloca i16*, align 8
  %manager.addr = alloca %"class.xercesc_2_7::MemoryManager"*, align 8
  store %"class.xercesc_2_7::ArrayJanitor"* %this, %"class.xercesc_2_7::ArrayJanitor"** %this.addr, align 8
  call void @llvm.dbg.declare(metadata %"class.xercesc_2_7::ArrayJanitor"** %this.addr, metadata !2171, metadata !DIExpression()), !dbg !2173
  store i16* %toDelete, i16** %toDelete.addr, align 8
  call void @llvm.dbg.declare(metadata i16** %toDelete.addr, metadata !2174, metadata !DIExpression()), !dbg !2175
  store %"class.xercesc_2_7::MemoryManager"* %manager, %"class.xercesc_2_7::MemoryManager"** %manager.addr, align 8
  call void @llvm.dbg.declare(metadata %"class.xercesc_2_7::MemoryManager"** %manager.addr, metadata !2176, metadata !DIExpression()), !dbg !2177
  %this1 = load %"class.xercesc_2_7::ArrayJanitor"*, %"class.xercesc_2_7::ArrayJanitor"** %this.addr, align 8
  %0 = bitcast %"class.xercesc_2_7::ArrayJanitor"* %this1 to %"class.xercesc_2_7::XMemory"*, !dbg !2178
  call void @_ZN11xercesc_2_77XMemoryC2Ev(%"class.xercesc_2_7::XMemory"* %0), !dbg !2179
  %fData = getelementptr inbounds %"class.xercesc_2_7::ArrayJanitor", %"class.xercesc_2_7::ArrayJanitor"* %this1, i32 0, i32 0, !dbg !2181
  %1 = load i16*, i16** %toDelete.addr, align 8, !dbg !2183
  store i16* %1, i16** %fData, align 8, !dbg !2181
  %fMemoryManager = getelementptr inbounds %"class.xercesc_2_7::ArrayJanitor", %"class.xercesc_2_7::ArrayJanitor"* %this1, i32 0, i32 1, !dbg !2184
  %2 = load %"class.xercesc_2_7::MemoryManager"*, %"class.xercesc_2_7::MemoryManager"** %manager.addr, align 8, !dbg !2185
  store %"class.xercesc_2_7::MemoryManager"* %2, %"class.xercesc_2_7::MemoryManager"** %fMemoryManager, align 8, !dbg !2184
  ret void, !dbg !2186
}

; Function Attrs: noinline uwtable
define dso_local void @_ZN11xercesc_2_717RegularExpression10setPatternEPKtS2_(%"class.xercesc_2_7::RegularExpression"* %this, i16* %pattern, i16* %options) #3 align 2 personality i8* bitcast (i32 (...)* @__gxx_personality_v0 to i8*) !dbg !2187 {
entry:
  %this.addr = alloca %"class.xercesc_2_7::RegularExpression"*, align 8
  %pattern.addr = alloca i16*, align 8
  %options.addr = alloca i16*, align 8
  %exn.slot = alloca i8*
  %ehselector.slot = alloca i32
  %regxParser = alloca %"class.xercesc_2_7::RegxParser"*, align 8
  %janRegxParser = alloca %"class.xercesc_2_7::Janitor", align 8
  store %"class.xercesc_2_7::RegularExpression"* %this, %"class.xercesc_2_7::RegularExpression"** %this.addr, align 8
  call void @llvm.dbg.declare(metadata %"class.xercesc_2_7::RegularExpression"** %this.addr, metadata !2188, metadata !DIExpression()), !dbg !2189
  store i16* %pattern, i16** %pattern.addr, align 8
  call void @llvm.dbg.declare(metadata i16** %pattern.addr, metadata !2190, metadata !DIExpression()), !dbg !2191
  store i16* %options, i16** %options.addr, align 8
  call void @llvm.dbg.declare(metadata i16** %options.addr, metadata !2192, metadata !DIExpression()), !dbg !2193
  %this1 = load %"class.xercesc_2_7::RegularExpression"*, %"class.xercesc_2_7::RegularExpression"** %this.addr, align 8
  %fMemoryManager = getelementptr inbounds %"class.xercesc_2_7::RegularExpression", %"class.xercesc_2_7::RegularExpression"* %this1, i32 0, i32 14, !dbg !2194
  %0 = load %"class.xercesc_2_7::MemoryManager"*, %"class.xercesc_2_7::MemoryManager"** %fMemoryManager, align 8, !dbg !2194
  %call = call i8* @_ZN11xercesc_2_77XMemorynwEmPNS_13MemoryManagerE(i64 128, %"class.xercesc_2_7::MemoryManager"* %0), !dbg !2195
  %1 = bitcast i8* %call to %"class.xercesc_2_7::TokenFactory"*, !dbg !2195
  %fMemoryManager2 = getelementptr inbounds %"class.xercesc_2_7::RegularExpression", %"class.xercesc_2_7::RegularExpression"* %this1, i32 0, i32 14, !dbg !2196
  %2 = load %"class.xercesc_2_7::MemoryManager"*, %"class.xercesc_2_7::MemoryManager"** %fMemoryManager2, align 8, !dbg !2196
  invoke void @_ZN11xercesc_2_712TokenFactoryC1EPNS_13MemoryManagerE(%"class.xercesc_2_7::TokenFactory"* %1, %"class.xercesc_2_7::MemoryManager"* %2)
          to label %invoke.cont unwind label %lpad, !dbg !2197

invoke.cont:                                      ; preds = %entry
  %fTokenFactory = getelementptr inbounds %"class.xercesc_2_7::RegularExpression", %"class.xercesc_2_7::RegularExpression"* %this1, i32 0, i32 13, !dbg !2198
  store %"class.xercesc_2_7::TokenFactory"* %1, %"class.xercesc_2_7::TokenFactory"** %fTokenFactory, align 8, !dbg !2199
  %3 = load i16*, i16** %options.addr, align 8, !dbg !2200
  %call3 = call i32 @_ZN11xercesc_2_717RegularExpression12parseOptionsEPKt(%"class.xercesc_2_7::RegularExpression"* %this1, i16* %3), !dbg !2201
  %fOptions = getelementptr inbounds %"class.xercesc_2_7::RegularExpression", %"class.xercesc_2_7::RegularExpression"* %this1, i32 0, i32 5, !dbg !2202
  store i32 %call3, i32* %fOptions, align 8, !dbg !2203
  %4 = load i16*, i16** %pattern.addr, align 8, !dbg !2204
  %fMemoryManager4 = getelementptr inbounds %"class.xercesc_2_7::RegularExpression", %"class.xercesc_2_7::RegularExpression"* %this1, i32 0, i32 14, !dbg !2205
  %5 = load %"class.xercesc_2_7::MemoryManager"*, %"class.xercesc_2_7::MemoryManager"** %fMemoryManager4, align 8, !dbg !2205
  %call5 = call i16* @_ZN11xercesc_2_79XMLString9replicateEPKtPNS_13MemoryManagerE(i16* %4, %"class.xercesc_2_7::MemoryManager"* %5), !dbg !2206
  %fPattern = getelementptr inbounds %"class.xercesc_2_7::RegularExpression", %"class.xercesc_2_7::RegularExpression"* %this1, i32 0, i32 7, !dbg !2207
  store i16* %call5, i16** %fPattern, align 8, !dbg !2208
  call void @llvm.dbg.declare(metadata %"class.xercesc_2_7::RegxParser"** %regxParser, metadata !2209, metadata !DIExpression()), !dbg !2213
  %fOptions6 = getelementptr inbounds %"class.xercesc_2_7::RegularExpression", %"class.xercesc_2_7::RegularExpression"* %this1, i32 0, i32 5, !dbg !2214
  %6 = load i32, i32* %fOptions6, align 8, !dbg !2214
  %call7 = call zeroext i1 @_ZN11xercesc_2_717RegularExpression5isSetEii(i32 %6, i32 512), !dbg !2216
  br i1 %call7, label %if.then, label %if.else, !dbg !2217

if.then:                                          ; preds = %invoke.cont
  %fMemoryManager8 = getelementptr inbounds %"class.xercesc_2_7::RegularExpression", %"class.xercesc_2_7::RegularExpression"* %this1, i32 0, i32 14, !dbg !2218
  %7 = load %"class.xercesc_2_7::MemoryManager"*, %"class.xercesc_2_7::MemoryManager"** %fMemoryManager8, align 8, !dbg !2218
  %call9 = call i8* @_ZN11xercesc_2_77XMemorynwEmPNS_13MemoryManagerE(i64 72, %"class.xercesc_2_7::MemoryManager"* %7), !dbg !2220
  %8 = bitcast i8* %call9 to %"class.xercesc_2_7::ParserForXMLSchema"*, !dbg !2220
  %fMemoryManager10 = getelementptr inbounds %"class.xercesc_2_7::RegularExpression", %"class.xercesc_2_7::RegularExpression"* %this1, i32 0, i32 14, !dbg !2221
  %9 = load %"class.xercesc_2_7::MemoryManager"*, %"class.xercesc_2_7::MemoryManager"** %fMemoryManager10, align 8, !dbg !2221
  invoke void @_ZN11xercesc_2_718ParserForXMLSchemaC1EPNS_13MemoryManagerE(%"class.xercesc_2_7::ParserForXMLSchema"* %8, %"class.xercesc_2_7::MemoryManager"* %9)
          to label %invoke.cont12 unwind label %lpad11, !dbg !2222

invoke.cont12:                                    ; preds = %if.then
  %10 = bitcast %"class.xercesc_2_7::ParserForXMLSchema"* %8 to %"class.xercesc_2_7::RegxParser"*, !dbg !2220
  store %"class.xercesc_2_7::RegxParser"* %10, %"class.xercesc_2_7::RegxParser"** %regxParser, align 8, !dbg !2223
  br label %if.end, !dbg !2224

lpad:                                             ; preds = %entry
  %11 = landingpad { i8*, i32 }
          cleanup, !dbg !2225
  %12 = extractvalue { i8*, i32 } %11, 0, !dbg !2225
  store i8* %12, i8** %exn.slot, align 8, !dbg !2225
  %13 = extractvalue { i8*, i32 } %11, 1, !dbg !2225
  store i32 %13, i32* %ehselector.slot, align 4, !dbg !2225
  call void @_ZN11xercesc_2_77XMemorydlEPvPNS_13MemoryManagerE(i8* %call, %"class.xercesc_2_7::MemoryManager"* %0) #9, !dbg !2195
  br label %eh.resume, !dbg !2195

lpad11:                                           ; preds = %if.then
  %14 = landingpad { i8*, i32 }
          cleanup, !dbg !2226
  %15 = extractvalue { i8*, i32 } %14, 0, !dbg !2226
  store i8* %15, i8** %exn.slot, align 8, !dbg !2226
  %16 = extractvalue { i8*, i32 } %14, 1, !dbg !2226
  store i32 %16, i32* %ehselector.slot, align 4, !dbg !2226
  call void @_ZN11xercesc_2_77XMemorydlEPvPNS_13MemoryManagerE(i8* %call9, %"class.xercesc_2_7::MemoryManager"* %7) #9, !dbg !2220
  br label %eh.resume, !dbg !2220

if.else:                                          ; preds = %invoke.cont
  %fMemoryManager13 = getelementptr inbounds %"class.xercesc_2_7::RegularExpression", %"class.xercesc_2_7::RegularExpression"* %this1, i32 0, i32 14, !dbg !2227
  %17 = load %"class.xercesc_2_7::MemoryManager"*, %"class.xercesc_2_7::MemoryManager"** %fMemoryManager13, align 8, !dbg !2227
  %call14 = call i8* @_ZN11xercesc_2_77XMemorynwEmPNS_13MemoryManagerE(i64 72, %"class.xercesc_2_7::MemoryManager"* %17), !dbg !2229
  %18 = bitcast i8* %call14 to %"class.xercesc_2_7::RegxParser"*, !dbg !2229
  %fMemoryManager15 = getelementptr inbounds %"class.xercesc_2_7::RegularExpression", %"class.xercesc_2_7::RegularExpression"* %this1, i32 0, i32 14, !dbg !2230
  %19 = load %"class.xercesc_2_7::MemoryManager"*, %"class.xercesc_2_7::MemoryManager"** %fMemoryManager15, align 8, !dbg !2230
  invoke void @_ZN11xercesc_2_710RegxParserC1EPNS_13MemoryManagerE(%"class.xercesc_2_7::RegxParser"* %18, %"class.xercesc_2_7::MemoryManager"* %19)
          to label %invoke.cont17 unwind label %lpad16, !dbg !2231

invoke.cont17:                                    ; preds = %if.else
  store %"class.xercesc_2_7::RegxParser"* %18, %"class.xercesc_2_7::RegxParser"** %regxParser, align 8, !dbg !2232
  br label %if.end

lpad16:                                           ; preds = %if.else
  %20 = landingpad { i8*, i32 }
          cleanup, !dbg !2233
  %21 = extractvalue { i8*, i32 } %20, 0, !dbg !2233
  store i8* %21, i8** %exn.slot, align 8, !dbg !2233
  %22 = extractvalue { i8*, i32 } %20, 1, !dbg !2233
  store i32 %22, i32* %ehselector.slot, align 4, !dbg !2233
  call void @_ZN11xercesc_2_77XMemorydlEPvPNS_13MemoryManagerE(i8* %call14, %"class.xercesc_2_7::MemoryManager"* %17) #9, !dbg !2229
  br label %eh.resume, !dbg !2229

if.end:                                           ; preds = %invoke.cont17, %invoke.cont12
  %23 = load %"class.xercesc_2_7::RegxParser"*, %"class.xercesc_2_7::RegxParser"** %regxParser, align 8, !dbg !2234
  %tobool = icmp ne %"class.xercesc_2_7::RegxParser"* %23, null, !dbg !2234
  br i1 %tobool, label %if.then18, label %if.end20, !dbg !2236

if.then18:                                        ; preds = %if.end
  %24 = load %"class.xercesc_2_7::RegxParser"*, %"class.xercesc_2_7::RegxParser"** %regxParser, align 8, !dbg !2237
  %fTokenFactory19 = getelementptr inbounds %"class.xercesc_2_7::RegularExpression", %"class.xercesc_2_7::RegularExpression"* %this1, i32 0, i32 13, !dbg !2239
  %25 = load %"class.xercesc_2_7::TokenFactory"*, %"class.xercesc_2_7::TokenFactory"** %fTokenFactory19, align 8, !dbg !2239
  call void @_ZN11xercesc_2_710RegxParser15setTokenFactoryEPNS_12TokenFactoryE(%"class.xercesc_2_7::RegxParser"* %24, %"class.xercesc_2_7::TokenFactory"* %25), !dbg !2240
  br label %if.end20, !dbg !2241

if.end20:                                         ; preds = %if.then18, %if.end
  call void @llvm.dbg.declare(metadata %"class.xercesc_2_7::Janitor"* %janRegxParser, metadata !2242, metadata !DIExpression()), !dbg !2286
  %26 = load %"class.xercesc_2_7::RegxParser"*, %"class.xercesc_2_7::RegxParser"** %regxParser, align 8, !dbg !2287
  call void @_ZN11xercesc_2_77JanitorINS_10RegxParserEEC2EPS1_(%"class.xercesc_2_7::Janitor"* %janRegxParser, %"class.xercesc_2_7::RegxParser"* %26), !dbg !2286
  %27 = load %"class.xercesc_2_7::RegxParser"*, %"class.xercesc_2_7::RegxParser"** %regxParser, align 8, !dbg !2288
  %fPattern21 = getelementptr inbounds %"class.xercesc_2_7::RegularExpression", %"class.xercesc_2_7::RegularExpression"* %this1, i32 0, i32 7, !dbg !2289
  %28 = load i16*, i16** %fPattern21, align 8, !dbg !2289
  %fOptions22 = getelementptr inbounds %"class.xercesc_2_7::RegularExpression", %"class.xercesc_2_7::RegularExpression"* %this1, i32 0, i32 5, !dbg !2290
  %29 = load i32, i32* %fOptions22, align 8, !dbg !2290
  %call25 = invoke %"class.xercesc_2_7::Token"* @_ZN11xercesc_2_710RegxParser5parseEPKti(%"class.xercesc_2_7::RegxParser"* %27, i16* %28, i32 %29)
          to label %invoke.cont24 unwind label %lpad23, !dbg !2291

invoke.cont24:                                    ; preds = %if.end20
  %fTokenTree = getelementptr inbounds %"class.xercesc_2_7::RegularExpression", %"class.xercesc_2_7::RegularExpression"* %this1, i32 0, i32 10, !dbg !2292
  store %"class.xercesc_2_7::Token"* %call25, %"class.xercesc_2_7::Token"** %fTokenTree, align 8, !dbg !2293
  %30 = load %"class.xercesc_2_7::RegxParser"*, %"class.xercesc_2_7::RegxParser"** %regxParser, align 8, !dbg !2294
  %call27 = invoke i32 @_ZNK11xercesc_2_710RegxParser10getNoParenEv(%"class.xercesc_2_7::RegxParser"* %30)
          to label %invoke.cont26 unwind label %lpad23, !dbg !2295

invoke.cont26:                                    ; preds = %invoke.cont24
  %fNoGroups = getelementptr inbounds %"class.xercesc_2_7::RegularExpression", %"class.xercesc_2_7::RegularExpression"* %this1, i32 0, i32 2, !dbg !2296
  store i32 %call27, i32* %fNoGroups, align 4, !dbg !2297
  %31 = load %"class.xercesc_2_7::RegxParser"*, %"class.xercesc_2_7::RegxParser"** %regxParser, align 8, !dbg !2298
  %call29 = invoke zeroext i1 @_ZNK11xercesc_2_710RegxParser17hasBackReferencesEv(%"class.xercesc_2_7::RegxParser"* %31)
          to label %invoke.cont28 unwind label %lpad23, !dbg !2299

invoke.cont28:                                    ; preds = %invoke.cont26
  %fHasBackReferences = getelementptr inbounds %"class.xercesc_2_7::RegularExpression", %"class.xercesc_2_7::RegularExpression"* %this1, i32 0, i32 0, !dbg !2300
  %frombool = zext i1 %call29 to i8, !dbg !2301
  store i8 %frombool, i8* %fHasBackReferences, align 8, !dbg !2301
  invoke void @_ZN11xercesc_2_717RegularExpression7prepareEv(%"class.xercesc_2_7::RegularExpression"* %this1)
          to label %invoke.cont30 unwind label %lpad23, !dbg !2302

invoke.cont30:                                    ; preds = %invoke.cont28
  call void @_ZN11xercesc_2_77JanitorINS_10RegxParserEED2Ev(%"class.xercesc_2_7::Janitor"* %janRegxParser) #9, !dbg !2225
  ret void, !dbg !2225

lpad23:                                           ; preds = %invoke.cont28, %invoke.cont26, %invoke.cont24, %if.end20
  %32 = landingpad { i8*, i32 }
          cleanup, !dbg !2225
  %33 = extractvalue { i8*, i32 } %32, 0, !dbg !2225
  store i8* %33, i8** %exn.slot, align 8, !dbg !2225
  %34 = extractvalue { i8*, i32 } %32, 1, !dbg !2225
  store i32 %34, i32* %ehselector.slot, align 4, !dbg !2225
  call void @_ZN11xercesc_2_77JanitorINS_10RegxParserEED2Ev(%"class.xercesc_2_7::Janitor"* %janRegxParser) #9, !dbg !2225
  br label %eh.resume, !dbg !2225

eh.resume:                                        ; preds = %lpad23, %lpad16, %lpad11, %lpad
  %exn = load i8*, i8** %exn.slot, align 8, !dbg !2195
  %sel = load i32, i32* %ehselector.slot, align 4, !dbg !2195
  %lpad.val = insertvalue { i8*, i32 } undef, i8* %exn, 0, !dbg !2195
  %lpad.val31 = insertvalue { i8*, i32 } %lpad.val, i32 %sel, 1, !dbg !2195
  resume { i8*, i32 } %lpad.val31, !dbg !2195
}

; Function Attrs: noinline nounwind uwtable
define linkonce_odr dso_local void @_ZN11xercesc_2_712ArrayJanitorItED2Ev(%"class.xercesc_2_7::ArrayJanitor"* %this) unnamed_addr #1 comdat align 2 personality i8* bitcast (i32 (...)* @__gxx_personality_v0 to i8*) !dbg !2303 {
entry:
  %this.addr = alloca %"class.xercesc_2_7::ArrayJanitor"*, align 8
  store %"class.xercesc_2_7::ArrayJanitor"* %this, %"class.xercesc_2_7::ArrayJanitor"** %this.addr, align 8
  call void @llvm.dbg.declare(metadata %"class.xercesc_2_7::ArrayJanitor"** %this.addr, metadata !2304, metadata !DIExpression()), !dbg !2305
  %this1 = load %"class.xercesc_2_7::ArrayJanitor"*, %"class.xercesc_2_7::ArrayJanitor"** %this.addr, align 8
  invoke void @_ZN11xercesc_2_712ArrayJanitorItE5resetEPt(%"class.xercesc_2_7::ArrayJanitor"* %this1, i16* null)
          to label %invoke.cont unwind label %terminate.lpad, !dbg !2306

invoke.cont:                                      ; preds = %entry
  ret void, !dbg !2308

terminate.lpad:                                   ; preds = %entry
  %0 = landingpad { i8*, i32 }
          catch i8* null, !dbg !2306
  %1 = extractvalue { i8*, i32 } %0, 0, !dbg !2306
  call void @__clang_call_terminate(i8* %1) #11, !dbg !2306
  unreachable, !dbg !2306
}

; Function Attrs: nounwind readnone
declare i32 @llvm.eh.typeid.for(i8*) #6

; Function Attrs: noinline nounwind uwtable
define linkonce_odr dso_local void @_ZN11xercesc_2_717JanitorMemFunCallINS_17RegularExpressionEE7releaseEv(%"class.xercesc_2_7::JanitorMemFunCall"* %this) #1 comdat align 2 !dbg !2309 {
entry:
  %this.addr = alloca %"class.xercesc_2_7::JanitorMemFunCall"*, align 8
  store %"class.xercesc_2_7::JanitorMemFunCall"* %this, %"class.xercesc_2_7::JanitorMemFunCall"** %this.addr, align 8
  call void @llvm.dbg.declare(metadata %"class.xercesc_2_7::JanitorMemFunCall"** %this.addr, metadata !2310, metadata !DIExpression()), !dbg !2311
  %this1 = load %"class.xercesc_2_7::JanitorMemFunCall"*, %"class.xercesc_2_7::JanitorMemFunCall"** %this.addr, align 8
  %fObject = getelementptr inbounds %"class.xercesc_2_7::JanitorMemFunCall", %"class.xercesc_2_7::JanitorMemFunCall"* %this1, i32 0, i32 0, !dbg !2312
  store %"class.xercesc_2_7::RegularExpression"* null, %"class.xercesc_2_7::RegularExpression"** %fObject, align 8, !dbg !2313
  %fToCall = getelementptr inbounds %"class.xercesc_2_7::JanitorMemFunCall", %"class.xercesc_2_7::JanitorMemFunCall"* %this1, i32 0, i32 1, !dbg !2314
  store { i64, i64 } zeroinitializer, { i64, i64 }* %fToCall, align 8, !dbg !2315
  ret void, !dbg !2316
}

declare dso_local void @__cxa_rethrow()

declare dso_local void @__cxa_end_catch()

; Function Attrs: noinline nounwind uwtable
define linkonce_odr dso_local void @_ZN11xercesc_2_717JanitorMemFunCallINS_17RegularExpressionEED2Ev(%"class.xercesc_2_7::JanitorMemFunCall"* %this) unnamed_addr #1 comdat align 2 personality i8* bitcast (i32 (...)* @__gxx_personality_v0 to i8*) !dbg !2317 {
entry:
  %this.addr = alloca %"class.xercesc_2_7::JanitorMemFunCall"*, align 8
  store %"class.xercesc_2_7::JanitorMemFunCall"* %this, %"class.xercesc_2_7::JanitorMemFunCall"** %this.addr, align 8
  call void @llvm.dbg.declare(metadata %"class.xercesc_2_7::JanitorMemFunCall"** %this.addr, metadata !2318, metadata !DIExpression()), !dbg !2319
  %this1 = load %"class.xercesc_2_7::JanitorMemFunCall"*, %"class.xercesc_2_7::JanitorMemFunCall"** %this.addr, align 8
  %fObject = getelementptr inbounds %"class.xercesc_2_7::JanitorMemFunCall", %"class.xercesc_2_7::JanitorMemFunCall"* %this1, i32 0, i32 0, !dbg !2320
  %0 = load %"class.xercesc_2_7::RegularExpression"*, %"class.xercesc_2_7::RegularExpression"** %fObject, align 8, !dbg !2320
  %cmp = icmp ne %"class.xercesc_2_7::RegularExpression"* %0, null, !dbg !2323
  br i1 %cmp, label %land.lhs.true, label %if.end, !dbg !2324

land.lhs.true:                                    ; preds = %entry
  %fToCall = getelementptr inbounds %"class.xercesc_2_7::JanitorMemFunCall", %"class.xercesc_2_7::JanitorMemFunCall"* %this1, i32 0, i32 1, !dbg !2325
  %1 = load { i64, i64 }, { i64, i64 }* %fToCall, align 8, !dbg !2325
  %lhs.memptr.ptr = extractvalue { i64, i64 } %1, 0, !dbg !2326
  %cmp.ptr = icmp ne i64 %lhs.memptr.ptr, 0, !dbg !2326
  %cmp.ptr.null = icmp ne i64 %lhs.memptr.ptr, 0, !dbg !2326
  %lhs.memptr.adj = extractvalue { i64, i64 } %1, 1, !dbg !2326
  %cmp.adj = icmp ne i64 %lhs.memptr.adj, 0, !dbg !2326
  %2 = and i1 %cmp.ptr.null, %cmp.adj, !dbg !2326
  %memptr.ne = or i1 %cmp.ptr, %2, !dbg !2326
  br i1 %memptr.ne, label %if.then, label %if.end, !dbg !2327

if.then:                                          ; preds = %land.lhs.true
  %fObject2 = getelementptr inbounds %"class.xercesc_2_7::JanitorMemFunCall", %"class.xercesc_2_7::JanitorMemFunCall"* %this1, i32 0, i32 0, !dbg !2328
  %3 = load %"class.xercesc_2_7::RegularExpression"*, %"class.xercesc_2_7::RegularExpression"** %fObject2, align 8, !dbg !2328
  %fToCall3 = getelementptr inbounds %"class.xercesc_2_7::JanitorMemFunCall", %"class.xercesc_2_7::JanitorMemFunCall"* %this1, i32 0, i32 1, !dbg !2330
  %4 = load { i64, i64 }, { i64, i64 }* %fToCall3, align 8, !dbg !2330
  %memptr.adj = extractvalue { i64, i64 } %4, 1, !dbg !2331
  %5 = bitcast %"class.xercesc_2_7::RegularExpression"* %3 to i8*, !dbg !2331
  %6 = getelementptr inbounds i8, i8* %5, i64 %memptr.adj, !dbg !2331
  %this.adjusted = bitcast i8* %6 to %"class.xercesc_2_7::RegularExpression"*, !dbg !2331
  %memptr.ptr = extractvalue { i64, i64 } %4, 0, !dbg !2331
  %7 = and i64 %memptr.ptr, 1, !dbg !2331
  %memptr.isvirtual = icmp ne i64 %7, 0, !dbg !2331
  br i1 %memptr.isvirtual, label %memptr.virtual, label %memptr.nonvirtual, !dbg !2331

memptr.virtual:                                   ; preds = %if.then
  %8 = bitcast %"class.xercesc_2_7::RegularExpression"* %this.adjusted to i8**, !dbg !2331
  %vtable = load i8*, i8** %8, align 8, !dbg !2331
  %9 = sub i64 %memptr.ptr, 1, !dbg !2331
  %10 = getelementptr i8, i8* %vtable, i64 %9, !dbg !2331, !nosanitize !1628
  %11 = bitcast i8* %10 to void (%"class.xercesc_2_7::RegularExpression"*)**, !dbg !2331, !nosanitize !1628
  %memptr.virtualfn = load void (%"class.xercesc_2_7::RegularExpression"*)*, void (%"class.xercesc_2_7::RegularExpression"*)** %11, align 8, !dbg !2331, !nosanitize !1628
  br label %memptr.end, !dbg !2331

memptr.nonvirtual:                                ; preds = %if.then
  %memptr.nonvirtualfn = inttoptr i64 %memptr.ptr to void (%"class.xercesc_2_7::RegularExpression"*)*, !dbg !2331
  br label %memptr.end, !dbg !2331

memptr.end:                                       ; preds = %memptr.nonvirtual, %memptr.virtual
  %12 = phi void (%"class.xercesc_2_7::RegularExpression"*)* [ %memptr.virtualfn, %memptr.virtual ], [ %memptr.nonvirtualfn, %memptr.nonvirtual ], !dbg !2331
  invoke void %12(%"class.xercesc_2_7::RegularExpression"* %this.adjusted)
          to label %invoke.cont unwind label %terminate.lpad, !dbg !2331

invoke.cont:                                      ; preds = %memptr.end
  br label %if.end, !dbg !2332

if.end:                                           ; preds = %invoke.cont, %land.lhs.true, %entry
  ret void, !dbg !2333

terminate.lpad:                                   ; preds = %memptr.end
  %13 = landingpad { i8*, i32 }
          catch i8* null, !dbg !2331
  %14 = extractvalue { i8*, i32 } %13, 0, !dbg !2331
  call void @__clang_call_terminate(i8* %14) #11, !dbg !2331
  unreachable, !dbg !2331
}

; Function Attrs: nounwind
declare dso_local void @_ZN11xercesc_2_79OpFactoryD1Ev(%"class.xercesc_2_7::OpFactory"*) unnamed_addr #7

; Function Attrs: noinline uwtable
define dso_local void @_ZN11xercesc_2_717RegularExpressionC2EPKcS2_PNS_13MemoryManagerE(%"class.xercesc_2_7::RegularExpression"* %this, i8* %pattern, i8* %options, %"class.xercesc_2_7::MemoryManager"* %manager) unnamed_addr #3 align 2 personality i8* bitcast (i32 (...)* @__gxx_personality_v0 to i8*) !dbg !2334 {
entry:
  %this.addr = alloca %"class.xercesc_2_7::RegularExpression"*, align 8
  %pattern.addr = alloca i8*, align 8
  %options.addr = alloca i8*, align 8
  %manager.addr = alloca %"class.xercesc_2_7::MemoryManager"*, align 8
  %cleanup = alloca %"class.xercesc_2_7::JanitorMemFunCall", align 8
  %coerce = alloca { i64, i64 }, align 8
  %exn.slot = alloca i8*
  %ehselector.slot = alloca i32
  %tmpBuf = alloca i16*, align 8
  %janBuf = alloca %"class.xercesc_2_7::ArrayJanitor", align 8
  %tmpOptions = alloca i16*, align 8
  %janOps = alloca %"class.xercesc_2_7::ArrayJanitor", align 8
  %0 = alloca %"class.xercesc_2_7::OutOfMemoryException"*, align 8
  store %"class.xercesc_2_7::RegularExpression"* %this, %"class.xercesc_2_7::RegularExpression"** %this.addr, align 8
  call void @llvm.dbg.declare(metadata %"class.xercesc_2_7::RegularExpression"** %this.addr, metadata !2335, metadata !DIExpression()), !dbg !2336
  store i8* %pattern, i8** %pattern.addr, align 8
  call void @llvm.dbg.declare(metadata i8** %pattern.addr, metadata !2337, metadata !DIExpression()), !dbg !2338
  store i8* %options, i8** %options.addr, align 8
  call void @llvm.dbg.declare(metadata i8** %options.addr, metadata !2339, metadata !DIExpression()), !dbg !2340
  store %"class.xercesc_2_7::MemoryManager"* %manager, %"class.xercesc_2_7::MemoryManager"** %manager.addr, align 8
  call void @llvm.dbg.declare(metadata %"class.xercesc_2_7::MemoryManager"** %manager.addr, metadata !2341, metadata !DIExpression()), !dbg !2342
  %this1 = load %"class.xercesc_2_7::RegularExpression"*, %"class.xercesc_2_7::RegularExpression"** %this.addr, align 8
  %1 = bitcast %"class.xercesc_2_7::RegularExpression"* %this1 to %"class.xercesc_2_7::XMemory"*, !dbg !2343
  call void @_ZN11xercesc_2_77XMemoryC2Ev(%"class.xercesc_2_7::XMemory"* %1), !dbg !2344
  %fHasBackReferences = getelementptr inbounds %"class.xercesc_2_7::RegularExpression", %"class.xercesc_2_7::RegularExpression"* %this1, i32 0, i32 0, !dbg !2345
  store i8 0, i8* %fHasBackReferences, align 8, !dbg !2345
  %fFixedStringOnly = getelementptr inbounds %"class.xercesc_2_7::RegularExpression", %"class.xercesc_2_7::RegularExpression"* %this1, i32 0, i32 1, !dbg !2346
  store i8 0, i8* %fFixedStringOnly, align 1, !dbg !2346
  %fNoGroups = getelementptr inbounds %"class.xercesc_2_7::RegularExpression", %"class.xercesc_2_7::RegularExpression"* %this1, i32 0, i32 2, !dbg !2347
  store i32 0, i32* %fNoGroups, align 4, !dbg !2347
  %fMinLength = getelementptr inbounds %"class.xercesc_2_7::RegularExpression", %"class.xercesc_2_7::RegularExpression"* %this1, i32 0, i32 3, !dbg !2348
  store i32 0, i32* %fMinLength, align 8, !dbg !2348
  %fNoClosures = getelementptr inbounds %"class.xercesc_2_7::RegularExpression", %"class.xercesc_2_7::RegularExpression"* %this1, i32 0, i32 4, !dbg !2349
  store i32 0, i32* %fNoClosures, align 4, !dbg !2349
  %fOptions = getelementptr inbounds %"class.xercesc_2_7::RegularExpression", %"class.xercesc_2_7::RegularExpression"* %this1, i32 0, i32 5, !dbg !2350
  store i32 0, i32* %fOptions, align 8, !dbg !2350
  %fBMPattern = getelementptr inbounds %"class.xercesc_2_7::RegularExpression", %"class.xercesc_2_7::RegularExpression"* %this1, i32 0, i32 6, !dbg !2351
  store %"class.xercesc_2_7::BMPattern"* null, %"class.xercesc_2_7::BMPattern"** %fBMPattern, align 8, !dbg !2351
  %fPattern = getelementptr inbounds %"class.xercesc_2_7::RegularExpression", %"class.xercesc_2_7::RegularExpression"* %this1, i32 0, i32 7, !dbg !2352
  store i16* null, i16** %fPattern, align 8, !dbg !2352
  %fFixedString = getelementptr inbounds %"class.xercesc_2_7::RegularExpression", %"class.xercesc_2_7::RegularExpression"* %this1, i32 0, i32 8, !dbg !2353
  store i16* null, i16** %fFixedString, align 8, !dbg !2353
  %fOperations = getelementptr inbounds %"class.xercesc_2_7::RegularExpression", %"class.xercesc_2_7::RegularExpression"* %this1, i32 0, i32 9, !dbg !2354
  store %"class.xercesc_2_7::Op"* null, %"class.xercesc_2_7::Op"** %fOperations, align 8, !dbg !2354
  %fTokenTree = getelementptr inbounds %"class.xercesc_2_7::RegularExpression", %"class.xercesc_2_7::RegularExpression"* %this1, i32 0, i32 10, !dbg !2355
  store %"class.xercesc_2_7::Token"* null, %"class.xercesc_2_7::Token"** %fTokenTree, align 8, !dbg !2355
  %fFirstChar = getelementptr inbounds %"class.xercesc_2_7::RegularExpression", %"class.xercesc_2_7::RegularExpression"* %this1, i32 0, i32 11, !dbg !2356
  store %"class.xercesc_2_7::RangeToken"* null, %"class.xercesc_2_7::RangeToken"** %fFirstChar, align 8, !dbg !2356
  %fOpFactory = getelementptr inbounds %"class.xercesc_2_7::RegularExpression", %"class.xercesc_2_7::RegularExpression"* %this1, i32 0, i32 12, !dbg !2357
  %2 = load %"class.xercesc_2_7::MemoryManager"*, %"class.xercesc_2_7::MemoryManager"** %manager.addr, align 8, !dbg !2358
  call void @_ZN11xercesc_2_79OpFactoryC1EPNS_13MemoryManagerE(%"class.xercesc_2_7::OpFactory"* %fOpFactory, %"class.xercesc_2_7::MemoryManager"* %2), !dbg !2357
  %fTokenFactory = getelementptr inbounds %"class.xercesc_2_7::RegularExpression", %"class.xercesc_2_7::RegularExpression"* %this1, i32 0, i32 13, !dbg !2359
  store %"class.xercesc_2_7::TokenFactory"* null, %"class.xercesc_2_7::TokenFactory"** %fTokenFactory, align 8, !dbg !2359
  %fMemoryManager = getelementptr inbounds %"class.xercesc_2_7::RegularExpression", %"class.xercesc_2_7::RegularExpression"* %this1, i32 0, i32 14, !dbg !2360
  %3 = load %"class.xercesc_2_7::MemoryManager"*, %"class.xercesc_2_7::MemoryManager"** %manager.addr, align 8, !dbg !2361
  store %"class.xercesc_2_7::MemoryManager"* %3, %"class.xercesc_2_7::MemoryManager"** %fMemoryManager, align 8, !dbg !2360
  call void @llvm.dbg.declare(metadata %"class.xercesc_2_7::JanitorMemFunCall"* %cleanup, metadata !2362, metadata !DIExpression()), !dbg !2364
  store { i64, i64 } { i64 ptrtoint (void (%"class.xercesc_2_7::RegularExpression"*)* @_ZN11xercesc_2_717RegularExpression7cleanUpEv to i64), i64 0 }, { i64, i64 }* %coerce, align 8, !dbg !2364
  %4 = getelementptr inbounds { i64, i64 }, { i64, i64 }* %coerce, i32 0, i32 0, !dbg !2364
  %5 = load i64, i64* %4, align 8, !dbg !2364
  %6 = getelementptr inbounds { i64, i64 }, { i64, i64 }* %coerce, i32 0, i32 1, !dbg !2364
  %7 = load i64, i64* %6, align 8, !dbg !2364
  invoke void @_ZN11xercesc_2_717JanitorMemFunCallINS_17RegularExpressionEEC2EPS1_MS1_FvvE(%"class.xercesc_2_7::JanitorMemFunCall"* %cleanup, %"class.xercesc_2_7::RegularExpression"* %this1, i64 %5, i64 %7)
          to label %invoke.cont unwind label %lpad, !dbg !2364

invoke.cont:                                      ; preds = %entry
  call void @llvm.dbg.declare(metadata i16** %tmpBuf, metadata !2365, metadata !DIExpression()), !dbg !2367
  %8 = load i8*, i8** %pattern.addr, align 8, !dbg !2368
  %fMemoryManager2 = getelementptr inbounds %"class.xercesc_2_7::RegularExpression", %"class.xercesc_2_7::RegularExpression"* %this1, i32 0, i32 14, !dbg !2369
  %9 = load %"class.xercesc_2_7::MemoryManager"*, %"class.xercesc_2_7::MemoryManager"** %fMemoryManager2, align 8, !dbg !2369
  %call = invoke i16* @_ZN11xercesc_2_79XMLString9transcodeEPKcPNS_13MemoryManagerE(i8* %8, %"class.xercesc_2_7::MemoryManager"* %9)
          to label %invoke.cont4 unwind label %lpad3, !dbg !2370

invoke.cont4:                                     ; preds = %invoke.cont
  store i16* %call, i16** %tmpBuf, align 8, !dbg !2367
  call void @llvm.dbg.declare(metadata %"class.xercesc_2_7::ArrayJanitor"* %janBuf, metadata !2371, metadata !DIExpression()), !dbg !2372
  %10 = load i16*, i16** %tmpBuf, align 8, !dbg !2373
  %fMemoryManager5 = getelementptr inbounds %"class.xercesc_2_7::RegularExpression", %"class.xercesc_2_7::RegularExpression"* %this1, i32 0, i32 14, !dbg !2374
  %11 = load %"class.xercesc_2_7::MemoryManager"*, %"class.xercesc_2_7::MemoryManager"** %fMemoryManager5, align 8, !dbg !2374
  invoke void @_ZN11xercesc_2_712ArrayJanitorItEC2EPtPNS_13MemoryManagerE(%"class.xercesc_2_7::ArrayJanitor"* %janBuf, i16* %10, %"class.xercesc_2_7::MemoryManager"* %11)
          to label %invoke.cont6 unwind label %lpad3, !dbg !2372

invoke.cont6:                                     ; preds = %invoke.cont4
  call void @llvm.dbg.declare(metadata i16** %tmpOptions, metadata !2375, metadata !DIExpression()), !dbg !2376
  %12 = load i8*, i8** %options.addr, align 8, !dbg !2377
  %fMemoryManager7 = getelementptr inbounds %"class.xercesc_2_7::RegularExpression", %"class.xercesc_2_7::RegularExpression"* %this1, i32 0, i32 14, !dbg !2378
  %13 = load %"class.xercesc_2_7::MemoryManager"*, %"class.xercesc_2_7::MemoryManager"** %fMemoryManager7, align 8, !dbg !2378
  %call10 = invoke i16* @_ZN11xercesc_2_79XMLString9transcodeEPKcPNS_13MemoryManagerE(i8* %12, %"class.xercesc_2_7::MemoryManager"* %13)
          to label %invoke.cont9 unwind label %lpad8, !dbg !2379

invoke.cont9:                                     ; preds = %invoke.cont6
  store i16* %call10, i16** %tmpOptions, align 8, !dbg !2376
  call void @llvm.dbg.declare(metadata %"class.xercesc_2_7::ArrayJanitor"* %janOps, metadata !2380, metadata !DIExpression()), !dbg !2381
  %14 = load i16*, i16** %tmpOptions, align 8, !dbg !2382
  %fMemoryManager11 = getelementptr inbounds %"class.xercesc_2_7::RegularExpression", %"class.xercesc_2_7::RegularExpression"* %this1, i32 0, i32 14, !dbg !2383
  %15 = load %"class.xercesc_2_7::MemoryManager"*, %"class.xercesc_2_7::MemoryManager"** %fMemoryManager11, align 8, !dbg !2383
  invoke void @_ZN11xercesc_2_712ArrayJanitorItEC2EPtPNS_13MemoryManagerE(%"class.xercesc_2_7::ArrayJanitor"* %janOps, i16* %14, %"class.xercesc_2_7::MemoryManager"* %15)
          to label %invoke.cont12 unwind label %lpad8, !dbg !2381

invoke.cont12:                                    ; preds = %invoke.cont9
  %16 = load i16*, i16** %tmpBuf, align 8, !dbg !2384
  %17 = load i16*, i16** %tmpOptions, align 8, !dbg !2385
  invoke void @_ZN11xercesc_2_717RegularExpression10setPatternEPKtS2_(%"class.xercesc_2_7::RegularExpression"* %this1, i16* %16, i16* %17)
          to label %invoke.cont14 unwind label %lpad13, !dbg !2386

invoke.cont14:                                    ; preds = %invoke.cont12
  call void @_ZN11xercesc_2_712ArrayJanitorItED2Ev(%"class.xercesc_2_7::ArrayJanitor"* %janOps) #9, !dbg !2387
  call void @_ZN11xercesc_2_712ArrayJanitorItED2Ev(%"class.xercesc_2_7::ArrayJanitor"* %janBuf) #9, !dbg !2387
  br label %try.cont, !dbg !2388

lpad:                                             ; preds = %entry
  %18 = landingpad { i8*, i32 }
          cleanup, !dbg !2389
  %19 = extractvalue { i8*, i32 } %18, 0, !dbg !2389
  store i8* %19, i8** %exn.slot, align 8, !dbg !2389
  %20 = extractvalue { i8*, i32 } %18, 1, !dbg !2389
  store i32 %20, i32* %ehselector.slot, align 4, !dbg !2389
  br label %ehcleanup22, !dbg !2389

lpad3:                                            ; preds = %invoke.cont4, %invoke.cont
  %21 = landingpad { i8*, i32 }
          cleanup
          catch i8* bitcast ({ i8*, i8*, i8* }* @_ZTIN11xercesc_2_720OutOfMemoryExceptionE to i8*), !dbg !2390
  %22 = extractvalue { i8*, i32 } %21, 0, !dbg !2390
  store i8* %22, i8** %exn.slot, align 8, !dbg !2390
  %23 = extractvalue { i8*, i32 } %21, 1, !dbg !2390
  store i32 %23, i32* %ehselector.slot, align 4, !dbg !2390
  br label %catch.dispatch, !dbg !2390

lpad8:                                            ; preds = %invoke.cont9, %invoke.cont6
  %24 = landingpad { i8*, i32 }
          cleanup
          catch i8* bitcast ({ i8*, i8*, i8* }* @_ZTIN11xercesc_2_720OutOfMemoryExceptionE to i8*), !dbg !2390
  %25 = extractvalue { i8*, i32 } %24, 0, !dbg !2390
  store i8* %25, i8** %exn.slot, align 8, !dbg !2390
  %26 = extractvalue { i8*, i32 } %24, 1, !dbg !2390
  store i32 %26, i32* %ehselector.slot, align 4, !dbg !2390
  br label %ehcleanup, !dbg !2390

lpad13:                                           ; preds = %invoke.cont12
  %27 = landingpad { i8*, i32 }
          cleanup
          catch i8* bitcast ({ i8*, i8*, i8* }* @_ZTIN11xercesc_2_720OutOfMemoryExceptionE to i8*), !dbg !2390
  %28 = extractvalue { i8*, i32 } %27, 0, !dbg !2390
  store i8* %28, i8** %exn.slot, align 8, !dbg !2390
  %29 = extractvalue { i8*, i32 } %27, 1, !dbg !2390
  store i32 %29, i32* %ehselector.slot, align 4, !dbg !2390
  call void @_ZN11xercesc_2_712ArrayJanitorItED2Ev(%"class.xercesc_2_7::ArrayJanitor"* %janOps) #9, !dbg !2387
  br label %ehcleanup, !dbg !2387

ehcleanup:                                        ; preds = %lpad13, %lpad8
  call void @_ZN11xercesc_2_712ArrayJanitorItED2Ev(%"class.xercesc_2_7::ArrayJanitor"* %janBuf) #9, !dbg !2387
  br label %catch.dispatch, !dbg !2387

catch.dispatch:                                   ; preds = %ehcleanup, %lpad3
  %sel = load i32, i32* %ehselector.slot, align 4, !dbg !2388
  %30 = call i32 @llvm.eh.typeid.for(i8* bitcast ({ i8*, i8*, i8* }* @_ZTIN11xercesc_2_720OutOfMemoryExceptionE to i8*)) #9, !dbg !2388
  %matches = icmp eq i32 %sel, %30, !dbg !2388
  br i1 %matches, label %catch, label %ehcleanup21, !dbg !2388

catch:                                            ; preds = %catch.dispatch
  call void @llvm.dbg.declare(metadata %"class.xercesc_2_7::OutOfMemoryException"** %0, metadata !2391, metadata !DIExpression()), !dbg !2392
  %exn = load i8*, i8** %exn.slot, align 8, !dbg !2388
  %31 = call i8* @__cxa_begin_catch(i8* %exn) #9, !dbg !2388
  %exn.byref = bitcast i8* %31 to %"class.xercesc_2_7::OutOfMemoryException"*, !dbg !2388
  store %"class.xercesc_2_7::OutOfMemoryException"* %exn.byref, %"class.xercesc_2_7::OutOfMemoryException"** %0, align 8, !dbg !2388
  invoke void @_ZN11xercesc_2_717JanitorMemFunCallINS_17RegularExpressionEE7releaseEv(%"class.xercesc_2_7::JanitorMemFunCall"* %cleanup)
          to label %invoke.cont16 unwind label %lpad15, !dbg !2393

invoke.cont16:                                    ; preds = %catch
  invoke void @__cxa_rethrow() #12
          to label %unreachable unwind label %lpad15, !dbg !2395

lpad15:                                           ; preds = %invoke.cont16, %catch
  %32 = landingpad { i8*, i32 }
          cleanup, !dbg !2396
  %33 = extractvalue { i8*, i32 } %32, 0, !dbg !2396
  store i8* %33, i8** %exn.slot, align 8, !dbg !2396
  %34 = extractvalue { i8*, i32 } %32, 1, !dbg !2396
  store i32 %34, i32* %ehselector.slot, align 4, !dbg !2396
  invoke void @__cxa_end_catch()
          to label %invoke.cont18 unwind label %terminate.lpad, !dbg !2397

invoke.cont18:                                    ; preds = %lpad15
  br label %ehcleanup21, !dbg !2397

try.cont:                                         ; preds = %invoke.cont14
  invoke void @_ZN11xercesc_2_717JanitorMemFunCallINS_17RegularExpressionEE7releaseEv(%"class.xercesc_2_7::JanitorMemFunCall"* %cleanup)
          to label %invoke.cont20 unwind label %lpad19, !dbg !2398

invoke.cont20:                                    ; preds = %try.cont
  call void @_ZN11xercesc_2_717JanitorMemFunCallINS_17RegularExpressionEED2Ev(%"class.xercesc_2_7::JanitorMemFunCall"* %cleanup) #9, !dbg !2399
  ret void, !dbg !2399

lpad19:                                           ; preds = %try.cont
  %35 = landingpad { i8*, i32 }
          cleanup, !dbg !2389
  %36 = extractvalue { i8*, i32 } %35, 0, !dbg !2389
  store i8* %36, i8** %exn.slot, align 8, !dbg !2389
  %37 = extractvalue { i8*, i32 } %35, 1, !dbg !2389
  store i32 %37, i32* %ehselector.slot, align 4, !dbg !2389
  br label %ehcleanup21, !dbg !2389

ehcleanup21:                                      ; preds = %lpad19, %invoke.cont18, %catch.dispatch
  call void @_ZN11xercesc_2_717JanitorMemFunCallINS_17RegularExpressionEED2Ev(%"class.xercesc_2_7::JanitorMemFunCall"* %cleanup) #9, !dbg !2399
  br label %ehcleanup22, !dbg !2399

ehcleanup22:                                      ; preds = %ehcleanup21, %lpad
  call void @_ZN11xercesc_2_79OpFactoryD1Ev(%"class.xercesc_2_7::OpFactory"* %fOpFactory) #9, !dbg !2389
  br label %eh.resume, !dbg !2389

eh.resume:                                        ; preds = %ehcleanup22
  %exn23 = load i8*, i8** %exn.slot, align 8, !dbg !2389
  %sel24 = load i32, i32* %ehselector.slot, align 4, !dbg !2389
  %lpad.val = insertvalue { i8*, i32 } undef, i8* %exn23, 0, !dbg !2389
  %lpad.val25 = insertvalue { i8*, i32 } %lpad.val, i32 %sel24, 1, !dbg !2389
  resume { i8*, i32 } %lpad.val25, !dbg !2389

terminate.lpad:                                   ; preds = %lpad15
  %38 = landingpad { i8*, i32 }
          catch i8* null, !dbg !2397
  %39 = extractvalue { i8*, i32 } %38, 0, !dbg !2397
  call void @__clang_call_terminate(i8* %39) #11, !dbg !2397
  unreachable, !dbg !2397

unreachable:                                      ; preds = %invoke.cont16
  unreachable
}

; Function Attrs: noinline uwtable
define dso_local void @_ZN11xercesc_2_717RegularExpressionC2EPKtPNS_13MemoryManagerE(%"class.xercesc_2_7::RegularExpression"* %this, i16* %pattern, %"class.xercesc_2_7::MemoryManager"* %manager) unnamed_addr #3 align 2 personality i8* bitcast (i32 (...)* @__gxx_personality_v0 to i8*) !dbg !2400 {
entry:
  %this.addr = alloca %"class.xercesc_2_7::RegularExpression"*, align 8
  %pattern.addr = alloca i16*, align 8
  %manager.addr = alloca %"class.xercesc_2_7::MemoryManager"*, align 8
  %cleanup = alloca %"class.xercesc_2_7::JanitorMemFunCall", align 8
  %coerce = alloca { i64, i64 }, align 8
  %exn.slot = alloca i8*
  %ehselector.slot = alloca i32
  %0 = alloca %"class.xercesc_2_7::OutOfMemoryException"*, align 8
  store %"class.xercesc_2_7::RegularExpression"* %this, %"class.xercesc_2_7::RegularExpression"** %this.addr, align 8
  call void @llvm.dbg.declare(metadata %"class.xercesc_2_7::RegularExpression"** %this.addr, metadata !2401, metadata !DIExpression()), !dbg !2402
  store i16* %pattern, i16** %pattern.addr, align 8
  call void @llvm.dbg.declare(metadata i16** %pattern.addr, metadata !2403, metadata !DIExpression()), !dbg !2404
  store %"class.xercesc_2_7::MemoryManager"* %manager, %"class.xercesc_2_7::MemoryManager"** %manager.addr, align 8
  call void @llvm.dbg.declare(metadata %"class.xercesc_2_7::MemoryManager"** %manager.addr, metadata !2405, metadata !DIExpression()), !dbg !2406
  %this1 = load %"class.xercesc_2_7::RegularExpression"*, %"class.xercesc_2_7::RegularExpression"** %this.addr, align 8
  %1 = bitcast %"class.xercesc_2_7::RegularExpression"* %this1 to %"class.xercesc_2_7::XMemory"*, !dbg !2407
  call void @_ZN11xercesc_2_77XMemoryC2Ev(%"class.xercesc_2_7::XMemory"* %1), !dbg !2408
  %fHasBackReferences = getelementptr inbounds %"class.xercesc_2_7::RegularExpression", %"class.xercesc_2_7::RegularExpression"* %this1, i32 0, i32 0, !dbg !2409
  store i8 0, i8* %fHasBackReferences, align 8, !dbg !2409
  %fFixedStringOnly = getelementptr inbounds %"class.xercesc_2_7::RegularExpression", %"class.xercesc_2_7::RegularExpression"* %this1, i32 0, i32 1, !dbg !2410
  store i8 0, i8* %fFixedStringOnly, align 1, !dbg !2410
  %fNoGroups = getelementptr inbounds %"class.xercesc_2_7::RegularExpression", %"class.xercesc_2_7::RegularExpression"* %this1, i32 0, i32 2, !dbg !2411
  store i32 0, i32* %fNoGroups, align 4, !dbg !2411
  %fMinLength = getelementptr inbounds %"class.xercesc_2_7::RegularExpression", %"class.xercesc_2_7::RegularExpression"* %this1, i32 0, i32 3, !dbg !2412
  store i32 0, i32* %fMinLength, align 8, !dbg !2412
  %fNoClosures = getelementptr inbounds %"class.xercesc_2_7::RegularExpression", %"class.xercesc_2_7::RegularExpression"* %this1, i32 0, i32 4, !dbg !2413
  store i32 0, i32* %fNoClosures, align 4, !dbg !2413
  %fOptions = getelementptr inbounds %"class.xercesc_2_7::RegularExpression", %"class.xercesc_2_7::RegularExpression"* %this1, i32 0, i32 5, !dbg !2414
  store i32 0, i32* %fOptions, align 8, !dbg !2414
  %fBMPattern = getelementptr inbounds %"class.xercesc_2_7::RegularExpression", %"class.xercesc_2_7::RegularExpression"* %this1, i32 0, i32 6, !dbg !2415
  store %"class.xercesc_2_7::BMPattern"* null, %"class.xercesc_2_7::BMPattern"** %fBMPattern, align 8, !dbg !2415
  %fPattern = getelementptr inbounds %"class.xercesc_2_7::RegularExpression", %"class.xercesc_2_7::RegularExpression"* %this1, i32 0, i32 7, !dbg !2416
  store i16* null, i16** %fPattern, align 8, !dbg !2416
  %fFixedString = getelementptr inbounds %"class.xercesc_2_7::RegularExpression", %"class.xercesc_2_7::RegularExpression"* %this1, i32 0, i32 8, !dbg !2417
  store i16* null, i16** %fFixedString, align 8, !dbg !2417
  %fOperations = getelementptr inbounds %"class.xercesc_2_7::RegularExpression", %"class.xercesc_2_7::RegularExpression"* %this1, i32 0, i32 9, !dbg !2418
  store %"class.xercesc_2_7::Op"* null, %"class.xercesc_2_7::Op"** %fOperations, align 8, !dbg !2418
  %fTokenTree = getelementptr inbounds %"class.xercesc_2_7::RegularExpression", %"class.xercesc_2_7::RegularExpression"* %this1, i32 0, i32 10, !dbg !2419
  store %"class.xercesc_2_7::Token"* null, %"class.xercesc_2_7::Token"** %fTokenTree, align 8, !dbg !2419
  %fFirstChar = getelementptr inbounds %"class.xercesc_2_7::RegularExpression", %"class.xercesc_2_7::RegularExpression"* %this1, i32 0, i32 11, !dbg !2420
  store %"class.xercesc_2_7::RangeToken"* null, %"class.xercesc_2_7::RangeToken"** %fFirstChar, align 8, !dbg !2420
  %fOpFactory = getelementptr inbounds %"class.xercesc_2_7::RegularExpression", %"class.xercesc_2_7::RegularExpression"* %this1, i32 0, i32 12, !dbg !2421
  %2 = load %"class.xercesc_2_7::MemoryManager"*, %"class.xercesc_2_7::MemoryManager"** %manager.addr, align 8, !dbg !2422
  call void @_ZN11xercesc_2_79OpFactoryC1EPNS_13MemoryManagerE(%"class.xercesc_2_7::OpFactory"* %fOpFactory, %"class.xercesc_2_7::MemoryManager"* %2), !dbg !2421
  %fTokenFactory = getelementptr inbounds %"class.xercesc_2_7::RegularExpression", %"class.xercesc_2_7::RegularExpression"* %this1, i32 0, i32 13, !dbg !2423
  store %"class.xercesc_2_7::TokenFactory"* null, %"class.xercesc_2_7::TokenFactory"** %fTokenFactory, align 8, !dbg !2423
  %fMemoryManager = getelementptr inbounds %"class.xercesc_2_7::RegularExpression", %"class.xercesc_2_7::RegularExpression"* %this1, i32 0, i32 14, !dbg !2424
  %3 = load %"class.xercesc_2_7::MemoryManager"*, %"class.xercesc_2_7::MemoryManager"** %manager.addr, align 8, !dbg !2425
  store %"class.xercesc_2_7::MemoryManager"* %3, %"class.xercesc_2_7::MemoryManager"** %fMemoryManager, align 8, !dbg !2424
  call void @llvm.dbg.declare(metadata %"class.xercesc_2_7::JanitorMemFunCall"* %cleanup, metadata !2426, metadata !DIExpression()), !dbg !2428
  store { i64, i64 } { i64 ptrtoint (void (%"class.xercesc_2_7::RegularExpression"*)* @_ZN11xercesc_2_717RegularExpression7cleanUpEv to i64), i64 0 }, { i64, i64 }* %coerce, align 8, !dbg !2428
  %4 = getelementptr inbounds { i64, i64 }, { i64, i64 }* %coerce, i32 0, i32 0, !dbg !2428
  %5 = load i64, i64* %4, align 8, !dbg !2428
  %6 = getelementptr inbounds { i64, i64 }, { i64, i64 }* %coerce, i32 0, i32 1, !dbg !2428
  %7 = load i64, i64* %6, align 8, !dbg !2428
  invoke void @_ZN11xercesc_2_717JanitorMemFunCallINS_17RegularExpressionEEC2EPS1_MS1_FvvE(%"class.xercesc_2_7::JanitorMemFunCall"* %cleanup, %"class.xercesc_2_7::RegularExpression"* %this1, i64 %5, i64 %7)
          to label %invoke.cont unwind label %lpad, !dbg !2428

invoke.cont:                                      ; preds = %entry
  %8 = load i16*, i16** %pattern.addr, align 8, !dbg !2429
  invoke void @_ZN11xercesc_2_717RegularExpression10setPatternEPKtS2_(%"class.xercesc_2_7::RegularExpression"* %this1, i16* %8, i16* null)
          to label %invoke.cont3 unwind label %lpad2, !dbg !2431

invoke.cont3:                                     ; preds = %invoke.cont
  br label %try.cont, !dbg !2432

lpad:                                             ; preds = %entry
  %9 = landingpad { i8*, i32 }
          cleanup, !dbg !2433
  %10 = extractvalue { i8*, i32 } %9, 0, !dbg !2433
  store i8* %10, i8** %exn.slot, align 8, !dbg !2433
  %11 = extractvalue { i8*, i32 } %9, 1, !dbg !2433
  store i32 %11, i32* %ehselector.slot, align 4, !dbg !2433
  br label %ehcleanup9, !dbg !2433

lpad2:                                            ; preds = %invoke.cont
  %12 = landingpad { i8*, i32 }
          cleanup
          catch i8* bitcast ({ i8*, i8*, i8* }* @_ZTIN11xercesc_2_720OutOfMemoryExceptionE to i8*), !dbg !2434
  %13 = extractvalue { i8*, i32 } %12, 0, !dbg !2434
  store i8* %13, i8** %exn.slot, align 8, !dbg !2434
  %14 = extractvalue { i8*, i32 } %12, 1, !dbg !2434
  store i32 %14, i32* %ehselector.slot, align 4, !dbg !2434
  br label %catch.dispatch, !dbg !2434

catch.dispatch:                                   ; preds = %lpad2
  %sel = load i32, i32* %ehselector.slot, align 4, !dbg !2432
  %15 = call i32 @llvm.eh.typeid.for(i8* bitcast ({ i8*, i8*, i8* }* @_ZTIN11xercesc_2_720OutOfMemoryExceptionE to i8*)) #9, !dbg !2432
  %matches = icmp eq i32 %sel, %15, !dbg !2432
  br i1 %matches, label %catch, label %ehcleanup, !dbg !2432

catch:                                            ; preds = %catch.dispatch
  call void @llvm.dbg.declare(metadata %"class.xercesc_2_7::OutOfMemoryException"** %0, metadata !2435, metadata !DIExpression()), !dbg !2436
  %exn = load i8*, i8** %exn.slot, align 8, !dbg !2432
  %16 = call i8* @__cxa_begin_catch(i8* %exn) #9, !dbg !2432
  %exn.byref = bitcast i8* %16 to %"class.xercesc_2_7::OutOfMemoryException"*, !dbg !2432
  store %"class.xercesc_2_7::OutOfMemoryException"* %exn.byref, %"class.xercesc_2_7::OutOfMemoryException"** %0, align 8, !dbg !2432
  invoke void @_ZN11xercesc_2_717JanitorMemFunCallINS_17RegularExpressionEE7releaseEv(%"class.xercesc_2_7::JanitorMemFunCall"* %cleanup)
          to label %invoke.cont5 unwind label %lpad4, !dbg !2437

invoke.cont5:                                     ; preds = %catch
  invoke void @__cxa_rethrow() #12
          to label %unreachable unwind label %lpad4, !dbg !2439

lpad4:                                            ; preds = %invoke.cont5, %catch
  %17 = landingpad { i8*, i32 }
          cleanup, !dbg !2440
  %18 = extractvalue { i8*, i32 } %17, 0, !dbg !2440
  store i8* %18, i8** %exn.slot, align 8, !dbg !2440
  %19 = extractvalue { i8*, i32 } %17, 1, !dbg !2440
  store i32 %19, i32* %ehselector.slot, align 4, !dbg !2440
  invoke void @__cxa_end_catch()
          to label %invoke.cont6 unwind label %terminate.lpad, !dbg !2441

invoke.cont6:                                     ; preds = %lpad4
  br label %ehcleanup, !dbg !2441

try.cont:                                         ; preds = %invoke.cont3
  invoke void @_ZN11xercesc_2_717JanitorMemFunCallINS_17RegularExpressionEE7releaseEv(%"class.xercesc_2_7::JanitorMemFunCall"* %cleanup)
          to label %invoke.cont8 unwind label %lpad7, !dbg !2442

invoke.cont8:                                     ; preds = %try.cont
  call void @_ZN11xercesc_2_717JanitorMemFunCallINS_17RegularExpressionEED2Ev(%"class.xercesc_2_7::JanitorMemFunCall"* %cleanup) #9, !dbg !2443
  ret void, !dbg !2443

lpad7:                                            ; preds = %try.cont
  %20 = landingpad { i8*, i32 }
          cleanup, !dbg !2433
  %21 = extractvalue { i8*, i32 } %20, 0, !dbg !2433
  store i8* %21, i8** %exn.slot, align 8, !dbg !2433
  %22 = extractvalue { i8*, i32 } %20, 1, !dbg !2433
  store i32 %22, i32* %ehselector.slot, align 4, !dbg !2433
  br label %ehcleanup, !dbg !2433

ehcleanup:                                        ; preds = %lpad7, %invoke.cont6, %catch.dispatch
  call void @_ZN11xercesc_2_717JanitorMemFunCallINS_17RegularExpressionEED2Ev(%"class.xercesc_2_7::JanitorMemFunCall"* %cleanup) #9, !dbg !2443
  br label %ehcleanup9, !dbg !2443

ehcleanup9:                                       ; preds = %ehcleanup, %lpad
  call void @_ZN11xercesc_2_79OpFactoryD1Ev(%"class.xercesc_2_7::OpFactory"* %fOpFactory) #9, !dbg !2433
  br label %eh.resume, !dbg !2433

eh.resume:                                        ; preds = %ehcleanup9
  %exn10 = load i8*, i8** %exn.slot, align 8, !dbg !2433
  %sel11 = load i32, i32* %ehselector.slot, align 4, !dbg !2433
  %lpad.val = insertvalue { i8*, i32 } undef, i8* %exn10, 0, !dbg !2433
  %lpad.val12 = insertvalue { i8*, i32 } %lpad.val, i32 %sel11, 1, !dbg !2433
  resume { i8*, i32 } %lpad.val12, !dbg !2433

terminate.lpad:                                   ; preds = %lpad4
  %23 = landingpad { i8*, i32 }
          catch i8* null, !dbg !2441
  %24 = extractvalue { i8*, i32 } %23, 0, !dbg !2441
  call void @__clang_call_terminate(i8* %24) #11, !dbg !2441
  unreachable, !dbg !2441

unreachable:                                      ; preds = %invoke.cont5
  unreachable
}

; Function Attrs: noinline uwtable
define dso_local void @_ZN11xercesc_2_717RegularExpressionC2EPKtS2_PNS_13MemoryManagerE(%"class.xercesc_2_7::RegularExpression"* %this, i16* %pattern, i16* %options, %"class.xercesc_2_7::MemoryManager"* %manager) unnamed_addr #3 align 2 personality i8* bitcast (i32 (...)* @__gxx_personality_v0 to i8*) !dbg !2444 {
entry:
  %this.addr = alloca %"class.xercesc_2_7::RegularExpression"*, align 8
  %pattern.addr = alloca i16*, align 8
  %options.addr = alloca i16*, align 8
  %manager.addr = alloca %"class.xercesc_2_7::MemoryManager"*, align 8
  %cleanup = alloca %"class.xercesc_2_7::JanitorMemFunCall", align 8
  %coerce = alloca { i64, i64 }, align 8
  %exn.slot = alloca i8*
  %ehselector.slot = alloca i32
  %0 = alloca %"class.xercesc_2_7::OutOfMemoryException"*, align 8
  store %"class.xercesc_2_7::RegularExpression"* %this, %"class.xercesc_2_7::RegularExpression"** %this.addr, align 8
  call void @llvm.dbg.declare(metadata %"class.xercesc_2_7::RegularExpression"** %this.addr, metadata !2445, metadata !DIExpression()), !dbg !2446
  store i16* %pattern, i16** %pattern.addr, align 8
  call void @llvm.dbg.declare(metadata i16** %pattern.addr, metadata !2447, metadata !DIExpression()), !dbg !2448
  store i16* %options, i16** %options.addr, align 8
  call void @llvm.dbg.declare(metadata i16** %options.addr, metadata !2449, metadata !DIExpression()), !dbg !2450
  store %"class.xercesc_2_7::MemoryManager"* %manager, %"class.xercesc_2_7::MemoryManager"** %manager.addr, align 8
  call void @llvm.dbg.declare(metadata %"class.xercesc_2_7::MemoryManager"** %manager.addr, metadata !2451, metadata !DIExpression()), !dbg !2452
  %this1 = load %"class.xercesc_2_7::RegularExpression"*, %"class.xercesc_2_7::RegularExpression"** %this.addr, align 8
  %1 = bitcast %"class.xercesc_2_7::RegularExpression"* %this1 to %"class.xercesc_2_7::XMemory"*, !dbg !2453
  call void @_ZN11xercesc_2_77XMemoryC2Ev(%"class.xercesc_2_7::XMemory"* %1), !dbg !2454
  %fHasBackReferences = getelementptr inbounds %"class.xercesc_2_7::RegularExpression", %"class.xercesc_2_7::RegularExpression"* %this1, i32 0, i32 0, !dbg !2455
  store i8 0, i8* %fHasBackReferences, align 8, !dbg !2455
  %fFixedStringOnly = getelementptr inbounds %"class.xercesc_2_7::RegularExpression", %"class.xercesc_2_7::RegularExpression"* %this1, i32 0, i32 1, !dbg !2456
  store i8 0, i8* %fFixedStringOnly, align 1, !dbg !2456
  %fNoGroups = getelementptr inbounds %"class.xercesc_2_7::RegularExpression", %"class.xercesc_2_7::RegularExpression"* %this1, i32 0, i32 2, !dbg !2457
  store i32 0, i32* %fNoGroups, align 4, !dbg !2457
  %fMinLength = getelementptr inbounds %"class.xercesc_2_7::RegularExpression", %"class.xercesc_2_7::RegularExpression"* %this1, i32 0, i32 3, !dbg !2458
  store i32 0, i32* %fMinLength, align 8, !dbg !2458
  %fNoClosures = getelementptr inbounds %"class.xercesc_2_7::RegularExpression", %"class.xercesc_2_7::RegularExpression"* %this1, i32 0, i32 4, !dbg !2459
  store i32 0, i32* %fNoClosures, align 4, !dbg !2459
  %fOptions = getelementptr inbounds %"class.xercesc_2_7::RegularExpression", %"class.xercesc_2_7::RegularExpression"* %this1, i32 0, i32 5, !dbg !2460
  store i32 0, i32* %fOptions, align 8, !dbg !2460
  %fBMPattern = getelementptr inbounds %"class.xercesc_2_7::RegularExpression", %"class.xercesc_2_7::RegularExpression"* %this1, i32 0, i32 6, !dbg !2461
  store %"class.xercesc_2_7::BMPattern"* null, %"class.xercesc_2_7::BMPattern"** %fBMPattern, align 8, !dbg !2461
  %fPattern = getelementptr inbounds %"class.xercesc_2_7::RegularExpression", %"class.xercesc_2_7::RegularExpression"* %this1, i32 0, i32 7, !dbg !2462
  store i16* null, i16** %fPattern, align 8, !dbg !2462
  %fFixedString = getelementptr inbounds %"class.xercesc_2_7::RegularExpression", %"class.xercesc_2_7::RegularExpression"* %this1, i32 0, i32 8, !dbg !2463
  store i16* null, i16** %fFixedString, align 8, !dbg !2463
  %fOperations = getelementptr inbounds %"class.xercesc_2_7::RegularExpression", %"class.xercesc_2_7::RegularExpression"* %this1, i32 0, i32 9, !dbg !2464
  store %"class.xercesc_2_7::Op"* null, %"class.xercesc_2_7::Op"** %fOperations, align 8, !dbg !2464
  %fTokenTree = getelementptr inbounds %"class.xercesc_2_7::RegularExpression", %"class.xercesc_2_7::RegularExpression"* %this1, i32 0, i32 10, !dbg !2465
  store %"class.xercesc_2_7::Token"* null, %"class.xercesc_2_7::Token"** %fTokenTree, align 8, !dbg !2465
  %fFirstChar = getelementptr inbounds %"class.xercesc_2_7::RegularExpression", %"class.xercesc_2_7::RegularExpression"* %this1, i32 0, i32 11, !dbg !2466
  store %"class.xercesc_2_7::RangeToken"* null, %"class.xercesc_2_7::RangeToken"** %fFirstChar, align 8, !dbg !2466
  %fOpFactory = getelementptr inbounds %"class.xercesc_2_7::RegularExpression", %"class.xercesc_2_7::RegularExpression"* %this1, i32 0, i32 12, !dbg !2467
  %2 = load %"class.xercesc_2_7::MemoryManager"*, %"class.xercesc_2_7::MemoryManager"** %manager.addr, align 8, !dbg !2468
  call void @_ZN11xercesc_2_79OpFactoryC1EPNS_13MemoryManagerE(%"class.xercesc_2_7::OpFactory"* %fOpFactory, %"class.xercesc_2_7::MemoryManager"* %2), !dbg !2467
  %fTokenFactory = getelementptr inbounds %"class.xercesc_2_7::RegularExpression", %"class.xercesc_2_7::RegularExpression"* %this1, i32 0, i32 13, !dbg !2469
  store %"class.xercesc_2_7::TokenFactory"* null, %"class.xercesc_2_7::TokenFactory"** %fTokenFactory, align 8, !dbg !2469
  %fMemoryManager = getelementptr inbounds %"class.xercesc_2_7::RegularExpression", %"class.xercesc_2_7::RegularExpression"* %this1, i32 0, i32 14, !dbg !2470
  %3 = load %"class.xercesc_2_7::MemoryManager"*, %"class.xercesc_2_7::MemoryManager"** %manager.addr, align 8, !dbg !2471
  store %"class.xercesc_2_7::MemoryManager"* %3, %"class.xercesc_2_7::MemoryManager"** %fMemoryManager, align 8, !dbg !2470
  call void @llvm.dbg.declare(metadata %"class.xercesc_2_7::JanitorMemFunCall"* %cleanup, metadata !2472, metadata !DIExpression()), !dbg !2474
  store { i64, i64 } { i64 ptrtoint (void (%"class.xercesc_2_7::RegularExpression"*)* @_ZN11xercesc_2_717RegularExpression7cleanUpEv to i64), i64 0 }, { i64, i64 }* %coerce, align 8, !dbg !2474
  %4 = getelementptr inbounds { i64, i64 }, { i64, i64 }* %coerce, i32 0, i32 0, !dbg !2474
  %5 = load i64, i64* %4, align 8, !dbg !2474
  %6 = getelementptr inbounds { i64, i64 }, { i64, i64 }* %coerce, i32 0, i32 1, !dbg !2474
  %7 = load i64, i64* %6, align 8, !dbg !2474
  invoke void @_ZN11xercesc_2_717JanitorMemFunCallINS_17RegularExpressionEEC2EPS1_MS1_FvvE(%"class.xercesc_2_7::JanitorMemFunCall"* %cleanup, %"class.xercesc_2_7::RegularExpression"* %this1, i64 %5, i64 %7)
          to label %invoke.cont unwind label %lpad, !dbg !2474

invoke.cont:                                      ; preds = %entry
  %8 = load i16*, i16** %pattern.addr, align 8, !dbg !2475
  %9 = load i16*, i16** %options.addr, align 8, !dbg !2477
  invoke void @_ZN11xercesc_2_717RegularExpression10setPatternEPKtS2_(%"class.xercesc_2_7::RegularExpression"* %this1, i16* %8, i16* %9)
          to label %invoke.cont3 unwind label %lpad2, !dbg !2478

invoke.cont3:                                     ; preds = %invoke.cont
  br label %try.cont, !dbg !2479

lpad:                                             ; preds = %entry
  %10 = landingpad { i8*, i32 }
          cleanup, !dbg !2480
  %11 = extractvalue { i8*, i32 } %10, 0, !dbg !2480
  store i8* %11, i8** %exn.slot, align 8, !dbg !2480
  %12 = extractvalue { i8*, i32 } %10, 1, !dbg !2480
  store i32 %12, i32* %ehselector.slot, align 4, !dbg !2480
  br label %ehcleanup9, !dbg !2480

lpad2:                                            ; preds = %invoke.cont
  %13 = landingpad { i8*, i32 }
          cleanup
          catch i8* bitcast ({ i8*, i8*, i8* }* @_ZTIN11xercesc_2_720OutOfMemoryExceptionE to i8*), !dbg !2481
  %14 = extractvalue { i8*, i32 } %13, 0, !dbg !2481
  store i8* %14, i8** %exn.slot, align 8, !dbg !2481
  %15 = extractvalue { i8*, i32 } %13, 1, !dbg !2481
  store i32 %15, i32* %ehselector.slot, align 4, !dbg !2481
  br label %catch.dispatch, !dbg !2481

catch.dispatch:                                   ; preds = %lpad2
  %sel = load i32, i32* %ehselector.slot, align 4, !dbg !2479
  %16 = call i32 @llvm.eh.typeid.for(i8* bitcast ({ i8*, i8*, i8* }* @_ZTIN11xercesc_2_720OutOfMemoryExceptionE to i8*)) #9, !dbg !2479
  %matches = icmp eq i32 %sel, %16, !dbg !2479
  br i1 %matches, label %catch, label %ehcleanup, !dbg !2479

catch:                                            ; preds = %catch.dispatch
  call void @llvm.dbg.declare(metadata %"class.xercesc_2_7::OutOfMemoryException"** %0, metadata !2482, metadata !DIExpression()), !dbg !2483
  %exn = load i8*, i8** %exn.slot, align 8, !dbg !2479
  %17 = call i8* @__cxa_begin_catch(i8* %exn) #9, !dbg !2479
  %exn.byref = bitcast i8* %17 to %"class.xercesc_2_7::OutOfMemoryException"*, !dbg !2479
  store %"class.xercesc_2_7::OutOfMemoryException"* %exn.byref, %"class.xercesc_2_7::OutOfMemoryException"** %0, align 8, !dbg !2479
  invoke void @_ZN11xercesc_2_717JanitorMemFunCallINS_17RegularExpressionEE7releaseEv(%"class.xercesc_2_7::JanitorMemFunCall"* %cleanup)
          to label %invoke.cont5 unwind label %lpad4, !dbg !2484

invoke.cont5:                                     ; preds = %catch
  invoke void @__cxa_rethrow() #12
          to label %unreachable unwind label %lpad4, !dbg !2486

lpad4:                                            ; preds = %invoke.cont5, %catch
  %18 = landingpad { i8*, i32 }
          cleanup, !dbg !2487
  %19 = extractvalue { i8*, i32 } %18, 0, !dbg !2487
  store i8* %19, i8** %exn.slot, align 8, !dbg !2487
  %20 = extractvalue { i8*, i32 } %18, 1, !dbg !2487
  store i32 %20, i32* %ehselector.slot, align 4, !dbg !2487
  invoke void @__cxa_end_catch()
          to label %invoke.cont6 unwind label %terminate.lpad, !dbg !2488

invoke.cont6:                                     ; preds = %lpad4
  br label %ehcleanup, !dbg !2488

try.cont:                                         ; preds = %invoke.cont3
  invoke void @_ZN11xercesc_2_717JanitorMemFunCallINS_17RegularExpressionEE7releaseEv(%"class.xercesc_2_7::JanitorMemFunCall"* %cleanup)
          to label %invoke.cont8 unwind label %lpad7, !dbg !2489

invoke.cont8:                                     ; preds = %try.cont
  call void @_ZN11xercesc_2_717JanitorMemFunCallINS_17RegularExpressionEED2Ev(%"class.xercesc_2_7::JanitorMemFunCall"* %cleanup) #9, !dbg !2490
  ret void, !dbg !2490

lpad7:                                            ; preds = %try.cont
  %21 = landingpad { i8*, i32 }
          cleanup, !dbg !2480
  %22 = extractvalue { i8*, i32 } %21, 0, !dbg !2480
  store i8* %22, i8** %exn.slot, align 8, !dbg !2480
  %23 = extractvalue { i8*, i32 } %21, 1, !dbg !2480
  store i32 %23, i32* %ehselector.slot, align 4, !dbg !2480
  br label %ehcleanup, !dbg !2480

ehcleanup:                                        ; preds = %lpad7, %invoke.cont6, %catch.dispatch
  call void @_ZN11xercesc_2_717JanitorMemFunCallINS_17RegularExpressionEED2Ev(%"class.xercesc_2_7::JanitorMemFunCall"* %cleanup) #9, !dbg !2490
  br label %ehcleanup9, !dbg !2490

ehcleanup9:                                       ; preds = %ehcleanup, %lpad
  call void @_ZN11xercesc_2_79OpFactoryD1Ev(%"class.xercesc_2_7::OpFactory"* %fOpFactory) #9, !dbg !2480
  br label %eh.resume, !dbg !2480

eh.resume:                                        ; preds = %ehcleanup9
  %exn10 = load i8*, i8** %exn.slot, align 8, !dbg !2480
  %sel11 = load i32, i32* %ehselector.slot, align 4, !dbg !2480
  %lpad.val = insertvalue { i8*, i32 } undef, i8* %exn10, 0, !dbg !2480
  %lpad.val12 = insertvalue { i8*, i32 } %lpad.val, i32 %sel11, 1, !dbg !2480
  resume { i8*, i32 } %lpad.val12, !dbg !2480

terminate.lpad:                                   ; preds = %lpad4
  %24 = landingpad { i8*, i32 }
          catch i8* null, !dbg !2488
  %25 = extractvalue { i8*, i32 } %24, 0, !dbg !2488
  call void @__clang_call_terminate(i8* %25) #11, !dbg !2488
  unreachable, !dbg !2488

unreachable:                                      ; preds = %invoke.cont5
  unreachable
}

; Function Attrs: noinline nounwind uwtable
define dso_local void @_ZN11xercesc_2_717RegularExpressionD2Ev(%"class.xercesc_2_7::RegularExpression"* %this) unnamed_addr #1 align 2 personality i8* bitcast (i32 (...)* @__gxx_personality_v0 to i8*) !dbg !2491 {
entry:
  %this.addr = alloca %"class.xercesc_2_7::RegularExpression"*, align 8
  %exn.slot = alloca i8*
  %ehselector.slot = alloca i32
  store %"class.xercesc_2_7::RegularExpression"* %this, %"class.xercesc_2_7::RegularExpression"** %this.addr, align 8
  call void @llvm.dbg.declare(metadata %"class.xercesc_2_7::RegularExpression"** %this.addr, metadata !2492, metadata !DIExpression()), !dbg !2493
  %this1 = load %"class.xercesc_2_7::RegularExpression"*, %"class.xercesc_2_7::RegularExpression"** %this.addr, align 8
  invoke void @_ZN11xercesc_2_717RegularExpression7cleanUpEv(%"class.xercesc_2_7::RegularExpression"* %this1)
          to label %invoke.cont unwind label %lpad, !dbg !2494

invoke.cont:                                      ; preds = %entry
  %fOpFactory = getelementptr inbounds %"class.xercesc_2_7::RegularExpression", %"class.xercesc_2_7::RegularExpression"* %this1, i32 0, i32 12, !dbg !2496
  call void @_ZN11xercesc_2_79OpFactoryD1Ev(%"class.xercesc_2_7::OpFactory"* %fOpFactory) #9, !dbg !2496
  ret void, !dbg !2497

lpad:                                             ; preds = %entry
  %0 = landingpad { i8*, i32 }
          catch i8* null, !dbg !2496
  %1 = extractvalue { i8*, i32 } %0, 0, !dbg !2496
  store i8* %1, i8** %exn.slot, align 8, !dbg !2496
  %2 = extractvalue { i8*, i32 } %0, 1, !dbg !2496
  store i32 %2, i32* %ehselector.slot, align 4, !dbg !2496
  %fOpFactory2 = getelementptr inbounds %"class.xercesc_2_7::RegularExpression", %"class.xercesc_2_7::RegularExpression"* %this1, i32 0, i32 12, !dbg !2496
  call void @_ZN11xercesc_2_79OpFactoryD1Ev(%"class.xercesc_2_7::OpFactory"* %fOpFactory2) #9, !dbg !2496
  br label %terminate.handler, !dbg !2496

terminate.handler:                                ; preds = %lpad
  %exn = load i8*, i8** %exn.slot, align 8, !dbg !2496
  call void @__clang_call_terminate(i8* %exn) #11, !dbg !2496
  unreachable, !dbg !2496
}

declare dso_local i8* @_ZN11xercesc_2_77XMemorynwEmPNS_13MemoryManagerE(i64, %"class.xercesc_2_7::MemoryManager"*) #4

declare dso_local void @_ZN11xercesc_2_712TokenFactoryC1EPNS_13MemoryManagerE(%"class.xercesc_2_7::TokenFactory"*, %"class.xercesc_2_7::MemoryManager"*) unnamed_addr #4

; Function Attrs: nounwind
declare dso_local void @_ZN11xercesc_2_77XMemorydlEPvPNS_13MemoryManagerE(i8*, %"class.xercesc_2_7::MemoryManager"*) #7

; Function Attrs: noinline uwtable
define dso_local i32 @_ZN11xercesc_2_717RegularExpression12parseOptionsEPKt(%"class.xercesc_2_7::RegularExpression"* %this, i16* %options) #3 align 2 personality i8* bitcast (i32 (...)* @__gxx_personality_v0 to i8*) !dbg !2498 {
entry:
  %retval = alloca i32, align 4
  %this.addr = alloca %"class.xercesc_2_7::RegularExpression"*, align 8
  %options.addr = alloca i16*, align 8
  %opts = alloca i32, align 4
  %length = alloca i32, align 4
  %i = alloca i32, align 4
  %v = alloca i32, align 4
  %exn.slot = alloca i8*
  %ehselector.slot = alloca i32
  store %"class.xercesc_2_7::RegularExpression"* %this, %"class.xercesc_2_7::RegularExpression"** %this.addr, align 8
  call void @llvm.dbg.declare(metadata %"class.xercesc_2_7::RegularExpression"** %this.addr, metadata !2499, metadata !DIExpression()), !dbg !2500
  store i16* %options, i16** %options.addr, align 8
  call void @llvm.dbg.declare(metadata i16** %options.addr, metadata !2501, metadata !DIExpression()), !dbg !2502
  %this1 = load %"class.xercesc_2_7::RegularExpression"*, %"class.xercesc_2_7::RegularExpression"** %this.addr, align 8
  %0 = load i16*, i16** %options.addr, align 8, !dbg !2503
  %cmp = icmp eq i16* %0, null, !dbg !2505
  br i1 %cmp, label %if.then, label %if.end, !dbg !2506

if.then:                                          ; preds = %entry
  store i32 0, i32* %retval, align 4, !dbg !2507
  br label %return, !dbg !2507

if.end:                                           ; preds = %entry
  call void @llvm.dbg.declare(metadata i32* %opts, metadata !2508, metadata !DIExpression()), !dbg !2509
  store i32 0, i32* %opts, align 4, !dbg !2509
  call void @llvm.dbg.declare(metadata i32* %length, metadata !2510, metadata !DIExpression()), !dbg !2511
  %1 = load i16*, i16** %options.addr, align 8, !dbg !2512
  %call = call i32 @_ZN11xercesc_2_79XMLString9stringLenEPKt(i16* %1), !dbg !2513
  store i32 %call, i32* %length, align 4, !dbg !2511
  call void @llvm.dbg.declare(metadata i32* %i, metadata !2514, metadata !DIExpression()), !dbg !2516
  store i32 0, i32* %i, align 4, !dbg !2516
  br label %for.cond, !dbg !2517

for.cond:                                         ; preds = %for.inc, %if.end
  %2 = load i32, i32* %i, align 4, !dbg !2518
  %3 = load i32, i32* %length, align 4, !dbg !2520
  %cmp2 = icmp slt i32 %2, %3, !dbg !2521
  br i1 %cmp2, label %for.body, label %for.end, !dbg !2522

for.body:                                         ; preds = %for.cond
  call void @llvm.dbg.declare(metadata i32* %v, metadata !2523, metadata !DIExpression()), !dbg !2525
  %4 = load i16*, i16** %options.addr, align 8, !dbg !2526
  %5 = load i32, i32* %i, align 4, !dbg !2527
  %idxprom = sext i32 %5 to i64, !dbg !2526
  %arrayidx = getelementptr inbounds i16, i16* %4, i64 %idxprom, !dbg !2526
  %6 = load i16, i16* %arrayidx, align 2, !dbg !2526
  %call3 = call i32 @_ZN11xercesc_2_717RegularExpression14getOptionValueEt(i16 zeroext %6), !dbg !2528
  store i32 %call3, i32* %v, align 4, !dbg !2525
  %7 = load i32, i32* %v, align 4, !dbg !2529
  %cmp4 = icmp eq i32 %7, 0, !dbg !2531
  br i1 %cmp4, label %if.then5, label %if.end6, !dbg !2532

if.then5:                                         ; preds = %for.body
  %exception = call i8* @__cxa_allocate_exception(i64 48) #9, !dbg !2533
  %8 = bitcast i8* %exception to %"class.xercesc_2_7::ParseException"*, !dbg !2533
  %9 = load i16*, i16** %options.addr, align 8, !dbg !2533
  %fMemoryManager = getelementptr inbounds %"class.xercesc_2_7::RegularExpression", %"class.xercesc_2_7::RegularExpression"* %this1, i32 0, i32 14, !dbg !2533
  %10 = load %"class.xercesc_2_7::MemoryManager"*, %"class.xercesc_2_7::MemoryManager"** %fMemoryManager, align 8, !dbg !2533
  invoke void @_ZN11xercesc_2_714ParseExceptionC2EPKcjNS_10XMLExcepts5CodesEPKtS6_S6_S6_PNS_13MemoryManagerE(%"class.xercesc_2_7::ParseException"* %8, i8* getelementptr inbounds ([22 x i8], [22 x i8]* @.str, i64 0, i64 0), i32 1360, i32 291, i16* %9, i16* null, i16* null, i16* null, %"class.xercesc_2_7::MemoryManager"* %10)
          to label %invoke.cont unwind label %lpad, !dbg !2533

invoke.cont:                                      ; preds = %if.then5
  call void @__cxa_throw(i8* %exception, i8* bitcast ({ i8*, i8*, i8* }* @_ZTIN11xercesc_2_714ParseExceptionE to i8*), i8* bitcast (void (%"class.xercesc_2_7::ParseException"*)* @_ZN11xercesc_2_714ParseExceptionD2Ev to i8*)) #12, !dbg !2533
  unreachable, !dbg !2533

lpad:                                             ; preds = %if.then5
  %11 = landingpad { i8*, i32 }
          cleanup, !dbg !2534
  %12 = extractvalue { i8*, i32 } %11, 0, !dbg !2534
  store i8* %12, i8** %exn.slot, align 8, !dbg !2534
  %13 = extractvalue { i8*, i32 } %11, 1, !dbg !2534
  store i32 %13, i32* %ehselector.slot, align 4, !dbg !2534
  call void @__cxa_free_exception(i8* %exception) #9, !dbg !2533
  br label %eh.resume, !dbg !2533

if.end6:                                          ; preds = %for.body
  %14 = load i32, i32* %v, align 4, !dbg !2535
  %15 = load i32, i32* %opts, align 4, !dbg !2536
  %or = or i32 %15, %14, !dbg !2536
  store i32 %or, i32* %opts, align 4, !dbg !2536
  br label %for.inc, !dbg !2537

for.inc:                                          ; preds = %if.end6
  %16 = load i32, i32* %i, align 4, !dbg !2538
  %inc = add nsw i32 %16, 1, !dbg !2538
  store i32 %inc, i32* %i, align 4, !dbg !2538
  br label %for.cond, !dbg !2539, !llvm.loop !2540

for.end:                                          ; preds = %for.cond
  %17 = load i32, i32* %opts, align 4, !dbg !2542
  store i32 %17, i32* %retval, align 4, !dbg !2543
  br label %return, !dbg !2543

return:                                           ; preds = %for.end, %if.then
  %18 = load i32, i32* %retval, align 4, !dbg !2544
  ret i32 %18, !dbg !2544

eh.resume:                                        ; preds = %lpad
  %exn = load i8*, i8** %exn.slot, align 8, !dbg !2533
  %sel = load i32, i32* %ehselector.slot, align 4, !dbg !2533
  %lpad.val = insertvalue { i8*, i32 } undef, i8* %exn, 0, !dbg !2533
  %lpad.val7 = insertvalue { i8*, i32 } %lpad.val, i32 %sel, 1, !dbg !2533
  resume { i8*, i32 } %lpad.val7, !dbg !2533
}

; Function Attrs: noinline uwtable
define linkonce_odr dso_local i16* @_ZN11xercesc_2_79XMLString9replicateEPKtPNS_13MemoryManagerE(i16* %toRep, %"class.xercesc_2_7::MemoryManager"* %manager) #3 comdat align 2 !dbg !2545 {
entry:
  %toRep.addr = alloca i16*, align 8
  %manager.addr = alloca %"class.xercesc_2_7::MemoryManager"*, align 8
  %ret = alloca i16*, align 8
  %len = alloca i32, align 4
  store i16* %toRep, i16** %toRep.addr, align 8
  call void @llvm.dbg.declare(metadata i16** %toRep.addr, metadata !2854, metadata !DIExpression()), !dbg !2855
  store %"class.xercesc_2_7::MemoryManager"* %manager, %"class.xercesc_2_7::MemoryManager"** %manager.addr, align 8
  call void @llvm.dbg.declare(metadata %"class.xercesc_2_7::MemoryManager"** %manager.addr, metadata !2856, metadata !DIExpression()), !dbg !2857
  call void @llvm.dbg.declare(metadata i16** %ret, metadata !2858, metadata !DIExpression()), !dbg !2859
  store i16* null, i16** %ret, align 8, !dbg !2859
  %0 = load i16*, i16** %toRep.addr, align 8, !dbg !2860
  %tobool = icmp ne i16* %0, null, !dbg !2860
  br i1 %tobool, label %if.then, label %if.end, !dbg !2862

if.then:                                          ; preds = %entry
  call void @llvm.dbg.declare(metadata i32* %len, metadata !2863, metadata !DIExpression()), !dbg !2865
  %1 = load i16*, i16** %toRep.addr, align 8, !dbg !2866
  %call = call i32 @_ZN11xercesc_2_79XMLString9stringLenEPKt(i16* %1), !dbg !2867
  store i32 %call, i32* %len, align 4, !dbg !2865
  %2 = load %"class.xercesc_2_7::MemoryManager"*, %"class.xercesc_2_7::MemoryManager"** %manager.addr, align 8, !dbg !2868
  %3 = load i32, i32* %len, align 4, !dbg !2869
  %add = add i32 %3, 1, !dbg !2870
  %conv = zext i32 %add to i64, !dbg !2871
  %mul = mul i64 %conv, 2, !dbg !2872
  %4 = bitcast %"class.xercesc_2_7::MemoryManager"* %2 to i8* (%"class.xercesc_2_7::MemoryManager"*, i64)***, !dbg !2873
  %vtable = load i8* (%"class.xercesc_2_7::MemoryManager"*, i64)**, i8* (%"class.xercesc_2_7::MemoryManager"*, i64)*** %4, align 8, !dbg !2873
  %vfn = getelementptr inbounds i8* (%"class.xercesc_2_7::MemoryManager"*, i64)*, i8* (%"class.xercesc_2_7::MemoryManager"*, i64)** %vtable, i64 2, !dbg !2873
  %5 = load i8* (%"class.xercesc_2_7::MemoryManager"*, i64)*, i8* (%"class.xercesc_2_7::MemoryManager"*, i64)** %vfn, align 8, !dbg !2873
  %call1 = call i8* %5(%"class.xercesc_2_7::MemoryManager"* %2, i64 %mul), !dbg !2873
  %6 = bitcast i8* %call1 to i16*, !dbg !2874
  store i16* %6, i16** %ret, align 8, !dbg !2875
  %7 = load i16*, i16** %ret, align 8, !dbg !2876
  %8 = bitcast i16* %7 to i8*, !dbg !2877
  %9 = load i16*, i16** %toRep.addr, align 8, !dbg !2878
  %10 = bitcast i16* %9 to i8*, !dbg !2877
  %11 = load i32, i32* %len, align 4, !dbg !2879
  %add2 = add i32 %11, 1, !dbg !2880
  %conv3 = zext i32 %add2 to i64, !dbg !2881
  %mul4 = mul i64 %conv3, 2, !dbg !2882
  call void @llvm.memcpy.p0i8.p0i8.i64(i8* align 2 %8, i8* align 2 %10, i64 %mul4, i1 false), !dbg !2877
  br label %if.end, !dbg !2883

if.end:                                           ; preds = %if.then, %entry
  %12 = load i16*, i16** %ret, align 8, !dbg !2884
  ret i16* %12, !dbg !2885
}

; Function Attrs: noinline nounwind uwtable
define linkonce_odr dso_local zeroext i1 @_ZN11xercesc_2_717RegularExpression5isSetEii(i32 %options, i32 %flag) #1 comdat align 2 !dbg !2886 {
entry:
  %options.addr = alloca i32, align 4
  %flag.addr = alloca i32, align 4
  store i32 %options, i32* %options.addr, align 4
  call void @llvm.dbg.declare(metadata i32* %options.addr, metadata !2887, metadata !DIExpression()), !dbg !2888
  store i32 %flag, i32* %flag.addr, align 4
  call void @llvm.dbg.declare(metadata i32* %flag.addr, metadata !2889, metadata !DIExpression()), !dbg !2890
  %0 = load i32, i32* %options.addr, align 4, !dbg !2891
  %1 = load i32, i32* %flag.addr, align 4, !dbg !2892
  %and = and i32 %0, %1, !dbg !2893
  %2 = load i32, i32* %flag.addr, align 4, !dbg !2894
  %cmp = icmp eq i32 %and, %2, !dbg !2895
  ret i1 %cmp, !dbg !2896
}

declare dso_local void @_ZN11xercesc_2_718ParserForXMLSchemaC1EPNS_13MemoryManagerE(%"class.xercesc_2_7::ParserForXMLSchema"*, %"class.xercesc_2_7::MemoryManager"*) unnamed_addr #4

declare dso_local void @_ZN11xercesc_2_710RegxParserC1EPNS_13MemoryManagerE(%"class.xercesc_2_7::RegxParser"*, %"class.xercesc_2_7::MemoryManager"*) unnamed_addr #4

; Function Attrs: noinline nounwind uwtable
define linkonce_odr dso_local void @_ZN11xercesc_2_710RegxParser15setTokenFactoryEPNS_12TokenFactoryE(%"class.xercesc_2_7::RegxParser"* %this, %"class.xercesc_2_7::TokenFactory"* %tokFactory) #1 comdat align 2 !dbg !2897 {
entry:
  %this.addr = alloca %"class.xercesc_2_7::RegxParser"*, align 8
  %tokFactory.addr = alloca %"class.xercesc_2_7::TokenFactory"*, align 8
  store %"class.xercesc_2_7::RegxParser"* %this, %"class.xercesc_2_7::RegxParser"** %this.addr, align 8
  call void @llvm.dbg.declare(metadata %"class.xercesc_2_7::RegxParser"** %this.addr, metadata !2903, metadata !DIExpression()), !dbg !2904
  store %"class.xercesc_2_7::TokenFactory"* %tokFactory, %"class.xercesc_2_7::TokenFactory"** %tokFactory.addr, align 8
  call void @llvm.dbg.declare(metadata %"class.xercesc_2_7::TokenFactory"** %tokFactory.addr, metadata !2905, metadata !DIExpression()), !dbg !2906
  %this1 = load %"class.xercesc_2_7::RegxParser"*, %"class.xercesc_2_7::RegxParser"** %this.addr, align 8
  %0 = load %"class.xercesc_2_7::TokenFactory"*, %"class.xercesc_2_7::TokenFactory"** %tokFactory.addr, align 8, !dbg !2907
  %fTokenFactory = getelementptr inbounds %"class.xercesc_2_7::RegxParser", %"class.xercesc_2_7::RegxParser"* %this1, i32 0, i32 12, !dbg !2908
  store %"class.xercesc_2_7::TokenFactory"* %0, %"class.xercesc_2_7::TokenFactory"** %fTokenFactory, align 8, !dbg !2909
  ret void, !dbg !2910
}

; Function Attrs: noinline nounwind uwtable
define linkonce_odr dso_local void @_ZN11xercesc_2_77JanitorINS_10RegxParserEEC2EPS1_(%"class.xercesc_2_7::Janitor"* %this, %"class.xercesc_2_7::RegxParser"* %toDelete) unnamed_addr #1 comdat align 2 !dbg !2911 {
entry:
  %this.addr = alloca %"class.xercesc_2_7::Janitor"*, align 8
  %toDelete.addr = alloca %"class.xercesc_2_7::RegxParser"*, align 8
  store %"class.xercesc_2_7::Janitor"* %this, %"class.xercesc_2_7::Janitor"** %this.addr, align 8
  call void @llvm.dbg.declare(metadata %"class.xercesc_2_7::Janitor"** %this.addr, metadata !2912, metadata !DIExpression()), !dbg !2914
  store %"class.xercesc_2_7::RegxParser"* %toDelete, %"class.xercesc_2_7::RegxParser"** %toDelete.addr, align 8
  call void @llvm.dbg.declare(metadata %"class.xercesc_2_7::RegxParser"** %toDelete.addr, metadata !2915, metadata !DIExpression()), !dbg !2916
  %this1 = load %"class.xercesc_2_7::Janitor"*, %"class.xercesc_2_7::Janitor"** %this.addr, align 8
  %0 = bitcast %"class.xercesc_2_7::Janitor"* %this1 to %"class.xercesc_2_7::XMemory"*, !dbg !2917
  call void @_ZN11xercesc_2_77XMemoryC2Ev(%"class.xercesc_2_7::XMemory"* %0), !dbg !2918
  %fData = getelementptr inbounds %"class.xercesc_2_7::Janitor", %"class.xercesc_2_7::Janitor"* %this1, i32 0, i32 0, !dbg !2920
  %1 = load %"class.xercesc_2_7::RegxParser"*, %"class.xercesc_2_7::RegxParser"** %toDelete.addr, align 8, !dbg !2922
  store %"class.xercesc_2_7::RegxParser"* %1, %"class.xercesc_2_7::RegxParser"** %fData, align 8, !dbg !2920
  ret void, !dbg !2923
}

declare dso_local %"class.xercesc_2_7::Token"* @_ZN11xercesc_2_710RegxParser5parseEPKti(%"class.xercesc_2_7::RegxParser"*, i16*, i32) #4

; Function Attrs: noinline nounwind uwtable
define linkonce_odr dso_local i32 @_ZNK11xercesc_2_710RegxParser10getNoParenEv(%"class.xercesc_2_7::RegxParser"* %this) #1 comdat align 2 !dbg !2924 {
entry:
  %this.addr = alloca %"class.xercesc_2_7::RegxParser"*, align 8
  store %"class.xercesc_2_7::RegxParser"* %this, %"class.xercesc_2_7::RegxParser"** %this.addr, align 8
  call void @llvm.dbg.declare(metadata %"class.xercesc_2_7::RegxParser"** %this.addr, metadata !2930, metadata !DIExpression()), !dbg !2932
  %this1 = load %"class.xercesc_2_7::RegxParser"*, %"class.xercesc_2_7::RegxParser"** %this.addr, align 8
  %fNoGroups = getelementptr inbounds %"class.xercesc_2_7::RegxParser", %"class.xercesc_2_7::RegxParser"* %this1, i32 0, i32 5, !dbg !2933
  %0 = load i32, i32* %fNoGroups, align 4, !dbg !2933
  ret i32 %0, !dbg !2934
}

; Function Attrs: noinline nounwind uwtable
define linkonce_odr dso_local zeroext i1 @_ZNK11xercesc_2_710RegxParser17hasBackReferencesEv(%"class.xercesc_2_7::RegxParser"* %this) #1 comdat align 2 !dbg !2935 {
entry:
  %this.addr = alloca %"class.xercesc_2_7::RegxParser"*, align 8
  store %"class.xercesc_2_7::RegxParser"* %this, %"class.xercesc_2_7::RegxParser"** %this.addr, align 8
  call void @llvm.dbg.declare(metadata %"class.xercesc_2_7::RegxParser"** %this.addr, metadata !2939, metadata !DIExpression()), !dbg !2940
  %this1 = load %"class.xercesc_2_7::RegxParser"*, %"class.xercesc_2_7::RegxParser"** %this.addr, align 8
  %fHasBackReferences = getelementptr inbounds %"class.xercesc_2_7::RegxParser", %"class.xercesc_2_7::RegxParser"* %this1, i32 0, i32 2, !dbg !2941
  %0 = load i8, i8* %fHasBackReferences, align 8, !dbg !2941
  %tobool = trunc i8 %0 to i1, !dbg !2941
  ret i1 %tobool, !dbg !2942
}

; Function Attrs: noinline uwtable
define dso_local void @_ZN11xercesc_2_717RegularExpression7prepareEv(%"class.xercesc_2_7::RegularExpression"* %this) #3 align 2 personality i8* bitcast (i32 (...)* @__gxx_personality_v0 to i8*) !dbg !2943 {
entry:
  %this.addr = alloca %"class.xercesc_2_7::RegularExpression"*, align 8
  %rangeTok = alloca %"class.xercesc_2_7::RangeToken"*, align 8
  %result = alloca i32, align 4
  %ch = alloca i32, align 4
  %dummyStr = alloca i16*, align 8
  %exn.slot = alloca i8*
  %ehselector.slot = alloca i32
  %fixedOpts = alloca i32, align 4
  %tok = alloca %"class.xercesc_2_7::Token"*, align 8
  store %"class.xercesc_2_7::RegularExpression"* %this, %"class.xercesc_2_7::RegularExpression"** %this.addr, align 8
  call void @llvm.dbg.declare(metadata %"class.xercesc_2_7::RegularExpression"** %this.addr, metadata !2944, metadata !DIExpression()), !dbg !2945
  %this1 = load %"class.xercesc_2_7::RegularExpression"*, %"class.xercesc_2_7::RegularExpression"** %this.addr, align 8
  %fTokenTree = getelementptr inbounds %"class.xercesc_2_7::RegularExpression", %"class.xercesc_2_7::RegularExpression"* %this1, i32 0, i32 10, !dbg !2946
  %0 = load %"class.xercesc_2_7::Token"*, %"class.xercesc_2_7::Token"** %fTokenTree, align 8, !dbg !2946
  call void @_ZN11xercesc_2_717RegularExpression7compileEPKNS_5TokenE(%"class.xercesc_2_7::RegularExpression"* %this1, %"class.xercesc_2_7::Token"* %0), !dbg !2947
  %fTokenTree2 = getelementptr inbounds %"class.xercesc_2_7::RegularExpression", %"class.xercesc_2_7::RegularExpression"* %this1, i32 0, i32 10, !dbg !2948
  %1 = load %"class.xercesc_2_7::Token"*, %"class.xercesc_2_7::Token"** %fTokenTree2, align 8, !dbg !2948
  %call = call i32 @_ZNK11xercesc_2_75Token12getMinLengthEv(%"class.xercesc_2_7::Token"* %1), !dbg !2949
  %fMinLength = getelementptr inbounds %"class.xercesc_2_7::RegularExpression", %"class.xercesc_2_7::RegularExpression"* %this1, i32 0, i32 3, !dbg !2950
  store i32 %call, i32* %fMinLength, align 8, !dbg !2951
  %fFirstChar = getelementptr inbounds %"class.xercesc_2_7::RegularExpression", %"class.xercesc_2_7::RegularExpression"* %this1, i32 0, i32 11, !dbg !2952
  store %"class.xercesc_2_7::RangeToken"* null, %"class.xercesc_2_7::RangeToken"** %fFirstChar, align 8, !dbg !2953
  %fOptions = getelementptr inbounds %"class.xercesc_2_7::RegularExpression", %"class.xercesc_2_7::RegularExpression"* %this1, i32 0, i32 5, !dbg !2954
  %2 = load i32, i32* %fOptions, align 8, !dbg !2954
  %call3 = call zeroext i1 @_ZN11xercesc_2_717RegularExpression5isSetEii(i32 %2, i32 128), !dbg !2956
  br i1 %call3, label %if.end19, label %land.lhs.true, !dbg !2957

land.lhs.true:                                    ; preds = %entry
  %fOptions4 = getelementptr inbounds %"class.xercesc_2_7::RegularExpression", %"class.xercesc_2_7::RegularExpression"* %this1, i32 0, i32 5, !dbg !2958
  %3 = load i32, i32* %fOptions4, align 8, !dbg !2958
  %call5 = call zeroext i1 @_ZN11xercesc_2_717RegularExpression5isSetEii(i32 %3, i32 512), !dbg !2959
  br i1 %call5, label %if.end19, label %if.then, !dbg !2960

if.then:                                          ; preds = %land.lhs.true
  call void @llvm.dbg.declare(metadata %"class.xercesc_2_7::RangeToken"** %rangeTok, metadata !2961, metadata !DIExpression()), !dbg !2963
  %fTokenFactory = getelementptr inbounds %"class.xercesc_2_7::RegularExpression", %"class.xercesc_2_7::RegularExpression"* %this1, i32 0, i32 13, !dbg !2964
  %4 = load %"class.xercesc_2_7::TokenFactory"*, %"class.xercesc_2_7::TokenFactory"** %fTokenFactory, align 8, !dbg !2964
  %call6 = call %"class.xercesc_2_7::RangeToken"* @_ZN11xercesc_2_712TokenFactory11createRangeEb(%"class.xercesc_2_7::TokenFactory"* %4, i1 zeroext false), !dbg !2965
  store %"class.xercesc_2_7::RangeToken"* %call6, %"class.xercesc_2_7::RangeToken"** %rangeTok, align 8, !dbg !2963
  call void @llvm.dbg.declare(metadata i32* %result, metadata !2966, metadata !DIExpression()), !dbg !2967
  %fTokenTree7 = getelementptr inbounds %"class.xercesc_2_7::RegularExpression", %"class.xercesc_2_7::RegularExpression"* %this1, i32 0, i32 10, !dbg !2968
  %5 = load %"class.xercesc_2_7::Token"*, %"class.xercesc_2_7::Token"** %fTokenTree7, align 8, !dbg !2968
  %6 = load %"class.xercesc_2_7::RangeToken"*, %"class.xercesc_2_7::RangeToken"** %rangeTok, align 8, !dbg !2969
  %fOptions8 = getelementptr inbounds %"class.xercesc_2_7::RegularExpression", %"class.xercesc_2_7::RegularExpression"* %this1, i32 0, i32 5, !dbg !2970
  %7 = load i32, i32* %fOptions8, align 8, !dbg !2970
  %fTokenFactory9 = getelementptr inbounds %"class.xercesc_2_7::RegularExpression", %"class.xercesc_2_7::RegularExpression"* %this1, i32 0, i32 13, !dbg !2971
  %8 = load %"class.xercesc_2_7::TokenFactory"*, %"class.xercesc_2_7::TokenFactory"** %fTokenFactory9, align 8, !dbg !2971
  %call10 = call i32 @_ZN11xercesc_2_75Token21analyzeFirstCharacterEPNS_10RangeTokenEiPNS_12TokenFactoryE(%"class.xercesc_2_7::Token"* %5, %"class.xercesc_2_7::RangeToken"* %6, i32 %7, %"class.xercesc_2_7::TokenFactory"* %8), !dbg !2972
  store i32 %call10, i32* %result, align 4, !dbg !2967
  %9 = load i32, i32* %result, align 4, !dbg !2973
  %10 = load i16, i16* @_ZN11xercesc_2_75Token11FC_TERMINALE, align 2, !dbg !2975
  %conv = zext i16 %10 to i32, !dbg !2975
  %cmp = icmp eq i32 %9, %conv, !dbg !2976
  br i1 %cmp, label %if.then11, label %if.end, !dbg !2977

if.then11:                                        ; preds = %if.then
  %11 = load %"class.xercesc_2_7::RangeToken"*, %"class.xercesc_2_7::RangeToken"** %rangeTok, align 8, !dbg !2978
  %12 = bitcast %"class.xercesc_2_7::RangeToken"* %11 to void (%"class.xercesc_2_7::RangeToken"*)***, !dbg !2980
  %vtable = load void (%"class.xercesc_2_7::RangeToken"*)**, void (%"class.xercesc_2_7::RangeToken"*)*** %12, align 8, !dbg !2980
  %vfn = getelementptr inbounds void (%"class.xercesc_2_7::RangeToken"*)*, void (%"class.xercesc_2_7::RangeToken"*)** %vtable, i64 15, !dbg !2980
  %13 = load void (%"class.xercesc_2_7::RangeToken"*)*, void (%"class.xercesc_2_7::RangeToken"*)** %vfn, align 8, !dbg !2980
  call void %13(%"class.xercesc_2_7::RangeToken"* %11), !dbg !2980
  %14 = load %"class.xercesc_2_7::RangeToken"*, %"class.xercesc_2_7::RangeToken"** %rangeTok, align 8, !dbg !2981
  %fFirstChar12 = getelementptr inbounds %"class.xercesc_2_7::RegularExpression", %"class.xercesc_2_7::RegularExpression"* %this1, i32 0, i32 11, !dbg !2982
  store %"class.xercesc_2_7::RangeToken"* %14, %"class.xercesc_2_7::RangeToken"** %fFirstChar12, align 8, !dbg !2983
  br label %if.end, !dbg !2984

if.end:                                           ; preds = %if.then11, %if.then
  %15 = load %"class.xercesc_2_7::RangeToken"*, %"class.xercesc_2_7::RangeToken"** %rangeTok, align 8, !dbg !2985
  call void @_ZN11xercesc_2_710RangeToken9createMapEv(%"class.xercesc_2_7::RangeToken"* %15), !dbg !2986
  %fOptions13 = getelementptr inbounds %"class.xercesc_2_7::RegularExpression", %"class.xercesc_2_7::RegularExpression"* %this1, i32 0, i32 5, !dbg !2987
  %16 = load i32, i32* %fOptions13, align 8, !dbg !2987
  %call14 = call zeroext i1 @_ZN11xercesc_2_717RegularExpression5isSetEii(i32 %16, i32 2), !dbg !2989
  br i1 %call14, label %if.then15, label %if.end18, !dbg !2990

if.then15:                                        ; preds = %if.end
  %17 = load %"class.xercesc_2_7::RangeToken"*, %"class.xercesc_2_7::RangeToken"** %rangeTok, align 8, !dbg !2991
  %fTokenFactory16 = getelementptr inbounds %"class.xercesc_2_7::RegularExpression", %"class.xercesc_2_7::RegularExpression"* %this1, i32 0, i32 13, !dbg !2993
  %18 = load %"class.xercesc_2_7::TokenFactory"*, %"class.xercesc_2_7::TokenFactory"** %fTokenFactory16, align 8, !dbg !2993
  %call17 = call %"class.xercesc_2_7::RangeToken"* @_ZN11xercesc_2_710RangeToken23getCaseInsensitiveTokenEPNS_12TokenFactoryE(%"class.xercesc_2_7::RangeToken"* %17, %"class.xercesc_2_7::TokenFactory"* %18), !dbg !2994
  br label %if.end18, !dbg !2995

if.end18:                                         ; preds = %if.then15, %if.end
  br label %if.end19, !dbg !2996

if.end19:                                         ; preds = %if.end18, %land.lhs.true, %entry
  %fOperations = getelementptr inbounds %"class.xercesc_2_7::RegularExpression", %"class.xercesc_2_7::RegularExpression"* %this1, i32 0, i32 9, !dbg !2997
  %19 = load %"class.xercesc_2_7::Op"*, %"class.xercesc_2_7::Op"** %fOperations, align 8, !dbg !2997
  %cmp20 = icmp ne %"class.xercesc_2_7::Op"* %19, null, !dbg !2999
  br i1 %cmp20, label %land.lhs.true21, label %if.else87, !dbg !3000

land.lhs.true21:                                  ; preds = %if.end19
  %fOperations22 = getelementptr inbounds %"class.xercesc_2_7::RegularExpression", %"class.xercesc_2_7::RegularExpression"* %this1, i32 0, i32 9, !dbg !3001
  %20 = load %"class.xercesc_2_7::Op"*, %"class.xercesc_2_7::Op"** %fOperations22, align 8, !dbg !3001
  %call23 = call %"class.xercesc_2_7::Op"* @_ZNK11xercesc_2_72Op9getNextOpEv(%"class.xercesc_2_7::Op"* %20), !dbg !3002
  %cmp24 = icmp eq %"class.xercesc_2_7::Op"* %call23, null, !dbg !3003
  br i1 %cmp24, label %land.lhs.true25, label %if.else87, !dbg !3004

land.lhs.true25:                                  ; preds = %land.lhs.true21
  %fOperations26 = getelementptr inbounds %"class.xercesc_2_7::RegularExpression", %"class.xercesc_2_7::RegularExpression"* %this1, i32 0, i32 9, !dbg !3005
  %21 = load %"class.xercesc_2_7::Op"*, %"class.xercesc_2_7::Op"** %fOperations26, align 8, !dbg !3005
  %call27 = call signext i16 @_ZNK11xercesc_2_72Op9getOpTypeEv(%"class.xercesc_2_7::Op"* %21), !dbg !3006
  %conv28 = sext i16 %call27 to i32, !dbg !3005
  %cmp29 = icmp eq i32 %conv28, 6, !dbg !3007
  br i1 %cmp29, label %if.then34, label %lor.lhs.false, !dbg !3008

lor.lhs.false:                                    ; preds = %land.lhs.true25
  %fOperations30 = getelementptr inbounds %"class.xercesc_2_7::RegularExpression", %"class.xercesc_2_7::RegularExpression"* %this1, i32 0, i32 9, !dbg !3009
  %22 = load %"class.xercesc_2_7::Op"*, %"class.xercesc_2_7::Op"** %fOperations30, align 8, !dbg !3009
  %call31 = call signext i16 @_ZNK11xercesc_2_72Op9getOpTypeEv(%"class.xercesc_2_7::Op"* %22), !dbg !3010
  %conv32 = sext i16 %call31 to i32, !dbg !3009
  %cmp33 = icmp eq i32 %conv32, 1, !dbg !3011
  br i1 %cmp33, label %if.then34, label %if.else87, !dbg !3012

if.then34:                                        ; preds = %lor.lhs.false, %land.lhs.true25
  %fFixedStringOnly = getelementptr inbounds %"class.xercesc_2_7::RegularExpression", %"class.xercesc_2_7::RegularExpression"* %this1, i32 0, i32 1, !dbg !3013
  store i8 1, i8* %fFixedStringOnly, align 1, !dbg !3015
  %fOperations35 = getelementptr inbounds %"class.xercesc_2_7::RegularExpression", %"class.xercesc_2_7::RegularExpression"* %this1, i32 0, i32 9, !dbg !3016
  %23 = load %"class.xercesc_2_7::Op"*, %"class.xercesc_2_7::Op"** %fOperations35, align 8, !dbg !3016
  %call36 = call signext i16 @_ZNK11xercesc_2_72Op9getOpTypeEv(%"class.xercesc_2_7::Op"* %23), !dbg !3018
  %conv37 = sext i16 %call36 to i32, !dbg !3016
  %cmp38 = icmp eq i32 %conv37, 6, !dbg !3019
  br i1 %cmp38, label %if.then39, label %if.else, !dbg !3020

if.then39:                                        ; preds = %if.then34
  %fMemoryManager = getelementptr inbounds %"class.xercesc_2_7::RegularExpression", %"class.xercesc_2_7::RegularExpression"* %this1, i32 0, i32 14, !dbg !3021
  %24 = load %"class.xercesc_2_7::MemoryManager"*, %"class.xercesc_2_7::MemoryManager"** %fMemoryManager, align 8, !dbg !3021
  %fFixedString = getelementptr inbounds %"class.xercesc_2_7::RegularExpression", %"class.xercesc_2_7::RegularExpression"* %this1, i32 0, i32 8, !dbg !3023
  %25 = load i16*, i16** %fFixedString, align 8, !dbg !3023
  %26 = bitcast i16* %25 to i8*, !dbg !3023
  %27 = bitcast %"class.xercesc_2_7::MemoryManager"* %24 to void (%"class.xercesc_2_7::MemoryManager"*, i8*)***, !dbg !3024
  %vtable40 = load void (%"class.xercesc_2_7::MemoryManager"*, i8*)**, void (%"class.xercesc_2_7::MemoryManager"*, i8*)*** %27, align 8, !dbg !3024
  %vfn41 = getelementptr inbounds void (%"class.xercesc_2_7::MemoryManager"*, i8*)*, void (%"class.xercesc_2_7::MemoryManager"*, i8*)** %vtable40, i64 3, !dbg !3024
  %28 = load void (%"class.xercesc_2_7::MemoryManager"*, i8*)*, void (%"class.xercesc_2_7::MemoryManager"*, i8*)** %vfn41, align 8, !dbg !3024
  call void %28(%"class.xercesc_2_7::MemoryManager"* %24, i8* %26), !dbg !3024
  %fOperations42 = getelementptr inbounds %"class.xercesc_2_7::RegularExpression", %"class.xercesc_2_7::RegularExpression"* %this1, i32 0, i32 9, !dbg !3025
  %29 = load %"class.xercesc_2_7::Op"*, %"class.xercesc_2_7::Op"** %fOperations42, align 8, !dbg !3025
  %30 = bitcast %"class.xercesc_2_7::Op"* %29 to i16* (%"class.xercesc_2_7::Op"*)***, !dbg !3026
  %vtable43 = load i16* (%"class.xercesc_2_7::Op"*)**, i16* (%"class.xercesc_2_7::Op"*)*** %30, align 8, !dbg !3026
  %vfn44 = getelementptr inbounds i16* (%"class.xercesc_2_7::Op"*)*, i16* (%"class.xercesc_2_7::Op"*)** %vtable43, i64 12, !dbg !3026
  %31 = load i16* (%"class.xercesc_2_7::Op"*)*, i16* (%"class.xercesc_2_7::Op"*)** %vfn44, align 8, !dbg !3026
  %call45 = call i16* %31(%"class.xercesc_2_7::Op"* %29), !dbg !3026
  %fMemoryManager46 = getelementptr inbounds %"class.xercesc_2_7::RegularExpression", %"class.xercesc_2_7::RegularExpression"* %this1, i32 0, i32 14, !dbg !3027
  %32 = load %"class.xercesc_2_7::MemoryManager"*, %"class.xercesc_2_7::MemoryManager"** %fMemoryManager46, align 8, !dbg !3027
  %call47 = call i16* @_ZN11xercesc_2_79XMLString9replicateEPKtPNS_13MemoryManagerE(i16* %call45, %"class.xercesc_2_7::MemoryManager"* %32), !dbg !3028
  %fFixedString48 = getelementptr inbounds %"class.xercesc_2_7::RegularExpression", %"class.xercesc_2_7::RegularExpression"* %this1, i32 0, i32 8, !dbg !3029
  store i16* %call47, i16** %fFixedString48, align 8, !dbg !3030
  br label %if.end79, !dbg !3031

if.else:                                          ; preds = %if.then34
  call void @llvm.dbg.declare(metadata i32* %ch, metadata !3032, metadata !DIExpression()), !dbg !3034
  %fOperations49 = getelementptr inbounds %"class.xercesc_2_7::RegularExpression", %"class.xercesc_2_7::RegularExpression"* %this1, i32 0, i32 9, !dbg !3035
  %33 = load %"class.xercesc_2_7::Op"*, %"class.xercesc_2_7::Op"** %fOperations49, align 8, !dbg !3035
  %34 = bitcast %"class.xercesc_2_7::Op"* %33 to i32 (%"class.xercesc_2_7::Op"*)***, !dbg !3036
  %vtable50 = load i32 (%"class.xercesc_2_7::Op"*)**, i32 (%"class.xercesc_2_7::Op"*)*** %34, align 8, !dbg !3036
  %vfn51 = getelementptr inbounds i32 (%"class.xercesc_2_7::Op"*)*, i32 (%"class.xercesc_2_7::Op"*)** %vtable50, i64 2, !dbg !3036
  %35 = load i32 (%"class.xercesc_2_7::Op"*)*, i32 (%"class.xercesc_2_7::Op"*)** %vfn51, align 8, !dbg !3036
  %call52 = call i32 %35(%"class.xercesc_2_7::Op"* %33), !dbg !3036
  store i32 %call52, i32* %ch, align 4, !dbg !3034
  %36 = load i32, i32* %ch, align 4, !dbg !3037
  %cmp53 = icmp sge i32 %36, 65536, !dbg !3039
  br i1 %cmp53, label %if.then54, label %if.else62, !dbg !3040

if.then54:                                        ; preds = %if.else
  %fMemoryManager55 = getelementptr inbounds %"class.xercesc_2_7::RegularExpression", %"class.xercesc_2_7::RegularExpression"* %this1, i32 0, i32 14, !dbg !3041
  %37 = load %"class.xercesc_2_7::MemoryManager"*, %"class.xercesc_2_7::MemoryManager"** %fMemoryManager55, align 8, !dbg !3041
  %fFixedString56 = getelementptr inbounds %"class.xercesc_2_7::RegularExpression", %"class.xercesc_2_7::RegularExpression"* %this1, i32 0, i32 8, !dbg !3043
  %38 = load i16*, i16** %fFixedString56, align 8, !dbg !3043
  %39 = bitcast i16* %38 to i8*, !dbg !3043
  %40 = bitcast %"class.xercesc_2_7::MemoryManager"* %37 to void (%"class.xercesc_2_7::MemoryManager"*, i8*)***, !dbg !3044
  %vtable57 = load void (%"class.xercesc_2_7::MemoryManager"*, i8*)**, void (%"class.xercesc_2_7::MemoryManager"*, i8*)*** %40, align 8, !dbg !3044
  %vfn58 = getelementptr inbounds void (%"class.xercesc_2_7::MemoryManager"*, i8*)*, void (%"class.xercesc_2_7::MemoryManager"*, i8*)** %vtable57, i64 3, !dbg !3044
  %41 = load void (%"class.xercesc_2_7::MemoryManager"*, i8*)*, void (%"class.xercesc_2_7::MemoryManager"*, i8*)** %vfn58, align 8, !dbg !3044
  call void %41(%"class.xercesc_2_7::MemoryManager"* %37, i8* %39), !dbg !3044
  %42 = load i32, i32* %ch, align 4, !dbg !3045
  %fMemoryManager59 = getelementptr inbounds %"class.xercesc_2_7::RegularExpression", %"class.xercesc_2_7::RegularExpression"* %this1, i32 0, i32 14, !dbg !3046
  %43 = load %"class.xercesc_2_7::MemoryManager"*, %"class.xercesc_2_7::MemoryManager"** %fMemoryManager59, align 8, !dbg !3046
  %call60 = call i16* @_ZN11xercesc_2_78RegxUtil21decomposeToSurrogatesEiPNS_13MemoryManagerE(i32 %42, %"class.xercesc_2_7::MemoryManager"* %43), !dbg !3047
  %fFixedString61 = getelementptr inbounds %"class.xercesc_2_7::RegularExpression", %"class.xercesc_2_7::RegularExpression"* %this1, i32 0, i32 8, !dbg !3048
  store i16* %call60, i16** %fFixedString61, align 8, !dbg !3049
  br label %if.end78, !dbg !3050

if.else62:                                        ; preds = %if.else
  call void @llvm.dbg.declare(metadata i16** %dummyStr, metadata !3051, metadata !DIExpression()), !dbg !3053
  %fMemoryManager63 = getelementptr inbounds %"class.xercesc_2_7::RegularExpression", %"class.xercesc_2_7::RegularExpression"* %this1, i32 0, i32 14, !dbg !3054
  %44 = load %"class.xercesc_2_7::MemoryManager"*, %"class.xercesc_2_7::MemoryManager"** %fMemoryManager63, align 8, !dbg !3054
  %45 = bitcast %"class.xercesc_2_7::MemoryManager"* %44 to i8* (%"class.xercesc_2_7::MemoryManager"*, i64)***, !dbg !3055
  %vtable64 = load i8* (%"class.xercesc_2_7::MemoryManager"*, i64)**, i8* (%"class.xercesc_2_7::MemoryManager"*, i64)*** %45, align 8, !dbg !3055
  %vfn65 = getelementptr inbounds i8* (%"class.xercesc_2_7::MemoryManager"*, i64)*, i8* (%"class.xercesc_2_7::MemoryManager"*, i64)** %vtable64, i64 2, !dbg !3055
  %46 = load i8* (%"class.xercesc_2_7::MemoryManager"*, i64)*, i8* (%"class.xercesc_2_7::MemoryManager"*, i64)** %vfn65, align 8, !dbg !3055
  %call66 = call i8* %46(%"class.xercesc_2_7::MemoryManager"* %44, i64 4), !dbg !3055
  %47 = bitcast i8* %call66 to i16*, !dbg !3056
  store i16* %47, i16** %dummyStr, align 8, !dbg !3053
  %fOperations67 = getelementptr inbounds %"class.xercesc_2_7::RegularExpression", %"class.xercesc_2_7::RegularExpression"* %this1, i32 0, i32 9, !dbg !3057
  %48 = load %"class.xercesc_2_7::Op"*, %"class.xercesc_2_7::Op"** %fOperations67, align 8, !dbg !3057
  %49 = bitcast %"class.xercesc_2_7::Op"* %48 to i32 (%"class.xercesc_2_7::Op"*)***, !dbg !3058
  %vtable68 = load i32 (%"class.xercesc_2_7::Op"*)**, i32 (%"class.xercesc_2_7::Op"*)*** %49, align 8, !dbg !3058
  %vfn69 = getelementptr inbounds i32 (%"class.xercesc_2_7::Op"*)*, i32 (%"class.xercesc_2_7::Op"*)** %vtable68, i64 2, !dbg !3058
  %50 = load i32 (%"class.xercesc_2_7::Op"*)*, i32 (%"class.xercesc_2_7::Op"*)** %vfn69, align 8, !dbg !3058
  %call70 = call i32 %50(%"class.xercesc_2_7::Op"* %48), !dbg !3058
  %conv71 = trunc i32 %call70 to i16, !dbg !3057
  %51 = load i16*, i16** %dummyStr, align 8, !dbg !3059
  %arrayidx = getelementptr inbounds i16, i16* %51, i64 0, !dbg !3059
  store i16 %conv71, i16* %arrayidx, align 2, !dbg !3060
  %52 = load i16*, i16** %dummyStr, align 8, !dbg !3061
  %arrayidx72 = getelementptr inbounds i16, i16* %52, i64 1, !dbg !3061
  store i16 0, i16* %arrayidx72, align 2, !dbg !3062
  %fMemoryManager73 = getelementptr inbounds %"class.xercesc_2_7::RegularExpression", %"class.xercesc_2_7::RegularExpression"* %this1, i32 0, i32 14, !dbg !3063
  %53 = load %"class.xercesc_2_7::MemoryManager"*, %"class.xercesc_2_7::MemoryManager"** %fMemoryManager73, align 8, !dbg !3063
  %fFixedString74 = getelementptr inbounds %"class.xercesc_2_7::RegularExpression", %"class.xercesc_2_7::RegularExpression"* %this1, i32 0, i32 8, !dbg !3064
  %54 = load i16*, i16** %fFixedString74, align 8, !dbg !3064
  %55 = bitcast i16* %54 to i8*, !dbg !3064
  %56 = bitcast %"class.xercesc_2_7::MemoryManager"* %53 to void (%"class.xercesc_2_7::MemoryManager"*, i8*)***, !dbg !3065
  %vtable75 = load void (%"class.xercesc_2_7::MemoryManager"*, i8*)**, void (%"class.xercesc_2_7::MemoryManager"*, i8*)*** %56, align 8, !dbg !3065
  %vfn76 = getelementptr inbounds void (%"class.xercesc_2_7::MemoryManager"*, i8*)*, void (%"class.xercesc_2_7::MemoryManager"*, i8*)** %vtable75, i64 3, !dbg !3065
  %57 = load void (%"class.xercesc_2_7::MemoryManager"*, i8*)*, void (%"class.xercesc_2_7::MemoryManager"*, i8*)** %vfn76, align 8, !dbg !3065
  call void %57(%"class.xercesc_2_7::MemoryManager"* %53, i8* %55), !dbg !3065
  %58 = load i16*, i16** %dummyStr, align 8, !dbg !3066
  %fFixedString77 = getelementptr inbounds %"class.xercesc_2_7::RegularExpression", %"class.xercesc_2_7::RegularExpression"* %this1, i32 0, i32 8, !dbg !3067
  store i16* %58, i16** %fFixedString77, align 8, !dbg !3068
  br label %if.end78

if.end78:                                         ; preds = %if.else62, %if.then54
  br label %if.end79

if.end79:                                         ; preds = %if.end78, %if.then39
  %fMemoryManager80 = getelementptr inbounds %"class.xercesc_2_7::RegularExpression", %"class.xercesc_2_7::RegularExpression"* %this1, i32 0, i32 14, !dbg !3069
  %59 = load %"class.xercesc_2_7::MemoryManager"*, %"class.xercesc_2_7::MemoryManager"** %fMemoryManager80, align 8, !dbg !3069
  %call81 = call i8* @_ZN11xercesc_2_77XMemorynwEmPNS_13MemoryManagerE(i64 40, %"class.xercesc_2_7::MemoryManager"* %59), !dbg !3070
  %60 = bitcast i8* %call81 to %"class.xercesc_2_7::BMPattern"*, !dbg !3070
  %fFixedString82 = getelementptr inbounds %"class.xercesc_2_7::RegularExpression", %"class.xercesc_2_7::RegularExpression"* %this1, i32 0, i32 8, !dbg !3071
  %61 = load i16*, i16** %fFixedString82, align 8, !dbg !3071
  %fOptions83 = getelementptr inbounds %"class.xercesc_2_7::RegularExpression", %"class.xercesc_2_7::RegularExpression"* %this1, i32 0, i32 5, !dbg !3072
  %62 = load i32, i32* %fOptions83, align 8, !dbg !3072
  %call84 = invoke zeroext i1 @_ZN11xercesc_2_717RegularExpression5isSetEii(i32 %62, i32 2)
          to label %invoke.cont unwind label %lpad, !dbg !3073

invoke.cont:                                      ; preds = %if.end79
  %fMemoryManager85 = getelementptr inbounds %"class.xercesc_2_7::RegularExpression", %"class.xercesc_2_7::RegularExpression"* %this1, i32 0, i32 14, !dbg !3074
  %63 = load %"class.xercesc_2_7::MemoryManager"*, %"class.xercesc_2_7::MemoryManager"** %fMemoryManager85, align 8, !dbg !3074
  invoke void @_ZN11xercesc_2_79BMPatternC1EPKtibPNS_13MemoryManagerE(%"class.xercesc_2_7::BMPattern"* %60, i16* %61, i32 256, i1 zeroext %call84, %"class.xercesc_2_7::MemoryManager"* %63)
          to label %invoke.cont86 unwind label %lpad, !dbg !3075

invoke.cont86:                                    ; preds = %invoke.cont
  %fBMPattern = getelementptr inbounds %"class.xercesc_2_7::RegularExpression", %"class.xercesc_2_7::RegularExpression"* %this1, i32 0, i32 6, !dbg !3076
  store %"class.xercesc_2_7::BMPattern"* %60, %"class.xercesc_2_7::BMPattern"** %fBMPattern, align 8, !dbg !3077
  br label %if.end135, !dbg !3078

lpad:                                             ; preds = %invoke.cont, %if.end79
  %64 = landingpad { i8*, i32 }
          cleanup, !dbg !3079
  %65 = extractvalue { i8*, i32 } %64, 0, !dbg !3079
  store i8* %65, i8** %exn.slot, align 8, !dbg !3079
  %66 = extractvalue { i8*, i32 } %64, 1, !dbg !3079
  store i32 %66, i32* %ehselector.slot, align 4, !dbg !3079
  call void @_ZN11xercesc_2_77XMemorydlEPvPNS_13MemoryManagerE(i8* %call81, %"class.xercesc_2_7::MemoryManager"* %59) #9, !dbg !3070
  br label %eh.resume, !dbg !3070

if.else87:                                        ; preds = %lor.lhs.false, %land.lhs.true21, %if.end19
  %fOptions88 = getelementptr inbounds %"class.xercesc_2_7::RegularExpression", %"class.xercesc_2_7::RegularExpression"* %this1, i32 0, i32 5, !dbg !3080
  %67 = load i32, i32* %fOptions88, align 8, !dbg !3080
  %call89 = call zeroext i1 @_ZN11xercesc_2_717RegularExpression5isSetEii(i32 %67, i32 512), !dbg !3082
  br i1 %call89, label %if.end134, label %land.lhs.true90, !dbg !3083

land.lhs.true90:                                  ; preds = %if.else87
  %fOptions91 = getelementptr inbounds %"class.xercesc_2_7::RegularExpression", %"class.xercesc_2_7::RegularExpression"* %this1, i32 0, i32 5, !dbg !3084
  %68 = load i32, i32* %fOptions91, align 8, !dbg !3084
  %call92 = call zeroext i1 @_ZN11xercesc_2_717RegularExpression5isSetEii(i32 %68, i32 256), !dbg !3085
  br i1 %call92, label %if.end134, label %if.then93, !dbg !3086

if.then93:                                        ; preds = %land.lhs.true90
  call void @llvm.dbg.declare(metadata i32* %fixedOpts, metadata !3087, metadata !DIExpression()), !dbg !3089
  store i32 0, i32* %fixedOpts, align 4, !dbg !3089
  call void @llvm.dbg.declare(metadata %"class.xercesc_2_7::Token"** %tok, metadata !3090, metadata !DIExpression()), !dbg !3091
  %fTokenTree94 = getelementptr inbounds %"class.xercesc_2_7::RegularExpression", %"class.xercesc_2_7::RegularExpression"* %this1, i32 0, i32 10, !dbg !3092
  %69 = load %"class.xercesc_2_7::Token"*, %"class.xercesc_2_7::Token"** %fTokenTree94, align 8, !dbg !3092
  %fOptions95 = getelementptr inbounds %"class.xercesc_2_7::RegularExpression", %"class.xercesc_2_7::RegularExpression"* %this1, i32 0, i32 5, !dbg !3093
  %70 = load i32, i32* %fOptions95, align 8, !dbg !3093
  %call96 = call %"class.xercesc_2_7::Token"* @_ZN11xercesc_2_75Token15findFixedStringEiRi(%"class.xercesc_2_7::Token"* %69, i32 %70, i32* dereferenceable(4) %fixedOpts), !dbg !3094
  store %"class.xercesc_2_7::Token"* %call96, %"class.xercesc_2_7::Token"** %tok, align 8, !dbg !3091
  %fMemoryManager97 = getelementptr inbounds %"class.xercesc_2_7::RegularExpression", %"class.xercesc_2_7::RegularExpression"* %this1, i32 0, i32 14, !dbg !3095
  %71 = load %"class.xercesc_2_7::MemoryManager"*, %"class.xercesc_2_7::MemoryManager"** %fMemoryManager97, align 8, !dbg !3095
  %fFixedString98 = getelementptr inbounds %"class.xercesc_2_7::RegularExpression", %"class.xercesc_2_7::RegularExpression"* %this1, i32 0, i32 8, !dbg !3096
  %72 = load i16*, i16** %fFixedString98, align 8, !dbg !3096
  %73 = bitcast i16* %72 to i8*, !dbg !3096
  %74 = bitcast %"class.xercesc_2_7::MemoryManager"* %71 to void (%"class.xercesc_2_7::MemoryManager"*, i8*)***, !dbg !3097
  %vtable99 = load void (%"class.xercesc_2_7::MemoryManager"*, i8*)**, void (%"class.xercesc_2_7::MemoryManager"*, i8*)*** %74, align 8, !dbg !3097
  %vfn100 = getelementptr inbounds void (%"class.xercesc_2_7::MemoryManager"*, i8*)*, void (%"class.xercesc_2_7::MemoryManager"*, i8*)** %vtable99, i64 3, !dbg !3097
  %75 = load void (%"class.xercesc_2_7::MemoryManager"*, i8*)*, void (%"class.xercesc_2_7::MemoryManager"*, i8*)** %vfn100, align 8, !dbg !3097
  call void %75(%"class.xercesc_2_7::MemoryManager"* %71, i8* %73), !dbg !3097
  %76 = load %"class.xercesc_2_7::Token"*, %"class.xercesc_2_7::Token"** %tok, align 8, !dbg !3098
  %cmp101 = icmp eq %"class.xercesc_2_7::Token"* %76, null, !dbg !3099
  br i1 %cmp101, label %cond.true, label %cond.false, !dbg !3100

cond.true:                                        ; preds = %if.then93
  br label %cond.end, !dbg !3100

cond.false:                                       ; preds = %if.then93
  %77 = load %"class.xercesc_2_7::Token"*, %"class.xercesc_2_7::Token"** %tok, align 8, !dbg !3101
  %78 = bitcast %"class.xercesc_2_7::Token"* %77 to i16* (%"class.xercesc_2_7::Token"*)***, !dbg !3102
  %vtable102 = load i16* (%"class.xercesc_2_7::Token"*)**, i16* (%"class.xercesc_2_7::Token"*)*** %78, align 8, !dbg !3102
  %vfn103 = getelementptr inbounds i16* (%"class.xercesc_2_7::Token"*)*, i16* (%"class.xercesc_2_7::Token"*)** %vtable102, i64 8, !dbg !3102
  %79 = load i16* (%"class.xercesc_2_7::Token"*)*, i16* (%"class.xercesc_2_7::Token"*)** %vfn103, align 8, !dbg !3102
  %call104 = call i16* %79(%"class.xercesc_2_7::Token"* %77), !dbg !3102
  %fMemoryManager105 = getelementptr inbounds %"class.xercesc_2_7::RegularExpression", %"class.xercesc_2_7::RegularExpression"* %this1, i32 0, i32 14, !dbg !3103
  %80 = load %"class.xercesc_2_7::MemoryManager"*, %"class.xercesc_2_7::MemoryManager"** %fMemoryManager105, align 8, !dbg !3103
  %call106 = call i16* @_ZN11xercesc_2_79XMLString9replicateEPKtPNS_13MemoryManagerE(i16* %call104, %"class.xercesc_2_7::MemoryManager"* %80), !dbg !3104
  br label %cond.end, !dbg !3100

cond.end:                                         ; preds = %cond.false, %cond.true
  %cond = phi i16* [ null, %cond.true ], [ %call106, %cond.false ], !dbg !3100
  %fFixedString107 = getelementptr inbounds %"class.xercesc_2_7::RegularExpression", %"class.xercesc_2_7::RegularExpression"* %this1, i32 0, i32 8, !dbg !3105
  store i16* %cond, i16** %fFixedString107, align 8, !dbg !3106
  %fFixedString108 = getelementptr inbounds %"class.xercesc_2_7::RegularExpression", %"class.xercesc_2_7::RegularExpression"* %this1, i32 0, i32 8, !dbg !3107
  %81 = load i16*, i16** %fFixedString108, align 8, !dbg !3107
  %cmp109 = icmp ne i16* %81, null, !dbg !3109
  br i1 %cmp109, label %land.lhs.true110, label %if.end120, !dbg !3110

land.lhs.true110:                                 ; preds = %cond.end
  %fFixedString111 = getelementptr inbounds %"class.xercesc_2_7::RegularExpression", %"class.xercesc_2_7::RegularExpression"* %this1, i32 0, i32 8, !dbg !3111
  %82 = load i16*, i16** %fFixedString111, align 8, !dbg !3111
  %call112 = call i32 @_ZN11xercesc_2_79XMLString9stringLenEPKt(i16* %82), !dbg !3112
  %cmp113 = icmp ult i32 %call112, 2, !dbg !3113
  br i1 %cmp113, label %if.then114, label %if.end120, !dbg !3114

if.then114:                                       ; preds = %land.lhs.true110
  %fMemoryManager115 = getelementptr inbounds %"class.xercesc_2_7::RegularExpression", %"class.xercesc_2_7::RegularExpression"* %this1, i32 0, i32 14, !dbg !3115
  %83 = load %"class.xercesc_2_7::MemoryManager"*, %"class.xercesc_2_7::MemoryManager"** %fMemoryManager115, align 8, !dbg !3115
  %fFixedString116 = getelementptr inbounds %"class.xercesc_2_7::RegularExpression", %"class.xercesc_2_7::RegularExpression"* %this1, i32 0, i32 8, !dbg !3117
  %84 = load i16*, i16** %fFixedString116, align 8, !dbg !3117
  %85 = bitcast i16* %84 to i8*, !dbg !3117
  %86 = bitcast %"class.xercesc_2_7::MemoryManager"* %83 to void (%"class.xercesc_2_7::MemoryManager"*, i8*)***, !dbg !3118
  %vtable117 = load void (%"class.xercesc_2_7::MemoryManager"*, i8*)**, void (%"class.xercesc_2_7::MemoryManager"*, i8*)*** %86, align 8, !dbg !3118
  %vfn118 = getelementptr inbounds void (%"class.xercesc_2_7::MemoryManager"*, i8*)*, void (%"class.xercesc_2_7::MemoryManager"*, i8*)** %vtable117, i64 3, !dbg !3118
  %87 = load void (%"class.xercesc_2_7::MemoryManager"*, i8*)*, void (%"class.xercesc_2_7::MemoryManager"*, i8*)** %vfn118, align 8, !dbg !3118
  call void %87(%"class.xercesc_2_7::MemoryManager"* %83, i8* %85), !dbg !3118
  %fFixedString119 = getelementptr inbounds %"class.xercesc_2_7::RegularExpression", %"class.xercesc_2_7::RegularExpression"* %this1, i32 0, i32 8, !dbg !3119
  store i16* null, i16** %fFixedString119, align 8, !dbg !3120
  br label %if.end120, !dbg !3121

if.end120:                                        ; preds = %if.then114, %land.lhs.true110, %cond.end
  %fFixedString121 = getelementptr inbounds %"class.xercesc_2_7::RegularExpression", %"class.xercesc_2_7::RegularExpression"* %this1, i32 0, i32 8, !dbg !3122
  %88 = load i16*, i16** %fFixedString121, align 8, !dbg !3122
  %cmp122 = icmp ne i16* %88, null, !dbg !3124
  br i1 %cmp122, label %if.then123, label %if.end133, !dbg !3125

if.then123:                                       ; preds = %if.end120
  %fMemoryManager124 = getelementptr inbounds %"class.xercesc_2_7::RegularExpression", %"class.xercesc_2_7::RegularExpression"* %this1, i32 0, i32 14, !dbg !3126
  %89 = load %"class.xercesc_2_7::MemoryManager"*, %"class.xercesc_2_7::MemoryManager"** %fMemoryManager124, align 8, !dbg !3126
  %call125 = call i8* @_ZN11xercesc_2_77XMemorynwEmPNS_13MemoryManagerE(i64 40, %"class.xercesc_2_7::MemoryManager"* %89), !dbg !3128
  %90 = bitcast i8* %call125 to %"class.xercesc_2_7::BMPattern"*, !dbg !3128
  %fFixedString126 = getelementptr inbounds %"class.xercesc_2_7::RegularExpression", %"class.xercesc_2_7::RegularExpression"* %this1, i32 0, i32 8, !dbg !3129
  %91 = load i16*, i16** %fFixedString126, align 8, !dbg !3129
  %92 = load i32, i32* %fixedOpts, align 4, !dbg !3130
  %call129 = invoke zeroext i1 @_ZN11xercesc_2_717RegularExpression5isSetEii(i32 %92, i32 2)
          to label %invoke.cont128 unwind label %lpad127, !dbg !3131

invoke.cont128:                                   ; preds = %if.then123
  %fMemoryManager130 = getelementptr inbounds %"class.xercesc_2_7::RegularExpression", %"class.xercesc_2_7::RegularExpression"* %this1, i32 0, i32 14, !dbg !3132
  %93 = load %"class.xercesc_2_7::MemoryManager"*, %"class.xercesc_2_7::MemoryManager"** %fMemoryManager130, align 8, !dbg !3132
  invoke void @_ZN11xercesc_2_79BMPatternC1EPKtibPNS_13MemoryManagerE(%"class.xercesc_2_7::BMPattern"* %90, i16* %91, i32 256, i1 zeroext %call129, %"class.xercesc_2_7::MemoryManager"* %93)
          to label %invoke.cont131 unwind label %lpad127, !dbg !3133

invoke.cont131:                                   ; preds = %invoke.cont128
  %fBMPattern132 = getelementptr inbounds %"class.xercesc_2_7::RegularExpression", %"class.xercesc_2_7::RegularExpression"* %this1, i32 0, i32 6, !dbg !3134
  store %"class.xercesc_2_7::BMPattern"* %90, %"class.xercesc_2_7::BMPattern"** %fBMPattern132, align 8, !dbg !3135
  br label %if.end133, !dbg !3136

lpad127:                                          ; preds = %invoke.cont128, %if.then123
  %94 = landingpad { i8*, i32 }
          cleanup, !dbg !3137
  %95 = extractvalue { i8*, i32 } %94, 0, !dbg !3137
  store i8* %95, i8** %exn.slot, align 8, !dbg !3137
  %96 = extractvalue { i8*, i32 } %94, 1, !dbg !3137
  store i32 %96, i32* %ehselector.slot, align 4, !dbg !3137
  call void @_ZN11xercesc_2_77XMemorydlEPvPNS_13MemoryManagerE(i8* %call125, %"class.xercesc_2_7::MemoryManager"* %89) #9, !dbg !3128
  br label %eh.resume, !dbg !3128

if.end133:                                        ; preds = %invoke.cont131, %if.end120
  br label %if.end134, !dbg !3138

if.end134:                                        ; preds = %if.end133, %land.lhs.true90, %if.else87
  br label %if.end135

if.end135:                                        ; preds = %if.end134, %invoke.cont86
  ret void, !dbg !3139

eh.resume:                                        ; preds = %lpad127, %lpad
  %exn = load i8*, i8** %exn.slot, align 8, !dbg !3070
  %sel = load i32, i32* %ehselector.slot, align 4, !dbg !3070
  %lpad.val = insertvalue { i8*, i32 } undef, i8* %exn, 0, !dbg !3070
  %lpad.val136 = insertvalue { i8*, i32 } %lpad.val, i32 %sel, 1, !dbg !3070
  resume { i8*, i32 } %lpad.val136, !dbg !3070
}

; Function Attrs: noinline nounwind uwtable
define linkonce_odr dso_local void @_ZN11xercesc_2_77JanitorINS_10RegxParserEED2Ev(%"class.xercesc_2_7::Janitor"* %this) unnamed_addr #1 comdat align 2 personality i8* bitcast (i32 (...)* @__gxx_personality_v0 to i8*) !dbg !3140 {
entry:
  %this.addr = alloca %"class.xercesc_2_7::Janitor"*, align 8
  store %"class.xercesc_2_7::Janitor"* %this, %"class.xercesc_2_7::Janitor"** %this.addr, align 8
  call void @llvm.dbg.declare(metadata %"class.xercesc_2_7::Janitor"** %this.addr, metadata !3141, metadata !DIExpression()), !dbg !3142
  %this1 = load %"class.xercesc_2_7::Janitor"*, %"class.xercesc_2_7::Janitor"** %this.addr, align 8
  invoke void @_ZN11xercesc_2_77JanitorINS_10RegxParserEE5resetEPS1_(%"class.xercesc_2_7::Janitor"* %this1, %"class.xercesc_2_7::RegxParser"* null)
          to label %invoke.cont unwind label %terminate.lpad, !dbg !3143

invoke.cont:                                      ; preds = %entry
  ret void, !dbg !3145

terminate.lpad:                                   ; preds = %entry
  %0 = landingpad { i8*, i32 }
          catch i8* null, !dbg !3143
  %1 = extractvalue { i8*, i32 } %0, 0, !dbg !3143
  call void @__clang_call_terminate(i8* %1) #11, !dbg !3143
  unreachable, !dbg !3143
}

; Function Attrs: noinline uwtable
define dso_local zeroext i1 @_ZN11xercesc_2_717RegularExpression7matchesEPKcPNS_13MemoryManagerE(%"class.xercesc_2_7::RegularExpression"* %this, i8* %expression, %"class.xercesc_2_7::MemoryManager"* %manager) #3 align 2 personality i8* bitcast (i32 (...)* @__gxx_personality_v0 to i8*) !dbg !3146 {
entry:
  %this.addr = alloca %"class.xercesc_2_7::RegularExpression"*, align 8
  %expression.addr = alloca i8*, align 8
  %manager.addr = alloca %"class.xercesc_2_7::MemoryManager"*, align 8
  %tmpBuf = alloca i16*, align 8
  %janBuf = alloca %"class.xercesc_2_7::ArrayJanitor", align 8
  %exn.slot = alloca i8*
  %ehselector.slot = alloca i32
  store %"class.xercesc_2_7::RegularExpression"* %this, %"class.xercesc_2_7::RegularExpression"** %this.addr, align 8
  call void @llvm.dbg.declare(metadata %"class.xercesc_2_7::RegularExpression"** %this.addr, metadata !3147, metadata !DIExpression()), !dbg !3148
  store i8* %expression, i8** %expression.addr, align 8
  call void @llvm.dbg.declare(metadata i8** %expression.addr, metadata !3149, metadata !DIExpression()), !dbg !3150
  store %"class.xercesc_2_7::MemoryManager"* %manager, %"class.xercesc_2_7::MemoryManager"** %manager.addr, align 8
  call void @llvm.dbg.declare(metadata %"class.xercesc_2_7::MemoryManager"** %manager.addr, metadata !3151, metadata !DIExpression()), !dbg !3152
  %this1 = load %"class.xercesc_2_7::RegularExpression"*, %"class.xercesc_2_7::RegularExpression"** %this.addr, align 8
  call void @llvm.dbg.declare(metadata i16** %tmpBuf, metadata !3153, metadata !DIExpression()), !dbg !3154
  %0 = load i8*, i8** %expression.addr, align 8, !dbg !3155
  %1 = load %"class.xercesc_2_7::MemoryManager"*, %"class.xercesc_2_7::MemoryManager"** %manager.addr, align 8, !dbg !3156
  %call = call i16* @_ZN11xercesc_2_79XMLString9transcodeEPKcPNS_13MemoryManagerE(i8* %0, %"class.xercesc_2_7::MemoryManager"* %1), !dbg !3157
  store i16* %call, i16** %tmpBuf, align 8, !dbg !3154
  call void @llvm.dbg.declare(metadata %"class.xercesc_2_7::ArrayJanitor"* %janBuf, metadata !3158, metadata !DIExpression()), !dbg !3159
  %2 = load i16*, i16** %tmpBuf, align 8, !dbg !3160
  %3 = load %"class.xercesc_2_7::MemoryManager"*, %"class.xercesc_2_7::MemoryManager"** %manager.addr, align 8, !dbg !3161
  call void @_ZN11xercesc_2_712ArrayJanitorItEC2EPtPNS_13MemoryManagerE(%"class.xercesc_2_7::ArrayJanitor"* %janBuf, i16* %2, %"class.xercesc_2_7::MemoryManager"* %3), !dbg !3159
  %4 = load i16*, i16** %tmpBuf, align 8, !dbg !3162
  %5 = load i16*, i16** %tmpBuf, align 8, !dbg !3163
  %call2 = invoke i32 @_ZN11xercesc_2_79XMLString9stringLenEPKt(i16* %5)
          to label %invoke.cont unwind label %lpad, !dbg !3164

invoke.cont:                                      ; preds = %entry
  %6 = load %"class.xercesc_2_7::MemoryManager"*, %"class.xercesc_2_7::MemoryManager"** %manager.addr, align 8, !dbg !3165
  %call4 = invoke zeroext i1 @_ZN11xercesc_2_717RegularExpression7matchesEPKtiiPNS_5MatchEPNS_13MemoryManagerE(%"class.xercesc_2_7::RegularExpression"* %this1, i16* %4, i32 0, i32 %call2, %"class.xercesc_2_7::Match"* null, %"class.xercesc_2_7::MemoryManager"* %6)
          to label %invoke.cont3 unwind label %lpad, !dbg !3166

invoke.cont3:                                     ; preds = %invoke.cont
  call void @_ZN11xercesc_2_712ArrayJanitorItED2Ev(%"class.xercesc_2_7::ArrayJanitor"* %janBuf) #9, !dbg !3167
  ret i1 %call4, !dbg !3167

lpad:                                             ; preds = %invoke.cont, %entry
  %7 = landingpad { i8*, i32 }
          cleanup, !dbg !3167
  %8 = extractvalue { i8*, i32 } %7, 0, !dbg !3167
  store i8* %8, i8** %exn.slot, align 8, !dbg !3167
  %9 = extractvalue { i8*, i32 } %7, 1, !dbg !3167
  store i32 %9, i32* %ehselector.slot, align 4, !dbg !3167
  call void @_ZN11xercesc_2_712ArrayJanitorItED2Ev(%"class.xercesc_2_7::ArrayJanitor"* %janBuf) #9, !dbg !3167
  br label %eh.resume, !dbg !3167

eh.resume:                                        ; preds = %lpad
  %exn = load i8*, i8** %exn.slot, align 8, !dbg !3167
  %sel = load i32, i32* %ehselector.slot, align 4, !dbg !3167
  %lpad.val = insertvalue { i8*, i32 } undef, i8* %exn, 0, !dbg !3167
  %lpad.val5 = insertvalue { i8*, i32 } %lpad.val, i32 %sel, 1, !dbg !3167
  resume { i8*, i32 } %lpad.val5, !dbg !3167
}

; Function Attrs: noinline uwtable
define dso_local zeroext i1 @_ZN11xercesc_2_717RegularExpression7matchesEPKtiiPNS_5MatchEPNS_13MemoryManagerE(%"class.xercesc_2_7::RegularExpression"* %this, i16* %expression, i32 %start, i32 %end, %"class.xercesc_2_7::Match"* %pMatch, %"class.xercesc_2_7::MemoryManager"* %manager) #3 align 2 personality i8* bitcast (i32 (...)* @__gxx_personality_v0 to i8*) !dbg !3168 {
entry:
  %retval = alloca i1, align 1
  %this.addr = alloca %"class.xercesc_2_7::RegularExpression"*, align 8
  %expression.addr = alloca i16*, align 8
  %start.addr = alloca i32, align 4
  %end.addr = alloca i32, align 4
  %pMatch.addr = alloca %"class.xercesc_2_7::Match"*, align 8
  %manager.addr = alloca %"class.xercesc_2_7::MemoryManager"*, align 8
  %context = alloca %"class.xercesc_2_7::RegularExpression::Context", align 8
  %strLength = alloca i32, align 4
  %exn.slot = alloca i8*
  %ehselector.slot = alloca i32
  %adoptMatch = alloca i8, align 1
  %lMatch = alloca %"class.xercesc_2_7::Match"*, align 8
  %matchEnd = alloca i32, align 4
  %cleanup.dest.slot = alloca i32, align 4
  %ret = alloca i32, align 4
  %ret57 = alloca i32, align 4
  %limit = alloca i32, align 4
  %matchStart = alloca i32, align 4
  %matchEnd68 = alloca i32, align 4
  %previousIsEOL = alloca i8, align 1
  %ch = alloca i16, align 2
  %ignoreCase = alloca i8, align 1
  %range = alloca %"class.xercesc_2_7::RangeToken"*, align 8
  %ch130 = alloca i32, align 4
  store %"class.xercesc_2_7::RegularExpression"* %this, %"class.xercesc_2_7::RegularExpression"** %this.addr, align 8
  call void @llvm.dbg.declare(metadata %"class.xercesc_2_7::RegularExpression"** %this.addr, metadata !3169, metadata !DIExpression()), !dbg !3170
  store i16* %expression, i16** %expression.addr, align 8
  call void @llvm.dbg.declare(metadata i16** %expression.addr, metadata !3171, metadata !DIExpression()), !dbg !3172
  store i32 %start, i32* %start.addr, align 4
  call void @llvm.dbg.declare(metadata i32* %start.addr, metadata !3173, metadata !DIExpression()), !dbg !3174
  store i32 %end, i32* %end.addr, align 4
  call void @llvm.dbg.declare(metadata i32* %end.addr, metadata !3175, metadata !DIExpression()), !dbg !3176
  store %"class.xercesc_2_7::Match"* %pMatch, %"class.xercesc_2_7::Match"** %pMatch.addr, align 8
  call void @llvm.dbg.declare(metadata %"class.xercesc_2_7::Match"** %pMatch.addr, metadata !3177, metadata !DIExpression()), !dbg !3178
  store %"class.xercesc_2_7::MemoryManager"* %manager, %"class.xercesc_2_7::MemoryManager"** %manager.addr, align 8
  call void @llvm.dbg.declare(metadata %"class.xercesc_2_7::MemoryManager"** %manager.addr, metadata !3179, metadata !DIExpression()), !dbg !3180
  %this1 = load %"class.xercesc_2_7::RegularExpression"*, %"class.xercesc_2_7::RegularExpression"** %this.addr, align 8
  call void @llvm.dbg.declare(metadata %"class.xercesc_2_7::RegularExpression::Context"* %context, metadata !3181, metadata !DIExpression()), !dbg !3182
  %0 = load %"class.xercesc_2_7::MemoryManager"*, %"class.xercesc_2_7::MemoryManager"** %manager.addr, align 8, !dbg !3183
  call void @_ZN11xercesc_2_717RegularExpression7ContextC1EPNS_13MemoryManagerE(%"class.xercesc_2_7::RegularExpression::Context"* %context, %"class.xercesc_2_7::MemoryManager"* %0), !dbg !3182
  call void @llvm.dbg.declare(metadata i32* %strLength, metadata !3184, metadata !DIExpression()), !dbg !3185
  %1 = load i16*, i16** %expression.addr, align 8, !dbg !3186
  %call = invoke i32 @_ZN11xercesc_2_79XMLString9stringLenEPKt(i16* %1)
          to label %invoke.cont unwind label %lpad, !dbg !3187

invoke.cont:                                      ; preds = %entry
  store i32 %call, i32* %strLength, align 4, !dbg !3185
  %2 = load i16*, i16** %expression.addr, align 8, !dbg !3188
  %3 = load i32, i32* %strLength, align 4, !dbg !3189
  %4 = load i32, i32* %start.addr, align 4, !dbg !3190
  %5 = load i32, i32* %end.addr, align 4, !dbg !3191
  %fNoClosures = getelementptr inbounds %"class.xercesc_2_7::RegularExpression", %"class.xercesc_2_7::RegularExpression"* %this1, i32 0, i32 4, !dbg !3192
  %6 = load i32, i32* %fNoClosures, align 4, !dbg !3192
  invoke void @_ZN11xercesc_2_717RegularExpression7Context5resetEPKtiiii(%"class.xercesc_2_7::RegularExpression::Context"* %context, i16* %2, i32 %3, i32 %4, i32 %5, i32 %6)
          to label %invoke.cont2 unwind label %lpad, !dbg !3193

invoke.cont2:                                     ; preds = %invoke.cont
  call void @llvm.dbg.declare(metadata i8* %adoptMatch, metadata !3194, metadata !DIExpression()), !dbg !3195
  store i8 0, i8* %adoptMatch, align 1, !dbg !3195
  call void @llvm.dbg.declare(metadata %"class.xercesc_2_7::Match"** %lMatch, metadata !3196, metadata !DIExpression()), !dbg !3197
  %7 = load %"class.xercesc_2_7::Match"*, %"class.xercesc_2_7::Match"** %pMatch.addr, align 8, !dbg !3198
  store %"class.xercesc_2_7::Match"* %7, %"class.xercesc_2_7::Match"** %lMatch, align 8, !dbg !3197
  %8 = load %"class.xercesc_2_7::Match"*, %"class.xercesc_2_7::Match"** %lMatch, align 8, !dbg !3199
  %cmp = icmp ne %"class.xercesc_2_7::Match"* %8, null, !dbg !3201
  br i1 %cmp, label %if.then, label %if.else, !dbg !3202

if.then:                                          ; preds = %invoke.cont2
  %9 = load %"class.xercesc_2_7::Match"*, %"class.xercesc_2_7::Match"** %lMatch, align 8, !dbg !3203
  %fNoGroups = getelementptr inbounds %"class.xercesc_2_7::RegularExpression", %"class.xercesc_2_7::RegularExpression"* %this1, i32 0, i32 2, !dbg !3205
  %10 = load i32, i32* %fNoGroups, align 4, !dbg !3205
  invoke void @_ZN11xercesc_2_75Match11setNoGroupsEi(%"class.xercesc_2_7::Match"* %9, i32 %10)
          to label %invoke.cont3 unwind label %lpad, !dbg !3206

invoke.cont3:                                     ; preds = %if.then
  br label %if.end12, !dbg !3207

lpad:                                             ; preds = %invoke.cont170, %if.then168, %for.body152, %if.end138, %if.end134, %for.body129, %if.then121, %if.then114, %if.then102, %for.body, %if.then89, %if.then85, %invoke.cont79, %land.lhs.true75, %land.lhs.true, %if.then56, %invoke.cont49, %if.then47, %if.then38, %invoke.cont31, %if.then28, %if.then21, %if.end15, %invoke.cont9, %if.then4, %if.then, %invoke.cont, %entry
  %11 = landingpad { i8*, i32 }
          cleanup, !dbg !3208
  %12 = extractvalue { i8*, i32 } %11, 0, !dbg !3208
  store i8* %12, i8** %exn.slot, align 8, !dbg !3208
  %13 = extractvalue { i8*, i32 } %11, 1, !dbg !3208
  store i32 %13, i32* %ehselector.slot, align 4, !dbg !3208
  br label %ehcleanup, !dbg !3208

if.else:                                          ; preds = %invoke.cont2
  %fHasBackReferences = getelementptr inbounds %"class.xercesc_2_7::RegularExpression", %"class.xercesc_2_7::RegularExpression"* %this1, i32 0, i32 0, !dbg !3209
  %14 = load i8, i8* %fHasBackReferences, align 8, !dbg !3209
  %tobool = trunc i8 %14 to i1, !dbg !3209
  br i1 %tobool, label %if.then4, label %if.end, !dbg !3211

if.then4:                                         ; preds = %if.else
  %fMemoryManager = getelementptr inbounds %"class.xercesc_2_7::RegularExpression", %"class.xercesc_2_7::RegularExpression"* %this1, i32 0, i32 14, !dbg !3212
  %15 = load %"class.xercesc_2_7::MemoryManager"*, %"class.xercesc_2_7::MemoryManager"** %fMemoryManager, align 8, !dbg !3212
  %call6 = invoke i8* @_ZN11xercesc_2_77XMemorynwEmPNS_13MemoryManagerE(i64 40, %"class.xercesc_2_7::MemoryManager"* %15)
          to label %invoke.cont5 unwind label %lpad, !dbg !3214

invoke.cont5:                                     ; preds = %if.then4
  %16 = bitcast i8* %call6 to %"class.xercesc_2_7::Match"*, !dbg !3214
  %fMemoryManager7 = getelementptr inbounds %"class.xercesc_2_7::RegularExpression", %"class.xercesc_2_7::RegularExpression"* %this1, i32 0, i32 14, !dbg !3215
  %17 = load %"class.xercesc_2_7::MemoryManager"*, %"class.xercesc_2_7::MemoryManager"** %fMemoryManager7, align 8, !dbg !3215
  invoke void @_ZN11xercesc_2_75MatchC1EPNS_13MemoryManagerE(%"class.xercesc_2_7::Match"* %16, %"class.xercesc_2_7::MemoryManager"* %17)
          to label %invoke.cont9 unwind label %lpad8, !dbg !3216

invoke.cont9:                                     ; preds = %invoke.cont5
  store %"class.xercesc_2_7::Match"* %16, %"class.xercesc_2_7::Match"** %lMatch, align 8, !dbg !3217
  %18 = load %"class.xercesc_2_7::Match"*, %"class.xercesc_2_7::Match"** %lMatch, align 8, !dbg !3218
  %fNoGroups10 = getelementptr inbounds %"class.xercesc_2_7::RegularExpression", %"class.xercesc_2_7::RegularExpression"* %this1, i32 0, i32 2, !dbg !3219
  %19 = load i32, i32* %fNoGroups10, align 4, !dbg !3219
  invoke void @_ZN11xercesc_2_75Match11setNoGroupsEi(%"class.xercesc_2_7::Match"* %18, i32 %19)
          to label %invoke.cont11 unwind label %lpad, !dbg !3220

invoke.cont11:                                    ; preds = %invoke.cont9
  store i8 1, i8* %adoptMatch, align 1, !dbg !3221
  br label %if.end, !dbg !3222

lpad8:                                            ; preds = %invoke.cont5
  %20 = landingpad { i8*, i32 }
          cleanup, !dbg !3223
  %21 = extractvalue { i8*, i32 } %20, 0, !dbg !3223
  store i8* %21, i8** %exn.slot, align 8, !dbg !3223
  %22 = extractvalue { i8*, i32 } %20, 1, !dbg !3223
  store i32 %22, i32* %ehselector.slot, align 4, !dbg !3223
  call void @_ZN11xercesc_2_77XMemorydlEPvPNS_13MemoryManagerE(i8* %call6, %"class.xercesc_2_7::MemoryManager"* %15) #9, !dbg !3214
  br label %ehcleanup, !dbg !3214

if.end:                                           ; preds = %invoke.cont11, %if.else
  br label %if.end12

if.end12:                                         ; preds = %if.end, %invoke.cont3
  %fAdoptMatch = getelementptr inbounds %"class.xercesc_2_7::RegularExpression::Context", %"class.xercesc_2_7::RegularExpression::Context"* %context, i32 0, i32 0, !dbg !3224
  %23 = load i8, i8* %fAdoptMatch, align 8, !dbg !3224
  %tobool13 = trunc i8 %23 to i1, !dbg !3224
  br i1 %tobool13, label %if.then14, label %if.end15, !dbg !3226

if.then14:                                        ; preds = %if.end12
  %fMatch = getelementptr inbounds %"class.xercesc_2_7::RegularExpression::Context", %"class.xercesc_2_7::RegularExpression::Context"* %context, i32 0, i32 7, !dbg !3227
  %24 = load %"class.xercesc_2_7::Match"*, %"class.xercesc_2_7::Match"** %fMatch, align 8, !dbg !3227
  %isnull = icmp eq %"class.xercesc_2_7::Match"* %24, null, !dbg !3228
  br i1 %isnull, label %delete.end, label %delete.notnull, !dbg !3228

delete.notnull:                                   ; preds = %if.then14
  %25 = bitcast %"class.xercesc_2_7::Match"* %24 to void (%"class.xercesc_2_7::Match"*)***, !dbg !3228
  %vtable = load void (%"class.xercesc_2_7::Match"*)**, void (%"class.xercesc_2_7::Match"*)*** %25, align 8, !dbg !3228
  %vfn = getelementptr inbounds void (%"class.xercesc_2_7::Match"*)*, void (%"class.xercesc_2_7::Match"*)** %vtable, i64 1, !dbg !3228
  %26 = load void (%"class.xercesc_2_7::Match"*)*, void (%"class.xercesc_2_7::Match"*)** %vfn, align 8, !dbg !3228
  call void %26(%"class.xercesc_2_7::Match"* %24) #9, !dbg !3228
  br label %delete.end, !dbg !3228

delete.end:                                       ; preds = %delete.notnull, %if.then14
  br label %if.end15, !dbg !3228

if.end15:                                         ; preds = %delete.end, %if.end12
  %27 = load %"class.xercesc_2_7::Match"*, %"class.xercesc_2_7::Match"** %lMatch, align 8, !dbg !3229
  %fMatch16 = getelementptr inbounds %"class.xercesc_2_7::RegularExpression::Context", %"class.xercesc_2_7::RegularExpression::Context"* %context, i32 0, i32 7, !dbg !3230
  store %"class.xercesc_2_7::Match"* %27, %"class.xercesc_2_7::Match"** %fMatch16, align 8, !dbg !3231
  %28 = load i8, i8* %adoptMatch, align 1, !dbg !3232
  %tobool17 = trunc i8 %28 to i1, !dbg !3232
  %fAdoptMatch18 = getelementptr inbounds %"class.xercesc_2_7::RegularExpression::Context", %"class.xercesc_2_7::RegularExpression::Context"* %context, i32 0, i32 0, !dbg !3233
  %frombool = zext i1 %tobool17 to i8, !dbg !3234
  store i8 %frombool, i8* %fAdoptMatch18, align 8, !dbg !3234
  %fOptions = getelementptr inbounds %"class.xercesc_2_7::RegularExpression", %"class.xercesc_2_7::RegularExpression"* %this1, i32 0, i32 5, !dbg !3235
  %29 = load i32, i32* %fOptions, align 8, !dbg !3235
  %call20 = invoke zeroext i1 @_ZN11xercesc_2_717RegularExpression5isSetEii(i32 %29, i32 512)
          to label %invoke.cont19 unwind label %lpad, !dbg !3237

invoke.cont19:                                    ; preds = %if.end15
  br i1 %call20, label %if.then21, label %if.end36, !dbg !3238

if.then21:                                        ; preds = %invoke.cont19
  call void @llvm.dbg.declare(metadata i32* %matchEnd, metadata !3239, metadata !DIExpression()), !dbg !3241
  %fOperations = getelementptr inbounds %"class.xercesc_2_7::RegularExpression", %"class.xercesc_2_7::RegularExpression"* %this1, i32 0, i32 9, !dbg !3242
  %30 = load %"class.xercesc_2_7::Op"*, %"class.xercesc_2_7::Op"** %fOperations, align 8, !dbg !3242
  %fStart = getelementptr inbounds %"class.xercesc_2_7::RegularExpression::Context", %"class.xercesc_2_7::RegularExpression::Context"* %context, i32 0, i32 1, !dbg !3243
  %31 = load i32, i32* %fStart, align 4, !dbg !3243
  %call23 = invoke i32 @_ZN11xercesc_2_717RegularExpression5matchEPNS0_7ContextEPKNS_2OpEis(%"class.xercesc_2_7::RegularExpression"* %this1, %"class.xercesc_2_7::RegularExpression::Context"* %context, %"class.xercesc_2_7::Op"* %30, i32 %31, i16 signext 1)
          to label %invoke.cont22 unwind label %lpad, !dbg !3244

invoke.cont22:                                    ; preds = %if.then21
  store i32 %call23, i32* %matchEnd, align 4, !dbg !3241
  %32 = load i32, i32* %matchEnd, align 4, !dbg !3245
  %fLimit = getelementptr inbounds %"class.xercesc_2_7::RegularExpression::Context", %"class.xercesc_2_7::RegularExpression::Context"* %context, i32 0, i32 2, !dbg !3247
  %33 = load i32, i32* %fLimit, align 8, !dbg !3247
  %cmp24 = icmp eq i32 %32, %33, !dbg !3248
  br i1 %cmp24, label %if.then25, label %if.end35, !dbg !3249

if.then25:                                        ; preds = %invoke.cont22
  %fMatch26 = getelementptr inbounds %"class.xercesc_2_7::RegularExpression::Context", %"class.xercesc_2_7::RegularExpression::Context"* %context, i32 0, i32 7, !dbg !3250
  %34 = load %"class.xercesc_2_7::Match"*, %"class.xercesc_2_7::Match"** %fMatch26, align 8, !dbg !3250
  %cmp27 = icmp ne %"class.xercesc_2_7::Match"* %34, null, !dbg !3253
  br i1 %cmp27, label %if.then28, label %if.end34, !dbg !3254

if.then28:                                        ; preds = %if.then25
  %fMatch29 = getelementptr inbounds %"class.xercesc_2_7::RegularExpression::Context", %"class.xercesc_2_7::RegularExpression::Context"* %context, i32 0, i32 7, !dbg !3255
  %35 = load %"class.xercesc_2_7::Match"*, %"class.xercesc_2_7::Match"** %fMatch29, align 8, !dbg !3255
  %fStart30 = getelementptr inbounds %"class.xercesc_2_7::RegularExpression::Context", %"class.xercesc_2_7::RegularExpression::Context"* %context, i32 0, i32 1, !dbg !3257
  %36 = load i32, i32* %fStart30, align 4, !dbg !3257
  invoke void @_ZN11xercesc_2_75Match11setStartPosEii(%"class.xercesc_2_7::Match"* %35, i32 0, i32 %36)
          to label %invoke.cont31 unwind label %lpad, !dbg !3258

invoke.cont31:                                    ; preds = %if.then28
  %fMatch32 = getelementptr inbounds %"class.xercesc_2_7::RegularExpression::Context", %"class.xercesc_2_7::RegularExpression::Context"* %context, i32 0, i32 7, !dbg !3259
  %37 = load %"class.xercesc_2_7::Match"*, %"class.xercesc_2_7::Match"** %fMatch32, align 8, !dbg !3259
  %38 = load i32, i32* %matchEnd, align 4, !dbg !3260
  invoke void @_ZN11xercesc_2_75Match9setEndPosEii(%"class.xercesc_2_7::Match"* %37, i32 0, i32 %38)
          to label %invoke.cont33 unwind label %lpad, !dbg !3261

invoke.cont33:                                    ; preds = %invoke.cont31
  br label %if.end34, !dbg !3262

if.end34:                                         ; preds = %invoke.cont33, %if.then25
  store i1 true, i1* %retval, align 1, !dbg !3263
  store i32 1, i32* %cleanup.dest.slot, align 4
  br label %cleanup, !dbg !3263

if.end35:                                         ; preds = %invoke.cont22
  store i1 false, i1* %retval, align 1, !dbg !3264
  store i32 1, i32* %cleanup.dest.slot, align 4
  br label %cleanup, !dbg !3264

if.end36:                                         ; preds = %invoke.cont19
  %fFixedStringOnly = getelementptr inbounds %"class.xercesc_2_7::RegularExpression", %"class.xercesc_2_7::RegularExpression"* %this1, i32 0, i32 1, !dbg !3265
  %39 = load i8, i8* %fFixedStringOnly, align 1, !dbg !3265
  %tobool37 = trunc i8 %39 to i1, !dbg !3265
  br i1 %tobool37, label %if.then38, label %if.end54, !dbg !3267

if.then38:                                        ; preds = %if.end36
  call void @llvm.dbg.declare(metadata i32* %ret, metadata !3268, metadata !DIExpression()), !dbg !3270
  %fBMPattern = getelementptr inbounds %"class.xercesc_2_7::RegularExpression", %"class.xercesc_2_7::RegularExpression"* %this1, i32 0, i32 6, !dbg !3271
  %40 = load %"class.xercesc_2_7::BMPattern"*, %"class.xercesc_2_7::BMPattern"** %fBMPattern, align 8, !dbg !3271
  %41 = load i16*, i16** %expression.addr, align 8, !dbg !3272
  %fStart39 = getelementptr inbounds %"class.xercesc_2_7::RegularExpression::Context", %"class.xercesc_2_7::RegularExpression::Context"* %context, i32 0, i32 1, !dbg !3273
  %42 = load i32, i32* %fStart39, align 4, !dbg !3273
  %fLimit40 = getelementptr inbounds %"class.xercesc_2_7::RegularExpression::Context", %"class.xercesc_2_7::RegularExpression::Context"* %context, i32 0, i32 2, !dbg !3274
  %43 = load i32, i32* %fLimit40, align 8, !dbg !3274
  %call42 = invoke i32 @_ZN11xercesc_2_79BMPattern7matchesEPKtii(%"class.xercesc_2_7::BMPattern"* %40, i16* %41, i32 %42, i32 %43)
          to label %invoke.cont41 unwind label %lpad, !dbg !3275

invoke.cont41:                                    ; preds = %if.then38
  store i32 %call42, i32* %ret, align 4, !dbg !3270
  %44 = load i32, i32* %ret, align 4, !dbg !3276
  %cmp43 = icmp sge i32 %44, 0, !dbg !3278
  br i1 %cmp43, label %if.then44, label %if.end53, !dbg !3279

if.then44:                                        ; preds = %invoke.cont41
  %fMatch45 = getelementptr inbounds %"class.xercesc_2_7::RegularExpression::Context", %"class.xercesc_2_7::RegularExpression::Context"* %context, i32 0, i32 7, !dbg !3280
  %45 = load %"class.xercesc_2_7::Match"*, %"class.xercesc_2_7::Match"** %fMatch45, align 8, !dbg !3280
  %cmp46 = icmp ne %"class.xercesc_2_7::Match"* %45, null, !dbg !3283
  br i1 %cmp46, label %if.then47, label %if.end52, !dbg !3284

if.then47:                                        ; preds = %if.then44
  %fMatch48 = getelementptr inbounds %"class.xercesc_2_7::RegularExpression::Context", %"class.xercesc_2_7::RegularExpression::Context"* %context, i32 0, i32 7, !dbg !3285
  %46 = load %"class.xercesc_2_7::Match"*, %"class.xercesc_2_7::Match"** %fMatch48, align 8, !dbg !3285
  %47 = load i32, i32* %ret, align 4, !dbg !3287
  invoke void @_ZN11xercesc_2_75Match11setStartPosEii(%"class.xercesc_2_7::Match"* %46, i32 0, i32 %47)
          to label %invoke.cont49 unwind label %lpad, !dbg !3288

invoke.cont49:                                    ; preds = %if.then47
  %fMatch50 = getelementptr inbounds %"class.xercesc_2_7::RegularExpression::Context", %"class.xercesc_2_7::RegularExpression::Context"* %context, i32 0, i32 7, !dbg !3289
  %48 = load %"class.xercesc_2_7::Match"*, %"class.xercesc_2_7::Match"** %fMatch50, align 8, !dbg !3289
  %49 = load i32, i32* %ret, align 4, !dbg !3290
  %50 = load i32, i32* %strLength, align 4, !dbg !3291
  %add = add nsw i32 %49, %50, !dbg !3292
  invoke void @_ZN11xercesc_2_75Match9setEndPosEii(%"class.xercesc_2_7::Match"* %48, i32 0, i32 %add)
          to label %invoke.cont51 unwind label %lpad, !dbg !3293

invoke.cont51:                                    ; preds = %invoke.cont49
  br label %if.end52, !dbg !3294

if.end52:                                         ; preds = %invoke.cont51, %if.then44
  store i1 true, i1* %retval, align 1, !dbg !3295
  store i32 1, i32* %cleanup.dest.slot, align 4
  br label %cleanup, !dbg !3295

if.end53:                                         ; preds = %invoke.cont41
  store i1 false, i1* %retval, align 1, !dbg !3296
  store i32 1, i32* %cleanup.dest.slot, align 4
  br label %cleanup, !dbg !3296

if.end54:                                         ; preds = %if.end36
  %fFixedString = getelementptr inbounds %"class.xercesc_2_7::RegularExpression", %"class.xercesc_2_7::RegularExpression"* %this1, i32 0, i32 8, !dbg !3297
  %51 = load i16*, i16** %fFixedString, align 8, !dbg !3297
  %cmp55 = icmp ne i16* %51, null, !dbg !3299
  br i1 %cmp55, label %if.then56, label %if.end66, !dbg !3300

if.then56:                                        ; preds = %if.end54
  call void @llvm.dbg.declare(metadata i32* %ret57, metadata !3301, metadata !DIExpression()), !dbg !3303
  %fBMPattern58 = getelementptr inbounds %"class.xercesc_2_7::RegularExpression", %"class.xercesc_2_7::RegularExpression"* %this1, i32 0, i32 6, !dbg !3304
  %52 = load %"class.xercesc_2_7::BMPattern"*, %"class.xercesc_2_7::BMPattern"** %fBMPattern58, align 8, !dbg !3304
  %53 = load i16*, i16** %expression.addr, align 8, !dbg !3305
  %fStart59 = getelementptr inbounds %"class.xercesc_2_7::RegularExpression::Context", %"class.xercesc_2_7::RegularExpression::Context"* %context, i32 0, i32 1, !dbg !3306
  %54 = load i32, i32* %fStart59, align 4, !dbg !3306
  %fLimit60 = getelementptr inbounds %"class.xercesc_2_7::RegularExpression::Context", %"class.xercesc_2_7::RegularExpression::Context"* %context, i32 0, i32 2, !dbg !3307
  %55 = load i32, i32* %fLimit60, align 8, !dbg !3307
  %call62 = invoke i32 @_ZN11xercesc_2_79BMPattern7matchesEPKtii(%"class.xercesc_2_7::BMPattern"* %52, i16* %53, i32 %54, i32 %55)
          to label %invoke.cont61 unwind label %lpad, !dbg !3308

invoke.cont61:                                    ; preds = %if.then56
  store i32 %call62, i32* %ret57, align 4, !dbg !3303
  %56 = load i32, i32* %ret57, align 4, !dbg !3309
  %cmp63 = icmp slt i32 %56, 0, !dbg !3311
  br i1 %cmp63, label %if.then64, label %if.end65, !dbg !3312

if.then64:                                        ; preds = %invoke.cont61
  store i1 false, i1* %retval, align 1, !dbg !3313
  store i32 1, i32* %cleanup.dest.slot, align 4
  br label %cleanup, !dbg !3313

if.end65:                                         ; preds = %invoke.cont61
  br label %if.end66, !dbg !3315

if.end66:                                         ; preds = %if.end65, %if.end54
  call void @llvm.dbg.declare(metadata i32* %limit, metadata !3316, metadata !DIExpression()), !dbg !3317
  %fLimit67 = getelementptr inbounds %"class.xercesc_2_7::RegularExpression::Context", %"class.xercesc_2_7::RegularExpression::Context"* %context, i32 0, i32 2, !dbg !3318
  %57 = load i32, i32* %fLimit67, align 8, !dbg !3318
  %fMinLength = getelementptr inbounds %"class.xercesc_2_7::RegularExpression", %"class.xercesc_2_7::RegularExpression"* %this1, i32 0, i32 3, !dbg !3319
  %58 = load i32, i32* %fMinLength, align 8, !dbg !3319
  %sub = sub nsw i32 %57, %58, !dbg !3320
  store i32 %sub, i32* %limit, align 4, !dbg !3317
  call void @llvm.dbg.declare(metadata i32* %matchStart, metadata !3321, metadata !DIExpression()), !dbg !3322
  call void @llvm.dbg.declare(metadata i32* %matchEnd68, metadata !3323, metadata !DIExpression()), !dbg !3324
  store i32 -1, i32* %matchEnd68, align 4, !dbg !3324
  %fOperations69 = getelementptr inbounds %"class.xercesc_2_7::RegularExpression", %"class.xercesc_2_7::RegularExpression"* %this1, i32 0, i32 9, !dbg !3325
  %59 = load %"class.xercesc_2_7::Op"*, %"class.xercesc_2_7::Op"** %fOperations69, align 8, !dbg !3325
  %cmp70 = icmp ne %"class.xercesc_2_7::Op"* %59, null, !dbg !3327
  br i1 %cmp70, label %land.lhs.true, label %if.else112, !dbg !3328

land.lhs.true:                                    ; preds = %if.end66
  %fOperations71 = getelementptr inbounds %"class.xercesc_2_7::RegularExpression", %"class.xercesc_2_7::RegularExpression"* %this1, i32 0, i32 9, !dbg !3329
  %60 = load %"class.xercesc_2_7::Op"*, %"class.xercesc_2_7::Op"** %fOperations71, align 8, !dbg !3329
  %call73 = invoke signext i16 @_ZNK11xercesc_2_72Op9getOpTypeEv(%"class.xercesc_2_7::Op"* %60)
          to label %invoke.cont72 unwind label %lpad, !dbg !3330

invoke.cont72:                                    ; preds = %land.lhs.true
  %conv = sext i16 %call73 to i32, !dbg !3329
  %cmp74 = icmp eq i32 %conv, 7, !dbg !3331
  br i1 %cmp74, label %land.lhs.true75, label %if.else112, !dbg !3332

land.lhs.true75:                                  ; preds = %invoke.cont72
  %fOperations76 = getelementptr inbounds %"class.xercesc_2_7::RegularExpression", %"class.xercesc_2_7::RegularExpression"* %this1, i32 0, i32 9, !dbg !3333
  %61 = load %"class.xercesc_2_7::Op"*, %"class.xercesc_2_7::Op"** %fOperations76, align 8, !dbg !3333
  %62 = bitcast %"class.xercesc_2_7::Op"* %61 to %"class.xercesc_2_7::Op"* (%"class.xercesc_2_7::Op"*)***, !dbg !3334
  %vtable77 = load %"class.xercesc_2_7::Op"* (%"class.xercesc_2_7::Op"*)**, %"class.xercesc_2_7::Op"* (%"class.xercesc_2_7::Op"*)*** %62, align 8, !dbg !3334
  %vfn78 = getelementptr inbounds %"class.xercesc_2_7::Op"* (%"class.xercesc_2_7::Op"*)*, %"class.xercesc_2_7::Op"* (%"class.xercesc_2_7::Op"*)** %vtable77, i64 10, !dbg !3334
  %63 = load %"class.xercesc_2_7::Op"* (%"class.xercesc_2_7::Op"*)*, %"class.xercesc_2_7::Op"* (%"class.xercesc_2_7::Op"*)** %vfn78, align 8, !dbg !3334
  %call80 = invoke %"class.xercesc_2_7::Op"* %63(%"class.xercesc_2_7::Op"* %61)
          to label %invoke.cont79 unwind label %lpad, !dbg !3334

invoke.cont79:                                    ; preds = %land.lhs.true75
  %call82 = invoke signext i16 @_ZNK11xercesc_2_72Op9getOpTypeEv(%"class.xercesc_2_7::Op"* %call80)
          to label %invoke.cont81 unwind label %lpad, !dbg !3335

invoke.cont81:                                    ; preds = %invoke.cont79
  %conv83 = sext i16 %call82 to i32, !dbg !3333
  %cmp84 = icmp eq i32 %conv83, 0, !dbg !3336
  br i1 %cmp84, label %if.then85, label %if.else112, !dbg !3337

if.then85:                                        ; preds = %invoke.cont81
  %fOptions86 = getelementptr inbounds %"class.xercesc_2_7::RegularExpression", %"class.xercesc_2_7::RegularExpression"* %this1, i32 0, i32 5, !dbg !3338
  %64 = load i32, i32* %fOptions86, align 8, !dbg !3338
  %call88 = invoke zeroext i1 @_ZN11xercesc_2_717RegularExpression5isSetEii(i32 %64, i32 4)
          to label %invoke.cont87 unwind label %lpad, !dbg !3341

invoke.cont87:                                    ; preds = %if.then85
  br i1 %call88, label %if.then89, label %if.else94, !dbg !3342

if.then89:                                        ; preds = %invoke.cont87
  %fStart90 = getelementptr inbounds %"class.xercesc_2_7::RegularExpression::Context", %"class.xercesc_2_7::RegularExpression::Context"* %context, i32 0, i32 1, !dbg !3343
  %65 = load i32, i32* %fStart90, align 4, !dbg !3343
