; ModuleID = 'DOMDocumentImpl.cpp'
source_filename = "DOMDocumentImpl.cpp"
target datalayout = "e-m:e-p270:32:32-p271:32:32-p272:64:64-i64:64-f80:128-n8:16:32:64-S128"
target triple = "x86_64-unknown-linux-gnu"

%"class.xercesc_2_7::MemoryManager" = type { i32 (...)** }
%"class.xercesc_2_7::DOMDocumentImpl" = type <{ %"class.xercesc_2_7::DOMDocument", %"class.xercesc_2_7::DOMNodeImpl", %"class.xercesc_2_7::DOMParentNode", %"class.xercesc_2_7::DOMNodeIDMap"*, i16*, i16*, i8, [7 x i8], i16*, i16*, %"class.xercesc_2_7::DOMConfiguration"*, %"class.xercesc_2_7::XMLStringPool", %"class.xercesc_2_7::RefHash2KeysTableOf"*, i8*, i8*, i64, %"class.xercesc_2_7::RefArrayOf"*, %"class.xercesc_2_7::RefStackOf.0"*, %"class.xercesc_2_7::DOMDeepNodeListPool"*, %"class.xercesc_2_7::DOMDocumentType"*, %"class.xercesc_2_7::DOMElement"*, %"class.xercesc_2_7::DOMStringPool"*, %"class.xercesc_2_7::DOMNormalizer"*, %"class.xercesc_2_7::RefVectorOf.5"*, %"class.xercesc_2_7::RefVectorOf.7"*, %"class.xercesc_2_7::MemoryManager"*, i32, i8, [3 x i8] }>
%"class.xercesc_2_7::DOMDocument" = type { %"class.xercesc_2_7::DOMDocumentRange", %"class.xercesc_2_7::DOMXPathEvaluator", %"class.xercesc_2_7::DOMDocumentTraversal", %"class.xercesc_2_7::DOMNode" }
%"class.xercesc_2_7::DOMDocumentRange" = type { i32 (...)** }
%"class.xercesc_2_7::DOMXPathEvaluator" = type { i32 (...)** }
%"class.xercesc_2_7::DOMDocumentTraversal" = type { i32 (...)** }
%"class.xercesc_2_7::DOMNode" = type { i32 (...)** }
%"class.xercesc_2_7::DOMNodeImpl" = type <{ %"class.xercesc_2_7::DOMNode"*, i16, [6 x i8] }>
%"class.xercesc_2_7::DOMParentNode" = type { %"class.xercesc_2_7::DOMDocument"*, %"class.xercesc_2_7::DOMNode"*, %"class.xercesc_2_7::DOMNodeListImpl" }
%"class.xercesc_2_7::DOMNodeListImpl" = type { %"class.xercesc_2_7::DOMNodeList", %"class.xercesc_2_7::DOMNode"* }
%"class.xercesc_2_7::DOMNodeList" = type { i32 (...)** }
%"class.xercesc_2_7::DOMNodeIDMap" = type { i32 (...)**, %"class.xercesc_2_7::DOMAttr"**, i64, i64, i64, i64, %"class.xercesc_2_7::DOMDocument"* }
%"class.xercesc_2_7::DOMAttr" = type { %"class.xercesc_2_7::DOMNode" }
%"class.xercesc_2_7::DOMConfiguration" = type { i32 (...)** }
%"class.xercesc_2_7::XMLStringPool" = type { %"class.xercesc_2_7::XSerializable", %"class.xercesc_2_7::MemoryManager"*, %"struct.xercesc_2_7::XMLStringPool::PoolElem"**, %"class.xercesc_2_7::RefHashTableOf"*, i32, i32 }
%"class.xercesc_2_7::XSerializable" = type { i32 (...)** }
%"struct.xercesc_2_7::XMLStringPool::PoolElem" = type { i32, i16* }
%"class.xercesc_2_7::RefHashTableOf" = type { %"class.xercesc_2_7::MemoryManager"*, i8, %"struct.xercesc_2_7::RefHashTableBucketElem"**, i32, i32, i32, %"class.xercesc_2_7::HashBase"* }
%"struct.xercesc_2_7::RefHashTableBucketElem" = type { %"struct.xercesc_2_7::XMLStringPool::PoolElem"*, %"struct.xercesc_2_7::RefHashTableBucketElem"*, i8* }
%"class.xercesc_2_7::HashBase" = type { i32 (...)** }
%"class.xercesc_2_7::RefHash2KeysTableOf" = type { %"class.xercesc_2_7::MemoryManager"*, i8, %"struct.xercesc_2_7::RefHash2KeysTableBucketElem"**, i32, i32, %"class.xercesc_2_7::HashBase"* }
%"struct.xercesc_2_7::RefHash2KeysTableBucketElem" = type <{ %"class.xercesc_2_7::KeyRefPair"*, %"struct.xercesc_2_7::RefHash2KeysTableBucketElem"*, i8*, i32, [4 x i8] }>
%"class.xercesc_2_7::KeyRefPair" = type { i8*, %"class.xercesc_2_7::DOMUserDataHandler"* }
%"class.xercesc_2_7::DOMUserDataHandler" = type { i32 (...)** }
%"class.xercesc_2_7::RefArrayOf" = type { i32, %"class.xercesc_2_7::RefStackOf"**, %"class.xercesc_2_7::MemoryManager"* }
%"class.xercesc_2_7::RefStackOf" = type { [8 x i8], %"class.xercesc_2_7::RefVectorOf" }
%"class.xercesc_2_7::RefVectorOf" = type { %"class.xercesc_2_7::BaseRefVectorOf" }
%"class.xercesc_2_7::BaseRefVectorOf" = type { i32 (...)**, i8, i32, i32, %"class.xercesc_2_7::DOMNode"**, %"class.xercesc_2_7::MemoryManager"* }
%"class.xercesc_2_7::RefStackOf.0" = type { [8 x i8], %"class.xercesc_2_7::RefVectorOf.1" }
%"class.xercesc_2_7::RefVectorOf.1" = type { %"class.xercesc_2_7::BaseRefVectorOf.2" }
%"class.xercesc_2_7::BaseRefVectorOf.2" = type { i32 (...)**, i8, i32, i32, %"class.xercesc_2_7::DOMBuffer"**, %"class.xercesc_2_7::MemoryManager"* }
%"class.xercesc_2_7::DOMBuffer" = type { i16*, i32, i32, %"class.xercesc_2_7::DOMDocumentImpl"* }
%"class.xercesc_2_7::DOMDeepNodeListPool" = type { i8, %"struct.xercesc_2_7::DOMDeepNodeListPoolTableBucketElem"**, i64, %"class.xercesc_2_7::HashBase"*, %"class.xercesc_2_7::DOMDeepNodeListImpl"**, i64, i64, %"class.xercesc_2_7::MemoryManager"* }
%"struct.xercesc_2_7::DOMDeepNodeListPoolTableBucketElem" = type { %"class.xercesc_2_7::DOMDeepNodeListImpl"*, %"struct.xercesc_2_7::DOMDeepNodeListPoolTableBucketElem"*, i8*, i16*, i16* }
%"class.xercesc_2_7::DOMDeepNodeListImpl" = type <{ %"class.xercesc_2_7::DOMNodeList", %"class.xercesc_2_7::DOMNode"*, i16*, i8, [3 x i8], i32, %"class.xercesc_2_7::DOMNode"*, i64, i16*, i8, i8, [6 x i8] }>
%"class.xercesc_2_7::DOMDocumentType" = type { %"class.xercesc_2_7::DOMNode" }
%"class.xercesc_2_7::DOMElement" = type { %"class.xercesc_2_7::DOMNode" }
%"class.xercesc_2_7::DOMStringPool" = type <{ %"class.xercesc_2_7::DOMDocumentImpl"*, %"struct.xercesc_2_7::DOMStringPoolEntry"**, i32, [4 x i8] }>
%"struct.xercesc_2_7::DOMStringPoolEntry" = type opaque
%"class.xercesc_2_7::DOMNormalizer" = type { %"class.xercesc_2_7::DOMDocumentImpl"*, %"class.xercesc_2_7::DOMConfigurationImpl"*, %"class.xercesc_2_7::DOMErrorHandler"*, %"class.xercesc_2_7::DOMNormalizer::InScopeNamespaces"*, i32, %"class.xercesc_2_7::MemoryManager"* }
%"class.xercesc_2_7::DOMConfigurationImpl" = type { %"class.xercesc_2_7::DOMConfiguration", i16, %"class.xercesc_2_7::DOMErrorHandler"*, i16*, i16*, %"class.xercesc_2_7::MemoryManager"* }
%"class.xercesc_2_7::DOMErrorHandler" = type { i32 (...)** }
%"class.xercesc_2_7::DOMNormalizer::InScopeNamespaces" = type { %"class.xercesc_2_7::RefVectorOf.3"*, %"class.xercesc_2_7::DOMNormalizer::InScopeNamespaces::Scope"* }
%"class.xercesc_2_7::RefVectorOf.3" = type opaque
%"class.xercesc_2_7::DOMNormalizer::InScopeNamespaces::Scope" = type { %"class.xercesc_2_7::DOMNormalizer::InScopeNamespaces::Scope"*, %"class.xercesc_2_7::RefHashTableOf.4"*, %"class.xercesc_2_7::RefHashTableOf.4"* }
%"class.xercesc_2_7::RefHashTableOf.4" = type opaque
%"class.xercesc_2_7::RefVectorOf.5" = type { %"class.xercesc_2_7::BaseRefVectorOf.6" }
%"class.xercesc_2_7::BaseRefVectorOf.6" = type { i32 (...)**, i8, i32, i32, %"class.xercesc_2_7::DOMRangeImpl"**, %"class.xercesc_2_7::MemoryManager"* }
%"class.xercesc_2_7::DOMRangeImpl" = type { %"class.xercesc_2_7::DOMRange", %"class.xercesc_2_7::DOMNode"*, i64, %"class.xercesc_2_7::DOMNode"*, i64, i8, %"class.xercesc_2_7::DOMDocument"*, i8, %"class.xercesc_2_7::DOMNode"*, %"class.xercesc_2_7::MemoryManager"* }
%"class.xercesc_2_7::DOMRange" = type { i32 (...)** }
%"class.xercesc_2_7::RefVectorOf.7" = type { %"class.xercesc_2_7::BaseRefVectorOf.8" }
%"class.xercesc_2_7::BaseRefVectorOf.8" = type { i32 (...)**, i8, i32, i32, %"class.xercesc_2_7::DOMNodeIteratorImpl"**, %"class.xercesc_2_7::MemoryManager"* }
%"class.xercesc_2_7::DOMNodeIteratorImpl" = type <{ %"class.xercesc_2_7::DOMNodeIterator", %"class.xercesc_2_7::DOMNode"*, %"class.xercesc_2_7::DOMDocument"*, i64, %"class.xercesc_2_7::DOMNodeFilter"*, i8, i8, [6 x i8], %"class.xercesc_2_7::DOMNode"*, i8, [7 x i8] }>
%"class.xercesc_2_7::DOMNodeIterator" = type { i32 (...)** }
%"class.xercesc_2_7::DOMNodeFilter" = type { i32 (...)** }
%"class.xercesc_2_7::XMLDeleter" = type { i32 (...)** }
%"class.xercesc_2_7::XMemory" = type { i8 }
%"class.xercesc_2_7::OutOfMemoryException" = type { i8 }
%"class.xercesc_2_7::DOMException" = type <{ i32 (...)**, i32, [4 x i8], i16*, %"class.xercesc_2_7::MemoryManager"*, i8, [7 x i8] }>
%"class.xercesc_2_7::DOMDocumentTypeImpl" = type <{ %"class.xercesc_2_7::DOMDocumentType", %"class.xercesc_2_7::DOMNodeImpl", %"class.xercesc_2_7::DOMParentNode", %"class.xercesc_2_7::DOMChildNode", i16*, %"class.xercesc_2_7::DOMNamedNodeMapImpl"*, %"class.xercesc_2_7::DOMNamedNodeMapImpl"*, %"class.xercesc_2_7::DOMNamedNodeMapImpl"*, i16*, i16*, i16*, i8, i8, [6 x i8] }>
%"class.xercesc_2_7::DOMChildNode" = type { %"class.xercesc_2_7::DOMNode"*, %"class.xercesc_2_7::DOMNode"* }
%"class.xercesc_2_7::DOMNamedNodeMapImpl" = type opaque
%"class.xercesc_2_7::DOMAttrImpl" = type { %"class.xercesc_2_7::DOMAttr", %"class.xercesc_2_7::DOMNodeImpl", %"class.xercesc_2_7::DOMParentNode", i16*, %"class.xercesc_2_7::DOMTypeInfoImpl"* }
%"class.xercesc_2_7::DOMTypeInfoImpl" = type opaque
%"class.xercesc_2_7::DOMCDATASection" = type { %"class.xercesc_2_7::DOMText" }
%"class.xercesc_2_7::DOMText" = type { %"class.xercesc_2_7::DOMCharacterData" }
%"class.xercesc_2_7::DOMCharacterData" = type { %"class.xercesc_2_7::DOMNode" }
%"class.xercesc_2_7::DOMCDATASectionImpl" = type { %"class.xercesc_2_7::DOMCDATASection", %"class.xercesc_2_7::DOMNodeImpl", %"class.xercesc_2_7::DOMParentNode", %"class.xercesc_2_7::DOMChildNode", %"class.xercesc_2_7::DOMCharacterDataImpl" }
%"class.xercesc_2_7::DOMCharacterDataImpl" = type { %"class.xercesc_2_7::DOMBuffer"*, %"class.xercesc_2_7::DOMDocumentImpl"* }
%"class.xercesc_2_7::DOMComment" = type { %"class.xercesc_2_7::DOMCharacterData" }
%"class.xercesc_2_7::DOMCommentImpl" = type { %"class.xercesc_2_7::DOMComment", %"class.xercesc_2_7::DOMNodeImpl", %"class.xercesc_2_7::DOMChildNode", %"class.xercesc_2_7::DOMCharacterDataImpl" }
%"class.xercesc_2_7::DOMDocumentFragment" = type { %"class.xercesc_2_7::DOMNode" }
%"class.xercesc_2_7::DOMDocumentFragmentImpl" = type { %"class.xercesc_2_7::DOMDocumentFragment", %"class.xercesc_2_7::DOMNodeImpl", %"class.xercesc_2_7::DOMParentNode" }
%"class.xercesc_2_7::DOMElementImpl" = type { %"class.xercesc_2_7::DOMElement", %"class.xercesc_2_7::DOMNodeImpl", %"class.xercesc_2_7::DOMParentNode", %"class.xercesc_2_7::DOMChildNode", %"class.xercesc_2_7::DOMAttrMapImpl"*, %"class.xercesc_2_7::DOMAttrMapImpl"*, i16* }
%"class.xercesc_2_7::DOMAttrMapImpl" = type <{ %"class.xercesc_2_7::DOMNamedNodeMap", %"class.xercesc_2_7::DOMNodeVector"*, %"class.xercesc_2_7::DOMNode"*, i8, [7 x i8] }>
%"class.xercesc_2_7::DOMNamedNodeMap" = type { i32 (...)** }
%"class.xercesc_2_7::DOMNodeVector" = type opaque
%"class.xercesc_2_7::DOMEntity" = type { %"class.xercesc_2_7::DOMNode" }
%"class.xercesc_2_7::DOMEntityImpl" = type <{ %"class.xercesc_2_7::DOMEntity", %"class.xercesc_2_7::DOMNodeImpl", %"class.xercesc_2_7::DOMParentNode", i16*, i16*, i16*, i16*, %"class.xercesc_2_7::DOMEntityReference"*, i16*, i16*, i16*, i16*, i8, [7 x i8] }>
%"class.xercesc_2_7::DOMEntityReference" = type { %"class.xercesc_2_7::DOMNode" }
%"class.xercesc_2_7::DOMEntityReferenceImpl" = type { %"class.xercesc_2_7::DOMEntityReference", %"class.xercesc_2_7::DOMNodeImpl", %"class.xercesc_2_7::DOMParentNode", %"class.xercesc_2_7::DOMChildNode", i16*, i16* }
%"class.xercesc_2_7::DOMNotation" = type { %"class.xercesc_2_7::DOMNode" }
%"class.xercesc_2_7::DOMNotationImpl" = type { %"class.xercesc_2_7::DOMNotation", %"class.xercesc_2_7::DOMNodeImpl", i16*, i16*, i16*, i16* }
%"class.xercesc_2_7::DOMProcessingInstruction" = type { %"class.xercesc_2_7::DOMNode" }
%"class.xercesc_2_7::DOMProcessingInstructionImpl" = type { %"class.xercesc_2_7::DOMProcessingInstruction", %"class.xercesc_2_7::DOMNodeImpl", %"class.xercesc_2_7::DOMChildNode", %"class.xercesc_2_7::DOMCharacterDataImpl", i16*, i16* }
%"class.xercesc_2_7::DOMTextImpl" = type { %"class.xercesc_2_7::DOMText", %"class.xercesc_2_7::DOMNodeImpl", %"class.xercesc_2_7::DOMChildNode", %"class.xercesc_2_7::DOMCharacterDataImpl" }
%"class.xercesc_2_7::ArrayIndexOutOfBoundsException" = type { %"class.xercesc_2_7::XMLException" }
%"class.xercesc_2_7::XMLException" = type { i32 (...)**, i32, i8*, i32, i16*, %"class.xercesc_2_7::MemoryManager"* }
%"class.xercesc_2_7::DOMXPathExpression" = type opaque
%"class.xercesc_2_7::DOMXPathNSResolver" = type opaque
%"class.xercesc_2_7::DOMTreeWalker" = type { i32 (...)** }
%"class.xercesc_2_7::DOMTreeWalkerImpl" = type <{ %"class.xercesc_2_7::DOMTreeWalker", i64, %"class.xercesc_2_7::DOMNodeFilter"*, %"class.xercesc_2_7::DOMNode"*, %"class.xercesc_2_7::DOMNode"*, i8, [7 x i8] }>
%"class.xercesc_2_7::DOMImplementation" = type { %"class.xercesc_2_7::DOMImplementationLS" }
%"class.xercesc_2_7::DOMImplementationLS" = type { i32 (...)** }
%"class.xercesc_2_7::DOMElementNSImpl" = type { %"class.xercesc_2_7::DOMElementImpl", i16*, i16*, i16*, %"class.xercesc_2_7::DOMTypeInfoImpl"* }
%"class.xercesc_2_7::XSDElementNSImpl" = type { %"class.xercesc_2_7::DOMElementNSImpl", i64, i64 }
%"class.xercesc_2_7::DOMAttrNSImpl" = type { %"class.xercesc_2_7::DOMAttrImpl", i16*, i16*, i16* }
%"class.xercesc_2_7::HashPtr" = type { %"class.xercesc_2_7::HashBase" }
%"class.xercesc_2_7::IllegalArgumentException" = type { %"class.xercesc_2_7::XMLException" }
%"class.xercesc_2_7::RefHash2KeysTableOfEnumerator" = type { %"class.xercesc_2_7::XMLEnumerator", i8, %"struct.xercesc_2_7::RefHash2KeysTableBucketElem"*, i32, %"class.xercesc_2_7::RefHash2KeysTableOf"*, %"class.xercesc_2_7::MemoryManager"*, i8* }
%"class.xercesc_2_7::XMLEnumerator" = type { i32 (...)** }
%"class.xercesc_2_7::NoSuchElementException" = type { %"class.xercesc_2_7::XMLException" }
%"class.xercesc_2_7::NullPointerException" = type { %"class.xercesc_2_7::XMLException" }
%"class.xercesc_2_7::EmptyStackException" = type { %"class.xercesc_2_7::XMLException" }
%"class.xercesc_2_7::ArrayJanitor" = type { %"struct.xercesc_2_7::RefHash2KeysTableBucketElem"**, %"class.xercesc_2_7::MemoryManager"* }

$_ZN11xercesc_2_710XMLDeleterD0Ev = comdat any

$_ZN11xercesc_2_710XMLDeleterD2Ev = comdat any

$_ZN11xercesc_2_77XMemoryC2Ev = comdat any

$_ZN11xercesc_2_711DOMDocumentC2Ev = comdat any

$_ZnwmPN11xercesc_2_711DOMDocumentE = comdat any

$_ZN11xercesc_2_713DOMParentNodeD2Ev = comdat any

$_ZNK11xercesc_2_715DOMDocumentImpl16getMemoryManagerEv = comdat any

$__clang_call_terminate = comdat any

$_ZN11xercesc_2_719DOMDeepNodeListPoolINS_19DOMDeepNodeListImplEE7cleanupEv = comdat any

$_ZN11xercesc_2_719RefHash2KeysTableOfINS_10KeyRefPairIvNS_18DOMUserDataHandlerEEEED2Ev = comdat any

$_ZN11xercesc_2_710RefArrayOfINS_10RefStackOfINS_7DOMNodeEEEE17deleteAllElementsEv = comdat any

$_ZN11xercesc_2_710RefArrayOfINS_10RefStackOfINS_7DOMNodeEEEED2Ev = comdat any

$_ZN11xercesc_2_710RefStackOfINS_9DOMBufferEED2Ev = comdat any

$_ZnwmPN11xercesc_2_711DOMDocumentENS_15DOMDocumentImpl14NodeObjectTypeE = comdat any

$_ZN11xercesc_2_711RefVectorOfINS_19DOMNodeIteratorImplEEC2EjbPNS_13MemoryManagerE = comdat any

$_ZN11xercesc_2_715BaseRefVectorOfINS_19DOMNodeIteratorImplEE10addElementEPS1_ = comdat any

$_ZNK11xercesc_2_715BaseRefVectorOfINS_19DOMNodeIteratorImplEE4sizeEv = comdat any

$_ZN11xercesc_2_715BaseRefVectorOfINS_19DOMNodeIteratorImplEE9elementAtEj = comdat any

$_ZN11xercesc_2_79XMLString6equalsEPKtS2_ = comdat any

$_ZN11xercesc_2_79XMLString9stringLenEPKt = comdat any

$_ZN11xercesc_2_711RefVectorOfINS_12DOMRangeImplEEC2EjbPNS_13MemoryManagerE = comdat any

$_ZN11xercesc_2_715BaseRefVectorOfINS_12DOMRangeImplEE10addElementEPS1_ = comdat any

$_ZNK11xercesc_2_715BaseRefVectorOfINS_12DOMRangeImplEE4sizeEv = comdat any

$_ZN11xercesc_2_715BaseRefVectorOfINS_12DOMRangeImplEE9elementAtEj = comdat any

$_ZN11xercesc_2_716XMLPlatformUtils33alignPointerForNewBlockAllocationEm = comdat any

$_ZN11xercesc_2_719DOMDeepNodeListPoolINS_19DOMDeepNodeListImplEEC2Embm = comdat any

$_ZN11xercesc_2_719DOMDeepNodeListPoolINS_19DOMDeepNodeListImplEE8getByKeyEPKvPKtS6_ = comdat any

$_ZN11xercesc_2_719DOMDeepNodeListPoolINS_19DOMDeepNodeListImplEE3putEPvPtS4_PS1_ = comdat any

$_ZN11xercesc_2_719DOMDeepNodeListPoolINS_19DOMDeepNodeListImplEE7getByIdEm = comdat any

$_ZNK11xercesc_2_715DOMDocumentImpl16getErrorCheckingEv = comdat any

$_ZN11xercesc_2_715DOMDocumentImpl16setErrorCheckingEb = comdat any

$_ZN11xercesc_2_711DOMNodeImpl8isIdAttrEb = comdat any

$_ZN11xercesc_2_713XMLStringPool9addOrFindEPKt = comdat any

$_ZN11xercesc_2_719RefHash2KeysTableOfINS_10KeyRefPairIvNS_18DOMUserDataHandlerEEEEC2EjbPNS_8HashBaseEPNS_13MemoryManagerE = comdat any

$_ZN11xercesc_2_719RefHash2KeysTableOfINS_10KeyRefPairIvNS_18DOMUserDataHandlerEEEE3getEPKvi = comdat any

$_ZN11xercesc_2_710KeyRefPairIvNS_18DOMUserDataHandlerEE6getKeyEv = comdat any

$_ZN11xercesc_2_719RefHash2KeysTableOfINS_10KeyRefPairIvNS_18DOMUserDataHandlerEEEE9removeKeyEPKvi = comdat any

$_ZN11xercesc_2_719RefHash2KeysTableOfINS_10KeyRefPairIvNS_18DOMUserDataHandlerEEEE3putEPviPS3_ = comdat any

$_ZN11xercesc_2_710KeyRefPairIvNS_18DOMUserDataHandlerEEC2EPvPS1_ = comdat any

$_ZN11xercesc_2_729RefHash2KeysTableOfEnumeratorINS_10KeyRefPairIvNS_18DOMUserDataHandlerEEEEC2EPNS_19RefHash2KeysTableOfIS3_EEbPNS_13MemoryManagerE = comdat any

$_ZN11xercesc_2_729RefHash2KeysTableOfEnumeratorINS_10KeyRefPairIvNS_18DOMUserDataHandlerEEEE13setPrimaryKeyEPKv = comdat any

$_ZNK11xercesc_2_729RefHash2KeysTableOfEnumeratorINS_10KeyRefPairIvNS_18DOMUserDataHandlerEEEE15hasMoreElementsEv = comdat any

$_ZN11xercesc_2_711DOMNodeImpl11hasUserDataEb = comdat any

$_ZN11xercesc_2_729RefHash2KeysTableOfEnumeratorINS_10KeyRefPairIvNS_18DOMUserDataHandlerEEEED2Ev = comdat any

$_ZNK11xercesc_2_713XMLStringPool5getIdEPKt = comdat any

$_ZN11xercesc_2_729RefHash2KeysTableOfEnumeratorINS_10KeyRefPairIvNS_18DOMUserDataHandlerEEEE14nextElementKeyERPvRi = comdat any

$_ZN11xercesc_2_710KeyRefPairIvNS_18DOMUserDataHandlerEE8getValueEv = comdat any

$_ZNK11xercesc_2_713XMLStringPool13getValueForIdEj = comdat any

$_ZN11xercesc_2_719RefHash2KeysTableOfINS_10KeyRefPairIvNS_18DOMUserDataHandlerEEEE9removeKeyEPKv = comdat any

$_ZN11xercesc_2_719RefHash2KeysTableOfINS_10KeyRefPairIvNS_18DOMUserDataHandlerEEEE15transferElementEPKvPv = comdat any

$_ZN11xercesc_2_711DOMNodeImpl14isToBeReleasedEb = comdat any

$_ZN11xercesc_2_710RefArrayOfINS_10RefStackOfINS_7DOMNodeEEEEC2EjPNS_13MemoryManagerE = comdat any

$_ZN11xercesc_2_710RefArrayOfINS_10RefStackOfINS_7DOMNodeEEEEixEj = comdat any

$_ZN11xercesc_2_710RefStackOfINS_7DOMNodeEEC2EjbPNS_13MemoryManagerE = comdat any

$_ZN11xercesc_2_710RefStackOfINS_7DOMNodeEE4pushEPS1_ = comdat any

$_ZN11xercesc_2_710RefStackOfINS_9DOMBufferEEC2EjbPNS_13MemoryManagerE = comdat any

$_ZN11xercesc_2_710RefStackOfINS_9DOMBufferEE4pushEPS1_ = comdat any

$_ZN11xercesc_2_710RefStackOfINS_9DOMBufferEE5emptyEv = comdat any

$_ZN11xercesc_2_710RefStackOfINS_9DOMBufferEE3popEv = comdat any

$_ZN11xercesc_2_710RefStackOfINS_7DOMNodeEE5emptyEv = comdat any

$_ZN11xercesc_2_710RefStackOfINS_7DOMNodeEE3popEv = comdat any

$_ZN11xercesc_2_716DOMDocumentRangeC2Ev = comdat any

$_ZN11xercesc_2_717DOMXPathEvaluatorC2Ev = comdat any

$_ZN11xercesc_2_720DOMDocumentTraversalC2Ev = comdat any

$_ZN11xercesc_2_77DOMNodeC2Ev = comdat any

$_ZN11xercesc_2_711DOMDocumentD2Ev = comdat any

$_ZN11xercesc_2_711DOMDocumentD0Ev = comdat any

$_ZN11xercesc_2_711DOMDocument18createDocumentTypeEPKtS2_S2_ = comdat any

$_ZThn8_N11xercesc_2_711DOMDocumentD1Ev = comdat any

$_ZThn8_N11xercesc_2_711DOMDocumentD0Ev = comdat any

$_ZThn16_N11xercesc_2_711DOMDocumentD1Ev = comdat any

$_ZThn16_N11xercesc_2_711DOMDocumentD0Ev = comdat any

$_ZThn24_N11xercesc_2_711DOMDocumentD1Ev = comdat any

$_ZThn24_N11xercesc_2_711DOMDocumentD0Ev = comdat any

$_ZN11xercesc_2_716DOMDocumentRangeD2Ev = comdat any

$_ZN11xercesc_2_716DOMDocumentRangeD0Ev = comdat any

$_ZN11xercesc_2_717DOMXPathEvaluatorD2Ev = comdat any

$_ZN11xercesc_2_717DOMXPathEvaluatorD0Ev = comdat any

$_ZN11xercesc_2_720DOMDocumentTraversalD2Ev = comdat any

$_ZN11xercesc_2_720DOMDocumentTraversalD0Ev = comdat any

$_ZN11xercesc_2_77DOMNodeD2Ev = comdat any

$_ZN11xercesc_2_77DOMNodeD0Ev = comdat any

$_ZN11xercesc_2_714RefHashTableOfINS_13XMLStringPool8PoolElemEE3getEPKv = comdat any

$_ZN11xercesc_2_714RefHashTableOfINS_13XMLStringPool8PoolElemEE14findBucketElemEPKvRj = comdat any

$_ZN11xercesc_2_724IllegalArgumentExceptionC2EPKcjNS_10XMLExcepts5CodesEPNS_13MemoryManagerE = comdat any

$_ZN11xercesc_2_724IllegalArgumentExceptionD2Ev = comdat any

$_ZN11xercesc_2_724IllegalArgumentExceptionD0Ev = comdat any

$_ZNK11xercesc_2_724IllegalArgumentException7getTypeEv = comdat any

$_ZNK11xercesc_2_724IllegalArgumentException9duplicateEv = comdat any

$_ZN11xercesc_2_724IllegalArgumentExceptionC2ERKS0_ = comdat any

$_ZN11xercesc_2_719DOMDeepNodeListPoolINS_19DOMDeepNodeListImplEE9removeAllEv = comdat any

$_ZN11xercesc_2_734DOMDeepNodeListPoolTableBucketElemINS_19DOMDeepNodeListImplEED2Ev = comdat any

$_ZN11xercesc_2_719RefHash2KeysTableOfINS_10KeyRefPairIvNS_18DOMUserDataHandlerEEEE9removeAllEv = comdat any

$_ZNK11xercesc_2_719RefHash2KeysTableOfINS_10KeyRefPairIvNS_18DOMUserDataHandlerEEEE7isEmptyEv = comdat any

$_ZN11xercesc_2_710KeyRefPairIvNS_18DOMUserDataHandlerEED2Ev = comdat any

$_ZN11xercesc_2_710RefStackOfINS_7DOMNodeEED2Ev = comdat any

$_ZN11xercesc_2_711RefVectorOfINS_7DOMNodeEED2Ev = comdat any

$_ZN11xercesc_2_711RefVectorOfINS_7DOMNodeEED0Ev = comdat any

$_ZN11xercesc_2_715BaseRefVectorOfINS_7DOMNodeEE12setElementAtEPS1_j = comdat any

$_ZN11xercesc_2_715BaseRefVectorOfINS_7DOMNodeEE17removeAllElementsEv = comdat any

$_ZN11xercesc_2_715BaseRefVectorOfINS_7DOMNodeEE15removeElementAtEj = comdat any

$_ZN11xercesc_2_715BaseRefVectorOfINS_7DOMNodeEE17removeLastElementEv = comdat any

$_ZN11xercesc_2_715BaseRefVectorOfINS_7DOMNodeEE7cleanupEv = comdat any

$_ZN11xercesc_2_730ArrayIndexOutOfBoundsExceptionC2EPKcjNS_10XMLExcepts5CodesEPNS_13MemoryManagerE = comdat any

$_ZN11xercesc_2_730ArrayIndexOutOfBoundsExceptionD2Ev = comdat any

$_ZN11xercesc_2_730ArrayIndexOutOfBoundsExceptionD0Ev = comdat any

$_ZNK11xercesc_2_730ArrayIndexOutOfBoundsException7getTypeEv = comdat any

$_ZNK11xercesc_2_730ArrayIndexOutOfBoundsException9duplicateEv = comdat any

$_ZN11xercesc_2_730ArrayIndexOutOfBoundsExceptionC2ERKS0_ = comdat any

$_ZN11xercesc_2_711RefVectorOfINS_9DOMBufferEED2Ev = comdat any

$_ZN11xercesc_2_79DOMBufferD2Ev = comdat any

$_ZN11xercesc_2_711RefVectorOfINS_9DOMBufferEED0Ev = comdat any

$_ZN11xercesc_2_715BaseRefVectorOfINS_9DOMBufferEE12setElementAtEPS1_j = comdat any

$_ZN11xercesc_2_715BaseRefVectorOfINS_9DOMBufferEE17removeAllElementsEv = comdat any

$_ZN11xercesc_2_715BaseRefVectorOfINS_9DOMBufferEE15removeElementAtEj = comdat any

$_ZN11xercesc_2_715BaseRefVectorOfINS_9DOMBufferEE17removeLastElementEv = comdat any

$_ZN11xercesc_2_715BaseRefVectorOfINS_9DOMBufferEE7cleanupEv = comdat any

$_ZN11xercesc_2_715BaseRefVectorOfINS_19DOMNodeIteratorImplEEC2EjbPNS_13MemoryManagerE = comdat any

$_ZN11xercesc_2_711RefVectorOfINS_19DOMNodeIteratorImplEED2Ev = comdat any

$_ZN11xercesc_2_711RefVectorOfINS_19DOMNodeIteratorImplEED0Ev = comdat any

$_ZN11xercesc_2_715BaseRefVectorOfINS_19DOMNodeIteratorImplEE12setElementAtEPS1_j = comdat any

$_ZN11xercesc_2_715BaseRefVectorOfINS_19DOMNodeIteratorImplEE17removeAllElementsEv = comdat any

$_ZN11xercesc_2_715BaseRefVectorOfINS_19DOMNodeIteratorImplEE15removeElementAtEj = comdat any

$_ZN11xercesc_2_715BaseRefVectorOfINS_19DOMNodeIteratorImplEE17removeLastElementEv = comdat any

$_ZN11xercesc_2_715BaseRefVectorOfINS_19DOMNodeIteratorImplEE7cleanupEv = comdat any

$_ZN11xercesc_2_715BaseRefVectorOfINS_19DOMNodeIteratorImplEED2Ev = comdat any

$_ZN11xercesc_2_715BaseRefVectorOfINS_19DOMNodeIteratorImplEED0Ev = comdat any

$_ZN11xercesc_2_715BaseRefVectorOfINS_19DOMNodeIteratorImplEE19ensureExtraCapacityEj = comdat any

$_ZN11xercesc_2_715BaseRefVectorOfINS_12DOMRangeImplEEC2EjbPNS_13MemoryManagerE = comdat any

$_ZN11xercesc_2_711RefVectorOfINS_12DOMRangeImplEED2Ev = comdat any

$_ZN11xercesc_2_711RefVectorOfINS_12DOMRangeImplEED0Ev = comdat any

$_ZN11xercesc_2_715BaseRefVectorOfINS_12DOMRangeImplEE12setElementAtEPS1_j = comdat any

$_ZN11xercesc_2_715BaseRefVectorOfINS_12DOMRangeImplEE17removeAllElementsEv = comdat any

$_ZN11xercesc_2_715BaseRefVectorOfINS_12DOMRangeImplEE15removeElementAtEj = comdat any

$_ZN11xercesc_2_715BaseRefVectorOfINS_12DOMRangeImplEE17removeLastElementEv = comdat any

$_ZN11xercesc_2_715BaseRefVectorOfINS_12DOMRangeImplEE7cleanupEv = comdat any

$_ZN11xercesc_2_715BaseRefVectorOfINS_12DOMRangeImplEED2Ev = comdat any

$_ZN11xercesc_2_715BaseRefVectorOfINS_12DOMRangeImplEED0Ev = comdat any

$_ZN11xercesc_2_715BaseRefVectorOfINS_12DOMRangeImplEE19ensureExtraCapacityEj = comdat any

$_ZN11xercesc_2_719DOMDeepNodeListPoolINS_19DOMDeepNodeListImplEE10initializeEm = comdat any

$_ZN11xercesc_2_719DOMDeepNodeListPoolINS_19DOMDeepNodeListImplEE14findBucketElemEPKvPKtS6_Rm = comdat any

$_ZN11xercesc_2_79XMLString9replicateEPKtPNS_13MemoryManagerE = comdat any

$_ZN11xercesc_2_734DOMDeepNodeListPoolTableBucketElemINS_19DOMDeepNodeListImplEEC2EPvPtS4_PS1_PS2_PNS_13MemoryManagerE = comdat any

$_ZN11xercesc_2_719RefHash2KeysTableOfINS_10KeyRefPairIvNS_18DOMUserDataHandlerEEEE10initializeEj = comdat any

$_ZN11xercesc_2_719RefHash2KeysTableOfINS_10KeyRefPairIvNS_18DOMUserDataHandlerEEEE14findBucketElemEPKviRj = comdat any

$_ZN11xercesc_2_722NoSuchElementExceptionC2EPKcjNS_10XMLExcepts5CodesEPNS_13MemoryManagerE = comdat any

$_ZN11xercesc_2_722NoSuchElementExceptionD2Ev = comdat any

$_ZN11xercesc_2_722NoSuchElementExceptionD0Ev = comdat any

$_ZNK11xercesc_2_722NoSuchElementException7getTypeEv = comdat any

$_ZNK11xercesc_2_722NoSuchElementException9duplicateEv = comdat any

$_ZN11xercesc_2_722NoSuchElementExceptionC2ERKS0_ = comdat any

$_ZN11xercesc_2_719RefHash2KeysTableOfINS_10KeyRefPairIvNS_18DOMUserDataHandlerEEEE6rehashEv = comdat any

$_ZN11xercesc_2_727RefHash2KeysTableBucketElemINS_10KeyRefPairIvNS_18DOMUserDataHandlerEEEEC2EPviPS3_PS4_ = comdat any

$_ZN11xercesc_2_712ArrayJanitorIPNS_27RefHash2KeysTableBucketElemINS_10KeyRefPairIvNS_18DOMUserDataHandlerEEEEEEC2EPS6_PNS_13MemoryManagerE = comdat any

$_ZN11xercesc_2_712ArrayJanitorIPNS_27RefHash2KeysTableBucketElemINS_10KeyRefPairIvNS_18DOMUserDataHandlerEEEEEE7releaseEv = comdat any

$_ZN11xercesc_2_712ArrayJanitorIPNS_27RefHash2KeysTableBucketElemINS_10KeyRefPairIvNS_18DOMUserDataHandlerEEEEEED2Ev = comdat any

$_ZN11xercesc_2_712ArrayJanitorIPNS_27RefHash2KeysTableBucketElemINS_10KeyRefPairIvNS_18DOMUserDataHandlerEEEEEE5resetEPS6_ = comdat any

$_ZN11xercesc_2_713XMLEnumeratorINS_10KeyRefPairIvNS_18DOMUserDataHandlerEEEEC2Ev = comdat any

$_ZN11xercesc_2_720NullPointerExceptionC2EPKcjNS_10XMLExcepts5CodesEPNS_13MemoryManagerE = comdat any

$_ZN11xercesc_2_720NullPointerExceptionD2Ev = comdat any

$_ZN11xercesc_2_729RefHash2KeysTableOfEnumeratorINS_10KeyRefPairIvNS_18DOMUserDataHandlerEEEE8findNextEv = comdat any

$_ZN11xercesc_2_729RefHash2KeysTableOfEnumeratorINS_10KeyRefPairIvNS_18DOMUserDataHandlerEEEED0Ev = comdat any

$_ZN11xercesc_2_729RefHash2KeysTableOfEnumeratorINS_10KeyRefPairIvNS_18DOMUserDataHandlerEEEE11nextElementEv = comdat any

$_ZN11xercesc_2_729RefHash2KeysTableOfEnumeratorINS_10KeyRefPairIvNS_18DOMUserDataHandlerEEEE5ResetEv = comdat any

$_ZN11xercesc_2_713XMLEnumeratorINS_10KeyRefPairIvNS_18DOMUserDataHandlerEEEED2Ev = comdat any

$_ZN11xercesc_2_713XMLEnumeratorINS_10KeyRefPairIvNS_18DOMUserDataHandlerEEEED0Ev = comdat any

$_ZN11xercesc_2_720NullPointerExceptionD0Ev = comdat any

$_ZNK11xercesc_2_720NullPointerException7getTypeEv = comdat any

$_ZNK11xercesc_2_720NullPointerException9duplicateEv = comdat any

$_ZN11xercesc_2_720NullPointerExceptionC2ERKS0_ = comdat any

$_ZN11xercesc_2_711RefVectorOfINS_7DOMNodeEEC2EjbPNS_13MemoryManagerE = comdat any

$_ZN11xercesc_2_715BaseRefVectorOfINS_7DOMNodeEEC2EjbPNS_13MemoryManagerE = comdat any

$_ZN11xercesc_2_715BaseRefVectorOfINS_7DOMNodeEED2Ev = comdat any

$_ZN11xercesc_2_715BaseRefVectorOfINS_7DOMNodeEED0Ev = comdat any

$_ZN11xercesc_2_715BaseRefVectorOfINS_7DOMNodeEE10addElementEPS1_ = comdat any

$_ZN11xercesc_2_715BaseRefVectorOfINS_7DOMNodeEE19ensureExtraCapacityEj = comdat any

$_ZN11xercesc_2_711RefVectorOfINS_9DOMBufferEEC2EjbPNS_13MemoryManagerE = comdat any

$_ZN11xercesc_2_715BaseRefVectorOfINS_9DOMBufferEEC2EjbPNS_13MemoryManagerE = comdat any

$_ZN11xercesc_2_715BaseRefVectorOfINS_9DOMBufferEED2Ev = comdat any

$_ZN11xercesc_2_715BaseRefVectorOfINS_9DOMBufferEED0Ev = comdat any

$_ZN11xercesc_2_715BaseRefVectorOfINS_9DOMBufferEE10addElementEPS1_ = comdat any

$_ZN11xercesc_2_715BaseRefVectorOfINS_9DOMBufferEE19ensureExtraCapacityEj = comdat any

$_ZNK11xercesc_2_715BaseRefVectorOfINS_9DOMBufferEE4sizeEv = comdat any

$_ZNK11xercesc_2_715BaseRefVectorOfINS_9DOMBufferEE16getMemoryManagerEv = comdat any

$_ZN11xercesc_2_719EmptyStackExceptionC2EPKcjNS_10XMLExcepts5CodesEPNS_13MemoryManagerE = comdat any

$_ZN11xercesc_2_719EmptyStackExceptionD2Ev = comdat any

$_ZN11xercesc_2_715BaseRefVectorOfINS_9DOMBufferEE15orphanElementAtEj = comdat any

$_ZN11xercesc_2_719EmptyStackExceptionD0Ev = comdat any

$_ZNK11xercesc_2_719EmptyStackException7getTypeEv = comdat any

$_ZNK11xercesc_2_719EmptyStackException9duplicateEv = comdat any

$_ZN11xercesc_2_719EmptyStackExceptionC2ERKS0_ = comdat any

$_ZNK11xercesc_2_715BaseRefVectorOfINS_7DOMNodeEE4sizeEv = comdat any

$_ZNK11xercesc_2_715BaseRefVectorOfINS_7DOMNodeEE16getMemoryManagerEv = comdat any

$_ZN11xercesc_2_715BaseRefVectorOfINS_7DOMNodeEE15orphanElementAtEj = comdat any

$_ZTSN11xercesc_2_720OutOfMemoryExceptionE = comdat any

$_ZTSN11xercesc_2_77XMemoryE = comdat any

$_ZTIN11xercesc_2_77XMemoryE = comdat any

$_ZTIN11xercesc_2_720OutOfMemoryExceptionE = comdat any

$_ZTVN11xercesc_2_710XMLDeleterE = comdat any

$_ZTSN11xercesc_2_710XMLDeleterE = comdat any

$_ZTIN11xercesc_2_710XMLDeleterE = comdat any

$_ZTSN11xercesc_2_711DOMDocumentE = comdat any

$_ZTSN11xercesc_2_716DOMDocumentRangeE = comdat any

$_ZTIN11xercesc_2_716DOMDocumentRangeE = comdat any

$_ZTSN11xercesc_2_717DOMXPathEvaluatorE = comdat any

$_ZTIN11xercesc_2_717DOMXPathEvaluatorE = comdat any

$_ZTSN11xercesc_2_720DOMDocumentTraversalE = comdat any

$_ZTIN11xercesc_2_720DOMDocumentTraversalE = comdat any

$_ZTSN11xercesc_2_77DOMNodeE = comdat any

$_ZTIN11xercesc_2_77DOMNodeE = comdat any

$_ZTIN11xercesc_2_711DOMDocumentE = comdat any

$_ZTVN11xercesc_2_711DOMDocumentE = comdat any

$_ZTVN11xercesc_2_716DOMDocumentRangeE = comdat any

$_ZTVN11xercesc_2_717DOMXPathEvaluatorE = comdat any

$_ZTVN11xercesc_2_720DOMDocumentTraversalE = comdat any

$_ZTVN11xercesc_2_77DOMNodeE = comdat any

$_ZTSN11xercesc_2_724IllegalArgumentExceptionE = comdat any

$_ZTIN11xercesc_2_724IllegalArgumentExceptionE = comdat any

$_ZTVN11xercesc_2_724IllegalArgumentExceptionE = comdat any

$_ZTVN11xercesc_2_711RefVectorOfINS_7DOMNodeEEE = comdat any

$_ZTSN11xercesc_2_711RefVectorOfINS_7DOMNodeEEE = comdat any

$_ZTSN11xercesc_2_715BaseRefVectorOfINS_7DOMNodeEEE = comdat any

$_ZTIN11xercesc_2_715BaseRefVectorOfINS_7DOMNodeEEE = comdat any

$_ZTIN11xercesc_2_711RefVectorOfINS_7DOMNodeEEE = comdat any

$_ZTSN11xercesc_2_730ArrayIndexOutOfBoundsExceptionE = comdat any

$_ZTIN11xercesc_2_730ArrayIndexOutOfBoundsExceptionE = comdat any

$_ZTVN11xercesc_2_730ArrayIndexOutOfBoundsExceptionE = comdat any

$_ZTVN11xercesc_2_711RefVectorOfINS_9DOMBufferEEE = comdat any

$_ZTSN11xercesc_2_711RefVectorOfINS_9DOMBufferEEE = comdat any

$_ZTSN11xercesc_2_715BaseRefVectorOfINS_9DOMBufferEEE = comdat any

$_ZTIN11xercesc_2_715BaseRefVectorOfINS_9DOMBufferEEE = comdat any

$_ZTIN11xercesc_2_711RefVectorOfINS_9DOMBufferEEE = comdat any

$_ZTVN11xercesc_2_711RefVectorOfINS_19DOMNodeIteratorImplEEE = comdat any

$_ZTSN11xercesc_2_711RefVectorOfINS_19DOMNodeIteratorImplEEE = comdat any

$_ZTSN11xercesc_2_715BaseRefVectorOfINS_19DOMNodeIteratorImplEEE = comdat any

$_ZTIN11xercesc_2_715BaseRefVectorOfINS_19DOMNodeIteratorImplEEE = comdat any

$_ZTIN11xercesc_2_711RefVectorOfINS_19DOMNodeIteratorImplEEE = comdat any

$_ZTVN11xercesc_2_715BaseRefVectorOfINS_19DOMNodeIteratorImplEEE = comdat any

$_ZTVN11xercesc_2_711RefVectorOfINS_12DOMRangeImplEEE = comdat any

$_ZTSN11xercesc_2_711RefVectorOfINS_12DOMRangeImplEEE = comdat any

$_ZTSN11xercesc_2_715BaseRefVectorOfINS_12DOMRangeImplEEE = comdat any

$_ZTIN11xercesc_2_715BaseRefVectorOfINS_12DOMRangeImplEEE = comdat any

$_ZTIN11xercesc_2_711RefVectorOfINS_12DOMRangeImplEEE = comdat any

$_ZTVN11xercesc_2_715BaseRefVectorOfINS_12DOMRangeImplEEE = comdat any

$_ZTSN11xercesc_2_722NoSuchElementExceptionE = comdat any

$_ZTIN11xercesc_2_722NoSuchElementExceptionE = comdat any

$_ZTVN11xercesc_2_722NoSuchElementExceptionE = comdat any

$_ZTVN11xercesc_2_729RefHash2KeysTableOfEnumeratorINS_10KeyRefPairIvNS_18DOMUserDataHandlerEEEEE = comdat any

$_ZTSN11xercesc_2_720NullPointerExceptionE = comdat any

$_ZTIN11xercesc_2_720NullPointerExceptionE = comdat any

$_ZTSN11xercesc_2_729RefHash2KeysTableOfEnumeratorINS_10KeyRefPairIvNS_18DOMUserDataHandlerEEEEE = comdat any

$_ZTSN11xercesc_2_713XMLEnumeratorINS_10KeyRefPairIvNS_18DOMUserDataHandlerEEEEE = comdat any

$_ZTIN11xercesc_2_713XMLEnumeratorINS_10KeyRefPairIvNS_18DOMUserDataHandlerEEEEE = comdat any

$_ZTIN11xercesc_2_729RefHash2KeysTableOfEnumeratorINS_10KeyRefPairIvNS_18DOMUserDataHandlerEEEEE = comdat any

$_ZTVN11xercesc_2_713XMLEnumeratorINS_10KeyRefPairIvNS_18DOMUserDataHandlerEEEEE = comdat any

$_ZTVN11xercesc_2_720NullPointerExceptionE = comdat any

$_ZTVN11xercesc_2_715BaseRefVectorOfINS_7DOMNodeEEE = comdat any

$_ZTVN11xercesc_2_715BaseRefVectorOfINS_9DOMBufferEEE = comdat any

$_ZTSN11xercesc_2_719EmptyStackExceptionE = comdat any

$_ZTIN11xercesc_2_719EmptyStackExceptionE = comdat any

$_ZTVN11xercesc_2_719EmptyStackExceptionE = comdat any

@_ZTVN11xercesc_2_715DOMDocumentImplE = dso_local unnamed_addr constant { [95 x i8*], [7 x i8*], [6 x i8*], [42 x i8*] } { [95 x i8*] [i8* null, i8* bitcast ({ i8*, i8*, i32, i32, i8*, i64, i8*, i64 }* @_ZTIN11xercesc_2_715DOMDocumentImplE to i8*), i8* bitcast (void (%"class.xercesc_2_7::DOMDocumentImpl"*)* @_ZN11xercesc_2_715DOMDocumentImplD1Ev to i8*), i8* bitcast (void (%"class.xercesc_2_7::DOMDocumentImpl"*)* @_ZN11xercesc_2_715DOMDocumentImplD0Ev to i8*), i8* bitcast (%"class.xercesc_2_7::DOMRange"* (%"class.xercesc_2_7::DOMDocumentImpl"*)* @_ZN11xercesc_2_715DOMDocumentImpl11createRangeEv to i8*), i8* bitcast (%"class.xercesc_2_7::DOMElement"* (%"class.xercesc_2_7::DOMDocumentImpl"*, i16*)* @_ZN11xercesc_2_715DOMDocumentImpl13createElementEPKt to i8*), i8* bitcast (%"class.xercesc_2_7::DOMDocumentFragment"* (%"class.xercesc_2_7::DOMDocumentImpl"*)* @_ZN11xercesc_2_715DOMDocumentImpl22createDocumentFragmentEv to i8*), i8* bitcast (%"class.xercesc_2_7::DOMText"* (%"class.xercesc_2_7::DOMDocumentImpl"*, i16*)* @_ZN11xercesc_2_715DOMDocumentImpl14createTextNodeEPKt to i8*), i8* bitcast (%"class.xercesc_2_7::DOMComment"* (%"class.xercesc_2_7::DOMDocumentImpl"*, i16*)* @_ZN11xercesc_2_715DOMDocumentImpl13createCommentEPKt to i8*), i8* bitcast (%"class.xercesc_2_7::DOMCDATASection"* (%"class.xercesc_2_7::DOMDocumentImpl"*, i16*)* @_ZN11xercesc_2_715DOMDocumentImpl18createCDATASectionEPKt to i8*), i8* bitcast (%"class.xercesc_2_7::DOMProcessingInstruction"* (%"class.xercesc_2_7::DOMDocumentImpl"*, i16*, i16*)* @_ZN11xercesc_2_715DOMDocumentImpl27createProcessingInstructionEPKtS2_ to i8*), i8* bitcast (%"class.xercesc_2_7::DOMAttr"* (%"class.xercesc_2_7::DOMDocumentImpl"*, i16*)* @_ZN11xercesc_2_715DOMDocumentImpl15createAttributeEPKt to i8*), i8* bitcast (%"class.xercesc_2_7::DOMEntityReference"* (%"class.xercesc_2_7::DOMDocumentImpl"*, i16*)* @_ZN11xercesc_2_715DOMDocumentImpl21createEntityReferenceEPKt to i8*), i8* bitcast (%"class.xercesc_2_7::DOMDocumentType"* (%"class.xercesc_2_7::DOMDocumentImpl"*)* @_ZNK11xercesc_2_715DOMDocumentImpl10getDoctypeEv to i8*), i8* bitcast (%"class.xercesc_2_7::DOMImplementation"* (%"class.xercesc_2_7::DOMDocumentImpl"*)* @_ZNK11xercesc_2_715DOMDocumentImpl17getImplementationEv to i8*), i8* bitcast (%"class.xercesc_2_7::DOMElement"* (%"class.xercesc_2_7::DOMDocumentImpl"*)* @_ZNK11xercesc_2_715DOMDocumentImpl18getDocumentElementEv to i8*), i8* bitcast (%"class.xercesc_2_7::DOMNodeList"* (%"class.xercesc_2_7::DOMDocumentImpl"*, i16*)* @_ZNK11xercesc_2_715DOMDocumentImpl20getElementsByTagNameEPKt to i8*), i8* bitcast (%"class.xercesc_2_7::DOMNode"* (%"class.xercesc_2_7::DOMDocumentImpl"*, %"class.xercesc_2_7::DOMNode"*, i1)* @_ZN11xercesc_2_715DOMDocumentImpl10importNodeEPNS_7DOMNodeEb to i8*), i8* bitcast (%"class.xercesc_2_7::DOMElement"* (%"class.xercesc_2_7::DOMDocumentImpl"*, i16*, i16*)* @_ZN11xercesc_2_715DOMDocumentImpl15createElementNSEPKtS2_ to i8*), i8* bitcast (%"class.xercesc_2_7::DOMAttr"* (%"class.xercesc_2_7::DOMDocumentImpl"*, i16*, i16*)* @_ZN11xercesc_2_715DOMDocumentImpl17createAttributeNSEPKtS2_ to i8*), i8* bitcast (%"class.xercesc_2_7::DOMNodeList"* (%"class.xercesc_2_7::DOMDocumentImpl"*, i16*, i16*)* @_ZNK11xercesc_2_715DOMDocumentImpl22getElementsByTagNameNSEPKtS2_ to i8*), i8* bitcast (%"class.xercesc_2_7::DOMElement"* (%"class.xercesc_2_7::DOMDocumentImpl"*, i16*)* @_ZNK11xercesc_2_715DOMDocumentImpl14getElementByIdEPKt to i8*), i8* bitcast (i16* (%"class.xercesc_2_7::DOMDocumentImpl"*)* @_ZNK11xercesc_2_715DOMDocumentImpl17getActualEncodingEv to i8*), i8* bitcast (void (%"class.xercesc_2_7::DOMDocumentImpl"*, i16*)* @_ZN11xercesc_2_715DOMDocumentImpl17setActualEncodingEPKt to i8*), i8* bitcast (i16* (%"class.xercesc_2_7::DOMDocumentImpl"*)* @_ZNK11xercesc_2_715DOMDocumentImpl11getEncodingEv to i8*), i8* bitcast (void (%"class.xercesc_2_7::DOMDocumentImpl"*, i16*)* @_ZN11xercesc_2_715DOMDocumentImpl11setEncodingEPKt to i8*), i8* bitcast (i1 (%"class.xercesc_2_7::DOMDocumentImpl"*)* @_ZNK11xercesc_2_715DOMDocumentImpl13getStandaloneEv to i8*), i8* bitcast (void (%"class.xercesc_2_7::DOMDocumentImpl"*, i1)* @_ZN11xercesc_2_715DOMDocumentImpl13setStandaloneEb to i8*), i8* bitcast (i16* (%"class.xercesc_2_7::DOMDocumentImpl"*)* @_ZNK11xercesc_2_715DOMDocumentImpl10getVersionEv to i8*), i8* bitcast (void (%"class.xercesc_2_7::DOMDocumentImpl"*, i16*)* @_ZN11xercesc_2_715DOMDocumentImpl10setVersionEPKt to i8*), i8* bitcast (i16* (%"class.xercesc_2_7::DOMDocumentImpl"*)* @_ZNK11xercesc_2_715DOMDocumentImpl14getDocumentURIEv to i8*), i8* bitcast (void (%"class.xercesc_2_7::DOMDocumentImpl"*, i16*)* @_ZN11xercesc_2_715DOMDocumentImpl14setDocumentURIEPKt to i8*), i8* bitcast (i1 (%"class.xercesc_2_7::DOMDocumentImpl"*)* @_ZNK11xercesc_2_715DOMDocumentImpl22getStrictErrorCheckingEv to i8*), i8* bitcast (void (%"class.xercesc_2_7::DOMDocumentImpl"*, i1)* @_ZN11xercesc_2_715DOMDocumentImpl22setStrictErrorCheckingEb to i8*), i8* bitcast (%"class.xercesc_2_7::DOMNode"* (%"class.xercesc_2_7::DOMDocumentImpl"*, %"class.xercesc_2_7::DOMNode"*, i16*, i16*)* @_ZN11xercesc_2_715DOMDocumentImpl10renameNodeEPNS_7DOMNodeEPKtS4_ to i8*), i8* bitcast (%"class.xercesc_2_7::DOMNode"* (%"class.xercesc_2_7::DOMDocumentImpl"*, %"class.xercesc_2_7::DOMNode"*)* @_ZN11xercesc_2_715DOMDocumentImpl9adoptNodeEPNS_7DOMNodeE to i8*), i8* bitcast (void (%"class.xercesc_2_7::DOMDocumentImpl"*)* @_ZN11xercesc_2_715DOMDocumentImpl17normalizeDocumentEv to i8*), i8* bitcast (%"class.xercesc_2_7::DOMConfiguration"* (%"class.xercesc_2_7::DOMDocumentImpl"*)* @_ZNK11xercesc_2_715DOMDocumentImpl19getDOMConfigurationEv to i8*), i8* bitcast (%"class.xercesc_2_7::DOMEntity"* (%"class.xercesc_2_7::DOMDocumentImpl"*, i16*)* @_ZN11xercesc_2_715DOMDocumentImpl12createEntityEPKt to i8*), i8* bitcast (%"class.xercesc_2_7::DOMDocumentType"* (%"class.xercesc_2_7::DOMDocumentImpl"*, i16*)* @_ZN11xercesc_2_715DOMDocumentImpl18createDocumentTypeEPKt to i8*), i8* bitcast (%"class.xercesc_2_7::DOMDocumentType"* (%"class.xercesc_2_7::DOMDocumentImpl"*, i16*, i16*, i16*)* @_ZN11xercesc_2_715DOMDocumentImpl18createDocumentTypeEPKtS2_S2_ to i8*), i8* bitcast (%"class.xercesc_2_7::DOMNotation"* (%"class.xercesc_2_7::DOMDocumentImpl"*, i16*)* @_ZN11xercesc_2_715DOMDocumentImpl14createNotationEPKt to i8*), i8* bitcast (%"class.xercesc_2_7::DOMElement"* (%"class.xercesc_2_7::DOMDocumentImpl"*, i16*, i16*, i64, i64)* @_ZN11xercesc_2_715DOMDocumentImpl15createElementNSEPKtS2_ll to i8*), i8* bitcast (%"class.xercesc_2_7::DOMNode"* (%"class.xercesc_2_7::DOMDocumentImpl"*, %"class.xercesc_2_7::DOMNode"*)* @_ZN11xercesc_2_715DOMDocumentImpl11appendChildEPNS_7DOMNodeE to i8*), i8* bitcast (%"class.xercesc_2_7::DOMNode"* (%"class.xercesc_2_7::DOMDocumentImpl"*, i1)* @_ZNK11xercesc_2_715DOMDocumentImpl9cloneNodeEb to i8*), i8* bitcast (%"class.xercesc_2_7::DOMNamedNodeMap"* (%"class.xercesc_2_7::DOMDocumentImpl"*)* @_ZNK11xercesc_2_715DOMDocumentImpl13getAttributesEv to i8*), i8* bitcast (%"class.xercesc_2_7::DOMNodeList"* (%"class.xercesc_2_7::DOMDocumentImpl"*)* @_ZNK11xercesc_2_715DOMDocumentImpl13getChildNodesEv to i8*), i8* bitcast (%"class.xercesc_2_7::DOMNode"* (%"class.xercesc_2_7::DOMDocumentImpl"*)* @_ZNK11xercesc_2_715DOMDocumentImpl13getFirstChildEv to i8*), i8* bitcast (%"class.xercesc_2_7::DOMNode"* (%"class.xercesc_2_7::DOMDocumentImpl"*)* @_ZNK11xercesc_2_715DOMDocumentImpl12getLastChildEv to i8*), i8* bitcast (i16* (%"class.xercesc_2_7::DOMDocumentImpl"*)* @_ZNK11xercesc_2_715DOMDocumentImpl12getLocalNameEv to i8*), i8* bitcast (i16* (%"class.xercesc_2_7::DOMDocumentImpl"*)* @_ZNK11xercesc_2_715DOMDocumentImpl15getNamespaceURIEv to i8*), i8* bitcast (%"class.xercesc_2_7::DOMNode"* (%"class.xercesc_2_7::DOMDocumentImpl"*)* @_ZNK11xercesc_2_715DOMDocumentImpl14getNextSiblingEv to i8*), i8* bitcast (i16* (%"class.xercesc_2_7::DOMDocumentImpl"*)* @_ZNK11xercesc_2_715DOMDocumentImpl11getNodeNameEv to i8*), i8* bitcast (i16 (%"class.xercesc_2_7::DOMDocumentImpl"*)* @_ZNK11xercesc_2_715DOMDocumentImpl11getNodeTypeEv to i8*), i8* bitcast (i16* (%"class.xercesc_2_7::DOMDocumentImpl"*)* @_ZNK11xercesc_2_715DOMDocumentImpl12getNodeValueEv to i8*), i8* bitcast (%"class.xercesc_2_7::DOMDocument"* (%"class.xercesc_2_7::DOMDocumentImpl"*)* @_ZNK11xercesc_2_715DOMDocumentImpl16getOwnerDocumentEv to i8*), i8* bitcast (i16* (%"class.xercesc_2_7::DOMDocumentImpl"*)* @_ZNK11xercesc_2_715DOMDocumentImpl9getPrefixEv to i8*), i8* bitcast (%"class.xercesc_2_7::DOMNode"* (%"class.xercesc_2_7::DOMDocumentImpl"*)* @_ZNK11xercesc_2_715DOMDocumentImpl13getParentNodeEv to i8*), i8* bitcast (%"class.xercesc_2_7::DOMNode"* (%"class.xercesc_2_7::DOMDocumentImpl"*)* @_ZNK11xercesc_2_715DOMDocumentImpl18getPreviousSiblingEv to i8*), i8* bitcast (i1 (%"class.xercesc_2_7::DOMDocumentImpl"*)* @_ZNK11xercesc_2_715DOMDocumentImpl13hasChildNodesEv to i8*), i8* bitcast (%"class.xercesc_2_7::DOMNode"* (%"class.xercesc_2_7::DOMDocumentImpl"*, %"class.xercesc_2_7::DOMNode"*, %"class.xercesc_2_7::DOMNode"*)* @_ZN11xercesc_2_715DOMDocumentImpl12insertBeforeEPNS_7DOMNodeES2_ to i8*), i8* bitcast (void (%"class.xercesc_2_7::DOMDocumentImpl"*)* @_ZN11xercesc_2_715DOMDocumentImpl9normalizeEv to i8*), i8* bitcast (%"class.xercesc_2_7::DOMNode"* (%"class.xercesc_2_7::DOMDocumentImpl"*, %"class.xercesc_2_7::DOMNode"*)* @_ZN11xercesc_2_715DOMDocumentImpl11removeChildEPNS_7DOMNodeE to i8*), i8* bitcast (%"class.xercesc_2_7::DOMNode"* (%"class.xercesc_2_7::DOMDocumentImpl"*, %"class.xercesc_2_7::DOMNode"*, %"class.xercesc_2_7::DOMNode"*)* @_ZN11xercesc_2_715DOMDocumentImpl12replaceChildEPNS_7DOMNodeES2_ to i8*), i8* bitcast (void (%"class.xercesc_2_7::DOMDocumentImpl"*, i16*)* @_ZN11xercesc_2_715DOMDocumentImpl12setNodeValueEPKt to i8*), i8* bitcast (i1 (%"class.xercesc_2_7::DOMDocumentImpl"*, i16*, i16*)* @_ZNK11xercesc_2_715DOMDocumentImpl11isSupportedEPKtS2_ to i8*), i8* bitcast (i1 (%"class.xercesc_2_7::DOMDocumentImpl"*)* @_ZNK11xercesc_2_715DOMDocumentImpl13hasAttributesEv to i8*), i8* bitcast (void (%"class.xercesc_2_7::DOMDocumentImpl"*, i16*)* @_ZN11xercesc_2_715DOMDocumentImpl9setPrefixEPKt to i8*), i8* bitcast (i8* (%"class.xercesc_2_7::DOMDocumentImpl"*, i16*, i8*, %"class.xercesc_2_7::DOMUserDataHandler"*)* @_ZN11xercesc_2_715DOMDocumentImpl11setUserDataEPKtPvPNS_18DOMUserDataHandlerE to i8*), i8* bitcast (i8* (%"class.xercesc_2_7::DOMDocumentImpl"*, i16*)* @_ZNK11xercesc_2_715DOMDocumentImpl11getUserDataEPKt to i8*), i8* bitcast (i1 (%"class.xercesc_2_7::DOMDocumentImpl"*, %"class.xercesc_2_7::DOMNode"*)* @_ZNK11xercesc_2_715DOMDocumentImpl10isSameNodeEPKNS_7DOMNodeE to i8*), i8* bitcast (i1 (%"class.xercesc_2_7::DOMDocumentImpl"*, %"class.xercesc_2_7::DOMNode"*)* @_ZNK11xercesc_2_715DOMDocumentImpl11isEqualNodeEPKNS_7DOMNodeE to i8*), i8* bitcast (i16* (%"class.xercesc_2_7::DOMDocumentImpl"*)* @_ZNK11xercesc_2_715DOMDocumentImpl10getBaseURIEv to i8*), i8* bitcast (i16 (%"class.xercesc_2_7::DOMDocumentImpl"*, %"class.xercesc_2_7::DOMNode"*)* @_ZNK11xercesc_2_715DOMDocumentImpl19compareTreePositionEPKNS_7DOMNodeE to i8*), i8* bitcast (i16* (%"class.xercesc_2_7::DOMDocumentImpl"*)* @_ZNK11xercesc_2_715DOMDocumentImpl14getTextContentEv to i8*), i8* bitcast (void (%"class.xercesc_2_7::DOMDocumentImpl"*, i16*)* @_ZN11xercesc_2_715DOMDocumentImpl14setTextContentEPKt to i8*), i8* bitcast (i16* (%"class.xercesc_2_7::DOMDocumentImpl"*, i16*, i1)* @_ZNK11xercesc_2_715DOMDocumentImpl21lookupNamespacePrefixEPKtb to i8*), i8* bitcast (i1 (%"class.xercesc_2_7::DOMDocumentImpl"*, i16*)* @_ZNK11xercesc_2_715DOMDocumentImpl18isDefaultNamespaceEPKt to i8*), i8* bitcast (i16* (%"class.xercesc_2_7::DOMDocumentImpl"*, i16*)* @_ZNK11xercesc_2_715DOMDocumentImpl18lookupNamespaceURIEPKt to i8*), i8* bitcast (%"class.xercesc_2_7::DOMNode"* (%"class.xercesc_2_7::DOMDocumentImpl"*, i16*)* @_ZN11xercesc_2_715DOMDocumentImpl12getInterfaceEPKt to i8*), i8* bitcast (void (%"class.xercesc_2_7::DOMDocumentImpl"*)* @_ZN11xercesc_2_715DOMDocumentImpl7releaseEv to i8*), i8* bitcast (%"class.xercesc_2_7::DOMElement"* (%"class.xercesc_2_7::DOMDocumentImpl"*, i16*)* @_ZN11xercesc_2_715DOMDocumentImpl20createElementNoCheckEPKt to i8*), i8* bitcast (%"class.xercesc_2_7::DOMNodeIterator"* (%"class.xercesc_2_7::DOMDocumentImpl"*, %"class.xercesc_2_7::DOMNode"*, i64, %"class.xercesc_2_7::DOMNodeFilter"*, i1)* @_ZN11xercesc_2_715DOMDocumentImpl18createNodeIteratorEPNS_7DOMNodeEmPNS_13DOMNodeFilterEb to i8*), i8* bitcast (%"class.xercesc_2_7::DOMTreeWalker"* (%"class.xercesc_2_7::DOMDocumentImpl"*, %"class.xercesc_2_7::DOMNode"*, i64, %"class.xercesc_2_7::DOMNodeFilter"*, i1)* @_ZN11xercesc_2_715DOMDocumentImpl16createTreeWalkerEPNS_7DOMNodeEmPNS_13DOMNodeFilterEb to i8*), i8* bitcast (%"class.xercesc_2_7::RefVectorOf.5"* (%"class.xercesc_2_7::DOMDocumentImpl"*)* @_ZNK11xercesc_2_715DOMDocumentImpl9getRangesEv to i8*), i8* bitcast (%"class.xercesc_2_7::RefVectorOf.7"* (%"class.xercesc_2_7::DOMDocumentImpl"*)* @_ZNK11xercesc_2_715DOMDocumentImpl16getNodeIteratorsEv to i8*), i8* bitcast (void (%"class.xercesc_2_7::DOMDocumentImpl"*, %"class.xercesc_2_7::DOMRangeImpl"*)* @_ZN11xercesc_2_715DOMDocumentImpl11removeRangeEPNS_12DOMRangeImplE to i8*), i8* bitcast (void (%"class.xercesc_2_7::DOMDocumentImpl"*, %"class.xercesc_2_7::DOMNodeIteratorImpl"*)* @_ZN11xercesc_2_715DOMDocumentImpl18removeNodeIteratorEPNS_19DOMNodeIteratorImplE to i8*), i8* bitcast (%"class.xercesc_2_7::DOMXPathExpression"* (%"class.xercesc_2_7::DOMDocumentImpl"*, i16*, %"class.xercesc_2_7::DOMXPathNSResolver"*)* @_ZN11xercesc_2_715DOMDocumentImpl16createExpressionEPKtPKNS_18DOMXPathNSResolverE to i8*), i8* bitcast (%"class.xercesc_2_7::DOMXPathNSResolver"* (%"class.xercesc_2_7::DOMDocumentImpl"*, %"class.xercesc_2_7::DOMNode"*)* @_ZN11xercesc_2_715DOMDocumentImpl16createNSResolverEPNS_7DOMNodeE to i8*), i8* bitcast (i8* (%"class.xercesc_2_7::DOMDocumentImpl"*, i16*, %"class.xercesc_2_7::DOMNode"*, %"class.xercesc_2_7::DOMXPathNSResolver"*, i16, i8*)* @_ZN11xercesc_2_715DOMDocumentImpl8evaluateEPKtPNS_7DOMNodeEPKNS_18DOMXPathNSResolverEtPv to i8*), i8* bitcast (void (%"class.xercesc_2_7::DOMDocumentImpl"*)* @_ZN11xercesc_2_715DOMDocumentImpl7changedEv to i8*), i8* bitcast (i32 (%"class.xercesc_2_7::DOMDocumentImpl"*)* @_ZNK11xercesc_2_715DOMDocumentImpl7changesEv to i8*), i8* bitcast (void (%"class.xercesc_2_7::DOMDocumentImpl"*, %"class.xercesc_2_7::DOMConfiguration"*)* @_ZN11xercesc_2_715DOMDocumentImpl19setDOMConfigurationEPNS_16DOMConfigurationE to i8*), i8* bitcast (%"class.xercesc_2_7::DOMNode"* (%"class.xercesc_2_7::DOMDocumentImpl"*, %"class.xercesc_2_7::DOMNode"*, i1, i1)* @_ZN11xercesc_2_715DOMDocumentImpl10importNodeEPNS_7DOMNodeEbb to i8*)], [7 x i8*] [i8* inttoptr (i64 -8 to i8*), i8* bitcast ({ i8*, i8*, i32, i32, i8*, i64, i8*, i64 }* @_ZTIN11xercesc_2_715DOMDocumentImplE to i8*), i8* bitcast (void (%"class.xercesc_2_7::DOMDocumentImpl"*)* @_ZThn8_N11xercesc_2_715DOMDocumentImplD1Ev to i8*), i8* bitcast (void (%"class.xercesc_2_7::DOMDocumentImpl"*)* @_ZThn8_N11xercesc_2_715DOMDocumentImplD0Ev to i8*), i8* bitcast (%"class.xercesc_2_7::DOMXPathExpression"* (%"class.xercesc_2_7::DOMDocumentImpl"*, i16*, %"class.xercesc_2_7::DOMXPathNSResolver"*)* @_ZThn8_N11xercesc_2_715DOMDocumentImpl16createExpressionEPKtPKNS_18DOMXPathNSResolverE to i8*), i8* bitcast (%"class.xercesc_2_7::DOMXPathNSResolver"* (%"class.xercesc_2_7::DOMDocumentImpl"*, %"class.xercesc_2_7::DOMNode"*)* @_ZThn8_N11xercesc_2_715DOMDocumentImpl16createNSResolverEPNS_7DOMNodeE to i8*), i8* bitcast (i8* (%"class.xercesc_2_7::DOMDocumentImpl"*, i16*, %"class.xercesc_2_7::DOMNode"*, %"class.xercesc_2_7::DOMXPathNSResolver"*, i16, i8*)* @_ZThn8_N11xercesc_2_715DOMDocumentImpl8evaluateEPKtPNS_7DOMNodeEPKNS_18DOMXPathNSResolverEtPv to i8*)], [6 x i8*] [i8* inttoptr (i64 -16 to i8*), i8* bitcast ({ i8*, i8*, i32, i32, i8*, i64, i8*, i64 }* @_ZTIN11xercesc_2_715DOMDocumentImplE to i8*), i8* bitcast (void (%"class.xercesc_2_7::DOMDocumentImpl"*)* @_ZThn16_N11xercesc_2_715DOMDocumentImplD1Ev to i8*), i8* bitcast (void (%"class.xercesc_2_7::DOMDocumentImpl"*)* @_ZThn16_N11xercesc_2_715DOMDocumentImplD0Ev to i8*), i8* bitcast (%"class.xercesc_2_7::DOMNodeIterator"* (%"class.xercesc_2_7::DOMDocumentImpl"*, %"class.xercesc_2_7::DOMNode"*, i64, %"class.xercesc_2_7::DOMNodeFilter"*, i1)* @_ZThn16_N11xercesc_2_715DOMDocumentImpl18createNodeIteratorEPNS_7DOMNodeEmPNS_13DOMNodeFilterEb to i8*), i8* bitcast (%"class.xercesc_2_7::DOMTreeWalker"* (%"class.xercesc_2_7::DOMDocumentImpl"*, %"class.xercesc_2_7::DOMNode"*, i64, %"class.xercesc_2_7::DOMNodeFilter"*, i1)* @_ZThn16_N11xercesc_2_715DOMDocumentImpl16createTreeWalkerEPNS_7DOMNodeEmPNS_13DOMNodeFilterEb to i8*)], [42 x i8*] [i8* inttoptr (i64 -24 to i8*), i8* bitcast ({ i8*, i8*, i32, i32, i8*, i64, i8*, i64 }* @_ZTIN11xercesc_2_715DOMDocumentImplE to i8*), i8* bitcast (void (%"class.xercesc_2_7::DOMDocumentImpl"*)* @_ZThn24_N11xercesc_2_715DOMDocumentImplD1Ev to i8*), i8* bitcast (void (%"class.xercesc_2_7::DOMDocumentImpl"*)* @_ZThn24_N11xercesc_2_715DOMDocumentImplD0Ev to i8*), i8* bitcast (i16* (%"class.xercesc_2_7::DOMDocumentImpl"*)* @_ZThn24_NK11xercesc_2_715DOMDocumentImpl11getNodeNameEv to i8*), i8* bitcast (i16* (%"class.xercesc_2_7::DOMDocumentImpl"*)* @_ZThn24_NK11xercesc_2_715DOMDocumentImpl12getNodeValueEv to i8*), i8* bitcast (i16 (%"class.xercesc_2_7::DOMDocumentImpl"*)* @_ZThn24_NK11xercesc_2_715DOMDocumentImpl11getNodeTypeEv to i8*), i8* bitcast (%"class.xercesc_2_7::DOMNode"* (%"class.xercesc_2_7::DOMDocumentImpl"*)* @_ZThn24_NK11xercesc_2_715DOMDocumentImpl13getParentNodeEv to i8*), i8* bitcast (%"class.xercesc_2_7::DOMNodeList"* (%"class.xercesc_2_7::DOMDocumentImpl"*)* @_ZThn24_NK11xercesc_2_715DOMDocumentImpl13getChildNodesEv to i8*), i8* bitcast (%"class.xercesc_2_7::DOMNode"* (%"class.xercesc_2_7::DOMDocumentImpl"*)* @_ZThn24_NK11xercesc_2_715DOMDocumentImpl13getFirstChildEv to i8*), i8* bitcast (%"class.xercesc_2_7::DOMNode"* (%"class.xercesc_2_7::DOMDocumentImpl"*)* @_ZThn24_NK11xercesc_2_715DOMDocumentImpl12getLastChildEv to i8*), i8* bitcast (%"class.xercesc_2_7::DOMNode"* (%"class.xercesc_2_7::DOMDocumentImpl"*)* @_ZThn24_NK11xercesc_2_715DOMDocumentImpl18getPreviousSiblingEv to i8*), i8* bitcast (%"class.xercesc_2_7::DOMNode"* (%"class.xercesc_2_7::DOMDocumentImpl"*)* @_ZThn24_NK11xercesc_2_715DOMDocumentImpl14getNextSiblingEv to i8*), i8* bitcast (%"class.xercesc_2_7::DOMNamedNodeMap"* (%"class.xercesc_2_7::DOMDocumentImpl"*)* @_ZThn24_NK11xercesc_2_715DOMDocumentImpl13getAttributesEv to i8*), i8* bitcast (%"class.xercesc_2_7::DOMDocument"* (%"class.xercesc_2_7::DOMDocumentImpl"*)* @_ZThn24_NK11xercesc_2_715DOMDocumentImpl16getOwnerDocumentEv to i8*), i8* bitcast (%"class.xercesc_2_7::DOMNode"* (%"class.xercesc_2_7::DOMDocumentImpl"*, i1)* @_ZThn24_NK11xercesc_2_715DOMDocumentImpl9cloneNodeEb to i8*), i8* bitcast (%"class.xercesc_2_7::DOMNode"* (%"class.xercesc_2_7::DOMDocumentImpl"*, %"class.xercesc_2_7::DOMNode"*, %"class.xercesc_2_7::DOMNode"*)* @_ZThn24_N11xercesc_2_715DOMDocumentImpl12insertBeforeEPNS_7DOMNodeES2_ to i8*), i8* bitcast (%"class.xercesc_2_7::DOMNode"* (%"class.xercesc_2_7::DOMDocumentImpl"*, %"class.xercesc_2_7::DOMNode"*, %"class.xercesc_2_7::DOMNode"*)* @_ZThn24_N11xercesc_2_715DOMDocumentImpl12replaceChildEPNS_7DOMNodeES2_ to i8*), i8* bitcast (%"class.xercesc_2_7::DOMNode"* (%"class.xercesc_2_7::DOMDocumentImpl"*, %"class.xercesc_2_7::DOMNode"*)* @_ZThn24_N11xercesc_2_715DOMDocumentImpl11removeChildEPNS_7DOMNodeE to i8*), i8* bitcast (%"class.xercesc_2_7::DOMNode"* (%"class.xercesc_2_7::DOMDocumentImpl"*, %"class.xercesc_2_7::DOMNode"*)* @_ZThn24_N11xercesc_2_715DOMDocumentImpl11appendChildEPNS_7DOMNodeE to i8*), i8* bitcast (i1 (%"class.xercesc_2_7::DOMDocumentImpl"*)* @_ZThn24_NK11xercesc_2_715DOMDocumentImpl13hasChildNodesEv to i8*), i8* bitcast (void (%"class.xercesc_2_7::DOMDocumentImpl"*, i16*)* @_ZThn24_N11xercesc_2_715DOMDocumentImpl12setNodeValueEPKt to i8*), i8* bitcast (void (%"class.xercesc_2_7::DOMDocumentImpl"*)* @_ZThn24_N11xercesc_2_715DOMDocumentImpl9normalizeEv to i8*), i8* bitcast (i1 (%"class.xercesc_2_7::DOMDocumentImpl"*, i16*, i16*)* @_ZThn24_NK11xercesc_2_715DOMDocumentImpl11isSupportedEPKtS2_ to i8*), i8* bitcast (i16* (%"class.xercesc_2_7::DOMDocumentImpl"*)* @_ZThn24_NK11xercesc_2_715DOMDocumentImpl15getNamespaceURIEv to i8*), i8* bitcast (i16* (%"class.xercesc_2_7::DOMDocumentImpl"*)* @_ZThn24_NK11xercesc_2_715DOMDocumentImpl9getPrefixEv to i8*), i8* bitcast (i16* (%"class.xercesc_2_7::DOMDocumentImpl"*)* @_ZThn24_NK11xercesc_2_715DOMDocumentImpl12getLocalNameEv to i8*), i8* bitcast (void (%"class.xercesc_2_7::DOMDocumentImpl"*, i16*)* @_ZThn24_N11xercesc_2_715DOMDocumentImpl9setPrefixEPKt to i8*), i8* bitcast (i1 (%"class.xercesc_2_7::DOMDocumentImpl"*)* @_ZThn24_NK11xercesc_2_715DOMDocumentImpl13hasAttributesEv to i8*), i8* bitcast (i1 (%"class.xercesc_2_7::DOMDocumentImpl"*, %"class.xercesc_2_7::DOMNode"*)* @_ZThn24_NK11xercesc_2_715DOMDocumentImpl10isSameNodeEPKNS_7DOMNodeE to i8*), i8* bitcast (i1 (%"class.xercesc_2_7::DOMDocumentImpl"*, %"class.xercesc_2_7::DOMNode"*)* @_ZThn24_NK11xercesc_2_715DOMDocumentImpl11isEqualNodeEPKNS_7DOMNodeE to i8*), i8* bitcast (i8* (%"class.xercesc_2_7::DOMDocumentImpl"*, i16*, i8*, %"class.xercesc_2_7::DOMUserDataHandler"*)* @_ZThn24_N11xercesc_2_715DOMDocumentImpl11setUserDataEPKtPvPNS_18DOMUserDataHandlerE to i8*), i8* bitcast (i8* (%"class.xercesc_2_7::DOMDocumentImpl"*, i16*)* @_ZThn24_NK11xercesc_2_715DOMDocumentImpl11getUserDataEPKt to i8*), i8* bitcast (i16* (%"class.xercesc_2_7::DOMDocumentImpl"*)* @_ZThn24_NK11xercesc_2_715DOMDocumentImpl10getBaseURIEv to i8*), i8* bitcast (i16 (%"class.xercesc_2_7::DOMDocumentImpl"*, %"class.xercesc_2_7::DOMNode"*)* @_ZThn24_NK11xercesc_2_715DOMDocumentImpl19compareTreePositionEPKNS_7DOMNodeE to i8*), i8* bitcast (i16* (%"class.xercesc_2_7::DOMDocumentImpl"*)* @_ZThn24_NK11xercesc_2_715DOMDocumentImpl14getTextContentEv to i8*), i8* bitcast (void (%"class.xercesc_2_7::DOMDocumentImpl"*, i16*)* @_ZThn24_N11xercesc_2_715DOMDocumentImpl14setTextContentEPKt to i8*), i8* bitcast (i16* (%"class.xercesc_2_7::DOMDocumentImpl"*, i16*, i1)* @_ZThn24_NK11xercesc_2_715DOMDocumentImpl21lookupNamespacePrefixEPKtb to i8*), i8* bitcast (i1 (%"class.xercesc_2_7::DOMDocumentImpl"*, i16*)* @_ZThn24_NK11xercesc_2_715DOMDocumentImpl18isDefaultNamespaceEPKt to i8*), i8* bitcast (i16* (%"class.xercesc_2_7::DOMDocumentImpl"*, i16*)* @_ZThn24_NK11xercesc_2_715DOMDocumentImpl18lookupNamespaceURIEPKt to i8*), i8* bitcast (%"class.xercesc_2_7::DOMNode"* (%"class.xercesc_2_7::DOMDocumentImpl"*, i16*)* @_ZThn24_N11xercesc_2_715DOMDocumentImpl12getInterfaceEPKt to i8*), i8* bitcast (void (%"class.xercesc_2_7::DOMDocumentImpl"*)* @_ZThn24_N11xercesc_2_715DOMDocumentImpl7releaseEv to i8*)] }, align 8
@_ZTVN10__cxxabiv120__si_class_type_infoE = external dso_local global i8*
@_ZTSN11xercesc_2_720OutOfMemoryExceptionE = linkonce_odr dso_local constant [38 x i8] c"N11xercesc_2_720OutOfMemoryExceptionE\00", comdat, align 1
@_ZTVN10__cxxabiv117__class_type_infoE = external dso_local global i8*
@_ZTSN11xercesc_2_77XMemoryE = linkonce_odr dso_local constant [24 x i8] c"N11xercesc_2_77XMemoryE\00", comdat, align 1
@_ZTIN11xercesc_2_77XMemoryE = linkonce_odr dso_local constant { i8*, i8* } { i8* bitcast (i8** getelementptr inbounds (i8*, i8** @_ZTVN10__cxxabiv117__class_type_infoE, i64 2) to i8*), i8* getelementptr inbounds ([24 x i8], [24 x i8]* @_ZTSN11xercesc_2_77XMemoryE, i32 0, i32 0) }, comdat, align 8
@_ZTIN11xercesc_2_720OutOfMemoryExceptionE = linkonce_odr dso_local constant { i8*, i8*, i8* } { i8* bitcast (i8** getelementptr inbounds (i8*, i8** @_ZTVN10__cxxabiv120__si_class_type_infoE, i64 2) to i8*), i8* getelementptr inbounds ([38 x i8], [38 x i8]* @_ZTSN11xercesc_2_720OutOfMemoryExceptionE, i32 0, i32 0), i8* bitcast ({ i8*, i8* }* @_ZTIN11xercesc_2_77XMemoryE to i8*) }, comdat, align 8
@_ZTIN11xercesc_2_712DOMExceptionE = external dso_local constant i8*
@_ZZNK11xercesc_2_715DOMDocumentImpl11getNodeNameEvE3nam = internal constant [10 x i16] [i16 35, i16 100, i16 111, i16 99, i16 117, i16 109, i16 101, i16 110, i16 116, i16 0], align 16, !dbg !0
@_ZN11xercesc_2_76XMLUni12fgVersion1_1E = external dso_local constant [0 x i16], align 2
@_ZZN11xercesc_2_715DOMDocumentImpl7isKidOKEPNS_7DOMNodeES2_E5kidOK = internal global [14 x i32] zeroinitializer, align 16, !dbg !2711
@_ZN11xercesc_2_76XMLUni12fgVersion1_0E = external dso_local constant [0 x i16], align 2
@_ZN11xercesc_2_76XMLUni37fgXercescInterfaceDOMDocumentTypeImplE = external dso_local constant [0 x i16], align 2
@_ZTVN11xercesc_2_710XMLDeleterE = linkonce_odr dso_local unnamed_addr constant { [4 x i8*] } { [4 x i8*] [i8* null, i8* bitcast ({ i8*, i8* }* @_ZTIN11xercesc_2_710XMLDeleterE to i8*), i8* bitcast (void (%"class.xercesc_2_7::XMLDeleter"*)* @_ZN11xercesc_2_710XMLDeleterD2Ev to i8*), i8* bitcast (void (%"class.xercesc_2_7::XMLDeleter"*)* @_ZN11xercesc_2_710XMLDeleterD0Ev to i8*)] }, comdat, align 8
@_ZTSN11xercesc_2_710XMLDeleterE = linkonce_odr dso_local constant [28 x i8] c"N11xercesc_2_710XMLDeleterE\00", comdat, align 1
@_ZTIN11xercesc_2_710XMLDeleterE = linkonce_odr dso_local constant { i8*, i8* } { i8* bitcast (i8** getelementptr inbounds (i8*, i8** @_ZTVN10__cxxabiv117__class_type_infoE, i64 2) to i8*), i8* getelementptr inbounds ([28 x i8], [28 x i8]* @_ZTSN11xercesc_2_710XMLDeleterE, i32 0, i32 0) }, comdat, align 8
@_ZTVN10__cxxabiv121__vmi_class_type_infoE = external dso_local global i8*
@_ZTSN11xercesc_2_715DOMDocumentImplE = dso_local constant [33 x i8] c"N11xercesc_2_715DOMDocumentImplE\00", align 1
@_ZTSN11xercesc_2_711DOMDocumentE = linkonce_odr dso_local constant [29 x i8] c"N11xercesc_2_711DOMDocumentE\00", comdat, align 1
@_ZTSN11xercesc_2_716DOMDocumentRangeE = linkonce_odr dso_local constant [34 x i8] c"N11xercesc_2_716DOMDocumentRangeE\00", comdat, align 1
@_ZTIN11xercesc_2_716DOMDocumentRangeE = linkonce_odr dso_local constant { i8*, i8* } { i8* bitcast (i8** getelementptr inbounds (i8*, i8** @_ZTVN10__cxxabiv117__class_type_infoE, i64 2) to i8*), i8* getelementptr inbounds ([34 x i8], [34 x i8]* @_ZTSN11xercesc_2_716DOMDocumentRangeE, i32 0, i32 0) }, comdat, align 8
@_ZTSN11xercesc_2_717DOMXPathEvaluatorE = linkonce_odr dso_local constant [35 x i8] c"N11xercesc_2_717DOMXPathEvaluatorE\00", comdat, align 1
@_ZTIN11xercesc_2_717DOMXPathEvaluatorE = linkonce_odr dso_local constant { i8*, i8* } { i8* bitcast (i8** getelementptr inbounds (i8*, i8** @_ZTVN10__cxxabiv117__class_type_infoE, i64 2) to i8*), i8* getelementptr inbounds ([35 x i8], [35 x i8]* @_ZTSN11xercesc_2_717DOMXPathEvaluatorE, i32 0, i32 0) }, comdat, align 8
@_ZTSN11xercesc_2_720DOMDocumentTraversalE = linkonce_odr dso_local constant [38 x i8] c"N11xercesc_2_720DOMDocumentTraversalE\00", comdat, align 1
@_ZTIN11xercesc_2_720DOMDocumentTraversalE = linkonce_odr dso_local constant { i8*, i8* } { i8* bitcast (i8** getelementptr inbounds (i8*, i8** @_ZTVN10__cxxabiv117__class_type_infoE, i64 2) to i8*), i8* getelementptr inbounds ([38 x i8], [38 x i8]* @_ZTSN11xercesc_2_720DOMDocumentTraversalE, i32 0, i32 0) }, comdat, align 8
@_ZTSN11xercesc_2_77DOMNodeE = linkonce_odr dso_local constant [24 x i8] c"N11xercesc_2_77DOMNodeE\00", comdat, align 1
@_ZTIN11xercesc_2_77DOMNodeE = linkonce_odr dso_local constant { i8*, i8* } { i8* bitcast (i8** getelementptr inbounds (i8*, i8** @_ZTVN10__cxxabiv117__class_type_infoE, i64 2) to i8*), i8* getelementptr inbounds ([24 x i8], [24 x i8]* @_ZTSN11xercesc_2_77DOMNodeE, i32 0, i32 0) }, comdat, align 8
@_ZTIN11xercesc_2_711DOMDocumentE = linkonce_odr dso_local constant { i8*, i8*, i32, i32, i8*, i64, i8*, i64, i8*, i64, i8*, i64 } { i8* bitcast (i8** getelementptr inbounds (i8*, i8** @_ZTVN10__cxxabiv121__vmi_class_type_infoE, i64 2) to i8*), i8* getelementptr inbounds ([29 x i8], [29 x i8]* @_ZTSN11xercesc_2_711DOMDocumentE, i32 0, i32 0), i32 0, i32 4, i8* bitcast ({ i8*, i8* }* @_ZTIN11xercesc_2_716DOMDocumentRangeE to i8*), i64 2, i8* bitcast ({ i8*, i8* }* @_ZTIN11xercesc_2_717DOMXPathEvaluatorE to i8*), i64 2050, i8* bitcast ({ i8*, i8* }* @_ZTIN11xercesc_2_720DOMDocumentTraversalE to i8*), i64 4098, i8* bitcast ({ i8*, i8* }* @_ZTIN11xercesc_2_77DOMNodeE to i8*), i64 6146 }, comdat, align 8
@_ZTIN11xercesc_2_715DOMDocumentImplE = dso_local constant { i8*, i8*, i32, i32, i8*, i64, i8*, i64 } { i8* bitcast (i8** getelementptr inbounds (i8*, i8** @_ZTVN10__cxxabiv121__vmi_class_type_infoE, i64 2) to i8*), i8* getelementptr inbounds ([33 x i8], [33 x i8]* @_ZTSN11xercesc_2_715DOMDocumentImplE, i32 0, i32 0), i32 0, i32 2, i8* bitcast ({ i8*, i8* }* @_ZTIN11xercesc_2_77XMemoryE to i8*), i64 2, i8* bitcast ({ i8*, i8*, i32, i32, i8*, i64, i8*, i64, i8*, i64, i8*, i64 }* @_ZTIN11xercesc_2_711DOMDocumentE to i8*), i64 2 }, align 8
@_ZTVN11xercesc_2_711DOMDocumentE = linkonce_odr dso_local unnamed_addr constant { [43 x i8*], [7 x i8*], [6 x i8*], [42 x i8*] } { [43 x i8*] [i8* null, i8* bitcast ({ i8*, i8*, i32, i32, i8*, i64, i8*, i64, i8*, i64, i8*, i64 }* @_ZTIN11xercesc_2_711DOMDocumentE to i8*), i8* bitcast (void (%"class.xercesc_2_7::DOMDocument"*)* @_ZN11xercesc_2_711DOMDocumentD2Ev to i8*), i8* bitcast (void (%"class.xercesc_2_7::DOMDocument"*)* @_ZN11xercesc_2_711DOMDocumentD0Ev to i8*), i8* bitcast (void ()* @__cxa_pure_virtual to i8*), i8* bitcast (void ()* @__cxa_pure_virtual to i8*), i8* bitcast (void ()* @__cxa_pure_virtual to i8*), i8* bitcast (void ()* @__cxa_pure_virtual to i8*), i8* bitcast (void ()* @__cxa_pure_virtual to i8*), i8* bitcast (void ()* @__cxa_pure_virtual to i8*), i8* bitcast (void ()* @__cxa_pure_virtual to i8*), i8* bitcast (void ()* @__cxa_pure_virtual to i8*), i8* bitcast (void ()* @__cxa_pure_virtual to i8*), i8* bitcast (void ()* @__cxa_pure_virtual to i8*), i8* bitcast (void ()* @__cxa_pure_virtual to i8*), i8* bitcast (void ()* @__cxa_pure_virtual to i8*), i8* bitcast (void ()* @__cxa_pure_virtual to i8*), i8* bitcast (void ()* @__cxa_pure_virtual to i8*), i8* bitcast (void ()* @__cxa_pure_virtual to i8*), i8* bitcast (void ()* @__cxa_pure_virtual to i8*), i8* bitcast (void ()* @__cxa_pure_virtual to i8*), i8* bitcast (void ()* @__cxa_pure_virtual to i8*), i8* bitcast (void ()* @__cxa_pure_virtual to i8*), i8* bitcast (void ()* @__cxa_pure_virtual to i8*), i8* bitcast (void ()* @__cxa_pure_virtual to i8*), i8* bitcast (void ()* @__cxa_pure_virtual to i8*), i8* bitcast (void ()* @__cxa_pure_virtual to i8*), i8* bitcast (void ()* @__cxa_pure_virtual to i8*), i8* bitcast (void ()* @__cxa_pure_virtual to i8*), i8* bitcast (void ()* @__cxa_pure_virtual to i8*), i8* bitcast (void ()* @__cxa_pure_virtual to i8*), i8* bitcast (void ()* @__cxa_pure_virtual to i8*), i8* bitcast (void ()* @__cxa_pure_virtual to i8*), i8* bitcast (void ()* @__cxa_pure_virtual to i8*), i8* bitcast (void ()* @__cxa_pure_virtual to i8*), i8* bitcast (void ()* @__cxa_pure_virtual to i8*), i8* bitcast (void ()* @__cxa_pure_virtual to i8*), i8* bitcast (void ()* @__cxa_pure_virtual to i8*), i8* bitcast (void ()* @__cxa_pure_virtual to i8*), i8* bitcast (void ()* @__cxa_pure_virtual to i8*), i8* bitcast (%"class.xercesc_2_7::DOMDocumentType"* (%"class.xercesc_2_7::DOMDocument"*, i16*, i16*, i16*)* @_ZN11xercesc_2_711DOMDocument18createDocumentTypeEPKtS2_S2_ to i8*), i8* bitcast (void ()* @__cxa_pure_virtual to i8*), i8* bitcast (void ()* @__cxa_pure_virtual to i8*)], [7 x i8*] [i8* inttoptr (i64 -8 to i8*), i8* bitcast ({ i8*, i8*, i32, i32, i8*, i64, i8*, i64, i8*, i64, i8*, i64 }* @_ZTIN11xercesc_2_711DOMDocumentE to i8*), i8* bitcast (void (%"class.xercesc_2_7::DOMDocument"*)* @_ZThn8_N11xercesc_2_711DOMDocumentD1Ev to i8*), i8* bitcast (void (%"class.xercesc_2_7::DOMDocument"*)* @_ZThn8_N11xercesc_2_711DOMDocumentD0Ev to i8*), i8* bitcast (void ()* @__cxa_pure_virtual to i8*), i8* bitcast (void ()* @__cxa_pure_virtual to i8*), i8* bitcast (void ()* @__cxa_pure_virtual to i8*)], [6 x i8*] [i8* inttoptr (i64 -16 to i8*), i8* bitcast ({ i8*, i8*, i32, i32, i8*, i64, i8*, i64, i8*, i64, i8*, i64 }* @_ZTIN11xercesc_2_711DOMDocumentE to i8*), i8* bitcast (void (%"class.xercesc_2_7::DOMDocument"*)* @_ZThn16_N11xercesc_2_711DOMDocumentD1Ev to i8*), i8* bitcast (void (%"class.xercesc_2_7::DOMDocument"*)* @_ZThn16_N11xercesc_2_711DOMDocumentD0Ev to i8*), i8* bitcast (void ()* @__cxa_pure_virtual to i8*), i8* bitcast (void ()* @__cxa_pure_virtual to i8*)], [42 x i8*] [i8* inttoptr (i64 -24 to i8*), i8* bitcast ({ i8*, i8*, i32, i32, i8*, i64, i8*, i64, i8*, i64, i8*, i64 }* @_ZTIN11xercesc_2_711DOMDocumentE to i8*), i8* bitcast (void (%"class.xercesc_2_7::DOMDocument"*)* @_ZThn24_N11xercesc_2_711DOMDocumentD1Ev to i8*), i8* bitcast (void (%"class.xercesc_2_7::DOMDocument"*)* @_ZThn24_N11xercesc_2_711DOMDocumentD0Ev to i8*), i8* bitcast (void ()* @__cxa_pure_virtual to i8*), i8* bitcast (void ()* @__cxa_pure_virtual to i8*), i8* bitcast (void ()* @__cxa_pure_virtual to i8*), i8* bitcast (void ()* @__cxa_pure_virtual to i8*), i8* bitcast (void ()* @__cxa_pure_virtual to i8*), i8* bitcast (void ()* @__cxa_pure_virtual to i8*), i8* bitcast (void ()* @__cxa_pure_virtual to i8*), i8* bitcast (void ()* @__cxa_pure_virtual to i8*), i8* bitcast (void ()* @__cxa_pure_virtual to i8*), i8* bitcast (void ()* @__cxa_pure_virtual to i8*), i8* bitcast (void ()* @__cxa_pure_virtual to i8*), i8* bitcast (void ()* @__cxa_pure_virtual to i8*), i8* bitcast (void ()* @__cxa_pure_virtual to i8*), i8* bitcast (void ()* @__cxa_pure_virtual to i8*), i8* bitcast (void ()* @__cxa_pure_virtual to i8*), i8* bitcast (void ()* @__cxa_pure_virtual to i8*), i8* bitcast (void ()* @__cxa_pure_virtual to i8*), i8* bitcast (void ()* @__cxa_pure_virtual to i8*), i8* bitcast (void ()* @__cxa_pure_virtual to i8*), i8* bitcast (void ()* @__cxa_pure_virtual to i8*), i8* bitcast (void ()* @__cxa_pure_virtual to i8*), i8* bitcast (void ()* @__cxa_pure_virtual to i8*), i8* bitcast (void ()* @__cxa_pure_virtual to i8*), i8* bitcast (void ()* @__cxa_pure_virtual to i8*), i8* bitcast (void ()* @__cxa_pure_virtual to i8*), i8* bitcast (void ()* @__cxa_pure_virtual to i8*), i8* bitcast (void ()* @__cxa_pure_virtual to i8*), i8* bitcast (void ()* @__cxa_pure_virtual to i8*), i8* bitcast (void ()* @__cxa_pure_virtual to i8*), i8* bitcast (void ()* @__cxa_pure_virtual to i8*), i8* bitcast (void ()* @__cxa_pure_virtual to i8*), i8* bitcast (void ()* @__cxa_pure_virtual to i8*), i8* bitcast (void ()* @__cxa_pure_virtual to i8*), i8* bitcast (void ()* @__cxa_pure_virtual to i8*), i8* bitcast (void ()* @__cxa_pure_virtual to i8*), i8* bitcast (void ()* @__cxa_pure_virtual to i8*), i8* bitcast (void ()* @__cxa_pure_virtual to i8*), i8* bitcast (void ()* @__cxa_pure_virtual to i8*)] }, comdat, align 8
@_ZTVN11xercesc_2_716DOMDocumentRangeE = linkonce_odr dso_local unnamed_addr constant { [5 x i8*] } { [5 x i8*] [i8* null, i8* bitcast ({ i8*, i8* }* @_ZTIN11xercesc_2_716DOMDocumentRangeE to i8*), i8* bitcast (void (%"class.xercesc_2_7::DOMDocumentRange"*)* @_ZN11xercesc_2_716DOMDocumentRangeD2Ev to i8*), i8* bitcast (void (%"class.xercesc_2_7::DOMDocumentRange"*)* @_ZN11xercesc_2_716DOMDocumentRangeD0Ev to i8*), i8* bitcast (void ()* @__cxa_pure_virtual to i8*)] }, comdat, align 8
@_ZTVN11xercesc_2_717DOMXPathEvaluatorE = linkonce_odr dso_local unnamed_addr constant { [7 x i8*] } { [7 x i8*] [i8* null, i8* bitcast ({ i8*, i8* }* @_ZTIN11xercesc_2_717DOMXPathEvaluatorE to i8*), i8* bitcast (void (%"class.xercesc_2_7::DOMXPathEvaluator"*)* @_ZN11xercesc_2_717DOMXPathEvaluatorD2Ev to i8*), i8* bitcast (void (%"class.xercesc_2_7::DOMXPathEvaluator"*)* @_ZN11xercesc_2_717DOMXPathEvaluatorD0Ev to i8*), i8* bitcast (void ()* @__cxa_pure_virtual to i8*), i8* bitcast (void ()* @__cxa_pure_virtual to i8*), i8* bitcast (void ()* @__cxa_pure_virtual to i8*)] }, comdat, align 8
@_ZTVN11xercesc_2_720DOMDocumentTraversalE = linkonce_odr dso_local unnamed_addr constant { [6 x i8*] } { [6 x i8*] [i8* null, i8* bitcast ({ i8*, i8* }* @_ZTIN11xercesc_2_720DOMDocumentTraversalE to i8*), i8* bitcast (void (%"class.xercesc_2_7::DOMDocumentTraversal"*)* @_ZN11xercesc_2_720DOMDocumentTraversalD2Ev to i8*), i8* bitcast (void (%"class.xercesc_2_7::DOMDocumentTraversal"*)* @_ZN11xercesc_2_720DOMDocumentTraversalD0Ev to i8*), i8* bitcast (void ()* @__cxa_pure_virtual to i8*), i8* bitcast (void ()* @__cxa_pure_virtual to i8*)] }, comdat, align 8
@_ZTVN11xercesc_2_77DOMNodeE = linkonce_odr dso_local unnamed_addr constant { [42 x i8*] } { [42 x i8*] [i8* null, i8* bitcast ({ i8*, i8* }* @_ZTIN11xercesc_2_77DOMNodeE to i8*), i8* bitcast (void (%"class.xercesc_2_7::DOMNode"*)* @_ZN11xercesc_2_77DOMNodeD2Ev to i8*), i8* bitcast (void (%"class.xercesc_2_7::DOMNode"*)* @_ZN11xercesc_2_77DOMNodeD0Ev to i8*), i8* bitcast (void ()* @__cxa_pure_virtual to i8*), i8* bitcast (void ()* @__cxa_pure_virtual to i8*), i8* bitcast (void ()* @__cxa_pure_virtual to i8*), i8* bitcast (void ()* @__cxa_pure_virtual to i8*), i8* bitcast (void ()* @__cxa_pure_virtual to i8*), i8* bitcast (void ()* @__cxa_pure_virtual to i8*), i8* bitcast (void ()* @__cxa_pure_virtual to i8*), i8* bitcast (void ()* @__cxa_pure_virtual to i8*), i8* bitcast (void ()* @__cxa_pure_virtual to i8*), i8* bitcast (void ()* @__cxa_pure_virtual to i8*), i8* bitcast (void ()* @__cxa_pure_virtual to i8*), i8* bitcast (void ()* @__cxa_pure_virtual to i8*), i8* bitcast (void ()* @__cxa_pure_virtual to i8*), i8* bitcast (void ()* @__cxa_pure_virtual to i8*), i8* bitcast (void ()* @__cxa_pure_virtual to i8*), i8* bitcast (void ()* @__cxa_pure_virtual to i8*), i8* bitcast (void ()* @__cxa_pure_virtual to i8*), i8* bitcast (void ()* @__cxa_pure_virtual to i8*), i8* bitcast (void ()* @__cxa_pure_virtual to i8*), i8* bitcast (void ()* @__cxa_pure_virtual to i8*), i8* bitcast (void ()* @__cxa_pure_virtual to i8*), i8* bitcast (void ()* @__cxa_pure_virtual to i8*), i8* bitcast (void ()* @__cxa_pure_virtual to i8*), i8* bitcast (void ()* @__cxa_pure_virtual to i8*), i8* bitcast (void ()* @__cxa_pure_virtual to i8*), i8* bitcast (void ()* @__cxa_pure_virtual to i8*), i8* bitcast (void ()* @__cxa_pure_virtual to i8*), i8* bitcast (void ()* @__cxa_pure_virtual to i8*), i8* bitcast (void ()* @__cxa_pure_virtual to i8*), i8* bitcast (void ()* @__cxa_pure_virtual to i8*), i8* bitcast (void ()* @__cxa_pure_virtual to i8*), i8* bitcast (void ()* @__cxa_pure_virtual to i8*), i8* bitcast (void ()* @__cxa_pure_virtual to i8*), i8* bitcast (void ()* @__cxa_pure_virtual to i8*), i8* bitcast (void ()* @__cxa_pure_virtual to i8*), i8* bitcast (void ()* @__cxa_pure_virtual to i8*), i8* bitcast (void ()* @__cxa_pure_virtual to i8*), i8* bitcast (void ()* @__cxa_pure_virtual to i8*)] }, comdat, align 8
@_ZN11xercesc_2_711DOMNodeImpl7ID_ATTRE = external dso_local constant i16, align 2
@_ZN11xercesc_2_711DOMNodeImpl8USERDATAE = external dso_local constant i16, align 2
@.str = private unnamed_addr constant [30 x i8] c"./xercesc/util/StringPool.hpp\00", align 1
@_ZTSN11xercesc_2_724IllegalArgumentExceptionE = linkonce_odr dso_local constant [42 x i8] c"N11xercesc_2_724IllegalArgumentExceptionE\00", comdat, align 1
@_ZTIN11xercesc_2_712XMLExceptionE = external dso_local constant i8*
@_ZTIN11xercesc_2_724IllegalArgumentExceptionE = linkonce_odr dso_local constant { i8*, i8*, i8* } { i8* bitcast (i8** getelementptr inbounds (i8*, i8** @_ZTVN10__cxxabiv120__si_class_type_infoE, i64 2) to i8*), i8* getelementptr inbounds ([42 x i8], [42 x i8]* @_ZTSN11xercesc_2_724IllegalArgumentExceptionE, i32 0, i32 0), i8* bitcast (i8** @_ZTIN11xercesc_2_712XMLExceptionE to i8*) }, comdat, align 8
@_ZTVN11xercesc_2_724IllegalArgumentExceptionE = linkonce_odr dso_local unnamed_addr constant { [6 x i8*] } { [6 x i8*] [i8* null, i8* bitcast ({ i8*, i8*, i8* }* @_ZTIN11xercesc_2_724IllegalArgumentExceptionE to i8*), i8* bitcast (void (%"class.xercesc_2_7::IllegalArgumentException"*)* @_ZN11xercesc_2_724IllegalArgumentExceptionD2Ev to i8*), i8* bitcast (void (%"class.xercesc_2_7::IllegalArgumentException"*)* @_ZN11xercesc_2_724IllegalArgumentExceptionD0Ev to i8*), i8* bitcast (i16* (%"class.xercesc_2_7::IllegalArgumentException"*)* @_ZNK11xercesc_2_724IllegalArgumentException7getTypeEv to i8*), i8* bitcast (%"class.xercesc_2_7::XMLException"* (%"class.xercesc_2_7::IllegalArgumentException"*)* @_ZNK11xercesc_2_724IllegalArgumentException9duplicateEv to i8*)] }, comdat, align 8
@_ZN11xercesc_2_76XMLUni31fgIllegalArgumentException_NameE = external dso_local constant [0 x i16], align 2
@_ZN11xercesc_2_711DOMNodeImpl12TOBERELEASEDE = external dso_local constant i16, align 2
@_ZTVN11xercesc_2_711RefVectorOfINS_7DOMNodeEEE = linkonce_odr dso_local unnamed_addr constant { [9 x i8*] } { [9 x i8*] [i8* null, i8* bitcast ({ i8*, i8*, i8* }* @_ZTIN11xercesc_2_711RefVectorOfINS_7DOMNodeEEE to i8*), i8* bitcast (void (%"class.xercesc_2_7::RefVectorOf"*)* @_ZN11xercesc_2_711RefVectorOfINS_7DOMNodeEED2Ev to i8*), i8* bitcast (void (%"class.xercesc_2_7::RefVectorOf"*)* @_ZN11xercesc_2_711RefVectorOfINS_7DOMNodeEED0Ev to i8*), i8* bitcast (void (%"class.xercesc_2_7::BaseRefVectorOf"*, %"class.xercesc_2_7::DOMNode"*, i32)* @_ZN11xercesc_2_715BaseRefVectorOfINS_7DOMNodeEE12setElementAtEPS1_j to i8*), i8* bitcast (void (%"class.xercesc_2_7::BaseRefVectorOf"*)* @_ZN11xercesc_2_715BaseRefVectorOfINS_7DOMNodeEE17removeAllElementsEv to i8*), i8* bitcast (void (%"class.xercesc_2_7::BaseRefVectorOf"*, i32)* @_ZN11xercesc_2_715BaseRefVectorOfINS_7DOMNodeEE15removeElementAtEj to i8*), i8* bitcast (void (%"class.xercesc_2_7::BaseRefVectorOf"*)* @_ZN11xercesc_2_715BaseRefVectorOfINS_7DOMNodeEE17removeLastElementEv to i8*), i8* bitcast (void (%"class.xercesc_2_7::BaseRefVectorOf"*)* @_ZN11xercesc_2_715BaseRefVectorOfINS_7DOMNodeEE7cleanupEv to i8*)] }, comdat, align 8
@_ZTSN11xercesc_2_711RefVectorOfINS_7DOMNodeEEE = linkonce_odr dso_local constant [43 x i8] c"N11xercesc_2_711RefVectorOfINS_7DOMNodeEEE\00", comdat, align 1
@_ZTSN11xercesc_2_715BaseRefVectorOfINS_7DOMNodeEEE = linkonce_odr dso_local constant [47 x i8] c"N11xercesc_2_715BaseRefVectorOfINS_7DOMNodeEEE\00", comdat, align 1
@_ZTIN11xercesc_2_715BaseRefVectorOfINS_7DOMNodeEEE = linkonce_odr dso_local constant { i8*, i8*, i8* } { i8* bitcast (i8** getelementptr inbounds (i8*, i8** @_ZTVN10__cxxabiv120__si_class_type_infoE, i64 2) to i8*), i8* getelementptr inbounds ([47 x i8], [47 x i8]* @_ZTSN11xercesc_2_715BaseRefVectorOfINS_7DOMNodeEEE, i32 0, i32 0), i8* bitcast ({ i8*, i8* }* @_ZTIN11xercesc_2_77XMemoryE to i8*) }, comdat, align 8
@_ZTIN11xercesc_2_711RefVectorOfINS_7DOMNodeEEE = linkonce_odr dso_local constant { i8*, i8*, i8* } { i8* bitcast (i8** getelementptr inbounds (i8*, i8** @_ZTVN10__cxxabiv120__si_class_type_infoE, i64 2) to i8*), i8* getelementptr inbounds ([43 x i8], [43 x i8]* @_ZTSN11xercesc_2_711RefVectorOfINS_7DOMNodeEEE, i32 0, i32 0), i8* bitcast ({ i8*, i8*, i8* }* @_ZTIN11xercesc_2_715BaseRefVectorOfINS_7DOMNodeEEE to i8*) }, comdat, align 8
@.str.1 = private unnamed_addr constant [33 x i8] c"./xercesc/util/BaseRefVectorOf.c\00", align 1
@_ZTSN11xercesc_2_730ArrayIndexOutOfBoundsExceptionE = linkonce_odr dso_local constant [48 x i8] c"N11xercesc_2_730ArrayIndexOutOfBoundsExceptionE\00", comdat, align 1
@_ZTIN11xercesc_2_730ArrayIndexOutOfBoundsExceptionE = linkonce_odr dso_local constant { i8*, i8*, i8* } { i8* bitcast (i8** getelementptr inbounds (i8*, i8** @_ZTVN10__cxxabiv120__si_class_type_infoE, i64 2) to i8*), i8* getelementptr inbounds ([48 x i8], [48 x i8]* @_ZTSN11xercesc_2_730ArrayIndexOutOfBoundsExceptionE, i32 0, i32 0), i8* bitcast (i8** @_ZTIN11xercesc_2_712XMLExceptionE to i8*) }, comdat, align 8
@_ZTVN11xercesc_2_730ArrayIndexOutOfBoundsExceptionE = linkonce_odr dso_local unnamed_addr constant { [6 x i8*] } { [6 x i8*] [i8* null, i8* bitcast ({ i8*, i8*, i8* }* @_ZTIN11xercesc_2_730ArrayIndexOutOfBoundsExceptionE to i8*), i8* bitcast (void (%"class.xercesc_2_7::ArrayIndexOutOfBoundsException"*)* @_ZN11xercesc_2_730ArrayIndexOutOfBoundsExceptionD2Ev to i8*), i8* bitcast (void (%"class.xercesc_2_7::ArrayIndexOutOfBoundsException"*)* @_ZN11xercesc_2_730ArrayIndexOutOfBoundsExceptionD0Ev to i8*), i8* bitcast (i16* (%"class.xercesc_2_7::ArrayIndexOutOfBoundsException"*)* @_ZNK11xercesc_2_730ArrayIndexOutOfBoundsException7getTypeEv to i8*), i8* bitcast (%"class.xercesc_2_7::XMLException"* (%"class.xercesc_2_7::ArrayIndexOutOfBoundsException"*)* @_ZNK11xercesc_2_730ArrayIndexOutOfBoundsException9duplicateEv to i8*)] }, comdat, align 8
@_ZN11xercesc_2_76XMLUni37fgArrayIndexOutOfBoundsException_NameE = external dso_local constant [0 x i16], align 2
@_ZTVN11xercesc_2_711RefVectorOfINS_9DOMBufferEEE = linkonce_odr dso_local unnamed_addr constant { [9 x i8*] } { [9 x i8*] [i8* null, i8* bitcast ({ i8*, i8*, i8* }* @_ZTIN11xercesc_2_711RefVectorOfINS_9DOMBufferEEE to i8*), i8* bitcast (void (%"class.xercesc_2_7::RefVectorOf.1"*)* @_ZN11xercesc_2_711RefVectorOfINS_9DOMBufferEED2Ev to i8*), i8* bitcast (void (%"class.xercesc_2_7::RefVectorOf.1"*)* @_ZN11xercesc_2_711RefVectorOfINS_9DOMBufferEED0Ev to i8*), i8* bitcast (void (%"class.xercesc_2_7::BaseRefVectorOf.2"*, %"class.xercesc_2_7::DOMBuffer"*, i32)* @_ZN11xercesc_2_715BaseRefVectorOfINS_9DOMBufferEE12setElementAtEPS1_j to i8*), i8* bitcast (void (%"class.xercesc_2_7::BaseRefVectorOf.2"*)* @_ZN11xercesc_2_715BaseRefVectorOfINS_9DOMBufferEE17removeAllElementsEv to i8*), i8* bitcast (void (%"class.xercesc_2_7::BaseRefVectorOf.2"*, i32)* @_ZN11xercesc_2_715BaseRefVectorOfINS_9DOMBufferEE15removeElementAtEj to i8*), i8* bitcast (void (%"class.xercesc_2_7::BaseRefVectorOf.2"*)* @_ZN11xercesc_2_715BaseRefVectorOfINS_9DOMBufferEE17removeLastElementEv to i8*), i8* bitcast (void (%"class.xercesc_2_7::BaseRefVectorOf.2"*)* @_ZN11xercesc_2_715BaseRefVectorOfINS_9DOMBufferEE7cleanupEv to i8*)] }, comdat, align 8
@_ZTSN11xercesc_2_711RefVectorOfINS_9DOMBufferEEE = linkonce_odr dso_local constant [45 x i8] c"N11xercesc_2_711RefVectorOfINS_9DOMBufferEEE\00", comdat, align 1
@_ZTSN11xercesc_2_715BaseRefVectorOfINS_9DOMBufferEEE = linkonce_odr dso_local constant [49 x i8] c"N11xercesc_2_715BaseRefVectorOfINS_9DOMBufferEEE\00", comdat, align 1
@_ZTIN11xercesc_2_715BaseRefVectorOfINS_9DOMBufferEEE = linkonce_odr dso_local constant { i8*, i8*, i8* } { i8* bitcast (i8** getelementptr inbounds (i8*, i8** @_ZTVN10__cxxabiv120__si_class_type_infoE, i64 2) to i8*), i8* getelementptr inbounds ([49 x i8], [49 x i8]* @_ZTSN11xercesc_2_715BaseRefVectorOfINS_9DOMBufferEEE, i32 0, i32 0), i8* bitcast ({ i8*, i8* }* @_ZTIN11xercesc_2_77XMemoryE to i8*) }, comdat, align 8
@_ZTIN11xercesc_2_711RefVectorOfINS_9DOMBufferEEE = linkonce_odr dso_local constant { i8*, i8*, i8* } { i8* bitcast (i8** getelementptr inbounds (i8*, i8** @_ZTVN10__cxxabiv120__si_class_type_infoE, i64 2) to i8*), i8* getelementptr inbounds ([45 x i8], [45 x i8]* @_ZTSN11xercesc_2_711RefVectorOfINS_9DOMBufferEEE, i32 0, i32 0), i8* bitcast ({ i8*, i8*, i8* }* @_ZTIN11xercesc_2_715BaseRefVectorOfINS_9DOMBufferEEE to i8*) }, comdat, align 8
@_ZTVN11xercesc_2_711RefVectorOfINS_19DOMNodeIteratorImplEEE = linkonce_odr dso_local unnamed_addr constant { [9 x i8*] } { [9 x i8*] [i8* null, i8* bitcast ({ i8*, i8*, i8* }* @_ZTIN11xercesc_2_711RefVectorOfINS_19DOMNodeIteratorImplEEE to i8*), i8* bitcast (void (%"class.xercesc_2_7::RefVectorOf.7"*)* @_ZN11xercesc_2_711RefVectorOfINS_19DOMNodeIteratorImplEED2Ev to i8*), i8* bitcast (void (%"class.xercesc_2_7::RefVectorOf.7"*)* @_ZN11xercesc_2_711RefVectorOfINS_19DOMNodeIteratorImplEED0Ev to i8*), i8* bitcast (void (%"class.xercesc_2_7::BaseRefVectorOf.8"*, %"class.xercesc_2_7::DOMNodeIteratorImpl"*, i32)* @_ZN11xercesc_2_715BaseRefVectorOfINS_19DOMNodeIteratorImplEE12setElementAtEPS1_j to i8*), i8* bitcast (void (%"class.xercesc_2_7::BaseRefVectorOf.8"*)* @_ZN11xercesc_2_715BaseRefVectorOfINS_19DOMNodeIteratorImplEE17removeAllElementsEv to i8*), i8* bitcast (void (%"class.xercesc_2_7::BaseRefVectorOf.8"*, i32)* @_ZN11xercesc_2_715BaseRefVectorOfINS_19DOMNodeIteratorImplEE15removeElementAtEj to i8*), i8* bitcast (void (%"class.xercesc_2_7::BaseRefVectorOf.8"*)* @_ZN11xercesc_2_715BaseRefVectorOfINS_19DOMNodeIteratorImplEE17removeLastElementEv to i8*), i8* bitcast (void (%"class.xercesc_2_7::BaseRefVectorOf.8"*)* @_ZN11xercesc_2_715BaseRefVectorOfINS_19DOMNodeIteratorImplEE7cleanupEv to i8*)] }, comdat, align 8
@_ZTSN11xercesc_2_711RefVectorOfINS_19DOMNodeIteratorImplEEE = linkonce_odr dso_local constant [56 x i8] c"N11xercesc_2_711RefVectorOfINS_19DOMNodeIteratorImplEEE\00", comdat, align 1
@_ZTSN11xercesc_2_715BaseRefVectorOfINS_19DOMNodeIteratorImplEEE = linkonce_odr dso_local constant [60 x i8] c"N11xercesc_2_715BaseRefVectorOfINS_19DOMNodeIteratorImplEEE\00", comdat, align 1
@_ZTIN11xercesc_2_715BaseRefVectorOfINS_19DOMNodeIteratorImplEEE = linkonce_odr dso_local constant { i8*, i8*, i8* } { i8* bitcast (i8** getelementptr inbounds (i8*, i8** @_ZTVN10__cxxabiv120__si_class_type_infoE, i64 2) to i8*), i8* getelementptr inbounds ([60 x i8], [60 x i8]* @_ZTSN11xercesc_2_715BaseRefVectorOfINS_19DOMNodeIteratorImplEEE, i32 0, i32 0), i8* bitcast ({ i8*, i8* }* @_ZTIN11xercesc_2_77XMemoryE to i8*) }, comdat, align 8
@_ZTIN11xercesc_2_711RefVectorOfINS_19DOMNodeIteratorImplEEE = linkonce_odr dso_local constant { i8*, i8*, i8* } { i8* bitcast (i8** getelementptr inbounds (i8*, i8** @_ZTVN10__cxxabiv120__si_class_type_infoE, i64 2) to i8*), i8* getelementptr inbounds ([56 x i8], [56 x i8]* @_ZTSN11xercesc_2_711RefVectorOfINS_19DOMNodeIteratorImplEEE, i32 0, i32 0), i8* bitcast ({ i8*, i8*, i8* }* @_ZTIN11xercesc_2_715BaseRefVectorOfINS_19DOMNodeIteratorImplEEE to i8*) }, comdat, align 8
@_ZTVN11xercesc_2_715BaseRefVectorOfINS_19DOMNodeIteratorImplEEE = linkonce_odr dso_local unnamed_addr constant { [9 x i8*] } { [9 x i8*] [i8* null, i8* bitcast ({ i8*, i8*, i8* }* @_ZTIN11xercesc_2_715BaseRefVectorOfINS_19DOMNodeIteratorImplEEE to i8*), i8* bitcast (void (%"class.xercesc_2_7::BaseRefVectorOf.8"*)* @_ZN11xercesc_2_715BaseRefVectorOfINS_19DOMNodeIteratorImplEED2Ev to i8*), i8* bitcast (void (%"class.xercesc_2_7::BaseRefVectorOf.8"*)* @_ZN11xercesc_2_715BaseRefVectorOfINS_19DOMNodeIteratorImplEED0Ev to i8*), i8* bitcast (void (%"class.xercesc_2_7::BaseRefVectorOf.8"*, %"class.xercesc_2_7::DOMNodeIteratorImpl"*, i32)* @_ZN11xercesc_2_715BaseRefVectorOfINS_19DOMNodeIteratorImplEE12setElementAtEPS1_j to i8*), i8* bitcast (void (%"class.xercesc_2_7::BaseRefVectorOf.8"*)* @_ZN11xercesc_2_715BaseRefVectorOfINS_19DOMNodeIteratorImplEE17removeAllElementsEv to i8*), i8* bitcast (void (%"class.xercesc_2_7::BaseRefVectorOf.8"*, i32)* @_ZN11xercesc_2_715BaseRefVectorOfINS_19DOMNodeIteratorImplEE15removeElementAtEj to i8*), i8* bitcast (void (%"class.xercesc_2_7::BaseRefVectorOf.8"*)* @_ZN11xercesc_2_715BaseRefVectorOfINS_19DOMNodeIteratorImplEE17removeLastElementEv to i8*), i8* bitcast (void (%"class.xercesc_2_7::BaseRefVectorOf.8"*)* @_ZN11xercesc_2_715BaseRefVectorOfINS_19DOMNodeIteratorImplEE7cleanupEv to i8*)] }, comdat, align 8
@_ZTVN11xercesc_2_711RefVectorOfINS_12DOMRangeImplEEE = linkonce_odr dso_local unnamed_addr constant { [9 x i8*] } { [9 x i8*] [i8* null, i8* bitcast ({ i8*, i8*, i8* }* @_ZTIN11xercesc_2_711RefVectorOfINS_12DOMRangeImplEEE to i8*), i8* bitcast (void (%"class.xercesc_2_7::RefVectorOf.5"*)* @_ZN11xercesc_2_711RefVectorOfINS_12DOMRangeImplEED2Ev to i8*), i8* bitcast (void (%"class.xercesc_2_7::RefVectorOf.5"*)* @_ZN11xercesc_2_711RefVectorOfINS_12DOMRangeImplEED0Ev to i8*), i8* bitcast (void (%"class.xercesc_2_7::BaseRefVectorOf.6"*, %"class.xercesc_2_7::DOMRangeImpl"*, i32)* @_ZN11xercesc_2_715BaseRefVectorOfINS_12DOMRangeImplEE12setElementAtEPS1_j to i8*), i8* bitcast (void (%"class.xercesc_2_7::BaseRefVectorOf.6"*)* @_ZN11xercesc_2_715BaseRefVectorOfINS_12DOMRangeImplEE17removeAllElementsEv to i8*), i8* bitcast (void (%"class.xercesc_2_7::BaseRefVectorOf.6"*, i32)* @_ZN11xercesc_2_715BaseRefVectorOfINS_12DOMRangeImplEE15removeElementAtEj to i8*), i8* bitcast (void (%"class.xercesc_2_7::BaseRefVectorOf.6"*)* @_ZN11xercesc_2_715BaseRefVectorOfINS_12DOMRangeImplEE17removeLastElementEv to i8*), i8* bitcast (void (%"class.xercesc_2_7::BaseRefVectorOf.6"*)* @_ZN11xercesc_2_715BaseRefVectorOfINS_12DOMRangeImplEE7cleanupEv to i8*)] }, comdat, align 8
@_ZTSN11xercesc_2_711RefVectorOfINS_12DOMRangeImplEEE = linkonce_odr dso_local constant [49 x i8] c"N11xercesc_2_711RefVectorOfINS_12DOMRangeImplEEE\00", comdat, align 1
@_ZTSN11xercesc_2_715BaseRefVectorOfINS_12DOMRangeImplEEE = linkonce_odr dso_local constant [53 x i8] c"N11xercesc_2_715BaseRefVectorOfINS_12DOMRangeImplEEE\00", comdat, align 1
@_ZTIN11xercesc_2_715BaseRefVectorOfINS_12DOMRangeImplEEE = linkonce_odr dso_local constant { i8*, i8*, i8* } { i8* bitcast (i8** getelementptr inbounds (i8*, i8** @_ZTVN10__cxxabiv120__si_class_type_infoE, i64 2) to i8*), i8* getelementptr inbounds ([53 x i8], [53 x i8]* @_ZTSN11xercesc_2_715BaseRefVectorOfINS_12DOMRangeImplEEE, i32 0, i32 0), i8* bitcast ({ i8*, i8* }* @_ZTIN11xercesc_2_77XMemoryE to i8*) }, comdat, align 8
@_ZTIN11xercesc_2_711RefVectorOfINS_12DOMRangeImplEEE = linkonce_odr dso_local constant { i8*, i8*, i8* } { i8* bitcast (i8** getelementptr inbounds (i8*, i8** @_ZTVN10__cxxabiv120__si_class_type_infoE, i64 2) to i8*), i8* getelementptr inbounds ([49 x i8], [49 x i8]* @_ZTSN11xercesc_2_711RefVectorOfINS_12DOMRangeImplEEE, i32 0, i32 0), i8* bitcast ({ i8*, i8*, i8* }* @_ZTIN11xercesc_2_715BaseRefVectorOfINS_12DOMRangeImplEEE to i8*) }, comdat, align 8
@_ZTVN11xercesc_2_715BaseRefVectorOfINS_12DOMRangeImplEEE = linkonce_odr dso_local unnamed_addr constant { [9 x i8*] } { [9 x i8*] [i8* null, i8* bitcast ({ i8*, i8*, i8* }* @_ZTIN11xercesc_2_715BaseRefVectorOfINS_12DOMRangeImplEEE to i8*), i8* bitcast (void (%"class.xercesc_2_7::BaseRefVectorOf.6"*)* @_ZN11xercesc_2_715BaseRefVectorOfINS_12DOMRangeImplEED2Ev to i8*), i8* bitcast (void (%"class.xercesc_2_7::BaseRefVectorOf.6"*)* @_ZN11xercesc_2_715BaseRefVectorOfINS_12DOMRangeImplEED0Ev to i8*), i8* bitcast (void (%"class.xercesc_2_7::BaseRefVectorOf.6"*, %"class.xercesc_2_7::DOMRangeImpl"*, i32)* @_ZN11xercesc_2_715BaseRefVectorOfINS_12DOMRangeImplEE12setElementAtEPS1_j to i8*), i8* bitcast (void (%"class.xercesc_2_7::BaseRefVectorOf.6"*)* @_ZN11xercesc_2_715BaseRefVectorOfINS_12DOMRangeImplEE17removeAllElementsEv to i8*), i8* bitcast (void (%"class.xercesc_2_7::BaseRefVectorOf.6"*, i32)* @_ZN11xercesc_2_715BaseRefVectorOfINS_12DOMRangeImplEE15removeElementAtEj to i8*), i8* bitcast (void (%"class.xercesc_2_7::BaseRefVectorOf.6"*)* @_ZN11xercesc_2_715BaseRefVectorOfINS_12DOMRangeImplEE17removeLastElementEv to i8*), i8* bitcast (void (%"class.xercesc_2_7::BaseRefVectorOf.6"*)* @_ZN11xercesc_2_715BaseRefVectorOfINS_12DOMRangeImplEE7cleanupEv to i8*)] }, comdat, align 8
@_ZN11xercesc_2_716XMLPlatformUtils15fgMemoryManagerE = external dso_local global %"class.xercesc_2_7::MemoryManager"*, align 8
@.str.2 = private unnamed_addr constant [41 x i8] c"./xercesc/dom/impl/DOMDeepNodeListPool.c\00", align 1
@.str.3 = private unnamed_addr constant [37 x i8] c"./xercesc/util/RefHash2KeysTableOf.c\00", align 1
@_ZTSN11xercesc_2_722NoSuchElementExceptionE = linkonce_odr dso_local constant [40 x i8] c"N11xercesc_2_722NoSuchElementExceptionE\00", comdat, align 1
@_ZTIN11xercesc_2_722NoSuchElementExceptionE = linkonce_odr dso_local constant { i8*, i8*, i8* } { i8* bitcast (i8** getelementptr inbounds (i8*, i8** @_ZTVN10__cxxabiv120__si_class_type_infoE, i64 2) to i8*), i8* getelementptr inbounds ([40 x i8], [40 x i8]* @_ZTSN11xercesc_2_722NoSuchElementExceptionE, i32 0, i32 0), i8* bitcast (i8** @_ZTIN11xercesc_2_712XMLExceptionE to i8*) }, comdat, align 8
@_ZTVN11xercesc_2_722NoSuchElementExceptionE = linkonce_odr dso_local unnamed_addr constant { [6 x i8*] } { [6 x i8*] [i8* null, i8* bitcast ({ i8*, i8*, i8* }* @_ZTIN11xercesc_2_722NoSuchElementExceptionE to i8*), i8* bitcast (void (%"class.xercesc_2_7::NoSuchElementException"*)* @_ZN11xercesc_2_722NoSuchElementExceptionD2Ev to i8*), i8* bitcast (void (%"class.xercesc_2_7::NoSuchElementException"*)* @_ZN11xercesc_2_722NoSuchElementExceptionD0Ev to i8*), i8* bitcast (i16* (%"class.xercesc_2_7::NoSuchElementException"*)* @_ZNK11xercesc_2_722NoSuchElementException7getTypeEv to i8*), i8* bitcast (%"class.xercesc_2_7::XMLException"* (%"class.xercesc_2_7::NoSuchElementException"*)* @_ZNK11xercesc_2_722NoSuchElementException9duplicateEv to i8*)] }, comdat, align 8
@_ZN11xercesc_2_76XMLUni29fgNoSuchElementException_NameE = external dso_local constant [0 x i16], align 2
@_ZTVN11xercesc_2_729RefHash2KeysTableOfEnumeratorINS_10KeyRefPairIvNS_18DOMUserDataHandlerEEEEE = linkonce_odr dso_local unnamed_addr constant { [7 x i8*] } { [7 x i8*] [i8* null, i8* bitcast ({ i8*, i8*, i32, i32, i8*, i64, i8*, i64 }* @_ZTIN11xercesc_2_729RefHash2KeysTableOfEnumeratorINS_10KeyRefPairIvNS_18DOMUserDataHandlerEEEEE to i8*), i8* bitcast (void (%"class.xercesc_2_7::RefHash2KeysTableOfEnumerator"*)* @_ZN11xercesc_2_729RefHash2KeysTableOfEnumeratorINS_10KeyRefPairIvNS_18DOMUserDataHandlerEEEED2Ev to i8*), i8* bitcast (void (%"class.xercesc_2_7::RefHash2KeysTableOfEnumerator"*)* @_ZN11xercesc_2_729RefHash2KeysTableOfEnumeratorINS_10KeyRefPairIvNS_18DOMUserDataHandlerEEEED0Ev to i8*), i8* bitcast (i1 (%"class.xercesc_2_7::RefHash2KeysTableOfEnumerator"*)* @_ZNK11xercesc_2_729RefHash2KeysTableOfEnumeratorINS_10KeyRefPairIvNS_18DOMUserDataHandlerEEEE15hasMoreElementsEv to i8*), i8* bitcast (%"class.xercesc_2_7::KeyRefPair"* (%"class.xercesc_2_7::RefHash2KeysTableOfEnumerator"*)* @_ZN11xercesc_2_729RefHash2KeysTableOfEnumeratorINS_10KeyRefPairIvNS_18DOMUserDataHandlerEEEE11nextElementEv to i8*), i8* bitcast (void (%"class.xercesc_2_7::RefHash2KeysTableOfEnumerator"*)* @_ZN11xercesc_2_729RefHash2KeysTableOfEnumeratorINS_10KeyRefPairIvNS_18DOMUserDataHandlerEEEE5ResetEv to i8*)] }, comdat, align 8
@_ZTSN11xercesc_2_720NullPointerExceptionE = linkonce_odr dso_local constant [38 x i8] c"N11xercesc_2_720NullPointerExceptionE\00", comdat, align 1
@_ZTIN11xercesc_2_720NullPointerExceptionE = linkonce_odr dso_local constant { i8*, i8*, i8* } { i8* bitcast (i8** getelementptr inbounds (i8*, i8** @_ZTVN10__cxxabiv120__si_class_type_infoE, i64 2) to i8*), i8* getelementptr inbounds ([38 x i8], [38 x i8]* @_ZTSN11xercesc_2_720NullPointerExceptionE, i32 0, i32 0), i8* bitcast (i8** @_ZTIN11xercesc_2_712XMLExceptionE to i8*) }, comdat, align 8
@_ZTSN11xercesc_2_729RefHash2KeysTableOfEnumeratorINS_10KeyRefPairIvNS_18DOMUserDataHandlerEEEEE = linkonce_odr dso_local constant [92 x i8] c"N11xercesc_2_729RefHash2KeysTableOfEnumeratorINS_10KeyRefPairIvNS_18DOMUserDataHandlerEEEEE\00", comdat, align 1
@_ZTSN11xercesc_2_713XMLEnumeratorINS_10KeyRefPairIvNS_18DOMUserDataHandlerEEEEE = linkonce_odr dso_local constant [76 x i8] c"N11xercesc_2_713XMLEnumeratorINS_10KeyRefPairIvNS_18DOMUserDataHandlerEEEEE\00", comdat, align 1
@_ZTIN11xercesc_2_713XMLEnumeratorINS_10KeyRefPairIvNS_18DOMUserDataHandlerEEEEE = linkonce_odr dso_local constant { i8*, i8* } { i8* bitcast (i8** getelementptr inbounds (i8*, i8** @_ZTVN10__cxxabiv117__class_type_infoE, i64 2) to i8*), i8* getelementptr inbounds ([76 x i8], [76 x i8]* @_ZTSN11xercesc_2_713XMLEnumeratorINS_10KeyRefPairIvNS_18DOMUserDataHandlerEEEEE, i32 0, i32 0) }, comdat, align 8
@_ZTIN11xercesc_2_729RefHash2KeysTableOfEnumeratorINS_10KeyRefPairIvNS_18DOMUserDataHandlerEEEEE = linkonce_odr dso_local constant { i8*, i8*, i32, i32, i8*, i64, i8*, i64 } { i8* bitcast (i8** getelementptr inbounds (i8*, i8** @_ZTVN10__cxxabiv121__vmi_class_type_infoE, i64 2) to i8*), i8* getelementptr inbounds ([92 x i8], [92 x i8]* @_ZTSN11xercesc_2_729RefHash2KeysTableOfEnumeratorINS_10KeyRefPairIvNS_18DOMUserDataHandlerEEEEE, i32 0, i32 0), i32 0, i32 2, i8* bitcast ({ i8*, i8* }* @_ZTIN11xercesc_2_713XMLEnumeratorINS_10KeyRefPairIvNS_18DOMUserDataHandlerEEEEE to i8*), i64 2, i8* bitcast ({ i8*, i8* }* @_ZTIN11xercesc_2_77XMemoryE to i8*), i64 2 }, comdat, align 8
@_ZTVN11xercesc_2_713XMLEnumeratorINS_10KeyRefPairIvNS_18DOMUserDataHandlerEEEEE = linkonce_odr dso_local unnamed_addr constant { [7 x i8*] } { [7 x i8*] [i8* null, i8* bitcast ({ i8*, i8* }* @_ZTIN11xercesc_2_713XMLEnumeratorINS_10KeyRefPairIvNS_18DOMUserDataHandlerEEEEE to i8*), i8* bitcast (void (%"class.xercesc_2_7::XMLEnumerator"*)* @_ZN11xercesc_2_713XMLEnumeratorINS_10KeyRefPairIvNS_18DOMUserDataHandlerEEEED2Ev to i8*), i8* bitcast (void (%"class.xercesc_2_7::XMLEnumerator"*)* @_ZN11xercesc_2_713XMLEnumeratorINS_10KeyRefPairIvNS_18DOMUserDataHandlerEEEED0Ev to i8*), i8* bitcast (void ()* @__cxa_pure_virtual to i8*), i8* bitcast (void ()* @__cxa_pure_virtual to i8*), i8* bitcast (void ()* @__cxa_pure_virtual to i8*)] }, comdat, align 8
@_ZTVN11xercesc_2_720NullPointerExceptionE = linkonce_odr dso_local unnamed_addr constant { [6 x i8*] } { [6 x i8*] [i8* null, i8* bitcast ({ i8*, i8*, i8* }* @_ZTIN11xercesc_2_720NullPointerExceptionE to i8*), i8* bitcast (void (%"class.xercesc_2_7::NullPointerException"*)* @_ZN11xercesc_2_720NullPointerExceptionD2Ev to i8*), i8* bitcast (void (%"class.xercesc_2_7::NullPointerException"*)* @_ZN11xercesc_2_720NullPointerExceptionD0Ev to i8*), i8* bitcast (i16* (%"class.xercesc_2_7::NullPointerException"*)* @_ZNK11xercesc_2_720NullPointerException7getTypeEv to i8*), i8* bitcast (%"class.xercesc_2_7::XMLException"* (%"class.xercesc_2_7::NullPointerException"*)* @_ZNK11xercesc_2_720NullPointerException9duplicateEv to i8*)] }, comdat, align 8
@_ZN11xercesc_2_76XMLUni27fgNullPointerException_NameE = external dso_local constant [0 x i16], align 2
@.str.4 = private unnamed_addr constant [28 x i8] c"./xercesc/util/RefArrayOf.c\00", align 1
@_ZTVN11xercesc_2_715BaseRefVectorOfINS_7DOMNodeEEE = linkonce_odr dso_local unnamed_addr constant { [9 x i8*] } { [9 x i8*] [i8* null, i8* bitcast ({ i8*, i8*, i8* }* @_ZTIN11xercesc_2_715BaseRefVectorOfINS_7DOMNodeEEE to i8*), i8* bitcast (void (%"class.xercesc_2_7::BaseRefVectorOf"*)* @_ZN11xercesc_2_715BaseRefVectorOfINS_7DOMNodeEED2Ev to i8*), i8* bitcast (void (%"class.xercesc_2_7::BaseRefVectorOf"*)* @_ZN11xercesc_2_715BaseRefVectorOfINS_7DOMNodeEED0Ev to i8*), i8* bitcast (void (%"class.xercesc_2_7::BaseRefVectorOf"*, %"class.xercesc_2_7::DOMNode"*, i32)* @_ZN11xercesc_2_715BaseRefVectorOfINS_7DOMNodeEE12setElementAtEPS1_j to i8*), i8* bitcast (void (%"class.xercesc_2_7::BaseRefVectorOf"*)* @_ZN11xercesc_2_715BaseRefVectorOfINS_7DOMNodeEE17removeAllElementsEv to i8*), i8* bitcast (void (%"class.xercesc_2_7::BaseRefVectorOf"*, i32)* @_ZN11xercesc_2_715BaseRefVectorOfINS_7DOMNodeEE15removeElementAtEj to i8*), i8* bitcast (void (%"class.xercesc_2_7::BaseRefVectorOf"*)* @_ZN11xercesc_2_715BaseRefVectorOfINS_7DOMNodeEE17removeLastElementEv to i8*), i8* bitcast (void (%"class.xercesc_2_7::BaseRefVectorOf"*)* @_ZN11xercesc_2_715BaseRefVectorOfINS_7DOMNodeEE7cleanupEv to i8*)] }, comdat, align 8
@_ZTVN11xercesc_2_715BaseRefVectorOfINS_9DOMBufferEEE = linkonce_odr dso_local unnamed_addr constant { [9 x i8*] } { [9 x i8*] [i8* null, i8* bitcast ({ i8*, i8*, i8* }* @_ZTIN11xercesc_2_715BaseRefVectorOfINS_9DOMBufferEEE to i8*), i8* bitcast (void (%"class.xercesc_2_7::BaseRefVectorOf.2"*)* @_ZN11xercesc_2_715BaseRefVectorOfINS_9DOMBufferEED2Ev to i8*), i8* bitcast (void (%"class.xercesc_2_7::BaseRefVectorOf.2"*)* @_ZN11xercesc_2_715BaseRefVectorOfINS_9DOMBufferEED0Ev to i8*), i8* bitcast (void (%"class.xercesc_2_7::BaseRefVectorOf.2"*, %"class.xercesc_2_7::DOMBuffer"*, i32)* @_ZN11xercesc_2_715BaseRefVectorOfINS_9DOMBufferEE12setElementAtEPS1_j to i8*), i8* bitcast (void (%"class.xercesc_2_7::BaseRefVectorOf.2"*)* @_ZN11xercesc_2_715BaseRefVectorOfINS_9DOMBufferEE17removeAllElementsEv to i8*), i8* bitcast (void (%"class.xercesc_2_7::BaseRefVectorOf.2"*, i32)* @_ZN11xercesc_2_715BaseRefVectorOfINS_9DOMBufferEE15removeElementAtEj to i8*), i8* bitcast (void (%"class.xercesc_2_7::BaseRefVectorOf.2"*)* @_ZN11xercesc_2_715BaseRefVectorOfINS_9DOMBufferEE17removeLastElementEv to i8*), i8* bitcast (void (%"class.xercesc_2_7::BaseRefVectorOf.2"*)* @_ZN11xercesc_2_715BaseRefVectorOfINS_9DOMBufferEE7cleanupEv to i8*)] }, comdat, align 8
@.str.5 = private unnamed_addr constant [28 x i8] c"./xercesc/util/RefStackOf.c\00", align 1
@_ZTSN11xercesc_2_719EmptyStackExceptionE = linkonce_odr dso_local constant [37 x i8] c"N11xercesc_2_719EmptyStackExceptionE\00", comdat, align 1
@_ZTIN11xercesc_2_719EmptyStackExceptionE = linkonce_odr dso_local constant { i8*, i8*, i8* } { i8* bitcast (i8** getelementptr inbounds (i8*, i8** @_ZTVN10__cxxabiv120__si_class_type_infoE, i64 2) to i8*), i8* getelementptr inbounds ([37 x i8], [37 x i8]* @_ZTSN11xercesc_2_719EmptyStackExceptionE, i32 0, i32 0), i8* bitcast (i8** @_ZTIN11xercesc_2_712XMLExceptionE to i8*) }, comdat, align 8
@_ZTVN11xercesc_2_719EmptyStackExceptionE = linkonce_odr dso_local unnamed_addr constant { [6 x i8*] } { [6 x i8*] [i8* null, i8* bitcast ({ i8*, i8*, i8* }* @_ZTIN11xercesc_2_719EmptyStackExceptionE to i8*), i8* bitcast (void (%"class.xercesc_2_7::EmptyStackException"*)* @_ZN11xercesc_2_719EmptyStackExceptionD2Ev to i8*), i8* bitcast (void (%"class.xercesc_2_7::EmptyStackException"*)* @_ZN11xercesc_2_719EmptyStackExceptionD0Ev to i8*), i8* bitcast (i16* (%"class.xercesc_2_7::EmptyStackException"*)* @_ZNK11xercesc_2_719EmptyStackException7getTypeEv to i8*), i8* bitcast (%"class.xercesc_2_7::XMLException"* (%"class.xercesc_2_7::EmptyStackException"*)* @_ZNK11xercesc_2_719EmptyStackException9duplicateEv to i8*)] }, comdat, align 8
@_ZN11xercesc_2_76XMLUni26fgEmptyStackException_NameE = external dso_local constant [0 x i16], align 2

@_ZN11xercesc_2_715DOMDocumentImplC1EPNS_13MemoryManagerE = dso_local unnamed_addr alias void (%"class.xercesc_2_7::DOMDocumentImpl"*, %"class.xercesc_2_7::MemoryManager"*), void (%"class.xercesc_2_7::DOMDocumentImpl"*, %"class.xercesc_2_7::MemoryManager"*)* @_ZN11xercesc_2_715DOMDocumentImplC2EPNS_13MemoryManagerE
@_ZN11xercesc_2_715DOMDocumentImplC1EPKtS2_PNS_15DOMDocumentTypeEPNS_13MemoryManagerE = dso_local unnamed_addr alias void (%"class.xercesc_2_7::DOMDocumentImpl"*, i16*, i16*, %"class.xercesc_2_7::DOMDocumentType"*, %"class.xercesc_2_7::MemoryManager"*), void (%"class.xercesc_2_7::DOMDocumentImpl"*, i16*, i16*, %"class.xercesc_2_7::DOMDocumentType"*, %"class.xercesc_2_7::MemoryManager"*)* @_ZN11xercesc_2_715DOMDocumentImplC2EPKtS2_PNS_15DOMDocumentTypeEPNS_13MemoryManagerE
@_ZN11xercesc_2_715DOMDocumentImplD1Ev = dso_local unnamed_addr alias void (%"class.xercesc_2_7::DOMDocumentImpl"*), void (%"class.xercesc_2_7::DOMDocumentImpl"*)* @_ZN11xercesc_2_715DOMDocumentImplD2Ev

; Function Attrs: nounwind readnone speculatable willreturn
declare void @llvm.dbg.declare(metadata, metadata, metadata) #0

; Function Attrs: noinline nounwind uwtable
define linkonce_odr dso_local void @_ZN11xercesc_2_710XMLDeleterD0Ev(%"class.xercesc_2_7::XMLDeleter"* %this) unnamed_addr #1 comdat align 2 !dbg !3100 {
entry:
  %this.addr = alloca %"class.xercesc_2_7::XMLDeleter"*, align 8
  store %"class.xercesc_2_7::XMLDeleter"* %this, %"class.xercesc_2_7::XMLDeleter"** %this.addr, align 8
  call void @llvm.dbg.declare(metadata %"class.xercesc_2_7::XMLDeleter"** %this.addr, metadata !3119, metadata !DIExpression()), !dbg !3121
  %this1 = load %"class.xercesc_2_7::XMLDeleter"*, %"class.xercesc_2_7::XMLDeleter"** %this.addr, align 8
  call void @_ZN11xercesc_2_710XMLDeleterD2Ev(%"class.xercesc_2_7::XMLDeleter"* %this1) #10, !dbg !3122
  %0 = bitcast %"class.xercesc_2_7::XMLDeleter"* %this1 to i8*, !dbg !3122
  call void @_ZdlPv(i8* %0) #11, !dbg !3122
  ret void, !dbg !3123
}

; Function Attrs: noinline nounwind uwtable
define linkonce_odr dso_local void @_ZN11xercesc_2_710XMLDeleterD2Ev(%"class.xercesc_2_7::XMLDeleter"* %this) unnamed_addr #1 comdat align 2 !dbg !3124 {
entry:
  %this.addr = alloca %"class.xercesc_2_7::XMLDeleter"*, align 8
  store %"class.xercesc_2_7::XMLDeleter"* %this, %"class.xercesc_2_7::XMLDeleter"** %this.addr, align 8
  call void @llvm.dbg.declare(metadata %"class.xercesc_2_7::XMLDeleter"** %this.addr, metadata !3125, metadata !DIExpression()), !dbg !3126
  %this1 = load %"class.xercesc_2_7::XMLDeleter"*, %"class.xercesc_2_7::XMLDeleter"** %this.addr, align 8
  ret void, !dbg !3127
}

; Function Attrs: nobuiltin nounwind
declare dso_local void @_ZdlPv(i8*) #2

; Function Attrs: noinline uwtable
define dso_local void @_ZN11xercesc_2_715DOMDocumentImplC2EPNS_13MemoryManagerE(%"class.xercesc_2_7::DOMDocumentImpl"* %this, %"class.xercesc_2_7::MemoryManager"* %manager) unnamed_addr #3 align 2 personality i8* bitcast (i32 (...)* @__gxx_personality_v0 to i8*) !dbg !3128 {
entry:
  %this.addr = alloca %"class.xercesc_2_7::DOMDocumentImpl"*, align 8
  %manager.addr = alloca %"class.xercesc_2_7::MemoryManager"*, align 8
  %exn.slot = alloca i8*
  %ehselector.slot = alloca i32
  store %"class.xercesc_2_7::DOMDocumentImpl"* %this, %"class.xercesc_2_7::DOMDocumentImpl"** %this.addr, align 8
  call void @llvm.dbg.declare(metadata %"class.xercesc_2_7::DOMDocumentImpl"** %this.addr, metadata !3129, metadata !DIExpression()), !dbg !3130
  store %"class.xercesc_2_7::MemoryManager"* %manager, %"class.xercesc_2_7::MemoryManager"** %manager.addr, align 8
  call void @llvm.dbg.declare(metadata %"class.xercesc_2_7::MemoryManager"** %manager.addr, metadata !3131, metadata !DIExpression()), !dbg !3132
  %this1 = load %"class.xercesc_2_7::DOMDocumentImpl"*, %"class.xercesc_2_7::DOMDocumentImpl"** %this.addr, align 8
  %0 = bitcast %"class.xercesc_2_7::DOMDocumentImpl"* %this1 to %"class.xercesc_2_7::XMemory"*, !dbg !3133
  call void @_ZN11xercesc_2_77XMemoryC2Ev(%"class.xercesc_2_7::XMemory"* %0), !dbg !3134
  %1 = bitcast %"class.xercesc_2_7::DOMDocumentImpl"* %this1 to %"class.xercesc_2_7::DOMDocument"*, !dbg !3133
  call void @_ZN11xercesc_2_711DOMDocumentC2Ev(%"class.xercesc_2_7::DOMDocument"* %1), !dbg !3134
  %2 = bitcast %"class.xercesc_2_7::DOMDocumentImpl"* %this1 to i32 (...)***, !dbg !3133
  store i32 (...)** bitcast (i8** getelementptr inbounds ({ [95 x i8*], [7 x i8*], [6 x i8*], [42 x i8*] }, { [95 x i8*], [7 x i8*], [6 x i8*], [42 x i8*] }* @_ZTVN11xercesc_2_715DOMDocumentImplE, i32 0, inrange i32 0, i32 2) to i32 (...)**), i32 (...)*** %2, align 8, !dbg !3133
  %3 = bitcast %"class.xercesc_2_7::DOMDocumentImpl"* %this1 to i8*, !dbg !3133
  %add.ptr = getelementptr inbounds i8, i8* %3, i64 8, !dbg !3133
  %4 = bitcast i8* %add.ptr to i32 (...)***, !dbg !3133
  store i32 (...)** bitcast (i8** getelementptr inbounds ({ [95 x i8*], [7 x i8*], [6 x i8*], [42 x i8*] }, { [95 x i8*], [7 x i8*], [6 x i8*], [42 x i8*] }* @_ZTVN11xercesc_2_715DOMDocumentImplE, i32 0, inrange i32 1, i32 2) to i32 (...)**), i32 (...)*** %4, align 8, !dbg !3133
  %5 = bitcast %"class.xercesc_2_7::DOMDocumentImpl"* %this1 to i8*, !dbg !3133
  %add.ptr2 = getelementptr inbounds i8, i8* %5, i64 16, !dbg !3133
  %6 = bitcast i8* %add.ptr2 to i32 (...)***, !dbg !3133
  store i32 (...)** bitcast (i8** getelementptr inbounds ({ [95 x i8*], [7 x i8*], [6 x i8*], [42 x i8*] }, { [95 x i8*], [7 x i8*], [6 x i8*], [42 x i8*] }* @_ZTVN11xercesc_2_715DOMDocumentImplE, i32 0, inrange i32 2, i32 2) to i32 (...)**), i32 (...)*** %6, align 8, !dbg !3133
  %7 = bitcast %"class.xercesc_2_7::DOMDocumentImpl"* %this1 to i8*, !dbg !3133
  %add.ptr3 = getelementptr inbounds i8, i8* %7, i64 24, !dbg !3133
  %8 = bitcast i8* %add.ptr3 to i32 (...)***, !dbg !3133
  store i32 (...)** bitcast (i8** getelementptr inbounds ({ [95 x i8*], [7 x i8*], [6 x i8*], [42 x i8*] }, { [95 x i8*], [7 x i8*], [6 x i8*], [42 x i8*] }* @_ZTVN11xercesc_2_715DOMDocumentImplE, i32 0, inrange i32 3, i32 2) to i32 (...)**), i32 (...)*** %8, align 8, !dbg !3133
  %fNode = getelementptr inbounds %"class.xercesc_2_7::DOMDocumentImpl", %"class.xercesc_2_7::DOMDocumentImpl"* %this1, i32 0, i32 1, !dbg !3135
  %9 = bitcast %"class.xercesc_2_7::DOMDocumentImpl"* %this1 to i8*, !dbg !3136
  %add.ptr4 = getelementptr inbounds i8, i8* %9, i64 24, !dbg !3136
  %10 = bitcast i8* %add.ptr4 to %"class.xercesc_2_7::DOMNode"*, !dbg !3136
  invoke void @_ZN11xercesc_2_711DOMNodeImplC1EPNS_7DOMNodeE(%"class.xercesc_2_7::DOMNodeImpl"* %fNode, %"class.xercesc_2_7::DOMNode"* %10)
          to label %invoke.cont unwind label %lpad, !dbg !3135

invoke.cont:                                      ; preds = %entry
  %fParent = getelementptr inbounds %"class.xercesc_2_7::DOMDocumentImpl", %"class.xercesc_2_7::DOMDocumentImpl"* %this1, i32 0, i32 2, !dbg !3137
  %11 = bitcast %"class.xercesc_2_7::DOMDocumentImpl"* %this1 to %"class.xercesc_2_7::DOMDocument"*, !dbg !3138
  invoke void @_ZN11xercesc_2_713DOMParentNodeC1EPNS_11DOMDocumentE(%"class.xercesc_2_7::DOMParentNode"* %fParent, %"class.xercesc_2_7::DOMDocument"* %11)
          to label %invoke.cont6 unwind label %lpad5, !dbg !3137

invoke.cont6:                                     ; preds = %invoke.cont
  %fNodeIDMap = getelementptr inbounds %"class.xercesc_2_7::DOMDocumentImpl", %"class.xercesc_2_7::DOMDocumentImpl"* %this1, i32 0, i32 3, !dbg !3139
  store %"class.xercesc_2_7::DOMNodeIDMap"* null, %"class.xercesc_2_7::DOMNodeIDMap"** %fNodeIDMap, align 8, !dbg !3139
  %fActualEncoding = getelementptr inbounds %"class.xercesc_2_7::DOMDocumentImpl", %"class.xercesc_2_7::DOMDocumentImpl"* %this1, i32 0, i32 4, !dbg !3140
  store i16* null, i16** %fActualEncoding, align 8, !dbg !3140
  %fEncoding = getelementptr inbounds %"class.xercesc_2_7::DOMDocumentImpl", %"class.xercesc_2_7::DOMDocumentImpl"* %this1, i32 0, i32 5, !dbg !3141
  store i16* null, i16** %fEncoding, align 8, !dbg !3141
  %fStandalone = getelementptr inbounds %"class.xercesc_2_7::DOMDocumentImpl", %"class.xercesc_2_7::DOMDocumentImpl"* %this1, i32 0, i32 6, !dbg !3142
  store i8 0, i8* %fStandalone, align 8, !dbg !3142
  %fVersion = getelementptr inbounds %"class.xercesc_2_7::DOMDocumentImpl", %"class.xercesc_2_7::DOMDocumentImpl"* %this1, i32 0, i32 8, !dbg !3143
  store i16* null, i16** %fVersion, align 8, !dbg !3143
  %fDocumentURI = getelementptr inbounds %"class.xercesc_2_7::DOMDocumentImpl", %"class.xercesc_2_7::DOMDocumentImpl"* %this1, i32 0, i32 9, !dbg !3144
  store i16* null, i16** %fDocumentURI, align 8, !dbg !3144
  %fDOMConfiguration = getelementptr inbounds %"class.xercesc_2_7::DOMDocumentImpl", %"class.xercesc_2_7::DOMDocumentImpl"* %this1, i32 0, i32 10, !dbg !3145
  store %"class.xercesc_2_7::DOMConfiguration"* null, %"class.xercesc_2_7::DOMConfiguration"** %fDOMConfiguration, align 8, !dbg !3145
  %fUserDataTableKeys = getelementptr inbounds %"class.xercesc_2_7::DOMDocumentImpl", %"class.xercesc_2_7::DOMDocumentImpl"* %this1, i32 0, i32 11, !dbg !3146
  %12 = load %"class.xercesc_2_7::MemoryManager"*, %"class.xercesc_2_7::MemoryManager"** %manager.addr, align 8, !dbg !3147
  invoke void @_ZN11xercesc_2_713XMLStringPoolC1EjPNS_13MemoryManagerE(%"class.xercesc_2_7::XMLStringPool"* %fUserDataTableKeys, i32 17, %"class.xercesc_2_7::MemoryManager"* %12)
          to label %invoke.cont8 unwind label %lpad7, !dbg !3146

invoke.cont8:                                     ; preds = %invoke.cont6
  %fUserDataTable = getelementptr inbounds %"class.xercesc_2_7::DOMDocumentImpl", %"class.xercesc_2_7::DOMDocumentImpl"* %this1, i32 0, i32 12, !dbg !3148
  store %"class.xercesc_2_7::RefHash2KeysTableOf"* null, %"class.xercesc_2_7::RefHash2KeysTableOf"** %fUserDataTable, align 8, !dbg !3148
  %fCurrentBlock = getelementptr inbounds %"class.xercesc_2_7::DOMDocumentImpl", %"class.xercesc_2_7::DOMDocumentImpl"* %this1, i32 0, i32 13, !dbg !3149
  store i8* null, i8** %fCurrentBlock, align 8, !dbg !3149
  %fFreePtr = getelementptr inbounds %"class.xercesc_2_7::DOMDocumentImpl", %"class.xercesc_2_7::DOMDocumentImpl"* %this1, i32 0, i32 14, !dbg !3150
  store i8* null, i8** %fFreePtr, align 8, !dbg !3150
  %fFreeBytesRemaining = getelementptr inbounds %"class.xercesc_2_7::DOMDocumentImpl", %"class.xercesc_2_7::DOMDocumentImpl"* %this1, i32 0, i32 15, !dbg !3151
  store i64 0, i64* %fFreeBytesRemaining, align 8, !dbg !3151
  %fRecycleNodePtr = getelementptr inbounds %"class.xercesc_2_7::DOMDocumentImpl", %"class.xercesc_2_7::DOMDocumentImpl"* %this1, i32 0, i32 16, !dbg !3152
  store %"class.xercesc_2_7::RefArrayOf"* null, %"class.xercesc_2_7::RefArrayOf"** %fRecycleNodePtr, align 8, !dbg !3152
  %fRecycleBufferPtr = getelementptr inbounds %"class.xercesc_2_7::DOMDocumentImpl", %"class.xercesc_2_7::DOMDocumentImpl"* %this1, i32 0, i32 17, !dbg !3153
  store %"class.xercesc_2_7::RefStackOf.0"* null, %"class.xercesc_2_7::RefStackOf.0"** %fRecycleBufferPtr, align 8, !dbg !3153
  %fNodeListPool = getelementptr inbounds %"class.xercesc_2_7::DOMDocumentImpl", %"class.xercesc_2_7::DOMDocumentImpl"* %this1, i32 0, i32 18, !dbg !3154
  store %"class.xercesc_2_7::DOMDeepNodeListPool"* null, %"class.xercesc_2_7::DOMDeepNodeListPool"** %fNodeListPool, align 8, !dbg !3154
  %fDocType = getelementptr inbounds %"class.xercesc_2_7::DOMDocumentImpl", %"class.xercesc_2_7::DOMDocumentImpl"* %this1, i32 0, i32 19, !dbg !3155
  store %"class.xercesc_2_7::DOMDocumentType"* null, %"class.xercesc_2_7::DOMDocumentType"** %fDocType, align 8, !dbg !3155
  %fDocElement = getelementptr inbounds %"class.xercesc_2_7::DOMDocumentImpl", %"class.xercesc_2_7::DOMDocumentImpl"* %this1, i32 0, i32 20, !dbg !3156
  store %"class.xercesc_2_7::DOMElement"* null, %"class.xercesc_2_7::DOMElement"** %fDocElement, align 8, !dbg !3156
  %fNamePool = getelementptr inbounds %"class.xercesc_2_7::DOMDocumentImpl", %"class.xercesc_2_7::DOMDocumentImpl"* %this1, i32 0, i32 21, !dbg !3157
  store %"class.xercesc_2_7::DOMStringPool"* null, %"class.xercesc_2_7::DOMStringPool"** %fNamePool, align 8, !dbg !3157
  %fNormalizer = getelementptr inbounds %"class.xercesc_2_7::DOMDocumentImpl", %"class.xercesc_2_7::DOMDocumentImpl"* %this1, i32 0, i32 22, !dbg !3158
  store %"class.xercesc_2_7::DOMNormalizer"* null, %"class.xercesc_2_7::DOMNormalizer"** %fNormalizer, align 8, !dbg !3158
  %fRanges = getelementptr inbounds %"class.xercesc_2_7::DOMDocumentImpl", %"class.xercesc_2_7::DOMDocumentImpl"* %this1, i32 0, i32 23, !dbg !3159
  store %"class.xercesc_2_7::RefVectorOf.5"* null, %"class.xercesc_2_7::RefVectorOf.5"** %fRanges, align 8, !dbg !3159
  %fNodeIterators = getelementptr inbounds %"class.xercesc_2_7::DOMDocumentImpl", %"class.xercesc_2_7::DOMDocumentImpl"* %this1, i32 0, i32 24, !dbg !3160
  store %"class.xercesc_2_7::RefVectorOf.7"* null, %"class.xercesc_2_7::RefVectorOf.7"** %fNodeIterators, align 8, !dbg !3160
  %fMemoryManager = getelementptr inbounds %"class.xercesc_2_7::DOMDocumentImpl", %"class.xercesc_2_7::DOMDocumentImpl"* %this1, i32 0, i32 25, !dbg !3161
  %13 = load %"class.xercesc_2_7::MemoryManager"*, %"class.xercesc_2_7::MemoryManager"** %manager.addr, align 8, !dbg !3162
  store %"class.xercesc_2_7::MemoryManager"* %13, %"class.xercesc_2_7::MemoryManager"** %fMemoryManager, align 8, !dbg !3161
  %fChanges = getelementptr inbounds %"class.xercesc_2_7::DOMDocumentImpl", %"class.xercesc_2_7::DOMDocumentImpl"* %this1, i32 0, i32 26, !dbg !3163
  store i32 0, i32* %fChanges, align 8, !dbg !3163
  %errorChecking = getelementptr inbounds %"class.xercesc_2_7::DOMDocumentImpl", %"class.xercesc_2_7::DOMDocumentImpl"* %this1, i32 0, i32 27, !dbg !3164
  store i8 1, i8* %errorChecking, align 4, !dbg !3164
  %14 = bitcast %"class.xercesc_2_7::DOMDocumentImpl"* %this1 to %"class.xercesc_2_7::DOMDocument"*, !dbg !3165
  %call = invoke i8* @_ZnwmPN11xercesc_2_711DOMDocumentE(i64 24, %"class.xercesc_2_7::DOMDocument"* %14)
          to label %invoke.cont10 unwind label %lpad9, !dbg !3167

invoke.cont10:                                    ; preds = %invoke.cont8
  %15 = bitcast i8* %call to %"class.xercesc_2_7::DOMStringPool"*, !dbg !3167
  invoke void @_ZN11xercesc_2_713DOMStringPoolC1EiPNS_15DOMDocumentImplE(%"class.xercesc_2_7::DOMStringPool"* %15, i32 257, %"class.xercesc_2_7::DOMDocumentImpl"* %this1)
          to label %invoke.cont11 unwind label %lpad9, !dbg !3168

invoke.cont11:                                    ; preds = %invoke.cont10
  %fNamePool12 = getelementptr inbounds %"class.xercesc_2_7::DOMDocumentImpl", %"class.xercesc_2_7::DOMDocumentImpl"* %this1, i32 0, i32 21, !dbg !3169
  store %"class.xercesc_2_7::DOMStringPool"* %15, %"class.xercesc_2_7::DOMStringPool"** %fNamePool12, align 8, !dbg !3170
  ret void, !dbg !3171

lpad:                                             ; preds = %entry
  %16 = landingpad { i8*, i32 }
          cleanup, !dbg !3171
  %17 = extractvalue { i8*, i32 } %16, 0, !dbg !3171
  store i8* %17, i8** %exn.slot, align 8, !dbg !3171
  %18 = extractvalue { i8*, i32 } %16, 1, !dbg !3171
  store i32 %18, i32* %ehselector.slot, align 4, !dbg !3171
  br label %ehcleanup14, !dbg !3171

lpad5:                                            ; preds = %invoke.cont
  %19 = landingpad { i8*, i32 }
          cleanup, !dbg !3171
  %20 = extractvalue { i8*, i32 } %19, 0, !dbg !3171
  store i8* %20, i8** %exn.slot, align 8, !dbg !3171
  %21 = extractvalue { i8*, i32 } %19, 1, !dbg !3171
  store i32 %21, i32* %ehselector.slot, align 4, !dbg !3171
  br label %ehcleanup13, !dbg !3171

lpad7:                                            ; preds = %invoke.cont6
  %22 = landingpad { i8*, i32 }
          cleanup, !dbg !3171
  %23 = extractvalue { i8*, i32 } %22, 0, !dbg !3171
  store i8* %23, i8** %exn.slot, align 8, !dbg !3171
  %24 = extractvalue { i8*, i32 } %22, 1, !dbg !3171
  store i32 %24, i32* %ehselector.slot, align 4, !dbg !3171
  br label %ehcleanup, !dbg !3171

lpad9:                                            ; preds = %invoke.cont10, %invoke.cont8
  %25 = landingpad { i8*, i32 }
          cleanup, !dbg !3172
  %26 = extractvalue { i8*, i32 } %25, 0, !dbg !3172
  store i8* %26, i8** %exn.slot, align 8, !dbg !3172
  %27 = extractvalue { i8*, i32 } %25, 1, !dbg !3172
  store i32 %27, i32* %ehselector.slot, align 4, !dbg !3172
  call void @_ZN11xercesc_2_713XMLStringPoolD1Ev(%"class.xercesc_2_7::XMLStringPool"* %fUserDataTableKeys) #10, !dbg !3172
  br label %ehcleanup, !dbg !3172

ehcleanup:                                        ; preds = %lpad9, %lpad7
  call void @_ZN11xercesc_2_713DOMParentNodeD2Ev(%"class.xercesc_2_7::DOMParentNode"* %fParent) #10, !dbg !3172
  br label %ehcleanup13, !dbg !3172

ehcleanup13:                                      ; preds = %ehcleanup, %lpad5
  call void @_ZN11xercesc_2_711DOMNodeImplD1Ev(%"class.xercesc_2_7::DOMNodeImpl"* %fNode) #10, !dbg !3172
  br label %ehcleanup14, !dbg !3172

ehcleanup14:                                      ; preds = %ehcleanup13, %lpad
  %28 = bitcast %"class.xercesc_2_7::DOMDocumentImpl"* %this1 to %"class.xercesc_2_7::DOMDocument"*, !dbg !3172
  call void @_ZN11xercesc_2_711DOMDocumentD2Ev(%"class.xercesc_2_7::DOMDocument"* %28) #10, !dbg !3172
  br label %eh.resume, !dbg !3172

eh.resume:                                        ; preds = %ehcleanup14
  %exn = load i8*, i8** %exn.slot, align 8, !dbg !3172
  %sel = load i32, i32* %ehselector.slot, align 4, !dbg !3172
  %lpad.val = insertvalue { i8*, i32 } undef, i8* %exn, 0, !dbg !3172
  %lpad.val15 = insertvalue { i8*, i32 } %lpad.val, i32 %sel, 1, !dbg !3172
  resume { i8*, i32 } %lpad.val15, !dbg !3172
}

; Function Attrs: noinline nounwind uwtable
define linkonce_odr dso_local void @_ZN11xercesc_2_77XMemoryC2Ev(%"class.xercesc_2_7::XMemory"* %this) unnamed_addr #1 comdat align 2 !dbg !3173 {
entry:
  %this.addr = alloca %"class.xercesc_2_7::XMemory"*, align 8
  store %"class.xercesc_2_7::XMemory"* %this, %"class.xercesc_2_7::XMemory"** %this.addr, align 8
  call void @llvm.dbg.declare(metadata %"class.xercesc_2_7::XMemory"** %this.addr, metadata !3174, metadata !DIExpression()), !dbg !3176
  %this1 = load %"class.xercesc_2_7::XMemory"*, %"class.xercesc_2_7::XMemory"** %this.addr, align 8
  ret void, !dbg !3177
}

; Function Attrs: noinline uwtable
define linkonce_odr dso_local void @_ZN11xercesc_2_711DOMDocumentC2Ev(%"class.xercesc_2_7::DOMDocument"* %this) unnamed_addr #3 comdat align 2 personality i8* bitcast (i32 (...)* @__gxx_personality_v0 to i8*) !dbg !3178 {
entry:
  %this.addr = alloca %"class.xercesc_2_7::DOMDocument"*, align 8
  %exn.slot = alloca i8*
  %ehselector.slot = alloca i32
  store %"class.xercesc_2_7::DOMDocument"* %this, %"class.xercesc_2_7::DOMDocument"** %this.addr, align 8
  call void @llvm.dbg.declare(metadata %"class.xercesc_2_7::DOMDocument"** %this.addr, metadata !3179, metadata !DIExpression()), !dbg !3180
  %this1 = load %"class.xercesc_2_7::DOMDocument"*, %"class.xercesc_2_7::DOMDocument"** %this.addr, align 8
  %0 = bitcast %"class.xercesc_2_7::DOMDocument"* %this1 to %"class.xercesc_2_7::DOMDocumentRange"*, !dbg !3181
  call void @_ZN11xercesc_2_716DOMDocumentRangeC2Ev(%"class.xercesc_2_7::DOMDocumentRange"* %0), !dbg !3182
  %1 = bitcast %"class.xercesc_2_7::DOMDocument"* %this1 to i8*, !dbg !3181
  %2 = getelementptr inbounds i8, i8* %1, i64 8, !dbg !3181
  %3 = bitcast i8* %2 to %"class.xercesc_2_7::DOMXPathEvaluator"*, !dbg !3181
  invoke void @_ZN11xercesc_2_717DOMXPathEvaluatorC2Ev(%"class.xercesc_2_7::DOMXPathEvaluator"* %3)
          to label %invoke.cont unwind label %lpad, !dbg !3182

invoke.cont:                                      ; preds = %entry
  %4 = bitcast %"class.xercesc_2_7::DOMDocument"* %this1 to i8*, !dbg !3181
  %5 = getelementptr inbounds i8, i8* %4, i64 16, !dbg !3181
  %6 = bitcast i8* %5 to %"class.xercesc_2_7::DOMDocumentTraversal"*, !dbg !3181
  invoke void @_ZN11xercesc_2_720DOMDocumentTraversalC2Ev(%"class.xercesc_2_7::DOMDocumentTraversal"* %6)
          to label %invoke.cont3 unwind label %lpad2, !dbg !3182

invoke.cont3:                                     ; preds = %invoke.cont
  %7 = bitcast %"class.xercesc_2_7::DOMDocument"* %this1 to i8*, !dbg !3181
  %8 = getelementptr inbounds i8, i8* %7, i64 24, !dbg !3181
  %9 = bitcast i8* %8 to %"class.xercesc_2_7::DOMNode"*, !dbg !3181
  invoke void @_ZN11xercesc_2_77DOMNodeC2Ev(%"class.xercesc_2_7::DOMNode"* %9)
          to label %invoke.cont5 unwind label %lpad4, !dbg !3182

invoke.cont5:                                     ; preds = %invoke.cont3
  %10 = bitcast %"class.xercesc_2_7::DOMDocument"* %this1 to i32 (...)***, !dbg !3181
  store i32 (...)** bitcast (i8** getelementptr inbounds ({ [43 x i8*], [7 x i8*], [6 x i8*], [42 x i8*] }, { [43 x i8*], [7 x i8*], [6 x i8*], [42 x i8*] }* @_ZTVN11xercesc_2_711DOMDocumentE, i32 0, inrange i32 0, i32 2) to i32 (...)**), i32 (...)*** %10, align 8, !dbg !3181
  %11 = bitcast %"class.xercesc_2_7::DOMDocument"* %this1 to i8*, !dbg !3181
  %add.ptr = getelementptr inbounds i8, i8* %11, i64 8, !dbg !3181
  %12 = bitcast i8* %add.ptr to i32 (...)***, !dbg !3181
  store i32 (...)** bitcast (i8** getelementptr inbounds ({ [43 x i8*], [7 x i8*], [6 x i8*], [42 x i8*] }, { [43 x i8*], [7 x i8*], [6 x i8*], [42 x i8*] }* @_ZTVN11xercesc_2_711DOMDocumentE, i32 0, inrange i32 1, i32 2) to i32 (...)**), i32 (...)*** %12, align 8, !dbg !3181
  %13 = bitcast %"class.xercesc_2_7::DOMDocument"* %this1 to i8*, !dbg !3181
  %add.ptr6 = getelementptr inbounds i8, i8* %13, i64 16, !dbg !3181
  %14 = bitcast i8* %add.ptr6 to i32 (...)***, !dbg !3181
  store i32 (...)** bitcast (i8** getelementptr inbounds ({ [43 x i8*], [7 x i8*], [6 x i8*], [42 x i8*] }, { [43 x i8*], [7 x i8*], [6 x i8*], [42 x i8*] }* @_ZTVN11xercesc_2_711DOMDocumentE, i32 0, inrange i32 2, i32 2) to i32 (...)**), i32 (...)*** %14, align 8, !dbg !3181
  %15 = bitcast %"class.xercesc_2_7::DOMDocument"* %this1 to i8*, !dbg !3181
  %add.ptr7 = getelementptr inbounds i8, i8* %15, i64 24, !dbg !3181
  %16 = bitcast i8* %add.ptr7 to i32 (...)***, !dbg !3181
  store i32 (...)** bitcast (i8** getelementptr inbounds ({ [43 x i8*], [7 x i8*], [6 x i8*], [42 x i8*] }, { [43 x i8*], [7 x i8*], [6 x i8*], [42 x i8*] }* @_ZTVN11xercesc_2_711DOMDocumentE, i32 0, inrange i32 3, i32 2) to i32 (...)**), i32 (...)*** %16, align 8, !dbg !3181
  ret void, !dbg !3183

lpad:                                             ; preds = %entry
  %17 = landingpad { i8*, i32 }
          cleanup, !dbg !3183
  %18 = extractvalue { i8*, i32 } %17, 0, !dbg !3183
  store i8* %18, i8** %exn.slot, align 8, !dbg !3183
  %19 = extractvalue { i8*, i32 } %17, 1, !dbg !3183
  store i32 %19, i32* %ehselector.slot, align 4, !dbg !3183
  br label %ehcleanup8, !dbg !3183

lpad2:                                            ; preds = %invoke.cont
  %20 = landingpad { i8*, i32 }
          cleanup, !dbg !3183
  %21 = extractvalue { i8*, i32 } %20, 0, !dbg !3183
  store i8* %21, i8** %exn.slot, align 8, !dbg !3183
  %22 = extractvalue { i8*, i32 } %20, 1, !dbg !3183
  store i32 %22, i32* %ehselector.slot, align 4, !dbg !3183
  br label %ehcleanup, !dbg !3183

lpad4:                                            ; preds = %invoke.cont3
  %23 = landingpad { i8*, i32 }
          cleanup, !dbg !3183
  %24 = extractvalue { i8*, i32 } %23, 0, !dbg !3183
  store i8* %24, i8** %exn.slot, align 8, !dbg !3183
  %25 = extractvalue { i8*, i32 } %23, 1, !dbg !3183
  store i32 %25, i32* %ehselector.slot, align 4, !dbg !3183
  %26 = bitcast %"class.xercesc_2_7::DOMDocument"* %this1 to i8*, !dbg !3184
  %27 = getelementptr inbounds i8, i8* %26, i64 16, !dbg !3184
  %28 = bitcast i8* %27 to %"class.xercesc_2_7::DOMDocumentTraversal"*, !dbg !3184
  call void @_ZN11xercesc_2_720DOMDocumentTraversalD2Ev(%"class.xercesc_2_7::DOMDocumentTraversal"* %28) #10, !dbg !3184
  br label %ehcleanup, !dbg !3184

ehcleanup:                                        ; preds = %lpad4, %lpad2
  %29 = bitcast %"class.xercesc_2_7::DOMDocument"* %this1 to i8*, !dbg !3184
  %30 = getelementptr inbounds i8, i8* %29, i64 8, !dbg !3184
  %31 = bitcast i8* %30 to %"class.xercesc_2_7::DOMXPathEvaluator"*, !dbg !3184
  call void @_ZN11xercesc_2_717DOMXPathEvaluatorD2Ev(%"class.xercesc_2_7::DOMXPathEvaluator"* %31) #10, !dbg !3184
  br label %ehcleanup8, !dbg !3184

ehcleanup8:                                       ; preds = %ehcleanup, %lpad
  %32 = bitcast %"class.xercesc_2_7::DOMDocument"* %this1 to %"class.xercesc_2_7::DOMDocumentRange"*, !dbg !3184
  call void @_ZN11xercesc_2_716DOMDocumentRangeD2Ev(%"class.xercesc_2_7::DOMDocumentRange"* %32) #10, !dbg !3184
  br label %eh.resume, !dbg !3184

eh.resume:                                        ; preds = %ehcleanup8
  %exn = load i8*, i8** %exn.slot, align 8, !dbg !3184
  %sel = load i32, i32* %ehselector.slot, align 4, !dbg !3184
  %lpad.val = insertvalue { i8*, i32 } undef, i8* %exn, 0, !dbg !3184
  %lpad.val9 = insertvalue { i8*, i32 } %lpad.val, i32 %sel, 1, !dbg !3184
  resume { i8*, i32 } %lpad.val9, !dbg !3184
}

declare dso_local void @_ZN11xercesc_2_711DOMNodeImplC1EPNS_7DOMNodeE(%"class.xercesc_2_7::DOMNodeImpl"*, %"class.xercesc_2_7::DOMNode"*) unnamed_addr #4

declare dso_local i32 @__gxx_personality_v0(...)

declare dso_local void @_ZN11xercesc_2_713DOMParentNodeC1EPNS_11DOMDocumentE(%"class.xercesc_2_7::DOMParentNode"*, %"class.xercesc_2_7::DOMDocument"*) unnamed_addr #4

declare dso_local void @_ZN11xercesc_2_713XMLStringPoolC1EjPNS_13MemoryManagerE(%"class.xercesc_2_7::XMLStringPool"*, i32, %"class.xercesc_2_7::MemoryManager"*) unnamed_addr #4

; Function Attrs: noinline uwtable
define linkonce_odr dso_local i8* @_ZnwmPN11xercesc_2_711DOMDocumentE(i64 %amt, %"class.xercesc_2_7::DOMDocument"* %doc) #3 comdat !dbg !3186 {
entry:
  %amt.addr = alloca i64, align 8
  %doc.addr = alloca %"class.xercesc_2_7::DOMDocument"*, align 8
  %p = alloca i8*, align 8
  store i64 %amt, i64* %amt.addr, align 8
  call void @llvm.dbg.declare(metadata i64* %amt.addr, metadata !3189, metadata !DIExpression()), !dbg !3190
  store %"class.xercesc_2_7::DOMDocument"* %doc, %"class.xercesc_2_7::DOMDocument"** %doc.addr, align 8
  call void @llvm.dbg.declare(metadata %"class.xercesc_2_7::DOMDocument"** %doc.addr, metadata !3191, metadata !DIExpression()), !dbg !3192
  call void @llvm.dbg.declare(metadata i8** %p, metadata !3193, metadata !DIExpression()), !dbg !3194
  %0 = load %"class.xercesc_2_7::DOMDocument"*, %"class.xercesc_2_7::DOMDocument"** %doc.addr, align 8, !dbg !3195
  %1 = bitcast %"class.xercesc_2_7::DOMDocument"* %0 to %"class.xercesc_2_7::DOMDocumentImpl"*, !dbg !3196
  %2 = load i64, i64* %amt.addr, align 8, !dbg !3197
  %call = call i8* @_ZN11xercesc_2_715DOMDocumentImpl8allocateEm(%"class.xercesc_2_7::DOMDocumentImpl"* %1, i64 %2), !dbg !3198
  store i8* %call, i8** %p, align 8, !dbg !3194
  %3 = load i8*, i8** %p, align 8, !dbg !3199
  ret i8* %3, !dbg !3200
}

declare dso_local void @_ZN11xercesc_2_713DOMStringPoolC1EiPNS_15DOMDocumentImplE(%"class.xercesc_2_7::DOMStringPool"*, i32, %"class.xercesc_2_7::DOMDocumentImpl"*) unnamed_addr #4

; Function Attrs: nounwind
declare dso_local void @_ZN11xercesc_2_713XMLStringPoolD1Ev(%"class.xercesc_2_7::XMLStringPool"*) unnamed_addr #5

; Function Attrs: noinline nounwind uwtable
define linkonce_odr dso_local void @_ZN11xercesc_2_713DOMParentNodeD2Ev(%"class.xercesc_2_7::DOMParentNode"* %this) unnamed_addr #1 comdat align 2 !dbg !3201 {
entry:
  %this.addr = alloca %"class.xercesc_2_7::DOMParentNode"*, align 8
  store %"class.xercesc_2_7::DOMParentNode"* %this, %"class.xercesc_2_7::DOMParentNode"** %this.addr, align 8
  call void @llvm.dbg.declare(metadata %"class.xercesc_2_7::DOMParentNode"** %this.addr, metadata !3203, metadata !DIExpression()), !dbg !3205
  %this1 = load %"class.xercesc_2_7::DOMParentNode"*, %"class.xercesc_2_7::DOMParentNode"** %this.addr, align 8
  %fChildNodeList = getelementptr inbounds %"class.xercesc_2_7::DOMParentNode", %"class.xercesc_2_7::DOMParentNode"* %this1, i32 0, i32 2, !dbg !3206
  call void @_ZN11xercesc_2_715DOMNodeListImplD1Ev(%"class.xercesc_2_7::DOMNodeListImpl"* %fChildNodeList) #10, !dbg !3206
  ret void, !dbg !3208
}

; Function Attrs: nounwind
declare dso_local void @_ZN11xercesc_2_711DOMNodeImplD1Ev(%"class.xercesc_2_7::DOMNodeImpl"*) unnamed_addr #5

; Function Attrs: noinline uwtable
define dso_local void @_ZN11xercesc_2_715DOMDocumentImplC2EPKtS2_PNS_15DOMDocumentTypeEPNS_13MemoryManagerE(%"class.xercesc_2_7::DOMDocumentImpl"* %this, i16* %fNamespaceURI, i16* %qualifiedName, %"class.xercesc_2_7::DOMDocumentType"* %doctype, %"class.xercesc_2_7::MemoryManager"* %manager) unnamed_addr #3 align 2 personality i8* bitcast (i32 (...)* @__gxx_personality_v0 to i8*) !dbg !3209 {
entry:
  %this.addr = alloca %"class.xercesc_2_7::DOMDocumentImpl"*, align 8
  %fNamespaceURI.addr = alloca i16*, align 8
  %qualifiedName.addr = alloca i16*, align 8
  %doctype.addr = alloca %"class.xercesc_2_7::DOMDocumentType"*, align 8
  %manager.addr = alloca %"class.xercesc_2_7::MemoryManager"*, align 8
  %exn.slot = alloca i8*
  %ehselector.slot = alloca i32
  %0 = alloca %"class.xercesc_2_7::OutOfMemoryException"*, align 8
  store %"class.xercesc_2_7::DOMDocumentImpl"* %this, %"class.xercesc_2_7::DOMDocumentImpl"** %this.addr, align 8
  call void @llvm.dbg.declare(metadata %"class.xercesc_2_7::DOMDocumentImpl"** %this.addr, metadata !3210, metadata !DIExpression()), !dbg !3211
  store i16* %fNamespaceURI, i16** %fNamespaceURI.addr, align 8
  call void @llvm.dbg.declare(metadata i16** %fNamespaceURI.addr, metadata !3212, metadata !DIExpression()), !dbg !3213
  store i16* %qualifiedName, i16** %qualifiedName.addr, align 8
  call void @llvm.dbg.declare(metadata i16** %qualifiedName.addr, metadata !3214, metadata !DIExpression()), !dbg !3215
  store %"class.xercesc_2_7::DOMDocumentType"* %doctype, %"class.xercesc_2_7::DOMDocumentType"** %doctype.addr, align 8
  call void @llvm.dbg.declare(metadata %"class.xercesc_2_7::DOMDocumentType"** %doctype.addr, metadata !3216, metadata !DIExpression()), !dbg !3217
  store %"class.xercesc_2_7::MemoryManager"* %manager, %"class.xercesc_2_7::MemoryManager"** %manager.addr, align 8
  call void @llvm.dbg.declare(metadata %"class.xercesc_2_7::MemoryManager"** %manager.addr, metadata !3218, metadata !DIExpression()), !dbg !3219
  %this1 = load %"class.xercesc_2_7::DOMDocumentImpl"*, %"class.xercesc_2_7::DOMDocumentImpl"** %this.addr, align 8
  %1 = bitcast %"class.xercesc_2_7::DOMDocumentImpl"* %this1 to %"class.xercesc_2_7::XMemory"*, !dbg !3220
  call void @_ZN11xercesc_2_77XMemoryC2Ev(%"class.xercesc_2_7::XMemory"* %1), !dbg !3221
  %2 = bitcast %"class.xercesc_2_7::DOMDocumentImpl"* %this1 to %"class.xercesc_2_7::DOMDocument"*, !dbg !3220
  call void @_ZN11xercesc_2_711DOMDocumentC2Ev(%"class.xercesc_2_7::DOMDocument"* %2), !dbg !3221
  %3 = bitcast %"class.xercesc_2_7::DOMDocumentImpl"* %this1 to i32 (...)***, !dbg !3220
  store i32 (...)** bitcast (i8** getelementptr inbounds ({ [95 x i8*], [7 x i8*], [6 x i8*], [42 x i8*] }, { [95 x i8*], [7 x i8*], [6 x i8*], [42 x i8*] }* @_ZTVN11xercesc_2_715DOMDocumentImplE, i32 0, inrange i32 0, i32 2) to i32 (...)**), i32 (...)*** %3, align 8, !dbg !3220
  %4 = bitcast %"class.xercesc_2_7::DOMDocumentImpl"* %this1 to i8*, !dbg !3220
  %add.ptr = getelementptr inbounds i8, i8* %4, i64 8, !dbg !3220
  %5 = bitcast i8* %add.ptr to i32 (...)***, !dbg !3220
  store i32 (...)** bitcast (i8** getelementptr inbounds ({ [95 x i8*], [7 x i8*], [6 x i8*], [42 x i8*] }, { [95 x i8*], [7 x i8*], [6 x i8*], [42 x i8*] }* @_ZTVN11xercesc_2_715DOMDocumentImplE, i32 0, inrange i32 1, i32 2) to i32 (...)**), i32 (...)*** %5, align 8, !dbg !3220
  %6 = bitcast %"class.xercesc_2_7::DOMDocumentImpl"* %this1 to i8*, !dbg !3220
  %add.ptr2 = getelementptr inbounds i8, i8* %6, i64 16, !dbg !3220
  %7 = bitcast i8* %add.ptr2 to i32 (...)***, !dbg !3220
  store i32 (...)** bitcast (i8** getelementptr inbounds ({ [95 x i8*], [7 x i8*], [6 x i8*], [42 x i8*] }, { [95 x i8*], [7 x i8*], [6 x i8*], [42 x i8*] }* @_ZTVN11xercesc_2_715DOMDocumentImplE, i32 0, inrange i32 2, i32 2) to i32 (...)**), i32 (...)*** %7, align 8, !dbg !3220
  %8 = bitcast %"class.xercesc_2_7::DOMDocumentImpl"* %this1 to i8*, !dbg !3220
  %add.ptr3 = getelementptr inbounds i8, i8* %8, i64 24, !dbg !3220
  %9 = bitcast i8* %add.ptr3 to i32 (...)***, !dbg !3220
  store i32 (...)** bitcast (i8** getelementptr inbounds ({ [95 x i8*], [7 x i8*], [6 x i8*], [42 x i8*] }, { [95 x i8*], [7 x i8*], [6 x i8*], [42 x i8*] }* @_ZTVN11xercesc_2_715DOMDocumentImplE, i32 0, inrange i32 3, i32 2) to i32 (...)**), i32 (...)*** %9, align 8, !dbg !3220
  %fNode = getelementptr inbounds %"class.xercesc_2_7::DOMDocumentImpl", %"class.xercesc_2_7::DOMDocumentImpl"* %this1, i32 0, i32 1, !dbg !3222
  %10 = bitcast %"class.xercesc_2_7::DOMDocumentImpl"* %this1 to i8*, !dbg !3223
  %add.ptr4 = getelementptr inbounds i8, i8* %10, i64 24, !dbg !3223
  %11 = bitcast i8* %add.ptr4 to %"class.xercesc_2_7::DOMNode"*, !dbg !3223
  invoke void @_ZN11xercesc_2_711DOMNodeImplC1EPNS_7DOMNodeE(%"class.xercesc_2_7::DOMNodeImpl"* %fNode, %"class.xercesc_2_7::DOMNode"* %11)
          to label %invoke.cont unwind label %lpad, !dbg !3222

invoke.cont:                                      ; preds = %entry
  %fParent = getelementptr inbounds %"class.xercesc_2_7::DOMDocumentImpl", %"class.xercesc_2_7::DOMDocumentImpl"* %this1, i32 0, i32 2, !dbg !3224
  %12 = bitcast %"class.xercesc_2_7::DOMDocumentImpl"* %this1 to %"class.xercesc_2_7::DOMDocument"*, !dbg !3225
  invoke void @_ZN11xercesc_2_713DOMParentNodeC1EPNS_11DOMDocumentE(%"class.xercesc_2_7::DOMParentNode"* %fParent, %"class.xercesc_2_7::DOMDocument"* %12)
          to label %invoke.cont6 unwind label %lpad5, !dbg !3224

invoke.cont6:                                     ; preds = %invoke.cont
  %fNodeIDMap = getelementptr inbounds %"class.xercesc_2_7::DOMDocumentImpl", %"class.xercesc_2_7::DOMDocumentImpl"* %this1, i32 0, i32 3, !dbg !3226
  store %"class.xercesc_2_7::DOMNodeIDMap"* null, %"class.xercesc_2_7::DOMNodeIDMap"** %fNodeIDMap, align 8, !dbg !3226
  %fActualEncoding = getelementptr inbounds %"class.xercesc_2_7::DOMDocumentImpl", %"class.xercesc_2_7::DOMDocumentImpl"* %this1, i32 0, i32 4, !dbg !3227
  store i16* null, i16** %fActualEncoding, align 8, !dbg !3227
  %fEncoding = getelementptr inbounds %"class.xercesc_2_7::DOMDocumentImpl", %"class.xercesc_2_7::DOMDocumentImpl"* %this1, i32 0, i32 5, !dbg !3228
  store i16* null, i16** %fEncoding, align 8, !dbg !3228
  %fStandalone = getelementptr inbounds %"class.xercesc_2_7::DOMDocumentImpl", %"class.xercesc_2_7::DOMDocumentImpl"* %this1, i32 0, i32 6, !dbg !3229
  store i8 0, i8* %fStandalone, align 8, !dbg !3229
  %fVersion = getelementptr inbounds %"class.xercesc_2_7::DOMDocumentImpl", %"class.xercesc_2_7::DOMDocumentImpl"* %this1, i32 0, i32 8, !dbg !3230
  store i16* null, i16** %fVersion, align 8, !dbg !3230
  %fDocumentURI = getelementptr inbounds %"class.xercesc_2_7::DOMDocumentImpl", %"class.xercesc_2_7::DOMDocumentImpl"* %this1, i32 0, i32 9, !dbg !3231
  store i16* null, i16** %fDocumentURI, align 8, !dbg !3231
  %fDOMConfiguration = getelementptr inbounds %"class.xercesc_2_7::DOMDocumentImpl", %"class.xercesc_2_7::DOMDocumentImpl"* %this1, i32 0, i32 10, !dbg !3232
  store %"class.xercesc_2_7::DOMConfiguration"* null, %"class.xercesc_2_7::DOMConfiguration"** %fDOMConfiguration, align 8, !dbg !3232
  %fUserDataTableKeys = getelementptr inbounds %"class.xercesc_2_7::DOMDocumentImpl", %"class.xercesc_2_7::DOMDocumentImpl"* %this1, i32 0, i32 11, !dbg !3233
  %13 = load %"class.xercesc_2_7::MemoryManager"*, %"class.xercesc_2_7::MemoryManager"** %manager.addr, align 8, !dbg !3234
  invoke void @_ZN11xercesc_2_713XMLStringPoolC1EjPNS_13MemoryManagerE(%"class.xercesc_2_7::XMLStringPool"* %fUserDataTableKeys, i32 17, %"class.xercesc_2_7::MemoryManager"* %13)
          to label %invoke.cont8 unwind label %lpad7, !dbg !3233

invoke.cont8:                                     ; preds = %invoke.cont6
  %fUserDataTable = getelementptr inbounds %"class.xercesc_2_7::DOMDocumentImpl", %"class.xercesc_2_7::DOMDocumentImpl"* %this1, i32 0, i32 12, !dbg !3235
  store %"class.xercesc_2_7::RefHash2KeysTableOf"* null, %"class.xercesc_2_7::RefHash2KeysTableOf"** %fUserDataTable, align 8, !dbg !3235
  %fCurrentBlock = getelementptr inbounds %"class.xercesc_2_7::DOMDocumentImpl", %"class.xercesc_2_7::DOMDocumentImpl"* %this1, i32 0, i32 13, !dbg !3236
  store i8* null, i8** %fCurrentBlock, align 8, !dbg !3236
  %fFreePtr = getelementptr inbounds %"class.xercesc_2_7::DOMDocumentImpl", %"class.xercesc_2_7::DOMDocumentImpl"* %this1, i32 0, i32 14, !dbg !3237
  store i8* null, i8** %fFreePtr, align 8, !dbg !3237
  %fFreeBytesRemaining = getelementptr inbounds %"class.xercesc_2_7::DOMDocumentImpl", %"class.xercesc_2_7::DOMDocumentImpl"* %this1, i32 0, i32 15, !dbg !3238
  store i64 0, i64* %fFreeBytesRemaining, align 8, !dbg !3238
  %fRecycleNodePtr = getelementptr inbounds %"class.xercesc_2_7::DOMDocumentImpl", %"class.xercesc_2_7::DOMDocumentImpl"* %this1, i32 0, i32 16, !dbg !3239
  store %"class.xercesc_2_7::RefArrayOf"* null, %"class.xercesc_2_7::RefArrayOf"** %fRecycleNodePtr, align 8, !dbg !3239
  %fRecycleBufferPtr = getelementptr inbounds %"class.xercesc_2_7::DOMDocumentImpl", %"class.xercesc_2_7::DOMDocumentImpl"* %this1, i32 0, i32 17, !dbg !3240
  store %"class.xercesc_2_7::RefStackOf.0"* null, %"class.xercesc_2_7::RefStackOf.0"** %fRecycleBufferPtr, align 8, !dbg !3240
  %fNodeListPool = getelementptr inbounds %"class.xercesc_2_7::DOMDocumentImpl", %"class.xercesc_2_7::DOMDocumentImpl"* %this1, i32 0, i32 18, !dbg !3241
  store %"class.xercesc_2_7::DOMDeepNodeListPool"* null, %"class.xercesc_2_7::DOMDeepNodeListPool"** %fNodeListPool, align 8, !dbg !3241
  %fDocType = getelementptr inbounds %"class.xercesc_2_7::DOMDocumentImpl", %"class.xercesc_2_7::DOMDocumentImpl"* %this1, i32 0, i32 19, !dbg !3242
  store %"class.xercesc_2_7::DOMDocumentType"* null, %"class.xercesc_2_7::DOMDocumentType"** %fDocType, align 8, !dbg !3242
  %fDocElement = getelementptr inbounds %"class.xercesc_2_7::DOMDocumentImpl", %"class.xercesc_2_7::DOMDocumentImpl"* %this1, i32 0, i32 20, !dbg !3243
  store %"class.xercesc_2_7::DOMElement"* null, %"class.xercesc_2_7::DOMElement"** %fDocElement, align 8, !dbg !3243
  %fNamePool = getelementptr inbounds %"class.xercesc_2_7::DOMDocumentImpl", %"class.xercesc_2_7::DOMDocumentImpl"* %this1, i32 0, i32 21, !dbg !3244
  store %"class.xercesc_2_7::DOMStringPool"* null, %"class.xercesc_2_7::DOMStringPool"** %fNamePool, align 8, !dbg !3244
  %fNormalizer = getelementptr inbounds %"class.xercesc_2_7::DOMDocumentImpl", %"class.xercesc_2_7::DOMDocumentImpl"* %this1, i32 0, i32 22, !dbg !3245
  store %"class.xercesc_2_7::DOMNormalizer"* null, %"class.xercesc_2_7::DOMNormalizer"** %fNormalizer, align 8, !dbg !3245
  %fRanges = getelementptr inbounds %"class.xercesc_2_7::DOMDocumentImpl", %"class.xercesc_2_7::DOMDocumentImpl"* %this1, i32 0, i32 23, !dbg !3246
  store %"class.xercesc_2_7::RefVectorOf.5"* null, %"class.xercesc_2_7::RefVectorOf.5"** %fRanges, align 8, !dbg !3246
  %fNodeIterators = getelementptr inbounds %"class.xercesc_2_7::DOMDocumentImpl", %"class.xercesc_2_7::DOMDocumentImpl"* %this1, i32 0, i32 24, !dbg !3247
  store %"class.xercesc_2_7::RefVectorOf.7"* null, %"class.xercesc_2_7::RefVectorOf.7"** %fNodeIterators, align 8, !dbg !3247
  %fMemoryManager = getelementptr inbounds %"class.xercesc_2_7::DOMDocumentImpl", %"class.xercesc_2_7::DOMDocumentImpl"* %this1, i32 0, i32 25, !dbg !3248
  %14 = load %"class.xercesc_2_7::MemoryManager"*, %"class.xercesc_2_7::MemoryManager"** %manager.addr, align 8, !dbg !3249
  store %"class.xercesc_2_7::MemoryManager"* %14, %"class.xercesc_2_7::MemoryManager"** %fMemoryManager, align 8, !dbg !3248
  %fChanges = getelementptr inbounds %"class.xercesc_2_7::DOMDocumentImpl", %"class.xercesc_2_7::DOMDocumentImpl"* %this1, i32 0, i32 26, !dbg !3250
  store i32 0, i32* %fChanges, align 8, !dbg !3250
  %errorChecking = getelementptr inbounds %"class.xercesc_2_7::DOMDocumentImpl", %"class.xercesc_2_7::DOMDocumentImpl"* %this1, i32 0, i32 27, !dbg !3251
  store i8 1, i8* %errorChecking, align 4, !dbg !3251
  %15 = bitcast %"class.xercesc_2_7::DOMDocumentImpl"* %this1 to %"class.xercesc_2_7::DOMDocument"*, !dbg !3252
  %call = invoke i8* @_ZnwmPN11xercesc_2_711DOMDocumentE(i64 24, %"class.xercesc_2_7::DOMDocument"* %15)
          to label %invoke.cont10 unwind label %lpad9, !dbg !3254

invoke.cont10:                                    ; preds = %invoke.cont8
  %16 = bitcast i8* %call to %"class.xercesc_2_7::DOMStringPool"*, !dbg !3254
  invoke void @_ZN11xercesc_2_713DOMStringPoolC1EiPNS_15DOMDocumentImplE(%"class.xercesc_2_7::DOMStringPool"* %16, i32 257, %"class.xercesc_2_7::DOMDocumentImpl"* %this1)
          to label %invoke.cont11 unwind label %lpad9, !dbg !3255

invoke.cont11:                                    ; preds = %invoke.cont10
  %fNamePool12 = getelementptr inbounds %"class.xercesc_2_7::DOMDocumentImpl", %"class.xercesc_2_7::DOMDocumentImpl"* %this1, i32 0, i32 21, !dbg !3256
  store %"class.xercesc_2_7::DOMStringPool"* %16, %"class.xercesc_2_7::DOMStringPool"** %fNamePool12, align 8, !dbg !3257
  %17 = load %"class.xercesc_2_7::DOMDocumentType"*, %"class.xercesc_2_7::DOMDocumentType"** %doctype.addr, align 8, !dbg !3258
  invoke void @_ZN11xercesc_2_715DOMDocumentImpl15setDocumentTypeEPNS_15DOMDocumentTypeE(%"class.xercesc_2_7::DOMDocumentImpl"* %this1, %"class.xercesc_2_7::DOMDocumentType"* %17)
          to label %invoke.cont14 unwind label %lpad13, !dbg !3260

invoke.cont14:                                    ; preds = %invoke.cont11
  %18 = load i16*, i16** %qualifiedName.addr, align 8, !dbg !3261
  %tobool = icmp ne i16* %18, null, !dbg !3261
  br i1 %tobool, label %if.then, label %if.else, !dbg !3263

if.then:                                          ; preds = %invoke.cont14
  %19 = load i16*, i16** %fNamespaceURI.addr, align 8, !dbg !3264
  %20 = load i16*, i16** %qualifiedName.addr, align 8, !dbg !3265
  %21 = bitcast %"class.xercesc_2_7::DOMDocumentImpl"* %this1 to %"class.xercesc_2_7::DOMElement"* (%"class.xercesc_2_7::DOMDocumentImpl"*, i16*, i16*)***, !dbg !3266
  %vtable = load %"class.xercesc_2_7::DOMElement"* (%"class.xercesc_2_7::DOMDocumentImpl"*, i16*, i16*)**, %"class.xercesc_2_7::DOMElement"* (%"class.xercesc_2_7::DOMDocumentImpl"*, i16*, i16*)*** %21, align 8, !dbg !3266
  %vfn = getelementptr inbounds %"class.xercesc_2_7::DOMElement"* (%"class.xercesc_2_7::DOMDocumentImpl"*, i16*, i16*)*, %"class.xercesc_2_7::DOMElement"* (%"class.xercesc_2_7::DOMDocumentImpl"*, i16*, i16*)** %vtable, i64 16, !dbg !3266
  %22 = load %"class.xercesc_2_7::DOMElement"* (%"class.xercesc_2_7::DOMDocumentImpl"*, i16*, i16*)*, %"class.xercesc_2_7::DOMElement"* (%"class.xercesc_2_7::DOMDocumentImpl"*, i16*, i16*)** %vfn, align 8, !dbg !3266
  %call16 = invoke %"class.xercesc_2_7::DOMElement"* %22(%"class.xercesc_2_7::DOMDocumentImpl"* %this1, i16* %19, i16* %20)
          to label %invoke.cont15 unwind label %lpad13, !dbg !3266

invoke.cont15:                                    ; preds = %if.then
  %23 = bitcast %"class.xercesc_2_7::DOMElement"* %call16 to %"class.xercesc_2_7::DOMNode"*, !dbg !3266
  %24 = bitcast %"class.xercesc_2_7::DOMDocumentImpl"* %this1 to %"class.xercesc_2_7::DOMNode"* (%"class.xercesc_2_7::DOMDocumentImpl"*, %"class.xercesc_2_7::DOMNode"*)***, !dbg !3267
  %vtable17 = load %"class.xercesc_2_7::DOMNode"* (%"class.xercesc_2_7::DOMDocumentImpl"*, %"class.xercesc_2_7::DOMNode"*)**, %"class.xercesc_2_7::DOMNode"* (%"class.xercesc_2_7::DOMDocumentImpl"*, %"class.xercesc_2_7::DOMNode"*)*** %24, align 8, !dbg !3267
  %vfn18 = getelementptr inbounds %"class.xercesc_2_7::DOMNode"* (%"class.xercesc_2_7::DOMDocumentImpl"*, %"class.xercesc_2_7::DOMNode"*)*, %"class.xercesc_2_7::DOMNode"* (%"class.xercesc_2_7::DOMDocumentImpl"*, %"class.xercesc_2_7::DOMNode"*)** %vtable17, i64 41, !dbg !3267
  %25 = load %"class.xercesc_2_7::DOMNode"* (%"class.xercesc_2_7::DOMDocumentImpl"*, %"class.xercesc_2_7::DOMNode"*)*, %"class.xercesc_2_7::DOMNode"* (%"class.xercesc_2_7::DOMDocumentImpl"*, %"class.xercesc_2_7::DOMNode"*)** %vfn18, align 8, !dbg !3267
  %call20 = invoke %"class.xercesc_2_7::DOMNode"* %25(%"class.xercesc_2_7::DOMDocumentImpl"* %this1, %"class.xercesc_2_7::DOMNode"* %23)
          to label %invoke.cont19 unwind label %lpad13, !dbg !3267

invoke.cont19:                                    ; preds = %invoke.cont15
  br label %if.end27, !dbg !3267

lpad:                                             ; preds = %entry
  %26 = landingpad { i8*, i32 }
          cleanup, !dbg !3268
  %27 = extractvalue { i8*, i32 } %26, 0, !dbg !3268
  store i8* %27, i8** %exn.slot, align 8, !dbg !3268
  %28 = extractvalue { i8*, i32 } %26, 1, !dbg !3268
  store i32 %28, i32* %ehselector.slot, align 4, !dbg !3268
  br label %ehcleanup37, !dbg !3268

lpad5:                                            ; preds = %invoke.cont
  %29 = landingpad { i8*, i32 }
          cleanup, !dbg !3268
  %30 = extractvalue { i8*, i32 } %29, 0, !dbg !3268
  store i8* %30, i8** %exn.slot, align 8, !dbg !3268
  %31 = extractvalue { i8*, i32 } %29, 1, !dbg !3268
  store i32 %31, i32* %ehselector.slot, align 4, !dbg !3268
  br label %ehcleanup36, !dbg !3268

lpad7:                                            ; preds = %invoke.cont6
  %32 = landingpad { i8*, i32 }
          cleanup, !dbg !3268
  %33 = extractvalue { i8*, i32 } %32, 0, !dbg !3268
  store i8* %33, i8** %exn.slot, align 8, !dbg !3268
  %34 = extractvalue { i8*, i32 } %32, 1, !dbg !3268
  store i32 %34, i32* %ehselector.slot, align 4, !dbg !3268
  br label %ehcleanup35, !dbg !3268

lpad9:                                            ; preds = %invoke.cont10, %invoke.cont8
  %35 = landingpad { i8*, i32 }
          cleanup, !dbg !3269
  %36 = extractvalue { i8*, i32 } %35, 0, !dbg !3269
  store i8* %36, i8** %exn.slot, align 8, !dbg !3269
  %37 = extractvalue { i8*, i32 } %35, 1, !dbg !3269
  store i32 %37, i32* %ehselector.slot, align 4, !dbg !3269
  br label %ehcleanup, !dbg !3269

lpad13:                                           ; preds = %invoke.cont26, %invoke.cont15, %if.then, %invoke.cont11
  %38 = landingpad { i8*, i32 }
          catch i8* bitcast ({ i8*, i8*, i8* }* @_ZTIN11xercesc_2_720OutOfMemoryExceptionE to i8*)
          catch i8* null, !dbg !3270
  %39 = extractvalue { i8*, i32 } %38, 0, !dbg !3270
  store i8* %39, i8** %exn.slot, align 8, !dbg !3270
  %40 = extractvalue { i8*, i32 } %38, 1, !dbg !3270
  store i32 %40, i32* %ehselector.slot, align 4, !dbg !3270
  br label %catch.dispatch, !dbg !3270

if.else:                                          ; preds = %invoke.cont14
  %41 = load i16*, i16** %fNamespaceURI.addr, align 8, !dbg !3271
  %tobool21 = icmp ne i16* %41, null, !dbg !3271
  br i1 %tobool21, label %if.then22, label %if.end, !dbg !3273

if.then22:                                        ; preds = %if.else
  %exception = call i8* @__cxa_allocate_exception(i64 40) #10, !dbg !3274
  %42 = bitcast i8* %exception to %"class.xercesc_2_7::DOMException"*, !dbg !3274
  %call25 = invoke %"class.xercesc_2_7::MemoryManager"* @_ZNK11xercesc_2_715DOMDocumentImpl16getMemoryManagerEv(%"class.xercesc_2_7::DOMDocumentImpl"* %this1)
          to label %invoke.cont24 unwind label %lpad23, !dbg !3275

invoke.cont24:                                    ; preds = %if.then22
  invoke void @_ZN11xercesc_2_712DOMExceptionC1EsPKtPNS_13MemoryManagerE(%"class.xercesc_2_7::DOMException"* %42, i16 signext 14, i16* null, %"class.xercesc_2_7::MemoryManager"* %call25)
          to label %invoke.cont26 unwind label %lpad23, !dbg !3276

invoke.cont26:                                    ; preds = %invoke.cont24
  invoke void @__cxa_throw(i8* %exception, i8* bitcast (i8** @_ZTIN11xercesc_2_712DOMExceptionE to i8*), i8* bitcast (void (%"class.xercesc_2_7::DOMException"*)* @_ZN11xercesc_2_712DOMExceptionD1Ev to i8*)) #12
          to label %unreachable unwind label %lpad13, !dbg !3274

lpad23:                                           ; preds = %invoke.cont24, %if.then22
  %43 = landingpad { i8*, i32 }
          catch i8* bitcast ({ i8*, i8*, i8* }* @_ZTIN11xercesc_2_720OutOfMemoryExceptionE to i8*)
          catch i8* null, !dbg !3277
  %44 = extractvalue { i8*, i32 } %43, 0, !dbg !3277
  store i8* %44, i8** %exn.slot, align 8, !dbg !3277
  %45 = extractvalue { i8*, i32 } %43, 1, !dbg !3277
  store i32 %45, i32* %ehselector.slot, align 4, !dbg !3277
  call void @__cxa_free_exception(i8* %exception) #10, !dbg !3274
  br label %catch.dispatch, !dbg !3274

catch.dispatch:                                   ; preds = %lpad23, %lpad13
  %sel = load i32, i32* %ehselector.slot, align 4, !dbg !3278
  %46 = call i32 @llvm.eh.typeid.for(i8* bitcast ({ i8*, i8*, i8* }* @_ZTIN11xercesc_2_720OutOfMemoryExceptionE to i8*)) #10, !dbg !3278
  %matches = icmp eq i32 %sel, %46, !dbg !3278
  br i1 %matches, label %catch31, label %catch, !dbg !3278

catch31:                                          ; preds = %catch.dispatch
  call void @llvm.dbg.declare(metadata %"class.xercesc_2_7::OutOfMemoryException"** %0, metadata !3279, metadata !DIExpression()), !dbg !3312
  %exn32 = load i8*, i8** %exn.slot, align 8, !dbg !3313
  %47 = call i8* @__cxa_begin_catch(i8* %exn32) #10, !dbg !3313
  %exn.byref = bitcast i8* %47 to %"class.xercesc_2_7::OutOfMemoryException"*, !dbg !3313
  store %"class.xercesc_2_7::OutOfMemoryException"* %exn.byref, %"class.xercesc_2_7::OutOfMemoryException"** %0, align 8, !dbg !3313
  invoke void @__cxa_rethrow() #12
          to label %unreachable unwind label %lpad33, !dbg !3315

catch:                                            ; preds = %catch.dispatch
  %exn = load i8*, i8** %exn.slot, align 8, !dbg !3278
  %48 = call i8* @__cxa_begin_catch(i8* %exn) #10, !dbg !3278
  invoke void @_ZN11xercesc_2_715DOMDocumentImpl10deleteHeapEv(%"class.xercesc_2_7::DOMDocumentImpl"* %this1)
          to label %invoke.cont29 unwind label %lpad28, !dbg !3317

invoke.cont29:                                    ; preds = %catch
  invoke void @__cxa_rethrow() #12
          to label %unreachable unwind label %lpad28, !dbg !3318

if.end:                                           ; preds = %if.else
  br label %if.end27

if.end27:                                         ; preds = %if.end, %invoke.cont19
  br label %try.cont, !dbg !3278

lpad28:                                           ; preds = %invoke.cont29, %catch
  %49 = landingpad { i8*, i32 }
          cleanup, !dbg !3319
  %50 = extractvalue { i8*, i32 } %49, 0, !dbg !3319
  store i8* %50, i8** %exn.slot, align 8, !dbg !3319
  %51 = extractvalue { i8*, i32 } %49, 1, !dbg !3319
  store i32 %51, i32* %ehselector.slot, align 4, !dbg !3319
  invoke void @__cxa_end_catch()
          to label %invoke.cont30 unwind label %terminate.lpad, !dbg !3313

invoke.cont30:                                    ; preds = %lpad28
  br label %ehcleanup, !dbg !3313

lpad33:                                           ; preds = %catch31
  %52 = landingpad { i8*, i32 }
          cleanup, !dbg !3320
  %53 = extractvalue { i8*, i32 } %52, 0, !dbg !3320
  store i8* %53, i8** %exn.slot, align 8, !dbg !3320
  %54 = extractvalue { i8*, i32 } %52, 1, !dbg !3320
  store i32 %54, i32* %ehselector.slot, align 4, !dbg !3320
  invoke void @__cxa_end_catch()
          to label %invoke.cont34 unwind label %terminate.lpad, !dbg !3321

invoke.cont34:                                    ; preds = %lpad33
  br label %ehcleanup, !dbg !3321

try.cont:                                         ; preds = %if.end27
  ret void, !dbg !3268

ehcleanup:                                        ; preds = %invoke.cont34, %invoke.cont30, %lpad9
  call void @_ZN11xercesc_2_713XMLStringPoolD1Ev(%"class.xercesc_2_7::XMLStringPool"* %fUserDataTableKeys) #10, !dbg !3269
  br label %ehcleanup35, !dbg !3269

ehcleanup35:                                      ; preds = %ehcleanup, %lpad7
  call void @_ZN11xercesc_2_713DOMParentNodeD2Ev(%"class.xercesc_2_7::DOMParentNode"* %fParent) #10, !dbg !3269
  br label %ehcleanup36, !dbg !3269

ehcleanup36:                                      ; preds = %ehcleanup35, %lpad5
  call void @_ZN11xercesc_2_711DOMNodeImplD1Ev(%"class.xercesc_2_7::DOMNodeImpl"* %fNode) #10, !dbg !3269
  br label %ehcleanup37, !dbg !3269

ehcleanup37:                                      ; preds = %ehcleanup36, %lpad
  %55 = bitcast %"class.xercesc_2_7::DOMDocumentImpl"* %this1 to %"class.xercesc_2_7::DOMDocument"*, !dbg !3269
  call void @_ZN11xercesc_2_711DOMDocumentD2Ev(%"class.xercesc_2_7::DOMDocument"* %55) #10, !dbg !3269
  br label %eh.resume, !dbg !3269

eh.resume:                                        ; preds = %ehcleanup37
  %exn38 = load i8*, i8** %exn.slot, align 8, !dbg !3269
  %sel39 = load i32, i32* %ehselector.slot, align 4, !dbg !3269
  %lpad.val = insertvalue { i8*, i32 } undef, i8* %exn38, 0, !dbg !3269
  %lpad.val40 = insertvalue { i8*, i32 } %lpad.val, i32 %sel39, 1, !dbg !3269
  resume { i8*, i32 } %lpad.val40, !dbg !3269

terminate.lpad:                                   ; preds = %lpad33, %lpad28
  %56 = landingpad { i8*, i32 }
          catch i8* null, !dbg !3313
  %57 = extractvalue { i8*, i32 } %56, 0, !dbg !3313
  call void @__clang_call_terminate(i8* %57) #13, !dbg !3313
  unreachable, !dbg !3313

unreachable:                                      ; preds = %catch31, %invoke.cont29, %invoke.cont26
  unreachable
}

; Function Attrs: noinline uwtable
define dso_local void @_ZN11xercesc_2_715DOMDocumentImpl15setDocumentTypeEPNS_15DOMDocumentTypeE(%"class.xercesc_2_7::DOMDocumentImpl"* %this, %"class.xercesc_2_7::DOMDocumentType"* %doctype) #3 align 2 personality i8* bitcast (i32 (...)* @__gxx_personality_v0 to i8*) !dbg !3322 {
entry:
  %this.addr = alloca %"class.xercesc_2_7::DOMDocumentImpl"*, align 8
  %doctype.addr = alloca %"class.xercesc_2_7::DOMDocumentType"*, align 8
  %exn.slot = alloca i8*
  %ehselector.slot = alloca i32
  %doctypeImpl = alloca %"class.xercesc_2_7::DOMDocumentTypeImpl"*, align 8
  store %"class.xercesc_2_7::DOMDocumentImpl"* %this, %"class.xercesc_2_7::DOMDocumentImpl"** %this.addr, align 8
  call void @llvm.dbg.declare(metadata %"class.xercesc_2_7::DOMDocumentImpl"** %this.addr, metadata !3323, metadata !DIExpression()), !dbg !3324
  store %"class.xercesc_2_7::DOMDocumentType"* %doctype, %"class.xercesc_2_7::DOMDocumentType"** %doctype.addr, align 8
  call void @llvm.dbg.declare(metadata %"class.xercesc_2_7::DOMDocumentType"** %doctype.addr, metadata !3325, metadata !DIExpression()), !dbg !3326
  %this1 = load %"class.xercesc_2_7::DOMDocumentImpl"*, %"class.xercesc_2_7::DOMDocumentImpl"** %this.addr, align 8
  %0 = load %"class.xercesc_2_7::DOMDocumentType"*, %"class.xercesc_2_7::DOMDocumentType"** %doctype.addr, align 8, !dbg !3327
  %tobool = icmp ne %"class.xercesc_2_7::DOMDocumentType"* %0, null, !dbg !3327
  br i1 %tobool, label %if.end, label %if.then, !dbg !3329

if.then:                                          ; preds = %entry
  br label %return, !dbg !3330

if.end:                                           ; preds = %entry
  %1 = load %"class.xercesc_2_7::DOMDocumentType"*, %"class.xercesc_2_7::DOMDocumentType"** %doctype.addr, align 8, !dbg !3331
  %2 = bitcast %"class.xercesc_2_7::DOMDocumentType"* %1 to %"class.xercesc_2_7::DOMNode"*, !dbg !3333
  %3 = bitcast %"class.xercesc_2_7::DOMNode"* %2 to %"class.xercesc_2_7::DOMDocument"* (%"class.xercesc_2_7::DOMNode"*)***, !dbg !3333
  %vtable = load %"class.xercesc_2_7::DOMDocument"* (%"class.xercesc_2_7::DOMNode"*)**, %"class.xercesc_2_7::DOMDocument"* (%"class.xercesc_2_7::DOMNode"*)*** %3, align 8, !dbg !3333
  %vfn = getelementptr inbounds %"class.xercesc_2_7::DOMDocument"* (%"class.xercesc_2_7::DOMNode"*)*, %"class.xercesc_2_7::DOMDocument"* (%"class.xercesc_2_7::DOMNode"*)** %vtable, i64 12, !dbg !3333
  %4 = load %"class.xercesc_2_7::DOMDocument"* (%"class.xercesc_2_7::DOMNode"*)*, %"class.xercesc_2_7::DOMDocument"* (%"class.xercesc_2_7::DOMNode"*)** %vfn, align 8, !dbg !3333
  %call = call %"class.xercesc_2_7::DOMDocument"* %4(%"class.xercesc_2_7::DOMNode"* %2), !dbg !3333
  %cmp = icmp ne %"class.xercesc_2_7::DOMDocument"* %call, null, !dbg !3334
  br i1 %cmp, label %land.lhs.true, label %if.end9, !dbg !3335

land.lhs.true:                                    ; preds = %if.end
  %5 = load %"class.xercesc_2_7::DOMDocumentType"*, %"class.xercesc_2_7::DOMDocumentType"** %doctype.addr, align 8, !dbg !3336
  %6 = bitcast %"class.xercesc_2_7::DOMDocumentType"* %5 to %"class.xercesc_2_7::DOMNode"*, !dbg !3337
  %7 = bitcast %"class.xercesc_2_7::DOMNode"* %6 to %"class.xercesc_2_7::DOMDocument"* (%"class.xercesc_2_7::DOMNode"*)***, !dbg !3337
  %vtable2 = load %"class.xercesc_2_7::DOMDocument"* (%"class.xercesc_2_7::DOMNode"*)**, %"class.xercesc_2_7::DOMDocument"* (%"class.xercesc_2_7::DOMNode"*)*** %7, align 8, !dbg !3337
  %vfn3 = getelementptr inbounds %"class.xercesc_2_7::DOMDocument"* (%"class.xercesc_2_7::DOMNode"*)*, %"class.xercesc_2_7::DOMDocument"* (%"class.xercesc_2_7::DOMNode"*)** %vtable2, i64 12, !dbg !3337
  %8 = load %"class.xercesc_2_7::DOMDocument"* (%"class.xercesc_2_7::DOMNode"*)*, %"class.xercesc_2_7::DOMDocument"* (%"class.xercesc_2_7::DOMNode"*)** %vfn3, align 8, !dbg !3337
  %call4 = call %"class.xercesc_2_7::DOMDocument"* %8(%"class.xercesc_2_7::DOMNode"* %6), !dbg !3337
  %9 = bitcast %"class.xercesc_2_7::DOMDocumentImpl"* %this1 to %"class.xercesc_2_7::DOMDocument"*, !dbg !3338
  %cmp5 = icmp ne %"class.xercesc_2_7::DOMDocument"* %call4, %9, !dbg !3339
  br i1 %cmp5, label %if.then6, label %if.end9, !dbg !3340

if.then6:                                         ; preds = %land.lhs.true
  %exception = call i8* @__cxa_allocate_exception(i64 40) #10, !dbg !3341
  %10 = bitcast i8* %exception to %"class.xercesc_2_7::DOMException"*, !dbg !3341
  %call7 = invoke %"class.xercesc_2_7::MemoryManager"* @_ZNK11xercesc_2_715DOMDocumentImpl16getMemoryManagerEv(%"class.xercesc_2_7::DOMDocumentImpl"* %this1)
          to label %invoke.cont unwind label %lpad, !dbg !3342

invoke.cont:                                      ; preds = %if.then6
  invoke void @_ZN11xercesc_2_712DOMExceptionC1EsPKtPNS_13MemoryManagerE(%"class.xercesc_2_7::DOMException"* %10, i16 signext 4, i16* null, %"class.xercesc_2_7::MemoryManager"* %call7)
          to label %invoke.cont8 unwind label %lpad, !dbg !3343

invoke.cont8:                                     ; preds = %invoke.cont
  call void @__cxa_throw(i8* %exception, i8* bitcast (i8** @_ZTIN11xercesc_2_712DOMExceptionE to i8*), i8* bitcast (void (%"class.xercesc_2_7::DOMException"*)* @_ZN11xercesc_2_712DOMExceptionD1Ev to i8*)) #12, !dbg !3341
  unreachable, !dbg !3341

lpad:                                             ; preds = %invoke.cont, %if.then6
  %11 = landingpad { i8*, i32 }
          cleanup, !dbg !3344
  %12 = extractvalue { i8*, i32 } %11, 0, !dbg !3344
  store i8* %12, i8** %exn.slot, align 8, !dbg !3344
  %13 = extractvalue { i8*, i32 } %11, 1, !dbg !3344
  store i32 %13, i32* %ehselector.slot, align 4, !dbg !3344
  call void @__cxa_free_exception(i8* %exception) #10, !dbg !3341
  br label %eh.resume, !dbg !3341

if.end9:                                          ; preds = %land.lhs.true, %if.end
  call void @llvm.dbg.declare(metadata %"class.xercesc_2_7::DOMDocumentTypeImpl"** %doctypeImpl, metadata !3345, metadata !DIExpression()), !dbg !3346
  %14 = load %"class.xercesc_2_7::DOMDocumentType"*, %"class.xercesc_2_7::DOMDocumentType"** %doctype.addr, align 8, !dbg !3347
  %15 = bitcast %"class.xercesc_2_7::DOMDocumentType"* %14 to %"class.xercesc_2_7::DOMDocumentTypeImpl"*, !dbg !3348
  store %"class.xercesc_2_7::DOMDocumentTypeImpl"* %15, %"class.xercesc_2_7::DOMDocumentTypeImpl"** %doctypeImpl, align 8, !dbg !3346
  %16 = load %"class.xercesc_2_7::DOMDocumentTypeImpl"*, %"class.xercesc_2_7::DOMDocumentTypeImpl"** %doctypeImpl, align 8, !dbg !3349
  %17 = bitcast %"class.xercesc_2_7::DOMDocumentImpl"* %this1 to %"class.xercesc_2_7::DOMDocument"*, !dbg !3350
  %18 = bitcast %"class.xercesc_2_7::DOMDocumentTypeImpl"* %16 to void (%"class.xercesc_2_7::DOMDocumentTypeImpl"*, %"class.xercesc_2_7::DOMDocument"*)***, !dbg !3351
  %vtable10 = load void (%"class.xercesc_2_7::DOMDocumentTypeImpl"*, %"class.xercesc_2_7::DOMDocument"*)**, void (%"class.xercesc_2_7::DOMDocumentTypeImpl"*, %"class.xercesc_2_7::DOMDocument"*)*** %18, align 8, !dbg !3351
  %vfn11 = getelementptr inbounds void (%"class.xercesc_2_7::DOMDocumentTypeImpl"*, %"class.xercesc_2_7::DOMDocument"*)*, void (%"class.xercesc_2_7::DOMDocumentTypeImpl"*, %"class.xercesc_2_7::DOMDocument"*)** %vtable10, i64 49, !dbg !3351
  %19 = load void (%"class.xercesc_2_7::DOMDocumentTypeImpl"*, %"class.xercesc_2_7::DOMDocument"*)*, void (%"class.xercesc_2_7::DOMDocumentTypeImpl"*, %"class.xercesc_2_7::DOMDocument"*)** %vfn11, align 8, !dbg !3351
  call void %19(%"class.xercesc_2_7::DOMDocumentTypeImpl"* %16, %"class.xercesc_2_7::DOMDocument"* %17), !dbg !3351
  %20 = load %"class.xercesc_2_7::DOMDocumentType"*, %"class.xercesc_2_7::DOMDocumentType"** %doctype.addr, align 8, !dbg !3352
  %21 = bitcast %"class.xercesc_2_7::DOMDocumentType"* %20 to %"class.xercesc_2_7::DOMNode"*, !dbg !3352
  %22 = bitcast %"class.xercesc_2_7::DOMDocumentImpl"* %this1 to %"class.xercesc_2_7::DOMNode"* (%"class.xercesc_2_7::DOMDocumentImpl"*, %"class.xercesc_2_7::DOMNode"*)***, !dbg !3353
  %vtable12 = load %"class.xercesc_2_7::DOMNode"* (%"class.xercesc_2_7::DOMDocumentImpl"*, %"class.xercesc_2_7::DOMNode"*)**, %"class.xercesc_2_7::DOMNode"* (%"class.xercesc_2_7::DOMDocumentImpl"*, %"class.xercesc_2_7::DOMNode"*)*** %22, align 8, !dbg !3353
  %vfn13 = getelementptr inbounds %"class.xercesc_2_7::DOMNode"* (%"class.xercesc_2_7::DOMDocumentImpl"*, %"class.xercesc_2_7::DOMNode"*)*, %"class.xercesc_2_7::DOMNode"* (%"class.xercesc_2_7::DOMDocumentImpl"*, %"class.xercesc_2_7::DOMNode"*)** %vtable12, i64 41, !dbg !3353
  %23 = load %"class.xercesc_2_7::DOMNode"* (%"class.xercesc_2_7::DOMDocumentImpl"*, %"class.xercesc_2_7::DOMNode"*)*, %"class.xercesc_2_7::DOMNode"* (%"class.xercesc_2_7::DOMDocumentImpl"*, %"class.xercesc_2_7::DOMNode"*)** %vfn13, align 8, !dbg !3353
  %call14 = call %"class.xercesc_2_7::DOMNode"* %23(%"class.xercesc_2_7::DOMDocumentImpl"* %this1, %"class.xercesc_2_7::DOMNode"* %21), !dbg !3353
  br label %return, !dbg !3354

return:                                           ; preds = %if.end9, %if.then
  ret void, !dbg !3354

eh.resume:                                        ; preds = %lpad
  %exn = load i8*, i8** %exn.slot, align 8, !dbg !3341
  %sel = load i32, i32* %ehselector.slot, align 4, !dbg !3341
  %lpad.val = insertvalue { i8*, i32 } undef, i8* %exn, 0, !dbg !3341
  %lpad.val15 = insertvalue { i8*, i32 } %lpad.val, i32 %sel, 1, !dbg !3341
  resume { i8*, i32 } %lpad.val15, !dbg !3341
}

declare dso_local i8* @__cxa_allocate_exception(i64)

; Function Attrs: noinline nounwind uwtable
define linkonce_odr dso_local %"class.xercesc_2_7::MemoryManager"* @_ZNK11xercesc_2_715DOMDocumentImpl16getMemoryManagerEv(%"class.xercesc_2_7::DOMDocumentImpl"* %this) #1 comdat align 2 !dbg !3355 {
entry:
  %this.addr = alloca %"class.xercesc_2_7::DOMDocumentImpl"*, align 8
  store %"class.xercesc_2_7::DOMDocumentImpl"* %this, %"class.xercesc_2_7::DOMDocumentImpl"** %this.addr, align 8
  call void @llvm.dbg.declare(metadata %"class.xercesc_2_7::DOMDocumentImpl"** %this.addr, metadata !3356, metadata !DIExpression()), !dbg !3358
  %this1 = load %"class.xercesc_2_7::DOMDocumentImpl"*, %"class.xercesc_2_7::DOMDocumentImpl"** %this.addr, align 8
  %fMemoryManager = getelementptr inbounds %"class.xercesc_2_7::DOMDocumentImpl", %"class.xercesc_2_7::DOMDocumentImpl"* %this1, i32 0, i32 25, !dbg !3359
  %0 = load %"class.xercesc_2_7::MemoryManager"*, %"class.xercesc_2_7::MemoryManager"** %fMemoryManager, align 8, !dbg !3359
  ret %"class.xercesc_2_7::MemoryManager"* %0, !dbg !3360
}

declare dso_local void @_ZN11xercesc_2_712DOMExceptionC1EsPKtPNS_13MemoryManagerE(%"class.xercesc_2_7::DOMException"*, i16 signext, i16*, %"class.xercesc_2_7::MemoryManager"*) unnamed_addr #4

declare dso_local void @__cxa_free_exception(i8*)

; Function Attrs: nounwind
declare dso_local void @_ZN11xercesc_2_712DOMExceptionD1Ev(%"class.xercesc_2_7::DOMException"*) unnamed_addr #5

declare dso_local void @__cxa_throw(i8*, i8*, i8*)

; Function Attrs: nounwind readnone
declare i32 @llvm.eh.typeid.for(i8*) #6

declare dso_local i8* @__cxa_begin_catch(i8*)

; Function Attrs: noinline uwtable
define dso_local void @_ZN11xercesc_2_715DOMDocumentImpl10deleteHeapEv(%"class.xercesc_2_7::DOMDocumentImpl"* %this) #3 align 2 !dbg !3361 {
entry:
  %this.addr = alloca %"class.xercesc_2_7::DOMDocumentImpl"*, align 8
  %nextBlock = alloca i8*, align 8
  store %"class.xercesc_2_7::DOMDocumentImpl"* %this, %"class.xercesc_2_7::DOMDocumentImpl"** %this.addr, align 8
  call void @llvm.dbg.declare(metadata %"class.xercesc_2_7::DOMDocumentImpl"** %this.addr, metadata !3362, metadata !DIExpression()), !dbg !3363
  %this1 = load %"class.xercesc_2_7::DOMDocumentImpl"*, %"class.xercesc_2_7::DOMDocumentImpl"** %this.addr, align 8
  br label %while.cond, !dbg !3364

while.cond:                                       ; preds = %while.body, %entry
  %fCurrentBlock = getelementptr inbounds %"class.xercesc_2_7::DOMDocumentImpl", %"class.xercesc_2_7::DOMDocumentImpl"* %this1, i32 0, i32 13, !dbg !3365
  %0 = load i8*, i8** %fCurrentBlock, align 8, !dbg !3365
  %cmp = icmp ne i8* %0, null, !dbg !3366
  br i1 %cmp, label %while.body, label %while.end, !dbg !3364

while.body:                                       ; preds = %while.cond
  call void @llvm.dbg.declare(metadata i8** %nextBlock, metadata !3367, metadata !DIExpression()), !dbg !3369
  %fCurrentBlock2 = getelementptr inbounds %"class.xercesc_2_7::DOMDocumentImpl", %"class.xercesc_2_7::DOMDocumentImpl"* %this1, i32 0, i32 13, !dbg !3370
  %1 = load i8*, i8** %fCurrentBlock2, align 8, !dbg !3370
  %2 = bitcast i8* %1 to i8**, !dbg !3371
  %3 = load i8*, i8** %2, align 8, !dbg !3372
  store i8* %3, i8** %nextBlock, align 8, !dbg !3369
  %fMemoryManager = getelementptr inbounds %"class.xercesc_2_7::DOMDocumentImpl", %"class.xercesc_2_7::DOMDocumentImpl"* %this1, i32 0, i32 25, !dbg !3373
  %4 = load %"class.xercesc_2_7::MemoryManager"*, %"class.xercesc_2_7::MemoryManager"** %fMemoryManager, align 8, !dbg !3373
  %fCurrentBlock3 = getelementptr inbounds %"class.xercesc_2_7::DOMDocumentImpl", %"class.xercesc_2_7::DOMDocumentImpl"* %this1, i32 0, i32 13, !dbg !3374
  %5 = load i8*, i8** %fCurrentBlock3, align 8, !dbg !3374
  %6 = bitcast %"class.xercesc_2_7::MemoryManager"* %4 to void (%"class.xercesc_2_7::MemoryManager"*, i8*)***, !dbg !3375
  %vtable = load void (%"class.xercesc_2_7::MemoryManager"*, i8*)**, void (%"class.xercesc_2_7::MemoryManager"*, i8*)*** %6, align 8, !dbg !3375
  %vfn = getelementptr inbounds void (%"class.xercesc_2_7::MemoryManager"*, i8*)*, void (%"class.xercesc_2_7::MemoryManager"*, i8*)** %vtable, i64 3, !dbg !3375
  %7 = load void (%"class.xercesc_2_7::MemoryManager"*, i8*)*, void (%"class.xercesc_2_7::MemoryManager"*, i8*)** %vfn, align 8, !dbg !3375
  call void %7(%"class.xercesc_2_7::MemoryManager"* %4, i8* %5), !dbg !3375
  %8 = load i8*, i8** %nextBlock, align 8, !dbg !3376
  %fCurrentBlock4 = getelementptr inbounds %"class.xercesc_2_7::DOMDocumentImpl", %"class.xercesc_2_7::DOMDocumentImpl"* %this1, i32 0, i32 13, !dbg !3377
  store i8* %8, i8** %fCurrentBlock4, align 8, !dbg !3378
  br label %while.cond, !dbg !3364, !llvm.loop !3379

while.end:                                        ; preds = %while.cond
  ret void, !dbg !3381
}

declare dso_local void @__cxa_rethrow()

declare dso_local void @__cxa_end_catch()

; Function Attrs: noinline noreturn nounwind
define linkonce_odr hidden void @__clang_call_terminate(i8* %0) #7 comdat {
  %2 = call i8* @__cxa_begin_catch(i8* %0) #10
  call void @_ZSt9terminatev() #13
  unreachable
}

declare dso_local void @_ZSt9terminatev()

; Function Attrs: noinline nounwind uwtable
define dso_local void @_ZN11xercesc_2_715DOMDocumentImplD2Ev(%"class.xercesc_2_7::DOMDocumentImpl"* %this) unnamed_addr #1 align 2 personality i8* bitcast (i32 (...)* @__gxx_personality_v0 to i8*) !dbg !3382 {
entry:
  %this.addr = alloca %"class.xercesc_2_7::DOMDocumentImpl"*, align 8
  %exn.slot = alloca i8*
  %ehselector.slot = alloca i32
  store %"class.xercesc_2_7::DOMDocumentImpl"* %this, %"class.xercesc_2_7::DOMDocumentImpl"** %this.addr, align 8
  call void @llvm.dbg.declare(metadata %"class.xercesc_2_7::DOMDocumentImpl"** %this.addr, metadata !3383, metadata !DIExpression()), !dbg !3384
  %this1 = load %"class.xercesc_2_7::DOMDocumentImpl"*, %"class.xercesc_2_7::DOMDocumentImpl"** %this.addr, align 8
  %0 = bitcast %"class.xercesc_2_7::DOMDocumentImpl"* %this1 to i32 (...)***, !dbg !3385
  store i32 (...)** bitcast (i8** getelementptr inbounds ({ [95 x i8*], [7 x i8*], [6 x i8*], [42 x i8*] }, { [95 x i8*], [7 x i8*], [6 x i8*], [42 x i8*] }* @_ZTVN11xercesc_2_715DOMDocumentImplE, i32 0, inrange i32 0, i32 2) to i32 (...)**), i32 (...)*** %0, align 8, !dbg !3385
  %1 = bitcast %"class.xercesc_2_7::DOMDocumentImpl"* %this1 to i8*, !dbg !3385
  %add.ptr = getelementptr inbounds i8, i8* %1, i64 8, !dbg !3385
  %2 = bitcast i8* %add.ptr to i32 (...)***, !dbg !3385
  store i32 (...)** bitcast (i8** getelementptr inbounds ({ [95 x i8*], [7 x i8*], [6 x i8*], [42 x i8*] }, { [95 x i8*], [7 x i8*], [6 x i8*], [42 x i8*] }* @_ZTVN11xercesc_2_715DOMDocumentImplE, i32 0, inrange i32 1, i32 2) to i32 (...)**), i32 (...)*** %2, align 8, !dbg !3385
  %3 = bitcast %"class.xercesc_2_7::DOMDocumentImpl"* %this1 to i8*, !dbg !3385
  %add.ptr2 = getelementptr inbounds i8, i8* %3, i64 16, !dbg !3385
  %4 = bitcast i8* %add.ptr2 to i32 (...)***, !dbg !3385
  store i32 (...)** bitcast (i8** getelementptr inbounds ({ [95 x i8*], [7 x i8*], [6 x i8*], [42 x i8*] }, { [95 x i8*], [7 x i8*], [6 x i8*], [42 x i8*] }* @_ZTVN11xercesc_2_715DOMDocumentImplE, i32 0, inrange i32 2, i32 2) to i32 (...)**), i32 (...)*** %4, align 8, !dbg !3385
  %5 = bitcast %"class.xercesc_2_7::DOMDocumentImpl"* %this1 to i8*, !dbg !3385
  %add.ptr3 = getelementptr inbounds i8, i8* %5, i64 24, !dbg !3385
  %6 = bitcast i8* %add.ptr3 to i32 (...)***, !dbg !3385
  store i32 (...)** bitcast (i8** getelementptr inbounds ({ [95 x i8*], [7 x i8*], [6 x i8*], [42 x i8*] }, { [95 x i8*], [7 x i8*], [6 x i8*], [42 x i8*] }* @_ZTVN11xercesc_2_715DOMDocumentImplE, i32 0, inrange i32 3, i32 2) to i32 (...)**), i32 (...)*** %6, align 8, !dbg !3385
  %fNodeListPool = getelementptr inbounds %"class.xercesc_2_7::DOMDocumentImpl", %"class.xercesc_2_7::DOMDocumentImpl"* %this1, i32 0, i32 18, !dbg !3386
  %7 = load %"class.xercesc_2_7::DOMDeepNodeListPool"*, %"class.xercesc_2_7::DOMDeepNodeListPool"** %fNodeListPool, align 8, !dbg !3386
  %tobool = icmp ne %"class.xercesc_2_7::DOMDeepNodeListPool"* %7, null, !dbg !3386
  br i1 %tobool, label %if.then, label %if.end, !dbg !3389

if.then:                                          ; preds = %entry
  %fNodeListPool4 = getelementptr inbounds %"class.xercesc_2_7::DOMDocumentImpl", %"class.xercesc_2_7::DOMDocumentImpl"* %this1, i32 0, i32 18, !dbg !3390
  %8 = load %"class.xercesc_2_7::DOMDeepNodeListPool"*, %"class.xercesc_2_7::DOMDeepNodeListPool"** %fNodeListPool4, align 8, !dbg !3390
  invoke void @_ZN11xercesc_2_719DOMDeepNodeListPoolINS_19DOMDeepNodeListImplEE7cleanupEv(%"class.xercesc_2_7::DOMDeepNodeListPool"* %8)
          to label %invoke.cont unwind label %lpad, !dbg !3391

invoke.cont:                                      ; preds = %if.then
  br label %if.end, !dbg !3390

lpad:                                             ; preds = %delete.end43, %if.then26, %if.then
  %9 = landingpad { i8*, i32 }
          catch i8* null, !dbg !3392
  %10 = extractvalue { i8*, i32 } %9, 0, !dbg !3392
  store i8* %10, i8** %exn.slot, align 8, !dbg !3392
  %11 = extractvalue { i8*, i32 } %9, 1, !dbg !3392
  store i32 %11, i32* %ehselector.slot, align 4, !dbg !3392
  %fUserDataTableKeys45 = getelementptr inbounds %"class.xercesc_2_7::DOMDocumentImpl", %"class.xercesc_2_7::DOMDocumentImpl"* %this1, i32 0, i32 11, !dbg !3393
  call void @_ZN11xercesc_2_713XMLStringPoolD1Ev(%"class.xercesc_2_7::XMLStringPool"* %fUserDataTableKeys45) #10, !dbg !3393
  %fParent46 = getelementptr inbounds %"class.xercesc_2_7::DOMDocumentImpl", %"class.xercesc_2_7::DOMDocumentImpl"* %this1, i32 0, i32 2, !dbg !3393
  call void @_ZN11xercesc_2_713DOMParentNodeD2Ev(%"class.xercesc_2_7::DOMParentNode"* %fParent46) #10, !dbg !3393
  %fNode47 = getelementptr inbounds %"class.xercesc_2_7::DOMDocumentImpl", %"class.xercesc_2_7::DOMDocumentImpl"* %this1, i32 0, i32 1, !dbg !3393
  call void @_ZN11xercesc_2_711DOMNodeImplD1Ev(%"class.xercesc_2_7::DOMNodeImpl"* %fNode47) #10, !dbg !3393
  %12 = bitcast %"class.xercesc_2_7::DOMDocumentImpl"* %this1 to %"class.xercesc_2_7::DOMDocument"*, !dbg !3393
  call void @_ZN11xercesc_2_711DOMDocumentD2Ev(%"class.xercesc_2_7::DOMDocument"* %12) #10, !dbg !3393
  br label %terminate.handler, !dbg !3393

if.end:                                           ; preds = %invoke.cont, %entry
  %fRanges = getelementptr inbounds %"class.xercesc_2_7::DOMDocumentImpl", %"class.xercesc_2_7::DOMDocumentImpl"* %this1, i32 0, i32 23, !dbg !3394
  %13 = load %"class.xercesc_2_7::RefVectorOf.5"*, %"class.xercesc_2_7::RefVectorOf.5"** %fRanges, align 8, !dbg !3394
  %tobool5 = icmp ne %"class.xercesc_2_7::RefVectorOf.5"* %13, null, !dbg !3394
  br i1 %tobool5, label %if.then6, label %if.end8, !dbg !3396

if.then6:                                         ; preds = %if.end
  %fRanges7 = getelementptr inbounds %"class.xercesc_2_7::DOMDocumentImpl", %"class.xercesc_2_7::DOMDocumentImpl"* %this1, i32 0, i32 23, !dbg !3397
  %14 = load %"class.xercesc_2_7::RefVectorOf.5"*, %"class.xercesc_2_7::RefVectorOf.5"** %fRanges7, align 8, !dbg !3397
  %isnull = icmp eq %"class.xercesc_2_7::RefVectorOf.5"* %14, null, !dbg !3398
  br i1 %isnull, label %delete.end, label %delete.notnull, !dbg !3398

delete.notnull:                                   ; preds = %if.then6
  %15 = bitcast %"class.xercesc_2_7::RefVectorOf.5"* %14 to void (%"class.xercesc_2_7::RefVectorOf.5"*)***, !dbg !3398
  %vtable = load void (%"class.xercesc_2_7::RefVectorOf.5"*)**, void (%"class.xercesc_2_7::RefVectorOf.5"*)*** %15, align 8, !dbg !3398
  %vfn = getelementptr inbounds void (%"class.xercesc_2_7::RefVectorOf.5"*)*, void (%"class.xercesc_2_7::RefVectorOf.5"*)** %vtable, i64 1, !dbg !3398
  %16 = load void (%"class.xercesc_2_7::RefVectorOf.5"*)*, void (%"class.xercesc_2_7::RefVectorOf.5"*)** %vfn, align 8, !dbg !3398
  call void %16(%"class.xercesc_2_7::RefVectorOf.5"* %14) #10, !dbg !3398
  br label %delete.end, !dbg !3398

delete.end:                                       ; preds = %delete.notnull, %if.then6
  br label %if.end8, !dbg !3398

if.end8:                                          ; preds = %delete.end, %if.end
  %fNodeIterators = getelementptr inbounds %"class.xercesc_2_7::DOMDocumentImpl", %"class.xercesc_2_7::DOMDocumentImpl"* %this1, i32 0, i32 24, !dbg !3399
  %17 = load %"class.xercesc_2_7::RefVectorOf.7"*, %"class.xercesc_2_7::RefVectorOf.7"** %fNodeIterators, align 8, !dbg !3399
  %tobool9 = icmp ne %"class.xercesc_2_7::RefVectorOf.7"* %17, null, !dbg !3399
  br i1 %tobool9, label %if.then10, label %if.end17, !dbg !3401

if.then10:                                        ; preds = %if.end8
  %fNodeIterators11 = getelementptr inbounds %"class.xercesc_2_7::DOMDocumentImpl", %"class.xercesc_2_7::DOMDocumentImpl"* %this1, i32 0, i32 24, !dbg !3402
  %18 = load %"class.xercesc_2_7::RefVectorOf.7"*, %"class.xercesc_2_7::RefVectorOf.7"** %fNodeIterators11, align 8, !dbg !3402
  %isnull12 = icmp eq %"class.xercesc_2_7::RefVectorOf.7"* %18, null, !dbg !3403
  br i1 %isnull12, label %delete.end16, label %delete.notnull13, !dbg !3403

delete.notnull13:                                 ; preds = %if.then10
  %19 = bitcast %"class.xercesc_2_7::RefVectorOf.7"* %18 to void (%"class.xercesc_2_7::RefVectorOf.7"*)***, !dbg !3403
  %vtable14 = load void (%"class.xercesc_2_7::RefVectorOf.7"*)**, void (%"class.xercesc_2_7::RefVectorOf.7"*)*** %19, align 8, !dbg !3403
  %vfn15 = getelementptr inbounds void (%"class.xercesc_2_7::RefVectorOf.7"*)*, void (%"class.xercesc_2_7::RefVectorOf.7"*)** %vtable14, i64 1, !dbg !3403
  %20 = load void (%"class.xercesc_2_7::RefVectorOf.7"*)*, void (%"class.xercesc_2_7::RefVectorOf.7"*)** %vfn15, align 8, !dbg !3403
  call void %20(%"class.xercesc_2_7::RefVectorOf.7"* %18) #10, !dbg !3403
  br label %delete.end16, !dbg !3403

delete.end16:                                     ; preds = %delete.notnull13, %if.then10
  br label %if.end17, !dbg !3403

if.end17:                                         ; preds = %delete.end16, %if.end8
  %fUserDataTable = getelementptr inbounds %"class.xercesc_2_7::DOMDocumentImpl", %"class.xercesc_2_7::DOMDocumentImpl"* %this1, i32 0, i32 12, !dbg !3404
  %21 = load %"class.xercesc_2_7::RefHash2KeysTableOf"*, %"class.xercesc_2_7::RefHash2KeysTableOf"** %fUserDataTable, align 8, !dbg !3404
  %tobool18 = icmp ne %"class.xercesc_2_7::RefHash2KeysTableOf"* %21, null, !dbg !3404
  br i1 %tobool18, label %if.then19, label %if.end24, !dbg !3406

if.then19:                                        ; preds = %if.end17
  %fUserDataTable20 = getelementptr inbounds %"class.xercesc_2_7::DOMDocumentImpl", %"class.xercesc_2_7::DOMDocumentImpl"* %this1, i32 0, i32 12, !dbg !3407
  %22 = load %"class.xercesc_2_7::RefHash2KeysTableOf"*, %"class.xercesc_2_7::RefHash2KeysTableOf"** %fUserDataTable20, align 8, !dbg !3407
  %isnull21 = icmp eq %"class.xercesc_2_7::RefHash2KeysTableOf"* %22, null, !dbg !3408
  br i1 %isnull21, label %delete.end23, label %delete.notnull22, !dbg !3408

delete.notnull22:                                 ; preds = %if.then19
  call void @_ZN11xercesc_2_719RefHash2KeysTableOfINS_10KeyRefPairIvNS_18DOMUserDataHandlerEEEED2Ev(%"class.xercesc_2_7::RefHash2KeysTableOf"* %22) #10, !dbg !3408
  %23 = bitcast %"class.xercesc_2_7::RefHash2KeysTableOf"* %22 to i8*, !dbg !3408
  call void @_ZN11xercesc_2_77XMemorydlEPv(i8* %23) #10, !dbg !3408
  br label %delete.end23, !dbg !3408

delete.end23:                                     ; preds = %delete.notnull22, %if.then19
  br label %if.end24, !dbg !3408

if.end24:                                         ; preds = %delete.end23, %if.end17
  %fRecycleNodePtr = getelementptr inbounds %"class.xercesc_2_7::DOMDocumentImpl", %"class.xercesc_2_7::DOMDocumentImpl"* %this1, i32 0, i32 16, !dbg !3409
  %24 = load %"class.xercesc_2_7::RefArrayOf"*, %"class.xercesc_2_7::RefArrayOf"** %fRecycleNodePtr, align 8, !dbg !3409
  %tobool25 = icmp ne %"class.xercesc_2_7::RefArrayOf"* %24, null, !dbg !3409
  br i1 %tobool25, label %if.then26, label %if.end33, !dbg !3411

if.then26:                                        ; preds = %if.end24
  %fRecycleNodePtr27 = getelementptr inbounds %"class.xercesc_2_7::DOMDocumentImpl", %"class.xercesc_2_7::DOMDocumentImpl"* %this1, i32 0, i32 16, !dbg !3412
  %25 = load %"class.xercesc_2_7::RefArrayOf"*, %"class.xercesc_2_7::RefArrayOf"** %fRecycleNodePtr27, align 8, !dbg !3412
  invoke void @_ZN11xercesc_2_710RefArrayOfINS_10RefStackOfINS_7DOMNodeEEEE17deleteAllElementsEv(%"class.xercesc_2_7::RefArrayOf"* %25)
          to label %invoke.cont28 unwind label %lpad, !dbg !3414

invoke.cont28:                                    ; preds = %if.then26
  %fRecycleNodePtr29 = getelementptr inbounds %"class.xercesc_2_7::DOMDocumentImpl", %"class.xercesc_2_7::DOMDocumentImpl"* %this1, i32 0, i32 16, !dbg !3415
  %26 = load %"class.xercesc_2_7::RefArrayOf"*, %"class.xercesc_2_7::RefArrayOf"** %fRecycleNodePtr29, align 8, !dbg !3415
  %isnull30 = icmp eq %"class.xercesc_2_7::RefArrayOf"* %26, null, !dbg !3416
  br i1 %isnull30, label %delete.end32, label %delete.notnull31, !dbg !3416

delete.notnull31:                                 ; preds = %invoke.cont28
  call void @_ZN11xercesc_2_710RefArrayOfINS_10RefStackOfINS_7DOMNodeEEEED2Ev(%"class.xercesc_2_7::RefArrayOf"* %26) #10, !dbg !3416
  %27 = bitcast %"class.xercesc_2_7::RefArrayOf"* %26 to i8*, !dbg !3416
  call void @_ZN11xercesc_2_77XMemorydlEPv(i8* %27) #10, !dbg !3416
  br label %delete.end32, !dbg !3416

delete.end32:                                     ; preds = %delete.notnull31, %invoke.cont28
  br label %if.end33, !dbg !3417

if.end33:                                         ; preds = %delete.end32, %if.end24
  %fRecycleBufferPtr = getelementptr inbounds %"class.xercesc_2_7::DOMDocumentImpl", %"class.xercesc_2_7::DOMDocumentImpl"* %this1, i32 0, i32 17, !dbg !3418
  %28 = load %"class.xercesc_2_7::RefStackOf.0"*, %"class.xercesc_2_7::RefStackOf.0"** %fRecycleBufferPtr, align 8, !dbg !3418
  %tobool34 = icmp ne %"class.xercesc_2_7::RefStackOf.0"* %28, null, !dbg !3418
  br i1 %tobool34, label %if.then35, label %if.end40, !dbg !3420

if.then35:                                        ; preds = %if.end33
  %fRecycleBufferPtr36 = getelementptr inbounds %"class.xercesc_2_7::DOMDocumentImpl", %"class.xercesc_2_7::DOMDocumentImpl"* %this1, i32 0, i32 17, !dbg !3421
  %29 = load %"class.xercesc_2_7::RefStackOf.0"*, %"class.xercesc_2_7::RefStackOf.0"** %fRecycleBufferPtr36, align 8, !dbg !3421
  %isnull37 = icmp eq %"class.xercesc_2_7::RefStackOf.0"* %29, null, !dbg !3423
  br i1 %isnull37, label %delete.end39, label %delete.notnull38, !dbg !3423

delete.notnull38:                                 ; preds = %if.then35
  call void @_ZN11xercesc_2_710RefStackOfINS_9DOMBufferEED2Ev(%"class.xercesc_2_7::RefStackOf.0"* %29) #10, !dbg !3423
  %30 = bitcast %"class.xercesc_2_7::RefStackOf.0"* %29 to i8*, !dbg !3423
  call void @_ZN11xercesc_2_77XMemorydlEPv(i8* %30) #10, !dbg !3423
  br label %delete.end39, !dbg !3423

delete.end39:                                     ; preds = %delete.notnull38, %if.then35
  br label %if.end40, !dbg !3424

if.end40:                                         ; preds = %delete.end39, %if.end33
  %fNormalizer = getelementptr inbounds %"class.xercesc_2_7::DOMDocumentImpl", %"class.xercesc_2_7::DOMDocumentImpl"* %this1, i32 0, i32 22, !dbg !3425
  %31 = load %"class.xercesc_2_7::DOMNormalizer"*, %"class.xercesc_2_7::DOMNormalizer"** %fNormalizer, align 8, !dbg !3425
  %isnull41 = icmp eq %"class.xercesc_2_7::DOMNormalizer"* %31, null, !dbg !3426
  br i1 %isnull41, label %delete.end43, label %delete.notnull42, !dbg !3426

delete.notnull42:                                 ; preds = %if.end40
  call void @_ZN11xercesc_2_713DOMNormalizerD1Ev(%"class.xercesc_2_7::DOMNormalizer"* %31) #10, !dbg !3426
  %32 = bitcast %"class.xercesc_2_7::DOMNormalizer"* %31 to i8*, !dbg !3426
  call void @_ZN11xercesc_2_77XMemorydlEPv(i8* %32) #10, !dbg !3426
  br label %delete.end43, !dbg !3426

delete.end43:                                     ; preds = %delete.notnull42, %if.end40
  invoke void @_ZN11xercesc_2_715DOMDocumentImpl10deleteHeapEv(%"class.xercesc_2_7::DOMDocumentImpl"* %this1)
          to label %invoke.cont44 unwind label %lpad, !dbg !3427

invoke.cont44:                                    ; preds = %delete.end43
  %fUserDataTableKeys = getelementptr inbounds %"class.xercesc_2_7::DOMDocumentImpl", %"class.xercesc_2_7::DOMDocumentImpl"* %this1, i32 0, i32 11, !dbg !3393
  call void @_ZN11xercesc_2_713XMLStringPoolD1Ev(%"class.xercesc_2_7::XMLStringPool"* %fUserDataTableKeys) #10, !dbg !3393
  %fParent = getelementptr inbounds %"class.xercesc_2_7::DOMDocumentImpl", %"class.xercesc_2_7::DOMDocumentImpl"* %this1, i32 0, i32 2, !dbg !3393
  call void @_ZN11xercesc_2_713DOMParentNodeD2Ev(%"class.xercesc_2_7::DOMParentNode"* %fParent) #10, !dbg !3393
  %fNode = getelementptr inbounds %"class.xercesc_2_7::DOMDocumentImpl", %"class.xercesc_2_7::DOMDocumentImpl"* %this1, i32 0, i32 1, !dbg !3393
  call void @_ZN11xercesc_2_711DOMNodeImplD1Ev(%"class.xercesc_2_7::DOMNodeImpl"* %fNode) #10, !dbg !3393
  %33 = bitcast %"class.xercesc_2_7::DOMDocumentImpl"* %this1 to %"class.xercesc_2_7::DOMDocument"*, !dbg !3393
  call void @_ZN11xercesc_2_711DOMDocumentD2Ev(%"class.xercesc_2_7::DOMDocument"* %33) #10, !dbg !3393
  ret void, !dbg !3428

terminate.handler:                                ; preds = %lpad
  %exn = load i8*, i8** %exn.slot, align 8, !dbg !3393
  call void @__clang_call_terminate(i8* %exn) #13, !dbg !3393
  unreachable, !dbg !3393
}

; Function Attrs: noinline uwtable
define linkonce_odr dso_local void @_ZN11xercesc_2_719DOMDeepNodeListPoolINS_19DOMDeepNodeListImplEE7cleanupEv(%"class.xercesc_2_7::DOMDeepNodeListPool"* %this) #3 comdat align 2 !dbg !3429 {
entry:
  %this.addr = alloca %"class.xercesc_2_7::DOMDeepNodeListPool"*, align 8
  store %"class.xercesc_2_7::DOMDeepNodeListPool"* %this, %"class.xercesc_2_7::DOMDeepNodeListPool"** %this.addr, align 8
  call void @llvm.dbg.declare(metadata %"class.xercesc_2_7::DOMDeepNodeListPool"** %this.addr, metadata !3431, metadata !DIExpression()), !dbg !3432
  %this1 = load %"class.xercesc_2_7::DOMDeepNodeListPool"*, %"class.xercesc_2_7::DOMDeepNodeListPool"** %this.addr, align 8
  call void @_ZN11xercesc_2_719DOMDeepNodeListPoolINS_19DOMDeepNodeListImplEE9removeAllEv(%"class.xercesc_2_7::DOMDeepNodeListPool"* %this1), !dbg !3433
  %fMemoryManager = getelementptr inbounds %"class.xercesc_2_7::DOMDeepNodeListPool", %"class.xercesc_2_7::DOMDeepNodeListPool"* %this1, i32 0, i32 7, !dbg !3434
  %0 = load %"class.xercesc_2_7::MemoryManager"*, %"class.xercesc_2_7::MemoryManager"** %fMemoryManager, align 8, !dbg !3434
  %fIdPtrs = getelementptr inbounds %"class.xercesc_2_7::DOMDeepNodeListPool", %"class.xercesc_2_7::DOMDeepNodeListPool"* %this1, i32 0, i32 4, !dbg !3435
  %1 = load %"class.xercesc_2_7::DOMDeepNodeListImpl"**, %"class.xercesc_2_7::DOMDeepNodeListImpl"*** %fIdPtrs, align 8, !dbg !3435
  %2 = bitcast %"class.xercesc_2_7::DOMDeepNodeListImpl"** %1 to i8*, !dbg !3435
  %3 = bitcast %"class.xercesc_2_7::MemoryManager"* %0 to void (%"class.xercesc_2_7::MemoryManager"*, i8*)***, !dbg !3436
  %vtable = load void (%"class.xercesc_2_7::MemoryManager"*, i8*)**, void (%"class.xercesc_2_7::MemoryManager"*, i8*)*** %3, align 8, !dbg !3436
  %vfn = getelementptr inbounds void (%"class.xercesc_2_7::MemoryManager"*, i8*)*, void (%"class.xercesc_2_7::MemoryManager"*, i8*)** %vtable, i64 3, !dbg !3436
  %4 = load void (%"class.xercesc_2_7::MemoryManager"*, i8*)*, void (%"class.xercesc_2_7::MemoryManager"*, i8*)** %vfn, align 8, !dbg !3436
  call void %4(%"class.xercesc_2_7::MemoryManager"* %0, i8* %2), !dbg !3436
  %fMemoryManager2 = getelementptr inbounds %"class.xercesc_2_7::DOMDeepNodeListPool", %"class.xercesc_2_7::DOMDeepNodeListPool"* %this1, i32 0, i32 7, !dbg !3437
  %5 = load %"class.xercesc_2_7::MemoryManager"*, %"class.xercesc_2_7::MemoryManager"** %fMemoryManager2, align 8, !dbg !3437
  %fBucketList = getelementptr inbounds %"class.xercesc_2_7::DOMDeepNodeListPool", %"class.xercesc_2_7::DOMDeepNodeListPool"* %this1, i32 0, i32 1, !dbg !3438
  %6 = load %"struct.xercesc_2_7::DOMDeepNodeListPoolTableBucketElem"**, %"struct.xercesc_2_7::DOMDeepNodeListPoolTableBucketElem"*** %fBucketList, align 8, !dbg !3438
  %7 = bitcast %"struct.xercesc_2_7::DOMDeepNodeListPoolTableBucketElem"** %6 to i8*, !dbg !3438
  %8 = bitcast %"class.xercesc_2_7::MemoryManager"* %5 to void (%"class.xercesc_2_7::MemoryManager"*, i8*)***, !dbg !3439
  %vtable3 = load void (%"class.xercesc_2_7::MemoryManager"*, i8*)**, void (%"class.xercesc_2_7::MemoryManager"*, i8*)*** %8, align 8, !dbg !3439
  %vfn4 = getelementptr inbounds void (%"class.xercesc_2_7::MemoryManager"*, i8*)*, void (%"class.xercesc_2_7::MemoryManager"*, i8*)** %vtable3, i64 3, !dbg !3439
  %9 = load void (%"class.xercesc_2_7::MemoryManager"*, i8*)*, void (%"class.xercesc_2_7::MemoryManager"*, i8*)** %vfn4, align 8, !dbg !3439
  call void %9(%"class.xercesc_2_7::MemoryManager"* %5, i8* %7), !dbg !3439
  %fHash = getelementptr inbounds %"class.xercesc_2_7::DOMDeepNodeListPool", %"class.xercesc_2_7::DOMDeepNodeListPool"* %this1, i32 0, i32 3, !dbg !3440
  %10 = load %"class.xercesc_2_7::HashBase"*, %"class.xercesc_2_7::HashBase"** %fHash, align 8, !dbg !3440
  %isnull = icmp eq %"class.xercesc_2_7::HashBase"* %10, null, !dbg !3441
  br i1 %isnull, label %delete.end, label %delete.notnull, !dbg !3441

delete.notnull:                                   ; preds = %entry
  %11 = bitcast %"class.xercesc_2_7::HashBase"* %10 to void (%"class.xercesc_2_7::HashBase"*)***, !dbg !3441
  %vtable5 = load void (%"class.xercesc_2_7::HashBase"*)**, void (%"class.xercesc_2_7::HashBase"*)*** %11, align 8, !dbg !3441
  %vfn6 = getelementptr inbounds void (%"class.xercesc_2_7::HashBase"*)*, void (%"class.xercesc_2_7::HashBase"*)** %vtable5, i64 3, !dbg !3441
  %12 = load void (%"class.xercesc_2_7::HashBase"*)*, void (%"class.xercesc_2_7::HashBase"*)** %vfn6, align 8, !dbg !3441
  call void %12(%"class.xercesc_2_7::HashBase"* %10) #10, !dbg !3441
  br label %delete.end, !dbg !3441

delete.end:                                       ; preds = %delete.notnull, %entry
  ret void, !dbg !3442
}

; Function Attrs: noinline nounwind uwtable
define linkonce_odr dso_local void @_ZN11xercesc_2_719RefHash2KeysTableOfINS_10KeyRefPairIvNS_18DOMUserDataHandlerEEEED2Ev(%"class.xercesc_2_7::RefHash2KeysTableOf"* %this) unnamed_addr #1 comdat align 2 personality i8* bitcast (i32 (...)* @__gxx_personality_v0 to i8*) !dbg !3443 {
entry:
  %this.addr = alloca %"class.xercesc_2_7::RefHash2KeysTableOf"*, align 8
  store %"class.xercesc_2_7::RefHash2KeysTableOf"* %this, %"class.xercesc_2_7::RefHash2KeysTableOf"** %this.addr, align 8
  call void @llvm.dbg.declare(metadata %"class.xercesc_2_7::RefHash2KeysTableOf"** %this.addr, metadata !3445, metadata !DIExpression()), !dbg !3446
  %this1 = load %"class.xercesc_2_7::RefHash2KeysTableOf"*, %"class.xercesc_2_7::RefHash2KeysTableOf"** %this.addr, align 8
  invoke void @_ZN11xercesc_2_719RefHash2KeysTableOfINS_10KeyRefPairIvNS_18DOMUserDataHandlerEEEE9removeAllEv(%"class.xercesc_2_7::RefHash2KeysTableOf"* %this1)
          to label %invoke.cont unwind label %terminate.lpad, !dbg !3447

invoke.cont:                                      ; preds = %entry
  %fMemoryManager = getelementptr inbounds %"class.xercesc_2_7::RefHash2KeysTableOf", %"class.xercesc_2_7::RefHash2KeysTableOf"* %this1, i32 0, i32 0, !dbg !3449
  %0 = load %"class.xercesc_2_7::MemoryManager"*, %"class.xercesc_2_7::MemoryManager"** %fMemoryManager, align 8, !dbg !3449
  %fBucketList = getelementptr inbounds %"class.xercesc_2_7::RefHash2KeysTableOf", %"class.xercesc_2_7::RefHash2KeysTableOf"* %this1, i32 0, i32 2, !dbg !3450
  %1 = load %"struct.xercesc_2_7::RefHash2KeysTableBucketElem"**, %"struct.xercesc_2_7::RefHash2KeysTableBucketElem"*** %fBucketList, align 8, !dbg !3450
  %2 = bitcast %"struct.xercesc_2_7::RefHash2KeysTableBucketElem"** %1 to i8*, !dbg !3450
  %3 = bitcast %"class.xercesc_2_7::MemoryManager"* %0 to void (%"class.xercesc_2_7::MemoryManager"*, i8*)***, !dbg !3451
  %vtable = load void (%"class.xercesc_2_7::MemoryManager"*, i8*)**, void (%"class.xercesc_2_7::MemoryManager"*, i8*)*** %3, align 8, !dbg !3451
  %vfn = getelementptr inbounds void (%"class.xercesc_2_7::MemoryManager"*, i8*)*, void (%"class.xercesc_2_7::MemoryManager"*, i8*)** %vtable, i64 3, !dbg !3451
  %4 = load void (%"class.xercesc_2_7::MemoryManager"*, i8*)*, void (%"class.xercesc_2_7::MemoryManager"*, i8*)** %vfn, align 8, !dbg !3451
  invoke void %4(%"class.xercesc_2_7::MemoryManager"* %0, i8* %2)
          to label %invoke.cont2 unwind label %terminate.lpad, !dbg !3451

invoke.cont2:                                     ; preds = %invoke.cont
  %fHash = getelementptr inbounds %"class.xercesc_2_7::RefHash2KeysTableOf", %"class.xercesc_2_7::RefHash2KeysTableOf"* %this1, i32 0, i32 5, !dbg !3452
  %5 = load %"class.xercesc_2_7::HashBase"*, %"class.xercesc_2_7::HashBase"** %fHash, align 8, !dbg !3452
  %isnull = icmp eq %"class.xercesc_2_7::HashBase"* %5, null, !dbg !3453
  br i1 %isnull, label %delete.end, label %delete.notnull, !dbg !3453

delete.notnull:                                   ; preds = %invoke.cont2
  %6 = bitcast %"class.xercesc_2_7::HashBase"* %5 to void (%"class.xercesc_2_7::HashBase"*)***, !dbg !3453
  %vtable3 = load void (%"class.xercesc_2_7::HashBase"*)**, void (%"class.xercesc_2_7::HashBase"*)*** %6, align 8, !dbg !3453
  %vfn4 = getelementptr inbounds void (%"class.xercesc_2_7::HashBase"*)*, void (%"class.xercesc_2_7::HashBase"*)** %vtable3, i64 3, !dbg !3453
  %7 = load void (%"class.xercesc_2_7::HashBase"*)*, void (%"class.xercesc_2_7::HashBase"*)** %vfn4, align 8, !dbg !3453
  call void %7(%"class.xercesc_2_7::HashBase"* %5) #10, !dbg !3453
  br label %delete.end, !dbg !3453

delete.end:                                       ; preds = %delete.notnull, %invoke.cont2
  ret void, !dbg !3454

terminate.lpad:                                   ; preds = %invoke.cont, %entry
  %8 = landingpad { i8*, i32 }
          catch i8* null, !dbg !3447
  %9 = extractvalue { i8*, i32 } %8, 0, !dbg !3447
  call void @__clang_call_terminate(i8* %9) #13, !dbg !3447
  unreachable, !dbg !3447
}

; Function Attrs: nounwind
declare dso_local void @_ZN11xercesc_2_77XMemorydlEPv(i8*) #5

; Function Attrs: noinline nounwind uwtable
define linkonce_odr dso_local void @_ZN11xercesc_2_710RefArrayOfINS_10RefStackOfINS_7DOMNodeEEEE17deleteAllElementsEv(%"class.xercesc_2_7::RefArrayOf"* %this) #1 comdat align 2 !dbg !3455 {
entry:
  %this.addr = alloca %"class.xercesc_2_7::RefArrayOf"*, align 8
  %index = alloca i32, align 4
  store %"class.xercesc_2_7::RefArrayOf"* %this, %"class.xercesc_2_7::RefArrayOf"** %this.addr, align 8
  call void @llvm.dbg.declare(metadata %"class.xercesc_2_7::RefArrayOf"** %this.addr, metadata !3457, metadata !DIExpression()), !dbg !3458
  %this1 = load %"class.xercesc_2_7::RefArrayOf"*, %"class.xercesc_2_7::RefArrayOf"** %this.addr, align 8
  call void @llvm.dbg.declare(metadata i32* %index, metadata !3459, metadata !DIExpression()), !dbg !3461
  store i32 0, i32* %index, align 4, !dbg !3461
  br label %for.cond, !dbg !3462

for.cond:                                         ; preds = %for.inc, %entry
  %0 = load i32, i32* %index, align 4, !dbg !3463
  %fSize = getelementptr inbounds %"class.xercesc_2_7::RefArrayOf", %"class.xercesc_2_7::RefArrayOf"* %this1, i32 0, i32 0, !dbg !3465
  %1 = load i32, i32* %fSize, align 8, !dbg !3465
  %cmp = icmp ult i32 %0, %1, !dbg !3466
  br i1 %cmp, label %for.body, label %for.end, !dbg !3467

for.body:                                         ; preds = %for.cond
  %fArray = getelementptr inbounds %"class.xercesc_2_7::RefArrayOf", %"class.xercesc_2_7::RefArrayOf"* %this1, i32 0, i32 1, !dbg !3468
  %2 = load %"class.xercesc_2_7::RefStackOf"**, %"class.xercesc_2_7::RefStackOf"*** %fArray, align 8, !dbg !3468
  %3 = load i32, i32* %index, align 4, !dbg !3470
  %idxprom = zext i32 %3 to i64, !dbg !3468
  %arrayidx = getelementptr inbounds %"class.xercesc_2_7::RefStackOf"*, %"class.xercesc_2_7::RefStackOf"** %2, i64 %idxprom, !dbg !3468
  %4 = load %"class.xercesc_2_7::RefStackOf"*, %"class.xercesc_2_7::RefStackOf"** %arrayidx, align 8, !dbg !3468
  %isnull = icmp eq %"class.xercesc_2_7::RefStackOf"* %4, null, !dbg !3471
  br i1 %isnull, label %delete.end, label %delete.notnull, !dbg !3471

delete.notnull:                                   ; preds = %for.body
  call void @_ZN11xercesc_2_710RefStackOfINS_7DOMNodeEED2Ev(%"class.xercesc_2_7::RefStackOf"* %4) #10, !dbg !3471
  %5 = bitcast %"class.xercesc_2_7::RefStackOf"* %4 to i8*, !dbg !3471
  call void @_ZN11xercesc_2_77XMemorydlEPv(i8* %5) #10, !dbg !3471
  br label %delete.end, !dbg !3471

delete.end:                                       ; preds = %delete.notnull, %for.body
  %fArray2 = getelementptr inbounds %"class.xercesc_2_7::RefArrayOf", %"class.xercesc_2_7::RefArrayOf"* %this1, i32 0, i32 1, !dbg !3472
  %6 = load %"class.xercesc_2_7::RefStackOf"**, %"class.xercesc_2_7::RefStackOf"*** %fArray2, align 8, !dbg !3472
  %7 = load i32, i32* %index, align 4, !dbg !3473
  %idxprom3 = zext i32 %7 to i64, !dbg !3472
  %arrayidx4 = getelementptr inbounds %"class.xercesc_2_7::RefStackOf"*, %"class.xercesc_2_7::RefStackOf"** %6, i64 %idxprom3, !dbg !3472
  store %"class.xercesc_2_7::RefStackOf"* null, %"class.xercesc_2_7::RefStackOf"** %arrayidx4, align 8, !dbg !3474
  br label %for.inc, !dbg !3475

for.inc:                                          ; preds = %delete.end
  %8 = load i32, i32* %index, align 4, !dbg !3476
  %inc = add i32 %8, 1, !dbg !3476
  store i32 %inc, i32* %index, align 4, !dbg !3476
  br label %for.cond, !dbg !3477, !llvm.loop !3478

for.end:                                          ; preds = %for.cond
  ret void, !dbg !3480
}

; Function Attrs: noinline nounwind uwtable
define linkonce_odr dso_local void @_ZN11xercesc_2_710RefArrayOfINS_10RefStackOfINS_7DOMNodeEEEED2Ev(%"class.xercesc_2_7::RefArrayOf"* %this) unnamed_addr #1 comdat align 2 personality i8* bitcast (i32 (...)* @__gxx_personality_v0 to i8*) !dbg !3481 {
entry:
  %this.addr = alloca %"class.xercesc_2_7::RefArrayOf"*, align 8
  store %"class.xercesc_2_7::RefArrayOf"* %this, %"class.xercesc_2_7::RefArrayOf"** %this.addr, align 8
  call void @llvm.dbg.declare(metadata %"class.xercesc_2_7::RefArrayOf"** %this.addr, metadata !3482, metadata !DIExpression()), !dbg !3483
  %this1 = load %"class.xercesc_2_7::RefArrayOf"*, %"class.xercesc_2_7::RefArrayOf"** %this.addr, align 8
  %fMemoryManager = getelementptr inbounds %"class.xercesc_2_7::RefArrayOf", %"class.xercesc_2_7::RefArrayOf"* %this1, i32 0, i32 2, !dbg !3484
  %0 = load %"class.xercesc_2_7::MemoryManager"*, %"class.xercesc_2_7::MemoryManager"** %fMemoryManager, align 8, !dbg !3484
  %fArray = getelementptr inbounds %"class.xercesc_2_7::RefArrayOf", %"class.xercesc_2_7::RefArrayOf"* %this1, i32 0, i32 1, !dbg !3486
  %1 = load %"class.xercesc_2_7::RefStackOf"**, %"class.xercesc_2_7::RefStackOf"*** %fArray, align 8, !dbg !3486
  %2 = bitcast %"class.xercesc_2_7::RefStackOf"** %1 to i8*, !dbg !3486
  %3 = bitcast %"class.xercesc_2_7::MemoryManager"* %0 to void (%"class.xercesc_2_7::MemoryManager"*, i8*)***, !dbg !3487
  %vtable = load void (%"class.xercesc_2_7::MemoryManager"*, i8*)**, void (%"class.xercesc_2_7::MemoryManager"*, i8*)*** %3, align 8, !dbg !3487
  %vfn = getelementptr inbounds void (%"class.xercesc_2_7::MemoryManager"*, i8*)*, void (%"class.xercesc_2_7::MemoryManager"*, i8*)** %vtable, i64 3, !dbg !3487
  %4 = load void (%"class.xercesc_2_7::MemoryManager"*, i8*)*, void (%"class.xercesc_2_7::MemoryManager"*, i8*)** %vfn, align 8, !dbg !3487
  invoke void %4(%"class.xercesc_2_7::MemoryManager"* %0, i8* %2)
          to label %invoke.cont unwind label %terminate.lpad, !dbg !3487

invoke.cont:                                      ; preds = %entry
  ret void, !dbg !3488

terminate.lpad:                                   ; preds = %entry
  %5 = landingpad { i8*, i32 }
          catch i8* null, !dbg !3487
  %6 = extractvalue { i8*, i32 } %5, 0, !dbg !3487
  call void @__clang_call_terminate(i8* %6) #13, !dbg !3487
  unreachable, !dbg !3487
}

; Function Attrs: noinline nounwind uwtable
define linkonce_odr dso_local void @_ZN11xercesc_2_710RefStackOfINS_9DOMBufferEED2Ev(%"class.xercesc_2_7::RefStackOf.0"* %this) unnamed_addr #1 comdat align 2 !dbg !3489 {
entry:
  %this.addr = alloca %"class.xercesc_2_7::RefStackOf.0"*, align 8
  store %"class.xercesc_2_7::RefStackOf.0"* %this, %"class.xercesc_2_7::RefStackOf.0"** %this.addr, align 8
  call void @llvm.dbg.declare(metadata %"class.xercesc_2_7::RefStackOf.0"** %this.addr, metadata !3491, metadata !DIExpression()), !dbg !3492
  %this1 = load %"class.xercesc_2_7::RefStackOf.0"*, %"class.xercesc_2_7::RefStackOf.0"** %this.addr, align 8
  %fVector = getelementptr inbounds %"class.xercesc_2_7::RefStackOf.0", %"class.xercesc_2_7::RefStackOf.0"* %this1, i32 0, i32 1, !dbg !3493
  call void @_ZN11xercesc_2_711RefVectorOfINS_9DOMBufferEED2Ev(%"class.xercesc_2_7::RefVectorOf.1"* %fVector) #10, !dbg !3493
  ret void, !dbg !3495
}

; Function Attrs: nounwind
declare dso_local void @_ZN11xercesc_2_713DOMNormalizerD1Ev(%"class.xercesc_2_7::DOMNormalizer"*) unnamed_addr #5

; Function Attrs: noinline nounwind uwtable
define dso_local void @_ZThn8_N11xercesc_2_715DOMDocumentImplD1Ev(%"class.xercesc_2_7::DOMDocumentImpl"* %this) unnamed_addr #1 align 2 !dbg !3496 {
entry:
  %this.addr = alloca %"class.xercesc_2_7::DOMDocumentImpl"*, align 8
  store %"class.xercesc_2_7::DOMDocumentImpl"* %this, %"class.xercesc_2_7::DOMDocumentImpl"** %this.addr, align 8
  %this1 = load %"class.xercesc_2_7::DOMDocumentImpl"*, %"class.xercesc_2_7::DOMDocumentImpl"** %this.addr, align 8, !dbg !3498
  %0 = bitcast %"class.xercesc_2_7::DOMDocumentImpl"* %this1 to i8*, !dbg !3498
  %1 = getelementptr inbounds i8, i8* %0, i64 -8, !dbg !3498
  %2 = bitcast i8* %1 to %"class.xercesc_2_7::DOMDocumentImpl"*, !dbg !3498
  tail call void @_ZN11xercesc_2_715DOMDocumentImplD1Ev(%"class.xercesc_2_7::DOMDocumentImpl"* %2) #10, !dbg !3498
  ret void, !dbg !3498
}

; Function Attrs: noinline nounwind uwtable
define dso_local void @_ZThn16_N11xercesc_2_715DOMDocumentImplD1Ev(%"class.xercesc_2_7::DOMDocumentImpl"* %this) unnamed_addr #1 align 2 !dbg !3499 {
entry:
  %this.addr = alloca %"class.xercesc_2_7::DOMDocumentImpl"*, align 8
  store %"class.xercesc_2_7::DOMDocumentImpl"* %this, %"class.xercesc_2_7::DOMDocumentImpl"** %this.addr, align 8
  %this1 = load %"class.xercesc_2_7::DOMDocumentImpl"*, %"class.xercesc_2_7::DOMDocumentImpl"** %this.addr, align 8, !dbg !3500
  %0 = bitcast %"class.xercesc_2_7::DOMDocumentImpl"* %this1 to i8*, !dbg !3500
  %1 = getelementptr inbounds i8, i8* %0, i64 -16, !dbg !3500
  %2 = bitcast i8* %1 to %"class.xercesc_2_7::DOMDocumentImpl"*, !dbg !3500
  tail call void @_ZN11xercesc_2_715DOMDocumentImplD1Ev(%"class.xercesc_2_7::DOMDocumentImpl"* %2) #10, !dbg !3500
  ret void, !dbg !3500
}

; Function Attrs: noinline nounwind uwtable
define dso_local void @_ZThn24_N11xercesc_2_715DOMDocumentImplD1Ev(%"class.xercesc_2_7::DOMDocumentImpl"* %this) unnamed_addr #1 align 2 !dbg !3501 {
entry:
  %this.addr = alloca %"class.xercesc_2_7::DOMDocumentImpl"*, align 8
  store %"class.xercesc_2_7::DOMDocumentImpl"* %this, %"class.xercesc_2_7::DOMDocumentImpl"** %this.addr, align 8
  %this1 = load %"class.xercesc_2_7::DOMDocumentImpl"*, %"class.xercesc_2_7::DOMDocumentImpl"** %this.addr, align 8, !dbg !3502
  %0 = bitcast %"class.xercesc_2_7::DOMDocumentImpl"* %this1 to i8*, !dbg !3502
  %1 = getelementptr inbounds i8, i8* %0, i64 -24, !dbg !3502
  %2 = bitcast i8* %1 to %"class.xercesc_2_7::DOMDocumentImpl"*, !dbg !3502
  tail call void @_ZN11xercesc_2_715DOMDocumentImplD1Ev(%"class.xercesc_2_7::DOMDocumentImpl"* %2) #10, !dbg !3502
  ret void, !dbg !3502
}

; Function Attrs: noinline nounwind uwtable
define dso_local void @_ZN11xercesc_2_715DOMDocumentImplD0Ev(%"class.xercesc_2_7::DOMDocumentImpl"* %this) unnamed_addr #1 align 2 !dbg !3503 {
entry:
  %this.addr = alloca %"class.xercesc_2_7::DOMDocumentImpl"*, align 8
  store %"class.xercesc_2_7::DOMDocumentImpl"* %this, %"class.xercesc_2_7::DOMDocumentImpl"** %this.addr, align 8
  call void @llvm.dbg.declare(metadata %"class.xercesc_2_7::DOMDocumentImpl"** %this.addr, metadata !3504, metadata !DIExpression()), !dbg !3505
  %this1 = load %"class.xercesc_2_7::DOMDocumentImpl"*, %"class.xercesc_2_7::DOMDocumentImpl"** %this.addr, align 8
  call void @_ZN11xercesc_2_715DOMDocumentImplD1Ev(%"class.xercesc_2_7::DOMDocumentImpl"* %this1) #10, !dbg !3506
  %0 = bitcast %"class.xercesc_2_7::DOMDocumentImpl"* %this1 to i8*, !dbg !3506
  call void @_ZN11xercesc_2_77XMemorydlEPv(i8* %0) #10, !dbg !3506
  ret void, !dbg !3507
}

; Function Attrs: noinline nounwind uwtable
define dso_local void @_ZThn8_N11xercesc_2_715DOMDocumentImplD0Ev(%"class.xercesc_2_7::DOMDocumentImpl"* %this) unnamed_addr #1 align 2 !dbg !3508 {
entry:
  %this.addr = alloca %"class.xercesc_2_7::DOMDocumentImpl"*, align 8
  store %"class.xercesc_2_7::DOMDocumentImpl"* %this, %"class.xercesc_2_7::DOMDocumentImpl"** %this.addr, align 8
  %this1 = load %"class.xercesc_2_7::DOMDocumentImpl"*, %"class.xercesc_2_7::DOMDocumentImpl"** %this.addr, align 8, !dbg !3509
  %0 = bitcast %"class.xercesc_2_7::DOMDocumentImpl"* %this1 to i8*, !dbg !3509
  %1 = getelementptr inbounds i8, i8* %0, i64 -8, !dbg !3509
  %2 = bitcast i8* %1 to %"class.xercesc_2_7::DOMDocumentImpl"*, !dbg !3509
  tail call void @_ZN11xercesc_2_715DOMDocumentImplD0Ev(%"class.xercesc_2_7::DOMDocumentImpl"* %2) #10, !dbg !3509
  ret void, !dbg !3509
}

; Function Attrs: noinline nounwind uwtable
define dso_local void @_ZThn16_N11xercesc_2_715DOMDocumentImplD0Ev(%"class.xercesc_2_7::DOMDocumentImpl"* %this) unnamed_addr #1 align 2 !dbg !3510 {
entry:
  %this.addr = alloca %"class.xercesc_2_7::DOMDocumentImpl"*, align 8
  store %"class.xercesc_2_7::DOMDocumentImpl"* %this, %"class.xercesc_2_7::DOMDocumentImpl"** %this.addr, align 8
  %this1 = load %"class.xercesc_2_7::DOMDocumentImpl"*, %"class.xercesc_2_7::DOMDocumentImpl"** %this.addr, align 8, !dbg !3511
  %0 = bitcast %"class.xercesc_2_7::DOMDocumentImpl"* %this1 to i8*, !dbg !3511
  %1 = getelementptr inbounds i8, i8* %0, i64 -16, !dbg !3511
  %2 = bitcast i8* %1 to %"class.xercesc_2_7::DOMDocumentImpl"*, !dbg !3511
  tail call void @_ZN11xercesc_2_715DOMDocumentImplD0Ev(%"class.xercesc_2_7::DOMDocumentImpl"* %2) #10, !dbg !3511
  ret void, !dbg !3511
}

; Function Attrs: noinline nounwind uwtable
define dso_local void @_ZThn24_N11xercesc_2_715DOMDocumentImplD0Ev(%"class.xercesc_2_7::DOMDocumentImpl"* %this) unnamed_addr #1 align 2 !dbg !3512 {
entry:
  %this.addr = alloca %"class.xercesc_2_7::DOMDocumentImpl"*, align 8
  store %"class.xercesc_2_7::DOMDocumentImpl"* %this, %"class.xercesc_2_7::DOMDocumentImpl"** %this.addr, align 8
  %this1 = load %"class.xercesc_2_7::DOMDocumentImpl"*, %"class.xercesc_2_7::DOMDocumentImpl"** %this.addr, align 8, !dbg !3513
  %0 = bitcast %"class.xercesc_2_7::DOMDocumentImpl"* %this1 to i8*, !dbg !3513
  %1 = getelementptr inbounds i8, i8* %0, i64 -24, !dbg !3513
  %2 = bitcast i8* %1 to %"class.xercesc_2_7::DOMDocumentImpl"*, !dbg !3513
  tail call void @_ZN11xercesc_2_715DOMDocumentImplD0Ev(%"class.xercesc_2_7::DOMDocumentImpl"* %2) #10, !dbg !3513
  ret void, !dbg !3513
}

; Function Attrs: noinline uwtable
define dso_local %"class.xercesc_2_7::DOMNode"* @_ZNK11xercesc_2_715DOMDocumentImpl9cloneNodeEb(%"class.xercesc_2_7::DOMDocumentImpl"* %this, i1 zeroext %deep) unnamed_addr #3 align 2 personality i8* bitcast (i32 (...)* @__gxx_personality_v0 to i8*) !dbg !3514 {
entry:
  %this.addr = alloca %"class.xercesc_2_7::DOMDocumentImpl"*, align 8
  %deep.addr = alloca i8, align 1
  %newdoc = alloca %"class.xercesc_2_7::DOMDocumentImpl"*, align 8
  %exn.slot = alloca i8*
  %ehselector.slot = alloca i32
  %n = alloca %"class.xercesc_2_7::DOMNode"*, align 8
  store %"class.xercesc_2_7::DOMDocumentImpl"* %this, %"class.xercesc_2_7::DOMDocumentImpl"** %this.addr, align 8
  call void @llvm.dbg.declare(metadata %"class.xercesc_2_7::DOMDocumentImpl"** %this.addr, metadata !3515, metadata !DIExpression()), !dbg !3516
  %frombool = zext i1 %deep to i8
  store i8 %frombool, i8* %deep.addr, align 1
  call void @llvm.dbg.declare(metadata i8* %deep.addr, metadata !3517, metadata !DIExpression()), !dbg !3518
  %this1 = load %"class.xercesc_2_7::DOMDocumentImpl"*, %"class.xercesc_2_7::DOMDocumentImpl"** %this.addr, align 8
  call void @llvm.dbg.declare(metadata %"class.xercesc_2_7::DOMDocumentImpl"** %newdoc, metadata !3519, metadata !DIExpression()), !dbg !3520
  %fMemoryManager = getelementptr inbounds %"class.xercesc_2_7::DOMDocumentImpl", %"class.xercesc_2_7::DOMDocumentImpl"* %this1, i32 0, i32 25, !dbg !3521
  %0 = load %"class.xercesc_2_7::MemoryManager"*, %"class.xercesc_2_7::MemoryManager"** %fMemoryManager, align 8, !dbg !3521
  %call = call i8* @_ZN11xercesc_2_77XMemorynwEmPNS_13MemoryManagerE(i64 296, %"class.xercesc_2_7::MemoryManager"* %0), !dbg !3522
  %1 = bitcast i8* %call to %"class.xercesc_2_7::DOMDocumentImpl"*, !dbg !3522
  %fMemoryManager2 = getelementptr inbounds %"class.xercesc_2_7::DOMDocumentImpl", %"class.xercesc_2_7::DOMDocumentImpl"* %this1, i32 0, i32 25, !dbg !3523
  %2 = load %"class.xercesc_2_7::MemoryManager"*, %"class.xercesc_2_7::MemoryManager"** %fMemoryManager2, align 8, !dbg !3523
  invoke void @_ZN11xercesc_2_715DOMDocumentImplC1EPNS_13MemoryManagerE(%"class.xercesc_2_7::DOMDocumentImpl"* %1, %"class.xercesc_2_7::MemoryManager"* %2)
          to label %invoke.cont unwind label %lpad, !dbg !3524

invoke.cont:                                      ; preds = %entry
  store %"class.xercesc_2_7::DOMDocumentImpl"* %1, %"class.xercesc_2_7::DOMDocumentImpl"** %newdoc, align 8, !dbg !3520
  %fEncoding = getelementptr inbounds %"class.xercesc_2_7::DOMDocumentImpl", %"class.xercesc_2_7::DOMDocumentImpl"* %this1, i32 0, i32 5, !dbg !3525
  %3 = load i16*, i16** %fEncoding, align 8, !dbg !3525
  %tobool = icmp ne i16* %3, null, !dbg !3525
  br i1 %tobool, label %land.lhs.true, label %if.end, !dbg !3527

land.lhs.true:                                    ; preds = %invoke.cont
  %fEncoding3 = getelementptr inbounds %"class.xercesc_2_7::DOMDocumentImpl", %"class.xercesc_2_7::DOMDocumentImpl"* %this1, i32 0, i32 5, !dbg !3528
  %4 = load i16*, i16** %fEncoding3, align 8, !dbg !3528
  %5 = load i16, i16* %4, align 2, !dbg !3529
  %tobool4 = icmp ne i16 %5, 0, !dbg !3529
  br i1 %tobool4, label %if.then, label %if.end, !dbg !3530

if.then:                                          ; preds = %land.lhs.true
  %6 = load %"class.xercesc_2_7::DOMDocumentImpl"*, %"class.xercesc_2_7::DOMDocumentImpl"** %newdoc, align 8, !dbg !3531
  %fEncoding5 = getelementptr inbounds %"class.xercesc_2_7::DOMDocumentImpl", %"class.xercesc_2_7::DOMDocumentImpl"* %this1, i32 0, i32 5, !dbg !3532
  %7 = load i16*, i16** %fEncoding5, align 8, !dbg !3532
  %8 = bitcast %"class.xercesc_2_7::DOMDocumentImpl"* %6 to void (%"class.xercesc_2_7::DOMDocumentImpl"*, i16*)***, !dbg !3533
  %vtable = load void (%"class.xercesc_2_7::DOMDocumentImpl"*, i16*)**, void (%"class.xercesc_2_7::DOMDocumentImpl"*, i16*)*** %8, align 8, !dbg !3533
  %vfn = getelementptr inbounds void (%"class.xercesc_2_7::DOMDocumentImpl"*, i16*)*, void (%"class.xercesc_2_7::DOMDocumentImpl"*, i16*)** %vtable, i64 23, !dbg !3533
  %9 = load void (%"class.xercesc_2_7::DOMDocumentImpl"*, i16*)*, void (%"class.xercesc_2_7::DOMDocumentImpl"*, i16*)** %vfn, align 8, !dbg !3533
  call void %9(%"class.xercesc_2_7::DOMDocumentImpl"* %6, i16* %7), !dbg !3533
  br label %if.end, !dbg !3531

lpad:                                             ; preds = %entry
  %10 = landingpad { i8*, i32 }
          cleanup, !dbg !3534
  %11 = extractvalue { i8*, i32 } %10, 0, !dbg !3534
  store i8* %11, i8** %exn.slot, align 8, !dbg !3534
  %12 = extractvalue { i8*, i32 } %10, 1, !dbg !3534
  store i32 %12, i32* %ehselector.slot, align 4, !dbg !3534
  call void @_ZN11xercesc_2_77XMemorydlEPvPNS_13MemoryManagerE(i8* %call, %"class.xercesc_2_7::MemoryManager"* %0) #10, !dbg !3522
  br label %eh.resume, !dbg !3522

if.end:                                           ; preds = %if.then, %land.lhs.true, %invoke.cont
  %fVersion = getelementptr inbounds %"class.xercesc_2_7::DOMDocumentImpl", %"class.xercesc_2_7::DOMDocumentImpl"* %this1, i32 0, i32 8, !dbg !3535
  %13 = load i16*, i16** %fVersion, align 8, !dbg !3535
  %tobool6 = icmp ne i16* %13, null, !dbg !3535
  br i1 %tobool6, label %land.lhs.true7, label %if.end14, !dbg !3537

land.lhs.true7:                                   ; preds = %if.end
  %fVersion8 = getelementptr inbounds %"class.xercesc_2_7::DOMDocumentImpl", %"class.xercesc_2_7::DOMDocumentImpl"* %this1, i32 0, i32 8, !dbg !3538
  %14 = load i16*, i16** %fVersion8, align 8, !dbg !3538
  %15 = load i16, i16* %14, align 2, !dbg !3539
  %tobool9 = icmp ne i16 %15, 0, !dbg !3539
  br i1 %tobool9, label %if.then10, label %if.end14, !dbg !3540

if.then10:                                        ; preds = %land.lhs.true7
  %16 = load %"class.xercesc_2_7::DOMDocumentImpl"*, %"class.xercesc_2_7::DOMDocumentImpl"** %newdoc, align 8, !dbg !3541
  %fVersion11 = getelementptr inbounds %"class.xercesc_2_7::DOMDocumentImpl", %"class.xercesc_2_7::DOMDocumentImpl"* %this1, i32 0, i32 8, !dbg !3542
  %17 = load i16*, i16** %fVersion11, align 8, !dbg !3542
  %18 = bitcast %"class.xercesc_2_7::DOMDocumentImpl"* %16 to void (%"class.xercesc_2_7::DOMDocumentImpl"*, i16*)***, !dbg !3543
  %vtable12 = load void (%"class.xercesc_2_7::DOMDocumentImpl"*, i16*)**, void (%"class.xercesc_2_7::DOMDocumentImpl"*, i16*)*** %18, align 8, !dbg !3543
  %vfn13 = getelementptr inbounds void (%"class.xercesc_2_7::DOMDocumentImpl"*, i16*)*, void (%"class.xercesc_2_7::DOMDocumentImpl"*, i16*)** %vtable12, i64 27, !dbg !3543
  %19 = load void (%"class.xercesc_2_7::DOMDocumentImpl"*, i16*)*, void (%"class.xercesc_2_7::DOMDocumentImpl"*, i16*)** %vfn13, align 8, !dbg !3543
  call void %19(%"class.xercesc_2_7::DOMDocumentImpl"* %16, i16* %17), !dbg !3543
  br label %if.end14, !dbg !3541

if.end14:                                         ; preds = %if.then10, %land.lhs.true7, %if.end
  %20 = load %"class.xercesc_2_7::DOMDocumentImpl"*, %"class.xercesc_2_7::DOMDocumentImpl"** %newdoc, align 8, !dbg !3544
  %fStandalone = getelementptr inbounds %"class.xercesc_2_7::DOMDocumentImpl", %"class.xercesc_2_7::DOMDocumentImpl"* %this1, i32 0, i32 6, !dbg !3545
  %21 = load i8, i8* %fStandalone, align 8, !dbg !3545
  %tobool15 = trunc i8 %21 to i1, !dbg !3545
  %22 = bitcast %"class.xercesc_2_7::DOMDocumentImpl"* %20 to void (%"class.xercesc_2_7::DOMDocumentImpl"*, i1)***, !dbg !3546
  %vtable16 = load void (%"class.xercesc_2_7::DOMDocumentImpl"*, i1)**, void (%"class.xercesc_2_7::DOMDocumentImpl"*, i1)*** %22, align 8, !dbg !3546
  %vfn17 = getelementptr inbounds void (%"class.xercesc_2_7::DOMDocumentImpl"*, i1)*, void (%"class.xercesc_2_7::DOMDocumentImpl"*, i1)** %vtable16, i64 25, !dbg !3546
  %23 = load void (%"class.xercesc_2_7::DOMDocumentImpl"*, i1)*, void (%"class.xercesc_2_7::DOMDocumentImpl"*, i1)** %vfn17, align 8, !dbg !3546
  call void %23(%"class.xercesc_2_7::DOMDocumentImpl"* %20, i1 zeroext %tobool15), !dbg !3546
  %24 = load i8, i8* %deep.addr, align 1, !dbg !3547
  %tobool18 = trunc i8 %24 to i1, !dbg !3547
  br i1 %tobool18, label %if.then19, label %if.end32, !dbg !3549

if.then19:                                        ; preds = %if.end14
  call void @llvm.dbg.declare(metadata %"class.xercesc_2_7::DOMNode"** %n, metadata !3550, metadata !DIExpression()), !dbg !3552
  %25 = bitcast %"class.xercesc_2_7::DOMDocumentImpl"* %this1 to %"class.xercesc_2_7::DOMNode"* (%"class.xercesc_2_7::DOMDocumentImpl"*)***, !dbg !3553
  %vtable20 = load %"class.xercesc_2_7::DOMNode"* (%"class.xercesc_2_7::DOMDocumentImpl"*)**, %"class.xercesc_2_7::DOMNode"* (%"class.xercesc_2_7::DOMDocumentImpl"*)*** %25, align 8, !dbg !3553
  %vfn21 = getelementptr inbounds %"class.xercesc_2_7::DOMNode"* (%"class.xercesc_2_7::DOMDocumentImpl"*)*, %"class.xercesc_2_7::DOMNode"* (%"class.xercesc_2_7::DOMDocumentImpl"*)** %vtable20, i64 45, !dbg !3553
  %26 = load %"class.xercesc_2_7::DOMNode"* (%"class.xercesc_2_7::DOMDocumentImpl"*)*, %"class.xercesc_2_7::DOMNode"* (%"class.xercesc_2_7::DOMDocumentImpl"*)** %vfn21, align 8, !dbg !3553
  %call22 = call %"class.xercesc_2_7::DOMNode"* %26(%"class.xercesc_2_7::DOMDocumentImpl"* %this1), !dbg !3553
  store %"class.xercesc_2_7::DOMNode"* %call22, %"class.xercesc_2_7::DOMNode"** %n, align 8, !dbg !3552
  br label %for.cond, !dbg !3554

for.cond:                                         ; preds = %for.inc, %if.then19
  %27 = load %"class.xercesc_2_7::DOMNode"*, %"class.xercesc_2_7::DOMNode"** %n, align 8, !dbg !3555
  %cmp = icmp ne %"class.xercesc_2_7::DOMNode"* %27, null, !dbg !3557
  br i1 %cmp, label %for.body, label %for.end, !dbg !3558

for.body:                                         ; preds = %for.cond
  %28 = load %"class.xercesc_2_7::DOMDocumentImpl"*, %"class.xercesc_2_7::DOMDocumentImpl"** %newdoc, align 8, !dbg !3559
  %29 = load %"class.xercesc_2_7::DOMDocumentImpl"*, %"class.xercesc_2_7::DOMDocumentImpl"** %newdoc, align 8, !dbg !3561
  %30 = load %"class.xercesc_2_7::DOMNode"*, %"class.xercesc_2_7::DOMNode"** %n, align 8, !dbg !3562
  %31 = bitcast %"class.xercesc_2_7::DOMDocumentImpl"* %29 to %"class.xercesc_2_7::DOMNode"* (%"class.xercesc_2_7::DOMDocumentImpl"*, %"class.xercesc_2_7::DOMNode"*, i1, i1)***, !dbg !3563
  %vtable23 = load %"class.xercesc_2_7::DOMNode"* (%"class.xercesc_2_7::DOMDocumentImpl"*, %"class.xercesc_2_7::DOMNode"*, i1, i1)**, %"class.xercesc_2_7::DOMNode"* (%"class.xercesc_2_7::DOMDocumentImpl"*, %"class.xercesc_2_7::DOMNode"*, i1, i1)*** %31, align 8, !dbg !3563
  %vfn24 = getelementptr inbounds %"class.xercesc_2_7::DOMNode"* (%"class.xercesc_2_7::DOMDocumentImpl"*, %"class.xercesc_2_7::DOMNode"*, i1, i1)*, %"class.xercesc_2_7::DOMNode"* (%"class.xercesc_2_7::DOMDocumentImpl"*, %"class.xercesc_2_7::DOMNode"*, i1, i1)** %vtable23, i64 92, !dbg !3563
  %32 = load %"class.xercesc_2_7::DOMNode"* (%"class.xercesc_2_7::DOMDocumentImpl"*, %"class.xercesc_2_7::DOMNode"*, i1, i1)*, %"class.xercesc_2_7::DOMNode"* (%"class.xercesc_2_7::DOMDocumentImpl"*, %"class.xercesc_2_7::DOMNode"*, i1, i1)** %vfn24, align 8, !dbg !3563
  %call25 = call %"class.xercesc_2_7::DOMNode"* %32(%"class.xercesc_2_7::DOMDocumentImpl"* %29, %"class.xercesc_2_7::DOMNode"* %30, i1 zeroext true, i1 zeroext true), !dbg !3563
  %33 = bitcast %"class.xercesc_2_7::DOMDocumentImpl"* %28 to %"class.xercesc_2_7::DOMNode"* (%"class.xercesc_2_7::DOMDocumentImpl"*, %"class.xercesc_2_7::DOMNode"*)***, !dbg !3564
  %vtable26 = load %"class.xercesc_2_7::DOMNode"* (%"class.xercesc_2_7::DOMDocumentImpl"*, %"class.xercesc_2_7::DOMNode"*)**, %"class.xercesc_2_7::DOMNode"* (%"class.xercesc_2_7::DOMDocumentImpl"*, %"class.xercesc_2_7::DOMNode"*)*** %33, align 8, !dbg !3564
  %vfn27 = getelementptr inbounds %"class.xercesc_2_7::DOMNode"* (%"class.xercesc_2_7::DOMDocumentImpl"*, %"class.xercesc_2_7::DOMNode"*)*, %"class.xercesc_2_7::DOMNode"* (%"class.xercesc_2_7::DOMDocumentImpl"*, %"class.xercesc_2_7::DOMNode"*)** %vtable26, i64 41, !dbg !3564
  %34 = load %"class.xercesc_2_7::DOMNode"* (%"class.xercesc_2_7::DOMDocumentImpl"*, %"class.xercesc_2_7::DOMNode"*)*, %"class.xercesc_2_7::DOMNode"* (%"class.xercesc_2_7::DOMDocumentImpl"*, %"class.xercesc_2_7::DOMNode"*)** %vfn27, align 8, !dbg !3564
  %call28 = call %"class.xercesc_2_7::DOMNode"* %34(%"class.xercesc_2_7::DOMDocumentImpl"* %28, %"class.xercesc_2_7::DOMNode"* %call25), !dbg !3564
  br label %for.inc, !dbg !3565

for.inc:                                          ; preds = %for.body
  %35 = load %"class.xercesc_2_7::DOMNode"*, %"class.xercesc_2_7::DOMNode"** %n, align 8, !dbg !3566
  %36 = bitcast %"class.xercesc_2_7::DOMNode"* %35 to %"class.xercesc_2_7::DOMNode"* (%"class.xercesc_2_7::DOMNode"*)***, !dbg !3567
  %vtable29 = load %"class.xercesc_2_7::DOMNode"* (%"class.xercesc_2_7::DOMNode"*)**, %"class.xercesc_2_7::DOMNode"* (%"class.xercesc_2_7::DOMNode"*)*** %36, align 8, !dbg !3567
  %vfn30 = getelementptr inbounds %"class.xercesc_2_7::DOMNode"* (%"class.xercesc_2_7::DOMNode"*)*, %"class.xercesc_2_7::DOMNode"* (%"class.xercesc_2_7::DOMNode"*)** %vtable29, i64 10, !dbg !3567
  %37 = load %"class.xercesc_2_7::DOMNode"* (%"class.xercesc_2_7::DOMNode"*)*, %"class.xercesc_2_7::DOMNode"* (%"class.xercesc_2_7::DOMNode"*)** %vfn30, align 8, !dbg !3567
  %call31 = call %"class.xercesc_2_7::DOMNode"* %37(%"class.xercesc_2_7::DOMNode"* %35), !dbg !3567
  store %"class.xercesc_2_7::DOMNode"* %call31, %"class.xercesc_2_7::DOMNode"** %n, align 8, !dbg !3568
  br label %for.cond, !dbg !3569, !llvm.loop !3570

for.end:                                          ; preds = %for.cond
  br label %if.end32, !dbg !3571

if.end32:                                         ; preds = %for.end, %if.end14
  %fNode = getelementptr inbounds %"class.xercesc_2_7::DOMDocumentImpl", %"class.xercesc_2_7::DOMDocumentImpl"* %this1, i32 0, i32 1, !dbg !3572
  %38 = bitcast %"class.xercesc_2_7::DOMDocumentImpl"* %this1 to i8*, !dbg !3573
  %add.ptr = getelementptr inbounds i8, i8* %38, i64 24, !dbg !3573
  %39 = bitcast i8* %add.ptr to %"class.xercesc_2_7::DOMNode"*, !dbg !3573
  %40 = load %"class.xercesc_2_7::DOMDocumentImpl"*, %"class.xercesc_2_7::DOMDocumentImpl"** %newdoc, align 8, !dbg !3574
  %41 = icmp eq %"class.xercesc_2_7::DOMDocumentImpl"* %40, null, !dbg !3574
  br i1 %41, label %cast.end, label %cast.notnull, !dbg !3574

cast.notnull:                                     ; preds = %if.end32
  %42 = bitcast %"class.xercesc_2_7::DOMDocumentImpl"* %40 to i8*, !dbg !3574
  %add.ptr33 = getelementptr inbounds i8, i8* %42, i64 24, !dbg !3574
  %43 = bitcast i8* %add.ptr33 to %"class.xercesc_2_7::DOMNode"*, !dbg !3574
  br label %cast.end, !dbg !3574

cast.end:                                         ; preds = %cast.notnull, %if.end32
  %cast.result = phi %"class.xercesc_2_7::DOMNode"* [ %43, %cast.notnull ], [ null, %if.end32 ], !dbg !3574
  call void @_ZNK11xercesc_2_711DOMNodeImpl20callUserDataHandlersENS_18DOMUserDataHandler16DOMOperationTypeEPKNS_7DOMNodeES5_(%"class.xercesc_2_7::DOMNodeImpl"* %fNode, i32 1, %"class.xercesc_2_7::DOMNode"* %39, %"class.xercesc_2_7::DOMNode"* %cast.result), !dbg !3575
  %44 = load %"class.xercesc_2_7::DOMDocumentImpl"*, %"class.xercesc_2_7::DOMDocumentImpl"** %newdoc, align 8, !dbg !3576
  %45 = icmp eq %"class.xercesc_2_7::DOMDocumentImpl"* %44, null, !dbg !3576
  br i1 %45, label %cast.end36, label %cast.notnull34, !dbg !3576

cast.notnull34:                                   ; preds = %cast.end
  %46 = bitcast %"class.xercesc_2_7::DOMDocumentImpl"* %44 to i8*, !dbg !3576
  %add.ptr35 = getelementptr inbounds i8, i8* %46, i64 24, !dbg !3576
  %47 = bitcast i8* %add.ptr35 to %"class.xercesc_2_7::DOMNode"*, !dbg !3576
  br label %cast.end36, !dbg !3576

cast.end36:                                       ; preds = %cast.notnull34, %cast.end
  %cast.result37 = phi %"class.xercesc_2_7::DOMNode"* [ %47, %cast.notnull34 ], [ null, %cast.end ], !dbg !3576
  ret %"class.xercesc_2_7::DOMNode"* %cast.result37, !dbg !3577

eh.resume:                                        ; preds = %lpad
  %exn = load i8*, i8** %exn.slot, align 8, !dbg !3522
  %sel = load i32, i32* %ehselector.slot, align 4, !dbg !3522
  %lpad.val = insertvalue { i8*, i32 } undef, i8* %exn, 0, !dbg !3522
  %lpad.val38 = insertvalue { i8*, i32 } %lpad.val, i32 %sel, 1, !dbg !3522
  resume { i8*, i32 } %lpad.val38, !dbg !3522
}

declare dso_local i8* @_ZN11xercesc_2_77XMemorynwEmPNS_13MemoryManagerE(i64, %"class.xercesc_2_7::MemoryManager"*) #4

; Function Attrs: nounwind
declare dso_local void @_ZN11xercesc_2_77XMemorydlEPvPNS_13MemoryManagerE(i8*, %"class.xercesc_2_7::MemoryManager"*) #5

declare dso_local void @_ZNK11xercesc_2_711DOMNodeImpl20callUserDataHandlersENS_18DOMUserDataHandler16DOMOperationTypeEPKNS_7DOMNodeES5_(%"class.xercesc_2_7::DOMNodeImpl"*, i32, %"class.xercesc_2_7::DOMNode"*, %"class.xercesc_2_7::DOMNode"*) #4

; Function Attrs: noinline uwtable
define dso_local %"class.xercesc_2_7::DOMNode"* @_ZThn24_NK11xercesc_2_715DOMDocumentImpl9cloneNodeEb(%"class.xercesc_2_7::DOMDocumentImpl"* %this, i1 zeroext %deep) unnamed_addr #3 align 2 !dbg !3578 {
entry:
  %this.addr = alloca %"class.xercesc_2_7::DOMDocumentImpl"*, align 8
  %deep.addr = alloca i8, align 1
  store %"class.xercesc_2_7::DOMDocumentImpl"* %this, %"class.xercesc_2_7::DOMDocumentImpl"** %this.addr, align 8
  %frombool = zext i1 %deep to i8
  store i8 %frombool, i8* %deep.addr, align 1
  %this1 = load %"class.xercesc_2_7::DOMDocumentImpl"*, %"class.xercesc_2_7::DOMDocumentImpl"** %this.addr, align 8, !dbg !3579
  %0 = bitcast %"class.xercesc_2_7::DOMDocumentImpl"* %this1 to i8*, !dbg !3579
  %1 = getelementptr inbounds i8, i8* %0, i64 -24, !dbg !3579
  %2 = bitcast i8* %1 to %"class.xercesc_2_7::DOMDocumentImpl"*, !dbg !3579
  %3 = load i8, i8* %deep.addr, align 1, !dbg !3579
  %tobool = trunc i8 %3 to i1, !dbg !3579
  %call = tail call %"class.xercesc_2_7::DOMNode"* @_ZNK11xercesc_2_715DOMDocumentImpl9cloneNodeEb(%"class.xercesc_2_7::DOMDocumentImpl"* %2, i1 zeroext %tobool), !dbg !3579
  ret %"class.xercesc_2_7::DOMNode"* %call, !dbg !3579
}

; Function Attrs: noinline nounwind uwtable
define dso_local i16* @_ZNK11xercesc_2_715DOMDocumentImpl11getNodeNameEv(%"class.xercesc_2_7::DOMDocumentImpl"* %this) unnamed_addr #1 align 2 !dbg !2 {
entry:
  %this.addr = alloca %"class.xercesc_2_7::DOMDocumentImpl"*, align 8
  store %"class.xercesc_2_7::DOMDocumentImpl"* %this, %"class.xercesc_2_7::DOMDocumentImpl"** %this.addr, align 8
  call void @llvm.dbg.declare(metadata %"class.xercesc_2_7::DOMDocumentImpl"** %this.addr, metadata !3580, metadata !DIExpression()), !dbg !3581
  %this1 = load %"class.xercesc_2_7::DOMDocumentImpl"*, %"class.xercesc_2_7::DOMDocumentImpl"** %this.addr, align 8
  ret i16* getelementptr inbounds ([10 x i16], [10 x i16]* @_ZZNK11xercesc_2_715DOMDocumentImpl11getNodeNameEvE3nam, i64 0, i64 0), !dbg !3582
}

; Function Attrs: noinline uwtable
define dso_local i16* @_ZThn24_NK11xercesc_2_715DOMDocumentImpl11getNodeNameEv(%"class.xercesc_2_7::DOMDocumentImpl"* %this) unnamed_addr #3 align 2 !dbg !3583 {
entry:
  %this.addr = alloca %"class.xercesc_2_7::DOMDocumentImpl"*, align 8
  store %"class.xercesc_2_7::DOMDocumentImpl"* %this, %"class.xercesc_2_7::DOMDocumentImpl"** %this.addr, align 8
  %this1 = load %"class.xercesc_2_7::DOMDocumentImpl"*, %"class.xercesc_2_7::DOMDocumentImpl"** %this.addr, align 8, !dbg !3584
  %0 = bitcast %"class.xercesc_2_7::DOMDocumentImpl"* %this1 to i8*, !dbg !3584
  %1 = getelementptr inbounds i8, i8* %0, i64 -24, !dbg !3584
  %2 = bitcast i8* %1 to %"class.xercesc_2_7::DOMDocumentImpl"*, !dbg !3584
  %call = tail call i16* @_ZNK11xercesc_2_715DOMDocumentImpl11getNodeNameEv(%"class.xercesc_2_7::DOMDocumentImpl"* %2), !dbg !3584
  ret i16* %call, !dbg !3584
}

; Function Attrs: noinline nounwind uwtable
define dso_local signext i16 @_ZNK11xercesc_2_715DOMDocumentImpl11getNodeTypeEv(%"class.xercesc_2_7::DOMDocumentImpl"* %this) unnamed_addr #1 align 2 !dbg !3585 {
entry:
  %this.addr = alloca %"class.xercesc_2_7::DOMDocumentImpl"*, align 8
  store %"class.xercesc_2_7::DOMDocumentImpl"* %this, %"class.xercesc_2_7::DOMDocumentImpl"** %this.addr, align 8
  call void @llvm.dbg.declare(metadata %"class.xercesc_2_7::DOMDocumentImpl"** %this.addr, metadata !3586, metadata !DIExpression()), !dbg !3587
  %this1 = load %"class.xercesc_2_7::DOMDocumentImpl"*, %"class.xercesc_2_7::DOMDocumentImpl"** %this.addr, align 8
  ret i16 9, !dbg !3588
}

; Function Attrs: noinline uwtable
define dso_local signext i16 @_ZThn24_NK11xercesc_2_715DOMDocumentImpl11getNodeTypeEv(%"class.xercesc_2_7::DOMDocumentImpl"* %this) unnamed_addr #3 align 2 !dbg !3589 {
entry:
  %this.addr = alloca %"class.xercesc_2_7::DOMDocumentImpl"*, align 8
  store %"class.xercesc_2_7::DOMDocumentImpl"* %this, %"class.xercesc_2_7::DOMDocumentImpl"** %this.addr, align 8
  %this1 = load %"class.xercesc_2_7::DOMDocumentImpl"*, %"class.xercesc_2_7::DOMDocumentImpl"** %this.addr, align 8, !dbg !3590
  %0 = bitcast %"class.xercesc_2_7::DOMDocumentImpl"* %this1 to i8*, !dbg !3590
  %1 = getelementptr inbounds i8, i8* %0, i64 -24, !dbg !3590
  %2 = bitcast i8* %1 to %"class.xercesc_2_7::DOMDocumentImpl"*, !dbg !3590
  %call = tail call signext i16 @_ZNK11xercesc_2_715DOMDocumentImpl11getNodeTypeEv(%"class.xercesc_2_7::DOMDocumentImpl"* %2), !dbg !3590
  ret i16 %call, !dbg !3590
}

; Function Attrs: noinline nounwind uwtable
define dso_local %"class.xercesc_2_7::DOMDocument"* @_ZNK11xercesc_2_715DOMDocumentImpl16getOwnerDocumentEv(%"class.xercesc_2_7::DOMDocumentImpl"* %this) unnamed_addr #1 align 2 !dbg !3591 {
entry:
  %this.addr = alloca %"class.xercesc_2_7::DOMDocumentImpl"*, align 8
  store %"class.xercesc_2_7::DOMDocumentImpl"* %this, %"class.xercesc_2_7::DOMDocumentImpl"** %this.addr, align 8
  call void @llvm.dbg.declare(metadata %"class.xercesc_2_7::DOMDocumentImpl"** %this.addr, metadata !3592, metadata !DIExpression()), !dbg !3593
  %this1 = load %"class.xercesc_2_7::DOMDocumentImpl"*, %"class.xercesc_2_7::DOMDocumentImpl"** %this.addr, align 8
  ret %"class.xercesc_2_7::DOMDocument"* null, !dbg !3594
}

; Function Attrs: noinline uwtable
define dso_local %"class.xercesc_2_7::DOMDocument"* @_ZThn24_NK11xercesc_2_715DOMDocumentImpl16getOwnerDocumentEv(%"class.xercesc_2_7::DOMDocumentImpl"* %this) unnamed_addr #3 align 2 !dbg !3595 {
entry:
  %this.addr = alloca %"class.xercesc_2_7::DOMDocumentImpl"*, align 8
  store %"class.xercesc_2_7::DOMDocumentImpl"* %this, %"class.xercesc_2_7::DOMDocumentImpl"** %this.addr, align 8
  %this1 = load %"class.xercesc_2_7::DOMDocumentImpl"*, %"class.xercesc_2_7::DOMDocumentImpl"** %this.addr, align 8, !dbg !3596
  %0 = bitcast %"class.xercesc_2_7::DOMDocumentImpl"* %this1 to i8*, !dbg !3596
  %1 = getelementptr inbounds i8, i8* %0, i64 -24, !dbg !3596
  %2 = bitcast i8* %1 to %"class.xercesc_2_7::DOMDocumentImpl"*, !dbg !3596
  %call = tail call %"class.xercesc_2_7::DOMDocument"* @_ZNK11xercesc_2_715DOMDocumentImpl16getOwnerDocumentEv(%"class.xercesc_2_7::DOMDocumentImpl"* %2), !dbg !3596
  ret %"class.xercesc_2_7::DOMDocument"* %call, !dbg !3596
}

; Function Attrs: noinline uwtable
define dso_local %"class.xercesc_2_7::DOMAttr"* @_ZN11xercesc_2_715DOMDocumentImpl15createAttributeEPKt(%"class.xercesc_2_7::DOMDocumentImpl"* %this, i16* %nam) unnamed_addr #3 align 2 personality i8* bitcast (i32 (...)* @__gxx_personality_v0 to i8*) !dbg !3597 {
entry:
  %this.addr = alloca %"class.xercesc_2_7::DOMDocumentImpl"*, align 8
  %nam.addr = alloca i16*, align 8
  %exn.slot = alloca i8*
  %ehselector.slot = alloca i32
  store %"class.xercesc_2_7::DOMDocumentImpl"* %this, %"class.xercesc_2_7::DOMDocumentImpl"** %this.addr, align 8
  call void @llvm.dbg.declare(metadata %"class.xercesc_2_7::DOMDocumentImpl"** %this.addr, metadata !3598, metadata !DIExpression()), !dbg !3599
  store i16* %nam, i16** %nam.addr, align 8
  call void @llvm.dbg.declare(metadata i16** %nam.addr, metadata !3600, metadata !DIExpression()), !dbg !3601
  %this1 = load %"class.xercesc_2_7::DOMDocumentImpl"*, %"class.xercesc_2_7::DOMDocumentImpl"** %this.addr, align 8
  %0 = load i16*, i16** %nam.addr, align 8, !dbg !3602
  %tobool = icmp ne i16* %0, null, !dbg !3602
  br i1 %tobool, label %lor.lhs.false, label %if.then, !dbg !3604

lor.lhs.false:                                    ; preds = %entry
  %1 = load i16*, i16** %nam.addr, align 8, !dbg !3605
  %call = call zeroext i1 @_ZN11xercesc_2_715DOMDocumentImpl9isXMLNameEPKt(%"class.xercesc_2_7::DOMDocumentImpl"* %this1, i16* %1), !dbg !3606
  br i1 %call, label %if.end, label %if.then, !dbg !3607

if.then:                                          ; preds = %lor.lhs.false, %entry
  %exception = call i8* @__cxa_allocate_exception(i64 40) #10, !dbg !3608
  %2 = bitcast i8* %exception to %"class.xercesc_2_7::DOMException"*, !dbg !3608
  %call2 = invoke %"class.xercesc_2_7::MemoryManager"* @_ZNK11xercesc_2_715DOMDocumentImpl16getMemoryManagerEv(%"class.xercesc_2_7::DOMDocumentImpl"* %this1)
          to label %invoke.cont unwind label %lpad, !dbg !3609

invoke.cont:                                      ; preds = %if.then
  invoke void @_ZN11xercesc_2_712DOMExceptionC1EsPKtPNS_13MemoryManagerE(%"class.xercesc_2_7::DOMException"* %2, i16 signext 5, i16* null, %"class.xercesc_2_7::MemoryManager"* %call2)
          to label %invoke.cont3 unwind label %lpad, !dbg !3610

invoke.cont3:                                     ; preds = %invoke.cont
  call void @__cxa_throw(i8* %exception, i8* bitcast (i8** @_ZTIN11xercesc_2_712DOMExceptionE to i8*), i8* bitcast (void (%"class.xercesc_2_7::DOMException"*)* @_ZN11xercesc_2_712DOMExceptionD1Ev to i8*)) #12, !dbg !3608
  unreachable, !dbg !3608

lpad:                                             ; preds = %invoke.cont, %if.then
  %3 = landingpad { i8*, i32 }
          cleanup, !dbg !3611
  %4 = extractvalue { i8*, i32 } %3, 0, !dbg !3611
  store i8* %4, i8** %exn.slot, align 8, !dbg !3611
  %5 = extractvalue { i8*, i32 } %3, 1, !dbg !3611
  store i32 %5, i32* %ehselector.slot, align 4, !dbg !3611
  call void @__cxa_free_exception(i8* %exception) #10, !dbg !3608
  br label %eh.resume, !dbg !3608

if.end:                                           ; preds = %lor.lhs.false
  %6 = bitcast %"class.xercesc_2_7::DOMDocumentImpl"* %this1 to %"class.xercesc_2_7::DOMDocument"*, !dbg !3612
  %call4 = call i8* @_ZnwmPN11xercesc_2_711DOMDocumentENS_15DOMDocumentImpl14NodeObjectTypeE(i64 72, %"class.xercesc_2_7::DOMDocument"* %6, i32 0), !dbg !3613
  %7 = bitcast i8* %call4 to %"class.xercesc_2_7::DOMAttrImpl"*, !dbg !3613
  %8 = bitcast %"class.xercesc_2_7::DOMDocumentImpl"* %this1 to %"class.xercesc_2_7::DOMDocument"*, !dbg !3614
  %9 = load i16*, i16** %nam.addr, align 8, !dbg !3615
  call void @_ZN11xercesc_2_711DOMAttrImplC1EPNS_11DOMDocumentEPKt(%"class.xercesc_2_7::DOMAttrImpl"* %7, %"class.xercesc_2_7::DOMDocument"* %8, i16* %9), !dbg !3616
  %10 = bitcast %"class.xercesc_2_7::DOMAttrImpl"* %7 to %"class.xercesc_2_7::DOMAttr"*, !dbg !3613
  ret %"class.xercesc_2_7::DOMAttr"* %10, !dbg !3617

eh.resume:                                        ; preds = %lpad
  %exn = load i8*, i8** %exn.slot, align 8, !dbg !3608
  %sel = load i32, i32* %ehselector.slot, align 4, !dbg !3608
  %lpad.val = insertvalue { i8*, i32 } undef, i8* %exn, 0, !dbg !3608
  %lpad.val5 = insertvalue { i8*, i32 } %lpad.val, i32 %sel, 1, !dbg !3608
  resume { i8*, i32 } %lpad.val5, !dbg !3608
}

; Function Attrs: noinline uwtable
define dso_local zeroext i1 @_ZN11xercesc_2_715DOMDocumentImpl9isXMLNameEPKt(%"class.xercesc_2_7::DOMDocumentImpl"* %this, i16* %s) #3 align 2 !dbg !3618 {
entry:
  %retval = alloca i1, align 1
  %this.addr = alloca %"class.xercesc_2_7::DOMDocumentImpl"*, align 8
  %s.addr = alloca i16*, align 8
  store %"class.xercesc_2_7::DOMDocumentImpl"* %this, %"class.xercesc_2_7::DOMDocumentImpl"** %this.addr, align 8
  call void @llvm.dbg.declare(metadata %"class.xercesc_2_7::DOMDocumentImpl"** %this.addr, metadata !3619, metadata !DIExpression()), !dbg !3620
  store i16* %s, i16** %s.addr, align 8
  call void @llvm.dbg.declare(metadata i16** %s.addr, metadata !3621, metadata !DIExpression()), !dbg !3622
  %this1 = load %"class.xercesc_2_7::DOMDocumentImpl"*, %"class.xercesc_2_7::DOMDocumentImpl"** %this.addr, align 8
  %fVersion = getelementptr inbounds %"class.xercesc_2_7::DOMDocumentImpl", %"class.xercesc_2_7::DOMDocumentImpl"* %this1, i32 0, i32 8, !dbg !3623
  %0 = load i16*, i16** %fVersion, align 8, !dbg !3623
  %call = call zeroext i1 @_ZN11xercesc_2_79XMLString6equalsEPKtS2_(i16* %0, i16* getelementptr inbounds ([0 x i16], [0 x i16]* @_ZN11xercesc_2_76XMLUni12fgVersion1_1E, i64 0, i64 0)), !dbg !3625
  br i1 %call, label %if.then, label %if.else, !dbg !3626

if.then:                                          ; preds = %entry
  %1 = load i16*, i16** %s.addr, align 8, !dbg !3627
  %2 = load i16*, i16** %s.addr, align 8, !dbg !3628
  %call2 = call i32 @_ZN11xercesc_2_79XMLString9stringLenEPKt(i16* %2), !dbg !3629
  %call3 = call zeroext i1 @_ZN11xercesc_2_710XMLChar1_111isValidNameEPKtj(i16* %1, i32 %call2), !dbg !3630
  store i1 %call3, i1* %retval, align 1, !dbg !3631
  br label %return, !dbg !3631

if.else:                                          ; preds = %entry
  %3 = load i16*, i16** %s.addr, align 8, !dbg !3632
  %4 = load i16*, i16** %s.addr, align 8, !dbg !3633
  %call4 = call i32 @_ZN11xercesc_2_79XMLString9stringLenEPKt(i16* %4), !dbg !3634
  %call5 = call zeroext i1 @_ZN11xercesc_2_710XMLChar1_011isValidNameEPKtj(i16* %3, i32 %call4), !dbg !3635
  store i1 %call5, i1* %retval, align 1, !dbg !3636
  br label %return, !dbg !3636

return:                                           ; preds = %if.else, %if.then
  %5 = load i1, i1* %retval, align 1, !dbg !3637
  ret i1 %5, !dbg !3637
}

; Function Attrs: noinline uwtable
define linkonce_odr dso_local i8* @_ZnwmPN11xercesc_2_711DOMDocumentENS_15DOMDocumentImpl14NodeObjectTypeE(i64 %amt, %"class.xercesc_2_7::DOMDocument"* %doc, i32 %type) #3 comdat !dbg !3638 {
entry:
  %amt.addr = alloca i64, align 8
  %doc.addr = alloca %"class.xercesc_2_7::DOMDocument"*, align 8
  %type.addr = alloca i32, align 4
  %p = alloca i8*, align 8
  store i64 %amt, i64* %amt.addr, align 8
  call void @llvm.dbg.declare(metadata i64* %amt.addr, metadata !3641, metadata !DIExpression()), !dbg !3642
  store %"class.xercesc_2_7::DOMDocument"* %doc, %"class.xercesc_2_7::DOMDocument"** %doc.addr, align 8
  call void @llvm.dbg.declare(metadata %"class.xercesc_2_7::DOMDocument"** %doc.addr, metadata !3643, metadata !DIExpression()), !dbg !3644
  store i32 %type, i32* %type.addr, align 4
  call void @llvm.dbg.declare(metadata i32* %type.addr, metadata !3645, metadata !DIExpression()), !dbg !3646
  call void @llvm.dbg.declare(metadata i8** %p, metadata !3647, metadata !DIExpression()), !dbg !3648
  %0 = load %"class.xercesc_2_7::DOMDocument"*, %"class.xercesc_2_7::DOMDocument"** %doc.addr, align 8, !dbg !3649
  %1 = bitcast %"class.xercesc_2_7::DOMDocument"* %0 to %"class.xercesc_2_7::DOMDocumentImpl"*, !dbg !3650
  %2 = load i64, i64* %amt.addr, align 8, !dbg !3651
  %3 = load i32, i32* %type.addr, align 4, !dbg !3652
  %call = call i8* @_ZN11xercesc_2_715DOMDocumentImpl8allocateEmNS0_14NodeObjectTypeE(%"class.xercesc_2_7::DOMDocumentImpl"* %1, i64 %2, i32 %3), !dbg !3653
  store i8* %call, i8** %p, align 8, !dbg !3648
  %4 = load i8*, i8** %p, align 8, !dbg !3654
  ret i8* %4, !dbg !3655
}

declare dso_local void @_ZN11xercesc_2_711DOMAttrImplC1EPNS_11DOMDocumentEPKt(%"class.xercesc_2_7::DOMAttrImpl"*, %"class.xercesc_2_7::DOMDocument"*, i16*) unnamed_addr #4

; Function Attrs: noinline uwtable
define dso_local %"class.xercesc_2_7::DOMCDATASection"* @_ZN11xercesc_2_715DOMDocumentImpl18createCDATASectionEPKt(%"class.xercesc_2_7::DOMDocumentImpl"* %this, i16* %data) unnamed_addr #3 align 2 !dbg !3656 {
entry:
  %this.addr = alloca %"class.xercesc_2_7::DOMDocumentImpl"*, align 8
  %data.addr = alloca i16*, align 8
  store %"class.xercesc_2_7::DOMDocumentImpl"* %this, %"class.xercesc_2_7::DOMDocumentImpl"** %this.addr, align 8
  call void @llvm.dbg.declare(metadata %"class.xercesc_2_7::DOMDocumentImpl"** %this.addr, metadata !3657, metadata !DIExpression()), !dbg !3658
  store i16* %data, i16** %data.addr, align 8
  call void @llvm.dbg.declare(metadata i16** %data.addr, metadata !3659, metadata !DIExpression()), !dbg !3660
  %this1 = load %"class.xercesc_2_7::DOMDocumentImpl"*, %"class.xercesc_2_7::DOMDocumentImpl"** %this.addr, align 8
  %0 = bitcast %"class.xercesc_2_7::DOMDocumentImpl"* %this1 to %"class.xercesc_2_7::DOMDocument"*, !dbg !3661
  %call = call i8* @_ZnwmPN11xercesc_2_711DOMDocumentENS_15DOMDocumentImpl14NodeObjectTypeE(i64 88, %"class.xercesc_2_7::DOMDocument"* %0, i32 2), !dbg !3662
  %1 = bitcast i8* %call to %"class.xercesc_2_7::DOMCDATASectionImpl"*, !dbg !3662
  %2 = bitcast %"class.xercesc_2_7::DOMDocumentImpl"* %this1 to %"class.xercesc_2_7::DOMDocument"*, !dbg !3663
  %3 = load i16*, i16** %data.addr, align 8, !dbg !3664
  call void @_ZN11xercesc_2_719DOMCDATASectionImplC1EPNS_11DOMDocumentEPKt(%"class.xercesc_2_7::DOMCDATASectionImpl"* %1, %"class.xercesc_2_7::DOMDocument"* %2, i16* %3), !dbg !3665
  %4 = bitcast %"class.xercesc_2_7::DOMCDATASectionImpl"* %1 to %"class.xercesc_2_7::DOMCDATASection"*, !dbg !3662
  ret %"class.xercesc_2_7::DOMCDATASection"* %4, !dbg !3666
}

declare dso_local void @_ZN11xercesc_2_719DOMCDATASectionImplC1EPNS_11DOMDocumentEPKt(%"class.xercesc_2_7::DOMCDATASectionImpl"*, %"class.xercesc_2_7::DOMDocument"*, i16*) unnamed_addr #4

; Function Attrs: noinline uwtable
define dso_local %"class.xercesc_2_7::DOMComment"* @_ZN11xercesc_2_715DOMDocumentImpl13createCommentEPKt(%"class.xercesc_2_7::DOMDocumentImpl"* %this, i16* %data) unnamed_addr #3 align 2 !dbg !3667 {
entry:
  %this.addr = alloca %"class.xercesc_2_7::DOMDocumentImpl"*, align 8
  %data.addr = alloca i16*, align 8
  store %"class.xercesc_2_7::DOMDocumentImpl"* %this, %"class.xercesc_2_7::DOMDocumentImpl"** %this.addr, align 8
  call void @llvm.dbg.declare(metadata %"class.xercesc_2_7::DOMDocumentImpl"** %this.addr, metadata !3668, metadata !DIExpression()), !dbg !3669
  store i16* %data, i16** %data.addr, align 8
  call void @llvm.dbg.declare(metadata i16** %data.addr, metadata !3670, metadata !DIExpression()), !dbg !3671
  %this1 = load %"class.xercesc_2_7::DOMDocumentImpl"*, %"class.xercesc_2_7::DOMDocumentImpl"** %this.addr, align 8
  %0 = bitcast %"class.xercesc_2_7::DOMDocumentImpl"* %this1 to %"class.xercesc_2_7::DOMDocument"*, !dbg !3672
  %call = call i8* @_ZnwmPN11xercesc_2_711DOMDocumentENS_15DOMDocumentImpl14NodeObjectTypeE(i64 56, %"class.xercesc_2_7::DOMDocument"* %0, i32 3), !dbg !3673
  %1 = bitcast i8* %call to %"class.xercesc_2_7::DOMCommentImpl"*, !dbg !3673
  %2 = bitcast %"class.xercesc_2_7::DOMDocumentImpl"* %this1 to %"class.xercesc_2_7::DOMDocument"*, !dbg !3674
  %3 = load i16*, i16** %data.addr, align 8, !dbg !3675
  call void @_ZN11xercesc_2_714DOMCommentImplC1EPNS_11DOMDocumentEPKt(%"class.xercesc_2_7::DOMCommentImpl"* %1, %"class.xercesc_2_7::DOMDocument"* %2, i16* %3), !dbg !3676
  %4 = bitcast %"class.xercesc_2_7::DOMCommentImpl"* %1 to %"class.xercesc_2_7::DOMComment"*, !dbg !3673
  ret %"class.xercesc_2_7::DOMComment"* %4, !dbg !3677
}

declare dso_local void @_ZN11xercesc_2_714DOMCommentImplC1EPNS_11DOMDocumentEPKt(%"class.xercesc_2_7::DOMCommentImpl"*, %"class.xercesc_2_7::DOMDocument"*, i16*) unnamed_addr #4

; Function Attrs: noinline uwtable
define dso_local %"class.xercesc_2_7::DOMDocumentFragment"* @_ZN11xercesc_2_715DOMDocumentImpl22createDocumentFragmentEv(%"class.xercesc_2_7::DOMDocumentImpl"* %this) unnamed_addr #3 align 2 !dbg !3678 {
entry:
  %this.addr = alloca %"class.xercesc_2_7::DOMDocumentImpl"*, align 8
  store %"class.xercesc_2_7::DOMDocumentImpl"* %this, %"class.xercesc_2_7::DOMDocumentImpl"** %this.addr, align 8
  call void @llvm.dbg.declare(metadata %"class.xercesc_2_7::DOMDocumentImpl"** %this.addr, metadata !3679, metadata !DIExpression()), !dbg !3680
  %this1 = load %"class.xercesc_2_7::DOMDocumentImpl"*, %"class.xercesc_2_7::DOMDocumentImpl"** %this.addr, align 8
  %0 = bitcast %"class.xercesc_2_7::DOMDocumentImpl"* %this1 to %"class.xercesc_2_7::DOMDocument"*, !dbg !3681
  %call = call i8* @_ZnwmPN11xercesc_2_711DOMDocumentENS_15DOMDocumentImpl14NodeObjectTypeE(i64 56, %"class.xercesc_2_7::DOMDocument"* %0, i32 4), !dbg !3682
  %1 = bitcast i8* %call to %"class.xercesc_2_7::DOMDocumentFragmentImpl"*, !dbg !3682
  %2 = bitcast %"class.xercesc_2_7::DOMDocumentImpl"* %this1 to %"class.xercesc_2_7::DOMDocument"*, !dbg !3683
  call void @_ZN11xercesc_2_723DOMDocumentFragmentImplC1EPNS_11DOMDocumentE(%"class.xercesc_2_7::DOMDocumentFragmentImpl"* %1, %"class.xercesc_2_7::DOMDocument"* %2), !dbg !3684
  %3 = bitcast %"class.xercesc_2_7::DOMDocumentFragmentImpl"* %1 to %"class.xercesc_2_7::DOMDocumentFragment"*, !dbg !3682
  ret %"class.xercesc_2_7::DOMDocumentFragment"* %3, !dbg !3685
}

declare dso_local void @_ZN11xercesc_2_723DOMDocumentFragmentImplC1EPNS_11DOMDocumentE(%"class.xercesc_2_7::DOMDocumentFragmentImpl"*, %"class.xercesc_2_7::DOMDocument"*) unnamed_addr #4

; Function Attrs: noinline uwtable
define dso_local %"class.xercesc_2_7::DOMDocumentType"* @_ZN11xercesc_2_715DOMDocumentImpl18createDocumentTypeEPKt(%"class.xercesc_2_7::DOMDocumentImpl"* %this, i16* %nam) unnamed_addr #3 align 2 personality i8* bitcast (i32 (...)* @__gxx_personality_v0 to i8*) !dbg !3686 {
entry:
  %this.addr = alloca %"class.xercesc_2_7::DOMDocumentImpl"*, align 8
  %nam.addr = alloca i16*, align 8
  %exn.slot = alloca i8*
  %ehselector.slot = alloca i32
  store %"class.xercesc_2_7::DOMDocumentImpl"* %this, %"class.xercesc_2_7::DOMDocumentImpl"** %this.addr, align 8
  call void @llvm.dbg.declare(metadata %"class.xercesc_2_7::DOMDocumentImpl"** %this.addr, metadata !3687, metadata !DIExpression()), !dbg !3688
  store i16* %nam, i16** %nam.addr, align 8
  call void @llvm.dbg.declare(metadata i16** %nam.addr, metadata !3689, metadata !DIExpression()), !dbg !3690
  %this1 = load %"class.xercesc_2_7::DOMDocumentImpl"*, %"class.xercesc_2_7::DOMDocumentImpl"** %this.addr, align 8
  %0 = load i16*, i16** %nam.addr, align 8, !dbg !3691
  %tobool = icmp ne i16* %0, null, !dbg !3691
  br i1 %tobool, label %lor.lhs.false, label %if.then, !dbg !3693

lor.lhs.false:                                    ; preds = %entry
  %1 = load i16*, i16** %nam.addr, align 8, !dbg !3694
  %call = call zeroext i1 @_ZN11xercesc_2_715DOMDocumentImpl9isXMLNameEPKt(%"class.xercesc_2_7::DOMDocumentImpl"* %this1, i16* %1), !dbg !3695
  br i1 %call, label %if.end, label %if.then, !dbg !3696

if.then:                                          ; preds = %lor.lhs.false, %entry
  %exception = call i8* @__cxa_allocate_exception(i64 40) #10, !dbg !3697
  %2 = bitcast i8* %exception to %"class.xercesc_2_7::DOMException"*, !dbg !3697
  %call2 = invoke %"class.xercesc_2_7::MemoryManager"* @_ZNK11xercesc_2_715DOMDocumentImpl16getMemoryManagerEv(%"class.xercesc_2_7::DOMDocumentImpl"* %this1)
          to label %invoke.cont unwind label %lpad, !dbg !3698

invoke.cont:                                      ; preds = %if.then
  invoke void @_ZN11xercesc_2_712DOMExceptionC1EsPKtPNS_13MemoryManagerE(%"class.xercesc_2_7::DOMException"* %2, i16 signext 5, i16* null, %"class.xercesc_2_7::MemoryManager"* %call2)
          to label %invoke.cont3 unwind label %lpad, !dbg !3699

invoke.cont3:                                     ; preds = %invoke.cont
  call void @__cxa_throw(i8* %exception, i8* bitcast (i8** @_ZTIN11xercesc_2_712DOMExceptionE to i8*), i8* bitcast (void (%"class.xercesc_2_7::DOMException"*)* @_ZN11xercesc_2_712DOMExceptionD1Ev to i8*)) #12, !dbg !3697
  unreachable, !dbg !3697

lpad:                                             ; preds = %invoke.cont, %if.then
  %3 = landingpad { i8*, i32 }
          cleanup, !dbg !3700
  %4 = extractvalue { i8*, i32 } %3, 0, !dbg !3700
  store i8* %4, i8** %exn.slot, align 8, !dbg !3700
  %5 = extractvalue { i8*, i32 } %3, 1, !dbg !3700
  store i32 %5, i32* %ehselector.slot, align 4, !dbg !3700
  call void @__cxa_free_exception(i8* %exception) #10, !dbg !3697
  br label %eh.resume, !dbg !3697

if.end:                                           ; preds = %lor.lhs.false
  %6 = bitcast %"class.xercesc_2_7::DOMDocumentImpl"* %this1 to %"class.xercesc_2_7::DOMDocument"*, !dbg !3701
  %call4 = call i8* @_ZnwmPN11xercesc_2_711DOMDocumentENS_15DOMDocumentImpl14NodeObjectTypeE(i64 136, %"class.xercesc_2_7::DOMDocument"* %6, i32 5), !dbg !3702
  %7 = bitcast i8* %call4 to %"class.xercesc_2_7::DOMDocumentTypeImpl"*, !dbg !3702
  %8 = bitcast %"class.xercesc_2_7::DOMDocumentImpl"* %this1 to %"class.xercesc_2_7::DOMDocument"*, !dbg !3703
  %9 = load i16*, i16** %nam.addr, align 8, !dbg !3704
  call void @_ZN11xercesc_2_719DOMDocumentTypeImplC1EPNS_11DOMDocumentEPKtb(%"class.xercesc_2_7::DOMDocumentTypeImpl"* %7, %"class.xercesc_2_7::DOMDocument"* %8, i16* %9, i1 zeroext false), !dbg !3705
  %10 = bitcast %"class.xercesc_2_7::DOMDocumentTypeImpl"* %7 to %"class.xercesc_2_7::DOMDocumentType"*, !dbg !3702
  ret %"class.xercesc_2_7::DOMDocumentType"* %10, !dbg !3706

eh.resume:                                        ; preds = %lpad
  %exn = load i8*, i8** %exn.slot, align 8, !dbg !3697
  %sel = load i32, i32* %ehselector.slot, align 4, !dbg !3697
  %lpad.val = insertvalue { i8*, i32 } undef, i8* %exn, 0, !dbg !3697
  %lpad.val5 = insertvalue { i8*, i32 } %lpad.val, i32 %sel, 1, !dbg !3697
  resume { i8*, i32 } %lpad.val5, !dbg !3697
}

declare dso_local void @_ZN11xercesc_2_719DOMDocumentTypeImplC1EPNS_11DOMDocumentEPKtb(%"class.xercesc_2_7::DOMDocumentTypeImpl"*, %"class.xercesc_2_7::DOMDocument"*, i16*, i1 zeroext) unnamed_addr #4

; Function Attrs: noinline uwtable
define dso_local %"class.xercesc_2_7::DOMDocumentType"* @_ZN11xercesc_2_715DOMDocumentImpl18createDocumentTypeEPKtS2_S2_(%"class.xercesc_2_7::DOMDocumentImpl"* %this, i16* %qualifiedName, i16* %publicId, i16* %systemId) unnamed_addr #3 align 2 personality i8* bitcast (i32 (...)* @__gxx_personality_v0 to i8*) !dbg !3707 {
entry:
  %this.addr = alloca %"class.xercesc_2_7::DOMDocumentImpl"*, align 8
  %qualifiedName.addr = alloca i16*, align 8
  %publicId.addr = alloca i16*, align 8
  %systemId.addr = alloca i16*, align 8
  %exn.slot = alloca i8*
  %ehselector.slot = alloca i32
  store %"class.xercesc_2_7::DOMDocumentImpl"* %this, %"class.xercesc_2_7::DOMDocumentImpl"** %this.addr, align 8
  call void @llvm.dbg.declare(metadata %"class.xercesc_2_7::DOMDocumentImpl"** %this.addr, metadata !3708, metadata !DIExpression()), !dbg !3709
  store i16* %qualifiedName, i16** %qualifiedName.addr, align 8
  call void @llvm.dbg.declare(metadata i16** %qualifiedName.addr, metadata !3710, metadata !DIExpression()), !dbg !3711
  store i16* %publicId, i16** %publicId.addr, align 8
  call void @llvm.dbg.declare(metadata i16** %publicId.addr, metadata !3712, metadata !DIExpression()), !dbg !3713
  store i16* %systemId, i16** %systemId.addr, align 8
  call void @llvm.dbg.declare(metadata i16** %systemId.addr, metadata !3714, metadata !DIExpression()), !dbg !3715
  %this1 = load %"class.xercesc_2_7::DOMDocumentImpl"*, %"class.xercesc_2_7::DOMDocumentImpl"** %this.addr, align 8
  %0 = load i16*, i16** %qualifiedName.addr, align 8, !dbg !3716
  %tobool = icmp ne i16* %0, null, !dbg !3716
  br i1 %tobool, label %lor.lhs.false, label %if.then, !dbg !3718

lor.lhs.false:                                    ; preds = %entry
  %1 = load i16*, i16** %qualifiedName.addr, align 8, !dbg !3719
  %call = call zeroext i1 @_ZN11xercesc_2_715DOMDocumentImpl9isXMLNameEPKt(%"class.xercesc_2_7::DOMDocumentImpl"* %this1, i16* %1), !dbg !3720
  br i1 %call, label %if.end, label %if.then, !dbg !3721

if.then:                                          ; preds = %lor.lhs.false, %entry
  %exception = call i8* @__cxa_allocate_exception(i64 40) #10, !dbg !3722
  %2 = bitcast i8* %exception to %"class.xercesc_2_7::DOMException"*, !dbg !3722
  %call2 = invoke %"class.xercesc_2_7::MemoryManager"* @_ZNK11xercesc_2_715DOMDocumentImpl16getMemoryManagerEv(%"class.xercesc_2_7::DOMDocumentImpl"* %this1)
          to label %invoke.cont unwind label %lpad, !dbg !3723

invoke.cont:                                      ; preds = %if.then
  invoke void @_ZN11xercesc_2_712DOMExceptionC1EsPKtPNS_13MemoryManagerE(%"class.xercesc_2_7::DOMException"* %2, i16 signext 5, i16* null, %"class.xercesc_2_7::MemoryManager"* %call2)
          to label %invoke.cont3 unwind label %lpad, !dbg !3724

invoke.cont3:                                     ; preds = %invoke.cont
  call void @__cxa_throw(i8* %exception, i8* bitcast (i8** @_ZTIN11xercesc_2_712DOMExceptionE to i8*), i8* bitcast (void (%"class.xercesc_2_7::DOMException"*)* @_ZN11xercesc_2_712DOMExceptionD1Ev to i8*)) #12, !dbg !3722
  unreachable, !dbg !3722

lpad:                                             ; preds = %invoke.cont, %if.then
  %3 = landingpad { i8*, i32 }
          cleanup, !dbg !3725
  %4 = extractvalue { i8*, i32 } %3, 0, !dbg !3725
  store i8* %4, i8** %exn.slot, align 8, !dbg !3725
  %5 = extractvalue { i8*, i32 } %3, 1, !dbg !3725
  store i32 %5, i32* %ehselector.slot, align 4, !dbg !3725
  call void @__cxa_free_exception(i8* %exception) #10, !dbg !3722
  br label %eh.resume, !dbg !3722

if.end:                                           ; preds = %lor.lhs.false
  %6 = bitcast %"class.xercesc_2_7::DOMDocumentImpl"* %this1 to %"class.xercesc_2_7::DOMDocument"*, !dbg !3726
  %call4 = call i8* @_ZnwmPN11xercesc_2_711DOMDocumentENS_15DOMDocumentImpl14NodeObjectTypeE(i64 136, %"class.xercesc_2_7::DOMDocument"* %6, i32 5), !dbg !3727
  %7 = bitcast i8* %call4 to %"class.xercesc_2_7::DOMDocumentTypeImpl"*, !dbg !3727
  %8 = bitcast %"class.xercesc_2_7::DOMDocumentImpl"* %this1 to %"class.xercesc_2_7::DOMDocument"*, !dbg !3728
  %9 = load i16*, i16** %qualifiedName.addr, align 8, !dbg !3729
  %10 = load i16*, i16** %publicId.addr, align 8, !dbg !3730
  %11 = load i16*, i16** %systemId.addr, align 8, !dbg !3731
  call void @_ZN11xercesc_2_719DOMDocumentTypeImplC1EPNS_11DOMDocumentEPKtS4_S4_b(%"class.xercesc_2_7::DOMDocumentTypeImpl"* %7, %"class.xercesc_2_7::DOMDocument"* %8, i16* %9, i16* %10, i16* %11, i1 zeroext false), !dbg !3732
  %12 = bitcast %"class.xercesc_2_7::DOMDocumentTypeImpl"* %7 to %"class.xercesc_2_7::DOMDocumentType"*, !dbg !3727
  ret %"class.xercesc_2_7::DOMDocumentType"* %12, !dbg !3733

eh.resume:                                        ; preds = %lpad
  %exn = load i8*, i8** %exn.slot, align 8, !dbg !3722
  %sel = load i32, i32* %ehselector.slot, align 4, !dbg !3722
  %lpad.val = insertvalue { i8*, i32 } undef, i8* %exn, 0, !dbg !3722
  %lpad.val5 = insertvalue { i8*, i32 } %lpad.val, i32 %sel, 1, !dbg !3722
  resume { i8*, i32 } %lpad.val5, !dbg !3722
}

declare dso_local void @_ZN11xercesc_2_719DOMDocumentTypeImplC1EPNS_11DOMDocumentEPKtS4_S4_b(%"class.xercesc_2_7::DOMDocumentTypeImpl"*, %"class.xercesc_2_7::DOMDocument"*, i16*, i16*, i16*, i1 zeroext) unnamed_addr #4

; Function Attrs: noinline uwtable
define dso_local %"class.xercesc_2_7::DOMElement"* @_ZN11xercesc_2_715DOMDocumentImpl13createElementEPKt(%"class.xercesc_2_7::DOMDocumentImpl"* %this, i16* %tagName) unnamed_addr #3 align 2 personality i8* bitcast (i32 (...)* @__gxx_personality_v0 to i8*) !dbg !3734 {
entry:
  %this.addr = alloca %"class.xercesc_2_7::DOMDocumentImpl"*, align 8
  %tagName.addr = alloca i16*, align 8
  %exn.slot = alloca i8*
  %ehselector.slot = alloca i32
  store %"class.xercesc_2_7::DOMDocumentImpl"* %this, %"class.xercesc_2_7::DOMDocumentImpl"** %this.addr, align 8
  call void @llvm.dbg.declare(metadata %"class.xercesc_2_7::DOMDocumentImpl"** %this.addr, metadata !3735, metadata !DIExpression()), !dbg !3736
  store i16* %tagName, i16** %tagName.addr, align 8
  call void @llvm.dbg.declare(metadata i16** %tagName.addr, metadata !3737, metadata !DIExpression()), !dbg !3738
  %this1 = load %"class.xercesc_2_7::DOMDocumentImpl"*, %"class.xercesc_2_7::DOMDocumentImpl"** %this.addr, align 8
  %0 = load i16*, i16** %tagName.addr, align 8, !dbg !3739
  %tobool = icmp ne i16* %0, null, !dbg !3739
  br i1 %tobool, label %lor.lhs.false, label %if.then, !dbg !3741

lor.lhs.false:                                    ; preds = %entry
  %1 = load i16*, i16** %tagName.addr, align 8, !dbg !3742
  %call = call zeroext i1 @_ZN11xercesc_2_715DOMDocumentImpl9isXMLNameEPKt(%"class.xercesc_2_7::DOMDocumentImpl"* %this1, i16* %1), !dbg !3743
  br i1 %call, label %if.end, label %if.then, !dbg !3744

if.then:                                          ; preds = %lor.lhs.false, %entry
  %exception = call i8* @__cxa_allocate_exception(i64 40) #10, !dbg !3745
  %2 = bitcast i8* %exception to %"class.xercesc_2_7::DOMException"*, !dbg !3745
  %call2 = invoke %"class.xercesc_2_7::MemoryManager"* @_ZNK11xercesc_2_715DOMDocumentImpl16getMemoryManagerEv(%"class.xercesc_2_7::DOMDocumentImpl"* %this1)
          to label %invoke.cont unwind label %lpad, !dbg !3746

invoke.cont:                                      ; preds = %if.then
  invoke void @_ZN11xercesc_2_712DOMExceptionC1EsPKtPNS_13MemoryManagerE(%"class.xercesc_2_7::DOMException"* %2, i16 signext 5, i16* null, %"class.xercesc_2_7::MemoryManager"* %call2)
          to label %invoke.cont3 unwind label %lpad, !dbg !3747

invoke.cont3:                                     ; preds = %invoke.cont
  call void @__cxa_throw(i8* %exception, i8* bitcast (i8** @_ZTIN11xercesc_2_712DOMExceptionE to i8*), i8* bitcast (void (%"class.xercesc_2_7::DOMException"*)* @_ZN11xercesc_2_712DOMExceptionD1Ev to i8*)) #12, !dbg !3745
  unreachable, !dbg !3745

lpad:                                             ; preds = %invoke.cont, %if.then
  %3 = landingpad { i8*, i32 }
          cleanup, !dbg !3748
  %4 = extractvalue { i8*, i32 } %3, 0, !dbg !3748
  store i8* %4, i8** %exn.slot, align 8, !dbg !3748
  %5 = extractvalue { i8*, i32 } %3, 1, !dbg !3748
  store i32 %5, i32* %ehselector.slot, align 4, !dbg !3748
  call void @__cxa_free_exception(i8* %exception) #10, !dbg !3745
  br label %eh.resume, !dbg !3745

if.end:                                           ; preds = %lor.lhs.false
  %6 = bitcast %"class.xercesc_2_7::DOMDocumentImpl"* %this1 to %"class.xercesc_2_7::DOMDocument"*, !dbg !3749
  %call4 = call i8* @_ZnwmPN11xercesc_2_711DOMDocumentENS_15DOMDocumentImpl14NodeObjectTypeE(i64 96, %"class.xercesc_2_7::DOMDocument"* %6, i32 6), !dbg !3750
  %7 = bitcast i8* %call4 to %"class.xercesc_2_7::DOMElementImpl"*, !dbg !3750
  %8 = bitcast %"class.xercesc_2_7::DOMDocumentImpl"* %this1 to %"class.xercesc_2_7::DOMDocument"*, !dbg !3751
  %9 = load i16*, i16** %tagName.addr, align 8, !dbg !3752
  call void @_ZN11xercesc_2_714DOMElementImplC1EPNS_11DOMDocumentEPKt(%"class.xercesc_2_7::DOMElementImpl"* %7, %"class.xercesc_2_7::DOMDocument"* %8, i16* %9), !dbg !3753
  %10 = bitcast %"class.xercesc_2_7::DOMElementImpl"* %7 to %"class.xercesc_2_7::DOMElement"*, !dbg !3750
  ret %"class.xercesc_2_7::DOMElement"* %10, !dbg !3754

eh.resume:                                        ; preds = %lpad
  %exn = load i8*, i8** %exn.slot, align 8, !dbg !3745
  %sel = load i32, i32* %ehselector.slot, align 4, !dbg !3745
  %lpad.val = insertvalue { i8*, i32 } undef, i8* %exn, 0, !dbg !3745
  %lpad.val5 = insertvalue { i8*, i32 } %lpad.val, i32 %sel, 1, !dbg !3745
  resume { i8*, i32 } %lpad.val5, !dbg !3745
}

declare dso_local void @_ZN11xercesc_2_714DOMElementImplC1EPNS_11DOMDocumentEPKt(%"class.xercesc_2_7::DOMElementImpl"*, %"class.xercesc_2_7::DOMDocument"*, i16*) unnamed_addr #4

; Function Attrs: noinline uwtable
define dso_local %"class.xercesc_2_7::DOMElement"* @_ZN11xercesc_2_715DOMDocumentImpl20createElementNoCheckEPKt(%"class.xercesc_2_7::DOMDocumentImpl"* %this, i16* %tagName) unnamed_addr #3 align 2 !dbg !3755 {
entry:
  %this.addr = alloca %"class.xercesc_2_7::DOMDocumentImpl"*, align 8
  %tagName.addr = alloca i16*, align 8
  store %"class.xercesc_2_7::DOMDocumentImpl"* %this, %"class.xercesc_2_7::DOMDocumentImpl"** %this.addr, align 8
  call void @llvm.dbg.declare(metadata %"class.xercesc_2_7::DOMDocumentImpl"** %this.addr, metadata !3756, metadata !DIExpression()), !dbg !3757
  store i16* %tagName, i16** %tagName.addr, align 8
  call void @llvm.dbg.declare(metadata i16** %tagName.addr, metadata !3758, metadata !DIExpression()), !dbg !3759
  %this1 = load %"class.xercesc_2_7::DOMDocumentImpl"*, %"class.xercesc_2_7::DOMDocumentImpl"** %this.addr, align 8
  %0 = bitcast %"class.xercesc_2_7::DOMDocumentImpl"* %this1 to %"class.xercesc_2_7::DOMDocument"*, !dbg !3760
  %call = call i8* @_ZnwmPN11xercesc_2_711DOMDocumentENS_15DOMDocumentImpl14NodeObjectTypeE(i64 96, %"class.xercesc_2_7::DOMDocument"* %0, i32 6), !dbg !3761
  %1 = bitcast i8* %call to %"class.xercesc_2_7::DOMElementImpl"*, !dbg !3761
  %2 = bitcast %"class.xercesc_2_7::DOMDocumentImpl"* %this1 to %"class.xercesc_2_7::DOMDocument"*, !dbg !3762
  %3 = load i16*, i16** %tagName.addr, align 8, !dbg !3763
  call void @_ZN11xercesc_2_714DOMElementImplC1EPNS_11DOMDocumentEPKt(%"class.xercesc_2_7::DOMElementImpl"* %1, %"class.xercesc_2_7::DOMDocument"* %2, i16* %3), !dbg !3764
  %4 = bitcast %"class.xercesc_2_7::DOMElementImpl"* %1 to %"class.xercesc_2_7::DOMElement"*, !dbg !3761
  ret %"class.xercesc_2_7::DOMElement"* %4, !dbg !3765
}

; Function Attrs: noinline uwtable
define dso_local %"class.xercesc_2_7::DOMEntity"* @_ZN11xercesc_2_715DOMDocumentImpl12createEntityEPKt(%"class.xercesc_2_7::DOMDocumentImpl"* %this, i16* %nam) unnamed_addr #3 align 2 personality i8* bitcast (i32 (...)* @__gxx_personality_v0 to i8*) !dbg !3766 {
entry:
  %this.addr = alloca %"class.xercesc_2_7::DOMDocumentImpl"*, align 8
  %nam.addr = alloca i16*, align 8
  %exn.slot = alloca i8*
  %ehselector.slot = alloca i32
  store %"class.xercesc_2_7::DOMDocumentImpl"* %this, %"class.xercesc_2_7::DOMDocumentImpl"** %this.addr, align 8
  call void @llvm.dbg.declare(metadata %"class.xercesc_2_7::DOMDocumentImpl"** %this.addr, metadata !3767, metadata !DIExpression()), !dbg !3768
  store i16* %nam, i16** %nam.addr, align 8
  call void @llvm.dbg.declare(metadata i16** %nam.addr, metadata !3769, metadata !DIExpression()), !dbg !3770
  %this1 = load %"class.xercesc_2_7::DOMDocumentImpl"*, %"class.xercesc_2_7::DOMDocumentImpl"** %this.addr, align 8
  %0 = load i16*, i16** %nam.addr, align 8, !dbg !3771
  %tobool = icmp ne i16* %0, null, !dbg !3771
  br i1 %tobool, label %lor.lhs.false, label %if.then, !dbg !3773

lor.lhs.false:                                    ; preds = %entry
  %1 = load i16*, i16** %nam.addr, align 8, !dbg !3774
  %call = call zeroext i1 @_ZN11xercesc_2_715DOMDocumentImpl9isXMLNameEPKt(%"class.xercesc_2_7::DOMDocumentImpl"* %this1, i16* %1), !dbg !3775
  br i1 %call, label %if.end, label %if.then, !dbg !3776

if.then:                                          ; preds = %lor.lhs.false, %entry
  %exception = call i8* @__cxa_allocate_exception(i64 40) #10, !dbg !3777
  %2 = bitcast i8* %exception to %"class.xercesc_2_7::DOMException"*, !dbg !3777
  %call2 = invoke %"class.xercesc_2_7::MemoryManager"* @_ZNK11xercesc_2_715DOMDocumentImpl16getMemoryManagerEv(%"class.xercesc_2_7::DOMDocumentImpl"* %this1)
          to label %invoke.cont unwind label %lpad, !dbg !3778

invoke.cont:                                      ; preds = %if.then
  invoke void @_ZN11xercesc_2_712DOMExceptionC1EsPKtPNS_13MemoryManagerE(%"class.xercesc_2_7::DOMException"* %2, i16 signext 5, i16* null, %"class.xercesc_2_7::MemoryManager"* %call2)
          to label %invoke.cont3 unwind label %lpad, !dbg !3779

invoke.cont3:                                     ; preds = %invoke.cont
  call void @__cxa_throw(i8* %exception, i8* bitcast (i8** @_ZTIN11xercesc_2_712DOMExceptionE to i8*), i8* bitcast (void (%"class.xercesc_2_7::DOMException"*)* @_ZN11xercesc_2_712DOMExceptionD1Ev to i8*)) #12, !dbg !3777
  unreachable, !dbg !3777

lpad:                                             ; preds = %invoke.cont, %if.then
  %3 = landingpad { i8*, i32 }
          cleanup, !dbg !3780
  %4 = extractvalue { i8*, i32 } %3, 0, !dbg !3780
  store i8* %4, i8** %exn.slot, align 8, !dbg !3780
  %5 = extractvalue { i8*, i32 } %3, 1, !dbg !3780
  store i32 %5, i32* %ehselector.slot, align 4, !dbg !3780
  call void @__cxa_free_exception(i8* %exception) #10, !dbg !3777
  br label %eh.resume, !dbg !3777

if.end:                                           ; preds = %lor.lhs.false
  %6 = bitcast %"class.xercesc_2_7::DOMDocumentImpl"* %this1 to %"class.xercesc_2_7::DOMDocument"*, !dbg !3781
  %call4 = call i8* @_ZnwmPN11xercesc_2_711DOMDocumentENS_15DOMDocumentImpl14NodeObjectTypeE(i64 136, %"class.xercesc_2_7::DOMDocument"* %6, i32 8), !dbg !3782
  %7 = bitcast i8* %call4 to %"class.xercesc_2_7::DOMEntityImpl"*, !dbg !3782
  %8 = bitcast %"class.xercesc_2_7::DOMDocumentImpl"* %this1 to %"class.xercesc_2_7::DOMDocument"*, !dbg !3783
  %9 = load i16*, i16** %nam.addr, align 8, !dbg !3784
  call void @_ZN11xercesc_2_713DOMEntityImplC1EPNS_11DOMDocumentEPKt(%"class.xercesc_2_7::DOMEntityImpl"* %7, %"class.xercesc_2_7::DOMDocument"* %8, i16* %9), !dbg !3785
  %10 = bitcast %"class.xercesc_2_7::DOMEntityImpl"* %7 to %"class.xercesc_2_7::DOMEntity"*, !dbg !3782
  ret %"class.xercesc_2_7::DOMEntity"* %10, !dbg !3786

eh.resume:                                        ; preds = %lpad
  %exn = load i8*, i8** %exn.slot, align 8, !dbg !3777
  %sel = load i32, i32* %ehselector.slot, align 4, !dbg !3777
  %lpad.val = insertvalue { i8*, i32 } undef, i8* %exn, 0, !dbg !3777
  %lpad.val5 = insertvalue { i8*, i32 } %lpad.val, i32 %sel, 1, !dbg !3777
  resume { i8*, i32 } %lpad.val5, !dbg !3777
}

declare dso_local void @_ZN11xercesc_2_713DOMEntityImplC1EPNS_11DOMDocumentEPKt(%"class.xercesc_2_7::DOMEntityImpl"*, %"class.xercesc_2_7::DOMDocument"*, i16*) unnamed_addr #4

; Function Attrs: noinline uwtable
define dso_local %"class.xercesc_2_7::DOMEntityReference"* @_ZN11xercesc_2_715DOMDocumentImpl21createEntityReferenceEPKt(%"class.xercesc_2_7::DOMDocumentImpl"* %this, i16* %nam) unnamed_addr #3 align 2 personality i8* bitcast (i32 (...)* @__gxx_personality_v0 to i8*) !dbg !3787 {
entry:
  %this.addr = alloca %"class.xercesc_2_7::DOMDocumentImpl"*, align 8
  %nam.addr = alloca i16*, align 8
  %exn.slot = alloca i8*
  %ehselector.slot = alloca i32
  store %"class.xercesc_2_7::DOMDocumentImpl"* %this, %"class.xercesc_2_7::DOMDocumentImpl"** %this.addr, align 8
  call void @llvm.dbg.declare(metadata %"class.xercesc_2_7::DOMDocumentImpl"** %this.addr, metadata !3788, metadata !DIExpression()), !dbg !3789
  store i16* %nam, i16** %nam.addr, align 8
  call void @llvm.dbg.declare(metadata i16** %nam.addr, metadata !3790, metadata !DIExpression()), !dbg !3791
  %this1 = load %"class.xercesc_2_7::DOMDocumentImpl"*, %"class.xercesc_2_7::DOMDocumentImpl"** %this.addr, align 8
  %0 = load i16*, i16** %nam.addr, align 8, !dbg !3792
  %tobool = icmp ne i16* %0, null, !dbg !3792
  br i1 %tobool, label %lor.lhs.false, label %if.then, !dbg !3794

lor.lhs.false:                                    ; preds = %entry
  %1 = load i16*, i16** %nam.addr, align 8, !dbg !3795
  %call = call zeroext i1 @_ZN11xercesc_2_715DOMDocumentImpl9isXMLNameEPKt(%"class.xercesc_2_7::DOMDocumentImpl"* %this1, i16* %1), !dbg !3796
  br i1 %call, label %if.end, label %if.then, !dbg !3797

if.then:                                          ; preds = %lor.lhs.false, %entry
  %exception = call i8* @__cxa_allocate_exception(i64 40) #10, !dbg !3798
  %2 = bitcast i8* %exception to %"class.xercesc_2_7::DOMException"*, !dbg !3798
  %call2 = invoke %"class.xercesc_2_7::MemoryManager"* @_ZNK11xercesc_2_715DOMDocumentImpl16getMemoryManagerEv(%"class.xercesc_2_7::DOMDocumentImpl"* %this1)
          to label %invoke.cont unwind label %lpad, !dbg !3799

invoke.cont:                                      ; preds = %if.then
  invoke void @_ZN11xercesc_2_712DOMExceptionC1EsPKtPNS_13MemoryManagerE(%"class.xercesc_2_7::DOMException"* %2, i16 signext 5, i16* null, %"class.xercesc_2_7::MemoryManager"* %call2)
          to label %invoke.cont3 unwind label %lpad, !dbg !3800

invoke.cont3:                                     ; preds = %invoke.cont
  call void @__cxa_throw(i8* %exception, i8* bitcast (i8** @_ZTIN11xercesc_2_712DOMExceptionE to i8*), i8* bitcast (void (%"class.xercesc_2_7::DOMException"*)* @_ZN11xercesc_2_712DOMExceptionD1Ev to i8*)) #12, !dbg !3798
  unreachable, !dbg !3798

lpad:                                             ; preds = %invoke.cont, %if.then
  %3 = landingpad { i8*, i32 }
          cleanup, !dbg !3801
  %4 = extractvalue { i8*, i32 } %3, 0, !dbg !3801
  store i8* %4, i8** %exn.slot, align 8, !dbg !3801
  %5 = extractvalue { i8*, i32 } %3, 1, !dbg !3801
  store i32 %5, i32* %ehselector.slot, align 4, !dbg !3801
  call void @__cxa_free_exception(i8* %exception) #10, !dbg !3798
  br label %eh.resume, !dbg !3798

if.end:                                           ; preds = %lor.lhs.false
  %6 = bitcast %"class.xercesc_2_7::DOMDocumentImpl"* %this1 to %"class.xercesc_2_7::DOMDocument"*, !dbg !3802
  %call4 = call i8* @_ZnwmPN11xercesc_2_711DOMDocumentENS_15DOMDocumentImpl14NodeObjectTypeE(i64 88, %"class.xercesc_2_7::DOMDocument"* %6, i32 9), !dbg !3803
  %7 = bitcast i8* %call4 to %"class.xercesc_2_7::DOMEntityReferenceImpl"*, !dbg !3803
  %8 = bitcast %"class.xercesc_2_7::DOMDocumentImpl"* %this1 to %"class.xercesc_2_7::DOMDocument"*, !dbg !3804
  %9 = load i16*, i16** %nam.addr, align 8, !dbg !3805
  call void @_ZN11xercesc_2_722DOMEntityReferenceImplC1EPNS_11DOMDocumentEPKt(%"class.xercesc_2_7::DOMEntityReferenceImpl"* %7, %"class.xercesc_2_7::DOMDocument"* %8, i16* %9), !dbg !3806
  %10 = bitcast %"class.xercesc_2_7::DOMEntityReferenceImpl"* %7 to %"class.xercesc_2_7::DOMEntityReference"*, !dbg !3803
  ret %"class.xercesc_2_7::DOMEntityReference"* %10, !dbg !3807

eh.resume:                                        ; preds = %lpad
  %exn = load i8*, i8** %exn.slot, align 8, !dbg !3798
  %sel = load i32, i32* %ehselector.slot, align 4, !dbg !3798
  %lpad.val = insertvalue { i8*, i32 } undef, i8* %exn, 0, !dbg !3798
  %lpad.val5 = insertvalue { i8*, i32 } %lpad.val, i32 %sel, 1, !dbg !3798
  resume { i8*, i32 } %lpad.val5, !dbg !3798
}

declare dso_local void @_ZN11xercesc_2_722DOMEntityReferenceImplC1EPNS_11DOMDocumentEPKt(%"class.xercesc_2_7::DOMEntityReferenceImpl"*, %"class.xercesc_2_7::DOMDocument"*, i16*) unnamed_addr #4

; Function Attrs: noinline uwtable
define dso_local %"class.xercesc_2_7::DOMEntityReference"* @_ZN11xercesc_2_715DOMDocumentImpl29createEntityReferenceByParserEPKt(%"class.xercesc_2_7::DOMDocumentImpl"* %this, i16* %nam) #3 align 2 personality i8* bitcast (i32 (...)* @__gxx_personality_v0 to i8*) !dbg !3808 {
entry:
  %this.addr = alloca %"class.xercesc_2_7::DOMDocumentImpl"*, align 8
  %nam.addr = alloca i16*, align 8
  %exn.slot = alloca i8*
  %ehselector.slot = alloca i32
  store %"class.xercesc_2_7::DOMDocumentImpl"* %this, %"class.xercesc_2_7::DOMDocumentImpl"** %this.addr, align 8
  call void @llvm.dbg.declare(metadata %"class.xercesc_2_7::DOMDocumentImpl"** %this.addr, metadata !3809, metadata !DIExpression()), !dbg !3810
  store i16* %nam, i16** %nam.addr, align 8
  call void @llvm.dbg.declare(metadata i16** %nam.addr, metadata !3811, metadata !DIExpression()), !dbg !3812
  %this1 = load %"class.xercesc_2_7::DOMDocumentImpl"*, %"class.xercesc_2_7::DOMDocumentImpl"** %this.addr, align 8
  %0 = load i16*, i16** %nam.addr, align 8, !dbg !3813
  %tobool = icmp ne i16* %0, null, !dbg !3813
  br i1 %tobool, label %lor.lhs.false, label %if.then, !dbg !3815

lor.lhs.false:                                    ; preds = %entry
  %1 = load i16*, i16** %nam.addr, align 8, !dbg !3816
  %call = call zeroext i1 @_ZN11xercesc_2_715DOMDocumentImpl9isXMLNameEPKt(%"class.xercesc_2_7::DOMDocumentImpl"* %this1, i16* %1), !dbg !3817
  br i1 %call, label %if.end, label %if.then, !dbg !3818

if.then:                                          ; preds = %lor.lhs.false, %entry
  %exception = call i8* @__cxa_allocate_exception(i64 40) #10, !dbg !3819
  %2 = bitcast i8* %exception to %"class.xercesc_2_7::DOMException"*, !dbg !3819
  %call2 = invoke %"class.xercesc_2_7::MemoryManager"* @_ZNK11xercesc_2_715DOMDocumentImpl16getMemoryManagerEv(%"class.xercesc_2_7::DOMDocumentImpl"* %this1)
          to label %invoke.cont unwind label %lpad, !dbg !3820

invoke.cont:                                      ; preds = %if.then
  invoke void @_ZN11xercesc_2_712DOMExceptionC1EsPKtPNS_13MemoryManagerE(%"class.xercesc_2_7::DOMException"* %2, i16 signext 5, i16* null, %"class.xercesc_2_7::MemoryManager"* %call2)
          to label %invoke.cont3 unwind label %lpad, !dbg !3821

invoke.cont3:                                     ; preds = %invoke.cont
  call void @__cxa_throw(i8* %exception, i8* bitcast (i8** @_ZTIN11xercesc_2_712DOMExceptionE to i8*), i8* bitcast (void (%"class.xercesc_2_7::DOMException"*)* @_ZN11xercesc_2_712DOMExceptionD1Ev to i8*)) #12, !dbg !3819
  unreachable, !dbg !3819

lpad:                                             ; preds = %invoke.cont, %if.then
  %3 = landingpad { i8*, i32 }
          cleanup, !dbg !3822
  %4 = extractvalue { i8*, i32 } %3, 0, !dbg !3822
  store i8* %4, i8** %exn.slot, align 8, !dbg !3822
  %5 = extractvalue { i8*, i32 } %3, 1, !dbg !3822
  store i32 %5, i32* %ehselector.slot, align 4, !dbg !3822
  call void @__cxa_free_exception(i8* %exception) #10, !dbg !3819
  br label %eh.resume, !dbg !3819

if.end:                                           ; preds = %lor.lhs.false
  %6 = bitcast %"class.xercesc_2_7::DOMDocumentImpl"* %this1 to %"class.xercesc_2_7::DOMDocument"*, !dbg !3823
  %call4 = call i8* @_ZnwmPN11xercesc_2_711DOMDocumentENS_15DOMDocumentImpl14NodeObjectTypeE(i64 88, %"class.xercesc_2_7::DOMDocument"* %6, i32 9), !dbg !3824
  %7 = bitcast i8* %call4 to %"class.xercesc_2_7::DOMEntityReferenceImpl"*, !dbg !3824
  %8 = bitcast %"class.xercesc_2_7::DOMDocumentImpl"* %this1 to %"class.xercesc_2_7::DOMDocument"*, !dbg !3825
  %9 = load i16*, i16** %nam.addr, align 8, !dbg !3826
  call void @_ZN11xercesc_2_722DOMEntityReferenceImplC1EPNS_11DOMDocumentEPKtb(%"class.xercesc_2_7::DOMEntityReferenceImpl"* %7, %"class.xercesc_2_7::DOMDocument"* %8, i16* %9, i1 zeroext false), !dbg !3827
  %10 = bitcast %"class.xercesc_2_7::DOMEntityReferenceImpl"* %7 to %"class.xercesc_2_7::DOMEntityReference"*, !dbg !3824
  ret %"class.xercesc_2_7::DOMEntityReference"* %10, !dbg !3828

eh.resume:                                        ; preds = %lpad
  %exn = load i8*, i8** %exn.slot, align 8, !dbg !3819
  %sel = load i32, i32* %ehselector.slot, align 4, !dbg !3819
  %lpad.val = insertvalue { i8*, i32 } undef, i8* %exn, 0, !dbg !3819
  %lpad.val5 = insertvalue { i8*, i32 } %lpad.val, i32 %sel, 1, !dbg !3819
  resume { i8*, i32 } %lpad.val5, !dbg !3819
}

declare dso_local void @_ZN11xercesc_2_722DOMEntityReferenceImplC1EPNS_11DOMDocumentEPKtb(%"class.xercesc_2_7::DOMEntityReferenceImpl"*, %"class.xercesc_2_7::DOMDocument"*, i16*, i1 zeroext) unnamed_addr #4

; Function Attrs: noinline uwtable
define dso_local %"class.xercesc_2_7::DOMNotation"* @_ZN11xercesc_2_715DOMDocumentImpl14createNotationEPKt(%"class.xercesc_2_7::DOMDocumentImpl"* %this, i16* %nam) unnamed_addr #3 align 2 personality i8* bitcast (i32 (...)* @__gxx_personality_v0 to i8*) !dbg !3829 {
entry:
  %this.addr = alloca %"class.xercesc_2_7::DOMDocumentImpl"*, align 8
  %nam.addr = alloca i16*, align 8
  %exn.slot = alloca i8*
  %ehselector.slot = alloca i32
  store %"class.xercesc_2_7::DOMDocumentImpl"* %this, %"class.xercesc_2_7::DOMDocumentImpl"** %this.addr, align 8
  call void @llvm.dbg.declare(metadata %"class.xercesc_2_7::DOMDocumentImpl"** %this.addr, metadata !3830, metadata !DIExpression()), !dbg !3831
  store i16* %nam, i16** %nam.addr, align 8
  call void @llvm.dbg.declare(metadata i16** %nam.addr, metadata !3832, metadata !DIExpression()), !dbg !3833
  %this1 = load %"class.xercesc_2_7::DOMDocumentImpl"*, %"class.xercesc_2_7::DOMDocumentImpl"** %this.addr, align 8
  %0 = load i16*, i16** %nam.addr, align 8, !dbg !3834
  %tobool = icmp ne i16* %0, null, !dbg !3834
  br i1 %tobool, label %lor.lhs.false, label %if.then, !dbg !3836

lor.lhs.false:                                    ; preds = %entry
  %1 = load i16*, i16** %nam.addr, align 8, !dbg !3837
  %call = call zeroext i1 @_ZN11xercesc_2_715DOMDocumentImpl9isXMLNameEPKt(%"class.xercesc_2_7::DOMDocumentImpl"* %this1, i16* %1), !dbg !3838
  br i1 %call, label %if.end, label %if.then, !dbg !3839

if.then:                                          ; preds = %lor.lhs.false, %entry
  %exception = call i8* @__cxa_allocate_exception(i64 40) #10, !dbg !3840
  %2 = bitcast i8* %exception to %"class.xercesc_2_7::DOMException"*, !dbg !3840
  %call2 = invoke %"class.xercesc_2_7::MemoryManager"* @_ZNK11xercesc_2_715DOMDocumentImpl16getMemoryManagerEv(%"class.xercesc_2_7::DOMDocumentImpl"* %this1)
          to label %invoke.cont unwind label %lpad, !dbg !3841

invoke.cont:                                      ; preds = %if.then
  invoke void @_ZN11xercesc_2_712DOMExceptionC1EsPKtPNS_13MemoryManagerE(%"class.xercesc_2_7::DOMException"* %2, i16 signext 5, i16* null, %"class.xercesc_2_7::MemoryManager"* %call2)
          to label %invoke.cont3 unwind label %lpad, !dbg !3842

invoke.cont3:                                     ; preds = %invoke.cont
  call void @__cxa_throw(i8* %exception, i8* bitcast (i8** @_ZTIN11xercesc_2_712DOMExceptionE to i8*), i8* bitcast (void (%"class.xercesc_2_7::DOMException"*)* @_ZN11xercesc_2_712DOMExceptionD1Ev to i8*)) #12, !dbg !3840
  unreachable, !dbg !3840

lpad:                                             ; preds = %invoke.cont, %if.then
  %3 = landingpad { i8*, i32 }
          cleanup, !dbg !3843
  %4 = extractvalue { i8*, i32 } %3, 0, !dbg !3843
  store i8* %4, i8** %exn.slot, align 8, !dbg !3843
  %5 = extractvalue { i8*, i32 } %3, 1, !dbg !3843
  store i32 %5, i32* %ehselector.slot, align 4, !dbg !3843
  call void @__cxa_free_exception(i8* %exception) #10, !dbg !3840
  br label %eh.resume, !dbg !3840

if.end:                                           ; preds = %lor.lhs.false
  %6 = bitcast %"class.xercesc_2_7::DOMDocumentImpl"* %this1 to %"class.xercesc_2_7::DOMDocument"*, !dbg !3844
  %call4 = call i8* @_ZnwmPN11xercesc_2_711DOMDocumentENS_15DOMDocumentImpl14NodeObjectTypeE(i64 56, %"class.xercesc_2_7::DOMDocument"* %6, i32 10), !dbg !3845
  %7 = bitcast i8* %call4 to %"class.xercesc_2_7::DOMNotationImpl"*, !dbg !3845
  %8 = bitcast %"class.xercesc_2_7::DOMDocumentImpl"* %this1 to %"class.xercesc_2_7::DOMDocument"*, !dbg !3846
  %9 = load i16*, i16** %nam.addr, align 8, !dbg !3847
  call void @_ZN11xercesc_2_715DOMNotationImplC1EPNS_11DOMDocumentEPKt(%"class.xercesc_2_7::DOMNotationImpl"* %7, %"class.xercesc_2_7::DOMDocument"* %8, i16* %9), !dbg !3848
  %10 = bitcast %"class.xercesc_2_7::DOMNotationImpl"* %7 to %"class.xercesc_2_7::DOMNotation"*, !dbg !3845
  ret %"class.xercesc_2_7::DOMNotation"* %10, !dbg !3849

eh.resume:                                        ; preds = %lpad
  %exn = load i8*, i8** %exn.slot, align 8, !dbg !3840
  %sel = load i32, i32* %ehselector.slot, align 4, !dbg !3840
  %lpad.val = insertvalue { i8*, i32 } undef, i8* %exn, 0, !dbg !3840
  %lpad.val5 = insertvalue { i8*, i32 } %lpad.val, i32 %sel, 1, !dbg !3840
  resume { i8*, i32 } %lpad.val5, !dbg !3840
}

declare dso_local void @_ZN11xercesc_2_715DOMNotationImplC1EPNS_11DOMDocumentEPKt(%"class.xercesc_2_7::DOMNotationImpl"*, %"class.xercesc_2_7::DOMDocument"*, i16*) unnamed_addr #4

; Function Attrs: noinline uwtable
define dso_local %"class.xercesc_2_7::DOMProcessingInstruction"* @_ZN11xercesc_2_715DOMDocumentImpl27createProcessingInstructionEPKtS2_(%"class.xercesc_2_7::DOMDocumentImpl"* %this, i16* %target, i16* %data) unnamed_addr #3 align 2 personality i8* bitcast (i32 (...)* @__gxx_personality_v0 to i8*) !dbg !3850 {
entry:
  %this.addr = alloca %"class.xercesc_2_7::DOMDocumentImpl"*, align 8
  %target.addr = alloca i16*, align 8
  %data.addr = alloca i16*, align 8
  %exn.slot = alloca i8*
  %ehselector.slot = alloca i32
  store %"class.xercesc_2_7::DOMDocumentImpl"* %this, %"class.xercesc_2_7::DOMDocumentImpl"** %this.addr, align 8
  call void @llvm.dbg.declare(metadata %"class.xercesc_2_7::DOMDocumentImpl"** %this.addr, metadata !3851, metadata !DIExpression()), !dbg !3852
  store i16* %target, i16** %target.addr, align 8
  call void @llvm.dbg.declare(metadata i16** %target.addr, metadata !3853, metadata !DIExpression()), !dbg !3854
  store i16* %data, i16** %data.addr, align 8
  call void @llvm.dbg.declare(metadata i16** %data.addr, metadata !3855, metadata !DIExpression()), !dbg !3856
  %this1 = load %"class.xercesc_2_7::DOMDocumentImpl"*, %"class.xercesc_2_7::DOMDocumentImpl"** %this.addr, align 8
  %0 = load i16*, i16** %target.addr, align 8, !dbg !3857
  %tobool = icmp ne i16* %0, null, !dbg !3857
  br i1 %tobool, label %lor.lhs.false, label %if.then, !dbg !3859

lor.lhs.false:                                    ; preds = %entry
  %1 = load i16*, i16** %target.addr, align 8, !dbg !3860
  %call = call zeroext i1 @_ZN11xercesc_2_715DOMDocumentImpl9isXMLNameEPKt(%"class.xercesc_2_7::DOMDocumentImpl"* %this1, i16* %1), !dbg !3861
  br i1 %call, label %if.end, label %if.then, !dbg !3862

if.then:                                          ; preds = %lor.lhs.false, %entry
  %exception = call i8* @__cxa_allocate_exception(i64 40) #10, !dbg !3863
  %2 = bitcast i8* %exception to %"class.xercesc_2_7::DOMException"*, !dbg !3863
  %call2 = invoke %"class.xercesc_2_7::MemoryManager"* @_ZNK11xercesc_2_715DOMDocumentImpl16getMemoryManagerEv(%"class.xercesc_2_7::DOMDocumentImpl"* %this1)
          to label %invoke.cont unwind label %lpad, !dbg !3864

invoke.cont:                                      ; preds = %if.then
  invoke void @_ZN11xercesc_2_712DOMExceptionC1EsPKtPNS_13MemoryManagerE(%"class.xercesc_2_7::DOMException"* %2, i16 signext 5, i16* null, %"class.xercesc_2_7::MemoryManager"* %call2)
          to label %invoke.cont3 unwind label %lpad, !dbg !3865

invoke.cont3:                                     ; preds = %invoke.cont
  call void @__cxa_throw(i8* %exception, i8* bitcast (i8** @_ZTIN11xercesc_2_712DOMExceptionE to i8*), i8* bitcast (void (%"class.xercesc_2_7::DOMException"*)* @_ZN11xercesc_2_712DOMExceptionD1Ev to i8*)) #12, !dbg !3863
  unreachable, !dbg !3863

lpad:                                             ; preds = %invoke.cont, %if.then
  %3 = landingpad { i8*, i32 }
          cleanup, !dbg !3866
  %4 = extractvalue { i8*, i32 } %3, 0, !dbg !3866
  store i8* %4, i8** %exn.slot, align 8, !dbg !3866
  %5 = extractvalue { i8*, i32 } %3, 1, !dbg !3866
  store i32 %5, i32* %ehselector.slot, align 4, !dbg !3866
  call void @__cxa_free_exception(i8* %exception) #10, !dbg !3863
  br label %eh.resume, !dbg !3863

if.end:                                           ; preds = %lor.lhs.false
  %6 = bitcast %"class.xercesc_2_7::DOMDocumentImpl"* %this1 to %"class.xercesc_2_7::DOMDocument"*, !dbg !3867
  %call4 = call i8* @_ZnwmPN11xercesc_2_711DOMDocumentENS_15DOMDocumentImpl14NodeObjectTypeE(i64 72, %"class.xercesc_2_7::DOMDocument"* %6, i32 11), !dbg !3868
  %7 = bitcast i8* %call4 to %"class.xercesc_2_7::DOMProcessingInstructionImpl"*, !dbg !3868
  %8 = bitcast %"class.xercesc_2_7::DOMDocumentImpl"* %this1 to %"class.xercesc_2_7::DOMDocument"*, !dbg !3869
  %9 = load i16*, i16** %target.addr, align 8, !dbg !3870
  %10 = load i16*, i16** %data.addr, align 8, !dbg !3871
  call void @_ZN11xercesc_2_728DOMProcessingInstructionImplC1EPNS_11DOMDocumentEPKtS4_(%"class.xercesc_2_7::DOMProcessingInstructionImpl"* %7, %"class.xercesc_2_7::DOMDocument"* %8, i16* %9, i16* %10), !dbg !3872
  %11 = bitcast %"class.xercesc_2_7::DOMProcessingInstructionImpl"* %7 to %"class.xercesc_2_7::DOMProcessingInstruction"*, !dbg !3868
  ret %"class.xercesc_2_7::DOMProcessingInstruction"* %11, !dbg !3873

eh.resume:                                        ; preds = %lpad
  %exn = load i8*, i8** %exn.slot, align 8, !dbg !3863
  %sel = load i32, i32* %ehselector.slot, align 4, !dbg !3863
  %lpad.val = insertvalue { i8*, i32 } undef, i8* %exn, 0, !dbg !3863
  %lpad.val5 = insertvalue { i8*, i32 } %lpad.val, i32 %sel, 1, !dbg !3863
  resume { i8*, i32 } %lpad.val5, !dbg !3863
}

declare dso_local void @_ZN11xercesc_2_728DOMProcessingInstructionImplC1EPNS_11DOMDocumentEPKtS4_(%"class.xercesc_2_7::DOMProcessingInstructionImpl"*, %"class.xercesc_2_7::DOMDocument"*, i16*, i16*) unnamed_addr #4

; Function Attrs: noinline uwtable
define dso_local %"class.xercesc_2_7::DOMText"* @_ZN11xercesc_2_715DOMDocumentImpl14createTextNodeEPKt(%"class.xercesc_2_7::DOMDocumentImpl"* %this, i16* %data) unnamed_addr #3 align 2 !dbg !3874 {
entry:
  %this.addr = alloca %"class.xercesc_2_7::DOMDocumentImpl"*, align 8
  %data.addr = alloca i16*, align 8
  store %"class.xercesc_2_7::DOMDocumentImpl"* %this, %"class.xercesc_2_7::DOMDocumentImpl"** %this.addr, align 8
  call void @llvm.dbg.declare(metadata %"class.xercesc_2_7::DOMDocumentImpl"** %this.addr, metadata !3875, metadata !DIExpression()), !dbg !3876
  store i16* %data, i16** %data.addr, align 8
  call void @llvm.dbg.declare(metadata i16** %data.addr, metadata !3877, metadata !DIExpression()), !dbg !3878
  %this1 = load %"class.xercesc_2_7::DOMDocumentImpl"*, %"class.xercesc_2_7::DOMDocumentImpl"** %this.addr, align 8
  %0 = bitcast %"class.xercesc_2_7::DOMDocumentImpl"* %this1 to %"class.xercesc_2_7::DOMDocument"*, !dbg !3879
  %call = call i8* @_ZnwmPN11xercesc_2_711DOMDocumentENS_15DOMDocumentImpl14NodeObjectTypeE(i64 56, %"class.xercesc_2_7::DOMDocument"* %0, i32 12), !dbg !3880
  %1 = bitcast i8* %call to %"class.xercesc_2_7::DOMTextImpl"*, !dbg !3880
  %2 = bitcast %"class.xercesc_2_7::DOMDocumentImpl"* %this1 to %"class.xercesc_2_7::DOMDocument"*, !dbg !3881
  %3 = load i16*, i16** %data.addr, align 8, !dbg !3882
  call void @_ZN11xercesc_2_711DOMTextImplC1EPNS_11DOMDocumentEPKt(%"class.xercesc_2_7::DOMTextImpl"* %1, %"class.xercesc_2_7::DOMDocument"* %2, i16* %3), !dbg !3883
  %4 = bitcast %"class.xercesc_2_7::DOMTextImpl"* %1 to %"class.xercesc_2_7::DOMText"*, !dbg !3880
  ret %"class.xercesc_2_7::DOMText"* %4, !dbg !3884
}

declare dso_local void @_ZN11xercesc_2_711DOMTextImplC1EPNS_11DOMDocumentEPKt(%"class.xercesc_2_7::DOMTextImpl"*, %"class.xercesc_2_7::DOMDocument"*, i16*) unnamed_addr #4

; Function Attrs: noinline uwtable
define dso_local %"class.xercesc_2_7::DOMNodeIterator"* @_ZN11xercesc_2_715DOMDocumentImpl18createNodeIteratorEPNS_7DOMNodeEmPNS_13DOMNodeFilterEb(%"class.xercesc_2_7::DOMDocumentImpl"* %this, %"class.xercesc_2_7::DOMNode"* %root, i64 %whatToShow, %"class.xercesc_2_7::DOMNodeFilter"* %filter, i1 zeroext %entityReferenceExpansion) unnamed_addr #3 align 2 personality i8* bitcast (i32 (...)* @__gxx_personality_v0 to i8*) !dbg !3885 {
entry:
  %this.addr = alloca %"class.xercesc_2_7::DOMDocumentImpl"*, align 8
  %root.addr = alloca %"class.xercesc_2_7::DOMNode"*, align 8
  %whatToShow.addr = alloca i64, align 8
  %filter.addr = alloca %"class.xercesc_2_7::DOMNodeFilter"*, align 8
  %entityReferenceExpansion.addr = alloca i8, align 1
  %exn.slot = alloca i8*
  %ehselector.slot = alloca i32
  %nodeIterator = alloca %"class.xercesc_2_7::DOMNodeIteratorImpl"*, align 8
  store %"class.xercesc_2_7::DOMDocumentImpl"* %this, %"class.xercesc_2_7::DOMDocumentImpl"** %this.addr, align 8
  call void @llvm.dbg.declare(metadata %"class.xercesc_2_7::DOMDocumentImpl"** %this.addr, metadata !3886, metadata !DIExpression()), !dbg !3887
  store %"class.xercesc_2_7::DOMNode"* %root, %"class.xercesc_2_7::DOMNode"** %root.addr, align 8
  call void @llvm.dbg.declare(metadata %"class.xercesc_2_7::DOMNode"** %root.addr, metadata !3888, metadata !DIExpression()), !dbg !3889
  store i64 %whatToShow, i64* %whatToShow.addr, align 8
  call void @llvm.dbg.declare(metadata i64* %whatToShow.addr, metadata !3890, metadata !DIExpression()), !dbg !3891
  store %"class.xercesc_2_7::DOMNodeFilter"* %filter, %"class.xercesc_2_7::DOMNodeFilter"** %filter.addr, align 8
  call void @llvm.dbg.declare(metadata %"class.xercesc_2_7::DOMNodeFilter"** %filter.addr, metadata !3892, metadata !DIExpression()), !dbg !3893
  %frombool = zext i1 %entityReferenceExpansion to i8
  store i8 %frombool, i8* %entityReferenceExpansion.addr, align 1
  call void @llvm.dbg.declare(metadata i8* %entityReferenceExpansion.addr, metadata !3894, metadata !DIExpression()), !dbg !3895
  %this1 = load %"class.xercesc_2_7::DOMDocumentImpl"*, %"class.xercesc_2_7::DOMDocumentImpl"** %this.addr, align 8
  %0 = load %"class.xercesc_2_7::DOMNode"*, %"class.xercesc_2_7::DOMNode"** %root.addr, align 8, !dbg !3896
  %tobool = icmp ne %"class.xercesc_2_7::DOMNode"* %0, null, !dbg !3896
  br i1 %tobool, label %if.end, label %if.then, !dbg !3898

if.then:                                          ; preds = %entry
  %exception = call i8* @__cxa_allocate_exception(i64 40) #10, !dbg !3899
  %1 = bitcast i8* %exception to %"class.xercesc_2_7::DOMException"*, !dbg !3899
  %call = invoke %"class.xercesc_2_7::MemoryManager"* @_ZNK11xercesc_2_715DOMDocumentImpl16getMemoryManagerEv(%"class.xercesc_2_7::DOMDocumentImpl"* %this1)
          to label %invoke.cont unwind label %lpad, !dbg !3901

invoke.cont:                                      ; preds = %if.then
  invoke void @_ZN11xercesc_2_712DOMExceptionC1EsPKtPNS_13MemoryManagerE(%"class.xercesc_2_7::DOMException"* %1, i16 signext 9, i16* null, %"class.xercesc_2_7::MemoryManager"* %call)
          to label %invoke.cont2 unwind label %lpad, !dbg !3902

invoke.cont2:                                     ; preds = %invoke.cont
  call void @__cxa_throw(i8* %exception, i8* bitcast (i8** @_ZTIN11xercesc_2_712DOMExceptionE to i8*), i8* bitcast (void (%"class.xercesc_2_7::DOMException"*)* @_ZN11xercesc_2_712DOMExceptionD1Ev to i8*)) #12, !dbg !3899
  unreachable, !dbg !3899

lpad:                                             ; preds = %invoke.cont, %if.then
  %2 = landingpad { i8*, i32 }
          cleanup, !dbg !3903
  %3 = extractvalue { i8*, i32 } %2, 0, !dbg !3903
  store i8* %3, i8** %exn.slot, align 8, !dbg !3903
  %4 = extractvalue { i8*, i32 } %2, 1, !dbg !3903
  store i32 %4, i32* %ehselector.slot, align 4, !dbg !3903
  call void @__cxa_free_exception(i8* %exception) #10, !dbg !3899
  br label %eh.resume, !dbg !3899

if.end:                                           ; preds = %entry
  call void @llvm.dbg.declare(metadata %"class.xercesc_2_7::DOMNodeIteratorImpl"** %nodeIterator, metadata !3904, metadata !DIExpression()), !dbg !3905
  %5 = bitcast %"class.xercesc_2_7::DOMDocumentImpl"* %this1 to %"class.xercesc_2_7::DOMDocument"*, !dbg !3906
  %call3 = call i8* @_ZnwmPN11xercesc_2_711DOMDocumentE(i64 64, %"class.xercesc_2_7::DOMDocument"* %5), !dbg !3907
  %6 = bitcast i8* %call3 to %"class.xercesc_2_7::DOMNodeIteratorImpl"*, !dbg !3907
  %7 = bitcast %"class.xercesc_2_7::DOMDocumentImpl"* %this1 to %"class.xercesc_2_7::DOMDocument"*, !dbg !3908
  %8 = load %"class.xercesc_2_7::DOMNode"*, %"class.xercesc_2_7::DOMNode"** %root.addr, align 8, !dbg !3909
  %9 = load i64, i64* %whatToShow.addr, align 8, !dbg !3910
  %10 = load %"class.xercesc_2_7::DOMNodeFilter"*, %"class.xercesc_2_7::DOMNodeFilter"** %filter.addr, align 8, !dbg !3911
  %11 = load i8, i8* %entityReferenceExpansion.addr, align 1, !dbg !3912
  %tobool4 = trunc i8 %11 to i1, !dbg !3912
  call void @_ZN11xercesc_2_719DOMNodeIteratorImplC1EPNS_11DOMDocumentEPNS_7DOMNodeEmPNS_13DOMNodeFilterEb(%"class.xercesc_2_7::DOMNodeIteratorImpl"* %6, %"class.xercesc_2_7::DOMDocument"* %7, %"class.xercesc_2_7::DOMNode"* %8, i64 %9, %"class.xercesc_2_7::DOMNodeFilter"* %10, i1 zeroext %tobool4), !dbg !3913
  store %"class.xercesc_2_7::DOMNodeIteratorImpl"* %6, %"class.xercesc_2_7::DOMNodeIteratorImpl"** %nodeIterator, align 8, !dbg !3905
  %fNodeIterators = getelementptr inbounds %"class.xercesc_2_7::DOMDocumentImpl", %"class.xercesc_2_7::DOMDocumentImpl"* %this1, i32 0, i32 24, !dbg !3914
  %12 = load %"class.xercesc_2_7::RefVectorOf.7"*, %"class.xercesc_2_7::RefVectorOf.7"** %fNodeIterators, align 8, !dbg !3914
  %cmp = icmp eq %"class.xercesc_2_7::RefVectorOf.7"* %12, null, !dbg !3916
  br i1 %cmp, label %if.then5, label %if.end11, !dbg !3917

if.then5:                                         ; preds = %if.end
  %fMemoryManager = getelementptr inbounds %"class.xercesc_2_7::DOMDocumentImpl", %"class.xercesc_2_7::DOMDocumentImpl"* %this1, i32 0, i32 25, !dbg !3918
  %13 = load %"class.xercesc_2_7::MemoryManager"*, %"class.xercesc_2_7::MemoryManager"** %fMemoryManager, align 8, !dbg !3918
  %call6 = call i8* @_ZN11xercesc_2_77XMemorynwEmPNS_13MemoryManagerE(i64 40, %"class.xercesc_2_7::MemoryManager"* %13), !dbg !3920
  %14 = bitcast i8* %call6 to %"class.xercesc_2_7::RefVectorOf.7"*, !dbg !3920
  %fMemoryManager7 = getelementptr inbounds %"class.xercesc_2_7::DOMDocumentImpl", %"class.xercesc_2_7::DOMDocumentImpl"* %this1, i32 0, i32 25, !dbg !3921
  %15 = load %"class.xercesc_2_7::MemoryManager"*, %"class.xercesc_2_7::MemoryManager"** %fMemoryManager7, align 8, !dbg !3921
  invoke void @_ZN11xercesc_2_711RefVectorOfINS_19DOMNodeIteratorImplEEC2EjbPNS_13MemoryManagerE(%"class.xercesc_2_7::RefVectorOf.7"* %14, i32 1, i1 zeroext false, %"class.xercesc_2_7::MemoryManager"* %15)
          to label %invoke.cont9 unwind label %lpad8, !dbg !3922

invoke.cont9:                                     ; preds = %if.then5
  %fNodeIterators10 = getelementptr inbounds %"class.xercesc_2_7::DOMDocumentImpl", %"class.xercesc_2_7::DOMDocumentImpl"* %this1, i32 0, i32 24, !dbg !3923
  store %"class.xercesc_2_7::RefVectorOf.7"* %14, %"class.xercesc_2_7::RefVectorOf.7"** %fNodeIterators10, align 8, !dbg !3924
  br label %if.end11, !dbg !3925

lpad8:                                            ; preds = %if.then5
  %16 = landingpad { i8*, i32 }
          cleanup, !dbg !3926
  %17 = extractvalue { i8*, i32 } %16, 0, !dbg !3926
  store i8* %17, i8** %exn.slot, align 8, !dbg !3926
  %18 = extractvalue { i8*, i32 } %16, 1, !dbg !3926
  store i32 %18, i32* %ehselector.slot, align 4, !dbg !3926
  call void @_ZN11xercesc_2_77XMemorydlEPvPNS_13MemoryManagerE(i8* %call6, %"class.xercesc_2_7::MemoryManager"* %13) #10, !dbg !3920
  br label %eh.resume, !dbg !3920

if.end11:                                         ; preds = %invoke.cont9, %if.end
  %fNodeIterators12 = getelementptr inbounds %"class.xercesc_2_7::DOMDocumentImpl", %"class.xercesc_2_7::DOMDocumentImpl"* %this1, i32 0, i32 24, !dbg !3927
  %19 = load %"class.xercesc_2_7::RefVectorOf.7"*, %"class.xercesc_2_7::RefVectorOf.7"** %fNodeIterators12, align 8, !dbg !3927
  %20 = bitcast %"class.xercesc_2_7::RefVectorOf.7"* %19 to %"class.xercesc_2_7::BaseRefVectorOf.8"*, !dbg !3928
  %21 = load %"class.xercesc_2_7::DOMNodeIteratorImpl"*, %"class.xercesc_2_7::DOMNodeIteratorImpl"** %nodeIterator, align 8, !dbg !3929
  call void @_ZN11xercesc_2_715BaseRefVectorOfINS_19DOMNodeIteratorImplEE10addElementEPS1_(%"class.xercesc_2_7::BaseRefVectorOf.8"* %20, %"class.xercesc_2_7::DOMNodeIteratorImpl"* %21), !dbg !3928
  %22 = load %"class.xercesc_2_7::DOMNodeIteratorImpl"*, %"class.xercesc_2_7::DOMNodeIteratorImpl"** %nodeIterator, align 8, !dbg !3930
  %23 = bitcast %"class.xercesc_2_7::DOMNodeIteratorImpl"* %22 to %"class.xercesc_2_7::DOMNodeIterator"*, !dbg !3930
  ret %"class.xercesc_2_7::DOMNodeIterator"* %23, !dbg !3931

eh.resume:                                        ; preds = %lpad8, %lpad
  %exn = load i8*, i8** %exn.slot, align 8, !dbg !3899
  %sel = load i32, i32* %ehselector.slot, align 4, !dbg !3899
  %lpad.val = insertvalue { i8*, i32 } undef, i8* %exn, 0, !dbg !3899
  %lpad.val13 = insertvalue { i8*, i32 } %lpad.val, i32 %sel, 1, !dbg !3899
  resume { i8*, i32 } %lpad.val13, !dbg !3899
}

declare dso_local void @_ZN11xercesc_2_719DOMNodeIteratorImplC1EPNS_11DOMDocumentEPNS_7DOMNodeEmPNS_13DOMNodeFilterEb(%"class.xercesc_2_7::DOMNodeIteratorImpl"*, %"class.xercesc_2_7::DOMDocument"*, %"class.xercesc_2_7::DOMNode"*, i64, %"class.xercesc_2_7::DOMNodeFilter"*, i1 zeroext) unnamed_addr #4

; Function Attrs: noinline uwtable
define linkonce_odr dso_local void @_ZN11xercesc_2_711RefVectorOfINS_19DOMNodeIteratorImplEEC2EjbPNS_13MemoryManagerE(%"class.xercesc_2_7::RefVectorOf.7"* %this, i32 %maxElems, i1 zeroext %adoptElems, %"class.xercesc_2_7::MemoryManager"* %manager) unnamed_addr #3 comdat align 2 !dbg !3932 {
entry:
  %this.addr = alloca %"class.xercesc_2_7::RefVectorOf.7"*, align 8
  %maxElems.addr = alloca i32, align 4
  %adoptElems.addr = alloca i8, align 1
  %manager.addr = alloca %"class.xercesc_2_7::MemoryManager"*, align 8
  store %"class.xercesc_2_7::RefVectorOf.7"* %this, %"class.xercesc_2_7::RefVectorOf.7"** %this.addr, align 8
  call void @llvm.dbg.declare(metadata %"class.xercesc_2_7::RefVectorOf.7"** %this.addr, metadata !3934, metadata !DIExpression()), !dbg !3936
  store i32 %maxElems, i32* %maxElems.addr, align 4
  call void @llvm.dbg.declare(metadata i32* %maxElems.addr, metadata !3937, metadata !DIExpression()), !dbg !3938
  %frombool = zext i1 %adoptElems to i8
  store i8 %frombool, i8* %adoptElems.addr, align 1
  call void @llvm.dbg.declare(metadata i8* %adoptElems.addr, metadata !3939, metadata !DIExpression()), !dbg !3940
  store %"class.xercesc_2_7::MemoryManager"* %manager, %"class.xercesc_2_7::MemoryManager"** %manager.addr, align 8
  call void @llvm.dbg.declare(metadata %"class.xercesc_2_7::MemoryManager"** %manager.addr, metadata !3941, metadata !DIExpression()), !dbg !3942
  %this1 = load %"class.xercesc_2_7::RefVectorOf.7"*, %"class.xercesc_2_7::RefVectorOf.7"** %this.addr, align 8
  %0 = bitcast %"class.xercesc_2_7::RefVectorOf.7"* %this1 to %"class.xercesc_2_7::BaseRefVectorOf.8"*, !dbg !3943
  %1 = load i32, i32* %maxElems.addr, align 4, !dbg !3944
  %2 = load i8, i8* %adoptElems.addr, align 1, !dbg !3945
  %tobool = trunc i8 %2 to i1, !dbg !3945
  %3 = load %"class.xercesc_2_7::MemoryManager"*, %"class.xercesc_2_7::MemoryManager"** %manager.addr, align 8, !dbg !3946
  call void @_ZN11xercesc_2_715BaseRefVectorOfINS_19DOMNodeIteratorImplEEC2EjbPNS_13MemoryManagerE(%"class.xercesc_2_7::BaseRefVectorOf.8"* %0, i32 %1, i1 zeroext %tobool, %"class.xercesc_2_7::MemoryManager"* %3), !dbg !3947
  %4 = bitcast %"class.xercesc_2_7::RefVectorOf.7"* %this1 to i32 (...)***, !dbg !3943
  store i32 (...)** bitcast (i8** getelementptr inbounds ({ [9 x i8*] }, { [9 x i8*] }* @_ZTVN11xercesc_2_711RefVectorOfINS_19DOMNodeIteratorImplEEE, i32 0, inrange i32 0, i32 2) to i32 (...)**), i32 (...)*** %4, align 8, !dbg !3943
  ret void, !dbg !3948
}

; Function Attrs: noinline uwtable
define linkonce_odr dso_local void @_ZN11xercesc_2_715BaseRefVectorOfINS_19DOMNodeIteratorImplEE10addElementEPS1_(%"class.xercesc_2_7::BaseRefVectorOf.8"* %this, %"class.xercesc_2_7::DOMNodeIteratorImpl"* %toAdd) #3 comdat align 2 !dbg !3949 {
entry:
  %this.addr = alloca %"class.xercesc_2_7::BaseRefVectorOf.8"*, align 8
  %toAdd.addr = alloca %"class.xercesc_2_7::DOMNodeIteratorImpl"*, align 8
  store %"class.xercesc_2_7::BaseRefVectorOf.8"* %this, %"class.xercesc_2_7::BaseRefVectorOf.8"** %this.addr, align 8
  call void @llvm.dbg.declare(metadata %"class.xercesc_2_7::BaseRefVectorOf.8"** %this.addr, metadata !3951, metadata !DIExpression()), !dbg !3953
  store %"class.xercesc_2_7::DOMNodeIteratorImpl"* %toAdd, %"class.xercesc_2_7::DOMNodeIteratorImpl"** %toAdd.addr, align 8
  call void @llvm.dbg.declare(metadata %"class.xercesc_2_7::DOMNodeIteratorImpl"** %toAdd.addr, metadata !3954, metadata !DIExpression()), !dbg !3955
  %this1 = load %"class.xercesc_2_7::BaseRefVectorOf.8"*, %"class.xercesc_2_7::BaseRefVectorOf.8"** %this.addr, align 8
  call void @_ZN11xercesc_2_715BaseRefVectorOfINS_19DOMNodeIteratorImplEE19ensureExtraCapacityEj(%"class.xercesc_2_7::BaseRefVectorOf.8"* %this1, i32 1), !dbg !3956
  %0 = load %"class.xercesc_2_7::DOMNodeIteratorImpl"*, %"class.xercesc_2_7::DOMNodeIteratorImpl"** %toAdd.addr, align 8, !dbg !3957
  %fElemList = getelementptr inbounds %"class.xercesc_2_7::BaseRefVectorOf.8", %"class.xercesc_2_7::BaseRefVectorOf.8"* %this1, i32 0, i32 4, !dbg !3958
  %1 = load %"class.xercesc_2_7::DOMNodeIteratorImpl"**, %"class.xercesc_2_7::DOMNodeIteratorImpl"*** %fElemList, align 8, !dbg !3958
  %fCurCount = getelementptr inbounds %"class.xercesc_2_7::BaseRefVectorOf.8", %"class.xercesc_2_7::BaseRefVectorOf.8"* %this1, i32 0, i32 2, !dbg !3959
  %2 = load i32, i32* %fCurCount, align 4, !dbg !3959
  %idxprom = zext i32 %2 to i64, !dbg !3958
  %arrayidx = getelementptr inbounds %"class.xercesc_2_7::DOMNodeIteratorImpl"*, %"class.xercesc_2_7::DOMNodeIteratorImpl"** %1, i64 %idxprom, !dbg !3958
  store %"class.xercesc_2_7::DOMNodeIteratorImpl"* %0, %"class.xercesc_2_7::DOMNodeIteratorImpl"** %arrayidx, align 8, !dbg !3960
  %fCurCount2 = getelementptr inbounds %"class.xercesc_2_7::BaseRefVectorOf.8", %"class.xercesc_2_7::BaseRefVectorOf.8"* %this1, i32 0, i32 2, !dbg !3961
  %3 = load i32, i32* %fCurCount2, align 4, !dbg !3962
  %inc = add i32 %3, 1, !dbg !3962
  store i32 %inc, i32* %fCurCount2, align 4, !dbg !3962
  ret void, !dbg !3963
}

; Function Attrs: noinline uwtable
define dso_local %"class.xercesc_2_7::DOMNodeIterator"* @_ZThn16_N11xercesc_2_715DOMDocumentImpl18createNodeIteratorEPNS_7DOMNodeEmPNS_13DOMNodeFilterEb(%"class.xercesc_2_7::DOMDocumentImpl"* %this, %"class.xercesc_2_7::DOMNode"* %root, i64 %whatToShow, %"class.xercesc_2_7::DOMNodeFilter"* %filter, i1 zeroext %entityReferenceExpansion) unnamed_addr #3 align 2 !dbg !3964 {
entry:
  %this.addr = alloca %"class.xercesc_2_7::DOMDocumentImpl"*, align 8
  %root.addr = alloca %"class.xercesc_2_7::DOMNode"*, align 8
  %whatToShow.addr = alloca i64, align 8
  %filter.addr = alloca %"class.xercesc_2_7::DOMNodeFilter"*, align 8
  %entityReferenceExpansion.addr = alloca i8, align 1
  store %"class.xercesc_2_7::DOMDocumentImpl"* %this, %"class.xercesc_2_7::DOMDocumentImpl"** %this.addr, align 8
  store %"class.xercesc_2_7::DOMNode"* %root, %"class.xercesc_2_7::DOMNode"** %root.addr, align 8
  store i64 %whatToShow, i64* %whatToShow.addr, align 8
  store %"class.xercesc_2_7::DOMNodeFilter"* %filter, %"class.xercesc_2_7::DOMNodeFilter"** %filter.addr, align 8
  %frombool = zext i1 %entityReferenceExpansion to i8
  store i8 %frombool, i8* %entityReferenceExpansion.addr, align 1
  %this1 = load %"class.xercesc_2_7::DOMDocumentImpl"*, %"class.xercesc_2_7::DOMDocumentImpl"** %this.addr, align 8, !dbg !3965
  %0 = bitcast %"class.xercesc_2_7::DOMDocumentImpl"* %this1 to i8*, !dbg !3965
  %1 = getelementptr inbounds i8, i8* %0, i64 -16, !dbg !3965
  %2 = bitcast i8* %1 to %"class.xercesc_2_7::DOMDocumentImpl"*, !dbg !3965
  %3 = load %"class.xercesc_2_7::DOMNode"*, %"class.xercesc_2_7::DOMNode"** %root.addr, align 8, !dbg !3965
  %4 = load i64, i64* %whatToShow.addr, align 8, !dbg !3965
  %5 = load %"class.xercesc_2_7::DOMNodeFilter"*, %"class.xercesc_2_7::DOMNodeFilter"** %filter.addr, align 8, !dbg !3965
  %6 = load i8, i8* %entityReferenceExpansion.addr, align 1, !dbg !3965
  %tobool = trunc i8 %6 to i1, !dbg !3965
  %call = tail call %"class.xercesc_2_7::DOMNodeIterator"* @_ZN11xercesc_2_715DOMDocumentImpl18createNodeIteratorEPNS_7DOMNodeEmPNS_13DOMNodeFilterEb(%"class.xercesc_2_7::DOMDocumentImpl"* %2, %"class.xercesc_2_7::DOMNode"* %3, i64 %4, %"class.xercesc_2_7::DOMNodeFilter"* %5, i1 zeroext %tobool), !dbg !3965
  ret %"class.xercesc_2_7::DOMNodeIterator"* %call, !dbg !3965
}

; Function Attrs: noinline nounwind uwtable
define dso_local %"class.xercesc_2_7::RefVectorOf.7"* @_ZNK11xercesc_2_715DOMDocumentImpl16getNodeIteratorsEv(%"class.xercesc_2_7::DOMDocumentImpl"* %this) unnamed_addr #1 align 2 !dbg !3966 {
entry:
  %this.addr = alloca %"class.xercesc_2_7::DOMDocumentImpl"*, align 8
  store %"class.xercesc_2_7::DOMDocumentImpl"* %this, %"class.xercesc_2_7::DOMDocumentImpl"** %this.addr, align 8
  call void @llvm.dbg.declare(metadata %"class.xercesc_2_7::DOMDocumentImpl"** %this.addr, metadata !3967, metadata !DIExpression()), !dbg !3968
  %this1 = load %"class.xercesc_2_7::DOMDocumentImpl"*, %"class.xercesc_2_7::DOMDocumentImpl"** %this.addr, align 8
  %fNodeIterators = getelementptr inbounds %"class.xercesc_2_7::DOMDocumentImpl", %"class.xercesc_2_7::DOMDocumentImpl"* %this1, i32 0, i32 24, !dbg !3969
  %0 = load %"class.xercesc_2_7::RefVectorOf.7"*, %"class.xercesc_2_7::RefVectorOf.7"** %fNodeIterators, align 8, !dbg !3969
  ret %"class.xercesc_2_7::RefVectorOf.7"* %0, !dbg !3970
}

; Function Attrs: noinline uwtable
define dso_local void @_ZN11xercesc_2_715DOMDocumentImpl18removeNodeIteratorEPNS_19DOMNodeIteratorImplE(%"class.xercesc_2_7::DOMDocumentImpl"* %this, %"class.xercesc_2_7::DOMNodeIteratorImpl"* %nodeIterator) unnamed_addr #3 align 2 !dbg !3971 {
entry:
  %this.addr = alloca %"class.xercesc_2_7::DOMDocumentImpl"*, align 8
  %nodeIterator.addr = alloca %"class.xercesc_2_7::DOMNodeIteratorImpl"*, align 8
  %sz = alloca i64, align 8
  %i = alloca i64, align 8
  store %"class.xercesc_2_7::DOMDocumentImpl"* %this, %"class.xercesc_2_7::DOMDocumentImpl"** %this.addr, align 8
  call void @llvm.dbg.declare(metadata %"class.xercesc_2_7::DOMDocumentImpl"** %this.addr, metadata !3972, metadata !DIExpression()), !dbg !3973
  store %"class.xercesc_2_7::DOMNodeIteratorImpl"* %nodeIterator, %"class.xercesc_2_7::DOMNodeIteratorImpl"** %nodeIterator.addr, align 8
  call void @llvm.dbg.declare(metadata %"class.xercesc_2_7::DOMNodeIteratorImpl"** %nodeIterator.addr, metadata !3974, metadata !DIExpression()), !dbg !3975
  %this1 = load %"class.xercesc_2_7::DOMDocumentImpl"*, %"class.xercesc_2_7::DOMDocumentImpl"** %this.addr, align 8
  %fNodeIterators = getelementptr inbounds %"class.xercesc_2_7::DOMDocumentImpl", %"class.xercesc_2_7::DOMDocumentImpl"* %this1, i32 0, i32 24, !dbg !3976
  %0 = load %"class.xercesc_2_7::RefVectorOf.7"*, %"class.xercesc_2_7::RefVectorOf.7"** %fNodeIterators, align 8, !dbg !3976
  %cmp = icmp ne %"class.xercesc_2_7::RefVectorOf.7"* %0, null, !dbg !3978
  br i1 %cmp, label %if.then, label %if.end14, !dbg !3979

if.then:                                          ; preds = %entry
  call void @llvm.dbg.declare(metadata i64* %sz, metadata !3980, metadata !DIExpression()), !dbg !3982
  %fNodeIterators2 = getelementptr inbounds %"class.xercesc_2_7::DOMDocumentImpl", %"class.xercesc_2_7::DOMDocumentImpl"* %this1, i32 0, i32 24, !dbg !3983
  %1 = load %"class.xercesc_2_7::RefVectorOf.7"*, %"class.xercesc_2_7::RefVectorOf.7"** %fNodeIterators2, align 8, !dbg !3983
  %2 = bitcast %"class.xercesc_2_7::RefVectorOf.7"* %1 to %"class.xercesc_2_7::BaseRefVectorOf.8"*, !dbg !3984
  %call = call i32 @_ZNK11xercesc_2_715BaseRefVectorOfINS_19DOMNodeIteratorImplEE4sizeEv(%"class.xercesc_2_7::BaseRefVectorOf.8"* %2), !dbg !3984
  %conv = zext i32 %call to i64, !dbg !3983
  store i64 %conv, i64* %sz, align 8, !dbg !3982
  %3 = load i64, i64* %sz, align 8, !dbg !3985
  %cmp3 = icmp ne i64 %3, 0, !dbg !3987
  br i1 %cmp3, label %if.then4, label %if.end13, !dbg !3988

if.then4:                                         ; preds = %if.then
  call void @llvm.dbg.declare(metadata i64* %i, metadata !3989, metadata !DIExpression()), !dbg !3992
  store i64 0, i64* %i, align 8, !dbg !3992
  br label %for.cond, !dbg !3993

for.cond:                                         ; preds = %for.inc, %if.then4
  %4 = load i64, i64* %i, align 8, !dbg !3994
  %5 = load i64, i64* %sz, align 8, !dbg !3996
  %cmp5 = icmp ult i64 %4, %5, !dbg !3997
  br i1 %cmp5, label %for.body, label %for.end, !dbg !3998

for.body:                                         ; preds = %for.cond
  %fNodeIterators6 = getelementptr inbounds %"class.xercesc_2_7::DOMDocumentImpl", %"class.xercesc_2_7::DOMDocumentImpl"* %this1, i32 0, i32 24, !dbg !3999
  %6 = load %"class.xercesc_2_7::RefVectorOf.7"*, %"class.xercesc_2_7::RefVectorOf.7"** %fNodeIterators6, align 8, !dbg !3999
  %7 = bitcast %"class.xercesc_2_7::RefVectorOf.7"* %6 to %"class.xercesc_2_7::BaseRefVectorOf.8"*, !dbg !4002
  %8 = load i64, i64* %i, align 8, !dbg !4003
  %conv7 = trunc i64 %8 to i32, !dbg !4003
  %call8 = call %"class.xercesc_2_7::DOMNodeIteratorImpl"* @_ZN11xercesc_2_715BaseRefVectorOfINS_19DOMNodeIteratorImplEE9elementAtEj(%"class.xercesc_2_7::BaseRefVectorOf.8"* %7, i32 %conv7), !dbg !4002
  %9 = load %"class.xercesc_2_7::DOMNodeIteratorImpl"*, %"class.xercesc_2_7::DOMNodeIteratorImpl"** %nodeIterator.addr, align 8, !dbg !4004
  %cmp9 = icmp eq %"class.xercesc_2_7::DOMNodeIteratorImpl"* %call8, %9, !dbg !4005
  br i1 %cmp9, label %if.then10, label %if.end, !dbg !4006

if.then10:                                        ; preds = %for.body
  %fNodeIterators11 = getelementptr inbounds %"class.xercesc_2_7::DOMDocumentImpl", %"class.xercesc_2_7::DOMDocumentImpl"* %this1, i32 0, i32 24, !dbg !4007
  %10 = load %"class.xercesc_2_7::RefVectorOf.7"*, %"class.xercesc_2_7::RefVectorOf.7"** %fNodeIterators11, align 8, !dbg !4007
  %11 = bitcast %"class.xercesc_2_7::RefVectorOf.7"* %10 to %"class.xercesc_2_7::BaseRefVectorOf.8"*, !dbg !4009
  %12 = load i64, i64* %i, align 8, !dbg !4010
  %conv12 = trunc i64 %12 to i32, !dbg !4010
  %13 = bitcast %"class.xercesc_2_7::BaseRefVectorOf.8"* %11 to void (%"class.xercesc_2_7::BaseRefVectorOf.8"*, i32)***, !dbg !4009
  %vtable = load void (%"class.xercesc_2_7::BaseRefVectorOf.8"*, i32)**, void (%"class.xercesc_2_7::BaseRefVectorOf.8"*, i32)*** %13, align 8, !dbg !4009
  %vfn = getelementptr inbounds void (%"class.xercesc_2_7::BaseRefVectorOf.8"*, i32)*, void (%"class.xercesc_2_7::BaseRefVectorOf.8"*, i32)** %vtable, i64 4, !dbg !4009
  %14 = load void (%"class.xercesc_2_7::BaseRefVectorOf.8"*, i32)*, void (%"class.xercesc_2_7::BaseRefVectorOf.8"*, i32)** %vfn, align 8, !dbg !4009
  call void %14(%"class.xercesc_2_7::BaseRefVectorOf.8"* %11, i32 %conv12), !dbg !4009
  br label %for.end, !dbg !4011

if.end:                                           ; preds = %for.body
  br label %for.inc, !dbg !4012

for.inc:                                          ; preds = %if.end
  %15 = load i64, i64* %i, align 8, !dbg !4013
  %inc = add i64 %15, 1, !dbg !4013
  store i64 %inc, i64* %i, align 8, !dbg !4013
  br label %for.cond, !dbg !4014, !llvm.loop !4015

for.end:                                          ; preds = %if.then10, %for.cond
  br label %if.end13, !dbg !4017

if.end13:                                         ; preds = %for.end, %if.then
  br label %if.end14, !dbg !4018

if.end14:                                         ; preds = %if.end13, %entry
  ret void, !dbg !4019
}

; Function Attrs: noinline nounwind uwtable
define linkonce_odr dso_local i32 @_ZNK11xercesc_2_715BaseRefVectorOfINS_19DOMNodeIteratorImplEE4sizeEv(%"class.xercesc_2_7::BaseRefVectorOf.8"* %this) #1 comdat align 2 !dbg !4020 {
entry:
  %this.addr = alloca %"class.xercesc_2_7::BaseRefVectorOf.8"*, align 8
  store %"class.xercesc_2_7::BaseRefVectorOf.8"* %this, %"class.xercesc_2_7::BaseRefVectorOf.8"** %this.addr, align 8
  call void @llvm.dbg.declare(metadata %"class.xercesc_2_7::BaseRefVectorOf.8"** %this.addr, metadata !4021, metadata !DIExpression()), !dbg !4023
  %this1 = load %"class.xercesc_2_7::BaseRefVectorOf.8"*, %"class.xercesc_2_7::BaseRefVectorOf.8"** %this.addr, align 8
  %fCurCount = getelementptr inbounds %"class.xercesc_2_7::BaseRefVectorOf.8", %"class.xercesc_2_7::BaseRefVectorOf.8"* %this1, i32 0, i32 2, !dbg !4024
  %0 = load i32, i32* %fCurCount, align 4, !dbg !4024
  ret i32 %0, !dbg !4025
}

; Function Attrs: noinline uwtable
define linkonce_odr dso_local %"class.xercesc_2_7::DOMNodeIteratorImpl"* @_ZN11xercesc_2_715BaseRefVectorOfINS_19DOMNodeIteratorImplEE9elementAtEj(%"class.xercesc_2_7::BaseRefVectorOf.8"* %this, i32 %getAt) #3 comdat align 2 personality i8* bitcast (i32 (...)* @__gxx_personality_v0 to i8*) !dbg !4026 {
entry:
  %this.addr = alloca %"class.xercesc_2_7::BaseRefVectorOf.8"*, align 8
  %getAt.addr = alloca i32, align 4
  %exn.slot = alloca i8*
  %ehselector.slot = alloca i32
  store %"class.xercesc_2_7::BaseRefVectorOf.8"* %this, %"class.xercesc_2_7::BaseRefVectorOf.8"** %this.addr, align 8
  call void @llvm.dbg.declare(metadata %"class.xercesc_2_7::BaseRefVectorOf.8"** %this.addr, metadata !4027, metadata !DIExpression()), !dbg !4028
  store i32 %getAt, i32* %getAt.addr, align 4
  call void @llvm.dbg.declare(metadata i32* %getAt.addr, metadata !4029, metadata !DIExpression()), !dbg !4030
  %this1 = load %"class.xercesc_2_7::BaseRefVectorOf.8"*, %"class.xercesc_2_7::BaseRefVectorOf.8"** %this.addr, align 8
  %0 = load i32, i32* %getAt.addr, align 4, !dbg !4031
  %fCurCount = getelementptr inbounds %"class.xercesc_2_7::BaseRefVectorOf.8", %"class.xercesc_2_7::BaseRefVectorOf.8"* %this1, i32 0, i32 2, !dbg !4033
  %1 = load i32, i32* %fCurCount, align 4, !dbg !4033
  %cmp = icmp uge i32 %0, %1, !dbg !4034
  br i1 %cmp, label %if.then, label %if.end, !dbg !4035

if.then:                                          ; preds = %entry
  %exception = call i8* @__cxa_allocate_exception(i64 48) #10, !dbg !4036
  %2 = bitcast i8* %exception to %"class.xercesc_2_7::ArrayIndexOutOfBoundsException"*, !dbg !4036
  %fMemoryManager = getelementptr inbounds %"class.xercesc_2_7::BaseRefVectorOf.8", %"class.xercesc_2_7::BaseRefVectorOf.8"* %this1, i32 0, i32 5, !dbg !4036
  %3 = load %"class.xercesc_2_7::MemoryManager"*, %"class.xercesc_2_7::MemoryManager"** %fMemoryManager, align 8, !dbg !4036
  invoke void @_ZN11xercesc_2_730ArrayIndexOutOfBoundsExceptionC2EPKcjNS_10XMLExcepts5CodesEPNS_13MemoryManagerE(%"class.xercesc_2_7::ArrayIndexOutOfBoundsException"* %2, i8* getelementptr inbounds ([33 x i8], [33 x i8]* @.str.1, i64 0, i64 0), i32 249, i32 116, %"class.xercesc_2_7::MemoryManager"* %3)
          to label %invoke.cont unwind label %lpad, !dbg !4036

invoke.cont:                                      ; preds = %if.then
  call void @__cxa_throw(i8* %exception, i8* bitcast ({ i8*, i8*, i8* }* @_ZTIN11xercesc_2_730ArrayIndexOutOfBoundsExceptionE to i8*), i8* bitcast (void (%"class.xercesc_2_7::ArrayIndexOutOfBoundsException"*)* @_ZN11xercesc_2_730ArrayIndexOutOfBoundsExceptionD2Ev to i8*)) #12, !dbg !4036
  unreachable, !dbg !4036

lpad:                                             ; preds = %if.then
  %4 = landingpad { i8*, i32 }
          cleanup, !dbg !4037
  %5 = extractvalue { i8*, i32 } %4, 0, !dbg !4037
  store i8* %5, i8** %exn.slot, align 8, !dbg !4037
  %6 = extractvalue { i8*, i32 } %4, 1, !dbg !4037
  store i32 %6, i32* %ehselector.slot, align 4, !dbg !4037
  call void @__cxa_free_exception(i8* %exception) #10, !dbg !4036
  br label %eh.resume, !dbg !4036

if.end:                                           ; preds = %entry
  %fElemList = getelementptr inbounds %"class.xercesc_2_7::BaseRefVectorOf.8", %"class.xercesc_2_7::BaseRefVectorOf.8"* %this1, i32 0, i32 4, !dbg !4038
  %7 = load %"class.xercesc_2_7::DOMNodeIteratorImpl"**, %"class.xercesc_2_7::DOMNodeIteratorImpl"*** %fElemList, align 8, !dbg !4038
  %8 = load i32, i32* %getAt.addr, align 4, !dbg !4039
  %idxprom = zext i32 %8 to i64, !dbg !4038
  %arrayidx = getelementptr inbounds %"class.xercesc_2_7::DOMNodeIteratorImpl"*, %"class.xercesc_2_7::DOMNodeIteratorImpl"** %7, i64 %idxprom, !dbg !4038
  %9 = load %"class.xercesc_2_7::DOMNodeIteratorImpl"*, %"class.xercesc_2_7::DOMNodeIteratorImpl"** %arrayidx, align 8, !dbg !4038
  ret %"class.xercesc_2_7::DOMNodeIteratorImpl"* %9, !dbg !4040

eh.resume:                                        ; preds = %lpad
  %exn = load i8*, i8** %exn.slot, align 8, !dbg !4036
  %sel = load i32, i32* %ehselector.slot, align 4, !dbg !4036
  %lpad.val = insertvalue { i8*, i32 } undef, i8* %exn, 0, !dbg !4036
  %lpad.val2 = insertvalue { i8*, i32 } %lpad.val, i32 %sel, 1, !dbg !4036
  resume { i8*, i32 } %lpad.val2, !dbg !4036
}

; Function Attrs: noinline uwtable
define dso_local %"class.xercesc_2_7::DOMXPathExpression"* @_ZN11xercesc_2_715DOMDocumentImpl16createExpressionEPKtPKNS_18DOMXPathNSResolverE(%"class.xercesc_2_7::DOMDocumentImpl"* %this, i16* %0, %"class.xercesc_2_7::DOMXPathNSResolver"* %1) unnamed_addr #3 align 2 personality i8* bitcast (i32 (...)* @__gxx_personality_v0 to i8*) !dbg !4041 {
entry:
  %this.addr = alloca %"class.xercesc_2_7::DOMDocumentImpl"*, align 8
  %.addr = alloca i16*, align 8
  %.addr1 = alloca %"class.xercesc_2_7::DOMXPathNSResolver"*, align 8
  %exn.slot = alloca i8*
  %ehselector.slot = alloca i32
  store %"class.xercesc_2_7::DOMDocumentImpl"* %this, %"class.xercesc_2_7::DOMDocumentImpl"** %this.addr, align 8
  call void @llvm.dbg.declare(metadata %"class.xercesc_2_7::DOMDocumentImpl"** %this.addr, metadata !4042, metadata !DIExpression()), !dbg !4043
  store i16* %0, i16** %.addr, align 8
  call void @llvm.dbg.declare(metadata i16** %.addr, metadata !4044, metadata !DIExpression()), !dbg !4045
  store %"class.xercesc_2_7::DOMXPathNSResolver"* %1, %"class.xercesc_2_7::DOMXPathNSResolver"** %.addr1, align 8
  call void @llvm.dbg.declare(metadata %"class.xercesc_2_7::DOMXPathNSResolver"** %.addr1, metadata !4046, metadata !DIExpression()), !dbg !4047
  %this2 = load %"class.xercesc_2_7::DOMDocumentImpl"*, %"class.xercesc_2_7::DOMDocumentImpl"** %this.addr, align 8
  %exception = call i8* @__cxa_allocate_exception(i64 40) #10, !dbg !4048
  %2 = bitcast i8* %exception to %"class.xercesc_2_7::DOMException"*, !dbg !4048
  %call = invoke %"class.xercesc_2_7::MemoryManager"* @_ZNK11xercesc_2_715DOMDocumentImpl16getMemoryManagerEv(%"class.xercesc_2_7::DOMDocumentImpl"* %this2)
          to label %invoke.cont unwind label %lpad, !dbg !4049

invoke.cont:                                      ; preds = %entry
  invoke void @_ZN11xercesc_2_712DOMExceptionC1EsPKtPNS_13MemoryManagerE(%"class.xercesc_2_7::DOMException"* %2, i16 signext 9, i16* null, %"class.xercesc_2_7::MemoryManager"* %call)
          to label %invoke.cont3 unwind label %lpad, !dbg !4050

invoke.cont3:                                     ; preds = %invoke.cont
  call void @__cxa_throw(i8* %exception, i8* bitcast (i8** @_ZTIN11xercesc_2_712DOMExceptionE to i8*), i8* bitcast (void (%"class.xercesc_2_7::DOMException"*)* @_ZN11xercesc_2_712DOMExceptionD1Ev to i8*)) #12, !dbg !4048
  unreachable, !dbg !4048

lpad:                                             ; preds = %invoke.cont, %entry
  %3 = landingpad { i8*, i32 }
          cleanup, !dbg !4051
  %4 = extractvalue { i8*, i32 } %3, 0, !dbg !4051
  store i8* %4, i8** %exn.slot, align 8, !dbg !4051
  %5 = extractvalue { i8*, i32 } %3, 1, !dbg !4051
  store i32 %5, i32* %ehselector.slot, align 4, !dbg !4051
  call void @__cxa_free_exception(i8* %exception) #10, !dbg !4048
  br label %eh.resume, !dbg !4048

eh.resume:                                        ; preds = %lpad
  %exn = load i8*, i8** %exn.slot, align 8, !dbg !4048
  %sel = load i32, i32* %ehselector.slot, align 4, !dbg !4048
  %lpad.val = insertvalue { i8*, i32 } undef, i8* %exn, 0, !dbg !4048
  %lpad.val4 = insertvalue { i8*, i32 } %lpad.val, i32 %sel, 1, !dbg !4048
  resume { i8*, i32 } %lpad.val4, !dbg !4048
}

; Function Attrs: noinline uwtable
define dso_local %"class.xercesc_2_7::DOMXPathExpression"* @_ZThn8_N11xercesc_2_715DOMDocumentImpl16createExpressionEPKtPKNS_18DOMXPathNSResolverE(%"class.xercesc_2_7::DOMDocumentImpl"* %this, i16* %0, %"class.xercesc_2_7::DOMXPathNSResolver"* %1) unnamed_addr #3 align 2 !dbg !4052 {
entry:
  %this.addr = alloca %"class.xercesc_2_7::DOMDocumentImpl"*, align 8
  %.addr = alloca i16*, align 8
  %.addr1 = alloca %"class.xercesc_2_7::DOMXPathNSResolver"*, align 8
  store %"class.xercesc_2_7::DOMDocumentImpl"* %this, %"class.xercesc_2_7::DOMDocumentImpl"** %this.addr, align 8
  store i16* %0, i16** %.addr, align 8
  store %"class.xercesc_2_7::DOMXPathNSResolver"* %1, %"class.xercesc_2_7::DOMXPathNSResolver"** %.addr1, align 8
  %this2 = load %"class.xercesc_2_7::DOMDocumentImpl"*, %"class.xercesc_2_7::DOMDocumentImpl"** %this.addr, align 8, !dbg !4053
  %2 = bitcast %"class.xercesc_2_7::DOMDocumentImpl"* %this2 to i8*, !dbg !4053
  %3 = getelementptr inbounds i8, i8* %2, i64 -8, !dbg !4053
  %4 = bitcast i8* %3 to %"class.xercesc_2_7::DOMDocumentImpl"*, !dbg !4053
  %5 = load i16*, i16** %.addr, align 8, !dbg !4053
  %6 = load %"class.xercesc_2_7::DOMXPathNSResolver"*, %"class.xercesc_2_7::DOMXPathNSResolver"** %.addr1, align 8, !dbg !4053
  %call = tail call %"class.xercesc_2_7::DOMXPathExpression"* @_ZN11xercesc_2_715DOMDocumentImpl16createExpressionEPKtPKNS_18DOMXPathNSResolverE(%"class.xercesc_2_7::DOMDocumentImpl"* %4, i16* %5, %"class.xercesc_2_7::DOMXPathNSResolver"* %6), !dbg !4053
  ret %"class.xercesc_2_7::DOMXPathExpression"* %call, !dbg !4053
}

; Function Attrs: noinline uwtable
define dso_local %"class.xercesc_2_7::DOMXPathNSResolver"* @_ZN11xercesc_2_715DOMDocumentImpl16createNSResolverEPNS_7DOMNodeE(%"class.xercesc_2_7::DOMDocumentImpl"* %this, %"class.xercesc_2_7::DOMNode"* %0) unnamed_addr #3 align 2 personality i8* bitcast (i32 (...)* @__gxx_personality_v0 to i8*) !dbg !4054 {
entry:
  %this.addr = alloca %"class.xercesc_2_7::DOMDocumentImpl"*, align 8
  %.addr = alloca %"class.xercesc_2_7::DOMNode"*, align 8
  %exn.slot = alloca i8*
  %ehselector.slot = alloca i32
  store %"class.xercesc_2_7::DOMDocumentImpl"* %this, %"class.xercesc_2_7::DOMDocumentImpl"** %this.addr, align 8
  call void @llvm.dbg.declare(metadata %"class.xercesc_2_7::DOMDocumentImpl"** %this.addr, metadata !4055, metadata !DIExpression()), !dbg !4056
  store %"class.xercesc_2_7::DOMNode"* %0, %"class.xercesc_2_7::DOMNode"** %.addr, align 8
  call void @llvm.dbg.declare(metadata %"class.xercesc_2_7::DOMNode"** %.addr, metadata !4057, metadata !DIExpression()), !dbg !4058
  %this1 = load %"class.xercesc_2_7::DOMDocumentImpl"*, %"class.xercesc_2_7::DOMDocumentImpl"** %this.addr, align 8
  %exception = call i8* @__cxa_allocate_exception(i64 40) #10, !dbg !4059
  %1 = bitcast i8* %exception to %"class.xercesc_2_7::DOMException"*, !dbg !4059
  %call = invoke %"class.xercesc_2_7::MemoryManager"* @_ZNK11xercesc_2_715DOMDocumentImpl16getMemoryManagerEv(%"class.xercesc_2_7::DOMDocumentImpl"* %this1)
          to label %invoke.cont unwind label %lpad, !dbg !4060

invoke.cont:                                      ; preds = %entry
  invoke void @_ZN11xercesc_2_712DOMExceptionC1EsPKtPNS_13MemoryManagerE(%"class.xercesc_2_7::DOMException"* %1, i16 signext 9, i16* null, %"class.xercesc_2_7::MemoryManager"* %call)
          to label %invoke.cont2 unwind label %lpad, !dbg !4061

invoke.cont2:                                     ; preds = %invoke.cont
  call void @__cxa_throw(i8* %exception, i8* bitcast (i8** @_ZTIN11xercesc_2_712DOMExceptionE to i8*), i8* bitcast (void (%"class.xercesc_2_7::DOMException"*)* @_ZN11xercesc_2_712DOMExceptionD1Ev to i8*)) #12, !dbg !4059
  unreachable, !dbg !4059

lpad:                                             ; preds = %invoke.cont, %entry
  %2 = landingpad { i8*, i32 }
          cleanup, !dbg !4062
  %3 = extractvalue { i8*, i32 } %2, 0, !dbg !4062
  store i8* %3, i8** %exn.slot, align 8, !dbg !4062
  %4 = extractvalue { i8*, i32 } %2, 1, !dbg !4062
  store i32 %4, i32* %ehselector.slot, align 4, !dbg !4062
  call void @__cxa_free_exception(i8* %exception) #10, !dbg !4059
  br label %eh.resume, !dbg !4059

eh.resume:                                        ; preds = %lpad
  %exn = load i8*, i8** %exn.slot, align 8, !dbg !4059
  %sel = load i32, i32* %ehselector.slot, align 4, !dbg !4059
  %lpad.val = insertvalue { i8*, i32 } undef, i8* %exn, 0, !dbg !4059
  %lpad.val3 = insertvalue { i8*, i32 } %lpad.val, i32 %sel, 1, !dbg !4059
  resume { i8*, i32 } %lpad.val3, !dbg !4059
}

; Function Attrs: noinline uwtable
define dso_local %"class.xercesc_2_7::DOMXPathNSResolver"* @_ZThn8_N11xercesc_2_715DOMDocumentImpl16createNSResolverEPNS_7DOMNodeE(%"class.xercesc_2_7::DOMDocumentImpl"* %this, %"class.xercesc_2_7::DOMNode"* %0) unnamed_addr #3 align 2 !dbg !4063 {
entry:
  %this.addr = alloca %"class.xercesc_2_7::DOMDocumentImpl"*, align 8
  %.addr = alloca %"class.xercesc_2_7::DOMNode"*, align 8
  store %"class.xercesc_2_7::DOMDocumentImpl"* %this, %"class.xercesc_2_7::DOMDocumentImpl"** %this.addr, align 8
  store %"class.xercesc_2_7::DOMNode"* %0, %"class.xercesc_2_7::DOMNode"** %.addr, align 8
  %this1 = load %"class.xercesc_2_7::DOMDocumentImpl"*, %"class.xercesc_2_7::DOMDocumentImpl"** %this.addr, align 8, !dbg !4064
  %1 = bitcast %"class.xercesc_2_7::DOMDocumentImpl"* %this1 to i8*, !dbg !4064
  %2 = getelementptr inbounds i8, i8* %1, i64 -8, !dbg !4064
  %3 = bitcast i8* %2 to %"class.xercesc_2_7::DOMDocumentImpl"*, !dbg !4064
  %4 = load %"class.xercesc_2_7::DOMNode"*, %"class.xercesc_2_7::DOMNode"** %.addr, align 8, !dbg !4064
  %call = tail call %"class.xercesc_2_7::DOMXPathNSResolver"* @_ZN11xercesc_2_715DOMDocumentImpl16createNSResolverEPNS_7DOMNodeE(%"class.xercesc_2_7::DOMDocumentImpl"* %3, %"class.xercesc_2_7::DOMNode"* %4), !dbg !4064
  ret %"class.xercesc_2_7::DOMXPathNSResolver"* %call, !dbg !4064
}

; Function Attrs: noinline uwtable
define dso_local i8* @_ZN11xercesc_2_715DOMDocumentImpl8evaluateEPKtPNS_7DOMNodeEPKNS_18DOMXPathNSResolverEtPv(%"class.xercesc_2_7::DOMDocumentImpl"* %this, i16* %0, %"class.xercesc_2_7::DOMNode"* %1, %"class.xercesc_2_7::DOMXPathNSResolver"* %2, i16 zeroext %3, i8* %4) unnamed_addr #3 align 2 personality i8* bitcast (i32 (...)* @__gxx_personality_v0 to i8*) !dbg !4065 {
entry:
  %this.addr = alloca %"class.xercesc_2_7::DOMDocumentImpl"*, align 8
  %.addr = alloca i16*, align 8
  %.addr1 = alloca %"class.xercesc_2_7::DOMNode"*, align 8
  %.addr2 = alloca %"class.xercesc_2_7::DOMXPathNSResolver"*, align 8
  %.addr3 = alloca i16, align 2
  %.addr4 = alloca i8*, align 8
  %exn.slot = alloca i8*
  %ehselector.slot = alloca i32
  store %"class.xercesc_2_7::DOMDocumentImpl"* %this, %"class.xercesc_2_7::DOMDocumentImpl"** %this.addr, align 8
  call void @llvm.dbg.declare(metadata %"class.xercesc_2_7::DOMDocumentImpl"** %this.addr, metadata !4066, metadata !DIExpression()), !dbg !4067
  store i16* %0, i16** %.addr, align 8
  call void @llvm.dbg.declare(metadata i16** %.addr, metadata !4068, metadata !DIExpression()), !dbg !4069
  store %"class.xercesc_2_7::DOMNode"* %1, %"class.xercesc_2_7::DOMNode"** %.addr1, align 8
  call void @llvm.dbg.declare(metadata %"class.xercesc_2_7::DOMNode"** %.addr1, metadata !4070, metadata !DIExpression()), !dbg !4071
  store %"class.xercesc_2_7::DOMXPathNSResolver"* %2, %"class.xercesc_2_7::DOMXPathNSResolver"** %.addr2, align 8
  call void @llvm.dbg.declare(metadata %"class.xercesc_2_7::DOMXPathNSResolver"** %.addr2, metadata !4072, metadata !DIExpression()), !dbg !4073
  store i16 %3, i16* %.addr3, align 2
  call void @llvm.dbg.declare(metadata i16* %.addr3, metadata !4074, metadata !DIExpression()), !dbg !4075
  store i8* %4, i8** %.addr4, align 8
  call void @llvm.dbg.declare(metadata i8** %.addr4, metadata !4076, metadata !DIExpression()), !dbg !4077
  %this5 = load %"class.xercesc_2_7::DOMDocumentImpl"*, %"class.xercesc_2_7::DOMDocumentImpl"** %this.addr, align 8
  %exception = call i8* @__cxa_allocate_exception(i64 40) #10, !dbg !4078
  %5 = bitcast i8* %exception to %"class.xercesc_2_7::DOMException"*, !dbg !4078
  %call = invoke %"class.xercesc_2_7::MemoryManager"* @_ZNK11xercesc_2_715DOMDocumentImpl16getMemoryManagerEv(%"class.xercesc_2_7::DOMDocumentImpl"* %this5)
          to label %invoke.cont unwind label %lpad, !dbg !4079

invoke.cont:                                      ; preds = %entry
  invoke void @_ZN11xercesc_2_712DOMExceptionC1EsPKtPNS_13MemoryManagerE(%"class.xercesc_2_7::DOMException"* %5, i16 signext 9, i16* null, %"class.xercesc_2_7::MemoryManager"* %call)
          to label %invoke.cont6 unwind label %lpad, !dbg !4080

invoke.cont6:                                     ; preds = %invoke.cont
  call void @__cxa_throw(i8* %exception, i8* bitcast (i8** @_ZTIN11xercesc_2_712DOMExceptionE to i8*), i8* bitcast (void (%"class.xercesc_2_7::DOMException"*)* @_ZN11xercesc_2_712DOMExceptionD1Ev to i8*)) #12, !dbg !4078
  unreachable, !dbg !4078

lpad:                                             ; preds = %invoke.cont, %entry
  %6 = landingpad { i8*, i32 }
          cleanup, !dbg !4081
  %7 = extractvalue { i8*, i32 } %6, 0, !dbg !4081
  store i8* %7, i8** %exn.slot, align 8, !dbg !4081
  %8 = extractvalue { i8*, i32 } %6, 1, !dbg !4081
  store i32 %8, i32* %ehselector.slot, align 4, !dbg !4081
  call void @__cxa_free_exception(i8* %exception) #10, !dbg !4078
  br label %eh.resume, !dbg !4078

eh.resume:                                        ; preds = %lpad
  %exn = load i8*, i8** %exn.slot, align 8, !dbg !4078
  %sel = load i32, i32* %ehselector.slot, align 4, !dbg !4078
  %lpad.val = insertvalue { i8*, i32 } undef, i8* %exn, 0, !dbg !4078
  %lpad.val7 = insertvalue { i8*, i32 } %lpad.val, i32 %sel, 1, !dbg !4078
  resume { i8*, i32 } %lpad.val7, !dbg !4078
}

; Function Attrs: noinline uwtable
define dso_local i8* @_ZThn8_N11xercesc_2_715DOMDocumentImpl8evaluateEPKtPNS_7DOMNodeEPKNS_18DOMXPathNSResolverEtPv(%"class.xercesc_2_7::DOMDocumentImpl"* %this, i16* %0, %"class.xercesc_2_7::DOMNode"* %1, %"class.xercesc_2_7::DOMXPathNSResolver"* %2, i16 zeroext %3, i8* %4) unnamed_addr #3 align 2 !dbg !4082 {
entry:
  %this.addr = alloca %"class.xercesc_2_7::DOMDocumentImpl"*, align 8
  %.addr = alloca i16*, align 8
  %.addr1 = alloca %"class.xercesc_2_7::DOMNode"*, align 8
  %.addr2 = alloca %"class.xercesc_2_7::DOMXPathNSResolver"*, align 8
  %.addr3 = alloca i16, align 2
  %.addr4 = alloca i8*, align 8
  store %"class.xercesc_2_7::DOMDocumentImpl"* %this, %"class.xercesc_2_7::DOMDocumentImpl"** %this.addr, align 8
  store i16* %0, i16** %.addr, align 8
  store %"class.xercesc_2_7::DOMNode"* %1, %"class.xercesc_2_7::DOMNode"** %.addr1, align 8
  store %"class.xercesc_2_7::DOMXPathNSResolver"* %2, %"class.xercesc_2_7::DOMXPathNSResolver"** %.addr2, align 8
  store i16 %3, i16* %.addr3, align 2
  store i8* %4, i8** %.addr4, align 8
  %this5 = load %"class.xercesc_2_7::DOMDocumentImpl"*, %"class.xercesc_2_7::DOMDocumentImpl"** %this.addr, align 8, !dbg !4083
  %5 = bitcast %"class.xercesc_2_7::DOMDocumentImpl"* %this5 to i8*, !dbg !4083
  %6 = getelementptr inbounds i8, i8* %5, i64 -8, !dbg !4083
  %7 = bitcast i8* %6 to %"class.xercesc_2_7::DOMDocumentImpl"*, !dbg !4083
  %8 = load i16*, i16** %.addr, align 8, !dbg !4083
  %9 = load %"class.xercesc_2_7::DOMNode"*, %"class.xercesc_2_7::DOMNode"** %.addr1, align 8, !dbg !4083
  %10 = load %"class.xercesc_2_7::DOMXPathNSResolver"*, %"class.xercesc_2_7::DOMXPathNSResolver"** %.addr2, align 8, !dbg !4083
  %11 = load i16, i16* %.addr3, align 2, !dbg !4083
  %12 = load i8*, i8** %.addr4, align 8, !dbg !4083
  %call = tail call i8* @_ZN11xercesc_2_715DOMDocumentImpl8evaluateEPKtPNS_7DOMNodeEPKNS_18DOMXPathNSResolverEtPv(%"class.xercesc_2_7::DOMDocumentImpl"* %7, i16* %8, %"class.xercesc_2_7::DOMNode"* %9, %"class.xercesc_2_7::DOMXPathNSResolver"* %10, i16 zeroext %11, i8* %12), !dbg !4083
  ret i8* %call, !dbg !4083
}

; Function Attrs: noinline uwtable
define dso_local %"class.xercesc_2_7::DOMTreeWalker"* @_ZN11xercesc_2_715DOMDocumentImpl16createTreeWalkerEPNS_7DOMNodeEmPNS_13DOMNodeFilterEb(%"class.xercesc_2_7::DOMDocumentImpl"* %this, %"class.xercesc_2_7::DOMNode"* %root, i64 %whatToShow, %"class.xercesc_2_7::DOMNodeFilter"* %filter, i1 zeroext %entityReferenceExpansion) unnamed_addr #3 align 2 personality i8* bitcast (i32 (...)* @__gxx_personality_v0 to i8*) !dbg !4084 {
entry:
  %this.addr = alloca %"class.xercesc_2_7::DOMDocumentImpl"*, align 8
  %root.addr = alloca %"class.xercesc_2_7::DOMNode"*, align 8
  %whatToShow.addr = alloca i64, align 8
  %filter.addr = alloca %"class.xercesc_2_7::DOMNodeFilter"*, align 8
  %entityReferenceExpansion.addr = alloca i8, align 1
  %exn.slot = alloca i8*
  %ehselector.slot = alloca i32
  store %"class.xercesc_2_7::DOMDocumentImpl"* %this, %"class.xercesc_2_7::DOMDocumentImpl"** %this.addr, align 8
  call void @llvm.dbg.declare(metadata %"class.xercesc_2_7::DOMDocumentImpl"** %this.addr, metadata !4085, metadata !DIExpression()), !dbg !4086
  store %"class.xercesc_2_7::DOMNode"* %root, %"class.xercesc_2_7::DOMNode"** %root.addr, align 8
  call void @llvm.dbg.declare(metadata %"class.xercesc_2_7::DOMNode"** %root.addr, metadata !4087, metadata !DIExpression()), !dbg !4088
  store i64 %whatToShow, i64* %whatToShow.addr, align 8
  call void @llvm.dbg.declare(metadata i64* %whatToShow.addr, metadata !4089, metadata !DIExpression()), !dbg !4090
  store %"class.xercesc_2_7::DOMNodeFilter"* %filter, %"class.xercesc_2_7::DOMNodeFilter"** %filter.addr, align 8
  call void @llvm.dbg.declare(metadata %"class.xercesc_2_7::DOMNodeFilter"** %filter.addr, metadata !4091, metadata !DIExpression()), !dbg !4092
  %frombool = zext i1 %entityReferenceExpansion to i8
  store i8 %frombool, i8* %entityReferenceExpansion.addr, align 1
  call void @llvm.dbg.declare(metadata i8* %entityReferenceExpansion.addr, metadata !4093, metadata !DIExpression()), !dbg !4094
  %this1 = load %"class.xercesc_2_7::DOMDocumentImpl"*, %"class.xercesc_2_7::DOMDocumentImpl"** %this.addr, align 8
  %0 = load %"class.xercesc_2_7::DOMNode"*, %"class.xercesc_2_7::DOMNode"** %root.addr, align 8, !dbg !4095
  %tobool = icmp ne %"class.xercesc_2_7::DOMNode"* %0, null, !dbg !4095
  br i1 %tobool, label %if.end, label %if.then, !dbg !4097

if.then:                                          ; preds = %entry
  %exception = call i8* @__cxa_allocate_exception(i64 40) #10, !dbg !4098
  %1 = bitcast i8* %exception to %"class.xercesc_2_7::DOMException"*, !dbg !4098
  %call = invoke %"class.xercesc_2_7::MemoryManager"* @_ZNK11xercesc_2_715DOMDocumentImpl16getMemoryManagerEv(%"class.xercesc_2_7::DOMDocumentImpl"* %this1)
          to label %invoke.cont unwind label %lpad, !dbg !4100

invoke.cont:                                      ; preds = %if.then
  invoke void @_ZN11xercesc_2_712DOMExceptionC1EsPKtPNS_13MemoryManagerE(%"class.xercesc_2_7::DOMException"* %1, i16 signext 9, i16* null, %"class.xercesc_2_7::MemoryManager"* %call)
          to label %invoke.cont2 unwind label %lpad, !dbg !4101

invoke.cont2:                                     ; preds = %invoke.cont
  call void @__cxa_throw(i8* %exception, i8* bitcast (i8** @_ZTIN11xercesc_2_712DOMExceptionE to i8*), i8* bitcast (void (%"class.xercesc_2_7::DOMException"*)* @_ZN11xercesc_2_712DOMExceptionD1Ev to i8*)) #12, !dbg !4098
  unreachable, !dbg !4098

lpad:                                             ; preds = %invoke.cont, %if.then
  %2 = landingpad { i8*, i32 }
          cleanup, !dbg !4102
  %3 = extractvalue { i8*, i32 } %2, 0, !dbg !4102
  store i8* %3, i8** %exn.slot, align 8, !dbg !4102
  %4 = extractvalue { i8*, i32 } %2, 1, !dbg !4102
  store i32 %4, i32* %ehselector.slot, align 4, !dbg !4102
  call void @__cxa_free_exception(i8* %exception) #10, !dbg !4098
  br label %eh.resume, !dbg !4098

if.end:                                           ; preds = %entry
  %5 = bitcast %"class.xercesc_2_7::DOMDocumentImpl"* %this1 to %"class.xercesc_2_7::DOMDocument"*, !dbg !4103
  %call3 = call i8* @_ZnwmPN11xercesc_2_711DOMDocumentE(i64 48, %"class.xercesc_2_7::DOMDocument"* %5), !dbg !4104
  %6 = bitcast i8* %call3 to %"class.xercesc_2_7::DOMTreeWalkerImpl"*, !dbg !4104
  %7 = load %"class.xercesc_2_7::DOMNode"*, %"class.xercesc_2_7::DOMNode"** %root.addr, align 8, !dbg !4105
  %8 = load i64, i64* %whatToShow.addr, align 8, !dbg !4106
  %9 = load %"class.xercesc_2_7::DOMNodeFilter"*, %"class.xercesc_2_7::DOMNodeFilter"** %filter.addr, align 8, !dbg !4107
  %10 = load i8, i8* %entityReferenceExpansion.addr, align 1, !dbg !4108
  %tobool4 = trunc i8 %10 to i1, !dbg !4108
  call void @_ZN11xercesc_2_717DOMTreeWalkerImplC1EPNS_7DOMNodeEmPNS_13DOMNodeFilterEb(%"class.xercesc_2_7::DOMTreeWalkerImpl"* %6, %"class.xercesc_2_7::DOMNode"* %7, i64 %8, %"class.xercesc_2_7::DOMNodeFilter"* %9, i1 zeroext %tobool4), !dbg !4109
  %11 = bitcast %"class.xercesc_2_7::DOMTreeWalkerImpl"* %6 to %"class.xercesc_2_7::DOMTreeWalker"*, !dbg !4104
  ret %"class.xercesc_2_7::DOMTreeWalker"* %11, !dbg !4110

eh.resume:                                        ; preds = %lpad
  %exn = load i8*, i8** %exn.slot, align 8, !dbg !4098
  %sel = load i32, i32* %ehselector.slot, align 4, !dbg !4098
  %lpad.val = insertvalue { i8*, i32 } undef, i8* %exn, 0, !dbg !4098
  %lpad.val5 = insertvalue { i8*, i32 } %lpad.val, i32 %sel, 1, !dbg !4098
  resume { i8*, i32 } %lpad.val5, !dbg !4098
}

declare dso_local void @_ZN11xercesc_2_717DOMTreeWalkerImplC1EPNS_7DOMNodeEmPNS_13DOMNodeFilterEb(%"class.xercesc_2_7::DOMTreeWalkerImpl"*, %"class.xercesc_2_7::DOMNode"*, i64, %"class.xercesc_2_7::DOMNodeFilter"*, i1 zeroext) unnamed_addr #4

; Function Attrs: noinline uwtable
define dso_local %"class.xercesc_2_7::DOMTreeWalker"* @_ZThn16_N11xercesc_2_715DOMDocumentImpl16createTreeWalkerEPNS_7DOMNodeEmPNS_13DOMNodeFilterEb(%"class.xercesc_2_7::DOMDocumentImpl"* %this, %"class.xercesc_2_7::DOMNode"* %root, i64 %whatToShow, %"class.xercesc_2_7::DOMNodeFilter"* %filter, i1 zeroext %entityReferenceExpansion) unnamed_addr #3 align 2 !dbg !4111 {
entry:
  %this.addr = alloca %"class.xercesc_2_7::DOMDocumentImpl"*, align 8
  %root.addr = alloca %"class.xercesc_2_7::DOMNode"*, align 8
  %whatToShow.addr = alloca i64, align 8
  %filter.addr = alloca %"class.xercesc_2_7::DOMNodeFilter"*, align 8
  %entityReferenceExpansion.addr = alloca i8, align 1
  store %"class.xercesc_2_7::DOMDocumentImpl"* %this, %"class.xercesc_2_7::DOMDocumentImpl"** %this.addr, align 8
  store %"class.xercesc_2_7::DOMNode"* %root, %"class.xercesc_2_7::DOMNode"** %root.addr, align 8
  store i64 %whatToShow, i64* %whatToShow.addr, align 8
  store %"class.xercesc_2_7::DOMNodeFilter"* %filter, %"class.xercesc_2_7::DOMNodeFilter"** %filter.addr, align 8
  %frombool = zext i1 %entityReferenceExpansion to i8
  store i8 %frombool, i8* %entityReferenceExpansion.addr, align 1
  %this1 = load %"class.xercesc_2_7::DOMDocumentImpl"*, %"class.xercesc_2_7::DOMDocumentImpl"** %this.addr, align 8, !dbg !4112
  %0 = bitcast %"class.xercesc_2_7::DOMDocumentImpl"* %this1 to i8*, !dbg !4112
  %1 = getelementptr inbounds i8, i8* %0, i64 -16, !dbg !4112
  %2 = bitcast i8* %1 to %"class.xercesc_2_7::DOMDocumentImpl"*, !dbg !4112
  %3 = load %"class.xercesc_2_7::DOMNode"*, %"class.xercesc_2_7::DOMNode"** %root.addr, align 8, !dbg !4112
  %4 = load i64, i64* %whatToShow.addr, align 8, !dbg !4112
  %5 = load %"class.xercesc_2_7::DOMNodeFilter"*, %"class.xercesc_2_7::DOMNodeFilter"** %filter.addr, align 8, !dbg !4112
  %6 = load i8, i8* %entityReferenceExpansion.addr, align 1, !dbg !4112
  %tobool = trunc i8 %6 to i1, !dbg !4112
  %call = tail call %"class.xercesc_2_7::DOMTreeWalker"* @_ZN11xercesc_2_715DOMDocumentImpl16createTreeWalkerEPNS_7DOMNodeEmPNS_13DOMNodeFilterEb(%"class.xercesc_2_7::DOMDocumentImpl"* %2, %"class.xercesc_2_7::DOMNode"* %3, i64 %4, %"class.xercesc_2_7::DOMNodeFilter"* %5, i1 zeroext %tobool), !dbg !4112
  ret %"class.xercesc_2_7::DOMTreeWalker"* %call, !dbg !4112
}

; Function Attrs: noinline nounwind uwtable
define dso_local %"class.xercesc_2_7::DOMDocumentType"* @_ZNK11xercesc_2_715DOMDocumentImpl10getDoctypeEv(%"class.xercesc_2_7::DOMDocumentImpl"* %this) unnamed_addr #1 align 2 !dbg !4113 {
entry:
  %this.addr = alloca %"class.xercesc_2_7::DOMDocumentImpl"*, align 8
  store %"class.xercesc_2_7::DOMDocumentImpl"* %this, %"class.xercesc_2_7::DOMDocumentImpl"** %this.addr, align 8
  call void @llvm.dbg.declare(metadata %"class.xercesc_2_7::DOMDocumentImpl"** %this.addr, metadata !4114, metadata !DIExpression()), !dbg !4115
  %this1 = load %"class.xercesc_2_7::DOMDocumentImpl"*, %"class.xercesc_2_7::DOMDocumentImpl"** %this.addr, align 8
  %fDocType = getelementptr inbounds %"class.xercesc_2_7::DOMDocumentImpl", %"class.xercesc_2_7::DOMDocumentImpl"* %this1, i32 0, i32 19, !dbg !4116
  %0 = load %"class.xercesc_2_7::DOMDocumentType"*, %"class.xercesc_2_7::DOMDocumentType"** %fDocType, align 8, !dbg !4116
  ret %"class.xercesc_2_7::DOMDocumentType"* %0, !dbg !4117
}

; Function Attrs: noinline nounwind uwtable
define dso_local %"class.xercesc_2_7::DOMElement"* @_ZNK11xercesc_2_715DOMDocumentImpl18getDocumentElementEv(%"class.xercesc_2_7::DOMDocumentImpl"* %this) unnamed_addr #1 align 2 !dbg !4118 {
entry:
  %this.addr = alloca %"class.xercesc_2_7::DOMDocumentImpl"*, align 8
  store %"class.xercesc_2_7::DOMDocumentImpl"* %this, %"class.xercesc_2_7::DOMDocumentImpl"** %this.addr, align 8
  call void @llvm.dbg.declare(metadata %"class.xercesc_2_7::DOMDocumentImpl"** %this.addr, metadata !4119, metadata !DIExpression()), !dbg !4120
  %this1 = load %"class.xercesc_2_7::DOMDocumentImpl"*, %"class.xercesc_2_7::DOMDocumentImpl"** %this.addr, align 8
  %fDocElement = getelementptr inbounds %"class.xercesc_2_7::DOMDocumentImpl", %"class.xercesc_2_7::DOMDocumentImpl"* %this1, i32 0, i32 20, !dbg !4121
  %0 = load %"class.xercesc_2_7::DOMElement"*, %"class.xercesc_2_7::DOMElement"** %fDocElement, align 8, !dbg !4121
  ret %"class.xercesc_2_7::DOMElement"* %0, !dbg !4122
}

; Function Attrs: noinline uwtable
define dso_local %"class.xercesc_2_7::DOMNodeList"* @_ZNK11xercesc_2_715DOMDocumentImpl20getElementsByTagNameEPKt(%"class.xercesc_2_7::DOMDocumentImpl"* %this, i16* %tagname) unnamed_addr #3 align 2 !dbg !4123 {
entry:
  %this.addr = alloca %"class.xercesc_2_7::DOMDocumentImpl"*, align 8
  %tagname.addr = alloca i16*, align 8
  store %"class.xercesc_2_7::DOMDocumentImpl"* %this, %"class.xercesc_2_7::DOMDocumentImpl"** %this.addr, align 8
  call void @llvm.dbg.declare(metadata %"class.xercesc_2_7::DOMDocumentImpl"** %this.addr, metadata !4124, metadata !DIExpression()), !dbg !4125
  store i16* %tagname, i16** %tagname.addr, align 8
  call void @llvm.dbg.declare(metadata i16** %tagname.addr, metadata !4126, metadata !DIExpression()), !dbg !4127
  %this1 = load %"class.xercesc_2_7::DOMDocumentImpl"*, %"class.xercesc_2_7::DOMDocumentImpl"** %this.addr, align 8
  %0 = bitcast %"class.xercesc_2_7::DOMDocumentImpl"* %this1 to i8*, !dbg !4128
  %add.ptr = getelementptr inbounds i8, i8* %0, i64 24, !dbg !4128
  %1 = bitcast i8* %add.ptr to %"class.xercesc_2_7::DOMNode"*, !dbg !4128
  %2 = load i16*, i16** %tagname.addr, align 8, !dbg !4129
  %call = call %"class.xercesc_2_7::DOMNodeList"* @_ZN11xercesc_2_715DOMDocumentImpl15getDeepNodeListEPKNS_7DOMNodeEPKt(%"class.xercesc_2_7::DOMDocumentImpl"* %this1, %"class.xercesc_2_7::DOMNode"* %1, i16* %2), !dbg !4130
  ret %"class.xercesc_2_7::DOMNodeList"* %call, !dbg !4131
}

; Function Attrs: noinline uwtable
define dso_local %"class.xercesc_2_7::DOMNodeList"* @_ZN11xercesc_2_715DOMDocumentImpl15getDeepNodeListEPKNS_7DOMNodeEPKt(%"class.xercesc_2_7::DOMDocumentImpl"* %this, %"class.xercesc_2_7::DOMNode"* %rootNode, i16* %tagName) #3 align 2 !dbg !4132 {
entry:
  %this.addr = alloca %"class.xercesc_2_7::DOMDocumentImpl"*, align 8
  %rootNode.addr = alloca %"class.xercesc_2_7::DOMNode"*, align 8
  %tagName.addr = alloca i16*, align 8
  %retList = alloca %"class.xercesc_2_7::DOMDeepNodeListImpl"*, align 8
  %id = alloca i32, align 4
  store %"class.xercesc_2_7::DOMDocumentImpl"* %this, %"class.xercesc_2_7::DOMDocumentImpl"** %this.addr, align 8
  call void @llvm.dbg.declare(metadata %"class.xercesc_2_7::DOMDocumentImpl"** %this.addr, metadata !4133, metadata !DIExpression()), !dbg !4134
  store %"class.xercesc_2_7::DOMNode"* %rootNode, %"class.xercesc_2_7::DOMNode"** %rootNode.addr, align 8
  call void @llvm.dbg.declare(metadata %"class.xercesc_2_7::DOMNode"** %rootNode.addr, metadata !4135, metadata !DIExpression()), !dbg !4136
  store i16* %tagName, i16** %tagName.addr, align 8
  call void @llvm.dbg.declare(metadata i16** %tagName.addr, metadata !4137, metadata !DIExpression()), !dbg !4138
  %this1 = load %"class.xercesc_2_7::DOMDocumentImpl"*, %"class.xercesc_2_7::DOMDocumentImpl"** %this.addr, align 8
  %fNodeListPool = getelementptr inbounds %"class.xercesc_2_7::DOMDocumentImpl", %"class.xercesc_2_7::DOMDocumentImpl"* %this1, i32 0, i32 18, !dbg !4139
  %0 = load %"class.xercesc_2_7::DOMDeepNodeListPool"*, %"class.xercesc_2_7::DOMDeepNodeListPool"** %fNodeListPool, align 8, !dbg !4139
  %tobool = icmp ne %"class.xercesc_2_7::DOMDeepNodeListPool"* %0, null, !dbg !4139
  br i1 %tobool, label %if.end, label %if.then, !dbg !4141

if.then:                                          ; preds = %entry
  %1 = bitcast %"class.xercesc_2_7::DOMDocumentImpl"* %this1 to %"class.xercesc_2_7::DOMDocument"*, !dbg !4142
  %call = call i8* @_ZnwmPN11xercesc_2_711DOMDocumentE(i64 64, %"class.xercesc_2_7::DOMDocument"* %1), !dbg !4144
  %2 = bitcast i8* %call to %"class.xercesc_2_7::DOMDeepNodeListPool"*, !dbg !4144
  call void @_ZN11xercesc_2_719DOMDeepNodeListPoolINS_19DOMDeepNodeListImplEEC2Embm(%"class.xercesc_2_7::DOMDeepNodeListPool"* %2, i64 109, i1 zeroext false, i64 128), !dbg !4145
  %fNodeListPool2 = getelementptr inbounds %"class.xercesc_2_7::DOMDocumentImpl", %"class.xercesc_2_7::DOMDocumentImpl"* %this1, i32 0, i32 18, !dbg !4146
  store %"class.xercesc_2_7::DOMDeepNodeListPool"* %2, %"class.xercesc_2_7::DOMDeepNodeListPool"** %fNodeListPool2, align 8, !dbg !4147
  br label %if.end, !dbg !4148

if.end:                                           ; preds = %if.then, %entry
  call void @llvm.dbg.declare(metadata %"class.xercesc_2_7::DOMDeepNodeListImpl"** %retList, metadata !4149, metadata !DIExpression()), !dbg !4150
  %fNodeListPool3 = getelementptr inbounds %"class.xercesc_2_7::DOMDocumentImpl", %"class.xercesc_2_7::DOMDocumentImpl"* %this1, i32 0, i32 18, !dbg !4151
  %3 = load %"class.xercesc_2_7::DOMDeepNodeListPool"*, %"class.xercesc_2_7::DOMDeepNodeListPool"** %fNodeListPool3, align 8, !dbg !4151
  %4 = load %"class.xercesc_2_7::DOMNode"*, %"class.xercesc_2_7::DOMNode"** %rootNode.addr, align 8, !dbg !4152
  %5 = bitcast %"class.xercesc_2_7::DOMNode"* %4 to i8*, !dbg !4152
  %6 = load i16*, i16** %tagName.addr, align 8, !dbg !4153
  %call4 = call %"class.xercesc_2_7::DOMDeepNodeListImpl"* @_ZN11xercesc_2_719DOMDeepNodeListPoolINS_19DOMDeepNodeListImplEE8getByKeyEPKvPKtS6_(%"class.xercesc_2_7::DOMDeepNodeListPool"* %3, i8* %5, i16* %6, i16* null), !dbg !4154
  store %"class.xercesc_2_7::DOMDeepNodeListImpl"* %call4, %"class.xercesc_2_7::DOMDeepNodeListImpl"** %retList, align 8, !dbg !4150
  %7 = load %"class.xercesc_2_7::DOMDeepNodeListImpl"*, %"class.xercesc_2_7::DOMDeepNodeListImpl"** %retList, align 8, !dbg !4155
  %tobool5 = icmp ne %"class.xercesc_2_7::DOMDeepNodeListImpl"* %7, null, !dbg !4155
  br i1 %tobool5, label %if.end13, label %if.then6, !dbg !4157

if.then6:                                         ; preds = %if.end
  call void @llvm.dbg.declare(metadata i32* %id, metadata !4158, metadata !DIExpression()), !dbg !4160
  %fNodeListPool7 = getelementptr inbounds %"class.xercesc_2_7::DOMDocumentImpl", %"class.xercesc_2_7::DOMDocumentImpl"* %this1, i32 0, i32 18, !dbg !4161
  %8 = load %"class.xercesc_2_7::DOMDeepNodeListPool"*, %"class.xercesc_2_7::DOMDeepNodeListPool"** %fNodeListPool7, align 8, !dbg !4161
  %9 = load %"class.xercesc_2_7::DOMNode"*, %"class.xercesc_2_7::DOMNode"** %rootNode.addr, align 8, !dbg !4162
  %10 = bitcast %"class.xercesc_2_7::DOMNode"* %9 to i8*, !dbg !4162
  %11 = load i16*, i16** %tagName.addr, align 8, !dbg !4163
  %12 = bitcast %"class.xercesc_2_7::DOMDocumentImpl"* %this1 to %"class.xercesc_2_7::DOMDocument"*, !dbg !4164
  %call8 = call i8* @_ZnwmPN11xercesc_2_711DOMDocumentE(i64 64, %"class.xercesc_2_7::DOMDocument"* %12), !dbg !4165
  %13 = bitcast i8* %call8 to %"class.xercesc_2_7::DOMDeepNodeListImpl"*, !dbg !4165
  %14 = load %"class.xercesc_2_7::DOMNode"*, %"class.xercesc_2_7::DOMNode"** %rootNode.addr, align 8, !dbg !4166
  %15 = load i16*, i16** %tagName.addr, align 8, !dbg !4167
  call void @_ZN11xercesc_2_719DOMDeepNodeListImplC1EPKNS_7DOMNodeEPKt(%"class.xercesc_2_7::DOMDeepNodeListImpl"* %13, %"class.xercesc_2_7::DOMNode"* %14, i16* %15), !dbg !4168
  %call9 = call i64 @_ZN11xercesc_2_719DOMDeepNodeListPoolINS_19DOMDeepNodeListImplEE3putEPvPtS4_PS1_(%"class.xercesc_2_7::DOMDeepNodeListPool"* %8, i8* %10, i16* %11, i16* null, %"class.xercesc_2_7::DOMDeepNodeListImpl"* %13), !dbg !4169
  %conv = trunc i64 %call9 to i32, !dbg !4161
  store i32 %conv, i32* %id, align 4, !dbg !4160
  %fNodeListPool10 = getelementptr inbounds %"class.xercesc_2_7::DOMDocumentImpl", %"class.xercesc_2_7::DOMDocumentImpl"* %this1, i32 0, i32 18, !dbg !4170
  %16 = load %"class.xercesc_2_7::DOMDeepNodeListPool"*, %"class.xercesc_2_7::DOMDeepNodeListPool"** %fNodeListPool10, align 8, !dbg !4170
  %17 = load i32, i32* %id, align 4, !dbg !4171
  %conv11 = sext i32 %17 to i64, !dbg !4171
  %call12 = call %"class.xercesc_2_7::DOMDeepNodeListImpl"* @_ZN11xercesc_2_719DOMDeepNodeListPoolINS_19DOMDeepNodeListImplEE7getByIdEm(%"class.xercesc_2_7::DOMDeepNodeListPool"* %16, i64 %conv11), !dbg !4172
  store %"class.xercesc_2_7::DOMDeepNodeListImpl"* %call12, %"class.xercesc_2_7::DOMDeepNodeListImpl"** %retList, align 8, !dbg !4173
  br label %if.end13, !dbg !4174

if.end13:                                         ; preds = %if.then6, %if.end
  %18 = load %"class.xercesc_2_7::DOMDeepNodeListImpl"*, %"class.xercesc_2_7::DOMDeepNodeListImpl"** %retList, align 8, !dbg !4175
  %19 = bitcast %"class.xercesc_2_7::DOMDeepNodeListImpl"* %18 to %"class.xercesc_2_7::DOMNodeList"*, !dbg !4175
  ret %"class.xercesc_2_7::DOMNodeList"* %19, !dbg !4176
}

; Function Attrs: noinline uwtable
define dso_local %"class.xercesc_2_7::DOMImplementation"* @_ZNK11xercesc_2_715DOMDocumentImpl17getImplementationEv(%"class.xercesc_2_7::DOMDocumentImpl"* %this) unnamed_addr #3 align 2 !dbg !4177 {
entry:
  %this.addr = alloca %"class.xercesc_2_7::DOMDocumentImpl"*, align 8
  store %"class.xercesc_2_7::DOMDocumentImpl"* %this, %"class.xercesc_2_7::DOMDocumentImpl"** %this.addr, align 8
  call void @llvm.dbg.declare(metadata %"class.xercesc_2_7::DOMDocumentImpl"** %this.addr, metadata !4178, metadata !DIExpression()), !dbg !4179
  %this1 = load %"class.xercesc_2_7::DOMDocumentImpl"*, %"class.xercesc_2_7::DOMDocumentImpl"** %this.addr, align 8
  %call = call %"class.xercesc_2_7::DOMImplementation"* @_ZN11xercesc_2_717DOMImplementation17getImplementationEv(), !dbg !4180
  ret %"class.xercesc_2_7::DOMImplementation"* %call, !dbg !4181
}

declare dso_local %"class.xercesc_2_7::DOMImplementation"* @_ZN11xercesc_2_717DOMImplementation17getImplementationEv() #4

; Function Attrs: noinline uwtable
define dso_local %"class.xercesc_2_7::DOMNode"* @_ZN11xercesc_2_715DOMDocumentImpl12insertBeforeEPNS_7DOMNodeES2_(%"class.xercesc_2_7::DOMDocumentImpl"* %this, %"class.xercesc_2_7::DOMNode"* %newChild, %"class.xercesc_2_7::DOMNode"* %refChild) unnamed_addr #3 align 2 personality i8* bitcast (i32 (...)* @__gxx_personality_v0 to i8*) !dbg !4182 {
entry:
  %this.addr = alloca %"class.xercesc_2_7::DOMDocumentImpl"*, align 8
  %newChild.addr = alloca %"class.xercesc_2_7::DOMNode"*, align 8
  %refChild.addr = alloca %"class.xercesc_2_7::DOMNode"*, align 8
  %exn.slot = alloca i8*
  %ehselector.slot = alloca i32
  store %"class.xercesc_2_7::DOMDocumentImpl"* %this, %"class.xercesc_2_7::DOMDocumentImpl"** %this.addr, align 8
  call void @llvm.dbg.declare(metadata %"class.xercesc_2_7::DOMDocumentImpl"** %this.addr, metadata !4183, metadata !DIExpression()), !dbg !4184
  store %"class.xercesc_2_7::DOMNode"* %newChild, %"class.xercesc_2_7::DOMNode"** %newChild.addr, align 8
  call void @llvm.dbg.declare(metadata %"class.xercesc_2_7::DOMNode"** %newChild.addr, metadata !4185, metadata !DIExpression()), !dbg !4186
  store %"class.xercesc_2_7::DOMNode"* %refChild, %"class.xercesc_2_7::DOMNode"** %refChild.addr, align 8
  call void @llvm.dbg.declare(metadata %"class.xercesc_2_7::DOMNode"** %refChild.addr, metadata !4187, metadata !DIExpression()), !dbg !4188
  %this1 = load %"class.xercesc_2_7::DOMDocumentImpl"*, %"class.xercesc_2_7::DOMDocumentImpl"** %this.addr, align 8
  %0 = load %"class.xercesc_2_7::DOMNode"*, %"class.xercesc_2_7::DOMNode"** %newChild.addr, align 8, !dbg !4189
  %1 = bitcast %"class.xercesc_2_7::DOMNode"* %0 to i16 (%"class.xercesc_2_7::DOMNode"*)***, !dbg !4191
  %vtable = load i16 (%"class.xercesc_2_7::DOMNode"*)**, i16 (%"class.xercesc_2_7::DOMNode"*)*** %1, align 8, !dbg !4191
  %vfn = getelementptr inbounds i16 (%"class.xercesc_2_7::DOMNode"*)*, i16 (%"class.xercesc_2_7::DOMNode"*)** %vtable, i64 4, !dbg !4191
  %2 = load i16 (%"class.xercesc_2_7::DOMNode"*)*, i16 (%"class.xercesc_2_7::DOMNode"*)** %vfn, align 8, !dbg !4191
  %call = call signext i16 %2(%"class.xercesc_2_7::DOMNode"* %0), !dbg !4191
  %conv = sext i16 %call to i32, !dbg !4189
  %cmp = icmp eq i32 %conv, 1, !dbg !4192
  br i1 %cmp, label %land.lhs.true, label %lor.lhs.false, !dbg !4193

land.lhs.true:                                    ; preds = %entry
  %fDocElement = getelementptr inbounds %"class.xercesc_2_7::DOMDocumentImpl", %"class.xercesc_2_7::DOMDocumentImpl"* %this1, i32 0, i32 20, !dbg !4194
  %3 = load %"class.xercesc_2_7::DOMElement"*, %"class.xercesc_2_7::DOMElement"** %fDocElement, align 8, !dbg !4194
  %cmp2 = icmp ne %"class.xercesc_2_7::DOMElement"* %3, null, !dbg !4195
  br i1 %cmp2, label %if.then, label %lor.lhs.false, !dbg !4196

lor.lhs.false:                                    ; preds = %land.lhs.true, %entry
  %4 = load %"class.xercesc_2_7::DOMNode"*, %"class.xercesc_2_7::DOMNode"** %newChild.addr, align 8, !dbg !4197
  %5 = bitcast %"class.xercesc_2_7::DOMNode"* %4 to i16 (%"class.xercesc_2_7::DOMNode"*)***, !dbg !4198
  %vtable3 = load i16 (%"class.xercesc_2_7::DOMNode"*)**, i16 (%"class.xercesc_2_7::DOMNode"*)*** %5, align 8, !dbg !4198
  %vfn4 = getelementptr inbounds i16 (%"class.xercesc_2_7::DOMNode"*)*, i16 (%"class.xercesc_2_7::DOMNode"*)** %vtable3, i64 4, !dbg !4198
  %6 = load i16 (%"class.xercesc_2_7::DOMNode"*)*, i16 (%"class.xercesc_2_7::DOMNode"*)** %vfn4, align 8, !dbg !4198
  %call5 = call signext i16 %6(%"class.xercesc_2_7::DOMNode"* %4), !dbg !4198
  %conv6 = sext i16 %call5 to i32, !dbg !4197
  %cmp7 = icmp eq i32 %conv6, 10, !dbg !4199
  br i1 %cmp7, label %land.lhs.true8, label %if.end, !dbg !4200

land.lhs.true8:                                   ; preds = %lor.lhs.false
  %fDocType = getelementptr inbounds %"class.xercesc_2_7::DOMDocumentImpl", %"class.xercesc_2_7::DOMDocumentImpl"* %this1, i32 0, i32 19, !dbg !4201
  %7 = load %"class.xercesc_2_7::DOMDocumentType"*, %"class.xercesc_2_7::DOMDocumentType"** %fDocType, align 8, !dbg !4201
  %cmp9 = icmp ne %"class.xercesc_2_7::DOMDocumentType"* %7, null, !dbg !4202
  br i1 %cmp9, label %if.then, label %if.end, !dbg !4203

if.then:                                          ; preds = %land.lhs.true8, %land.lhs.true
  %exception = call i8* @__cxa_allocate_exception(i64 40) #10, !dbg !4204
  %8 = bitcast i8* %exception to %"class.xercesc_2_7::DOMException"*, !dbg !4204
  %call10 = invoke %"class.xercesc_2_7::MemoryManager"* @_ZNK11xercesc_2_715DOMDocumentImpl16getMemoryManagerEv(%"class.xercesc_2_7::DOMDocumentImpl"* %this1)
          to label %invoke.cont unwind label %lpad, !dbg !4205

invoke.cont:                                      ; preds = %if.then
  invoke void @_ZN11xercesc_2_712DOMExceptionC1EsPKtPNS_13MemoryManagerE(%"class.xercesc_2_7::DOMException"* %8, i16 signext 3, i16* null, %"class.xercesc_2_7::MemoryManager"* %call10)
          to label %invoke.cont11 unwind label %lpad, !dbg !4206

invoke.cont11:                                    ; preds = %invoke.cont
  call void @__cxa_throw(i8* %exception, i8* bitcast (i8** @_ZTIN11xercesc_2_712DOMExceptionE to i8*), i8* bitcast (void (%"class.xercesc_2_7::DOMException"*)* @_ZN11xercesc_2_712DOMExceptionD1Ev to i8*)) #12, !dbg !4204
  unreachable, !dbg !4204

lpad:                                             ; preds = %invoke.cont, %if.then
  %9 = landingpad { i8*, i32 }
          cleanup, !dbg !4207
  %10 = extractvalue { i8*, i32 } %9, 0, !dbg !4207
  store i8* %10, i8** %exn.slot, align 8, !dbg !4207
  %11 = extractvalue { i8*, i32 } %9, 1, !dbg !4207
  store i32 %11, i32* %ehselector.slot, align 4, !dbg !4207
  call void @__cxa_free_exception(i8* %exception) #10, !dbg !4204
  br label %eh.resume, !dbg !4204

if.end:                                           ; preds = %land.lhs.true8, %lor.lhs.false
  %12 = load %"class.xercesc_2_7::DOMNode"*, %"class.xercesc_2_7::DOMNode"** %newChild.addr, align 8, !dbg !4208
  %13 = bitcast %"class.xercesc_2_7::DOMNode"* %12 to i16 (%"class.xercesc_2_7::DOMNode"*)***, !dbg !4210
  %vtable12 = load i16 (%"class.xercesc_2_7::DOMNode"*)**, i16 (%"class.xercesc_2_7::DOMNode"*)*** %13, align 8, !dbg !4210
  %vfn13 = getelementptr inbounds i16 (%"class.xercesc_2_7::DOMNode"*)*, i16 (%"class.xercesc_2_7::DOMNode"*)** %vtable12, i64 4, !dbg !4210
  %14 = load i16 (%"class.xercesc_2_7::DOMNode"*)*, i16 (%"class.xercesc_2_7::DOMNode"*)** %vfn13, align 8, !dbg !4210
  %call14 = call signext i16 %14(%"class.xercesc_2_7::DOMNode"* %12), !dbg !4210
  %conv15 = sext i16 %call14 to i32, !dbg !4208
  %cmp16 = icmp eq i32 %conv15, 10, !dbg !4211
  br i1 %cmp16, label %land.lhs.true17, label %if.end24, !dbg !4212

land.lhs.true17:                                  ; preds = %if.end
  %15 = load %"class.xercesc_2_7::DOMNode"*, %"class.xercesc_2_7::DOMNode"** %newChild.addr, align 8, !dbg !4213
  %16 = bitcast %"class.xercesc_2_7::DOMNode"* %15 to %"class.xercesc_2_7::DOMDocument"* (%"class.xercesc_2_7::DOMNode"*)***, !dbg !4214
  %vtable18 = load %"class.xercesc_2_7::DOMDocument"* (%"class.xercesc_2_7::DOMNode"*)**, %"class.xercesc_2_7::DOMDocument"* (%"class.xercesc_2_7::DOMNode"*)*** %16, align 8, !dbg !4214
  %vfn19 = getelementptr inbounds %"class.xercesc_2_7::DOMDocument"* (%"class.xercesc_2_7::DOMNode"*)*, %"class.xercesc_2_7::DOMDocument"* (%"class.xercesc_2_7::DOMNode"*)** %vtable18, i64 12, !dbg !4214
  %17 = load %"class.xercesc_2_7::DOMDocument"* (%"class.xercesc_2_7::DOMNode"*)*, %"class.xercesc_2_7::DOMDocument"* (%"class.xercesc_2_7::DOMNode"*)** %vfn19, align 8, !dbg !4214
  %call20 = call %"class.xercesc_2_7::DOMDocument"* %17(%"class.xercesc_2_7::DOMNode"* %15), !dbg !4214
  %tobool = icmp ne %"class.xercesc_2_7::DOMDocument"* %call20, null, !dbg !4213
  br i1 %tobool, label %if.end24, label %if.then21, !dbg !4215

if.then21:                                        ; preds = %land.lhs.true17
  %18 = load %"class.xercesc_2_7::DOMNode"*, %"class.xercesc_2_7::DOMNode"** %newChild.addr, align 8, !dbg !4216
  %19 = bitcast %"class.xercesc_2_7::DOMNode"* %18 to %"class.xercesc_2_7::DOMDocumentTypeImpl"*, !dbg !4217
  %20 = bitcast %"class.xercesc_2_7::DOMDocumentImpl"* %this1 to %"class.xercesc_2_7::DOMDocument"*, !dbg !4218
  %21 = bitcast %"class.xercesc_2_7::DOMDocumentTypeImpl"* %19 to void (%"class.xercesc_2_7::DOMDocumentTypeImpl"*, %"class.xercesc_2_7::DOMDocument"*)***, !dbg !4219
  %vtable22 = load void (%"class.xercesc_2_7::DOMDocumentTypeImpl"*, %"class.xercesc_2_7::DOMDocument"*)**, void (%"class.xercesc_2_7::DOMDocumentTypeImpl"*, %"class.xercesc_2_7::DOMDocument"*)*** %21, align 8, !dbg !4219
  %vfn23 = getelementptr inbounds void (%"class.xercesc_2_7::DOMDocumentTypeImpl"*, %"class.xercesc_2_7::DOMDocument"*)*, void (%"class.xercesc_2_7::DOMDocumentTypeImpl"*, %"class.xercesc_2_7::DOMDocument"*)** %vtable22, i64 49, !dbg !4219
  %22 = load void (%"class.xercesc_2_7::DOMDocumentTypeImpl"*, %"class.xercesc_2_7::DOMDocument"*)*, void (%"class.xercesc_2_7::DOMDocumentTypeImpl"*, %"class.xercesc_2_7::DOMDocument"*)** %vfn23, align 8, !dbg !4219
  call void %22(%"class.xercesc_2_7::DOMDocumentTypeImpl"* %19, %"class.xercesc_2_7::DOMDocument"* %20), !dbg !4219
  br label %if.end24, !dbg !4220

if.end24:                                         ; preds = %if.then21, %land.lhs.true17, %if.end
  %fParent = getelementptr inbounds %"class.xercesc_2_7::DOMDocumentImpl", %"class.xercesc_2_7::DOMDocumentImpl"* %this1, i32 0, i32 2, !dbg !4221
  %23 = load %"class.xercesc_2_7::DOMNode"*, %"class.xercesc_2_7::DOMNode"** %newChild.addr, align 8, !dbg !4222
  %24 = load %"class.xercesc_2_7::DOMNode"*, %"class.xercesc_2_7::DOMNode"** %refChild.addr, align 8, !dbg !4223
  %call25 = call %"class.xercesc_2_7::DOMNode"* @_ZN11xercesc_2_713DOMParentNode12insertBeforeEPNS_7DOMNodeES2_(%"class.xercesc_2_7::DOMParentNode"* %fParent, %"class.xercesc_2_7::DOMNode"* %23, %"class.xercesc_2_7::DOMNode"* %24), !dbg !4224
  %25 = load %"class.xercesc_2_7::DOMNode"*, %"class.xercesc_2_7::DOMNode"** %newChild.addr, align 8, !dbg !4225
  %26 = bitcast %"class.xercesc_2_7::DOMNode"* %25 to i16 (%"class.xercesc_2_7::DOMNode"*)***, !dbg !4227
  %vtable26 = load i16 (%"class.xercesc_2_7::DOMNode"*)**, i16 (%"class.xercesc_2_7::DOMNode"*)*** %26, align 8, !dbg !4227
  %vfn27 = getelementptr inbounds i16 (%"class.xercesc_2_7::DOMNode"*)*, i16 (%"class.xercesc_2_7::DOMNode"*)** %vtable26, i64 4, !dbg !4227
  %27 = load i16 (%"class.xercesc_2_7::DOMNode"*)*, i16 (%"class.xercesc_2_7::DOMNode"*)** %vfn27, align 8, !dbg !4227
  %call28 = call signext i16 %27(%"class.xercesc_2_7::DOMNode"* %25), !dbg !4227
  %conv29 = sext i16 %call28 to i32, !dbg !4225
  %cmp30 = icmp eq i32 %conv29, 1, !dbg !4228
  br i1 %cmp30, label %if.then31, label %if.else, !dbg !4229

if.then31:                                        ; preds = %if.end24
  %28 = load %"class.xercesc_2_7::DOMNode"*, %"class.xercesc_2_7::DOMNode"** %newChild.addr, align 8, !dbg !4230
  %29 = bitcast %"class.xercesc_2_7::DOMNode"* %28 to %"class.xercesc_2_7::DOMElement"*, !dbg !4231
  %fDocElement32 = getelementptr inbounds %"class.xercesc_2_7::DOMDocumentImpl", %"class.xercesc_2_7::DOMDocumentImpl"* %this1, i32 0, i32 20, !dbg !4232
  store %"class.xercesc_2_7::DOMElement"* %29, %"class.xercesc_2_7::DOMElement"** %fDocElement32, align 8, !dbg !4233
  br label %if.end41, !dbg !4232

if.else:                                          ; preds = %if.end24
  %30 = load %"class.xercesc_2_7::DOMNode"*, %"class.xercesc_2_7::DOMNode"** %newChild.addr, align 8, !dbg !4234
  %31 = bitcast %"class.xercesc_2_7::DOMNode"* %30 to i16 (%"class.xercesc_2_7::DOMNode"*)***, !dbg !4236
  %vtable33 = load i16 (%"class.xercesc_2_7::DOMNode"*)**, i16 (%"class.xercesc_2_7::DOMNode"*)*** %31, align 8, !dbg !4236
  %vfn34 = getelementptr inbounds i16 (%"class.xercesc_2_7::DOMNode"*)*, i16 (%"class.xercesc_2_7::DOMNode"*)** %vtable33, i64 4, !dbg !4236
  %32 = load i16 (%"class.xercesc_2_7::DOMNode"*)*, i16 (%"class.xercesc_2_7::DOMNode"*)** %vfn34, align 8, !dbg !4236
  %call35 = call signext i16 %32(%"class.xercesc_2_7::DOMNode"* %30), !dbg !4236
  %conv36 = sext i16 %call35 to i32, !dbg !4234
  %cmp37 = icmp eq i32 %conv36, 10, !dbg !4237
  br i1 %cmp37, label %if.then38, label %if.end40, !dbg !4238

if.then38:                                        ; preds = %if.else
  %33 = load %"class.xercesc_2_7::DOMNode"*, %"class.xercesc_2_7::DOMNode"** %newChild.addr, align 8, !dbg !4239
  %34 = bitcast %"class.xercesc_2_7::DOMNode"* %33 to %"class.xercesc_2_7::DOMDocumentType"*, !dbg !4240
  %fDocType39 = getelementptr inbounds %"class.xercesc_2_7::DOMDocumentImpl", %"class.xercesc_2_7::DOMDocumentImpl"* %this1, i32 0, i32 19, !dbg !4241
  store %"class.xercesc_2_7::DOMDocumentType"* %34, %"class.xercesc_2_7::DOMDocumentType"** %fDocType39, align 8, !dbg !4242
  br label %if.end40, !dbg !4241

if.end40:                                         ; preds = %if.then38, %if.else
  br label %if.end41

if.end41:                                         ; preds = %if.end40, %if.then31
  %35 = load %"class.xercesc_2_7::DOMNode"*, %"class.xercesc_2_7::DOMNode"** %newChild.addr, align 8, !dbg !4243
  ret %"class.xercesc_2_7::DOMNode"* %35, !dbg !4244

eh.resume:                                        ; preds = %lpad
  %exn = load i8*, i8** %exn.slot, align 8, !dbg !4204
  %sel = load i32, i32* %ehselector.slot, align 4, !dbg !4204
  %lpad.val = insertvalue { i8*, i32 } undef, i8* %exn, 0, !dbg !4204
  %lpad.val42 = insertvalue { i8*, i32 } %lpad.val, i32 %sel, 1, !dbg !4204
  resume { i8*, i32 } %lpad.val42, !dbg !4204
}

declare dso_local %"class.xercesc_2_7::DOMNode"* @_ZN11xercesc_2_713DOMParentNode12insertBeforeEPNS_7DOMNodeES2_(%"class.xercesc_2_7::DOMParentNode"*, %"class.xercesc_2_7::DOMNode"*, %"class.xercesc_2_7::DOMNode"*) #4

; Function Attrs: noinline uwtable
define dso_local %"class.xercesc_2_7::DOMNode"* @_ZThn24_N11xercesc_2_715DOMDocumentImpl12insertBeforeEPNS_7DOMNodeES2_(%"class.xercesc_2_7::DOMDocumentImpl"* %this, %"class.xercesc_2_7::DOMNode"* %newChild, %"class.xercesc_2_7::DOMNode"* %refChild) unnamed_addr #3 align 2 !dbg !4245 {
entry:
  %this.addr = alloca %"class.xercesc_2_7::DOMDocumentImpl"*, align 8
  %newChild.addr = alloca %"class.xercesc_2_7::DOMNode"*, align 8
  %refChild.addr = alloca %"class.xercesc_2_7::DOMNode"*, align 8
  store %"class.xercesc_2_7::DOMDocumentImpl"* %this, %"class.xercesc_2_7::DOMDocumentImpl"** %this.addr, align 8
  store %"class.xercesc_2_7::DOMNode"* %newChild, %"class.xercesc_2_7::DOMNode"** %newChild.addr, align 8
  store %"class.xercesc_2_7::DOMNode"* %refChild, %"class.xercesc_2_7::DOMNode"** %refChild.addr, align 8
  %this1 = load %"class.xercesc_2_7::DOMDocumentImpl"*, %"class.xercesc_2_7::DOMDocumentImpl"** %this.addr, align 8, !dbg !4246
  %0 = bitcast %"class.xercesc_2_7::DOMDocumentImpl"* %this1 to i8*, !dbg !4246
  %1 = getelementptr inbounds i8, i8* %0, i64 -24, !dbg !4246
  %2 = bitcast i8* %1 to %"class.xercesc_2_7::DOMDocumentImpl"*, !dbg !4246
  %3 = load %"class.xercesc_2_7::DOMNode"*, %"class.xercesc_2_7::DOMNode"** %newChild.addr, align 8, !dbg !4246
  %4 = load %"class.xercesc_2_7::DOMNode"*, %"class.xercesc_2_7::DOMNode"** %refChild.addr, align 8, !dbg !4246
  %call = tail call %"class.xercesc_2_7::DOMNode"* @_ZN11xercesc_2_715DOMDocumentImpl12insertBeforeEPNS_7DOMNodeES2_(%"class.xercesc_2_7::DOMDocumentImpl"* %2, %"class.xercesc_2_7::DOMNode"* %3, %"class.xercesc_2_7::DOMNode"* %4), !dbg !4246
  ret %"class.xercesc_2_7::DOMNode"* %call, !dbg !4246
}

; Function Attrs: noinline uwtable
define dso_local %"class.xercesc_2_7::DOMNode"* @_ZN11xercesc_2_715DOMDocumentImpl12replaceChildEPNS_7DOMNodeES2_(%"class.xercesc_2_7::DOMDocumentImpl"* %this, %"class.xercesc_2_7::DOMNode"* %newChild, %"class.xercesc_2_7::DOMNode"* %oldChild) unnamed_addr #3 align 2 personality i8* bitcast (i32 (...)* @__gxx_personality_v0 to i8*) !dbg !4247 {
entry:
  %retval = alloca %"class.xercesc_2_7::DOMNode"*, align 8
  %this.addr = alloca %"class.xercesc_2_7::DOMDocumentImpl"*, align 8
  %newChild.addr = alloca %"class.xercesc_2_7::DOMNode"*, align 8
  %oldChild.addr = alloca %"class.xercesc_2_7::DOMNode"*, align 8
  %tempDocType = alloca %"class.xercesc_2_7::DOMDocumentType"*, align 8
  %tempDocElement = alloca %"class.xercesc_2_7::DOMElement"*, align 8
  %exn.slot = alloca i8*
  %ehselector.slot = alloca i32
  %0 = alloca %"class.xercesc_2_7::OutOfMemoryException"*, align 8
  store %"class.xercesc_2_7::DOMDocumentImpl"* %this, %"class.xercesc_2_7::DOMDocumentImpl"** %this.addr, align 8
  call void @llvm.dbg.declare(metadata %"class.xercesc_2_7::DOMDocumentImpl"** %this.addr, metadata !4248, metadata !DIExpression()), !dbg !4249
  store %"class.xercesc_2_7::DOMNode"* %newChild, %"class.xercesc_2_7::DOMNode"** %newChild.addr, align 8
  call void @llvm.dbg.declare(metadata %"class.xercesc_2_7::DOMNode"** %newChild.addr, metadata !4250, metadata !DIExpression()), !dbg !4251
  store %"class.xercesc_2_7::DOMNode"* %oldChild, %"class.xercesc_2_7::DOMNode"** %oldChild.addr, align 8
  call void @llvm.dbg.declare(metadata %"class.xercesc_2_7::DOMNode"** %oldChild.addr, metadata !4252, metadata !DIExpression()), !dbg !4253
  %this1 = load %"class.xercesc_2_7::DOMDocumentImpl"*, %"class.xercesc_2_7::DOMDocumentImpl"** %this.addr, align 8
  call void @llvm.dbg.declare(metadata %"class.xercesc_2_7::DOMDocumentType"** %tempDocType, metadata !4254, metadata !DIExpression()), !dbg !4255
  %fDocType = getelementptr inbounds %"class.xercesc_2_7::DOMDocumentImpl", %"class.xercesc_2_7::DOMDocumentImpl"* %this1, i32 0, i32 19, !dbg !4256
  %1 = load %"class.xercesc_2_7::DOMDocumentType"*, %"class.xercesc_2_7::DOMDocumentType"** %fDocType, align 8, !dbg !4256
  store %"class.xercesc_2_7::DOMDocumentType"* %1, %"class.xercesc_2_7::DOMDocumentType"** %tempDocType, align 8, !dbg !4255
  call void @llvm.dbg.declare(metadata %"class.xercesc_2_7::DOMElement"** %tempDocElement, metadata !4257, metadata !DIExpression()), !dbg !4258
  %fDocElement = getelementptr inbounds %"class.xercesc_2_7::DOMDocumentImpl", %"class.xercesc_2_7::DOMDocumentImpl"* %this1, i32 0, i32 20, !dbg !4259
  %2 = load %"class.xercesc_2_7::DOMElement"*, %"class.xercesc_2_7::DOMElement"** %fDocElement, align 8, !dbg !4259
  store %"class.xercesc_2_7::DOMElement"* %2, %"class.xercesc_2_7::DOMElement"** %tempDocElement, align 8, !dbg !4258
  %3 = load %"class.xercesc_2_7::DOMNode"*, %"class.xercesc_2_7::DOMNode"** %oldChild.addr, align 8, !dbg !4260
  %4 = bitcast %"class.xercesc_2_7::DOMNode"* %3 to i16 (%"class.xercesc_2_7::DOMNode"*)***, !dbg !4262
  %vtable = load i16 (%"class.xercesc_2_7::DOMNode"*)**, i16 (%"class.xercesc_2_7::DOMNode"*)*** %4, align 8, !dbg !4262
  %vfn = getelementptr inbounds i16 (%"class.xercesc_2_7::DOMNode"*)*, i16 (%"class.xercesc_2_7::DOMNode"*)** %vtable, i64 4, !dbg !4262
  %5 = load i16 (%"class.xercesc_2_7::DOMNode"*)*, i16 (%"class.xercesc_2_7::DOMNode"*)** %vfn, align 8, !dbg !4262
  %call = call signext i16 %5(%"class.xercesc_2_7::DOMNode"* %3), !dbg !4262
  %conv = sext i16 %call to i32, !dbg !4260
  %cmp = icmp eq i32 %conv, 10, !dbg !4263
  br i1 %cmp, label %if.then, label %if.else, !dbg !4264

if.then:                                          ; preds = %entry
  %fDocType2 = getelementptr inbounds %"class.xercesc_2_7::DOMDocumentImpl", %"class.xercesc_2_7::DOMDocumentImpl"* %this1, i32 0, i32 19, !dbg !4265
  store %"class.xercesc_2_7::DOMDocumentType"* null, %"class.xercesc_2_7::DOMDocumentType"** %fDocType2, align 8, !dbg !4266
  br label %if.end10, !dbg !4265

if.else:                                          ; preds = %entry
  %6 = load %"class.xercesc_2_7::DOMNode"*, %"class.xercesc_2_7::DOMNode"** %oldChild.addr, align 8, !dbg !4267
  %7 = bitcast %"class.xercesc_2_7::DOMNode"* %6 to i16 (%"class.xercesc_2_7::DOMNode"*)***, !dbg !4269
  %vtable3 = load i16 (%"class.xercesc_2_7::DOMNode"*)**, i16 (%"class.xercesc_2_7::DOMNode"*)*** %7, align 8, !dbg !4269
  %vfn4 = getelementptr inbounds i16 (%"class.xercesc_2_7::DOMNode"*)*, i16 (%"class.xercesc_2_7::DOMNode"*)** %vtable3, i64 4, !dbg !4269
  %8 = load i16 (%"class.xercesc_2_7::DOMNode"*)*, i16 (%"class.xercesc_2_7::DOMNode"*)** %vfn4, align 8, !dbg !4269
  %call5 = call signext i16 %8(%"class.xercesc_2_7::DOMNode"* %6), !dbg !4269
  %conv6 = sext i16 %call5 to i32, !dbg !4267
  %cmp7 = icmp eq i32 %conv6, 1, !dbg !4270
  br i1 %cmp7, label %if.then8, label %if.end, !dbg !4271

if.then8:                                         ; preds = %if.else
  %fDocElement9 = getelementptr inbounds %"class.xercesc_2_7::DOMDocumentImpl", %"class.xercesc_2_7::DOMDocumentImpl"* %this1, i32 0, i32 20, !dbg !4272
  store %"class.xercesc_2_7::DOMElement"* null, %"class.xercesc_2_7::DOMElement"** %fDocElement9, align 8, !dbg !4273
  br label %if.end, !dbg !4272

if.end:                                           ; preds = %if.then8, %if.else
  br label %if.end10

if.end10:                                         ; preds = %if.end, %if.then
  %9 = load %"class.xercesc_2_7::DOMNode"*, %"class.xercesc_2_7::DOMNode"** %newChild.addr, align 8, !dbg !4274
  %10 = load %"class.xercesc_2_7::DOMNode"*, %"class.xercesc_2_7::DOMNode"** %oldChild.addr, align 8, !dbg !4276
  %11 = bitcast %"class.xercesc_2_7::DOMDocumentImpl"* %this1 to %"class.xercesc_2_7::DOMNode"* (%"class.xercesc_2_7::DOMDocumentImpl"*, %"class.xercesc_2_7::DOMNode"*, %"class.xercesc_2_7::DOMNode"*)***, !dbg !4277
  %vtable11 = load %"class.xercesc_2_7::DOMNode"* (%"class.xercesc_2_7::DOMDocumentImpl"*, %"class.xercesc_2_7::DOMNode"*, %"class.xercesc_2_7::DOMNode"*)**, %"class.xercesc_2_7::DOMNode"* (%"class.xercesc_2_7::DOMDocumentImpl"*, %"class.xercesc_2_7::DOMNode"*, %"class.xercesc_2_7::DOMNode"*)*** %11, align 8, !dbg !4277
  %vfn12 = getelementptr inbounds %"class.xercesc_2_7::DOMNode"* (%"class.xercesc_2_7::DOMDocumentImpl"*, %"class.xercesc_2_7::DOMNode"*, %"class.xercesc_2_7::DOMNode"*)*, %"class.xercesc_2_7::DOMNode"* (%"class.xercesc_2_7::DOMDocumentImpl"*, %"class.xercesc_2_7::DOMNode"*, %"class.xercesc_2_7::DOMNode"*)** %vtable11, i64 58, !dbg !4277
  %12 = load %"class.xercesc_2_7::DOMNode"* (%"class.xercesc_2_7::DOMDocumentImpl"*, %"class.xercesc_2_7::DOMNode"*, %"class.xercesc_2_7::DOMNode"*)*, %"class.xercesc_2_7::DOMNode"* (%"class.xercesc_2_7::DOMDocumentImpl"*, %"class.xercesc_2_7::DOMNode"*, %"class.xercesc_2_7::DOMNode"*)** %vfn12, align 8, !dbg !4277
  %call13 = invoke %"class.xercesc_2_7::DOMNode"* %12(%"class.xercesc_2_7::DOMDocumentImpl"* %this1, %"class.xercesc_2_7::DOMNode"* %9, %"class.xercesc_2_7::DOMNode"* %10)
          to label %invoke.cont unwind label %lpad, !dbg !4277

invoke.cont:                                      ; preds = %if.end10
  %13 = load %"class.xercesc_2_7::DOMNode"*, %"class.xercesc_2_7::DOMNode"** %oldChild.addr, align 8, !dbg !4278
  %14 = bitcast %"class.xercesc_2_7::DOMNode"* %13 to i16 (%"class.xercesc_2_7::DOMNode"*)***, !dbg !4280
  %vtable14 = load i16 (%"class.xercesc_2_7::DOMNode"*)**, i16 (%"class.xercesc_2_7::DOMNode"*)*** %14, align 8, !dbg !4280
  %vfn15 = getelementptr inbounds i16 (%"class.xercesc_2_7::DOMNode"*)*, i16 (%"class.xercesc_2_7::DOMNode"*)** %vtable14, i64 4, !dbg !4280
  %15 = load i16 (%"class.xercesc_2_7::DOMNode"*)*, i16 (%"class.xercesc_2_7::DOMNode"*)** %vfn15, align 8, !dbg !4280
  %call17 = invoke signext i16 %15(%"class.xercesc_2_7::DOMNode"* %13)
          to label %invoke.cont16 unwind label %lpad, !dbg !4280

invoke.cont16:                                    ; preds = %invoke.cont
  %conv18 = sext i16 %call17 to i32, !dbg !4278
  %cmp19 = icmp eq i32 %conv18, 10, !dbg !4281
  br i1 %cmp19, label %if.then26, label %lor.lhs.false, !dbg !4282

lor.lhs.false:                                    ; preds = %invoke.cont16
  %16 = load %"class.xercesc_2_7::DOMNode"*, %"class.xercesc_2_7::DOMNode"** %oldChild.addr, align 8, !dbg !4283
  %17 = bitcast %"class.xercesc_2_7::DOMNode"* %16 to i16 (%"class.xercesc_2_7::DOMNode"*)***, !dbg !4284
  %vtable20 = load i16 (%"class.xercesc_2_7::DOMNode"*)**, i16 (%"class.xercesc_2_7::DOMNode"*)*** %17, align 8, !dbg !4284
  %vfn21 = getelementptr inbounds i16 (%"class.xercesc_2_7::DOMNode"*)*, i16 (%"class.xercesc_2_7::DOMNode"*)** %vtable20, i64 4, !dbg !4284
  %18 = load i16 (%"class.xercesc_2_7::DOMNode"*)*, i16 (%"class.xercesc_2_7::DOMNode"*)** %vfn21, align 8, !dbg !4284
  %call23 = invoke signext i16 %18(%"class.xercesc_2_7::DOMNode"* %16)
          to label %invoke.cont22 unwind label %lpad, !dbg !4284

invoke.cont22:                                    ; preds = %lor.lhs.false
  %conv24 = sext i16 %call23 to i32, !dbg !4283
  %cmp25 = icmp eq i32 %conv24, 1, !dbg !4285
  br i1 %cmp25, label %if.then26, label %if.else29, !dbg !4286

if.then26:                                        ; preds = %invoke.cont22, %invoke.cont16
  %fParent = getelementptr inbounds %"class.xercesc_2_7::DOMDocumentImpl", %"class.xercesc_2_7::DOMDocumentImpl"* %this1, i32 0, i32 2, !dbg !4287
  %19 = load %"class.xercesc_2_7::DOMNode"*, %"class.xercesc_2_7::DOMNode"** %oldChild.addr, align 8, !dbg !4288
  %call28 = invoke %"class.xercesc_2_7::DOMNode"* @_ZN11xercesc_2_713DOMParentNode11removeChildEPNS_7DOMNodeE(%"class.xercesc_2_7::DOMParentNode"* %fParent, %"class.xercesc_2_7::DOMNode"* %19)
          to label %invoke.cont27 unwind label %lpad, !dbg !4289

invoke.cont27:                                    ; preds = %if.then26
  store %"class.xercesc_2_7::DOMNode"* %call28, %"class.xercesc_2_7::DOMNode"** %retval, align 8, !dbg !4290
  br label %return, !dbg !4290

lpad:                                             ; preds = %if.else29, %if.then26, %lor.lhs.false, %invoke.cont, %if.end10
  %20 = landingpad { i8*, i32 }
          catch i8* bitcast ({ i8*, i8*, i8* }* @_ZTIN11xercesc_2_720OutOfMemoryExceptionE to i8*)
          catch i8* null, !dbg !4291
  %21 = extractvalue { i8*, i32 } %20, 0, !dbg !4291
  store i8* %21, i8** %exn.slot, align 8, !dbg !4291
  %22 = extractvalue { i8*, i32 } %20, 1, !dbg !4291
  store i32 %22, i32* %ehselector.slot, align 4, !dbg !4291
  br label %catch.dispatch, !dbg !4291

catch.dispatch:                                   ; preds = %lpad
  %sel = load i32, i32* %ehselector.slot, align 4, !dbg !4292
  %23 = call i32 @llvm.eh.typeid.for(i8* bitcast ({ i8*, i8*, i8* }* @_ZTIN11xercesc_2_720OutOfMemoryExceptionE to i8*)) #10, !dbg !4292
  %matches = icmp eq i32 %sel, %23, !dbg !4292
  br i1 %matches, label %catch38, label %catch, !dbg !4292

catch38:                                          ; preds = %catch.dispatch
  call void @llvm.dbg.declare(metadata %"class.xercesc_2_7::OutOfMemoryException"** %0, metadata !4293, metadata !DIExpression()), !dbg !4294
  %exn39 = load i8*, i8** %exn.slot, align 8, !dbg !4295
  %24 = call i8* @__cxa_begin_catch(i8* %exn39) #10, !dbg !4295
  %exn.byref = bitcast i8* %24 to %"class.xercesc_2_7::OutOfMemoryException"*, !dbg !4295
  store %"class.xercesc_2_7::OutOfMemoryException"* %exn.byref, %"class.xercesc_2_7::OutOfMemoryException"** %0, align 8, !dbg !4295
  invoke void @__cxa_rethrow() #12
          to label %unreachable unwind label %lpad40, !dbg !4297

catch:                                            ; preds = %catch.dispatch
  %exn = load i8*, i8** %exn.slot, align 8, !dbg !4292
  %25 = call i8* @__cxa_begin_catch(i8* %exn) #10, !dbg !4292
  %26 = load %"class.xercesc_2_7::DOMDocumentType"*, %"class.xercesc_2_7::DOMDocumentType"** %tempDocType, align 8, !dbg !4299
  %fDocType34 = getelementptr inbounds %"class.xercesc_2_7::DOMDocumentImpl", %"class.xercesc_2_7::DOMDocumentImpl"* %this1, i32 0, i32 19, !dbg !4300
  store %"class.xercesc_2_7::DOMDocumentType"* %26, %"class.xercesc_2_7::DOMDocumentType"** %fDocType34, align 8, !dbg !4301
  %27 = load %"class.xercesc_2_7::DOMElement"*, %"class.xercesc_2_7::DOMElement"** %tempDocElement, align 8, !dbg !4302
  %fDocElement35 = getelementptr inbounds %"class.xercesc_2_7::DOMDocumentImpl", %"class.xercesc_2_7::DOMDocumentImpl"* %this1, i32 0, i32 20, !dbg !4303
  store %"class.xercesc_2_7::DOMElement"* %27, %"class.xercesc_2_7::DOMElement"** %fDocElement35, align 8, !dbg !4304
  invoke void @__cxa_rethrow() #12
          to label %unreachable unwind label %lpad36, !dbg !4305

if.else29:                                        ; preds = %invoke.cont22
  %28 = load %"class.xercesc_2_7::DOMNode"*, %"class.xercesc_2_7::DOMNode"** %oldChild.addr, align 8, !dbg !4306
  %29 = bitcast %"class.xercesc_2_7::DOMDocumentImpl"* %this1 to %"class.xercesc_2_7::DOMNode"* (%"class.xercesc_2_7::DOMDocumentImpl"*, %"class.xercesc_2_7::DOMNode"*)***, !dbg !4307
  %vtable30 = load %"class.xercesc_2_7::DOMNode"* (%"class.xercesc_2_7::DOMDocumentImpl"*, %"class.xercesc_2_7::DOMNode"*)**, %"class.xercesc_2_7::DOMNode"* (%"class.xercesc_2_7::DOMDocumentImpl"*, %"class.xercesc_2_7::DOMNode"*)*** %29, align 8, !dbg !4307
  %vfn31 = getelementptr inbounds %"class.xercesc_2_7::DOMNode"* (%"class.xercesc_2_7::DOMDocumentImpl"*, %"class.xercesc_2_7::DOMNode"*)*, %"class.xercesc_2_7::DOMNode"* (%"class.xercesc_2_7::DOMDocumentImpl"*, %"class.xercesc_2_7::DOMNode"*)** %vtable30, i64 60, !dbg !4307
  %30 = load %"class.xercesc_2_7::DOMNode"* (%"class.xercesc_2_7::DOMDocumentImpl"*, %"class.xercesc_2_7::DOMNode"*)*, %"class.xercesc_2_7::DOMNode"* (%"class.xercesc_2_7::DOMDocumentImpl"*, %"class.xercesc_2_7::DOMNode"*)** %vfn31, align 8, !dbg !4307
  %call33 = invoke %"class.xercesc_2_7::DOMNode"* %30(%"class.xercesc_2_7::DOMDocumentImpl"* %this1, %"class.xercesc_2_7::DOMNode"* %28)
          to label %invoke.cont32 unwind label %lpad, !dbg !4307

invoke.cont32:                                    ; preds = %if.else29
  store %"class.xercesc_2_7::DOMNode"* %call33, %"class.xercesc_2_7::DOMNode"** %retval, align 8, !dbg !4308
  br label %return, !dbg !4308

lpad36:                                           ; preds = %catch
  %31 = landingpad { i8*, i32 }
          cleanup, !dbg !4309
  %32 = extractvalue { i8*, i32 } %31, 0, !dbg !4309
  store i8* %32, i8** %exn.slot, align 8, !dbg !4309
  %33 = extractvalue { i8*, i32 } %31, 1, !dbg !4309
  store i32 %33, i32* %ehselector.slot, align 4, !dbg !4309
  invoke void @__cxa_end_catch()
          to label %invoke.cont37 unwind label %terminate.lpad, !dbg !4295

invoke.cont37:                                    ; preds = %lpad36
  br label %eh.resume, !dbg !4295

lpad40:                                           ; preds = %catch38
  %34 = landingpad { i8*, i32 }
          cleanup, !dbg !4310
  %35 = extractvalue { i8*, i32 } %34, 0, !dbg !4310
  store i8* %35, i8** %exn.slot, align 8, !dbg !4310
  %36 = extractvalue { i8*, i32 } %34, 1, !dbg !4310
  store i32 %36, i32* %ehselector.slot, align 4, !dbg !4310
  invoke void @__cxa_end_catch()
          to label %invoke.cont41 unwind label %terminate.lpad, !dbg !4311

invoke.cont41:                                    ; preds = %lpad40
  br label %eh.resume, !dbg !4311

try.cont:                                         ; No predecessors!
  call void @llvm.trap(), !dbg !4311
  unreachable, !dbg !4311

return:                                           ; preds = %invoke.cont32, %invoke.cont27
  %37 = load %"class.xercesc_2_7::DOMNode"*, %"class.xercesc_2_7::DOMNode"** %retval, align 8, !dbg !4312
  ret %"class.xercesc_2_7::DOMNode"* %37, !dbg !4312

eh.resume:                                        ; preds = %invoke.cont41, %invoke.cont37
  %exn42 = load i8*, i8** %exn.slot, align 8, !dbg !4295
  %sel43 = load i32, i32* %ehselector.slot, align 4, !dbg !4295
  %lpad.val = insertvalue { i8*, i32 } undef, i8* %exn42, 0, !dbg !4295
  %lpad.val44 = insertvalue { i8*, i32 } %lpad.val, i32 %sel43, 1, !dbg !4295
  resume { i8*, i32 } %lpad.val44, !dbg !4295

terminate.lpad:                                   ; preds = %lpad40, %lpad36
  %38 = landingpad { i8*, i32 }
          catch i8* null, !dbg !4295
  %39 = extractvalue { i8*, i32 } %38, 0, !dbg !4295
  call void @__clang_call_terminate(i8* %39) #13, !dbg !4295
  unreachable, !dbg !4295

unreachable:                                      ; preds = %catch38, %catch
  unreachable
}

declare dso_local %"class.xercesc_2_7::DOMNode"* @_ZN11xercesc_2_713DOMParentNode11removeChildEPNS_7DOMNodeE(%"class.xercesc_2_7::DOMParentNode"*, %"class.xercesc_2_7::DOMNode"*) #4

; Function Attrs: cold noreturn nounwind
declare void @llvm.trap() #8

; Function Attrs: noinline uwtable
define dso_local %"class.xercesc_2_7::DOMNode"* @_ZThn24_N11xercesc_2_715DOMDocumentImpl12replaceChildEPNS_7DOMNodeES2_(%"class.xercesc_2_7::DOMDocumentImpl"* %this, %"class.xercesc_2_7::DOMNode"* %newChild, %"class.xercesc_2_7::DOMNode"* %oldChild) unnamed_addr #3 align 2 !dbg !4313 {
entry:
  %this.addr = alloca %"class.xercesc_2_7::DOMDocumentImpl"*, align 8
  %newChild.addr = alloca %"class.xercesc_2_7::DOMNode"*, align 8
  %oldChild.addr = alloca %"class.xercesc_2_7::DOMNode"*, align 8
  store %"class.xercesc_2_7::DOMDocumentImpl"* %this, %"class.xercesc_2_7::DOMDocumentImpl"** %this.addr, align 8
  store %"class.xercesc_2_7::DOMNode"* %newChild, %"class.xercesc_2_7::DOMNode"** %newChild.addr, align 8
  store %"class.xercesc_2_7::DOMNode"* %oldChild, %"class.xercesc_2_7::DOMNode"** %oldChild.addr, align 8
  %this1 = load %"class.xercesc_2_7::DOMDocumentImpl"*, %"class.xercesc_2_7::DOMDocumentImpl"** %this.addr, align 8, !dbg !4314
  %0 = bitcast %"class.xercesc_2_7::DOMDocumentImpl"* %this1 to i8*, !dbg !4314
  %1 = getelementptr inbounds i8, i8* %0, i64 -24, !dbg !4314
  %2 = bitcast i8* %1 to %"class.xercesc_2_7::DOMDocumentImpl"*, !dbg !4314
  %3 = load %"class.xercesc_2_7::DOMNode"*, %"class.xercesc_2_7::DOMNode"** %newChild.addr, align 8, !dbg !4314
  %4 = load %"class.xercesc_2_7::DOMNode"*, %"class.xercesc_2_7::DOMNode"** %oldChild.addr, align 8, !dbg !4314
  %call = tail call %"class.xercesc_2_7::DOMNode"* @_ZN11xercesc_2_715DOMDocumentImpl12replaceChildEPNS_7DOMNodeES2_(%"class.xercesc_2_7::DOMDocumentImpl"* %2, %"class.xercesc_2_7::DOMNode"* %3, %"class.xercesc_2_7::DOMNode"* %4), !dbg !4314
  ret %"class.xercesc_2_7::DOMNode"* %call, !dbg !4314
}

; Function Attrs: noinline nounwind uwtable
define linkonce_odr dso_local zeroext i1 @_ZN11xercesc_2_79XMLString6equalsEPKtS2_(i16* %str1, i16* %str2) #1 comdat align 2 !dbg !4315 {
entry:
  %retval = alloca i1, align 1
  %str1.addr = alloca i16*, align 8
  %str2.addr = alloca i16*, align 8
  %psz1 = alloca i16*, align 8
  %psz2 = alloca i16*, align 8
  store i16* %str1, i16** %str1.addr, align 8
  call void @llvm.dbg.declare(metadata i16** %str1.addr, metadata !4628, metadata !DIExpression()), !dbg !4629
  store i16* %str2, i16** %str2.addr, align 8
  call void @llvm.dbg.declare(metadata i16** %str2.addr, metadata !4630, metadata !DIExpression()), !dbg !4631
  call void @llvm.dbg.declare(metadata i16** %psz1, metadata !4632, metadata !DIExpression()), !dbg !4633
  %0 = load i16*, i16** %str1.addr, align 8, !dbg !4634
  store i16* %0, i16** %psz1, align 8, !dbg !4633
  call void @llvm.dbg.declare(metadata i16** %psz2, metadata !4635, metadata !DIExpression()), !dbg !4636
  %1 = load i16*, i16** %str2.addr, align 8, !dbg !4637
  store i16* %1, i16** %psz2, align 8, !dbg !4636
  %2 = load i16*, i16** %psz1, align 8, !dbg !4638
  %cmp = icmp eq i16* %2, null, !dbg !4640
  br i1 %cmp, label %if.then, label %lor.lhs.false, !dbg !4641

lor.lhs.false:                                    ; preds = %entry
  %3 = load i16*, i16** %psz2, align 8, !dbg !4642
  %cmp1 = icmp eq i16* %3, null, !dbg !4643
  br i1 %cmp1, label %if.then, label %if.end, !dbg !4644

if.then:                                          ; preds = %lor.lhs.false, %entry
  %4 = load i16*, i16** %psz1, align 8, !dbg !4645
  %cmp2 = icmp ne i16* %4, null, !dbg !4648
  br i1 %cmp2, label %land.lhs.true, label %lor.lhs.false3, !dbg !4649

land.lhs.true:                                    ; preds = %if.then
  %5 = load i16*, i16** %psz1, align 8, !dbg !4650
  %6 = load i16, i16* %5, align 2, !dbg !4651
  %tobool = icmp ne i16 %6, 0, !dbg !4651
  br i1 %tobool, label %if.then7, label %lor.lhs.false3, !dbg !4652

lor.lhs.false3:                                   ; preds = %land.lhs.true, %if.then
  %7 = load i16*, i16** %psz2, align 8, !dbg !4653
  %cmp4 = icmp ne i16* %7, null, !dbg !4654
  br i1 %cmp4, label %land.lhs.true5, label %if.else, !dbg !4655

land.lhs.true5:                                   ; preds = %lor.lhs.false3
  %8 = load i16*, i16** %psz2, align 8, !dbg !4656
  %9 = load i16, i16* %8, align 2, !dbg !4657
  %tobool6 = icmp ne i16 %9, 0, !dbg !4657
  br i1 %tobool6, label %if.then7, label %if.else, !dbg !4658

if.then7:                                         ; preds = %land.lhs.true5, %land.lhs.true
  store i1 false, i1* %retval, align 1, !dbg !4659
  br label %return, !dbg !4659

if.else:                                          ; preds = %land.lhs.true5, %lor.lhs.false3
  store i1 true, i1* %retval, align 1, !dbg !4660
  br label %return, !dbg !4660

if.end:                                           ; preds = %lor.lhs.false
  br label %while.cond, !dbg !4661

while.cond:                                       ; preds = %if.end12, %if.end
  %10 = load i16*, i16** %psz1, align 8, !dbg !4662
  %11 = load i16, i16* %10, align 2, !dbg !4663
  %conv = zext i16 %11 to i32, !dbg !4663
  %12 = load i16*, i16** %psz2, align 8, !dbg !4664
  %13 = load i16, i16* %12, align 2, !dbg !4665
  %conv8 = zext i16 %13 to i32, !dbg !4665
  %cmp9 = icmp eq i32 %conv, %conv8, !dbg !4666
  br i1 %cmp9, label %while.body, label %while.end, !dbg !4661

while.body:                                       ; preds = %while.cond
  %14 = load i16*, i16** %psz1, align 8, !dbg !4667
  %15 = load i16, i16* %14, align 2, !dbg !4670
  %tobool10 = icmp ne i16 %15, 0, !dbg !4670
  br i1 %tobool10, label %if.end12, label %if.then11, !dbg !4671

if.then11:                                        ; preds = %while.body
  store i1 true, i1* %retval, align 1, !dbg !4672
  br label %return, !dbg !4672

if.end12:                                         ; preds = %while.body
  %16 = load i16*, i16** %psz1, align 8, !dbg !4673
  %incdec.ptr = getelementptr inbounds i16, i16* %16, i32 1, !dbg !4673
  store i16* %incdec.ptr, i16** %psz1, align 8, !dbg !4673
  %17 = load i16*, i16** %psz2, align 8, !dbg !4674
  %incdec.ptr13 = getelementptr inbounds i16, i16* %17, i32 1, !dbg !4674
  store i16* %incdec.ptr13, i16** %psz2, align 8, !dbg !4674
  br label %while.cond, !dbg !4661, !llvm.loop !4675

while.end:                                        ; preds = %while.cond
  store i1 false, i1* %retval, align 1, !dbg !4677
  br label %return, !dbg !4677

return:                                           ; preds = %while.end, %if.then11, %if.else, %if.then7
  %18 = load i1, i1* %retval, align 1, !dbg !4678
  ret i1 %18, !dbg !4678
}

declare dso_local zeroext i1 @_ZN11xercesc_2_710XMLChar1_111isValidNameEPKtj(i16*, i32) #4

; Function Attrs: noinline nounwind uwtable
define linkonce_odr dso_local i32 @_ZN11xercesc_2_79XMLString9stringLenEPKt(i16* %src) #1 comdat align 2 !dbg !4679 {
entry:
  %retval = alloca i32, align 4
  %src.addr = alloca i16*, align 8
  %pszTmp = alloca i16*, align 8
  store i16* %src, i16** %src.addr, align 8
  call void @llvm.dbg.declare(metadata i16** %src.addr, metadata !4680, metadata !DIExpression()), !dbg !4681
  %0 = load i16*, i16** %src.addr, align 8, !dbg !4682
  %cmp = icmp eq i16* %0, null, !dbg !4684
  br i1 %cmp, label %if.then, label %lor.lhs.false, !dbg !4685

lor.lhs.false:                                    ; preds = %entry
  %1 = load i16*, i16** %src.addr, align 8, !dbg !4686
  %2 = load i16, i16* %1, align 2, !dbg !4687
  %conv = zext i16 %2 to i32, !dbg !4687
  %cmp1 = icmp eq i32 %conv, 0, !dbg !4688
  br i1 %cmp1, label %if.then, label %if.else, !dbg !4689

if.then:                                          ; preds = %lor.lhs.false, %entry
  store i32 0, i32* %retval, align 4, !dbg !4690
  br label %return, !dbg !4690

if.else:                                          ; preds = %lor.lhs.false
  call void @llvm.dbg.declare(metadata i16** %pszTmp, metadata !4692, metadata !DIExpression()), !dbg !4694
  %3 = load i16*, i16** %src.addr, align 8, !dbg !4695
  %add.ptr = getelementptr inbounds i16, i16* %3, i64 1, !dbg !4696
  store i16* %add.ptr, i16** %pszTmp, align 8, !dbg !4694
  br label %while.cond, !dbg !4697

while.cond:                                       ; preds = %while.body, %if.else
  %4 = load i16*, i16** %pszTmp, align 8, !dbg !4698
  %5 = load i16, i16* %4, align 2, !dbg !4699
  %tobool = icmp ne i16 %5, 0, !dbg !4699
  br i1 %tobool, label %while.body, label %while.end, !dbg !4697

while.body:                                       ; preds = %while.cond
  %6 = load i16*, i16** %pszTmp, align 8, !dbg !4700
  %incdec.ptr = getelementptr inbounds i16, i16* %6, i32 1, !dbg !4700
  store i16* %incdec.ptr, i16** %pszTmp, align 8, !dbg !4700
  br label %while.cond, !dbg !4697, !llvm.loop !4701

while.end:                                        ; preds = %while.cond
  %7 = load i16*, i16** %pszTmp, align 8, !dbg !4703
  %8 = load i16*, i16** %src.addr, align 8, !dbg !4704
  %sub.ptr.lhs.cast = ptrtoint i16* %7 to i64, !dbg !4705
  %sub.ptr.rhs.cast = ptrtoint i16* %8 to i64, !dbg !4705
  %sub.ptr.sub = sub i64 %sub.ptr.lhs.cast, %sub.ptr.rhs.cast, !dbg !4705
  %sub.ptr.div = sdiv exact i64 %sub.ptr.sub, 2, !dbg !4705
  %conv2 = trunc i64 %sub.ptr.div to i32, !dbg !4706
  store i32 %conv2, i32* %retval, align 4, !dbg !4707
  br label %return, !dbg !4707

return:                                           ; preds = %while.end, %if.then
  %9 = load i32, i32* %retval, align 4, !dbg !4708
  ret i32 %9, !dbg !4708
}

declare dso_local zeroext i1 @_ZN11xercesc_2_710XMLChar1_011isValidNameEPKtj(i16*, i32) #4

; Function Attrs: noinline uwtable
define dso_local %"class.xercesc_2_7::DOMNode"* @_ZN11xercesc_2_715DOMDocumentImpl11removeChildEPNS_7DOMNodeE(%"class.xercesc_2_7::DOMDocumentImpl"* %this, %"class.xercesc_2_7::DOMNode"* %oldChild) unnamed_addr #3 align 2 !dbg !4709 {
entry:
  %this.addr = alloca %"class.xercesc_2_7::DOMDocumentImpl"*, align 8
  %oldChild.addr = alloca %"class.xercesc_2_7::DOMNode"*, align 8
  store %"class.xercesc_2_7::DOMDocumentImpl"* %this, %"class.xercesc_2_7::DOMDocumentImpl"** %this.addr, align 8
  call void @llvm.dbg.declare(metadata %"class.xercesc_2_7::DOMDocumentImpl"** %this.addr, metadata !4710, metadata !DIExpression()), !dbg !4711
  store %"class.xercesc_2_7::DOMNode"* %oldChild, %"class.xercesc_2_7::DOMNode"** %oldChild.addr, align 8
  call void @llvm.dbg.declare(metadata %"class.xercesc_2_7::DOMNode"** %oldChild.addr, metadata !4712, metadata !DIExpression()), !dbg !4713
  %this1 = load %"class.xercesc_2_7::DOMDocumentImpl"*, %"class.xercesc_2_7::DOMDocumentImpl"** %this.addr, align 8
  %fParent = getelementptr inbounds %"class.xercesc_2_7::DOMDocumentImpl", %"class.xercesc_2_7::DOMDocumentImpl"* %this1, i32 0, i32 2, !dbg !4714
  %0 = load %"class.xercesc_2_7::DOMNode"*, %"class.xercesc_2_7::DOMNode"** %oldChild.addr, align 8, !dbg !4715
  %call = call %"class.xercesc_2_7::DOMNode"* @_ZN11xercesc_2_713DOMParentNode11removeChildEPNS_7DOMNodeE(%"class.xercesc_2_7::DOMParentNode"* %fParent, %"class.xercesc_2_7::DOMNode"* %0), !dbg !4716
  %1 = load %"class.xercesc_2_7::DOMNode"*, %"class.xercesc_2_7::DOMNode"** %oldChild.addr, align 8, !dbg !4717
  %2 = bitcast %"class.xercesc_2_7::DOMNode"* %1 to i16 (%"class.xercesc_2_7::DOMNode"*)***, !dbg !4719
  %vtable = load i16 (%"class.xercesc_2_7::DOMNode"*)**, i16 (%"class.xercesc_2_7::DOMNode"*)*** %2, align 8, !dbg !4719
  %vfn = getelementptr inbounds i16 (%"class.xercesc_2_7::DOMNode"*)*, i16 (%"class.xercesc_2_7::DOMNode"*)** %vtable, i64 4, !dbg !4719
  %3 = load i16 (%"class.xercesc_2_7::DOMNode"*)*, i16 (%"class.xercesc_2_7::DOMNode"*)** %vfn, align 8, !dbg !4719
  %call2 = call signext i16 %3(%"class.xercesc_2_7::DOMNode"* %1), !dbg !4719
  %conv = sext i16 %call2 to i32, !dbg !4717
  %cmp = icmp eq i32 %conv, 1, !dbg !4720
  br i1 %cmp, label %if.then, label %if.else, !dbg !4721

if.then:                                          ; preds = %entry
  %fDocElement = getelementptr inbounds %"class.xercesc_2_7::DOMDocumentImpl", %"class.xercesc_2_7::DOMDocumentImpl"* %this1, i32 0, i32 20, !dbg !4722
  store %"class.xercesc_2_7::DOMElement"* null, %"class.xercesc_2_7::DOMElement"** %fDocElement, align 8, !dbg !4723
  br label %if.end9, !dbg !4722

if.else:                                          ; preds = %entry
  %4 = load %"class.xercesc_2_7::DOMNode"*, %"class.xercesc_2_7::DOMNode"** %oldChild.addr, align 8, !dbg !4724
  %5 = bitcast %"class.xercesc_2_7::DOMNode"* %4 to i16 (%"class.xercesc_2_7::DOMNode"*)***, !dbg !4726
  %vtable3 = load i16 (%"class.xercesc_2_7::DOMNode"*)**, i16 (%"class.xercesc_2_7::DOMNode"*)*** %5, align 8, !dbg !4726
  %vfn4 = getelementptr inbounds i16 (%"class.xercesc_2_7::DOMNode"*)*, i16 (%"class.xercesc_2_7::DOMNode"*)** %vtable3, i64 4, !dbg !4726
  %6 = load i16 (%"class.xercesc_2_7::DOMNode"*)*, i16 (%"class.xercesc_2_7::DOMNode"*)** %vfn4, align 8, !dbg !4726
  %call5 = call signext i16 %6(%"class.xercesc_2_7::DOMNode"* %4), !dbg !4726
  %conv6 = sext i16 %call5 to i32, !dbg !4724
  %cmp7 = icmp eq i32 %conv6, 10, !dbg !4727
  br i1 %cmp7, label %if.then8, label %if.end, !dbg !4728

if.then8:                                         ; preds = %if.else
  %fDocType = getelementptr inbounds %"class.xercesc_2_7::DOMDocumentImpl", %"class.xercesc_2_7::DOMDocumentImpl"* %this1, i32 0, i32 19, !dbg !4729
  store %"class.xercesc_2_7::DOMDocumentType"* null, %"class.xercesc_2_7::DOMDocumentType"** %fDocType, align 8, !dbg !4730
  br label %if.end, !dbg !4729

if.end:                                           ; preds = %if.then8, %if.else
  br label %if.end9

if.end9:                                          ; preds = %if.end, %if.then
  %7 = load %"class.xercesc_2_7::DOMNode"*, %"class.xercesc_2_7::DOMNode"** %oldChild.addr, align 8, !dbg !4731
  ret %"class.xercesc_2_7::DOMNode"* %7, !dbg !4732
}

; Function Attrs: noinline uwtable
define dso_local %"class.xercesc_2_7::DOMNode"* @_ZThn24_N11xercesc_2_715DOMDocumentImpl11removeChildEPNS_7DOMNodeE(%"class.xercesc_2_7::DOMDocumentImpl"* %this, %"class.xercesc_2_7::DOMNode"* %oldChild) unnamed_addr #3 align 2 !dbg !4733 {
entry:
  %this.addr = alloca %"class.xercesc_2_7::DOMDocumentImpl"*, align 8
  %oldChild.addr = alloca %"class.xercesc_2_7::DOMNode"*, align 8
  store %"class.xercesc_2_7::DOMDocumentImpl"* %this, %"class.xercesc_2_7::DOMDocumentImpl"** %this.addr, align 8
  store %"class.xercesc_2_7::DOMNode"* %oldChild, %"class.xercesc_2_7::DOMNode"** %oldChild.addr, align 8
  %this1 = load %"class.xercesc_2_7::DOMDocumentImpl"*, %"class.xercesc_2_7::DOMDocumentImpl"** %this.addr, align 8, !dbg !4734
  %0 = bitcast %"class.xercesc_2_7::DOMDocumentImpl"* %this1 to i8*, !dbg !4734
  %1 = getelementptr inbounds i8, i8* %0, i64 -24, !dbg !4734
  %2 = bitcast i8* %1 to %"class.xercesc_2_7::DOMDocumentImpl"*, !dbg !4734
  %3 = load %"class.xercesc_2_7::DOMNode"*, %"class.xercesc_2_7::DOMNode"** %oldChild.addr, align 8, !dbg !4734
  %call = tail call %"class.xercesc_2_7::DOMNode"* @_ZN11xercesc_2_715DOMDocumentImpl11removeChildEPNS_7DOMNodeE(%"class.xercesc_2_7::DOMDocumentImpl"* %2, %"class.xercesc_2_7::DOMNode"* %3), !dbg !4734
  ret %"class.xercesc_2_7::DOMNode"* %call, !dbg !4734
}

; Function Attrs: noinline uwtable
define dso_local void @_ZN11xercesc_2_715DOMDocumentImpl12setNodeValueEPKt(%"class.xercesc_2_7::DOMDocumentImpl"* %this, i16* %x) unnamed_addr #3 align 2 !dbg !4735 {
entry:
  %this.addr = alloca %"class.xercesc_2_7::DOMDocumentImpl"*, align 8
  %x.addr = alloca i16*, align 8
  store %"class.xercesc_2_7::DOMDocumentImpl"* %this, %"class.xercesc_2_7::DOMDocumentImpl"** %this.addr, align 8
  call void @llvm.dbg.declare(metadata %"class.xercesc_2_7::DOMDocumentImpl"** %this.addr, metadata !4736, metadata !DIExpression()), !dbg !4737
  store i16* %x, i16** %x.addr, align 8
  call void @llvm.dbg.declare(metadata i16** %x.addr, metadata !4738, metadata !DIExpression()), !dbg !4739
  %this1 = load %"class.xercesc_2_7::DOMDocumentImpl"*, %"class.xercesc_2_7::DOMDocumentImpl"** %this.addr, align 8
  %fNode = getelementptr inbounds %"class.xercesc_2_7::DOMDocumentImpl", %"class.xercesc_2_7::DOMDocumentImpl"* %this1, i32 0, i32 1, !dbg !4740
  %0 = load i16*, i16** %x.addr, align 8, !dbg !4741
  call void @_ZN11xercesc_2_711DOMNodeImpl12setNodeValueEPKt(%"class.xercesc_2_7::DOMNodeImpl"* %fNode, i16* %0), !dbg !4742
  ret void, !dbg !4743
}

declare dso_local void @_ZN11xercesc_2_711DOMNodeImpl12setNodeValueEPKt(%"class.xercesc_2_7::DOMNodeImpl"*, i16*) #4

; Function Attrs: noinline uwtable
define dso_local void @_ZThn24_N11xercesc_2_715DOMDocumentImpl12setNodeValueEPKt(%"class.xercesc_2_7::DOMDocumentImpl"* %this, i16* %x) unnamed_addr #3 align 2 !dbg !4744 {
entry:
  %this.addr = alloca %"class.xercesc_2_7::DOMDocumentImpl"*, align 8
  %x.addr = alloca i16*, align 8
  store %"class.xercesc_2_7::DOMDocumentImpl"* %this, %"class.xercesc_2_7::DOMDocumentImpl"** %this.addr, align 8
  store i16* %x, i16** %x.addr, align 8
  %this1 = load %"class.xercesc_2_7::DOMDocumentImpl"*, %"class.xercesc_2_7::DOMDocumentImpl"** %this.addr, align 8, !dbg !4745
  %0 = bitcast %"class.xercesc_2_7::DOMDocumentImpl"* %this1 to i8*, !dbg !4745
  %1 = getelementptr inbounds i8, i8* %0, i64 -24, !dbg !4745
  %2 = bitcast i8* %1 to %"class.xercesc_2_7::DOMDocumentImpl"*, !dbg !4745
  %3 = load i16*, i16** %x.addr, align 8, !dbg !4745
  tail call void @_ZN11xercesc_2_715DOMDocumentImpl12setNodeValueEPKt(%"class.xercesc_2_7::DOMDocumentImpl"* %2, i16* %3), !dbg !4745
  ret void, !dbg !4745
}

; Function Attrs: noinline uwtable
define dso_local %"class.xercesc_2_7::DOMNode"* @_ZN11xercesc_2_715DOMDocumentImpl10importNodeEPNS_7DOMNodeEb(%"class.xercesc_2_7::DOMDocumentImpl"* %this, %"class.xercesc_2_7::DOMNode"* %source, i1 zeroext %deep) unnamed_addr #3 align 2 !dbg !4746 {
entry:
  %this.addr = alloca %"class.xercesc_2_7::DOMDocumentImpl"*, align 8
  %source.addr = alloca %"class.xercesc_2_7::DOMNode"*, align 8
  %deep.addr = alloca i8, align 1
  store %"class.xercesc_2_7::DOMDocumentImpl"* %this, %"class.xercesc_2_7::DOMDocumentImpl"** %this.addr, align 8
  call void @llvm.dbg.declare(metadata %"class.xercesc_2_7::DOMDocumentImpl"** %this.addr, metadata !4747, metadata !DIExpression()), !dbg !4748
  store %"class.xercesc_2_7::DOMNode"* %source, %"class.xercesc_2_7::DOMNode"** %source.addr, align 8
  call void @llvm.dbg.declare(metadata %"class.xercesc_2_7::DOMNode"** %source.addr, metadata !4749, metadata !DIExpression()), !dbg !4750
  %frombool = zext i1 %deep to i8
  store i8 %frombool, i8* %deep.addr, align 1
  call void @llvm.dbg.declare(metadata i8* %deep.addr, metadata !4751, metadata !DIExpression()), !dbg !4752
  %this1 = load %"class.xercesc_2_7::DOMDocumentImpl"*, %"class.xercesc_2_7::DOMDocumentImpl"** %this.addr, align 8
  %0 = load %"class.xercesc_2_7::DOMNode"*, %"class.xercesc_2_7::DOMNode"** %source.addr, align 8, !dbg !4753
  %1 = load i8, i8* %deep.addr, align 1, !dbg !4754
  %tobool = trunc i8 %1 to i1, !dbg !4754
  %2 = bitcast %"class.xercesc_2_7::DOMDocumentImpl"* %this1 to %"class.xercesc_2_7::DOMNode"* (%"class.xercesc_2_7::DOMDocumentImpl"*, %"class.xercesc_2_7::DOMNode"*, i1, i1)***, !dbg !4755
  %vtable = load %"class.xercesc_2_7::DOMNode"* (%"class.xercesc_2_7::DOMDocumentImpl"*, %"class.xercesc_2_7::DOMNode"*, i1, i1)**, %"class.xercesc_2_7::DOMNode"* (%"class.xercesc_2_7::DOMDocumentImpl"*, %"class.xercesc_2_7::DOMNode"*, i1, i1)*** %2, align 8, !dbg !4755
  %vfn = getelementptr inbounds %"class.xercesc_2_7::DOMNode"* (%"class.xercesc_2_7::DOMDocumentImpl"*, %"class.xercesc_2_7::DOMNode"*, i1, i1)*, %"class.xercesc_2_7::DOMNode"* (%"class.xercesc_2_7::DOMDocumentImpl"*, %"class.xercesc_2_7::DOMNode"*, i1, i1)** %vtable, i64 92, !dbg !4755
  %3 = load %"class.xercesc_2_7::DOMNode"* (%"class.xercesc_2_7::DOMDocumentImpl"*, %"class.xercesc_2_7::DOMNode"*, i1, i1)*, %"class.xercesc_2_7::DOMNode"* (%"class.xercesc_2_7::DOMDocumentImpl"*, %"class.xercesc_2_7::DOMNode"*, i1, i1)** %vfn, align 8, !dbg !4755
  %call = call %"class.xercesc_2_7::DOMNode"* %3(%"class.xercesc_2_7::DOMDocumentImpl"* %this1, %"class.xercesc_2_7::DOMNode"* %0, i1 zeroext %tobool, i1 zeroext false), !dbg !4755
  ret %"class.xercesc_2_7::DOMNode"* %call, !dbg !4756
}

; Function Attrs: noinline uwtable
define dso_local %"class.xercesc_2_7::DOMElement"* @_ZN11xercesc_2_715DOMDocumentImpl15createElementNSEPKtS2_(%"class.xercesc_2_7::DOMDocumentImpl"* %this, i16* %fNamespaceURI, i16* %qualifiedName) unnamed_addr #3 align 2 personality i8* bitcast (i32 (...)* @__gxx_personality_v0 to i8*) !dbg !4757 {
entry:
  %this.addr = alloca %"class.xercesc_2_7::DOMDocumentImpl"*, align 8
  %fNamespaceURI.addr = alloca i16*, align 8
  %qualifiedName.addr = alloca i16*, align 8
  %exn.slot = alloca i8*
  %ehselector.slot = alloca i32
  store %"class.xercesc_2_7::DOMDocumentImpl"* %this, %"class.xercesc_2_7::DOMDocumentImpl"** %this.addr, align 8
  call void @llvm.dbg.declare(metadata %"class.xercesc_2_7::DOMDocumentImpl"** %this.addr, metadata !4758, metadata !DIExpression()), !dbg !4759
  store i16* %fNamespaceURI, i16** %fNamespaceURI.addr, align 8
  call void @llvm.dbg.declare(metadata i16** %fNamespaceURI.addr, metadata !4760, metadata !DIExpression()), !dbg !4761
  store i16* %qualifiedName, i16** %qualifiedName.addr, align 8
  call void @llvm.dbg.declare(metadata i16** %qualifiedName.addr, metadata !4762, metadata !DIExpression()), !dbg !4763
  %this1 = load %"class.xercesc_2_7::DOMDocumentImpl"*, %"class.xercesc_2_7::DOMDocumentImpl"** %this.addr, align 8
  %0 = load i16*, i16** %qualifiedName.addr, align 8, !dbg !4764
  %tobool = icmp ne i16* %0, null, !dbg !4764
  br i1 %tobool, label %lor.lhs.false, label %if.then, !dbg !4766

lor.lhs.false:                                    ; preds = %entry
  %1 = load i16*, i16** %qualifiedName.addr, align 8, !dbg !4767
  %call = call zeroext i1 @_ZN11xercesc_2_715DOMDocumentImpl9isXMLNameEPKt(%"class.xercesc_2_7::DOMDocumentImpl"* %this1, i16* %1), !dbg !4768
  br i1 %call, label %if.end, label %if.then, !dbg !4769

if.then:                                          ; preds = %lor.lhs.false, %entry
  %exception = call i8* @__cxa_allocate_exception(i64 40) #10, !dbg !4770
  %2 = bitcast i8* %exception to %"class.xercesc_2_7::DOMException"*, !dbg !4770
  %call2 = invoke %"class.xercesc_2_7::MemoryManager"* @_ZNK11xercesc_2_715DOMDocumentImpl16getMemoryManagerEv(%"class.xercesc_2_7::DOMDocumentImpl"* %this1)
          to label %invoke.cont unwind label %lpad, !dbg !4771

invoke.cont:                                      ; preds = %if.then
  invoke void @_ZN11xercesc_2_712DOMExceptionC1EsPKtPNS_13MemoryManagerE(%"class.xercesc_2_7::DOMException"* %2, i16 signext 5, i16* null, %"class.xercesc_2_7::MemoryManager"* %call2)
          to label %invoke.cont3 unwind label %lpad, !dbg !4772

invoke.cont3:                                     ; preds = %invoke.cont
  call void @__cxa_throw(i8* %exception, i8* bitcast (i8** @_ZTIN11xercesc_2_712DOMExceptionE to i8*), i8* bitcast (void (%"class.xercesc_2_7::DOMException"*)* @_ZN11xercesc_2_712DOMExceptionD1Ev to i8*)) #12, !dbg !4770
  unreachable, !dbg !4770

lpad:                                             ; preds = %invoke.cont, %if.then
  %3 = landingpad { i8*, i32 }
          cleanup, !dbg !4773
  %4 = extractvalue { i8*, i32 } %3, 0, !dbg !4773
  store i8* %4, i8** %exn.slot, align 8, !dbg !4773
  %5 = extractvalue { i8*, i32 } %3, 1, !dbg !4773
  store i32 %5, i32* %ehselector.slot, align 4, !dbg !4773
  call void @__cxa_free_exception(i8* %exception) #10, !dbg !4770
  br label %eh.resume, !dbg !4770

if.end:                                           ; preds = %lor.lhs.false
  %6 = bitcast %"class.xercesc_2_7::DOMDocumentImpl"* %this1 to %"class.xercesc_2_7::DOMDocument"*, !dbg !4774
  %call4 = call i8* @_ZnwmPN11xercesc_2_711DOMDocumentENS_15DOMDocumentImpl14NodeObjectTypeE(i64 128, %"class.xercesc_2_7::DOMDocument"* %6, i32 7), !dbg !4775
  %7 = bitcast i8* %call4 to %"class.xercesc_2_7::DOMElementNSImpl"*, !dbg !4775
  %8 = bitcast %"class.xercesc_2_7::DOMDocumentImpl"* %this1 to %"class.xercesc_2_7::DOMDocument"*, !dbg !4776
  %9 = load i16*, i16** %fNamespaceURI.addr, align 8, !dbg !4777
  %10 = load i16*, i16** %qualifiedName.addr, align 8, !dbg !4778
  call void @_ZN11xercesc_2_716DOMElementNSImplC1EPNS_11DOMDocumentEPKtS4_(%"class.xercesc_2_7::DOMElementNSImpl"* %7, %"class.xercesc_2_7::DOMDocument"* %8, i16* %9, i16* %10), !dbg !4779
  %11 = bitcast %"class.xercesc_2_7::DOMElementNSImpl"* %7 to %"class.xercesc_2_7::DOMElement"*, !dbg !4775
  ret %"class.xercesc_2_7::DOMElement"* %11, !dbg !4780

eh.resume:                                        ; preds = %lpad
  %exn = load i8*, i8** %exn.slot, align 8, !dbg !4770
  %sel = load i32, i32* %ehselector.slot, align 4, !dbg !4770
  %lpad.val = insertvalue { i8*, i32 } undef, i8* %exn, 0, !dbg !4770
  %lpad.val5 = insertvalue { i8*, i32 } %lpad.val, i32 %sel, 1, !dbg !4770
  resume { i8*, i32 } %lpad.val5, !dbg !4770
}

declare dso_local void @_ZN11xercesc_2_716DOMElementNSImplC1EPNS_11DOMDocumentEPKtS4_(%"class.xercesc_2_7::DOMElementNSImpl"*, %"class.xercesc_2_7::DOMDocument"*, i16*, i16*) unnamed_addr #4

; Function Attrs: noinline uwtable
define dso_local %"class.xercesc_2_7::DOMElement"* @_ZN11xercesc_2_715DOMDocumentImpl15createElementNSEPKtS2_ll(%"class.xercesc_2_7::DOMDocumentImpl"* %this, i16* %fNamespaceURI, i16* %qualifiedName, i64 %lineNo, i64 %columnNo) unnamed_addr #3 align 2 personality i8* bitcast (i32 (...)* @__gxx_personality_v0 to i8*) !dbg !4781 {
entry:
  %this.addr = alloca %"class.xercesc_2_7::DOMDocumentImpl"*, align 8
  %fNamespaceURI.addr = alloca i16*, align 8
  %qualifiedName.addr = alloca i16*, align 8
  %lineNo.addr = alloca i64, align 8
  %columnNo.addr = alloca i64, align 8
  %exn.slot = alloca i8*
  %ehselector.slot = alloca i32
  store %"class.xercesc_2_7::DOMDocumentImpl"* %this, %"class.xercesc_2_7::DOMDocumentImpl"** %this.addr, align 8
  call void @llvm.dbg.declare(metadata %"class.xercesc_2_7::DOMDocumentImpl"** %this.addr, metadata !4782, metadata !DIExpression()), !dbg !4783
  store i16* %fNamespaceURI, i16** %fNamespaceURI.addr, align 8
  call void @llvm.dbg.declare(metadata i16** %fNamespaceURI.addr, metadata !4784, metadata !DIExpression()), !dbg !4785
  store i16* %qualifiedName, i16** %qualifiedName.addr, align 8
  call void @llvm.dbg.declare(metadata i16** %qualifiedName.addr, metadata !4786, metadata !DIExpression()), !dbg !4787
  store i64 %lineNo, i64* %lineNo.addr, align 8
  call void @llvm.dbg.declare(metadata i64* %lineNo.addr, metadata !4788, metadata !DIExpression()), !dbg !4789
  store i64 %columnNo, i64* %columnNo.addr, align 8
  call void @llvm.dbg.declare(metadata i64* %columnNo.addr, metadata !4790, metadata !DIExpression()), !dbg !4791
  %this1 = load %"class.xercesc_2_7::DOMDocumentImpl"*, %"class.xercesc_2_7::DOMDocumentImpl"** %this.addr, align 8
  %0 = load i16*, i16** %qualifiedName.addr, align 8, !dbg !4792
  %tobool = icmp ne i16* %0, null, !dbg !4792
  br i1 %tobool, label %lor.lhs.false, label %if.then, !dbg !4794

lor.lhs.false:                                    ; preds = %entry
  %1 = load i16*, i16** %qualifiedName.addr, align 8, !dbg !4795
  %call = call zeroext i1 @_ZN11xercesc_2_715DOMDocumentImpl9isXMLNameEPKt(%"class.xercesc_2_7::DOMDocumentImpl"* %this1, i16* %1), !dbg !4796
  br i1 %call, label %if.end, label %if.then, !dbg !4797

if.then:                                          ; preds = %lor.lhs.false, %entry
  %exception = call i8* @__cxa_allocate_exception(i64 40) #10, !dbg !4798
  %2 = bitcast i8* %exception to %"class.xercesc_2_7::DOMException"*, !dbg !4798
  %call2 = invoke %"class.xercesc_2_7::MemoryManager"* @_ZNK11xercesc_2_715DOMDocumentImpl16getMemoryManagerEv(%"class.xercesc_2_7::DOMDocumentImpl"* %this1)
          to label %invoke.cont unwind label %lpad, !dbg !4799

invoke.cont:                                      ; preds = %if.then
  invoke void @_ZN11xercesc_2_712DOMExceptionC1EsPKtPNS_13MemoryManagerE(%"class.xercesc_2_7::DOMException"* %2, i16 signext 5, i16* null, %"class.xercesc_2_7::MemoryManager"* %call2)
          to label %invoke.cont3 unwind label %lpad, !dbg !4800

invoke.cont3:                                     ; preds = %invoke.cont
  call void @__cxa_throw(i8* %exception, i8* bitcast (i8** @_ZTIN11xercesc_2_712DOMExceptionE to i8*), i8* bitcast (void (%"class.xercesc_2_7::DOMException"*)* @_ZN11xercesc_2_712DOMExceptionD1Ev to i8*)) #12, !dbg !4798
  unreachable, !dbg !4798

lpad:                                             ; preds = %invoke.cont, %if.then
  %3 = landingpad { i8*, i32 }
          cleanup, !dbg !4801
  %4 = extractvalue { i8*, i32 } %3, 0, !dbg !4801
  store i8* %4, i8** %exn.slot, align 8, !dbg !4801
  %5 = extractvalue { i8*, i32 } %3, 1, !dbg !4801
  store i32 %5, i32* %ehselector.slot, align 4, !dbg !4801
  call void @__cxa_free_exception(i8* %exception) #10, !dbg !4798
  br label %eh.resume, !dbg !4798

if.end:                                           ; preds = %lor.lhs.false
  %6 = bitcast %"class.xercesc_2_7::DOMDocumentImpl"* %this1 to %"class.xercesc_2_7::DOMDocument"*, !dbg !4802
  %call4 = call i8* @_ZnwmPN11xercesc_2_711DOMDocumentE(i64 144, %"class.xercesc_2_7::DOMDocument"* %6), !dbg !4803
  %7 = bitcast i8* %call4 to %"class.xercesc_2_7::XSDElementNSImpl"*, !dbg !4803
  %8 = bitcast %"class.xercesc_2_7::DOMDocumentImpl"* %this1 to %"class.xercesc_2_7::DOMDocument"*, !dbg !4804
  %9 = load i16*, i16** %fNamespaceURI.addr, align 8, !dbg !4805
  %10 = load i16*, i16** %qualifiedName.addr, align 8, !dbg !4806
  %11 = load i64, i64* %lineNo.addr, align 8, !dbg !4807
  %12 = load i64, i64* %columnNo.addr, align 8, !dbg !4808
  call void @_ZN11xercesc_2_716XSDElementNSImplC1EPNS_11DOMDocumentEPKtS4_ll(%"class.xercesc_2_7::XSDElementNSImpl"* %7, %"class.xercesc_2_7::DOMDocument"* %8, i16* %9, i16* %10, i64 %11, i64 %12), !dbg !4809
  %13 = bitcast %"class.xercesc_2_7::XSDElementNSImpl"* %7 to %"class.xercesc_2_7::DOMElement"*, !dbg !4803
  ret %"class.xercesc_2_7::DOMElement"* %13, !dbg !4810

eh.resume:                                        ; preds = %lpad
  %exn = load i8*, i8** %exn.slot, align 8, !dbg !4798
  %sel = load i32, i32* %ehselector.slot, align 4, !dbg !4798
  %lpad.val = insertvalue { i8*, i32 } undef, i8* %exn, 0, !dbg !4798
  %lpad.val5 = insertvalue { i8*, i32 } %lpad.val, i32 %sel, 1, !dbg !4798
  resume { i8*, i32 } %lpad.val5, !dbg !4798
}

declare dso_local void @_ZN11xercesc_2_716XSDElementNSImplC1EPNS_11DOMDocumentEPKtS4_ll(%"class.xercesc_2_7::XSDElementNSImpl"*, %"class.xercesc_2_7::DOMDocument"*, i16*, i16*, i64, i64) unnamed_addr #4

; Function Attrs: noinline uwtable
define dso_local %"class.xercesc_2_7::DOMAttr"* @_ZN11xercesc_2_715DOMDocumentImpl17createAttributeNSEPKtS2_(%"class.xercesc_2_7::DOMDocumentImpl"* %this, i16* %fNamespaceURI, i16* %qualifiedName) unnamed_addr #3 align 2 personality i8* bitcast (i32 (...)* @__gxx_personality_v0 to i8*) !dbg !4811 {
entry:
  %this.addr = alloca %"class.xercesc_2_7::DOMDocumentImpl"*, align 8
  %fNamespaceURI.addr = alloca i16*, align 8
  %qualifiedName.addr = alloca i16*, align 8
  %exn.slot = alloca i8*
  %ehselector.slot = alloca i32
  store %"class.xercesc_2_7::DOMDocumentImpl"* %this, %"class.xercesc_2_7::DOMDocumentImpl"** %this.addr, align 8
  call void @llvm.dbg.declare(metadata %"class.xercesc_2_7::DOMDocumentImpl"** %this.addr, metadata !4812, metadata !DIExpression()), !dbg !4813
  store i16* %fNamespaceURI, i16** %fNamespaceURI.addr, align 8
  call void @llvm.dbg.declare(metadata i16** %fNamespaceURI.addr, metadata !4814, metadata !DIExpression()), !dbg !4815
  store i16* %qualifiedName, i16** %qualifiedName.addr, align 8
  call void @llvm.dbg.declare(metadata i16** %qualifiedName.addr, metadata !4816, metadata !DIExpression()), !dbg !4817
  %this1 = load %"class.xercesc_2_7::DOMDocumentImpl"*, %"class.xercesc_2_7::DOMDocumentImpl"** %this.addr, align 8
  %0 = load i16*, i16** %qualifiedName.addr, align 8, !dbg !4818
  %tobool = icmp ne i16* %0, null, !dbg !4818
  br i1 %tobool, label %lor.lhs.false, label %if.then, !dbg !4820

lor.lhs.false:                                    ; preds = %entry
  %1 = load i16*, i16** %qualifiedName.addr, align 8, !dbg !4821
  %call = call zeroext i1 @_ZN11xercesc_2_715DOMDocumentImpl9isXMLNameEPKt(%"class.xercesc_2_7::DOMDocumentImpl"* %this1, i16* %1), !dbg !4822
  br i1 %call, label %if.end, label %if.then, !dbg !4823

if.then:                                          ; preds = %lor.lhs.false, %entry
  %exception = call i8* @__cxa_allocate_exception(i64 40) #10, !dbg !4824
  %2 = bitcast i8* %exception to %"class.xercesc_2_7::DOMException"*, !dbg !4824
  %call2 = invoke %"class.xercesc_2_7::MemoryManager"* @_ZNK11xercesc_2_715DOMDocumentImpl16getMemoryManagerEv(%"class.xercesc_2_7::DOMDocumentImpl"* %this1)
          to label %invoke.cont unwind label %lpad, !dbg !4825

invoke.cont:                                      ; preds = %if.then
  invoke void @_ZN11xercesc_2_712DOMExceptionC1EsPKtPNS_13MemoryManagerE(%"class.xercesc_2_7::DOMException"* %2, i16 signext 5, i16* null, %"class.xercesc_2_7::MemoryManager"* %call2)
          to label %invoke.cont3 unwind label %lpad, !dbg !4826

invoke.cont3:                                     ; preds = %invoke.cont
  call void @__cxa_throw(i8* %exception, i8* bitcast (i8** @_ZTIN11xercesc_2_712DOMExceptionE to i8*), i8* bitcast (void (%"class.xercesc_2_7::DOMException"*)* @_ZN11xercesc_2_712DOMExceptionD1Ev to i8*)) #12, !dbg !4824
  unreachable, !dbg !4824

lpad:                                             ; preds = %invoke.cont, %if.then
  %3 = landingpad { i8*, i32 }
          cleanup, !dbg !4827
  %4 = extractvalue { i8*, i32 } %3, 0, !dbg !4827
  store i8* %4, i8** %exn.slot, align 8, !dbg !4827
  %5 = extractvalue { i8*, i32 } %3, 1, !dbg !4827
  store i32 %5, i32* %ehselector.slot, align 4, !dbg !4827
  call void @__cxa_free_exception(i8* %exception) #10, !dbg !4824
  br label %eh.resume, !dbg !4824

if.end:                                           ; preds = %lor.lhs.false
  %6 = bitcast %"class.xercesc_2_7::DOMDocumentImpl"* %this1 to %"class.xercesc_2_7::DOMDocument"*, !dbg !4828
  %call4 = call i8* @_ZnwmPN11xercesc_2_711DOMDocumentENS_15DOMDocumentImpl14NodeObjectTypeE(i64 96, %"class.xercesc_2_7::DOMDocument"* %6, i32 1), !dbg !4829
  %7 = bitcast i8* %call4 to %"class.xercesc_2_7::DOMAttrNSImpl"*, !dbg !4829
  %8 = bitcast %"class.xercesc_2_7::DOMDocumentImpl"* %this1 to %"class.xercesc_2_7::DOMDocument"*, !dbg !4830
  %9 = load i16*, i16** %fNamespaceURI.addr, align 8, !dbg !4831
  %10 = load i16*, i16** %qualifiedName.addr, align 8, !dbg !4832
  call void @_ZN11xercesc_2_713DOMAttrNSImplC1EPNS_11DOMDocumentEPKtS4_(%"class.xercesc_2_7::DOMAttrNSImpl"* %7, %"class.xercesc_2_7::DOMDocument"* %8, i16* %9, i16* %10), !dbg !4833
  %11 = bitcast %"class.xercesc_2_7::DOMAttrNSImpl"* %7 to %"class.xercesc_2_7::DOMAttr"*, !dbg !4829
  ret %"class.xercesc_2_7::DOMAttr"* %11, !dbg !4834

eh.resume:                                        ; preds = %lpad
  %exn = load i8*, i8** %exn.slot, align 8, !dbg !4824
  %sel = load i32, i32* %ehselector.slot, align 4, !dbg !4824
  %lpad.val = insertvalue { i8*, i32 } undef, i8* %exn, 0, !dbg !4824
  %lpad.val5 = insertvalue { i8*, i32 } %lpad.val, i32 %sel, 1, !dbg !4824
  resume { i8*, i32 } %lpad.val5, !dbg !4824
}

declare dso_local void @_ZN11xercesc_2_713DOMAttrNSImplC1EPNS_11DOMDocumentEPKtS4_(%"class.xercesc_2_7::DOMAttrNSImpl"*, %"class.xercesc_2_7::DOMDocument"*, i16*, i16*) unnamed_addr #4

; Function Attrs: noinline uwtable
define dso_local %"class.xercesc_2_7::DOMNodeList"* @_ZNK11xercesc_2_715DOMDocumentImpl22getElementsByTagNameNSEPKtS2_(%"class.xercesc_2_7::DOMDocumentImpl"* %this, i16* %fNamespaceURI, i16* %fLocalName) unnamed_addr #3 align 2 !dbg !4835 {
entry:
  %this.addr = alloca %"class.xercesc_2_7::DOMDocumentImpl"*, align 8
  %fNamespaceURI.addr = alloca i16*, align 8
  %fLocalName.addr = alloca i16*, align 8
  store %"class.xercesc_2_7::DOMDocumentImpl"* %this, %"class.xercesc_2_7::DOMDocumentImpl"** %this.addr, align 8
  call void @llvm.dbg.declare(metadata %"class.xercesc_2_7::DOMDocumentImpl"** %this.addr, metadata !4836, metadata !DIExpression()), !dbg !4837
  store i16* %fNamespaceURI, i16** %fNamespaceURI.addr, align 8
  call void @llvm.dbg.declare(metadata i16** %fNamespaceURI.addr, metadata !4838, metadata !DIExpression()), !dbg !4839
  store i16* %fLocalName, i16** %fLocalName.addr, align 8
  call void @llvm.dbg.declare(metadata i16** %fLocalName.addr, metadata !4840, metadata !DIExpression()), !dbg !4841
  %this1 = load %"class.xercesc_2_7::DOMDocumentImpl"*, %"class.xercesc_2_7::DOMDocumentImpl"** %this.addr, align 8
  %0 = bitcast %"class.xercesc_2_7::DOMDocumentImpl"* %this1 to i8*, !dbg !4842
  %add.ptr = getelementptr inbounds i8, i8* %0, i64 24, !dbg !4842
  %1 = bitcast i8* %add.ptr to %"class.xercesc_2_7::DOMNode"*, !dbg !4842
  %2 = load i16*, i16** %fNamespaceURI.addr, align 8, !dbg !4843
  %3 = load i16*, i16** %fLocalName.addr, align 8, !dbg !4844
  %call = call %"class.xercesc_2_7::DOMNodeList"* @_ZN11xercesc_2_715DOMDocumentImpl15getDeepNodeListEPKNS_7DOMNodeEPKtS5_(%"class.xercesc_2_7::DOMDocumentImpl"* %this1, %"class.xercesc_2_7::DOMNode"* %1, i16* %2, i16* %3), !dbg !4845
  ret %"class.xercesc_2_7::DOMNodeList"* %call, !dbg !4846
}

; Function Attrs: noinline uwtable
define dso_local %"class.xercesc_2_7::DOMNodeList"* @_ZN11xercesc_2_715DOMDocumentImpl15getDeepNodeListEPKNS_7DOMNodeEPKtS5_(%"class.xercesc_2_7::DOMDocumentImpl"* %this, %"class.xercesc_2_7::DOMNode"* %rootNode, i16* %namespaceURI, i16* %localName) #3 align 2 !dbg !4847 {
entry:
  %this.addr = alloca %"class.xercesc_2_7::DOMDocumentImpl"*, align 8
  %rootNode.addr = alloca %"class.xercesc_2_7::DOMNode"*, align 8
  %namespaceURI.addr = alloca i16*, align 8
  %localName.addr = alloca i16*, align 8
  %retList = alloca %"class.xercesc_2_7::DOMDeepNodeListImpl"*, align 8
  %id = alloca i32, align 4
  store %"class.xercesc_2_7::DOMDocumentImpl"* %this, %"class.xercesc_2_7::DOMDocumentImpl"** %this.addr, align 8
  call void @llvm.dbg.declare(metadata %"class.xercesc_2_7::DOMDocumentImpl"** %this.addr, metadata !4848, metadata !DIExpression()), !dbg !4849
  store %"class.xercesc_2_7::DOMNode"* %rootNode, %"class.xercesc_2_7::DOMNode"** %rootNode.addr, align 8
  call void @llvm.dbg.declare(metadata %"class.xercesc_2_7::DOMNode"** %rootNode.addr, metadata !4850, metadata !DIExpression()), !dbg !4851
  store i16* %namespaceURI, i16** %namespaceURI.addr, align 8
  call void @llvm.dbg.declare(metadata i16** %namespaceURI.addr, metadata !4852, metadata !DIExpression()), !dbg !4853
  store i16* %localName, i16** %localName.addr, align 8
  call void @llvm.dbg.declare(metadata i16** %localName.addr, metadata !4854, metadata !DIExpression()), !dbg !4855
  %this1 = load %"class.xercesc_2_7::DOMDocumentImpl"*, %"class.xercesc_2_7::DOMDocumentImpl"** %this.addr, align 8
  %fNodeListPool = getelementptr inbounds %"class.xercesc_2_7::DOMDocumentImpl", %"class.xercesc_2_7::DOMDocumentImpl"* %this1, i32 0, i32 18, !dbg !4856
  %0 = load %"class.xercesc_2_7::DOMDeepNodeListPool"*, %"class.xercesc_2_7::DOMDeepNodeListPool"** %fNodeListPool, align 8, !dbg !4856
  %tobool = icmp ne %"class.xercesc_2_7::DOMDeepNodeListPool"* %0, null, !dbg !4856
  br i1 %tobool, label %if.end, label %if.then, !dbg !4858

if.then:                                          ; preds = %entry
  %1 = bitcast %"class.xercesc_2_7::DOMDocumentImpl"* %this1 to %"class.xercesc_2_7::DOMDocument"*, !dbg !4859
  %call = call i8* @_ZnwmPN11xercesc_2_711DOMDocumentE(i64 64, %"class.xercesc_2_7::DOMDocument"* %1), !dbg !4861
  %2 = bitcast i8* %call to %"class.xercesc_2_7::DOMDeepNodeListPool"*, !dbg !4861
  call void @_ZN11xercesc_2_719DOMDeepNodeListPoolINS_19DOMDeepNodeListImplEEC2Embm(%"class.xercesc_2_7::DOMDeepNodeListPool"* %2, i64 109, i1 zeroext false, i64 128), !dbg !4862
  %fNodeListPool2 = getelementptr inbounds %"class.xercesc_2_7::DOMDocumentImpl", %"class.xercesc_2_7::DOMDocumentImpl"* %this1, i32 0, i32 18, !dbg !4863
  store %"class.xercesc_2_7::DOMDeepNodeListPool"* %2, %"class.xercesc_2_7::DOMDeepNodeListPool"** %fNodeListPool2, align 8, !dbg !4864
  br label %if.end, !dbg !4865

if.end:                                           ; preds = %if.then, %entry
  call void @llvm.dbg.declare(metadata %"class.xercesc_2_7::DOMDeepNodeListImpl"** %retList, metadata !4866, metadata !DIExpression()), !dbg !4867
  %fNodeListPool3 = getelementptr inbounds %"class.xercesc_2_7::DOMDocumentImpl", %"class.xercesc_2_7::DOMDocumentImpl"* %this1, i32 0, i32 18, !dbg !4868
  %3 = load %"class.xercesc_2_7::DOMDeepNodeListPool"*, %"class.xercesc_2_7::DOMDeepNodeListPool"** %fNodeListPool3, align 8, !dbg !4868
  %4 = load %"class.xercesc_2_7::DOMNode"*, %"class.xercesc_2_7::DOMNode"** %rootNode.addr, align 8, !dbg !4869
  %5 = bitcast %"class.xercesc_2_7::DOMNode"* %4 to i8*, !dbg !4869
  %6 = load i16*, i16** %localName.addr, align 8, !dbg !4870
  %7 = load i16*, i16** %namespaceURI.addr, align 8, !dbg !4871
  %call4 = call %"class.xercesc_2_7::DOMDeepNodeListImpl"* @_ZN11xercesc_2_719DOMDeepNodeListPoolINS_19DOMDeepNodeListImplEE8getByKeyEPKvPKtS6_(%"class.xercesc_2_7::DOMDeepNodeListPool"* %3, i8* %5, i16* %6, i16* %7), !dbg !4872
  store %"class.xercesc_2_7::DOMDeepNodeListImpl"* %call4, %"class.xercesc_2_7::DOMDeepNodeListImpl"** %retList, align 8, !dbg !4867
  %8 = load %"class.xercesc_2_7::DOMDeepNodeListImpl"*, %"class.xercesc_2_7::DOMDeepNodeListImpl"** %retList, align 8, !dbg !4873
  %tobool5 = icmp ne %"class.xercesc_2_7::DOMDeepNodeListImpl"* %8, null, !dbg !4873
  br i1 %tobool5, label %if.end13, label %if.then6, !dbg !4875

if.then6:                                         ; preds = %if.end
  call void @llvm.dbg.declare(metadata i32* %id, metadata !4876, metadata !DIExpression()), !dbg !4878
  %fNodeListPool7 = getelementptr inbounds %"class.xercesc_2_7::DOMDocumentImpl", %"class.xercesc_2_7::DOMDocumentImpl"* %this1, i32 0, i32 18, !dbg !4879
  %9 = load %"class.xercesc_2_7::DOMDeepNodeListPool"*, %"class.xercesc_2_7::DOMDeepNodeListPool"** %fNodeListPool7, align 8, !dbg !4879
  %10 = load %"class.xercesc_2_7::DOMNode"*, %"class.xercesc_2_7::DOMNode"** %rootNode.addr, align 8, !dbg !4880
  %11 = bitcast %"class.xercesc_2_7::DOMNode"* %10 to i8*, !dbg !4880
  %12 = load i16*, i16** %localName.addr, align 8, !dbg !4881
  %13 = load i16*, i16** %namespaceURI.addr, align 8, !dbg !4882
  %14 = bitcast %"class.xercesc_2_7::DOMDocumentImpl"* %this1 to %"class.xercesc_2_7::DOMDocument"*, !dbg !4883
  %call8 = call i8* @_ZnwmPN11xercesc_2_711DOMDocumentE(i64 64, %"class.xercesc_2_7::DOMDocument"* %14), !dbg !4884
  %15 = bitcast i8* %call8 to %"class.xercesc_2_7::DOMDeepNodeListImpl"*, !dbg !4884
  %16 = load %"class.xercesc_2_7::DOMNode"*, %"class.xercesc_2_7::DOMNode"** %rootNode.addr, align 8, !dbg !4885
  %17 = load i16*, i16** %namespaceURI.addr, align 8, !dbg !4886
  %18 = load i16*, i16** %localName.addr, align 8, !dbg !4887
  call void @_ZN11xercesc_2_719DOMDeepNodeListImplC1EPKNS_7DOMNodeEPKtS5_(%"class.xercesc_2_7::DOMDeepNodeListImpl"* %15, %"class.xercesc_2_7::DOMNode"* %16, i16* %17, i16* %18), !dbg !4888
  %call9 = call i64 @_ZN11xercesc_2_719DOMDeepNodeListPoolINS_19DOMDeepNodeListImplEE3putEPvPtS4_PS1_(%"class.xercesc_2_7::DOMDeepNodeListPool"* %9, i8* %11, i16* %12, i16* %13, %"class.xercesc_2_7::DOMDeepNodeListImpl"* %15), !dbg !4889
  %conv = trunc i64 %call9 to i32, !dbg !4879
  store i32 %conv, i32* %id, align 4, !dbg !4878
  %fNodeListPool10 = getelementptr inbounds %"class.xercesc_2_7::DOMDocumentImpl", %"class.xercesc_2_7::DOMDocumentImpl"* %this1, i32 0, i32 18, !dbg !4890
  %19 = load %"class.xercesc_2_7::DOMDeepNodeListPool"*, %"class.xercesc_2_7::DOMDeepNodeListPool"** %fNodeListPool10, align 8, !dbg !4890
  %20 = load i32, i32* %id, align 4, !dbg !4891
  %conv11 = sext i32 %20 to i64, !dbg !4891
  %call12 = call %"class.xercesc_2_7::DOMDeepNodeListImpl"* @_ZN11xercesc_2_719DOMDeepNodeListPoolINS_19DOMDeepNodeListImplEE7getByIdEm(%"class.xercesc_2_7::DOMDeepNodeListPool"* %19, i64 %conv11), !dbg !4892
  store %"class.xercesc_2_7::DOMDeepNodeListImpl"* %call12, %"class.xercesc_2_7::DOMDeepNodeListImpl"** %retList, align 8, !dbg !4893
  br label %if.end13, !dbg !4894

if.end13:                                         ; preds = %if.then6, %if.end
  %21 = load %"class.xercesc_2_7::DOMDeepNodeListImpl"*, %"class.xercesc_2_7::DOMDeepNodeListImpl"** %retList, align 8, !dbg !4895
  %22 = bitcast %"class.xercesc_2_7::DOMDeepNodeListImpl"* %21 to %"class.xercesc_2_7::DOMNodeList"*, !dbg !4895
  ret %"class.xercesc_2_7::DOMNodeList"* %22, !dbg !4896
}

; Function Attrs: noinline uwtable
define dso_local %"class.xercesc_2_7::DOMElement"* @_ZNK11xercesc_2_715DOMDocumentImpl14getElementByIdEPKt(%"class.xercesc_2_7::DOMDocumentImpl"* %this, i16* %elementId) unnamed_addr #3 align 2 !dbg !4897 {
entry:
  %retval = alloca %"class.xercesc_2_7::DOMElement"*, align 8
  %this.addr = alloca %"class.xercesc_2_7::DOMDocumentImpl"*, align 8
  %elementId.addr = alloca i16*, align 8
  %theAttr = alloca %"class.xercesc_2_7::DOMAttr"*, align 8
  store %"class.xercesc_2_7::DOMDocumentImpl"* %this, %"class.xercesc_2_7::DOMDocumentImpl"** %this.addr, align 8
  call void @llvm.dbg.declare(metadata %"class.xercesc_2_7::DOMDocumentImpl"** %this.addr, metadata !4898, metadata !DIExpression()), !dbg !4899
  store i16* %elementId, i16** %elementId.addr, align 8
  call void @llvm.dbg.declare(metadata i16** %elementId.addr, metadata !4900, metadata !DIExpression()), !dbg !4901
  %this1 = load %"class.xercesc_2_7::DOMDocumentImpl"*, %"class.xercesc_2_7::DOMDocumentImpl"** %this.addr, align 8
  %fNodeIDMap = getelementptr inbounds %"class.xercesc_2_7::DOMDocumentImpl", %"class.xercesc_2_7::DOMDocumentImpl"* %this1, i32 0, i32 3, !dbg !4902
  %0 = load %"class.xercesc_2_7::DOMNodeIDMap"*, %"class.xercesc_2_7::DOMNodeIDMap"** %fNodeIDMap, align 8, !dbg !4902
  %cmp = icmp eq %"class.xercesc_2_7::DOMNodeIDMap"* %0, null, !dbg !4904
  br i1 %cmp, label %if.then, label %if.end, !dbg !4905

if.then:                                          ; preds = %entry
  store %"class.xercesc_2_7::DOMElement"* null, %"class.xercesc_2_7::DOMElement"** %retval, align 8, !dbg !4906
  br label %return, !dbg !4906

if.end:                                           ; preds = %entry
  call void @llvm.dbg.declare(metadata %"class.xercesc_2_7::DOMAttr"** %theAttr, metadata !4907, metadata !DIExpression()), !dbg !4908
  %fNodeIDMap2 = getelementptr inbounds %"class.xercesc_2_7::DOMDocumentImpl", %"class.xercesc_2_7::DOMDocumentImpl"* %this1, i32 0, i32 3, !dbg !4909
  %1 = load %"class.xercesc_2_7::DOMNodeIDMap"*, %"class.xercesc_2_7::DOMNodeIDMap"** %fNodeIDMap2, align 8, !dbg !4909
  %2 = load i16*, i16** %elementId.addr, align 8, !dbg !4910
  %call = call %"class.xercesc_2_7::DOMAttr"* @_ZN11xercesc_2_712DOMNodeIDMap4findEPKt(%"class.xercesc_2_7::DOMNodeIDMap"* %1, i16* %2), !dbg !4911
  store %"class.xercesc_2_7::DOMAttr"* %call, %"class.xercesc_2_7::DOMAttr"** %theAttr, align 8, !dbg !4908
  %3 = load %"class.xercesc_2_7::DOMAttr"*, %"class.xercesc_2_7::DOMAttr"** %theAttr, align 8, !dbg !4912
  %cmp3 = icmp eq %"class.xercesc_2_7::DOMAttr"* %3, null, !dbg !4914
  br i1 %cmp3, label %if.then4, label %if.end5, !dbg !4915

if.then4:                                         ; preds = %if.end
  store %"class.xercesc_2_7::DOMElement"* null, %"class.xercesc_2_7::DOMElement"** %retval, align 8, !dbg !4916
  br label %return, !dbg !4916

if.end5:                                          ; preds = %if.end
  %4 = load %"class.xercesc_2_7::DOMAttr"*, %"class.xercesc_2_7::DOMAttr"** %theAttr, align 8, !dbg !4917
  %5 = bitcast %"class.xercesc_2_7::DOMAttr"* %4 to %"class.xercesc_2_7::DOMElement"* (%"class.xercesc_2_7::DOMAttr"*)***, !dbg !4918
  %vtable = load %"class.xercesc_2_7::DOMElement"* (%"class.xercesc_2_7::DOMAttr"*)**, %"class.xercesc_2_7::DOMElement"* (%"class.xercesc_2_7::DOMAttr"*)*** %5, align 8, !dbg !4918
  %vfn = getelementptr inbounds %"class.xercesc_2_7::DOMElement"* (%"class.xercesc_2_7::DOMAttr"*)*, %"class.xercesc_2_7::DOMElement"* (%"class.xercesc_2_7::DOMAttr"*)** %vtable, i64 44, !dbg !4918
  %6 = load %"class.xercesc_2_7::DOMElement"* (%"class.xercesc_2_7::DOMAttr"*)*, %"class.xercesc_2_7::DOMElement"* (%"class.xercesc_2_7::DOMAttr"*)** %vfn, align 8, !dbg !4918
  %call6 = call %"class.xercesc_2_7::DOMElement"* %6(%"class.xercesc_2_7::DOMAttr"* %4), !dbg !4918
  store %"class.xercesc_2_7::DOMElement"* %call6, %"class.xercesc_2_7::DOMElement"** %retval, align 8, !dbg !4919
  br label %return, !dbg !4919

return:                                           ; preds = %if.end5, %if.then4, %if.then
  %7 = load %"class.xercesc_2_7::DOMElement"*, %"class.xercesc_2_7::DOMElement"** %retval, align 8, !dbg !4920
  ret %"class.xercesc_2_7::DOMElement"* %7, !dbg !4920
}

declare dso_local %"class.xercesc_2_7::DOMAttr"* @_ZN11xercesc_2_712DOMNodeIDMap4findEPKt(%"class.xercesc_2_7::DOMNodeIDMap"*, i16*) #4

; Function Attrs: noinline uwtable
define dso_local i32 @_ZN11xercesc_2_715DOMDocumentImpl20indexofQualifiedNameEPKt(i16* %qName) #3 align 2 !dbg !4921 {
entry:
  %retval = alloca i32, align 4
  %qName.addr = alloca i16*, align 8
  %qNameLen = alloca i32, align 4
  %index = alloca i32, align 4
  %count = alloca i32, align 4
  %i = alloca i32, align 4
  store i16* %qName, i16** %qName.addr, align 8
  call void @llvm.dbg.declare(metadata i16** %qName.addr, metadata !4922, metadata !DIExpression()), !dbg !4923
  call void @llvm.dbg.declare(metadata i32* %qNameLen, metadata !4924, metadata !DIExpression()), !dbg !4925
  %0 = load i16*, i16** %qName.addr, align 8, !dbg !4926
  %call = call i32 @_ZN11xercesc_2_79XMLString9stringLenEPKt(i16* %0), !dbg !4927
  store i32 %call, i32* %qNameLen, align 4, !dbg !4925
  call void @llvm.dbg.declare(metadata i32* %index, metadata !4928, metadata !DIExpression()), !dbg !4929
  store i32 -1, i32* %index, align 4, !dbg !4929
  call void @llvm.dbg.declare(metadata i32* %count, metadata !4930, metadata !DIExpression()), !dbg !4931
  store i32 0, i32* %count, align 4, !dbg !4931
  call void @llvm.dbg.declare(metadata i32* %i, metadata !4932, metadata !DIExpression()), !dbg !4934
  store i32 0, i32* %i, align 4, !dbg !4934
  br label %for.cond, !dbg !4935

for.cond:                                         ; preds = %for.inc, %entry
  %1 = load i32, i32* %i, align 4, !dbg !4936
  %2 = load i32, i32* %qNameLen, align 4, !dbg !4938
  %cmp = icmp slt i32 %1, %2, !dbg !4939
  br i1 %cmp, label %for.body, label %for.end, !dbg !4940

for.body:                                         ; preds = %for.cond
  %3 = load i16*, i16** %qName.addr, align 8, !dbg !4941
  %4 = load i32, i32* %i, align 4, !dbg !4944
  %idxprom = sext i32 %4 to i64, !dbg !4941
  %arrayidx = getelementptr inbounds i16, i16* %3, i64 %idxprom, !dbg !4941
  %5 = load i16, i16* %arrayidx, align 2, !dbg !4941
  %conv = zext i16 %5 to i32, !dbg !4941
  %cmp1 = icmp eq i32 %conv, 58, !dbg !4945
  br i1 %cmp1, label %if.then, label %if.end, !dbg !4946

if.then:                                          ; preds = %for.body
  %6 = load i32, i32* %i, align 4, !dbg !4947
  store i32 %6, i32* %index, align 4, !dbg !4949
  %7 = load i32, i32* %count, align 4, !dbg !4950
  %inc = add nsw i32 %7, 1, !dbg !4950
  store i32 %inc, i32* %count, align 4, !dbg !4950
  br label %if.end, !dbg !4951

if.end:                                           ; preds = %if.then, %for.body
  br label %for.inc, !dbg !4952

for.inc:                                          ; preds = %if.end
  %8 = load i32, i32* %i, align 4, !dbg !4953
  %inc2 = add nsw i32 %8, 1, !dbg !4953
  store i32 %inc2, i32* %i, align 4, !dbg !4953
  br label %for.cond, !dbg !4954, !llvm.loop !4955

for.end:                                          ; preds = %for.cond
  %9 = load i32, i32* %qNameLen, align 4, !dbg !4957
  %cmp3 = icmp eq i32 %9, 0, !dbg !4959
  br i1 %cmp3, label %if.then9, label %lor.lhs.false, !dbg !4960

lor.lhs.false:                                    ; preds = %for.end
  %10 = load i32, i32* %count, align 4, !dbg !4961
  %cmp4 = icmp sgt i32 %10, 1, !dbg !4962
  br i1 %cmp4, label %if.then9, label %lor.lhs.false5, !dbg !4963

lor.lhs.false5:                                   ; preds = %lor.lhs.false
  %11 = load i32, i32* %index, align 4, !dbg !4964
  %cmp6 = icmp eq i32 %11, 0, !dbg !4965
  br i1 %cmp6, label %if.then9, label %lor.lhs.false7, !dbg !4966

lor.lhs.false7:                                   ; preds = %lor.lhs.false5
  %12 = load i32, i32* %index, align 4, !dbg !4967
  %13 = load i32, i32* %qNameLen, align 4, !dbg !4968
  %sub = sub nsw i32 %13, 1, !dbg !4969
  %cmp8 = icmp eq i32 %12, %sub, !dbg !4970
  br i1 %cmp8, label %if.then9, label %if.end10, !dbg !4971

if.then9:                                         ; preds = %lor.lhs.false7, %lor.lhs.false5, %lor.lhs.false, %for.end
  store i32 -1, i32* %retval, align 4, !dbg !4972
  br label %return, !dbg !4972

if.end10:                                         ; preds = %lor.lhs.false7
  %14 = load i32, i32* %count, align 4, !dbg !4973
  %cmp11 = icmp eq i32 %14, 0, !dbg !4974
  br i1 %cmp11, label %cond.true, label %cond.false, !dbg !4973

cond.true:                                        ; preds = %if.end10
  br label %cond.end, !dbg !4973

cond.false:                                       ; preds = %if.end10
  %15 = load i32, i32* %index, align 4, !dbg !4975
  br label %cond.end, !dbg !4973

cond.end:                                         ; preds = %cond.false, %cond.true
  %cond = phi i32 [ 0, %cond.true ], [ %15, %cond.false ], !dbg !4973
  store i32 %cond, i32* %retval, align 4, !dbg !4976
  br label %return, !dbg !4976

return:                                           ; preds = %cond.end, %if.then9
  %16 = load i32, i32* %retval, align 4, !dbg !4977
  ret i32 %16, !dbg !4977
}

; Function Attrs: noinline nounwind uwtable
define dso_local i16* @_ZNK11xercesc_2_715DOMDocumentImpl10getBaseURIEv(%"class.xercesc_2_7::DOMDocumentImpl"* %this) unnamed_addr #1 align 2 !dbg !4978 {
entry:
  %this.addr = alloca %"class.xercesc_2_7::DOMDocumentImpl"*, align 8
  store %"class.xercesc_2_7::DOMDocumentImpl"* %this, %"class.xercesc_2_7::DOMDocumentImpl"** %this.addr, align 8
  call void @llvm.dbg.declare(metadata %"class.xercesc_2_7::DOMDocumentImpl"** %this.addr, metadata !4979, metadata !DIExpression()), !dbg !4980
  %this1 = load %"class.xercesc_2_7::DOMDocumentImpl"*, %"class.xercesc_2_7::DOMDocumentImpl"** %this.addr, align 8
  %fDocumentURI = getelementptr inbounds %"class.xercesc_2_7::DOMDocumentImpl", %"class.xercesc_2_7::DOMDocumentImpl"* %this1, i32 0, i32 9, !dbg !4981
  %0 = load i16*, i16** %fDocumentURI, align 8, !dbg !4981
  ret i16* %0, !dbg !4982
}

; Function Attrs: noinline uwtable
define dso_local i16* @_ZThn24_NK11xercesc_2_715DOMDocumentImpl10getBaseURIEv(%"class.xercesc_2_7::DOMDocumentImpl"* %this) unnamed_addr #3 align 2 !dbg !4983 {
entry:
  %this.addr = alloca %"class.xercesc_2_7::DOMDocumentImpl"*, align 8
  store %"class.xercesc_2_7::DOMDocumentImpl"* %this, %"class.xercesc_2_7::DOMDocumentImpl"** %this.addr, align 8
  %this1 = load %"class.xercesc_2_7::DOMDocumentImpl"*, %"class.xercesc_2_7::DOMDocumentImpl"** %this.addr, align 8, !dbg !4984
  %0 = bitcast %"class.xercesc_2_7::DOMDocumentImpl"* %this1 to i8*, !dbg !4984
  %1 = getelementptr inbounds i8, i8* %0, i64 -24, !dbg !4984
  %2 = bitcast i8* %1 to %"class.xercesc_2_7::DOMDocumentImpl"*, !dbg !4984
  %call = tail call i16* @_ZNK11xercesc_2_715DOMDocumentImpl10getBaseURIEv(%"class.xercesc_2_7::DOMDocumentImpl"* %2), !dbg !4984
  ret i16* %call, !dbg !4984
}

; Function Attrs: noinline uwtable
define dso_local %"class.xercesc_2_7::DOMRange"* @_ZN11xercesc_2_715DOMDocumentImpl11createRangeEv(%"class.xercesc_2_7::DOMDocumentImpl"* %this) unnamed_addr #3 align 2 personality i8* bitcast (i32 (...)* @__gxx_personality_v0 to i8*) !dbg !4985 {
entry:
  %this.addr = alloca %"class.xercesc_2_7::DOMDocumentImpl"*, align 8
  %range = alloca %"class.xercesc_2_7::DOMRangeImpl"*, align 8
  %exn.slot = alloca i8*
  %ehselector.slot = alloca i32
  store %"class.xercesc_2_7::DOMDocumentImpl"* %this, %"class.xercesc_2_7::DOMDocumentImpl"** %this.addr, align 8
  call void @llvm.dbg.declare(metadata %"class.xercesc_2_7::DOMDocumentImpl"** %this.addr, metadata !4986, metadata !DIExpression()), !dbg !4987
  %this1 = load %"class.xercesc_2_7::DOMDocumentImpl"*, %"class.xercesc_2_7::DOMDocumentImpl"** %this.addr, align 8
  call void @llvm.dbg.declare(metadata %"class.xercesc_2_7::DOMRangeImpl"** %range, metadata !4988, metadata !DIExpression()), !dbg !4989
  %0 = bitcast %"class.xercesc_2_7::DOMDocumentImpl"* %this1 to %"class.xercesc_2_7::DOMDocument"*, !dbg !4990
  %call = call i8* @_ZnwmPN11xercesc_2_711DOMDocumentE(i64 80, %"class.xercesc_2_7::DOMDocument"* %0), !dbg !4991
  %1 = bitcast i8* %call to %"class.xercesc_2_7::DOMRangeImpl"*, !dbg !4991
  %2 = bitcast %"class.xercesc_2_7::DOMDocumentImpl"* %this1 to %"class.xercesc_2_7::DOMDocument"*, !dbg !4992
  %fMemoryManager = getelementptr inbounds %"class.xercesc_2_7::DOMDocumentImpl", %"class.xercesc_2_7::DOMDocumentImpl"* %this1, i32 0, i32 25, !dbg !4993
  %3 = load %"class.xercesc_2_7::MemoryManager"*, %"class.xercesc_2_7::MemoryManager"** %fMemoryManager, align 8, !dbg !4993
  call void @_ZN11xercesc_2_712DOMRangeImplC1EPNS_11DOMDocumentEPNS_13MemoryManagerE(%"class.xercesc_2_7::DOMRangeImpl"* %1, %"class.xercesc_2_7::DOMDocument"* %2, %"class.xercesc_2_7::MemoryManager"* %3), !dbg !4994
  store %"class.xercesc_2_7::DOMRangeImpl"* %1, %"class.xercesc_2_7::DOMRangeImpl"** %range, align 8, !dbg !4989
  %fRanges = getelementptr inbounds %"class.xercesc_2_7::DOMDocumentImpl", %"class.xercesc_2_7::DOMDocumentImpl"* %this1, i32 0, i32 23, !dbg !4995
  %4 = load %"class.xercesc_2_7::RefVectorOf.5"*, %"class.xercesc_2_7::RefVectorOf.5"** %fRanges, align 8, !dbg !4995
  %cmp = icmp eq %"class.xercesc_2_7::RefVectorOf.5"* %4, null, !dbg !4997
  br i1 %cmp, label %if.then, label %if.end, !dbg !4998

if.then:                                          ; preds = %entry
  %fMemoryManager2 = getelementptr inbounds %"class.xercesc_2_7::DOMDocumentImpl", %"class.xercesc_2_7::DOMDocumentImpl"* %this1, i32 0, i32 25, !dbg !4999
  %5 = load %"class.xercesc_2_7::MemoryManager"*, %"class.xercesc_2_7::MemoryManager"** %fMemoryManager2, align 8, !dbg !4999
  %call3 = call i8* @_ZN11xercesc_2_77XMemorynwEmPNS_13MemoryManagerE(i64 40, %"class.xercesc_2_7::MemoryManager"* %5), !dbg !5001
  %6 = bitcast i8* %call3 to %"class.xercesc_2_7::RefVectorOf.5"*, !dbg !5001
  %fMemoryManager4 = getelementptr inbounds %"class.xercesc_2_7::DOMDocumentImpl", %"class.xercesc_2_7::DOMDocumentImpl"* %this1, i32 0, i32 25, !dbg !5002
  %7 = load %"class.xercesc_2_7::MemoryManager"*, %"class.xercesc_2_7::MemoryManager"** %fMemoryManager4, align 8, !dbg !5002
  invoke void @_ZN11xercesc_2_711RefVectorOfINS_12DOMRangeImplEEC2EjbPNS_13MemoryManagerE(%"class.xercesc_2_7::RefVectorOf.5"* %6, i32 1, i1 zeroext false, %"class.xercesc_2_7::MemoryManager"* %7)
          to label %invoke.cont unwind label %lpad, !dbg !5003

invoke.cont:                                      ; preds = %if.then
  %fRanges5 = getelementptr inbounds %"class.xercesc_2_7::DOMDocumentImpl", %"class.xercesc_2_7::DOMDocumentImpl"* %this1, i32 0, i32 23, !dbg !5004
  store %"class.xercesc_2_7::RefVectorOf.5"* %6, %"class.xercesc_2_7::RefVectorOf.5"** %fRanges5, align 8, !dbg !5005
  br label %if.end, !dbg !5006

lpad:                                             ; preds = %if.then
  %8 = landingpad { i8*, i32 }
          cleanup, !dbg !5007
  %9 = extractvalue { i8*, i32 } %8, 0, !dbg !5007
  store i8* %9, i8** %exn.slot, align 8, !dbg !5007
  %10 = extractvalue { i8*, i32 } %8, 1, !dbg !5007
  store i32 %10, i32* %ehselector.slot, align 4, !dbg !5007
  call void @_ZN11xercesc_2_77XMemorydlEPvPNS_13MemoryManagerE(i8* %call3, %"class.xercesc_2_7::MemoryManager"* %5) #10, !dbg !5001
  br label %eh.resume, !dbg !5001

if.end:                                           ; preds = %invoke.cont, %entry
  %fRanges6 = getelementptr inbounds %"class.xercesc_2_7::DOMDocumentImpl", %"class.xercesc_2_7::DOMDocumentImpl"* %this1, i32 0, i32 23, !dbg !5008
  %11 = load %"class.xercesc_2_7::RefVectorOf.5"*, %"class.xercesc_2_7::RefVectorOf.5"** %fRanges6, align 8, !dbg !5008
  %12 = bitcast %"class.xercesc_2_7::RefVectorOf.5"* %11 to %"class.xercesc_2_7::BaseRefVectorOf.6"*, !dbg !5009
  %13 = load %"class.xercesc_2_7::DOMRangeImpl"*, %"class.xercesc_2_7::DOMRangeImpl"** %range, align 8, !dbg !5010
  call void @_ZN11xercesc_2_715BaseRefVectorOfINS_12DOMRangeImplEE10addElementEPS1_(%"class.xercesc_2_7::BaseRefVectorOf.6"* %12, %"class.xercesc_2_7::DOMRangeImpl"* %13), !dbg !5009
  %14 = load %"class.xercesc_2_7::DOMRangeImpl"*, %"class.xercesc_2_7::DOMRangeImpl"** %range, align 8, !dbg !5011
  %15 = bitcast %"class.xercesc_2_7::DOMRangeImpl"* %14 to %"class.xercesc_2_7::DOMRange"*, !dbg !5011
  ret %"class.xercesc_2_7::DOMRange"* %15, !dbg !5012

eh.resume:                                        ; preds = %lpad
  %exn = load i8*, i8** %exn.slot, align 8, !dbg !5001
  %sel = load i32, i32* %ehselector.slot, align 4, !dbg !5001
  %lpad.val = insertvalue { i8*, i32 } undef, i8* %exn, 0, !dbg !5001
  %lpad.val7 = insertvalue { i8*, i32 } %lpad.val, i32 %sel, 1, !dbg !5001
  resume { i8*, i32 } %lpad.val7, !dbg !5001
}

declare dso_local void @_ZN11xercesc_2_712DOMRangeImplC1EPNS_11DOMDocumentEPNS_13MemoryManagerE(%"class.xercesc_2_7::DOMRangeImpl"*, %"class.xercesc_2_7::DOMDocument"*, %"class.xercesc_2_7::MemoryManager"*) unnamed_addr #4

; Function Attrs: noinline uwtable
define linkonce_odr dso_local void @_ZN11xercesc_2_711RefVectorOfINS_12DOMRangeImplEEC2EjbPNS_13MemoryManagerE(%"class.xercesc_2_7::RefVectorOf.5"* %this, i32 %maxElems, i1 zeroext %adoptElems, %"class.xercesc_2_7::MemoryManager"* %manager) unnamed_addr #3 comdat align 2 !dbg !5013 {
entry:
  %this.addr = alloca %"class.xercesc_2_7::RefVectorOf.5"*, align 8
  %maxElems.addr = alloca i32, align 4
  %adoptElems.addr = alloca i8, align 1
  %manager.addr = alloca %"class.xercesc_2_7::MemoryManager"*, align 8
  store %"class.xercesc_2_7::RefVectorOf.5"* %this, %"class.xercesc_2_7::RefVectorOf.5"** %this.addr, align 8
  call void @llvm.dbg.declare(metadata %"class.xercesc_2_7::RefVectorOf.5"** %this.addr, metadata !5014, metadata !DIExpression()), !dbg !5016
  store i32 %maxElems, i32* %maxElems.addr, align 4
  call void @llvm.dbg.declare(metadata i32* %maxElems.addr, metadata !5017, metadata !DIExpression()), !dbg !5018
  %frombool = zext i1 %adoptElems to i8
  store i8 %frombool, i8* %adoptElems.addr, align 1
  call void @llvm.dbg.declare(metadata i8* %adoptElems.addr, metadata !5019, metadata !DIExpression()), !dbg !5020
  store %"class.xercesc_2_7::MemoryManager"* %manager, %"class.xercesc_2_7::MemoryManager"** %manager.addr, align 8
  call void @llvm.dbg.declare(metadata %"class.xercesc_2_7::MemoryManager"** %manager.addr, metadata !5021, metadata !DIExpression()), !dbg !5022
  %this1 = load %"class.xercesc_2_7::RefVectorOf.5"*, %"class.xercesc_2_7::RefVectorOf.5"** %this.addr, align 8
  %0 = bitcast %"class.xercesc_2_7::RefVectorOf.5"* %this1 to %"class.xercesc_2_7::BaseRefVectorOf.6"*, !dbg !5023
  %1 = load i32, i32* %maxElems.addr, align 4, !dbg !5024
  %2 = load i8, i8* %adoptElems.addr, align 1, !dbg !5025
  %tobool = trunc i8 %2 to i1, !dbg !5025
  %3 = load %"class.xercesc_2_7::MemoryManager"*, %"class.xercesc_2_7::MemoryManager"** %manager.addr, align 8, !dbg !5026
  call void @_ZN11xercesc_2_715BaseRefVectorOfINS_12DOMRangeImplEEC2EjbPNS_13MemoryManagerE(%"class.xercesc_2_7::BaseRefVectorOf.6"* %0, i32 %1, i1 zeroext %tobool, %"class.xercesc_2_7::MemoryManager"* %3), !dbg !5027
  %4 = bitcast %"class.xercesc_2_7::RefVectorOf.5"* %this1 to i32 (...)***, !dbg !5023
  store i32 (...)** bitcast (i8** getelementptr inbounds ({ [9 x i8*] }, { [9 x i8*] }* @_ZTVN11xercesc_2_711RefVectorOfINS_12DOMRangeImplEEE, i32 0, inrange i32 0, i32 2) to i32 (...)**), i32 (...)*** %4, align 8, !dbg !5023
  ret void, !dbg !5028
}

; Function Attrs: noinline uwtable
define linkonce_odr dso_local void @_ZN11xercesc_2_715BaseRefVectorOfINS_12DOMRangeImplEE10addElementEPS1_(%"class.xercesc_2_7::BaseRefVectorOf.6"* %this, %"class.xercesc_2_7::DOMRangeImpl"* %toAdd) #3 comdat align 2 !dbg !5029 {
entry:
  %this.addr = alloca %"class.xercesc_2_7::BaseRefVectorOf.6"*, align 8
  %toAdd.addr = alloca %"class.xercesc_2_7::DOMRangeImpl"*, align 8
  store %"class.xercesc_2_7::BaseRefVectorOf.6"* %this, %"class.xercesc_2_7::BaseRefVectorOf.6"** %this.addr, align 8
  call void @llvm.dbg.declare(metadata %"class.xercesc_2_7::BaseRefVectorOf.6"** %this.addr, metadata !5030, metadata !DIExpression()), !dbg !5032
  store %"class.xercesc_2_7::DOMRangeImpl"* %toAdd, %"class.xercesc_2_7::DOMRangeImpl"** %toAdd.addr, align 8
  call void @llvm.dbg.declare(metadata %"class.xercesc_2_7::DOMRangeImpl"** %toAdd.addr, metadata !5033, metadata !DIExpression()), !dbg !5034
  %this1 = load %"class.xercesc_2_7::BaseRefVectorOf.6"*, %"class.xercesc_2_7::BaseRefVectorOf.6"** %this.addr, align 8
  call void @_ZN11xercesc_2_715BaseRefVectorOfINS_12DOMRangeImplEE19ensureExtraCapacityEj(%"class.xercesc_2_7::BaseRefVectorOf.6"* %this1, i32 1), !dbg !5035
  %0 = load %"class.xercesc_2_7::DOMRangeImpl"*, %"class.xercesc_2_7::DOMRangeImpl"** %toAdd.addr, align 8, !dbg !5036
  %fElemList = getelementptr inbounds %"class.xercesc_2_7::BaseRefVectorOf.6", %"class.xercesc_2_7::BaseRefVectorOf.6"* %this1, i32 0, i32 4, !dbg !5037
  %1 = load %"class.xercesc_2_7::DOMRangeImpl"**, %"class.xercesc_2_7::DOMRangeImpl"*** %fElemList, align 8, !dbg !5037
  %fCurCount = getelementptr inbounds %"class.xercesc_2_7::BaseRefVectorOf.6", %"class.xercesc_2_7::BaseRefVectorOf.6"* %this1, i32 0, i32 2, !dbg !5038
  %2 = load i32, i32* %fCurCount, align 4, !dbg !5038
  %idxprom = zext i32 %2 to i64, !dbg !5037
  %arrayidx = getelementptr inbounds %"class.xercesc_2_7::DOMRangeImpl"*, %"class.xercesc_2_7::DOMRangeImpl"** %1, i64 %idxprom, !dbg !5037
  store %"class.xercesc_2_7::DOMRangeImpl"* %0, %"class.xercesc_2_7::DOMRangeImpl"** %arrayidx, align 8, !dbg !5039
  %fCurCount2 = getelementptr inbounds %"class.xercesc_2_7::BaseRefVectorOf.6", %"class.xercesc_2_7::BaseRefVectorOf.6"* %this1, i32 0, i32 2, !dbg !5040
  %3 = load i32, i32* %fCurCount2, align 4, !dbg !5041
  %inc = add i32 %3, 1, !dbg !5041
  store i32 %inc, i32* %fCurCount2, align 4, !dbg !5041
  ret void, !dbg !5042
}

; Function Attrs: noinline nounwind uwtable
define dso_local %"class.xercesc_2_7::RefVectorOf.5"* @_ZNK11xercesc_2_715DOMDocumentImpl9getRangesEv(%"class.xercesc_2_7::DOMDocumentImpl"* %this) unnamed_addr #1 align 2 !dbg !5043 {
entry:
  %this.addr = alloca %"class.xercesc_2_7::DOMDocumentImpl"*, align 8
  store %"class.xercesc_2_7::DOMDocumentImpl"* %this, %"class.xercesc_2_7::DOMDocumentImpl"** %this.addr, align 8
  call void @llvm.dbg.declare(metadata %"class.xercesc_2_7::DOMDocumentImpl"** %this.addr, metadata !5044, metadata !DIExpression()), !dbg !5045
  %this1 = load %"class.xercesc_2_7::DOMDocumentImpl"*, %"class.xercesc_2_7::DOMDocumentImpl"** %this.addr, align 8
  %fRanges = getelementptr inbounds %"class.xercesc_2_7::DOMDocumentImpl", %"class.xercesc_2_7::DOMDocumentImpl"* %this1, i32 0, i32 23, !dbg !5046
  %0 = load %"class.xercesc_2_7::RefVectorOf.5"*, %"class.xercesc_2_7::RefVectorOf.5"** %fRanges, align 8, !dbg !5046
  ret %"class.xercesc_2_7::RefVectorOf.5"* %0, !dbg !5047
}

; Function Attrs: noinline uwtable
define dso_local void @_ZN11xercesc_2_715DOMDocumentImpl11removeRangeEPNS_12DOMRangeImplE(%"class.xercesc_2_7::DOMDocumentImpl"* %this, %"class.xercesc_2_7::DOMRangeImpl"* %range) unnamed_addr #3 align 2 !dbg !5048 {
entry:
  %this.addr = alloca %"class.xercesc_2_7::DOMDocumentImpl"*, align 8
  %range.addr = alloca %"class.xercesc_2_7::DOMRangeImpl"*, align 8
  %sz = alloca i64, align 8
  %i = alloca i64, align 8
  store %"class.xercesc_2_7::DOMDocumentImpl"* %this, %"class.xercesc_2_7::DOMDocumentImpl"** %this.addr, align 8
  call void @llvm.dbg.declare(metadata %"class.xercesc_2_7::DOMDocumentImpl"** %this.addr, metadata !5049, metadata !DIExpression()), !dbg !5050
  store %"class.xercesc_2_7::DOMRangeImpl"* %range, %"class.xercesc_2_7::DOMRangeImpl"** %range.addr, align 8
  call void @llvm.dbg.declare(metadata %"class.xercesc_2_7::DOMRangeImpl"** %range.addr, metadata !5051, metadata !DIExpression()), !dbg !5052
  %this1 = load %"class.xercesc_2_7::DOMDocumentImpl"*, %"class.xercesc_2_7::DOMDocumentImpl"** %this.addr, align 8
  %fRanges = getelementptr inbounds %"class.xercesc_2_7::DOMDocumentImpl", %"class.xercesc_2_7::DOMDocumentImpl"* %this1, i32 0, i32 23, !dbg !5053
  %0 = load %"class.xercesc_2_7::RefVectorOf.5"*, %"class.xercesc_2_7::RefVectorOf.5"** %fRanges, align 8, !dbg !5053
  %cmp = icmp ne %"class.xercesc_2_7::RefVectorOf.5"* %0, null, !dbg !5055
  br i1 %cmp, label %if.then, label %if.end14, !dbg !5056

if.then:                                          ; preds = %entry
  call void @llvm.dbg.declare(metadata i64* %sz, metadata !5057, metadata !DIExpression()), !dbg !5059
  %fRanges2 = getelementptr inbounds %"class.xercesc_2_7::DOMDocumentImpl", %"class.xercesc_2_7::DOMDocumentImpl"* %this1, i32 0, i32 23, !dbg !5060
  %1 = load %"class.xercesc_2_7::RefVectorOf.5"*, %"class.xercesc_2_7::RefVectorOf.5"** %fRanges2, align 8, !dbg !5060
  %2 = bitcast %"class.xercesc_2_7::RefVectorOf.5"* %1 to %"class.xercesc_2_7::BaseRefVectorOf.6"*, !dbg !5061
  %call = call i32 @_ZNK11xercesc_2_715BaseRefVectorOfINS_12DOMRangeImplEE4sizeEv(%"class.xercesc_2_7::BaseRefVectorOf.6"* %2), !dbg !5061
  %conv = zext i32 %call to i64, !dbg !5060
  store i64 %conv, i64* %sz, align 8, !dbg !5059
  %3 = load i64, i64* %sz, align 8, !dbg !5062
  %cmp3 = icmp ne i64 %3, 0, !dbg !5064
  br i1 %cmp3, label %if.then4, label %if.end13, !dbg !5065

if.then4:                                         ; preds = %if.then
  call void @llvm.dbg.declare(metadata i64* %i, metadata !5066, metadata !DIExpression()), !dbg !5069
  store i64 0, i64* %i, align 8, !dbg !5069
  br label %for.cond, !dbg !5070

for.cond:                                         ; preds = %for.inc, %if.then4
  %4 = load i64, i64* %i, align 8, !dbg !5071
  %5 = load i64, i64* %sz, align 8, !dbg !5073
  %cmp5 = icmp ult i64 %4, %5, !dbg !5074
  br i1 %cmp5, label %for.body, label %for.end, !dbg !5075

for.body:                                         ; preds = %for.cond
  %fRanges6 = getelementptr inbounds %"class.xercesc_2_7::DOMDocumentImpl", %"class.xercesc_2_7::DOMDocumentImpl"* %this1, i32 0, i32 23, !dbg !5076
  %6 = load %"class.xercesc_2_7::RefVectorOf.5"*, %"class.xercesc_2_7::RefVectorOf.5"** %fRanges6, align 8, !dbg !5076
  %7 = bitcast %"class.xercesc_2_7::RefVectorOf.5"* %6 to %"class.xercesc_2_7::BaseRefVectorOf.6"*, !dbg !5079
  %8 = load i64, i64* %i, align 8, !dbg !5080
  %conv7 = trunc i64 %8 to i32, !dbg !5080
  %call8 = call %"class.xercesc_2_7::DOMRangeImpl"* @_ZN11xercesc_2_715BaseRefVectorOfINS_12DOMRangeImplEE9elementAtEj(%"class.xercesc_2_7::BaseRefVectorOf.6"* %7, i32 %conv7), !dbg !5079
  %9 = load %"class.xercesc_2_7::DOMRangeImpl"*, %"class.xercesc_2_7::DOMRangeImpl"** %range.addr, align 8, !dbg !5081
  %cmp9 = icmp eq %"class.xercesc_2_7::DOMRangeImpl"* %call8, %9, !dbg !5082
  br i1 %cmp9, label %if.then10, label %if.end, !dbg !5083

if.then10:                                        ; preds = %for.body
  %fRanges11 = getelementptr inbounds %"class.xercesc_2_7::DOMDocumentImpl", %"class.xercesc_2_7::DOMDocumentImpl"* %this1, i32 0, i32 23, !dbg !5084
  %10 = load %"class.xercesc_2_7::RefVectorOf.5"*, %"class.xercesc_2_7::RefVectorOf.5"** %fRanges11, align 8, !dbg !5084
  %11 = bitcast %"class.xercesc_2_7::RefVectorOf.5"* %10 to %"class.xercesc_2_7::BaseRefVectorOf.6"*, !dbg !5086
  %12 = load i64, i64* %i, align 8, !dbg !5087
  %conv12 = trunc i64 %12 to i32, !dbg !5087
  %13 = bitcast %"class.xercesc_2_7::BaseRefVectorOf.6"* %11 to void (%"class.xercesc_2_7::BaseRefVectorOf.6"*, i32)***, !dbg !5086
  %vtable = load void (%"class.xercesc_2_7::BaseRefVectorOf.6"*, i32)**, void (%"class.xercesc_2_7::BaseRefVectorOf.6"*, i32)*** %13, align 8, !dbg !5086
  %vfn = getelementptr inbounds void (%"class.xercesc_2_7::BaseRefVectorOf.6"*, i32)*, void (%"class.xercesc_2_7::BaseRefVectorOf.6"*, i32)** %vtable, i64 4, !dbg !5086
  %14 = load void (%"class.xercesc_2_7::BaseRefVectorOf.6"*, i32)*, void (%"class.xercesc_2_7::BaseRefVectorOf.6"*, i32)** %vfn, align 8, !dbg !5086
  call void %14(%"class.xercesc_2_7::BaseRefVectorOf.6"* %11, i32 %conv12), !dbg !5086
  br label %for.end, !dbg !5088

if.end:                                           ; preds = %for.body
  br label %for.inc, !dbg !5089

for.inc:                                          ; preds = %if.end
  %15 = load i64, i64* %i, align 8, !dbg !5090
  %inc = add i64 %15, 1, !dbg !5090
  store i64 %inc, i64* %i, align 8, !dbg !5090
  br label %for.cond, !dbg !5091, !llvm.loop !5092

for.end:                                          ; preds = %if.then10, %for.cond
  br label %if.end13, !dbg !5094

if.end13:                                         ; preds = %for.end, %if.then
  br label %if.end14, !dbg !5095

if.end14:                                         ; preds = %if.end13, %entry
  ret void, !dbg !5096
}

; Function Attrs: noinline nounwind uwtable
define linkonce_odr dso_local i32 @_ZNK11xercesc_2_715BaseRefVectorOfINS_12DOMRangeImplEE4sizeEv(%"class.xercesc_2_7::BaseRefVectorOf.6"* %this) #1 comdat align 2 !dbg !5097 {
entry:
  %this.addr = alloca %"class.xercesc_2_7::BaseRefVectorOf.6"*, align 8
  store %"class.xercesc_2_7::BaseRefVectorOf.6"* %this, %"class.xercesc_2_7::BaseRefVectorOf.6"** %this.addr, align 8
  call void @llvm.dbg.declare(metadata %"class.xercesc_2_7::BaseRefVectorOf.6"** %this.addr, metadata !5098, metadata !DIExpression()), !dbg !5100
  %this1 = load %"class.xercesc_2_7::BaseRefVectorOf.6"*, %"class.xercesc_2_7::BaseRefVectorOf.6"** %this.addr, align 8
  %fCurCount = getelementptr inbounds %"class.xercesc_2_7::BaseRefVectorOf.6", %"class.xercesc_2_7::BaseRefVectorOf.6"* %this1, i32 0, i32 2, !dbg !5101
  %0 = load i32, i32* %fCurCount, align 4, !dbg !5101
  ret i32 %0, !dbg !5102
}

; Function Attrs: noinline uwtable
define linkonce_odr dso_local %"class.xercesc_2_7::DOMRangeImpl"* @_ZN11xercesc_2_715BaseRefVectorOfINS_12DOMRangeImplEE9elementAtEj(%"class.xercesc_2_7::BaseRefVectorOf.6"* %this, i32 %getAt) #3 comdat align 2 personality i8* bitcast (i32 (...)* @__gxx_personality_v0 to i8*) !dbg !5103 {
entry:
  %this.addr = alloca %"class.xercesc_2_7::BaseRefVectorOf.6"*, align 8
  %getAt.addr = alloca i32, align 4
  %exn.slot = alloca i8*
  %ehselector.slot = alloca i32
  store %"class.xercesc_2_7::BaseRefVectorOf.6"* %this, %"class.xercesc_2_7::BaseRefVectorOf.6"** %this.addr, align 8
  call void @llvm.dbg.declare(metadata %"class.xercesc_2_7::BaseRefVectorOf.6"** %this.addr, metadata !5104, metadata !DIExpression()), !dbg !5105
  store i32 %getAt, i32* %getAt.addr, align 4
  call void @llvm.dbg.declare(metadata i32* %getAt.addr, metadata !5106, metadata !DIExpression()), !dbg !5107
  %this1 = load %"class.xercesc_2_7::BaseRefVectorOf.6"*, %"class.xercesc_2_7::BaseRefVectorOf.6"** %this.addr, align 8
  %0 = load i32, i32* %getAt.addr, align 4, !dbg !5108
  %fCurCount = getelementptr inbounds %"class.xercesc_2_7::BaseRefVectorOf.6", %"class.xercesc_2_7::BaseRefVectorOf.6"* %this1, i32 0, i32 2, !dbg !5110
  %1 = load i32, i32* %fCurCount, align 4, !dbg !5110
  %cmp = icmp uge i32 %0, %1, !dbg !5111
  br i1 %cmp, label %if.then, label %if.end, !dbg !5112

if.then:                                          ; preds = %entry
  %exception = call i8* @__cxa_allocate_exception(i64 48) #10, !dbg !5113
  %2 = bitcast i8* %exception to %"class.xercesc_2_7::ArrayIndexOutOfBoundsException"*, !dbg !5113
  %fMemoryManager = getelementptr inbounds %"class.xercesc_2_7::BaseRefVectorOf.6", %"class.xercesc_2_7::BaseRefVectorOf.6"* %this1, i32 0, i32 5, !dbg !5113
  %3 = load %"class.xercesc_2_7::MemoryManager"*, %"class.xercesc_2_7::MemoryManager"** %fMemoryManager, align 8, !dbg !5113
  invoke void @_ZN11xercesc_2_730ArrayIndexOutOfBoundsExceptionC2EPKcjNS_10XMLExcepts5CodesEPNS_13MemoryManagerE(%"class.xercesc_2_7::ArrayIndexOutOfBoundsException"* %2, i8* getelementptr inbounds ([33 x i8], [33 x i8]* @.str.1, i64 0, i64 0), i32 249, i32 116, %"class.xercesc_2_7::MemoryManager"* %3)
          to label %invoke.cont unwind label %lpad, !dbg !5113

invoke.cont:                                      ; preds = %if.then
  call void @__cxa_throw(i8* %exception, i8* bitcast ({ i8*, i8*, i8* }* @_ZTIN11xercesc_2_730ArrayIndexOutOfBoundsExceptionE to i8*), i8* bitcast (void (%"class.xercesc_2_7::ArrayIndexOutOfBoundsException"*)* @_ZN11xercesc_2_730ArrayIndexOutOfBoundsExceptionD2Ev to i8*)) #12, !dbg !5113
  unreachable, !dbg !5113

lpad:                                             ; preds = %if.then
  %4 = landingpad { i8*, i32 }
          cleanup, !dbg !5114
  %5 = extractvalue { i8*, i32 } %4, 0, !dbg !5114
  store i8* %5, i8** %exn.slot, align 8, !dbg !5114
  %6 = extractvalue { i8*, i32 } %4, 1, !dbg !5114
  store i32 %6, i32* %ehselector.slot, align 4, !dbg !5114
  call void @__cxa_free_exception(i8* %exception) #10, !dbg !5113
  br label %eh.resume, !dbg !5113

if.end:                                           ; preds = %entry
  %fElemList = getelementptr inbounds %"class.xercesc_2_7::BaseRefVectorOf.6", %"class.xercesc_2_7::BaseRefVectorOf.6"* %this1, i32 0, i32 4, !dbg !5115
  %7 = load %"class.xercesc_2_7::DOMRangeImpl"**, %"class.xercesc_2_7::DOMRangeImpl"*** %fElemList, align 8, !dbg !5115
  %8 = load i32, i32* %getAt.addr, align 4, !dbg !5116
  %idxprom = zext i32 %8 to i64, !dbg !5115
  %arrayidx = getelementptr inbounds %"class.xercesc_2_7::DOMRangeImpl"*, %"class.xercesc_2_7::DOMRangeImpl"** %7, i64 %idxprom, !dbg !5115
  %9 = load %"class.xercesc_2_7::DOMRangeImpl"*, %"class.xercesc_2_7::DOMRangeImpl"** %arrayidx, align 8, !dbg !5115
  ret %"class.xercesc_2_7::DOMRangeImpl"* %9, !dbg !5117

eh.resume:                                        ; preds = %lpad
  %exn = load i8*, i8** %exn.slot, align 8, !dbg !5113
  %sel = load i32, i32* %ehselector.slot, align 4, !dbg !5113
  %lpad.val = insertvalue { i8*, i32 } undef, i8* %exn, 0, !dbg !5113
  %lpad.val2 = insertvalue { i8*, i32 } %lpad.val, i32 %sel, 1, !dbg !5113
  resume { i8*, i32 } %lpad.val2, !dbg !5113
}

; Function Attrs: noinline uwtable
define dso_local zeroext i1 @_ZN11xercesc_2_715DOMDocumentImpl7isKidOKEPNS_7DOMNodeES2_(%"class.xercesc_2_7::DOMNode"* %parent, %"class.xercesc_2_7::DOMNode"* %child) #3 align 2 !dbg !2713 {
entry:
  %parent.addr = alloca %"class.xercesc_2_7::DOMNode"*, align 8
  %child.addr = alloca %"class.xercesc_2_7::DOMNode"*, align 8
  %p = alloca i32, align 4
  %ch = alloca i32, align 4
  store %"class.xercesc_2_7::DOMNode"* %parent, %"class.xercesc_2_7::DOMNode"** %parent.addr, align 8
  call void @llvm.dbg.declare(metadata %"class.xercesc_2_7::DOMNode"** %parent.addr, metadata !5118, metadata !DIExpression()), !dbg !5119
  store %"class.xercesc_2_7::DOMNode"* %child, %"class.xercesc_2_7::DOMNode"** %child.addr, align 8
  call void @llvm.dbg.declare(metadata %"class.xercesc_2_7::DOMNode"** %child.addr, metadata !5120, metadata !DIExpression()), !dbg !5121
  %0 = load i32, i32* getelementptr inbounds ([14 x i32], [14 x i32]* @_ZZN11xercesc_2_715DOMDocumentImpl7isKidOKEPNS_7DOMNodeES2_E5kidOK, i64 0, i64 2), align 8, !dbg !5122
  %cmp = icmp eq i32 %0, 0, !dbg !5124
  br i1 %cmp, label %if.then, label %if.end, !dbg !5125

if.then:                                          ; preds = %entry
  store i32 1410, i32* getelementptr inbounds ([14 x i32], [14 x i32]* @_ZZN11xercesc_2_715DOMDocumentImpl7isKidOKEPNS_7DOMNodeES2_E5kidOK, i64 0, i64 9), align 4, !dbg !5126
  store i32 442, i32* getelementptr inbounds ([14 x i32], [14 x i32]* @_ZZN11xercesc_2_715DOMDocumentImpl7isKidOKEPNS_7DOMNodeES2_E5kidOK, i64 0, i64 1), align 4, !dbg !5128
  store i32 442, i32* getelementptr inbounds ([14 x i32], [14 x i32]* @_ZZN11xercesc_2_715DOMDocumentImpl7isKidOKEPNS_7DOMNodeES2_E5kidOK, i64 0, i64 5), align 4, !dbg !5129
  store i32 442, i32* getelementptr inbounds ([14 x i32], [14 x i32]* @_ZZN11xercesc_2_715DOMDocumentImpl7isKidOKEPNS_7DOMNodeES2_E5kidOK, i64 0, i64 6), align 8, !dbg !5130
  store i32 442, i32* getelementptr inbounds ([14 x i32], [14 x i32]* @_ZZN11xercesc_2_715DOMDocumentImpl7isKidOKEPNS_7DOMNodeES2_E5kidOK, i64 0, i64 11), align 4, !dbg !5131
  store i32 40, i32* getelementptr inbounds ([14 x i32], [14 x i32]* @_ZZN11xercesc_2_715DOMDocumentImpl7isKidOKEPNS_7DOMNodeES2_E5kidOK, i64 0, i64 2), align 8, !dbg !5132
  store i32 0, i32* getelementptr inbounds ([14 x i32], [14 x i32]* @_ZZN11xercesc_2_715DOMDocumentImpl7isKidOKEPNS_7DOMNodeES2_E5kidOK, i64 0, i64 12), align 16, !dbg !5133
  store i32 0, i32* getelementptr inbounds ([14 x i32], [14 x i32]* @_ZZN11xercesc_2_715DOMDocumentImpl7isKidOKEPNS_7DOMNodeES2_E5kidOK, i64 0, i64 4), align 16, !dbg !5134
  store i32 0, i32* getelementptr inbounds ([14 x i32], [14 x i32]* @_ZZN11xercesc_2_715DOMDocumentImpl7isKidOKEPNS_7DOMNodeES2_E5kidOK, i64 0, i64 3), align 4, !dbg !5135
  store i32 0, i32* getelementptr inbounds ([14 x i32], [14 x i32]* @_ZZN11xercesc_2_715DOMDocumentImpl7isKidOKEPNS_7DOMNodeES2_E5kidOK, i64 0, i64 8), align 16, !dbg !5136
  store i32 0, i32* getelementptr inbounds ([14 x i32], [14 x i32]* @_ZZN11xercesc_2_715DOMDocumentImpl7isKidOKEPNS_7DOMNodeES2_E5kidOK, i64 0, i64 7), align 4, !dbg !5137
  br label %if.end, !dbg !5138

if.end:                                           ; preds = %if.then, %entry
  call void @llvm.dbg.declare(metadata i32* %p, metadata !5139, metadata !DIExpression()), !dbg !5140
  %1 = load %"class.xercesc_2_7::DOMNode"*, %"class.xercesc_2_7::DOMNode"** %parent.addr, align 8, !dbg !5141
  %2 = bitcast %"class.xercesc_2_7::DOMNode"* %1 to i16 (%"class.xercesc_2_7::DOMNode"*)***, !dbg !5142
  %vtable = load i16 (%"class.xercesc_2_7::DOMNode"*)**, i16 (%"class.xercesc_2_7::DOMNode"*)*** %2, align 8, !dbg !5142
  %vfn = getelementptr inbounds i16 (%"class.xercesc_2_7::DOMNode"*)*, i16 (%"class.xercesc_2_7::DOMNode"*)** %vtable, i64 4, !dbg !5142
  %3 = load i16 (%"class.xercesc_2_7::DOMNode"*)*, i16 (%"class.xercesc_2_7::DOMNode"*)** %vfn, align 8, !dbg !5142
  %call = call signext i16 %3(%"class.xercesc_2_7::DOMNode"* %1), !dbg !5142
  %conv = sext i16 %call to i32, !dbg !5141
  store i32 %conv, i32* %p, align 4, !dbg !5140
  call void @llvm.dbg.declare(metadata i32* %ch, metadata !5143, metadata !DIExpression()), !dbg !5144
  %4 = load %"class.xercesc_2_7::DOMNode"*, %"class.xercesc_2_7::DOMNode"** %child.addr, align 8, !dbg !5145
  %5 = bitcast %"class.xercesc_2_7::DOMNode"* %4 to i16 (%"class.xercesc_2_7::DOMNode"*)***, !dbg !5146
  %vtable1 = load i16 (%"class.xercesc_2_7::DOMNode"*)**, i16 (%"class.xercesc_2_7::DOMNode"*)*** %5, align 8, !dbg !5146
  %vfn2 = getelementptr inbounds i16 (%"class.xercesc_2_7::DOMNode"*)*, i16 (%"class.xercesc_2_7::DOMNode"*)** %vtable1, i64 4, !dbg !5146
  %6 = load i16 (%"class.xercesc_2_7::DOMNode"*)*, i16 (%"class.xercesc_2_7::DOMNode"*)** %vfn2, align 8, !dbg !5146
  %call3 = call signext i16 %6(%"class.xercesc_2_7::DOMNode"* %4), !dbg !5146
  %conv4 = sext i16 %call3 to i32, !dbg !5145
  store i32 %conv4, i32* %ch, align 4, !dbg !5144
  %7 = load i32, i32* %p, align 4, !dbg !5147
  %idxprom = sext i32 %7 to i64, !dbg !5148
  %arrayidx = getelementptr inbounds [14 x i32], [14 x i32]* @_ZZN11xercesc_2_715DOMDocumentImpl7isKidOKEPNS_7DOMNodeES2_E5kidOK, i64 0, i64 %idxprom, !dbg !5148
  %8 = load i32, i32* %arrayidx, align 4, !dbg !5148
  %9 = load i32, i32* %ch, align 4, !dbg !5149
  %shl = shl i32 1, %9, !dbg !5150
  %and = and i32 %8, %shl, !dbg !5151
  %cmp5 = icmp ne i32 %and, 0, !dbg !5152
  ret i1 %cmp5, !dbg !5153
}

; Function Attrs: noinline nounwind uwtable
define dso_local void @_ZN11xercesc_2_715DOMDocumentImpl7changedEv(%"class.xercesc_2_7::DOMDocumentImpl"* %this) unnamed_addr #1 align 2 !dbg !5154 {
entry:
  %this.addr = alloca %"class.xercesc_2_7::DOMDocumentImpl"*, align 8
  store %"class.xercesc_2_7::DOMDocumentImpl"* %this, %"class.xercesc_2_7::DOMDocumentImpl"** %this.addr, align 8
  call void @llvm.dbg.declare(metadata %"class.xercesc_2_7::DOMDocumentImpl"** %this.addr, metadata !5155, metadata !DIExpression()), !dbg !5156
  %this1 = load %"class.xercesc_2_7::DOMDocumentImpl"*, %"class.xercesc_2_7::DOMDocumentImpl"** %this.addr, align 8
  %fChanges = getelementptr inbounds %"class.xercesc_2_7::DOMDocumentImpl", %"class.xercesc_2_7::DOMDocumentImpl"* %this1, i32 0, i32 26, !dbg !5157
  %0 = load i32, i32* %fChanges, align 8, !dbg !5158
  %inc = add nsw i32 %0, 1, !dbg !5158
  store i32 %inc, i32* %fChanges, align 8, !dbg !5158
  ret void, !dbg !5159
}

; Function Attrs: noinline nounwind uwtable
define dso_local i32 @_ZNK11xercesc_2_715DOMDocumentImpl7changesEv(%"class.xercesc_2_7::DOMDocumentImpl"* %this) unnamed_addr #1 align 2 !dbg !5160 {
entry:
  %this.addr = alloca %"class.xercesc_2_7::DOMDocumentImpl"*, align 8
  store %"class.xercesc_2_7::DOMDocumentImpl"* %this, %"class.xercesc_2_7::DOMDocumentImpl"** %this.addr, align 8
  call void @llvm.dbg.declare(metadata %"class.xercesc_2_7::DOMDocumentImpl"** %this.addr, metadata !5161, metadata !DIExpression()), !dbg !5162
  %this1 = load %"class.xercesc_2_7::DOMDocumentImpl"*, %"class.xercesc_2_7::DOMDocumentImpl"** %this.addr, align 8
  %fChanges = getelementptr inbounds %"class.xercesc_2_7::DOMDocumentImpl", %"class.xercesc_2_7::DOMDocumentImpl"* %this1, i32 0, i32 26, !dbg !5163
  %0 = load i32, i32* %fChanges, align 8, !dbg !5163
  ret i32 %0, !dbg !5164
}

; Function Attrs: noinline uwtable
define dso_local %"class.xercesc_2_7::DOMNode"* @_ZN11xercesc_2_715DOMDocumentImpl11appendChildEPNS_7DOMNodeE(%"class.xercesc_2_7::DOMDocumentImpl"* %this, %"class.xercesc_2_7::DOMNode"* %newChild) unnamed_addr #3 align 2 !dbg !5165 {
entry:
  %this.addr = alloca %"class.xercesc_2_7::DOMDocumentImpl"*, align 8
  %newChild.addr = alloca %"class.xercesc_2_7::DOMNode"*, align 8
  store %"class.xercesc_2_7::DOMDocumentImpl"* %this, %"class.xercesc_2_7::DOMDocumentImpl"** %this.addr, align 8
  call void @llvm.dbg.declare(metadata %"class.xercesc_2_7::DOMDocumentImpl"** %this.addr, metadata !5166, metadata !DIExpression()), !dbg !5167
  store %"class.xercesc_2_7::DOMNode"* %newChild, %"class.xercesc_2_7::DOMNode"** %newChild.addr, align 8
  call void @llvm.dbg.declare(metadata %"class.xercesc_2_7::DOMNode"** %newChild.addr, metadata !5168, metadata !DIExpression()), !dbg !5169
  %this1 = load %"class.xercesc_2_7::DOMDocumentImpl"*, %"class.xercesc_2_7::DOMDocumentImpl"** %this.addr, align 8
  %0 = load %"class.xercesc_2_7::DOMNode"*, %"class.xercesc_2_7::DOMNode"** %newChild.addr, align 8, !dbg !5170
  %1 = bitcast %"class.xercesc_2_7::DOMDocumentImpl"* %this1 to %"class.xercesc_2_7::DOMNode"* (%"class.xercesc_2_7::DOMDocumentImpl"*, %"class.xercesc_2_7::DOMNode"*, %"class.xercesc_2_7::DOMNode"*)***, !dbg !5171
  %vtable = load %"class.xercesc_2_7::DOMNode"* (%"class.xercesc_2_7::DOMDocumentImpl"*, %"class.xercesc_2_7::DOMNode"*, %"class.xercesc_2_7::DOMNode"*)**, %"class.xercesc_2_7::DOMNode"* (%"class.xercesc_2_7::DOMDocumentImpl"*, %"class.xercesc_2_7::DOMNode"*, %"class.xercesc_2_7::DOMNode"*)*** %1, align 8, !dbg !5171
  %vfn = getelementptr inbounds %"class.xercesc_2_7::DOMNode"* (%"class.xercesc_2_7::DOMDocumentImpl"*, %"class.xercesc_2_7::DOMNode"*, %"class.xercesc_2_7::DOMNode"*)*, %"class.xercesc_2_7::DOMNode"* (%"class.xercesc_2_7::DOMDocumentImpl"*, %"class.xercesc_2_7::DOMNode"*, %"class.xercesc_2_7::DOMNode"*)** %vtable, i64 58, !dbg !5171
  %2 = load %"class.xercesc_2_7::DOMNode"* (%"class.xercesc_2_7::DOMDocumentImpl"*, %"class.xercesc_2_7::DOMNode"*, %"class.xercesc_2_7::DOMNode"*)*, %"class.xercesc_2_7::DOMNode"* (%"class.xercesc_2_7::DOMDocumentImpl"*, %"class.xercesc_2_7::DOMNode"*, %"class.xercesc_2_7::DOMNode"*)** %vfn, align 8, !dbg !5171
  %call = call %"class.xercesc_2_7::DOMNode"* %2(%"class.xercesc_2_7::DOMDocumentImpl"* %this1, %"class.xercesc_2_7::DOMNode"* %0, %"class.xercesc_2_7::DOMNode"* null), !dbg !5171
  ret %"class.xercesc_2_7::DOMNode"* %call, !dbg !5172
}

; Function Attrs: noinline uwtable
define dso_local %"class.xercesc_2_7::DOMNode"* @_ZThn24_N11xercesc_2_715DOMDocumentImpl11appendChildEPNS_7DOMNodeE(%"class.xercesc_2_7::DOMDocumentImpl"* %this, %"class.xercesc_2_7::DOMNode"* %newChild) unnamed_addr #3 align 2 !dbg !5173 {
entry:
  %this.addr = alloca %"class.xercesc_2_7::DOMDocumentImpl"*, align 8
  %newChild.addr = alloca %"class.xercesc_2_7::DOMNode"*, align 8
  store %"class.xercesc_2_7::DOMDocumentImpl"* %this, %"class.xercesc_2_7::DOMDocumentImpl"** %this.addr, align 8
  store %"class.xercesc_2_7::DOMNode"* %newChild, %"class.xercesc_2_7::DOMNode"** %newChild.addr, align 8
  %this1 = load %"class.xercesc_2_7::DOMDocumentImpl"*, %"class.xercesc_2_7::DOMDocumentImpl"** %this.addr, align 8, !dbg !5174
  %0 = bitcast %"class.xercesc_2_7::DOMDocumentImpl"* %this1 to i8*, !dbg !5174
  %1 = getelementptr inbounds i8, i8* %0, i64 -24, !dbg !5174
  %2 = bitcast i8* %1 to %"class.xercesc_2_7::DOMDocumentImpl"*, !dbg !5174
  %3 = load %"class.xercesc_2_7::DOMNode"*, %"class.xercesc_2_7::DOMNode"** %newChild.addr, align 8, !dbg !5174
  %call = tail call %"class.xercesc_2_7::DOMNode"* @_ZN11xercesc_2_715DOMDocumentImpl11appendChildEPNS_7DOMNodeE(%"class.xercesc_2_7::DOMDocumentImpl"* %2, %"class.xercesc_2_7::DOMNode"* %3), !dbg !5174
  ret %"class.xercesc_2_7::DOMNode"* %call, !dbg !5174
}

; Function Attrs: noinline uwtable
define dso_local %"class.xercesc_2_7::DOMNamedNodeMap"* @_ZNK11xercesc_2_715DOMDocumentImpl13getAttributesEv(%"class.xercesc_2_7::DOMDocumentImpl"* %this) unnamed_addr #3 align 2 !dbg !5175 {
entry:
  %this.addr = alloca %"class.xercesc_2_7::DOMDocumentImpl"*, align 8
  store %"class.xercesc_2_7::DOMDocumentImpl"* %this, %"class.xercesc_2_7::DOMDocumentImpl"** %this.addr, align 8
  call void @llvm.dbg.declare(metadata %"class.xercesc_2_7::DOMDocumentImpl"** %this.addr, metadata !5176, metadata !DIExpression()), !dbg !5177
  %this1 = load %"class.xercesc_2_7::DOMDocumentImpl"*, %"class.xercesc_2_7::DOMDocumentImpl"** %this.addr, align 8
  %fNode = getelementptr inbounds %"class.xercesc_2_7::DOMDocumentImpl", %"class.xercesc_2_7::DOMDocumentImpl"* %this1, i32 0, i32 1, !dbg !5178
  %call = call %"class.xercesc_2_7::DOMNamedNodeMap"* @_ZNK11xercesc_2_711DOMNodeImpl13getAttributesEv(%"class.xercesc_2_7::DOMNodeImpl"* %fNode), !dbg !5179
  ret %"class.xercesc_2_7::DOMNamedNodeMap"* %call, !dbg !5180
}

declare dso_local %"class.xercesc_2_7::DOMNamedNodeMap"* @_ZNK11xercesc_2_711DOMNodeImpl13getAttributesEv(%"class.xercesc_2_7::DOMNodeImpl"*) #4

; Function Attrs: noinline uwtable
define dso_local %"class.xercesc_2_7::DOMNamedNodeMap"* @_ZThn24_NK11xercesc_2_715DOMDocumentImpl13getAttributesEv(%"class.xercesc_2_7::DOMDocumentImpl"* %this) unnamed_addr #3 align 2 !dbg !5181 {
entry:
  %this.addr = alloca %"class.xercesc_2_7::DOMDocumentImpl"*, align 8
  store %"class.xercesc_2_7::DOMDocumentImpl"* %this, %"class.xercesc_2_7::DOMDocumentImpl"** %this.addr, align 8
  %this1 = load %"class.xercesc_2_7::DOMDocumentImpl"*, %"class.xercesc_2_7::DOMDocumentImpl"** %this.addr, align 8, !dbg !5182
  %0 = bitcast %"class.xercesc_2_7::DOMDocumentImpl"* %this1 to i8*, !dbg !5182
  %1 = getelementptr inbounds i8, i8* %0, i64 -24, !dbg !5182
  %2 = bitcast i8* %1 to %"class.xercesc_2_7::DOMDocumentImpl"*, !dbg !5182
  %call = tail call %"class.xercesc_2_7::DOMNamedNodeMap"* @_ZNK11xercesc_2_715DOMDocumentImpl13getAttributesEv(%"class.xercesc_2_7::DOMDocumentImpl"* %2), !dbg !5182
  ret %"class.xercesc_2_7::DOMNamedNodeMap"* %call, !dbg !5182
}

; Function Attrs: noinline uwtable
define dso_local %"class.xercesc_2_7::DOMNodeList"* @_ZNK11xercesc_2_715DOMDocumentImpl13getChildNodesEv(%"class.xercesc_2_7::DOMDocumentImpl"* %this) unnamed_addr #3 align 2 !dbg !5183 {
entry:
  %this.addr = alloca %"class.xercesc_2_7::DOMDocumentImpl"*, align 8
  store %"class.xercesc_2_7::DOMDocumentImpl"* %this, %"class.xercesc_2_7::DOMDocumentImpl"** %this.addr, align 8
  call void @llvm.dbg.declare(metadata %"class.xercesc_2_7::DOMDocumentImpl"** %this.addr, metadata !5184, metadata !DIExpression()), !dbg !5185
  %this1 = load %"class.xercesc_2_7::DOMDocumentImpl"*, %"class.xercesc_2_7::DOMDocumentImpl"** %this.addr, align 8
  %fParent = getelementptr inbounds %"class.xercesc_2_7::DOMDocumentImpl", %"class.xercesc_2_7::DOMDocumentImpl"* %this1, i32 0, i32 2, !dbg !5186
  %call = call %"class.xercesc_2_7::DOMNodeList"* @_ZNK11xercesc_2_713DOMParentNode13getChildNodesEv(%"class.xercesc_2_7::DOMParentNode"* %fParent), !dbg !5187
  ret %"class.xercesc_2_7::DOMNodeList"* %call, !dbg !5188
}

declare dso_local %"class.xercesc_2_7::DOMNodeList"* @_ZNK11xercesc_2_713DOMParentNode13getChildNodesEv(%"class.xercesc_2_7::DOMParentNode"*) #4

; Function Attrs: noinline uwtable
define dso_local %"class.xercesc_2_7::DOMNodeList"* @_ZThn24_NK11xercesc_2_715DOMDocumentImpl13getChildNodesEv(%"class.xercesc_2_7::DOMDocumentImpl"* %this) unnamed_addr #3 align 2 !dbg !5189 {
entry:
  %this.addr = alloca %"class.xercesc_2_7::DOMDocumentImpl"*, align 8
  store %"class.xercesc_2_7::DOMDocumentImpl"* %this, %"class.xercesc_2_7::DOMDocumentImpl"** %this.addr, align 8
  %this1 = load %"class.xercesc_2_7::DOMDocumentImpl"*, %"class.xercesc_2_7::DOMDocumentImpl"** %this.addr, align 8, !dbg !5190
  %0 = bitcast %"class.xercesc_2_7::DOMDocumentImpl"* %this1 to i8*, !dbg !5190
  %1 = getelementptr inbounds i8, i8* %0, i64 -24, !dbg !5190
  %2 = bitcast i8* %1 to %"class.xercesc_2_7::DOMDocumentImpl"*, !dbg !5190
  %call = tail call %"class.xercesc_2_7::DOMNodeList"* @_ZNK11xercesc_2_715DOMDocumentImpl13getChildNodesEv(%"class.xercesc_2_7::DOMDocumentImpl"* %2), !dbg !5190
  ret %"class.xercesc_2_7::DOMNodeList"* %call, !dbg !5190
}

; Function Attrs: noinline uwtable
define dso_local %"class.xercesc_2_7::DOMNode"* @_ZNK11xercesc_2_715DOMDocumentImpl13getFirstChildEv(%"class.xercesc_2_7::DOMDocumentImpl"* %this) unnamed_addr #3 align 2 !dbg !5191 {
entry:
  %this.addr = alloca %"class.xercesc_2_7::DOMDocumentImpl"*, align 8
  store %"class.xercesc_2_7::DOMDocumentImpl"* %this, %"class.xercesc_2_7::DOMDocumentImpl"** %this.addr, align 8
  call void @llvm.dbg.declare(metadata %"class.xercesc_2_7::DOMDocumentImpl"** %this.addr, metadata !5192, metadata !DIExpression()), !dbg !5193
  %this1 = load %"class.xercesc_2_7::DOMDocumentImpl"*, %"class.xercesc_2_7::DOMDocumentImpl"** %this.addr, align 8
  %fParent = getelementptr inbounds %"class.xercesc_2_7::DOMDocumentImpl", %"class.xercesc_2_7::DOMDocumentImpl"* %this1, i32 0, i32 2, !dbg !5194
  %call = call %"class.xercesc_2_7::DOMNode"* @_ZNK11xercesc_2_713DOMParentNode13getFirstChildEv(%"class.xercesc_2_7::DOMParentNode"* %fParent), !dbg !5195
  ret %"class.xercesc_2_7::DOMNode"* %call, !dbg !5196
}

declare dso_local %"class.xercesc_2_7::DOMNode"* @_ZNK11xercesc_2_713DOMParentNode13getFirstChildEv(%"class.xercesc_2_7::DOMParentNode"*) #4

; Function Attrs: noinline uwtable
define dso_local %"class.xercesc_2_7::DOMNode"* @_ZThn24_NK11xercesc_2_715DOMDocumentImpl13getFirstChildEv(%"class.xercesc_2_7::DOMDocumentImpl"* %this) unnamed_addr #3 align 2 !dbg !5197 {
entry:
  %this.addr = alloca %"class.xercesc_2_7::DOMDocumentImpl"*, align 8
  store %"class.xercesc_2_7::DOMDocumentImpl"* %this, %"class.xercesc_2_7::DOMDocumentImpl"** %this.addr, align 8
  %this1 = load %"class.xercesc_2_7::DOMDocumentImpl"*, %"class.xercesc_2_7::DOMDocumentImpl"** %this.addr, align 8, !dbg !5198
  %0 = bitcast %"class.xercesc_2_7::DOMDocumentImpl"* %this1 to i8*, !dbg !5198
  %1 = getelementptr inbounds i8, i8* %0, i64 -24, !dbg !5198
  %2 = bitcast i8* %1 to %"class.xercesc_2_7::DOMDocumentImpl"*, !dbg !5198
  %call = tail call %"class.xercesc_2_7::DOMNode"* @_ZNK11xercesc_2_715DOMDocumentImpl13getFirstChildEv(%"class.xercesc_2_7::DOMDocumentImpl"* %2), !dbg !5198
  ret %"class.xercesc_2_7::DOMNode"* %call, !dbg !5198
}

; Function Attrs: noinline uwtable
define dso_local %"class.xercesc_2_7::DOMNode"* @_ZNK11xercesc_2_715DOMDocumentImpl12getLastChildEv(%"class.xercesc_2_7::DOMDocumentImpl"* %this) unnamed_addr #3 align 2 !dbg !5199 {
entry:
  %this.addr = alloca %"class.xercesc_2_7::DOMDocumentImpl"*, align 8
  store %"class.xercesc_2_7::DOMDocumentImpl"* %this, %"class.xercesc_2_7::DOMDocumentImpl"** %this.addr, align 8
  call void @llvm.dbg.declare(metadata %"class.xercesc_2_7::DOMDocumentImpl"** %this.addr, metadata !5200, metadata !DIExpression()), !dbg !5201
  %this1 = load %"class.xercesc_2_7::DOMDocumentImpl"*, %"class.xercesc_2_7::DOMDocumentImpl"** %this.addr, align 8
  %fParent = getelementptr inbounds %"class.xercesc_2_7::DOMDocumentImpl", %"class.xercesc_2_7::DOMDocumentImpl"* %this1, i32 0, i32 2, !dbg !5202
  %call = call %"class.xercesc_2_7::DOMNode"* @_ZNK11xercesc_2_713DOMParentNode12getLastChildEv(%"class.xercesc_2_7::DOMParentNode"* %fParent), !dbg !5203
  ret %"class.xercesc_2_7::DOMNode"* %call, !dbg !5204
}

declare dso_local %"class.xercesc_2_7::DOMNode"* @_ZNK11xercesc_2_713DOMParentNode12getLastChildEv(%"class.xercesc_2_7::DOMParentNode"*) #4

; Function Attrs: noinline uwtable
define dso_local %"class.xercesc_2_7::DOMNode"* @_ZThn24_NK11xercesc_2_715DOMDocumentImpl12getLastChildEv(%"class.xercesc_2_7::DOMDocumentImpl"* %this) unnamed_addr #3 align 2 !dbg !5205 {
entry:
  %this.addr = alloca %"class.xercesc_2_7::DOMDocumentImpl"*, align 8
  store %"class.xercesc_2_7::DOMDocumentImpl"* %this, %"class.xercesc_2_7::DOMDocumentImpl"** %this.addr, align 8
  %this1 = load %"class.xercesc_2_7::DOMDocumentImpl"*, %"class.xercesc_2_7::DOMDocumentImpl"** %this.addr, align 8, !dbg !5206
  %0 = bitcast %"class.xercesc_2_7::DOMDocumentImpl"* %this1 to i8*, !dbg !5206
  %1 = getelementptr inbounds i8, i8* %0, i64 -24, !dbg !5206
  %2 = bitcast i8* %1 to %"class.xercesc_2_7::DOMDocumentImpl"*, !dbg !5206
  %call = tail call %"class.xercesc_2_7::DOMNode"* @_ZNK11xercesc_2_715DOMDocumentImpl12getLastChildEv(%"class.xercesc_2_7::DOMDocumentImpl"* %2), !dbg !5206
  ret %"class.xercesc_2_7::DOMNode"* %call, !dbg !5206
}

; Function Attrs: noinline uwtable
define dso_local i16* @_ZNK11xercesc_2_715DOMDocumentImpl12getLocalNameEv(%"class.xercesc_2_7::DOMDocumentImpl"* %this) unnamed_addr #3 align 2 !dbg !5207 {
entry:
  %this.addr = alloca %"class.xercesc_2_7::DOMDocumentImpl"*, align 8
  store %"class.xercesc_2_7::DOMDocumentImpl"* %this, %"class.xercesc_2_7::DOMDocumentImpl"** %this.addr, align 8
  call void @llvm.dbg.declare(metadata %"class.xercesc_2_7::DOMDocumentImpl"** %this.addr, metadata !5208, metadata !DIExpression()), !dbg !5209
  %this1 = load %"class.xercesc_2_7::DOMDocumentImpl"*, %"class.xercesc_2_7::DOMDocumentImpl"** %this.addr, align 8
  %fNode = getelementptr inbounds %"class.xercesc_2_7::DOMDocumentImpl", %"class.xercesc_2_7::DOMDocumentImpl"* %this1, i32 0, i32 1, !dbg !5210
  %call = call i16* @_ZNK11xercesc_2_711DOMNodeImpl12getLocalNameEv(%"class.xercesc_2_7::DOMNodeImpl"* %fNode), !dbg !5211
  ret i16* %call, !dbg !5212
}

declare dso_local i16* @_ZNK11xercesc_2_711DOMNodeImpl12getLocalNameEv(%"class.xercesc_2_7::DOMNodeImpl"*) #4

; Function Attrs: noinline uwtable
define dso_local i16* @_ZThn24_NK11xercesc_2_715DOMDocumentImpl12getLocalNameEv(%"class.xercesc_2_7::DOMDocumentImpl"* %this) unnamed_addr #3 align 2 !dbg !5213 {
entry:
  %this.addr = alloca %"class.xercesc_2_7::DOMDocumentImpl"*, align 8
  store %"class.xercesc_2_7::DOMDocumentImpl"* %this, %"class.xercesc_2_7::DOMDocumentImpl"** %this.addr, align 8
  %this1 = load %"class.xercesc_2_7::DOMDocumentImpl"*, %"class.xercesc_2_7::DOMDocumentImpl"** %this.addr, align 8, !dbg !5214
  %0 = bitcast %"class.xercesc_2_7::DOMDocumentImpl"* %this1 to i8*, !dbg !5214
  %1 = getelementptr inbounds i8, i8* %0, i64 -24, !dbg !5214
  %2 = bitcast i8* %1 to %"class.xercesc_2_7::DOMDocumentImpl"*, !dbg !5214
  %call = tail call i16* @_ZNK11xercesc_2_715DOMDocumentImpl12getLocalNameEv(%"class.xercesc_2_7::DOMDocumentImpl"* %2), !dbg !5214
  ret i16* %call, !dbg !5214
}

; Function Attrs: noinline uwtable
define dso_local i16* @_ZNK11xercesc_2_715DOMDocumentImpl15getNamespaceURIEv(%"class.xercesc_2_7::DOMDocumentImpl"* %this) unnamed_addr #3 align 2 !dbg !5215 {
entry:
  %this.addr = alloca %"class.xercesc_2_7::DOMDocumentImpl"*, align 8
  store %"class.xercesc_2_7::DOMDocumentImpl"* %this, %"class.xercesc_2_7::DOMDocumentImpl"** %this.addr, align 8
  call void @llvm.dbg.declare(metadata %"class.xercesc_2_7::DOMDocumentImpl"** %this.addr, metadata !5216, metadata !DIExpression()), !dbg !5217
  %this1 = load %"class.xercesc_2_7::DOMDocumentImpl"*, %"class.xercesc_2_7::DOMDocumentImpl"** %this.addr, align 8
  %fNode = getelementptr inbounds %"class.xercesc_2_7::DOMDocumentImpl", %"class.xercesc_2_7::DOMDocumentImpl"* %this1, i32 0, i32 1, !dbg !5218
  %call = call i16* @_ZNK11xercesc_2_711DOMNodeImpl15getNamespaceURIEv(%"class.xercesc_2_7::DOMNodeImpl"* %fNode), !dbg !5219
  ret i16* %call, !dbg !5220
}

declare dso_local i16* @_ZNK11xercesc_2_711DOMNodeImpl15getNamespaceURIEv(%"class.xercesc_2_7::DOMNodeImpl"*) #4

; Function Attrs: noinline uwtable
define dso_local i16* @_ZThn24_NK11xercesc_2_715DOMDocumentImpl15getNamespaceURIEv(%"class.xercesc_2_7::DOMDocumentImpl"* %this) unnamed_addr #3 align 2 !dbg !5221 {
entry:
  %this.addr = alloca %"class.xercesc_2_7::DOMDocumentImpl"*, align 8
  store %"class.xercesc_2_7::DOMDocumentImpl"* %this, %"class.xercesc_2_7::DOMDocumentImpl"** %this.addr, align 8
  %this1 = load %"class.xercesc_2_7::DOMDocumentImpl"*, %"class.xercesc_2_7::DOMDocumentImpl"** %this.addr, align 8, !dbg !5222
  %0 = bitcast %"class.xercesc_2_7::DOMDocumentImpl"* %this1 to i8*, !dbg !5222
  %1 = getelementptr inbounds i8, i8* %0, i64 -24, !dbg !5222
  %2 = bitcast i8* %1 to %"class.xercesc_2_7::DOMDocumentImpl"*, !dbg !5222
  %call = tail call i16* @_ZNK11xercesc_2_715DOMDocumentImpl15getNamespaceURIEv(%"class.xercesc_2_7::DOMDocumentImpl"* %2), !dbg !5222
  ret i16* %call, !dbg !5222
}

; Function Attrs: noinline uwtable
define dso_local %"class.xercesc_2_7::DOMNode"* @_ZNK11xercesc_2_715DOMDocumentImpl14getNextSiblingEv(%"class.xercesc_2_7::DOMDocumentImpl"* %this) unnamed_addr #3 align 2 !dbg !5223 {
entry:
  %this.addr = alloca %"class.xercesc_2_7::DOMDocumentImpl"*, align 8
  store %"class.xercesc_2_7::DOMDocumentImpl"* %this, %"class.xercesc_2_7::DOMDocumentImpl"** %this.addr, align 8
  call void @llvm.dbg.declare(metadata %"class.xercesc_2_7::DOMDocumentImpl"** %this.addr, metadata !5224, metadata !DIExpression()), !dbg !5225
  %this1 = load %"class.xercesc_2_7::DOMDocumentImpl"*, %"class.xercesc_2_7::DOMDocumentImpl"** %this.addr, align 8
  %fNode = getelementptr inbounds %"class.xercesc_2_7::DOMDocumentImpl", %"class.xercesc_2_7::DOMDocumentImpl"* %this1, i32 0, i32 1, !dbg !5226
  %call = call %"class.xercesc_2_7::DOMNode"* @_ZNK11xercesc_2_711DOMNodeImpl14getNextSiblingEv(%"class.xercesc_2_7::DOMNodeImpl"* %fNode), !dbg !5227
  ret %"class.xercesc_2_7::DOMNode"* %call, !dbg !5228
}

declare dso_local %"class.xercesc_2_7::DOMNode"* @_ZNK11xercesc_2_711DOMNodeImpl14getNextSiblingEv(%"class.xercesc_2_7::DOMNodeImpl"*) #4

; Function Attrs: noinline uwtable
define dso_local %"class.xercesc_2_7::DOMNode"* @_ZThn24_NK11xercesc_2_715DOMDocumentImpl14getNextSiblingEv(%"class.xercesc_2_7::DOMDocumentImpl"* %this) unnamed_addr #3 align 2 !dbg !5229 {
entry:
  %this.addr = alloca %"class.xercesc_2_7::DOMDocumentImpl"*, align 8
  store %"class.xercesc_2_7::DOMDocumentImpl"* %this, %"class.xercesc_2_7::DOMDocumentImpl"** %this.addr, align 8
  %this1 = load %"class.xercesc_2_7::DOMDocumentImpl"*, %"class.xercesc_2_7::DOMDocumentImpl"** %this.addr, align 8, !dbg !5230
  %0 = bitcast %"class.xercesc_2_7::DOMDocumentImpl"* %this1 to i8*, !dbg !5230
  %1 = getelementptr inbounds i8, i8* %0, i64 -24, !dbg !5230
  %2 = bitcast i8* %1 to %"class.xercesc_2_7::DOMDocumentImpl"*, !dbg !5230
  %call = tail call %"class.xercesc_2_7::DOMNode"* @_ZNK11xercesc_2_715DOMDocumentImpl14getNextSiblingEv(%"class.xercesc_2_7::DOMDocumentImpl"* %2), !dbg !5230
  ret %"class.xercesc_2_7::DOMNode"* %call, !dbg !5230
}

; Function Attrs: noinline uwtable
define dso_local i16* @_ZNK11xercesc_2_715DOMDocumentImpl12getNodeValueEv(%"class.xercesc_2_7::DOMDocumentImpl"* %this) unnamed_addr #3 align 2 !dbg !5231 {
entry:
  %this.addr = alloca %"class.xercesc_2_7::DOMDocumentImpl"*, align 8
  store %"class.xercesc_2_7::DOMDocumentImpl"* %this, %"class.xercesc_2_7::DOMDocumentImpl"** %this.addr, align 8
  call void @llvm.dbg.declare(metadata %"class.xercesc_2_7::DOMDocumentImpl"** %this.addr, metadata !5232, metadata !DIExpression()), !dbg !5233
  %this1 = load %"class.xercesc_2_7::DOMDocumentImpl"*, %"class.xercesc_2_7::DOMDocumentImpl"** %this.addr, align 8
  %fNode = getelementptr inbounds %"class.xercesc_2_7::DOMDocumentImpl", %"class.xercesc_2_7::DOMDocumentImpl"* %this1, i32 0, i32 1, !dbg !5234
  %call = call i16* @_ZNK11xercesc_2_711DOMNodeImpl12getNodeValueEv(%"class.xercesc_2_7::DOMNodeImpl"* %fNode), !dbg !5235
  ret i16* %call, !dbg !5236
}

declare dso_local i16* @_ZNK11xercesc_2_711DOMNodeImpl12getNodeValueEv(%"class.xercesc_2_7::DOMNodeImpl"*) #4

; Function Attrs: noinline uwtable
define dso_local i16* @_ZThn24_NK11xercesc_2_715DOMDocumentImpl12getNodeValueEv(%"class.xercesc_2_7::DOMDocumentImpl"* %this) unnamed_addr #3 align 2 !dbg !5237 {
entry:
  %this.addr = alloca %"class.xercesc_2_7::DOMDocumentImpl"*, align 8
  store %"class.xercesc_2_7::DOMDocumentImpl"* %this, %"class.xercesc_2_7::DOMDocumentImpl"** %this.addr, align 8
  %this1 = load %"class.xercesc_2_7::DOMDocumentImpl"*, %"class.xercesc_2_7::DOMDocumentImpl"** %this.addr, align 8, !dbg !5238
  %0 = bitcast %"class.xercesc_2_7::DOMDocumentImpl"* %this1 to i8*, !dbg !5238
  %1 = getelementptr inbounds i8, i8* %0, i64 -24, !dbg !5238
  %2 = bitcast i8* %1 to %"class.xercesc_2_7::DOMDocumentImpl"*, !dbg !5238
  %call = tail call i16* @_ZNK11xercesc_2_715DOMDocumentImpl12getNodeValueEv(%"class.xercesc_2_7::DOMDocumentImpl"* %2), !dbg !5238
  ret i16* %call, !dbg !5238
}

; Function Attrs: noinline uwtable
define dso_local i16* @_ZNK11xercesc_2_715DOMDocumentImpl9getPrefixEv(%"class.xercesc_2_7::DOMDocumentImpl"* %this) unnamed_addr #3 align 2 !dbg !5239 {
entry:
  %this.addr = alloca %"class.xercesc_2_7::DOMDocumentImpl"*, align 8
  store %"class.xercesc_2_7::DOMDocumentImpl"* %this, %"class.xercesc_2_7::DOMDocumentImpl"** %this.addr, align 8
  call void @llvm.dbg.declare(metadata %"class.xercesc_2_7::DOMDocumentImpl"** %this.addr, metadata !5240, metadata !DIExpression()), !dbg !5241
  %this1 = load %"class.xercesc_2_7::DOMDocumentImpl"*, %"class.xercesc_2_7::DOMDocumentImpl"** %this.addr, align 8
  %fNode = getelementptr inbounds %"class.xercesc_2_7::DOMDocumentImpl", %"class.xercesc_2_7::DOMDocumentImpl"* %this1, i32 0, i32 1, !dbg !5242
  %call = call i16* @_ZNK11xercesc_2_711DOMNodeImpl9getPrefixEv(%"class.xercesc_2_7::DOMNodeImpl"* %fNode), !dbg !5243
  ret i16* %call, !dbg !5244
}

declare dso_local i16* @_ZNK11xercesc_2_711DOMNodeImpl9getPrefixEv(%"class.xercesc_2_7::DOMNodeImpl"*) #4

; Function Attrs: noinline uwtable
define dso_local i16* @_ZThn24_NK11xercesc_2_715DOMDocumentImpl9getPrefixEv(%"class.xercesc_2_7::DOMDocumentImpl"* %this) unnamed_addr #3 align 2 !dbg !5245 {
entry:
  %this.addr = alloca %"class.xercesc_2_7::DOMDocumentImpl"*, align 8
  store %"class.xercesc_2_7::DOMDocumentImpl"* %this, %"class.xercesc_2_7::DOMDocumentImpl"** %this.addr, align 8
  %this1 = load %"class.xercesc_2_7::DOMDocumentImpl"*, %"class.xercesc_2_7::DOMDocumentImpl"** %this.addr, align 8, !dbg !5246
  %0 = bitcast %"class.xercesc_2_7::DOMDocumentImpl"* %this1 to i8*, !dbg !5246
  %1 = getelementptr inbounds i8, i8* %0, i64 -24, !dbg !5246
  %2 = bitcast i8* %1 to %"class.xercesc_2_7::DOMDocumentImpl"*, !dbg !5246
  %call = tail call i16* @_ZNK11xercesc_2_715DOMDocumentImpl9getPrefixEv(%"class.xercesc_2_7::DOMDocumentImpl"* %2), !dbg !5246
  ret i16* %call, !dbg !5246
}

; Function Attrs: noinline uwtable
define dso_local %"class.xercesc_2_7::DOMNode"* @_ZNK11xercesc_2_715DOMDocumentImpl13getParentNodeEv(%"class.xercesc_2_7::DOMDocumentImpl"* %this) unnamed_addr #3 align 2 !dbg !5247 {
entry:
  %this.addr = alloca %"class.xercesc_2_7::DOMDocumentImpl"*, align 8
  store %"class.xercesc_2_7::DOMDocumentImpl"* %this, %"class.xercesc_2_7::DOMDocumentImpl"** %this.addr, align 8
  call void @llvm.dbg.declare(metadata %"class.xercesc_2_7::DOMDocumentImpl"** %this.addr, metadata !5248, metadata !DIExpression()), !dbg !5249
  %this1 = load %"class.xercesc_2_7::DOMDocumentImpl"*, %"class.xercesc_2_7::DOMDocumentImpl"** %this.addr, align 8
  %fNode = getelementptr inbounds %"class.xercesc_2_7::DOMDocumentImpl", %"class.xercesc_2_7::DOMDocumentImpl"* %this1, i32 0, i32 1, !dbg !5250
  %call = call %"class.xercesc_2_7::DOMNode"* @_ZNK11xercesc_2_711DOMNodeImpl13getParentNodeEv(%"class.xercesc_2_7::DOMNodeImpl"* %fNode), !dbg !5251
  ret %"class.xercesc_2_7::DOMNode"* %call, !dbg !5252
}

declare dso_local %"class.xercesc_2_7::DOMNode"* @_ZNK11xercesc_2_711DOMNodeImpl13getParentNodeEv(%"class.xercesc_2_7::DOMNodeImpl"*) #4

; Function Attrs: noinline uwtable
define dso_local %"class.xercesc_2_7::DOMNode"* @_ZThn24_NK11xercesc_2_715DOMDocumentImpl13getParentNodeEv(%"class.xercesc_2_7::DOMDocumentImpl"* %this) unnamed_addr #3 align 2 !dbg !5253 {
entry:
  %this.addr = alloca %"class.xercesc_2_7::DOMDocumentImpl"*, align 8
  store %"class.xercesc_2_7::DOMDocumentImpl"* %this, %"class.xercesc_2_7::DOMDocumentImpl"** %this.addr, align 8
  %this1 = load %"class.xercesc_2_7::DOMDocumentImpl"*, %"class.xercesc_2_7::DOMDocumentImpl"** %this.addr, align 8, !dbg !5254
  %0 = bitcast %"class.xercesc_2_7::DOMDocumentImpl"* %this1 to i8*, !dbg !5254
  %1 = getelementptr inbounds i8, i8* %0, i64 -24, !dbg !5254
  %2 = bitcast i8* %1 to %"class.xercesc_2_7::DOMDocumentImpl"*, !dbg !5254
  %call = tail call %"class.xercesc_2_7::DOMNode"* @_ZNK11xercesc_2_715DOMDocumentImpl13getParentNodeEv(%"class.xercesc_2_7::DOMDocumentImpl"* %2), !dbg !5254
  ret %"class.xercesc_2_7::DOMNode"* %call, !dbg !5254
}

; Function Attrs: noinline uwtable
define dso_local %"class.xercesc_2_7::DOMNode"* @_ZNK11xercesc_2_715DOMDocumentImpl18getPreviousSiblingEv(%"class.xercesc_2_7::DOMDocumentImpl"* %this) unnamed_addr #3 align 2 !dbg !5255 {
entry:
  %this.addr = alloca %"class.xercesc_2_7::DOMDocumentImpl"*, align 8
  store %"class.xercesc_2_7::DOMDocumentImpl"* %this, %"class.xercesc_2_7::DOMDocumentImpl"** %this.addr, align 8
  call void @llvm.dbg.declare(metadata %"class.xercesc_2_7::DOMDocumentImpl"** %this.addr, metadata !5256, metadata !DIExpression()), !dbg !5257
  %this1 = load %"class.xercesc_2_7::DOMDocumentImpl"*, %"class.xercesc_2_7::DOMDocumentImpl"** %this.addr, align 8
  %fNode = getelementptr inbounds %"class.xercesc_2_7::DOMDocumentImpl", %"class.xercesc_2_7::DOMDocumentImpl"* %this1, i32 0, i32 1, !dbg !5258
  %call = call %"class.xercesc_2_7::DOMNode"* @_ZNK11xercesc_2_711DOMNodeImpl18getPreviousSiblingEv(%"class.xercesc_2_7::DOMNodeImpl"* %fNode), !dbg !5259
  ret %"class.xercesc_2_7::DOMNode"* %call, !dbg !5260
}

declare dso_local %"class.xercesc_2_7::DOMNode"* @_ZNK11xercesc_2_711DOMNodeImpl18getPreviousSiblingEv(%"class.xercesc_2_7::DOMNodeImpl"*) #4

; Function Attrs: noinline uwtable
define dso_local %"class.xercesc_2_7::DOMNode"* @_ZThn24_NK11xercesc_2_715DOMDocumentImpl18getPreviousSiblingEv(%"class.xercesc_2_7::DOMDocumentImpl"* %this) unnamed_addr #3 align 2 !dbg !5261 {
entry:
  %this.addr = alloca %"class.xercesc_2_7::DOMDocumentImpl"*, align 8
  store %"class.xercesc_2_7::DOMDocumentImpl"* %this, %"class.xercesc_2_7::DOMDocumentImpl"** %this.addr, align 8
  %this1 = load %"class.xercesc_2_7::DOMDocumentImpl"*, %"class.xercesc_2_7::DOMDocumentImpl"** %this.addr, align 8, !dbg !5262
  %0 = bitcast %"class.xercesc_2_7::DOMDocumentImpl"* %this1 to i8*, !dbg !5262
  %1 = getelementptr inbounds i8, i8* %0, i64 -24, !dbg !5262
  %2 = bitcast i8* %1 to %"class.xercesc_2_7::DOMDocumentImpl"*, !dbg !5262
  %call = tail call %"class.xercesc_2_7::DOMNode"* @_ZNK11xercesc_2_715DOMDocumentImpl18getPreviousSiblingEv(%"class.xercesc_2_7::DOMDocumentImpl"* %2), !dbg !5262
  ret %"class.xercesc_2_7::DOMNode"* %call, !dbg !5262
}

; Function Attrs: noinline uwtable
define dso_local zeroext i1 @_ZNK11xercesc_2_715DOMDocumentImpl13hasChildNodesEv(%"class.xercesc_2_7::DOMDocumentImpl"* %this) unnamed_addr #3 align 2 !dbg !5263 {
entry:
  %this.addr = alloca %"class.xercesc_2_7::DOMDocumentImpl"*, align 8
  store %"class.xercesc_2_7::DOMDocumentImpl"* %this, %"class.xercesc_2_7::DOMDocumentImpl"** %this.addr, align 8
  call void @llvm.dbg.declare(metadata %"class.xercesc_2_7::DOMDocumentImpl"** %this.addr, metadata !5264, metadata !DIExpression()), !dbg !5265
  %this1 = load %"class.xercesc_2_7::DOMDocumentImpl"*, %"class.xercesc_2_7::DOMDocumentImpl"** %this.addr, align 8
  %fParent = getelementptr inbounds %"class.xercesc_2_7::DOMDocumentImpl", %"class.xercesc_2_7::DOMDocumentImpl"* %this1, i32 0, i32 2, !dbg !5266
  %call = call zeroext i1 @_ZNK11xercesc_2_713DOMParentNode13hasChildNodesEv(%"class.xercesc_2_7::DOMParentNode"* %fParent), !dbg !5267
  ret i1 %call, !dbg !5268
}

declare dso_local zeroext i1 @_ZNK11xercesc_2_713DOMParentNode13hasChildNodesEv(%"class.xercesc_2_7::DOMParentNode"*) #4

; Function Attrs: noinline uwtable
define dso_local zeroext i1 @_ZThn24_NK11xercesc_2_715DOMDocumentImpl13hasChildNodesEv(%"class.xercesc_2_7::DOMDocumentImpl"* %this) unnamed_addr #3 align 2 !dbg !5269 {
entry:
  %this.addr = alloca %"class.xercesc_2_7::DOMDocumentImpl"*, align 8
  store %"class.xercesc_2_7::DOMDocumentImpl"* %this, %"class.xercesc_2_7::DOMDocumentImpl"** %this.addr, align 8
  %this1 = load %"class.xercesc_2_7::DOMDocumentImpl"*, %"class.xercesc_2_7::DOMDocumentImpl"** %this.addr, align 8, !dbg !5270
  %0 = bitcast %"class.xercesc_2_7::DOMDocumentImpl"* %this1 to i8*, !dbg !5270
  %1 = getelementptr inbounds i8, i8* %0, i64 -24, !dbg !5270
  %2 = bitcast i8* %1 to %"class.xercesc_2_7::DOMDocumentImpl"*, !dbg !5270
  %call = tail call zeroext i1 @_ZNK11xercesc_2_715DOMDocumentImpl13hasChildNodesEv(%"class.xercesc_2_7::DOMDocumentImpl"* %2), !dbg !5270
  ret i1 %call, !dbg !5270
}

; Function Attrs: noinline uwtable
define dso_local void @_ZN11xercesc_2_715DOMDocumentImpl9normalizeEv(%"class.xercesc_2_7::DOMDocumentImpl"* %this) unnamed_addr #3 align 2 !dbg !5271 {
entry:
  %this.addr = alloca %"class.xercesc_2_7::DOMDocumentImpl"*, align 8
  store %"class.xercesc_2_7::DOMDocumentImpl"* %this, %"class.xercesc_2_7::DOMDocumentImpl"** %this.addr, align 8
  call void @llvm.dbg.declare(metadata %"class.xercesc_2_7::DOMDocumentImpl"** %this.addr, metadata !5272, metadata !DIExpression()), !dbg !5273
  %this1 = load %"class.xercesc_2_7::DOMDocumentImpl"*, %"class.xercesc_2_7::DOMDocumentImpl"** %this.addr, align 8
  %fParent = getelementptr inbounds %"class.xercesc_2_7::DOMDocumentImpl", %"class.xercesc_2_7::DOMDocumentImpl"* %this1, i32 0, i32 2, !dbg !5274
  call void @_ZN11xercesc_2_713DOMParentNode9normalizeEv(%"class.xercesc_2_7::DOMParentNode"* %fParent), !dbg !5275
  ret void, !dbg !5276
}

declare dso_local void @_ZN11xercesc_2_713DOMParentNode9normalizeEv(%"class.xercesc_2_7::DOMParentNode"*) #4

; Function Attrs: noinline uwtable
define dso_local void @_ZThn24_N11xercesc_2_715DOMDocumentImpl9normalizeEv(%"class.xercesc_2_7::DOMDocumentImpl"* %this) unnamed_addr #3 align 2 !dbg !5277 {
entry:
  %this.addr = alloca %"class.xercesc_2_7::DOMDocumentImpl"*, align 8
  store %"class.xercesc_2_7::DOMDocumentImpl"* %this, %"class.xercesc_2_7::DOMDocumentImpl"** %this.addr, align 8
  %this1 = load %"class.xercesc_2_7::DOMDocumentImpl"*, %"class.xercesc_2_7::DOMDocumentImpl"** %this.addr, align 8, !dbg !5278
  %0 = bitcast %"class.xercesc_2_7::DOMDocumentImpl"* %this1 to i8*, !dbg !5278
  %1 = getelementptr inbounds i8, i8* %0, i64 -24, !dbg !5278
  %2 = bitcast i8* %1 to %"class.xercesc_2_7::DOMDocumentImpl"*, !dbg !5278
  tail call void @_ZN11xercesc_2_715DOMDocumentImpl9normalizeEv(%"class.xercesc_2_7::DOMDocumentImpl"* %2), !dbg !5278
  ret void, !dbg !5278
}

; Function Attrs: noinline uwtable
define dso_local zeroext i1 @_ZNK11xercesc_2_715DOMDocumentImpl11isSupportedEPKtS2_(%"class.xercesc_2_7::DOMDocumentImpl"* %this, i16* %feature, i16* %version) unnamed_addr #3 align 2 !dbg !5279 {
entry:
  %this.addr = alloca %"class.xercesc_2_7::DOMDocumentImpl"*, align 8
  %feature.addr = alloca i16*, align 8
  %version.addr = alloca i16*, align 8
  store %"class.xercesc_2_7::DOMDocumentImpl"* %this, %"class.xercesc_2_7::DOMDocumentImpl"** %this.addr, align 8
  call void @llvm.dbg.declare(metadata %"class.xercesc_2_7::DOMDocumentImpl"** %this.addr, metadata !5280, metadata !DIExpression()), !dbg !5281
  store i16* %feature, i16** %feature.addr, align 8
  call void @llvm.dbg.declare(metadata i16** %feature.addr, metadata !5282, metadata !DIExpression()), !dbg !5283
  store i16* %version, i16** %version.addr, align 8
  call void @llvm.dbg.declare(metadata i16** %version.addr, metadata !5284, metadata !DIExpression()), !dbg !5285
  %this1 = load %"class.xercesc_2_7::DOMDocumentImpl"*, %"class.xercesc_2_7::DOMDocumentImpl"** %this.addr, align 8
  %fNode = getelementptr inbounds %"class.xercesc_2_7::DOMDocumentImpl", %"class.xercesc_2_7::DOMDocumentImpl"* %this1, i32 0, i32 1, !dbg !5286
  %0 = load i16*, i16** %feature.addr, align 8, !dbg !5287
  %1 = load i16*, i16** %version.addr, align 8, !dbg !5288
  %call = call zeroext i1 @_ZNK11xercesc_2_711DOMNodeImpl11isSupportedEPKtS2_(%"class.xercesc_2_7::DOMNodeImpl"* %fNode, i16* %0, i16* %1), !dbg !5289
  ret i1 %call, !dbg !5290
}

declare dso_local zeroext i1 @_ZNK11xercesc_2_711DOMNodeImpl11isSupportedEPKtS2_(%"class.xercesc_2_7::DOMNodeImpl"*, i16*, i16*) #4

; Function Attrs: noinline uwtable
