; ModuleID = 'XResultTreeFragAllocator.cpp'
source_filename = "XResultTreeFragAllocator.cpp"
target datalayout = "e-m:e-p270:32:32-p271:32:32-p272:64:64-i64:64-f80:128-n8:16:32:64-S128"
target triple = "x86_64-unknown-linux-gnu"

%"class.xalanc_1_10::XResultTreeFragAllocator" = type { %"class.xalanc_1_10::ReusableArenaAllocator" }
%"class.xalanc_1_10::ReusableArenaAllocator" = type <{ %"class.xalanc_1_10::ArenaAllocator", i8, [7 x i8] }>
%"class.xalanc_1_10::ArenaAllocator" = type { i32 (...)**, i16, %"class.xalanc_1_10::XalanList" }
%"class.xalanc_1_10::XalanList" = type { %"class.xercesc_2_7::MemoryManager"*, %"struct.xalanc_1_10::XalanList<xalanc_1_10::ReusableArenaBlock<xalanc_1_10::XResultTreeFrag, unsigned short> *>::Node"*, %"struct.xalanc_1_10::XalanList<xalanc_1_10::ReusableArenaBlock<xalanc_1_10::XResultTreeFrag, unsigned short> *>::Node"* }
%"struct.xalanc_1_10::XalanList<xalanc_1_10::ReusableArenaBlock<xalanc_1_10::XResultTreeFrag, unsigned short> *>::Node" = type { %"class.xalanc_1_10::ReusableArenaBlock"*, %"struct.xalanc_1_10::XalanList<xalanc_1_10::ReusableArenaBlock<xalanc_1_10::XResultTreeFrag, unsigned short> *>::Node"*, %"struct.xalanc_1_10::XalanList<xalanc_1_10::ReusableArenaBlock<xalanc_1_10::XResultTreeFrag, unsigned short> *>::Node"* }
%"class.xalanc_1_10::ReusableArenaBlock" = type <{ %"class.xalanc_1_10::ArenaBlockBase", i16, i16, [4 x i8] }>
%"class.xalanc_1_10::ArenaBlockBase" = type { %"class.xalanc_1_10::XalanAllocator", i16, i16, %"class.xalanc_1_10::XResultTreeFrag"* }
%"class.xalanc_1_10::XalanAllocator" = type { %"class.xercesc_2_7::MemoryManager"* }
%"class.xalanc_1_10::XResultTreeFrag" = type { %"class.xalanc_1_10::XObject", %"class.xalanc_1_10::XalanDocumentFragment"*, %"class.xalanc_1_10::XalanDOMString"*, %"class.xalanc_1_10::StylesheetExecutionContext"*, %"class.xalanc_1_10::XalanDOMString", double }
%"class.xalanc_1_10::XObject" = type { %"class.xalanc_1_10::XalanReferenceCountedObject.base", i32, %"class.xalanc_1_10::XObjectFactory"* }
%"class.xalanc_1_10::XalanReferenceCountedObject.base" = type <{ i32 (...)**, i32 }>
%"class.xalanc_1_10::XObjectFactory" = type opaque
%"class.xalanc_1_10::XalanDocumentFragment" = type opaque
%"class.xalanc_1_10::StylesheetExecutionContext" = type { %"class.xalanc_1_10::XPathExecutionContext" }
%"class.xalanc_1_10::XPathExecutionContext" = type { %"class.xalanc_1_10::ExecutionContext", %"class.xalanc_1_10::XObjectFactory"* }
%"class.xalanc_1_10::ExecutionContext" = type { i32 (...)**, %"class.xercesc_2_7::MemoryManager"* }
%"class.xalanc_1_10::XalanDOMString" = type <{ %"class.xalanc_1_10::XalanVector", i32, [4 x i8] }>
%"class.xalanc_1_10::XalanVector" = type { %"class.xercesc_2_7::MemoryManager"*, i64, i64, i16* }
%"class.xercesc_2_7::MemoryManager" = type { i32 (...)** }
%"struct.xalanc_1_10::XalanListIteratorBase" = type { %"struct.xalanc_1_10::XalanList<xalanc_1_10::ReusableArenaBlock<xalanc_1_10::XResultTreeFrag, unsigned short> *>::Node"* }
%"class.std::reverse_iterator.1" = type { %"struct.xalanc_1_10::XalanListIteratorBase" }
%"struct.xalanc_1_10::DeleteFunctor" = type { %"class.xercesc_2_7::MemoryManager"* }
%"struct.xalanc_1_10::XalanListIteratorBase.0" = type { %"struct.xalanc_1_10::XalanList<xalanc_1_10::ReusableArenaBlock<xalanc_1_10::XResultTreeFrag, unsigned short> *>::Node"* }
%"class.std::reverse_iterator" = type { %"struct.xalanc_1_10::XalanListIteratorBase.0" }
%"struct.xalanc_1_10::ReusableArenaBlock<xalanc_1_10::XResultTreeFrag, unsigned short>::NextBlock" = type { i16, i32 }
%"class.xalanc_1_10::XalanAllocationGuard" = type { %"class.xercesc_2_7::MemoryManager"*, i8* }
%"struct.xalanc_1_10::XalanCompileErrorBoolean" = type { [1 x i8] }
%"struct.std::iterator" = type { i8 }
%"struct.std::less" = type { i8 }
%"struct.std::iterator.2" = type { i8 }
%"struct.std::unary_function" = type { i8 }
%"struct.xalanc_1_10::XalanDestroyFunctor" = type { i8 }

$_ZN11xalanc_1_1022ReusableArenaAllocatorINS_15XResultTreeFragEEC2ERN11xercesc_2_713MemoryManagerEtb = comdat any

$_ZN11xalanc_1_1022ReusableArenaAllocatorINS_15XResultTreeFragEED2Ev = comdat any

$_ZN11xalanc_1_1022ReusableArenaAllocatorINS_15XResultTreeFragEE13allocateBlockEv = comdat any

$_ZN11xalanc_1_1014ArenaAllocatorINS_15XResultTreeFragENS_18ReusableArenaBlockIS1_tEEE16getMemoryManagerEv = comdat any

$_ZN11xalanc_1_1022ReusableArenaAllocatorINS_15XResultTreeFragEE16commitAllocationEPS1_ = comdat any

$_ZN11xalanc_1_1022ReusableArenaAllocatorINS_15XResultTreeFragEE13destroyObjectEPS1_ = comdat any

$_ZN11xalanc_1_1014ArenaAllocatorINS_15XResultTreeFragENS_18ReusableArenaBlockIS1_tEEE5resetEv = comdat any

$_ZN11xalanc_1_1014ArenaAllocatorINS_15XResultTreeFragENS_18ReusableArenaBlockIS1_tEEEC2ERN11xercesc_2_713MemoryManagerEt = comdat any

$_ZN11xalanc_1_1022ReusableArenaAllocatorINS_15XResultTreeFragEED0Ev = comdat any

$_ZNK11xalanc_1_1022ReusableArenaAllocatorINS_15XResultTreeFragEE10ownsObjectEPKS1_ = comdat any

$_ZN11xalanc_1_109XalanListIPNS_18ReusableArenaBlockINS_15XResultTreeFragEtEEEC2ERN11xercesc_2_713MemoryManagerE = comdat any

$_ZN11xalanc_1_1014ArenaAllocatorINS_15XResultTreeFragENS_18ReusableArenaBlockIS1_tEEED2Ev = comdat any

$_ZN11xalanc_1_1014ArenaAllocatorINS_15XResultTreeFragENS_18ReusableArenaBlockIS1_tEEED0Ev = comdat any

$_ZN11xalanc_1_1014ArenaAllocatorINS_15XResultTreeFragENS_18ReusableArenaBlockIS1_tEEE13allocateBlockEv = comdat any

$_ZN11xalanc_1_1014ArenaAllocatorINS_15XResultTreeFragENS_18ReusableArenaBlockIS1_tEEE16commitAllocationEPS1_ = comdat any

$_ZNK11xalanc_1_1014ArenaAllocatorINS_15XResultTreeFragENS_18ReusableArenaBlockIS1_tEEE10ownsObjectEPKS1_ = comdat any

$_ZN11xalanc_1_109XalanListIPNS_18ReusableArenaBlockINS_15XResultTreeFragEtEEED2Ev = comdat any

$__clang_call_terminate = comdat any

$_ZN11xalanc_1_109XalanListIPNS_18ReusableArenaBlockINS_15XResultTreeFragEtEEE5beginEv = comdat any

$_ZNK11xalanc_1_1021XalanListIteratorBaseINS_23XalanListIteratorTraitsIPNS_18ReusableArenaBlockINS_15XResultTreeFragEtEEEENS_9XalanListIS5_E4NodeEEneERKSA_ = comdat any

$_ZN11xalanc_1_109XalanListIPNS_18ReusableArenaBlockINS_15XResultTreeFragEtEEE3endEv = comdat any

$_ZN11xalanc_1_109XalanListIPNS_18ReusableArenaBlockINS_15XResultTreeFragEtEEE11destroyNodeERNS5_4NodeE = comdat any

$_ZN11xalanc_1_1021XalanListIteratorBaseINS_23XalanListIteratorTraitsIPNS_18ReusableArenaBlockINS_15XResultTreeFragEtEEEENS_9XalanListIS5_E4NodeEEppEi = comdat any

$_ZN11xalanc_1_1021XalanListIteratorBaseINS_23XalanListIteratorTraitsIPNS_18ReusableArenaBlockINS_15XResultTreeFragEtEEEENS_9XalanListIS5_E4NodeEE4nodeEv = comdat any

$_ZN11xalanc_1_109XalanListIPNS_18ReusableArenaBlockINS_15XResultTreeFragEtEEE10deallocateEPNS5_4NodeE = comdat any

$_ZN11xalanc_1_109XalanListIPNS_18ReusableArenaBlockINS_15XResultTreeFragEtEEE11getListHeadEv = comdat any

$_ZN11xalanc_1_1021XalanListIteratorBaseINS_23XalanListIteratorTraitsIPNS_18ReusableArenaBlockINS_15XResultTreeFragEtEEEENS_9XalanListIS5_E4NodeEEC2ERS9_ = comdat any

$_ZN11xalanc_1_109XalanListIPNS_18ReusableArenaBlockINS_15XResultTreeFragEtEEE8allocateEm = comdat any

$_ZNK11xalanc_1_1021XalanListIteratorBaseINS_23XalanListIteratorTraitsIPNS_18ReusableArenaBlockINS_15XResultTreeFragEtEEEENS_9XalanListIS5_E4NodeEEeqERKSA_ = comdat any

$_ZNK11xalanc_1_109XalanListIPNS_18ReusableArenaBlockINS_15XResultTreeFragEtEEE5emptyEv = comdat any

$_ZN11xalanc_1_109XalanListIPNS_18ReusableArenaBlockINS_15XResultTreeFragEtEEE4backEv = comdat any

$_ZNK11xalanc_1_1014ArenaBlockBaseINS_15XResultTreeFragEtE14blockAvailableEv = comdat any

$_ZN11xalanc_1_109XalanListIPNS_18ReusableArenaBlockINS_15XResultTreeFragEtEEE9push_backERKS4_ = comdat any

$_ZN11xalanc_1_1018ReusableArenaBlockINS_15XResultTreeFragEtE6createERN11xercesc_2_713MemoryManagerEt = comdat any

$_ZN11xalanc_1_1018ReusableArenaBlockINS_15XResultTreeFragEtE13allocateBlockEv = comdat any

$_ZNK11xalanc_1_109XalanListIPNS_18ReusableArenaBlockINS_15XResultTreeFragEtEEE5beginEv = comdat any

$_ZNK11xalanc_1_1021XalanListIteratorBaseINS_28XalanListConstIteratorTraitsIPNS_18ReusableArenaBlockINS_15XResultTreeFragEtEEEENS_9XalanListIS5_E4NodeEEeqERKSA_ = comdat any

$_ZNK11xalanc_1_109XalanListIPNS_18ReusableArenaBlockINS_15XResultTreeFragEtEEE3endEv = comdat any

$_ZNK11xalanc_1_109XalanListIPNS_18ReusableArenaBlockINS_15XResultTreeFragEtEEE11getListHeadEv = comdat any

$_ZN11xalanc_1_1021XalanListIteratorBaseINS_28XalanListConstIteratorTraitsIPNS_18ReusableArenaBlockINS_15XResultTreeFragEtEEEENS_9XalanListIS5_E4NodeEEC2ERS9_ = comdat any

$_ZN11xalanc_1_1021XalanListIteratorBaseINS_23XalanListIteratorTraitsIPNS_18ReusableArenaBlockINS_15XResultTreeFragEtEEEENS_9XalanListIS5_E4NodeEEmmEv = comdat any

$_ZNK11xalanc_1_1021XalanListIteratorBaseINS_23XalanListIteratorTraitsIPNS_18ReusableArenaBlockINS_15XResultTreeFragEtEEEENS_9XalanListIS5_E4NodeEEdeEv = comdat any

$_ZN11xalanc_1_1021XalanListIteratorBaseINS_23XalanListIteratorTraitsIPNS_18ReusableArenaBlockINS_15XResultTreeFragEtEEEENS_9XalanListIS5_E4NodeEEC2ERKSA_ = comdat any

$_ZN11xalanc_1_109XalanListIPNS_18ReusableArenaBlockINS_15XResultTreeFragEtEEE13constructNodeERKS4_NS_21XalanListIteratorBaseINS_23XalanListIteratorTraitsIS4_EENS5_4NodeEEE = comdat any

$_ZN11xalanc_1_1028ConstructWithNoMemoryManagerIPNS_18ReusableArenaBlockINS_15XResultTreeFragEtEEE9constructEPS4_RKS4_RN11xercesc_2_713MemoryManagerE = comdat any

$_ZN11xalanc_1_1014XalanConstructINS_18ReusableArenaBlockINS_15XResultTreeFragEtEEN11xercesc_2_713MemoryManagerEtEEPT_RS5_RS7_RT0_RKT1_ = comdat any

$_ZN11xalanc_1_1020XalanAllocationGuardC2ERN11xercesc_2_713MemoryManagerEm = comdat any

$_ZNK11xalanc_1_1020XalanAllocationGuard3getEv = comdat any

$_ZN11xalanc_1_1018ReusableArenaBlockINS_15XResultTreeFragEtEC2ERN11xercesc_2_713MemoryManagerEt = comdat any

$_ZN11xalanc_1_1020XalanAllocationGuard7releaseEv = comdat any

$_ZN11xalanc_1_1020XalanAllocationGuardD2Ev = comdat any

$_ZN11xalanc_1_1014ArenaBlockBaseINS_15XResultTreeFragEtEC2ERN11xercesc_2_713MemoryManagerEt = comdat any

$_ZN11xalanc_1_1018ReusableArenaBlockINS_15XResultTreeFragEtE9NextBlockC2Et = comdat any

$_ZN11xalanc_1_1014ArenaBlockBaseINS_15XResultTreeFragEtED2Ev = comdat any

$_ZN11xalanc_1_1014XalanAllocatorINS_15XResultTreeFragEEC2ERN11xercesc_2_713MemoryManagerE = comdat any

$_ZN11xalanc_1_1014XalanAllocatorINS_15XResultTreeFragEE8allocateEmPKv = comdat any

$_ZN11xalanc_1_1014XalanAllocatorINS_15XResultTreeFragEED2Ev = comdat any

$_ZN11xalanc_1_1014XalanAllocatorINS_15XResultTreeFragEE10deallocateEPS1_m = comdat any

$_ZN11xalanc_1_1018ReusableArenaBlockINS_15XResultTreeFragEtE9NextBlock4castEPv = comdat any

$_ZN11xalanc_1_1018ReusableArenaBlockINS_15XResultTreeFragEtE16commitAllocationEPS1_ = comdat any

$_ZNK11xalanc_1_109XalanListIPNS_18ReusableArenaBlockINS_15XResultTreeFragEtEEE4rendEv = comdat any

$_ZNK11xalanc_1_109XalanListIPNS_18ReusableArenaBlockINS_15XResultTreeFragEtEEE6rbeginEv = comdat any

$_ZStneIN11xalanc_1_1021XalanListIteratorBaseINS0_28XalanListConstIteratorTraitsIPNS0_18ReusableArenaBlockINS0_15XResultTreeFragEtEEEENS0_9XalanListIS6_E4NodeEEEEbRKSt16reverse_iteratorIT_ESG_ = comdat any

$_ZNKSt16reverse_iteratorIN11xalanc_1_1021XalanListIteratorBaseINS0_28XalanListConstIteratorTraitsIPNS0_18ReusableArenaBlockINS0_15XResultTreeFragEtEEEENS0_9XalanListIS6_E4NodeEEEEdeEv = comdat any

$_ZNK11xalanc_1_1018ReusableArenaBlockINS_15XResultTreeFragEtE10ownsObjectEPKS1_ = comdat any

$_ZNSt16reverse_iteratorIN11xalanc_1_1021XalanListIteratorBaseINS0_28XalanListConstIteratorTraitsIPNS0_18ReusableArenaBlockINS0_15XResultTreeFragEtEEEENS0_9XalanListIS6_E4NodeEEEEppEv = comdat any

$_ZNSt16reverse_iteratorIN11xalanc_1_1021XalanListIteratorBaseINS0_28XalanListConstIteratorTraitsIPNS0_18ReusableArenaBlockINS0_15XResultTreeFragEtEEEENS0_9XalanListIS6_E4NodeEEEEC2ESB_ = comdat any

$_ZSteqIN11xalanc_1_1021XalanListIteratorBaseINS0_28XalanListConstIteratorTraitsIPNS0_18ReusableArenaBlockINS0_15XResultTreeFragEtEEEENS0_9XalanListIS6_E4NodeEEEEbRKSt16reverse_iteratorIT_ESG_ = comdat any

$_ZNKSt16reverse_iteratorIN11xalanc_1_1021XalanListIteratorBaseINS0_28XalanListConstIteratorTraitsIPNS0_18ReusableArenaBlockINS0_15XResultTreeFragEtEEEENS0_9XalanListIS6_E4NodeEEEE4baseEv = comdat any

$_ZN11xalanc_1_1021XalanListIteratorBaseINS_28XalanListConstIteratorTraitsIPNS_18ReusableArenaBlockINS_15XResultTreeFragEtEEEENS_9XalanListIS5_E4NodeEEmmEv = comdat any

$_ZNK11xalanc_1_1021XalanListIteratorBaseINS_28XalanListConstIteratorTraitsIPNS_18ReusableArenaBlockINS_15XResultTreeFragEtEEEENS_9XalanListIS5_E4NodeEEdeEv = comdat any

$_ZNK11xalanc_1_1018ReusableArenaBlockINS_15XResultTreeFragEtE15isOccupiedBlockEPKNS2_9NextBlockE = comdat any

$_ZN11xalanc_1_1018ReusableArenaBlockINS_15XResultTreeFragEtE9NextBlock4castEPKv = comdat any

$_ZNK11xalanc_1_1014ArenaBlockBaseINS_15XResultTreeFragEtE9ownsBlockEPKS1_ = comdat any

$_ZNK11xalanc_1_1018ReusableArenaBlockINS_15XResultTreeFragEtE9NextBlock10isValidForEt = comdat any

$_ZNK11xalanc_1_1014ArenaBlockBaseINS_15XResultTreeFragEtE11isInBordersEPKS1_t = comdat any

$_ZNKSt4lessIPKN11xalanc_1_1015XResultTreeFragEEclES3_S3_ = comdat any

$_ZNK11xalanc_1_1021XalanListIteratorBaseINS_28XalanListConstIteratorTraitsIPNS_18ReusableArenaBlockINS_15XResultTreeFragEtEEEENS_9XalanListIS5_E4NodeEEneERKSA_ = comdat any

$_ZN11xalanc_1_1021XalanListIteratorBaseINS_28XalanListConstIteratorTraitsIPNS_18ReusableArenaBlockINS_15XResultTreeFragEtEEEENS_9XalanListIS5_E4NodeEEppEv = comdat any

$_ZN11xalanc_1_109XalanListIPNS_18ReusableArenaBlockINS_15XResultTreeFragEtEEE5frontEv = comdat any

$_ZN11xalanc_1_109XalanListIPNS_18ReusableArenaBlockINS_15XResultTreeFragEtEEE10push_frontERKS4_ = comdat any

$_ZN11xalanc_1_109XalanListIPNS_18ReusableArenaBlockINS_15XResultTreeFragEtEEE16getMemoryManagerEv = comdat any

$_ZN11xalanc_1_109XalanListIPNS_18ReusableArenaBlockINS_15XResultTreeFragEtEEE9pop_frontEv = comdat any

$_ZN11xalanc_1_109XalanListIPNS_18ReusableArenaBlockINS_15XResultTreeFragEtEEE5eraseENS_21XalanListIteratorBaseINS_23XalanListIteratorTraitsIS4_EENS5_4NodeEEE = comdat any

$_ZN11xalanc_1_109XalanListIPNS_18ReusableArenaBlockINS_15XResultTreeFragEtEEE8freeNodeERNS5_4NodeE = comdat any

$_ZN11xalanc_1_1018ReusableArenaBlockINS_15XResultTreeFragEtE13destroyObjectEPS1_ = comdat any

$_ZN11xalanc_1_1022ReusableArenaAllocatorINS_15XResultTreeFragEE12destroyBlockEv = comdat any

$_ZN11xalanc_1_1021XalanListIteratorBaseINS_23XalanListIteratorTraitsIPNS_18ReusableArenaBlockINS_15XResultTreeFragEtEEEENS_9XalanListIS5_E4NodeEEppEv = comdat any

$_ZN11xalanc_1_109XalanListIPNS_18ReusableArenaBlockINS_15XResultTreeFragEtEEE6rbeginEv = comdat any

$_ZN11xalanc_1_109XalanListIPNS_18ReusableArenaBlockINS_15XResultTreeFragEtEEE4rendEv = comdat any

$_ZStneIN11xalanc_1_1021XalanListIteratorBaseINS0_23XalanListIteratorTraitsIPNS0_18ReusableArenaBlockINS0_15XResultTreeFragEtEEEENS0_9XalanListIS6_E4NodeEEEEbRKSt16reverse_iteratorIT_ESG_ = comdat any

$_ZNKSt16reverse_iteratorIN11xalanc_1_1021XalanListIteratorBaseINS0_23XalanListIteratorTraitsIPNS0_18ReusableArenaBlockINS0_15XResultTreeFragEtEEEENS0_9XalanListIS6_E4NodeEEEEdeEv = comdat any

$_ZNSt16reverse_iteratorIN11xalanc_1_1021XalanListIteratorBaseINS0_23XalanListIteratorTraitsIPNS0_18ReusableArenaBlockINS0_15XResultTreeFragEtEEEENS0_9XalanListIS6_E4NodeEEEEppEv = comdat any

$_ZN11xalanc_1_1012XalanDestroyINS_15XResultTreeFragEEEvRT_ = comdat any

$_ZN11xalanc_1_1021XalanListIteratorBaseINS_28XalanListConstIteratorTraitsIPNS_18ReusableArenaBlockINS_15XResultTreeFragEtEEEENS_9XalanListIS5_E4NodeEEC2ERKNS0_INS_23XalanListIteratorTraitsIS5_EES9_EE = comdat any

$_ZNK11xalanc_1_1014ArenaBlockBaseINS_15XResultTreeFragEtE7isEmptyEv = comdat any

$_ZNSt16reverse_iteratorIN11xalanc_1_1021XalanListIteratorBaseINS0_23XalanListIteratorTraitsIPNS0_18ReusableArenaBlockINS0_15XResultTreeFragEtEEEENS0_9XalanListIS6_E4NodeEEEEC2ESB_ = comdat any

$_ZSteqIN11xalanc_1_1021XalanListIteratorBaseINS0_23XalanListIteratorTraitsIPNS0_18ReusableArenaBlockINS0_15XResultTreeFragEtEEEENS0_9XalanListIS6_E4NodeEEEEbRKSt16reverse_iteratorIT_ESG_ = comdat any

$_ZNKSt16reverse_iteratorIN11xalanc_1_1021XalanListIteratorBaseINS0_23XalanListIteratorTraitsIPNS0_18ReusableArenaBlockINS0_15XResultTreeFragEtEEEENS0_9XalanListIS6_E4NodeEEEE4baseEv = comdat any

$_ZSt8for_eachIN11xalanc_1_1021XalanListIteratorBaseINS0_23XalanListIteratorTraitsIPNS0_18ReusableArenaBlockINS0_15XResultTreeFragEtEEEENS0_9XalanListIS6_E4NodeEEENS0_13DeleteFunctorIS5_EEET0_T_SF_SE_ = comdat any

$_ZN11xalanc_1_1013DeleteFunctorINS_18ReusableArenaBlockINS_15XResultTreeFragEtEEEC2ERN11xercesc_2_713MemoryManagerE = comdat any

$_ZN11xalanc_1_109XalanListIPNS_18ReusableArenaBlockINS_15XResultTreeFragEtEEE5clearEv = comdat any

$_ZNK11xalanc_1_1013DeleteFunctorINS_18ReusableArenaBlockINS_15XResultTreeFragEtEEEclEPKS3_ = comdat any

$_ZN11xalanc_1_1023makeXalanDestroyFunctorINS_18ReusableArenaBlockINS_15XResultTreeFragEtEEEENS_19XalanDestroyFunctorIT_EEPKS5_ = comdat any

$_ZN11xalanc_1_1019XalanDestroyFunctorINS_18ReusableArenaBlockINS_15XResultTreeFragEtEEEclEPKS3_RN11xercesc_2_713MemoryManagerE = comdat any

$_ZN11xalanc_1_1019XalanDestroyFunctorINS_18ReusableArenaBlockINS_15XResultTreeFragEtEEEclEPS3_RN11xercesc_2_713MemoryManagerE = comdat any

$_ZN11xalanc_1_1019XalanDestroyFunctorINS_18ReusableArenaBlockINS_15XResultTreeFragEtEEEclERS3_ = comdat any

$_ZN11xalanc_1_1018ReusableArenaBlockINS_15XResultTreeFragEtED2Ev = comdat any

$_ZTVN11xalanc_1_1022ReusableArenaAllocatorINS_15XResultTreeFragEEE = comdat any

$_ZTSN11xalanc_1_1022ReusableArenaAllocatorINS_15XResultTreeFragEEE = comdat any

$_ZTSN11xalanc_1_1014ArenaAllocatorINS_15XResultTreeFragENS_18ReusableArenaBlockIS1_tEEEE = comdat any

$_ZTIN11xalanc_1_1014ArenaAllocatorINS_15XResultTreeFragENS_18ReusableArenaBlockIS1_tEEEE = comdat any

$_ZTIN11xalanc_1_1022ReusableArenaAllocatorINS_15XResultTreeFragEEE = comdat any

$_ZTVN11xalanc_1_1014ArenaAllocatorINS_15XResultTreeFragENS_18ReusableArenaBlockIS1_tEEEE = comdat any

@_ZTVN11xalanc_1_1022ReusableArenaAllocatorINS_15XResultTreeFragEEE = linkonce_odr dso_local unnamed_addr constant { [8 x i8*] } { [8 x i8*] [i8* null, i8* bitcast ({ i8*, i8*, i8* }* @_ZTIN11xalanc_1_1022ReusableArenaAllocatorINS_15XResultTreeFragEEE to i8*), i8* bitcast (void (%"class.xalanc_1_10::ReusableArenaAllocator"*)* @_ZN11xalanc_1_1022ReusableArenaAllocatorINS_15XResultTreeFragEED2Ev to i8*), i8* bitcast (void (%"class.xalanc_1_10::ReusableArenaAllocator"*)* @_ZN11xalanc_1_1022ReusableArenaAllocatorINS_15XResultTreeFragEED0Ev to i8*), i8* bitcast (%"class.xalanc_1_10::XResultTreeFrag"* (%"class.xalanc_1_10::ReusableArenaAllocator"*)* @_ZN11xalanc_1_1022ReusableArenaAllocatorINS_15XResultTreeFragEE13allocateBlockEv to i8*), i8* bitcast (void (%"class.xalanc_1_10::ReusableArenaAllocator"*, %"class.xalanc_1_10::XResultTreeFrag"*)* @_ZN11xalanc_1_1022ReusableArenaAllocatorINS_15XResultTreeFragEE16commitAllocationEPS1_ to i8*), i8* bitcast (i1 (%"class.xalanc_1_10::ReusableArenaAllocator"*, %"class.xalanc_1_10::XResultTreeFrag"*)* @_ZNK11xalanc_1_1022ReusableArenaAllocatorINS_15XResultTreeFragEE10ownsObjectEPKS1_ to i8*), i8* bitcast (void (%"class.xalanc_1_10::ArenaAllocator"*)* @_ZN11xalanc_1_1014ArenaAllocatorINS_15XResultTreeFragENS_18ReusableArenaBlockIS1_tEEE5resetEv to i8*)] }, comdat, align 8
@_ZTVN10__cxxabiv120__si_class_type_infoE = external dso_local global i8*
@_ZTSN11xalanc_1_1022ReusableArenaAllocatorINS_15XResultTreeFragEEE = linkonce_odr dso_local constant [63 x i8] c"N11xalanc_1_1022ReusableArenaAllocatorINS_15XResultTreeFragEEE\00", comdat, align 1
@_ZTVN10__cxxabiv117__class_type_infoE = external dso_local global i8*
@_ZTSN11xalanc_1_1014ArenaAllocatorINS_15XResultTreeFragENS_18ReusableArenaBlockIS1_tEEEE = linkonce_odr dso_local constant [85 x i8] c"N11xalanc_1_1014ArenaAllocatorINS_15XResultTreeFragENS_18ReusableArenaBlockIS1_tEEEE\00", comdat, align 1
@_ZTIN11xalanc_1_1014ArenaAllocatorINS_15XResultTreeFragENS_18ReusableArenaBlockIS1_tEEEE = linkonce_odr dso_local constant { i8*, i8* } { i8* bitcast (i8** getelementptr inbounds (i8*, i8** @_ZTVN10__cxxabiv117__class_type_infoE, i64 2) to i8*), i8* getelementptr inbounds ([85 x i8], [85 x i8]* @_ZTSN11xalanc_1_1014ArenaAllocatorINS_15XResultTreeFragENS_18ReusableArenaBlockIS1_tEEEE, i32 0, i32 0) }, comdat, align 8
@_ZTIN11xalanc_1_1022ReusableArenaAllocatorINS_15XResultTreeFragEEE = linkonce_odr dso_local constant { i8*, i8*, i8* } { i8* bitcast (i8** getelementptr inbounds (i8*, i8** @_ZTVN10__cxxabiv120__si_class_type_infoE, i64 2) to i8*), i8* getelementptr inbounds ([63 x i8], [63 x i8]* @_ZTSN11xalanc_1_1022ReusableArenaAllocatorINS_15XResultTreeFragEEE, i32 0, i32 0), i8* bitcast ({ i8*, i8* }* @_ZTIN11xalanc_1_1014ArenaAllocatorINS_15XResultTreeFragENS_18ReusableArenaBlockIS1_tEEEE to i8*) }, comdat, align 8
@_ZTVN11xalanc_1_1014ArenaAllocatorINS_15XResultTreeFragENS_18ReusableArenaBlockIS1_tEEEE = linkonce_odr dso_local unnamed_addr constant { [8 x i8*] } { [8 x i8*] [i8* null, i8* bitcast ({ i8*, i8* }* @_ZTIN11xalanc_1_1014ArenaAllocatorINS_15XResultTreeFragENS_18ReusableArenaBlockIS1_tEEEE to i8*), i8* bitcast (void (%"class.xalanc_1_10::ArenaAllocator"*)* @_ZN11xalanc_1_1014ArenaAllocatorINS_15XResultTreeFragENS_18ReusableArenaBlockIS1_tEEED2Ev to i8*), i8* bitcast (void (%"class.xalanc_1_10::ArenaAllocator"*)* @_ZN11xalanc_1_1014ArenaAllocatorINS_15XResultTreeFragENS_18ReusableArenaBlockIS1_tEEED0Ev to i8*), i8* bitcast (%"class.xalanc_1_10::XResultTreeFrag"* (%"class.xalanc_1_10::ArenaAllocator"*)* @_ZN11xalanc_1_1014ArenaAllocatorINS_15XResultTreeFragENS_18ReusableArenaBlockIS1_tEEE13allocateBlockEv to i8*), i8* bitcast (void (%"class.xalanc_1_10::ArenaAllocator"*, %"class.xalanc_1_10::XResultTreeFrag"*)* @_ZN11xalanc_1_1014ArenaAllocatorINS_15XResultTreeFragENS_18ReusableArenaBlockIS1_tEEE16commitAllocationEPS1_ to i8*), i8* bitcast (i1 (%"class.xalanc_1_10::ArenaAllocator"*, %"class.xalanc_1_10::XResultTreeFrag"*)* @_ZNK11xalanc_1_1014ArenaAllocatorINS_15XResultTreeFragENS_18ReusableArenaBlockIS1_tEEE10ownsObjectEPKS1_ to i8*), i8* bitcast (void (%"class.xalanc_1_10::ArenaAllocator"*)* @_ZN11xalanc_1_1014ArenaAllocatorINS_15XResultTreeFragENS_18ReusableArenaBlockIS1_tEEE5resetEv to i8*)] }, comdat, align 8

@_ZN11xalanc_1_1024XResultTreeFragAllocatorC1ERN11xercesc_2_713MemoryManagerEt = dso_local unnamed_addr alias void (%"class.xalanc_1_10::XResultTreeFragAllocator"*, %"class.xercesc_2_7::MemoryManager"*, i16), void (%"class.xalanc_1_10::XResultTreeFragAllocator"*, %"class.xercesc_2_7::MemoryManager"*, i16)* @_ZN11xalanc_1_1024XResultTreeFragAllocatorC2ERN11xercesc_2_713MemoryManagerEt
@_ZN11xalanc_1_1024XResultTreeFragAllocatorD1Ev = dso_local unnamed_addr alias void (%"class.xalanc_1_10::XResultTreeFragAllocator"*), void (%"class.xalanc_1_10::XResultTreeFragAllocator"*)* @_ZN11xalanc_1_1024XResultTreeFragAllocatorD2Ev

; Function Attrs: noinline uwtable
define dso_local void @_ZN11xalanc_1_1024XResultTreeFragAllocatorC2ERN11xercesc_2_713MemoryManagerEt(%"class.xalanc_1_10::XResultTreeFragAllocator"* %this, %"class.xercesc_2_7::MemoryManager"* dereferenceable(8) %theManager, i16 zeroext %theBlockCount) unnamed_addr #0 align 2 !dbg !1853 {
entry:
  %this.addr = alloca %"class.xalanc_1_10::XResultTreeFragAllocator"*, align 8
  %theManager.addr = alloca %"class.xercesc_2_7::MemoryManager"*, align 8
  %theBlockCount.addr = alloca i16, align 2
  store %"class.xalanc_1_10::XResultTreeFragAllocator"* %this, %"class.xalanc_1_10::XResultTreeFragAllocator"** %this.addr, align 8
  call void @llvm.dbg.declare(metadata %"class.xalanc_1_10::XResultTreeFragAllocator"** %this.addr, metadata !2001, metadata !DIExpression()), !dbg !2003
  store %"class.xercesc_2_7::MemoryManager"* %theManager, %"class.xercesc_2_7::MemoryManager"** %theManager.addr, align 8
  call void @llvm.dbg.declare(metadata %"class.xercesc_2_7::MemoryManager"** %theManager.addr, metadata !2004, metadata !DIExpression()), !dbg !2005
  store i16 %theBlockCount, i16* %theBlockCount.addr, align 2
  call void @llvm.dbg.declare(metadata i16* %theBlockCount.addr, metadata !2006, metadata !DIExpression()), !dbg !2007
  %this1 = load %"class.xalanc_1_10::XResultTreeFragAllocator"*, %"class.xalanc_1_10::XResultTreeFragAllocator"** %this.addr, align 8
  %m_allocator = getelementptr inbounds %"class.xalanc_1_10::XResultTreeFragAllocator", %"class.xalanc_1_10::XResultTreeFragAllocator"* %this1, i32 0, i32 0, !dbg !2008
  %0 = load %"class.xercesc_2_7::MemoryManager"*, %"class.xercesc_2_7::MemoryManager"** %theManager.addr, align 8, !dbg !2009
  %1 = load i16, i16* %theBlockCount.addr, align 2, !dbg !2010
  call void @_ZN11xalanc_1_1022ReusableArenaAllocatorINS_15XResultTreeFragEEC2ERN11xercesc_2_713MemoryManagerEtb(%"class.xalanc_1_10::ReusableArenaAllocator"* %m_allocator, %"class.xercesc_2_7::MemoryManager"* dereferenceable(8) %0, i16 zeroext %1, i1 zeroext false), !dbg !2008
  ret void, !dbg !2011
}

; Function Attrs: nounwind readnone speculatable willreturn
declare void @llvm.dbg.declare(metadata, metadata, metadata) #1

; Function Attrs: noinline uwtable
define linkonce_odr dso_local void @_ZN11xalanc_1_1022ReusableArenaAllocatorINS_15XResultTreeFragEEC2ERN11xercesc_2_713MemoryManagerEtb(%"class.xalanc_1_10::ReusableArenaAllocator"* %this, %"class.xercesc_2_7::MemoryManager"* dereferenceable(8) %theManager, i16 zeroext %theBlockSize, i1 zeroext %destroyBlocks) unnamed_addr #0 comdat align 2 !dbg !2012 {
entry:
  %this.addr = alloca %"class.xalanc_1_10::ReusableArenaAllocator"*, align 8
  %theManager.addr = alloca %"class.xercesc_2_7::MemoryManager"*, align 8
  %theBlockSize.addr = alloca i16, align 2
  %destroyBlocks.addr = alloca i8, align 1
  store %"class.xalanc_1_10::ReusableArenaAllocator"* %this, %"class.xalanc_1_10::ReusableArenaAllocator"** %this.addr, align 8
  call void @llvm.dbg.declare(metadata %"class.xalanc_1_10::ReusableArenaAllocator"** %this.addr, metadata !2013, metadata !DIExpression()), !dbg !2015
  store %"class.xercesc_2_7::MemoryManager"* %theManager, %"class.xercesc_2_7::MemoryManager"** %theManager.addr, align 8
  call void @llvm.dbg.declare(metadata %"class.xercesc_2_7::MemoryManager"** %theManager.addr, metadata !2016, metadata !DIExpression()), !dbg !2017
  store i16 %theBlockSize, i16* %theBlockSize.addr, align 2
  call void @llvm.dbg.declare(metadata i16* %theBlockSize.addr, metadata !2018, metadata !DIExpression()), !dbg !2019
  %frombool = zext i1 %destroyBlocks to i8
  store i8 %frombool, i8* %destroyBlocks.addr, align 1
  call void @llvm.dbg.declare(metadata i8* %destroyBlocks.addr, metadata !2020, metadata !DIExpression()), !dbg !2021
  %this1 = load %"class.xalanc_1_10::ReusableArenaAllocator"*, %"class.xalanc_1_10::ReusableArenaAllocator"** %this.addr, align 8
  %0 = bitcast %"class.xalanc_1_10::ReusableArenaAllocator"* %this1 to %"class.xalanc_1_10::ArenaAllocator"*, !dbg !2022
  %1 = load %"class.xercesc_2_7::MemoryManager"*, %"class.xercesc_2_7::MemoryManager"** %theManager.addr, align 8, !dbg !2023
  %2 = load i16, i16* %theBlockSize.addr, align 2, !dbg !2024
  call void @_ZN11xalanc_1_1014ArenaAllocatorINS_15XResultTreeFragENS_18ReusableArenaBlockIS1_tEEEC2ERN11xercesc_2_713MemoryManagerEt(%"class.xalanc_1_10::ArenaAllocator"* %0, %"class.xercesc_2_7::MemoryManager"* dereferenceable(8) %1, i16 zeroext %2), !dbg !2025
  %3 = bitcast %"class.xalanc_1_10::ReusableArenaAllocator"* %this1 to i32 (...)***, !dbg !2022
  store i32 (...)** bitcast (i8** getelementptr inbounds ({ [8 x i8*] }, { [8 x i8*] }* @_ZTVN11xalanc_1_1022ReusableArenaAllocatorINS_15XResultTreeFragEEE, i32 0, inrange i32 0, i32 2) to i32 (...)**), i32 (...)*** %3, align 8, !dbg !2022
  %m_destroyBlocks = getelementptr inbounds %"class.xalanc_1_10::ReusableArenaAllocator", %"class.xalanc_1_10::ReusableArenaAllocator"* %this1, i32 0, i32 1, !dbg !2026
  %4 = load i8, i8* %destroyBlocks.addr, align 1, !dbg !2027
  %tobool = trunc i8 %4 to i1, !dbg !2027
  %frombool2 = zext i1 %tobool to i8, !dbg !2026
  store i8 %frombool2, i8* %m_destroyBlocks, align 8, !dbg !2026
  ret void, !dbg !2028
}

; Function Attrs: noinline nounwind uwtable
define dso_local void @_ZN11xalanc_1_1024XResultTreeFragAllocatorD2Ev(%"class.xalanc_1_10::XResultTreeFragAllocator"* %this) unnamed_addr #2 align 2 !dbg !2029 {
entry:
  %this.addr = alloca %"class.xalanc_1_10::XResultTreeFragAllocator"*, align 8
  store %"class.xalanc_1_10::XResultTreeFragAllocator"* %this, %"class.xalanc_1_10::XResultTreeFragAllocator"** %this.addr, align 8
  call void @llvm.dbg.declare(metadata %"class.xalanc_1_10::XResultTreeFragAllocator"** %this.addr, metadata !2030, metadata !DIExpression()), !dbg !2031
  %this1 = load %"class.xalanc_1_10::XResultTreeFragAllocator"*, %"class.xalanc_1_10::XResultTreeFragAllocator"** %this.addr, align 8
  %m_allocator = getelementptr inbounds %"class.xalanc_1_10::XResultTreeFragAllocator", %"class.xalanc_1_10::XResultTreeFragAllocator"* %this1, i32 0, i32 0, !dbg !2032
  call void @_ZN11xalanc_1_1022ReusableArenaAllocatorINS_15XResultTreeFragEED2Ev(%"class.xalanc_1_10::ReusableArenaAllocator"* %m_allocator) #7, !dbg !2032
  ret void, !dbg !2034
}

; Function Attrs: noinline nounwind uwtable
define linkonce_odr dso_local void @_ZN11xalanc_1_1022ReusableArenaAllocatorINS_15XResultTreeFragEED2Ev(%"class.xalanc_1_10::ReusableArenaAllocator"* %this) unnamed_addr #2 comdat align 2 !dbg !2035 {
entry:
  %this.addr = alloca %"class.xalanc_1_10::ReusableArenaAllocator"*, align 8
  store %"class.xalanc_1_10::ReusableArenaAllocator"* %this, %"class.xalanc_1_10::ReusableArenaAllocator"** %this.addr, align 8
  call void @llvm.dbg.declare(metadata %"class.xalanc_1_10::ReusableArenaAllocator"** %this.addr, metadata !2036, metadata !DIExpression()), !dbg !2037
  %this1 = load %"class.xalanc_1_10::ReusableArenaAllocator"*, %"class.xalanc_1_10::ReusableArenaAllocator"** %this.addr, align 8
  %0 = bitcast %"class.xalanc_1_10::ReusableArenaAllocator"* %this1 to %"class.xalanc_1_10::ArenaAllocator"*, !dbg !2038
  call void @_ZN11xalanc_1_1014ArenaAllocatorINS_15XResultTreeFragENS_18ReusableArenaBlockIS1_tEEED2Ev(%"class.xalanc_1_10::ArenaAllocator"* %0) #7, !dbg !2038
  ret void, !dbg !2040
}

; Function Attrs: noinline uwtable
define dso_local %"class.xalanc_1_10::XResultTreeFrag"* @_ZN11xalanc_1_1024XResultTreeFragAllocator6createERNS_21XalanDocumentFragmentE(%"class.xalanc_1_10::XResultTreeFragAllocator"* %this, %"class.xalanc_1_10::XalanDocumentFragment"* nonnull %theValue) #0 align 2 !dbg !2041 {
entry:
  %this.addr = alloca %"class.xalanc_1_10::XResultTreeFragAllocator"*, align 8
  %theValue.addr = alloca %"class.xalanc_1_10::XalanDocumentFragment"*, align 8
  %theBlock = alloca %"class.xalanc_1_10::XResultTreeFrag"*, align 8
  %theResult = alloca %"class.xalanc_1_10::XResultTreeFrag"*, align 8
  store %"class.xalanc_1_10::XResultTreeFragAllocator"* %this, %"class.xalanc_1_10::XResultTreeFragAllocator"** %this.addr, align 8
  call void @llvm.dbg.declare(metadata %"class.xalanc_1_10::XResultTreeFragAllocator"** %this.addr, metadata !2042, metadata !DIExpression()), !dbg !2043
  store %"class.xalanc_1_10::XalanDocumentFragment"* %theValue, %"class.xalanc_1_10::XalanDocumentFragment"** %theValue.addr, align 8
  call void @llvm.dbg.declare(metadata %"class.xalanc_1_10::XalanDocumentFragment"** %theValue.addr, metadata !2044, metadata !DIExpression()), !dbg !2045
  %this1 = load %"class.xalanc_1_10::XResultTreeFragAllocator"*, %"class.xalanc_1_10::XResultTreeFragAllocator"** %this.addr, align 8
  call void @llvm.dbg.declare(metadata %"class.xalanc_1_10::XResultTreeFrag"** %theBlock, metadata !2046, metadata !DIExpression()), !dbg !2048
  %m_allocator = getelementptr inbounds %"class.xalanc_1_10::XResultTreeFragAllocator", %"class.xalanc_1_10::XResultTreeFragAllocator"* %this1, i32 0, i32 0, !dbg !2049
  %call = call %"class.xalanc_1_10::XResultTreeFrag"* @_ZN11xalanc_1_1022ReusableArenaAllocatorINS_15XResultTreeFragEE13allocateBlockEv(%"class.xalanc_1_10::ReusableArenaAllocator"* %m_allocator), !dbg !2050
  store %"class.xalanc_1_10::XResultTreeFrag"* %call, %"class.xalanc_1_10::XResultTreeFrag"** %theBlock, align 8, !dbg !2048
  call void @llvm.dbg.declare(metadata %"class.xalanc_1_10::XResultTreeFrag"** %theResult, metadata !2051, metadata !DIExpression()), !dbg !2052
  %0 = load %"class.xalanc_1_10::XResultTreeFrag"*, %"class.xalanc_1_10::XResultTreeFrag"** %theBlock, align 8, !dbg !2053
  %1 = bitcast %"class.xalanc_1_10::XResultTreeFrag"* %0 to i8*, !dbg !2054
  %2 = bitcast i8* %1 to %"class.xalanc_1_10::XResultTreeFrag"*, !dbg !2054
  %3 = load %"class.xalanc_1_10::XalanDocumentFragment"*, %"class.xalanc_1_10::XalanDocumentFragment"** %theValue.addr, align 8, !dbg !2055
  %m_allocator2 = getelementptr inbounds %"class.xalanc_1_10::XResultTreeFragAllocator", %"class.xalanc_1_10::XResultTreeFragAllocator"* %this1, i32 0, i32 0, !dbg !2056
  %4 = bitcast %"class.xalanc_1_10::ReusableArenaAllocator"* %m_allocator2 to %"class.xalanc_1_10::ArenaAllocator"*, !dbg !2056
  %call3 = call dereferenceable(8) %"class.xercesc_2_7::MemoryManager"* @_ZN11xalanc_1_1014ArenaAllocatorINS_15XResultTreeFragENS_18ReusableArenaBlockIS1_tEEE16getMemoryManagerEv(%"class.xalanc_1_10::ArenaAllocator"* %4), !dbg !2057
  call void @_ZN11xalanc_1_1015XResultTreeFragC1ERNS_21XalanDocumentFragmentERN11xercesc_2_713MemoryManagerE(%"class.xalanc_1_10::XResultTreeFrag"* %2, %"class.xalanc_1_10::XalanDocumentFragment"* nonnull %3, %"class.xercesc_2_7::MemoryManager"* dereferenceable(8) %call3), !dbg !2058
  store %"class.xalanc_1_10::XResultTreeFrag"* %2, %"class.xalanc_1_10::XResultTreeFrag"** %theResult, align 8, !dbg !2052
  %m_allocator4 = getelementptr inbounds %"class.xalanc_1_10::XResultTreeFragAllocator", %"class.xalanc_1_10::XResultTreeFragAllocator"* %this1, i32 0, i32 0, !dbg !2059
  %5 = load %"class.xalanc_1_10::XResultTreeFrag"*, %"class.xalanc_1_10::XResultTreeFrag"** %theBlock, align 8, !dbg !2060
  call void @_ZN11xalanc_1_1022ReusableArenaAllocatorINS_15XResultTreeFragEE16commitAllocationEPS1_(%"class.xalanc_1_10::ReusableArenaAllocator"* %m_allocator4, %"class.xalanc_1_10::XResultTreeFrag"* %5), !dbg !2061
  %6 = load %"class.xalanc_1_10::XResultTreeFrag"*, %"class.xalanc_1_10::XResultTreeFrag"** %theResult, align 8, !dbg !2062
  ret %"class.xalanc_1_10::XResultTreeFrag"* %6, !dbg !2063
}

; Function Attrs: noinline uwtable
define linkonce_odr dso_local %"class.xalanc_1_10::XResultTreeFrag"* @_ZN11xalanc_1_1022ReusableArenaAllocatorINS_15XResultTreeFragEE13allocateBlockEv(%"class.xalanc_1_10::ReusableArenaAllocator"* %this) unnamed_addr #0 comdat align 2 !dbg !2064 {
entry:
  %this.addr = alloca %"class.xalanc_1_10::ReusableArenaAllocator"*, align 8
  %ref.tmp = alloca %"class.xalanc_1_10::ReusableArenaBlock"*, align 8
  store %"class.xalanc_1_10::ReusableArenaAllocator"* %this, %"class.xalanc_1_10::ReusableArenaAllocator"** %this.addr, align 8
  call void @llvm.dbg.declare(metadata %"class.xalanc_1_10::ReusableArenaAllocator"** %this.addr, metadata !2065, metadata !DIExpression()), !dbg !2066
  %this1 = load %"class.xalanc_1_10::ReusableArenaAllocator"*, %"class.xalanc_1_10::ReusableArenaAllocator"** %this.addr, align 8
  %0 = bitcast %"class.xalanc_1_10::ReusableArenaAllocator"* %this1 to %"class.xalanc_1_10::ArenaAllocator"*, !dbg !2067
  %m_blocks = getelementptr inbounds %"class.xalanc_1_10::ArenaAllocator", %"class.xalanc_1_10::ArenaAllocator"* %0, i32 0, i32 2, !dbg !2067
  %call = call zeroext i1 @_ZNK11xalanc_1_109XalanListIPNS_18ReusableArenaBlockINS_15XResultTreeFragEtEEE5emptyEv(%"class.xalanc_1_10::XalanList"* %m_blocks), !dbg !2069
  br i1 %call, label %if.then, label %lor.lhs.false, !dbg !2070

lor.lhs.false:                                    ; preds = %entry
  %1 = bitcast %"class.xalanc_1_10::ReusableArenaAllocator"* %this1 to %"class.xalanc_1_10::ArenaAllocator"*, !dbg !2071
  %m_blocks2 = getelementptr inbounds %"class.xalanc_1_10::ArenaAllocator", %"class.xalanc_1_10::ArenaAllocator"* %1, i32 0, i32 2, !dbg !2071
  %call3 = call dereferenceable(8) %"class.xalanc_1_10::ReusableArenaBlock"** @_ZN11xalanc_1_109XalanListIPNS_18ReusableArenaBlockINS_15XResultTreeFragEtEEE5frontEv(%"class.xalanc_1_10::XalanList"* %m_blocks2), !dbg !2072
  %2 = load %"class.xalanc_1_10::ReusableArenaBlock"*, %"class.xalanc_1_10::ReusableArenaBlock"** %call3, align 8, !dbg !2072
  %3 = bitcast %"class.xalanc_1_10::ReusableArenaBlock"* %2 to %"class.xalanc_1_10::ArenaBlockBase"*, !dbg !2073
  %call4 = call zeroext i1 @_ZNK11xalanc_1_1014ArenaBlockBaseINS_15XResultTreeFragEtE14blockAvailableEv(%"class.xalanc_1_10::ArenaBlockBase"* %3), !dbg !2073
  br i1 %call4, label %if.end, label %if.then, !dbg !2074

if.then:                                          ; preds = %lor.lhs.false, %entry
  %4 = bitcast %"class.xalanc_1_10::ReusableArenaAllocator"* %this1 to %"class.xalanc_1_10::ArenaAllocator"*, !dbg !2075
  %m_blocks5 = getelementptr inbounds %"class.xalanc_1_10::ArenaAllocator", %"class.xalanc_1_10::ArenaAllocator"* %4, i32 0, i32 2, !dbg !2075
  %5 = bitcast %"class.xalanc_1_10::ReusableArenaAllocator"* %this1 to %"class.xalanc_1_10::ArenaAllocator"*, !dbg !2077
  %call6 = call dereferenceable(8) %"class.xercesc_2_7::MemoryManager"* @_ZN11xalanc_1_1014ArenaAllocatorINS_15XResultTreeFragENS_18ReusableArenaBlockIS1_tEEE16getMemoryManagerEv(%"class.xalanc_1_10::ArenaAllocator"* %5), !dbg !2077
  %6 = bitcast %"class.xalanc_1_10::ReusableArenaAllocator"* %this1 to %"class.xalanc_1_10::ArenaAllocator"*, !dbg !2078
  %m_blockSize = getelementptr inbounds %"class.xalanc_1_10::ArenaAllocator", %"class.xalanc_1_10::ArenaAllocator"* %6, i32 0, i32 1, !dbg !2078
  %7 = load i16, i16* %m_blockSize, align 8, !dbg !2078
  %call7 = call %"class.xalanc_1_10::ReusableArenaBlock"* @_ZN11xalanc_1_1018ReusableArenaBlockINS_15XResultTreeFragEtE6createERN11xercesc_2_713MemoryManagerEt(%"class.xercesc_2_7::MemoryManager"* dereferenceable(8) %call6, i16 zeroext %7), !dbg !2079
  store %"class.xalanc_1_10::ReusableArenaBlock"* %call7, %"class.xalanc_1_10::ReusableArenaBlock"** %ref.tmp, align 8, !dbg !2079
  call void @_ZN11xalanc_1_109XalanListIPNS_18ReusableArenaBlockINS_15XResultTreeFragEtEEE10push_frontERKS4_(%"class.xalanc_1_10::XalanList"* %m_blocks5, %"class.xalanc_1_10::ReusableArenaBlock"** dereferenceable(8) %ref.tmp), !dbg !2080
  br label %if.end, !dbg !2081

if.end:                                           ; preds = %if.then, %lor.lhs.false
  %8 = bitcast %"class.xalanc_1_10::ReusableArenaAllocator"* %this1 to %"class.xalanc_1_10::ArenaAllocator"*, !dbg !2082
  %m_blocks8 = getelementptr inbounds %"class.xalanc_1_10::ArenaAllocator", %"class.xalanc_1_10::ArenaAllocator"* %8, i32 0, i32 2, !dbg !2082
  %call9 = call dereferenceable(8) %"class.xalanc_1_10::ReusableArenaBlock"** @_ZN11xalanc_1_109XalanListIPNS_18ReusableArenaBlockINS_15XResultTreeFragEtEEE5frontEv(%"class.xalanc_1_10::XalanList"* %m_blocks8), !dbg !2083
  %9 = load %"class.xalanc_1_10::ReusableArenaBlock"*, %"class.xalanc_1_10::ReusableArenaBlock"** %call9, align 8, !dbg !2083
  %call10 = call %"class.xalanc_1_10::XResultTreeFrag"* @_ZN11xalanc_1_1018ReusableArenaBlockINS_15XResultTreeFragEtE13allocateBlockEv(%"class.xalanc_1_10::ReusableArenaBlock"* %9), !dbg !2084
  ret %"class.xalanc_1_10::XResultTreeFrag"* %call10, !dbg !2085
}

; Function Attrs: noinline uwtable
define linkonce_odr dso_local dereferenceable(8) %"class.xercesc_2_7::MemoryManager"* @_ZN11xalanc_1_1014ArenaAllocatorINS_15XResultTreeFragENS_18ReusableArenaBlockIS1_tEEE16getMemoryManagerEv(%"class.xalanc_1_10::ArenaAllocator"* %this) #0 comdat align 2 !dbg !2086 {
entry:
  %this.addr = alloca %"class.xalanc_1_10::ArenaAllocator"*, align 8
  store %"class.xalanc_1_10::ArenaAllocator"* %this, %"class.xalanc_1_10::ArenaAllocator"** %this.addr, align 8
  call void @llvm.dbg.declare(metadata %"class.xalanc_1_10::ArenaAllocator"** %this.addr, metadata !2087, metadata !DIExpression()), !dbg !2089
  %this1 = load %"class.xalanc_1_10::ArenaAllocator"*, %"class.xalanc_1_10::ArenaAllocator"** %this.addr, align 8
  %m_blocks = getelementptr inbounds %"class.xalanc_1_10::ArenaAllocator", %"class.xalanc_1_10::ArenaAllocator"* %this1, i32 0, i32 2, !dbg !2090
  %call = call dereferenceable(8) %"class.xercesc_2_7::MemoryManager"* @_ZN11xalanc_1_109XalanListIPNS_18ReusableArenaBlockINS_15XResultTreeFragEtEEE16getMemoryManagerEv(%"class.xalanc_1_10::XalanList"* %m_blocks), !dbg !2091
  ret %"class.xercesc_2_7::MemoryManager"* %call, !dbg !2092
}

declare dso_local void @_ZN11xalanc_1_1015XResultTreeFragC1ERNS_21XalanDocumentFragmentERN11xercesc_2_713MemoryManagerE(%"class.xalanc_1_10::XResultTreeFrag"*, %"class.xalanc_1_10::XalanDocumentFragment"* nonnull, %"class.xercesc_2_7::MemoryManager"* dereferenceable(8)) unnamed_addr #3

; Function Attrs: noinline uwtable
define linkonce_odr dso_local void @_ZN11xalanc_1_1022ReusableArenaAllocatorINS_15XResultTreeFragEE16commitAllocationEPS1_(%"class.xalanc_1_10::ReusableArenaAllocator"* %this, %"class.xalanc_1_10::XResultTreeFrag"* %theObject) unnamed_addr #0 comdat align 2 !dbg !2093 {
entry:
  %this.addr = alloca %"class.xalanc_1_10::ReusableArenaAllocator"*, align 8
  %theObject.addr = alloca %"class.xalanc_1_10::XResultTreeFrag"*, align 8
  %fullBlock = alloca %"class.xalanc_1_10::ReusableArenaBlock"*, align 8
  store %"class.xalanc_1_10::ReusableArenaAllocator"* %this, %"class.xalanc_1_10::ReusableArenaAllocator"** %this.addr, align 8
  call void @llvm.dbg.declare(metadata %"class.xalanc_1_10::ReusableArenaAllocator"** %this.addr, metadata !2094, metadata !DIExpression()), !dbg !2095
  store %"class.xalanc_1_10::XResultTreeFrag"* %theObject, %"class.xalanc_1_10::XResultTreeFrag"** %theObject.addr, align 8
  call void @llvm.dbg.declare(metadata %"class.xalanc_1_10::XResultTreeFrag"** %theObject.addr, metadata !2096, metadata !DIExpression()), !dbg !2097
  %this1 = load %"class.xalanc_1_10::ReusableArenaAllocator"*, %"class.xalanc_1_10::ReusableArenaAllocator"** %this.addr, align 8
  %0 = bitcast %"class.xalanc_1_10::ReusableArenaAllocator"* %this1 to %"class.xalanc_1_10::ArenaAllocator"*, !dbg !2098
  %m_blocks = getelementptr inbounds %"class.xalanc_1_10::ArenaAllocator", %"class.xalanc_1_10::ArenaAllocator"* %0, i32 0, i32 2, !dbg !2098
  %call = call dereferenceable(8) %"class.xalanc_1_10::ReusableArenaBlock"** @_ZN11xalanc_1_109XalanListIPNS_18ReusableArenaBlockINS_15XResultTreeFragEtEEE5frontEv(%"class.xalanc_1_10::XalanList"* %m_blocks), !dbg !2099
  %1 = load %"class.xalanc_1_10::ReusableArenaBlock"*, %"class.xalanc_1_10::ReusableArenaBlock"** %call, align 8, !dbg !2099
  %2 = load %"class.xalanc_1_10::XResultTreeFrag"*, %"class.xalanc_1_10::XResultTreeFrag"** %theObject.addr, align 8, !dbg !2100
  call void @_ZN11xalanc_1_1018ReusableArenaBlockINS_15XResultTreeFragEtE16commitAllocationEPS1_(%"class.xalanc_1_10::ReusableArenaBlock"* %1, %"class.xalanc_1_10::XResultTreeFrag"* %2), !dbg !2101
  %3 = bitcast %"class.xalanc_1_10::ReusableArenaAllocator"* %this1 to %"class.xalanc_1_10::ArenaAllocator"*, !dbg !2102
  %m_blocks2 = getelementptr inbounds %"class.xalanc_1_10::ArenaAllocator", %"class.xalanc_1_10::ArenaAllocator"* %3, i32 0, i32 2, !dbg !2102
  %call3 = call dereferenceable(8) %"class.xalanc_1_10::ReusableArenaBlock"** @_ZN11xalanc_1_109XalanListIPNS_18ReusableArenaBlockINS_15XResultTreeFragEtEEE5frontEv(%"class.xalanc_1_10::XalanList"* %m_blocks2), !dbg !2104
  %4 = load %"class.xalanc_1_10::ReusableArenaBlock"*, %"class.xalanc_1_10::ReusableArenaBlock"** %call3, align 8, !dbg !2104
  %5 = bitcast %"class.xalanc_1_10::ReusableArenaBlock"* %4 to %"class.xalanc_1_10::ArenaBlockBase"*, !dbg !2105
  %call4 = call zeroext i1 @_ZNK11xalanc_1_1014ArenaBlockBaseINS_15XResultTreeFragEtE14blockAvailableEv(%"class.xalanc_1_10::ArenaBlockBase"* %5), !dbg !2105
  br i1 %call4, label %if.end, label %if.then, !dbg !2106

if.then:                                          ; preds = %entry
  call void @llvm.dbg.declare(metadata %"class.xalanc_1_10::ReusableArenaBlock"** %fullBlock, metadata !2107, metadata !DIExpression()), !dbg !2111
  %6 = bitcast %"class.xalanc_1_10::ReusableArenaAllocator"* %this1 to %"class.xalanc_1_10::ArenaAllocator"*, !dbg !2112
  %m_blocks5 = getelementptr inbounds %"class.xalanc_1_10::ArenaAllocator", %"class.xalanc_1_10::ArenaAllocator"* %6, i32 0, i32 2, !dbg !2112
  %call6 = call dereferenceable(8) %"class.xalanc_1_10::ReusableArenaBlock"** @_ZN11xalanc_1_109XalanListIPNS_18ReusableArenaBlockINS_15XResultTreeFragEtEEE5frontEv(%"class.xalanc_1_10::XalanList"* %m_blocks5), !dbg !2113
  %7 = load %"class.xalanc_1_10::ReusableArenaBlock"*, %"class.xalanc_1_10::ReusableArenaBlock"** %call6, align 8, !dbg !2113
  store %"class.xalanc_1_10::ReusableArenaBlock"* %7, %"class.xalanc_1_10::ReusableArenaBlock"** %fullBlock, align 8, !dbg !2111
  %8 = bitcast %"class.xalanc_1_10::ReusableArenaAllocator"* %this1 to %"class.xalanc_1_10::ArenaAllocator"*, !dbg !2114
  %m_blocks7 = getelementptr inbounds %"class.xalanc_1_10::ArenaAllocator", %"class.xalanc_1_10::ArenaAllocator"* %8, i32 0, i32 2, !dbg !2114
  call void @_ZN11xalanc_1_109XalanListIPNS_18ReusableArenaBlockINS_15XResultTreeFragEtEEE9pop_frontEv(%"class.xalanc_1_10::XalanList"* %m_blocks7), !dbg !2115
  %9 = bitcast %"class.xalanc_1_10::ReusableArenaAllocator"* %this1 to %"class.xalanc_1_10::ArenaAllocator"*, !dbg !2116
  %m_blocks8 = getelementptr inbounds %"class.xalanc_1_10::ArenaAllocator", %"class.xalanc_1_10::ArenaAllocator"* %9, i32 0, i32 2, !dbg !2116
  call void @_ZN11xalanc_1_109XalanListIPNS_18ReusableArenaBlockINS_15XResultTreeFragEtEEE9push_backERKS4_(%"class.xalanc_1_10::XalanList"* %m_blocks8, %"class.xalanc_1_10::ReusableArenaBlock"** dereferenceable(8) %fullBlock), !dbg !2117
  br label %if.end, !dbg !2118

if.end:                                           ; preds = %if.then, %entry
  ret void, !dbg !2119
}

; Function Attrs: noinline uwtable
define dso_local %"class.xalanc_1_10::XResultTreeFrag"* @_ZN11xalanc_1_1024XResultTreeFragAllocator6createERKNS_15XResultTreeFragE(%"class.xalanc_1_10::XResultTreeFragAllocator"* %this, %"class.xalanc_1_10::XResultTreeFrag"* dereferenceable(96) %theSource) #0 align 2 !dbg !2120 {
entry:
  %this.addr = alloca %"class.xalanc_1_10::XResultTreeFragAllocator"*, align 8
  %theSource.addr = alloca %"class.xalanc_1_10::XResultTreeFrag"*, align 8
  %theBlock = alloca %"class.xalanc_1_10::XResultTreeFrag"*, align 8
  store %"class.xalanc_1_10::XResultTreeFragAllocator"* %this, %"class.xalanc_1_10::XResultTreeFragAllocator"** %this.addr, align 8
  call void @llvm.dbg.declare(metadata %"class.xalanc_1_10::XResultTreeFragAllocator"** %this.addr, metadata !2121, metadata !DIExpression()), !dbg !2122
  store %"class.xalanc_1_10::XResultTreeFrag"* %theSource, %"class.xalanc_1_10::XResultTreeFrag"** %theSource.addr, align 8
  call void @llvm.dbg.declare(metadata %"class.xalanc_1_10::XResultTreeFrag"** %theSource.addr, metadata !2123, metadata !DIExpression()), !dbg !2124
  %this1 = load %"class.xalanc_1_10::XResultTreeFragAllocator"*, %"class.xalanc_1_10::XResultTreeFragAllocator"** %this.addr, align 8
  call void @llvm.dbg.declare(metadata %"class.xalanc_1_10::XResultTreeFrag"** %theBlock, metadata !2125, metadata !DIExpression()), !dbg !2126
  %m_allocator = getelementptr inbounds %"class.xalanc_1_10::XResultTreeFragAllocator", %"class.xalanc_1_10::XResultTreeFragAllocator"* %this1, i32 0, i32 0, !dbg !2127
  %call = call %"class.xalanc_1_10::XResultTreeFrag"* @_ZN11xalanc_1_1022ReusableArenaAllocatorINS_15XResultTreeFragEE13allocateBlockEv(%"class.xalanc_1_10::ReusableArenaAllocator"* %m_allocator), !dbg !2128
  store %"class.xalanc_1_10::XResultTreeFrag"* %call, %"class.xalanc_1_10::XResultTreeFrag"** %theBlock, align 8, !dbg !2126
  %0 = load %"class.xalanc_1_10::XResultTreeFrag"*, %"class.xalanc_1_10::XResultTreeFrag"** %theBlock, align 8, !dbg !2129
  %1 = bitcast %"class.xalanc_1_10::XResultTreeFrag"* %0 to i8*, !dbg !2130
  %2 = bitcast i8* %1 to %"class.xalanc_1_10::XResultTreeFrag"*, !dbg !2130
  %3 = load %"class.xalanc_1_10::XResultTreeFrag"*, %"class.xalanc_1_10::XResultTreeFrag"** %theSource.addr, align 8, !dbg !2131
  %m_allocator2 = getelementptr inbounds %"class.xalanc_1_10::XResultTreeFragAllocator", %"class.xalanc_1_10::XResultTreeFragAllocator"* %this1, i32 0, i32 0, !dbg !2132
  %4 = bitcast %"class.xalanc_1_10::ReusableArenaAllocator"* %m_allocator2 to %"class.xalanc_1_10::ArenaAllocator"*, !dbg !2132
  %call3 = call dereferenceable(8) %"class.xercesc_2_7::MemoryManager"* @_ZN11xalanc_1_1014ArenaAllocatorINS_15XResultTreeFragENS_18ReusableArenaBlockIS1_tEEE16getMemoryManagerEv(%"class.xalanc_1_10::ArenaAllocator"* %4), !dbg !2133
  call void @_ZN11xalanc_1_1015XResultTreeFragC1ERKS0_RN11xercesc_2_713MemoryManagerEb(%"class.xalanc_1_10::XResultTreeFrag"* %2, %"class.xalanc_1_10::XResultTreeFrag"* dereferenceable(96) %3, %"class.xercesc_2_7::MemoryManager"* dereferenceable(8) %call3, i1 zeroext false), !dbg !2134
  %m_allocator4 = getelementptr inbounds %"class.xalanc_1_10::XResultTreeFragAllocator", %"class.xalanc_1_10::XResultTreeFragAllocator"* %this1, i32 0, i32 0, !dbg !2135
  %5 = load %"class.xalanc_1_10::XResultTreeFrag"*, %"class.xalanc_1_10::XResultTreeFrag"** %theBlock, align 8, !dbg !2136
  call void @_ZN11xalanc_1_1022ReusableArenaAllocatorINS_15XResultTreeFragEE16commitAllocationEPS1_(%"class.xalanc_1_10::ReusableArenaAllocator"* %m_allocator4, %"class.xalanc_1_10::XResultTreeFrag"* %5), !dbg !2137
  %6 = load %"class.xalanc_1_10::XResultTreeFrag"*, %"class.xalanc_1_10::XResultTreeFrag"** %theBlock, align 8, !dbg !2138
  ret %"class.xalanc_1_10::XResultTreeFrag"* %6, !dbg !2139
}

declare dso_local void @_ZN11xalanc_1_1015XResultTreeFragC1ERKS0_RN11xercesc_2_713MemoryManagerEb(%"class.xalanc_1_10::XResultTreeFrag"*, %"class.xalanc_1_10::XResultTreeFrag"* dereferenceable(96), %"class.xercesc_2_7::MemoryManager"* dereferenceable(8), i1 zeroext) unnamed_addr #3

; Function Attrs: noinline uwtable
define dso_local zeroext i1 @_ZN11xalanc_1_1024XResultTreeFragAllocator7destroyEPNS_15XResultTreeFragE(%"class.xalanc_1_10::XResultTreeFragAllocator"* %this, %"class.xalanc_1_10::XResultTreeFrag"* %theObject) #0 align 2 !dbg !2140 {
entry:
  %this.addr = alloca %"class.xalanc_1_10::XResultTreeFragAllocator"*, align 8
  %theObject.addr = alloca %"class.xalanc_1_10::XResultTreeFrag"*, align 8
  store %"class.xalanc_1_10::XResultTreeFragAllocator"* %this, %"class.xalanc_1_10::XResultTreeFragAllocator"** %this.addr, align 8
  call void @llvm.dbg.declare(metadata %"class.xalanc_1_10::XResultTreeFragAllocator"** %this.addr, metadata !2141, metadata !DIExpression()), !dbg !2142
  store %"class.xalanc_1_10::XResultTreeFrag"* %theObject, %"class.xalanc_1_10::XResultTreeFrag"** %theObject.addr, align 8
  call void @llvm.dbg.declare(metadata %"class.xalanc_1_10::XResultTreeFrag"** %theObject.addr, metadata !2143, metadata !DIExpression()), !dbg !2144
  %this1 = load %"class.xalanc_1_10::XResultTreeFragAllocator"*, %"class.xalanc_1_10::XResultTreeFragAllocator"** %this.addr, align 8
  %m_allocator = getelementptr inbounds %"class.xalanc_1_10::XResultTreeFragAllocator", %"class.xalanc_1_10::XResultTreeFragAllocator"* %this1, i32 0, i32 0, !dbg !2145
  %0 = load %"class.xalanc_1_10::XResultTreeFrag"*, %"class.xalanc_1_10::XResultTreeFrag"** %theObject.addr, align 8, !dbg !2146
  %call = call zeroext i1 @_ZN11xalanc_1_1022ReusableArenaAllocatorINS_15XResultTreeFragEE13destroyObjectEPS1_(%"class.xalanc_1_10::ReusableArenaAllocator"* %m_allocator, %"class.xalanc_1_10::XResultTreeFrag"* %0), !dbg !2147
  ret i1 %call, !dbg !2148
}

; Function Attrs: noinline uwtable
define linkonce_odr dso_local zeroext i1 @_ZN11xalanc_1_1022ReusableArenaAllocatorINS_15XResultTreeFragEE13destroyObjectEPS1_(%"class.xalanc_1_10::ReusableArenaAllocator"* %this, %"class.xalanc_1_10::XResultTreeFrag"* %theObject) #0 comdat align 2 !dbg !2149 {
entry:
  %retval = alloca i1, align 1
  %this.addr = alloca %"class.xalanc_1_10::ReusableArenaAllocator"*, align 8
  %theObject.addr = alloca %"class.xalanc_1_10::XResultTreeFrag"*, align 8
  %bResult = alloca i8, align 1
  %iTerator = alloca %"struct.xalanc_1_10::XalanListIteratorBase", align 8
  %iEnd = alloca %"struct.xalanc_1_10::XalanListIteratorBase", align 8
  %ref.tmp = alloca %"struct.xalanc_1_10::XalanListIteratorBase", align 8
  %block = alloca %"class.xalanc_1_10::ReusableArenaBlock"*, align 8
  %agg.tmp = alloca %"struct.xalanc_1_10::XalanListIteratorBase", align 8
  %tmp = alloca %"struct.xalanc_1_10::XalanListIteratorBase", align 8
  %rIterator = alloca %"class.std::reverse_iterator.1", align 8
  %rEnd = alloca %"class.std::reverse_iterator.1", align 8
  %ref.tmp34 = alloca %"class.std::reverse_iterator.1", align 8
  %block38 = alloca %"class.xalanc_1_10::ReusableArenaBlock"*, align 8
  %agg.tmp41 = alloca %"struct.xalanc_1_10::XalanListIteratorBase", align 8
  store %"class.xalanc_1_10::ReusableArenaAllocator"* %this, %"class.xalanc_1_10::ReusableArenaAllocator"** %this.addr, align 8
  call void @llvm.dbg.declare(metadata %"class.xalanc_1_10::ReusableArenaAllocator"** %this.addr, metadata !2150, metadata !DIExpression()), !dbg !2151
  store %"class.xalanc_1_10::XResultTreeFrag"* %theObject, %"class.xalanc_1_10::XResultTreeFrag"** %theObject.addr, align 8
  call void @llvm.dbg.declare(metadata %"class.xalanc_1_10::XResultTreeFrag"** %theObject.addr, metadata !2152, metadata !DIExpression()), !dbg !2153
  %this1 = load %"class.xalanc_1_10::ReusableArenaAllocator"*, %"class.xalanc_1_10::ReusableArenaAllocator"** %this.addr, align 8
  call void @llvm.dbg.declare(metadata i8* %bResult, metadata !2154, metadata !DIExpression()), !dbg !2155
  store i8 0, i8* %bResult, align 1, !dbg !2155
  %0 = bitcast %"class.xalanc_1_10::ReusableArenaAllocator"* %this1 to %"class.xalanc_1_10::ArenaAllocator"*, !dbg !2156
  %m_blocks = getelementptr inbounds %"class.xalanc_1_10::ArenaAllocator", %"class.xalanc_1_10::ArenaAllocator"* %0, i32 0, i32 2, !dbg !2156
  %call = call zeroext i1 @_ZNK11xalanc_1_109XalanListIPNS_18ReusableArenaBlockINS_15XResultTreeFragEtEEE5emptyEv(%"class.xalanc_1_10::XalanList"* %m_blocks), !dbg !2158
  br i1 %call, label %if.then, label %if.end, !dbg !2159

if.then:                                          ; preds = %entry
  %1 = load i8, i8* %bResult, align 1, !dbg !2160
  %tobool = trunc i8 %1 to i1, !dbg !2160
  store i1 %tobool, i1* %retval, align 1, !dbg !2161
  br label %return, !dbg !2161

if.end:                                           ; preds = %entry
  call void @llvm.dbg.declare(metadata %"struct.xalanc_1_10::XalanListIteratorBase"* %iTerator, metadata !2162, metadata !DIExpression()), !dbg !2164
  %2 = bitcast %"class.xalanc_1_10::ReusableArenaAllocator"* %this1 to %"class.xalanc_1_10::ArenaAllocator"*, !dbg !2165
  %m_blocks2 = getelementptr inbounds %"class.xalanc_1_10::ArenaAllocator", %"class.xalanc_1_10::ArenaAllocator"* %2, i32 0, i32 2, !dbg !2165
  call void @_ZN11xalanc_1_109XalanListIPNS_18ReusableArenaBlockINS_15XResultTreeFragEtEEE5beginEv(%"struct.xalanc_1_10::XalanListIteratorBase"* sret %iTerator, %"class.xalanc_1_10::XalanList"* %m_blocks2), !dbg !2166
  call void @llvm.dbg.declare(metadata %"struct.xalanc_1_10::XalanListIteratorBase"* %iEnd, metadata !2167, metadata !DIExpression()), !dbg !2168
  %3 = bitcast %"class.xalanc_1_10::ReusableArenaAllocator"* %this1 to %"class.xalanc_1_10::ArenaAllocator"*, !dbg !2169
  %m_blocks3 = getelementptr inbounds %"class.xalanc_1_10::ArenaAllocator", %"class.xalanc_1_10::ArenaAllocator"* %3, i32 0, i32 2, !dbg !2169
  call void @_ZN11xalanc_1_109XalanListIPNS_18ReusableArenaBlockINS_15XResultTreeFragEtEEE3endEv(%"struct.xalanc_1_10::XalanListIteratorBase"* sret %iEnd, %"class.xalanc_1_10::XalanList"* %m_blocks3), !dbg !2170
  br label %while.cond, !dbg !2171

while.cond:                                       ; preds = %if.end21, %if.end
  %call4 = call zeroext i1 @_ZNK11xalanc_1_1021XalanListIteratorBaseINS_23XalanListIteratorTraitsIPNS_18ReusableArenaBlockINS_15XResultTreeFragEtEEEENS_9XalanListIS5_E4NodeEEneERKSA_(%"struct.xalanc_1_10::XalanListIteratorBase"* %iTerator, %"struct.xalanc_1_10::XalanListIteratorBase"* dereferenceable(8) %iEnd), !dbg !2172
  br i1 %call4, label %land.rhs, label %land.end, !dbg !2173

land.rhs:                                         ; preds = %while.cond
  %call5 = call dereferenceable(8) %"class.xalanc_1_10::ReusableArenaBlock"** @_ZNK11xalanc_1_1021XalanListIteratorBaseINS_23XalanListIteratorTraitsIPNS_18ReusableArenaBlockINS_15XResultTreeFragEtEEEENS_9XalanListIS5_E4NodeEEdeEv(%"struct.xalanc_1_10::XalanListIteratorBase"* %iTerator), !dbg !2174
  %4 = load %"class.xalanc_1_10::ReusableArenaBlock"*, %"class.xalanc_1_10::ReusableArenaBlock"** %call5, align 8, !dbg !2174
  %5 = bitcast %"class.xalanc_1_10::ReusableArenaBlock"* %4 to %"class.xalanc_1_10::ArenaBlockBase"*, !dbg !2175
  %call6 = call zeroext i1 @_ZNK11xalanc_1_1014ArenaBlockBaseINS_15XResultTreeFragEtE14blockAvailableEv(%"class.xalanc_1_10::ArenaBlockBase"* %5), !dbg !2175
  br label %land.end

land.end:                                         ; preds = %land.rhs, %while.cond
  %6 = phi i1 [ false, %while.cond ], [ %call6, %land.rhs ], !dbg !2151
  br i1 %6, label %while.body, label %while.end, !dbg !2171

while.body:                                       ; preds = %land.end
  %call7 = call dereferenceable(8) %"class.xalanc_1_10::ReusableArenaBlock"** @_ZNK11xalanc_1_1021XalanListIteratorBaseINS_23XalanListIteratorTraitsIPNS_18ReusableArenaBlockINS_15XResultTreeFragEtEEEENS_9XalanListIS5_E4NodeEEdeEv(%"struct.xalanc_1_10::XalanListIteratorBase"* %iTerator), !dbg !2176
  %7 = load %"class.xalanc_1_10::ReusableArenaBlock"*, %"class.xalanc_1_10::ReusableArenaBlock"** %call7, align 8, !dbg !2176
  %8 = bitcast %"class.xalanc_1_10::ReusableArenaBlock"* %7 to %"class.xalanc_1_10::ArenaBlockBase"*, !dbg !2179
  %9 = load %"class.xalanc_1_10::XResultTreeFrag"*, %"class.xalanc_1_10::XResultTreeFrag"** %theObject.addr, align 8, !dbg !2180
  %call8 = call zeroext i1 @_ZNK11xalanc_1_1014ArenaBlockBaseINS_15XResultTreeFragEtE9ownsBlockEPKS1_(%"class.xalanc_1_10::ArenaBlockBase"* %8, %"class.xalanc_1_10::XResultTreeFrag"* %9), !dbg !2179
  %conv = zext i1 %call8 to i32, !dbg !2181
  %cmp = icmp eq i32 %conv, 1, !dbg !2182
  br i1 %cmp, label %if.then9, label %if.end21, !dbg !2183

if.then9:                                         ; preds = %while.body
  %call10 = call dereferenceable(8) %"class.xalanc_1_10::ReusableArenaBlock"** @_ZNK11xalanc_1_1021XalanListIteratorBaseINS_23XalanListIteratorTraitsIPNS_18ReusableArenaBlockINS_15XResultTreeFragEtEEEENS_9XalanListIS5_E4NodeEEdeEv(%"struct.xalanc_1_10::XalanListIteratorBase"* %iTerator), !dbg !2184
  %10 = load %"class.xalanc_1_10::ReusableArenaBlock"*, %"class.xalanc_1_10::ReusableArenaBlock"** %call10, align 8, !dbg !2184
  %11 = load %"class.xalanc_1_10::XResultTreeFrag"*, %"class.xalanc_1_10::XResultTreeFrag"** %theObject.addr, align 8, !dbg !2186
  call void @_ZN11xalanc_1_1018ReusableArenaBlockINS_15XResultTreeFragEtE13destroyObjectEPS1_(%"class.xalanc_1_10::ReusableArenaBlock"* %10, %"class.xalanc_1_10::XResultTreeFrag"* %11), !dbg !2187
  %12 = bitcast %"class.xalanc_1_10::ReusableArenaAllocator"* %this1 to %"class.xalanc_1_10::ArenaAllocator"*, !dbg !2188
  %m_blocks11 = getelementptr inbounds %"class.xalanc_1_10::ArenaAllocator", %"class.xalanc_1_10::ArenaAllocator"* %12, i32 0, i32 2, !dbg !2188
  call void @_ZN11xalanc_1_109XalanListIPNS_18ReusableArenaBlockINS_15XResultTreeFragEtEEE5beginEv(%"struct.xalanc_1_10::XalanListIteratorBase"* sret %ref.tmp, %"class.xalanc_1_10::XalanList"* %m_blocks11), !dbg !2190
  %call12 = call zeroext i1 @_ZNK11xalanc_1_1021XalanListIteratorBaseINS_23XalanListIteratorTraitsIPNS_18ReusableArenaBlockINS_15XResultTreeFragEtEEEENS_9XalanListIS5_E4NodeEEneERKSA_(%"struct.xalanc_1_10::XalanListIteratorBase"* %iTerator, %"struct.xalanc_1_10::XalanListIteratorBase"* dereferenceable(8) %ref.tmp), !dbg !2191
  br i1 %call12, label %if.then13, label %if.end17, !dbg !2192

if.then13:                                        ; preds = %if.then9
  call void @llvm.dbg.declare(metadata %"class.xalanc_1_10::ReusableArenaBlock"** %block, metadata !2193, metadata !DIExpression()), !dbg !2195
  %call14 = call dereferenceable(8) %"class.xalanc_1_10::ReusableArenaBlock"** @_ZNK11xalanc_1_1021XalanListIteratorBaseINS_23XalanListIteratorTraitsIPNS_18ReusableArenaBlockINS_15XResultTreeFragEtEEEENS_9XalanListIS5_E4NodeEEdeEv(%"struct.xalanc_1_10::XalanListIteratorBase"* %iTerator), !dbg !2196
  %13 = load %"class.xalanc_1_10::ReusableArenaBlock"*, %"class.xalanc_1_10::ReusableArenaBlock"** %call14, align 8, !dbg !2196
  store %"class.xalanc_1_10::ReusableArenaBlock"* %13, %"class.xalanc_1_10::ReusableArenaBlock"** %block, align 8, !dbg !2195
  %14 = bitcast %"class.xalanc_1_10::ReusableArenaAllocator"* %this1 to %"class.xalanc_1_10::ArenaAllocator"*, !dbg !2197
  %m_blocks15 = getelementptr inbounds %"class.xalanc_1_10::ArenaAllocator", %"class.xalanc_1_10::ArenaAllocator"* %14, i32 0, i32 2, !dbg !2197
  call void @_ZN11xalanc_1_1021XalanListIteratorBaseINS_23XalanListIteratorTraitsIPNS_18ReusableArenaBlockINS_15XResultTreeFragEtEEEENS_9XalanListIS5_E4NodeEEC2ERKSA_(%"struct.xalanc_1_10::XalanListIteratorBase"* %agg.tmp, %"struct.xalanc_1_10::XalanListIteratorBase"* dereferenceable(8) %iTerator), !dbg !2198
  call void @_ZN11xalanc_1_109XalanListIPNS_18ReusableArenaBlockINS_15XResultTreeFragEtEEE5eraseENS_21XalanListIteratorBaseINS_23XalanListIteratorTraitsIS4_EENS5_4NodeEEE(%"class.xalanc_1_10::XalanList"* %m_blocks15, %"struct.xalanc_1_10::XalanListIteratorBase"* %agg.tmp), !dbg !2199
  %15 = bitcast %"class.xalanc_1_10::ReusableArenaAllocator"* %this1 to %"class.xalanc_1_10::ArenaAllocator"*, !dbg !2200
  %m_blocks16 = getelementptr inbounds %"class.xalanc_1_10::ArenaAllocator", %"class.xalanc_1_10::ArenaAllocator"* %15, i32 0, i32 2, !dbg !2200
  call void @_ZN11xalanc_1_109XalanListIPNS_18ReusableArenaBlockINS_15XResultTreeFragEtEEE10push_frontERKS4_(%"class.xalanc_1_10::XalanList"* %m_blocks16, %"class.xalanc_1_10::ReusableArenaBlock"** dereferenceable(8) %block), !dbg !2201
  br label %if.end17, !dbg !2202

if.end17:                                         ; preds = %if.then13, %if.then9
  %m_destroyBlocks = getelementptr inbounds %"class.xalanc_1_10::ReusableArenaAllocator", %"class.xalanc_1_10::ReusableArenaAllocator"* %this1, i32 0, i32 1, !dbg !2203
  %16 = load i8, i8* %m_destroyBlocks, align 8, !dbg !2203
  %tobool18 = trunc i8 %16 to i1, !dbg !2203
  br i1 %tobool18, label %if.then19, label %if.end20, !dbg !2205

if.then19:                                        ; preds = %if.end17
  call void @_ZN11xalanc_1_1022ReusableArenaAllocatorINS_15XResultTreeFragEE12destroyBlockEv(%"class.xalanc_1_10::ReusableArenaAllocator"* %this1), !dbg !2206
  br label %if.end20, !dbg !2208

if.end20:                                         ; preds = %if.then19, %if.end17
  store i8 1, i8* %bResult, align 1, !dbg !2209
  br label %while.end, !dbg !2210

if.end21:                                         ; preds = %while.body
  call void @_ZN11xalanc_1_1021XalanListIteratorBaseINS_23XalanListIteratorTraitsIPNS_18ReusableArenaBlockINS_15XResultTreeFragEtEEEENS_9XalanListIS5_E4NodeEEppEv(%"struct.xalanc_1_10::XalanListIteratorBase"* sret %tmp, %"struct.xalanc_1_10::XalanListIteratorBase"* %iTerator), !dbg !2211
  br label %while.cond, !dbg !2171, !llvm.loop !2212

while.end:                                        ; preds = %if.end20, %land.end
  call void @llvm.dbg.declare(metadata %"class.std::reverse_iterator.1"* %rIterator, metadata !2214, metadata !DIExpression()), !dbg !2216
  %17 = bitcast %"class.xalanc_1_10::ReusableArenaAllocator"* %this1 to %"class.xalanc_1_10::ArenaAllocator"*, !dbg !2217
  %m_blocks22 = getelementptr inbounds %"class.xalanc_1_10::ArenaAllocator", %"class.xalanc_1_10::ArenaAllocator"* %17, i32 0, i32 2, !dbg !2217
  call void @_ZN11xalanc_1_109XalanListIPNS_18ReusableArenaBlockINS_15XResultTreeFragEtEEE6rbeginEv(%"class.std::reverse_iterator.1"* sret %rIterator, %"class.xalanc_1_10::XalanList"* %m_blocks22), !dbg !2218
  call void @llvm.dbg.declare(metadata %"class.std::reverse_iterator.1"* %rEnd, metadata !2219, metadata !DIExpression()), !dbg !2220
  %18 = bitcast %"class.xalanc_1_10::ReusableArenaAllocator"* %this1 to %"class.xalanc_1_10::ArenaAllocator"*, !dbg !2221
  %m_blocks23 = getelementptr inbounds %"class.xalanc_1_10::ArenaAllocator", %"class.xalanc_1_10::ArenaAllocator"* %18, i32 0, i32 2, !dbg !2221
  call void @_ZN11xalanc_1_109XalanListIPNS_18ReusableArenaBlockINS_15XResultTreeFragEtEEE4rendEv(%"class.std::reverse_iterator.1"* sret %rEnd, %"class.xalanc_1_10::XalanList"* %m_blocks23), !dbg !2222
  br label %while.cond24, !dbg !2223

while.cond24:                                     ; preds = %if.end54, %while.end
  %19 = load i8, i8* %bResult, align 1, !dbg !2224
  %tobool25 = trunc i8 %19 to i1, !dbg !2224
  br i1 %tobool25, label %land.end28, label %land.rhs26, !dbg !2225

land.rhs26:                                       ; preds = %while.cond24
  %call27 = call zeroext i1 @_ZStneIN11xalanc_1_1021XalanListIteratorBaseINS0_23XalanListIteratorTraitsIPNS0_18ReusableArenaBlockINS0_15XResultTreeFragEtEEEENS0_9XalanListIS6_E4NodeEEEEbRKSt16reverse_iteratorIT_ESG_(%"class.std::reverse_iterator.1"* dereferenceable(8) %rIterator, %"class.std::reverse_iterator.1"* dereferenceable(8) %rEnd), !dbg !2226
  br label %land.end28

land.end28:                                       ; preds = %land.rhs26, %while.cond24
  %20 = phi i1 [ false, %while.cond24 ], [ %call27, %land.rhs26 ], !dbg !2151
  br i1 %20, label %while.body29, label %while.end55, !dbg !2223

while.body29:                                     ; preds = %land.end28
  %call30 = call dereferenceable(8) %"class.xalanc_1_10::ReusableArenaBlock"** @_ZNKSt16reverse_iteratorIN11xalanc_1_1021XalanListIteratorBaseINS0_23XalanListIteratorTraitsIPNS0_18ReusableArenaBlockINS0_15XResultTreeFragEtEEEENS0_9XalanListIS6_E4NodeEEEEdeEv(%"class.std::reverse_iterator.1"* %rIterator), !dbg !2227
  %21 = load %"class.xalanc_1_10::ReusableArenaBlock"*, %"class.xalanc_1_10::ReusableArenaBlock"** %call30, align 8, !dbg !2227
  %22 = bitcast %"class.xalanc_1_10::ReusableArenaBlock"* %21 to %"class.xalanc_1_10::ArenaBlockBase"*, !dbg !2230
  %23 = load %"class.xalanc_1_10::XResultTreeFrag"*, %"class.xalanc_1_10::XResultTreeFrag"** %theObject.addr, align 8, !dbg !2231
  %call31 = call zeroext i1 @_ZNK11xalanc_1_1014ArenaBlockBaseINS_15XResultTreeFragEtE9ownsBlockEPKS1_(%"class.xalanc_1_10::ArenaBlockBase"* %22, %"class.xalanc_1_10::XResultTreeFrag"* %23), !dbg !2230
  br i1 %call31, label %if.then32, label %if.end48, !dbg !2232

if.then32:                                        ; preds = %while.body29
  %call33 = call dereferenceable(8) %"class.xalanc_1_10::ReusableArenaBlock"** @_ZNKSt16reverse_iteratorIN11xalanc_1_1021XalanListIteratorBaseINS0_23XalanListIteratorTraitsIPNS0_18ReusableArenaBlockINS0_15XResultTreeFragEtEEEENS0_9XalanListIS6_E4NodeEEEEdeEv(%"class.std::reverse_iterator.1"* %rIterator), !dbg !2233
  %24 = load %"class.xalanc_1_10::ReusableArenaBlock"*, %"class.xalanc_1_10::ReusableArenaBlock"** %call33, align 8, !dbg !2233
  %25 = load %"class.xalanc_1_10::XResultTreeFrag"*, %"class.xalanc_1_10::XResultTreeFrag"** %theObject.addr, align 8, !dbg !2235
  call void @_ZN11xalanc_1_1018ReusableArenaBlockINS_15XResultTreeFragEtE13destroyObjectEPS1_(%"class.xalanc_1_10::ReusableArenaBlock"* %24, %"class.xalanc_1_10::XResultTreeFrag"* %25), !dbg !2236
  %26 = bitcast %"class.xalanc_1_10::ReusableArenaAllocator"* %this1 to %"class.xalanc_1_10::ArenaAllocator"*, !dbg !2237
  %m_blocks35 = getelementptr inbounds %"class.xalanc_1_10::ArenaAllocator", %"class.xalanc_1_10::ArenaAllocator"* %26, i32 0, i32 2, !dbg !2237
  call void @_ZN11xalanc_1_109XalanListIPNS_18ReusableArenaBlockINS_15XResultTreeFragEtEEE6rbeginEv(%"class.std::reverse_iterator.1"* sret %ref.tmp34, %"class.xalanc_1_10::XalanList"* %m_blocks35), !dbg !2239
  %call36 = call zeroext i1 @_ZStneIN11xalanc_1_1021XalanListIteratorBaseINS0_23XalanListIteratorTraitsIPNS0_18ReusableArenaBlockINS0_15XResultTreeFragEtEEEENS0_9XalanListIS6_E4NodeEEEEbRKSt16reverse_iteratorIT_ESG_(%"class.std::reverse_iterator.1"* dereferenceable(8) %rIterator, %"class.std::reverse_iterator.1"* dereferenceable(8) %ref.tmp34), !dbg !2240
  br i1 %call36, label %if.then37, label %if.end43, !dbg !2241

if.then37:                                        ; preds = %if.then32
  call void @llvm.dbg.declare(metadata %"class.xalanc_1_10::ReusableArenaBlock"** %block38, metadata !2242, metadata !DIExpression()), !dbg !2244
  %call39 = call dereferenceable(8) %"class.xalanc_1_10::ReusableArenaBlock"** @_ZNK11xalanc_1_1021XalanListIteratorBaseINS_23XalanListIteratorTraitsIPNS_18ReusableArenaBlockINS_15XResultTreeFragEtEEEENS_9XalanListIS5_E4NodeEEdeEv(%"struct.xalanc_1_10::XalanListIteratorBase"* %iTerator), !dbg !2245
  %27 = load %"class.xalanc_1_10::ReusableArenaBlock"*, %"class.xalanc_1_10::ReusableArenaBlock"** %call39, align 8, !dbg !2245
  store %"class.xalanc_1_10::ReusableArenaBlock"* %27, %"class.xalanc_1_10::ReusableArenaBlock"** %block38, align 8, !dbg !2244
  %28 = bitcast %"class.xalanc_1_10::ReusableArenaAllocator"* %this1 to %"class.xalanc_1_10::ArenaAllocator"*, !dbg !2246
  %m_blocks40 = getelementptr inbounds %"class.xalanc_1_10::ArenaAllocator", %"class.xalanc_1_10::ArenaAllocator"* %28, i32 0, i32 2, !dbg !2246
  call void @_ZN11xalanc_1_1021XalanListIteratorBaseINS_23XalanListIteratorTraitsIPNS_18ReusableArenaBlockINS_15XResultTreeFragEtEEEENS_9XalanListIS5_E4NodeEEC2ERKSA_(%"struct.xalanc_1_10::XalanListIteratorBase"* %agg.tmp41, %"struct.xalanc_1_10::XalanListIteratorBase"* dereferenceable(8) %iTerator), !dbg !2247
  call void @_ZN11xalanc_1_109XalanListIPNS_18ReusableArenaBlockINS_15XResultTreeFragEtEEE5eraseENS_21XalanListIteratorBaseINS_23XalanListIteratorTraitsIS4_EENS5_4NodeEEE(%"class.xalanc_1_10::XalanList"* %m_blocks40, %"struct.xalanc_1_10::XalanListIteratorBase"* %agg.tmp41), !dbg !2248
  %29 = bitcast %"class.xalanc_1_10::ReusableArenaAllocator"* %this1 to %"class.xalanc_1_10::ArenaAllocator"*, !dbg !2249
  %m_blocks42 = getelementptr inbounds %"class.xalanc_1_10::ArenaAllocator", %"class.xalanc_1_10::ArenaAllocator"* %29, i32 0, i32 2, !dbg !2249
  call void @_ZN11xalanc_1_109XalanListIPNS_18ReusableArenaBlockINS_15XResultTreeFragEtEEE10push_frontERKS4_(%"class.xalanc_1_10::XalanList"* %m_blocks42, %"class.xalanc_1_10::ReusableArenaBlock"** dereferenceable(8) %block38), !dbg !2250
  br label %if.end43, !dbg !2251

if.end43:                                         ; preds = %if.then37, %if.then32
  %m_destroyBlocks44 = getelementptr inbounds %"class.xalanc_1_10::ReusableArenaAllocator", %"class.xalanc_1_10::ReusableArenaAllocator"* %this1, i32 0, i32 1, !dbg !2252
  %30 = load i8, i8* %m_destroyBlocks44, align 8, !dbg !2252
  %tobool45 = trunc i8 %30 to i1, !dbg !2252
  br i1 %tobool45, label %if.then46, label %if.end47, !dbg !2254

if.then46:                                        ; preds = %if.end43
  call void @_ZN11xalanc_1_1022ReusableArenaAllocatorINS_15XResultTreeFragEE12destroyBlockEv(%"class.xalanc_1_10::ReusableArenaAllocator"* %this1), !dbg !2255
  br label %if.end47, !dbg !2257

if.end47:                                         ; preds = %if.then46, %if.end43
  store i8 1, i8* %bResult, align 1, !dbg !2258
  br label %while.end55, !dbg !2259

if.end48:                                         ; preds = %while.body29
  %call49 = call dereferenceable(8) %"class.xalanc_1_10::ReusableArenaBlock"** @_ZNKSt16reverse_iteratorIN11xalanc_1_1021XalanListIteratorBaseINS0_23XalanListIteratorTraitsIPNS0_18ReusableArenaBlockINS0_15XResultTreeFragEtEEEENS0_9XalanListIS6_E4NodeEEEEdeEv(%"class.std::reverse_iterator.1"* %rIterator), !dbg !2260
  %31 = load %"class.xalanc_1_10::ReusableArenaBlock"*, %"class.xalanc_1_10::ReusableArenaBlock"** %call49, align 8, !dbg !2260
  %call50 = call dereferenceable(8) %"class.xalanc_1_10::ReusableArenaBlock"** @_ZNK11xalanc_1_1021XalanListIteratorBaseINS_23XalanListIteratorTraitsIPNS_18ReusableArenaBlockINS_15XResultTreeFragEtEEEENS_9XalanListIS5_E4NodeEEdeEv(%"struct.xalanc_1_10::XalanListIteratorBase"* %iTerator), !dbg !2262
  %32 = load %"class.xalanc_1_10::ReusableArenaBlock"*, %"class.xalanc_1_10::ReusableArenaBlock"** %call50, align 8, !dbg !2262
  %cmp51 = icmp eq %"class.xalanc_1_10::ReusableArenaBlock"* %31, %32, !dbg !2263
  br i1 %cmp51, label %if.then52, label %if.else, !dbg !2264

if.then52:                                        ; preds = %if.end48
  br label %while.end55, !dbg !2265

if.else:                                          ; preds = %if.end48
  %call53 = call dereferenceable(8) %"class.std::reverse_iterator.1"* @_ZNSt16reverse_iteratorIN11xalanc_1_1021XalanListIteratorBaseINS0_23XalanListIteratorTraitsIPNS0_18ReusableArenaBlockINS0_15XResultTreeFragEtEEEENS0_9XalanListIS6_E4NodeEEEEppEv(%"class.std::reverse_iterator.1"* %rIterator), !dbg !2267
  br label %if.end54

if.end54:                                         ; preds = %if.else
  br label %while.cond24, !dbg !2223, !llvm.loop !2269

while.end55:                                      ; preds = %if.then52, %if.end47, %land.end28
  %33 = load i8, i8* %bResult, align 1, !dbg !2271
  %tobool56 = trunc i8 %33 to i1, !dbg !2271
  store i1 %tobool56, i1* %retval, align 1, !dbg !2272
  br label %return, !dbg !2272

return:                                           ; preds = %while.end55, %if.then
  %34 = load i1, i1* %retval, align 1, !dbg !2273
  ret i1 %34, !dbg !2273
}

; Function Attrs: noinline uwtable
define dso_local void @_ZN11xalanc_1_1024XResultTreeFragAllocator5resetEv(%"class.xalanc_1_10::XResultTreeFragAllocator"* %this) #0 align 2 !dbg !2274 {
entry:
  %this.addr = alloca %"class.xalanc_1_10::XResultTreeFragAllocator"*, align 8
  store %"class.xalanc_1_10::XResultTreeFragAllocator"* %this, %"class.xalanc_1_10::XResultTreeFragAllocator"** %this.addr, align 8
  call void @llvm.dbg.declare(metadata %"class.xalanc_1_10::XResultTreeFragAllocator"** %this.addr, metadata !2275, metadata !DIExpression()), !dbg !2276
  %this1 = load %"class.xalanc_1_10::XResultTreeFragAllocator"*, %"class.xalanc_1_10::XResultTreeFragAllocator"** %this.addr, align 8
  %m_allocator = getelementptr inbounds %"class.xalanc_1_10::XResultTreeFragAllocator", %"class.xalanc_1_10::XResultTreeFragAllocator"* %this1, i32 0, i32 0, !dbg !2277
  %0 = bitcast %"class.xalanc_1_10::ReusableArenaAllocator"* %m_allocator to %"class.xalanc_1_10::ArenaAllocator"*, !dbg !2277
  call void @_ZN11xalanc_1_1014ArenaAllocatorINS_15XResultTreeFragENS_18ReusableArenaBlockIS1_tEEE5resetEv(%"class.xalanc_1_10::ArenaAllocator"* %0), !dbg !2278
  ret void, !dbg !2279
}

; Function Attrs: noinline uwtable
define linkonce_odr dso_local void @_ZN11xalanc_1_1014ArenaAllocatorINS_15XResultTreeFragENS_18ReusableArenaBlockIS1_tEEE5resetEv(%"class.xalanc_1_10::ArenaAllocator"* %this) unnamed_addr #0 comdat align 2 !dbg !2280 {
entry:
  %this.addr = alloca %"class.xalanc_1_10::ArenaAllocator"*, align 8
  %agg.tmp = alloca %"struct.xalanc_1_10::XalanListIteratorBase", align 8
  %agg.tmp2 = alloca %"struct.xalanc_1_10::XalanListIteratorBase", align 8
  %agg.tmp4 = alloca %"struct.xalanc_1_10::DeleteFunctor", align 8
  %coerce = alloca %"struct.xalanc_1_10::DeleteFunctor", align 8
  store %"class.xalanc_1_10::ArenaAllocator"* %this, %"class.xalanc_1_10::ArenaAllocator"** %this.addr, align 8
  call void @llvm.dbg.declare(metadata %"class.xalanc_1_10::ArenaAllocator"** %this.addr, metadata !2281, metadata !DIExpression()), !dbg !2282
  %this1 = load %"class.xalanc_1_10::ArenaAllocator"*, %"class.xalanc_1_10::ArenaAllocator"** %this.addr, align 8
  %m_blocks = getelementptr inbounds %"class.xalanc_1_10::ArenaAllocator", %"class.xalanc_1_10::ArenaAllocator"* %this1, i32 0, i32 2, !dbg !2283
  call void @_ZN11xalanc_1_109XalanListIPNS_18ReusableArenaBlockINS_15XResultTreeFragEtEEE5beginEv(%"struct.xalanc_1_10::XalanListIteratorBase"* sret %agg.tmp, %"class.xalanc_1_10::XalanList"* %m_blocks), !dbg !2284
  %m_blocks3 = getelementptr inbounds %"class.xalanc_1_10::ArenaAllocator", %"class.xalanc_1_10::ArenaAllocator"* %this1, i32 0, i32 2, !dbg !2285
  call void @_ZN11xalanc_1_109XalanListIPNS_18ReusableArenaBlockINS_15XResultTreeFragEtEEE3endEv(%"struct.xalanc_1_10::XalanListIteratorBase"* sret %agg.tmp2, %"class.xalanc_1_10::XalanList"* %m_blocks3), !dbg !2286
  %m_blocks5 = getelementptr inbounds %"class.xalanc_1_10::ArenaAllocator", %"class.xalanc_1_10::ArenaAllocator"* %this1, i32 0, i32 2, !dbg !2287
  %call = call dereferenceable(8) %"class.xercesc_2_7::MemoryManager"* @_ZN11xalanc_1_109XalanListIPNS_18ReusableArenaBlockINS_15XResultTreeFragEtEEE16getMemoryManagerEv(%"class.xalanc_1_10::XalanList"* %m_blocks5), !dbg !2288
  call void @_ZN11xalanc_1_1013DeleteFunctorINS_18ReusableArenaBlockINS_15XResultTreeFragEtEEEC2ERN11xercesc_2_713MemoryManagerE(%"struct.xalanc_1_10::DeleteFunctor"* %agg.tmp4, %"class.xercesc_2_7::MemoryManager"* dereferenceable(8) %call), !dbg !2289
  %coerce.dive = getelementptr inbounds %"struct.xalanc_1_10::DeleteFunctor", %"struct.xalanc_1_10::DeleteFunctor"* %agg.tmp4, i32 0, i32 0, !dbg !2290
  %0 = load %"class.xercesc_2_7::MemoryManager"*, %"class.xercesc_2_7::MemoryManager"** %coerce.dive, align 8, !dbg !2290
  %call6 = call %"class.xercesc_2_7::MemoryManager"* @_ZSt8for_eachIN11xalanc_1_1021XalanListIteratorBaseINS0_23XalanListIteratorTraitsIPNS0_18ReusableArenaBlockINS0_15XResultTreeFragEtEEEENS0_9XalanListIS6_E4NodeEEENS0_13DeleteFunctorIS5_EEET0_T_SF_SE_(%"struct.xalanc_1_10::XalanListIteratorBase"* %agg.tmp, %"struct.xalanc_1_10::XalanListIteratorBase"* %agg.tmp2, %"class.xercesc_2_7::MemoryManager"* %0), !dbg !2290
  %coerce.dive7 = getelementptr inbounds %"struct.xalanc_1_10::DeleteFunctor", %"struct.xalanc_1_10::DeleteFunctor"* %coerce, i32 0, i32 0, !dbg !2290
  store %"class.xercesc_2_7::MemoryManager"* %call6, %"class.xercesc_2_7::MemoryManager"** %coerce.dive7, align 8, !dbg !2290
  %m_blocks8 = getelementptr inbounds %"class.xalanc_1_10::ArenaAllocator", %"class.xalanc_1_10::ArenaAllocator"* %this1, i32 0, i32 2, !dbg !2291
  call void @_ZN11xalanc_1_109XalanListIPNS_18ReusableArenaBlockINS_15XResultTreeFragEtEEE5clearEv(%"class.xalanc_1_10::XalanList"* %m_blocks8), !dbg !2292
  ret void, !dbg !2293
}

; Function Attrs: noinline uwtable
define linkonce_odr dso_local void @_ZN11xalanc_1_1014ArenaAllocatorINS_15XResultTreeFragENS_18ReusableArenaBlockIS1_tEEEC2ERN11xercesc_2_713MemoryManagerEt(%"class.xalanc_1_10::ArenaAllocator"* %this, %"class.xercesc_2_7::MemoryManager"* dereferenceable(8) %theManager, i16 zeroext %theBlockSize) unnamed_addr #0 comdat align 2 !dbg !2294 {
entry:
  %this.addr = alloca %"class.xalanc_1_10::ArenaAllocator"*, align 8
  %theManager.addr = alloca %"class.xercesc_2_7::MemoryManager"*, align 8
  %theBlockSize.addr = alloca i16, align 2
  store %"class.xalanc_1_10::ArenaAllocator"* %this, %"class.xalanc_1_10::ArenaAllocator"** %this.addr, align 8
  call void @llvm.dbg.declare(metadata %"class.xalanc_1_10::ArenaAllocator"** %this.addr, metadata !2295, metadata !DIExpression()), !dbg !2296
  store %"class.xercesc_2_7::MemoryManager"* %theManager, %"class.xercesc_2_7::MemoryManager"** %theManager.addr, align 8
  call void @llvm.dbg.declare(metadata %"class.xercesc_2_7::MemoryManager"** %theManager.addr, metadata !2297, metadata !DIExpression()), !dbg !2298
  store i16 %theBlockSize, i16* %theBlockSize.addr, align 2
  call void @llvm.dbg.declare(metadata i16* %theBlockSize.addr, metadata !2299, metadata !DIExpression()), !dbg !2300
  %this1 = load %"class.xalanc_1_10::ArenaAllocator"*, %"class.xalanc_1_10::ArenaAllocator"** %this.addr, align 8
  %0 = bitcast %"class.xalanc_1_10::ArenaAllocator"* %this1 to i32 (...)***, !dbg !2301
  store i32 (...)** bitcast (i8** getelementptr inbounds ({ [8 x i8*] }, { [8 x i8*] }* @_ZTVN11xalanc_1_1014ArenaAllocatorINS_15XResultTreeFragENS_18ReusableArenaBlockIS1_tEEEE, i32 0, inrange i32 0, i32 2) to i32 (...)**), i32 (...)*** %0, align 8, !dbg !2301
  %m_blockSize = getelementptr inbounds %"class.xalanc_1_10::ArenaAllocator", %"class.xalanc_1_10::ArenaAllocator"* %this1, i32 0, i32 1, !dbg !2302
  %1 = load i16, i16* %theBlockSize.addr, align 2, !dbg !2303
  store i16 %1, i16* %m_blockSize, align 8, !dbg !2302
  %m_blocks = getelementptr inbounds %"class.xalanc_1_10::ArenaAllocator", %"class.xalanc_1_10::ArenaAllocator"* %this1, i32 0, i32 2, !dbg !2304
  %2 = load %"class.xercesc_2_7::MemoryManager"*, %"class.xercesc_2_7::MemoryManager"** %theManager.addr, align 8, !dbg !2305
  call void @_ZN11xalanc_1_109XalanListIPNS_18ReusableArenaBlockINS_15XResultTreeFragEtEEEC2ERN11xercesc_2_713MemoryManagerE(%"class.xalanc_1_10::XalanList"* %m_blocks, %"class.xercesc_2_7::MemoryManager"* dereferenceable(8) %2), !dbg !2304
  ret void, !dbg !2306
}

; Function Attrs: noinline nounwind uwtable
define linkonce_odr dso_local void @_ZN11xalanc_1_1022ReusableArenaAllocatorINS_15XResultTreeFragEED0Ev(%"class.xalanc_1_10::ReusableArenaAllocator"* %this) unnamed_addr #2 comdat align 2 !dbg !2307 {
entry:
  %this.addr = alloca %"class.xalanc_1_10::ReusableArenaAllocator"*, align 8
  store %"class.xalanc_1_10::ReusableArenaAllocator"* %this, %"class.xalanc_1_10::ReusableArenaAllocator"** %this.addr, align 8
  call void @llvm.dbg.declare(metadata %"class.xalanc_1_10::ReusableArenaAllocator"** %this.addr, metadata !2308, metadata !DIExpression()), !dbg !2309
  %this1 = load %"class.xalanc_1_10::ReusableArenaAllocator"*, %"class.xalanc_1_10::ReusableArenaAllocator"** %this.addr, align 8
  call void @_ZN11xalanc_1_1022ReusableArenaAllocatorINS_15XResultTreeFragEED2Ev(%"class.xalanc_1_10::ReusableArenaAllocator"* %this1) #7, !dbg !2310
  %0 = bitcast %"class.xalanc_1_10::ReusableArenaAllocator"* %this1 to i8*, !dbg !2310
  call void @_ZdlPv(i8* %0) #8, !dbg !2310
  ret void, !dbg !2311
}

; Function Attrs: noinline uwtable
define linkonce_odr dso_local zeroext i1 @_ZNK11xalanc_1_1022ReusableArenaAllocatorINS_15XResultTreeFragEE10ownsObjectEPKS1_(%"class.xalanc_1_10::ReusableArenaAllocator"* %this, %"class.xalanc_1_10::XResultTreeFrag"* %theObject) unnamed_addr #0 comdat align 2 !dbg !2312 {
entry:
  %retval = alloca i1, align 1
  %this.addr = alloca %"class.xalanc_1_10::ReusableArenaAllocator"*, align 8
  %theObject.addr = alloca %"class.xalanc_1_10::XResultTreeFrag"*, align 8
  %iTerator = alloca %"struct.xalanc_1_10::XalanListIteratorBase.0", align 8
  %iEnd = alloca %"struct.xalanc_1_10::XalanListIteratorBase.0", align 8
  %coerce = alloca %"struct.xalanc_1_10::XalanListIteratorBase.0", align 8
  %rIterator = alloca %"class.std::reverse_iterator", align 8
  %rEnd = alloca %"class.std::reverse_iterator", align 8
  store %"class.xalanc_1_10::ReusableArenaAllocator"* %this, %"class.xalanc_1_10::ReusableArenaAllocator"** %this.addr, align 8
  call void @llvm.dbg.declare(metadata %"class.xalanc_1_10::ReusableArenaAllocator"** %this.addr, metadata !2313, metadata !DIExpression()), !dbg !2315
  store %"class.xalanc_1_10::XResultTreeFrag"* %theObject, %"class.xalanc_1_10::XResultTreeFrag"** %theObject.addr, align 8
  call void @llvm.dbg.declare(metadata %"class.xalanc_1_10::XResultTreeFrag"** %theObject.addr, metadata !2316, metadata !DIExpression()), !dbg !2317
  %this1 = load %"class.xalanc_1_10::ReusableArenaAllocator"*, %"class.xalanc_1_10::ReusableArenaAllocator"** %this.addr, align 8
  %0 = bitcast %"class.xalanc_1_10::ReusableArenaAllocator"* %this1 to %"class.xalanc_1_10::ArenaAllocator"*, !dbg !2318
  %m_blocks = getelementptr inbounds %"class.xalanc_1_10::ArenaAllocator", %"class.xalanc_1_10::ArenaAllocator"* %0, i32 0, i32 2, !dbg !2318
  %call = call zeroext i1 @_ZNK11xalanc_1_109XalanListIPNS_18ReusableArenaBlockINS_15XResultTreeFragEtEEE5emptyEv(%"class.xalanc_1_10::XalanList"* %m_blocks), !dbg !2320
  br i1 %call, label %if.then, label %if.end, !dbg !2321

if.then:                                          ; preds = %entry
  store i1 false, i1* %retval, align 1, !dbg !2322
  br label %return, !dbg !2322

if.end:                                           ; preds = %entry
  call void @llvm.dbg.declare(metadata %"struct.xalanc_1_10::XalanListIteratorBase.0"* %iTerator, metadata !2323, metadata !DIExpression()), !dbg !2325
  %1 = bitcast %"class.xalanc_1_10::ReusableArenaAllocator"* %this1 to %"class.xalanc_1_10::ArenaAllocator"*, !dbg !2326
  %m_blocks2 = getelementptr inbounds %"class.xalanc_1_10::ArenaAllocator", %"class.xalanc_1_10::ArenaAllocator"* %1, i32 0, i32 2, !dbg !2326
  %call3 = call %"struct.xalanc_1_10::XalanList<xalanc_1_10::ReusableArenaBlock<xalanc_1_10::XResultTreeFrag, unsigned short> *>::Node"* @_ZNK11xalanc_1_109XalanListIPNS_18ReusableArenaBlockINS_15XResultTreeFragEtEEE5beginEv(%"class.xalanc_1_10::XalanList"* %m_blocks2), !dbg !2327
  %coerce.dive = getelementptr inbounds %"struct.xalanc_1_10::XalanListIteratorBase.0", %"struct.xalanc_1_10::XalanListIteratorBase.0"* %iTerator, i32 0, i32 0, !dbg !2327
  store %"struct.xalanc_1_10::XalanList<xalanc_1_10::ReusableArenaBlock<xalanc_1_10::XResultTreeFrag, unsigned short> *>::Node"* %call3, %"struct.xalanc_1_10::XalanList<xalanc_1_10::ReusableArenaBlock<xalanc_1_10::XResultTreeFrag, unsigned short> *>::Node"** %coerce.dive, align 8, !dbg !2327
  call void @llvm.dbg.declare(metadata %"struct.xalanc_1_10::XalanListIteratorBase.0"* %iEnd, metadata !2328, metadata !DIExpression()), !dbg !2329
  %2 = bitcast %"class.xalanc_1_10::ReusableArenaAllocator"* %this1 to %"class.xalanc_1_10::ArenaAllocator"*, !dbg !2330
  %m_blocks4 = getelementptr inbounds %"class.xalanc_1_10::ArenaAllocator", %"class.xalanc_1_10::ArenaAllocator"* %2, i32 0, i32 2, !dbg !2330
  %call5 = call %"struct.xalanc_1_10::XalanList<xalanc_1_10::ReusableArenaBlock<xalanc_1_10::XResultTreeFrag, unsigned short> *>::Node"* @_ZNK11xalanc_1_109XalanListIPNS_18ReusableArenaBlockINS_15XResultTreeFragEtEEE3endEv(%"class.xalanc_1_10::XalanList"* %m_blocks4), !dbg !2331
  %coerce.dive6 = getelementptr inbounds %"struct.xalanc_1_10::XalanListIteratorBase.0", %"struct.xalanc_1_10::XalanListIteratorBase.0"* %iEnd, i32 0, i32 0, !dbg !2331
  store %"struct.xalanc_1_10::XalanList<xalanc_1_10::ReusableArenaBlock<xalanc_1_10::XResultTreeFrag, unsigned short> *>::Node"* %call5, %"struct.xalanc_1_10::XalanList<xalanc_1_10::ReusableArenaBlock<xalanc_1_10::XResultTreeFrag, unsigned short> *>::Node"** %coerce.dive6, align 8, !dbg !2331
  br label %while.cond, !dbg !2332

while.cond:                                       ; preds = %if.end13, %if.end
  %call7 = call zeroext i1 @_ZNK11xalanc_1_1021XalanListIteratorBaseINS_28XalanListConstIteratorTraitsIPNS_18ReusableArenaBlockINS_15XResultTreeFragEtEEEENS_9XalanListIS5_E4NodeEEneERKSA_(%"struct.xalanc_1_10::XalanListIteratorBase.0"* %iTerator, %"struct.xalanc_1_10::XalanListIteratorBase.0"* dereferenceable(8) %iEnd), !dbg !2333
  br i1 %call7, label %land.rhs, label %land.end, !dbg !2334

land.rhs:                                         ; preds = %while.cond
  %call8 = call dereferenceable(8) %"class.xalanc_1_10::ReusableArenaBlock"** @_ZNK11xalanc_1_1021XalanListIteratorBaseINS_28XalanListConstIteratorTraitsIPNS_18ReusableArenaBlockINS_15XResultTreeFragEtEEEENS_9XalanListIS5_E4NodeEEdeEv(%"struct.xalanc_1_10::XalanListIteratorBase.0"* %iTerator), !dbg !2335
  %3 = load %"class.xalanc_1_10::ReusableArenaBlock"*, %"class.xalanc_1_10::ReusableArenaBlock"** %call8, align 8, !dbg !2335
  %4 = bitcast %"class.xalanc_1_10::ReusableArenaBlock"* %3 to %"class.xalanc_1_10::ArenaBlockBase"*, !dbg !2336
  %call9 = call zeroext i1 @_ZNK11xalanc_1_1014ArenaBlockBaseINS_15XResultTreeFragEtE14blockAvailableEv(%"class.xalanc_1_10::ArenaBlockBase"* %4), !dbg !2336
  br label %land.end

land.end:                                         ; preds = %land.rhs, %while.cond
  %5 = phi i1 [ false, %while.cond ], [ %call9, %land.rhs ], !dbg !2315
  br i1 %5, label %while.body, label %while.end, !dbg !2332

while.body:                                       ; preds = %land.end
  %call10 = call dereferenceable(8) %"class.xalanc_1_10::ReusableArenaBlock"** @_ZNK11xalanc_1_1021XalanListIteratorBaseINS_28XalanListConstIteratorTraitsIPNS_18ReusableArenaBlockINS_15XResultTreeFragEtEEEENS_9XalanListIS5_E4NodeEEdeEv(%"struct.xalanc_1_10::XalanListIteratorBase.0"* %iTerator), !dbg !2337
  %6 = load %"class.xalanc_1_10::ReusableArenaBlock"*, %"class.xalanc_1_10::ReusableArenaBlock"** %call10, align 8, !dbg !2337
  %7 = bitcast %"class.xalanc_1_10::ReusableArenaBlock"* %6 to %"class.xalanc_1_10::ArenaBlockBase"*, !dbg !2340
  %8 = load %"class.xalanc_1_10::XResultTreeFrag"*, %"class.xalanc_1_10::XResultTreeFrag"** %theObject.addr, align 8, !dbg !2341
  %call11 = call zeroext i1 @_ZNK11xalanc_1_1014ArenaBlockBaseINS_15XResultTreeFragEtE9ownsBlockEPKS1_(%"class.xalanc_1_10::ArenaBlockBase"* %7, %"class.xalanc_1_10::XResultTreeFrag"* %8), !dbg !2340
  br i1 %call11, label %if.then12, label %if.end13, !dbg !2342

if.then12:                                        ; preds = %while.body
  store i1 true, i1* %retval, align 1, !dbg !2343
  br label %return, !dbg !2343

if.end13:                                         ; preds = %while.body
  %call14 = call %"struct.xalanc_1_10::XalanList<xalanc_1_10::ReusableArenaBlock<xalanc_1_10::XResultTreeFrag, unsigned short> *>::Node"* @_ZN11xalanc_1_1021XalanListIteratorBaseINS_28XalanListConstIteratorTraitsIPNS_18ReusableArenaBlockINS_15XResultTreeFragEtEEEENS_9XalanListIS5_E4NodeEEppEv(%"struct.xalanc_1_10::XalanListIteratorBase.0"* %iTerator), !dbg !2345
  %coerce.dive15 = getelementptr inbounds %"struct.xalanc_1_10::XalanListIteratorBase.0", %"struct.xalanc_1_10::XalanListIteratorBase.0"* %coerce, i32 0, i32 0, !dbg !2345
  store %"struct.xalanc_1_10::XalanList<xalanc_1_10::ReusableArenaBlock<xalanc_1_10::XResultTreeFrag, unsigned short> *>::Node"* %call14, %"struct.xalanc_1_10::XalanList<xalanc_1_10::ReusableArenaBlock<xalanc_1_10::XResultTreeFrag, unsigned short> *>::Node"** %coerce.dive15, align 8, !dbg !2345
  br label %while.cond, !dbg !2332, !llvm.loop !2346

while.end:                                        ; preds = %land.end
  call void @llvm.dbg.declare(metadata %"class.std::reverse_iterator"* %rIterator, metadata !2348, metadata !DIExpression()), !dbg !2350
  %9 = bitcast %"class.xalanc_1_10::ReusableArenaAllocator"* %this1 to %"class.xalanc_1_10::ArenaAllocator"*, !dbg !2351
  %m_blocks16 = getelementptr inbounds %"class.xalanc_1_10::ArenaAllocator", %"class.xalanc_1_10::ArenaAllocator"* %9, i32 0, i32 2, !dbg !2351
  call void @_ZNK11xalanc_1_109XalanListIPNS_18ReusableArenaBlockINS_15XResultTreeFragEtEEE6rbeginEv(%"class.std::reverse_iterator"* sret %rIterator, %"class.xalanc_1_10::XalanList"* %m_blocks16), !dbg !2352
  call void @llvm.dbg.declare(metadata %"class.std::reverse_iterator"* %rEnd, metadata !2353, metadata !DIExpression()), !dbg !2354
  %10 = bitcast %"class.xalanc_1_10::ReusableArenaAllocator"* %this1 to %"class.xalanc_1_10::ArenaAllocator"*, !dbg !2355
  %m_blocks17 = getelementptr inbounds %"class.xalanc_1_10::ArenaAllocator", %"class.xalanc_1_10::ArenaAllocator"* %10, i32 0, i32 2, !dbg !2355
  call void @_ZNK11xalanc_1_109XalanListIPNS_18ReusableArenaBlockINS_15XResultTreeFragEtEEE4rendEv(%"class.std::reverse_iterator"* sret %rEnd, %"class.xalanc_1_10::XalanList"* %m_blocks17), !dbg !2356
  br label %while.cond18, !dbg !2357

while.cond18:                                     ; preds = %if.end29, %while.end
  %call19 = call zeroext i1 @_ZStneIN11xalanc_1_1021XalanListIteratorBaseINS0_28XalanListConstIteratorTraitsIPNS0_18ReusableArenaBlockINS0_15XResultTreeFragEtEEEENS0_9XalanListIS6_E4NodeEEEEbRKSt16reverse_iteratorIT_ESG_(%"class.std::reverse_iterator"* dereferenceable(8) %rIterator, %"class.std::reverse_iterator"* dereferenceable(8) %rEnd), !dbg !2358
  br i1 %call19, label %while.body20, label %while.end30, !dbg !2357

while.body20:                                     ; preds = %while.cond18
  %call21 = call dereferenceable(8) %"class.xalanc_1_10::ReusableArenaBlock"** @_ZNKSt16reverse_iteratorIN11xalanc_1_1021XalanListIteratorBaseINS0_28XalanListConstIteratorTraitsIPNS0_18ReusableArenaBlockINS0_15XResultTreeFragEtEEEENS0_9XalanListIS6_E4NodeEEEEdeEv(%"class.std::reverse_iterator"* %rIterator), !dbg !2359
  %11 = load %"class.xalanc_1_10::ReusableArenaBlock"*, %"class.xalanc_1_10::ReusableArenaBlock"** %call21, align 8, !dbg !2359
  %12 = bitcast %"class.xalanc_1_10::ReusableArenaBlock"* %11 to %"class.xalanc_1_10::ArenaBlockBase"*, !dbg !2362
  %13 = load %"class.xalanc_1_10::XResultTreeFrag"*, %"class.xalanc_1_10::XResultTreeFrag"** %theObject.addr, align 8, !dbg !2363
  %call22 = call zeroext i1 @_ZNK11xalanc_1_1014ArenaBlockBaseINS_15XResultTreeFragEtE9ownsBlockEPKS1_(%"class.xalanc_1_10::ArenaBlockBase"* %12, %"class.xalanc_1_10::XResultTreeFrag"* %13), !dbg !2362
  br i1 %call22, label %if.then23, label %if.end24, !dbg !2364

if.then23:                                        ; preds = %while.body20
  store i1 true, i1* %retval, align 1, !dbg !2365
  br label %return, !dbg !2365

if.end24:                                         ; preds = %while.body20
  %call25 = call dereferenceable(8) %"class.xalanc_1_10::ReusableArenaBlock"** @_ZNK11xalanc_1_1021XalanListIteratorBaseINS_28XalanListConstIteratorTraitsIPNS_18ReusableArenaBlockINS_15XResultTreeFragEtEEEENS_9XalanListIS5_E4NodeEEdeEv(%"struct.xalanc_1_10::XalanListIteratorBase.0"* %iTerator), !dbg !2367
  %14 = load %"class.xalanc_1_10::ReusableArenaBlock"*, %"class.xalanc_1_10::ReusableArenaBlock"** %call25, align 8, !dbg !2367
  %call26 = call dereferenceable(8) %"class.xalanc_1_10::ReusableArenaBlock"** @_ZNKSt16reverse_iteratorIN11xalanc_1_1021XalanListIteratorBaseINS0_28XalanListConstIteratorTraitsIPNS0_18ReusableArenaBlockINS0_15XResultTreeFragEtEEEENS0_9XalanListIS6_E4NodeEEEEdeEv(%"class.std::reverse_iterator"* %rIterator), !dbg !2369
  %15 = load %"class.xalanc_1_10::ReusableArenaBlock"*, %"class.xalanc_1_10::ReusableArenaBlock"** %call26, align 8, !dbg !2369
  %cmp = icmp eq %"class.xalanc_1_10::ReusableArenaBlock"* %14, %15, !dbg !2370
  br i1 %cmp, label %if.then27, label %if.else, !dbg !2371

if.then27:                                        ; preds = %if.end24
  br label %while.end30, !dbg !2372

if.else:                                          ; preds = %if.end24
  %call28 = call dereferenceable(8) %"class.std::reverse_iterator"* @_ZNSt16reverse_iteratorIN11xalanc_1_1021XalanListIteratorBaseINS0_28XalanListConstIteratorTraitsIPNS0_18ReusableArenaBlockINS0_15XResultTreeFragEtEEEENS0_9XalanListIS6_E4NodeEEEEppEv(%"class.std::reverse_iterator"* %rIterator), !dbg !2374
  br label %if.end29

if.end29:                                         ; preds = %if.else
  br label %while.cond18, !dbg !2357, !llvm.loop !2376

while.end30:                                      ; preds = %if.then27, %while.cond18
  store i1 false, i1* %retval, align 1, !dbg !2378
  br label %return, !dbg !2378

return:                                           ; preds = %while.end30, %if.then23, %if.then12, %if.then
  %16 = load i1, i1* %retval, align 1, !dbg !2379
  ret i1 %16, !dbg !2379
}

; Function Attrs: noinline nounwind uwtable
define linkonce_odr dso_local void @_ZN11xalanc_1_109XalanListIPNS_18ReusableArenaBlockINS_15XResultTreeFragEtEEEC2ERN11xercesc_2_713MemoryManagerE(%"class.xalanc_1_10::XalanList"* %this, %"class.xercesc_2_7::MemoryManager"* dereferenceable(8) %theManager) unnamed_addr #2 comdat align 2 !dbg !2380 {
entry:
  %this.addr = alloca %"class.xalanc_1_10::XalanList"*, align 8
  %theManager.addr = alloca %"class.xercesc_2_7::MemoryManager"*, align 8
  store %"class.xalanc_1_10::XalanList"* %this, %"class.xalanc_1_10::XalanList"** %this.addr, align 8
  call void @llvm.dbg.declare(metadata %"class.xalanc_1_10::XalanList"** %this.addr, metadata !2381, metadata !DIExpression()), !dbg !2382
  store %"class.xercesc_2_7::MemoryManager"* %theManager, %"class.xercesc_2_7::MemoryManager"** %theManager.addr, align 8
  call void @llvm.dbg.declare(metadata %"class.xercesc_2_7::MemoryManager"** %theManager.addr, metadata !2383, metadata !DIExpression()), !dbg !2384
  %this1 = load %"class.xalanc_1_10::XalanList"*, %"class.xalanc_1_10::XalanList"** %this.addr, align 8
  %m_memoryManager = getelementptr inbounds %"class.xalanc_1_10::XalanList", %"class.xalanc_1_10::XalanList"* %this1, i32 0, i32 0, !dbg !2385
  %0 = load %"class.xercesc_2_7::MemoryManager"*, %"class.xercesc_2_7::MemoryManager"** %theManager.addr, align 8, !dbg !2386
  store %"class.xercesc_2_7::MemoryManager"* %0, %"class.xercesc_2_7::MemoryManager"** %m_memoryManager, align 8, !dbg !2385
  %m_listHead = getelementptr inbounds %"class.xalanc_1_10::XalanList", %"class.xalanc_1_10::XalanList"* %this1, i32 0, i32 1, !dbg !2387
  store %"struct.xalanc_1_10::XalanList<xalanc_1_10::ReusableArenaBlock<xalanc_1_10::XResultTreeFrag, unsigned short> *>::Node"* null, %"struct.xalanc_1_10::XalanList<xalanc_1_10::ReusableArenaBlock<xalanc_1_10::XResultTreeFrag, unsigned short> *>::Node"** %m_listHead, align 8, !dbg !2387
  %m_freeListHeadPtr = getelementptr inbounds %"class.xalanc_1_10::XalanList", %"class.xalanc_1_10::XalanList"* %this1, i32 0, i32 2, !dbg !2388
  store %"struct.xalanc_1_10::XalanList<xalanc_1_10::ReusableArenaBlock<xalanc_1_10::XResultTreeFrag, unsigned short> *>::Node"* null, %"struct.xalanc_1_10::XalanList<xalanc_1_10::ReusableArenaBlock<xalanc_1_10::XResultTreeFrag, unsigned short> *>::Node"** %m_freeListHeadPtr, align 8, !dbg !2388
  ret void, !dbg !2389
}

; Function Attrs: noinline nounwind uwtable
define linkonce_odr dso_local void @_ZN11xalanc_1_1014ArenaAllocatorINS_15XResultTreeFragENS_18ReusableArenaBlockIS1_tEEED2Ev(%"class.xalanc_1_10::ArenaAllocator"* %this) unnamed_addr #2 comdat align 2 personality i8* bitcast (i32 (...)* @__gxx_personality_v0 to i8*) !dbg !2390 {
entry:
  %this.addr = alloca %"class.xalanc_1_10::ArenaAllocator"*, align 8
  %exn.slot = alloca i8*
  %ehselector.slot = alloca i32
  store %"class.xalanc_1_10::ArenaAllocator"* %this, %"class.xalanc_1_10::ArenaAllocator"** %this.addr, align 8
  call void @llvm.dbg.declare(metadata %"class.xalanc_1_10::ArenaAllocator"** %this.addr, metadata !2391, metadata !DIExpression()), !dbg !2392
  %this1 = load %"class.xalanc_1_10::ArenaAllocator"*, %"class.xalanc_1_10::ArenaAllocator"** %this.addr, align 8
  %0 = bitcast %"class.xalanc_1_10::ArenaAllocator"* %this1 to i32 (...)***, !dbg !2393
  store i32 (...)** bitcast (i8** getelementptr inbounds ({ [8 x i8*] }, { [8 x i8*] }* @_ZTVN11xalanc_1_1014ArenaAllocatorINS_15XResultTreeFragENS_18ReusableArenaBlockIS1_tEEEE, i32 0, inrange i32 0, i32 2) to i32 (...)**), i32 (...)*** %0, align 8, !dbg !2393
  %1 = bitcast %"class.xalanc_1_10::ArenaAllocator"* %this1 to void (%"class.xalanc_1_10::ArenaAllocator"*)***, !dbg !2394
  %vtable = load void (%"class.xalanc_1_10::ArenaAllocator"*)**, void (%"class.xalanc_1_10::ArenaAllocator"*)*** %1, align 8, !dbg !2394
  %vfn = getelementptr inbounds void (%"class.xalanc_1_10::ArenaAllocator"*)*, void (%"class.xalanc_1_10::ArenaAllocator"*)** %vtable, i64 5, !dbg !2394
  %2 = load void (%"class.xalanc_1_10::ArenaAllocator"*)*, void (%"class.xalanc_1_10::ArenaAllocator"*)** %vfn, align 8, !dbg !2394
  invoke void %2(%"class.xalanc_1_10::ArenaAllocator"* %this1)
          to label %invoke.cont unwind label %lpad, !dbg !2394

invoke.cont:                                      ; preds = %entry
  %m_blocks = getelementptr inbounds %"class.xalanc_1_10::ArenaAllocator", %"class.xalanc_1_10::ArenaAllocator"* %this1, i32 0, i32 2, !dbg !2396
  call void @_ZN11xalanc_1_109XalanListIPNS_18ReusableArenaBlockINS_15XResultTreeFragEtEEED2Ev(%"class.xalanc_1_10::XalanList"* %m_blocks) #7, !dbg !2396
  ret void, !dbg !2397

lpad:                                             ; preds = %entry
  %3 = landingpad { i8*, i32 }
          catch i8* null, !dbg !2396
  %4 = extractvalue { i8*, i32 } %3, 0, !dbg !2396
  store i8* %4, i8** %exn.slot, align 8, !dbg !2396
  %5 = extractvalue { i8*, i32 } %3, 1, !dbg !2396
  store i32 %5, i32* %ehselector.slot, align 4, !dbg !2396
  %m_blocks2 = getelementptr inbounds %"class.xalanc_1_10::ArenaAllocator", %"class.xalanc_1_10::ArenaAllocator"* %this1, i32 0, i32 2, !dbg !2396
  call void @_ZN11xalanc_1_109XalanListIPNS_18ReusableArenaBlockINS_15XResultTreeFragEtEEED2Ev(%"class.xalanc_1_10::XalanList"* %m_blocks2) #7, !dbg !2396
  br label %terminate.handler, !dbg !2396

terminate.handler:                                ; preds = %lpad
  %exn = load i8*, i8** %exn.slot, align 8, !dbg !2396
  call void @__clang_call_terminate(i8* %exn) #9, !dbg !2396
  unreachable, !dbg !2396
}

; Function Attrs: noinline nounwind uwtable
define linkonce_odr dso_local void @_ZN11xalanc_1_1014ArenaAllocatorINS_15XResultTreeFragENS_18ReusableArenaBlockIS1_tEEED0Ev(%"class.xalanc_1_10::ArenaAllocator"* %this) unnamed_addr #2 comdat align 2 !dbg !2398 {
entry:
  %this.addr = alloca %"class.xalanc_1_10::ArenaAllocator"*, align 8
  store %"class.xalanc_1_10::ArenaAllocator"* %this, %"class.xalanc_1_10::ArenaAllocator"** %this.addr, align 8
  call void @llvm.dbg.declare(metadata %"class.xalanc_1_10::ArenaAllocator"** %this.addr, metadata !2399, metadata !DIExpression()), !dbg !2400
  %this1 = load %"class.xalanc_1_10::ArenaAllocator"*, %"class.xalanc_1_10::ArenaAllocator"** %this.addr, align 8
  call void @_ZN11xalanc_1_1014ArenaAllocatorINS_15XResultTreeFragENS_18ReusableArenaBlockIS1_tEEED2Ev(%"class.xalanc_1_10::ArenaAllocator"* %this1) #7, !dbg !2401
  %0 = bitcast %"class.xalanc_1_10::ArenaAllocator"* %this1 to i8*, !dbg !2401
  call void @_ZdlPv(i8* %0) #8, !dbg !2401
  ret void, !dbg !2402
}

; Function Attrs: noinline uwtable
define linkonce_odr dso_local %"class.xalanc_1_10::XResultTreeFrag"* @_ZN11xalanc_1_1014ArenaAllocatorINS_15XResultTreeFragENS_18ReusableArenaBlockIS1_tEEE13allocateBlockEv(%"class.xalanc_1_10::ArenaAllocator"* %this) unnamed_addr #0 comdat align 2 !dbg !2403 {
entry:
  %this.addr = alloca %"class.xalanc_1_10::ArenaAllocator"*, align 8
  %ref.tmp = alloca %"class.xalanc_1_10::ReusableArenaBlock"*, align 8
  store %"class.xalanc_1_10::ArenaAllocator"* %this, %"class.xalanc_1_10::ArenaAllocator"** %this.addr, align 8
  call void @llvm.dbg.declare(metadata %"class.xalanc_1_10::ArenaAllocator"** %this.addr, metadata !2404, metadata !DIExpression()), !dbg !2405
  %this1 = load %"class.xalanc_1_10::ArenaAllocator"*, %"class.xalanc_1_10::ArenaAllocator"** %this.addr, align 8
  %m_blocks = getelementptr inbounds %"class.xalanc_1_10::ArenaAllocator", %"class.xalanc_1_10::ArenaAllocator"* %this1, i32 0, i32 2, !dbg !2406
  %call = call zeroext i1 @_ZNK11xalanc_1_109XalanListIPNS_18ReusableArenaBlockINS_15XResultTreeFragEtEEE5emptyEv(%"class.xalanc_1_10::XalanList"* %m_blocks), !dbg !2408
  %conv = zext i1 %call to i32, !dbg !2406
  %cmp = icmp eq i32 %conv, 1, !dbg !2409
  br i1 %cmp, label %if.then, label %lor.lhs.false, !dbg !2410

lor.lhs.false:                                    ; preds = %entry
  %m_blocks2 = getelementptr inbounds %"class.xalanc_1_10::ArenaAllocator", %"class.xalanc_1_10::ArenaAllocator"* %this1, i32 0, i32 2, !dbg !2411
  %call3 = call dereferenceable(8) %"class.xalanc_1_10::ReusableArenaBlock"** @_ZN11xalanc_1_109XalanListIPNS_18ReusableArenaBlockINS_15XResultTreeFragEtEEE4backEv(%"class.xalanc_1_10::XalanList"* %m_blocks2), !dbg !2412
  %0 = load %"class.xalanc_1_10::ReusableArenaBlock"*, %"class.xalanc_1_10::ReusableArenaBlock"** %call3, align 8, !dbg !2412
  %1 = bitcast %"class.xalanc_1_10::ReusableArenaBlock"* %0 to %"class.xalanc_1_10::ArenaBlockBase"*, !dbg !2413
  %call4 = call zeroext i1 @_ZNK11xalanc_1_1014ArenaBlockBaseINS_15XResultTreeFragEtE14blockAvailableEv(%"class.xalanc_1_10::ArenaBlockBase"* %1), !dbg !2413
  %conv5 = zext i1 %call4 to i32, !dbg !2411
  %cmp6 = icmp eq i32 %conv5, 0, !dbg !2414
  br i1 %cmp6, label %if.then, label %if.end, !dbg !2415

if.then:                                          ; preds = %lor.lhs.false, %entry
  %m_blocks7 = getelementptr inbounds %"class.xalanc_1_10::ArenaAllocator", %"class.xalanc_1_10::ArenaAllocator"* %this1, i32 0, i32 2, !dbg !2416
  %call8 = call dereferenceable(8) %"class.xercesc_2_7::MemoryManager"* @_ZN11xalanc_1_1014ArenaAllocatorINS_15XResultTreeFragENS_18ReusableArenaBlockIS1_tEEE16getMemoryManagerEv(%"class.xalanc_1_10::ArenaAllocator"* %this1), !dbg !2418
  %m_blockSize = getelementptr inbounds %"class.xalanc_1_10::ArenaAllocator", %"class.xalanc_1_10::ArenaAllocator"* %this1, i32 0, i32 1, !dbg !2419
  %2 = load i16, i16* %m_blockSize, align 8, !dbg !2419
  %call9 = call %"class.xalanc_1_10::ReusableArenaBlock"* @_ZN11xalanc_1_1018ReusableArenaBlockINS_15XResultTreeFragEtE6createERN11xercesc_2_713MemoryManagerEt(%"class.xercesc_2_7::MemoryManager"* dereferenceable(8) %call8, i16 zeroext %2), !dbg !2420
  store %"class.xalanc_1_10::ReusableArenaBlock"* %call9, %"class.xalanc_1_10::ReusableArenaBlock"** %ref.tmp, align 8, !dbg !2420
  call void @_ZN11xalanc_1_109XalanListIPNS_18ReusableArenaBlockINS_15XResultTreeFragEtEEE9push_backERKS4_(%"class.xalanc_1_10::XalanList"* %m_blocks7, %"class.xalanc_1_10::ReusableArenaBlock"** dereferenceable(8) %ref.tmp), !dbg !2421
  br label %if.end, !dbg !2422

if.end:                                           ; preds = %if.then, %lor.lhs.false
  %m_blocks10 = getelementptr inbounds %"class.xalanc_1_10::ArenaAllocator", %"class.xalanc_1_10::ArenaAllocator"* %this1, i32 0, i32 2, !dbg !2423
  %call11 = call dereferenceable(8) %"class.xalanc_1_10::ReusableArenaBlock"** @_ZN11xalanc_1_109XalanListIPNS_18ReusableArenaBlockINS_15XResultTreeFragEtEEE4backEv(%"class.xalanc_1_10::XalanList"* %m_blocks10), !dbg !2424
  %3 = load %"class.xalanc_1_10::ReusableArenaBlock"*, %"class.xalanc_1_10::ReusableArenaBlock"** %call11, align 8, !dbg !2424
  %call12 = call %"class.xalanc_1_10::XResultTreeFrag"* @_ZN11xalanc_1_1018ReusableArenaBlockINS_15XResultTreeFragEtE13allocateBlockEv(%"class.xalanc_1_10::ReusableArenaBlock"* %3), !dbg !2425
  ret %"class.xalanc_1_10::XResultTreeFrag"* %call12, !dbg !2426
}

; Function Attrs: noinline uwtable
define linkonce_odr dso_local void @_ZN11xalanc_1_1014ArenaAllocatorINS_15XResultTreeFragENS_18ReusableArenaBlockIS1_tEEE16commitAllocationEPS1_(%"class.xalanc_1_10::ArenaAllocator"* %this, %"class.xalanc_1_10::XResultTreeFrag"* %theObject) unnamed_addr #0 comdat align 2 !dbg !2427 {
entry:
  %this.addr = alloca %"class.xalanc_1_10::ArenaAllocator"*, align 8
  %theObject.addr = alloca %"class.xalanc_1_10::XResultTreeFrag"*, align 8
  store %"class.xalanc_1_10::ArenaAllocator"* %this, %"class.xalanc_1_10::ArenaAllocator"** %this.addr, align 8
  call void @llvm.dbg.declare(metadata %"class.xalanc_1_10::ArenaAllocator"** %this.addr, metadata !2428, metadata !DIExpression()), !dbg !2429
  store %"class.xalanc_1_10::XResultTreeFrag"* %theObject, %"class.xalanc_1_10::XResultTreeFrag"** %theObject.addr, align 8
  call void @llvm.dbg.declare(metadata %"class.xalanc_1_10::XResultTreeFrag"** %theObject.addr, metadata !2430, metadata !DIExpression()), !dbg !2431
  %this1 = load %"class.xalanc_1_10::ArenaAllocator"*, %"class.xalanc_1_10::ArenaAllocator"** %this.addr, align 8
  %m_blocks = getelementptr inbounds %"class.xalanc_1_10::ArenaAllocator", %"class.xalanc_1_10::ArenaAllocator"* %this1, i32 0, i32 2, !dbg !2432
  %call = call dereferenceable(8) %"class.xalanc_1_10::ReusableArenaBlock"** @_ZN11xalanc_1_109XalanListIPNS_18ReusableArenaBlockINS_15XResultTreeFragEtEEE4backEv(%"class.xalanc_1_10::XalanList"* %m_blocks), !dbg !2433
  %0 = load %"class.xalanc_1_10::ReusableArenaBlock"*, %"class.xalanc_1_10::ReusableArenaBlock"** %call, align 8, !dbg !2433
  %1 = load %"class.xalanc_1_10::XResultTreeFrag"*, %"class.xalanc_1_10::XResultTreeFrag"** %theObject.addr, align 8, !dbg !2434
  call void @_ZN11xalanc_1_1018ReusableArenaBlockINS_15XResultTreeFragEtE16commitAllocationEPS1_(%"class.xalanc_1_10::ReusableArenaBlock"* %0, %"class.xalanc_1_10::XResultTreeFrag"* %1), !dbg !2435
  ret void, !dbg !2436
}

; Function Attrs: noinline uwtable
define linkonce_odr dso_local zeroext i1 @_ZNK11xalanc_1_1014ArenaAllocatorINS_15XResultTreeFragENS_18ReusableArenaBlockIS1_tEEE10ownsObjectEPKS1_(%"class.xalanc_1_10::ArenaAllocator"* %this, %"class.xalanc_1_10::XResultTreeFrag"* %theObject) unnamed_addr #0 comdat align 2 !dbg !2437 {
entry:
  %this.addr = alloca %"class.xalanc_1_10::ArenaAllocator"*, align 8
  %theObject.addr = alloca %"class.xalanc_1_10::XResultTreeFrag"*, align 8
  %fResult = alloca i8, align 1
  %theEnd = alloca %"class.std::reverse_iterator", align 8
  %i = alloca %"class.std::reverse_iterator", align 8
  store %"class.xalanc_1_10::ArenaAllocator"* %this, %"class.xalanc_1_10::ArenaAllocator"** %this.addr, align 8
  call void @llvm.dbg.declare(metadata %"class.xalanc_1_10::ArenaAllocator"** %this.addr, metadata !2438, metadata !DIExpression()), !dbg !2440
  store %"class.xalanc_1_10::XResultTreeFrag"* %theObject, %"class.xalanc_1_10::XResultTreeFrag"** %theObject.addr, align 8
  call void @llvm.dbg.declare(metadata %"class.xalanc_1_10::XResultTreeFrag"** %theObject.addr, metadata !2441, metadata !DIExpression()), !dbg !2442
  %this1 = load %"class.xalanc_1_10::ArenaAllocator"*, %"class.xalanc_1_10::ArenaAllocator"** %this.addr, align 8
  call void @llvm.dbg.declare(metadata i8* %fResult, metadata !2443, metadata !DIExpression()), !dbg !2444
  store i8 0, i8* %fResult, align 1, !dbg !2444
  call void @llvm.dbg.declare(metadata %"class.std::reverse_iterator"* %theEnd, metadata !2445, metadata !DIExpression()), !dbg !2448
  %m_blocks = getelementptr inbounds %"class.xalanc_1_10::ArenaAllocator", %"class.xalanc_1_10::ArenaAllocator"* %this1, i32 0, i32 2, !dbg !2449
  call void @_ZNK11xalanc_1_109XalanListIPNS_18ReusableArenaBlockINS_15XResultTreeFragEtEEE4rendEv(%"class.std::reverse_iterator"* sret %theEnd, %"class.xalanc_1_10::XalanList"* %m_blocks), !dbg !2450
  call void @llvm.dbg.declare(metadata %"class.std::reverse_iterator"* %i, metadata !2451, metadata !DIExpression()), !dbg !2452
  %m_blocks2 = getelementptr inbounds %"class.xalanc_1_10::ArenaAllocator", %"class.xalanc_1_10::ArenaAllocator"* %this1, i32 0, i32 2, !dbg !2453
  call void @_ZNK11xalanc_1_109XalanListIPNS_18ReusableArenaBlockINS_15XResultTreeFragEtEEE6rbeginEv(%"class.std::reverse_iterator"* sret %i, %"class.xalanc_1_10::XalanList"* %m_blocks2), !dbg !2454
  br label %while.cond, !dbg !2455

while.cond:                                       ; preds = %if.end, %entry
  %call = call zeroext i1 @_ZStneIN11xalanc_1_1021XalanListIteratorBaseINS0_28XalanListConstIteratorTraitsIPNS0_18ReusableArenaBlockINS0_15XResultTreeFragEtEEEENS0_9XalanListIS6_E4NodeEEEEbRKSt16reverse_iteratorIT_ESG_(%"class.std::reverse_iterator"* dereferenceable(8) %i, %"class.std::reverse_iterator"* dereferenceable(8) %theEnd), !dbg !2456
  br i1 %call, label %while.body, label %while.end, !dbg !2455

while.body:                                       ; preds = %while.cond
  %call3 = call dereferenceable(8) %"class.xalanc_1_10::ReusableArenaBlock"** @_ZNKSt16reverse_iteratorIN11xalanc_1_1021XalanListIteratorBaseINS0_28XalanListConstIteratorTraitsIPNS0_18ReusableArenaBlockINS0_15XResultTreeFragEtEEEENS0_9XalanListIS6_E4NodeEEEEdeEv(%"class.std::reverse_iterator"* %i), !dbg !2457
  %0 = load %"class.xalanc_1_10::ReusableArenaBlock"*, %"class.xalanc_1_10::ReusableArenaBlock"** %call3, align 8, !dbg !2457
  %1 = load %"class.xalanc_1_10::XResultTreeFrag"*, %"class.xalanc_1_10::XResultTreeFrag"** %theObject.addr, align 8, !dbg !2460
  %call4 = call zeroext i1 @_ZNK11xalanc_1_1018ReusableArenaBlockINS_15XResultTreeFragEtE10ownsObjectEPKS1_(%"class.xalanc_1_10::ReusableArenaBlock"* %0, %"class.xalanc_1_10::XResultTreeFrag"* %1), !dbg !2461
  %conv = zext i1 %call4 to i32, !dbg !2462
  %cmp = icmp eq i32 %conv, 1, !dbg !2463
  br i1 %cmp, label %if.then, label %if.else, !dbg !2464

if.then:                                          ; preds = %while.body
  store i8 1, i8* %fResult, align 1, !dbg !2465
  br label %while.end, !dbg !2467

if.else:                                          ; preds = %while.body
  %call5 = call dereferenceable(8) %"class.std::reverse_iterator"* @_ZNSt16reverse_iteratorIN11xalanc_1_1021XalanListIteratorBaseINS0_28XalanListConstIteratorTraitsIPNS0_18ReusableArenaBlockINS0_15XResultTreeFragEtEEEENS0_9XalanListIS6_E4NodeEEEEppEv(%"class.std::reverse_iterator"* %i), !dbg !2468
  br label %if.end

if.end:                                           ; preds = %if.else
  br label %while.cond, !dbg !2455, !llvm.loop !2470

while.end:                                        ; preds = %if.then, %while.cond
  %2 = load i8, i8* %fResult, align 1, !dbg !2472
  %tobool = trunc i8 %2 to i1, !dbg !2472
  ret i1 %tobool, !dbg !2473
}

declare dso_local i32 @__gxx_personality_v0(...)

; Function Attrs: noinline nounwind uwtable
define linkonce_odr dso_local void @_ZN11xalanc_1_109XalanListIPNS_18ReusableArenaBlockINS_15XResultTreeFragEtEEED2Ev(%"class.xalanc_1_10::XalanList"* %this) unnamed_addr #2 comdat align 2 personality i8* bitcast (i32 (...)* @__gxx_personality_v0 to i8*) !dbg !2474 {
entry:
  %this.addr = alloca %"class.xalanc_1_10::XalanList"*, align 8
  %pos = alloca %"struct.xalanc_1_10::XalanListIteratorBase", align 8
  %ref.tmp = alloca %"struct.xalanc_1_10::XalanListIteratorBase", align 8
  %ref.tmp4 = alloca %"struct.xalanc_1_10::XalanListIteratorBase", align 8
  %freeNode = alloca %"struct.xalanc_1_10::XalanList<xalanc_1_10::ReusableArenaBlock<xalanc_1_10::XResultTreeFrag, unsigned short> *>::Node"*, align 8
  %nextNode = alloca %"struct.xalanc_1_10::XalanList<xalanc_1_10::ReusableArenaBlock<xalanc_1_10::XResultTreeFrag, unsigned short> *>::Node"*, align 8
  store %"class.xalanc_1_10::XalanList"* %this, %"class.xalanc_1_10::XalanList"** %this.addr, align 8
  call void @llvm.dbg.declare(metadata %"class.xalanc_1_10::XalanList"** %this.addr, metadata !2475, metadata !DIExpression()), !dbg !2476
  %this1 = load %"class.xalanc_1_10::XalanList"*, %"class.xalanc_1_10::XalanList"** %this.addr, align 8
  %m_listHead = getelementptr inbounds %"class.xalanc_1_10::XalanList", %"class.xalanc_1_10::XalanList"* %this1, i32 0, i32 1, !dbg !2477
  %0 = load %"struct.xalanc_1_10::XalanList<xalanc_1_10::ReusableArenaBlock<xalanc_1_10::XResultTreeFrag, unsigned short> *>::Node"*, %"struct.xalanc_1_10::XalanList<xalanc_1_10::ReusableArenaBlock<xalanc_1_10::XResultTreeFrag, unsigned short> *>::Node"** %m_listHead, align 8, !dbg !2477
  %cmp = icmp ne %"struct.xalanc_1_10::XalanList<xalanc_1_10::ReusableArenaBlock<xalanc_1_10::XResultTreeFrag, unsigned short> *>::Node"* %0, null, !dbg !2480
  br i1 %cmp, label %if.then, label %if.end, !dbg !2481

if.then:                                          ; preds = %entry
  call void @llvm.dbg.declare(metadata %"struct.xalanc_1_10::XalanListIteratorBase"* %pos, metadata !2482, metadata !DIExpression()), !dbg !2484
  invoke void @_ZN11xalanc_1_109XalanListIPNS_18ReusableArenaBlockINS_15XResultTreeFragEtEEE5beginEv(%"struct.xalanc_1_10::XalanListIteratorBase"* sret %pos, %"class.xalanc_1_10::XalanList"* %this1)
          to label %invoke.cont unwind label %terminate.lpad, !dbg !2485

invoke.cont:                                      ; preds = %if.then
  br label %while.cond, !dbg !2486

while.cond:                                       ; preds = %invoke.cont8, %invoke.cont
  invoke void @_ZN11xalanc_1_109XalanListIPNS_18ReusableArenaBlockINS_15XResultTreeFragEtEEE3endEv(%"struct.xalanc_1_10::XalanListIteratorBase"* sret %ref.tmp, %"class.xalanc_1_10::XalanList"* %this1)
          to label %invoke.cont2 unwind label %terminate.lpad, !dbg !2487

invoke.cont2:                                     ; preds = %while.cond
  %call = invoke zeroext i1 @_ZNK11xalanc_1_1021XalanListIteratorBaseINS_23XalanListIteratorTraitsIPNS_18ReusableArenaBlockINS_15XResultTreeFragEtEEEENS_9XalanListIS5_E4NodeEEneERKSA_(%"struct.xalanc_1_10::XalanListIteratorBase"* %pos, %"struct.xalanc_1_10::XalanListIteratorBase"* dereferenceable(8) %ref.tmp)
          to label %invoke.cont3 unwind label %terminate.lpad, !dbg !2488

invoke.cont3:                                     ; preds = %invoke.cont2
  br i1 %call, label %while.body, label %while.end, !dbg !2486

while.body:                                       ; preds = %invoke.cont3
  invoke void @_ZN11xalanc_1_1021XalanListIteratorBaseINS_23XalanListIteratorTraitsIPNS_18ReusableArenaBlockINS_15XResultTreeFragEtEEEENS_9XalanListIS5_E4NodeEEppEi(%"struct.xalanc_1_10::XalanListIteratorBase"* sret %ref.tmp4, %"struct.xalanc_1_10::XalanListIteratorBase"* %pos, i32 0)
          to label %invoke.cont5 unwind label %terminate.lpad, !dbg !2489

invoke.cont5:                                     ; preds = %while.body
  %call7 = invoke dereferenceable(24) %"struct.xalanc_1_10::XalanList<xalanc_1_10::ReusableArenaBlock<xalanc_1_10::XResultTreeFrag, unsigned short> *>::Node"* @_ZN11xalanc_1_1021XalanListIteratorBaseINS_23XalanListIteratorTraitsIPNS_18ReusableArenaBlockINS_15XResultTreeFragEtEEEENS_9XalanListIS5_E4NodeEE4nodeEv(%"struct.xalanc_1_10::XalanListIteratorBase"* %ref.tmp4)
          to label %invoke.cont6 unwind label %terminate.lpad, !dbg !2491

invoke.cont6:                                     ; preds = %invoke.cont5
  invoke void @_ZN11xalanc_1_109XalanListIPNS_18ReusableArenaBlockINS_15XResultTreeFragEtEEE11destroyNodeERNS5_4NodeE(%"class.xalanc_1_10::XalanList"* %this1, %"struct.xalanc_1_10::XalanList<xalanc_1_10::ReusableArenaBlock<xalanc_1_10::XResultTreeFrag, unsigned short> *>::Node"* dereferenceable(24) %call7)
          to label %invoke.cont8 unwind label %terminate.lpad, !dbg !2492

invoke.cont8:                                     ; preds = %invoke.cont6
  br label %while.cond, !dbg !2486, !llvm.loop !2493

while.end:                                        ; preds = %invoke.cont3
  call void @llvm.dbg.declare(metadata %"struct.xalanc_1_10::XalanList<xalanc_1_10::ReusableArenaBlock<xalanc_1_10::XResultTreeFrag, unsigned short> *>::Node"** %freeNode, metadata !2495, metadata !DIExpression()), !dbg !2496
  %m_freeListHeadPtr = getelementptr inbounds %"class.xalanc_1_10::XalanList", %"class.xalanc_1_10::XalanList"* %this1, i32 0, i32 2, !dbg !2497
  %1 = load %"struct.xalanc_1_10::XalanList<xalanc_1_10::ReusableArenaBlock<xalanc_1_10::XResultTreeFrag, unsigned short> *>::Node"*, %"struct.xalanc_1_10::XalanList<xalanc_1_10::ReusableArenaBlock<xalanc_1_10::XResultTreeFrag, unsigned short> *>::Node"** %m_freeListHeadPtr, align 8, !dbg !2497
  store %"struct.xalanc_1_10::XalanList<xalanc_1_10::ReusableArenaBlock<xalanc_1_10::XResultTreeFrag, unsigned short> *>::Node"* %1, %"struct.xalanc_1_10::XalanList<xalanc_1_10::ReusableArenaBlock<xalanc_1_10::XResultTreeFrag, unsigned short> *>::Node"** %freeNode, align 8, !dbg !2496
  br label %while.cond9, !dbg !2498

while.cond9:                                      ; preds = %invoke.cont12, %while.end
  %2 = load %"struct.xalanc_1_10::XalanList<xalanc_1_10::ReusableArenaBlock<xalanc_1_10::XResultTreeFrag, unsigned short> *>::Node"*, %"struct.xalanc_1_10::XalanList<xalanc_1_10::ReusableArenaBlock<xalanc_1_10::XResultTreeFrag, unsigned short> *>::Node"** %freeNode, align 8, !dbg !2499
  %cmp10 = icmp ne %"struct.xalanc_1_10::XalanList<xalanc_1_10::ReusableArenaBlock<xalanc_1_10::XResultTreeFrag, unsigned short> *>::Node"* %2, null, !dbg !2500
  br i1 %cmp10, label %while.body11, label %while.end13, !dbg !2498

while.body11:                                     ; preds = %while.cond9
  call void @llvm.dbg.declare(metadata %"struct.xalanc_1_10::XalanList<xalanc_1_10::ReusableArenaBlock<xalanc_1_10::XResultTreeFrag, unsigned short> *>::Node"** %nextNode, metadata !2501, metadata !DIExpression()), !dbg !2503
  %3 = load %"struct.xalanc_1_10::XalanList<xalanc_1_10::ReusableArenaBlock<xalanc_1_10::XResultTreeFrag, unsigned short> *>::Node"*, %"struct.xalanc_1_10::XalanList<xalanc_1_10::ReusableArenaBlock<xalanc_1_10::XResultTreeFrag, unsigned short> *>::Node"** %freeNode, align 8, !dbg !2504
  %next = getelementptr inbounds %"struct.xalanc_1_10::XalanList<xalanc_1_10::ReusableArenaBlock<xalanc_1_10::XResultTreeFrag, unsigned short> *>::Node", %"struct.xalanc_1_10::XalanList<xalanc_1_10::ReusableArenaBlock<xalanc_1_10::XResultTreeFrag, unsigned short> *>::Node"* %3, i32 0, i32 2, !dbg !2505
  %4 = load %"struct.xalanc_1_10::XalanList<xalanc_1_10::ReusableArenaBlock<xalanc_1_10::XResultTreeFrag, unsigned short> *>::Node"*, %"struct.xalanc_1_10::XalanList<xalanc_1_10::ReusableArenaBlock<xalanc_1_10::XResultTreeFrag, unsigned short> *>::Node"** %next, align 8, !dbg !2505
  store %"struct.xalanc_1_10::XalanList<xalanc_1_10::ReusableArenaBlock<xalanc_1_10::XResultTreeFrag, unsigned short> *>::Node"* %4, %"struct.xalanc_1_10::XalanList<xalanc_1_10::ReusableArenaBlock<xalanc_1_10::XResultTreeFrag, unsigned short> *>::Node"** %nextNode, align 8, !dbg !2503
  %5 = load %"struct.xalanc_1_10::XalanList<xalanc_1_10::ReusableArenaBlock<xalanc_1_10::XResultTreeFrag, unsigned short> *>::Node"*, %"struct.xalanc_1_10::XalanList<xalanc_1_10::ReusableArenaBlock<xalanc_1_10::XResultTreeFrag, unsigned short> *>::Node"** %freeNode, align 8, !dbg !2506
  invoke void @_ZN11xalanc_1_109XalanListIPNS_18ReusableArenaBlockINS_15XResultTreeFragEtEEE10deallocateEPNS5_4NodeE(%"class.xalanc_1_10::XalanList"* %this1, %"struct.xalanc_1_10::XalanList<xalanc_1_10::ReusableArenaBlock<xalanc_1_10::XResultTreeFrag, unsigned short> *>::Node"* %5)
          to label %invoke.cont12 unwind label %terminate.lpad, !dbg !2507

invoke.cont12:                                    ; preds = %while.body11
  %6 = load %"struct.xalanc_1_10::XalanList<xalanc_1_10::ReusableArenaBlock<xalanc_1_10::XResultTreeFrag, unsigned short> *>::Node"*, %"struct.xalanc_1_10::XalanList<xalanc_1_10::ReusableArenaBlock<xalanc_1_10::XResultTreeFrag, unsigned short> *>::Node"** %nextNode, align 8, !dbg !2508
  store %"struct.xalanc_1_10::XalanList<xalanc_1_10::ReusableArenaBlock<xalanc_1_10::XResultTreeFrag, unsigned short> *>::Node"* %6, %"struct.xalanc_1_10::XalanList<xalanc_1_10::ReusableArenaBlock<xalanc_1_10::XResultTreeFrag, unsigned short> *>::Node"** %freeNode, align 8, !dbg !2509
  br label %while.cond9, !dbg !2498, !llvm.loop !2510

while.end13:                                      ; preds = %while.cond9
  %m_listHead14 = getelementptr inbounds %"class.xalanc_1_10::XalanList", %"class.xalanc_1_10::XalanList"* %this1, i32 0, i32 1, !dbg !2512
  %7 = load %"struct.xalanc_1_10::XalanList<xalanc_1_10::ReusableArenaBlock<xalanc_1_10::XResultTreeFrag, unsigned short> *>::Node"*, %"struct.xalanc_1_10::XalanList<xalanc_1_10::ReusableArenaBlock<xalanc_1_10::XResultTreeFrag, unsigned short> *>::Node"** %m_listHead14, align 8, !dbg !2512
  invoke void @_ZN11xalanc_1_109XalanListIPNS_18ReusableArenaBlockINS_15XResultTreeFragEtEEE10deallocateEPNS5_4NodeE(%"class.xalanc_1_10::XalanList"* %this1, %"struct.xalanc_1_10::XalanList<xalanc_1_10::ReusableArenaBlock<xalanc_1_10::XResultTreeFrag, unsigned short> *>::Node"* %7)
          to label %invoke.cont15 unwind label %terminate.lpad, !dbg !2513

invoke.cont15:                                    ; preds = %while.end13
  br label %if.end, !dbg !2514

if.end:                                           ; preds = %invoke.cont15, %entry
  ret void, !dbg !2515

terminate.lpad:                                   ; preds = %while.end13, %while.body11, %invoke.cont6, %invoke.cont5, %while.body, %invoke.cont2, %while.cond, %if.then
  %8 = landingpad { i8*, i32 }
          catch i8* null, !dbg !2485
  %9 = extractvalue { i8*, i32 } %8, 0, !dbg !2485
  call void @__clang_call_terminate(i8* %9) #9, !dbg !2485
  unreachable, !dbg !2485
}

; Function Attrs: noinline noreturn nounwind
define linkonce_odr hidden void @__clang_call_terminate(i8* %0) #4 comdat {
  %2 = call i8* @__cxa_begin_catch(i8* %0) #7
  call void @_ZSt9terminatev() #9
  unreachable
}

declare dso_local i8* @__cxa_begin_catch(i8*)

declare dso_local void @_ZSt9terminatev()

; Function Attrs: noinline uwtable
define linkonce_odr dso_local void @_ZN11xalanc_1_109XalanListIPNS_18ReusableArenaBlockINS_15XResultTreeFragEtEEE5beginEv(%"struct.xalanc_1_10::XalanListIteratorBase"* noalias sret %agg.result, %"class.xalanc_1_10::XalanList"* %this) #0 comdat align 2 !dbg !2516 {
entry:
  %result.ptr = alloca i8*, align 8
  %this.addr = alloca %"class.xalanc_1_10::XalanList"*, align 8
  %0 = bitcast %"struct.xalanc_1_10::XalanListIteratorBase"* %agg.result to i8*
  store i8* %0, i8** %result.ptr, align 8
  store %"class.xalanc_1_10::XalanList"* %this, %"class.xalanc_1_10::XalanList"** %this.addr, align 8
  call void @llvm.dbg.declare(metadata %"class.xalanc_1_10::XalanList"** %this.addr, metadata !2517, metadata !DIExpression()), !dbg !2518
  %this1 = load %"class.xalanc_1_10::XalanList"*, %"class.xalanc_1_10::XalanList"** %this.addr, align 8
  %call = call dereferenceable(24) %"struct.xalanc_1_10::XalanList<xalanc_1_10::ReusableArenaBlock<xalanc_1_10::XResultTreeFrag, unsigned short> *>::Node"* @_ZN11xalanc_1_109XalanListIPNS_18ReusableArenaBlockINS_15XResultTreeFragEtEEE11getListHeadEv(%"class.xalanc_1_10::XalanList"* %this1), !dbg !2519
  %next = getelementptr inbounds %"struct.xalanc_1_10::XalanList<xalanc_1_10::ReusableArenaBlock<xalanc_1_10::XResultTreeFrag, unsigned short> *>::Node", %"struct.xalanc_1_10::XalanList<xalanc_1_10::ReusableArenaBlock<xalanc_1_10::XResultTreeFrag, unsigned short> *>::Node"* %call, i32 0, i32 2, !dbg !2520
  %1 = load %"struct.xalanc_1_10::XalanList<xalanc_1_10::ReusableArenaBlock<xalanc_1_10::XResultTreeFrag, unsigned short> *>::Node"*, %"struct.xalanc_1_10::XalanList<xalanc_1_10::ReusableArenaBlock<xalanc_1_10::XResultTreeFrag, unsigned short> *>::Node"** %next, align 8, !dbg !2520
  call void @_ZN11xalanc_1_1021XalanListIteratorBaseINS_23XalanListIteratorTraitsIPNS_18ReusableArenaBlockINS_15XResultTreeFragEtEEEENS_9XalanListIS5_E4NodeEEC2ERS9_(%"struct.xalanc_1_10::XalanListIteratorBase"* %agg.result, %"struct.xalanc_1_10::XalanList<xalanc_1_10::ReusableArenaBlock<xalanc_1_10::XResultTreeFrag, unsigned short> *>::Node"* dereferenceable(24) %1), !dbg !2521
  ret void, !dbg !2522
}

; Function Attrs: noinline uwtable
define linkonce_odr dso_local zeroext i1 @_ZNK11xalanc_1_1021XalanListIteratorBaseINS_23XalanListIteratorTraitsIPNS_18ReusableArenaBlockINS_15XResultTreeFragEtEEEENS_9XalanListIS5_E4NodeEEneERKSA_(%"struct.xalanc_1_10::XalanListIteratorBase"* %this, %"struct.xalanc_1_10::XalanListIteratorBase"* dereferenceable(8) %theRhs) #0 comdat align 2 !dbg !2523 {
entry:
  %this.addr = alloca %"struct.xalanc_1_10::XalanListIteratorBase"*, align 8
  %theRhs.addr = alloca %"struct.xalanc_1_10::XalanListIteratorBase"*, align 8
  store %"struct.xalanc_1_10::XalanListIteratorBase"* %this, %"struct.xalanc_1_10::XalanListIteratorBase"** %this.addr, align 8
  call void @llvm.dbg.declare(metadata %"struct.xalanc_1_10::XalanListIteratorBase"** %this.addr, metadata !2524, metadata !DIExpression()), !dbg !2526
  store %"struct.xalanc_1_10::XalanListIteratorBase"* %theRhs, %"struct.xalanc_1_10::XalanListIteratorBase"** %theRhs.addr, align 8
  call void @llvm.dbg.declare(metadata %"struct.xalanc_1_10::XalanListIteratorBase"** %theRhs.addr, metadata !2527, metadata !DIExpression()), !dbg !2528
  %this1 = load %"struct.xalanc_1_10::XalanListIteratorBase"*, %"struct.xalanc_1_10::XalanListIteratorBase"** %this.addr, align 8
  %0 = load %"struct.xalanc_1_10::XalanListIteratorBase"*, %"struct.xalanc_1_10::XalanListIteratorBase"** %theRhs.addr, align 8, !dbg !2529
  %call = call zeroext i1 @_ZNK11xalanc_1_1021XalanListIteratorBaseINS_23XalanListIteratorTraitsIPNS_18ReusableArenaBlockINS_15XResultTreeFragEtEEEENS_9XalanListIS5_E4NodeEEeqERKSA_(%"struct.xalanc_1_10::XalanListIteratorBase"* %this1, %"struct.xalanc_1_10::XalanListIteratorBase"* dereferenceable(8) %0), !dbg !2530
  %lnot = xor i1 %call, true, !dbg !2531
  ret i1 %lnot, !dbg !2532
}

; Function Attrs: noinline uwtable
define linkonce_odr dso_local void @_ZN11xalanc_1_109XalanListIPNS_18ReusableArenaBlockINS_15XResultTreeFragEtEEE3endEv(%"struct.xalanc_1_10::XalanListIteratorBase"* noalias sret %agg.result, %"class.xalanc_1_10::XalanList"* %this) #0 comdat align 2 !dbg !2533 {
entry:
  %result.ptr = alloca i8*, align 8
  %this.addr = alloca %"class.xalanc_1_10::XalanList"*, align 8
  %0 = bitcast %"struct.xalanc_1_10::XalanListIteratorBase"* %agg.result to i8*
  store i8* %0, i8** %result.ptr, align 8
  store %"class.xalanc_1_10::XalanList"* %this, %"class.xalanc_1_10::XalanList"** %this.addr, align 8
  call void @llvm.dbg.declare(metadata %"class.xalanc_1_10::XalanList"** %this.addr, metadata !2534, metadata !DIExpression()), !dbg !2535
  %this1 = load %"class.xalanc_1_10::XalanList"*, %"class.xalanc_1_10::XalanList"** %this.addr, align 8
  %call = call dereferenceable(24) %"struct.xalanc_1_10::XalanList<xalanc_1_10::ReusableArenaBlock<xalanc_1_10::XResultTreeFrag, unsigned short> *>::Node"* @_ZN11xalanc_1_109XalanListIPNS_18ReusableArenaBlockINS_15XResultTreeFragEtEEE11getListHeadEv(%"class.xalanc_1_10::XalanList"* %this1), !dbg !2536
  call void @_ZN11xalanc_1_1021XalanListIteratorBaseINS_23XalanListIteratorTraitsIPNS_18ReusableArenaBlockINS_15XResultTreeFragEtEEEENS_9XalanListIS5_E4NodeEEC2ERS9_(%"struct.xalanc_1_10::XalanListIteratorBase"* %agg.result, %"struct.xalanc_1_10::XalanList<xalanc_1_10::ReusableArenaBlock<xalanc_1_10::XResultTreeFrag, unsigned short> *>::Node"* dereferenceable(24) %call), !dbg !2537
  ret void, !dbg !2538
}

; Function Attrs: noinline uwtable
define linkonce_odr dso_local void @_ZN11xalanc_1_109XalanListIPNS_18ReusableArenaBlockINS_15XResultTreeFragEtEEE11destroyNodeERNS5_4NodeE(%"class.xalanc_1_10::XalanList"* %this, %"struct.xalanc_1_10::XalanList<xalanc_1_10::ReusableArenaBlock<xalanc_1_10::XResultTreeFrag, unsigned short> *>::Node"* dereferenceable(24) %node) #0 comdat align 2 !dbg !2539 {
entry:
  %this.addr = alloca %"class.xalanc_1_10::XalanList"*, align 8
  %node.addr = alloca %"struct.xalanc_1_10::XalanList<xalanc_1_10::ReusableArenaBlock<xalanc_1_10::XResultTreeFrag, unsigned short> *>::Node"*, align 8
  store %"class.xalanc_1_10::XalanList"* %this, %"class.xalanc_1_10::XalanList"** %this.addr, align 8
  call void @llvm.dbg.declare(metadata %"class.xalanc_1_10::XalanList"** %this.addr, metadata !2540, metadata !DIExpression()), !dbg !2541
  store %"struct.xalanc_1_10::XalanList<xalanc_1_10::ReusableArenaBlock<xalanc_1_10::XResultTreeFrag, unsigned short> *>::Node"* %node, %"struct.xalanc_1_10::XalanList<xalanc_1_10::ReusableArenaBlock<xalanc_1_10::XResultTreeFrag, unsigned short> *>::Node"** %node.addr, align 8
  call void @llvm.dbg.declare(metadata %"struct.xalanc_1_10::XalanList<xalanc_1_10::ReusableArenaBlock<xalanc_1_10::XResultTreeFrag, unsigned short> *>::Node"** %node.addr, metadata !2542, metadata !DIExpression()), !dbg !2543
  %this1 = load %"class.xalanc_1_10::XalanList"*, %"class.xalanc_1_10::XalanList"** %this.addr, align 8
  %0 = load %"struct.xalanc_1_10::XalanList<xalanc_1_10::ReusableArenaBlock<xalanc_1_10::XResultTreeFrag, unsigned short> *>::Node"*, %"struct.xalanc_1_10::XalanList<xalanc_1_10::ReusableArenaBlock<xalanc_1_10::XResultTreeFrag, unsigned short> *>::Node"** %node.addr, align 8, !dbg !2544
  %1 = load %"struct.xalanc_1_10::XalanList<xalanc_1_10::ReusableArenaBlock<xalanc_1_10::XResultTreeFrag, unsigned short> *>::Node"*, %"struct.xalanc_1_10::XalanList<xalanc_1_10::ReusableArenaBlock<xalanc_1_10::XResultTreeFrag, unsigned short> *>::Node"** %node.addr, align 8, !dbg !2545
  call void @_ZN11xalanc_1_109XalanListIPNS_18ReusableArenaBlockINS_15XResultTreeFragEtEEE10deallocateEPNS5_4NodeE(%"class.xalanc_1_10::XalanList"* %this1, %"struct.xalanc_1_10::XalanList<xalanc_1_10::ReusableArenaBlock<xalanc_1_10::XResultTreeFrag, unsigned short> *>::Node"* %1), !dbg !2546
  ret void, !dbg !2547
}

; Function Attrs: noinline uwtable
define linkonce_odr dso_local void @_ZN11xalanc_1_1021XalanListIteratorBaseINS_23XalanListIteratorTraitsIPNS_18ReusableArenaBlockINS_15XResultTreeFragEtEEEENS_9XalanListIS5_E4NodeEEppEi(%"struct.xalanc_1_10::XalanListIteratorBase"* noalias sret %agg.result, %"struct.xalanc_1_10::XalanListIteratorBase"* %this, i32 %0) #0 comdat align 2 !dbg !2548 {
entry:
  %result.ptr = alloca i8*, align 8
  %this.addr = alloca %"struct.xalanc_1_10::XalanListIteratorBase"*, align 8
  %.addr = alloca i32, align 4
  %origNode = alloca %"struct.xalanc_1_10::XalanList<xalanc_1_10::ReusableArenaBlock<xalanc_1_10::XResultTreeFrag, unsigned short> *>::Node"*, align 8
  %1 = bitcast %"struct.xalanc_1_10::XalanListIteratorBase"* %agg.result to i8*
  store i8* %1, i8** %result.ptr, align 8
  store %"struct.xalanc_1_10::XalanListIteratorBase"* %this, %"struct.xalanc_1_10::XalanListIteratorBase"** %this.addr, align 8
  call void @llvm.dbg.declare(metadata %"struct.xalanc_1_10::XalanListIteratorBase"** %this.addr, metadata !2549, metadata !DIExpression()), !dbg !2551
  store i32 %0, i32* %.addr, align 4
  call void @llvm.dbg.declare(metadata i32* %.addr, metadata !2552, metadata !DIExpression()), !dbg !2553
  %this1 = load %"struct.xalanc_1_10::XalanListIteratorBase"*, %"struct.xalanc_1_10::XalanListIteratorBase"** %this.addr, align 8
  call void @llvm.dbg.declare(metadata %"struct.xalanc_1_10::XalanList<xalanc_1_10::ReusableArenaBlock<xalanc_1_10::XResultTreeFrag, unsigned short> *>::Node"** %origNode, metadata !2554, metadata !DIExpression()), !dbg !2555
  %currentNode = getelementptr inbounds %"struct.xalanc_1_10::XalanListIteratorBase", %"struct.xalanc_1_10::XalanListIteratorBase"* %this1, i32 0, i32 0, !dbg !2556
  %2 = load %"struct.xalanc_1_10::XalanList<xalanc_1_10::ReusableArenaBlock<xalanc_1_10::XResultTreeFrag, unsigned short> *>::Node"*, %"struct.xalanc_1_10::XalanList<xalanc_1_10::ReusableArenaBlock<xalanc_1_10::XResultTreeFrag, unsigned short> *>::Node"** %currentNode, align 8, !dbg !2556
  store %"struct.xalanc_1_10::XalanList<xalanc_1_10::ReusableArenaBlock<xalanc_1_10::XResultTreeFrag, unsigned short> *>::Node"* %2, %"struct.xalanc_1_10::XalanList<xalanc_1_10::ReusableArenaBlock<xalanc_1_10::XResultTreeFrag, unsigned short> *>::Node"** %origNode, align 8, !dbg !2555
  %currentNode2 = getelementptr inbounds %"struct.xalanc_1_10::XalanListIteratorBase", %"struct.xalanc_1_10::XalanListIteratorBase"* %this1, i32 0, i32 0, !dbg !2557
  %3 = load %"struct.xalanc_1_10::XalanList<xalanc_1_10::ReusableArenaBlock<xalanc_1_10::XResultTreeFrag, unsigned short> *>::Node"*, %"struct.xalanc_1_10::XalanList<xalanc_1_10::ReusableArenaBlock<xalanc_1_10::XResultTreeFrag, unsigned short> *>::Node"** %currentNode2, align 8, !dbg !2557
  %next = getelementptr inbounds %"struct.xalanc_1_10::XalanList<xalanc_1_10::ReusableArenaBlock<xalanc_1_10::XResultTreeFrag, unsigned short> *>::Node", %"struct.xalanc_1_10::XalanList<xalanc_1_10::ReusableArenaBlock<xalanc_1_10::XResultTreeFrag, unsigned short> *>::Node"* %3, i32 0, i32 2, !dbg !2558
  %4 = load %"struct.xalanc_1_10::XalanList<xalanc_1_10::ReusableArenaBlock<xalanc_1_10::XResultTreeFrag, unsigned short> *>::Node"*, %"struct.xalanc_1_10::XalanList<xalanc_1_10::ReusableArenaBlock<xalanc_1_10::XResultTreeFrag, unsigned short> *>::Node"** %next, align 8, !dbg !2558
  %currentNode3 = getelementptr inbounds %"struct.xalanc_1_10::XalanListIteratorBase", %"struct.xalanc_1_10::XalanListIteratorBase"* %this1, i32 0, i32 0, !dbg !2559
  store %"struct.xalanc_1_10::XalanList<xalanc_1_10::ReusableArenaBlock<xalanc_1_10::XResultTreeFrag, unsigned short> *>::Node"* %4, %"struct.xalanc_1_10::XalanList<xalanc_1_10::ReusableArenaBlock<xalanc_1_10::XResultTreeFrag, unsigned short> *>::Node"** %currentNode3, align 8, !dbg !2560
  %5 = load %"struct.xalanc_1_10::XalanList<xalanc_1_10::ReusableArenaBlock<xalanc_1_10::XResultTreeFrag, unsigned short> *>::Node"*, %"struct.xalanc_1_10::XalanList<xalanc_1_10::ReusableArenaBlock<xalanc_1_10::XResultTreeFrag, unsigned short> *>::Node"** %origNode, align 8, !dbg !2561
  call void @_ZN11xalanc_1_1021XalanListIteratorBaseINS_23XalanListIteratorTraitsIPNS_18ReusableArenaBlockINS_15XResultTreeFragEtEEEENS_9XalanListIS5_E4NodeEEC2ERS9_(%"struct.xalanc_1_10::XalanListIteratorBase"* %agg.result, %"struct.xalanc_1_10::XalanList<xalanc_1_10::ReusableArenaBlock<xalanc_1_10::XResultTreeFrag, unsigned short> *>::Node"* dereferenceable(24) %5), !dbg !2562
  ret void, !dbg !2563
}

; Function Attrs: noinline nounwind uwtable
define linkonce_odr dso_local dereferenceable(24) %"struct.xalanc_1_10::XalanList<xalanc_1_10::ReusableArenaBlock<xalanc_1_10::XResultTreeFrag, unsigned short> *>::Node"* @_ZN11xalanc_1_1021XalanListIteratorBaseINS_23XalanListIteratorTraitsIPNS_18ReusableArenaBlockINS_15XResultTreeFragEtEEEENS_9XalanListIS5_E4NodeEE4nodeEv(%"struct.xalanc_1_10::XalanListIteratorBase"* %this) #2 comdat align 2 !dbg !2564 {
entry:
  %this.addr = alloca %"struct.xalanc_1_10::XalanListIteratorBase"*, align 8
  store %"struct.xalanc_1_10::XalanListIteratorBase"* %this, %"struct.xalanc_1_10::XalanListIteratorBase"** %this.addr, align 8
  call void @llvm.dbg.declare(metadata %"struct.xalanc_1_10::XalanListIteratorBase"** %this.addr, metadata !2565, metadata !DIExpression()), !dbg !2566
  %this1 = load %"struct.xalanc_1_10::XalanListIteratorBase"*, %"struct.xalanc_1_10::XalanListIteratorBase"** %this.addr, align 8
  %currentNode = getelementptr inbounds %"struct.xalanc_1_10::XalanListIteratorBase", %"struct.xalanc_1_10::XalanListIteratorBase"* %this1, i32 0, i32 0, !dbg !2567
  %0 = load %"struct.xalanc_1_10::XalanList<xalanc_1_10::ReusableArenaBlock<xalanc_1_10::XResultTreeFrag, unsigned short> *>::Node"*, %"struct.xalanc_1_10::XalanList<xalanc_1_10::ReusableArenaBlock<xalanc_1_10::XResultTreeFrag, unsigned short> *>::Node"** %currentNode, align 8, !dbg !2567
  ret %"struct.xalanc_1_10::XalanList<xalanc_1_10::ReusableArenaBlock<xalanc_1_10::XResultTreeFrag, unsigned short> *>::Node"* %0, !dbg !2568
}

; Function Attrs: noinline uwtable
define linkonce_odr dso_local void @_ZN11xalanc_1_109XalanListIPNS_18ReusableArenaBlockINS_15XResultTreeFragEtEEE10deallocateEPNS5_4NodeE(%"class.xalanc_1_10::XalanList"* %this, %"struct.xalanc_1_10::XalanList<xalanc_1_10::ReusableArenaBlock<xalanc_1_10::XResultTreeFrag, unsigned short> *>::Node"* %pointer) #0 comdat align 2 !dbg !2569 {
entry:
  %this.addr = alloca %"class.xalanc_1_10::XalanList"*, align 8
  %pointer.addr = alloca %"struct.xalanc_1_10::XalanList<xalanc_1_10::ReusableArenaBlock<xalanc_1_10::XResultTreeFrag, unsigned short> *>::Node"*, align 8
  store %"class.xalanc_1_10::XalanList"* %this, %"class.xalanc_1_10::XalanList"** %this.addr, align 8
  call void @llvm.dbg.declare(metadata %"class.xalanc_1_10::XalanList"** %this.addr, metadata !2570, metadata !DIExpression()), !dbg !2571
  store %"struct.xalanc_1_10::XalanList<xalanc_1_10::ReusableArenaBlock<xalanc_1_10::XResultTreeFrag, unsigned short> *>::Node"* %pointer, %"struct.xalanc_1_10::XalanList<xalanc_1_10::ReusableArenaBlock<xalanc_1_10::XResultTreeFrag, unsigned short> *>::Node"** %pointer.addr, align 8
  call void @llvm.dbg.declare(metadata %"struct.xalanc_1_10::XalanList<xalanc_1_10::ReusableArenaBlock<xalanc_1_10::XResultTreeFrag, unsigned short> *>::Node"** %pointer.addr, metadata !2572, metadata !DIExpression()), !dbg !2573
  %this1 = load %"class.xalanc_1_10::XalanList"*, %"class.xalanc_1_10::XalanList"** %this.addr, align 8
  %m_memoryManager = getelementptr inbounds %"class.xalanc_1_10::XalanList", %"class.xalanc_1_10::XalanList"* %this1, i32 0, i32 0, !dbg !2574
  %0 = load %"class.xercesc_2_7::MemoryManager"*, %"class.xercesc_2_7::MemoryManager"** %m_memoryManager, align 8, !dbg !2574
  %1 = load %"struct.xalanc_1_10::XalanList<xalanc_1_10::ReusableArenaBlock<xalanc_1_10::XResultTreeFrag, unsigned short> *>::Node"*, %"struct.xalanc_1_10::XalanList<xalanc_1_10::ReusableArenaBlock<xalanc_1_10::XResultTreeFrag, unsigned short> *>::Node"** %pointer.addr, align 8, !dbg !2575
  %2 = bitcast %"struct.xalanc_1_10::XalanList<xalanc_1_10::ReusableArenaBlock<xalanc_1_10::XResultTreeFrag, unsigned short> *>::Node"* %1 to i8*, !dbg !2575
  %3 = bitcast %"class.xercesc_2_7::MemoryManager"* %0 to void (%"class.xercesc_2_7::MemoryManager"*, i8*)***, !dbg !2576
  %vtable = load void (%"class.xercesc_2_7::MemoryManager"*, i8*)**, void (%"class.xercesc_2_7::MemoryManager"*, i8*)*** %3, align 8, !dbg !2576
  %vfn = getelementptr inbounds void (%"class.xercesc_2_7::MemoryManager"*, i8*)*, void (%"class.xercesc_2_7::MemoryManager"*, i8*)** %vtable, i64 3, !dbg !2576
  %4 = load void (%"class.xercesc_2_7::MemoryManager"*, i8*)*, void (%"class.xercesc_2_7::MemoryManager"*, i8*)** %vfn, align 8, !dbg !2576
  call void %4(%"class.xercesc_2_7::MemoryManager"* %0, i8* %2), !dbg !2576
  ret void, !dbg !2577
}

; Function Attrs: noinline uwtable
define linkonce_odr dso_local dereferenceable(24) %"struct.xalanc_1_10::XalanList<xalanc_1_10::ReusableArenaBlock<xalanc_1_10::XResultTreeFrag, unsigned short> *>::Node"* @_ZN11xalanc_1_109XalanListIPNS_18ReusableArenaBlockINS_15XResultTreeFragEtEEE11getListHeadEv(%"class.xalanc_1_10::XalanList"* %this) #0 comdat align 2 !dbg !2578 {
entry:
  %this.addr = alloca %"class.xalanc_1_10::XalanList"*, align 8
  store %"class.xalanc_1_10::XalanList"* %this, %"class.xalanc_1_10::XalanList"** %this.addr, align 8
  call void @llvm.dbg.declare(metadata %"class.xalanc_1_10::XalanList"** %this.addr, metadata !2579, metadata !DIExpression()), !dbg !2580
  %this1 = load %"class.xalanc_1_10::XalanList"*, %"class.xalanc_1_10::XalanList"** %this.addr, align 8
  %m_listHead = getelementptr inbounds %"class.xalanc_1_10::XalanList", %"class.xalanc_1_10::XalanList"* %this1, i32 0, i32 1, !dbg !2581
  %0 = load %"struct.xalanc_1_10::XalanList<xalanc_1_10::ReusableArenaBlock<xalanc_1_10::XResultTreeFrag, unsigned short> *>::Node"*, %"struct.xalanc_1_10::XalanList<xalanc_1_10::ReusableArenaBlock<xalanc_1_10::XResultTreeFrag, unsigned short> *>::Node"** %m_listHead, align 8, !dbg !2581
  %cmp = icmp eq %"struct.xalanc_1_10::XalanList<xalanc_1_10::ReusableArenaBlock<xalanc_1_10::XResultTreeFrag, unsigned short> *>::Node"* null, %0, !dbg !2583
  br i1 %cmp, label %if.then, label %if.end, !dbg !2584

if.then:                                          ; preds = %entry
  %call = call %"struct.xalanc_1_10::XalanList<xalanc_1_10::ReusableArenaBlock<xalanc_1_10::XResultTreeFrag, unsigned short> *>::Node"* @_ZN11xalanc_1_109XalanListIPNS_18ReusableArenaBlockINS_15XResultTreeFragEtEEE8allocateEm(%"class.xalanc_1_10::XalanList"* %this1, i64 1), !dbg !2585
  %m_listHead2 = getelementptr inbounds %"class.xalanc_1_10::XalanList", %"class.xalanc_1_10::XalanList"* %this1, i32 0, i32 1, !dbg !2587
  store %"struct.xalanc_1_10::XalanList<xalanc_1_10::ReusableArenaBlock<xalanc_1_10::XResultTreeFrag, unsigned short> *>::Node"* %call, %"struct.xalanc_1_10::XalanList<xalanc_1_10::ReusableArenaBlock<xalanc_1_10::XResultTreeFrag, unsigned short> *>::Node"** %m_listHead2, align 8, !dbg !2588
  %m_listHead3 = getelementptr inbounds %"class.xalanc_1_10::XalanList", %"class.xalanc_1_10::XalanList"* %this1, i32 0, i32 1, !dbg !2589
  %1 = load %"struct.xalanc_1_10::XalanList<xalanc_1_10::ReusableArenaBlock<xalanc_1_10::XResultTreeFrag, unsigned short> *>::Node"*, %"struct.xalanc_1_10::XalanList<xalanc_1_10::ReusableArenaBlock<xalanc_1_10::XResultTreeFrag, unsigned short> *>::Node"** %m_listHead3, align 8, !dbg !2589
  %m_listHead4 = getelementptr inbounds %"class.xalanc_1_10::XalanList", %"class.xalanc_1_10::XalanList"* %this1, i32 0, i32 1, !dbg !2590
  %2 = load %"struct.xalanc_1_10::XalanList<xalanc_1_10::ReusableArenaBlock<xalanc_1_10::XResultTreeFrag, unsigned short> *>::Node"*, %"struct.xalanc_1_10::XalanList<xalanc_1_10::ReusableArenaBlock<xalanc_1_10::XResultTreeFrag, unsigned short> *>::Node"** %m_listHead4, align 8, !dbg !2590
  %next = getelementptr inbounds %"struct.xalanc_1_10::XalanList<xalanc_1_10::ReusableArenaBlock<xalanc_1_10::XResultTreeFrag, unsigned short> *>::Node", %"struct.xalanc_1_10::XalanList<xalanc_1_10::ReusableArenaBlock<xalanc_1_10::XResultTreeFrag, unsigned short> *>::Node"* %2, i32 0, i32 2, !dbg !2591
  store %"struct.xalanc_1_10::XalanList<xalanc_1_10::ReusableArenaBlock<xalanc_1_10::XResultTreeFrag, unsigned short> *>::Node"* %1, %"struct.xalanc_1_10::XalanList<xalanc_1_10::ReusableArenaBlock<xalanc_1_10::XResultTreeFrag, unsigned short> *>::Node"** %next, align 8, !dbg !2592
  %m_listHead5 = getelementptr inbounds %"class.xalanc_1_10::XalanList", %"class.xalanc_1_10::XalanList"* %this1, i32 0, i32 1, !dbg !2593
  %3 = load %"struct.xalanc_1_10::XalanList<xalanc_1_10::ReusableArenaBlock<xalanc_1_10::XResultTreeFrag, unsigned short> *>::Node"*, %"struct.xalanc_1_10::XalanList<xalanc_1_10::ReusableArenaBlock<xalanc_1_10::XResultTreeFrag, unsigned short> *>::Node"** %m_listHead5, align 8, !dbg !2593
  %m_listHead6 = getelementptr inbounds %"class.xalanc_1_10::XalanList", %"class.xalanc_1_10::XalanList"* %this1, i32 0, i32 1, !dbg !2594
  %4 = load %"struct.xalanc_1_10::XalanList<xalanc_1_10::ReusableArenaBlock<xalanc_1_10::XResultTreeFrag, unsigned short> *>::Node"*, %"struct.xalanc_1_10::XalanList<xalanc_1_10::ReusableArenaBlock<xalanc_1_10::XResultTreeFrag, unsigned short> *>::Node"** %m_listHead6, align 8, !dbg !2594
  %prev = getelementptr inbounds %"struct.xalanc_1_10::XalanList<xalanc_1_10::ReusableArenaBlock<xalanc_1_10::XResultTreeFrag, unsigned short> *>::Node", %"struct.xalanc_1_10::XalanList<xalanc_1_10::ReusableArenaBlock<xalanc_1_10::XResultTreeFrag, unsigned short> *>::Node"* %4, i32 0, i32 1, !dbg !2595
  store %"struct.xalanc_1_10::XalanList<xalanc_1_10::ReusableArenaBlock<xalanc_1_10::XResultTreeFrag, unsigned short> *>::Node"* %3, %"struct.xalanc_1_10::XalanList<xalanc_1_10::ReusableArenaBlock<xalanc_1_10::XResultTreeFrag, unsigned short> *>::Node"** %prev, align 8, !dbg !2596
  br label %if.end, !dbg !2597

if.end:                                           ; preds = %if.then, %entry
  %m_listHead7 = getelementptr inbounds %"class.xalanc_1_10::XalanList", %"class.xalanc_1_10::XalanList"* %this1, i32 0, i32 1, !dbg !2598
  %5 = load %"struct.xalanc_1_10::XalanList<xalanc_1_10::ReusableArenaBlock<xalanc_1_10::XResultTreeFrag, unsigned short> *>::Node"*, %"struct.xalanc_1_10::XalanList<xalanc_1_10::ReusableArenaBlock<xalanc_1_10::XResultTreeFrag, unsigned short> *>::Node"** %m_listHead7, align 8, !dbg !2598
  ret %"struct.xalanc_1_10::XalanList<xalanc_1_10::ReusableArenaBlock<xalanc_1_10::XResultTreeFrag, unsigned short> *>::Node"* %5, !dbg !2599
}

; Function Attrs: noinline nounwind uwtable
define linkonce_odr dso_local void @_ZN11xalanc_1_1021XalanListIteratorBaseINS_23XalanListIteratorTraitsIPNS_18ReusableArenaBlockINS_15XResultTreeFragEtEEEENS_9XalanListIS5_E4NodeEEC2ERS9_(%"struct.xalanc_1_10::XalanListIteratorBase"* %this, %"struct.xalanc_1_10::XalanList<xalanc_1_10::ReusableArenaBlock<xalanc_1_10::XResultTreeFrag, unsigned short> *>::Node"* dereferenceable(24) %node) unnamed_addr #2 comdat align 2 !dbg !2600 {
entry:
  %this.addr = alloca %"struct.xalanc_1_10::XalanListIteratorBase"*, align 8
  %node.addr = alloca %"struct.xalanc_1_10::XalanList<xalanc_1_10::ReusableArenaBlock<xalanc_1_10::XResultTreeFrag, unsigned short> *>::Node"*, align 8
  store %"struct.xalanc_1_10::XalanListIteratorBase"* %this, %"struct.xalanc_1_10::XalanListIteratorBase"** %this.addr, align 8
  call void @llvm.dbg.declare(metadata %"struct.xalanc_1_10::XalanListIteratorBase"** %this.addr, metadata !2601, metadata !DIExpression()), !dbg !2602
  store %"struct.xalanc_1_10::XalanList<xalanc_1_10::ReusableArenaBlock<xalanc_1_10::XResultTreeFrag, unsigned short> *>::Node"* %node, %"struct.xalanc_1_10::XalanList<xalanc_1_10::ReusableArenaBlock<xalanc_1_10::XResultTreeFrag, unsigned short> *>::Node"** %node.addr, align 8
  call void @llvm.dbg.declare(metadata %"struct.xalanc_1_10::XalanList<xalanc_1_10::ReusableArenaBlock<xalanc_1_10::XResultTreeFrag, unsigned short> *>::Node"** %node.addr, metadata !2603, metadata !DIExpression()), !dbg !2604
  %this1 = load %"struct.xalanc_1_10::XalanListIteratorBase"*, %"struct.xalanc_1_10::XalanListIteratorBase"** %this.addr, align 8
  %currentNode = getelementptr inbounds %"struct.xalanc_1_10::XalanListIteratorBase", %"struct.xalanc_1_10::XalanListIteratorBase"* %this1, i32 0, i32 0, !dbg !2605
  %0 = load %"struct.xalanc_1_10::XalanList<xalanc_1_10::ReusableArenaBlock<xalanc_1_10::XResultTreeFrag, unsigned short> *>::Node"*, %"struct.xalanc_1_10::XalanList<xalanc_1_10::ReusableArenaBlock<xalanc_1_10::XResultTreeFrag, unsigned short> *>::Node"** %node.addr, align 8, !dbg !2606
  store %"struct.xalanc_1_10::XalanList<xalanc_1_10::ReusableArenaBlock<xalanc_1_10::XResultTreeFrag, unsigned short> *>::Node"* %0, %"struct.xalanc_1_10::XalanList<xalanc_1_10::ReusableArenaBlock<xalanc_1_10::XResultTreeFrag, unsigned short> *>::Node"** %currentNode, align 8, !dbg !2605
  ret void, !dbg !2607
}

; Function Attrs: noinline uwtable
define linkonce_odr dso_local %"struct.xalanc_1_10::XalanList<xalanc_1_10::ReusableArenaBlock<xalanc_1_10::XResultTreeFrag, unsigned short> *>::Node"* @_ZN11xalanc_1_109XalanListIPNS_18ReusableArenaBlockINS_15XResultTreeFragEtEEE8allocateEm(%"class.xalanc_1_10::XalanList"* %this, i64 %size) #0 comdat align 2 !dbg !2608 {
entry:
  %this.addr = alloca %"class.xalanc_1_10::XalanList"*, align 8
  %size.addr = alloca i64, align 8
  %theBytesNeeded = alloca i64, align 8
  %pointer = alloca i8*, align 8
  store %"class.xalanc_1_10::XalanList"* %this, %"class.xalanc_1_10::XalanList"** %this.addr, align 8
  call void @llvm.dbg.declare(metadata %"class.xalanc_1_10::XalanList"** %this.addr, metadata !2609, metadata !DIExpression()), !dbg !2610
  store i64 %size, i64* %size.addr, align 8
  call void @llvm.dbg.declare(metadata i64* %size.addr, metadata !2611, metadata !DIExpression()), !dbg !2612
  %this1 = load %"class.xalanc_1_10::XalanList"*, %"class.xalanc_1_10::XalanList"** %this.addr, align 8
  call void @llvm.dbg.declare(metadata i64* %theBytesNeeded, metadata !2613, metadata !DIExpression()), !dbg !2615
  %0 = load i64, i64* %size.addr, align 8, !dbg !2616
  %mul = mul i64 %0, 24, !dbg !2617
  store i64 %mul, i64* %theBytesNeeded, align 8, !dbg !2615
  call void @llvm.dbg.declare(metadata i8** %pointer, metadata !2618, metadata !DIExpression()), !dbg !2619
  %m_memoryManager = getelementptr inbounds %"class.xalanc_1_10::XalanList", %"class.xalanc_1_10::XalanList"* %this1, i32 0, i32 0, !dbg !2620
  %1 = load %"class.xercesc_2_7::MemoryManager"*, %"class.xercesc_2_7::MemoryManager"** %m_memoryManager, align 8, !dbg !2620
  %2 = load i64, i64* %theBytesNeeded, align 8, !dbg !2621
  %3 = bitcast %"class.xercesc_2_7::MemoryManager"* %1 to i8* (%"class.xercesc_2_7::MemoryManager"*, i64)***, !dbg !2622
  %vtable = load i8* (%"class.xercesc_2_7::MemoryManager"*, i64)**, i8* (%"class.xercesc_2_7::MemoryManager"*, i64)*** %3, align 8, !dbg !2622
  %vfn = getelementptr inbounds i8* (%"class.xercesc_2_7::MemoryManager"*, i64)*, i8* (%"class.xercesc_2_7::MemoryManager"*, i64)** %vtable, i64 2, !dbg !2622
  %4 = load i8* (%"class.xercesc_2_7::MemoryManager"*, i64)*, i8* (%"class.xercesc_2_7::MemoryManager"*, i64)** %vfn, align 8, !dbg !2622
  %call = call i8* %4(%"class.xercesc_2_7::MemoryManager"* %1, i64 %2), !dbg !2622
  store i8* %call, i8** %pointer, align 8, !dbg !2619
  %5 = load i8*, i8** %pointer, align 8, !dbg !2623
  %6 = bitcast i8* %5 to %"struct.xalanc_1_10::XalanList<xalanc_1_10::ReusableArenaBlock<xalanc_1_10::XResultTreeFrag, unsigned short> *>::Node"*, !dbg !2624
  ret %"struct.xalanc_1_10::XalanList<xalanc_1_10::ReusableArenaBlock<xalanc_1_10::XResultTreeFrag, unsigned short> *>::Node"* %6, !dbg !2625
}

; Function Attrs: noinline nounwind uwtable
define linkonce_odr dso_local zeroext i1 @_ZNK11xalanc_1_1021XalanListIteratorBaseINS_23XalanListIteratorTraitsIPNS_18ReusableArenaBlockINS_15XResultTreeFragEtEEEENS_9XalanListIS5_E4NodeEEeqERKSA_(%"struct.xalanc_1_10::XalanListIteratorBase"* %this, %"struct.xalanc_1_10::XalanListIteratorBase"* dereferenceable(8) %theRhs) #2 comdat align 2 !dbg !2626 {
entry:
  %this.addr = alloca %"struct.xalanc_1_10::XalanListIteratorBase"*, align 8
  %theRhs.addr = alloca %"struct.xalanc_1_10::XalanListIteratorBase"*, align 8
  store %"struct.xalanc_1_10::XalanListIteratorBase"* %this, %"struct.xalanc_1_10::XalanListIteratorBase"** %this.addr, align 8
  call void @llvm.dbg.declare(metadata %"struct.xalanc_1_10::XalanListIteratorBase"** %this.addr, metadata !2627, metadata !DIExpression()), !dbg !2628
  store %"struct.xalanc_1_10::XalanListIteratorBase"* %theRhs, %"struct.xalanc_1_10::XalanListIteratorBase"** %theRhs.addr, align 8
  call void @llvm.dbg.declare(metadata %"struct.xalanc_1_10::XalanListIteratorBase"** %theRhs.addr, metadata !2629, metadata !DIExpression()), !dbg !2630
  %this1 = load %"struct.xalanc_1_10::XalanListIteratorBase"*, %"struct.xalanc_1_10::XalanListIteratorBase"** %this.addr, align 8
  %currentNode = getelementptr inbounds %"struct.xalanc_1_10::XalanListIteratorBase", %"struct.xalanc_1_10::XalanListIteratorBase"* %this1, i32 0, i32 0, !dbg !2631
  %0 = load %"struct.xalanc_1_10::XalanList<xalanc_1_10::ReusableArenaBlock<xalanc_1_10::XResultTreeFrag, unsigned short> *>::Node"*, %"struct.xalanc_1_10::XalanList<xalanc_1_10::ReusableArenaBlock<xalanc_1_10::XResultTreeFrag, unsigned short> *>::Node"** %currentNode, align 8, !dbg !2631
  %1 = load %"struct.xalanc_1_10::XalanListIteratorBase"*, %"struct.xalanc_1_10::XalanListIteratorBase"** %theRhs.addr, align 8, !dbg !2632
  %currentNode2 = getelementptr inbounds %"struct.xalanc_1_10::XalanListIteratorBase", %"struct.xalanc_1_10::XalanListIteratorBase"* %1, i32 0, i32 0, !dbg !2633
  %2 = load %"struct.xalanc_1_10::XalanList<xalanc_1_10::ReusableArenaBlock<xalanc_1_10::XResultTreeFrag, unsigned short> *>::Node"*, %"struct.xalanc_1_10::XalanList<xalanc_1_10::ReusableArenaBlock<xalanc_1_10::XResultTreeFrag, unsigned short> *>::Node"** %currentNode2, align 8, !dbg !2633
  %cmp = icmp eq %"struct.xalanc_1_10::XalanList<xalanc_1_10::ReusableArenaBlock<xalanc_1_10::XResultTreeFrag, unsigned short> *>::Node"* %0, %2, !dbg !2634
  ret i1 %cmp, !dbg !2635
}

; Function Attrs: nobuiltin nounwind
declare dso_local void @_ZdlPv(i8*) #5

; Function Attrs: noinline uwtable
define linkonce_odr dso_local zeroext i1 @_ZNK11xalanc_1_109XalanListIPNS_18ReusableArenaBlockINS_15XResultTreeFragEtEEE5emptyEv(%"class.xalanc_1_10::XalanList"* %this) #0 comdat align 2 !dbg !2636 {
entry:
  %this.addr = alloca %"class.xalanc_1_10::XalanList"*, align 8
  %ref.tmp = alloca %"struct.xalanc_1_10::XalanListIteratorBase.0", align 8
  %ref.tmp2 = alloca %"struct.xalanc_1_10::XalanListIteratorBase.0", align 8
  store %"class.xalanc_1_10::XalanList"* %this, %"class.xalanc_1_10::XalanList"** %this.addr, align 8
  call void @llvm.dbg.declare(metadata %"class.xalanc_1_10::XalanList"** %this.addr, metadata !2637, metadata !DIExpression()), !dbg !2639
  %this1 = load %"class.xalanc_1_10::XalanList"*, %"class.xalanc_1_10::XalanList"** %this.addr, align 8
  %call = call %"struct.xalanc_1_10::XalanList<xalanc_1_10::ReusableArenaBlock<xalanc_1_10::XResultTreeFrag, unsigned short> *>::Node"* @_ZNK11xalanc_1_109XalanListIPNS_18ReusableArenaBlockINS_15XResultTreeFragEtEEE5beginEv(%"class.xalanc_1_10::XalanList"* %this1), !dbg !2640
  %coerce.dive = getelementptr inbounds %"struct.xalanc_1_10::XalanListIteratorBase.0", %"struct.xalanc_1_10::XalanListIteratorBase.0"* %ref.tmp, i32 0, i32 0, !dbg !2640
  store %"struct.xalanc_1_10::XalanList<xalanc_1_10::ReusableArenaBlock<xalanc_1_10::XResultTreeFrag, unsigned short> *>::Node"* %call, %"struct.xalanc_1_10::XalanList<xalanc_1_10::ReusableArenaBlock<xalanc_1_10::XResultTreeFrag, unsigned short> *>::Node"** %coerce.dive, align 8, !dbg !2640
  %call3 = call %"struct.xalanc_1_10::XalanList<xalanc_1_10::ReusableArenaBlock<xalanc_1_10::XResultTreeFrag, unsigned short> *>::Node"* @_ZNK11xalanc_1_109XalanListIPNS_18ReusableArenaBlockINS_15XResultTreeFragEtEEE3endEv(%"class.xalanc_1_10::XalanList"* %this1), !dbg !2641
  %coerce.dive4 = getelementptr inbounds %"struct.xalanc_1_10::XalanListIteratorBase.0", %"struct.xalanc_1_10::XalanListIteratorBase.0"* %ref.tmp2, i32 0, i32 0, !dbg !2641
  store %"struct.xalanc_1_10::XalanList<xalanc_1_10::ReusableArenaBlock<xalanc_1_10::XResultTreeFrag, unsigned short> *>::Node"* %call3, %"struct.xalanc_1_10::XalanList<xalanc_1_10::ReusableArenaBlock<xalanc_1_10::XResultTreeFrag, unsigned short> *>::Node"** %coerce.dive4, align 8, !dbg !2641
  %call5 = call zeroext i1 @_ZNK11xalanc_1_1021XalanListIteratorBaseINS_28XalanListConstIteratorTraitsIPNS_18ReusableArenaBlockINS_15XResultTreeFragEtEEEENS_9XalanListIS5_E4NodeEEeqERKSA_(%"struct.xalanc_1_10::XalanListIteratorBase.0"* %ref.tmp, %"struct.xalanc_1_10::XalanListIteratorBase.0"* dereferenceable(8) %ref.tmp2), !dbg !2642
  %conv = zext i1 %call5 to i32, !dbg !2643
  %cmp = icmp ne i32 %conv, 0, !dbg !2644
  ret i1 %cmp, !dbg !2645
}

; Function Attrs: noinline uwtable
define linkonce_odr dso_local dereferenceable(8) %"class.xalanc_1_10::ReusableArenaBlock"** @_ZN11xalanc_1_109XalanListIPNS_18ReusableArenaBlockINS_15XResultTreeFragEtEEE4backEv(%"class.xalanc_1_10::XalanList"* %this) #0 comdat align 2 !dbg !2646 {
entry:
  %this.addr = alloca %"class.xalanc_1_10::XalanList"*, align 8
  %ref.tmp = alloca %"struct.xalanc_1_10::XalanListIteratorBase", align 8
  %ref.tmp2 = alloca %"struct.xalanc_1_10::XalanListIteratorBase", align 8
  store %"class.xalanc_1_10::XalanList"* %this, %"class.xalanc_1_10::XalanList"** %this.addr, align 8
  call void @llvm.dbg.declare(metadata %"class.xalanc_1_10::XalanList"** %this.addr, metadata !2647, metadata !DIExpression()), !dbg !2648
  %this1 = load %"class.xalanc_1_10::XalanList"*, %"class.xalanc_1_10::XalanList"** %this.addr, align 8
  call void @_ZN11xalanc_1_109XalanListIPNS_18ReusableArenaBlockINS_15XResultTreeFragEtEEE3endEv(%"struct.xalanc_1_10::XalanListIteratorBase"* sret %ref.tmp2, %"class.xalanc_1_10::XalanList"* %this1), !dbg !2649
  call void @_ZN11xalanc_1_1021XalanListIteratorBaseINS_23XalanListIteratorTraitsIPNS_18ReusableArenaBlockINS_15XResultTreeFragEtEEEENS_9XalanListIS5_E4NodeEEmmEv(%"struct.xalanc_1_10::XalanListIteratorBase"* sret %ref.tmp, %"struct.xalanc_1_10::XalanListIteratorBase"* %ref.tmp2), !dbg !2650
  %call = call dereferenceable(8) %"class.xalanc_1_10::ReusableArenaBlock"** @_ZNK11xalanc_1_1021XalanListIteratorBaseINS_23XalanListIteratorTraitsIPNS_18ReusableArenaBlockINS_15XResultTreeFragEtEEEENS_9XalanListIS5_E4NodeEEdeEv(%"struct.xalanc_1_10::XalanListIteratorBase"* %ref.tmp), !dbg !2651
  ret %"class.xalanc_1_10::ReusableArenaBlock"** %call, !dbg !2652
}

; Function Attrs: noinline nounwind uwtable
define linkonce_odr dso_local zeroext i1 @_ZNK11xalanc_1_1014ArenaBlockBaseINS_15XResultTreeFragEtE14blockAvailableEv(%"class.xalanc_1_10::ArenaBlockBase"* %this) #2 comdat align 2 !dbg !2653 {
entry:
  %this.addr = alloca %"class.xalanc_1_10::ArenaBlockBase"*, align 8
  store %"class.xalanc_1_10::ArenaBlockBase"* %this, %"class.xalanc_1_10::ArenaBlockBase"** %this.addr, align 8
  call void @llvm.dbg.declare(metadata %"class.xalanc_1_10::ArenaBlockBase"** %this.addr, metadata !2654, metadata !DIExpression()), !dbg !2656
  %this1 = load %"class.xalanc_1_10::ArenaBlockBase"*, %"class.xalanc_1_10::ArenaBlockBase"** %this.addr, align 8
  %m_objectCount = getelementptr inbounds %"class.xalanc_1_10::ArenaBlockBase", %"class.xalanc_1_10::ArenaBlockBase"* %this1, i32 0, i32 1, !dbg !2657
  %0 = load i16, i16* %m_objectCount, align 8, !dbg !2657
  %conv = zext i16 %0 to i32, !dbg !2657
  %m_blockSize = getelementptr inbounds %"class.xalanc_1_10::ArenaBlockBase", %"class.xalanc_1_10::ArenaBlockBase"* %this1, i32 0, i32 2, !dbg !2658
  %1 = load i16, i16* %m_blockSize, align 2, !dbg !2658
  %conv2 = zext i16 %1 to i32, !dbg !2658
  %cmp = icmp slt i32 %conv, %conv2, !dbg !2659
  %2 = zext i1 %cmp to i64, !dbg !2657
  %cond = select i1 %cmp, i1 true, i1 false, !dbg !2657
  ret i1 %cond, !dbg !2660
}

; Function Attrs: noinline uwtable
define linkonce_odr dso_local void @_ZN11xalanc_1_109XalanListIPNS_18ReusableArenaBlockINS_15XResultTreeFragEtEEE9push_backERKS4_(%"class.xalanc_1_10::XalanList"* %this, %"class.xalanc_1_10::ReusableArenaBlock"** dereferenceable(8) %data) #0 comdat align 2 !dbg !2661 {
entry:
  %this.addr = alloca %"class.xalanc_1_10::XalanList"*, align 8
  %data.addr = alloca %"class.xalanc_1_10::ReusableArenaBlock"**, align 8
  %agg.tmp = alloca %"struct.xalanc_1_10::XalanListIteratorBase", align 8
  store %"class.xalanc_1_10::XalanList"* %this, %"class.xalanc_1_10::XalanList"** %this.addr, align 8
  call void @llvm.dbg.declare(metadata %"class.xalanc_1_10::XalanList"** %this.addr, metadata !2662, metadata !DIExpression()), !dbg !2663
  store %"class.xalanc_1_10::ReusableArenaBlock"** %data, %"class.xalanc_1_10::ReusableArenaBlock"*** %data.addr, align 8
  call void @llvm.dbg.declare(metadata %"class.xalanc_1_10::ReusableArenaBlock"*** %data.addr, metadata !2664, metadata !DIExpression()), !dbg !2665
  %this1 = load %"class.xalanc_1_10::XalanList"*, %"class.xalanc_1_10::XalanList"** %this.addr, align 8
  %0 = load %"class.xalanc_1_10::ReusableArenaBlock"**, %"class.xalanc_1_10::ReusableArenaBlock"*** %data.addr, align 8, !dbg !2666
  call void @_ZN11xalanc_1_109XalanListIPNS_18ReusableArenaBlockINS_15XResultTreeFragEtEEE3endEv(%"struct.xalanc_1_10::XalanListIteratorBase"* sret %agg.tmp, %"class.xalanc_1_10::XalanList"* %this1), !dbg !2667
  %call = call dereferenceable(24) %"struct.xalanc_1_10::XalanList<xalanc_1_10::ReusableArenaBlock<xalanc_1_10::XResultTreeFrag, unsigned short> *>::Node"* @_ZN11xalanc_1_109XalanListIPNS_18ReusableArenaBlockINS_15XResultTreeFragEtEEE13constructNodeERKS4_NS_21XalanListIteratorBaseINS_23XalanListIteratorTraitsIS4_EENS5_4NodeEEE(%"class.xalanc_1_10::XalanList"* %this1, %"class.xalanc_1_10::ReusableArenaBlock"** dereferenceable(8) %0, %"struct.xalanc_1_10::XalanListIteratorBase"* %agg.tmp), !dbg !2668
  ret void, !dbg !2669
}

; Function Attrs: noinline uwtable
define linkonce_odr dso_local %"class.xalanc_1_10::ReusableArenaBlock"* @_ZN11xalanc_1_1018ReusableArenaBlockINS_15XResultTreeFragEtE6createERN11xercesc_2_713MemoryManagerEt(%"class.xercesc_2_7::MemoryManager"* dereferenceable(8) %theManager, i16 zeroext %theBlockSize) #0 comdat align 2 !dbg !2670 {
entry:
  %theManager.addr = alloca %"class.xercesc_2_7::MemoryManager"*, align 8
  %theBlockSize.addr = alloca i16, align 2
  %theInstance = alloca %"class.xalanc_1_10::ReusableArenaBlock"*, align 8
  store %"class.xercesc_2_7::MemoryManager"* %theManager, %"class.xercesc_2_7::MemoryManager"** %theManager.addr, align 8
  call void @llvm.dbg.declare(metadata %"class.xercesc_2_7::MemoryManager"** %theManager.addr, metadata !2671, metadata !DIExpression()), !dbg !2672
  store i16 %theBlockSize, i16* %theBlockSize.addr, align 2
  call void @llvm.dbg.declare(metadata i16* %theBlockSize.addr, metadata !2673, metadata !DIExpression()), !dbg !2674
  call void @llvm.dbg.declare(metadata %"class.xalanc_1_10::ReusableArenaBlock"** %theInstance, metadata !2675, metadata !DIExpression()), !dbg !2676
  %0 = load %"class.xercesc_2_7::MemoryManager"*, %"class.xercesc_2_7::MemoryManager"** %theManager.addr, align 8, !dbg !2677
  %1 = load %"class.xercesc_2_7::MemoryManager"*, %"class.xercesc_2_7::MemoryManager"** %theManager.addr, align 8, !dbg !2678
  %call = call %"class.xalanc_1_10::ReusableArenaBlock"* @_ZN11xalanc_1_1014XalanConstructINS_18ReusableArenaBlockINS_15XResultTreeFragEtEEN11xercesc_2_713MemoryManagerEtEEPT_RS5_RS7_RT0_RKT1_(%"class.xercesc_2_7::MemoryManager"* dereferenceable(8) %0, %"class.xalanc_1_10::ReusableArenaBlock"** dereferenceable(8) %theInstance, %"class.xercesc_2_7::MemoryManager"* dereferenceable(8) %1, i16* dereferenceable(2) %theBlockSize.addr), !dbg !2679
  ret %"class.xalanc_1_10::ReusableArenaBlock"* %call, !dbg !2680
}

; Function Attrs: noinline uwtable
define linkonce_odr dso_local %"class.xalanc_1_10::XResultTreeFrag"* @_ZN11xalanc_1_1018ReusableArenaBlockINS_15XResultTreeFragEtE13allocateBlockEv(%"class.xalanc_1_10::ReusableArenaBlock"* %this) #0 comdat align 2 !dbg !2681 {
entry:
  %retval = alloca %"class.xalanc_1_10::XResultTreeFrag"*, align 8
  %this.addr = alloca %"class.xalanc_1_10::ReusableArenaBlock"*, align 8
  %theResult = alloca %"class.xalanc_1_10::XResultTreeFrag"*, align 8
  store %"class.xalanc_1_10::ReusableArenaBlock"* %this, %"class.xalanc_1_10::ReusableArenaBlock"** %this.addr, align 8
  call void @llvm.dbg.declare(metadata %"class.xalanc_1_10::ReusableArenaBlock"** %this.addr, metadata !2682, metadata !DIExpression()), !dbg !2683
  %this1 = load %"class.xalanc_1_10::ReusableArenaBlock"*, %"class.xalanc_1_10::ReusableArenaBlock"** %this.addr, align 8
  %0 = bitcast %"class.xalanc_1_10::ReusableArenaBlock"* %this1 to %"class.xalanc_1_10::ArenaBlockBase"*, !dbg !2684
  %m_objectCount = getelementptr inbounds %"class.xalanc_1_10::ArenaBlockBase", %"class.xalanc_1_10::ArenaBlockBase"* %0, i32 0, i32 1, !dbg !2684
  %1 = load i16, i16* %m_objectCount, align 8, !dbg !2684
  %conv = zext i16 %1 to i32, !dbg !2686
  %2 = bitcast %"class.xalanc_1_10::ReusableArenaBlock"* %this1 to %"class.xalanc_1_10::ArenaBlockBase"*, !dbg !2687
  %m_blockSize = getelementptr inbounds %"class.xalanc_1_10::ArenaBlockBase", %"class.xalanc_1_10::ArenaBlockBase"* %2, i32 0, i32 2, !dbg !2687
  %3 = load i16, i16* %m_blockSize, align 2, !dbg !2687
  %conv2 = zext i16 %3 to i32, !dbg !2688
  %cmp = icmp eq i32 %conv, %conv2, !dbg !2689
  br i1 %cmp, label %if.then, label %if.else, !dbg !2690

if.then:                                          ; preds = %entry
  store %"class.xalanc_1_10::XResultTreeFrag"* null, %"class.xalanc_1_10::XResultTreeFrag"** %retval, align 8, !dbg !2691
  br label %return, !dbg !2691

if.else:                                          ; preds = %entry
  call void @llvm.dbg.declare(metadata %"class.xalanc_1_10::XResultTreeFrag"** %theResult, metadata !2693, metadata !DIExpression()), !dbg !2695
  store %"class.xalanc_1_10::XResultTreeFrag"* null, %"class.xalanc_1_10::XResultTreeFrag"** %theResult, align 8, !dbg !2695
  %m_firstFreeBlock = getelementptr inbounds %"class.xalanc_1_10::ReusableArenaBlock", %"class.xalanc_1_10::ReusableArenaBlock"* %this1, i32 0, i32 1, !dbg !2696
  %4 = load i16, i16* %m_firstFreeBlock, align 8, !dbg !2696
  %conv3 = zext i16 %4 to i32, !dbg !2698
  %m_nextFreeBlock = getelementptr inbounds %"class.xalanc_1_10::ReusableArenaBlock", %"class.xalanc_1_10::ReusableArenaBlock"* %this1, i32 0, i32 2, !dbg !2699
  %5 = load i16, i16* %m_nextFreeBlock, align 2, !dbg !2699
  %conv4 = zext i16 %5 to i32, !dbg !2700
  %cmp5 = icmp ne i32 %conv3, %conv4, !dbg !2701
  br i1 %cmp5, label %if.then6, label %if.else9, !dbg !2702

if.then6:                                         ; preds = %if.else
  %6 = bitcast %"class.xalanc_1_10::ReusableArenaBlock"* %this1 to %"class.xalanc_1_10::ArenaBlockBase"*, !dbg !2703
  %m_objectBlock = getelementptr inbounds %"class.xalanc_1_10::ArenaBlockBase", %"class.xalanc_1_10::ArenaBlockBase"* %6, i32 0, i32 3, !dbg !2703
  %7 = load %"class.xalanc_1_10::XResultTreeFrag"*, %"class.xalanc_1_10::XResultTreeFrag"** %m_objectBlock, align 8, !dbg !2703
  %m_firstFreeBlock7 = getelementptr inbounds %"class.xalanc_1_10::ReusableArenaBlock", %"class.xalanc_1_10::ReusableArenaBlock"* %this1, i32 0, i32 1, !dbg !2705
  %8 = load i16, i16* %m_firstFreeBlock7, align 8, !dbg !2705
  %conv8 = zext i16 %8 to i32, !dbg !2706
  %idx.ext = sext i32 %conv8 to i64, !dbg !2707
  %add.ptr = getelementptr inbounds %"class.xalanc_1_10::XResultTreeFrag", %"class.xalanc_1_10::XResultTreeFrag"* %7, i64 %idx.ext, !dbg !2707
  store %"class.xalanc_1_10::XResultTreeFrag"* %add.ptr, %"class.xalanc_1_10::XResultTreeFrag"** %theResult, align 8, !dbg !2708
  br label %if.end, !dbg !2709

if.else9:                                         ; preds = %if.else
  %9 = bitcast %"class.xalanc_1_10::ReusableArenaBlock"* %this1 to %"class.xalanc_1_10::ArenaBlockBase"*, !dbg !2710
  %m_objectBlock10 = getelementptr inbounds %"class.xalanc_1_10::ArenaBlockBase", %"class.xalanc_1_10::ArenaBlockBase"* %9, i32 0, i32 3, !dbg !2710
  %10 = load %"class.xalanc_1_10::XResultTreeFrag"*, %"class.xalanc_1_10::XResultTreeFrag"** %m_objectBlock10, align 8, !dbg !2710
  %m_firstFreeBlock11 = getelementptr inbounds %"class.xalanc_1_10::ReusableArenaBlock", %"class.xalanc_1_10::ReusableArenaBlock"* %this1, i32 0, i32 1, !dbg !2712
  %11 = load i16, i16* %m_firstFreeBlock11, align 8, !dbg !2712
  %conv12 = zext i16 %11 to i32, !dbg !2713
  %idx.ext13 = sext i32 %conv12 to i64, !dbg !2714
  %add.ptr14 = getelementptr inbounds %"class.xalanc_1_10::XResultTreeFrag", %"class.xalanc_1_10::XResultTreeFrag"* %10, i64 %idx.ext13, !dbg !2714
  store %"class.xalanc_1_10::XResultTreeFrag"* %add.ptr14, %"class.xalanc_1_10::XResultTreeFrag"** %theResult, align 8, !dbg !2715
  %12 = load %"class.xalanc_1_10::XResultTreeFrag"*, %"class.xalanc_1_10::XResultTreeFrag"** %theResult, align 8, !dbg !2716
  %13 = bitcast %"class.xalanc_1_10::XResultTreeFrag"* %12 to i8*, !dbg !2716
  %call = call %"struct.xalanc_1_10::ReusableArenaBlock<xalanc_1_10::XResultTreeFrag, unsigned short>::NextBlock"* @_ZN11xalanc_1_1018ReusableArenaBlockINS_15XResultTreeFragEtE9NextBlock4castEPv(i8* %13), !dbg !2717
  %next = getelementptr inbounds %"struct.xalanc_1_10::ReusableArenaBlock<xalanc_1_10::XResultTreeFrag, unsigned short>::NextBlock", %"struct.xalanc_1_10::ReusableArenaBlock<xalanc_1_10::XResultTreeFrag, unsigned short>::NextBlock"* %call, i32 0, i32 0, !dbg !2718
  %14 = load i16, i16* %next, align 4, !dbg !2718
  %m_nextFreeBlock15 = getelementptr inbounds %"class.xalanc_1_10::ReusableArenaBlock", %"class.xalanc_1_10::ReusableArenaBlock"* %this1, i32 0, i32 2, !dbg !2719
  store i16 %14, i16* %m_nextFreeBlock15, align 2, !dbg !2720
  %15 = bitcast %"class.xalanc_1_10::ReusableArenaBlock"* %this1 to %"class.xalanc_1_10::ArenaBlockBase"*, !dbg !2721
  %m_objectCount16 = getelementptr inbounds %"class.xalanc_1_10::ArenaBlockBase", %"class.xalanc_1_10::ArenaBlockBase"* %15, i32 0, i32 1, !dbg !2721
  %16 = load i16, i16* %m_objectCount16, align 8, !dbg !2722
  %inc = add i16 %16, 1, !dbg !2722
  store i16 %inc, i16* %m_objectCount16, align 8, !dbg !2722
  br label %if.end

if.end:                                           ; preds = %if.else9, %if.then6
  %17 = load %"class.xalanc_1_10::XResultTreeFrag"*, %"class.xalanc_1_10::XResultTreeFrag"** %theResult, align 8, !dbg !2723
  store %"class.xalanc_1_10::XResultTreeFrag"* %17, %"class.xalanc_1_10::XResultTreeFrag"** %retval, align 8, !dbg !2724
  br label %return, !dbg !2724

return:                                           ; preds = %if.end, %if.then
  %18 = load %"class.xalanc_1_10::XResultTreeFrag"*, %"class.xalanc_1_10::XResultTreeFrag"** %retval, align 8, !dbg !2725
  ret %"class.xalanc_1_10::XResultTreeFrag"* %18, !dbg !2725
}

; Function Attrs: noinline uwtable
define linkonce_odr dso_local %"struct.xalanc_1_10::XalanList<xalanc_1_10::ReusableArenaBlock<xalanc_1_10::XResultTreeFrag, unsigned short> *>::Node"* @_ZNK11xalanc_1_109XalanListIPNS_18ReusableArenaBlockINS_15XResultTreeFragEtEEE5beginEv(%"class.xalanc_1_10::XalanList"* %this) #0 comdat align 2 !dbg !2726 {
entry:
  %retval = alloca %"struct.xalanc_1_10::XalanListIteratorBase.0", align 8
  %this.addr = alloca %"class.xalanc_1_10::XalanList"*, align 8
  store %"class.xalanc_1_10::XalanList"* %this, %"class.xalanc_1_10::XalanList"** %this.addr, align 8
  call void @llvm.dbg.declare(metadata %"class.xalanc_1_10::XalanList"** %this.addr, metadata !2727, metadata !DIExpression()), !dbg !2728
  %this1 = load %"class.xalanc_1_10::XalanList"*, %"class.xalanc_1_10::XalanList"** %this.addr, align 8
  %call = call dereferenceable(24) %"struct.xalanc_1_10::XalanList<xalanc_1_10::ReusableArenaBlock<xalanc_1_10::XResultTreeFrag, unsigned short> *>::Node"* @_ZNK11xalanc_1_109XalanListIPNS_18ReusableArenaBlockINS_15XResultTreeFragEtEEE11getListHeadEv(%"class.xalanc_1_10::XalanList"* %this1), !dbg !2729
  %next = getelementptr inbounds %"struct.xalanc_1_10::XalanList<xalanc_1_10::ReusableArenaBlock<xalanc_1_10::XResultTreeFrag, unsigned short> *>::Node", %"struct.xalanc_1_10::XalanList<xalanc_1_10::ReusableArenaBlock<xalanc_1_10::XResultTreeFrag, unsigned short> *>::Node"* %call, i32 0, i32 2, !dbg !2730
  %0 = load %"struct.xalanc_1_10::XalanList<xalanc_1_10::ReusableArenaBlock<xalanc_1_10::XResultTreeFrag, unsigned short> *>::Node"*, %"struct.xalanc_1_10::XalanList<xalanc_1_10::ReusableArenaBlock<xalanc_1_10::XResultTreeFrag, unsigned short> *>::Node"** %next, align 8, !dbg !2730
  call void @_ZN11xalanc_1_1021XalanListIteratorBaseINS_28XalanListConstIteratorTraitsIPNS_18ReusableArenaBlockINS_15XResultTreeFragEtEEEENS_9XalanListIS5_E4NodeEEC2ERS9_(%"struct.xalanc_1_10::XalanListIteratorBase.0"* %retval, %"struct.xalanc_1_10::XalanList<xalanc_1_10::ReusableArenaBlock<xalanc_1_10::XResultTreeFrag, unsigned short> *>::Node"* dereferenceable(24) %0), !dbg !2731
  %coerce.dive = getelementptr inbounds %"struct.xalanc_1_10::XalanListIteratorBase.0", %"struct.xalanc_1_10::XalanListIteratorBase.0"* %retval, i32 0, i32 0, !dbg !2732
  %1 = load %"struct.xalanc_1_10::XalanList<xalanc_1_10::ReusableArenaBlock<xalanc_1_10::XResultTreeFrag, unsigned short> *>::Node"*, %"struct.xalanc_1_10::XalanList<xalanc_1_10::ReusableArenaBlock<xalanc_1_10::XResultTreeFrag, unsigned short> *>::Node"** %coerce.dive, align 8, !dbg !2732
  ret %"struct.xalanc_1_10::XalanList<xalanc_1_10::ReusableArenaBlock<xalanc_1_10::XResultTreeFrag, unsigned short> *>::Node"* %1, !dbg !2732
}

; Function Attrs: noinline nounwind uwtable
define linkonce_odr dso_local zeroext i1 @_ZNK11xalanc_1_1021XalanListIteratorBaseINS_28XalanListConstIteratorTraitsIPNS_18ReusableArenaBlockINS_15XResultTreeFragEtEEEENS_9XalanListIS5_E4NodeEEeqERKSA_(%"struct.xalanc_1_10::XalanListIteratorBase.0"* %this, %"struct.xalanc_1_10::XalanListIteratorBase.0"* dereferenceable(8) %theRhs) #2 comdat align 2 !dbg !2733 {
entry:
  %this.addr = alloca %"struct.xalanc_1_10::XalanListIteratorBase.0"*, align 8
  %theRhs.addr = alloca %"struct.xalanc_1_10::XalanListIteratorBase.0"*, align 8
  store %"struct.xalanc_1_10::XalanListIteratorBase.0"* %this, %"struct.xalanc_1_10::XalanListIteratorBase.0"** %this.addr, align 8
  call void @llvm.dbg.declare(metadata %"struct.xalanc_1_10::XalanListIteratorBase.0"** %this.addr, metadata !2734, metadata !DIExpression()), !dbg !2736
  store %"struct.xalanc_1_10::XalanListIteratorBase.0"* %theRhs, %"struct.xalanc_1_10::XalanListIteratorBase.0"** %theRhs.addr, align 8
  call void @llvm.dbg.declare(metadata %"struct.xalanc_1_10::XalanListIteratorBase.0"** %theRhs.addr, metadata !2737, metadata !DIExpression()), !dbg !2738
  %this1 = load %"struct.xalanc_1_10::XalanListIteratorBase.0"*, %"struct.xalanc_1_10::XalanListIteratorBase.0"** %this.addr, align 8
  %currentNode = getelementptr inbounds %"struct.xalanc_1_10::XalanListIteratorBase.0", %"struct.xalanc_1_10::XalanListIteratorBase.0"* %this1, i32 0, i32 0, !dbg !2739
  %0 = load %"struct.xalanc_1_10::XalanList<xalanc_1_10::ReusableArenaBlock<xalanc_1_10::XResultTreeFrag, unsigned short> *>::Node"*, %"struct.xalanc_1_10::XalanList<xalanc_1_10::ReusableArenaBlock<xalanc_1_10::XResultTreeFrag, unsigned short> *>::Node"** %currentNode, align 8, !dbg !2739
  %1 = load %"struct.xalanc_1_10::XalanListIteratorBase.0"*, %"struct.xalanc_1_10::XalanListIteratorBase.0"** %theRhs.addr, align 8, !dbg !2740
  %currentNode2 = getelementptr inbounds %"struct.xalanc_1_10::XalanListIteratorBase.0", %"struct.xalanc_1_10::XalanListIteratorBase.0"* %1, i32 0, i32 0, !dbg !2741
  %2 = load %"struct.xalanc_1_10::XalanList<xalanc_1_10::ReusableArenaBlock<xalanc_1_10::XResultTreeFrag, unsigned short> *>::Node"*, %"struct.xalanc_1_10::XalanList<xalanc_1_10::ReusableArenaBlock<xalanc_1_10::XResultTreeFrag, unsigned short> *>::Node"** %currentNode2, align 8, !dbg !2741
  %cmp = icmp eq %"struct.xalanc_1_10::XalanList<xalanc_1_10::ReusableArenaBlock<xalanc_1_10::XResultTreeFrag, unsigned short> *>::Node"* %0, %2, !dbg !2742
  ret i1 %cmp, !dbg !2743
}

; Function Attrs: noinline uwtable
define linkonce_odr dso_local %"struct.xalanc_1_10::XalanList<xalanc_1_10::ReusableArenaBlock<xalanc_1_10::XResultTreeFrag, unsigned short> *>::Node"* @_ZNK11xalanc_1_109XalanListIPNS_18ReusableArenaBlockINS_15XResultTreeFragEtEEE3endEv(%"class.xalanc_1_10::XalanList"* %this) #0 comdat align 2 !dbg !2744 {
entry:
  %retval = alloca %"struct.xalanc_1_10::XalanListIteratorBase.0", align 8
  %this.addr = alloca %"class.xalanc_1_10::XalanList"*, align 8
  store %"class.xalanc_1_10::XalanList"* %this, %"class.xalanc_1_10::XalanList"** %this.addr, align 8
  call void @llvm.dbg.declare(metadata %"class.xalanc_1_10::XalanList"** %this.addr, metadata !2745, metadata !DIExpression()), !dbg !2746
  %this1 = load %"class.xalanc_1_10::XalanList"*, %"class.xalanc_1_10::XalanList"** %this.addr, align 8
  %call = call dereferenceable(24) %"struct.xalanc_1_10::XalanList<xalanc_1_10::ReusableArenaBlock<xalanc_1_10::XResultTreeFrag, unsigned short> *>::Node"* @_ZNK11xalanc_1_109XalanListIPNS_18ReusableArenaBlockINS_15XResultTreeFragEtEEE11getListHeadEv(%"class.xalanc_1_10::XalanList"* %this1), !dbg !2747
  call void @_ZN11xalanc_1_1021XalanListIteratorBaseINS_28XalanListConstIteratorTraitsIPNS_18ReusableArenaBlockINS_15XResultTreeFragEtEEEENS_9XalanListIS5_E4NodeEEC2ERS9_(%"struct.xalanc_1_10::XalanListIteratorBase.0"* %retval, %"struct.xalanc_1_10::XalanList<xalanc_1_10::ReusableArenaBlock<xalanc_1_10::XResultTreeFrag, unsigned short> *>::Node"* dereferenceable(24) %call), !dbg !2748
  %coerce.dive = getelementptr inbounds %"struct.xalanc_1_10::XalanListIteratorBase.0", %"struct.xalanc_1_10::XalanListIteratorBase.0"* %retval, i32 0, i32 0, !dbg !2749
  %0 = load %"struct.xalanc_1_10::XalanList<xalanc_1_10::ReusableArenaBlock<xalanc_1_10::XResultTreeFrag, unsigned short> *>::Node"*, %"struct.xalanc_1_10::XalanList<xalanc_1_10::ReusableArenaBlock<xalanc_1_10::XResultTreeFrag, unsigned short> *>::Node"** %coerce.dive, align 8, !dbg !2749
  ret %"struct.xalanc_1_10::XalanList<xalanc_1_10::ReusableArenaBlock<xalanc_1_10::XResultTreeFrag, unsigned short> *>::Node"* %0, !dbg !2749
}

; Function Attrs: noinline uwtable
define linkonce_odr dso_local dereferenceable(24) %"struct.xalanc_1_10::XalanList<xalanc_1_10::ReusableArenaBlock<xalanc_1_10::XResultTreeFrag, unsigned short> *>::Node"* @_ZNK11xalanc_1_109XalanListIPNS_18ReusableArenaBlockINS_15XResultTreeFragEtEEE11getListHeadEv(%"class.xalanc_1_10::XalanList"* %this) #0 comdat align 2 !dbg !2750 {
entry:
  %this.addr = alloca %"class.xalanc_1_10::XalanList"*, align 8
  store %"class.xalanc_1_10::XalanList"* %this, %"class.xalanc_1_10::XalanList"** %this.addr, align 8
  call void @llvm.dbg.declare(metadata %"class.xalanc_1_10::XalanList"** %this.addr, metadata !2751, metadata !DIExpression()), !dbg !2752
  %this1 = load %"class.xalanc_1_10::XalanList"*, %"class.xalanc_1_10::XalanList"** %this.addr, align 8
  %call = call dereferenceable(24) %"struct.xalanc_1_10::XalanList<xalanc_1_10::ReusableArenaBlock<xalanc_1_10::XResultTreeFrag, unsigned short> *>::Node"* @_ZN11xalanc_1_109XalanListIPNS_18ReusableArenaBlockINS_15XResultTreeFragEtEEE11getListHeadEv(%"class.xalanc_1_10::XalanList"* %this1), !dbg !2753
  ret %"struct.xalanc_1_10::XalanList<xalanc_1_10::ReusableArenaBlock<xalanc_1_10::XResultTreeFrag, unsigned short> *>::Node"* %call, !dbg !2754
}

; Function Attrs: noinline nounwind uwtable
define linkonce_odr dso_local void @_ZN11xalanc_1_1021XalanListIteratorBaseINS_28XalanListConstIteratorTraitsIPNS_18ReusableArenaBlockINS_15XResultTreeFragEtEEEENS_9XalanListIS5_E4NodeEEC2ERS9_(%"struct.xalanc_1_10::XalanListIteratorBase.0"* %this, %"struct.xalanc_1_10::XalanList<xalanc_1_10::ReusableArenaBlock<xalanc_1_10::XResultTreeFrag, unsigned short> *>::Node"* dereferenceable(24) %node) unnamed_addr #2 comdat align 2 !dbg !2755 {
entry:
  %this.addr = alloca %"struct.xalanc_1_10::XalanListIteratorBase.0"*, align 8
  %node.addr = alloca %"struct.xalanc_1_10::XalanList<xalanc_1_10::ReusableArenaBlock<xalanc_1_10::XResultTreeFrag, unsigned short> *>::Node"*, align 8
  store %"struct.xalanc_1_10::XalanListIteratorBase.0"* %this, %"struct.xalanc_1_10::XalanListIteratorBase.0"** %this.addr, align 8
  call void @llvm.dbg.declare(metadata %"struct.xalanc_1_10::XalanListIteratorBase.0"** %this.addr, metadata !2756, metadata !DIExpression()), !dbg !2758
  store %"struct.xalanc_1_10::XalanList<xalanc_1_10::ReusableArenaBlock<xalanc_1_10::XResultTreeFrag, unsigned short> *>::Node"* %node, %"struct.xalanc_1_10::XalanList<xalanc_1_10::ReusableArenaBlock<xalanc_1_10::XResultTreeFrag, unsigned short> *>::Node"** %node.addr, align 8
  call void @llvm.dbg.declare(metadata %"struct.xalanc_1_10::XalanList<xalanc_1_10::ReusableArenaBlock<xalanc_1_10::XResultTreeFrag, unsigned short> *>::Node"** %node.addr, metadata !2759, metadata !DIExpression()), !dbg !2760
  %this1 = load %"struct.xalanc_1_10::XalanListIteratorBase.0"*, %"struct.xalanc_1_10::XalanListIteratorBase.0"** %this.addr, align 8
  %currentNode = getelementptr inbounds %"struct.xalanc_1_10::XalanListIteratorBase.0", %"struct.xalanc_1_10::XalanListIteratorBase.0"* %this1, i32 0, i32 0, !dbg !2761
  %0 = load %"struct.xalanc_1_10::XalanList<xalanc_1_10::ReusableArenaBlock<xalanc_1_10::XResultTreeFrag, unsigned short> *>::Node"*, %"struct.xalanc_1_10::XalanList<xalanc_1_10::ReusableArenaBlock<xalanc_1_10::XResultTreeFrag, unsigned short> *>::Node"** %node.addr, align 8, !dbg !2762
  store %"struct.xalanc_1_10::XalanList<xalanc_1_10::ReusableArenaBlock<xalanc_1_10::XResultTreeFrag, unsigned short> *>::Node"* %0, %"struct.xalanc_1_10::XalanList<xalanc_1_10::ReusableArenaBlock<xalanc_1_10::XResultTreeFrag, unsigned short> *>::Node"** %currentNode, align 8, !dbg !2761
  ret void, !dbg !2763
}

; Function Attrs: noinline uwtable
define linkonce_odr dso_local void @_ZN11xalanc_1_1021XalanListIteratorBaseINS_23XalanListIteratorTraitsIPNS_18ReusableArenaBlockINS_15XResultTreeFragEtEEEENS_9XalanListIS5_E4NodeEEmmEv(%"struct.xalanc_1_10::XalanListIteratorBase"* noalias sret %agg.result, %"struct.xalanc_1_10::XalanListIteratorBase"* %this) #0 comdat align 2 !dbg !2764 {
entry:
  %result.ptr = alloca i8*, align 8
  %this.addr = alloca %"struct.xalanc_1_10::XalanListIteratorBase"*, align 8
  %0 = bitcast %"struct.xalanc_1_10::XalanListIteratorBase"* %agg.result to i8*
  store i8* %0, i8** %result.ptr, align 8
  store %"struct.xalanc_1_10::XalanListIteratorBase"* %this, %"struct.xalanc_1_10::XalanListIteratorBase"** %this.addr, align 8
  call void @llvm.dbg.declare(metadata %"struct.xalanc_1_10::XalanListIteratorBase"** %this.addr, metadata !2765, metadata !DIExpression()), !dbg !2766
  %this1 = load %"struct.xalanc_1_10::XalanListIteratorBase"*, %"struct.xalanc_1_10::XalanListIteratorBase"** %this.addr, align 8
  %currentNode = getelementptr inbounds %"struct.xalanc_1_10::XalanListIteratorBase", %"struct.xalanc_1_10::XalanListIteratorBase"* %this1, i32 0, i32 0, !dbg !2767
  %1 = load %"struct.xalanc_1_10::XalanList<xalanc_1_10::ReusableArenaBlock<xalanc_1_10::XResultTreeFrag, unsigned short> *>::Node"*, %"struct.xalanc_1_10::XalanList<xalanc_1_10::ReusableArenaBlock<xalanc_1_10::XResultTreeFrag, unsigned short> *>::Node"** %currentNode, align 8, !dbg !2767
  %prev = getelementptr inbounds %"struct.xalanc_1_10::XalanList<xalanc_1_10::ReusableArenaBlock<xalanc_1_10::XResultTreeFrag, unsigned short> *>::Node", %"struct.xalanc_1_10::XalanList<xalanc_1_10::ReusableArenaBlock<xalanc_1_10::XResultTreeFrag, unsigned short> *>::Node"* %1, i32 0, i32 1, !dbg !2768
  %2 = load %"struct.xalanc_1_10::XalanList<xalanc_1_10::ReusableArenaBlock<xalanc_1_10::XResultTreeFrag, unsigned short> *>::Node"*, %"struct.xalanc_1_10::XalanList<xalanc_1_10::ReusableArenaBlock<xalanc_1_10::XResultTreeFrag, unsigned short> *>::Node"** %prev, align 8, !dbg !2768
  %currentNode2 = getelementptr inbounds %"struct.xalanc_1_10::XalanListIteratorBase", %"struct.xalanc_1_10::XalanListIteratorBase"* %this1, i32 0, i32 0, !dbg !2769
  store %"struct.xalanc_1_10::XalanList<xalanc_1_10::ReusableArenaBlock<xalanc_1_10::XResultTreeFrag, unsigned short> *>::Node"* %2, %"struct.xalanc_1_10::XalanList<xalanc_1_10::ReusableArenaBlock<xalanc_1_10::XResultTreeFrag, unsigned short> *>::Node"** %currentNode2, align 8, !dbg !2770
  call void @_ZN11xalanc_1_1021XalanListIteratorBaseINS_23XalanListIteratorTraitsIPNS_18ReusableArenaBlockINS_15XResultTreeFragEtEEEENS_9XalanListIS5_E4NodeEEC2ERKSA_(%"struct.xalanc_1_10::XalanListIteratorBase"* %agg.result, %"struct.xalanc_1_10::XalanListIteratorBase"* dereferenceable(8) %this1), !dbg !2771
  ret void, !dbg !2772
}

; Function Attrs: noinline nounwind uwtable
define linkonce_odr dso_local dereferenceable(8) %"class.xalanc_1_10::ReusableArenaBlock"** @_ZNK11xalanc_1_1021XalanListIteratorBaseINS_23XalanListIteratorTraitsIPNS_18ReusableArenaBlockINS_15XResultTreeFragEtEEEENS_9XalanListIS5_E4NodeEEdeEv(%"struct.xalanc_1_10::XalanListIteratorBase"* %this) #2 comdat align 2 !dbg !2773 {
entry:
  %this.addr = alloca %"struct.xalanc_1_10::XalanListIteratorBase"*, align 8
  store %"struct.xalanc_1_10::XalanListIteratorBase"* %this, %"struct.xalanc_1_10::XalanListIteratorBase"** %this.addr, align 8
  call void @llvm.dbg.declare(metadata %"struct.xalanc_1_10::XalanListIteratorBase"** %this.addr, metadata !2774, metadata !DIExpression()), !dbg !2775
  %this1 = load %"struct.xalanc_1_10::XalanListIteratorBase"*, %"struct.xalanc_1_10::XalanListIteratorBase"** %this.addr, align 8
  %currentNode = getelementptr inbounds %"struct.xalanc_1_10::XalanListIteratorBase", %"struct.xalanc_1_10::XalanListIteratorBase"* %this1, i32 0, i32 0, !dbg !2776
  %0 = load %"struct.xalanc_1_10::XalanList<xalanc_1_10::ReusableArenaBlock<xalanc_1_10::XResultTreeFrag, unsigned short> *>::Node"*, %"struct.xalanc_1_10::XalanList<xalanc_1_10::ReusableArenaBlock<xalanc_1_10::XResultTreeFrag, unsigned short> *>::Node"** %currentNode, align 8, !dbg !2776
  %value = getelementptr inbounds %"struct.xalanc_1_10::XalanList<xalanc_1_10::ReusableArenaBlock<xalanc_1_10::XResultTreeFrag, unsigned short> *>::Node", %"struct.xalanc_1_10::XalanList<xalanc_1_10::ReusableArenaBlock<xalanc_1_10::XResultTreeFrag, unsigned short> *>::Node"* %0, i32 0, i32 0, !dbg !2777
  ret %"class.xalanc_1_10::ReusableArenaBlock"** %value, !dbg !2778
}

; Function Attrs: noinline nounwind uwtable
define linkonce_odr dso_local void @_ZN11xalanc_1_1021XalanListIteratorBaseINS_23XalanListIteratorTraitsIPNS_18ReusableArenaBlockINS_15XResultTreeFragEtEEEENS_9XalanListIS5_E4NodeEEC2ERKSA_(%"struct.xalanc_1_10::XalanListIteratorBase"* %this, %"struct.xalanc_1_10::XalanListIteratorBase"* dereferenceable(8) %theRhs) unnamed_addr #2 comdat align 2 !dbg !2779 {
entry:
  %this.addr = alloca %"struct.xalanc_1_10::XalanListIteratorBase"*, align 8
  %theRhs.addr = alloca %"struct.xalanc_1_10::XalanListIteratorBase"*, align 8
  store %"struct.xalanc_1_10::XalanListIteratorBase"* %this, %"struct.xalanc_1_10::XalanListIteratorBase"** %this.addr, align 8
  call void @llvm.dbg.declare(metadata %"struct.xalanc_1_10::XalanListIteratorBase"** %this.addr, metadata !2780, metadata !DIExpression()), !dbg !2781
  store %"struct.xalanc_1_10::XalanListIteratorBase"* %theRhs, %"struct.xalanc_1_10::XalanListIteratorBase"** %theRhs.addr, align 8
  call void @llvm.dbg.declare(metadata %"struct.xalanc_1_10::XalanListIteratorBase"** %theRhs.addr, metadata !2782, metadata !DIExpression()), !dbg !2783
  %this1 = load %"struct.xalanc_1_10::XalanListIteratorBase"*, %"struct.xalanc_1_10::XalanListIteratorBase"** %this.addr, align 8
  %currentNode = getelementptr inbounds %"struct.xalanc_1_10::XalanListIteratorBase", %"struct.xalanc_1_10::XalanListIteratorBase"* %this1, i32 0, i32 0, !dbg !2784
  %0 = load %"struct.xalanc_1_10::XalanListIteratorBase"*, %"struct.xalanc_1_10::XalanListIteratorBase"** %theRhs.addr, align 8, !dbg !2785
  %currentNode2 = getelementptr inbounds %"struct.xalanc_1_10::XalanListIteratorBase", %"struct.xalanc_1_10::XalanListIteratorBase"* %0, i32 0, i32 0, !dbg !2786
  %1 = load %"struct.xalanc_1_10::XalanList<xalanc_1_10::ReusableArenaBlock<xalanc_1_10::XResultTreeFrag, unsigned short> *>::Node"*, %"struct.xalanc_1_10::XalanList<xalanc_1_10::ReusableArenaBlock<xalanc_1_10::XResultTreeFrag, unsigned short> *>::Node"** %currentNode2, align 8, !dbg !2786
  store %"struct.xalanc_1_10::XalanList<xalanc_1_10::ReusableArenaBlock<xalanc_1_10::XResultTreeFrag, unsigned short> *>::Node"* %1, %"struct.xalanc_1_10::XalanList<xalanc_1_10::ReusableArenaBlock<xalanc_1_10::XResultTreeFrag, unsigned short> *>::Node"** %currentNode, align 8, !dbg !2784
  ret void, !dbg !2787
}

; Function Attrs: noinline uwtable
define linkonce_odr dso_local dereferenceable(24) %"struct.xalanc_1_10::XalanList<xalanc_1_10::ReusableArenaBlock<xalanc_1_10::XResultTreeFrag, unsigned short> *>::Node"* @_ZN11xalanc_1_109XalanListIPNS_18ReusableArenaBlockINS_15XResultTreeFragEtEEE13constructNodeERKS4_NS_21XalanListIteratorBaseINS_23XalanListIteratorTraitsIS4_EENS5_4NodeEEE(%"class.xalanc_1_10::XalanList"* %this, %"class.xalanc_1_10::ReusableArenaBlock"** dereferenceable(8) %data, %"struct.xalanc_1_10::XalanListIteratorBase"* %pos) #0 comdat align 2 !dbg !2788 {
entry:
  %this.addr = alloca %"class.xalanc_1_10::XalanList"*, align 8
  %data.addr = alloca %"class.xalanc_1_10::ReusableArenaBlock"**, align 8
  %newNode = alloca %"struct.xalanc_1_10::XalanList<xalanc_1_10::ReusableArenaBlock<xalanc_1_10::XResultTreeFrag, unsigned short> *>::Node"*, align 8
  %nextFreeNode = alloca %"struct.xalanc_1_10::XalanList<xalanc_1_10::ReusableArenaBlock<xalanc_1_10::XResultTreeFrag, unsigned short> *>::Node"*, align 8
  store %"class.xalanc_1_10::XalanList"* %this, %"class.xalanc_1_10::XalanList"** %this.addr, align 8
  call void @llvm.dbg.declare(metadata %"class.xalanc_1_10::XalanList"** %this.addr, metadata !2789, metadata !DIExpression()), !dbg !2790
  store %"class.xalanc_1_10::ReusableArenaBlock"** %data, %"class.xalanc_1_10::ReusableArenaBlock"*** %data.addr, align 8
  call void @llvm.dbg.declare(metadata %"class.xalanc_1_10::ReusableArenaBlock"*** %data.addr, metadata !2791, metadata !DIExpression()), !dbg !2792
  call void @llvm.dbg.declare(metadata %"struct.xalanc_1_10::XalanListIteratorBase"* %pos, metadata !2793, metadata !DIExpression()), !dbg !2794
  %this1 = load %"class.xalanc_1_10::XalanList"*, %"class.xalanc_1_10::XalanList"** %this.addr, align 8
  call void @llvm.dbg.declare(metadata %"struct.xalanc_1_10::XalanList<xalanc_1_10::ReusableArenaBlock<xalanc_1_10::XResultTreeFrag, unsigned short> *>::Node"** %newNode, metadata !2795, metadata !DIExpression()), !dbg !2796
  store %"struct.xalanc_1_10::XalanList<xalanc_1_10::ReusableArenaBlock<xalanc_1_10::XResultTreeFrag, unsigned short> *>::Node"* null, %"struct.xalanc_1_10::XalanList<xalanc_1_10::ReusableArenaBlock<xalanc_1_10::XResultTreeFrag, unsigned short> *>::Node"** %newNode, align 8, !dbg !2796
  call void @llvm.dbg.declare(metadata %"struct.xalanc_1_10::XalanList<xalanc_1_10::ReusableArenaBlock<xalanc_1_10::XResultTreeFrag, unsigned short> *>::Node"** %nextFreeNode, metadata !2797, metadata !DIExpression()), !dbg !2798
  store %"struct.xalanc_1_10::XalanList<xalanc_1_10::ReusableArenaBlock<xalanc_1_10::XResultTreeFrag, unsigned short> *>::Node"* null, %"struct.xalanc_1_10::XalanList<xalanc_1_10::ReusableArenaBlock<xalanc_1_10::XResultTreeFrag, unsigned short> *>::Node"** %nextFreeNode, align 8, !dbg !2798
  %m_freeListHeadPtr = getelementptr inbounds %"class.xalanc_1_10::XalanList", %"class.xalanc_1_10::XalanList"* %this1, i32 0, i32 2, !dbg !2799
  %0 = load %"struct.xalanc_1_10::XalanList<xalanc_1_10::ReusableArenaBlock<xalanc_1_10::XResultTreeFrag, unsigned short> *>::Node"*, %"struct.xalanc_1_10::XalanList<xalanc_1_10::ReusableArenaBlock<xalanc_1_10::XResultTreeFrag, unsigned short> *>::Node"** %m_freeListHeadPtr, align 8, !dbg !2799
  %cmp = icmp ne %"struct.xalanc_1_10::XalanList<xalanc_1_10::ReusableArenaBlock<xalanc_1_10::XResultTreeFrag, unsigned short> *>::Node"* %0, null, !dbg !2801
  br i1 %cmp, label %if.then, label %if.else, !dbg !2802

if.then:                                          ; preds = %entry
  %m_freeListHeadPtr2 = getelementptr inbounds %"class.xalanc_1_10::XalanList", %"class.xalanc_1_10::XalanList"* %this1, i32 0, i32 2, !dbg !2803
  %1 = load %"struct.xalanc_1_10::XalanList<xalanc_1_10::ReusableArenaBlock<xalanc_1_10::XResultTreeFrag, unsigned short> *>::Node"*, %"struct.xalanc_1_10::XalanList<xalanc_1_10::ReusableArenaBlock<xalanc_1_10::XResultTreeFrag, unsigned short> *>::Node"** %m_freeListHeadPtr2, align 8, !dbg !2803
  store %"struct.xalanc_1_10::XalanList<xalanc_1_10::ReusableArenaBlock<xalanc_1_10::XResultTreeFrag, unsigned short> *>::Node"* %1, %"struct.xalanc_1_10::XalanList<xalanc_1_10::ReusableArenaBlock<xalanc_1_10::XResultTreeFrag, unsigned short> *>::Node"** %newNode, align 8, !dbg !2805
  %m_freeListHeadPtr3 = getelementptr inbounds %"class.xalanc_1_10::XalanList", %"class.xalanc_1_10::XalanList"* %this1, i32 0, i32 2, !dbg !2806
  %2 = load %"struct.xalanc_1_10::XalanList<xalanc_1_10::ReusableArenaBlock<xalanc_1_10::XResultTreeFrag, unsigned short> *>::Node"*, %"struct.xalanc_1_10::XalanList<xalanc_1_10::ReusableArenaBlock<xalanc_1_10::XResultTreeFrag, unsigned short> *>::Node"** %m_freeListHeadPtr3, align 8, !dbg !2806
  %next = getelementptr inbounds %"struct.xalanc_1_10::XalanList<xalanc_1_10::ReusableArenaBlock<xalanc_1_10::XResultTreeFrag, unsigned short> *>::Node", %"struct.xalanc_1_10::XalanList<xalanc_1_10::ReusableArenaBlock<xalanc_1_10::XResultTreeFrag, unsigned short> *>::Node"* %2, i32 0, i32 2, !dbg !2807
  %3 = load %"struct.xalanc_1_10::XalanList<xalanc_1_10::ReusableArenaBlock<xalanc_1_10::XResultTreeFrag, unsigned short> *>::Node"*, %"struct.xalanc_1_10::XalanList<xalanc_1_10::ReusableArenaBlock<xalanc_1_10::XResultTreeFrag, unsigned short> *>::Node"** %next, align 8, !dbg !2807
  store %"struct.xalanc_1_10::XalanList<xalanc_1_10::ReusableArenaBlock<xalanc_1_10::XResultTreeFrag, unsigned short> *>::Node"* %3, %"struct.xalanc_1_10::XalanList<xalanc_1_10::ReusableArenaBlock<xalanc_1_10::XResultTreeFrag, unsigned short> *>::Node"** %nextFreeNode, align 8, !dbg !2808
  br label %if.end, !dbg !2809

if.else:                                          ; preds = %entry
  %call = call %"struct.xalanc_1_10::XalanList<xalanc_1_10::ReusableArenaBlock<xalanc_1_10::XResultTreeFrag, unsigned short> *>::Node"* @_ZN11xalanc_1_109XalanListIPNS_18ReusableArenaBlockINS_15XResultTreeFragEtEEE8allocateEm(%"class.xalanc_1_10::XalanList"* %this1, i64 1), !dbg !2810
  %m_freeListHeadPtr4 = getelementptr inbounds %"class.xalanc_1_10::XalanList", %"class.xalanc_1_10::XalanList"* %this1, i32 0, i32 2, !dbg !2812
  store %"struct.xalanc_1_10::XalanList<xalanc_1_10::ReusableArenaBlock<xalanc_1_10::XResultTreeFrag, unsigned short> *>::Node"* %call, %"struct.xalanc_1_10::XalanList<xalanc_1_10::ReusableArenaBlock<xalanc_1_10::XResultTreeFrag, unsigned short> *>::Node"** %m_freeListHeadPtr4, align 8, !dbg !2813
  %m_freeListHeadPtr5 = getelementptr inbounds %"class.xalanc_1_10::XalanList", %"class.xalanc_1_10::XalanList"* %this1, i32 0, i32 2, !dbg !2814
  %4 = load %"struct.xalanc_1_10::XalanList<xalanc_1_10::ReusableArenaBlock<xalanc_1_10::XResultTreeFrag, unsigned short> *>::Node"*, %"struct.xalanc_1_10::XalanList<xalanc_1_10::ReusableArenaBlock<xalanc_1_10::XResultTreeFrag, unsigned short> *>::Node"** %m_freeListHeadPtr5, align 8, !dbg !2814
  store %"struct.xalanc_1_10::XalanList<xalanc_1_10::ReusableArenaBlock<xalanc_1_10::XResultTreeFrag, unsigned short> *>::Node"* %4, %"struct.xalanc_1_10::XalanList<xalanc_1_10::ReusableArenaBlock<xalanc_1_10::XResultTreeFrag, unsigned short> *>::Node"** %newNode, align 8, !dbg !2815
  br label %if.end

if.end:                                           ; preds = %if.else, %if.then
  %5 = load %"struct.xalanc_1_10::XalanList<xalanc_1_10::ReusableArenaBlock<xalanc_1_10::XResultTreeFrag, unsigned short> *>::Node"*, %"struct.xalanc_1_10::XalanList<xalanc_1_10::ReusableArenaBlock<xalanc_1_10::XResultTreeFrag, unsigned short> *>::Node"** %newNode, align 8, !dbg !2816
  %value = getelementptr inbounds %"struct.xalanc_1_10::XalanList<xalanc_1_10::ReusableArenaBlock<xalanc_1_10::XResultTreeFrag, unsigned short> *>::Node", %"struct.xalanc_1_10::XalanList<xalanc_1_10::ReusableArenaBlock<xalanc_1_10::XResultTreeFrag, unsigned short> *>::Node"* %5, i32 0, i32 0, !dbg !2817
  %6 = load %"class.xalanc_1_10::ReusableArenaBlock"**, %"class.xalanc_1_10::ReusableArenaBlock"*** %data.addr, align 8, !dbg !2818
  %m_memoryManager = getelementptr inbounds %"class.xalanc_1_10::XalanList", %"class.xalanc_1_10::XalanList"* %this1, i32 0, i32 0, !dbg !2819
  %7 = load %"class.xercesc_2_7::MemoryManager"*, %"class.xercesc_2_7::MemoryManager"** %m_memoryManager, align 8, !dbg !2819
  %call6 = call %"class.xalanc_1_10::ReusableArenaBlock"** @_ZN11xalanc_1_1028ConstructWithNoMemoryManagerIPNS_18ReusableArenaBlockINS_15XResultTreeFragEtEEE9constructEPS4_RKS4_RN11xercesc_2_713MemoryManagerE(%"class.xalanc_1_10::ReusableArenaBlock"** %value, %"class.xalanc_1_10::ReusableArenaBlock"** dereferenceable(8) %6, %"class.xercesc_2_7::MemoryManager"* dereferenceable(8) %7), !dbg !2820
  %8 = load %"struct.xalanc_1_10::XalanList<xalanc_1_10::ReusableArenaBlock<xalanc_1_10::XResultTreeFrag, unsigned short> *>::Node"*, %"struct.xalanc_1_10::XalanList<xalanc_1_10::ReusableArenaBlock<xalanc_1_10::XResultTreeFrag, unsigned short> *>::Node"** %newNode, align 8, !dbg !2821
  %prev = getelementptr inbounds %"struct.xalanc_1_10::XalanList<xalanc_1_10::ReusableArenaBlock<xalanc_1_10::XResultTreeFrag, unsigned short> *>::Node", %"struct.xalanc_1_10::XalanList<xalanc_1_10::ReusableArenaBlock<xalanc_1_10::XResultTreeFrag, unsigned short> *>::Node"* %8, i32 0, i32 1, !dbg !2822
  %9 = bitcast %"struct.xalanc_1_10::XalanList<xalanc_1_10::ReusableArenaBlock<xalanc_1_10::XResultTreeFrag, unsigned short> *>::Node"** %prev to i8*, !dbg !2823
  %10 = bitcast i8* %9 to %"struct.xalanc_1_10::XalanList<xalanc_1_10::ReusableArenaBlock<xalanc_1_10::XResultTreeFrag, unsigned short> *>::Node"**, !dbg !2823
  %call7 = call dereferenceable(24) %"struct.xalanc_1_10::XalanList<xalanc_1_10::ReusableArenaBlock<xalanc_1_10::XResultTreeFrag, unsigned short> *>::Node"* @_ZN11xalanc_1_1021XalanListIteratorBaseINS_23XalanListIteratorTraitsIPNS_18ReusableArenaBlockINS_15XResultTreeFragEtEEEENS_9XalanListIS5_E4NodeEE4nodeEv(%"struct.xalanc_1_10::XalanListIteratorBase"* %pos), !dbg !2824
  %prev8 = getelementptr inbounds %"struct.xalanc_1_10::XalanList<xalanc_1_10::ReusableArenaBlock<xalanc_1_10::XResultTreeFrag, unsigned short> *>::Node", %"struct.xalanc_1_10::XalanList<xalanc_1_10::ReusableArenaBlock<xalanc_1_10::XResultTreeFrag, unsigned short> *>::Node"* %call7, i32 0, i32 1, !dbg !2825
  %11 = load %"struct.xalanc_1_10::XalanList<xalanc_1_10::ReusableArenaBlock<xalanc_1_10::XResultTreeFrag, unsigned short> *>::Node"*, %"struct.xalanc_1_10::XalanList<xalanc_1_10::ReusableArenaBlock<xalanc_1_10::XResultTreeFrag, unsigned short> *>::Node"** %prev8, align 8, !dbg !2825
  store %"struct.xalanc_1_10::XalanList<xalanc_1_10::ReusableArenaBlock<xalanc_1_10::XResultTreeFrag, unsigned short> *>::Node"* %11, %"struct.xalanc_1_10::XalanList<xalanc_1_10::ReusableArenaBlock<xalanc_1_10::XResultTreeFrag, unsigned short> *>::Node"** %10, align 8, !dbg !2823
  %12 = load %"struct.xalanc_1_10::XalanList<xalanc_1_10::ReusableArenaBlock<xalanc_1_10::XResultTreeFrag, unsigned short> *>::Node"*, %"struct.xalanc_1_10::XalanList<xalanc_1_10::ReusableArenaBlock<xalanc_1_10::XResultTreeFrag, unsigned short> *>::Node"** %newNode, align 8, !dbg !2826
  %next9 = getelementptr inbounds %"struct.xalanc_1_10::XalanList<xalanc_1_10::ReusableArenaBlock<xalanc_1_10::XResultTreeFrag, unsigned short> *>::Node", %"struct.xalanc_1_10::XalanList<xalanc_1_10::ReusableArenaBlock<xalanc_1_10::XResultTreeFrag, unsigned short> *>::Node"* %12, i32 0, i32 2, !dbg !2827
  %13 = bitcast %"struct.xalanc_1_10::XalanList<xalanc_1_10::ReusableArenaBlock<xalanc_1_10::XResultTreeFrag, unsigned short> *>::Node"** %next9 to i8*, !dbg !2828
  %14 = bitcast i8* %13 to %"struct.xalanc_1_10::XalanList<xalanc_1_10::ReusableArenaBlock<xalanc_1_10::XResultTreeFrag, unsigned short> *>::Node"**, !dbg !2828
  %call10 = call dereferenceable(24) %"struct.xalanc_1_10::XalanList<xalanc_1_10::ReusableArenaBlock<xalanc_1_10::XResultTreeFrag, unsigned short> *>::Node"* @_ZN11xalanc_1_1021XalanListIteratorBaseINS_23XalanListIteratorTraitsIPNS_18ReusableArenaBlockINS_15XResultTreeFragEtEEEENS_9XalanListIS5_E4NodeEE4nodeEv(%"struct.xalanc_1_10::XalanListIteratorBase"* %pos), !dbg !2829
  store %"struct.xalanc_1_10::XalanList<xalanc_1_10::ReusableArenaBlock<xalanc_1_10::XResultTreeFrag, unsigned short> *>::Node"* %call10, %"struct.xalanc_1_10::XalanList<xalanc_1_10::ReusableArenaBlock<xalanc_1_10::XResultTreeFrag, unsigned short> *>::Node"** %14, align 8, !dbg !2828
  %15 = load %"struct.xalanc_1_10::XalanList<xalanc_1_10::ReusableArenaBlock<xalanc_1_10::XResultTreeFrag, unsigned short> *>::Node"*, %"struct.xalanc_1_10::XalanList<xalanc_1_10::ReusableArenaBlock<xalanc_1_10::XResultTreeFrag, unsigned short> *>::Node"** %newNode, align 8, !dbg !2830
  %call11 = call dereferenceable(24) %"struct.xalanc_1_10::XalanList<xalanc_1_10::ReusableArenaBlock<xalanc_1_10::XResultTreeFrag, unsigned short> *>::Node"* @_ZN11xalanc_1_1021XalanListIteratorBaseINS_23XalanListIteratorTraitsIPNS_18ReusableArenaBlockINS_15XResultTreeFragEtEEEENS_9XalanListIS5_E4NodeEE4nodeEv(%"struct.xalanc_1_10::XalanListIteratorBase"* %pos), !dbg !2831
  %prev12 = getelementptr inbounds %"struct.xalanc_1_10::XalanList<xalanc_1_10::ReusableArenaBlock<xalanc_1_10::XResultTreeFrag, unsigned short> *>::Node", %"struct.xalanc_1_10::XalanList<xalanc_1_10::ReusableArenaBlock<xalanc_1_10::XResultTreeFrag, unsigned short> *>::Node"* %call11, i32 0, i32 1, !dbg !2832
  %16 = load %"struct.xalanc_1_10::XalanList<xalanc_1_10::ReusableArenaBlock<xalanc_1_10::XResultTreeFrag, unsigned short> *>::Node"*, %"struct.xalanc_1_10::XalanList<xalanc_1_10::ReusableArenaBlock<xalanc_1_10::XResultTreeFrag, unsigned short> *>::Node"** %prev12, align 8, !dbg !2832
  %next13 = getelementptr inbounds %"struct.xalanc_1_10::XalanList<xalanc_1_10::ReusableArenaBlock<xalanc_1_10::XResultTreeFrag, unsigned short> *>::Node", %"struct.xalanc_1_10::XalanList<xalanc_1_10::ReusableArenaBlock<xalanc_1_10::XResultTreeFrag, unsigned short> *>::Node"* %16, i32 0, i32 2, !dbg !2833
  store %"struct.xalanc_1_10::XalanList<xalanc_1_10::ReusableArenaBlock<xalanc_1_10::XResultTreeFrag, unsigned short> *>::Node"* %15, %"struct.xalanc_1_10::XalanList<xalanc_1_10::ReusableArenaBlock<xalanc_1_10::XResultTreeFrag, unsigned short> *>::Node"** %next13, align 8, !dbg !2834
  %17 = load %"struct.xalanc_1_10::XalanList<xalanc_1_10::ReusableArenaBlock<xalanc_1_10::XResultTreeFrag, unsigned short> *>::Node"*, %"struct.xalanc_1_10::XalanList<xalanc_1_10::ReusableArenaBlock<xalanc_1_10::XResultTreeFrag, unsigned short> *>::Node"** %newNode, align 8, !dbg !2835
  %call14 = call dereferenceable(24) %"struct.xalanc_1_10::XalanList<xalanc_1_10::ReusableArenaBlock<xalanc_1_10::XResultTreeFrag, unsigned short> *>::Node"* @_ZN11xalanc_1_1021XalanListIteratorBaseINS_23XalanListIteratorTraitsIPNS_18ReusableArenaBlockINS_15XResultTreeFragEtEEEENS_9XalanListIS5_E4NodeEE4nodeEv(%"struct.xalanc_1_10::XalanListIteratorBase"* %pos), !dbg !2836
  %prev15 = getelementptr inbounds %"struct.xalanc_1_10::XalanList<xalanc_1_10::ReusableArenaBlock<xalanc_1_10::XResultTreeFrag, unsigned short> *>::Node", %"struct.xalanc_1_10::XalanList<xalanc_1_10::ReusableArenaBlock<xalanc_1_10::XResultTreeFrag, unsigned short> *>::Node"* %call14, i32 0, i32 1, !dbg !2837
  store %"struct.xalanc_1_10::XalanList<xalanc_1_10::ReusableArenaBlock<xalanc_1_10::XResultTreeFrag, unsigned short> *>::Node"* %17, %"struct.xalanc_1_10::XalanList<xalanc_1_10::ReusableArenaBlock<xalanc_1_10::XResultTreeFrag, unsigned short> *>::Node"** %prev15, align 8, !dbg !2838
  %18 = load %"struct.xalanc_1_10::XalanList<xalanc_1_10::ReusableArenaBlock<xalanc_1_10::XResultTreeFrag, unsigned short> *>::Node"*, %"struct.xalanc_1_10::XalanList<xalanc_1_10::ReusableArenaBlock<xalanc_1_10::XResultTreeFrag, unsigned short> *>::Node"** %nextFreeNode, align 8, !dbg !2839
  %m_freeListHeadPtr16 = getelementptr inbounds %"class.xalanc_1_10::XalanList", %"class.xalanc_1_10::XalanList"* %this1, i32 0, i32 2, !dbg !2840
  store %"struct.xalanc_1_10::XalanList<xalanc_1_10::ReusableArenaBlock<xalanc_1_10::XResultTreeFrag, unsigned short> *>::Node"* %18, %"struct.xalanc_1_10::XalanList<xalanc_1_10::ReusableArenaBlock<xalanc_1_10::XResultTreeFrag, unsigned short> *>::Node"** %m_freeListHeadPtr16, align 8, !dbg !2841
  %19 = load %"struct.xalanc_1_10::XalanList<xalanc_1_10::ReusableArenaBlock<xalanc_1_10::XResultTreeFrag, unsigned short> *>::Node"*, %"struct.xalanc_1_10::XalanList<xalanc_1_10::ReusableArenaBlock<xalanc_1_10::XResultTreeFrag, unsigned short> *>::Node"** %newNode, align 8, !dbg !2842
  ret %"struct.xalanc_1_10::XalanList<xalanc_1_10::ReusableArenaBlock<xalanc_1_10::XResultTreeFrag, unsigned short> *>::Node"* %19, !dbg !2843
}

; Function Attrs: noinline nounwind uwtable
define linkonce_odr dso_local %"class.xalanc_1_10::ReusableArenaBlock"** @_ZN11xalanc_1_1028ConstructWithNoMemoryManagerIPNS_18ReusableArenaBlockINS_15XResultTreeFragEtEEE9constructEPS4_RKS4_RN11xercesc_2_713MemoryManagerE(%"class.xalanc_1_10::ReusableArenaBlock"** %address, %"class.xalanc_1_10::ReusableArenaBlock"** dereferenceable(8) %theRhs, %"class.xercesc_2_7::MemoryManager"* dereferenceable(8) %0) #2 comdat align 2 !dbg !2844 {
entry:
  %address.addr = alloca %"class.xalanc_1_10::ReusableArenaBlock"**, align 8
  %theRhs.addr = alloca %"class.xalanc_1_10::ReusableArenaBlock"**, align 8
  %.addr = alloca %"class.xercesc_2_7::MemoryManager"*, align 8
  store %"class.xalanc_1_10::ReusableArenaBlock"** %address, %"class.xalanc_1_10::ReusableArenaBlock"*** %address.addr, align 8
  call void @llvm.dbg.declare(metadata %"class.xalanc_1_10::ReusableArenaBlock"*** %address.addr, metadata !2856, metadata !DIExpression()), !dbg !2857
  store %"class.xalanc_1_10::ReusableArenaBlock"** %theRhs, %"class.xalanc_1_10::ReusableArenaBlock"*** %theRhs.addr, align 8
  call void @llvm.dbg.declare(metadata %"class.xalanc_1_10::ReusableArenaBlock"*** %theRhs.addr, metadata !2858, metadata !DIExpression()), !dbg !2859
  store %"class.xercesc_2_7::MemoryManager"* %0, %"class.xercesc_2_7::MemoryManager"** %.addr, align 8
  call void @llvm.dbg.declare(metadata %"class.xercesc_2_7::MemoryManager"** %.addr, metadata !2860, metadata !DIExpression()), !dbg !2861
  %1 = load %"class.xalanc_1_10::ReusableArenaBlock"**, %"class.xalanc_1_10::ReusableArenaBlock"*** %address.addr, align 8, !dbg !2862
  %2 = bitcast %"class.xalanc_1_10::ReusableArenaBlock"** %1 to i8*, !dbg !2863
  %3 = bitcast i8* %2 to %"class.xalanc_1_10::ReusableArenaBlock"**, !dbg !2863
  %4 = load %"class.xalanc_1_10::ReusableArenaBlock"**, %"class.xalanc_1_10::ReusableArenaBlock"*** %theRhs.addr, align 8, !dbg !2864
  %5 = load %"class.xalanc_1_10::ReusableArenaBlock"*, %"class.xalanc_1_10::ReusableArenaBlock"** %4, align 8, !dbg !2864
  store %"class.xalanc_1_10::ReusableArenaBlock"* %5, %"class.xalanc_1_10::ReusableArenaBlock"** %3, align 8, !dbg !2863
  ret %"class.xalanc_1_10::ReusableArenaBlock"** %3, !dbg !2865
}

; Function Attrs: noinline uwtable
define linkonce_odr dso_local %"class.xalanc_1_10::ReusableArenaBlock"* @_ZN11xalanc_1_1014XalanConstructINS_18ReusableArenaBlockINS_15XResultTreeFragEtEEN11xercesc_2_713MemoryManagerEtEEPT_RS5_RS7_RT0_RKT1_(%"class.xercesc_2_7::MemoryManager"* dereferenceable(8) %theMemoryManager, %"class.xalanc_1_10::ReusableArenaBlock"** dereferenceable(8) %theInstance, %"class.xercesc_2_7::MemoryManager"* dereferenceable(8) %theParam1, i16* dereferenceable(2) %theParam2) #0 comdat personality i8* bitcast (i32 (...)* @__gxx_personality_v0 to i8*) !dbg !2866 {
entry:
  %theMemoryManager.addr = alloca %"class.xercesc_2_7::MemoryManager"*, align 8
  %theInstance.addr = alloca %"class.xalanc_1_10::ReusableArenaBlock"**, align 8
  %theParam1.addr = alloca %"class.xercesc_2_7::MemoryManager"*, align 8
  %theParam2.addr = alloca i16*, align 8
  %theGuard = alloca %"class.xalanc_1_10::XalanAllocationGuard", align 8
  %exn.slot = alloca i8*
  %ehselector.slot = alloca i32
  store %"class.xercesc_2_7::MemoryManager"* %theMemoryManager, %"class.xercesc_2_7::MemoryManager"** %theMemoryManager.addr, align 8
  call void @llvm.dbg.declare(metadata %"class.xercesc_2_7::MemoryManager"** %theMemoryManager.addr, metadata !2874, metadata !DIExpression()), !dbg !2875
  store %"class.xalanc_1_10::ReusableArenaBlock"** %theInstance, %"class.xalanc_1_10::ReusableArenaBlock"*** %theInstance.addr, align 8
  call void @llvm.dbg.declare(metadata %"class.xalanc_1_10::ReusableArenaBlock"*** %theInstance.addr, metadata !2876, metadata !DIExpression()), !dbg !2877
  store %"class.xercesc_2_7::MemoryManager"* %theParam1, %"class.xercesc_2_7::MemoryManager"** %theParam1.addr, align 8
  call void @llvm.dbg.declare(metadata %"class.xercesc_2_7::MemoryManager"** %theParam1.addr, metadata !2878, metadata !DIExpression()), !dbg !2879
  store i16* %theParam2, i16** %theParam2.addr, align 8
  call void @llvm.dbg.declare(metadata i16** %theParam2.addr, metadata !2880, metadata !DIExpression()), !dbg !2881
  call void @llvm.dbg.declare(metadata %"class.xalanc_1_10::XalanAllocationGuard"* %theGuard, metadata !2882, metadata !DIExpression()), !dbg !2904
  %0 = load %"class.xercesc_2_7::MemoryManager"*, %"class.xercesc_2_7::MemoryManager"** %theMemoryManager.addr, align 8, !dbg !2905
  call void @_ZN11xalanc_1_1020XalanAllocationGuardC2ERN11xercesc_2_713MemoryManagerEm(%"class.xalanc_1_10::XalanAllocationGuard"* %theGuard, %"class.xercesc_2_7::MemoryManager"* dereferenceable(8) %0, i64 32), !dbg !2904
  %call = invoke i8* @_ZNK11xalanc_1_1020XalanAllocationGuard3getEv(%"class.xalanc_1_10::XalanAllocationGuard"* %theGuard)
          to label %invoke.cont unwind label %lpad, !dbg !2906

invoke.cont:                                      ; preds = %entry
  %1 = bitcast i8* %call to %"class.xalanc_1_10::ReusableArenaBlock"*, !dbg !2907
  %2 = load %"class.xercesc_2_7::MemoryManager"*, %"class.xercesc_2_7::MemoryManager"** %theParam1.addr, align 8, !dbg !2908
  %3 = load i16*, i16** %theParam2.addr, align 8, !dbg !2909
  %4 = load i16, i16* %3, align 2, !dbg !2909
  invoke void @_ZN11xalanc_1_1018ReusableArenaBlockINS_15XResultTreeFragEtEC2ERN11xercesc_2_713MemoryManagerEt(%"class.xalanc_1_10::ReusableArenaBlock"* %1, %"class.xercesc_2_7::MemoryManager"* dereferenceable(8) %2, i16 zeroext %4)
          to label %invoke.cont1 unwind label %lpad, !dbg !2910

invoke.cont1:                                     ; preds = %invoke.cont
  %5 = load %"class.xalanc_1_10::ReusableArenaBlock"**, %"class.xalanc_1_10::ReusableArenaBlock"*** %theInstance.addr, align 8, !dbg !2911
  store %"class.xalanc_1_10::ReusableArenaBlock"* %1, %"class.xalanc_1_10::ReusableArenaBlock"** %5, align 8, !dbg !2912
  invoke void @_ZN11xalanc_1_1020XalanAllocationGuard7releaseEv(%"class.xalanc_1_10::XalanAllocationGuard"* %theGuard)
          to label %invoke.cont2 unwind label %lpad, !dbg !2913

invoke.cont2:                                     ; preds = %invoke.cont1
  %6 = load %"class.xalanc_1_10::ReusableArenaBlock"**, %"class.xalanc_1_10::ReusableArenaBlock"*** %theInstance.addr, align 8, !dbg !2914
  %7 = load %"class.xalanc_1_10::ReusableArenaBlock"*, %"class.xalanc_1_10::ReusableArenaBlock"** %6, align 8, !dbg !2914
  call void @_ZN11xalanc_1_1020XalanAllocationGuardD2Ev(%"class.xalanc_1_10::XalanAllocationGuard"* %theGuard) #7, !dbg !2915
  ret %"class.xalanc_1_10::ReusableArenaBlock"* %7, !dbg !2915

lpad:                                             ; preds = %invoke.cont1, %invoke.cont, %entry
  %8 = landingpad { i8*, i32 }
          cleanup, !dbg !2915
  %9 = extractvalue { i8*, i32 } %8, 0, !dbg !2915
  store i8* %9, i8** %exn.slot, align 8, !dbg !2915
  %10 = extractvalue { i8*, i32 } %8, 1, !dbg !2915
  store i32 %10, i32* %ehselector.slot, align 4, !dbg !2915
  call void @_ZN11xalanc_1_1020XalanAllocationGuardD2Ev(%"class.xalanc_1_10::XalanAllocationGuard"* %theGuard) #7, !dbg !2915
  br label %eh.resume, !dbg !2915

eh.resume:                                        ; preds = %lpad
  %exn = load i8*, i8** %exn.slot, align 8, !dbg !2915
  %sel = load i32, i32* %ehselector.slot, align 4, !dbg !2915
  %lpad.val = insertvalue { i8*, i32 } undef, i8* %exn, 0, !dbg !2915
  %lpad.val3 = insertvalue { i8*, i32 } %lpad.val, i32 %sel, 1, !dbg !2915
  resume { i8*, i32 } %lpad.val3, !dbg !2915
}

; Function Attrs: noinline uwtable
define linkonce_odr dso_local void @_ZN11xalanc_1_1020XalanAllocationGuardC2ERN11xercesc_2_713MemoryManagerEm(%"class.xalanc_1_10::XalanAllocationGuard"* %this, %"class.xercesc_2_7::MemoryManager"* dereferenceable(8) %theMemoryManager, i64 %theSize) unnamed_addr #0 comdat align 2 !dbg !2916 {
entry:
  %this.addr = alloca %"class.xalanc_1_10::XalanAllocationGuard"*, align 8
  %theMemoryManager.addr = alloca %"class.xercesc_2_7::MemoryManager"*, align 8
  %theSize.addr = alloca i64, align 8
  store %"class.xalanc_1_10::XalanAllocationGuard"* %this, %"class.xalanc_1_10::XalanAllocationGuard"** %this.addr, align 8
  call void @llvm.dbg.declare(metadata %"class.xalanc_1_10::XalanAllocationGuard"** %this.addr, metadata !2917, metadata !DIExpression()), !dbg !2919
  store %"class.xercesc_2_7::MemoryManager"* %theMemoryManager, %"class.xercesc_2_7::MemoryManager"** %theMemoryManager.addr, align 8
  call void @llvm.dbg.declare(metadata %"class.xercesc_2_7::MemoryManager"** %theMemoryManager.addr, metadata !2920, metadata !DIExpression()), !dbg !2921
  store i64 %theSize, i64* %theSize.addr, align 8
  call void @llvm.dbg.declare(metadata i64* %theSize.addr, metadata !2922, metadata !DIExpression()), !dbg !2923
  %this1 = load %"class.xalanc_1_10::XalanAllocationGuard"*, %"class.xalanc_1_10::XalanAllocationGuard"** %this.addr, align 8
  %m_memoryManager = getelementptr inbounds %"class.xalanc_1_10::XalanAllocationGuard", %"class.xalanc_1_10::XalanAllocationGuard"* %this1, i32 0, i32 0, !dbg !2924
  %0 = load %"class.xercesc_2_7::MemoryManager"*, %"class.xercesc_2_7::MemoryManager"** %theMemoryManager.addr, align 8, !dbg !2925
  store %"class.xercesc_2_7::MemoryManager"* %0, %"class.xercesc_2_7::MemoryManager"** %m_memoryManager, align 8, !dbg !2924
  %m_pointer = getelementptr inbounds %"class.xalanc_1_10::XalanAllocationGuard", %"class.xalanc_1_10::XalanAllocationGuard"* %this1, i32 0, i32 1, !dbg !2926
  %1 = load %"class.xercesc_2_7::MemoryManager"*, %"class.xercesc_2_7::MemoryManager"** %theMemoryManager.addr, align 8, !dbg !2927
  %2 = load i64, i64* %theSize.addr, align 8, !dbg !2928
  %3 = bitcast %"class.xercesc_2_7::MemoryManager"* %1 to i8* (%"class.xercesc_2_7::MemoryManager"*, i64)***, !dbg !2929
  %vtable = load i8* (%"class.xercesc_2_7::MemoryManager"*, i64)**, i8* (%"class.xercesc_2_7::MemoryManager"*, i64)*** %3, align 8, !dbg !2929
  %vfn = getelementptr inbounds i8* (%"class.xercesc_2_7::MemoryManager"*, i64)*, i8* (%"class.xercesc_2_7::MemoryManager"*, i64)** %vtable, i64 2, !dbg !2929
  %4 = load i8* (%"class.xercesc_2_7::MemoryManager"*, i64)*, i8* (%"class.xercesc_2_7::MemoryManager"*, i64)** %vfn, align 8, !dbg !2929
  %call = call i8* %4(%"class.xercesc_2_7::MemoryManager"* %1, i64 %2), !dbg !2929
  store i8* %call, i8** %m_pointer, align 8, !dbg !2926
  ret void, !dbg !2930
}

; Function Attrs: noinline nounwind uwtable
define linkonce_odr dso_local i8* @_ZNK11xalanc_1_1020XalanAllocationGuard3getEv(%"class.xalanc_1_10::XalanAllocationGuard"* %this) #2 comdat align 2 !dbg !2931 {
entry:
  %this.addr = alloca %"class.xalanc_1_10::XalanAllocationGuard"*, align 8
  store %"class.xalanc_1_10::XalanAllocationGuard"* %this, %"class.xalanc_1_10::XalanAllocationGuard"** %this.addr, align 8
  call void @llvm.dbg.declare(metadata %"class.xalanc_1_10::XalanAllocationGuard"** %this.addr, metadata !2932, metadata !DIExpression()), !dbg !2934
  %this1 = load %"class.xalanc_1_10::XalanAllocationGuard"*, %"class.xalanc_1_10::XalanAllocationGuard"** %this.addr, align 8
  %m_pointer = getelementptr inbounds %"class.xalanc_1_10::XalanAllocationGuard", %"class.xalanc_1_10::XalanAllocationGuard"* %this1, i32 0, i32 1, !dbg !2935
  %0 = load i8*, i8** %m_pointer, align 8, !dbg !2935
  ret i8* %0, !dbg !2936
}

; Function Attrs: noinline uwtable
define linkonce_odr dso_local void @_ZN11xalanc_1_1018ReusableArenaBlockINS_15XResultTreeFragEtEC2ERN11xercesc_2_713MemoryManagerEt(%"class.xalanc_1_10::ReusableArenaBlock"* %this, %"class.xercesc_2_7::MemoryManager"* dereferenceable(8) %theManager, i16 zeroext %theBlockSize) unnamed_addr #0 comdat align 2 personality i8* bitcast (i32 (...)* @__gxx_personality_v0 to i8*) !dbg !2937 {
entry:
  %this.addr = alloca %"class.xalanc_1_10::ReusableArenaBlock"*, align 8
  %theManager.addr = alloca %"class.xercesc_2_7::MemoryManager"*, align 8
  %theBlockSize.addr = alloca i16, align 2
  %agg.tmp.ensured = alloca %"struct.xalanc_1_10::XalanCompileErrorBoolean", align 1
  %i = alloca i16, align 2
  %exn.slot = alloca i8*
  %ehselector.slot = alloca i32
  store %"class.xalanc_1_10::ReusableArenaBlock"* %this, %"class.xalanc_1_10::ReusableArenaBlock"** %this.addr, align 8
  call void @llvm.dbg.declare(metadata %"class.xalanc_1_10::ReusableArenaBlock"** %this.addr, metadata !2938, metadata !DIExpression()), !dbg !2939
  store %"class.xercesc_2_7::MemoryManager"* %theManager, %"class.xercesc_2_7::MemoryManager"** %theManager.addr, align 8
  call void @llvm.dbg.declare(metadata %"class.xercesc_2_7::MemoryManager"** %theManager.addr, metadata !2940, metadata !DIExpression()), !dbg !2941
  store i16 %theBlockSize, i16* %theBlockSize.addr, align 2
  call void @llvm.dbg.declare(metadata i16* %theBlockSize.addr, metadata !2942, metadata !DIExpression()), !dbg !2943
  %this1 = load %"class.xalanc_1_10::ReusableArenaBlock"*, %"class.xalanc_1_10::ReusableArenaBlock"** %this.addr, align 8
  %0 = bitcast %"class.xalanc_1_10::ReusableArenaBlock"* %this1 to %"class.xalanc_1_10::ArenaBlockBase"*, !dbg !2944
  %1 = load %"class.xercesc_2_7::MemoryManager"*, %"class.xercesc_2_7::MemoryManager"** %theManager.addr, align 8, !dbg !2945
  %2 = load i16, i16* %theBlockSize.addr, align 2, !dbg !2946
  call void @_ZN11xalanc_1_1014ArenaBlockBaseINS_15XResultTreeFragEtEC2ERN11xercesc_2_713MemoryManagerEt(%"class.xalanc_1_10::ArenaBlockBase"* %0, %"class.xercesc_2_7::MemoryManager"* dereferenceable(8) %1, i16 zeroext %2), !dbg !2947
  %m_firstFreeBlock = getelementptr inbounds %"class.xalanc_1_10::ReusableArenaBlock", %"class.xalanc_1_10::ReusableArenaBlock"* %this1, i32 0, i32 1, !dbg !2948
  store i16 0, i16* %m_firstFreeBlock, align 8, !dbg !2948
  %m_nextFreeBlock = getelementptr inbounds %"class.xalanc_1_10::ReusableArenaBlock", %"class.xalanc_1_10::ReusableArenaBlock"* %this1, i32 0, i32 2, !dbg !2949
  store i16 0, i16* %m_nextFreeBlock, align 2, !dbg !2949
  %3 = bitcast %"struct.xalanc_1_10::XalanCompileErrorBoolean"* %agg.tmp.ensured to i8*, !dbg !2950
  call void @llvm.memset.p0i8.i64(i8* align 1 %3, i8 0, i64 1, i1 false), !dbg !2950
  call void @llvm.dbg.declare(metadata i16* %i, metadata !2952, metadata !DIExpression()), !dbg !2954
  store i16 0, i16* %i, align 2, !dbg !2954
  br label %for.cond, !dbg !2955

for.cond:                                         ; preds = %for.inc, %entry
  %4 = load i16, i16* %i, align 2, !dbg !2956
  %conv = zext i16 %4 to i32, !dbg !2956
  %5 = bitcast %"class.xalanc_1_10::ReusableArenaBlock"* %this1 to %"class.xalanc_1_10::ArenaBlockBase"*, !dbg !2958
  %m_blockSize = getelementptr inbounds %"class.xalanc_1_10::ArenaBlockBase", %"class.xalanc_1_10::ArenaBlockBase"* %5, i32 0, i32 2, !dbg !2958
  %6 = load i16, i16* %m_blockSize, align 2, !dbg !2958
  %conv2 = zext i16 %6 to i32, !dbg !2959
  %cmp = icmp slt i32 %conv, %conv2, !dbg !2960
  br i1 %cmp, label %for.body, label %for.end, !dbg !2961

for.body:                                         ; preds = %for.cond
  %7 = bitcast %"class.xalanc_1_10::ReusableArenaBlock"* %this1 to %"class.xalanc_1_10::ArenaBlockBase"*, !dbg !2962
  %m_objectBlock = getelementptr inbounds %"class.xalanc_1_10::ArenaBlockBase", %"class.xalanc_1_10::ArenaBlockBase"* %7, i32 0, i32 3, !dbg !2962
  %8 = load %"class.xalanc_1_10::XResultTreeFrag"*, %"class.xalanc_1_10::XResultTreeFrag"** %m_objectBlock, align 8, !dbg !2962
  %9 = load i16, i16* %i, align 2, !dbg !2964
  %idxprom = zext i16 %9 to i64, !dbg !2965
  %arrayidx = getelementptr inbounds %"class.xalanc_1_10::XResultTreeFrag", %"class.xalanc_1_10::XResultTreeFrag"* %8, i64 %idxprom, !dbg !2965
  %10 = bitcast %"class.xalanc_1_10::XResultTreeFrag"* %arrayidx to i8*, !dbg !2966
  %11 = bitcast i8* %10 to %"struct.xalanc_1_10::ReusableArenaBlock<xalanc_1_10::XResultTreeFrag, unsigned short>::NextBlock"*, !dbg !2966
  %12 = load i16, i16* %i, align 2, !dbg !2967
  %conv3 = zext i16 %12 to i32, !dbg !2967
  %add = add nsw i32 %conv3, 1, !dbg !2968
  %conv4 = trunc i32 %add to i16, !dbg !2967
  invoke void @_ZN11xalanc_1_1018ReusableArenaBlockINS_15XResultTreeFragEtE9NextBlockC2Et(%"struct.xalanc_1_10::ReusableArenaBlock<xalanc_1_10::XResultTreeFrag, unsigned short>::NextBlock"* %11, i16 zeroext %conv4)
          to label %invoke.cont unwind label %lpad, !dbg !2969

invoke.cont:                                      ; preds = %for.body
  br label %for.inc, !dbg !2970

for.inc:                                          ; preds = %invoke.cont
  %13 = load i16, i16* %i, align 2, !dbg !2971
  %inc = add i16 %13, 1, !dbg !2971
  store i16 %inc, i16* %i, align 2, !dbg !2971
  br label %for.cond, !dbg !2972, !llvm.loop !2973

lpad:                                             ; preds = %for.body
  %14 = landingpad { i8*, i32 }
          cleanup, !dbg !2975
  %15 = extractvalue { i8*, i32 } %14, 0, !dbg !2975
  store i8* %15, i8** %exn.slot, align 8, !dbg !2975
  %16 = extractvalue { i8*, i32 } %14, 1, !dbg !2975
  store i32 %16, i32* %ehselector.slot, align 4, !dbg !2975
  %17 = bitcast %"class.xalanc_1_10::ReusableArenaBlock"* %this1 to %"class.xalanc_1_10::ArenaBlockBase"*, !dbg !2976
  call void @_ZN11xalanc_1_1014ArenaBlockBaseINS_15XResultTreeFragEtED2Ev(%"class.xalanc_1_10::ArenaBlockBase"* %17) #7, !dbg !2976
  br label %eh.resume, !dbg !2976

for.end:                                          ; preds = %for.cond
  ret void, !dbg !2977

eh.resume:                                        ; preds = %lpad
  %exn = load i8*, i8** %exn.slot, align 8, !dbg !2976
  %sel = load i32, i32* %ehselector.slot, align 4, !dbg !2976
  %lpad.val = insertvalue { i8*, i32 } undef, i8* %exn, 0, !dbg !2976
  %lpad.val5 = insertvalue { i8*, i32 } %lpad.val, i32 %sel, 1, !dbg !2976
  resume { i8*, i32 } %lpad.val5, !dbg !2976
}

; Function Attrs: noinline nounwind uwtable
define linkonce_odr dso_local void @_ZN11xalanc_1_1020XalanAllocationGuard7releaseEv(%"class.xalanc_1_10::XalanAllocationGuard"* %this) #2 comdat align 2 !dbg !2978 {
entry:
  %this.addr = alloca %"class.xalanc_1_10::XalanAllocationGuard"*, align 8
  store %"class.xalanc_1_10::XalanAllocationGuard"* %this, %"class.xalanc_1_10::XalanAllocationGuard"** %this.addr, align 8
  call void @llvm.dbg.declare(metadata %"class.xalanc_1_10::XalanAllocationGuard"** %this.addr, metadata !2979, metadata !DIExpression()), !dbg !2980
  %this1 = load %"class.xalanc_1_10::XalanAllocationGuard"*, %"class.xalanc_1_10::XalanAllocationGuard"** %this.addr, align 8
  %m_pointer = getelementptr inbounds %"class.xalanc_1_10::XalanAllocationGuard", %"class.xalanc_1_10::XalanAllocationGuard"* %this1, i32 0, i32 1, !dbg !2981
  store i8* null, i8** %m_pointer, align 8, !dbg !2982
  ret void, !dbg !2983
}

; Function Attrs: noinline nounwind uwtable
define linkonce_odr dso_local void @_ZN11xalanc_1_1020XalanAllocationGuardD2Ev(%"class.xalanc_1_10::XalanAllocationGuard"* %this) unnamed_addr #2 comdat align 2 personality i8* bitcast (i32 (...)* @__gxx_personality_v0 to i8*) !dbg !2984 {
entry:
  %this.addr = alloca %"class.xalanc_1_10::XalanAllocationGuard"*, align 8
  store %"class.xalanc_1_10::XalanAllocationGuard"* %this, %"class.xalanc_1_10::XalanAllocationGuard"** %this.addr, align 8
  call void @llvm.dbg.declare(metadata %"class.xalanc_1_10::XalanAllocationGuard"** %this.addr, metadata !2985, metadata !DIExpression()), !dbg !2986
  %this1 = load %"class.xalanc_1_10::XalanAllocationGuard"*, %"class.xalanc_1_10::XalanAllocationGuard"** %this.addr, align 8
  %m_pointer = getelementptr inbounds %"class.xalanc_1_10::XalanAllocationGuard", %"class.xalanc_1_10::XalanAllocationGuard"* %this1, i32 0, i32 1, !dbg !2987
  %0 = load i8*, i8** %m_pointer, align 8, !dbg !2987
  %cmp = icmp ne i8* %0, null, !dbg !2990
  br i1 %cmp, label %if.then, label %if.end, !dbg !2991

if.then:                                          ; preds = %entry
  %m_memoryManager = getelementptr inbounds %"class.xalanc_1_10::XalanAllocationGuard", %"class.xalanc_1_10::XalanAllocationGuard"* %this1, i32 0, i32 0, !dbg !2992
  %1 = load %"class.xercesc_2_7::MemoryManager"*, %"class.xercesc_2_7::MemoryManager"** %m_memoryManager, align 8, !dbg !2992
  %m_pointer2 = getelementptr inbounds %"class.xalanc_1_10::XalanAllocationGuard", %"class.xalanc_1_10::XalanAllocationGuard"* %this1, i32 0, i32 1, !dbg !2994
  %2 = load i8*, i8** %m_pointer2, align 8, !dbg !2994
  %3 = bitcast %"class.xercesc_2_7::MemoryManager"* %1 to void (%"class.xercesc_2_7::MemoryManager"*, i8*)***, !dbg !2995
  %vtable = load void (%"class.xercesc_2_7::MemoryManager"*, i8*)**, void (%"class.xercesc_2_7::MemoryManager"*, i8*)*** %3, align 8, !dbg !2995
  %vfn = getelementptr inbounds void (%"class.xercesc_2_7::MemoryManager"*, i8*)*, void (%"class.xercesc_2_7::MemoryManager"*, i8*)** %vtable, i64 3, !dbg !2995
  %4 = load void (%"class.xercesc_2_7::MemoryManager"*, i8*)*, void (%"class.xercesc_2_7::MemoryManager"*, i8*)** %vfn, align 8, !dbg !2995
  invoke void %4(%"class.xercesc_2_7::MemoryManager"* %1, i8* %2)
          to label %invoke.cont unwind label %terminate.lpad, !dbg !2995

invoke.cont:                                      ; preds = %if.then
  br label %if.end, !dbg !2996

if.end:                                           ; preds = %invoke.cont, %entry
  ret void, !dbg !2997

terminate.lpad:                                   ; preds = %if.then
  %5 = landingpad { i8*, i32 }
          catch i8* null, !dbg !2995
  %6 = extractvalue { i8*, i32 } %5, 0, !dbg !2995
  call void @__clang_call_terminate(i8* %6) #9, !dbg !2995
  unreachable, !dbg !2995
}

; Function Attrs: noinline uwtable
define linkonce_odr dso_local void @_ZN11xalanc_1_1014ArenaBlockBaseINS_15XResultTreeFragEtEC2ERN11xercesc_2_713MemoryManagerEt(%"class.xalanc_1_10::ArenaBlockBase"* %this, %"class.xercesc_2_7::MemoryManager"* dereferenceable(8) %theManager, i16 zeroext %theBlockSize) unnamed_addr #0 comdat align 2 personality i8* bitcast (i32 (...)* @__gxx_personality_v0 to i8*) !dbg !2998 {
entry:
  %this.addr = alloca %"class.xalanc_1_10::ArenaBlockBase"*, align 8
  %theManager.addr = alloca %"class.xercesc_2_7::MemoryManager"*, align 8
  %theBlockSize.addr = alloca i16, align 2
  %exn.slot = alloca i8*
  %ehselector.slot = alloca i32
  store %"class.xalanc_1_10::ArenaBlockBase"* %this, %"class.xalanc_1_10::ArenaBlockBase"** %this.addr, align 8
  call void @llvm.dbg.declare(metadata %"class.xalanc_1_10::ArenaBlockBase"** %this.addr, metadata !2999, metadata !DIExpression()), !dbg !3001
  store %"class.xercesc_2_7::MemoryManager"* %theManager, %"class.xercesc_2_7::MemoryManager"** %theManager.addr, align 8
  call void @llvm.dbg.declare(metadata %"class.xercesc_2_7::MemoryManager"** %theManager.addr, metadata !3002, metadata !DIExpression()), !dbg !3003
  store i16 %theBlockSize, i16* %theBlockSize.addr, align 2
  call void @llvm.dbg.declare(metadata i16* %theBlockSize.addr, metadata !3004, metadata !DIExpression()), !dbg !3005
  %this1 = load %"class.xalanc_1_10::ArenaBlockBase"*, %"class.xalanc_1_10::ArenaBlockBase"** %this.addr, align 8
  %m_allocator = getelementptr inbounds %"class.xalanc_1_10::ArenaBlockBase", %"class.xalanc_1_10::ArenaBlockBase"* %this1, i32 0, i32 0, !dbg !3006
  %0 = load %"class.xercesc_2_7::MemoryManager"*, %"class.xercesc_2_7::MemoryManager"** %theManager.addr, align 8, !dbg !3007
  call void @_ZN11xalanc_1_1014XalanAllocatorINS_15XResultTreeFragEEC2ERN11xercesc_2_713MemoryManagerE(%"class.xalanc_1_10::XalanAllocator"* %m_allocator, %"class.xercesc_2_7::MemoryManager"* dereferenceable(8) %0), !dbg !3006
  %m_objectCount = getelementptr inbounds %"class.xalanc_1_10::ArenaBlockBase", %"class.xalanc_1_10::ArenaBlockBase"* %this1, i32 0, i32 1, !dbg !3008
  store i16 0, i16* %m_objectCount, align 8, !dbg !3008
  %m_blockSize = getelementptr inbounds %"class.xalanc_1_10::ArenaBlockBase", %"class.xalanc_1_10::ArenaBlockBase"* %this1, i32 0, i32 2, !dbg !3009
  %1 = load i16, i16* %theBlockSize.addr, align 2, !dbg !3010
  store i16 %1, i16* %m_blockSize, align 2, !dbg !3009
  %m_objectBlock = getelementptr inbounds %"class.xalanc_1_10::ArenaBlockBase", %"class.xalanc_1_10::ArenaBlockBase"* %this1, i32 0, i32 3, !dbg !3011
  %m_allocator2 = getelementptr inbounds %"class.xalanc_1_10::ArenaBlockBase", %"class.xalanc_1_10::ArenaBlockBase"* %this1, i32 0, i32 0, !dbg !3012
  %m_blockSize3 = getelementptr inbounds %"class.xalanc_1_10::ArenaBlockBase", %"class.xalanc_1_10::ArenaBlockBase"* %this1, i32 0, i32 2, !dbg !3013
  %2 = load i16, i16* %m_blockSize3, align 2, !dbg !3013
  %conv = zext i16 %2 to i64, !dbg !3013
  %call = invoke %"class.xalanc_1_10::XResultTreeFrag"* @_ZN11xalanc_1_1014XalanAllocatorINS_15XResultTreeFragEE8allocateEmPKv(%"class.xalanc_1_10::XalanAllocator"* %m_allocator2, i64 %conv, i8* null)
          to label %invoke.cont unwind label %lpad, !dbg !3014

invoke.cont:                                      ; preds = %entry
  store %"class.xalanc_1_10::XResultTreeFrag"* %call, %"class.xalanc_1_10::XResultTreeFrag"** %m_objectBlock, align 8, !dbg !3011
  ret void, !dbg !3015

lpad:                                             ; preds = %entry
  %3 = landingpad { i8*, i32 }
          cleanup, !dbg !3015
  %4 = extractvalue { i8*, i32 } %3, 0, !dbg !3015
  store i8* %4, i8** %exn.slot, align 8, !dbg !3015
  %5 = extractvalue { i8*, i32 } %3, 1, !dbg !3015
  store i32 %5, i32* %ehselector.slot, align 4, !dbg !3015
  call void @_ZN11xalanc_1_1014XalanAllocatorINS_15XResultTreeFragEED2Ev(%"class.xalanc_1_10::XalanAllocator"* %m_allocator) #7, !dbg !3016
  br label %eh.resume, !dbg !3016

eh.resume:                                        ; preds = %lpad
  %exn = load i8*, i8** %exn.slot, align 8, !dbg !3016
  %sel = load i32, i32* %ehselector.slot, align 4, !dbg !3016
  %lpad.val = insertvalue { i8*, i32 } undef, i8* %exn, 0, !dbg !3016
  %lpad.val4 = insertvalue { i8*, i32 } %lpad.val, i32 %sel, 1, !dbg !3016
  resume { i8*, i32 } %lpad.val4, !dbg !3016
}

; Function Attrs: argmemonly nounwind willreturn
declare void @llvm.memset.p0i8.i64(i8* nocapture writeonly, i8, i64, i1 immarg) #6

; Function Attrs: noinline nounwind uwtable
define linkonce_odr dso_local void @_ZN11xalanc_1_1018ReusableArenaBlockINS_15XResultTreeFragEtE9NextBlockC2Et(%"struct.xalanc_1_10::ReusableArenaBlock<xalanc_1_10::XResultTreeFrag, unsigned short>::NextBlock"* %this, i16 zeroext %_next) unnamed_addr #2 comdat align 2 !dbg !3018 {
entry:
  %this.addr = alloca %"struct.xalanc_1_10::ReusableArenaBlock<xalanc_1_10::XResultTreeFrag, unsigned short>::NextBlock"*, align 8
  %_next.addr = alloca i16, align 2
  store %"struct.xalanc_1_10::ReusableArenaBlock<xalanc_1_10::XResultTreeFrag, unsigned short>::NextBlock"* %this, %"struct.xalanc_1_10::ReusableArenaBlock<xalanc_1_10::XResultTreeFrag, unsigned short>::NextBlock"** %this.addr, align 8
  call void @llvm.dbg.declare(metadata %"struct.xalanc_1_10::ReusableArenaBlock<xalanc_1_10::XResultTreeFrag, unsigned short>::NextBlock"** %this.addr, metadata !3019, metadata !DIExpression()), !dbg !3020
  store i16 %_next, i16* %_next.addr, align 2
  call void @llvm.dbg.declare(metadata i16* %_next.addr, metadata !3021, metadata !DIExpression()), !dbg !3022
  %this1 = load %"struct.xalanc_1_10::ReusableArenaBlock<xalanc_1_10::XResultTreeFrag, unsigned short>::NextBlock"*, %"struct.xalanc_1_10::ReusableArenaBlock<xalanc_1_10::XResultTreeFrag, unsigned short>::NextBlock"** %this.addr, align 8
  %next = getelementptr inbounds %"struct.xalanc_1_10::ReusableArenaBlock<xalanc_1_10::XResultTreeFrag, unsigned short>::NextBlock", %"struct.xalanc_1_10::ReusableArenaBlock<xalanc_1_10::XResultTreeFrag, unsigned short>::NextBlock"* %this1, i32 0, i32 0, !dbg !3023
  %0 = load i16, i16* %_next.addr, align 2, !dbg !3024
  store i16 %0, i16* %next, align 4, !dbg !3023
  %verificationStamp = getelementptr inbounds %"struct.xalanc_1_10::ReusableArenaBlock<xalanc_1_10::XResultTreeFrag, unsigned short>::NextBlock", %"struct.xalanc_1_10::ReusableArenaBlock<xalanc_1_10::XResultTreeFrag, unsigned short>::NextBlock"* %this1, i32 0, i32 1, !dbg !3025
  store i32 -2228259, i32* %verificationStamp, align 4, !dbg !3025
  ret void, !dbg !3026
}

; Function Attrs: noinline nounwind uwtable
define linkonce_odr dso_local void @_ZN11xalanc_1_1014ArenaBlockBaseINS_15XResultTreeFragEtED2Ev(%"class.xalanc_1_10::ArenaBlockBase"* %this) unnamed_addr #2 comdat align 2 personality i8* bitcast (i32 (...)* @__gxx_personality_v0 to i8*) !dbg !3027 {
entry:
  %this.addr = alloca %"class.xalanc_1_10::ArenaBlockBase"*, align 8
  %exn.slot = alloca i8*
  %ehselector.slot = alloca i32
  store %"class.xalanc_1_10::ArenaBlockBase"* %this, %"class.xalanc_1_10::ArenaBlockBase"** %this.addr, align 8
  call void @llvm.dbg.declare(metadata %"class.xalanc_1_10::ArenaBlockBase"** %this.addr, metadata !3028, metadata !DIExpression()), !dbg !3029
  %this1 = load %"class.xalanc_1_10::ArenaBlockBase"*, %"class.xalanc_1_10::ArenaBlockBase"** %this.addr, align 8
  %m_allocator = getelementptr inbounds %"class.xalanc_1_10::ArenaBlockBase", %"class.xalanc_1_10::ArenaBlockBase"* %this1, i32 0, i32 0, !dbg !3030
  %m_objectBlock = getelementptr inbounds %"class.xalanc_1_10::ArenaBlockBase", %"class.xalanc_1_10::ArenaBlockBase"* %this1, i32 0, i32 3, !dbg !3032
  %0 = load %"class.xalanc_1_10::XResultTreeFrag"*, %"class.xalanc_1_10::XResultTreeFrag"** %m_objectBlock, align 8, !dbg !3032
  %m_blockSize = getelementptr inbounds %"class.xalanc_1_10::ArenaBlockBase", %"class.xalanc_1_10::ArenaBlockBase"* %this1, i32 0, i32 2, !dbg !3033
  %1 = load i16, i16* %m_blockSize, align 2, !dbg !3033
  %conv = zext i16 %1 to i64, !dbg !3033
  invoke void @_ZN11xalanc_1_1014XalanAllocatorINS_15XResultTreeFragEE10deallocateEPS1_m(%"class.xalanc_1_10::XalanAllocator"* %m_allocator, %"class.xalanc_1_10::XResultTreeFrag"* %0, i64 %conv)
          to label %invoke.cont unwind label %lpad, !dbg !3034

invoke.cont:                                      ; preds = %entry
  %m_allocator2 = getelementptr inbounds %"class.xalanc_1_10::ArenaBlockBase", %"class.xalanc_1_10::ArenaBlockBase"* %this1, i32 0, i32 0, !dbg !3035
  call void @_ZN11xalanc_1_1014XalanAllocatorINS_15XResultTreeFragEED2Ev(%"class.xalanc_1_10::XalanAllocator"* %m_allocator2) #7, !dbg !3035
  ret void, !dbg !3036

lpad:                                             ; preds = %entry
  %2 = landingpad { i8*, i32 }
          catch i8* null, !dbg !3035
  %3 = extractvalue { i8*, i32 } %2, 0, !dbg !3035
  store i8* %3, i8** %exn.slot, align 8, !dbg !3035
  %4 = extractvalue { i8*, i32 } %2, 1, !dbg !3035
  store i32 %4, i32* %ehselector.slot, align 4, !dbg !3035
  %m_allocator3 = getelementptr inbounds %"class.xalanc_1_10::ArenaBlockBase", %"class.xalanc_1_10::ArenaBlockBase"* %this1, i32 0, i32 0, !dbg !3035
  call void @_ZN11xalanc_1_1014XalanAllocatorINS_15XResultTreeFragEED2Ev(%"class.xalanc_1_10::XalanAllocator"* %m_allocator3) #7, !dbg !3035
  br label %terminate.handler, !dbg !3035

terminate.handler:                                ; preds = %lpad
  %exn = load i8*, i8** %exn.slot, align 8, !dbg !3035
  call void @__clang_call_terminate(i8* %exn) #9, !dbg !3035
  unreachable, !dbg !3035
}

; Function Attrs: noinline nounwind uwtable
define linkonce_odr dso_local void @_ZN11xalanc_1_1014XalanAllocatorINS_15XResultTreeFragEEC2ERN11xercesc_2_713MemoryManagerE(%"class.xalanc_1_10::XalanAllocator"* %this, %"class.xercesc_2_7::MemoryManager"* dereferenceable(8) %theManager) unnamed_addr #2 comdat align 2 !dbg !3037 {
entry:
  %this.addr = alloca %"class.xalanc_1_10::XalanAllocator"*, align 8
  %theManager.addr = alloca %"class.xercesc_2_7::MemoryManager"*, align 8
  store %"class.xalanc_1_10::XalanAllocator"* %this, %"class.xalanc_1_10::XalanAllocator"** %this.addr, align 8
  call void @llvm.dbg.declare(metadata %"class.xalanc_1_10::XalanAllocator"** %this.addr, metadata !3038, metadata !DIExpression()), !dbg !3040
  store %"class.xercesc_2_7::MemoryManager"* %theManager, %"class.xercesc_2_7::MemoryManager"** %theManager.addr, align 8
  call void @llvm.dbg.declare(metadata %"class.xercesc_2_7::MemoryManager"** %theManager.addr, metadata !3041, metadata !DIExpression()), !dbg !3042
  %this1 = load %"class.xalanc_1_10::XalanAllocator"*, %"class.xalanc_1_10::XalanAllocator"** %this.addr, align 8
  %m_memoryManager = getelementptr inbounds %"class.xalanc_1_10::XalanAllocator", %"class.xalanc_1_10::XalanAllocator"* %this1, i32 0, i32 0, !dbg !3043
  %0 = load %"class.xercesc_2_7::MemoryManager"*, %"class.xercesc_2_7::MemoryManager"** %theManager.addr, align 8, !dbg !3044
  store %"class.xercesc_2_7::MemoryManager"* %0, %"class.xercesc_2_7::MemoryManager"** %m_memoryManager, align 8, !dbg !3043
  ret void, !dbg !3045
}

; Function Attrs: noinline uwtable
define linkonce_odr dso_local %"class.xalanc_1_10::XResultTreeFrag"* @_ZN11xalanc_1_1014XalanAllocatorINS_15XResultTreeFragEE8allocateEmPKv(%"class.xalanc_1_10::XalanAllocator"* %this, i64 %size, i8* %0) #0 comdat align 2 !dbg !3046 {
entry:
  %this.addr = alloca %"class.xalanc_1_10::XalanAllocator"*, align 8
  %size.addr = alloca i64, align 8
  %.addr = alloca i8*, align 8
  store %"class.xalanc_1_10::XalanAllocator"* %this, %"class.xalanc_1_10::XalanAllocator"** %this.addr, align 8
  call void @llvm.dbg.declare(metadata %"class.xalanc_1_10::XalanAllocator"** %this.addr, metadata !3047, metadata !DIExpression()), !dbg !3048
  store i64 %size, i64* %size.addr, align 8
  call void @llvm.dbg.declare(metadata i64* %size.addr, metadata !3049, metadata !DIExpression()), !dbg !3050
  store i8* %0, i8** %.addr, align 8
  call void @llvm.dbg.declare(metadata i8** %.addr, metadata !3051, metadata !DIExpression()), !dbg !3052
  %this1 = load %"class.xalanc_1_10::XalanAllocator"*, %"class.xalanc_1_10::XalanAllocator"** %this.addr, align 8
  %m_memoryManager = getelementptr inbounds %"class.xalanc_1_10::XalanAllocator", %"class.xalanc_1_10::XalanAllocator"* %this1, i32 0, i32 0, !dbg !3053
  %1 = load %"class.xercesc_2_7::MemoryManager"*, %"class.xercesc_2_7::MemoryManager"** %m_memoryManager, align 8, !dbg !3053
  %2 = load i64, i64* %size.addr, align 8, !dbg !3054
  %mul = mul i64 %2, 96, !dbg !3055
  %3 = bitcast %"class.xercesc_2_7::MemoryManager"* %1 to i8* (%"class.xercesc_2_7::MemoryManager"*, i64)***, !dbg !3056
  %vtable = load i8* (%"class.xercesc_2_7::MemoryManager"*, i64)**, i8* (%"class.xercesc_2_7::MemoryManager"*, i64)*** %3, align 8, !dbg !3056
  %vfn = getelementptr inbounds i8* (%"class.xercesc_2_7::MemoryManager"*, i64)*, i8* (%"class.xercesc_2_7::MemoryManager"*, i64)** %vtable, i64 2, !dbg !3056
  %4 = load i8* (%"class.xercesc_2_7::MemoryManager"*, i64)*, i8* (%"class.xercesc_2_7::MemoryManager"*, i64)** %vfn, align 8, !dbg !3056
  %call = call i8* %4(%"class.xercesc_2_7::MemoryManager"* %1, i64 %mul), !dbg !3056
  %5 = bitcast i8* %call to %"class.xalanc_1_10::XResultTreeFrag"*, !dbg !3057
  ret %"class.xalanc_1_10::XResultTreeFrag"* %5, !dbg !3058
}

; Function Attrs: noinline nounwind uwtable
define linkonce_odr dso_local void @_ZN11xalanc_1_1014XalanAllocatorINS_15XResultTreeFragEED2Ev(%"class.xalanc_1_10::XalanAllocator"* %this) unnamed_addr #2 comdat align 2 !dbg !3059 {
entry:
  %this.addr = alloca %"class.xalanc_1_10::XalanAllocator"*, align 8
  store %"class.xalanc_1_10::XalanAllocator"* %this, %"class.xalanc_1_10::XalanAllocator"** %this.addr, align 8
  call void @llvm.dbg.declare(metadata %"class.xalanc_1_10::XalanAllocator"** %this.addr, metadata !3060, metadata !DIExpression()), !dbg !3061
  %this1 = load %"class.xalanc_1_10::XalanAllocator"*, %"class.xalanc_1_10::XalanAllocator"** %this.addr, align 8
  ret void, !dbg !3062
}

; Function Attrs: noinline uwtable
define linkonce_odr dso_local void @_ZN11xalanc_1_1014XalanAllocatorINS_15XResultTreeFragEE10deallocateEPS1_m(%"class.xalanc_1_10::XalanAllocator"* %this, %"class.xalanc_1_10::XResultTreeFrag"* %p, i64 %0) #0 comdat align 2 !dbg !3063 {
entry:
  %this.addr = alloca %"class.xalanc_1_10::XalanAllocator"*, align 8
  %p.addr = alloca %"class.xalanc_1_10::XResultTreeFrag"*, align 8
  %.addr = alloca i64, align 8
  store %"class.xalanc_1_10::XalanAllocator"* %this, %"class.xalanc_1_10::XalanAllocator"** %this.addr, align 8
  call void @llvm.dbg.declare(metadata %"class.xalanc_1_10::XalanAllocator"** %this.addr, metadata !3064, metadata !DIExpression()), !dbg !3065
  store %"class.xalanc_1_10::XResultTreeFrag"* %p, %"class.xalanc_1_10::XResultTreeFrag"** %p.addr, align 8
  call void @llvm.dbg.declare(metadata %"class.xalanc_1_10::XResultTreeFrag"** %p.addr, metadata !3066, metadata !DIExpression()), !dbg !3067
  store i64 %0, i64* %.addr, align 8
  call void @llvm.dbg.declare(metadata i64* %.addr, metadata !3068, metadata !DIExpression()), !dbg !3069
  %this1 = load %"class.xalanc_1_10::XalanAllocator"*, %"class.xalanc_1_10::XalanAllocator"** %this.addr, align 8
  %1 = load %"class.xalanc_1_10::XResultTreeFrag"*, %"class.xalanc_1_10::XResultTreeFrag"** %p.addr, align 8, !dbg !3070
  %cmp = icmp eq %"class.xalanc_1_10::XResultTreeFrag"* %1, null, !dbg !3072
  br i1 %cmp, label %if.then, label %if.end, !dbg !3073

if.then:                                          ; preds = %entry
  br label %return, !dbg !3074

if.end:                                           ; preds = %entry
  %m_memoryManager = getelementptr inbounds %"class.xalanc_1_10::XalanAllocator", %"class.xalanc_1_10::XalanAllocator"* %this1, i32 0, i32 0, !dbg !3076
  %2 = load %"class.xercesc_2_7::MemoryManager"*, %"class.xercesc_2_7::MemoryManager"** %m_memoryManager, align 8, !dbg !3076
  %3 = load %"class.xalanc_1_10::XResultTreeFrag"*, %"class.xalanc_1_10::XResultTreeFrag"** %p.addr, align 8, !dbg !3077
  %4 = bitcast %"class.xalanc_1_10::XResultTreeFrag"* %3 to i8*, !dbg !3077
  %5 = bitcast %"class.xercesc_2_7::MemoryManager"* %2 to void (%"class.xercesc_2_7::MemoryManager"*, i8*)***, !dbg !3078
  %vtable = load void (%"class.xercesc_2_7::MemoryManager"*, i8*)**, void (%"class.xercesc_2_7::MemoryManager"*, i8*)*** %5, align 8, !dbg !3078
  %vfn = getelementptr inbounds void (%"class.xercesc_2_7::MemoryManager"*, i8*)*, void (%"class.xercesc_2_7::MemoryManager"*, i8*)** %vtable, i64 3, !dbg !3078
  %6 = load void (%"class.xercesc_2_7::MemoryManager"*, i8*)*, void (%"class.xercesc_2_7::MemoryManager"*, i8*)** %vfn, align 8, !dbg !3078
  call void %6(%"class.xercesc_2_7::MemoryManager"* %2, i8* %4), !dbg !3078
  br label %return, !dbg !3079

return:                                           ; preds = %if.end, %if.then
  ret void, !dbg !3079
}

; Function Attrs: noinline nounwind uwtable
define linkonce_odr dso_local %"struct.xalanc_1_10::ReusableArenaBlock<xalanc_1_10::XResultTreeFrag, unsigned short>::NextBlock"* @_ZN11xalanc_1_1018ReusableArenaBlockINS_15XResultTreeFragEtE9NextBlock4castEPv(i8* %thePointer) #2 comdat align 2 !dbg !3080 {
entry:
  %thePointer.addr = alloca i8*, align 8
  store i8* %thePointer, i8** %thePointer.addr, align 8
  call void @llvm.dbg.declare(metadata i8** %thePointer.addr, metadata !3081, metadata !DIExpression()), !dbg !3082
  %0 = load i8*, i8** %thePointer.addr, align 8, !dbg !3083
  %1 = bitcast i8* %0 to %"struct.xalanc_1_10::ReusableArenaBlock<xalanc_1_10::XResultTreeFrag, unsigned short>::NextBlock"*, !dbg !3084
  ret %"struct.xalanc_1_10::ReusableArenaBlock<xalanc_1_10::XResultTreeFrag, unsigned short>::NextBlock"* %1, !dbg !3085
}

; Function Attrs: noinline nounwind uwtable
define linkonce_odr dso_local void @_ZN11xalanc_1_1018ReusableArenaBlockINS_15XResultTreeFragEtE16commitAllocationEPS1_(%"class.xalanc_1_10::ReusableArenaBlock"* %this, %"class.xalanc_1_10::XResultTreeFrag"* %0) #2 comdat align 2 !dbg !3086 {
entry:
  %this.addr = alloca %"class.xalanc_1_10::ReusableArenaBlock"*, align 8
  %.addr = alloca %"class.xalanc_1_10::XResultTreeFrag"*, align 8
  store %"class.xalanc_1_10::ReusableArenaBlock"* %this, %"class.xalanc_1_10::ReusableArenaBlock"** %this.addr, align 8
  call void @llvm.dbg.declare(metadata %"class.xalanc_1_10::ReusableArenaBlock"** %this.addr, metadata !3087, metadata !DIExpression()), !dbg !3088
  store %"class.xalanc_1_10::XResultTreeFrag"* %0, %"class.xalanc_1_10::XResultTreeFrag"** %.addr, align 8
  call void @llvm.dbg.declare(metadata %"class.xalanc_1_10::XResultTreeFrag"** %.addr, metadata !3089, metadata !DIExpression()), !dbg !3090
  %this1 = load %"class.xalanc_1_10::ReusableArenaBlock"*, %"class.xalanc_1_10::ReusableArenaBlock"** %this.addr, align 8
  %m_nextFreeBlock = getelementptr inbounds %"class.xalanc_1_10::ReusableArenaBlock", %"class.xalanc_1_10::ReusableArenaBlock"* %this1, i32 0, i32 2, !dbg !3091
  %1 = load i16, i16* %m_nextFreeBlock, align 2, !dbg !3091
  %m_firstFreeBlock = getelementptr inbounds %"class.xalanc_1_10::ReusableArenaBlock", %"class.xalanc_1_10::ReusableArenaBlock"* %this1, i32 0, i32 1, !dbg !3092
  store i16 %1, i16* %m_firstFreeBlock, align 8, !dbg !3093
  ret void, !dbg !3094
}

; Function Attrs: noinline uwtable
define linkonce_odr dso_local void @_ZNK11xalanc_1_109XalanListIPNS_18ReusableArenaBlockINS_15XResultTreeFragEtEEE4rendEv(%"class.std::reverse_iterator"* noalias sret %agg.result, %"class.xalanc_1_10::XalanList"* %this) #0 comdat align 2 !dbg !3095 {
entry:
  %result.ptr = alloca i8*, align 8
  %this.addr = alloca %"class.xalanc_1_10::XalanList"*, align 8
  %agg.tmp = alloca %"struct.xalanc_1_10::XalanListIteratorBase.0", align 8
  %0 = bitcast %"class.std::reverse_iterator"* %agg.result to i8*
  store i8* %0, i8** %result.ptr, align 8
  store %"class.xalanc_1_10::XalanList"* %this, %"class.xalanc_1_10::XalanList"** %this.addr, align 8
  call void @llvm.dbg.declare(metadata %"class.xalanc_1_10::XalanList"** %this.addr, metadata !3096, metadata !DIExpression()), !dbg !3097
  %this1 = load %"class.xalanc_1_10::XalanList"*, %"class.xalanc_1_10::XalanList"** %this.addr, align 8
  %call = call %"struct.xalanc_1_10::XalanList<xalanc_1_10::ReusableArenaBlock<xalanc_1_10::XResultTreeFrag, unsigned short> *>::Node"* @_ZNK11xalanc_1_109XalanListIPNS_18ReusableArenaBlockINS_15XResultTreeFragEtEEE5beginEv(%"class.xalanc_1_10::XalanList"* %this1), !dbg !3098
  %coerce.dive = getelementptr inbounds %"struct.xalanc_1_10::XalanListIteratorBase.0", %"struct.xalanc_1_10::XalanListIteratorBase.0"* %agg.tmp, i32 0, i32 0, !dbg !3098
  store %"struct.xalanc_1_10::XalanList<xalanc_1_10::ReusableArenaBlock<xalanc_1_10::XResultTreeFrag, unsigned short> *>::Node"* %call, %"struct.xalanc_1_10::XalanList<xalanc_1_10::ReusableArenaBlock<xalanc_1_10::XResultTreeFrag, unsigned short> *>::Node"** %coerce.dive, align 8, !dbg !3098
  %coerce.dive2 = getelementptr inbounds %"struct.xalanc_1_10::XalanListIteratorBase.0", %"struct.xalanc_1_10::XalanListIteratorBase.0"* %agg.tmp, i32 0, i32 0, !dbg !3099
  %1 = load %"struct.xalanc_1_10::XalanList<xalanc_1_10::ReusableArenaBlock<xalanc_1_10::XResultTreeFrag, unsigned short> *>::Node"*, %"struct.xalanc_1_10::XalanList<xalanc_1_10::ReusableArenaBlock<xalanc_1_10::XResultTreeFrag, unsigned short> *>::Node"** %coerce.dive2, align 8, !dbg !3099
  call void @_ZNSt16reverse_iteratorIN11xalanc_1_1021XalanListIteratorBaseINS0_28XalanListConstIteratorTraitsIPNS0_18ReusableArenaBlockINS0_15XResultTreeFragEtEEEENS0_9XalanListIS6_E4NodeEEEEC2ESB_(%"class.std::reverse_iterator"* %agg.result, %"struct.xalanc_1_10::XalanList<xalanc_1_10::ReusableArenaBlock<xalanc_1_10::XResultTreeFrag, unsigned short> *>::Node"* %1), !dbg !3099
  ret void, !dbg !3100
}

; Function Attrs: noinline uwtable
