; ModuleID = 'blender/extern/rangetree/range_tree_c_api.cc'
source_filename = "blender/extern/rangetree/range_tree_c_api.cc"
target datalayout = "e-m:e-p270:32:32-p271:32:32-p272:64:64-i64:64-f80:128-n8:16:32:64-S128"
target triple = "x86_64-unknown-linux-gnu"

%"class.std::ios_base::Init" = type { i8 }
%"class.std::basic_ostream" = type { i32 (...)**, %"class.std::basic_ios" }
%"class.std::basic_ios" = type { %"class.std::ios_base", %"class.std::basic_ostream"*, i8, i8, %"class.std::basic_streambuf"*, %"class.std::ctype"*, %"class.std::num_put"*, %"class.std::num_get"* }
%"class.std::ios_base" = type { i32 (...)**, i64, i64, i32, i32, i32, %"struct.std::ios_base::_Callback_list"*, %"struct.std::ios_base::_Words", [8 x %"struct.std::ios_base::_Words"], i32, %"struct.std::ios_base::_Words"*, %"class.std::locale" }
%"struct.std::ios_base::_Callback_list" = type { %"struct.std::ios_base::_Callback_list"*, void (i32, %"class.std::ios_base"*, i32)*, i32, i32 }
%"struct.std::ios_base::_Words" = type { i8*, i64 }
%"class.std::locale" = type { %"class.std::locale::_Impl"* }
%"class.std::locale::_Impl" = type { i32, %"class.std::locale::facet"**, i64, %"class.std::locale::facet"**, i8** }
%"class.std::locale::facet" = type <{ i32 (...)**, i32, [4 x i8] }>
%"class.std::basic_streambuf" = type { i32 (...)**, i8*, i8*, i8*, i8*, i8*, i8*, %"class.std::locale" }
%"class.std::ctype" = type <{ %"class.std::locale::facet.base", [4 x i8], %struct.__locale_struct*, i8, [7 x i8], i32*, i32*, i16*, i8, [256 x i8], [256 x i8], i8, [6 x i8] }>
%"class.std::locale::facet.base" = type <{ i32 (...)**, i32 }>
%struct.__locale_struct = type { [13 x %struct.__locale_data*], i16*, i32*, i32*, [13 x i8*] }
%struct.__locale_data = type opaque
%"class.std::num_put" = type { %"class.std::locale::facet.base", [4 x i8] }
%"class.std::num_get" = type { %"class.std::locale::facet.base", [4 x i8] }
%struct.RangeTree = type { %"class.std::set" }
%"class.std::set" = type { %"class.std::_Rb_tree" }
%"class.std::_Rb_tree" = type { %"struct.std::_Rb_tree<RangeTree<unsigned int>::Range, RangeTree<unsigned int>::Range, std::_Identity<RangeTree<unsigned int>::Range>, std::less<RangeTree<unsigned int>::Range>, std::allocator<RangeTree<unsigned int>::Range> >::_Rb_tree_impl" }
%"struct.std::_Rb_tree<RangeTree<unsigned int>::Range, RangeTree<unsigned int>::Range, std::_Identity<RangeTree<unsigned int>::Range>, std::less<RangeTree<unsigned int>::Range>, std::allocator<RangeTree<unsigned int>::Range> >::_Rb_tree_impl" = type { %"struct.std::_Rb_tree_key_compare", %"struct.std::_Rb_tree_header" }
%"struct.std::_Rb_tree_key_compare" = type { %"struct.std::less" }
%"struct.std::less" = type { i8 }
%"struct.std::_Rb_tree_header" = type { %"struct.std::_Rb_tree_node_base", i64 }
%"struct.std::_Rb_tree_node_base" = type { i32, %"struct.std::_Rb_tree_node_base"*, %"struct.std::_Rb_tree_node_base"*, %"struct.std::_Rb_tree_node_base"* }
%"struct.RangeTree<unsigned int>::Range" = type <{ i32, i32, i8, [3 x i8] }>
%"struct.std::pair" = type <{ %"struct.std::_Rb_tree_const_iterator", i8, [7 x i8] }>
%"struct.std::_Rb_tree_const_iterator" = type { %"struct.std::_Rb_tree_node_base"* }
%"struct.std::_Rb_tree_node" = type <{ %"struct.std::_Rb_tree_node_base", %"struct.__gnu_cxx::__aligned_membuf", [4 x i8] }>
%"struct.__gnu_cxx::__aligned_membuf" = type { [12 x i8] }
%"class.std::allocator" = type { i8 }
%"class.__gnu_cxx::new_allocator" = type { i8 }
%"struct.std::pair.0" = type <{ %"struct.std::_Rb_tree_iterator", i8, [7 x i8] }>
%"struct.std::_Rb_tree_iterator" = type { %"struct.std::_Rb_tree_node_base"* }
%"struct.std::pair.4" = type { %"struct.std::_Rb_tree_node_base"*, %"struct.std::_Rb_tree_node_base"* }
%"struct.std::_Identity" = type { i8 }
%"struct.std::_Rb_tree<RangeTree<unsigned int>::Range, RangeTree<unsigned int>::Range, std::_Identity<RangeTree<unsigned int>::Range>, std::less<RangeTree<unsigned int>::Range>, std::allocator<RangeTree<unsigned int>::Range> >::_Alloc_node" = type { %"class.std::_Rb_tree"* }
%"class.std::__pair_base" = type { i8 }
%"class.std::__pair_base.1" = type { i8 }
%"class.std::__pair_base.5" = type { i8 }
%"struct.std::_Rb_tree<RangeTree<unsigned int>::Range, RangeTree<unsigned int>::Range, std::_Identity<RangeTree<unsigned int>::Range>, std::less<RangeTree<unsigned int>::Range>, std::allocator<RangeTree<unsigned int>::Range> >::_Reuse_or_alloc_node" = type { %"struct.std::_Rb_tree_node_base"*, %"struct.std::_Rb_tree_node_base"*, %"class.std::_Rb_tree"* }

$_ZN9RangeTreeIjEC2Ejj = comdat any

$_ZN9RangeTreeIjEC2ERKS0_ = comdat any

$_ZN9RangeTreeIjED2Ev = comdat any

$_ZN9RangeTreeIjE4takeEj = comdat any

$_ZN9RangeTreeIjE6retakeEj = comdat any

$_ZN9RangeTreeIjE8take_anyEv = comdat any

$_ZN9RangeTreeIjE7releaseEj = comdat any

$_ZNK9RangeTreeIjE3hasEj = comdat any

$_ZNK9RangeTreeIjE9has_rangeEjj = comdat any

$_ZNK9RangeTreeIjE5emptyEv = comdat any

$_ZNK9RangeTreeIjE4sizeEv = comdat any

$_ZNK9RangeTreeIjE5printEv = comdat any

$_ZNK9RangeTreeIjE22allocation_lower_boundEv = comdat any

$_ZNSt3setIN9RangeTreeIjE5RangeESt4lessIS2_ESaIS2_EED2Ev = comdat any

$_ZNSt8_Rb_treeIN9RangeTreeIjE5RangeES2_St9_IdentityIS2_ESt4lessIS2_ESaIS2_EED2Ev = comdat any

$_ZNSt8_Rb_treeIN9RangeTreeIjE5RangeES2_St9_IdentityIS2_ESt4lessIS2_ESaIS2_EE8_M_eraseEPSt13_Rb_tree_nodeIS2_E = comdat any

$_ZNSt8_Rb_treeIN9RangeTreeIjE5RangeES2_St9_IdentityIS2_ESt4lessIS2_ESaIS2_EE8_M_beginEv = comdat any

$_ZNSt8_Rb_treeIN9RangeTreeIjE5RangeES2_St9_IdentityIS2_ESt4lessIS2_ESaIS2_EE13_Rb_tree_implIS6_Lb1EED2Ev = comdat any

$__clang_call_terminate = comdat any

$_ZNSt8_Rb_treeIN9RangeTreeIjE5RangeES2_St9_IdentityIS2_ESt4lessIS2_ESaIS2_EE8_S_rightEPSt18_Rb_tree_node_base = comdat any

$_ZNSt8_Rb_treeIN9RangeTreeIjE5RangeES2_St9_IdentityIS2_ESt4lessIS2_ESaIS2_EE7_S_leftEPSt18_Rb_tree_node_base = comdat any

$_ZNSt8_Rb_treeIN9RangeTreeIjE5RangeES2_St9_IdentityIS2_ESt4lessIS2_ESaIS2_EE12_M_drop_nodeEPSt13_Rb_tree_nodeIS2_E = comdat any

$_ZNSt8_Rb_treeIN9RangeTreeIjE5RangeES2_St9_IdentityIS2_ESt4lessIS2_ESaIS2_EE15_M_destroy_nodeEPSt13_Rb_tree_nodeIS2_E = comdat any

$_ZNSt8_Rb_treeIN9RangeTreeIjE5RangeES2_St9_IdentityIS2_ESt4lessIS2_ESaIS2_EE11_M_put_nodeEPSt13_Rb_tree_nodeIS2_E = comdat any

$_ZNSt16allocator_traitsISaISt13_Rb_tree_nodeIN9RangeTreeIjE5RangeEEEE7destroyIS3_EEvRS5_PT_ = comdat any

$_ZNSt8_Rb_treeIN9RangeTreeIjE5RangeES2_St9_IdentityIS2_ESt4lessIS2_ESaIS2_EE21_M_get_Node_allocatorEv = comdat any

$_ZNSt13_Rb_tree_nodeIN9RangeTreeIjE5RangeEE9_M_valptrEv = comdat any

$_ZN9__gnu_cxx13new_allocatorISt13_Rb_tree_nodeIN9RangeTreeIjE5RangeEEE7destroyIS4_EEvPT_ = comdat any

$_ZN9__gnu_cxx16__aligned_membufIN9RangeTreeIjE5RangeEE6_M_ptrEv = comdat any

$_ZN9__gnu_cxx16__aligned_membufIN9RangeTreeIjE5RangeEE7_M_addrEv = comdat any

$_ZNSt16allocator_traitsISaISt13_Rb_tree_nodeIN9RangeTreeIjE5RangeEEEE10deallocateERS5_PS4_m = comdat any

$_ZN9__gnu_cxx13new_allocatorISt13_Rb_tree_nodeIN9RangeTreeIjE5RangeEEE10deallocateEPS5_m = comdat any

$_ZNSaISt13_Rb_tree_nodeIN9RangeTreeIjE5RangeEEED2Ev = comdat any

$_ZN9__gnu_cxx13new_allocatorISt13_Rb_tree_nodeIN9RangeTreeIjE5RangeEEED2Ev = comdat any

$_ZNSt3setIN9RangeTreeIjE5RangeESt4lessIS2_ESaIS2_EEC2Ev = comdat any

$_ZNSt3setIN9RangeTreeIjE5RangeESt4lessIS2_ESaIS2_EE6insertEOS2_ = comdat any

$_ZN9RangeTreeIjE5RangeC2Ejj = comdat any

$_ZNSt8_Rb_treeIN9RangeTreeIjE5RangeES2_St9_IdentityIS2_ESt4lessIS2_ESaIS2_EEC2Ev = comdat any

$_ZNSt8_Rb_treeIN9RangeTreeIjE5RangeES2_St9_IdentityIS2_ESt4lessIS2_ESaIS2_EE13_Rb_tree_implIS6_Lb1EEC2Ev = comdat any

$_ZNSaISt13_Rb_tree_nodeIN9RangeTreeIjE5RangeEEEC2Ev = comdat any

$_ZNSt20_Rb_tree_key_compareISt4lessIN9RangeTreeIjE5RangeEEEC2Ev = comdat any

$_ZNSt15_Rb_tree_headerC2Ev = comdat any

$_ZN9__gnu_cxx13new_allocatorISt13_Rb_tree_nodeIN9RangeTreeIjE5RangeEEEC2Ev = comdat any

$_ZNSt15_Rb_tree_header8_M_resetEv = comdat any

$_ZNSt8_Rb_treeIN9RangeTreeIjE5RangeES2_St9_IdentityIS2_ESt4lessIS2_ESaIS2_EE16_M_insert_uniqueIS2_EESt4pairISt17_Rb_tree_iteratorIS2_EbEOT_ = comdat any

$_ZSt4moveIRN9RangeTreeIjE5RangeEEONSt16remove_referenceIT_E4typeEOS5_ = comdat any

$_ZNSt4pairISt23_Rb_tree_const_iteratorIN9RangeTreeIjE5RangeEEbEC2IRSt17_Rb_tree_iteratorIS3_ERbLb1EEEOT_OT0_ = comdat any

$_ZNSt8_Rb_treeIN9RangeTreeIjE5RangeES2_St9_IdentityIS2_ESt4lessIS2_ESaIS2_EE24_M_get_insert_unique_posERKS2_ = comdat any

$_ZNKSt9_IdentityIN9RangeTreeIjE5RangeEEclERS2_ = comdat any

$_ZNSt8_Rb_treeIN9RangeTreeIjE5RangeES2_St9_IdentityIS2_ESt4lessIS2_ESaIS2_EE11_Alloc_nodeC2ERS8_ = comdat any

$_ZNSt8_Rb_treeIN9RangeTreeIjE5RangeES2_St9_IdentityIS2_ESt4lessIS2_ESaIS2_EE10_M_insert_IS2_NS8_11_Alloc_nodeEEESt17_Rb_tree_iteratorIS2_EPSt18_Rb_tree_node_baseSE_OT_RT0_ = comdat any

$_ZSt7forwardIN9RangeTreeIjE5RangeEEOT_RNSt16remove_referenceIS3_E4typeE = comdat any

$_ZNSt4pairISt17_Rb_tree_iteratorIN9RangeTreeIjE5RangeEEbEC2IS4_bLb1EEEOT_OT0_ = comdat any

$_ZNSt17_Rb_tree_iteratorIN9RangeTreeIjE5RangeEEC2EPSt18_Rb_tree_node_base = comdat any

$_ZNSt8_Rb_treeIN9RangeTreeIjE5RangeES2_St9_IdentityIS2_ESt4lessIS2_ESaIS2_EE6_M_endEv = comdat any

$_ZNKSt4lessIN9RangeTreeIjE5RangeEEclERKS2_S5_ = comdat any

$_ZNSt8_Rb_treeIN9RangeTreeIjE5RangeES2_St9_IdentityIS2_ESt4lessIS2_ESaIS2_EE6_S_keyEPKSt13_Rb_tree_nodeIS2_E = comdat any

$_ZSteqRKSt17_Rb_tree_iteratorIN9RangeTreeIjE5RangeEES5_ = comdat any

$_ZNSt8_Rb_treeIN9RangeTreeIjE5RangeES2_St9_IdentityIS2_ESt4lessIS2_ESaIS2_EE5beginEv = comdat any

$_ZNSt4pairIPSt18_Rb_tree_node_baseS1_EC2IRPSt13_Rb_tree_nodeIN9RangeTreeIjE5RangeEERS1_Lb1EEEOT_OT0_ = comdat any

$_ZNSt17_Rb_tree_iteratorIN9RangeTreeIjE5RangeEEmmEv = comdat any

$_ZNSt8_Rb_treeIN9RangeTreeIjE5RangeES2_St9_IdentityIS2_ESt4lessIS2_ESaIS2_EE6_S_keyEPKSt18_Rb_tree_node_base = comdat any

$_ZNSt4pairIPSt18_Rb_tree_node_baseS1_EC2IRS1_Lb1EEEOT_RKS1_ = comdat any

$_ZNK9RangeTreeIjE5RangeltERKS1_ = comdat any

$_ZNKSt9_IdentityIN9RangeTreeIjE5RangeEEclERKS2_ = comdat any

$_ZNKSt13_Rb_tree_nodeIN9RangeTreeIjE5RangeEE9_M_valptrEv = comdat any

$_ZNK9__gnu_cxx16__aligned_membufIN9RangeTreeIjE5RangeEE6_M_ptrEv = comdat any

$_ZNK9__gnu_cxx16__aligned_membufIN9RangeTreeIjE5RangeEE7_M_addrEv = comdat any

$_ZSt7forwardIRPSt13_Rb_tree_nodeIN9RangeTreeIjE5RangeEEEOT_RNSt16remove_referenceIS7_E4typeE = comdat any

$_ZSt7forwardIRPSt18_Rb_tree_node_baseEOT_RNSt16remove_referenceIS3_E4typeE = comdat any

$_ZNKSt8_Rb_treeIN9RangeTreeIjE5RangeES2_St9_IdentityIS2_ESt4lessIS2_ESaIS2_EE11_Alloc_nodeclIS2_EEPSt13_Rb_tree_nodeIS2_EOT_ = comdat any

$_ZNSt8_Rb_treeIN9RangeTreeIjE5RangeES2_St9_IdentityIS2_ESt4lessIS2_ESaIS2_EE14_M_create_nodeIJS2_EEEPSt13_Rb_tree_nodeIS2_EDpOT_ = comdat any

$_ZNSt8_Rb_treeIN9RangeTreeIjE5RangeES2_St9_IdentityIS2_ESt4lessIS2_ESaIS2_EE11_M_get_nodeEv = comdat any

$_ZNSt8_Rb_treeIN9RangeTreeIjE5RangeES2_St9_IdentityIS2_ESt4lessIS2_ESaIS2_EE17_M_construct_nodeIJS2_EEEvPSt13_Rb_tree_nodeIS2_EDpOT_ = comdat any

$_ZNSt16allocator_traitsISaISt13_Rb_tree_nodeIN9RangeTreeIjE5RangeEEEE8allocateERS5_m = comdat any

$_ZN9__gnu_cxx13new_allocatorISt13_Rb_tree_nodeIN9RangeTreeIjE5RangeEEE8allocateEmPKv = comdat any

$_ZNK9__gnu_cxx13new_allocatorISt13_Rb_tree_nodeIN9RangeTreeIjE5RangeEEE11_M_max_sizeEv = comdat any

$_ZNSt16allocator_traitsISaISt13_Rb_tree_nodeIN9RangeTreeIjE5RangeEEEE9constructIS3_JS3_EEEvRS5_PT_DpOT0_ = comdat any

$_ZN9__gnu_cxx13new_allocatorISt13_Rb_tree_nodeIN9RangeTreeIjE5RangeEEE9constructIS4_JS4_EEEvPT_DpOT0_ = comdat any

$_ZSt7forwardISt17_Rb_tree_iteratorIN9RangeTreeIjE5RangeEEEOT_RNSt16remove_referenceIS5_E4typeE = comdat any

$_ZSt7forwardIbEOT_RNSt16remove_referenceIS0_E4typeE = comdat any

$_ZSt7forwardIRSt17_Rb_tree_iteratorIN9RangeTreeIjE5RangeEEEOT_RNSt16remove_referenceIS6_E4typeE = comdat any

$_ZNSt23_Rb_tree_const_iteratorIN9RangeTreeIjE5RangeEEC2ERKSt17_Rb_tree_iteratorIS2_E = comdat any

$_ZSt7forwardIRbEOT_RNSt16remove_referenceIS1_E4typeE = comdat any

$_ZNSt3setIN9RangeTreeIjE5RangeESt4lessIS2_ESaIS2_EEaSERKS6_ = comdat any

$_ZNSt8_Rb_treeIN9RangeTreeIjE5RangeES2_St9_IdentityIS2_ESt4lessIS2_ESaIS2_EEaSERKS8_ = comdat any

$_ZNSt8_Rb_treeIN9RangeTreeIjE5RangeES2_St9_IdentityIS2_ESt4lessIS2_ESaIS2_EE20_Reuse_or_alloc_nodeC2ERS8_ = comdat any

$_ZNKSt8_Rb_treeIN9RangeTreeIjE5RangeES2_St9_IdentityIS2_ESt4lessIS2_ESaIS2_EE7_M_rootEv = comdat any

$_ZNSt8_Rb_treeIN9RangeTreeIjE5RangeES2_St9_IdentityIS2_ESt4lessIS2_ESaIS2_EE7_M_copyINS8_20_Reuse_or_alloc_nodeEEEPSt13_Rb_tree_nodeIS2_ERKS8_RT_ = comdat any

$_ZNSt8_Rb_treeIN9RangeTreeIjE5RangeES2_St9_IdentityIS2_ESt4lessIS2_ESaIS2_EE7_M_rootEv = comdat any

$_ZNSt8_Rb_treeIN9RangeTreeIjE5RangeES2_St9_IdentityIS2_ESt4lessIS2_ESaIS2_EE20_Reuse_or_alloc_nodeD2Ev = comdat any

$_ZNSt8_Rb_treeIN9RangeTreeIjE5RangeES2_St9_IdentityIS2_ESt4lessIS2_ESaIS2_EE12_M_rightmostEv = comdat any

$_ZNSt8_Rb_treeIN9RangeTreeIjE5RangeES2_St9_IdentityIS2_ESt4lessIS2_ESaIS2_EE7_M_copyINS8_20_Reuse_or_alloc_nodeEEEPSt13_Rb_tree_nodeIS2_EPKSC_PSt18_Rb_tree_node_baseRT_ = comdat any

$_ZNKSt8_Rb_treeIN9RangeTreeIjE5RangeES2_St9_IdentityIS2_ESt4lessIS2_ESaIS2_EE8_M_beginEv = comdat any

$_ZNSt8_Rb_treeIN9RangeTreeIjE5RangeES2_St9_IdentityIS2_ESt4lessIS2_ESaIS2_EE10_S_minimumEPSt18_Rb_tree_node_base = comdat any

$_ZNSt8_Rb_treeIN9RangeTreeIjE5RangeES2_St9_IdentityIS2_ESt4lessIS2_ESaIS2_EE11_M_leftmostEv = comdat any

$_ZNSt8_Rb_treeIN9RangeTreeIjE5RangeES2_St9_IdentityIS2_ESt4lessIS2_ESaIS2_EE10_S_maximumEPSt18_Rb_tree_node_base = comdat any

$_ZNSt8_Rb_treeIN9RangeTreeIjE5RangeES2_St9_IdentityIS2_ESt4lessIS2_ESaIS2_EE13_M_clone_nodeINS8_20_Reuse_or_alloc_nodeEEEPSt13_Rb_tree_nodeIS2_EPKSC_RT_ = comdat any

$_ZNSt8_Rb_treeIN9RangeTreeIjE5RangeES2_St9_IdentityIS2_ESt4lessIS2_ESaIS2_EE8_S_rightEPKSt18_Rb_tree_node_base = comdat any

$_ZNSt8_Rb_treeIN9RangeTreeIjE5RangeES2_St9_IdentityIS2_ESt4lessIS2_ESaIS2_EE7_S_leftEPKSt18_Rb_tree_node_base = comdat any

$_ZNSt8_Rb_treeIN9RangeTreeIjE5RangeES2_St9_IdentityIS2_ESt4lessIS2_ESaIS2_EE20_Reuse_or_alloc_nodeclIRKS2_EEPSt13_Rb_tree_nodeIS2_EOT_ = comdat any

$_ZNSt8_Rb_treeIN9RangeTreeIjE5RangeES2_St9_IdentityIS2_ESt4lessIS2_ESaIS2_EE20_Reuse_or_alloc_node10_M_extractEv = comdat any

$_ZNSt8_Rb_treeIN9RangeTreeIjE5RangeES2_St9_IdentityIS2_ESt4lessIS2_ESaIS2_EE17_M_construct_nodeIJRKS2_EEEvPSt13_Rb_tree_nodeIS2_EDpOT_ = comdat any

$_ZSt7forwardIRKN9RangeTreeIjE5RangeEEOT_RNSt16remove_referenceIS5_E4typeE = comdat any

$_ZNSt8_Rb_treeIN9RangeTreeIjE5RangeES2_St9_IdentityIS2_ESt4lessIS2_ESaIS2_EE14_M_create_nodeIJRKS2_EEEPSt13_Rb_tree_nodeIS2_EDpOT_ = comdat any

$_ZNSt16allocator_traitsISaISt13_Rb_tree_nodeIN9RangeTreeIjE5RangeEEEE9constructIS3_JRKS3_EEEvRS5_PT_DpOT0_ = comdat any

$_ZN9__gnu_cxx13new_allocatorISt13_Rb_tree_nodeIN9RangeTreeIjE5RangeEEE9constructIS4_JRKS4_EEEvPT_DpOT0_ = comdat any

$_ZNSt18_Rb_tree_node_base10_S_minimumEPS_ = comdat any

$_ZNSt18_Rb_tree_node_base10_S_maximumEPS_ = comdat any

$_ZNSt3setIN9RangeTreeIjE5RangeESt4lessIS2_ESaIS2_EE4findERKS2_ = comdat any

$_ZN9RangeTreeIjE5RangeC2Ej = comdat any

$_ZNKSt23_Rb_tree_const_iteratorIN9RangeTreeIjE5RangeEEdeEv = comdat any

$_ZNSt3setIN9RangeTreeIjE5RangeESt4lessIS2_ESaIS2_EE5eraseB5cxx11ESt23_Rb_tree_const_iteratorIS2_E = comdat any

$_ZNSt8_Rb_treeIN9RangeTreeIjE5RangeES2_St9_IdentityIS2_ESt4lessIS2_ESaIS2_EE4findERKS2_ = comdat any

$_ZNSt8_Rb_treeIN9RangeTreeIjE5RangeES2_St9_IdentityIS2_ESt4lessIS2_ESaIS2_EE14_M_lower_boundEPSt13_Rb_tree_nodeIS2_EPSt18_Rb_tree_node_baseRKS2_ = comdat any

$_ZNSt8_Rb_treeIN9RangeTreeIjE5RangeES2_St9_IdentityIS2_ESt4lessIS2_ESaIS2_EE3endEv = comdat any

$_ZNSt8_Rb_treeIN9RangeTreeIjE5RangeES2_St9_IdentityIS2_ESt4lessIS2_ESaIS2_EE5eraseB5cxx11ESt23_Rb_tree_const_iteratorIS2_E = comdat any

$_ZNSt23_Rb_tree_const_iteratorIN9RangeTreeIjE5RangeEEppEv = comdat any

$_ZNSt8_Rb_treeIN9RangeTreeIjE5RangeES2_St9_IdentityIS2_ESt4lessIS2_ESaIS2_EE12_M_erase_auxESt23_Rb_tree_const_iteratorIS2_E = comdat any

$_ZNKSt23_Rb_tree_const_iteratorIN9RangeTreeIjE5RangeEE13_M_const_castEv = comdat any

$_ZSteqRKSt23_Rb_tree_const_iteratorIN9RangeTreeIjE5RangeEES5_ = comdat any

$_ZNKSt3setIN9RangeTreeIjE5RangeESt4lessIS2_ESaIS2_EE3endEv = comdat any

$_ZNKSt8_Rb_treeIN9RangeTreeIjE5RangeES2_St9_IdentityIS2_ESt4lessIS2_ESaIS2_EE3endEv = comdat any

$_ZNSt23_Rb_tree_const_iteratorIN9RangeTreeIjE5RangeEEC2EPKSt18_Rb_tree_node_base = comdat any

$_ZNKSt3setIN9RangeTreeIjE5RangeESt4lessIS2_ESaIS2_EE5beginEv = comdat any

$_ZNKSt23_Rb_tree_const_iteratorIN9RangeTreeIjE5RangeEEptEv = comdat any

$_ZNKSt8_Rb_treeIN9RangeTreeIjE5RangeES2_St9_IdentityIS2_ESt4lessIS2_ESaIS2_EE5beginEv = comdat any

$_ZNSt3setIN9RangeTreeIjE5RangeESt4lessIS2_ESaIS2_EE11upper_boundERKS2_ = comdat any

$_ZStneRKSt23_Rb_tree_const_iteratorIN9RangeTreeIjE5RangeEES5_ = comdat any

$_ZNSt23_Rb_tree_const_iteratorIN9RangeTreeIjE5RangeEEmmEv = comdat any

$_ZNSt3setIN9RangeTreeIjE5RangeESt4lessIS2_ESaIS2_EE6insertERKS2_ = comdat any

$_ZNSt23_Rb_tree_const_iteratorIN9RangeTreeIjE5RangeEEmmEi = comdat any

$_ZNSt8_Rb_treeIN9RangeTreeIjE5RangeES2_St9_IdentityIS2_ESt4lessIS2_ESaIS2_EE11upper_boundERKS2_ = comdat any

$_ZNSt8_Rb_treeIN9RangeTreeIjE5RangeES2_St9_IdentityIS2_ESt4lessIS2_ESaIS2_EE14_M_upper_boundEPSt13_Rb_tree_nodeIS2_EPSt18_Rb_tree_node_baseRKS2_ = comdat any

$_ZNSt8_Rb_treeIN9RangeTreeIjE5RangeES2_St9_IdentityIS2_ESt4lessIS2_ESaIS2_EE16_M_insert_uniqueIRKS2_EESt4pairISt17_Rb_tree_iteratorIS2_EbEOT_ = comdat any

$_ZNSt8_Rb_treeIN9RangeTreeIjE5RangeES2_St9_IdentityIS2_ESt4lessIS2_ESaIS2_EE10_M_insert_IRKS2_NS8_11_Alloc_nodeEEESt17_Rb_tree_iteratorIS2_EPSt18_Rb_tree_node_baseSG_OT_RT0_ = comdat any

$_ZNKSt8_Rb_treeIN9RangeTreeIjE5RangeES2_St9_IdentityIS2_ESt4lessIS2_ESaIS2_EE11_Alloc_nodeclIRKS2_EEPSt13_Rb_tree_nodeIS2_EOT_ = comdat any

$_ZNKSt3setIN9RangeTreeIjE5RangeESt4lessIS2_ESaIS2_EE4findERKS2_ = comdat any

$_ZNKSt8_Rb_treeIN9RangeTreeIjE5RangeES2_St9_IdentityIS2_ESt4lessIS2_ESaIS2_EE4findERKS2_ = comdat any

$_ZNKSt8_Rb_treeIN9RangeTreeIjE5RangeES2_St9_IdentityIS2_ESt4lessIS2_ESaIS2_EE14_M_lower_boundEPKSt13_Rb_tree_nodeIS2_EPKSt18_Rb_tree_node_baseRKS2_ = comdat any

$_ZNKSt8_Rb_treeIN9RangeTreeIjE5RangeES2_St9_IdentityIS2_ESt4lessIS2_ESaIS2_EE6_M_endEv = comdat any

$_ZNKSt3setIN9RangeTreeIjE5RangeESt4lessIS2_ESaIS2_EE5emptyEv = comdat any

$_ZNKSt8_Rb_treeIN9RangeTreeIjE5RangeES2_St9_IdentityIS2_ESt4lessIS2_ESaIS2_EE5emptyEv = comdat any

$_ZNKSt3setIN9RangeTreeIjE5RangeESt4lessIS2_ESaIS2_EE4sizeEv = comdat any

$_ZNKSt8_Rb_treeIN9RangeTreeIjE5RangeES2_St9_IdentityIS2_ESt4lessIS2_ESaIS2_EE4sizeEv = comdat any

@_ZStL8__ioinit = internal global %"class.std::ios_base::Init" zeroinitializer, align 1, !dbg !0
@__dso_handle = external hidden global i8
@_ZSt4cout = external dso_local global %"class.std::basic_ostream", align 8
@.str = private unnamed_addr constant [12 x i8] c"RangeTree:\0A\00", align 1
@.str.1 = private unnamed_addr constant [4 x i8] c"  [\00", align 1
@.str.2 = private unnamed_addr constant [3 x i8] c"]\0A\00", align 1
@.str.3 = private unnamed_addr constant [3 x i8] c", \00", align 1
@.str.4 = private unnamed_addr constant [10 x i8] c"  <empty>\00", align 1
@.str.5 = private unnamed_addr constant [2 x i8] c"\0A\00", align 1
@llvm.global_ctors = appending global [1 x { i32, void ()*, i8* }] [{ i32, void ()*, i8* } { i32 65535, void ()* @_GLOBAL__sub_I_range_tree_c_api.cc, i8* null }]

; Function Attrs: noinline uwtable
define internal void @__cxx_global_var_init() #0 section ".text.startup" !dbg !1929 {
entry:
  call void @_ZNSt8ios_base4InitC1Ev(%"class.std::ios_base::Init"* @_ZStL8__ioinit), !dbg !1930
  %0 = call i32 @__cxa_atexit(void (i8*)* bitcast (void (%"class.std::ios_base::Init"*)* @_ZNSt8ios_base4InitD1Ev to void (i8*)*), i8* getelementptr inbounds (%"class.std::ios_base::Init", %"class.std::ios_base::Init"* @_ZStL8__ioinit, i32 0, i32 0), i8* @__dso_handle) #3, !dbg !1930
  ret void, !dbg !1930
}

declare dso_local void @_ZNSt8ios_base4InitC1Ev(%"class.std::ios_base::Init"*) unnamed_addr #1

; Function Attrs: nounwind
declare dso_local void @_ZNSt8ios_base4InitD1Ev(%"class.std::ios_base::Init"*) unnamed_addr #2

; Function Attrs: nounwind
declare dso_local i32 @__cxa_atexit(void (i8*)*, i8*, i8*) #3

; Function Attrs: noinline uwtable
define dso_local %struct.RangeTree* @range_tree_uint_alloc(i32 %min, i32 %max) #0 personality i8* bitcast (i32 (...)* @__gxx_personality_v0 to i8*) !dbg !1931 {
entry:
  %min.addr = alloca i32, align 4
  %max.addr = alloca i32, align 4
  %exn.slot = alloca i8*
  %ehselector.slot = alloca i32
  store i32 %min, i32* %min.addr, align 4
  call void @llvm.dbg.declare(metadata i32* %min.addr, metadata !1936, metadata !DIExpression()), !dbg !1937
  store i32 %max, i32* %max.addr, align 4
  call void @llvm.dbg.declare(metadata i32* %max.addr, metadata !1938, metadata !DIExpression()), !dbg !1939
  %call = call i8* @_Znwm(i64 48) #12, !dbg !1940
  %0 = bitcast i8* %call to %struct.RangeTree*, !dbg !1940
  %1 = load i32, i32* %min.addr, align 4, !dbg !1941
  %2 = load i32, i32* %max.addr, align 4, !dbg !1942
  invoke void @_ZN9RangeTreeIjEC2Ejj(%struct.RangeTree* %0, i32 %1, i32 %2)
          to label %invoke.cont unwind label %lpad, !dbg !1943

invoke.cont:                                      ; preds = %entry
  ret %struct.RangeTree* %0, !dbg !1944

lpad:                                             ; preds = %entry
  %3 = landingpad { i8*, i32 }
          cleanup, !dbg !1945
  %4 = extractvalue { i8*, i32 } %3, 0, !dbg !1945
  store i8* %4, i8** %exn.slot, align 8, !dbg !1945
  %5 = extractvalue { i8*, i32 } %3, 1, !dbg !1945
  store i32 %5, i32* %ehselector.slot, align 4, !dbg !1945
  call void @_ZdlPv(i8* %call) #13, !dbg !1940
  br label %eh.resume, !dbg !1940

eh.resume:                                        ; preds = %lpad
  %exn = load i8*, i8** %exn.slot, align 8, !dbg !1940
  %sel = load i32, i32* %ehselector.slot, align 4, !dbg !1940
  %lpad.val = insertvalue { i8*, i32 } undef, i8* %exn, 0, !dbg !1940
  %lpad.val1 = insertvalue { i8*, i32 } %lpad.val, i32 %sel, 1, !dbg !1940
  resume { i8*, i32 } %lpad.val1, !dbg !1940
}

; Function Attrs: nounwind readnone speculatable willreturn
declare void @llvm.dbg.declare(metadata, metadata, metadata) #4

; Function Attrs: nobuiltin
declare dso_local noalias i8* @_Znwm(i64) #5

; Function Attrs: noinline uwtable
define linkonce_odr dso_local void @_ZN9RangeTreeIjEC2Ejj(%struct.RangeTree* %this, i32 %min, i32 %max) unnamed_addr #0 comdat align 2 personality i8* bitcast (i32 (...)* @__gxx_personality_v0 to i8*) !dbg !1946 {
entry:
  %this.addr = alloca %struct.RangeTree*, align 8
  %min.addr = alloca i32, align 4
  %max.addr = alloca i32, align 4
  %ref.tmp = alloca %"struct.RangeTree<unsigned int>::Range", align 4
  %exn.slot = alloca i8*
  %ehselector.slot = alloca i32
  %coerce = alloca %"struct.std::pair", align 8
  store %struct.RangeTree* %this, %struct.RangeTree** %this.addr, align 8
  call void @llvm.dbg.declare(metadata %struct.RangeTree** %this.addr, metadata !1947, metadata !DIExpression()), !dbg !1949
  store i32 %min, i32* %min.addr, align 4
  call void @llvm.dbg.declare(metadata i32* %min.addr, metadata !1950, metadata !DIExpression()), !dbg !1951
  store i32 %max, i32* %max.addr, align 4
  call void @llvm.dbg.declare(metadata i32* %max.addr, metadata !1952, metadata !DIExpression()), !dbg !1953
  %this1 = load %struct.RangeTree*, %struct.RangeTree** %this.addr, align 8
  %tree = getelementptr inbounds %struct.RangeTree, %struct.RangeTree* %this1, i32 0, i32 0, !dbg !1954
  call void @_ZNSt3setIN9RangeTreeIjE5RangeESt4lessIS2_ESaIS2_EEC2Ev(%"class.std::set"* %tree) #3, !dbg !1954
  %tree2 = getelementptr inbounds %struct.RangeTree, %struct.RangeTree* %this1, i32 0, i32 0, !dbg !1955
  %0 = load i32, i32* %min.addr, align 4, !dbg !1957
  %1 = load i32, i32* %max.addr, align 4, !dbg !1958
  invoke void @_ZN9RangeTreeIjE5RangeC2Ejj(%"struct.RangeTree<unsigned int>::Range"* %ref.tmp, i32 %0, i32 %1)
          to label %invoke.cont unwind label %lpad, !dbg !1959

invoke.cont:                                      ; preds = %entry
  %call = invoke { %"struct.std::_Rb_tree_node_base"*, i8 } @_ZNSt3setIN9RangeTreeIjE5RangeESt4lessIS2_ESaIS2_EE6insertEOS2_(%"class.std::set"* %tree2, %"struct.RangeTree<unsigned int>::Range"* dereferenceable(12) %ref.tmp)
          to label %invoke.cont3 unwind label %lpad, !dbg !1960

invoke.cont3:                                     ; preds = %invoke.cont
  %2 = bitcast %"struct.std::pair"* %coerce to { %"struct.std::_Rb_tree_node_base"*, i8 }*, !dbg !1960
  %3 = getelementptr inbounds { %"struct.std::_Rb_tree_node_base"*, i8 }, { %"struct.std::_Rb_tree_node_base"*, i8 }* %2, i32 0, i32 0, !dbg !1960
  %4 = extractvalue { %"struct.std::_Rb_tree_node_base"*, i8 } %call, 0, !dbg !1960
  store %"struct.std::_Rb_tree_node_base"* %4, %"struct.std::_Rb_tree_node_base"** %3, align 8, !dbg !1960
  %5 = getelementptr inbounds { %"struct.std::_Rb_tree_node_base"*, i8 }, { %"struct.std::_Rb_tree_node_base"*, i8 }* %2, i32 0, i32 1, !dbg !1960
  %6 = extractvalue { %"struct.std::_Rb_tree_node_base"*, i8 } %call, 1, !dbg !1960
  store i8 %6, i8* %5, align 8, !dbg !1960
  ret void, !dbg !1961

lpad:                                             ; preds = %invoke.cont, %entry
  %7 = landingpad { i8*, i32 }
          cleanup, !dbg !1962
  %8 = extractvalue { i8*, i32 } %7, 0, !dbg !1962
  store i8* %8, i8** %exn.slot, align 8, !dbg !1962
  %9 = extractvalue { i8*, i32 } %7, 1, !dbg !1962
  store i32 %9, i32* %ehselector.slot, align 4, !dbg !1962
  call void @_ZNSt3setIN9RangeTreeIjE5RangeESt4lessIS2_ESaIS2_EED2Ev(%"class.std::set"* %tree) #3, !dbg !1962
  br label %eh.resume, !dbg !1962

eh.resume:                                        ; preds = %lpad
  %exn = load i8*, i8** %exn.slot, align 8, !dbg !1962
  %sel = load i32, i32* %ehselector.slot, align 4, !dbg !1962
  %lpad.val = insertvalue { i8*, i32 } undef, i8* %exn, 0, !dbg !1962
  %lpad.val4 = insertvalue { i8*, i32 } %lpad.val, i32 %sel, 1, !dbg !1962
  resume { i8*, i32 } %lpad.val4, !dbg !1962
}

declare dso_local i32 @__gxx_personality_v0(...)

; Function Attrs: nobuiltin nounwind
declare dso_local void @_ZdlPv(i8*) #6

; Function Attrs: noinline uwtable
define dso_local %struct.RangeTree* @range_tree_uint_copy(%struct.RangeTree* %src) #0 personality i8* bitcast (i32 (...)* @__gxx_personality_v0 to i8*) !dbg !1963 {
entry:
  %src.addr = alloca %struct.RangeTree*, align 8
  %exn.slot = alloca i8*
  %ehselector.slot = alloca i32
  store %struct.RangeTree* %src, %struct.RangeTree** %src.addr, align 8
  call void @llvm.dbg.declare(metadata %struct.RangeTree** %src.addr, metadata !1966, metadata !DIExpression()), !dbg !1967
  %call = call i8* @_Znwm(i64 48) #12, !dbg !1968
  %0 = bitcast i8* %call to %struct.RangeTree*, !dbg !1968
  %1 = load %struct.RangeTree*, %struct.RangeTree** %src.addr, align 8, !dbg !1969
  invoke void @_ZN9RangeTreeIjEC2ERKS0_(%struct.RangeTree* %0, %struct.RangeTree* dereferenceable(48) %1)
          to label %invoke.cont unwind label %lpad, !dbg !1970

invoke.cont:                                      ; preds = %entry
  ret %struct.RangeTree* %0, !dbg !1971

lpad:                                             ; preds = %entry
  %2 = landingpad { i8*, i32 }
          cleanup, !dbg !1972
  %3 = extractvalue { i8*, i32 } %2, 0, !dbg !1972
  store i8* %3, i8** %exn.slot, align 8, !dbg !1972
  %4 = extractvalue { i8*, i32 } %2, 1, !dbg !1972
  store i32 %4, i32* %ehselector.slot, align 4, !dbg !1972
  call void @_ZdlPv(i8* %call) #13, !dbg !1968
  br label %eh.resume, !dbg !1968

eh.resume:                                        ; preds = %lpad
  %exn = load i8*, i8** %exn.slot, align 8, !dbg !1968
  %sel = load i32, i32* %ehselector.slot, align 4, !dbg !1968
  %lpad.val = insertvalue { i8*, i32 } undef, i8* %exn, 0, !dbg !1968
  %lpad.val1 = insertvalue { i8*, i32 } %lpad.val, i32 %sel, 1, !dbg !1968
  resume { i8*, i32 } %lpad.val1, !dbg !1968
}

; Function Attrs: noinline uwtable
define linkonce_odr dso_local void @_ZN9RangeTreeIjEC2ERKS0_(%struct.RangeTree* %this, %struct.RangeTree* dereferenceable(48) %src) unnamed_addr #0 comdat align 2 personality i8* bitcast (i32 (...)* @__gxx_personality_v0 to i8*) !dbg !1973 {
entry:
  %this.addr = alloca %struct.RangeTree*, align 8
  %src.addr = alloca %struct.RangeTree*, align 8
  %exn.slot = alloca i8*
  %ehselector.slot = alloca i32
  store %struct.RangeTree* %this, %struct.RangeTree** %this.addr, align 8
  call void @llvm.dbg.declare(metadata %struct.RangeTree** %this.addr, metadata !1974, metadata !DIExpression()), !dbg !1975
  store %struct.RangeTree* %src, %struct.RangeTree** %src.addr, align 8
  call void @llvm.dbg.declare(metadata %struct.RangeTree** %src.addr, metadata !1976, metadata !DIExpression()), !dbg !1977
  %this1 = load %struct.RangeTree*, %struct.RangeTree** %this.addr, align 8
  %tree = getelementptr inbounds %struct.RangeTree, %struct.RangeTree* %this1, i32 0, i32 0, !dbg !1978
  call void @_ZNSt3setIN9RangeTreeIjE5RangeESt4lessIS2_ESaIS2_EEC2Ev(%"class.std::set"* %tree) #3, !dbg !1978
  %0 = load %struct.RangeTree*, %struct.RangeTree** %src.addr, align 8, !dbg !1979
  %tree2 = getelementptr inbounds %struct.RangeTree, %struct.RangeTree* %0, i32 0, i32 0, !dbg !1981
  %tree3 = getelementptr inbounds %struct.RangeTree, %struct.RangeTree* %this1, i32 0, i32 0, !dbg !1982
  %call = invoke dereferenceable(48) %"class.std::set"* @_ZNSt3setIN9RangeTreeIjE5RangeESt4lessIS2_ESaIS2_EEaSERKS6_(%"class.std::set"* %tree3, %"class.std::set"* dereferenceable(48) %tree2)
          to label %invoke.cont unwind label %lpad, !dbg !1983

invoke.cont:                                      ; preds = %entry
  ret void, !dbg !1984

lpad:                                             ; preds = %entry
  %1 = landingpad { i8*, i32 }
          cleanup, !dbg !1985
  %2 = extractvalue { i8*, i32 } %1, 0, !dbg !1985
  store i8* %2, i8** %exn.slot, align 8, !dbg !1985
  %3 = extractvalue { i8*, i32 } %1, 1, !dbg !1985
  store i32 %3, i32* %ehselector.slot, align 4, !dbg !1985
  call void @_ZNSt3setIN9RangeTreeIjE5RangeESt4lessIS2_ESaIS2_EED2Ev(%"class.std::set"* %tree) #3, !dbg !1985
  br label %eh.resume, !dbg !1985

eh.resume:                                        ; preds = %lpad
  %exn = load i8*, i8** %exn.slot, align 8, !dbg !1985
  %sel = load i32, i32* %ehselector.slot, align 4, !dbg !1985
  %lpad.val = insertvalue { i8*, i32 } undef, i8* %exn, 0, !dbg !1985
  %lpad.val4 = insertvalue { i8*, i32 } %lpad.val, i32 %sel, 1, !dbg !1985
  resume { i8*, i32 } %lpad.val4, !dbg !1985
}

; Function Attrs: noinline nounwind uwtable
define dso_local void @range_tree_uint_free(%struct.RangeTree* %rt) #7 !dbg !1986 {
entry:
  %rt.addr = alloca %struct.RangeTree*, align 8
  store %struct.RangeTree* %rt, %struct.RangeTree** %rt.addr, align 8
  call void @llvm.dbg.declare(metadata %struct.RangeTree** %rt.addr, metadata !1989, metadata !DIExpression()), !dbg !1990
  %0 = load %struct.RangeTree*, %struct.RangeTree** %rt.addr, align 8, !dbg !1991
  %isnull = icmp eq %struct.RangeTree* %0, null, !dbg !1992
  br i1 %isnull, label %delete.end, label %delete.notnull, !dbg !1992

delete.notnull:                                   ; preds = %entry
  call void @_ZN9RangeTreeIjED2Ev(%struct.RangeTree* %0) #3, !dbg !1992
  %1 = bitcast %struct.RangeTree* %0 to i8*, !dbg !1992
  call void @_ZdlPv(i8* %1) #13, !dbg !1992
  br label %delete.end, !dbg !1992

delete.end:                                       ; preds = %delete.notnull, %entry
  ret void, !dbg !1993
}

; Function Attrs: noinline nounwind uwtable
define linkonce_odr dso_local void @_ZN9RangeTreeIjED2Ev(%struct.RangeTree* %this) unnamed_addr #7 comdat align 2 !dbg !1994 {
entry:
  %this.addr = alloca %struct.RangeTree*, align 8
  store %struct.RangeTree* %this, %struct.RangeTree** %this.addr, align 8
  call void @llvm.dbg.declare(metadata %struct.RangeTree** %this.addr, metadata !1998, metadata !DIExpression()), !dbg !1999
  %this1 = load %struct.RangeTree*, %struct.RangeTree** %this.addr, align 8
  %tree = getelementptr inbounds %struct.RangeTree, %struct.RangeTree* %this1, i32 0, i32 0, !dbg !2000
  call void @_ZNSt3setIN9RangeTreeIjE5RangeESt4lessIS2_ESaIS2_EED2Ev(%"class.std::set"* %tree) #3, !dbg !2000
  ret void, !dbg !2002
}

; Function Attrs: noinline uwtable
define dso_local void @range_tree_uint_take(%struct.RangeTree* %rt, i32 %v) #0 !dbg !2003 {
entry:
  %rt.addr = alloca %struct.RangeTree*, align 8
  %v.addr = alloca i32, align 4
  store %struct.RangeTree* %rt, %struct.RangeTree** %rt.addr, align 8
  call void @llvm.dbg.declare(metadata %struct.RangeTree** %rt.addr, metadata !2006, metadata !DIExpression()), !dbg !2007
  store i32 %v, i32* %v.addr, align 4
  call void @llvm.dbg.declare(metadata i32* %v.addr, metadata !2008, metadata !DIExpression()), !dbg !2009
  %0 = load %struct.RangeTree*, %struct.RangeTree** %rt.addr, align 8, !dbg !2010
  %1 = load i32, i32* %v.addr, align 4, !dbg !2011
  call void @_ZN9RangeTreeIjE4takeEj(%struct.RangeTree* %0, i32 %1), !dbg !2012
  ret void, !dbg !2013
}

; Function Attrs: noinline uwtable
define linkonce_odr dso_local void @_ZN9RangeTreeIjE4takeEj(%struct.RangeTree* %this, i32 %t) #0 comdat align 2 !dbg !2014 {
entry:
  %this.addr = alloca %struct.RangeTree*, align 8
  %t.addr = alloca i32, align 4
  %iter = alloca %"struct.std::_Rb_tree_const_iterator", align 8
  %ref.tmp = alloca %"struct.RangeTree<unsigned int>::Range", align 4
  %cur = alloca %"struct.RangeTree<unsigned int>::Range", align 4
  %agg.tmp = alloca %"struct.std::_Rb_tree_const_iterator", align 8
  %coerce = alloca %"struct.std::_Rb_tree_const_iterator", align 8
  %ref.tmp8 = alloca %"struct.RangeTree<unsigned int>::Range", align 4
  %coerce11 = alloca %"struct.std::pair", align 8
  %ref.tmp15 = alloca %"struct.RangeTree<unsigned int>::Range", align 4
  %coerce19 = alloca %"struct.std::pair", align 8
  store %struct.RangeTree* %this, %struct.RangeTree** %this.addr, align 8
  call void @llvm.dbg.declare(metadata %struct.RangeTree** %this.addr, metadata !2015, metadata !DIExpression()), !dbg !2016
  store i32 %t, i32* %t.addr, align 4
  call void @llvm.dbg.declare(metadata i32* %t.addr, metadata !2017, metadata !DIExpression()), !dbg !2018
  %this1 = load %struct.RangeTree*, %struct.RangeTree** %this.addr, align 8
  call void @llvm.dbg.declare(metadata %"struct.std::_Rb_tree_const_iterator"* %iter, metadata !2019, metadata !DIExpression()), !dbg !2021
  %tree = getelementptr inbounds %struct.RangeTree, %struct.RangeTree* %this1, i32 0, i32 0, !dbg !2022
  %0 = load i32, i32* %t.addr, align 4, !dbg !2023
  call void @_ZN9RangeTreeIjE5RangeC2Ej(%"struct.RangeTree<unsigned int>::Range"* %ref.tmp, i32 %0), !dbg !2024
  %call = call %"struct.std::_Rb_tree_node_base"* @_ZNSt3setIN9RangeTreeIjE5RangeESt4lessIS2_ESaIS2_EE4findERKS2_(%"class.std::set"* %tree, %"struct.RangeTree<unsigned int>::Range"* dereferenceable(12) %ref.tmp), !dbg !2025
  %coerce.dive = getelementptr inbounds %"struct.std::_Rb_tree_const_iterator", %"struct.std::_Rb_tree_const_iterator"* %iter, i32 0, i32 0, !dbg !2025
  store %"struct.std::_Rb_tree_node_base"* %call, %"struct.std::_Rb_tree_node_base"** %coerce.dive, align 8, !dbg !2025
  call void @llvm.dbg.declare(metadata %"struct.RangeTree<unsigned int>::Range"* %cur, metadata !2026, metadata !DIExpression()), !dbg !2027
  %call2 = call dereferenceable(12) %"struct.RangeTree<unsigned int>::Range"* @_ZNKSt23_Rb_tree_const_iteratorIN9RangeTreeIjE5RangeEEdeEv(%"struct.std::_Rb_tree_const_iterator"* %iter) #3, !dbg !2028
  %1 = bitcast %"struct.RangeTree<unsigned int>::Range"* %cur to i8*, !dbg !2028
  %2 = bitcast %"struct.RangeTree<unsigned int>::Range"* %call2 to i8*, !dbg !2028
  call void @llvm.memcpy.p0i8.p0i8.i64(i8* align 4 %1, i8* align 4 %2, i64 12, i1 false), !dbg !2028
  %tree3 = getelementptr inbounds %struct.RangeTree, %struct.RangeTree* %this1, i32 0, i32 0, !dbg !2029
  %3 = bitcast %"struct.std::_Rb_tree_const_iterator"* %agg.tmp to i8*, !dbg !2030
  %4 = bitcast %"struct.std::_Rb_tree_const_iterator"* %iter to i8*, !dbg !2030
  call void @llvm.memcpy.p0i8.p0i8.i64(i8* align 8 %3, i8* align 8 %4, i64 8, i1 false), !dbg !2030
  %coerce.dive4 = getelementptr inbounds %"struct.std::_Rb_tree_const_iterator", %"struct.std::_Rb_tree_const_iterator"* %agg.tmp, i32 0, i32 0, !dbg !2031
  %5 = load %"struct.std::_Rb_tree_node_base"*, %"struct.std::_Rb_tree_node_base"** %coerce.dive4, align 8, !dbg !2031
  %call5 = call %"struct.std::_Rb_tree_node_base"* @_ZNSt3setIN9RangeTreeIjE5RangeESt4lessIS2_ESaIS2_EE5eraseB5cxx11ESt23_Rb_tree_const_iteratorIS2_E(%"class.std::set"* %tree3, %"struct.std::_Rb_tree_node_base"* %5), !dbg !2031
  %coerce.dive6 = getelementptr inbounds %"struct.std::_Rb_tree_const_iterator", %"struct.std::_Rb_tree_const_iterator"* %coerce, i32 0, i32 0, !dbg !2031
  store %"struct.std::_Rb_tree_node_base"* %call5, %"struct.std::_Rb_tree_node_base"** %coerce.dive6, align 8, !dbg !2031
  %6 = load i32, i32* %t.addr, align 4, !dbg !2032
  %min = getelementptr inbounds %"struct.RangeTree<unsigned int>::Range", %"struct.RangeTree<unsigned int>::Range"* %cur, i32 0, i32 0, !dbg !2034
  %7 = load i32, i32* %min, align 4, !dbg !2034
  %cmp = icmp ugt i32 %6, %7, !dbg !2035
  br i1 %cmp, label %if.then, label %if.end, !dbg !2036

if.then:                                          ; preds = %entry
  %tree7 = getelementptr inbounds %struct.RangeTree, %struct.RangeTree* %this1, i32 0, i32 0, !dbg !2037
  %min9 = getelementptr inbounds %"struct.RangeTree<unsigned int>::Range", %"struct.RangeTree<unsigned int>::Range"* %cur, i32 0, i32 0, !dbg !2038
  %8 = load i32, i32* %min9, align 4, !dbg !2038
  %9 = load i32, i32* %t.addr, align 4, !dbg !2039
  %sub = sub i32 %9, 1, !dbg !2040
  call void @_ZN9RangeTreeIjE5RangeC2Ejj(%"struct.RangeTree<unsigned int>::Range"* %ref.tmp8, i32 %8, i32 %sub), !dbg !2041
  %call10 = call { %"struct.std::_Rb_tree_node_base"*, i8 } @_ZNSt3setIN9RangeTreeIjE5RangeESt4lessIS2_ESaIS2_EE6insertEOS2_(%"class.std::set"* %tree7, %"struct.RangeTree<unsigned int>::Range"* dereferenceable(12) %ref.tmp8), !dbg !2042
  %10 = bitcast %"struct.std::pair"* %coerce11 to { %"struct.std::_Rb_tree_node_base"*, i8 }*, !dbg !2042
  %11 = getelementptr inbounds { %"struct.std::_Rb_tree_node_base"*, i8 }, { %"struct.std::_Rb_tree_node_base"*, i8 }* %10, i32 0, i32 0, !dbg !2042
  %12 = extractvalue { %"struct.std::_Rb_tree_node_base"*, i8 } %call10, 0, !dbg !2042
  store %"struct.std::_Rb_tree_node_base"* %12, %"struct.std::_Rb_tree_node_base"** %11, align 8, !dbg !2042
  %13 = getelementptr inbounds { %"struct.std::_Rb_tree_node_base"*, i8 }, { %"struct.std::_Rb_tree_node_base"*, i8 }* %10, i32 0, i32 1, !dbg !2042
  %14 = extractvalue { %"struct.std::_Rb_tree_node_base"*, i8 } %call10, 1, !dbg !2042
  store i8 %14, i8* %13, align 8, !dbg !2042
  br label %if.end, !dbg !2037

if.end:                                           ; preds = %if.then, %entry
  %15 = load i32, i32* %t.addr, align 4, !dbg !2043
  %add = add i32 %15, 1, !dbg !2045
  %max = getelementptr inbounds %"struct.RangeTree<unsigned int>::Range", %"struct.RangeTree<unsigned int>::Range"* %cur, i32 0, i32 1, !dbg !2046
  %16 = load i32, i32* %max, align 4, !dbg !2046
  %cmp12 = icmp ule i32 %add, %16, !dbg !2047
  br i1 %cmp12, label %if.then13, label %if.end20, !dbg !2048

if.then13:                                        ; preds = %if.end
  %tree14 = getelementptr inbounds %struct.RangeTree, %struct.RangeTree* %this1, i32 0, i32 0, !dbg !2049
  %17 = load i32, i32* %t.addr, align 4, !dbg !2050
  %add16 = add i32 %17, 1, !dbg !2051
  %max17 = getelementptr inbounds %"struct.RangeTree<unsigned int>::Range", %"struct.RangeTree<unsigned int>::Range"* %cur, i32 0, i32 1, !dbg !2052
  %18 = load i32, i32* %max17, align 4, !dbg !2052
  call void @_ZN9RangeTreeIjE5RangeC2Ejj(%"struct.RangeTree<unsigned int>::Range"* %ref.tmp15, i32 %add16, i32 %18), !dbg !2053
  %call18 = call { %"struct.std::_Rb_tree_node_base"*, i8 } @_ZNSt3setIN9RangeTreeIjE5RangeESt4lessIS2_ESaIS2_EE6insertEOS2_(%"class.std::set"* %tree14, %"struct.RangeTree<unsigned int>::Range"* dereferenceable(12) %ref.tmp15), !dbg !2054
  %19 = bitcast %"struct.std::pair"* %coerce19 to { %"struct.std::_Rb_tree_node_base"*, i8 }*, !dbg !2054
  %20 = getelementptr inbounds { %"struct.std::_Rb_tree_node_base"*, i8 }, { %"struct.std::_Rb_tree_node_base"*, i8 }* %19, i32 0, i32 0, !dbg !2054
  %21 = extractvalue { %"struct.std::_Rb_tree_node_base"*, i8 } %call18, 0, !dbg !2054
  store %"struct.std::_Rb_tree_node_base"* %21, %"struct.std::_Rb_tree_node_base"** %20, align 8, !dbg !2054
  %22 = getelementptr inbounds { %"struct.std::_Rb_tree_node_base"*, i8 }, { %"struct.std::_Rb_tree_node_base"*, i8 }* %19, i32 0, i32 1, !dbg !2054
  %23 = extractvalue { %"struct.std::_Rb_tree_node_base"*, i8 } %call18, 1, !dbg !2054
  store i8 %23, i8* %22, align 8, !dbg !2054
  br label %if.end20, !dbg !2049

if.end20:                                         ; preds = %if.then13, %if.end
  ret void, !dbg !2055
}

; Function Attrs: noinline uwtable
define dso_local zeroext i1 @range_tree_uint_retake(%struct.RangeTree* %rt, i32 %v) #0 !dbg !2056 {
entry:
  %rt.addr = alloca %struct.RangeTree*, align 8
  %v.addr = alloca i32, align 4
  store %struct.RangeTree* %rt, %struct.RangeTree** %rt.addr, align 8
  call void @llvm.dbg.declare(metadata %struct.RangeTree** %rt.addr, metadata !2059, metadata !DIExpression()), !dbg !2060
  store i32 %v, i32* %v.addr, align 4
  call void @llvm.dbg.declare(metadata i32* %v.addr, metadata !2061, metadata !DIExpression()), !dbg !2062
  %0 = load %struct.RangeTree*, %struct.RangeTree** %rt.addr, align 8, !dbg !2063
  %1 = load i32, i32* %v.addr, align 4, !dbg !2064
  %call = call zeroext i1 @_ZN9RangeTreeIjE6retakeEj(%struct.RangeTree* %0, i32 %1), !dbg !2065
  ret i1 %call, !dbg !2066
}

; Function Attrs: noinline uwtable
define linkonce_odr dso_local zeroext i1 @_ZN9RangeTreeIjE6retakeEj(%struct.RangeTree* %this, i32 %t) #0 comdat align 2 !dbg !2067 {
entry:
  %retval = alloca i1, align 1
  %this.addr = alloca %struct.RangeTree*, align 8
  %t.addr = alloca i32, align 4
  %iter = alloca %"struct.std::_Rb_tree_const_iterator", align 8
  %ref.tmp = alloca %"struct.RangeTree<unsigned int>::Range", align 4
  %ref.tmp2 = alloca %"struct.std::_Rb_tree_const_iterator", align 8
  %cur = alloca %"struct.RangeTree<unsigned int>::Range", align 4
  %agg.tmp = alloca %"struct.std::_Rb_tree_const_iterator", align 8
  %coerce = alloca %"struct.std::_Rb_tree_const_iterator", align 8
  %ref.tmp14 = alloca %"struct.RangeTree<unsigned int>::Range", align 4
  %coerce17 = alloca %"struct.std::pair", align 8
  %ref.tmp22 = alloca %"struct.RangeTree<unsigned int>::Range", align 4
  %coerce26 = alloca %"struct.std::pair", align 8
  store %struct.RangeTree* %this, %struct.RangeTree** %this.addr, align 8
  call void @llvm.dbg.declare(metadata %struct.RangeTree** %this.addr, metadata !2068, metadata !DIExpression()), !dbg !2069
  store i32 %t, i32* %t.addr, align 4
  call void @llvm.dbg.declare(metadata i32* %t.addr, metadata !2070, metadata !DIExpression()), !dbg !2071
  %this1 = load %struct.RangeTree*, %struct.RangeTree** %this.addr, align 8
  call void @llvm.dbg.declare(metadata %"struct.std::_Rb_tree_const_iterator"* %iter, metadata !2072, metadata !DIExpression()), !dbg !2073
  %tree = getelementptr inbounds %struct.RangeTree, %struct.RangeTree* %this1, i32 0, i32 0, !dbg !2074
  %0 = load i32, i32* %t.addr, align 4, !dbg !2075
  call void @_ZN9RangeTreeIjE5RangeC2Ej(%"struct.RangeTree<unsigned int>::Range"* %ref.tmp, i32 %0), !dbg !2076
  %call = call %"struct.std::_Rb_tree_node_base"* @_ZNSt3setIN9RangeTreeIjE5RangeESt4lessIS2_ESaIS2_EE4findERKS2_(%"class.std::set"* %tree, %"struct.RangeTree<unsigned int>::Range"* dereferenceable(12) %ref.tmp), !dbg !2077
  %coerce.dive = getelementptr inbounds %"struct.std::_Rb_tree_const_iterator", %"struct.std::_Rb_tree_const_iterator"* %iter, i32 0, i32 0, !dbg !2077
  store %"struct.std::_Rb_tree_node_base"* %call, %"struct.std::_Rb_tree_node_base"** %coerce.dive, align 8, !dbg !2077
  %tree3 = getelementptr inbounds %struct.RangeTree, %struct.RangeTree* %this1, i32 0, i32 0, !dbg !2078
  %call4 = call %"struct.std::_Rb_tree_node_base"* @_ZNKSt3setIN9RangeTreeIjE5RangeESt4lessIS2_ESaIS2_EE3endEv(%"class.std::set"* %tree3) #3, !dbg !2080
  %coerce.dive5 = getelementptr inbounds %"struct.std::_Rb_tree_const_iterator", %"struct.std::_Rb_tree_const_iterator"* %ref.tmp2, i32 0, i32 0, !dbg !2080
  store %"struct.std::_Rb_tree_node_base"* %call4, %"struct.std::_Rb_tree_node_base"** %coerce.dive5, align 8, !dbg !2080
  %call6 = call zeroext i1 @_ZSteqRKSt23_Rb_tree_const_iteratorIN9RangeTreeIjE5RangeEES5_(%"struct.std::_Rb_tree_const_iterator"* dereferenceable(8) %iter, %"struct.std::_Rb_tree_const_iterator"* dereferenceable(8) %ref.tmp2) #3, !dbg !2081
  br i1 %call6, label %if.then, label %if.end, !dbg !2082

if.then:                                          ; preds = %entry
  store i1 false, i1* %retval, align 1, !dbg !2083
  br label %return, !dbg !2083

if.end:                                           ; preds = %entry
  call void @llvm.dbg.declare(metadata %"struct.RangeTree<unsigned int>::Range"* %cur, metadata !2085, metadata !DIExpression()), !dbg !2086
  %call7 = call dereferenceable(12) %"struct.RangeTree<unsigned int>::Range"* @_ZNKSt23_Rb_tree_const_iteratorIN9RangeTreeIjE5RangeEEdeEv(%"struct.std::_Rb_tree_const_iterator"* %iter) #3, !dbg !2087
  %1 = bitcast %"struct.RangeTree<unsigned int>::Range"* %cur to i8*, !dbg !2087
  %2 = bitcast %"struct.RangeTree<unsigned int>::Range"* %call7 to i8*, !dbg !2087
  call void @llvm.memcpy.p0i8.p0i8.i64(i8* align 4 %1, i8* align 4 %2, i64 12, i1 false), !dbg !2087
  %tree8 = getelementptr inbounds %struct.RangeTree, %struct.RangeTree* %this1, i32 0, i32 0, !dbg !2088
  %3 = bitcast %"struct.std::_Rb_tree_const_iterator"* %agg.tmp to i8*, !dbg !2089
  %4 = bitcast %"struct.std::_Rb_tree_const_iterator"* %iter to i8*, !dbg !2089
  call void @llvm.memcpy.p0i8.p0i8.i64(i8* align 8 %3, i8* align 8 %4, i64 8, i1 false), !dbg !2089
  %coerce.dive9 = getelementptr inbounds %"struct.std::_Rb_tree_const_iterator", %"struct.std::_Rb_tree_const_iterator"* %agg.tmp, i32 0, i32 0, !dbg !2090
  %5 = load %"struct.std::_Rb_tree_node_base"*, %"struct.std::_Rb_tree_node_base"** %coerce.dive9, align 8, !dbg !2090
  %call10 = call %"struct.std::_Rb_tree_node_base"* @_ZNSt3setIN9RangeTreeIjE5RangeESt4lessIS2_ESaIS2_EE5eraseB5cxx11ESt23_Rb_tree_const_iteratorIS2_E(%"class.std::set"* %tree8, %"struct.std::_Rb_tree_node_base"* %5), !dbg !2090
  %coerce.dive11 = getelementptr inbounds %"struct.std::_Rb_tree_const_iterator", %"struct.std::_Rb_tree_const_iterator"* %coerce, i32 0, i32 0, !dbg !2090
  store %"struct.std::_Rb_tree_node_base"* %call10, %"struct.std::_Rb_tree_node_base"** %coerce.dive11, align 8, !dbg !2090
  %6 = load i32, i32* %t.addr, align 4, !dbg !2091
  %min = getelementptr inbounds %"struct.RangeTree<unsigned int>::Range", %"struct.RangeTree<unsigned int>::Range"* %cur, i32 0, i32 0, !dbg !2093
  %7 = load i32, i32* %min, align 4, !dbg !2093
  %cmp = icmp ugt i32 %6, %7, !dbg !2094
  br i1 %cmp, label %if.then12, label %if.end18, !dbg !2095

if.then12:                                        ; preds = %if.end
  %tree13 = getelementptr inbounds %struct.RangeTree, %struct.RangeTree* %this1, i32 0, i32 0, !dbg !2096
  %min15 = getelementptr inbounds %"struct.RangeTree<unsigned int>::Range", %"struct.RangeTree<unsigned int>::Range"* %cur, i32 0, i32 0, !dbg !2097
  %8 = load i32, i32* %min15, align 4, !dbg !2097
  %9 = load i32, i32* %t.addr, align 4, !dbg !2098
  %sub = sub i32 %9, 1, !dbg !2099
  call void @_ZN9RangeTreeIjE5RangeC2Ejj(%"struct.RangeTree<unsigned int>::Range"* %ref.tmp14, i32 %8, i32 %sub), !dbg !2100
  %call16 = call { %"struct.std::_Rb_tree_node_base"*, i8 } @_ZNSt3setIN9RangeTreeIjE5RangeESt4lessIS2_ESaIS2_EE6insertEOS2_(%"class.std::set"* %tree13, %"struct.RangeTree<unsigned int>::Range"* dereferenceable(12) %ref.tmp14), !dbg !2101
  %10 = bitcast %"struct.std::pair"* %coerce17 to { %"struct.std::_Rb_tree_node_base"*, i8 }*, !dbg !2101
  %11 = getelementptr inbounds { %"struct.std::_Rb_tree_node_base"*, i8 }, { %"struct.std::_Rb_tree_node_base"*, i8 }* %10, i32 0, i32 0, !dbg !2101
  %12 = extractvalue { %"struct.std::_Rb_tree_node_base"*, i8 } %call16, 0, !dbg !2101
  store %"struct.std::_Rb_tree_node_base"* %12, %"struct.std::_Rb_tree_node_base"** %11, align 8, !dbg !2101
  %13 = getelementptr inbounds { %"struct.std::_Rb_tree_node_base"*, i8 }, { %"struct.std::_Rb_tree_node_base"*, i8 }* %10, i32 0, i32 1, !dbg !2101
  %14 = extractvalue { %"struct.std::_Rb_tree_node_base"*, i8 } %call16, 1, !dbg !2101
  store i8 %14, i8* %13, align 8, !dbg !2101
  br label %if.end18, !dbg !2096

if.end18:                                         ; preds = %if.then12, %if.end
  %15 = load i32, i32* %t.addr, align 4, !dbg !2102
  %add = add i32 %15, 1, !dbg !2104
  %max = getelementptr inbounds %"struct.RangeTree<unsigned int>::Range", %"struct.RangeTree<unsigned int>::Range"* %cur, i32 0, i32 1, !dbg !2105
  %16 = load i32, i32* %max, align 4, !dbg !2105
  %cmp19 = icmp ule i32 %add, %16, !dbg !2106
  br i1 %cmp19, label %if.then20, label %if.end27, !dbg !2107

if.then20:                                        ; preds = %if.end18
  %tree21 = getelementptr inbounds %struct.RangeTree, %struct.RangeTree* %this1, i32 0, i32 0, !dbg !2108
  %17 = load i32, i32* %t.addr, align 4, !dbg !2109
  %add23 = add i32 %17, 1, !dbg !2110
  %max24 = getelementptr inbounds %"struct.RangeTree<unsigned int>::Range", %"struct.RangeTree<unsigned int>::Range"* %cur, i32 0, i32 1, !dbg !2111
  %18 = load i32, i32* %max24, align 4, !dbg !2111
  call void @_ZN9RangeTreeIjE5RangeC2Ejj(%"struct.RangeTree<unsigned int>::Range"* %ref.tmp22, i32 %add23, i32 %18), !dbg !2112
  %call25 = call { %"struct.std::_Rb_tree_node_base"*, i8 } @_ZNSt3setIN9RangeTreeIjE5RangeESt4lessIS2_ESaIS2_EE6insertEOS2_(%"class.std::set"* %tree21, %"struct.RangeTree<unsigned int>::Range"* dereferenceable(12) %ref.tmp22), !dbg !2113
  %19 = bitcast %"struct.std::pair"* %coerce26 to { %"struct.std::_Rb_tree_node_base"*, i8 }*, !dbg !2113
  %20 = getelementptr inbounds { %"struct.std::_Rb_tree_node_base"*, i8 }, { %"struct.std::_Rb_tree_node_base"*, i8 }* %19, i32 0, i32 0, !dbg !2113
  %21 = extractvalue { %"struct.std::_Rb_tree_node_base"*, i8 } %call25, 0, !dbg !2113
  store %"struct.std::_Rb_tree_node_base"* %21, %"struct.std::_Rb_tree_node_base"** %20, align 8, !dbg !2113
  %22 = getelementptr inbounds { %"struct.std::_Rb_tree_node_base"*, i8 }, { %"struct.std::_Rb_tree_node_base"*, i8 }* %19, i32 0, i32 1, !dbg !2113
  %23 = extractvalue { %"struct.std::_Rb_tree_node_base"*, i8 } %call25, 1, !dbg !2113
  store i8 %23, i8* %22, align 8, !dbg !2113
  br label %if.end27, !dbg !2108

if.end27:                                         ; preds = %if.then20, %if.end18
  store i1 true, i1* %retval, align 1, !dbg !2114
  br label %return, !dbg !2114

return:                                           ; preds = %if.end27, %if.then
  %24 = load i1, i1* %retval, align 1, !dbg !2115
  ret i1 %24, !dbg !2115
}

; Function Attrs: noinline uwtable
define dso_local i32 @range_tree_uint_take_any(%struct.RangeTree* %rt) #0 !dbg !2116 {
entry:
  %rt.addr = alloca %struct.RangeTree*, align 8
  store %struct.RangeTree* %rt, %struct.RangeTree** %rt.addr, align 8
  call void @llvm.dbg.declare(metadata %struct.RangeTree** %rt.addr, metadata !2119, metadata !DIExpression()), !dbg !2120
  %0 = load %struct.RangeTree*, %struct.RangeTree** %rt.addr, align 8, !dbg !2121
  %call = call i32 @_ZN9RangeTreeIjE8take_anyEv(%struct.RangeTree* %0), !dbg !2122
  ret i32 %call, !dbg !2123
}

; Function Attrs: noinline uwtable
define linkonce_odr dso_local i32 @_ZN9RangeTreeIjE8take_anyEv(%struct.RangeTree* %this) #0 comdat align 2 !dbg !2124 {
entry:
  %this.addr = alloca %struct.RangeTree*, align 8
  %iter = alloca %"struct.std::_Rb_tree_const_iterator", align 8
  %first = alloca i32, align 4
  store %struct.RangeTree* %this, %struct.RangeTree** %this.addr, align 8
  call void @llvm.dbg.declare(metadata %struct.RangeTree** %this.addr, metadata !2125, metadata !DIExpression()), !dbg !2126
  %this1 = load %struct.RangeTree*, %struct.RangeTree** %this.addr, align 8
  call void @llvm.dbg.declare(metadata %"struct.std::_Rb_tree_const_iterator"* %iter, metadata !2127, metadata !DIExpression()), !dbg !2128
  %tree = getelementptr inbounds %struct.RangeTree, %struct.RangeTree* %this1, i32 0, i32 0, !dbg !2129
  %call = call %"struct.std::_Rb_tree_node_base"* @_ZNKSt3setIN9RangeTreeIjE5RangeESt4lessIS2_ESaIS2_EE5beginEv(%"class.std::set"* %tree) #3, !dbg !2130
  %coerce.dive = getelementptr inbounds %"struct.std::_Rb_tree_const_iterator", %"struct.std::_Rb_tree_const_iterator"* %iter, i32 0, i32 0, !dbg !2130
  store %"struct.std::_Rb_tree_node_base"* %call, %"struct.std::_Rb_tree_node_base"** %coerce.dive, align 8, !dbg !2130
  call void @llvm.dbg.declare(metadata i32* %first, metadata !2131, metadata !DIExpression()), !dbg !2132
  %call2 = call %"struct.RangeTree<unsigned int>::Range"* @_ZNKSt23_Rb_tree_const_iteratorIN9RangeTreeIjE5RangeEEptEv(%"struct.std::_Rb_tree_const_iterator"* %iter) #3, !dbg !2133
  %min = getelementptr inbounds %"struct.RangeTree<unsigned int>::Range", %"struct.RangeTree<unsigned int>::Range"* %call2, i32 0, i32 0, !dbg !2134
  %0 = load i32, i32* %min, align 4, !dbg !2134
  store i32 %0, i32* %first, align 4, !dbg !2132
  %1 = load i32, i32* %first, align 4, !dbg !2135
  call void @_ZN9RangeTreeIjE4takeEj(%struct.RangeTree* %this1, i32 %1), !dbg !2136
  %2 = load i32, i32* %first, align 4, !dbg !2137
  ret i32 %2, !dbg !2138
}

; Function Attrs: noinline uwtable
define dso_local void @range_tree_uint_release(%struct.RangeTree* %rt, i32 %v) #0 !dbg !2139 {
entry:
  %rt.addr = alloca %struct.RangeTree*, align 8
  %v.addr = alloca i32, align 4
  store %struct.RangeTree* %rt, %struct.RangeTree** %rt.addr, align 8
  call void @llvm.dbg.declare(metadata %struct.RangeTree** %rt.addr, metadata !2140, metadata !DIExpression()), !dbg !2141
  store i32 %v, i32* %v.addr, align 4
  call void @llvm.dbg.declare(metadata i32* %v.addr, metadata !2142, metadata !DIExpression()), !dbg !2143
  %0 = load %struct.RangeTree*, %struct.RangeTree** %rt.addr, align 8, !dbg !2144
  %1 = load i32, i32* %v.addr, align 4, !dbg !2145
  call void @_ZN9RangeTreeIjE7releaseEj(%struct.RangeTree* %0, i32 %1), !dbg !2146
  ret void, !dbg !2147
}

; Function Attrs: noinline uwtable
define linkonce_odr dso_local void @_ZN9RangeTreeIjE7releaseEj(%struct.RangeTree* %this, i32 %t) #0 comdat align 2 !dbg !2148 {
entry:
  %this.addr = alloca %struct.RangeTree*, align 8
  %t.addr = alloca i32, align 4
  %right = alloca %"struct.std::_Rb_tree_const_iterator", align 8
  %ref.tmp = alloca %"struct.RangeTree<unsigned int>::Range", align 4
  %ref.tmp2 = alloca %"struct.std::_Rb_tree_const_iterator", align 8
  %left = alloca %"struct.std::_Rb_tree_const_iterator", align 8
  %ref.tmp7 = alloca %"struct.std::_Rb_tree_const_iterator", align 8
  %r = alloca %"struct.RangeTree<unsigned int>::Range", align 4
  %agg.tmp = alloca %"struct.std::_Rb_tree_const_iterator", align 8
  %coerce = alloca %"struct.std::_Rb_tree_const_iterator", align 8
  %coerce25 = alloca %"struct.std::pair", align 8
  %ref.tmp27 = alloca %"struct.RangeTree<unsigned int>::Range", align 4
  %coerce29 = alloca %"struct.std::pair", align 8
  %r41 = alloca %"struct.RangeTree<unsigned int>::Range", align 4
  %agg.tmp47 = alloca %"struct.std::_Rb_tree_const_iterator", align 8
  %coerce50 = alloca %"struct.std::_Rb_tree_const_iterator", align 8
  %agg.tmp53 = alloca %"struct.std::_Rb_tree_const_iterator", align 8
  %coerce56 = alloca %"struct.std::_Rb_tree_const_iterator", align 8
  %coerce60 = alloca %"struct.std::pair", align 8
  %r67 = alloca %"struct.RangeTree<unsigned int>::Range", align 4
  %agg.tmp71 = alloca %"struct.std::_Rb_tree_const_iterator", align 8
  %coerce74 = alloca %"struct.std::_Rb_tree_const_iterator", align 8
  %coerce78 = alloca %"struct.std::pair", align 8
  %r85 = alloca %"struct.RangeTree<unsigned int>::Range", align 4
  %agg.tmp89 = alloca %"struct.std::_Rb_tree_const_iterator", align 8
  %coerce92 = alloca %"struct.std::_Rb_tree_const_iterator", align 8
  %coerce96 = alloca %"struct.std::pair", align 8
  %ref.tmp99 = alloca %"struct.RangeTree<unsigned int>::Range", align 4
  %coerce101 = alloca %"struct.std::pair", align 8
  %ref.tmp107 = alloca %"struct.std::_Rb_tree_const_iterator", align 8
  %coerce112 = alloca %"struct.std::_Rb_tree_const_iterator", align 8
  %r119 = alloca %"struct.RangeTree<unsigned int>::Range", align 4
  %agg.tmp123 = alloca %"struct.std::_Rb_tree_const_iterator", align 8
  %coerce126 = alloca %"struct.std::_Rb_tree_const_iterator", align 8
  %coerce130 = alloca %"struct.std::pair", align 8
  %ref.tmp133 = alloca %"struct.RangeTree<unsigned int>::Range", align 4
  %coerce135 = alloca %"struct.std::pair", align 8
  store %struct.RangeTree* %this, %struct.RangeTree** %this.addr, align 8
  call void @llvm.dbg.declare(metadata %struct.RangeTree** %this.addr, metadata !2149, metadata !DIExpression()), !dbg !2150
  store i32 %t, i32* %t.addr, align 4
  call void @llvm.dbg.declare(metadata i32* %t.addr, metadata !2151, metadata !DIExpression()), !dbg !2152
  %this1 = load %struct.RangeTree*, %struct.RangeTree** %this.addr, align 8
  call void @llvm.dbg.declare(metadata %"struct.std::_Rb_tree_const_iterator"* %right, metadata !2153, metadata !DIExpression()), !dbg !2154
  %tree = getelementptr inbounds %struct.RangeTree, %struct.RangeTree* %this1, i32 0, i32 0, !dbg !2155
  %0 = load i32, i32* %t.addr, align 4, !dbg !2156
  call void @_ZN9RangeTreeIjE5RangeC2Ej(%"struct.RangeTree<unsigned int>::Range"* %ref.tmp, i32 %0), !dbg !2156
  %call = call %"struct.std::_Rb_tree_node_base"* @_ZNSt3setIN9RangeTreeIjE5RangeESt4lessIS2_ESaIS2_EE11upper_boundERKS2_(%"class.std::set"* %tree, %"struct.RangeTree<unsigned int>::Range"* dereferenceable(12) %ref.tmp), !dbg !2157
  %coerce.dive = getelementptr inbounds %"struct.std::_Rb_tree_const_iterator", %"struct.std::_Rb_tree_const_iterator"* %right, i32 0, i32 0, !dbg !2157
  store %"struct.std::_Rb_tree_node_base"* %call, %"struct.std::_Rb_tree_node_base"** %coerce.dive, align 8, !dbg !2157
  %tree3 = getelementptr inbounds %struct.RangeTree, %struct.RangeTree* %this1, i32 0, i32 0, !dbg !2158
  %call4 = call %"struct.std::_Rb_tree_node_base"* @_ZNKSt3setIN9RangeTreeIjE5RangeESt4lessIS2_ESaIS2_EE3endEv(%"class.std::set"* %tree3) #3, !dbg !2160
  %coerce.dive5 = getelementptr inbounds %"struct.std::_Rb_tree_const_iterator", %"struct.std::_Rb_tree_const_iterator"* %ref.tmp2, i32 0, i32 0, !dbg !2160
  store %"struct.std::_Rb_tree_node_base"* %call4, %"struct.std::_Rb_tree_node_base"** %coerce.dive5, align 8, !dbg !2160
  %call6 = call zeroext i1 @_ZStneRKSt23_Rb_tree_const_iteratorIN9RangeTreeIjE5RangeEES5_(%"struct.std::_Rb_tree_const_iterator"* dereferenceable(8) %right, %"struct.std::_Rb_tree_const_iterator"* dereferenceable(8) %ref.tmp2) #3, !dbg !2161
  br i1 %call6, label %if.then, label %if.else106, !dbg !2162

if.then:                                          ; preds = %entry
  call void @llvm.dbg.declare(metadata %"struct.std::_Rb_tree_const_iterator"* %left, metadata !2163, metadata !DIExpression()), !dbg !2165
  %1 = bitcast %"struct.std::_Rb_tree_const_iterator"* %left to i8*, !dbg !2166
  %2 = bitcast %"struct.std::_Rb_tree_const_iterator"* %right to i8*, !dbg !2166
  call void @llvm.memcpy.p0i8.p0i8.i64(i8* align 8 %1, i8* align 8 %2, i64 8, i1 false), !dbg !2166
  %tree8 = getelementptr inbounds %struct.RangeTree, %struct.RangeTree* %this1, i32 0, i32 0, !dbg !2167
  %call9 = call %"struct.std::_Rb_tree_node_base"* @_ZNKSt3setIN9RangeTreeIjE5RangeESt4lessIS2_ESaIS2_EE5beginEv(%"class.std::set"* %tree8) #3, !dbg !2169
  %coerce.dive10 = getelementptr inbounds %"struct.std::_Rb_tree_const_iterator", %"struct.std::_Rb_tree_const_iterator"* %ref.tmp7, i32 0, i32 0, !dbg !2169
  store %"struct.std::_Rb_tree_node_base"* %call9, %"struct.std::_Rb_tree_node_base"** %coerce.dive10, align 8, !dbg !2169
  %call11 = call zeroext i1 @_ZStneRKSt23_Rb_tree_const_iteratorIN9RangeTreeIjE5RangeEES5_(%"struct.std::_Rb_tree_const_iterator"* dereferenceable(8) %left, %"struct.std::_Rb_tree_const_iterator"* dereferenceable(8) %ref.tmp7) #3, !dbg !2170
  br i1 %call11, label %if.then12, label %if.end, !dbg !2171

if.then12:                                        ; preds = %if.then
  %call13 = call dereferenceable(8) %"struct.std::_Rb_tree_const_iterator"* @_ZNSt23_Rb_tree_const_iteratorIN9RangeTreeIjE5RangeEEmmEv(%"struct.std::_Rb_tree_const_iterator"* %left) #3, !dbg !2172
  br label %if.end, !dbg !2172

if.end:                                           ; preds = %if.then12, %if.then
  %call14 = call zeroext i1 @_ZSteqRKSt23_Rb_tree_const_iteratorIN9RangeTreeIjE5RangeEES5_(%"struct.std::_Rb_tree_const_iterator"* dereferenceable(8) %left, %"struct.std::_Rb_tree_const_iterator"* dereferenceable(8) %right) #3, !dbg !2173
  br i1 %call14, label %if.then15, label %if.else31, !dbg !2175

if.then15:                                        ; preds = %if.end
  %3 = load i32, i32* %t.addr, align 4, !dbg !2176
  %add = add i32 %3, 1, !dbg !2179
  %call16 = call %"struct.RangeTree<unsigned int>::Range"* @_ZNKSt23_Rb_tree_const_iteratorIN9RangeTreeIjE5RangeEEptEv(%"struct.std::_Rb_tree_const_iterator"* %left) #3, !dbg !2180
  %min = getelementptr inbounds %"struct.RangeTree<unsigned int>::Range", %"struct.RangeTree<unsigned int>::Range"* %call16, i32 0, i32 0, !dbg !2181
  %4 = load i32, i32* %min, align 4, !dbg !2181
  %cmp = icmp eq i32 %add, %4, !dbg !2182
  br i1 %cmp, label %if.then17, label %if.else, !dbg !2183

if.then17:                                        ; preds = %if.then15
  call void @llvm.dbg.declare(metadata %"struct.RangeTree<unsigned int>::Range"* %r, metadata !2184, metadata !DIExpression()), !dbg !2186
  %5 = load i32, i32* %t.addr, align 4, !dbg !2187
  %call18 = call %"struct.RangeTree<unsigned int>::Range"* @_ZNKSt23_Rb_tree_const_iteratorIN9RangeTreeIjE5RangeEEptEv(%"struct.std::_Rb_tree_const_iterator"* %left) #3, !dbg !2188
  %max = getelementptr inbounds %"struct.RangeTree<unsigned int>::Range", %"struct.RangeTree<unsigned int>::Range"* %call18, i32 0, i32 1, !dbg !2189
  %6 = load i32, i32* %max, align 4, !dbg !2189
  call void @_ZN9RangeTreeIjE5RangeC2Ejj(%"struct.RangeTree<unsigned int>::Range"* %r, i32 %5, i32 %6), !dbg !2186
  %tree19 = getelementptr inbounds %struct.RangeTree, %struct.RangeTree* %this1, i32 0, i32 0, !dbg !2190
  %7 = bitcast %"struct.std::_Rb_tree_const_iterator"* %agg.tmp to i8*, !dbg !2191
  %8 = bitcast %"struct.std::_Rb_tree_const_iterator"* %left to i8*, !dbg !2191
  call void @llvm.memcpy.p0i8.p0i8.i64(i8* align 8 %7, i8* align 8 %8, i64 8, i1 false), !dbg !2191
  %coerce.dive20 = getelementptr inbounds %"struct.std::_Rb_tree_const_iterator", %"struct.std::_Rb_tree_const_iterator"* %agg.tmp, i32 0, i32 0, !dbg !2192
  %9 = load %"struct.std::_Rb_tree_node_base"*, %"struct.std::_Rb_tree_node_base"** %coerce.dive20, align 8, !dbg !2192
  %call21 = call %"struct.std::_Rb_tree_node_base"* @_ZNSt3setIN9RangeTreeIjE5RangeESt4lessIS2_ESaIS2_EE5eraseB5cxx11ESt23_Rb_tree_const_iteratorIS2_E(%"class.std::set"* %tree19, %"struct.std::_Rb_tree_node_base"* %9), !dbg !2192
  %coerce.dive22 = getelementptr inbounds %"struct.std::_Rb_tree_const_iterator", %"struct.std::_Rb_tree_const_iterator"* %coerce, i32 0, i32 0, !dbg !2192
  store %"struct.std::_Rb_tree_node_base"* %call21, %"struct.std::_Rb_tree_node_base"** %coerce.dive22, align 8, !dbg !2192
  %tree23 = getelementptr inbounds %struct.RangeTree, %struct.RangeTree* %this1, i32 0, i32 0, !dbg !2193
  %call24 = call { %"struct.std::_Rb_tree_node_base"*, i8 } @_ZNSt3setIN9RangeTreeIjE5RangeESt4lessIS2_ESaIS2_EE6insertERKS2_(%"class.std::set"* %tree23, %"struct.RangeTree<unsigned int>::Range"* dereferenceable(12) %r), !dbg !2194
  %10 = bitcast %"struct.std::pair"* %coerce25 to { %"struct.std::_Rb_tree_node_base"*, i8 }*, !dbg !2194
  %11 = getelementptr inbounds { %"struct.std::_Rb_tree_node_base"*, i8 }, { %"struct.std::_Rb_tree_node_base"*, i8 }* %10, i32 0, i32 0, !dbg !2194
  %12 = extractvalue { %"struct.std::_Rb_tree_node_base"*, i8 } %call24, 0, !dbg !2194
  store %"struct.std::_Rb_tree_node_base"* %12, %"struct.std::_Rb_tree_node_base"** %11, align 8, !dbg !2194
  %13 = getelementptr inbounds { %"struct.std::_Rb_tree_node_base"*, i8 }, { %"struct.std::_Rb_tree_node_base"*, i8 }* %10, i32 0, i32 1, !dbg !2194
  %14 = extractvalue { %"struct.std::_Rb_tree_node_base"*, i8 } %call24, 1, !dbg !2194
  store i8 %14, i8* %13, align 8, !dbg !2194
  br label %if.end30, !dbg !2195

if.else:                                          ; preds = %if.then15
  %tree26 = getelementptr inbounds %struct.RangeTree, %struct.RangeTree* %this1, i32 0, i32 0, !dbg !2196
  %15 = load i32, i32* %t.addr, align 4, !dbg !2198
  call void @_ZN9RangeTreeIjE5RangeC2Ej(%"struct.RangeTree<unsigned int>::Range"* %ref.tmp27, i32 %15), !dbg !2199
  %call28 = call { %"struct.std::_Rb_tree_node_base"*, i8 } @_ZNSt3setIN9RangeTreeIjE5RangeESt4lessIS2_ESaIS2_EE6insertEOS2_(%"class.std::set"* %tree26, %"struct.RangeTree<unsigned int>::Range"* dereferenceable(12) %ref.tmp27), !dbg !2200
  %16 = bitcast %"struct.std::pair"* %coerce29 to { %"struct.std::_Rb_tree_node_base"*, i8 }*, !dbg !2200
  %17 = getelementptr inbounds { %"struct.std::_Rb_tree_node_base"*, i8 }, { %"struct.std::_Rb_tree_node_base"*, i8 }* %16, i32 0, i32 0, !dbg !2200
  %18 = extractvalue { %"struct.std::_Rb_tree_node_base"*, i8 } %call28, 0, !dbg !2200
  store %"struct.std::_Rb_tree_node_base"* %18, %"struct.std::_Rb_tree_node_base"** %17, align 8, !dbg !2200
  %19 = getelementptr inbounds { %"struct.std::_Rb_tree_node_base"*, i8 }, { %"struct.std::_Rb_tree_node_base"*, i8 }* %16, i32 0, i32 1, !dbg !2200
  %20 = extractvalue { %"struct.std::_Rb_tree_node_base"*, i8 } %call28, 1, !dbg !2200
  store i8 %20, i8* %19, align 8, !dbg !2200
  br label %if.end30

if.end30:                                         ; preds = %if.else, %if.then17
  br label %if.end105, !dbg !2201

if.else31:                                        ; preds = %if.end
  %call32 = call %"struct.RangeTree<unsigned int>::Range"* @_ZNKSt23_Rb_tree_const_iteratorIN9RangeTreeIjE5RangeEEptEv(%"struct.std::_Rb_tree_const_iterator"* %left) #3, !dbg !2202
  %max33 = getelementptr inbounds %"struct.RangeTree<unsigned int>::Range", %"struct.RangeTree<unsigned int>::Range"* %call32, i32 0, i32 1, !dbg !2204
  %21 = load i32, i32* %max33, align 4, !dbg !2204
  %add34 = add i32 %21, 1, !dbg !2205
  %22 = load i32, i32* %t.addr, align 4, !dbg !2206
  %cmp35 = icmp eq i32 %add34, %22, !dbg !2207
  br i1 %cmp35, label %land.lhs.true, label %if.else61, !dbg !2208

land.lhs.true:                                    ; preds = %if.else31
  %23 = load i32, i32* %t.addr, align 4, !dbg !2209
  %add36 = add i32 %23, 1, !dbg !2210
  %call37 = call %"struct.RangeTree<unsigned int>::Range"* @_ZNKSt23_Rb_tree_const_iteratorIN9RangeTreeIjE5RangeEEptEv(%"struct.std::_Rb_tree_const_iterator"* %right) #3, !dbg !2211
  %min38 = getelementptr inbounds %"struct.RangeTree<unsigned int>::Range", %"struct.RangeTree<unsigned int>::Range"* %call37, i32 0, i32 0, !dbg !2212
  %24 = load i32, i32* %min38, align 4, !dbg !2212
  %cmp39 = icmp eq i32 %add36, %24, !dbg !2213
  br i1 %cmp39, label %if.then40, label %if.else61, !dbg !2214

if.then40:                                        ; preds = %land.lhs.true
  call void @llvm.dbg.declare(metadata %"struct.RangeTree<unsigned int>::Range"* %r41, metadata !2215, metadata !DIExpression()), !dbg !2217
  %call42 = call %"struct.RangeTree<unsigned int>::Range"* @_ZNKSt23_Rb_tree_const_iteratorIN9RangeTreeIjE5RangeEEptEv(%"struct.std::_Rb_tree_const_iterator"* %left) #3, !dbg !2218
  %min43 = getelementptr inbounds %"struct.RangeTree<unsigned int>::Range", %"struct.RangeTree<unsigned int>::Range"* %call42, i32 0, i32 0, !dbg !2219
  %25 = load i32, i32* %min43, align 4, !dbg !2219
  %call44 = call %"struct.RangeTree<unsigned int>::Range"* @_ZNKSt23_Rb_tree_const_iteratorIN9RangeTreeIjE5RangeEEptEv(%"struct.std::_Rb_tree_const_iterator"* %right) #3, !dbg !2220
  %max45 = getelementptr inbounds %"struct.RangeTree<unsigned int>::Range", %"struct.RangeTree<unsigned int>::Range"* %call44, i32 0, i32 1, !dbg !2221
  %26 = load i32, i32* %max45, align 4, !dbg !2221
  call void @_ZN9RangeTreeIjE5RangeC2Ejj(%"struct.RangeTree<unsigned int>::Range"* %r41, i32 %25, i32 %26), !dbg !2217
  %tree46 = getelementptr inbounds %struct.RangeTree, %struct.RangeTree* %this1, i32 0, i32 0, !dbg !2222
  %27 = bitcast %"struct.std::_Rb_tree_const_iterator"* %agg.tmp47 to i8*, !dbg !2223
  %28 = bitcast %"struct.std::_Rb_tree_const_iterator"* %left to i8*, !dbg !2223
  call void @llvm.memcpy.p0i8.p0i8.i64(i8* align 8 %27, i8* align 8 %28, i64 8, i1 false), !dbg !2223
  %coerce.dive48 = getelementptr inbounds %"struct.std::_Rb_tree_const_iterator", %"struct.std::_Rb_tree_const_iterator"* %agg.tmp47, i32 0, i32 0, !dbg !2224
  %29 = load %"struct.std::_Rb_tree_node_base"*, %"struct.std::_Rb_tree_node_base"** %coerce.dive48, align 8, !dbg !2224
  %call49 = call %"struct.std::_Rb_tree_node_base"* @_ZNSt3setIN9RangeTreeIjE5RangeESt4lessIS2_ESaIS2_EE5eraseB5cxx11ESt23_Rb_tree_const_iteratorIS2_E(%"class.std::set"* %tree46, %"struct.std::_Rb_tree_node_base"* %29), !dbg !2224
  %coerce.dive51 = getelementptr inbounds %"struct.std::_Rb_tree_const_iterator", %"struct.std::_Rb_tree_const_iterator"* %coerce50, i32 0, i32 0, !dbg !2224
  store %"struct.std::_Rb_tree_node_base"* %call49, %"struct.std::_Rb_tree_node_base"** %coerce.dive51, align 8, !dbg !2224
  %tree52 = getelementptr inbounds %struct.RangeTree, %struct.RangeTree* %this1, i32 0, i32 0, !dbg !2225
  %30 = bitcast %"struct.std::_Rb_tree_const_iterator"* %agg.tmp53 to i8*, !dbg !2226
  %31 = bitcast %"struct.std::_Rb_tree_const_iterator"* %right to i8*, !dbg !2226
  call void @llvm.memcpy.p0i8.p0i8.i64(i8* align 8 %30, i8* align 8 %31, i64 8, i1 false), !dbg !2226
  %coerce.dive54 = getelementptr inbounds %"struct.std::_Rb_tree_const_iterator", %"struct.std::_Rb_tree_const_iterator"* %agg.tmp53, i32 0, i32 0, !dbg !2227
  %32 = load %"struct.std::_Rb_tree_node_base"*, %"struct.std::_Rb_tree_node_base"** %coerce.dive54, align 8, !dbg !2227
  %call55 = call %"struct.std::_Rb_tree_node_base"* @_ZNSt3setIN9RangeTreeIjE5RangeESt4lessIS2_ESaIS2_EE5eraseB5cxx11ESt23_Rb_tree_const_iteratorIS2_E(%"class.std::set"* %tree52, %"struct.std::_Rb_tree_node_base"* %32), !dbg !2227
  %coerce.dive57 = getelementptr inbounds %"struct.std::_Rb_tree_const_iterator", %"struct.std::_Rb_tree_const_iterator"* %coerce56, i32 0, i32 0, !dbg !2227
  store %"struct.std::_Rb_tree_node_base"* %call55, %"struct.std::_Rb_tree_node_base"** %coerce.dive57, align 8, !dbg !2227
  %tree58 = getelementptr inbounds %struct.RangeTree, %struct.RangeTree* %this1, i32 0, i32 0, !dbg !2228
  %call59 = call { %"struct.std::_Rb_tree_node_base"*, i8 } @_ZNSt3setIN9RangeTreeIjE5RangeESt4lessIS2_ESaIS2_EE6insertERKS2_(%"class.std::set"* %tree58, %"struct.RangeTree<unsigned int>::Range"* dereferenceable(12) %r41), !dbg !2229
  %33 = bitcast %"struct.std::pair"* %coerce60 to { %"struct.std::_Rb_tree_node_base"*, i8 }*, !dbg !2229
  %34 = getelementptr inbounds { %"struct.std::_Rb_tree_node_base"*, i8 }, { %"struct.std::_Rb_tree_node_base"*, i8 }* %33, i32 0, i32 0, !dbg !2229
  %35 = extractvalue { %"struct.std::_Rb_tree_node_base"*, i8 } %call59, 0, !dbg !2229
  store %"struct.std::_Rb_tree_node_base"* %35, %"struct.std::_Rb_tree_node_base"** %34, align 8, !dbg !2229
  %36 = getelementptr inbounds { %"struct.std::_Rb_tree_node_base"*, i8 }, { %"struct.std::_Rb_tree_node_base"*, i8 }* %33, i32 0, i32 1, !dbg !2229
  %37 = extractvalue { %"struct.std::_Rb_tree_node_base"*, i8 } %call59, 1, !dbg !2229
  store i8 %37, i8* %36, align 8, !dbg !2229
  br label %if.end104, !dbg !2230

if.else61:                                        ; preds = %land.lhs.true, %if.else31
  %call62 = call %"struct.RangeTree<unsigned int>::Range"* @_ZNKSt23_Rb_tree_const_iteratorIN9RangeTreeIjE5RangeEEptEv(%"struct.std::_Rb_tree_const_iterator"* %left) #3, !dbg !2231
  %max63 = getelementptr inbounds %"struct.RangeTree<unsigned int>::Range", %"struct.RangeTree<unsigned int>::Range"* %call62, i32 0, i32 1, !dbg !2233
  %38 = load i32, i32* %max63, align 4, !dbg !2233
  %add64 = add i32 %38, 1, !dbg !2234
  %39 = load i32, i32* %t.addr, align 4, !dbg !2235
  %cmp65 = icmp eq i32 %add64, %39, !dbg !2236
  br i1 %cmp65, label %if.then66, label %if.else79, !dbg !2237

if.then66:                                        ; preds = %if.else61
  call void @llvm.dbg.declare(metadata %"struct.RangeTree<unsigned int>::Range"* %r67, metadata !2238, metadata !DIExpression()), !dbg !2240
  %call68 = call %"struct.RangeTree<unsigned int>::Range"* @_ZNKSt23_Rb_tree_const_iteratorIN9RangeTreeIjE5RangeEEptEv(%"struct.std::_Rb_tree_const_iterator"* %left) #3, !dbg !2241
  %min69 = getelementptr inbounds %"struct.RangeTree<unsigned int>::Range", %"struct.RangeTree<unsigned int>::Range"* %call68, i32 0, i32 0, !dbg !2242
  %40 = load i32, i32* %min69, align 4, !dbg !2242
  %41 = load i32, i32* %t.addr, align 4, !dbg !2243
  call void @_ZN9RangeTreeIjE5RangeC2Ejj(%"struct.RangeTree<unsigned int>::Range"* %r67, i32 %40, i32 %41), !dbg !2240
  %tree70 = getelementptr inbounds %struct.RangeTree, %struct.RangeTree* %this1, i32 0, i32 0, !dbg !2244
  %42 = bitcast %"struct.std::_Rb_tree_const_iterator"* %agg.tmp71 to i8*, !dbg !2245
  %43 = bitcast %"struct.std::_Rb_tree_const_iterator"* %left to i8*, !dbg !2245
  call void @llvm.memcpy.p0i8.p0i8.i64(i8* align 8 %42, i8* align 8 %43, i64 8, i1 false), !dbg !2245
  %coerce.dive72 = getelementptr inbounds %"struct.std::_Rb_tree_const_iterator", %"struct.std::_Rb_tree_const_iterator"* %agg.tmp71, i32 0, i32 0, !dbg !2246
  %44 = load %"struct.std::_Rb_tree_node_base"*, %"struct.std::_Rb_tree_node_base"** %coerce.dive72, align 8, !dbg !2246
  %call73 = call %"struct.std::_Rb_tree_node_base"* @_ZNSt3setIN9RangeTreeIjE5RangeESt4lessIS2_ESaIS2_EE5eraseB5cxx11ESt23_Rb_tree_const_iteratorIS2_E(%"class.std::set"* %tree70, %"struct.std::_Rb_tree_node_base"* %44), !dbg !2246
  %coerce.dive75 = getelementptr inbounds %"struct.std::_Rb_tree_const_iterator", %"struct.std::_Rb_tree_const_iterator"* %coerce74, i32 0, i32 0, !dbg !2246
  store %"struct.std::_Rb_tree_node_base"* %call73, %"struct.std::_Rb_tree_node_base"** %coerce.dive75, align 8, !dbg !2246
  %tree76 = getelementptr inbounds %struct.RangeTree, %struct.RangeTree* %this1, i32 0, i32 0, !dbg !2247
  %call77 = call { %"struct.std::_Rb_tree_node_base"*, i8 } @_ZNSt3setIN9RangeTreeIjE5RangeESt4lessIS2_ESaIS2_EE6insertERKS2_(%"class.std::set"* %tree76, %"struct.RangeTree<unsigned int>::Range"* dereferenceable(12) %r67), !dbg !2248
  %45 = bitcast %"struct.std::pair"* %coerce78 to { %"struct.std::_Rb_tree_node_base"*, i8 }*, !dbg !2248
  %46 = getelementptr inbounds { %"struct.std::_Rb_tree_node_base"*, i8 }, { %"struct.std::_Rb_tree_node_base"*, i8 }* %45, i32 0, i32 0, !dbg !2248
  %47 = extractvalue { %"struct.std::_Rb_tree_node_base"*, i8 } %call77, 0, !dbg !2248
  store %"struct.std::_Rb_tree_node_base"* %47, %"struct.std::_Rb_tree_node_base"** %46, align 8, !dbg !2248
  %48 = getelementptr inbounds { %"struct.std::_Rb_tree_node_base"*, i8 }, { %"struct.std::_Rb_tree_node_base"*, i8 }* %45, i32 0, i32 1, !dbg !2248
  %49 = extractvalue { %"struct.std::_Rb_tree_node_base"*, i8 } %call77, 1, !dbg !2248
  store i8 %49, i8* %48, align 8, !dbg !2248
  br label %if.end103, !dbg !2249

if.else79:                                        ; preds = %if.else61
  %50 = load i32, i32* %t.addr, align 4, !dbg !2250
  %add80 = add i32 %50, 1, !dbg !2252
  %call81 = call %"struct.RangeTree<unsigned int>::Range"* @_ZNKSt23_Rb_tree_const_iteratorIN9RangeTreeIjE5RangeEEptEv(%"struct.std::_Rb_tree_const_iterator"* %right) #3, !dbg !2253
  %min82 = getelementptr inbounds %"struct.RangeTree<unsigned int>::Range", %"struct.RangeTree<unsigned int>::Range"* %call81, i32 0, i32 0, !dbg !2254
  %51 = load i32, i32* %min82, align 4, !dbg !2254
  %cmp83 = icmp eq i32 %add80, %51, !dbg !2255
  br i1 %cmp83, label %if.then84, label %if.else97, !dbg !2256

if.then84:                                        ; preds = %if.else79
  call void @llvm.dbg.declare(metadata %"struct.RangeTree<unsigned int>::Range"* %r85, metadata !2257, metadata !DIExpression()), !dbg !2259
  %52 = load i32, i32* %t.addr, align 4, !dbg !2260
  %call86 = call %"struct.RangeTree<unsigned int>::Range"* @_ZNKSt23_Rb_tree_const_iteratorIN9RangeTreeIjE5RangeEEptEv(%"struct.std::_Rb_tree_const_iterator"* %right) #3, !dbg !2261
  %max87 = getelementptr inbounds %"struct.RangeTree<unsigned int>::Range", %"struct.RangeTree<unsigned int>::Range"* %call86, i32 0, i32 1, !dbg !2262
  %53 = load i32, i32* %max87, align 4, !dbg !2262
  call void @_ZN9RangeTreeIjE5RangeC2Ejj(%"struct.RangeTree<unsigned int>::Range"* %r85, i32 %52, i32 %53), !dbg !2259
  %tree88 = getelementptr inbounds %struct.RangeTree, %struct.RangeTree* %this1, i32 0, i32 0, !dbg !2263
  %54 = bitcast %"struct.std::_Rb_tree_const_iterator"* %agg.tmp89 to i8*, !dbg !2264
  %55 = bitcast %"struct.std::_Rb_tree_const_iterator"* %right to i8*, !dbg !2264
  call void @llvm.memcpy.p0i8.p0i8.i64(i8* align 8 %54, i8* align 8 %55, i64 8, i1 false), !dbg !2264
  %coerce.dive90 = getelementptr inbounds %"struct.std::_Rb_tree_const_iterator", %"struct.std::_Rb_tree_const_iterator"* %agg.tmp89, i32 0, i32 0, !dbg !2265
  %56 = load %"struct.std::_Rb_tree_node_base"*, %"struct.std::_Rb_tree_node_base"** %coerce.dive90, align 8, !dbg !2265
  %call91 = call %"struct.std::_Rb_tree_node_base"* @_ZNSt3setIN9RangeTreeIjE5RangeESt4lessIS2_ESaIS2_EE5eraseB5cxx11ESt23_Rb_tree_const_iteratorIS2_E(%"class.std::set"* %tree88, %"struct.std::_Rb_tree_node_base"* %56), !dbg !2265
  %coerce.dive93 = getelementptr inbounds %"struct.std::_Rb_tree_const_iterator", %"struct.std::_Rb_tree_const_iterator"* %coerce92, i32 0, i32 0, !dbg !2265
  store %"struct.std::_Rb_tree_node_base"* %call91, %"struct.std::_Rb_tree_node_base"** %coerce.dive93, align 8, !dbg !2265
  %tree94 = getelementptr inbounds %struct.RangeTree, %struct.RangeTree* %this1, i32 0, i32 0, !dbg !2266
  %call95 = call { %"struct.std::_Rb_tree_node_base"*, i8 } @_ZNSt3setIN9RangeTreeIjE5RangeESt4lessIS2_ESaIS2_EE6insertERKS2_(%"class.std::set"* %tree94, %"struct.RangeTree<unsigned int>::Range"* dereferenceable(12) %r85), !dbg !2267
  %57 = bitcast %"struct.std::pair"* %coerce96 to { %"struct.std::_Rb_tree_node_base"*, i8 }*, !dbg !2267
  %58 = getelementptr inbounds { %"struct.std::_Rb_tree_node_base"*, i8 }, { %"struct.std::_Rb_tree_node_base"*, i8 }* %57, i32 0, i32 0, !dbg !2267
  %59 = extractvalue { %"struct.std::_Rb_tree_node_base"*, i8 } %call95, 0, !dbg !2267
  store %"struct.std::_Rb_tree_node_base"* %59, %"struct.std::_Rb_tree_node_base"** %58, align 8, !dbg !2267
  %60 = getelementptr inbounds { %"struct.std::_Rb_tree_node_base"*, i8 }, { %"struct.std::_Rb_tree_node_base"*, i8 }* %57, i32 0, i32 1, !dbg !2267
  %61 = extractvalue { %"struct.std::_Rb_tree_node_base"*, i8 } %call95, 1, !dbg !2267
  store i8 %61, i8* %60, align 8, !dbg !2267
  br label %if.end102, !dbg !2268

if.else97:                                        ; preds = %if.else79
  %tree98 = getelementptr inbounds %struct.RangeTree, %struct.RangeTree* %this1, i32 0, i32 0, !dbg !2269
  %62 = load i32, i32* %t.addr, align 4, !dbg !2271
  call void @_ZN9RangeTreeIjE5RangeC2Ej(%"struct.RangeTree<unsigned int>::Range"* %ref.tmp99, i32 %62), !dbg !2272
  %call100 = call { %"struct.std::_Rb_tree_node_base"*, i8 } @_ZNSt3setIN9RangeTreeIjE5RangeESt4lessIS2_ESaIS2_EE6insertEOS2_(%"class.std::set"* %tree98, %"struct.RangeTree<unsigned int>::Range"* dereferenceable(12) %ref.tmp99), !dbg !2273
  %63 = bitcast %"struct.std::pair"* %coerce101 to { %"struct.std::_Rb_tree_node_base"*, i8 }*, !dbg !2273
  %64 = getelementptr inbounds { %"struct.std::_Rb_tree_node_base"*, i8 }, { %"struct.std::_Rb_tree_node_base"*, i8 }* %63, i32 0, i32 0, !dbg !2273
  %65 = extractvalue { %"struct.std::_Rb_tree_node_base"*, i8 } %call100, 0, !dbg !2273
  store %"struct.std::_Rb_tree_node_base"* %65, %"struct.std::_Rb_tree_node_base"** %64, align 8, !dbg !2273
  %66 = getelementptr inbounds { %"struct.std::_Rb_tree_node_base"*, i8 }, { %"struct.std::_Rb_tree_node_base"*, i8 }* %63, i32 0, i32 1, !dbg !2273
  %67 = extractvalue { %"struct.std::_Rb_tree_node_base"*, i8 } %call100, 1, !dbg !2273
  store i8 %67, i8* %66, align 8, !dbg !2273
  br label %if.end102

if.end102:                                        ; preds = %if.else97, %if.then84
  br label %if.end103

if.end103:                                        ; preds = %if.end102, %if.then66
  br label %if.end104

if.end104:                                        ; preds = %if.end103, %if.then40
  br label %if.end105

if.end105:                                        ; preds = %if.end104, %if.end30
  br label %if.end137, !dbg !2274

if.else106:                                       ; preds = %entry
  %tree108 = getelementptr inbounds %struct.RangeTree, %struct.RangeTree* %this1, i32 0, i32 0, !dbg !2275
  %call109 = call %"struct.std::_Rb_tree_node_base"* @_ZNKSt3setIN9RangeTreeIjE5RangeESt4lessIS2_ESaIS2_EE3endEv(%"class.std::set"* %tree108) #3, !dbg !2277
  %coerce.dive110 = getelementptr inbounds %"struct.std::_Rb_tree_const_iterator", %"struct.std::_Rb_tree_const_iterator"* %ref.tmp107, i32 0, i32 0, !dbg !2277
  store %"struct.std::_Rb_tree_node_base"* %call109, %"struct.std::_Rb_tree_node_base"** %coerce.dive110, align 8, !dbg !2277
  %68 = bitcast %"struct.std::_Rb_tree_const_iterator"* %right to i8*, !dbg !2278
  %69 = bitcast %"struct.std::_Rb_tree_const_iterator"* %ref.tmp107 to i8*, !dbg !2278
  call void @llvm.memcpy.p0i8.p0i8.i64(i8* align 8 %68, i8* align 8 %69, i64 8, i1 false), !dbg !2278
  %call111 = call %"struct.std::_Rb_tree_node_base"* @_ZNSt23_Rb_tree_const_iteratorIN9RangeTreeIjE5RangeEEmmEi(%"struct.std::_Rb_tree_const_iterator"* %right, i32 0) #3, !dbg !2279
  %coerce.dive113 = getelementptr inbounds %"struct.std::_Rb_tree_const_iterator", %"struct.std::_Rb_tree_const_iterator"* %coerce112, i32 0, i32 0, !dbg !2279
  store %"struct.std::_Rb_tree_node_base"* %call111, %"struct.std::_Rb_tree_node_base"** %coerce.dive113, align 8, !dbg !2279
  %call114 = call %"struct.RangeTree<unsigned int>::Range"* @_ZNKSt23_Rb_tree_const_iteratorIN9RangeTreeIjE5RangeEEptEv(%"struct.std::_Rb_tree_const_iterator"* %right) #3, !dbg !2280
  %max115 = getelementptr inbounds %"struct.RangeTree<unsigned int>::Range", %"struct.RangeTree<unsigned int>::Range"* %call114, i32 0, i32 1, !dbg !2282
  %70 = load i32, i32* %max115, align 4, !dbg !2282
  %add116 = add i32 %70, 1, !dbg !2283
  %71 = load i32, i32* %t.addr, align 4, !dbg !2284
  %cmp117 = icmp eq i32 %add116, %71, !dbg !2285
  br i1 %cmp117, label %if.then118, label %if.else131, !dbg !2286

if.then118:                                       ; preds = %if.else106
  call void @llvm.dbg.declare(metadata %"struct.RangeTree<unsigned int>::Range"* %r119, metadata !2287, metadata !DIExpression()), !dbg !2289
  %call120 = call %"struct.RangeTree<unsigned int>::Range"* @_ZNKSt23_Rb_tree_const_iteratorIN9RangeTreeIjE5RangeEEptEv(%"struct.std::_Rb_tree_const_iterator"* %right) #3, !dbg !2290
  %min121 = getelementptr inbounds %"struct.RangeTree<unsigned int>::Range", %"struct.RangeTree<unsigned int>::Range"* %call120, i32 0, i32 0, !dbg !2291
  %72 = load i32, i32* %min121, align 4, !dbg !2291
  %73 = load i32, i32* %t.addr, align 4, !dbg !2292
  call void @_ZN9RangeTreeIjE5RangeC2Ejj(%"struct.RangeTree<unsigned int>::Range"* %r119, i32 %72, i32 %73), !dbg !2289
  %tree122 = getelementptr inbounds %struct.RangeTree, %struct.RangeTree* %this1, i32 0, i32 0, !dbg !2293
  %74 = bitcast %"struct.std::_Rb_tree_const_iterator"* %agg.tmp123 to i8*, !dbg !2294
  %75 = bitcast %"struct.std::_Rb_tree_const_iterator"* %right to i8*, !dbg !2294
  call void @llvm.memcpy.p0i8.p0i8.i64(i8* align 8 %74, i8* align 8 %75, i64 8, i1 false), !dbg !2294
  %coerce.dive124 = getelementptr inbounds %"struct.std::_Rb_tree_const_iterator", %"struct.std::_Rb_tree_const_iterator"* %agg.tmp123, i32 0, i32 0, !dbg !2295
  %76 = load %"struct.std::_Rb_tree_node_base"*, %"struct.std::_Rb_tree_node_base"** %coerce.dive124, align 8, !dbg !2295
  %call125 = call %"struct.std::_Rb_tree_node_base"* @_ZNSt3setIN9RangeTreeIjE5RangeESt4lessIS2_ESaIS2_EE5eraseB5cxx11ESt23_Rb_tree_const_iteratorIS2_E(%"class.std::set"* %tree122, %"struct.std::_Rb_tree_node_base"* %76), !dbg !2295
  %coerce.dive127 = getelementptr inbounds %"struct.std::_Rb_tree_const_iterator", %"struct.std::_Rb_tree_const_iterator"* %coerce126, i32 0, i32 0, !dbg !2295
  store %"struct.std::_Rb_tree_node_base"* %call125, %"struct.std::_Rb_tree_node_base"** %coerce.dive127, align 8, !dbg !2295
  %tree128 = getelementptr inbounds %struct.RangeTree, %struct.RangeTree* %this1, i32 0, i32 0, !dbg !2296
  %call129 = call { %"struct.std::_Rb_tree_node_base"*, i8 } @_ZNSt3setIN9RangeTreeIjE5RangeESt4lessIS2_ESaIS2_EE6insertERKS2_(%"class.std::set"* %tree128, %"struct.RangeTree<unsigned int>::Range"* dereferenceable(12) %r119), !dbg !2297
  %77 = bitcast %"struct.std::pair"* %coerce130 to { %"struct.std::_Rb_tree_node_base"*, i8 }*, !dbg !2297
  %78 = getelementptr inbounds { %"struct.std::_Rb_tree_node_base"*, i8 }, { %"struct.std::_Rb_tree_node_base"*, i8 }* %77, i32 0, i32 0, !dbg !2297
  %79 = extractvalue { %"struct.std::_Rb_tree_node_base"*, i8 } %call129, 0, !dbg !2297
  store %"struct.std::_Rb_tree_node_base"* %79, %"struct.std::_Rb_tree_node_base"** %78, align 8, !dbg !2297
  %80 = getelementptr inbounds { %"struct.std::_Rb_tree_node_base"*, i8 }, { %"struct.std::_Rb_tree_node_base"*, i8 }* %77, i32 0, i32 1, !dbg !2297
  %81 = extractvalue { %"struct.std::_Rb_tree_node_base"*, i8 } %call129, 1, !dbg !2297
  store i8 %81, i8* %80, align 8, !dbg !2297
  br label %if.end136, !dbg !2298

if.else131:                                       ; preds = %if.else106
  %tree132 = getelementptr inbounds %struct.RangeTree, %struct.RangeTree* %this1, i32 0, i32 0, !dbg !2299
  %82 = load i32, i32* %t.addr, align 4, !dbg !2301
  call void @_ZN9RangeTreeIjE5RangeC2Ej(%"struct.RangeTree<unsigned int>::Range"* %ref.tmp133, i32 %82), !dbg !2302
  %call134 = call { %"struct.std::_Rb_tree_node_base"*, i8 } @_ZNSt3setIN9RangeTreeIjE5RangeESt4lessIS2_ESaIS2_EE6insertEOS2_(%"class.std::set"* %tree132, %"struct.RangeTree<unsigned int>::Range"* dereferenceable(12) %ref.tmp133), !dbg !2303
  %83 = bitcast %"struct.std::pair"* %coerce135 to { %"struct.std::_Rb_tree_node_base"*, i8 }*, !dbg !2303
  %84 = getelementptr inbounds { %"struct.std::_Rb_tree_node_base"*, i8 }, { %"struct.std::_Rb_tree_node_base"*, i8 }* %83, i32 0, i32 0, !dbg !2303
  %85 = extractvalue { %"struct.std::_Rb_tree_node_base"*, i8 } %call134, 0, !dbg !2303
  store %"struct.std::_Rb_tree_node_base"* %85, %"struct.std::_Rb_tree_node_base"** %84, align 8, !dbg !2303
  %86 = getelementptr inbounds { %"struct.std::_Rb_tree_node_base"*, i8 }, { %"struct.std::_Rb_tree_node_base"*, i8 }* %83, i32 0, i32 1, !dbg !2303
  %87 = extractvalue { %"struct.std::_Rb_tree_node_base"*, i8 } %call134, 1, !dbg !2303
  store i8 %87, i8* %86, align 8, !dbg !2303
  br label %if.end136

if.end136:                                        ; preds = %if.else131, %if.then118
  br label %if.end137

if.end137:                                        ; preds = %if.end136, %if.end105
  ret void, !dbg !2304
}

; Function Attrs: noinline uwtable
define dso_local zeroext i1 @range_tree_uint_has(%struct.RangeTree* %rt, i32 %v) #0 !dbg !2305 {
entry:
  %rt.addr = alloca %struct.RangeTree*, align 8
  %v.addr = alloca i32, align 4
  store %struct.RangeTree* %rt, %struct.RangeTree** %rt.addr, align 8
  call void @llvm.dbg.declare(metadata %struct.RangeTree** %rt.addr, metadata !2310, metadata !DIExpression()), !dbg !2311
  store i32 %v, i32* %v.addr, align 4
  call void @llvm.dbg.declare(metadata i32* %v.addr, metadata !2312, metadata !DIExpression()), !dbg !2313
  %0 = load %struct.RangeTree*, %struct.RangeTree** %rt.addr, align 8, !dbg !2314
  %1 = load i32, i32* %v.addr, align 4, !dbg !2315
  %call = call zeroext i1 @_ZNK9RangeTreeIjE3hasEj(%struct.RangeTree* %0, i32 %1), !dbg !2316
  ret i1 %call, !dbg !2317
}

; Function Attrs: noinline uwtable
define linkonce_odr dso_local zeroext i1 @_ZNK9RangeTreeIjE3hasEj(%struct.RangeTree* %this, i32 %t) #0 comdat align 2 !dbg !2318 {
entry:
  %this.addr = alloca %struct.RangeTree*, align 8
  %t.addr = alloca i32, align 4
  %iter = alloca %"struct.std::_Rb_tree_const_iterator", align 8
  %ref.tmp = alloca %"struct.RangeTree<unsigned int>::Range", align 4
  %ref.tmp2 = alloca %"struct.std::_Rb_tree_const_iterator", align 8
  store %struct.RangeTree* %this, %struct.RangeTree** %this.addr, align 8
  call void @llvm.dbg.declare(metadata %struct.RangeTree** %this.addr, metadata !2319, metadata !DIExpression()), !dbg !2321
  store i32 %t, i32* %t.addr, align 4
  call void @llvm.dbg.declare(metadata i32* %t.addr, metadata !2322, metadata !DIExpression()), !dbg !2323
  %this1 = load %struct.RangeTree*, %struct.RangeTree** %this.addr, align 8
  call void @llvm.dbg.declare(metadata %"struct.std::_Rb_tree_const_iterator"* %iter, metadata !2324, metadata !DIExpression()), !dbg !2326
  %tree = getelementptr inbounds %struct.RangeTree, %struct.RangeTree* %this1, i32 0, i32 0, !dbg !2327
  %0 = load i32, i32* %t.addr, align 4, !dbg !2328
  call void @_ZN9RangeTreeIjE5RangeC2Ej(%"struct.RangeTree<unsigned int>::Range"* %ref.tmp, i32 %0), !dbg !2329
  %call = call %"struct.std::_Rb_tree_node_base"* @_ZNKSt3setIN9RangeTreeIjE5RangeESt4lessIS2_ESaIS2_EE4findERKS2_(%"class.std::set"* %tree, %"struct.RangeTree<unsigned int>::Range"* dereferenceable(12) %ref.tmp), !dbg !2330
  %coerce.dive = getelementptr inbounds %"struct.std::_Rb_tree_const_iterator", %"struct.std::_Rb_tree_const_iterator"* %iter, i32 0, i32 0, !dbg !2330
  store %"struct.std::_Rb_tree_node_base"* %call, %"struct.std::_Rb_tree_node_base"** %coerce.dive, align 8, !dbg !2330
  %tree3 = getelementptr inbounds %struct.RangeTree, %struct.RangeTree* %this1, i32 0, i32 0, !dbg !2331
  %call4 = call %"struct.std::_Rb_tree_node_base"* @_ZNKSt3setIN9RangeTreeIjE5RangeESt4lessIS2_ESaIS2_EE3endEv(%"class.std::set"* %tree3) #3, !dbg !2332
  %coerce.dive5 = getelementptr inbounds %"struct.std::_Rb_tree_const_iterator", %"struct.std::_Rb_tree_const_iterator"* %ref.tmp2, i32 0, i32 0, !dbg !2332
  store %"struct.std::_Rb_tree_node_base"* %call4, %"struct.std::_Rb_tree_node_base"** %coerce.dive5, align 8, !dbg !2332
  %call6 = call zeroext i1 @_ZStneRKSt23_Rb_tree_const_iteratorIN9RangeTreeIjE5RangeEES5_(%"struct.std::_Rb_tree_const_iterator"* dereferenceable(8) %iter, %"struct.std::_Rb_tree_const_iterator"* dereferenceable(8) %ref.tmp2) #3, !dbg !2333
  br i1 %call6, label %land.rhs, label %land.end, !dbg !2334

land.rhs:                                         ; preds = %entry
  %1 = load i32, i32* %t.addr, align 4, !dbg !2335
  %call7 = call %"struct.RangeTree<unsigned int>::Range"* @_ZNKSt23_Rb_tree_const_iteratorIN9RangeTreeIjE5RangeEEptEv(%"struct.std::_Rb_tree_const_iterator"* %iter) #3, !dbg !2336
  %max = getelementptr inbounds %"struct.RangeTree<unsigned int>::Range", %"struct.RangeTree<unsigned int>::Range"* %call7, i32 0, i32 1, !dbg !2337
  %2 = load i32, i32* %max, align 4, !dbg !2337
  %cmp = icmp ule i32 %1, %2, !dbg !2338
  br label %land.end

land.end:                                         ; preds = %land.rhs, %entry
  %3 = phi i1 [ false, %entry ], [ %cmp, %land.rhs ], !dbg !2321
  ret i1 %3, !dbg !2339
}

; Function Attrs: noinline uwtable
define dso_local zeroext i1 @range_tree_uint_has_range(%struct.RangeTree* %rt, i32 %vmin, i32 %vmax) #0 !dbg !2340 {
entry:
  %rt.addr = alloca %struct.RangeTree*, align 8
  %vmin.addr = alloca i32, align 4
  %vmax.addr = alloca i32, align 4
  store %struct.RangeTree* %rt, %struct.RangeTree** %rt.addr, align 8
  call void @llvm.dbg.declare(metadata %struct.RangeTree** %rt.addr, metadata !2343, metadata !DIExpression()), !dbg !2344
  store i32 %vmin, i32* %vmin.addr, align 4
  call void @llvm.dbg.declare(metadata i32* %vmin.addr, metadata !2345, metadata !DIExpression()), !dbg !2346
  store i32 %vmax, i32* %vmax.addr, align 4
  call void @llvm.dbg.declare(metadata i32* %vmax.addr, metadata !2347, metadata !DIExpression()), !dbg !2348
  %0 = load %struct.RangeTree*, %struct.RangeTree** %rt.addr, align 8, !dbg !2349
  %1 = load i32, i32* %vmin.addr, align 4, !dbg !2350
  %2 = load i32, i32* %vmax.addr, align 4, !dbg !2351
  %call = call zeroext i1 @_ZNK9RangeTreeIjE9has_rangeEjj(%struct.RangeTree* %0, i32 %1, i32 %2), !dbg !2352
  ret i1 %call, !dbg !2353
}

; Function Attrs: noinline uwtable
define linkonce_odr dso_local zeroext i1 @_ZNK9RangeTreeIjE9has_rangeEjj(%struct.RangeTree* %this, i32 %min, i32 %max) #0 comdat align 2 !dbg !2354 {
entry:
  %this.addr = alloca %struct.RangeTree*, align 8
  %min.addr = alloca i32, align 4
  %max.addr = alloca i32, align 4
  %iter = alloca %"struct.std::_Rb_tree_const_iterator", align 8
  %ref.tmp = alloca %"struct.RangeTree<unsigned int>::Range", align 4
  %ref.tmp2 = alloca %"struct.std::_Rb_tree_const_iterator", align 8
  store %struct.RangeTree* %this, %struct.RangeTree** %this.addr, align 8
  call void @llvm.dbg.declare(metadata %struct.RangeTree** %this.addr, metadata !2355, metadata !DIExpression()), !dbg !2356
  store i32 %min, i32* %min.addr, align 4
  call void @llvm.dbg.declare(metadata i32* %min.addr, metadata !2357, metadata !DIExpression()), !dbg !2358
  store i32 %max, i32* %max.addr, align 4
  call void @llvm.dbg.declare(metadata i32* %max.addr, metadata !2359, metadata !DIExpression()), !dbg !2360
  %this1 = load %struct.RangeTree*, %struct.RangeTree** %this.addr, align 8
  call void @llvm.dbg.declare(metadata %"struct.std::_Rb_tree_const_iterator"* %iter, metadata !2361, metadata !DIExpression()), !dbg !2362
  %tree = getelementptr inbounds %struct.RangeTree, %struct.RangeTree* %this1, i32 0, i32 0, !dbg !2363
  %0 = load i32, i32* %min.addr, align 4, !dbg !2364
  %1 = load i32, i32* %max.addr, align 4, !dbg !2365
  call void @_ZN9RangeTreeIjE5RangeC2Ejj(%"struct.RangeTree<unsigned int>::Range"* %ref.tmp, i32 %0, i32 %1), !dbg !2366
  %call = call %"struct.std::_Rb_tree_node_base"* @_ZNKSt3setIN9RangeTreeIjE5RangeESt4lessIS2_ESaIS2_EE4findERKS2_(%"class.std::set"* %tree, %"struct.RangeTree<unsigned int>::Range"* dereferenceable(12) %ref.tmp), !dbg !2367
  %coerce.dive = getelementptr inbounds %"struct.std::_Rb_tree_const_iterator", %"struct.std::_Rb_tree_const_iterator"* %iter, i32 0, i32 0, !dbg !2367
  store %"struct.std::_Rb_tree_node_base"* %call, %"struct.std::_Rb_tree_node_base"** %coerce.dive, align 8, !dbg !2367
  %tree3 = getelementptr inbounds %struct.RangeTree, %struct.RangeTree* %this1, i32 0, i32 0, !dbg !2368
  %call4 = call %"struct.std::_Rb_tree_node_base"* @_ZNKSt3setIN9RangeTreeIjE5RangeESt4lessIS2_ESaIS2_EE3endEv(%"class.std::set"* %tree3) #3, !dbg !2369
  %coerce.dive5 = getelementptr inbounds %"struct.std::_Rb_tree_const_iterator", %"struct.std::_Rb_tree_const_iterator"* %ref.tmp2, i32 0, i32 0, !dbg !2369
  store %"struct.std::_Rb_tree_node_base"* %call4, %"struct.std::_Rb_tree_node_base"** %coerce.dive5, align 8, !dbg !2369
  %call6 = call zeroext i1 @_ZStneRKSt23_Rb_tree_const_iteratorIN9RangeTreeIjE5RangeEES5_(%"struct.std::_Rb_tree_const_iterator"* dereferenceable(8) %iter, %"struct.std::_Rb_tree_const_iterator"* dereferenceable(8) %ref.tmp2) #3, !dbg !2370
  br i1 %call6, label %land.rhs, label %land.end13, !dbg !2371

land.rhs:                                         ; preds = %entry
  %2 = load i32, i32* %min.addr, align 4, !dbg !2372
  %call7 = call %"struct.RangeTree<unsigned int>::Range"* @_ZNKSt23_Rb_tree_const_iteratorIN9RangeTreeIjE5RangeEEptEv(%"struct.std::_Rb_tree_const_iterator"* %iter) #3, !dbg !2373
  %min8 = getelementptr inbounds %"struct.RangeTree<unsigned int>::Range", %"struct.RangeTree<unsigned int>::Range"* %call7, i32 0, i32 0, !dbg !2374
  %3 = load i32, i32* %min8, align 4, !dbg !2374
  %cmp = icmp eq i32 %2, %3, !dbg !2375
  br i1 %cmp, label %land.rhs9, label %land.end, !dbg !2376

land.rhs9:                                        ; preds = %land.rhs
  %4 = load i32, i32* %max.addr, align 4, !dbg !2377
  %call10 = call %"struct.RangeTree<unsigned int>::Range"* @_ZNKSt23_Rb_tree_const_iteratorIN9RangeTreeIjE5RangeEEptEv(%"struct.std::_Rb_tree_const_iterator"* %iter) #3, !dbg !2378
  %max11 = getelementptr inbounds %"struct.RangeTree<unsigned int>::Range", %"struct.RangeTree<unsigned int>::Range"* %call10, i32 0, i32 1, !dbg !2379
  %5 = load i32, i32* %max11, align 4, !dbg !2379
  %cmp12 = icmp eq i32 %4, %5, !dbg !2380
  br label %land.end

land.end:                                         ; preds = %land.rhs9, %land.rhs
  %6 = phi i1 [ false, %land.rhs ], [ %cmp12, %land.rhs9 ], !dbg !2356
  br label %land.end13

land.end13:                                       ; preds = %land.end, %entry
  %7 = phi i1 [ false, %entry ], [ %6, %land.end ], !dbg !2356
  ret i1 %7, !dbg !2381
}

; Function Attrs: noinline uwtable
define dso_local zeroext i1 @range_tree_uint_empty(%struct.RangeTree* %rt) #0 !dbg !2382 {
entry:
  %rt.addr = alloca %struct.RangeTree*, align 8
  store %struct.RangeTree* %rt, %struct.RangeTree** %rt.addr, align 8
  call void @llvm.dbg.declare(metadata %struct.RangeTree** %rt.addr, metadata !2385, metadata !DIExpression()), !dbg !2386
  %0 = load %struct.RangeTree*, %struct.RangeTree** %rt.addr, align 8, !dbg !2387
  %call = call zeroext i1 @_ZNK9RangeTreeIjE5emptyEv(%struct.RangeTree* %0), !dbg !2388
  ret i1 %call, !dbg !2389
}

; Function Attrs: noinline nounwind uwtable
define linkonce_odr dso_local zeroext i1 @_ZNK9RangeTreeIjE5emptyEv(%struct.RangeTree* %this) #7 comdat align 2 !dbg !2390 {
entry:
  %this.addr = alloca %struct.RangeTree*, align 8
  store %struct.RangeTree* %this, %struct.RangeTree** %this.addr, align 8
  call void @llvm.dbg.declare(metadata %struct.RangeTree** %this.addr, metadata !2391, metadata !DIExpression()), !dbg !2392
  %this1 = load %struct.RangeTree*, %struct.RangeTree** %this.addr, align 8
  %tree = getelementptr inbounds %struct.RangeTree, %struct.RangeTree* %this1, i32 0, i32 0, !dbg !2393
  %call = call zeroext i1 @_ZNKSt3setIN9RangeTreeIjE5RangeESt4lessIS2_ESaIS2_EE5emptyEv(%"class.std::set"* %tree) #3, !dbg !2394
  ret i1 %call, !dbg !2395
}

; Function Attrs: noinline uwtable
define dso_local i32 @range_tree_uint_size(%struct.RangeTree* %rt) #0 !dbg !2396 {
entry:
  %rt.addr = alloca %struct.RangeTree*, align 8
  store %struct.RangeTree* %rt, %struct.RangeTree** %rt.addr, align 8
  call void @llvm.dbg.declare(metadata %struct.RangeTree** %rt.addr, metadata !2399, metadata !DIExpression()), !dbg !2400
  %0 = load %struct.RangeTree*, %struct.RangeTree** %rt.addr, align 8, !dbg !2401
  %call = call i32 @_ZNK9RangeTreeIjE4sizeEv(%struct.RangeTree* %0), !dbg !2402
  ret i32 %call, !dbg !2403
}

; Function Attrs: noinline nounwind uwtable
define linkonce_odr dso_local i32 @_ZNK9RangeTreeIjE4sizeEv(%struct.RangeTree* %this) #7 comdat align 2 !dbg !2404 {
entry:
  %this.addr = alloca %struct.RangeTree*, align 8
  store %struct.RangeTree* %this, %struct.RangeTree** %this.addr, align 8
  call void @llvm.dbg.declare(metadata %struct.RangeTree** %this.addr, metadata !2405, metadata !DIExpression()), !dbg !2406
  %this1 = load %struct.RangeTree*, %struct.RangeTree** %this.addr, align 8
  %tree = getelementptr inbounds %struct.RangeTree, %struct.RangeTree* %this1, i32 0, i32 0, !dbg !2407
  %call = call i64 @_ZNKSt3setIN9RangeTreeIjE5RangeESt4lessIS2_ESaIS2_EE4sizeEv(%"class.std::set"* %tree) #3, !dbg !2408
  %conv = trunc i64 %call to i32, !dbg !2407
  ret i32 %conv, !dbg !2409
}

; Function Attrs: noinline uwtable
define dso_local void @range_tree_uint_print(%struct.RangeTree* %rt) #0 !dbg !2410 {
entry:
  %rt.addr = alloca %struct.RangeTree*, align 8
  store %struct.RangeTree* %rt, %struct.RangeTree** %rt.addr, align 8
  call void @llvm.dbg.declare(metadata %struct.RangeTree** %rt.addr, metadata !2413, metadata !DIExpression()), !dbg !2414
  %0 = load %struct.RangeTree*, %struct.RangeTree** %rt.addr, align 8, !dbg !2415
  call void @_ZNK9RangeTreeIjE5printEv(%struct.RangeTree* %0), !dbg !2416
  ret void, !dbg !2417
}

; Function Attrs: noinline uwtable
define linkonce_odr dso_local void @_ZNK9RangeTreeIjE5printEv(%struct.RangeTree* %this) #0 comdat align 2 !dbg !2418 {
entry:
  %this.addr = alloca %struct.RangeTree*, align 8
  %iter = alloca %"struct.std::_Rb_tree_const_iterator", align 8
  %ref.tmp = alloca %"struct.std::_Rb_tree_const_iterator", align 8
  %r = alloca %"struct.RangeTree<unsigned int>::Range"*, align 8
  store %struct.RangeTree* %this, %struct.RangeTree** %this.addr, align 8
  call void @llvm.dbg.declare(metadata %struct.RangeTree** %this.addr, metadata !2419, metadata !DIExpression()), !dbg !2420
  %this1 = load %struct.RangeTree*, %struct.RangeTree** %this.addr, align 8
  %call = call dereferenceable(272) %"class.std::basic_ostream"* @_ZStlsISt11char_traitsIcEERSt13basic_ostreamIcT_ES5_PKc(%"class.std::basic_ostream"* dereferenceable(272) @_ZSt4cout, i8* getelementptr inbounds ([12 x i8], [12 x i8]* @.str, i64 0, i64 0)), !dbg !2421
  call void @llvm.dbg.declare(metadata %"struct.std::_Rb_tree_const_iterator"* %iter, metadata !2422, metadata !DIExpression()), !dbg !2424
  %tree = getelementptr inbounds %struct.RangeTree, %struct.RangeTree* %this1, i32 0, i32 0, !dbg !2425
  %call2 = call %"struct.std::_Rb_tree_node_base"* @_ZNKSt3setIN9RangeTreeIjE5RangeESt4lessIS2_ESaIS2_EE5beginEv(%"class.std::set"* %tree) #3, !dbg !2426
  %coerce.dive = getelementptr inbounds %"struct.std::_Rb_tree_const_iterator", %"struct.std::_Rb_tree_const_iterator"* %iter, i32 0, i32 0, !dbg !2426
  store %"struct.std::_Rb_tree_node_base"* %call2, %"struct.std::_Rb_tree_node_base"** %coerce.dive, align 8, !dbg !2426
  br label %for.cond, !dbg !2427

for.cond:                                         ; preds = %for.inc, %entry
  %tree3 = getelementptr inbounds %struct.RangeTree, %struct.RangeTree* %this1, i32 0, i32 0, !dbg !2428
  %call4 = call %"struct.std::_Rb_tree_node_base"* @_ZNKSt3setIN9RangeTreeIjE5RangeESt4lessIS2_ESaIS2_EE3endEv(%"class.std::set"* %tree3) #3, !dbg !2430
  %coerce.dive5 = getelementptr inbounds %"struct.std::_Rb_tree_const_iterator", %"struct.std::_Rb_tree_const_iterator"* %ref.tmp, i32 0, i32 0, !dbg !2430
  store %"struct.std::_Rb_tree_node_base"* %call4, %"struct.std::_Rb_tree_node_base"** %coerce.dive5, align 8, !dbg !2430
  %call6 = call zeroext i1 @_ZStneRKSt23_Rb_tree_const_iteratorIN9RangeTreeIjE5RangeEES5_(%"struct.std::_Rb_tree_const_iterator"* dereferenceable(8) %iter, %"struct.std::_Rb_tree_const_iterator"* dereferenceable(8) %ref.tmp) #3, !dbg !2431
  br i1 %call6, label %for.body, label %for.end, !dbg !2432

for.body:                                         ; preds = %for.cond
  call void @llvm.dbg.declare(metadata %"struct.RangeTree<unsigned int>::Range"** %r, metadata !2433, metadata !DIExpression()), !dbg !2435
  %call7 = call dereferenceable(12) %"struct.RangeTree<unsigned int>::Range"* @_ZNKSt23_Rb_tree_const_iteratorIN9RangeTreeIjE5RangeEEdeEv(%"struct.std::_Rb_tree_const_iterator"* %iter) #3, !dbg !2436
  store %"struct.RangeTree<unsigned int>::Range"* %call7, %"struct.RangeTree<unsigned int>::Range"** %r, align 8, !dbg !2435
  %0 = load %"struct.RangeTree<unsigned int>::Range"*, %"struct.RangeTree<unsigned int>::Range"** %r, align 8, !dbg !2437
  %single = getelementptr inbounds %"struct.RangeTree<unsigned int>::Range", %"struct.RangeTree<unsigned int>::Range"* %0, i32 0, i32 2, !dbg !2439
  %1 = load i8, i8* %single, align 4, !dbg !2439
  %tobool = trunc i8 %1 to i1, !dbg !2439
  br i1 %tobool, label %if.then, label %if.else, !dbg !2440

if.then:                                          ; preds = %for.body
  %call8 = call dereferenceable(272) %"class.std::basic_ostream"* @_ZStlsISt11char_traitsIcEERSt13basic_ostreamIcT_ES5_PKc(%"class.std::basic_ostream"* dereferenceable(272) @_ZSt4cout, i8* getelementptr inbounds ([4 x i8], [4 x i8]* @.str.1, i64 0, i64 0)), !dbg !2441
  %2 = load %"struct.RangeTree<unsigned int>::Range"*, %"struct.RangeTree<unsigned int>::Range"** %r, align 8, !dbg !2442
  %min = getelementptr inbounds %"struct.RangeTree<unsigned int>::Range", %"struct.RangeTree<unsigned int>::Range"* %2, i32 0, i32 0, !dbg !2443
  %3 = load i32, i32* %min, align 4, !dbg !2443
  %call9 = call dereferenceable(272) %"class.std::basic_ostream"* @_ZNSolsEj(%"class.std::basic_ostream"* %call8, i32 %3), !dbg !2444
  %call10 = call dereferenceable(272) %"class.std::basic_ostream"* @_ZStlsISt11char_traitsIcEERSt13basic_ostreamIcT_ES5_PKc(%"class.std::basic_ostream"* dereferenceable(272) %call9, i8* getelementptr inbounds ([3 x i8], [3 x i8]* @.str.2, i64 0, i64 0)), !dbg !2445
  br label %if.end, !dbg !2446

if.else:                                          ; preds = %for.body
  %call11 = call dereferenceable(272) %"class.std::basic_ostream"* @_ZStlsISt11char_traitsIcEERSt13basic_ostreamIcT_ES5_PKc(%"class.std::basic_ostream"* dereferenceable(272) @_ZSt4cout, i8* getelementptr inbounds ([4 x i8], [4 x i8]* @.str.1, i64 0, i64 0)), !dbg !2447
  %4 = load %"struct.RangeTree<unsigned int>::Range"*, %"struct.RangeTree<unsigned int>::Range"** %r, align 8, !dbg !2448
  %min12 = getelementptr inbounds %"struct.RangeTree<unsigned int>::Range", %"struct.RangeTree<unsigned int>::Range"* %4, i32 0, i32 0, !dbg !2449
  %5 = load i32, i32* %min12, align 4, !dbg !2449
  %call13 = call dereferenceable(272) %"class.std::basic_ostream"* @_ZNSolsEj(%"class.std::basic_ostream"* %call11, i32 %5), !dbg !2450
  %call14 = call dereferenceable(272) %"class.std::basic_ostream"* @_ZStlsISt11char_traitsIcEERSt13basic_ostreamIcT_ES5_PKc(%"class.std::basic_ostream"* dereferenceable(272) %call13, i8* getelementptr inbounds ([3 x i8], [3 x i8]* @.str.3, i64 0, i64 0)), !dbg !2451
  %6 = load %"struct.RangeTree<unsigned int>::Range"*, %"struct.RangeTree<unsigned int>::Range"** %r, align 8, !dbg !2452
  %max = getelementptr inbounds %"struct.RangeTree<unsigned int>::Range", %"struct.RangeTree<unsigned int>::Range"* %6, i32 0, i32 1, !dbg !2453
  %7 = load i32, i32* %max, align 4, !dbg !2453
  %call15 = call dereferenceable(272) %"class.std::basic_ostream"* @_ZNSolsEj(%"class.std::basic_ostream"* %call14, i32 %7), !dbg !2454
  %call16 = call dereferenceable(272) %"class.std::basic_ostream"* @_ZStlsISt11char_traitsIcEERSt13basic_ostreamIcT_ES5_PKc(%"class.std::basic_ostream"* dereferenceable(272) %call15, i8* getelementptr inbounds ([3 x i8], [3 x i8]* @.str.2, i64 0, i64 0)), !dbg !2455
  br label %if.end

if.end:                                           ; preds = %if.else, %if.then
  br label %for.inc, !dbg !2456

for.inc:                                          ; preds = %if.end
  %call17 = call dereferenceable(8) %"struct.std::_Rb_tree_const_iterator"* @_ZNSt23_Rb_tree_const_iteratorIN9RangeTreeIjE5RangeEEppEv(%"struct.std::_Rb_tree_const_iterator"* %iter) #3, !dbg !2457
  br label %for.cond, !dbg !2458, !llvm.loop !2459

for.end:                                          ; preds = %for.cond
  %call18 = call zeroext i1 @_ZNK9RangeTreeIjE5emptyEv(%struct.RangeTree* %this1), !dbg !2461
  br i1 %call18, label %if.then19, label %if.end21, !dbg !2463

if.then19:                                        ; preds = %for.end
  %call20 = call dereferenceable(272) %"class.std::basic_ostream"* @_ZStlsISt11char_traitsIcEERSt13basic_ostreamIcT_ES5_PKc(%"class.std::basic_ostream"* dereferenceable(272) @_ZSt4cout, i8* getelementptr inbounds ([10 x i8], [10 x i8]* @.str.4, i64 0, i64 0)), !dbg !2464
  br label %if.end21, !dbg !2465

if.end21:                                         ; preds = %if.then19, %for.end
  %call22 = call dereferenceable(272) %"class.std::basic_ostream"* @_ZStlsISt11char_traitsIcEERSt13basic_ostreamIcT_ES5_PKc(%"class.std::basic_ostream"* dereferenceable(272) @_ZSt4cout, i8* getelementptr inbounds ([2 x i8], [2 x i8]* @.str.5, i64 0, i64 0)), !dbg !2466
  ret void, !dbg !2467
}

; Function Attrs: noinline uwtable
define dso_local i32 @range_tree_uint_allocation_lower_bound(%struct.RangeTree* %rt) #0 !dbg !2468 {
entry:
  %rt.addr = alloca %struct.RangeTree*, align 8
  store %struct.RangeTree* %rt, %struct.RangeTree** %rt.addr, align 8
  call void @llvm.dbg.declare(metadata %struct.RangeTree** %rt.addr, metadata !2469, metadata !DIExpression()), !dbg !2470
  %0 = load %struct.RangeTree*, %struct.RangeTree** %rt.addr, align 8, !dbg !2471
  %call = call i32 @_ZNK9RangeTreeIjE22allocation_lower_boundEv(%struct.RangeTree* %0), !dbg !2472
  ret i32 %call, !dbg !2473
}

; Function Attrs: noinline nounwind uwtable
define linkonce_odr dso_local i32 @_ZNK9RangeTreeIjE22allocation_lower_boundEv(%struct.RangeTree* %this) #7 comdat align 2 !dbg !2474 {
entry:
  %this.addr = alloca %struct.RangeTree*, align 8
  store %struct.RangeTree* %this, %struct.RangeTree** %this.addr, align 8
  call void @llvm.dbg.declare(metadata %struct.RangeTree** %this.addr, metadata !2475, metadata !DIExpression()), !dbg !2476
  %this1 = load %struct.RangeTree*, %struct.RangeTree** %this.addr, align 8
  %tree = getelementptr inbounds %struct.RangeTree, %struct.RangeTree* %this1, i32 0, i32 0, !dbg !2477
  %call = call i64 @_ZNKSt3setIN9RangeTreeIjE5RangeESt4lessIS2_ESaIS2_EE4sizeEv(%"class.std::set"* %tree) #3, !dbg !2478
  %mul = mul i64 %call, 12, !dbg !2479
  %conv = trunc i64 %mul to i32, !dbg !2477
  ret i32 %conv, !dbg !2480
}

; Function Attrs: noinline nounwind uwtable
define linkonce_odr dso_local void @_ZNSt3setIN9RangeTreeIjE5RangeESt4lessIS2_ESaIS2_EED2Ev(%"class.std::set"* %this) unnamed_addr #7 comdat align 2 !dbg !2481 {
entry:
  %this.addr = alloca %"class.std::set"*, align 8
  store %"class.std::set"* %this, %"class.std::set"** %this.addr, align 8
  call void @llvm.dbg.declare(metadata %"class.std::set"** %this.addr, metadata !2482, metadata !DIExpression()), !dbg !2484
  %this1 = load %"class.std::set"*, %"class.std::set"** %this.addr, align 8
  %_M_t = getelementptr inbounds %"class.std::set", %"class.std::set"* %this1, i32 0, i32 0, !dbg !2485
  call void @_ZNSt8_Rb_treeIN9RangeTreeIjE5RangeES2_St9_IdentityIS2_ESt4lessIS2_ESaIS2_EED2Ev(%"class.std::_Rb_tree"* %_M_t) #3, !dbg !2485
  ret void, !dbg !2487
}

; Function Attrs: noinline nounwind uwtable
define linkonce_odr dso_local void @_ZNSt8_Rb_treeIN9RangeTreeIjE5RangeES2_St9_IdentityIS2_ESt4lessIS2_ESaIS2_EED2Ev(%"class.std::_Rb_tree"* %this) unnamed_addr #7 comdat align 2 personality i8* bitcast (i32 (...)* @__gxx_personality_v0 to i8*) !dbg !2488 {
entry:
  %this.addr = alloca %"class.std::_Rb_tree"*, align 8
  %exn.slot = alloca i8*
  %ehselector.slot = alloca i32
  store %"class.std::_Rb_tree"* %this, %"class.std::_Rb_tree"** %this.addr, align 8
  call void @llvm.dbg.declare(metadata %"class.std::_Rb_tree"** %this.addr, metadata !2489, metadata !DIExpression()), !dbg !2491
  %this1 = load %"class.std::_Rb_tree"*, %"class.std::_Rb_tree"** %this.addr, align 8
  %call = call %"struct.std::_Rb_tree_node"* @_ZNSt8_Rb_treeIN9RangeTreeIjE5RangeES2_St9_IdentityIS2_ESt4lessIS2_ESaIS2_EE8_M_beginEv(%"class.std::_Rb_tree"* %this1) #3, !dbg !2492
  invoke void @_ZNSt8_Rb_treeIN9RangeTreeIjE5RangeES2_St9_IdentityIS2_ESt4lessIS2_ESaIS2_EE8_M_eraseEPSt13_Rb_tree_nodeIS2_E(%"class.std::_Rb_tree"* %this1, %"struct.std::_Rb_tree_node"* %call)
          to label %invoke.cont unwind label %lpad, !dbg !2494

invoke.cont:                                      ; preds = %entry
  %_M_impl = getelementptr inbounds %"class.std::_Rb_tree", %"class.std::_Rb_tree"* %this1, i32 0, i32 0, !dbg !2495
  call void @_ZNSt8_Rb_treeIN9RangeTreeIjE5RangeES2_St9_IdentityIS2_ESt4lessIS2_ESaIS2_EE13_Rb_tree_implIS6_Lb1EED2Ev(%"struct.std::_Rb_tree<RangeTree<unsigned int>::Range, RangeTree<unsigned int>::Range, std::_Identity<RangeTree<unsigned int>::Range>, std::less<RangeTree<unsigned int>::Range>, std::allocator<RangeTree<unsigned int>::Range> >::_Rb_tree_impl"* %_M_impl) #3, !dbg !2495
  ret void, !dbg !2496

lpad:                                             ; preds = %entry
  %0 = landingpad { i8*, i32 }
          catch i8* null, !dbg !2495
  %1 = extractvalue { i8*, i32 } %0, 0, !dbg !2495
  store i8* %1, i8** %exn.slot, align 8, !dbg !2495
  %2 = extractvalue { i8*, i32 } %0, 1, !dbg !2495
  store i32 %2, i32* %ehselector.slot, align 4, !dbg !2495
  %_M_impl2 = getelementptr inbounds %"class.std::_Rb_tree", %"class.std::_Rb_tree"* %this1, i32 0, i32 0, !dbg !2495
  call void @_ZNSt8_Rb_treeIN9RangeTreeIjE5RangeES2_St9_IdentityIS2_ESt4lessIS2_ESaIS2_EE13_Rb_tree_implIS6_Lb1EED2Ev(%"struct.std::_Rb_tree<RangeTree<unsigned int>::Range, RangeTree<unsigned int>::Range, std::_Identity<RangeTree<unsigned int>::Range>, std::less<RangeTree<unsigned int>::Range>, std::allocator<RangeTree<unsigned int>::Range> >::_Rb_tree_impl"* %_M_impl2) #3, !dbg !2495
  br label %terminate.handler, !dbg !2495

terminate.handler:                                ; preds = %lpad
  %exn = load i8*, i8** %exn.slot, align 8, !dbg !2495
  call void @__clang_call_terminate(i8* %exn) #14, !dbg !2495
  unreachable, !dbg !2495
}

; Function Attrs: noinline uwtable
define linkonce_odr dso_local void @_ZNSt8_Rb_treeIN9RangeTreeIjE5RangeES2_St9_IdentityIS2_ESt4lessIS2_ESaIS2_EE8_M_eraseEPSt13_Rb_tree_nodeIS2_E(%"class.std::_Rb_tree"* %this, %"struct.std::_Rb_tree_node"* %__x) #0 comdat align 2 !dbg !2497 {
entry:
  %this.addr = alloca %"class.std::_Rb_tree"*, align 8
  %__x.addr = alloca %"struct.std::_Rb_tree_node"*, align 8
  %__y = alloca %"struct.std::_Rb_tree_node"*, align 8
  store %"class.std::_Rb_tree"* %this, %"class.std::_Rb_tree"** %this.addr, align 8
  call void @llvm.dbg.declare(metadata %"class.std::_Rb_tree"** %this.addr, metadata !2498, metadata !DIExpression()), !dbg !2499
  store %"struct.std::_Rb_tree_node"* %__x, %"struct.std::_Rb_tree_node"** %__x.addr, align 8
  call void @llvm.dbg.declare(metadata %"struct.std::_Rb_tree_node"** %__x.addr, metadata !2500, metadata !DIExpression()), !dbg !2501
  %this1 = load %"class.std::_Rb_tree"*, %"class.std::_Rb_tree"** %this.addr, align 8
  br label %while.cond, !dbg !2502

while.cond:                                       ; preds = %while.body, %entry
  %0 = load %"struct.std::_Rb_tree_node"*, %"struct.std::_Rb_tree_node"** %__x.addr, align 8, !dbg !2503
  %cmp = icmp ne %"struct.std::_Rb_tree_node"* %0, null, !dbg !2504
  br i1 %cmp, label %while.body, label %while.end, !dbg !2502

while.body:                                       ; preds = %while.cond
  %1 = load %"struct.std::_Rb_tree_node"*, %"struct.std::_Rb_tree_node"** %__x.addr, align 8, !dbg !2505
  %2 = bitcast %"struct.std::_Rb_tree_node"* %1 to %"struct.std::_Rb_tree_node_base"*, !dbg !2505
  %call = call %"struct.std::_Rb_tree_node"* @_ZNSt8_Rb_treeIN9RangeTreeIjE5RangeES2_St9_IdentityIS2_ESt4lessIS2_ESaIS2_EE8_S_rightEPSt18_Rb_tree_node_base(%"struct.std::_Rb_tree_node_base"* %2) #3, !dbg !2507
  call void @_ZNSt8_Rb_treeIN9RangeTreeIjE5RangeES2_St9_IdentityIS2_ESt4lessIS2_ESaIS2_EE8_M_eraseEPSt13_Rb_tree_nodeIS2_E(%"class.std::_Rb_tree"* %this1, %"struct.std::_Rb_tree_node"* %call), !dbg !2508
  call void @llvm.dbg.declare(metadata %"struct.std::_Rb_tree_node"** %__y, metadata !2509, metadata !DIExpression()), !dbg !2510
  %3 = load %"struct.std::_Rb_tree_node"*, %"struct.std::_Rb_tree_node"** %__x.addr, align 8, !dbg !2511
  %4 = bitcast %"struct.std::_Rb_tree_node"* %3 to %"struct.std::_Rb_tree_node_base"*, !dbg !2511
  %call2 = call %"struct.std::_Rb_tree_node"* @_ZNSt8_Rb_treeIN9RangeTreeIjE5RangeES2_St9_IdentityIS2_ESt4lessIS2_ESaIS2_EE7_S_leftEPSt18_Rb_tree_node_base(%"struct.std::_Rb_tree_node_base"* %4) #3, !dbg !2512
  store %"struct.std::_Rb_tree_node"* %call2, %"struct.std::_Rb_tree_node"** %__y, align 8, !dbg !2510
  %5 = load %"struct.std::_Rb_tree_node"*, %"struct.std::_Rb_tree_node"** %__x.addr, align 8, !dbg !2513
  call void @_ZNSt8_Rb_treeIN9RangeTreeIjE5RangeES2_St9_IdentityIS2_ESt4lessIS2_ESaIS2_EE12_M_drop_nodeEPSt13_Rb_tree_nodeIS2_E(%"class.std::_Rb_tree"* %this1, %"struct.std::_Rb_tree_node"* %5) #3, !dbg !2514
  %6 = load %"struct.std::_Rb_tree_node"*, %"struct.std::_Rb_tree_node"** %__y, align 8, !dbg !2515
  store %"struct.std::_Rb_tree_node"* %6, %"struct.std::_Rb_tree_node"** %__x.addr, align 8, !dbg !2516
  br label %while.cond, !dbg !2502, !llvm.loop !2517

while.end:                                        ; preds = %while.cond
  ret void, !dbg !2519
}

; Function Attrs: noinline nounwind uwtable
define linkonce_odr dso_local %"struct.std::_Rb_tree_node"* @_ZNSt8_Rb_treeIN9RangeTreeIjE5RangeES2_St9_IdentityIS2_ESt4lessIS2_ESaIS2_EE8_M_beginEv(%"class.std::_Rb_tree"* %this) #7 comdat align 2 !dbg !2520 {
entry:
  %this.addr = alloca %"class.std::_Rb_tree"*, align 8
  store %"class.std::_Rb_tree"* %this, %"class.std::_Rb_tree"** %this.addr, align 8
  call void @llvm.dbg.declare(metadata %"class.std::_Rb_tree"** %this.addr, metadata !2521, metadata !DIExpression()), !dbg !2522
  %this1 = load %"class.std::_Rb_tree"*, %"class.std::_Rb_tree"** %this.addr, align 8
  %_M_impl = getelementptr inbounds %"class.std::_Rb_tree", %"class.std::_Rb_tree"* %this1, i32 0, i32 0, !dbg !2523
  %0 = bitcast %"struct.std::_Rb_tree<RangeTree<unsigned int>::Range, RangeTree<unsigned int>::Range, std::_Identity<RangeTree<unsigned int>::Range>, std::less<RangeTree<unsigned int>::Range>, std::allocator<RangeTree<unsigned int>::Range> >::_Rb_tree_impl"* %_M_impl to i8*, !dbg !2524
  %add.ptr = getelementptr inbounds i8, i8* %0, i64 8, !dbg !2524
  %1 = bitcast i8* %add.ptr to %"struct.std::_Rb_tree_header"*, !dbg !2524
  %_M_header = getelementptr inbounds %"struct.std::_Rb_tree_header", %"struct.std::_Rb_tree_header"* %1, i32 0, i32 0, !dbg !2525
  %_M_parent = getelementptr inbounds %"struct.std::_Rb_tree_node_base", %"struct.std::_Rb_tree_node_base"* %_M_header, i32 0, i32 1, !dbg !2526
  %2 = load %"struct.std::_Rb_tree_node_base"*, %"struct.std::_Rb_tree_node_base"** %_M_parent, align 8, !dbg !2526
  %3 = bitcast %"struct.std::_Rb_tree_node_base"* %2 to %"struct.std::_Rb_tree_node"*, !dbg !2527
  ret %"struct.std::_Rb_tree_node"* %3, !dbg !2528
}

; Function Attrs: noinline nounwind uwtable
define linkonce_odr dso_local void @_ZNSt8_Rb_treeIN9RangeTreeIjE5RangeES2_St9_IdentityIS2_ESt4lessIS2_ESaIS2_EE13_Rb_tree_implIS6_Lb1EED2Ev(%"struct.std::_Rb_tree<RangeTree<unsigned int>::Range, RangeTree<unsigned int>::Range, std::_Identity<RangeTree<unsigned int>::Range>, std::less<RangeTree<unsigned int>::Range>, std::allocator<RangeTree<unsigned int>::Range> >::_Rb_tree_impl"* %this) unnamed_addr #7 comdat align 2 !dbg !2529 {
entry:
  %this.addr = alloca %"struct.std::_Rb_tree<RangeTree<unsigned int>::Range, RangeTree<unsigned int>::Range, std::_Identity<RangeTree<unsigned int>::Range>, std::less<RangeTree<unsigned int>::Range>, std::allocator<RangeTree<unsigned int>::Range> >::_Rb_tree_impl"*, align 8
  store %"struct.std::_Rb_tree<RangeTree<unsigned int>::Range, RangeTree<unsigned int>::Range, std::_Identity<RangeTree<unsigned int>::Range>, std::less<RangeTree<unsigned int>::Range>, std::allocator<RangeTree<unsigned int>::Range> >::_Rb_tree_impl"* %this, %"struct.std::_Rb_tree<RangeTree<unsigned int>::Range, RangeTree<unsigned int>::Range, std::_Identity<RangeTree<unsigned int>::Range>, std::less<RangeTree<unsigned int>::Range>, std::allocator<RangeTree<unsigned int>::Range> >::_Rb_tree_impl"** %this.addr, align 8
  call void @llvm.dbg.declare(metadata %"struct.std::_Rb_tree<RangeTree<unsigned int>::Range, RangeTree<unsigned int>::Range, std::_Identity<RangeTree<unsigned int>::Range>, std::less<RangeTree<unsigned int>::Range>, std::allocator<RangeTree<unsigned int>::Range> >::_Rb_tree_impl"** %this.addr, metadata !2531, metadata !DIExpression()), !dbg !2533
  %this1 = load %"struct.std::_Rb_tree<RangeTree<unsigned int>::Range, RangeTree<unsigned int>::Range, std::_Identity<RangeTree<unsigned int>::Range>, std::less<RangeTree<unsigned int>::Range>, std::allocator<RangeTree<unsigned int>::Range> >::_Rb_tree_impl"*, %"struct.std::_Rb_tree<RangeTree<unsigned int>::Range, RangeTree<unsigned int>::Range, std::_Identity<RangeTree<unsigned int>::Range>, std::less<RangeTree<unsigned int>::Range>, std::allocator<RangeTree<unsigned int>::Range> >::_Rb_tree_impl"** %this.addr, align 8
  %0 = bitcast %"struct.std::_Rb_tree<RangeTree<unsigned int>::Range, RangeTree<unsigned int>::Range, std::_Identity<RangeTree<unsigned int>::Range>, std::less<RangeTree<unsigned int>::Range>, std::allocator<RangeTree<unsigned int>::Range> >::_Rb_tree_impl"* %this1 to %"class.std::allocator"*, !dbg !2534
  call void @_ZNSaISt13_Rb_tree_nodeIN9RangeTreeIjE5RangeEEED2Ev(%"class.std::allocator"* %0) #3, !dbg !2534
  ret void, !dbg !2536
}

; Function Attrs: noinline noreturn nounwind
define linkonce_odr hidden void @__clang_call_terminate(i8* %0) #8 comdat {
  %2 = call i8* @__cxa_begin_catch(i8* %0) #3
  call void @_ZSt9terminatev() #14
  unreachable
}

declare dso_local i8* @__cxa_begin_catch(i8*)

declare dso_local void @_ZSt9terminatev()

; Function Attrs: noinline nounwind uwtable
define linkonce_odr dso_local %"struct.std::_Rb_tree_node"* @_ZNSt8_Rb_treeIN9RangeTreeIjE5RangeES2_St9_IdentityIS2_ESt4lessIS2_ESaIS2_EE8_S_rightEPSt18_Rb_tree_node_base(%"struct.std::_Rb_tree_node_base"* %__x) #7 comdat align 2 !dbg !2537 {
entry:
  %__x.addr = alloca %"struct.std::_Rb_tree_node_base"*, align 8
  store %"struct.std::_Rb_tree_node_base"* %__x, %"struct.std::_Rb_tree_node_base"** %__x.addr, align 8
  call void @llvm.dbg.declare(metadata %"struct.std::_Rb_tree_node_base"** %__x.addr, metadata !2538, metadata !DIExpression()), !dbg !2539
  %0 = load %"struct.std::_Rb_tree_node_base"*, %"struct.std::_Rb_tree_node_base"** %__x.addr, align 8, !dbg !2540
  %_M_right = getelementptr inbounds %"struct.std::_Rb_tree_node_base", %"struct.std::_Rb_tree_node_base"* %0, i32 0, i32 3, !dbg !2541
  %1 = load %"struct.std::_Rb_tree_node_base"*, %"struct.std::_Rb_tree_node_base"** %_M_right, align 8, !dbg !2541
  %2 = bitcast %"struct.std::_Rb_tree_node_base"* %1 to %"struct.std::_Rb_tree_node"*, !dbg !2542
  ret %"struct.std::_Rb_tree_node"* %2, !dbg !2543
}

; Function Attrs: noinline nounwind uwtable
define linkonce_odr dso_local %"struct.std::_Rb_tree_node"* @_ZNSt8_Rb_treeIN9RangeTreeIjE5RangeES2_St9_IdentityIS2_ESt4lessIS2_ESaIS2_EE7_S_leftEPSt18_Rb_tree_node_base(%"struct.std::_Rb_tree_node_base"* %__x) #7 comdat align 2 !dbg !2544 {
entry:
  %__x.addr = alloca %"struct.std::_Rb_tree_node_base"*, align 8
  store %"struct.std::_Rb_tree_node_base"* %__x, %"struct.std::_Rb_tree_node_base"** %__x.addr, align 8
  call void @llvm.dbg.declare(metadata %"struct.std::_Rb_tree_node_base"** %__x.addr, metadata !2545, metadata !DIExpression()), !dbg !2546
  %0 = load %"struct.std::_Rb_tree_node_base"*, %"struct.std::_Rb_tree_node_base"** %__x.addr, align 8, !dbg !2547
  %_M_left = getelementptr inbounds %"struct.std::_Rb_tree_node_base", %"struct.std::_Rb_tree_node_base"* %0, i32 0, i32 2, !dbg !2548
  %1 = load %"struct.std::_Rb_tree_node_base"*, %"struct.std::_Rb_tree_node_base"** %_M_left, align 8, !dbg !2548
  %2 = bitcast %"struct.std::_Rb_tree_node_base"* %1 to %"struct.std::_Rb_tree_node"*, !dbg !2549
  ret %"struct.std::_Rb_tree_node"* %2, !dbg !2550
}

; Function Attrs: noinline nounwind uwtable
define linkonce_odr dso_local void @_ZNSt8_Rb_treeIN9RangeTreeIjE5RangeES2_St9_IdentityIS2_ESt4lessIS2_ESaIS2_EE12_M_drop_nodeEPSt13_Rb_tree_nodeIS2_E(%"class.std::_Rb_tree"* %this, %"struct.std::_Rb_tree_node"* %__p) #7 comdat align 2 !dbg !2551 {
entry:
  %this.addr = alloca %"class.std::_Rb_tree"*, align 8
  %__p.addr = alloca %"struct.std::_Rb_tree_node"*, align 8
  store %"class.std::_Rb_tree"* %this, %"class.std::_Rb_tree"** %this.addr, align 8
  call void @llvm.dbg.declare(metadata %"class.std::_Rb_tree"** %this.addr, metadata !2552, metadata !DIExpression()), !dbg !2553
  store %"struct.std::_Rb_tree_node"* %__p, %"struct.std::_Rb_tree_node"** %__p.addr, align 8
  call void @llvm.dbg.declare(metadata %"struct.std::_Rb_tree_node"** %__p.addr, metadata !2554, metadata !DIExpression()), !dbg !2555
  %this1 = load %"class.std::_Rb_tree"*, %"class.std::_Rb_tree"** %this.addr, align 8
  %0 = load %"struct.std::_Rb_tree_node"*, %"struct.std::_Rb_tree_node"** %__p.addr, align 8, !dbg !2556
  call void @_ZNSt8_Rb_treeIN9RangeTreeIjE5RangeES2_St9_IdentityIS2_ESt4lessIS2_ESaIS2_EE15_M_destroy_nodeEPSt13_Rb_tree_nodeIS2_E(%"class.std::_Rb_tree"* %this1, %"struct.std::_Rb_tree_node"* %0) #3, !dbg !2557
  %1 = load %"struct.std::_Rb_tree_node"*, %"struct.std::_Rb_tree_node"** %__p.addr, align 8, !dbg !2558
  call void @_ZNSt8_Rb_treeIN9RangeTreeIjE5RangeES2_St9_IdentityIS2_ESt4lessIS2_ESaIS2_EE11_M_put_nodeEPSt13_Rb_tree_nodeIS2_E(%"class.std::_Rb_tree"* %this1, %"struct.std::_Rb_tree_node"* %1) #3, !dbg !2559
  ret void, !dbg !2560
}

; Function Attrs: noinline nounwind uwtable
define linkonce_odr dso_local void @_ZNSt8_Rb_treeIN9RangeTreeIjE5RangeES2_St9_IdentityIS2_ESt4lessIS2_ESaIS2_EE15_M_destroy_nodeEPSt13_Rb_tree_nodeIS2_E(%"class.std::_Rb_tree"* %this, %"struct.std::_Rb_tree_node"* %__p) #7 comdat align 2 personality i8* bitcast (i32 (...)* @__gxx_personality_v0 to i8*) !dbg !2561 {
entry:
  %this.addr = alloca %"class.std::_Rb_tree"*, align 8
  %__p.addr = alloca %"struct.std::_Rb_tree_node"*, align 8
  store %"class.std::_Rb_tree"* %this, %"class.std::_Rb_tree"** %this.addr, align 8
  call void @llvm.dbg.declare(metadata %"class.std::_Rb_tree"** %this.addr, metadata !2562, metadata !DIExpression()), !dbg !2563
  store %"struct.std::_Rb_tree_node"* %__p, %"struct.std::_Rb_tree_node"** %__p.addr, align 8
  call void @llvm.dbg.declare(metadata %"struct.std::_Rb_tree_node"** %__p.addr, metadata !2564, metadata !DIExpression()), !dbg !2565
  %this1 = load %"class.std::_Rb_tree"*, %"class.std::_Rb_tree"** %this.addr, align 8
  %call = call dereferenceable(1) %"class.std::allocator"* @_ZNSt8_Rb_treeIN9RangeTreeIjE5RangeES2_St9_IdentityIS2_ESt4lessIS2_ESaIS2_EE21_M_get_Node_allocatorEv(%"class.std::_Rb_tree"* %this1) #3, !dbg !2566
  %0 = load %"struct.std::_Rb_tree_node"*, %"struct.std::_Rb_tree_node"** %__p.addr, align 8, !dbg !2567
  %call2 = invoke %"struct.RangeTree<unsigned int>::Range"* @_ZNSt13_Rb_tree_nodeIN9RangeTreeIjE5RangeEE9_M_valptrEv(%"struct.std::_Rb_tree_node"* %0)
          to label %invoke.cont unwind label %terminate.lpad, !dbg !2568

invoke.cont:                                      ; preds = %entry
  call void @_ZNSt16allocator_traitsISaISt13_Rb_tree_nodeIN9RangeTreeIjE5RangeEEEE7destroyIS3_EEvRS5_PT_(%"class.std::allocator"* dereferenceable(1) %call, %"struct.RangeTree<unsigned int>::Range"* %call2) #3, !dbg !2569
  %1 = load %"struct.std::_Rb_tree_node"*, %"struct.std::_Rb_tree_node"** %__p.addr, align 8, !dbg !2570
  ret void, !dbg !2571

terminate.lpad:                                   ; preds = %entry
  %2 = landingpad { i8*, i32 }
          catch i8* null, !dbg !2568
  %3 = extractvalue { i8*, i32 } %2, 0, !dbg !2568
  call void @__clang_call_terminate(i8* %3) #14, !dbg !2568
  unreachable, !dbg !2568
}

; Function Attrs: noinline nounwind uwtable
define linkonce_odr dso_local void @_ZNSt8_Rb_treeIN9RangeTreeIjE5RangeES2_St9_IdentityIS2_ESt4lessIS2_ESaIS2_EE11_M_put_nodeEPSt13_Rb_tree_nodeIS2_E(%"class.std::_Rb_tree"* %this, %"struct.std::_Rb_tree_node"* %__p) #7 comdat align 2 personality i8* bitcast (i32 (...)* @__gxx_personality_v0 to i8*) !dbg !2572 {
entry:
  %this.addr = alloca %"class.std::_Rb_tree"*, align 8
  %__p.addr = alloca %"struct.std::_Rb_tree_node"*, align 8
  store %"class.std::_Rb_tree"* %this, %"class.std::_Rb_tree"** %this.addr, align 8
  call void @llvm.dbg.declare(metadata %"class.std::_Rb_tree"** %this.addr, metadata !2573, metadata !DIExpression()), !dbg !2574
  store %"struct.std::_Rb_tree_node"* %__p, %"struct.std::_Rb_tree_node"** %__p.addr, align 8
  call void @llvm.dbg.declare(metadata %"struct.std::_Rb_tree_node"** %__p.addr, metadata !2575, metadata !DIExpression()), !dbg !2576
  %this1 = load %"class.std::_Rb_tree"*, %"class.std::_Rb_tree"** %this.addr, align 8
  %call = call dereferenceable(1) %"class.std::allocator"* @_ZNSt8_Rb_treeIN9RangeTreeIjE5RangeES2_St9_IdentityIS2_ESt4lessIS2_ESaIS2_EE21_M_get_Node_allocatorEv(%"class.std::_Rb_tree"* %this1) #3, !dbg !2577
  %0 = load %"struct.std::_Rb_tree_node"*, %"struct.std::_Rb_tree_node"** %__p.addr, align 8, !dbg !2578
  invoke void @_ZNSt16allocator_traitsISaISt13_Rb_tree_nodeIN9RangeTreeIjE5RangeEEEE10deallocateERS5_PS4_m(%"class.std::allocator"* dereferenceable(1) %call, %"struct.std::_Rb_tree_node"* %0, i64 1)
          to label %invoke.cont unwind label %terminate.lpad, !dbg !2579

invoke.cont:                                      ; preds = %entry
  ret void, !dbg !2580

terminate.lpad:                                   ; preds = %entry
  %1 = landingpad { i8*, i32 }
          catch i8* null, !dbg !2579
  %2 = extractvalue { i8*, i32 } %1, 0, !dbg !2579
  call void @__clang_call_terminate(i8* %2) #14, !dbg !2579
  unreachable, !dbg !2579
}

; Function Attrs: noinline nounwind uwtable
define linkonce_odr dso_local void @_ZNSt16allocator_traitsISaISt13_Rb_tree_nodeIN9RangeTreeIjE5RangeEEEE7destroyIS3_EEvRS5_PT_(%"class.std::allocator"* dereferenceable(1) %__a, %"struct.RangeTree<unsigned int>::Range"* %__p) #7 comdat align 2 !dbg !2581 {
entry:
  %__a.addr = alloca %"class.std::allocator"*, align 8
  %__p.addr = alloca %"struct.RangeTree<unsigned int>::Range"*, align 8
  store %"class.std::allocator"* %__a, %"class.std::allocator"** %__a.addr, align 8
  call void @llvm.dbg.declare(metadata %"class.std::allocator"** %__a.addr, metadata !2612, metadata !DIExpression()), !dbg !2613
  store %"struct.RangeTree<unsigned int>::Range"* %__p, %"struct.RangeTree<unsigned int>::Range"** %__p.addr, align 8
  call void @llvm.dbg.declare(metadata %"struct.RangeTree<unsigned int>::Range"** %__p.addr, metadata !2614, metadata !DIExpression()), !dbg !2615
  %0 = load %"class.std::allocator"*, %"class.std::allocator"** %__a.addr, align 8, !dbg !2616
  %1 = bitcast %"class.std::allocator"* %0 to %"class.__gnu_cxx::new_allocator"*, !dbg !2616
  %2 = load %"struct.RangeTree<unsigned int>::Range"*, %"struct.RangeTree<unsigned int>::Range"** %__p.addr, align 8, !dbg !2617
  call void @_ZN9__gnu_cxx13new_allocatorISt13_Rb_tree_nodeIN9RangeTreeIjE5RangeEEE7destroyIS4_EEvPT_(%"class.__gnu_cxx::new_allocator"* %1, %"struct.RangeTree<unsigned int>::Range"* %2) #3, !dbg !2618
  ret void, !dbg !2619
}

; Function Attrs: noinline nounwind uwtable
define linkonce_odr dso_local dereferenceable(1) %"class.std::allocator"* @_ZNSt8_Rb_treeIN9RangeTreeIjE5RangeES2_St9_IdentityIS2_ESt4lessIS2_ESaIS2_EE21_M_get_Node_allocatorEv(%"class.std::_Rb_tree"* %this) #7 comdat align 2 !dbg !2620 {
entry:
  %this.addr = alloca %"class.std::_Rb_tree"*, align 8
  store %"class.std::_Rb_tree"* %this, %"class.std::_Rb_tree"** %this.addr, align 8
  call void @llvm.dbg.declare(metadata %"class.std::_Rb_tree"** %this.addr, metadata !2621, metadata !DIExpression()), !dbg !2622
  %this1 = load %"class.std::_Rb_tree"*, %"class.std::_Rb_tree"** %this.addr, align 8
  %_M_impl = getelementptr inbounds %"class.std::_Rb_tree", %"class.std::_Rb_tree"* %this1, i32 0, i32 0, !dbg !2623
  %0 = bitcast %"struct.std::_Rb_tree<RangeTree<unsigned int>::Range, RangeTree<unsigned int>::Range, std::_Identity<RangeTree<unsigned int>::Range>, std::less<RangeTree<unsigned int>::Range>, std::allocator<RangeTree<unsigned int>::Range> >::_Rb_tree_impl"* %_M_impl to %"class.std::allocator"*, !dbg !2624
  ret %"class.std::allocator"* %0, !dbg !2625
}

; Function Attrs: noinline nounwind uwtable
define linkonce_odr dso_local %"struct.RangeTree<unsigned int>::Range"* @_ZNSt13_Rb_tree_nodeIN9RangeTreeIjE5RangeEE9_M_valptrEv(%"struct.std::_Rb_tree_node"* %this) #7 comdat align 2 !dbg !2626 {
entry:
  %this.addr = alloca %"struct.std::_Rb_tree_node"*, align 8
  store %"struct.std::_Rb_tree_node"* %this, %"struct.std::_Rb_tree_node"** %this.addr, align 8
  call void @llvm.dbg.declare(metadata %"struct.std::_Rb_tree_node"** %this.addr, metadata !2627, metadata !DIExpression()), !dbg !2628
  %this1 = load %"struct.std::_Rb_tree_node"*, %"struct.std::_Rb_tree_node"** %this.addr, align 8
  %_M_storage = getelementptr inbounds %"struct.std::_Rb_tree_node", %"struct.std::_Rb_tree_node"* %this1, i32 0, i32 1, !dbg !2629
  %call = call %"struct.RangeTree<unsigned int>::Range"* @_ZN9__gnu_cxx16__aligned_membufIN9RangeTreeIjE5RangeEE6_M_ptrEv(%"struct.__gnu_cxx::__aligned_membuf"* %_M_storage) #3, !dbg !2630
  ret %"struct.RangeTree<unsigned int>::Range"* %call, !dbg !2631
}

; Function Attrs: noinline nounwind uwtable
define linkonce_odr dso_local void @_ZN9__gnu_cxx13new_allocatorISt13_Rb_tree_nodeIN9RangeTreeIjE5RangeEEE7destroyIS4_EEvPT_(%"class.__gnu_cxx::new_allocator"* %this, %"struct.RangeTree<unsigned int>::Range"* %__p) #7 comdat align 2 !dbg !2632 {
entry:
  %this.addr = alloca %"class.__gnu_cxx::new_allocator"*, align 8
  %__p.addr = alloca %"struct.RangeTree<unsigned int>::Range"*, align 8
  store %"class.__gnu_cxx::new_allocator"* %this, %"class.__gnu_cxx::new_allocator"** %this.addr, align 8
  call void @llvm.dbg.declare(metadata %"class.__gnu_cxx::new_allocator"** %this.addr, metadata !2636, metadata !DIExpression()), !dbg !2638
  store %"struct.RangeTree<unsigned int>::Range"* %__p, %"struct.RangeTree<unsigned int>::Range"** %__p.addr, align 8
  call void @llvm.dbg.declare(metadata %"struct.RangeTree<unsigned int>::Range"** %__p.addr, metadata !2639, metadata !DIExpression()), !dbg !2640
  %this1 = load %"class.__gnu_cxx::new_allocator"*, %"class.__gnu_cxx::new_allocator"** %this.addr, align 8
  %0 = load %"struct.RangeTree<unsigned int>::Range"*, %"struct.RangeTree<unsigned int>::Range"** %__p.addr, align 8, !dbg !2641
  ret void, !dbg !2642
}

; Function Attrs: noinline nounwind uwtable
define linkonce_odr dso_local %"struct.RangeTree<unsigned int>::Range"* @_ZN9__gnu_cxx16__aligned_membufIN9RangeTreeIjE5RangeEE6_M_ptrEv(%"struct.__gnu_cxx::__aligned_membuf"* %this) #7 comdat align 2 !dbg !2643 {
entry:
  %this.addr = alloca %"struct.__gnu_cxx::__aligned_membuf"*, align 8
  store %"struct.__gnu_cxx::__aligned_membuf"* %this, %"struct.__gnu_cxx::__aligned_membuf"** %this.addr, align 8
  call void @llvm.dbg.declare(metadata %"struct.__gnu_cxx::__aligned_membuf"** %this.addr, metadata !2644, metadata !DIExpression()), !dbg !2646
  %this1 = load %"struct.__gnu_cxx::__aligned_membuf"*, %"struct.__gnu_cxx::__aligned_membuf"** %this.addr, align 8
  %call = call i8* @_ZN9__gnu_cxx16__aligned_membufIN9RangeTreeIjE5RangeEE7_M_addrEv(%"struct.__gnu_cxx::__aligned_membuf"* %this1) #3, !dbg !2647
  %0 = bitcast i8* %call to %"struct.RangeTree<unsigned int>::Range"*, !dbg !2648
  ret %"struct.RangeTree<unsigned int>::Range"* %0, !dbg !2649
}

; Function Attrs: noinline nounwind uwtable
define linkonce_odr dso_local i8* @_ZN9__gnu_cxx16__aligned_membufIN9RangeTreeIjE5RangeEE7_M_addrEv(%"struct.__gnu_cxx::__aligned_membuf"* %this) #7 comdat align 2 !dbg !2650 {
entry:
  %this.addr = alloca %"struct.__gnu_cxx::__aligned_membuf"*, align 8
  store %"struct.__gnu_cxx::__aligned_membuf"* %this, %"struct.__gnu_cxx::__aligned_membuf"** %this.addr, align 8
  call void @llvm.dbg.declare(metadata %"struct.__gnu_cxx::__aligned_membuf"** %this.addr, metadata !2651, metadata !DIExpression()), !dbg !2652
  %this1 = load %"struct.__gnu_cxx::__aligned_membuf"*, %"struct.__gnu_cxx::__aligned_membuf"** %this.addr, align 8
  %_M_storage = getelementptr inbounds %"struct.__gnu_cxx::__aligned_membuf", %"struct.__gnu_cxx::__aligned_membuf"* %this1, i32 0, i32 0, !dbg !2653
  %0 = bitcast [12 x i8]* %_M_storage to i8*, !dbg !2654
  ret i8* %0, !dbg !2655
}

; Function Attrs: noinline uwtable
define linkonce_odr dso_local void @_ZNSt16allocator_traitsISaISt13_Rb_tree_nodeIN9RangeTreeIjE5RangeEEEE10deallocateERS5_PS4_m(%"class.std::allocator"* dereferenceable(1) %__a, %"struct.std::_Rb_tree_node"* %__p, i64 %__n) #0 comdat align 2 !dbg !2656 {
entry:
  %__a.addr = alloca %"class.std::allocator"*, align 8
  %__p.addr = alloca %"struct.std::_Rb_tree_node"*, align 8
  %__n.addr = alloca i64, align 8
  store %"class.std::allocator"* %__a, %"class.std::allocator"** %__a.addr, align 8
  call void @llvm.dbg.declare(metadata %"class.std::allocator"** %__a.addr, metadata !2657, metadata !DIExpression()), !dbg !2658
  store %"struct.std::_Rb_tree_node"* %__p, %"struct.std::_Rb_tree_node"** %__p.addr, align 8
  call void @llvm.dbg.declare(metadata %"struct.std::_Rb_tree_node"** %__p.addr, metadata !2659, metadata !DIExpression()), !dbg !2660
  store i64 %__n, i64* %__n.addr, align 8
  call void @llvm.dbg.declare(metadata i64* %__n.addr, metadata !2661, metadata !DIExpression()), !dbg !2662
  %0 = load %"class.std::allocator"*, %"class.std::allocator"** %__a.addr, align 8, !dbg !2663
  %1 = bitcast %"class.std::allocator"* %0 to %"class.__gnu_cxx::new_allocator"*, !dbg !2663
  %2 = load %"struct.std::_Rb_tree_node"*, %"struct.std::_Rb_tree_node"** %__p.addr, align 8, !dbg !2664
  %3 = load i64, i64* %__n.addr, align 8, !dbg !2665
  call void @_ZN9__gnu_cxx13new_allocatorISt13_Rb_tree_nodeIN9RangeTreeIjE5RangeEEE10deallocateEPS5_m(%"class.__gnu_cxx::new_allocator"* %1, %"struct.std::_Rb_tree_node"* %2, i64 %3), !dbg !2666
  ret void, !dbg !2667
}

; Function Attrs: noinline nounwind uwtable
define linkonce_odr dso_local void @_ZN9__gnu_cxx13new_allocatorISt13_Rb_tree_nodeIN9RangeTreeIjE5RangeEEE10deallocateEPS5_m(%"class.__gnu_cxx::new_allocator"* %this, %"struct.std::_Rb_tree_node"* %__p, i64 %__t) #7 comdat align 2 !dbg !2668 {
entry:
  %this.addr = alloca %"class.__gnu_cxx::new_allocator"*, align 8
  %__p.addr = alloca %"struct.std::_Rb_tree_node"*, align 8
  %__t.addr = alloca i64, align 8
  store %"class.__gnu_cxx::new_allocator"* %this, %"class.__gnu_cxx::new_allocator"** %this.addr, align 8
  call void @llvm.dbg.declare(metadata %"class.__gnu_cxx::new_allocator"** %this.addr, metadata !2669, metadata !DIExpression()), !dbg !2670
  store %"struct.std::_Rb_tree_node"* %__p, %"struct.std::_Rb_tree_node"** %__p.addr, align 8
  call void @llvm.dbg.declare(metadata %"struct.std::_Rb_tree_node"** %__p.addr, metadata !2671, metadata !DIExpression()), !dbg !2672
  store i64 %__t, i64* %__t.addr, align 8
  call void @llvm.dbg.declare(metadata i64* %__t.addr, metadata !2673, metadata !DIExpression()), !dbg !2674
  %this1 = load %"class.__gnu_cxx::new_allocator"*, %"class.__gnu_cxx::new_allocator"** %this.addr, align 8
  %0 = load %"struct.std::_Rb_tree_node"*, %"struct.std::_Rb_tree_node"** %__p.addr, align 8, !dbg !2675
  %1 = bitcast %"struct.std::_Rb_tree_node"* %0 to i8*, !dbg !2675
  call void @_ZdlPv(i8* %1) #3, !dbg !2676
  ret void, !dbg !2677
}

; Function Attrs: noinline nounwind uwtable
define linkonce_odr dso_local void @_ZNSaISt13_Rb_tree_nodeIN9RangeTreeIjE5RangeEEED2Ev(%"class.std::allocator"* %this) unnamed_addr #7 comdat align 2 !dbg !2678 {
entry:
  %this.addr = alloca %"class.std::allocator"*, align 8
  store %"class.std::allocator"* %this, %"class.std::allocator"** %this.addr, align 8
  call void @llvm.dbg.declare(metadata %"class.std::allocator"** %this.addr, metadata !2679, metadata !DIExpression()), !dbg !2681
  %this1 = load %"class.std::allocator"*, %"class.std::allocator"** %this.addr, align 8
  %0 = bitcast %"class.std::allocator"* %this1 to %"class.__gnu_cxx::new_allocator"*, !dbg !2682
  call void @_ZN9__gnu_cxx13new_allocatorISt13_Rb_tree_nodeIN9RangeTreeIjE5RangeEEED2Ev(%"class.__gnu_cxx::new_allocator"* %0) #3, !dbg !2682
  ret void, !dbg !2684
}

; Function Attrs: noinline nounwind uwtable
define linkonce_odr dso_local void @_ZN9__gnu_cxx13new_allocatorISt13_Rb_tree_nodeIN9RangeTreeIjE5RangeEEED2Ev(%"class.__gnu_cxx::new_allocator"* %this) unnamed_addr #7 comdat align 2 !dbg !2685 {
entry:
  %this.addr = alloca %"class.__gnu_cxx::new_allocator"*, align 8
  store %"class.__gnu_cxx::new_allocator"* %this, %"class.__gnu_cxx::new_allocator"** %this.addr, align 8
  call void @llvm.dbg.declare(metadata %"class.__gnu_cxx::new_allocator"** %this.addr, metadata !2686, metadata !DIExpression()), !dbg !2687
  %this1 = load %"class.__gnu_cxx::new_allocator"*, %"class.__gnu_cxx::new_allocator"** %this.addr, align 8
  ret void, !dbg !2688
}

; Function Attrs: noinline nounwind uwtable
define linkonce_odr dso_local void @_ZNSt3setIN9RangeTreeIjE5RangeESt4lessIS2_ESaIS2_EEC2Ev(%"class.std::set"* %this) unnamed_addr #7 comdat align 2 !dbg !2689 {
entry:
  %this.addr = alloca %"class.std::set"*, align 8
  store %"class.std::set"* %this, %"class.std::set"** %this.addr, align 8
  call void @llvm.dbg.declare(metadata %"class.std::set"** %this.addr, metadata !2690, metadata !DIExpression()), !dbg !2691
  %this1 = load %"class.std::set"*, %"class.std::set"** %this.addr, align 8
  %_M_t = getelementptr inbounds %"class.std::set", %"class.std::set"* %this1, i32 0, i32 0, !dbg !2692
  call void @_ZNSt8_Rb_treeIN9RangeTreeIjE5RangeES2_St9_IdentityIS2_ESt4lessIS2_ESaIS2_EEC2Ev(%"class.std::_Rb_tree"* %_M_t) #3, !dbg !2692
  ret void, !dbg !2693
}

; Function Attrs: noinline uwtable
define linkonce_odr dso_local { %"struct.std::_Rb_tree_node_base"*, i8 } @_ZNSt3setIN9RangeTreeIjE5RangeESt4lessIS2_ESaIS2_EE6insertEOS2_(%"class.std::set"* %this, %"struct.RangeTree<unsigned int>::Range"* dereferenceable(12) %__x) #0 comdat align 2 !dbg !2694 {
entry:
  %retval = alloca %"struct.std::pair", align 8
  %this.addr = alloca %"class.std::set"*, align 8
  %__x.addr = alloca %"struct.RangeTree<unsigned int>::Range"*, align 8
  %__p = alloca %"struct.std::pair.0", align 8
  store %"class.std::set"* %this, %"class.std::set"** %this.addr, align 8
  call void @llvm.dbg.declare(metadata %"class.std::set"** %this.addr, metadata !2695, metadata !DIExpression()), !dbg !2696
  store %"struct.RangeTree<unsigned int>::Range"* %__x, %"struct.RangeTree<unsigned int>::Range"** %__x.addr, align 8
  call void @llvm.dbg.declare(metadata %"struct.RangeTree<unsigned int>::Range"** %__x.addr, metadata !2697, metadata !DIExpression()), !dbg !2698
  %this1 = load %"class.std::set"*, %"class.std::set"** %this.addr, align 8
  call void @llvm.dbg.declare(metadata %"struct.std::pair.0"* %__p, metadata !2699, metadata !DIExpression()), !dbg !2753
  %_M_t = getelementptr inbounds %"class.std::set", %"class.std::set"* %this1, i32 0, i32 0, !dbg !2754
  %0 = load %"struct.RangeTree<unsigned int>::Range"*, %"struct.RangeTree<unsigned int>::Range"** %__x.addr, align 8, !dbg !2755
  %call = call dereferenceable(12) %"struct.RangeTree<unsigned int>::Range"* @_ZSt4moveIRN9RangeTreeIjE5RangeEEONSt16remove_referenceIT_E4typeEOS5_(%"struct.RangeTree<unsigned int>::Range"* dereferenceable(12) %0) #3, !dbg !2756
  %call2 = call { %"struct.std::_Rb_tree_node_base"*, i8 } @_ZNSt8_Rb_treeIN9RangeTreeIjE5RangeES2_St9_IdentityIS2_ESt4lessIS2_ESaIS2_EE16_M_insert_uniqueIS2_EESt4pairISt17_Rb_tree_iteratorIS2_EbEOT_(%"class.std::_Rb_tree"* %_M_t, %"struct.RangeTree<unsigned int>::Range"* dereferenceable(12) %call), !dbg !2757
  %1 = bitcast %"struct.std::pair.0"* %__p to { %"struct.std::_Rb_tree_node_base"*, i8 }*, !dbg !2757
  %2 = getelementptr inbounds { %"struct.std::_Rb_tree_node_base"*, i8 }, { %"struct.std::_Rb_tree_node_base"*, i8 }* %1, i32 0, i32 0, !dbg !2757
  %3 = extractvalue { %"struct.std::_Rb_tree_node_base"*, i8 } %call2, 0, !dbg !2757
  store %"struct.std::_Rb_tree_node_base"* %3, %"struct.std::_Rb_tree_node_base"** %2, align 8, !dbg !2757
  %4 = getelementptr inbounds { %"struct.std::_Rb_tree_node_base"*, i8 }, { %"struct.std::_Rb_tree_node_base"*, i8 }* %1, i32 0, i32 1, !dbg !2757
  %5 = extractvalue { %"struct.std::_Rb_tree_node_base"*, i8 } %call2, 1, !dbg !2757
  store i8 %5, i8* %4, align 8, !dbg !2757
  %first = getelementptr inbounds %"struct.std::pair.0", %"struct.std::pair.0"* %__p, i32 0, i32 0, !dbg !2758
  %second = getelementptr inbounds %"struct.std::pair.0", %"struct.std::pair.0"* %__p, i32 0, i32 1, !dbg !2759
  call void @_ZNSt4pairISt23_Rb_tree_const_iteratorIN9RangeTreeIjE5RangeEEbEC2IRSt17_Rb_tree_iteratorIS3_ERbLb1EEEOT_OT0_(%"struct.std::pair"* %retval, %"struct.std::_Rb_tree_iterator"* dereferenceable(8) %first, i8* dereferenceable(1) %second), !dbg !2760
  %6 = bitcast %"struct.std::pair"* %retval to { %"struct.std::_Rb_tree_node_base"*, i8 }*, !dbg !2761
  %7 = load { %"struct.std::_Rb_tree_node_base"*, i8 }, { %"struct.std::_Rb_tree_node_base"*, i8 }* %6, align 8, !dbg !2761
  ret { %"struct.std::_Rb_tree_node_base"*, i8 } %7, !dbg !2761
}

; Function Attrs: noinline nounwind uwtable
define linkonce_odr dso_local void @_ZN9RangeTreeIjE5RangeC2Ejj(%"struct.RangeTree<unsigned int>::Range"* %this, i32 %min_, i32 %max_) unnamed_addr #7 comdat align 2 !dbg !2762 {
entry:
  %this.addr = alloca %"struct.RangeTree<unsigned int>::Range"*, align 8
  %min_.addr = alloca i32, align 4
  %max_.addr = alloca i32, align 4
  store %"struct.RangeTree<unsigned int>::Range"* %this, %"struct.RangeTree<unsigned int>::Range"** %this.addr, align 8
  call void @llvm.dbg.declare(metadata %"struct.RangeTree<unsigned int>::Range"** %this.addr, metadata !2763, metadata !DIExpression()), !dbg !2764
  store i32 %min_, i32* %min_.addr, align 4
  call void @llvm.dbg.declare(metadata i32* %min_.addr, metadata !2765, metadata !DIExpression()), !dbg !2766
  store i32 %max_, i32* %max_.addr, align 4
  call void @llvm.dbg.declare(metadata i32* %max_.addr, metadata !2767, metadata !DIExpression()), !dbg !2768
  %this1 = load %"struct.RangeTree<unsigned int>::Range"*, %"struct.RangeTree<unsigned int>::Range"** %this.addr, align 8
  %min = getelementptr inbounds %"struct.RangeTree<unsigned int>::Range", %"struct.RangeTree<unsigned int>::Range"* %this1, i32 0, i32 0, !dbg !2769
  %0 = load i32, i32* %min_.addr, align 4, !dbg !2770
  store i32 %0, i32* %min, align 4, !dbg !2769
  %max = getelementptr inbounds %"struct.RangeTree<unsigned int>::Range", %"struct.RangeTree<unsigned int>::Range"* %this1, i32 0, i32 1, !dbg !2771
  %1 = load i32, i32* %max_.addr, align 4, !dbg !2772
  store i32 %1, i32* %max, align 4, !dbg !2771
  %single = getelementptr inbounds %"struct.RangeTree<unsigned int>::Range", %"struct.RangeTree<unsigned int>::Range"* %this1, i32 0, i32 2, !dbg !2773
  %2 = load i32, i32* %min_.addr, align 4, !dbg !2774
  %3 = load i32, i32* %max_.addr, align 4, !dbg !2775
  %cmp = icmp eq i32 %2, %3, !dbg !2776
  %frombool = zext i1 %cmp to i8, !dbg !2773
  store i8 %frombool, i8* %single, align 4, !dbg !2773
  ret void, !dbg !2777
}

; Function Attrs: noinline nounwind uwtable
define linkonce_odr dso_local void @_ZNSt8_Rb_treeIN9RangeTreeIjE5RangeES2_St9_IdentityIS2_ESt4lessIS2_ESaIS2_EEC2Ev(%"class.std::_Rb_tree"* %this) unnamed_addr #7 comdat align 2 !dbg !2778 {
entry:
  %this.addr = alloca %"class.std::_Rb_tree"*, align 8
  store %"class.std::_Rb_tree"* %this, %"class.std::_Rb_tree"** %this.addr, align 8
  call void @llvm.dbg.declare(metadata %"class.std::_Rb_tree"** %this.addr, metadata !2779, metadata !DIExpression()), !dbg !2780
  %this1 = load %"class.std::_Rb_tree"*, %"class.std::_Rb_tree"** %this.addr, align 8
  %_M_impl = getelementptr inbounds %"class.std::_Rb_tree", %"class.std::_Rb_tree"* %this1, i32 0, i32 0, !dbg !2781
  call void @_ZNSt8_Rb_treeIN9RangeTreeIjE5RangeES2_St9_IdentityIS2_ESt4lessIS2_ESaIS2_EE13_Rb_tree_implIS6_Lb1EEC2Ev(%"struct.std::_Rb_tree<RangeTree<unsigned int>::Range, RangeTree<unsigned int>::Range, std::_Identity<RangeTree<unsigned int>::Range>, std::less<RangeTree<unsigned int>::Range>, std::allocator<RangeTree<unsigned int>::Range> >::_Rb_tree_impl"* %_M_impl) #3, !dbg !2781
  ret void, !dbg !2782
}

; Function Attrs: noinline nounwind uwtable
define linkonce_odr dso_local void @_ZNSt8_Rb_treeIN9RangeTreeIjE5RangeES2_St9_IdentityIS2_ESt4lessIS2_ESaIS2_EE13_Rb_tree_implIS6_Lb1EEC2Ev(%"struct.std::_Rb_tree<RangeTree<unsigned int>::Range, RangeTree<unsigned int>::Range, std::_Identity<RangeTree<unsigned int>::Range>, std::less<RangeTree<unsigned int>::Range>, std::allocator<RangeTree<unsigned int>::Range> >::_Rb_tree_impl"* %this) unnamed_addr #7 comdat align 2 !dbg !2783 {
entry:
  %this.addr = alloca %"struct.std::_Rb_tree<RangeTree<unsigned int>::Range, RangeTree<unsigned int>::Range, std::_Identity<RangeTree<unsigned int>::Range>, std::less<RangeTree<unsigned int>::Range>, std::allocator<RangeTree<unsigned int>::Range> >::_Rb_tree_impl"*, align 8
  store %"struct.std::_Rb_tree<RangeTree<unsigned int>::Range, RangeTree<unsigned int>::Range, std::_Identity<RangeTree<unsigned int>::Range>, std::less<RangeTree<unsigned int>::Range>, std::allocator<RangeTree<unsigned int>::Range> >::_Rb_tree_impl"* %this, %"struct.std::_Rb_tree<RangeTree<unsigned int>::Range, RangeTree<unsigned int>::Range, std::_Identity<RangeTree<unsigned int>::Range>, std::less<RangeTree<unsigned int>::Range>, std::allocator<RangeTree<unsigned int>::Range> >::_Rb_tree_impl"** %this.addr, align 8
  call void @llvm.dbg.declare(metadata %"struct.std::_Rb_tree<RangeTree<unsigned int>::Range, RangeTree<unsigned int>::Range, std::_Identity<RangeTree<unsigned int>::Range>, std::less<RangeTree<unsigned int>::Range>, std::allocator<RangeTree<unsigned int>::Range> >::_Rb_tree_impl"** %this.addr, metadata !2784, metadata !DIExpression()), !dbg !2785
  %this1 = load %"struct.std::_Rb_tree<RangeTree<unsigned int>::Range, RangeTree<unsigned int>::Range, std::_Identity<RangeTree<unsigned int>::Range>, std::less<RangeTree<unsigned int>::Range>, std::allocator<RangeTree<unsigned int>::Range> >::_Rb_tree_impl"*, %"struct.std::_Rb_tree<RangeTree<unsigned int>::Range, RangeTree<unsigned int>::Range, std::_Identity<RangeTree<unsigned int>::Range>, std::less<RangeTree<unsigned int>::Range>, std::allocator<RangeTree<unsigned int>::Range> >::_Rb_tree_impl"** %this.addr, align 8
  %0 = bitcast %"struct.std::_Rb_tree<RangeTree<unsigned int>::Range, RangeTree<unsigned int>::Range, std::_Identity<RangeTree<unsigned int>::Range>, std::less<RangeTree<unsigned int>::Range>, std::allocator<RangeTree<unsigned int>::Range> >::_Rb_tree_impl"* %this1 to %"class.std::allocator"*, !dbg !2786
  call void @_ZNSaISt13_Rb_tree_nodeIN9RangeTreeIjE5RangeEEEC2Ev(%"class.std::allocator"* %0) #3, !dbg !2787
  %1 = bitcast %"struct.std::_Rb_tree<RangeTree<unsigned int>::Range, RangeTree<unsigned int>::Range, std::_Identity<RangeTree<unsigned int>::Range>, std::less<RangeTree<unsigned int>::Range>, std::allocator<RangeTree<unsigned int>::Range> >::_Rb_tree_impl"* %this1 to %"struct.std::_Rb_tree_key_compare"*, !dbg !2786
  call void @_ZNSt20_Rb_tree_key_compareISt4lessIN9RangeTreeIjE5RangeEEEC2Ev(%"struct.std::_Rb_tree_key_compare"* %1) #3, !dbg !2788
  %2 = bitcast %"struct.std::_Rb_tree<RangeTree<unsigned int>::Range, RangeTree<unsigned int>::Range, std::_Identity<RangeTree<unsigned int>::Range>, std::less<RangeTree<unsigned int>::Range>, std::allocator<RangeTree<unsigned int>::Range> >::_Rb_tree_impl"* %this1 to i8*, !dbg !2786
  %3 = getelementptr inbounds i8, i8* %2, i64 8, !dbg !2786
  %4 = bitcast i8* %3 to %"struct.std::_Rb_tree_header"*, !dbg !2786
  call void @_ZNSt15_Rb_tree_headerC2Ev(%"struct.std::_Rb_tree_header"* %4) #3, !dbg !2788
  ret void, !dbg !2789
}

; Function Attrs: noinline nounwind uwtable
define linkonce_odr dso_local void @_ZNSaISt13_Rb_tree_nodeIN9RangeTreeIjE5RangeEEEC2Ev(%"class.std::allocator"* %this) unnamed_addr #7 comdat align 2 !dbg !2790 {
entry:
  %this.addr = alloca %"class.std::allocator"*, align 8
  store %"class.std::allocator"* %this, %"class.std::allocator"** %this.addr, align 8
  call void @llvm.dbg.declare(metadata %"class.std::allocator"** %this.addr, metadata !2791, metadata !DIExpression()), !dbg !2792
  %this1 = load %"class.std::allocator"*, %"class.std::allocator"** %this.addr, align 8
  %0 = bitcast %"class.std::allocator"* %this1 to %"class.__gnu_cxx::new_allocator"*, !dbg !2793
  call void @_ZN9__gnu_cxx13new_allocatorISt13_Rb_tree_nodeIN9RangeTreeIjE5RangeEEEC2Ev(%"class.__gnu_cxx::new_allocator"* %0) #3, !dbg !2794
  ret void, !dbg !2795
}

; Function Attrs: noinline nounwind uwtable
define linkonce_odr dso_local void @_ZNSt20_Rb_tree_key_compareISt4lessIN9RangeTreeIjE5RangeEEEC2Ev(%"struct.std::_Rb_tree_key_compare"* %this) unnamed_addr #7 comdat align 2 !dbg !2796 {
entry:
  %this.addr = alloca %"struct.std::_Rb_tree_key_compare"*, align 8
  store %"struct.std::_Rb_tree_key_compare"* %this, %"struct.std::_Rb_tree_key_compare"** %this.addr, align 8
  call void @llvm.dbg.declare(metadata %"struct.std::_Rb_tree_key_compare"** %this.addr, metadata !2797, metadata !DIExpression()), !dbg !2799
  %this1 = load %"struct.std::_Rb_tree_key_compare"*, %"struct.std::_Rb_tree_key_compare"** %this.addr, align 8
  %_M_key_compare = getelementptr inbounds %"struct.std::_Rb_tree_key_compare", %"struct.std::_Rb_tree_key_compare"* %this1, i32 0, i32 0, !dbg !2800
  ret void, !dbg !2801
}

; Function Attrs: noinline nounwind uwtable
define linkonce_odr dso_local void @_ZNSt15_Rb_tree_headerC2Ev(%"struct.std::_Rb_tree_header"* %this) unnamed_addr #7 comdat align 2 personality i8* bitcast (i32 (...)* @__gxx_personality_v0 to i8*) !dbg !2802 {
entry:
  %this.addr = alloca %"struct.std::_Rb_tree_header"*, align 8
  store %"struct.std::_Rb_tree_header"* %this, %"struct.std::_Rb_tree_header"** %this.addr, align 8
  call void @llvm.dbg.declare(metadata %"struct.std::_Rb_tree_header"** %this.addr, metadata !2803, metadata !DIExpression()), !dbg !2805
  %this1 = load %"struct.std::_Rb_tree_header"*, %"struct.std::_Rb_tree_header"** %this.addr, align 8
  %_M_header = getelementptr inbounds %"struct.std::_Rb_tree_header", %"struct.std::_Rb_tree_header"* %this1, i32 0, i32 0, !dbg !2806
  %_M_header2 = getelementptr inbounds %"struct.std::_Rb_tree_header", %"struct.std::_Rb_tree_header"* %this1, i32 0, i32 0, !dbg !2807
  %_M_color = getelementptr inbounds %"struct.std::_Rb_tree_node_base", %"struct.std::_Rb_tree_node_base"* %_M_header2, i32 0, i32 0, !dbg !2809
  store i32 0, i32* %_M_color, align 8, !dbg !2810
  invoke void @_ZNSt15_Rb_tree_header8_M_resetEv(%"struct.std::_Rb_tree_header"* %this1)
          to label %invoke.cont unwind label %terminate.lpad, !dbg !2811

invoke.cont:                                      ; preds = %entry
  ret void, !dbg !2812

terminate.lpad:                                   ; preds = %entry
  %0 = landingpad { i8*, i32 }
          catch i8* null, !dbg !2811
  %1 = extractvalue { i8*, i32 } %0, 0, !dbg !2811
  call void @__clang_call_terminate(i8* %1) #14, !dbg !2811
  unreachable, !dbg !2811
}

; Function Attrs: noinline nounwind uwtable
define linkonce_odr dso_local void @_ZN9__gnu_cxx13new_allocatorISt13_Rb_tree_nodeIN9RangeTreeIjE5RangeEEEC2Ev(%"class.__gnu_cxx::new_allocator"* %this) unnamed_addr #7 comdat align 2 !dbg !2813 {
entry:
  %this.addr = alloca %"class.__gnu_cxx::new_allocator"*, align 8
  store %"class.__gnu_cxx::new_allocator"* %this, %"class.__gnu_cxx::new_allocator"** %this.addr, align 8
  call void @llvm.dbg.declare(metadata %"class.__gnu_cxx::new_allocator"** %this.addr, metadata !2814, metadata !DIExpression()), !dbg !2815
  %this1 = load %"class.__gnu_cxx::new_allocator"*, %"class.__gnu_cxx::new_allocator"** %this.addr, align 8
  ret void, !dbg !2816
}

; Function Attrs: noinline nounwind uwtable
define linkonce_odr dso_local void @_ZNSt15_Rb_tree_header8_M_resetEv(%"struct.std::_Rb_tree_header"* %this) #7 comdat align 2 !dbg !2817 {
entry:
  %this.addr = alloca %"struct.std::_Rb_tree_header"*, align 8
  store %"struct.std::_Rb_tree_header"* %this, %"struct.std::_Rb_tree_header"** %this.addr, align 8
  call void @llvm.dbg.declare(metadata %"struct.std::_Rb_tree_header"** %this.addr, metadata !2818, metadata !DIExpression()), !dbg !2819
  %this1 = load %"struct.std::_Rb_tree_header"*, %"struct.std::_Rb_tree_header"** %this.addr, align 8
  %_M_header = getelementptr inbounds %"struct.std::_Rb_tree_header", %"struct.std::_Rb_tree_header"* %this1, i32 0, i32 0, !dbg !2820
  %_M_parent = getelementptr inbounds %"struct.std::_Rb_tree_node_base", %"struct.std::_Rb_tree_node_base"* %_M_header, i32 0, i32 1, !dbg !2821
  store %"struct.std::_Rb_tree_node_base"* null, %"struct.std::_Rb_tree_node_base"** %_M_parent, align 8, !dbg !2822
  %_M_header2 = getelementptr inbounds %"struct.std::_Rb_tree_header", %"struct.std::_Rb_tree_header"* %this1, i32 0, i32 0, !dbg !2823
  %_M_header3 = getelementptr inbounds %"struct.std::_Rb_tree_header", %"struct.std::_Rb_tree_header"* %this1, i32 0, i32 0, !dbg !2824
  %_M_left = getelementptr inbounds %"struct.std::_Rb_tree_node_base", %"struct.std::_Rb_tree_node_base"* %_M_header3, i32 0, i32 2, !dbg !2825
  store %"struct.std::_Rb_tree_node_base"* %_M_header2, %"struct.std::_Rb_tree_node_base"** %_M_left, align 8, !dbg !2826
  %_M_header4 = getelementptr inbounds %"struct.std::_Rb_tree_header", %"struct.std::_Rb_tree_header"* %this1, i32 0, i32 0, !dbg !2827
  %_M_header5 = getelementptr inbounds %"struct.std::_Rb_tree_header", %"struct.std::_Rb_tree_header"* %this1, i32 0, i32 0, !dbg !2828
  %_M_right = getelementptr inbounds %"struct.std::_Rb_tree_node_base", %"struct.std::_Rb_tree_node_base"* %_M_header5, i32 0, i32 3, !dbg !2829
  store %"struct.std::_Rb_tree_node_base"* %_M_header4, %"struct.std::_Rb_tree_node_base"** %_M_right, align 8, !dbg !2830
  %_M_node_count = getelementptr inbounds %"struct.std::_Rb_tree_header", %"struct.std::_Rb_tree_header"* %this1, i32 0, i32 1, !dbg !2831
  store i64 0, i64* %_M_node_count, align 8, !dbg !2832
  ret void, !dbg !2833
}

; Function Attrs: noinline uwtable
define linkonce_odr dso_local { %"struct.std::_Rb_tree_node_base"*, i8 } @_ZNSt8_Rb_treeIN9RangeTreeIjE5RangeES2_St9_IdentityIS2_ESt4lessIS2_ESaIS2_EE16_M_insert_uniqueIS2_EESt4pairISt17_Rb_tree_iteratorIS2_EbEOT_(%"class.std::_Rb_tree"* %this, %"struct.RangeTree<unsigned int>::Range"* dereferenceable(12) %__v) #0 comdat align 2 !dbg !2834 {
entry:
  %retval = alloca %"struct.std::pair.0", align 8
  %this.addr = alloca %"class.std::_Rb_tree"*, align 8
  %__v.addr = alloca %"struct.RangeTree<unsigned int>::Range"*, align 8
  %__res = alloca %"struct.std::pair.4", align 8
  %ref.tmp = alloca %"struct.std::_Identity", align 1
  %__an = alloca %"struct.std::_Rb_tree<RangeTree<unsigned int>::Range, RangeTree<unsigned int>::Range, std::_Identity<RangeTree<unsigned int>::Range>, std::less<RangeTree<unsigned int>::Range>, std::allocator<RangeTree<unsigned int>::Range> >::_Alloc_node", align 8
  %ref.tmp3 = alloca %"struct.std::_Rb_tree_iterator", align 8
  %ref.tmp7 = alloca i8, align 1
  %ref.tmp8 = alloca %"struct.std::_Rb_tree_iterator", align 8
  %ref.tmp10 = alloca i8, align 1
  store %"class.std::_Rb_tree"* %this, %"class.std::_Rb_tree"** %this.addr, align 8
  call void @llvm.dbg.declare(metadata %"class.std::_Rb_tree"** %this.addr, metadata !2840, metadata !DIExpression()), !dbg !2841
  store %"struct.RangeTree<unsigned int>::Range"* %__v, %"struct.RangeTree<unsigned int>::Range"** %__v.addr, align 8
  call void @llvm.dbg.declare(metadata %"struct.RangeTree<unsigned int>::Range"** %__v.addr, metadata !2842, metadata !DIExpression()), !dbg !2843
  %this1 = load %"class.std::_Rb_tree"*, %"class.std::_Rb_tree"** %this.addr, align 8
  call void @llvm.dbg.declare(metadata %"struct.std::pair.4"* %__res, metadata !2844, metadata !DIExpression()), !dbg !2845
  %0 = load %"struct.RangeTree<unsigned int>::Range"*, %"struct.RangeTree<unsigned int>::Range"** %__v.addr, align 8, !dbg !2846
  %call = call dereferenceable(12) %"struct.RangeTree<unsigned int>::Range"* @_ZNKSt9_IdentityIN9RangeTreeIjE5RangeEEclERS2_(%"struct.std::_Identity"* %ref.tmp, %"struct.RangeTree<unsigned int>::Range"* dereferenceable(12) %0), !dbg !2847
  %call2 = call { %"struct.std::_Rb_tree_node_base"*, %"struct.std::_Rb_tree_node_base"* } @_ZNSt8_Rb_treeIN9RangeTreeIjE5RangeES2_St9_IdentityIS2_ESt4lessIS2_ESaIS2_EE24_M_get_insert_unique_posERKS2_(%"class.std::_Rb_tree"* %this1, %"struct.RangeTree<unsigned int>::Range"* dereferenceable(12) %call), !dbg !2848
  %1 = bitcast %"struct.std::pair.4"* %__res to { %"struct.std::_Rb_tree_node_base"*, %"struct.std::_Rb_tree_node_base"* }*, !dbg !2848
  %2 = getelementptr inbounds { %"struct.std::_Rb_tree_node_base"*, %"struct.std::_Rb_tree_node_base"* }, { %"struct.std::_Rb_tree_node_base"*, %"struct.std::_Rb_tree_node_base"* }* %1, i32 0, i32 0, !dbg !2848
  %3 = extractvalue { %"struct.std::_Rb_tree_node_base"*, %"struct.std::_Rb_tree_node_base"* } %call2, 0, !dbg !2848
  store %"struct.std::_Rb_tree_node_base"* %3, %"struct.std::_Rb_tree_node_base"** %2, align 8, !dbg !2848
  %4 = getelementptr inbounds { %"struct.std::_Rb_tree_node_base"*, %"struct.std::_Rb_tree_node_base"* }, { %"struct.std::_Rb_tree_node_base"*, %"struct.std::_Rb_tree_node_base"* }* %1, i32 0, i32 1, !dbg !2848
  %5 = extractvalue { %"struct.std::_Rb_tree_node_base"*, %"struct.std::_Rb_tree_node_base"* } %call2, 1, !dbg !2848
  store %"struct.std::_Rb_tree_node_base"* %5, %"struct.std::_Rb_tree_node_base"** %4, align 8, !dbg !2848
  %second = getelementptr inbounds %"struct.std::pair.4", %"struct.std::pair.4"* %__res, i32 0, i32 1, !dbg !2849
  %6 = load %"struct.std::_Rb_tree_node_base"*, %"struct.std::_Rb_tree_node_base"** %second, align 8, !dbg !2849
  %tobool = icmp ne %"struct.std::_Rb_tree_node_base"* %6, null, !dbg !2851
  br i1 %tobool, label %if.then, label %if.end, !dbg !2852

if.then:                                          ; preds = %entry
  call void @llvm.dbg.declare(metadata %"struct.std::_Rb_tree<RangeTree<unsigned int>::Range, RangeTree<unsigned int>::Range, std::_Identity<RangeTree<unsigned int>::Range>, std::less<RangeTree<unsigned int>::Range>, std::allocator<RangeTree<unsigned int>::Range> >::_Alloc_node"* %__an, metadata !2853, metadata !DIExpression()), !dbg !2862
  call void @_ZNSt8_Rb_treeIN9RangeTreeIjE5RangeES2_St9_IdentityIS2_ESt4lessIS2_ESaIS2_EE11_Alloc_nodeC2ERS8_(%"struct.std::_Rb_tree<RangeTree<unsigned int>::Range, RangeTree<unsigned int>::Range, std::_Identity<RangeTree<unsigned int>::Range>, std::less<RangeTree<unsigned int>::Range>, std::allocator<RangeTree<unsigned int>::Range> >::_Alloc_node"* %__an, %"class.std::_Rb_tree"* dereferenceable(48) %this1), !dbg !2862
  %first = getelementptr inbounds %"struct.std::pair.4", %"struct.std::pair.4"* %__res, i32 0, i32 0, !dbg !2863
  %7 = load %"struct.std::_Rb_tree_node_base"*, %"struct.std::_Rb_tree_node_base"** %first, align 8, !dbg !2863
  %second4 = getelementptr inbounds %"struct.std::pair.4", %"struct.std::pair.4"* %__res, i32 0, i32 1, !dbg !2864
  %8 = load %"struct.std::_Rb_tree_node_base"*, %"struct.std::_Rb_tree_node_base"** %second4, align 8, !dbg !2864
  %9 = load %"struct.RangeTree<unsigned int>::Range"*, %"struct.RangeTree<unsigned int>::Range"** %__v.addr, align 8, !dbg !2865
  %call5 = call dereferenceable(12) %"struct.RangeTree<unsigned int>::Range"* @_ZSt7forwardIN9RangeTreeIjE5RangeEEOT_RNSt16remove_referenceIS3_E4typeE(%"struct.RangeTree<unsigned int>::Range"* dereferenceable(12) %9) #3, !dbg !2865
  %call6 = call %"struct.std::_Rb_tree_node_base"* @_ZNSt8_Rb_treeIN9RangeTreeIjE5RangeES2_St9_IdentityIS2_ESt4lessIS2_ESaIS2_EE10_M_insert_IS2_NS8_11_Alloc_nodeEEESt17_Rb_tree_iteratorIS2_EPSt18_Rb_tree_node_baseSE_OT_RT0_(%"class.std::_Rb_tree"* %this1, %"struct.std::_Rb_tree_node_base"* %7, %"struct.std::_Rb_tree_node_base"* %8, %"struct.RangeTree<unsigned int>::Range"* dereferenceable(12) %call5, %"struct.std::_Rb_tree<RangeTree<unsigned int>::Range, RangeTree<unsigned int>::Range, std::_Identity<RangeTree<unsigned int>::Range>, std::less<RangeTree<unsigned int>::Range>, std::allocator<RangeTree<unsigned int>::Range> >::_Alloc_node"* dereferenceable(8) %__an), !dbg !2866
  %coerce.dive = getelementptr inbounds %"struct.std::_Rb_tree_iterator", %"struct.std::_Rb_tree_iterator"* %ref.tmp3, i32 0, i32 0, !dbg !2866
  store %"struct.std::_Rb_tree_node_base"* %call6, %"struct.std::_Rb_tree_node_base"** %coerce.dive, align 8, !dbg !2866
  store i8 1, i8* %ref.tmp7, align 1, !dbg !2867
  call void @_ZNSt4pairISt17_Rb_tree_iteratorIN9RangeTreeIjE5RangeEEbEC2IS4_bLb1EEEOT_OT0_(%"struct.std::pair.0"* %retval, %"struct.std::_Rb_tree_iterator"* dereferenceable(8) %ref.tmp3, i8* dereferenceable(1) %ref.tmp7), !dbg !2868
  br label %return, !dbg !2869

if.end:                                           ; preds = %entry
  %first9 = getelementptr inbounds %"struct.std::pair.4", %"struct.std::pair.4"* %__res, i32 0, i32 0, !dbg !2870
  %10 = load %"struct.std::_Rb_tree_node_base"*, %"struct.std::_Rb_tree_node_base"** %first9, align 8, !dbg !2870
  call void @_ZNSt17_Rb_tree_iteratorIN9RangeTreeIjE5RangeEEC2EPSt18_Rb_tree_node_base(%"struct.std::_Rb_tree_iterator"* %ref.tmp8, %"struct.std::_Rb_tree_node_base"* %10) #3, !dbg !2871
  store i8 0, i8* %ref.tmp10, align 1, !dbg !2872
  call void @_ZNSt4pairISt17_Rb_tree_iteratorIN9RangeTreeIjE5RangeEEbEC2IS4_bLb1EEEOT_OT0_(%"struct.std::pair.0"* %retval, %"struct.std::_Rb_tree_iterator"* dereferenceable(8) %ref.tmp8, i8* dereferenceable(1) %ref.tmp10), !dbg !2873
  br label %return, !dbg !2874

return:                                           ; preds = %if.end, %if.then
  %11 = bitcast %"struct.std::pair.0"* %retval to { %"struct.std::_Rb_tree_node_base"*, i8 }*, !dbg !2875
  %12 = load { %"struct.std::_Rb_tree_node_base"*, i8 }, { %"struct.std::_Rb_tree_node_base"*, i8 }* %11, align 8, !dbg !2875
  ret { %"struct.std::_Rb_tree_node_base"*, i8 } %12, !dbg !2875
}

; Function Attrs: noinline nounwind uwtable
define linkonce_odr dso_local dereferenceable(12) %"struct.RangeTree<unsigned int>::Range"* @_ZSt4moveIRN9RangeTreeIjE5RangeEEONSt16remove_referenceIT_E4typeEOS5_(%"struct.RangeTree<unsigned int>::Range"* dereferenceable(12) %__t) #7 comdat !dbg !2876 {
entry:
  %__t.addr = alloca %"struct.RangeTree<unsigned int>::Range"*, align 8
  store %"struct.RangeTree<unsigned int>::Range"* %__t, %"struct.RangeTree<unsigned int>::Range"** %__t.addr, align 8
  call void @llvm.dbg.declare(metadata %"struct.RangeTree<unsigned int>::Range"** %__t.addr, metadata !2885, metadata !DIExpression()), !dbg !2886
  %0 = load %"struct.RangeTree<unsigned int>::Range"*, %"struct.RangeTree<unsigned int>::Range"** %__t.addr, align 8, !dbg !2887
  ret %"struct.RangeTree<unsigned int>::Range"* %0, !dbg !2888
}

; Function Attrs: noinline nounwind uwtable
define linkonce_odr dso_local void @_ZNSt4pairISt23_Rb_tree_const_iteratorIN9RangeTreeIjE5RangeEEbEC2IRSt17_Rb_tree_iteratorIS3_ERbLb1EEEOT_OT0_(%"struct.std::pair"* %this, %"struct.std::_Rb_tree_iterator"* dereferenceable(8) %__x, i8* dereferenceable(1) %__y) unnamed_addr #7 comdat align 2 !dbg !2889 {
entry:
  %this.addr = alloca %"struct.std::pair"*, align 8
  %__x.addr = alloca %"struct.std::_Rb_tree_iterator"*, align 8
  %__y.addr = alloca i8*, align 8
  store %"struct.std::pair"* %this, %"struct.std::pair"** %this.addr, align 8
  call void @llvm.dbg.declare(metadata %"struct.std::pair"** %this.addr, metadata !2898, metadata !DIExpression()), !dbg !2900
  store %"struct.std::_Rb_tree_iterator"* %__x, %"struct.std::_Rb_tree_iterator"** %__x.addr, align 8
  call void @llvm.dbg.declare(metadata %"struct.std::_Rb_tree_iterator"** %__x.addr, metadata !2901, metadata !DIExpression()), !dbg !2902
  store i8* %__y, i8** %__y.addr, align 8
  call void @llvm.dbg.declare(metadata i8** %__y.addr, metadata !2903, metadata !DIExpression()), !dbg !2904
  %this1 = load %"struct.std::pair"*, %"struct.std::pair"** %this.addr, align 8
  %0 = bitcast %"struct.std::pair"* %this1 to %"class.std::__pair_base"*, !dbg !2905
  %first = getelementptr inbounds %"struct.std::pair", %"struct.std::pair"* %this1, i32 0, i32 0, !dbg !2906
  %1 = load %"struct.std::_Rb_tree_iterator"*, %"struct.std::_Rb_tree_iterator"** %__x.addr, align 8, !dbg !2907
  %call = call dereferenceable(8) %"struct.std::_Rb_tree_iterator"* @_ZSt7forwardIRSt17_Rb_tree_iteratorIN9RangeTreeIjE5RangeEEEOT_RNSt16remove_referenceIS6_E4typeE(%"struct.std::_Rb_tree_iterator"* dereferenceable(8) %1) #3, !dbg !2908
  call void @_ZNSt23_Rb_tree_const_iteratorIN9RangeTreeIjE5RangeEEC2ERKSt17_Rb_tree_iteratorIS2_E(%"struct.std::_Rb_tree_const_iterator"* %first, %"struct.std::_Rb_tree_iterator"* dereferenceable(8) %call) #3, !dbg !2906
  %second = getelementptr inbounds %"struct.std::pair", %"struct.std::pair"* %this1, i32 0, i32 1, !dbg !2909
  %2 = load i8*, i8** %__y.addr, align 8, !dbg !2910
  %call2 = call dereferenceable(1) i8* @_ZSt7forwardIRbEOT_RNSt16remove_referenceIS1_E4typeE(i8* dereferenceable(1) %2) #3, !dbg !2911
  %3 = load i8, i8* %call2, align 1, !dbg !2911
  %tobool = trunc i8 %3 to i1, !dbg !2911
  %frombool = zext i1 %tobool to i8, !dbg !2909
  store i8 %frombool, i8* %second, align 8, !dbg !2909
  ret void, !dbg !2912
}

; Function Attrs: noinline uwtable
define linkonce_odr dso_local { %"struct.std::_Rb_tree_node_base"*, %"struct.std::_Rb_tree_node_base"* } @_ZNSt8_Rb_treeIN9RangeTreeIjE5RangeES2_St9_IdentityIS2_ESt4lessIS2_ESaIS2_EE24_M_get_insert_unique_posERKS2_(%"class.std::_Rb_tree"* %this, %"struct.RangeTree<unsigned int>::Range"* dereferenceable(12) %__k) #0 comdat align 2 !dbg !2913 {
entry:
  %retval = alloca %"struct.std::pair.4", align 8
  %this.addr = alloca %"class.std::_Rb_tree"*, align 8
  %__k.addr = alloca %"struct.RangeTree<unsigned int>::Range"*, align 8
  %__x = alloca %"struct.std::_Rb_tree_node"*, align 8
  %__y = alloca %"struct.std::_Rb_tree_node_base"*, align 8
  %__comp = alloca i8, align 1
  %__j = alloca %"struct.std::_Rb_tree_iterator", align 8
  %ref.tmp = alloca %"struct.std::_Rb_tree_iterator", align 8
  %ref.tmp20 = alloca %"struct.std::_Rb_tree_node_base"*, align 8
  store %"class.std::_Rb_tree"* %this, %"class.std::_Rb_tree"** %this.addr, align 8
  call void @llvm.dbg.declare(metadata %"class.std::_Rb_tree"** %this.addr, metadata !2914, metadata !DIExpression()), !dbg !2915
  store %"struct.RangeTree<unsigned int>::Range"* %__k, %"struct.RangeTree<unsigned int>::Range"** %__k.addr, align 8
  call void @llvm.dbg.declare(metadata %"struct.RangeTree<unsigned int>::Range"** %__k.addr, metadata !2916, metadata !DIExpression()), !dbg !2917
  %this1 = load %"class.std::_Rb_tree"*, %"class.std::_Rb_tree"** %this.addr, align 8
  call void @llvm.dbg.declare(metadata %"struct.std::_Rb_tree_node"** %__x, metadata !2918, metadata !DIExpression()), !dbg !2919
  %call = call %"struct.std::_Rb_tree_node"* @_ZNSt8_Rb_treeIN9RangeTreeIjE5RangeES2_St9_IdentityIS2_ESt4lessIS2_ESaIS2_EE8_M_beginEv(%"class.std::_Rb_tree"* %this1) #3, !dbg !2920
  store %"struct.std::_Rb_tree_node"* %call, %"struct.std::_Rb_tree_node"** %__x, align 8, !dbg !2919
  call void @llvm.dbg.declare(metadata %"struct.std::_Rb_tree_node_base"** %__y, metadata !2921, metadata !DIExpression()), !dbg !2922
  %call2 = call %"struct.std::_Rb_tree_node_base"* @_ZNSt8_Rb_treeIN9RangeTreeIjE5RangeES2_St9_IdentityIS2_ESt4lessIS2_ESaIS2_EE6_M_endEv(%"class.std::_Rb_tree"* %this1) #3, !dbg !2923
  store %"struct.std::_Rb_tree_node_base"* %call2, %"struct.std::_Rb_tree_node_base"** %__y, align 8, !dbg !2922
  call void @llvm.dbg.declare(metadata i8* %__comp, metadata !2924, metadata !DIExpression()), !dbg !2925
  store i8 1, i8* %__comp, align 1, !dbg !2925
  br label %while.cond, !dbg !2926

while.cond:                                       ; preds = %cond.end, %entry
  %0 = load %"struct.std::_Rb_tree_node"*, %"struct.std::_Rb_tree_node"** %__x, align 8, !dbg !2927
  %cmp = icmp ne %"struct.std::_Rb_tree_node"* %0, null, !dbg !2928
  br i1 %cmp, label %while.body, label %while.end, !dbg !2926

while.body:                                       ; preds = %while.cond
  %1 = load %"struct.std::_Rb_tree_node"*, %"struct.std::_Rb_tree_node"** %__x, align 8, !dbg !2929
  %2 = bitcast %"struct.std::_Rb_tree_node"* %1 to %"struct.std::_Rb_tree_node_base"*, !dbg !2929
  store %"struct.std::_Rb_tree_node_base"* %2, %"struct.std::_Rb_tree_node_base"** %__y, align 8, !dbg !2931
  %_M_impl = getelementptr inbounds %"class.std::_Rb_tree", %"class.std::_Rb_tree"* %this1, i32 0, i32 0, !dbg !2932
  %3 = bitcast %"struct.std::_Rb_tree<RangeTree<unsigned int>::Range, RangeTree<unsigned int>::Range, std::_Identity<RangeTree<unsigned int>::Range>, std::less<RangeTree<unsigned int>::Range>, std::allocator<RangeTree<unsigned int>::Range> >::_Rb_tree_impl"* %_M_impl to %"struct.std::_Rb_tree_key_compare"*, !dbg !2932
  %_M_key_compare = getelementptr inbounds %"struct.std::_Rb_tree_key_compare", %"struct.std::_Rb_tree_key_compare"* %3, i32 0, i32 0, !dbg !2933
  %4 = load %"struct.RangeTree<unsigned int>::Range"*, %"struct.RangeTree<unsigned int>::Range"** %__k.addr, align 8, !dbg !2934
  %5 = load %"struct.std::_Rb_tree_node"*, %"struct.std::_Rb_tree_node"** %__x, align 8, !dbg !2935
  %call3 = call dereferenceable(12) %"struct.RangeTree<unsigned int>::Range"* @_ZNSt8_Rb_treeIN9RangeTreeIjE5RangeES2_St9_IdentityIS2_ESt4lessIS2_ESaIS2_EE6_S_keyEPKSt13_Rb_tree_nodeIS2_E(%"struct.std::_Rb_tree_node"* %5), !dbg !2936
  %call4 = call zeroext i1 @_ZNKSt4lessIN9RangeTreeIjE5RangeEEclERKS2_S5_(%"struct.std::less"* %_M_key_compare, %"struct.RangeTree<unsigned int>::Range"* dereferenceable(12) %4, %"struct.RangeTree<unsigned int>::Range"* dereferenceable(12) %call3), !dbg !2932
  %frombool = zext i1 %call4 to i8, !dbg !2937
  store i8 %frombool, i8* %__comp, align 1, !dbg !2937
  %6 = load i8, i8* %__comp, align 1, !dbg !2938
  %tobool = trunc i8 %6 to i1, !dbg !2938
  br i1 %tobool, label %cond.true, label %cond.false, !dbg !2938

cond.true:                                        ; preds = %while.body
  %7 = load %"struct.std::_Rb_tree_node"*, %"struct.std::_Rb_tree_node"** %__x, align 8, !dbg !2939
  %8 = bitcast %"struct.std::_Rb_tree_node"* %7 to %"struct.std::_Rb_tree_node_base"*, !dbg !2939
  %call5 = call %"struct.std::_Rb_tree_node"* @_ZNSt8_Rb_treeIN9RangeTreeIjE5RangeES2_St9_IdentityIS2_ESt4lessIS2_ESaIS2_EE7_S_leftEPSt18_Rb_tree_node_base(%"struct.std::_Rb_tree_node_base"* %8) #3, !dbg !2940
  br label %cond.end, !dbg !2938

cond.false:                                       ; preds = %while.body
  %9 = load %"struct.std::_Rb_tree_node"*, %"struct.std::_Rb_tree_node"** %__x, align 8, !dbg !2941
  %10 = bitcast %"struct.std::_Rb_tree_node"* %9 to %"struct.std::_Rb_tree_node_base"*, !dbg !2941
  %call6 = call %"struct.std::_Rb_tree_node"* @_ZNSt8_Rb_treeIN9RangeTreeIjE5RangeES2_St9_IdentityIS2_ESt4lessIS2_ESaIS2_EE8_S_rightEPSt18_Rb_tree_node_base(%"struct.std::_Rb_tree_node_base"* %10) #3, !dbg !2942
  br label %cond.end, !dbg !2938

cond.end:                                         ; preds = %cond.false, %cond.true
  %cond = phi %"struct.std::_Rb_tree_node"* [ %call5, %cond.true ], [ %call6, %cond.false ], !dbg !2938
  store %"struct.std::_Rb_tree_node"* %cond, %"struct.std::_Rb_tree_node"** %__x, align 8, !dbg !2943
  br label %while.cond, !dbg !2926, !llvm.loop !2944

while.end:                                        ; preds = %while.cond
  call void @llvm.dbg.declare(metadata %"struct.std::_Rb_tree_iterator"* %__j, metadata !2946, metadata !DIExpression()), !dbg !2947
  %11 = load %"struct.std::_Rb_tree_node_base"*, %"struct.std::_Rb_tree_node_base"** %__y, align 8, !dbg !2948
  call void @_ZNSt17_Rb_tree_iteratorIN9RangeTreeIjE5RangeEEC2EPSt18_Rb_tree_node_base(%"struct.std::_Rb_tree_iterator"* %__j, %"struct.std::_Rb_tree_node_base"* %11) #3, !dbg !2949
  %12 = load i8, i8* %__comp, align 1, !dbg !2950
  %tobool7 = trunc i8 %12 to i1, !dbg !2950
  br i1 %tobool7, label %if.then, label %if.end12, !dbg !2952

if.then:                                          ; preds = %while.end
  %call8 = call %"struct.std::_Rb_tree_node_base"* @_ZNSt8_Rb_treeIN9RangeTreeIjE5RangeES2_St9_IdentityIS2_ESt4lessIS2_ESaIS2_EE5beginEv(%"class.std::_Rb_tree"* %this1) #3, !dbg !2953
  %coerce.dive = getelementptr inbounds %"struct.std::_Rb_tree_iterator", %"struct.std::_Rb_tree_iterator"* %ref.tmp, i32 0, i32 0, !dbg !2953
  store %"struct.std::_Rb_tree_node_base"* %call8, %"struct.std::_Rb_tree_node_base"** %coerce.dive, align 8, !dbg !2953
  %call9 = call zeroext i1 @_ZSteqRKSt17_Rb_tree_iteratorIN9RangeTreeIjE5RangeEES5_(%"struct.std::_Rb_tree_iterator"* dereferenceable(8) %__j, %"struct.std::_Rb_tree_iterator"* dereferenceable(8) %ref.tmp) #3, !dbg !2956
  br i1 %call9, label %if.then10, label %if.else, !dbg !2957

if.then10:                                        ; preds = %if.then
  call void @_ZNSt4pairIPSt18_Rb_tree_node_baseS1_EC2IRPSt13_Rb_tree_nodeIN9RangeTreeIjE5RangeEERS1_Lb1EEEOT_OT0_(%"struct.std::pair.4"* %retval, %"struct.std::_Rb_tree_node"** dereferenceable(8) %__x, %"struct.std::_Rb_tree_node_base"** dereferenceable(8) %__y), !dbg !2958
  br label %return, !dbg !2959

if.else:                                          ; preds = %if.then
  %call11 = call dereferenceable(8) %"struct.std::_Rb_tree_iterator"* @_ZNSt17_Rb_tree_iteratorIN9RangeTreeIjE5RangeEEmmEv(%"struct.std::_Rb_tree_iterator"* %__j) #3, !dbg !2960
  br label %if.end

if.end:                                           ; preds = %if.else
  br label %if.end12, !dbg !2961

if.end12:                                         ; preds = %if.end, %while.end
  %_M_impl13 = getelementptr inbounds %"class.std::_Rb_tree", %"class.std::_Rb_tree"* %this1, i32 0, i32 0, !dbg !2962
  %13 = bitcast %"struct.std::_Rb_tree<RangeTree<unsigned int>::Range, RangeTree<unsigned int>::Range, std::_Identity<RangeTree<unsigned int>::Range>, std::less<RangeTree<unsigned int>::Range>, std::allocator<RangeTree<unsigned int>::Range> >::_Rb_tree_impl"* %_M_impl13 to %"struct.std::_Rb_tree_key_compare"*, !dbg !2962
  %_M_key_compare14 = getelementptr inbounds %"struct.std::_Rb_tree_key_compare", %"struct.std::_Rb_tree_key_compare"* %13, i32 0, i32 0, !dbg !2964
  %_M_node = getelementptr inbounds %"struct.std::_Rb_tree_iterator", %"struct.std::_Rb_tree_iterator"* %__j, i32 0, i32 0, !dbg !2965
  %14 = load %"struct.std::_Rb_tree_node_base"*, %"struct.std::_Rb_tree_node_base"** %_M_node, align 8, !dbg !2965
  %call15 = call dereferenceable(12) %"struct.RangeTree<unsigned int>::Range"* @_ZNSt8_Rb_treeIN9RangeTreeIjE5RangeES2_St9_IdentityIS2_ESt4lessIS2_ESaIS2_EE6_S_keyEPKSt18_Rb_tree_node_base(%"struct.std::_Rb_tree_node_base"* %14), !dbg !2966
  %15 = load %"struct.RangeTree<unsigned int>::Range"*, %"struct.RangeTree<unsigned int>::Range"** %__k.addr, align 8, !dbg !2967
  %call16 = call zeroext i1 @_ZNKSt4lessIN9RangeTreeIjE5RangeEEclERKS2_S5_(%"struct.std::less"* %_M_key_compare14, %"struct.RangeTree<unsigned int>::Range"* dereferenceable(12) %call15, %"struct.RangeTree<unsigned int>::Range"* dereferenceable(12) %15), !dbg !2962
  br i1 %call16, label %if.then17, label %if.end18, !dbg !2968

if.then17:                                        ; preds = %if.end12
  call void @_ZNSt4pairIPSt18_Rb_tree_node_baseS1_EC2IRPSt13_Rb_tree_nodeIN9RangeTreeIjE5RangeEERS1_Lb1EEEOT_OT0_(%"struct.std::pair.4"* %retval, %"struct.std::_Rb_tree_node"** dereferenceable(8) %__x, %"struct.std::_Rb_tree_node_base"** dereferenceable(8) %__y), !dbg !2969
  br label %return, !dbg !2970

if.end18:                                         ; preds = %if.end12
  %_M_node19 = getelementptr inbounds %"struct.std::_Rb_tree_iterator", %"struct.std::_Rb_tree_iterator"* %__j, i32 0, i32 0, !dbg !2971
  store %"struct.std::_Rb_tree_node_base"* null, %"struct.std::_Rb_tree_node_base"** %ref.tmp20, align 8, !dbg !2972
  call void @_ZNSt4pairIPSt18_Rb_tree_node_baseS1_EC2IRS1_Lb1EEEOT_RKS1_(%"struct.std::pair.4"* %retval, %"struct.std::_Rb_tree_node_base"** dereferenceable(8) %_M_node19, %"struct.std::_Rb_tree_node_base"** dereferenceable(8) %ref.tmp20), !dbg !2973
  br label %return, !dbg !2974

return:                                           ; preds = %if.end18, %if.then17, %if.then10
  %16 = bitcast %"struct.std::pair.4"* %retval to { %"struct.std::_Rb_tree_node_base"*, %"struct.std::_Rb_tree_node_base"* }*, !dbg !2975
  %17 = load { %"struct.std::_Rb_tree_node_base"*, %"struct.std::_Rb_tree_node_base"* }, { %"struct.std::_Rb_tree_node_base"*, %"struct.std::_Rb_tree_node_base"* }* %16, align 8, !dbg !2975
  ret { %"struct.std::_Rb_tree_node_base"*, %"struct.std::_Rb_tree_node_base"* } %17, !dbg !2975
}

; Function Attrs: noinline nounwind uwtable
define linkonce_odr dso_local dereferenceable(12) %"struct.RangeTree<unsigned int>::Range"* @_ZNKSt9_IdentityIN9RangeTreeIjE5RangeEEclERS2_(%"struct.std::_Identity"* %this, %"struct.RangeTree<unsigned int>::Range"* dereferenceable(12) %__x) #7 comdat align 2 !dbg !2976 {
entry:
  %this.addr = alloca %"struct.std::_Identity"*, align 8
  %__x.addr = alloca %"struct.RangeTree<unsigned int>::Range"*, align 8
  store %"struct.std::_Identity"* %this, %"struct.std::_Identity"** %this.addr, align 8
  call void @llvm.dbg.declare(metadata %"struct.std::_Identity"** %this.addr, metadata !2977, metadata !DIExpression()), !dbg !2979
  store %"struct.RangeTree<unsigned int>::Range"* %__x, %"struct.RangeTree<unsigned int>::Range"** %__x.addr, align 8
  call void @llvm.dbg.declare(metadata %"struct.RangeTree<unsigned int>::Range"** %__x.addr, metadata !2980, metadata !DIExpression()), !dbg !2981
  %this1 = load %"struct.std::_Identity"*, %"struct.std::_Identity"** %this.addr, align 8
  %0 = load %"struct.RangeTree<unsigned int>::Range"*, %"struct.RangeTree<unsigned int>::Range"** %__x.addr, align 8, !dbg !2982
  ret %"struct.RangeTree<unsigned int>::Range"* %0, !dbg !2983
}

; Function Attrs: noinline nounwind uwtable
define linkonce_odr dso_local void @_ZNSt8_Rb_treeIN9RangeTreeIjE5RangeES2_St9_IdentityIS2_ESt4lessIS2_ESaIS2_EE11_Alloc_nodeC2ERS8_(%"struct.std::_Rb_tree<RangeTree<unsigned int>::Range, RangeTree<unsigned int>::Range, std::_Identity<RangeTree<unsigned int>::Range>, std::less<RangeTree<unsigned int>::Range>, std::allocator<RangeTree<unsigned int>::Range> >::_Alloc_node"* %this, %"class.std::_Rb_tree"* dereferenceable(48) %__t) unnamed_addr #7 comdat align 2 !dbg !2984 {
entry:
  %this.addr = alloca %"struct.std::_Rb_tree<RangeTree<unsigned int>::Range, RangeTree<unsigned int>::Range, std::_Identity<RangeTree<unsigned int>::Range>, std::less<RangeTree<unsigned int>::Range>, std::allocator<RangeTree<unsigned int>::Range> >::_Alloc_node"*, align 8
  %__t.addr = alloca %"class.std::_Rb_tree"*, align 8
  store %"struct.std::_Rb_tree<RangeTree<unsigned int>::Range, RangeTree<unsigned int>::Range, std::_Identity<RangeTree<unsigned int>::Range>, std::less<RangeTree<unsigned int>::Range>, std::allocator<RangeTree<unsigned int>::Range> >::_Alloc_node"* %this, %"struct.std::_Rb_tree<RangeTree<unsigned int>::Range, RangeTree<unsigned int>::Range, std::_Identity<RangeTree<unsigned int>::Range>, std::less<RangeTree<unsigned int>::Range>, std::allocator<RangeTree<unsigned int>::Range> >::_Alloc_node"** %this.addr, align 8
  call void @llvm.dbg.declare(metadata %"struct.std::_Rb_tree<RangeTree<unsigned int>::Range, RangeTree<unsigned int>::Range, std::_Identity<RangeTree<unsigned int>::Range>, std::less<RangeTree<unsigned int>::Range>, std::allocator<RangeTree<unsigned int>::Range> >::_Alloc_node"** %this.addr, metadata !2985, metadata !DIExpression()), !dbg !2987
  store %"class.std::_Rb_tree"* %__t, %"class.std::_Rb_tree"** %__t.addr, align 8
  call void @llvm.dbg.declare(metadata %"class.std::_Rb_tree"** %__t.addr, metadata !2988, metadata !DIExpression()), !dbg !2989
  %this1 = load %"struct.std::_Rb_tree<RangeTree<unsigned int>::Range, RangeTree<unsigned int>::Range, std::_Identity<RangeTree<unsigned int>::Range>, std::less<RangeTree<unsigned int>::Range>, std::allocator<RangeTree<unsigned int>::Range> >::_Alloc_node"*, %"struct.std::_Rb_tree<RangeTree<unsigned int>::Range, RangeTree<unsigned int>::Range, std::_Identity<RangeTree<unsigned int>::Range>, std::less<RangeTree<unsigned int>::Range>, std::allocator<RangeTree<unsigned int>::Range> >::_Alloc_node"** %this.addr, align 8
  %_M_t = getelementptr inbounds %"struct.std::_Rb_tree<RangeTree<unsigned int>::Range, RangeTree<unsigned int>::Range, std::_Identity<RangeTree<unsigned int>::Range>, std::less<RangeTree<unsigned int>::Range>, std::allocator<RangeTree<unsigned int>::Range> >::_Alloc_node", %"struct.std::_Rb_tree<RangeTree<unsigned int>::Range, RangeTree<unsigned int>::Range, std::_Identity<RangeTree<unsigned int>::Range>, std::less<RangeTree<unsigned int>::Range>, std::allocator<RangeTree<unsigned int>::Range> >::_Alloc_node"* %this1, i32 0, i32 0, !dbg !2990
  %0 = load %"class.std::_Rb_tree"*, %"class.std::_Rb_tree"** %__t.addr, align 8, !dbg !2991
  store %"class.std::_Rb_tree"* %0, %"class.std::_Rb_tree"** %_M_t, align 8, !dbg !2990
  ret void, !dbg !2992
}

; Function Attrs: noinline uwtable
define linkonce_odr dso_local %"struct.std::_Rb_tree_node_base"* @_ZNSt8_Rb_treeIN9RangeTreeIjE5RangeES2_St9_IdentityIS2_ESt4lessIS2_ESaIS2_EE10_M_insert_IS2_NS8_11_Alloc_nodeEEESt17_Rb_tree_iteratorIS2_EPSt18_Rb_tree_node_baseSE_OT_RT0_(%"class.std::_Rb_tree"* %this, %"struct.std::_Rb_tree_node_base"* %__x, %"struct.std::_Rb_tree_node_base"* %__p, %"struct.RangeTree<unsigned int>::Range"* dereferenceable(12) %__v, %"struct.std::_Rb_tree<RangeTree<unsigned int>::Range, RangeTree<unsigned int>::Range, std::_Identity<RangeTree<unsigned int>::Range>, std::less<RangeTree<unsigned int>::Range>, std::allocator<RangeTree<unsigned int>::Range> >::_Alloc_node"* dereferenceable(8) %__node_gen) #0 comdat align 2 !dbg !2993 {
entry:
  %retval = alloca %"struct.std::_Rb_tree_iterator", align 8
  %this.addr = alloca %"class.std::_Rb_tree"*, align 8
  %__x.addr = alloca %"struct.std::_Rb_tree_node_base"*, align 8
  %__p.addr = alloca %"struct.std::_Rb_tree_node_base"*, align 8
  %__v.addr = alloca %"struct.RangeTree<unsigned int>::Range"*, align 8
  %__node_gen.addr = alloca %"struct.std::_Rb_tree<RangeTree<unsigned int>::Range, RangeTree<unsigned int>::Range, std::_Identity<RangeTree<unsigned int>::Range>, std::less<RangeTree<unsigned int>::Range>, std::allocator<RangeTree<unsigned int>::Range> >::_Alloc_node"*, align 8
  %__insert_left = alloca i8, align 1
  %ref.tmp = alloca %"struct.std::_Identity", align 1
  %__z = alloca %"struct.std::_Rb_tree_node"*, align 8
  store %"class.std::_Rb_tree"* %this, %"class.std::_Rb_tree"** %this.addr, align 8
  call void @llvm.dbg.declare(metadata %"class.std::_Rb_tree"** %this.addr, metadata !3000, metadata !DIExpression()), !dbg !3001
  store %"struct.std::_Rb_tree_node_base"* %__x, %"struct.std::_Rb_tree_node_base"** %__x.addr, align 8
  call void @llvm.dbg.declare(metadata %"struct.std::_Rb_tree_node_base"** %__x.addr, metadata !3002, metadata !DIExpression()), !dbg !3003
  store %"struct.std::_Rb_tree_node_base"* %__p, %"struct.std::_Rb_tree_node_base"** %__p.addr, align 8
  call void @llvm.dbg.declare(metadata %"struct.std::_Rb_tree_node_base"** %__p.addr, metadata !3004, metadata !DIExpression()), !dbg !3005
  store %"struct.RangeTree<unsigned int>::Range"* %__v, %"struct.RangeTree<unsigned int>::Range"** %__v.addr, align 8
  call void @llvm.dbg.declare(metadata %"struct.RangeTree<unsigned int>::Range"** %__v.addr, metadata !3006, metadata !DIExpression()), !dbg !3007
  store %"struct.std::_Rb_tree<RangeTree<unsigned int>::Range, RangeTree<unsigned int>::Range, std::_Identity<RangeTree<unsigned int>::Range>, std::less<RangeTree<unsigned int>::Range>, std::allocator<RangeTree<unsigned int>::Range> >::_Alloc_node"* %__node_gen, %"struct.std::_Rb_tree<RangeTree<unsigned int>::Range, RangeTree<unsigned int>::Range, std::_Identity<RangeTree<unsigned int>::Range>, std::less<RangeTree<unsigned int>::Range>, std::allocator<RangeTree<unsigned int>::Range> >::_Alloc_node"** %__node_gen.addr, align 8
  call void @llvm.dbg.declare(metadata %"struct.std::_Rb_tree<RangeTree<unsigned int>::Range, RangeTree<unsigned int>::Range, std::_Identity<RangeTree<unsigned int>::Range>, std::less<RangeTree<unsigned int>::Range>, std::allocator<RangeTree<unsigned int>::Range> >::_Alloc_node"** %__node_gen.addr, metadata !3008, metadata !DIExpression()), !dbg !3009
  %this1 = load %"class.std::_Rb_tree"*, %"class.std::_Rb_tree"** %this.addr, align 8
  call void @llvm.dbg.declare(metadata i8* %__insert_left, metadata !3010, metadata !DIExpression()), !dbg !3011
  %0 = load %"struct.std::_Rb_tree_node_base"*, %"struct.std::_Rb_tree_node_base"** %__x.addr, align 8, !dbg !3012
  %cmp = icmp ne %"struct.std::_Rb_tree_node_base"* %0, null, !dbg !3013
  br i1 %cmp, label %lor.end, label %lor.lhs.false, !dbg !3014

lor.lhs.false:                                    ; preds = %entry
  %1 = load %"struct.std::_Rb_tree_node_base"*, %"struct.std::_Rb_tree_node_base"** %__p.addr, align 8, !dbg !3015
  %call = call %"struct.std::_Rb_tree_node_base"* @_ZNSt8_Rb_treeIN9RangeTreeIjE5RangeES2_St9_IdentityIS2_ESt4lessIS2_ESaIS2_EE6_M_endEv(%"class.std::_Rb_tree"* %this1) #3, !dbg !3016
  %cmp2 = icmp eq %"struct.std::_Rb_tree_node_base"* %1, %call, !dbg !3017
  br i1 %cmp2, label %lor.end, label %lor.rhs, !dbg !3018

lor.rhs:                                          ; preds = %lor.lhs.false
  %_M_impl = getelementptr inbounds %"class.std::_Rb_tree", %"class.std::_Rb_tree"* %this1, i32 0, i32 0, !dbg !3019
  %2 = bitcast %"struct.std::_Rb_tree<RangeTree<unsigned int>::Range, RangeTree<unsigned int>::Range, std::_Identity<RangeTree<unsigned int>::Range>, std::less<RangeTree<unsigned int>::Range>, std::allocator<RangeTree<unsigned int>::Range> >::_Rb_tree_impl"* %_M_impl to %"struct.std::_Rb_tree_key_compare"*, !dbg !3019
  %_M_key_compare = getelementptr inbounds %"struct.std::_Rb_tree_key_compare", %"struct.std::_Rb_tree_key_compare"* %2, i32 0, i32 0, !dbg !3020
  %3 = load %"struct.RangeTree<unsigned int>::Range"*, %"struct.RangeTree<unsigned int>::Range"** %__v.addr, align 8, !dbg !3021
  %call3 = call dereferenceable(12) %"struct.RangeTree<unsigned int>::Range"* @_ZNKSt9_IdentityIN9RangeTreeIjE5RangeEEclERS2_(%"struct.std::_Identity"* %ref.tmp, %"struct.RangeTree<unsigned int>::Range"* dereferenceable(12) %3), !dbg !3022
  %4 = load %"struct.std::_Rb_tree_node_base"*, %"struct.std::_Rb_tree_node_base"** %__p.addr, align 8, !dbg !3023
  %call4 = call dereferenceable(12) %"struct.RangeTree<unsigned int>::Range"* @_ZNSt8_Rb_treeIN9RangeTreeIjE5RangeES2_St9_IdentityIS2_ESt4lessIS2_ESaIS2_EE6_S_keyEPKSt18_Rb_tree_node_base(%"struct.std::_Rb_tree_node_base"* %4), !dbg !3024
  %call5 = call zeroext i1 @_ZNKSt4lessIN9RangeTreeIjE5RangeEEclERKS2_S5_(%"struct.std::less"* %_M_key_compare, %"struct.RangeTree<unsigned int>::Range"* dereferenceable(12) %call3, %"struct.RangeTree<unsigned int>::Range"* dereferenceable(12) %call4), !dbg !3019
  br label %lor.end, !dbg !3018

lor.end:                                          ; preds = %lor.rhs, %lor.lhs.false, %entry
  %5 = phi i1 [ true, %lor.lhs.false ], [ true, %entry ], [ %call5, %lor.rhs ]
  %frombool = zext i1 %5 to i8, !dbg !3011
  store i8 %frombool, i8* %__insert_left, align 1, !dbg !3011
  call void @llvm.dbg.declare(metadata %"struct.std::_Rb_tree_node"** %__z, metadata !3025, metadata !DIExpression()), !dbg !3026
  %6 = load %"struct.std::_Rb_tree<RangeTree<unsigned int>::Range, RangeTree<unsigned int>::Range, std::_Identity<RangeTree<unsigned int>::Range>, std::less<RangeTree<unsigned int>::Range>, std::allocator<RangeTree<unsigned int>::Range> >::_Alloc_node"*, %"struct.std::_Rb_tree<RangeTree<unsigned int>::Range, RangeTree<unsigned int>::Range, std::_Identity<RangeTree<unsigned int>::Range>, std::less<RangeTree<unsigned int>::Range>, std::allocator<RangeTree<unsigned int>::Range> >::_Alloc_node"** %__node_gen.addr, align 8, !dbg !3027
  %7 = load %"struct.RangeTree<unsigned int>::Range"*, %"struct.RangeTree<unsigned int>::Range"** %__v.addr, align 8, !dbg !3028
  %call6 = call dereferenceable(12) %"struct.RangeTree<unsigned int>::Range"* @_ZSt7forwardIN9RangeTreeIjE5RangeEEOT_RNSt16remove_referenceIS3_E4typeE(%"struct.RangeTree<unsigned int>::Range"* dereferenceable(12) %7) #3, !dbg !3028
  %call7 = call %"struct.std::_Rb_tree_node"* @_ZNKSt8_Rb_treeIN9RangeTreeIjE5RangeES2_St9_IdentityIS2_ESt4lessIS2_ESaIS2_EE11_Alloc_nodeclIS2_EEPSt13_Rb_tree_nodeIS2_EOT_(%"struct.std::_Rb_tree<RangeTree<unsigned int>::Range, RangeTree<unsigned int>::Range, std::_Identity<RangeTree<unsigned int>::Range>, std::less<RangeTree<unsigned int>::Range>, std::allocator<RangeTree<unsigned int>::Range> >::_Alloc_node"* %6, %"struct.RangeTree<unsigned int>::Range"* dereferenceable(12) %call6), !dbg !3027
  store %"struct.std::_Rb_tree_node"* %call7, %"struct.std::_Rb_tree_node"** %__z, align 8, !dbg !3026
  %8 = load i8, i8* %__insert_left, align 1, !dbg !3029
  %tobool = trunc i8 %8 to i1, !dbg !3029
  %9 = load %"struct.std::_Rb_tree_node"*, %"struct.std::_Rb_tree_node"** %__z, align 8, !dbg !3030
  %10 = bitcast %"struct.std::_Rb_tree_node"* %9 to %"struct.std::_Rb_tree_node_base"*, !dbg !3030
  %11 = load %"struct.std::_Rb_tree_node_base"*, %"struct.std::_Rb_tree_node_base"** %__p.addr, align 8, !dbg !3031
  %_M_impl8 = getelementptr inbounds %"class.std::_Rb_tree", %"class.std::_Rb_tree"* %this1, i32 0, i32 0, !dbg !3032
  %12 = bitcast %"struct.std::_Rb_tree<RangeTree<unsigned int>::Range, RangeTree<unsigned int>::Range, std::_Identity<RangeTree<unsigned int>::Range>, std::less<RangeTree<unsigned int>::Range>, std::allocator<RangeTree<unsigned int>::Range> >::_Rb_tree_impl"* %_M_impl8 to i8*, !dbg !3033
  %add.ptr = getelementptr inbounds i8, i8* %12, i64 8, !dbg !3033
  %13 = bitcast i8* %add.ptr to %"struct.std::_Rb_tree_header"*, !dbg !3033
  %_M_header = getelementptr inbounds %"struct.std::_Rb_tree_header", %"struct.std::_Rb_tree_header"* %13, i32 0, i32 0, !dbg !3034
  call void @_ZSt29_Rb_tree_insert_and_rebalancebPSt18_Rb_tree_node_baseS0_RS_(i1 zeroext %tobool, %"struct.std::_Rb_tree_node_base"* %10, %"struct.std::_Rb_tree_node_base"* %11, %"struct.std::_Rb_tree_node_base"* dereferenceable(32) %_M_header) #3, !dbg !3035
  %_M_impl9 = getelementptr inbounds %"class.std::_Rb_tree", %"class.std::_Rb_tree"* %this1, i32 0, i32 0, !dbg !3036
  %14 = bitcast %"struct.std::_Rb_tree<RangeTree<unsigned int>::Range, RangeTree<unsigned int>::Range, std::_Identity<RangeTree<unsigned int>::Range>, std::less<RangeTree<unsigned int>::Range>, std::allocator<RangeTree<unsigned int>::Range> >::_Rb_tree_impl"* %_M_impl9 to i8*, !dbg !3036
  %add.ptr10 = getelementptr inbounds i8, i8* %14, i64 8, !dbg !3036
  %15 = bitcast i8* %add.ptr10 to %"struct.std::_Rb_tree_header"*, !dbg !3036
  %_M_node_count = getelementptr inbounds %"struct.std::_Rb_tree_header", %"struct.std::_Rb_tree_header"* %15, i32 0, i32 1, !dbg !3037
  %16 = load i64, i64* %_M_node_count, align 8, !dbg !3038
  %inc = add i64 %16, 1, !dbg !3038
  store i64 %inc, i64* %_M_node_count, align 8, !dbg !3038
  %17 = load %"struct.std::_Rb_tree_node"*, %"struct.std::_Rb_tree_node"** %__z, align 8, !dbg !3039
  %18 = bitcast %"struct.std::_Rb_tree_node"* %17 to %"struct.std::_Rb_tree_node_base"*, !dbg !3039
  call void @_ZNSt17_Rb_tree_iteratorIN9RangeTreeIjE5RangeEEC2EPSt18_Rb_tree_node_base(%"struct.std::_Rb_tree_iterator"* %retval, %"struct.std::_Rb_tree_node_base"* %18) #3, !dbg !3040
  %coerce.dive = getelementptr inbounds %"struct.std::_Rb_tree_iterator", %"struct.std::_Rb_tree_iterator"* %retval, i32 0, i32 0, !dbg !3041
  %19 = load %"struct.std::_Rb_tree_node_base"*, %"struct.std::_Rb_tree_node_base"** %coerce.dive, align 8, !dbg !3041
  ret %"struct.std::_Rb_tree_node_base"* %19, !dbg !3041
}

; Function Attrs: noinline nounwind uwtable
define linkonce_odr dso_local dereferenceable(12) %"struct.RangeTree<unsigned int>::Range"* @_ZSt7forwardIN9RangeTreeIjE5RangeEEOT_RNSt16remove_referenceIS3_E4typeE(%"struct.RangeTree<unsigned int>::Range"* dereferenceable(12) %__t) #7 comdat !dbg !3042 {
entry:
  %__t.addr = alloca %"struct.RangeTree<unsigned int>::Range"*, align 8
  store %"struct.RangeTree<unsigned int>::Range"* %__t, %"struct.RangeTree<unsigned int>::Range"** %__t.addr, align 8
  call void @llvm.dbg.declare(metadata %"struct.RangeTree<unsigned int>::Range"** %__t.addr, metadata !3048, metadata !DIExpression()), !dbg !3049
  %0 = load %"struct.RangeTree<unsigned int>::Range"*, %"struct.RangeTree<unsigned int>::Range"** %__t.addr, align 8, !dbg !3050
  ret %"struct.RangeTree<unsigned int>::Range"* %0, !dbg !3051
}

; Function Attrs: noinline nounwind uwtable
define linkonce_odr dso_local void @_ZNSt4pairISt17_Rb_tree_iteratorIN9RangeTreeIjE5RangeEEbEC2IS4_bLb1EEEOT_OT0_(%"struct.std::pair.0"* %this, %"struct.std::_Rb_tree_iterator"* dereferenceable(8) %__x, i8* dereferenceable(1) %__y) unnamed_addr #7 comdat align 2 !dbg !3052 {
entry:
  %this.addr = alloca %"struct.std::pair.0"*, align 8
  %__x.addr = alloca %"struct.std::_Rb_tree_iterator"*, align 8
  %__y.addr = alloca i8*, align 8
  store %"struct.std::pair.0"* %this, %"struct.std::pair.0"** %this.addr, align 8
  call void @llvm.dbg.declare(metadata %"struct.std::pair.0"** %this.addr, metadata !3059, metadata !DIExpression()), !dbg !3061
  store %"struct.std::_Rb_tree_iterator"* %__x, %"struct.std::_Rb_tree_iterator"** %__x.addr, align 8
  call void @llvm.dbg.declare(metadata %"struct.std::_Rb_tree_iterator"** %__x.addr, metadata !3062, metadata !DIExpression()), !dbg !3063
  store i8* %__y, i8** %__y.addr, align 8
  call void @llvm.dbg.declare(metadata i8** %__y.addr, metadata !3064, metadata !DIExpression()), !dbg !3065
  %this1 = load %"struct.std::pair.0"*, %"struct.std::pair.0"** %this.addr, align 8
  %0 = bitcast %"struct.std::pair.0"* %this1 to %"class.std::__pair_base.1"*, !dbg !3066
  %first = getelementptr inbounds %"struct.std::pair.0", %"struct.std::pair.0"* %this1, i32 0, i32 0, !dbg !3067
  %1 = load %"struct.std::_Rb_tree_iterator"*, %"struct.std::_Rb_tree_iterator"** %__x.addr, align 8, !dbg !3068
  %call = call dereferenceable(8) %"struct.std::_Rb_tree_iterator"* @_ZSt7forwardISt17_Rb_tree_iteratorIN9RangeTreeIjE5RangeEEEOT_RNSt16remove_referenceIS5_E4typeE(%"struct.std::_Rb_tree_iterator"* dereferenceable(8) %1) #3, !dbg !3069
  %2 = bitcast %"struct.std::_Rb_tree_iterator"* %first to i8*, !dbg !3067
  %3 = bitcast %"struct.std::_Rb_tree_iterator"* %call to i8*, !dbg !3067
  call void @llvm.memcpy.p0i8.p0i8.i64(i8* align 8 %2, i8* align 8 %3, i64 8, i1 false), !dbg !3067
  %second = getelementptr inbounds %"struct.std::pair.0", %"struct.std::pair.0"* %this1, i32 0, i32 1, !dbg !3070
  %4 = load i8*, i8** %__y.addr, align 8, !dbg !3071
  %call2 = call dereferenceable(1) i8* @_ZSt7forwardIbEOT_RNSt16remove_referenceIS0_E4typeE(i8* dereferenceable(1) %4) #3, !dbg !3072
  %5 = load i8, i8* %call2, align 1, !dbg !3072
  %tobool = trunc i8 %5 to i1, !dbg !3072
  %frombool = zext i1 %tobool to i8, !dbg !3070
  store i8 %frombool, i8* %second, align 8, !dbg !3070
  ret void, !dbg !3073
}

; Function Attrs: noinline nounwind uwtable
define linkonce_odr dso_local void @_ZNSt17_Rb_tree_iteratorIN9RangeTreeIjE5RangeEEC2EPSt18_Rb_tree_node_base(%"struct.std::_Rb_tree_iterator"* %this, %"struct.std::_Rb_tree_node_base"* %__x) unnamed_addr #7 comdat align 2 !dbg !3074 {
entry:
  %this.addr = alloca %"struct.std::_Rb_tree_iterator"*, align 8
  %__x.addr = alloca %"struct.std::_Rb_tree_node_base"*, align 8
  store %"struct.std::_Rb_tree_iterator"* %this, %"struct.std::_Rb_tree_iterator"** %this.addr, align 8
  call void @llvm.dbg.declare(metadata %"struct.std::_Rb_tree_iterator"** %this.addr, metadata !3075, metadata !DIExpression()), !dbg !3077
  store %"struct.std::_Rb_tree_node_base"* %__x, %"struct.std::_Rb_tree_node_base"** %__x.addr, align 8
  call void @llvm.dbg.declare(metadata %"struct.std::_Rb_tree_node_base"** %__x.addr, metadata !3078, metadata !DIExpression()), !dbg !3079
  %this1 = load %"struct.std::_Rb_tree_iterator"*, %"struct.std::_Rb_tree_iterator"** %this.addr, align 8
  %_M_node = getelementptr inbounds %"struct.std::_Rb_tree_iterator", %"struct.std::_Rb_tree_iterator"* %this1, i32 0, i32 0, !dbg !3080
  %0 = load %"struct.std::_Rb_tree_node_base"*, %"struct.std::_Rb_tree_node_base"** %__x.addr, align 8, !dbg !3081
  store %"struct.std::_Rb_tree_node_base"* %0, %"struct.std::_Rb_tree_node_base"** %_M_node, align 8, !dbg !3080
  ret void, !dbg !3082
}

; Function Attrs: noinline nounwind uwtable
define linkonce_odr dso_local %"struct.std::_Rb_tree_node_base"* @_ZNSt8_Rb_treeIN9RangeTreeIjE5RangeES2_St9_IdentityIS2_ESt4lessIS2_ESaIS2_EE6_M_endEv(%"class.std::_Rb_tree"* %this) #7 comdat align 2 !dbg !3083 {
entry:
  %this.addr = alloca %"class.std::_Rb_tree"*, align 8
  store %"class.std::_Rb_tree"* %this, %"class.std::_Rb_tree"** %this.addr, align 8
  call void @llvm.dbg.declare(metadata %"class.std::_Rb_tree"** %this.addr, metadata !3084, metadata !DIExpression()), !dbg !3085
  %this1 = load %"class.std::_Rb_tree"*, %"class.std::_Rb_tree"** %this.addr, align 8
  %_M_impl = getelementptr inbounds %"class.std::_Rb_tree", %"class.std::_Rb_tree"* %this1, i32 0, i32 0, !dbg !3086
  %0 = bitcast %"struct.std::_Rb_tree<RangeTree<unsigned int>::Range, RangeTree<unsigned int>::Range, std::_Identity<RangeTree<unsigned int>::Range>, std::less<RangeTree<unsigned int>::Range>, std::allocator<RangeTree<unsigned int>::Range> >::_Rb_tree_impl"* %_M_impl to i8*, !dbg !3087
  %add.ptr = getelementptr inbounds i8, i8* %0, i64 8, !dbg !3087
  %1 = bitcast i8* %add.ptr to %"struct.std::_Rb_tree_header"*, !dbg !3087
  %_M_header = getelementptr inbounds %"struct.std::_Rb_tree_header", %"struct.std::_Rb_tree_header"* %1, i32 0, i32 0, !dbg !3088
  ret %"struct.std::_Rb_tree_node_base"* %_M_header, !dbg !3089
}

; Function Attrs: noinline uwtable
define linkonce_odr dso_local zeroext i1 @_ZNKSt4lessIN9RangeTreeIjE5RangeEEclERKS2_S5_(%"struct.std::less"* %this, %"struct.RangeTree<unsigned int>::Range"* dereferenceable(12) %__x, %"struct.RangeTree<unsigned int>::Range"* dereferenceable(12) %__y) #0 comdat align 2 !dbg !3090 {
entry:
  %this.addr = alloca %"struct.std::less"*, align 8
  %__x.addr = alloca %"struct.RangeTree<unsigned int>::Range"*, align 8
  %__y.addr = alloca %"struct.RangeTree<unsigned int>::Range"*, align 8
  store %"struct.std::less"* %this, %"struct.std::less"** %this.addr, align 8
  call void @llvm.dbg.declare(metadata %"struct.std::less"** %this.addr, metadata !3091, metadata !DIExpression()), !dbg !3093
  store %"struct.RangeTree<unsigned int>::Range"* %__x, %"struct.RangeTree<unsigned int>::Range"** %__x.addr, align 8
  call void @llvm.dbg.declare(metadata %"struct.RangeTree<unsigned int>::Range"** %__x.addr, metadata !3094, metadata !DIExpression()), !dbg !3095
  store %"struct.RangeTree<unsigned int>::Range"* %__y, %"struct.RangeTree<unsigned int>::Range"** %__y.addr, align 8
  call void @llvm.dbg.declare(metadata %"struct.RangeTree<unsigned int>::Range"** %__y.addr, metadata !3096, metadata !DIExpression()), !dbg !3097
  %this1 = load %"struct.std::less"*, %"struct.std::less"** %this.addr, align 8
  %0 = load %"struct.RangeTree<unsigned int>::Range"*, %"struct.RangeTree<unsigned int>::Range"** %__x.addr, align 8, !dbg !3098
  %1 = load %"struct.RangeTree<unsigned int>::Range"*, %"struct.RangeTree<unsigned int>::Range"** %__y.addr, align 8, !dbg !3099
  %call = call zeroext i1 @_ZNK9RangeTreeIjE5RangeltERKS1_(%"struct.RangeTree<unsigned int>::Range"* %0, %"struct.RangeTree<unsigned int>::Range"* dereferenceable(12) %1), !dbg !3100
  ret i1 %call, !dbg !3101
}

; Function Attrs: noinline uwtable
define linkonce_odr dso_local dereferenceable(12) %"struct.RangeTree<unsigned int>::Range"* @_ZNSt8_Rb_treeIN9RangeTreeIjE5RangeES2_St9_IdentityIS2_ESt4lessIS2_ESaIS2_EE6_S_keyEPKSt13_Rb_tree_nodeIS2_E(%"struct.std::_Rb_tree_node"* %__x) #0 comdat align 2 !dbg !3102 {
entry:
  %__x.addr = alloca %"struct.std::_Rb_tree_node"*, align 8
  %ref.tmp = alloca %"struct.std::_Identity", align 1
  store %"struct.std::_Rb_tree_node"* %__x, %"struct.std::_Rb_tree_node"** %__x.addr, align 8
  call void @llvm.dbg.declare(metadata %"struct.std::_Rb_tree_node"** %__x.addr, metadata !3103, metadata !DIExpression()), !dbg !3104
  %0 = load %"struct.std::_Rb_tree_node"*, %"struct.std::_Rb_tree_node"** %__x.addr, align 8, !dbg !3105
  %call = call %"struct.RangeTree<unsigned int>::Range"* @_ZNKSt13_Rb_tree_nodeIN9RangeTreeIjE5RangeEE9_M_valptrEv(%"struct.std::_Rb_tree_node"* %0), !dbg !3106
  %call1 = call dereferenceable(12) %"struct.RangeTree<unsigned int>::Range"* @_ZNKSt9_IdentityIN9RangeTreeIjE5RangeEEclERKS2_(%"struct.std::_Identity"* %ref.tmp, %"struct.RangeTree<unsigned int>::Range"* dereferenceable(12) %call), !dbg !3107
  ret %"struct.RangeTree<unsigned int>::Range"* %call1, !dbg !3108
}

; Function Attrs: noinline nounwind uwtable
define linkonce_odr dso_local zeroext i1 @_ZSteqRKSt17_Rb_tree_iteratorIN9RangeTreeIjE5RangeEES5_(%"struct.std::_Rb_tree_iterator"* dereferenceable(8) %__x, %"struct.std::_Rb_tree_iterator"* dereferenceable(8) %__y) #7 comdat !dbg !3109 {
entry:
  %__x.addr = alloca %"struct.std::_Rb_tree_iterator"*, align 8
  %__y.addr = alloca %"struct.std::_Rb_tree_iterator"*, align 8
  store %"struct.std::_Rb_tree_iterator"* %__x, %"struct.std::_Rb_tree_iterator"** %__x.addr, align 8
  call void @llvm.dbg.declare(metadata %"struct.std::_Rb_tree_iterator"** %__x.addr, metadata !3114, metadata !DIExpression()), !dbg !3115
  store %"struct.std::_Rb_tree_iterator"* %__y, %"struct.std::_Rb_tree_iterator"** %__y.addr, align 8
  call void @llvm.dbg.declare(metadata %"struct.std::_Rb_tree_iterator"** %__y.addr, metadata !3116, metadata !DIExpression()), !dbg !3117
  %0 = load %"struct.std::_Rb_tree_iterator"*, %"struct.std::_Rb_tree_iterator"** %__x.addr, align 8, !dbg !3118
  %_M_node = getelementptr inbounds %"struct.std::_Rb_tree_iterator", %"struct.std::_Rb_tree_iterator"* %0, i32 0, i32 0, !dbg !3119
  %1 = load %"struct.std::_Rb_tree_node_base"*, %"struct.std::_Rb_tree_node_base"** %_M_node, align 8, !dbg !3119
  %2 = load %"struct.std::_Rb_tree_iterator"*, %"struct.std::_Rb_tree_iterator"** %__y.addr, align 8, !dbg !3120
  %_M_node1 = getelementptr inbounds %"struct.std::_Rb_tree_iterator", %"struct.std::_Rb_tree_iterator"* %2, i32 0, i32 0, !dbg !3121
  %3 = load %"struct.std::_Rb_tree_node_base"*, %"struct.std::_Rb_tree_node_base"** %_M_node1, align 8, !dbg !3121
  %cmp = icmp eq %"struct.std::_Rb_tree_node_base"* %1, %3, !dbg !3122
  ret i1 %cmp, !dbg !3123
}

; Function Attrs: noinline nounwind uwtable
define linkonce_odr dso_local %"struct.std::_Rb_tree_node_base"* @_ZNSt8_Rb_treeIN9RangeTreeIjE5RangeES2_St9_IdentityIS2_ESt4lessIS2_ESaIS2_EE5beginEv(%"class.std::_Rb_tree"* %this) #7 comdat align 2 !dbg !3124 {
entry:
  %retval = alloca %"struct.std::_Rb_tree_iterator", align 8
  %this.addr = alloca %"class.std::_Rb_tree"*, align 8
  store %"class.std::_Rb_tree"* %this, %"class.std::_Rb_tree"** %this.addr, align 8
  call void @llvm.dbg.declare(metadata %"class.std::_Rb_tree"** %this.addr, metadata !3125, metadata !DIExpression()), !dbg !3126
  %this1 = load %"class.std::_Rb_tree"*, %"class.std::_Rb_tree"** %this.addr, align 8
  %_M_impl = getelementptr inbounds %"class.std::_Rb_tree", %"class.std::_Rb_tree"* %this1, i32 0, i32 0, !dbg !3127
  %0 = bitcast %"struct.std::_Rb_tree<RangeTree<unsigned int>::Range, RangeTree<unsigned int>::Range, std::_Identity<RangeTree<unsigned int>::Range>, std::less<RangeTree<unsigned int>::Range>, std::allocator<RangeTree<unsigned int>::Range> >::_Rb_tree_impl"* %_M_impl to i8*, !dbg !3128
  %add.ptr = getelementptr inbounds i8, i8* %0, i64 8, !dbg !3128
  %1 = bitcast i8* %add.ptr to %"struct.std::_Rb_tree_header"*, !dbg !3128
  %_M_header = getelementptr inbounds %"struct.std::_Rb_tree_header", %"struct.std::_Rb_tree_header"* %1, i32 0, i32 0, !dbg !3129
  %_M_left = getelementptr inbounds %"struct.std::_Rb_tree_node_base", %"struct.std::_Rb_tree_node_base"* %_M_header, i32 0, i32 2, !dbg !3130
  %2 = load %"struct.std::_Rb_tree_node_base"*, %"struct.std::_Rb_tree_node_base"** %_M_left, align 8, !dbg !3130
  call void @_ZNSt17_Rb_tree_iteratorIN9RangeTreeIjE5RangeEEC2EPSt18_Rb_tree_node_base(%"struct.std::_Rb_tree_iterator"* %retval, %"struct.std::_Rb_tree_node_base"* %2) #3, !dbg !3131
  %coerce.dive = getelementptr inbounds %"struct.std::_Rb_tree_iterator", %"struct.std::_Rb_tree_iterator"* %retval, i32 0, i32 0, !dbg !3132
  %3 = load %"struct.std::_Rb_tree_node_base"*, %"struct.std::_Rb_tree_node_base"** %coerce.dive, align 8, !dbg !3132
  ret %"struct.std::_Rb_tree_node_base"* %3, !dbg !3132
}

; Function Attrs: noinline nounwind uwtable
define linkonce_odr dso_local void @_ZNSt4pairIPSt18_Rb_tree_node_baseS1_EC2IRPSt13_Rb_tree_nodeIN9RangeTreeIjE5RangeEERS1_Lb1EEEOT_OT0_(%"struct.std::pair.4"* %this, %"struct.std::_Rb_tree_node"** dereferenceable(8) %__x, %"struct.std::_Rb_tree_node_base"** dereferenceable(8) %__y) unnamed_addr #7 comdat align 2 !dbg !3133 {
entry:
  %this.addr = alloca %"struct.std::pair.4"*, align 8
  %__x.addr = alloca %"struct.std::_Rb_tree_node"**, align 8
  %__y.addr = alloca %"struct.std::_Rb_tree_node_base"**, align 8
  store %"struct.std::pair.4"* %this, %"struct.std::pair.4"** %this.addr, align 8
  call void @llvm.dbg.declare(metadata %"struct.std::pair.4"** %this.addr, metadata !3142, metadata !DIExpression()), !dbg !3144
  store %"struct.std::_Rb_tree_node"** %__x, %"struct.std::_Rb_tree_node"*** %__x.addr, align 8
  call void @llvm.dbg.declare(metadata %"struct.std::_Rb_tree_node"*** %__x.addr, metadata !3145, metadata !DIExpression()), !dbg !3146
  store %"struct.std::_Rb_tree_node_base"** %__y, %"struct.std::_Rb_tree_node_base"*** %__y.addr, align 8
  call void @llvm.dbg.declare(metadata %"struct.std::_Rb_tree_node_base"*** %__y.addr, metadata !3147, metadata !DIExpression()), !dbg !3148
  %this1 = load %"struct.std::pair.4"*, %"struct.std::pair.4"** %this.addr, align 8
  %0 = bitcast %"struct.std::pair.4"* %this1 to %"class.std::__pair_base.5"*, !dbg !3149
  %first = getelementptr inbounds %"struct.std::pair.4", %"struct.std::pair.4"* %this1, i32 0, i32 0, !dbg !3150
  %1 = load %"struct.std::_Rb_tree_node"**, %"struct.std::_Rb_tree_node"*** %__x.addr, align 8, !dbg !3151
  %call = call dereferenceable(8) %"struct.std::_Rb_tree_node"** @_ZSt7forwardIRPSt13_Rb_tree_nodeIN9RangeTreeIjE5RangeEEEOT_RNSt16remove_referenceIS7_E4typeE(%"struct.std::_Rb_tree_node"** dereferenceable(8) %1) #3, !dbg !3152
  %2 = load %"struct.std::_Rb_tree_node"*, %"struct.std::_Rb_tree_node"** %call, align 8, !dbg !3152
  %3 = bitcast %"struct.std::_Rb_tree_node"* %2 to %"struct.std::_Rb_tree_node_base"*, !dbg !3152
  store %"struct.std::_Rb_tree_node_base"* %3, %"struct.std::_Rb_tree_node_base"** %first, align 8, !dbg !3150
  %second = getelementptr inbounds %"struct.std::pair.4", %"struct.std::pair.4"* %this1, i32 0, i32 1, !dbg !3153
  %4 = load %"struct.std::_Rb_tree_node_base"**, %"struct.std::_Rb_tree_node_base"*** %__y.addr, align 8, !dbg !3154
  %call2 = call dereferenceable(8) %"struct.std::_Rb_tree_node_base"** @_ZSt7forwardIRPSt18_Rb_tree_node_baseEOT_RNSt16remove_referenceIS3_E4typeE(%"struct.std::_Rb_tree_node_base"** dereferenceable(8) %4) #3, !dbg !3155
  %5 = load %"struct.std::_Rb_tree_node_base"*, %"struct.std::_Rb_tree_node_base"** %call2, align 8, !dbg !3155
  store %"struct.std::_Rb_tree_node_base"* %5, %"struct.std::_Rb_tree_node_base"** %second, align 8, !dbg !3153
  ret void, !dbg !3156
}

; Function Attrs: noinline nounwind uwtable
define linkonce_odr dso_local dereferenceable(8) %"struct.std::_Rb_tree_iterator"* @_ZNSt17_Rb_tree_iteratorIN9RangeTreeIjE5RangeEEmmEv(%"struct.std::_Rb_tree_iterator"* %this) #7 comdat align 2 !dbg !3157 {
entry:
  %this.addr = alloca %"struct.std::_Rb_tree_iterator"*, align 8
  store %"struct.std::_Rb_tree_iterator"* %this, %"struct.std::_Rb_tree_iterator"** %this.addr, align 8
  call void @llvm.dbg.declare(metadata %"struct.std::_Rb_tree_iterator"** %this.addr, metadata !3158, metadata !DIExpression()), !dbg !3159
  %this1 = load %"struct.std::_Rb_tree_iterator"*, %"struct.std::_Rb_tree_iterator"** %this.addr, align 8
  %_M_node = getelementptr inbounds %"struct.std::_Rb_tree_iterator", %"struct.std::_Rb_tree_iterator"* %this1, i32 0, i32 0, !dbg !3160
  %0 = load %"struct.std::_Rb_tree_node_base"*, %"struct.std::_Rb_tree_node_base"** %_M_node, align 8, !dbg !3160
  %call = call %"struct.std::_Rb_tree_node_base"* @_ZSt18_Rb_tree_decrementPSt18_Rb_tree_node_base(%"struct.std::_Rb_tree_node_base"* %0) #15, !dbg !3161
  %_M_node2 = getelementptr inbounds %"struct.std::_Rb_tree_iterator", %"struct.std::_Rb_tree_iterator"* %this1, i32 0, i32 0, !dbg !3162
  store %"struct.std::_Rb_tree_node_base"* %call, %"struct.std::_Rb_tree_node_base"** %_M_node2, align 8, !dbg !3163
  ret %"struct.std::_Rb_tree_iterator"* %this1, !dbg !3164
}

; Function Attrs: noinline uwtable
define linkonce_odr dso_local dereferenceable(12) %"struct.RangeTree<unsigned int>::Range"* @_ZNSt8_Rb_treeIN9RangeTreeIjE5RangeES2_St9_IdentityIS2_ESt4lessIS2_ESaIS2_EE6_S_keyEPKSt18_Rb_tree_node_base(%"struct.std::_Rb_tree_node_base"* %__x) #0 comdat align 2 !dbg !3165 {
entry:
  %__x.addr = alloca %"struct.std::_Rb_tree_node_base"*, align 8
  store %"struct.std::_Rb_tree_node_base"* %__x, %"struct.std::_Rb_tree_node_base"** %__x.addr, align 8
  call void @llvm.dbg.declare(metadata %"struct.std::_Rb_tree_node_base"** %__x.addr, metadata !3166, metadata !DIExpression()), !dbg !3167
  %0 = load %"struct.std::_Rb_tree_node_base"*, %"struct.std::_Rb_tree_node_base"** %__x.addr, align 8, !dbg !3168
  %1 = bitcast %"struct.std::_Rb_tree_node_base"* %0 to %"struct.std::_Rb_tree_node"*, !dbg !3169
  %call = call dereferenceable(12) %"struct.RangeTree<unsigned int>::Range"* @_ZNSt8_Rb_treeIN9RangeTreeIjE5RangeES2_St9_IdentityIS2_ESt4lessIS2_ESaIS2_EE6_S_keyEPKSt13_Rb_tree_nodeIS2_E(%"struct.std::_Rb_tree_node"* %1), !dbg !3170
  ret %"struct.RangeTree<unsigned int>::Range"* %call, !dbg !3171
}

; Function Attrs: noinline nounwind uwtable
define linkonce_odr dso_local void @_ZNSt4pairIPSt18_Rb_tree_node_baseS1_EC2IRS1_Lb1EEEOT_RKS1_(%"struct.std::pair.4"* %this, %"struct.std::_Rb_tree_node_base"** dereferenceable(8) %__x, %"struct.std::_Rb_tree_node_base"** dereferenceable(8) %__y) unnamed_addr #7 comdat align 2 !dbg !3172 {
entry:
  %this.addr = alloca %"struct.std::pair.4"*, align 8
  %__x.addr = alloca %"struct.std::_Rb_tree_node_base"**, align 8
  %__y.addr = alloca %"struct.std::_Rb_tree_node_base"**, align 8
  store %"struct.std::pair.4"* %this, %"struct.std::pair.4"** %this.addr, align 8
  call void @llvm.dbg.declare(metadata %"struct.std::pair.4"** %this.addr, metadata !3180, metadata !DIExpression()), !dbg !3181
  store %"struct.std::_Rb_tree_node_base"** %__x, %"struct.std::_Rb_tree_node_base"*** %__x.addr, align 8
  call void @llvm.dbg.declare(metadata %"struct.std::_Rb_tree_node_base"*** %__x.addr, metadata !3182, metadata !DIExpression()), !dbg !3183
  store %"struct.std::_Rb_tree_node_base"** %__y, %"struct.std::_Rb_tree_node_base"*** %__y.addr, align 8
  call void @llvm.dbg.declare(metadata %"struct.std::_Rb_tree_node_base"*** %__y.addr, metadata !3184, metadata !DIExpression()), !dbg !3185
  %this1 = load %"struct.std::pair.4"*, %"struct.std::pair.4"** %this.addr, align 8
  %0 = bitcast %"struct.std::pair.4"* %this1 to %"class.std::__pair_base.5"*, !dbg !3186
  %first = getelementptr inbounds %"struct.std::pair.4", %"struct.std::pair.4"* %this1, i32 0, i32 0, !dbg !3187
  %1 = load %"struct.std::_Rb_tree_node_base"**, %"struct.std::_Rb_tree_node_base"*** %__x.addr, align 8, !dbg !3188
  %call = call dereferenceable(8) %"struct.std::_Rb_tree_node_base"** @_ZSt7forwardIRPSt18_Rb_tree_node_baseEOT_RNSt16remove_referenceIS3_E4typeE(%"struct.std::_Rb_tree_node_base"** dereferenceable(8) %1) #3, !dbg !3189
  %2 = load %"struct.std::_Rb_tree_node_base"*, %"struct.std::_Rb_tree_node_base"** %call, align 8, !dbg !3189
  store %"struct.std::_Rb_tree_node_base"* %2, %"struct.std::_Rb_tree_node_base"** %first, align 8, !dbg !3187
  %second = getelementptr inbounds %"struct.std::pair.4", %"struct.std::pair.4"* %this1, i32 0, i32 1, !dbg !3190
  %3 = load %"struct.std::_Rb_tree_node_base"**, %"struct.std::_Rb_tree_node_base"*** %__y.addr, align 8, !dbg !3191
  %4 = load %"struct.std::_Rb_tree_node_base"*, %"struct.std::_Rb_tree_node_base"** %3, align 8, !dbg !3191
  store %"struct.std::_Rb_tree_node_base"* %4, %"struct.std::_Rb_tree_node_base"** %second, align 8, !dbg !3190
  ret void, !dbg !3192
}

; Function Attrs: noinline nounwind uwtable
define linkonce_odr dso_local zeroext i1 @_ZNK9RangeTreeIjE5RangeltERKS1_(%"struct.RangeTree<unsigned int>::Range"* %this, %"struct.RangeTree<unsigned int>::Range"* dereferenceable(12) %v) #7 comdat align 2 !dbg !3193 {
entry:
  %this.addr = alloca %"struct.RangeTree<unsigned int>::Range"*, align 8
  %v.addr = alloca %"struct.RangeTree<unsigned int>::Range"*, align 8
  store %"struct.RangeTree<unsigned int>::Range"* %this, %"struct.RangeTree<unsigned int>::Range"** %this.addr, align 8
  call void @llvm.dbg.declare(metadata %"struct.RangeTree<unsigned int>::Range"** %this.addr, metadata !3194, metadata !DIExpression()), !dbg !3195
  store %"struct.RangeTree<unsigned int>::Range"* %v, %"struct.RangeTree<unsigned int>::Range"** %v.addr, align 8
  call void @llvm.dbg.declare(metadata %"struct.RangeTree<unsigned int>::Range"** %v.addr, metadata !3196, metadata !DIExpression()), !dbg !3197
  %this1 = load %"struct.RangeTree<unsigned int>::Range"*, %"struct.RangeTree<unsigned int>::Range"** %this.addr, align 8
  %max = getelementptr inbounds %"struct.RangeTree<unsigned int>::Range", %"struct.RangeTree<unsigned int>::Range"* %this1, i32 0, i32 1, !dbg !3198
  %0 = load i32, i32* %max, align 4, !dbg !3198
  %1 = load %"struct.RangeTree<unsigned int>::Range"*, %"struct.RangeTree<unsigned int>::Range"** %v.addr, align 8, !dbg !3199
  %min = getelementptr inbounds %"struct.RangeTree<unsigned int>::Range", %"struct.RangeTree<unsigned int>::Range"* %1, i32 0, i32 0, !dbg !3200
  %2 = load i32, i32* %min, align 4, !dbg !3200
  %cmp = icmp ult i32 %0, %2, !dbg !3201
  ret i1 %cmp, !dbg !3202
}

; Function Attrs: noinline nounwind uwtable
define linkonce_odr dso_local dereferenceable(12) %"struct.RangeTree<unsigned int>::Range"* @_ZNKSt9_IdentityIN9RangeTreeIjE5RangeEEclERKS2_(%"struct.std::_Identity"* %this, %"struct.RangeTree<unsigned int>::Range"* dereferenceable(12) %__x) #7 comdat align 2 !dbg !3203 {
entry:
  %this.addr = alloca %"struct.std::_Identity"*, align 8
  %__x.addr = alloca %"struct.RangeTree<unsigned int>::Range"*, align 8
  store %"struct.std::_Identity"* %this, %"struct.std::_Identity"** %this.addr, align 8
  call void @llvm.dbg.declare(metadata %"struct.std::_Identity"** %this.addr, metadata !3204, metadata !DIExpression()), !dbg !3205
  store %"struct.RangeTree<unsigned int>::Range"* %__x, %"struct.RangeTree<unsigned int>::Range"** %__x.addr, align 8
  call void @llvm.dbg.declare(metadata %"struct.RangeTree<unsigned int>::Range"** %__x.addr, metadata !3206, metadata !DIExpression()), !dbg !3207
  %this1 = load %"struct.std::_Identity"*, %"struct.std::_Identity"** %this.addr, align 8
  %0 = load %"struct.RangeTree<unsigned int>::Range"*, %"struct.RangeTree<unsigned int>::Range"** %__x.addr, align 8, !dbg !3208
  ret %"struct.RangeTree<unsigned int>::Range"* %0, !dbg !3209
}

; Function Attrs: noinline nounwind uwtable
define linkonce_odr dso_local %"struct.RangeTree<unsigned int>::Range"* @_ZNKSt13_Rb_tree_nodeIN9RangeTreeIjE5RangeEE9_M_valptrEv(%"struct.std::_Rb_tree_node"* %this) #7 comdat align 2 !dbg !3210 {
entry:
  %this.addr = alloca %"struct.std::_Rb_tree_node"*, align 8
  store %"struct.std::_Rb_tree_node"* %this, %"struct.std::_Rb_tree_node"** %this.addr, align 8
  call void @llvm.dbg.declare(metadata %"struct.std::_Rb_tree_node"** %this.addr, metadata !3211, metadata !DIExpression()), !dbg !3212
  %this1 = load %"struct.std::_Rb_tree_node"*, %"struct.std::_Rb_tree_node"** %this.addr, align 8
  %_M_storage = getelementptr inbounds %"struct.std::_Rb_tree_node", %"struct.std::_Rb_tree_node"* %this1, i32 0, i32 1, !dbg !3213
  %call = call %"struct.RangeTree<unsigned int>::Range"* @_ZNK9__gnu_cxx16__aligned_membufIN9RangeTreeIjE5RangeEE6_M_ptrEv(%"struct.__gnu_cxx::__aligned_membuf"* %_M_storage) #3, !dbg !3214
  ret %"struct.RangeTree<unsigned int>::Range"* %call, !dbg !3215
}

; Function Attrs: noinline nounwind uwtable
define linkonce_odr dso_local %"struct.RangeTree<unsigned int>::Range"* @_ZNK9__gnu_cxx16__aligned_membufIN9RangeTreeIjE5RangeEE6_M_ptrEv(%"struct.__gnu_cxx::__aligned_membuf"* %this) #7 comdat align 2 !dbg !3216 {
entry:
  %this.addr = alloca %"struct.__gnu_cxx::__aligned_membuf"*, align 8
  store %"struct.__gnu_cxx::__aligned_membuf"* %this, %"struct.__gnu_cxx::__aligned_membuf"** %this.addr, align 8
  call void @llvm.dbg.declare(metadata %"struct.__gnu_cxx::__aligned_membuf"** %this.addr, metadata !3217, metadata !DIExpression()), !dbg !3219
  %this1 = load %"struct.__gnu_cxx::__aligned_membuf"*, %"struct.__gnu_cxx::__aligned_membuf"** %this.addr, align 8
  %call = call i8* @_ZNK9__gnu_cxx16__aligned_membufIN9RangeTreeIjE5RangeEE7_M_addrEv(%"struct.__gnu_cxx::__aligned_membuf"* %this1) #3, !dbg !3220
  %0 = bitcast i8* %call to %"struct.RangeTree<unsigned int>::Range"*, !dbg !3221
  ret %"struct.RangeTree<unsigned int>::Range"* %0, !dbg !3222
}

; Function Attrs: noinline nounwind uwtable
define linkonce_odr dso_local i8* @_ZNK9__gnu_cxx16__aligned_membufIN9RangeTreeIjE5RangeEE7_M_addrEv(%"struct.__gnu_cxx::__aligned_membuf"* %this) #7 comdat align 2 !dbg !3223 {
entry:
  %this.addr = alloca %"struct.__gnu_cxx::__aligned_membuf"*, align 8
  store %"struct.__gnu_cxx::__aligned_membuf"* %this, %"struct.__gnu_cxx::__aligned_membuf"** %this.addr, align 8
  call void @llvm.dbg.declare(metadata %"struct.__gnu_cxx::__aligned_membuf"** %this.addr, metadata !3224, metadata !DIExpression()), !dbg !3225
  %this1 = load %"struct.__gnu_cxx::__aligned_membuf"*, %"struct.__gnu_cxx::__aligned_membuf"** %this.addr, align 8
  %_M_storage = getelementptr inbounds %"struct.__gnu_cxx::__aligned_membuf", %"struct.__gnu_cxx::__aligned_membuf"* %this1, i32 0, i32 0, !dbg !3226
  %0 = bitcast [12 x i8]* %_M_storage to i8*, !dbg !3227
  ret i8* %0, !dbg !3228
}

; Function Attrs: noinline nounwind uwtable
define linkonce_odr dso_local dereferenceable(8) %"struct.std::_Rb_tree_node"** @_ZSt7forwardIRPSt13_Rb_tree_nodeIN9RangeTreeIjE5RangeEEEOT_RNSt16remove_referenceIS7_E4typeE(%"struct.std::_Rb_tree_node"** dereferenceable(8) %__t) #7 comdat !dbg !3229 {
entry:
  %__t.addr = alloca %"struct.std::_Rb_tree_node"**, align 8
  store %"struct.std::_Rb_tree_node"** %__t, %"struct.std::_Rb_tree_node"*** %__t.addr, align 8
  call void @llvm.dbg.declare(metadata %"struct.std::_Rb_tree_node"*** %__t.addr, metadata !3237, metadata !DIExpression()), !dbg !3238
  %0 = load %"struct.std::_Rb_tree_node"**, %"struct.std::_Rb_tree_node"*** %__t.addr, align 8, !dbg !3239
  ret %"struct.std::_Rb_tree_node"** %0, !dbg !3240
}

; Function Attrs: noinline nounwind uwtable
define linkonce_odr dso_local dereferenceable(8) %"struct.std::_Rb_tree_node_base"** @_ZSt7forwardIRPSt18_Rb_tree_node_baseEOT_RNSt16remove_referenceIS3_E4typeE(%"struct.std::_Rb_tree_node_base"** dereferenceable(8) %__t) #7 comdat !dbg !3241 {
entry:
  %__t.addr = alloca %"struct.std::_Rb_tree_node_base"**, align 8
  store %"struct.std::_Rb_tree_node_base"** %__t, %"struct.std::_Rb_tree_node_base"*** %__t.addr, align 8
  call void @llvm.dbg.declare(metadata %"struct.std::_Rb_tree_node_base"*** %__t.addr, metadata !3249, metadata !DIExpression()), !dbg !3250
  %0 = load %"struct.std::_Rb_tree_node_base"**, %"struct.std::_Rb_tree_node_base"*** %__t.addr, align 8, !dbg !3251
  ret %"struct.std::_Rb_tree_node_base"** %0, !dbg !3252
}

; Function Attrs: nounwind readonly
declare dso_local %"struct.std::_Rb_tree_node_base"* @_ZSt18_Rb_tree_decrementPSt18_Rb_tree_node_base(%"struct.std::_Rb_tree_node_base"*) #9

; Function Attrs: noinline uwtable
define linkonce_odr dso_local %"struct.std::_Rb_tree_node"* @_ZNKSt8_Rb_treeIN9RangeTreeIjE5RangeES2_St9_IdentityIS2_ESt4lessIS2_ESaIS2_EE11_Alloc_nodeclIS2_EEPSt13_Rb_tree_nodeIS2_EOT_(%"struct.std::_Rb_tree<RangeTree<unsigned int>::Range, RangeTree<unsigned int>::Range, std::_Identity<RangeTree<unsigned int>::Range>, std::less<RangeTree<unsigned int>::Range>, std::allocator<RangeTree<unsigned int>::Range> >::_Alloc_node"* %this, %"struct.RangeTree<unsigned int>::Range"* dereferenceable(12) %__arg) #0 comdat align 2 !dbg !3253 {
entry:
  %this.addr = alloca %"struct.std::_Rb_tree<RangeTree<unsigned int>::Range, RangeTree<unsigned int>::Range, std::_Identity<RangeTree<unsigned int>::Range>, std::less<RangeTree<unsigned int>::Range>, std::allocator<RangeTree<unsigned int>::Range> >::_Alloc_node"*, align 8
  %__arg.addr = alloca %"struct.RangeTree<unsigned int>::Range"*, align 8
  store %"struct.std::_Rb_tree<RangeTree<unsigned int>::Range, RangeTree<unsigned int>::Range, std::_Identity<RangeTree<unsigned int>::Range>, std::less<RangeTree<unsigned int>::Range>, std::allocator<RangeTree<unsigned int>::Range> >::_Alloc_node"* %this, %"struct.std::_Rb_tree<RangeTree<unsigned int>::Range, RangeTree<unsigned int>::Range, std::_Identity<RangeTree<unsigned int>::Range>, std::less<RangeTree<unsigned int>::Range>, std::allocator<RangeTree<unsigned int>::Range> >::_Alloc_node"** %this.addr, align 8
  call void @llvm.dbg.declare(metadata %"struct.std::_Rb_tree<RangeTree<unsigned int>::Range, RangeTree<unsigned int>::Range, std::_Identity<RangeTree<unsigned int>::Range>, std::less<RangeTree<unsigned int>::Range>, std::allocator<RangeTree<unsigned int>::Range> >::_Alloc_node"** %this.addr, metadata !3259, metadata !DIExpression()), !dbg !3261
  store %"struct.RangeTree<unsigned int>::Range"* %__arg, %"struct.RangeTree<unsigned int>::Range"** %__arg.addr, align 8
  call void @llvm.dbg.declare(metadata %"struct.RangeTree<unsigned int>::Range"** %__arg.addr, metadata !3262, metadata !DIExpression()), !dbg !3263
  %this1 = load %"struct.std::_Rb_tree<RangeTree<unsigned int>::Range, RangeTree<unsigned int>::Range, std::_Identity<RangeTree<unsigned int>::Range>, std::less<RangeTree<unsigned int>::Range>, std::allocator<RangeTree<unsigned int>::Range> >::_Alloc_node"*, %"struct.std::_Rb_tree<RangeTree<unsigned int>::Range, RangeTree<unsigned int>::Range, std::_Identity<RangeTree<unsigned int>::Range>, std::less<RangeTree<unsigned int>::Range>, std::allocator<RangeTree<unsigned int>::Range> >::_Alloc_node"** %this.addr, align 8
  %_M_t = getelementptr inbounds %"struct.std::_Rb_tree<RangeTree<unsigned int>::Range, RangeTree<unsigned int>::Range, std::_Identity<RangeTree<unsigned int>::Range>, std::less<RangeTree<unsigned int>::Range>, std::allocator<RangeTree<unsigned int>::Range> >::_Alloc_node", %"struct.std::_Rb_tree<RangeTree<unsigned int>::Range, RangeTree<unsigned int>::Range, std::_Identity<RangeTree<unsigned int>::Range>, std::less<RangeTree<unsigned int>::Range>, std::allocator<RangeTree<unsigned int>::Range> >::_Alloc_node"* %this1, i32 0, i32 0, !dbg !3264
  %0 = load %"class.std::_Rb_tree"*, %"class.std::_Rb_tree"** %_M_t, align 8, !dbg !3264
  %1 = load %"struct.RangeTree<unsigned int>::Range"*, %"struct.RangeTree<unsigned int>::Range"** %__arg.addr, align 8, !dbg !3265
  %call = call dereferenceable(12) %"struct.RangeTree<unsigned int>::Range"* @_ZSt7forwardIN9RangeTreeIjE5RangeEEOT_RNSt16remove_referenceIS3_E4typeE(%"struct.RangeTree<unsigned int>::Range"* dereferenceable(12) %1) #3, !dbg !3265
  %call2 = call %"struct.std::_Rb_tree_node"* @_ZNSt8_Rb_treeIN9RangeTreeIjE5RangeES2_St9_IdentityIS2_ESt4lessIS2_ESaIS2_EE14_M_create_nodeIJS2_EEEPSt13_Rb_tree_nodeIS2_EDpOT_(%"class.std::_Rb_tree"* %0, %"struct.RangeTree<unsigned int>::Range"* dereferenceable(12) %call), !dbg !3266
  ret %"struct.std::_Rb_tree_node"* %call2, !dbg !3267
}

; Function Attrs: nounwind
declare dso_local void @_ZSt29_Rb_tree_insert_and_rebalancebPSt18_Rb_tree_node_baseS0_RS_(i1 zeroext, %"struct.std::_Rb_tree_node_base"*, %"struct.std::_Rb_tree_node_base"*, %"struct.std::_Rb_tree_node_base"* dereferenceable(32)) #2

; Function Attrs: noinline uwtable
define linkonce_odr dso_local %"struct.std::_Rb_tree_node"* @_ZNSt8_Rb_treeIN9RangeTreeIjE5RangeES2_St9_IdentityIS2_ESt4lessIS2_ESaIS2_EE14_M_create_nodeIJS2_EEEPSt13_Rb_tree_nodeIS2_EDpOT_(%"class.std::_Rb_tree"* %this, %"struct.RangeTree<unsigned int>::Range"* dereferenceable(12) %__args) #0 comdat align 2 !dbg !3268 {
entry:
  %this.addr = alloca %"class.std::_Rb_tree"*, align 8
  %__args.addr = alloca %"struct.RangeTree<unsigned int>::Range"*, align 8
  %__tmp = alloca %"struct.std::_Rb_tree_node"*, align 8
  store %"class.std::_Rb_tree"* %this, %"class.std::_Rb_tree"** %this.addr, align 8
  call void @llvm.dbg.declare(metadata %"class.std::_Rb_tree"** %this.addr, metadata !3275, metadata !DIExpression()), !dbg !3276
  store %"struct.RangeTree<unsigned int>::Range"* %__args, %"struct.RangeTree<unsigned int>::Range"** %__args.addr, align 8
  call void @llvm.dbg.declare(metadata %"struct.RangeTree<unsigned int>::Range"** %__args.addr, metadata !3277, metadata !DIExpression()), !dbg !3278
  %this1 = load %"class.std::_Rb_tree"*, %"class.std::_Rb_tree"** %this.addr, align 8
  call void @llvm.dbg.declare(metadata %"struct.std::_Rb_tree_node"** %__tmp, metadata !3279, metadata !DIExpression()), !dbg !3280
  %call = call %"struct.std::_Rb_tree_node"* @_ZNSt8_Rb_treeIN9RangeTreeIjE5RangeES2_St9_IdentityIS2_ESt4lessIS2_ESaIS2_EE11_M_get_nodeEv(%"class.std::_Rb_tree"* %this1), !dbg !3281
  store %"struct.std::_Rb_tree_node"* %call, %"struct.std::_Rb_tree_node"** %__tmp, align 8, !dbg !3280
  %0 = load %"struct.std::_Rb_tree_node"*, %"struct.std::_Rb_tree_node"** %__tmp, align 8, !dbg !3282
  %1 = load %"struct.RangeTree<unsigned int>::Range"*, %"struct.RangeTree<unsigned int>::Range"** %__args.addr, align 8, !dbg !3283
  %call2 = call dereferenceable(12) %"struct.RangeTree<unsigned int>::Range"* @_ZSt7forwardIN9RangeTreeIjE5RangeEEOT_RNSt16remove_referenceIS3_E4typeE(%"struct.RangeTree<unsigned int>::Range"* dereferenceable(12) %1) #3, !dbg !3284
  call void @_ZNSt8_Rb_treeIN9RangeTreeIjE5RangeES2_St9_IdentityIS2_ESt4lessIS2_ESaIS2_EE17_M_construct_nodeIJS2_EEEvPSt13_Rb_tree_nodeIS2_EDpOT_(%"class.std::_Rb_tree"* %this1, %"struct.std::_Rb_tree_node"* %0, %"struct.RangeTree<unsigned int>::Range"* dereferenceable(12) %call2), !dbg !3285
  %2 = load %"struct.std::_Rb_tree_node"*, %"struct.std::_Rb_tree_node"** %__tmp, align 8, !dbg !3286
  ret %"struct.std::_Rb_tree_node"* %2, !dbg !3287
}

; Function Attrs: noinline uwtable
define linkonce_odr dso_local %"struct.std::_Rb_tree_node"* @_ZNSt8_Rb_treeIN9RangeTreeIjE5RangeES2_St9_IdentityIS2_ESt4lessIS2_ESaIS2_EE11_M_get_nodeEv(%"class.std::_Rb_tree"* %this) #0 comdat align 2 !dbg !3288 {
entry:
  %this.addr = alloca %"class.std::_Rb_tree"*, align 8
  store %"class.std::_Rb_tree"* %this, %"class.std::_Rb_tree"** %this.addr, align 8
  call void @llvm.dbg.declare(metadata %"class.std::_Rb_tree"** %this.addr, metadata !3289, metadata !DIExpression()), !dbg !3290
  %this1 = load %"class.std::_Rb_tree"*, %"class.std::_Rb_tree"** %this.addr, align 8
  %call = call dereferenceable(1) %"class.std::allocator"* @_ZNSt8_Rb_treeIN9RangeTreeIjE5RangeES2_St9_IdentityIS2_ESt4lessIS2_ESaIS2_EE21_M_get_Node_allocatorEv(%"class.std::_Rb_tree"* %this1) #3, !dbg !3291
  %call2 = call %"struct.std::_Rb_tree_node"* @_ZNSt16allocator_traitsISaISt13_Rb_tree_nodeIN9RangeTreeIjE5RangeEEEE8allocateERS5_m(%"class.std::allocator"* dereferenceable(1) %call, i64 1), !dbg !3292
  ret %"struct.std::_Rb_tree_node"* %call2, !dbg !3293
}

; Function Attrs: noinline uwtable
define linkonce_odr dso_local void @_ZNSt8_Rb_treeIN9RangeTreeIjE5RangeES2_St9_IdentityIS2_ESt4lessIS2_ESaIS2_EE17_M_construct_nodeIJS2_EEEvPSt13_Rb_tree_nodeIS2_EDpOT_(%"class.std::_Rb_tree"* %this, %"struct.std::_Rb_tree_node"* %__node, %"struct.RangeTree<unsigned int>::Range"* dereferenceable(12) %__args) #0 comdat align 2 personality i8* bitcast (i32 (...)* @__gxx_personality_v0 to i8*) !dbg !3294 {
entry:
  %this.addr = alloca %"class.std::_Rb_tree"*, align 8
  %__node.addr = alloca %"struct.std::_Rb_tree_node"*, align 8
  %__args.addr = alloca %"struct.RangeTree<unsigned int>::Range"*, align 8
  %exn.slot = alloca i8*
  %ehselector.slot = alloca i32
  store %"class.std::_Rb_tree"* %this, %"class.std::_Rb_tree"** %this.addr, align 8
  call void @llvm.dbg.declare(metadata %"class.std::_Rb_tree"** %this.addr, metadata !3298, metadata !DIExpression()), !dbg !3299
  store %"struct.std::_Rb_tree_node"* %__node, %"struct.std::_Rb_tree_node"** %__node.addr, align 8
  call void @llvm.dbg.declare(metadata %"struct.std::_Rb_tree_node"** %__node.addr, metadata !3300, metadata !DIExpression()), !dbg !3301
  store %"struct.RangeTree<unsigned int>::Range"* %__args, %"struct.RangeTree<unsigned int>::Range"** %__args.addr, align 8
  call void @llvm.dbg.declare(metadata %"struct.RangeTree<unsigned int>::Range"** %__args.addr, metadata !3302, metadata !DIExpression()), !dbg !3303
  %this1 = load %"class.std::_Rb_tree"*, %"class.std::_Rb_tree"** %this.addr, align 8
  %0 = load %"struct.std::_Rb_tree_node"*, %"struct.std::_Rb_tree_node"** %__node.addr, align 8, !dbg !3304
  %1 = bitcast %"struct.std::_Rb_tree_node"* %0 to i8*, !dbg !3306
  %2 = bitcast i8* %1 to %"struct.std::_Rb_tree_node"*, !dbg !3306
  %call = call dereferenceable(1) %"class.std::allocator"* @_ZNSt8_Rb_treeIN9RangeTreeIjE5RangeES2_St9_IdentityIS2_ESt4lessIS2_ESaIS2_EE21_M_get_Node_allocatorEv(%"class.std::_Rb_tree"* %this1) #3, !dbg !3307
  %3 = load %"struct.std::_Rb_tree_node"*, %"struct.std::_Rb_tree_node"** %__node.addr, align 8, !dbg !3308
  %call2 = invoke %"struct.RangeTree<unsigned int>::Range"* @_ZNSt13_Rb_tree_nodeIN9RangeTreeIjE5RangeEE9_M_valptrEv(%"struct.std::_Rb_tree_node"* %3)
          to label %invoke.cont unwind label %lpad, !dbg !3309

invoke.cont:                                      ; preds = %entry
  %4 = load %"struct.RangeTree<unsigned int>::Range"*, %"struct.RangeTree<unsigned int>::Range"** %__args.addr, align 8, !dbg !3310
  %call3 = call dereferenceable(12) %"struct.RangeTree<unsigned int>::Range"* @_ZSt7forwardIN9RangeTreeIjE5RangeEEOT_RNSt16remove_referenceIS3_E4typeE(%"struct.RangeTree<unsigned int>::Range"* dereferenceable(12) %4) #3, !dbg !3311
  call void @_ZNSt16allocator_traitsISaISt13_Rb_tree_nodeIN9RangeTreeIjE5RangeEEEE9constructIS3_JS3_EEEvRS5_PT_DpOT0_(%"class.std::allocator"* dereferenceable(1) %call, %"struct.RangeTree<unsigned int>::Range"* %call2, %"struct.RangeTree<unsigned int>::Range"* dereferenceable(12) %call3) #3, !dbg !3312
  br label %try.cont, !dbg !3313

lpad:                                             ; preds = %entry
  %5 = landingpad { i8*, i32 }
          catch i8* null, !dbg !3314
  %6 = extractvalue { i8*, i32 } %5, 0, !dbg !3314
  store i8* %6, i8** %exn.slot, align 8, !dbg !3314
  %7 = extractvalue { i8*, i32 } %5, 1, !dbg !3314
  store i32 %7, i32* %ehselector.slot, align 4, !dbg !3314
  br label %catch, !dbg !3314

catch:                                            ; preds = %lpad
  %exn = load i8*, i8** %exn.slot, align 8, !dbg !3313
  %8 = call i8* @__cxa_begin_catch(i8* %exn) #3, !dbg !3313
  %9 = load %"struct.std::_Rb_tree_node"*, %"struct.std::_Rb_tree_node"** %__node.addr, align 8, !dbg !3315
  %10 = load %"struct.std::_Rb_tree_node"*, %"struct.std::_Rb_tree_node"** %__node.addr, align 8, !dbg !3317
  call void @_ZNSt8_Rb_treeIN9RangeTreeIjE5RangeES2_St9_IdentityIS2_ESt4lessIS2_ESaIS2_EE11_M_put_nodeEPSt13_Rb_tree_nodeIS2_E(%"class.std::_Rb_tree"* %this1, %"struct.std::_Rb_tree_node"* %10) #3, !dbg !3318
  invoke void @__cxa_rethrow() #16
          to label %unreachable unwind label %lpad4, !dbg !3319

lpad4:                                            ; preds = %catch
  %11 = landingpad { i8*, i32 }
          cleanup, !dbg !3320
  %12 = extractvalue { i8*, i32 } %11, 0, !dbg !3320
  store i8* %12, i8** %exn.slot, align 8, !dbg !3320
  %13 = extractvalue { i8*, i32 } %11, 1, !dbg !3320
  store i32 %13, i32* %ehselector.slot, align 4, !dbg !3320
  invoke void @__cxa_end_catch()
          to label %invoke.cont5 unwind label %terminate.lpad, !dbg !3321

invoke.cont5:                                     ; preds = %lpad4
  br label %eh.resume, !dbg !3321

try.cont:                                         ; preds = %invoke.cont
  ret void, !dbg !3322

eh.resume:                                        ; preds = %invoke.cont5
  %exn6 = load i8*, i8** %exn.slot, align 8, !dbg !3321
  %sel = load i32, i32* %ehselector.slot, align 4, !dbg !3321
  %lpad.val = insertvalue { i8*, i32 } undef, i8* %exn6, 0, !dbg !3321
  %lpad.val7 = insertvalue { i8*, i32 } %lpad.val, i32 %sel, 1, !dbg !3321
  resume { i8*, i32 } %lpad.val7, !dbg !3321

terminate.lpad:                                   ; preds = %lpad4
  %14 = landingpad { i8*, i32 }
          catch i8* null, !dbg !3321
  %15 = extractvalue { i8*, i32 } %14, 0, !dbg !3321
  call void @__clang_call_terminate(i8* %15) #14, !dbg !3321
  unreachable, !dbg !3321

unreachable:                                      ; preds = %catch
  unreachable
}

; Function Attrs: noinline uwtable
define linkonce_odr dso_local %"struct.std::_Rb_tree_node"* @_ZNSt16allocator_traitsISaISt13_Rb_tree_nodeIN9RangeTreeIjE5RangeEEEE8allocateERS5_m(%"class.std::allocator"* dereferenceable(1) %__a, i64 %__n) #0 comdat align 2 !dbg !3323 {
entry:
  %__a.addr = alloca %"class.std::allocator"*, align 8
  %__n.addr = alloca i64, align 8
  store %"class.std::allocator"* %__a, %"class.std::allocator"** %__a.addr, align 8
  call void @llvm.dbg.declare(metadata %"class.std::allocator"** %__a.addr, metadata !3324, metadata !DIExpression()), !dbg !3325
  store i64 %__n, i64* %__n.addr, align 8
  call void @llvm.dbg.declare(metadata i64* %__n.addr, metadata !3326, metadata !DIExpression()), !dbg !3327
  %0 = load %"class.std::allocator"*, %"class.std::allocator"** %__a.addr, align 8, !dbg !3328
  %1 = bitcast %"class.std::allocator"* %0 to %"class.__gnu_cxx::new_allocator"*, !dbg !3328
  %2 = load i64, i64* %__n.addr, align 8, !dbg !3329
  %call = call %"struct.std::_Rb_tree_node"* @_ZN9__gnu_cxx13new_allocatorISt13_Rb_tree_nodeIN9RangeTreeIjE5RangeEEE8allocateEmPKv(%"class.__gnu_cxx::new_allocator"* %1, i64 %2, i8* null), !dbg !3330
  ret %"struct.std::_Rb_tree_node"* %call, !dbg !3331
}

; Function Attrs: noinline uwtable
define linkonce_odr dso_local %"struct.std::_Rb_tree_node"* @_ZN9__gnu_cxx13new_allocatorISt13_Rb_tree_nodeIN9RangeTreeIjE5RangeEEE8allocateEmPKv(%"class.__gnu_cxx::new_allocator"* %this, i64 %__n, i8* %0) #0 comdat align 2 !dbg !3332 {
entry:
  %this.addr = alloca %"class.__gnu_cxx::new_allocator"*, align 8
  %__n.addr = alloca i64, align 8
  %.addr = alloca i8*, align 8
  store %"class.__gnu_cxx::new_allocator"* %this, %"class.__gnu_cxx::new_allocator"** %this.addr, align 8
  call void @llvm.dbg.declare(metadata %"class.__gnu_cxx::new_allocator"** %this.addr, metadata !3333, metadata !DIExpression()), !dbg !3334
  store i64 %__n, i64* %__n.addr, align 8
  call void @llvm.dbg.declare(metadata i64* %__n.addr, metadata !3335, metadata !DIExpression()), !dbg !3336
  store i8* %0, i8** %.addr, align 8
  call void @llvm.dbg.declare(metadata i8** %.addr, metadata !3337, metadata !DIExpression()), !dbg !3338
  %this1 = load %"class.__gnu_cxx::new_allocator"*, %"class.__gnu_cxx::new_allocator"** %this.addr, align 8
  %1 = load i64, i64* %__n.addr, align 8, !dbg !3339
  %call = call i64 @_ZNK9__gnu_cxx13new_allocatorISt13_Rb_tree_nodeIN9RangeTreeIjE5RangeEEE11_M_max_sizeEv(%"class.__gnu_cxx::new_allocator"* %this1) #3, !dbg !3341
  %cmp = icmp ugt i64 %1, %call, !dbg !3342
  br i1 %cmp, label %if.then, label %if.end, !dbg !3343

if.then:                                          ; preds = %entry
  call void @_ZSt17__throw_bad_allocv() #16, !dbg !3344
  unreachable, !dbg !3344

if.end:                                           ; preds = %entry
  %2 = load i64, i64* %__n.addr, align 8, !dbg !3345
  %mul = mul i64 %2, 48, !dbg !3346
  %call2 = call i8* @_Znwm(i64 %mul), !dbg !3347
  %3 = bitcast i8* %call2 to %"struct.std::_Rb_tree_node"*, !dbg !3348
  ret %"struct.std::_Rb_tree_node"* %3, !dbg !3349
}

; Function Attrs: noinline nounwind uwtable
define linkonce_odr dso_local i64 @_ZNK9__gnu_cxx13new_allocatorISt13_Rb_tree_nodeIN9RangeTreeIjE5RangeEEE11_M_max_sizeEv(%"class.__gnu_cxx::new_allocator"* %this) #7 comdat align 2 !dbg !3350 {
entry:
  %this.addr = alloca %"class.__gnu_cxx::new_allocator"*, align 8
  store %"class.__gnu_cxx::new_allocator"* %this, %"class.__gnu_cxx::new_allocator"** %this.addr, align 8
  call void @llvm.dbg.declare(metadata %"class.__gnu_cxx::new_allocator"** %this.addr, metadata !3351, metadata !DIExpression()), !dbg !3353
  %this1 = load %"class.__gnu_cxx::new_allocator"*, %"class.__gnu_cxx::new_allocator"** %this.addr, align 8
  ret i64 192153584101141162, !dbg !3354
}

; Function Attrs: noreturn
declare dso_local void @_ZSt17__throw_bad_allocv() #10

; Function Attrs: noinline nounwind uwtable
define linkonce_odr dso_local void @_ZNSt16allocator_traitsISaISt13_Rb_tree_nodeIN9RangeTreeIjE5RangeEEEE9constructIS3_JS3_EEEvRS5_PT_DpOT0_(%"class.std::allocator"* dereferenceable(1) %__a, %"struct.RangeTree<unsigned int>::Range"* %__p, %"struct.RangeTree<unsigned int>::Range"* dereferenceable(12) %__args) #7 comdat align 2 !dbg !3355 {
entry:
  %__a.addr = alloca %"class.std::allocator"*, align 8
  %__p.addr = alloca %"struct.RangeTree<unsigned int>::Range"*, align 8
  %__args.addr = alloca %"struct.RangeTree<unsigned int>::Range"*, align 8
  store %"class.std::allocator"* %__a, %"class.std::allocator"** %__a.addr, align 8
  call void @llvm.dbg.declare(metadata %"class.std::allocator"** %__a.addr, metadata !3360, metadata !DIExpression()), !dbg !3361
  store %"struct.RangeTree<unsigned int>::Range"* %__p, %"struct.RangeTree<unsigned int>::Range"** %__p.addr, align 8
  call void @llvm.dbg.declare(metadata %"struct.RangeTree<unsigned int>::Range"** %__p.addr, metadata !3362, metadata !DIExpression()), !dbg !3363
  store %"struct.RangeTree<unsigned int>::Range"* %__args, %"struct.RangeTree<unsigned int>::Range"** %__args.addr, align 8
  call void @llvm.dbg.declare(metadata %"struct.RangeTree<unsigned int>::Range"** %__args.addr, metadata !3364, metadata !DIExpression()), !dbg !3365
  %0 = load %"class.std::allocator"*, %"class.std::allocator"** %__a.addr, align 8, !dbg !3366
  %1 = bitcast %"class.std::allocator"* %0 to %"class.__gnu_cxx::new_allocator"*, !dbg !3366
  %2 = load %"struct.RangeTree<unsigned int>::Range"*, %"struct.RangeTree<unsigned int>::Range"** %__p.addr, align 8, !dbg !3367
  %3 = load %"struct.RangeTree<unsigned int>::Range"*, %"struct.RangeTree<unsigned int>::Range"** %__args.addr, align 8, !dbg !3368
  %call = call dereferenceable(12) %"struct.RangeTree<unsigned int>::Range"* @_ZSt7forwardIN9RangeTreeIjE5RangeEEOT_RNSt16remove_referenceIS3_E4typeE(%"struct.RangeTree<unsigned int>::Range"* dereferenceable(12) %3) #3, !dbg !3369
  call void @_ZN9__gnu_cxx13new_allocatorISt13_Rb_tree_nodeIN9RangeTreeIjE5RangeEEE9constructIS4_JS4_EEEvPT_DpOT0_(%"class.__gnu_cxx::new_allocator"* %1, %"struct.RangeTree<unsigned int>::Range"* %2, %"struct.RangeTree<unsigned int>::Range"* dereferenceable(12) %call) #3, !dbg !3370
  ret void, !dbg !3371
}

declare dso_local void @__cxa_rethrow()

declare dso_local void @__cxa_end_catch()

; Function Attrs: noinline nounwind uwtable
define linkonce_odr dso_local void @_ZN9__gnu_cxx13new_allocatorISt13_Rb_tree_nodeIN9RangeTreeIjE5RangeEEE9constructIS4_JS4_EEEvPT_DpOT0_(%"class.__gnu_cxx::new_allocator"* %this, %"struct.RangeTree<unsigned int>::Range"* %__p, %"struct.RangeTree<unsigned int>::Range"* dereferenceable(12) %__args) #7 comdat align 2 !dbg !3372 {
entry:
  %this.addr = alloca %"class.__gnu_cxx::new_allocator"*, align 8
  %__p.addr = alloca %"struct.RangeTree<unsigned int>::Range"*, align 8
  %__args.addr = alloca %"struct.RangeTree<unsigned int>::Range"*, align 8
  store %"class.__gnu_cxx::new_allocator"* %this, %"class.__gnu_cxx::new_allocator"** %this.addr, align 8
  call void @llvm.dbg.declare(metadata %"class.__gnu_cxx::new_allocator"** %this.addr, metadata !3376, metadata !DIExpression()), !dbg !3377
  store %"struct.RangeTree<unsigned int>::Range"* %__p, %"struct.RangeTree<unsigned int>::Range"** %__p.addr, align 8
  call void @llvm.dbg.declare(metadata %"struct.RangeTree<unsigned int>::Range"** %__p.addr, metadata !3378, metadata !DIExpression()), !dbg !3379
  store %"struct.RangeTree<unsigned int>::Range"* %__args, %"struct.RangeTree<unsigned int>::Range"** %__args.addr, align 8
  call void @llvm.dbg.declare(metadata %"struct.RangeTree<unsigned int>::Range"** %__args.addr, metadata !3380, metadata !DIExpression()), !dbg !3381
  %this1 = load %"class.__gnu_cxx::new_allocator"*, %"class.__gnu_cxx::new_allocator"** %this.addr, align 8
  %0 = load %"struct.RangeTree<unsigned int>::Range"*, %"struct.RangeTree<unsigned int>::Range"** %__p.addr, align 8, !dbg !3382
  %1 = bitcast %"struct.RangeTree<unsigned int>::Range"* %0 to i8*, !dbg !3382
  %2 = bitcast i8* %1 to %"struct.RangeTree<unsigned int>::Range"*, !dbg !3383
  %3 = load %"struct.RangeTree<unsigned int>::Range"*, %"struct.RangeTree<unsigned int>::Range"** %__args.addr, align 8, !dbg !3384
  %call = call dereferenceable(12) %"struct.RangeTree<unsigned int>::Range"* @_ZSt7forwardIN9RangeTreeIjE5RangeEEOT_RNSt16remove_referenceIS3_E4typeE(%"struct.RangeTree<unsigned int>::Range"* dereferenceable(12) %3) #3, !dbg !3385
  %4 = bitcast %"struct.RangeTree<unsigned int>::Range"* %2 to i8*, !dbg !3386
  %5 = bitcast %"struct.RangeTree<unsigned int>::Range"* %call to i8*, !dbg !3386
  call void @llvm.memcpy.p0i8.p0i8.i64(i8* align 4 %4, i8* align 4 %5, i64 12, i1 false), !dbg !3386
  ret void, !dbg !3387
}

; Function Attrs: argmemonly nounwind willreturn
declare void @llvm.memcpy.p0i8.p0i8.i64(i8* noalias nocapture writeonly, i8* noalias nocapture readonly, i64, i1 immarg) #11

; Function Attrs: noinline nounwind uwtable
define linkonce_odr dso_local dereferenceable(8) %"struct.std::_Rb_tree_iterator"* @_ZSt7forwardISt17_Rb_tree_iteratorIN9RangeTreeIjE5RangeEEEOT_RNSt16remove_referenceIS5_E4typeE(%"struct.std::_Rb_tree_iterator"* dereferenceable(8) %__t) #7 comdat !dbg !3388 {
entry:
  %__t.addr = alloca %"struct.std::_Rb_tree_iterator"*, align 8
  store %"struct.std::_Rb_tree_iterator"* %__t, %"struct.std::_Rb_tree_iterator"** %__t.addr, align 8
  call void @llvm.dbg.declare(metadata %"struct.std::_Rb_tree_iterator"** %__t.addr, metadata !3396, metadata !DIExpression()), !dbg !3397
  %0 = load %"struct.std::_Rb_tree_iterator"*, %"struct.std::_Rb_tree_iterator"** %__t.addr, align 8, !dbg !3398
  ret %"struct.std::_Rb_tree_iterator"* %0, !dbg !3399
}

; Function Attrs: noinline nounwind uwtable
define linkonce_odr dso_local dereferenceable(1) i8* @_ZSt7forwardIbEOT_RNSt16remove_referenceIS0_E4typeE(i8* dereferenceable(1) %__t) #7 comdat !dbg !3400 {
entry:
  %__t.addr = alloca i8*, align 8
  store i8* %__t, i8** %__t.addr, align 8
  call void @llvm.dbg.declare(metadata i8** %__t.addr, metadata !3407, metadata !DIExpression()), !dbg !3408
  %0 = load i8*, i8** %__t.addr, align 8, !dbg !3409
  ret i8* %0, !dbg !3410
}

; Function Attrs: noinline nounwind uwtable
define linkonce_odr dso_local dereferenceable(8) %"struct.std::_Rb_tree_iterator"* @_ZSt7forwardIRSt17_Rb_tree_iteratorIN9RangeTreeIjE5RangeEEEOT_RNSt16remove_referenceIS6_E4typeE(%"struct.std::_Rb_tree_iterator"* dereferenceable(8) %__t) #7 comdat !dbg !3411 {
entry:
  %__t.addr = alloca %"struct.std::_Rb_tree_iterator"*, align 8
  store %"struct.std::_Rb_tree_iterator"* %__t, %"struct.std::_Rb_tree_iterator"** %__t.addr, align 8
  call void @llvm.dbg.declare(metadata %"struct.std::_Rb_tree_iterator"** %__t.addr, metadata !3419, metadata !DIExpression()), !dbg !3420
  %0 = load %"struct.std::_Rb_tree_iterator"*, %"struct.std::_Rb_tree_iterator"** %__t.addr, align 8, !dbg !3421
  ret %"struct.std::_Rb_tree_iterator"* %0, !dbg !3422
}

; Function Attrs: noinline nounwind uwtable
define linkonce_odr dso_local void @_ZNSt23_Rb_tree_const_iteratorIN9RangeTreeIjE5RangeEEC2ERKSt17_Rb_tree_iteratorIS2_E(%"struct.std::_Rb_tree_const_iterator"* %this, %"struct.std::_Rb_tree_iterator"* dereferenceable(8) %__it) unnamed_addr #7 comdat align 2 !dbg !3423 {
entry:
  %this.addr = alloca %"struct.std::_Rb_tree_const_iterator"*, align 8
  %__it.addr = alloca %"struct.std::_Rb_tree_iterator"*, align 8
  store %"struct.std::_Rb_tree_const_iterator"* %this, %"struct.std::_Rb_tree_const_iterator"** %this.addr, align 8
  call void @llvm.dbg.declare(metadata %"struct.std::_Rb_tree_const_iterator"** %this.addr, metadata !3424, metadata !DIExpression()), !dbg !3426
